
/home/abdullah/RiescueC/riescue/10x_R/exceptions/testsuite/exceptions/user_sv57/tp_exceptions_1:     file format elf64-littleriscv


Disassembly of section .runtime:

0000000041000000 <_start>:
    41000000:	00000093          	li	x1,0
    41000004:	00000113          	li	x2,0
    41000008:	00000193          	li	x3,0
    4100000c:	00000213          	li	x4,0
    41000010:	00000293          	li	x5,0
    41000014:	00000313          	li	x6,0
    41000018:	00000393          	li	x7,0
    4100001c:	00000413          	li	x8,0
    41000020:	00000493          	li	x9,0
    41000024:	00000513          	li	x10,0
    41000028:	00000593          	li	x11,0
    4100002c:	00000613          	li	x12,0
    41000030:	00000693          	li	x13,0
    41000034:	00000713          	li	x14,0
    41000038:	00000793          	li	x15,0
    4100003c:	00000813          	li	x16,0
    41000040:	00000893          	li	x17,0
    41000044:	00000913          	li	x18,0
    41000048:	00000993          	li	x19,0
    4100004c:	00000a13          	li	x20,0
    41000050:	00000a93          	li	x21,0
    41000054:	00000b13          	li	x22,0
    41000058:	00000b93          	li	x23,0
    4100005c:	00000c13          	li	x24,0
    41000060:	00000c93          	li	x25,0
    41000064:	00000d13          	li	x26,0
    41000068:	00000d93          	li	x27,0
    4100006c:	00000e13          	li	x28,0
    41000070:	00000e93          	li	x29,0
    41000074:	00000f13          	li	x30,0
    41000078:	00000f93          	li	x31,0

000000004100007c <loader__load_panic_address>:
    4100007c:	00001297          	auipc	x5,0x1
    41000080:	9e828293          	addi	x5,x5,-1560 # 41000a64 <eot__failed>
    41000084:	30529073          	csrw	mtvec,x5

0000000041000088 <loader__initialize_runtime>:
    41000088:	00000293          	li	x5,0
    4100008c:	3012a2f3          	csrrs	x5,misa,x5

0000000041000090 <loader__set_mstatus>:
    41000090:	000402b7          	lui	x5,0x40
    41000094:	00a2829b          	addiw	x5,x5,10 # 4000a <pma_region_0_size+0xa>
    41000098:	3002a2f3          	csrrs	x5,mstatus,x5
    4100009c:	44616237          	lui	x4,0x44616
    410000a0:	34021073          	csrw	mscratch,x4

00000000410000a4 <loader__setup_menvcfg>:
    410000a4:	00000297          	auipc	x5,0x0
    410000a8:	4a828293          	addi	x5,x5,1192 # 4100054c <trap_handler_m__trap_entry>
    410000ac:	30529073          	csrw	mtvec,x5

00000000410000b0 <loader__enable_paging>:
    410000b0:	fffa00b7          	lui	x1,0xfffa0
    410000b4:	0610809b          	addiw	x1,x1,97 # fffffffffffa0061 <__section_data_1+0xc1dbcb082d7061>
    410000b8:	01f09093          	slli	x1,x1,0x1f
    410000bc:	02108093          	addi	x1,x1,33
    410000c0:	00d09093          	slli	x1,x1,0xd
    410000c4:	17e08093          	addi	x1,x1,382
    410000c8:	18009073          	csrw	satp,x1

00000000410000cc <loader__done>:
    410000cc:	1c10006f          	j	41000a8c <scheduler__init>

00000000410000d0 <loader__panic>:
    410000d0:	1950006f          	j	41000a64 <eot__failed>

00000000410000d4 <syscalls__syscall_check_schedule_next_test>:
    410000d4:	00f0029b          	addiw	x5,x0,15
    410000d8:	01c29293          	slli	x5,x5,0x1c
    410000dc:	00128293          	addi	x5,x5,1
    410000e0:	01f29a63          	bne	x5,x31,410000f4 <syscalls__syscall_check_fail_test>
    410000e4:	00000317          	auipc	x6,0x0
    410000e8:	46830313          	addi	x6,x6,1128 # 4100054c <trap_handler_m__trap_entry>
    410000ec:	30531073          	csrw	mtvec,x6
    410000f0:	6a00006f          	j	41000790 <enter_scheduler>

00000000410000f4 <syscalls__syscall_check_fail_test>:
    410000f4:	00f0029b          	addiw	x5,x0,15
    410000f8:	01c29293          	slli	x5,x5,0x1c
    410000fc:	00228293          	addi	x5,x5,2
    41000100:	01f29a63          	bne	x5,x31,41000114 <syscalls__syscall_check_end_test_without_failure>
    41000104:	00000317          	auipc	x6,0x0
    41000108:	44830313          	addi	x6,x6,1096 # 4100054c <trap_handler_m__trap_entry>
    4100010c:	30531073          	csrw	mtvec,x6
    41000110:	6b00006f          	j	410007c0 <test_failed>

0000000041000114 <syscalls__syscall_check_end_test_without_failure>:
    41000114:	00f0029b          	addiw	x5,x0,15
    41000118:	01c29293          	slli	x5,x5,0x1c
    4100011c:	00328293          	addi	x5,x5,3
    41000120:	01f29a63          	bne	x5,x31,41000134 <syscalls__syscall_check_switch_machine_mode>
    41000124:	00000317          	auipc	x6,0x0
    41000128:	42830313          	addi	x6,x6,1064 # 4100054c <trap_handler_m__trap_entry>
    4100012c:	30531073          	csrw	mtvec,x6
    41000130:	69c0006f          	j	410007cc <os_end_test>

0000000041000134 <syscalls__syscall_check_switch_machine_mode>:
    41000134:	000f02b7          	lui	x5,0xf0
    41000138:	0012829b          	addiw	x5,x5,1 # f0001 <SID_EXCEP_16_stack+0x93001>
    4100013c:	00c29293          	slli	x5,x5,0xc
    41000140:	00128293          	addi	x5,x5,1
    41000144:	0a5f8463          	beq	x31,x5,410001ec <syscalls__os_fn_f0001001>

0000000041000148 <syscalls__syscall_check_switch_super_mode>:
    41000148:	000f02b7          	lui	x5,0xf0
    4100014c:	0012829b          	addiw	x5,x5,1 # f0001 <SID_EXCEP_16_stack+0x93001>
    41000150:	00c29293          	slli	x5,x5,0xc
    41000154:	00228293          	addi	x5,x5,2
    41000158:	0c5f8063          	beq	x31,x5,41000218 <syscalls__os_fn_f0001002>

000000004100015c <syscalls__syscall_check_switch_user_mode>:
    4100015c:	000f02b7          	lui	x5,0xf0
    41000160:	0012829b          	addiw	x5,x5,1 # f0001 <SID_EXCEP_16_stack+0x93001>
    41000164:	00c29293          	slli	x5,x5,0xc
    41000168:	00328293          	addi	x5,x5,3
    4100016c:	0c5f8e63          	beq	x31,x5,41000248 <syscalls__os_fn_f0001003>

0000000041000170 <syscalls__syscall_check_switch_test_mode>:
    41000170:	000f02b7          	lui	x5,0xf0
    41000174:	0012829b          	addiw	x5,x5,1 # f0001 <SID_EXCEP_16_stack+0x93001>
    41000178:	00c29293          	slli	x5,x5,0xc
    4100017c:	00428293          	addi	x5,x5,4
    41000180:	0c5f8863          	beq	x31,x5,41000250 <syscalls__os_fn_f0001004>

0000000041000184 <syscalls__syscall_machine_csr_rw>:
    41000184:	000f02b7          	lui	x5,0xf0
    41000188:	0012829b          	addiw	x5,x5,1 # f0001 <SID_EXCEP_16_stack+0x93001>
    4100018c:	00c29293          	slli	x5,x5,0xc
    41000190:	00528293          	addi	x5,x5,5
    41000194:	0e5f8263          	beq	x31,x5,41000278 <syscalls__os_fn_f0001005>

0000000041000198 <syscalls__syscall_supervisor_csr_rw>:
    41000198:	000f02b7          	lui	x5,0xf0
    4100019c:	0012829b          	addiw	x5,x5,1 # f0001 <SID_EXCEP_16_stack+0x93001>
    410001a0:	00c29293          	slli	x5,x5,0xc
    410001a4:	00628293          	addi	x5,x5,6
    410001a8:	0e5f8e63          	beq	x31,x5,410002a4 <syscalls__os_fn_f0001006>

00000000410001ac <syscalls__syscall_machine_pte_read>:
    410001ac:	000f02b7          	lui	x5,0xf0
    410001b0:	0012829b          	addiw	x5,x5,1 # f0001 <SID_EXCEP_16_stack+0x93001>
    410001b4:	00c29293          	slli	x5,x5,0xc
    410001b8:	00728293          	addi	x5,x5,7
    410001bc:	105f8c63          	beq	x31,x5,410002d4 <syscalls__os_fn_f0001007>

00000000410001c0 <syscalls__syscall_machine_pte_write>:
    410001c0:	000f02b7          	lui	x5,0xf0
    410001c4:	0012829b          	addiw	x5,x5,1 # f0001 <SID_EXCEP_16_stack+0x93001>
    410001c8:	00c29293          	slli	x5,x5,0xc
    410001cc:	00828293          	addi	x5,x5,8
    410001d0:	1e5f8863          	beq	x31,x5,410003c0 <syscalls__os_fn_f0001008>

00000000410001d4 <syscalls__syscall_check_get_hart_context>:
    410001d4:	000782b7          	lui	x5,0x78
    410001d8:	0012829b          	addiw	x5,x5,1 # 78001 <SID_EXCEP_16_stack+0x1b001>
    410001dc:	00d29293          	slli	x5,x5,0xd
    410001e0:	00128293          	addi	x5,x5,1
    410001e4:	2c5f8463          	beq	x31,x5,410004ac <syscalls__os_get_hart_context>
    410001e8:	4c00006f          	j	410006a8 <trap_handler_m__check_exception_label>

00000000410001ec <syscalls__os_fn_f0001001>:
    410001ec:	000022b7          	lui	x5,0x2
    410001f0:	8002829b          	addiw	x5,x5,-2048 # 1800 <pma_region_1_size+0x800>
    410001f4:	3002b073          	csrc	mstatus,x5
    410001f8:	000022b7          	lui	x5,0x2
    410001fc:	8002829b          	addiw	x5,x5,-2048 # 1800 <pma_region_1_size+0x800>
    41000200:	3002a073          	csrs	mstatus,x5
    41000204:	0010029b          	addiw	x5,x0,1
    41000208:	02729293          	slli	x5,x5,0x27
    4100020c:	3002b073          	csrc	mstatus,x5
    41000210:	411952b7          	lui	x5,0x41195
    41000214:	2a80006f          	j	410004bc <syscalls__ret_from_os_fn>

0000000041000218 <syscalls__os_fn_f0001002>:
    41000218:	000022b7          	lui	x5,0x2
    4100021c:	8002829b          	addiw	x5,x5,-2048 # 1800 <pma_region_1_size+0x800>
    41000220:	3002b073          	csrc	mstatus,x5
    41000224:	000012b7          	lui	x5,0x1
    41000228:	8002829b          	addiw	x5,x5,-2048 # 800 <XLEN+0x7c0>
    4100022c:	3002a073          	csrs	mstatus,x5
    41000230:	0010029b          	addiw	x5,x0,1
    41000234:	02729293          	slli	x5,x5,0x27
    41000238:	3002b073          	csrc	mstatus,x5
    4100023c:	12000073          	sfence.vma
    41000240:	410952b7          	lui	x5,0x41095
    41000244:	2780006f          	j	410004bc <syscalls__ret_from_os_fn>

0000000041000248 <syscalls__os_fn_f0001003>:
    41000248:	411152b7          	lui	x5,0x41115
    4100024c:	2700006f          	j	410004bc <syscalls__ret_from_os_fn>

0000000041000250 <syscalls__os_fn_f0001004>:
    41000250:	000022b7          	lui	x5,0x2
    41000254:	8002829b          	addiw	x5,x5,-2048 # 1800 <pma_region_1_size+0x800>
    41000258:	3002b073          	csrc	mstatus,x5
    4100025c:	00000293          	li	x5,0
    41000260:	3002a073          	csrs	mstatus,x5
    41000264:	0010029b          	addiw	x5,x0,1
    41000268:	02729293          	slli	x5,x5,0x27
    4100026c:	3002b073          	csrc	mstatus,x5
    41000270:	17823283          	ld	x5,376(x4) # 44616178 <__section_hart_context+0x178>
    41000274:	2480006f          	j	410004bc <syscalls__ret_from_os_fn>

0000000041000278 <syscalls__os_fn_f0001005>:
    41000278:	000022b7          	lui	x5,0x2
    4100027c:	8002829b          	addiw	x5,x5,-2048 # 1800 <pma_region_1_size+0x800>
    41000280:	3002b073          	csrc	mstatus,x5
    41000284:	000022b7          	lui	x5,0x2
    41000288:	8002829b          	addiw	x5,x5,-2048 # 1800 <pma_region_1_size+0x800>
    4100028c:	3002a073          	csrs	mstatus,x5
    41000290:	0010029b          	addiw	x5,x0,1
    41000294:	02729293          	slli	x5,x5,0x27
    41000298:	3002b073          	csrc	mstatus,x5
    4100029c:	412152b7          	lui	x5,0x41215
    410002a0:	21c0006f          	j	410004bc <syscalls__ret_from_os_fn>

00000000410002a4 <syscalls__os_fn_f0001006>:
    410002a4:	000022b7          	lui	x5,0x2
    410002a8:	8002829b          	addiw	x5,x5,-2048 # 1800 <pma_region_1_size+0x800>
    410002ac:	3002b073          	csrc	mstatus,x5
    410002b0:	000012b7          	lui	x5,0x1
    410002b4:	8002829b          	addiw	x5,x5,-2048 # 800 <XLEN+0x7c0>
    410002b8:	3002a073          	csrs	mstatus,x5
    410002bc:	0010029b          	addiw	x5,x0,1
    410002c0:	02729293          	slli	x5,x5,0x27
    410002c4:	3002b073          	csrc	mstatus,x5
    410002c8:	12000073          	sfence.vma
    410002cc:	412162b7          	lui	x5,0x41216
    410002d0:	1ec0006f          	j	410004bc <syscalls__ret_from_os_fn>

00000000410002d4 <syscalls__os_fn_f0001007>:
    410002d4:	42b46fb7          	lui	x31,0x42b46
    410002d8:	0b8f8f9b          	addiw	x31,x31,184 # 42b460b8 <pte_access_flags_pa>
    410002dc:	000fbf83          	ld	x31,0(x31)
    410002e0:	42b462b7          	lui	x5,0x42b46
    410002e4:	0c02829b          	addiw	x5,x5,192 # 42b460c0 <pte_access_flags_pa+0x8>
    410002e8:	0002b283          	ld	x5,0(x5)
    410002ec:	42b46e37          	lui	x28,0x42b46
    410002f0:	0c8e0e1b          	addiw	x28,x28,200 # 42b460c8 <pte_access_flags_pa+0x10>
    410002f4:	000e3e03          	ld	x28,0(x28)

00000000410002f8 <syscalls__pte_walk_check_glevel_without_gstage_read>:
    410002f8:	fff00f93          	li	x31,-1
    410002fc:	0dfe1063          	bne	x28,x31,410003bc <syscalls__pte_walk_fail_read>
    41000300:	18002373          	csrr	x6,satp
    41000304:	03c35e93          	srli	x29,x6,0x3c
    41000308:	01431313          	slli	x6,x6,0x14
    4100030c:	01435313          	srli	x6,x6,0x14
    41000310:	00c31313          	slli	x6,x6,0xc
    41000314:	ff8e8e93          	addi	x29,x29,-8
    41000318:	003e9f13          	slli	x30,x29,0x3
    4100031c:	01df0eb3          	add	x29,x30,x29
    41000320:	01ee8e93          	addi	x29,x29,30
    41000324:	00000f13          	li	x30,0

0000000041000328 <syscalls__pte_walk_loop_read>:
    41000328:	42b46fb7          	lui	x31,0x42b46
    4100032c:	0b8f8f9b          	addiw	x31,x31,184 # 42b460b8 <pte_access_flags_pa>
    41000330:	000fbf83          	ld	x31,0(x31)
    41000334:	01dfdfb3          	srl	x31,x31,x29
    41000338:	1fffff93          	andi	x31,x31,511
    4100033c:	003f9f93          	slli	x31,x31,0x3
    41000340:	01f30333          	add	x6,x6,x31
    41000344:	005f0e63          	beq	x30,x5,41000360 <syscalls__pte_walk_done_read>
    41000348:	00033f83          	ld	x31,0(x6)
    4100034c:	00afdf93          	srli	x31,x31,0xa
    41000350:	00cf9313          	slli	x6,x31,0xc
    41000354:	001f0f13          	addi	x30,x30,1
    41000358:	ff7e8e93          	addi	x29,x29,-9
    4100035c:	fcdff06f          	j	41000328 <syscalls__pte_walk_loop_read>

0000000041000360 <syscalls__pte_walk_done_read>:
    41000360:	fff00f93          	li	x31,-1
    41000364:	05fe0263          	beq	x28,x31,410003a8 <syscalls__pte_walk_final_read>

0000000041000368 <syscalls__pte_walk_gstage_read>:
    41000368:	42b46fb7          	lui	x31,0x42b46
    4100036c:	0b8f8f9b          	addiw	x31,x31,184 # 42b460b8 <pte_access_flags_pa>
    41000370:	006fb023          	sd	x6,0(x31)
    41000374:	000e0293          	mv	x5,x28
    41000378:	fff00e13          	li	x28,-1
    4100037c:	68002373          	csrr	x6,hgatp
    41000380:	03c35e93          	srli	x29,x6,0x3c
    41000384:	01431313          	slli	x6,x6,0x14
    41000388:	01435313          	srli	x6,x6,0x14
    4100038c:	00c31313          	slli	x6,x6,0xc
    41000390:	ff8e8e93          	addi	x29,x29,-8
    41000394:	003e9f13          	slli	x30,x29,0x3
    41000398:	01df0eb3          	add	x29,x30,x29
    4100039c:	01ee8e93          	addi	x29,x29,30
    410003a0:	00000f13          	li	x30,0
    410003a4:	f85ff06f          	j	41000328 <syscalls__pte_walk_loop_read>

00000000410003a8 <syscalls__pte_walk_final_read>:
    410003a8:	00033383          	ld	x7,0(x6)
    410003ac:	341022f3          	csrr	x5,mepc
    410003b0:	00428293          	addi	x5,x5,4
    410003b4:	16523c23          	sd	x5,376(x4) # 178 <XLEN+0x138>
    410003b8:	e99ff06f          	j	41000250 <syscalls__os_fn_f0001004>

00000000410003bc <syscalls__pte_walk_fail_read>:
    410003bc:	4040006f          	j	410007c0 <test_failed>

00000000410003c0 <syscalls__os_fn_f0001008>:
    410003c0:	42b46fb7          	lui	x31,0x42b46
    410003c4:	0b8f8f9b          	addiw	x31,x31,184 # 42b460b8 <pte_access_flags_pa>
    410003c8:	000fbf83          	ld	x31,0(x31)
    410003cc:	42b462b7          	lui	x5,0x42b46
    410003d0:	0c02829b          	addiw	x5,x5,192 # 42b460c0 <pte_access_flags_pa+0x8>
    410003d4:	0002b283          	ld	x5,0(x5)
    410003d8:	42b46e37          	lui	x28,0x42b46
    410003dc:	0c8e0e1b          	addiw	x28,x28,200 # 42b460c8 <pte_access_flags_pa+0x10>
    410003e0:	000e3e03          	ld	x28,0(x28)

00000000410003e4 <syscalls__pte_walk_check_glevel_without_gstage_write>:
    410003e4:	fff00f93          	li	x31,-1
    410003e8:	0dfe1063          	bne	x28,x31,410004a8 <syscalls__pte_walk_fail_write>
    410003ec:	18002373          	csrr	x6,satp
    410003f0:	03c35e93          	srli	x29,x6,0x3c
    410003f4:	01431313          	slli	x6,x6,0x14
    410003f8:	01435313          	srli	x6,x6,0x14
    410003fc:	00c31313          	slli	x6,x6,0xc
    41000400:	ff8e8e93          	addi	x29,x29,-8
    41000404:	003e9f13          	slli	x30,x29,0x3
    41000408:	01df0eb3          	add	x29,x30,x29
    4100040c:	01ee8e93          	addi	x29,x29,30
    41000410:	00000f13          	li	x30,0

0000000041000414 <syscalls__pte_walk_loop_write>:
    41000414:	42b46fb7          	lui	x31,0x42b46
    41000418:	0b8f8f9b          	addiw	x31,x31,184 # 42b460b8 <pte_access_flags_pa>
    4100041c:	000fbf83          	ld	x31,0(x31)
    41000420:	01dfdfb3          	srl	x31,x31,x29
    41000424:	1fffff93          	andi	x31,x31,511
    41000428:	003f9f93          	slli	x31,x31,0x3
    4100042c:	01f30333          	add	x6,x6,x31
    41000430:	005f0e63          	beq	x30,x5,4100044c <syscalls__pte_walk_done_write>
    41000434:	00033f83          	ld	x31,0(x6)
    41000438:	00afdf93          	srli	x31,x31,0xa
    4100043c:	00cf9313          	slli	x6,x31,0xc
    41000440:	001f0f13          	addi	x30,x30,1
    41000444:	ff7e8e93          	addi	x29,x29,-9
    41000448:	fcdff06f          	j	41000414 <syscalls__pte_walk_loop_write>

000000004100044c <syscalls__pte_walk_done_write>:
    4100044c:	fff00f93          	li	x31,-1
    41000450:	05fe0263          	beq	x28,x31,41000494 <syscalls__pte_walk_final_write>

0000000041000454 <syscalls__pte_walk_gstage_write>:
    41000454:	42b46fb7          	lui	x31,0x42b46
    41000458:	0b8f8f9b          	addiw	x31,x31,184 # 42b460b8 <pte_access_flags_pa>
    4100045c:	006fb023          	sd	x6,0(x31)
    41000460:	000e0293          	mv	x5,x28
    41000464:	fff00e13          	li	x28,-1
    41000468:	68002373          	csrr	x6,hgatp
    4100046c:	03c35e93          	srli	x29,x6,0x3c
    41000470:	01431313          	slli	x6,x6,0x14
    41000474:	01435313          	srli	x6,x6,0x14
    41000478:	00c31313          	slli	x6,x6,0xc
    4100047c:	ff8e8e93          	addi	x29,x29,-8
    41000480:	003e9f13          	slli	x30,x29,0x3
    41000484:	01df0eb3          	add	x29,x30,x29
    41000488:	01ee8e93          	addi	x29,x29,30
    4100048c:	00000f13          	li	x30,0
    41000490:	f85ff06f          	j	41000414 <syscalls__pte_walk_loop_write>

0000000041000494 <syscalls__pte_walk_final_write>:
    41000494:	00733023          	sd	x7,0(x6)
    41000498:	341022f3          	csrr	x5,mepc
    4100049c:	00428293          	addi	x5,x5,4
    410004a0:	16523c23          	sd	x5,376(x4) # 178 <XLEN+0x138>
    410004a4:	dadff06f          	j	41000250 <syscalls__os_fn_f0001004>

00000000410004a8 <syscalls__pte_walk_fail_write>:
    410004a8:	3180006f          	j	410007c0 <test_failed>

00000000410004ac <syscalls__os_get_hart_context>:
    410004ac:	14002573          	csrr	x10,sscratch
    410004b0:	341022f3          	csrr	x5,mepc
    410004b4:	00428293          	addi	x5,x5,4
    410004b8:	0040006f          	j	410004bc <syscalls__ret_from_os_fn>

00000000410004bc <syscalls__ret_from_os_fn>:
    410004bc:	34102373          	csrr	x6,mepc
    410004c0:	00430313          	addi	x6,x6,4
    410004c4:	16623c23          	sd	x6,376(x4) # 178 <XLEN+0x138>
    410004c8:	34129073          	csrw	mepc,x5
    410004cc:	fff00f93          	li	x31,-1
    410004d0:	2a40006f          	j	41000774 <trap_handler_m__skip_xepc_write>

00000000410004d4 <trap_handler_m__invalid_interrupt>:
    410004d4:	2ec0006f          	j	410007c0 <test_failed>

00000000410004d8 <trap_handler_m__clear_all_interrupts>:
    410004d8:	34401073          	csrw	mip,x0
    410004dc:	30200073          	mret

00000000410004e0 <trap_handler_m___CLEAR_SSI>:
    410004e0:	00200293          	li	x5,2
    410004e4:	3442b073          	csrc	mip,x5
    410004e8:	30200073          	mret

00000000410004ec <trap_handler_m___CLEAR_MSI>:
    410004ec:	00800293          	li	x5,8
    410004f0:	3442b073          	csrc	mip,x5
    410004f4:	30200073          	mret

00000000410004f8 <trap_handler_m___CLEAR_STI>:
    410004f8:	02000293          	li	x5,32
    410004fc:	3442b073          	csrc	mip,x5
    41000500:	30200073          	mret

0000000041000504 <trap_handler_m___CLEAR_MTI>:
    41000504:	08000293          	li	x5,128
    41000508:	3442b073          	csrc	mip,x5
    4100050c:	30200073          	mret

0000000041000510 <trap_handler_m___CLEAR_SEI>:
    41000510:	20000293          	li	x5,512
    41000514:	3442b073          	csrc	mip,x5
    41000518:	30200073          	mret

000000004100051c <trap_handler_m___CLEAR_MEI>:
    4100051c:	000012b7          	lui	x5,0x1
    41000520:	8002829b          	addiw	x5,x5,-2048 # 800 <XLEN+0x7c0>
    41000524:	3442b073          	csrc	mip,x5
    41000528:	30200073          	mret

000000004100052c <trap_handler_m___CLEAR_COI>:
    4100052c:	000022b7          	lui	x5,0x2
    41000530:	3442b073          	csrc	mip,x5
    41000534:	30200073          	mret

0000000041000538 <trap_handler_m__clear_highest_priority_interrupt>:
    41000538:	344022f3          	csrr	x5,mip
    4100053c:	40500333          	neg	x6,x5
    41000540:	0062f2b3          	and	x5,x5,x6
    41000544:	3442b073          	csrc	mip,x5
    41000548:	30200073          	mret

000000004100054c <trap_handler_m__trap_entry>:
    4100054c:	0fc0006f          	j	41000648 <trap_handler_m__trap_handler>

0000000041000550 <trap_handler_m__interrupt_vector_table>:
    41000550:	f91ff06f          	j	410004e0 <trap_handler_m___CLEAR_SSI>
    41000554:	f81ff06f          	j	410004d4 <trap_handler_m__invalid_interrupt>
    41000558:	f95ff06f          	j	410004ec <trap_handler_m___CLEAR_MSI>
    4100055c:	f79ff06f          	j	410004d4 <trap_handler_m__invalid_interrupt>
    41000560:	f99ff06f          	j	410004f8 <trap_handler_m___CLEAR_STI>
    41000564:	f71ff06f          	j	410004d4 <trap_handler_m__invalid_interrupt>
    41000568:	f9dff06f          	j	41000504 <trap_handler_m___CLEAR_MTI>
    4100056c:	f69ff06f          	j	410004d4 <trap_handler_m__invalid_interrupt>
    41000570:	fa1ff06f          	j	41000510 <trap_handler_m___CLEAR_SEI>
    41000574:	f61ff06f          	j	410004d4 <trap_handler_m__invalid_interrupt>
    41000578:	fa5ff06f          	j	4100051c <trap_handler_m___CLEAR_MEI>
    4100057c:	f59ff06f          	j	410004d4 <trap_handler_m__invalid_interrupt>
    41000580:	fadff06f          	j	4100052c <trap_handler_m___CLEAR_COI>
    41000584:	f51ff06f          	j	410004d4 <trap_handler_m__invalid_interrupt>
    41000588:	f4dff06f          	j	410004d4 <trap_handler_m__invalid_interrupt>
    4100058c:	fadff06f          	j	41000538 <trap_handler_m__clear_highest_priority_interrupt>
    41000590:	fa9ff06f          	j	41000538 <trap_handler_m__clear_highest_priority_interrupt>
    41000594:	fa5ff06f          	j	41000538 <trap_handler_m__clear_highest_priority_interrupt>
    41000598:	fa1ff06f          	j	41000538 <trap_handler_m__clear_highest_priority_interrupt>
    4100059c:	f9dff06f          	j	41000538 <trap_handler_m__clear_highest_priority_interrupt>
    410005a0:	f99ff06f          	j	41000538 <trap_handler_m__clear_highest_priority_interrupt>
    410005a4:	f95ff06f          	j	41000538 <trap_handler_m__clear_highest_priority_interrupt>
    410005a8:	f91ff06f          	j	41000538 <trap_handler_m__clear_highest_priority_interrupt>
    410005ac:	f8dff06f          	j	41000538 <trap_handler_m__clear_highest_priority_interrupt>
    410005b0:	f89ff06f          	j	41000538 <trap_handler_m__clear_highest_priority_interrupt>
    410005b4:	f85ff06f          	j	41000538 <trap_handler_m__clear_highest_priority_interrupt>
    410005b8:	f81ff06f          	j	41000538 <trap_handler_m__clear_highest_priority_interrupt>
    410005bc:	f7dff06f          	j	41000538 <trap_handler_m__clear_highest_priority_interrupt>
    410005c0:	f79ff06f          	j	41000538 <trap_handler_m__clear_highest_priority_interrupt>
    410005c4:	f75ff06f          	j	41000538 <trap_handler_m__clear_highest_priority_interrupt>
    410005c8:	f71ff06f          	j	41000538 <trap_handler_m__clear_highest_priority_interrupt>
    410005cc:	f6dff06f          	j	41000538 <trap_handler_m__clear_highest_priority_interrupt>
    410005d0:	f69ff06f          	j	41000538 <trap_handler_m__clear_highest_priority_interrupt>
    410005d4:	f65ff06f          	j	41000538 <trap_handler_m__clear_highest_priority_interrupt>
    410005d8:	f61ff06f          	j	41000538 <trap_handler_m__clear_highest_priority_interrupt>
    410005dc:	f5dff06f          	j	41000538 <trap_handler_m__clear_highest_priority_interrupt>
    410005e0:	f59ff06f          	j	41000538 <trap_handler_m__clear_highest_priority_interrupt>
    410005e4:	f55ff06f          	j	41000538 <trap_handler_m__clear_highest_priority_interrupt>
    410005e8:	f51ff06f          	j	41000538 <trap_handler_m__clear_highest_priority_interrupt>
    410005ec:	f4dff06f          	j	41000538 <trap_handler_m__clear_highest_priority_interrupt>
    410005f0:	f49ff06f          	j	41000538 <trap_handler_m__clear_highest_priority_interrupt>
    410005f4:	f45ff06f          	j	41000538 <trap_handler_m__clear_highest_priority_interrupt>
    410005f8:	f41ff06f          	j	41000538 <trap_handler_m__clear_highest_priority_interrupt>
    410005fc:	f3dff06f          	j	41000538 <trap_handler_m__clear_highest_priority_interrupt>
    41000600:	f39ff06f          	j	41000538 <trap_handler_m__clear_highest_priority_interrupt>
    41000604:	f35ff06f          	j	41000538 <trap_handler_m__clear_highest_priority_interrupt>
    41000608:	f31ff06f          	j	41000538 <trap_handler_m__clear_highest_priority_interrupt>
    4100060c:	f2dff06f          	j	41000538 <trap_handler_m__clear_highest_priority_interrupt>
    41000610:	f29ff06f          	j	41000538 <trap_handler_m__clear_highest_priority_interrupt>
    41000614:	f25ff06f          	j	41000538 <trap_handler_m__clear_highest_priority_interrupt>
    41000618:	f21ff06f          	j	41000538 <trap_handler_m__clear_highest_priority_interrupt>
    4100061c:	f1dff06f          	j	41000538 <trap_handler_m__clear_highest_priority_interrupt>
    41000620:	f19ff06f          	j	41000538 <trap_handler_m__clear_highest_priority_interrupt>
    41000624:	f15ff06f          	j	41000538 <trap_handler_m__clear_highest_priority_interrupt>
    41000628:	f11ff06f          	j	41000538 <trap_handler_m__clear_highest_priority_interrupt>
    4100062c:	f0dff06f          	j	41000538 <trap_handler_m__clear_highest_priority_interrupt>
    41000630:	f09ff06f          	j	41000538 <trap_handler_m__clear_highest_priority_interrupt>
    41000634:	f05ff06f          	j	41000538 <trap_handler_m__clear_highest_priority_interrupt>
    41000638:	f01ff06f          	j	41000538 <trap_handler_m__clear_highest_priority_interrupt>
    4100063c:	efdff06f          	j	41000538 <trap_handler_m__clear_highest_priority_interrupt>
    41000640:	ef9ff06f          	j	41000538 <trap_handler_m__clear_highest_priority_interrupt>
    41000644:	ef5ff06f          	j	41000538 <trap_handler_m__clear_highest_priority_interrupt>

0000000041000648 <trap_handler_m__trap_handler>:
    41000648:	342022f3          	csrr	x5,mcause
    4100064c:	fff0031b          	addiw	x6,x0,-1
    41000650:	03f31313          	slli	x6,x6,0x3f
    41000654:	00537333          	and	x6,x6,x5
    41000658:	02030263          	beqz	x6,4100067c <trap_handler_m__exception_path>

000000004100065c <trap_handler_m__interrupt_handler>:
    4100065c:	fff0031b          	addiw	x6,x0,-1
    41000660:	03f31313          	slli	x6,x6,0x3f
    41000664:	0062c2b3          	xor	x5,x5,x6
    41000668:	00000317          	auipc	x6,0x0
    4100066c:	ee430313          	addi	x6,x6,-284 # 4100054c <trap_handler_m__trap_entry>
    41000670:	00229293          	slli	x5,x5,0x2
    41000674:	005302b3          	add	x5,x6,x5
    41000678:	00028067          	jr	x5 # 2000 <pma_region_1_size+0x1000>

000000004100067c <trap_handler_m__exception_path>:
    4100067c:	34021273          	csrrw	x4,mscratch,x4
    41000680:	00000297          	auipc	x5,0x0
    41000684:	10828293          	addi	x5,x5,264 # 41000788 <trap_handler_m__trap_panic>
    41000688:	30529073          	csrw	mtvec,x5
    4100068c:	0040006f          	j	41000690 <trap_handler_m__excp_entry>

0000000041000690 <trap_handler_m__excp_entry>:
    41000690:	34202373          	csrr	x6,mcause
    41000694:	00800293          	li	x5,8
    41000698:	00534863          	blt	x6,x5,410006a8 <trap_handler_m__check_exception_label>
    4100069c:	00b00293          	li	x5,11
    410006a0:	0062c463          	blt	x5,x6,410006a8 <trap_handler_m__check_exception_label>
    410006a4:	a31ff06f          	j	410000d4 <syscalls__syscall_check_schedule_next_test>

00000000410006a8 <trap_handler_m__check_exception_label>:
    410006a8:	04623c23          	sd	x6,88(x4) # 58 <XLEN+0x18>
    410006ac:	341022f3          	csrr	x5,mepc
    410006b0:	02523423          	sd	x5,40(x4) # 28 <SECURE_ACCESS_PROBABILITY+0xa>
    410006b4:	01820283          	lb	x5,24(x4) # 18 <STORE_GUEST_PAGE_FAULT+0x1>
    410006b8:	00029863          	bnez	x5,410006c8 <trap_handler_m__check_excp>
    410006bc:	00128293          	addi	x5,x5,1
    410006c0:	00520c23          	sb	x5,24(x4) # 18 <STORE_GUEST_PAGE_FAULT+0x1>
    410006c4:	0980006f          	j	4100075c <trap_handler_m__ecall_from_machine>

00000000410006c8 <trap_handler_m__check_excp>:
    410006c8:	06823283          	ld	x5,104(x4) # 68 <XLEN+0x28>
    410006cc:	06023423          	sd	x0,104(x4) # 68 <XLEN+0x28>
    410006d0:	00028663          	beqz	x5,410006dc <trap_handler_m__skip_mode_check>
    410006d4:	00100393          	li	x7,1
    410006d8:	0e729463          	bne	x5,x7,410007c0 <test_failed>

00000000410006dc <trap_handler_m__skip_mode_check>:
    410006dc:	05023283          	ld	x5,80(x4) # 50 <XLEN+0x10>
    410006e0:	04023823          	sd	x0,80(x4) # 50 <XLEN+0x10>
    410006e4:	0c531e63          	bne	x6,x5,410007c0 <test_failed>
    410006e8:	03823283          	ld	x5,56(x4) # 38 <SECURE_ACCESS_PROBABILITY+0x1a>
    410006ec:	02023c23          	sd	x0,56(x4) # 38 <SECURE_ACCESS_PROBABILITY+0x1a>
    410006f0:	06029463          	bnez	x5,41000758 <trap_handler_m__skip_gva_check>
    410006f4:	02023303          	ld	x6,32(x4) # 20 <SECURE_ACCESS_PROBABILITY+0x2>
    410006f8:	02023023          	sd	x0,32(x4) # 20 <SECURE_ACCESS_PROBABILITY+0x2>
    410006fc:	02823283          	ld	x5,40(x4) # 28 <SECURE_ACCESS_PROBABILITY+0xa>
    41000700:	02023423          	sd	x0,40(x4) # 28 <SECURE_ACCESS_PROBABILITY+0xa>
    41000704:	0a531e63          	bne	x6,x5,410007c0 <test_failed>
    41000708:	04023283          	ld	x5,64(x4) # 40 <XLEN>
    4100070c:	04023023          	sd	x0,64(x4) # 40 <XLEN>
    41000710:	00028663          	beqz	x5,4100071c <trap_handler_m__skip_nonzero_tval_check>

0000000041000714 <trap_handler_m__nonzero_tval_check>:
    41000714:	34302373          	csrr	x6,mtval
    41000718:	0a531463          	bne	x6,x5,410007c0 <test_failed>

000000004100071c <trap_handler_m__skip_nonzero_tval_check>:
    4100071c:	04823283          	ld	x5,72(x4) # 48 <XLEN+0x8>
    41000720:	04023423          	sd	x0,72(x4) # 48 <XLEN+0x8>
    41000724:	00028663          	beqz	x5,41000730 <trap_handler_m__skip_nonzero_htval_check>

0000000041000728 <trap_handler_m__nonzero_htval_check>:
    41000728:	34b02373          	csrr	x6,0x34b
    4100072c:	08531a63          	bne	x6,x5,410007c0 <test_failed>

0000000041000730 <trap_handler_m__skip_nonzero_htval_check>:
    41000730:	06023283          	ld	x5,96(x4) # 60 <XLEN+0x20>
    41000734:	06023023          	sd	x0,96(x4) # 60 <XLEN+0x20>
    41000738:	02028063          	beqz	x5,41000758 <trap_handler_m__skip_gva_check>

000000004100073c <trap_handler_m__gva_check>:
    4100073c:	30002373          	csrr	x6,mstatus
    41000740:	02635313          	srli	x6,x6,0x26
    41000744:	00137313          	andi	x6,x6,1
    41000748:	06030c63          	beqz	x6,410007c0 <test_failed>
    4100074c:	0010031b          	addiw	x6,x0,1
    41000750:	02631313          	slli	x6,x6,0x26
    41000754:	30033073          	csrc	mstatus,x6

0000000041000758 <trap_handler_m__skip_gva_check>:
    41000758:	0040006f          	j	4100075c <trap_handler_m__ecall_from_machine>

000000004100075c <trap_handler_m__ecall_from_machine>:
    4100075c:	03023283          	ld	x5,48(x4) # 30 <SECURE_ACCESS_PROBABILITY+0x12>
    41000760:	02023823          	sd	x0,48(x4) # 30 <SECURE_ACCESS_PROBABILITY+0x12>
    41000764:	07023303          	ld	x6,112(x4) # 70 <XLEN+0x30>
    41000768:	06023823          	sd	x0,112(x4) # 70 <XLEN+0x30>
    4100076c:	00031463          	bnez	x6,41000774 <trap_handler_m__skip_xepc_write>
    41000770:	34129073          	csrw	mepc,x5

0000000041000774 <trap_handler_m__skip_xepc_write>:
    41000774:	00000317          	auipc	x6,0x0
    41000778:	dd830313          	addi	x6,x6,-552 # 4100054c <trap_handler_m__trap_entry>
    4100077c:	30531073          	csrw	mtvec,x6
    41000780:	34021273          	csrrw	x4,mscratch,x4
    41000784:	30200073          	mret

0000000041000788 <trap_handler_m__trap_panic>:
    41000788:	00000193          	li	x3,0
    4100078c:	2b40006f          	j	41000a40 <eot__end_test>

0000000041000790 <enter_scheduler>:
    41000790:	0002f337          	lui	x6,0x2f
    41000794:	ab73031b          	addiw	x6,x6,-1353 # 2eab7 <_all_interrupts+0x2c00d>
    41000798:	00e31313          	slli	x6,x6,0xe
    4100079c:	0de30313          	addi	x6,x6,222
    410007a0:	02628063          	beq	x5,x6,410007c0 <test_failed>
    410007a4:	00000513          	li	x10,0
    410007a8:	030000ef          	jal	410007d8 <rvcp_print_test_result>
    410007ac:	3180006f          	j	41000ac4 <scheduler__dispatch>

00000000410007b0 <test_passed>:
    410007b0:	34021273          	csrrw	x4,mscratch,x4
    410007b4:	00000513          	li	x10,0
    410007b8:	020000ef          	jal	410007d8 <rvcp_print_test_result>
    410007bc:	3080006f          	j	41000ac4 <scheduler__dispatch>

00000000410007c0 <test_failed>:
    410007c0:	34021273          	csrrw	x4,mscratch,x4
    410007c4:	00300193          	li	x3,3
    410007c8:	2780006f          	j	41000a40 <eot__end_test>

00000000410007cc <os_end_test>:
    410007cc:	34021273          	csrrw	x4,mscratch,x4
    410007d0:	00100193          	li	x3,1
    410007d4:	26c0006f          	j	41000a40 <eot__end_test>

00000000410007d8 <rvcp_print_test_result>:
    410007d8:	00050e13          	mv	x28,x10
    410007dc:	18823283          	ld	x5,392(x4) # 188 <XLEN+0x148>
    410007e0:	0010031b          	addiw	x6,x0,1
    410007e4:	02031313          	slli	x6,x6,0x20
    410007e8:	ffe30313          	addi	x6,x6,-2
    410007ec:	1c628063          	beq	x5,x6,410009ac <rvcp_print_test_result+0x1d4>
    410007f0:	0010031b          	addiw	x6,x0,1
    410007f4:	02031313          	slli	x6,x6,0x20
    410007f8:	fff30313          	addi	x6,x6,-1
    410007fc:	1a628863          	beq	x5,x6,410009ac <rvcp_print_test_result+0x1d4>
    41000800:	1a02c663          	bltz	x5,410009ac <rvcp_print_test_result+0x1d4>
    41000804:	00000317          	auipc	x6,0x0
    41000808:	3b830313          	addi	x6,x6,952 # 41000bbc <dtest_descriptor_table>
    4100080c:	00329393          	slli	x7,x5,0x3
    41000810:	00730333          	add	x6,x6,x7
    41000814:	00033e83          	ld	x29,0(x6)
    41000818:	42b46f37          	lui	x30,0x42b46
    4100081c:	030f0f1b          	addiw	x30,x30,48 # 42b46030 <rvcp_prefix_str_pa>
    41000820:	000f4283          	lbu	x5,0(x30)
    41000824:	02028663          	beqz	x5,41000850 <rvcp_print_test_result+0x78>
    41000828:	1010031b          	addiw	x6,x0,257
    4100082c:	03031313          	slli	x6,x6,0x30
    41000830:	005362b3          	or	x5,x6,x5
    41000834:	0003f317          	auipc	x6,0x3f
    41000838:	7cc30313          	addi	x6,x6,1996 # 41040000 <tohost>
    4100083c:	00033383          	ld	x7,0(x6)
    41000840:	fe039ee3          	bnez	x7,4100083c <rvcp_print_test_result+0x64>
    41000844:	00533023          	sd	x5,0(x6)
    41000848:	001f0f13          	addi	x30,x30,1
    4100084c:	fd5ff06f          	j	41000820 <rvcp_print_test_result+0x48>
    41000850:	42b46f37          	lui	x30,0x42b46
    41000854:	041f0f1b          	addiw	x30,x30,65 # 42b46041 <rvcp_testname_str_pa>
    41000858:	000f4283          	lbu	x5,0(x30)
    4100085c:	02028663          	beqz	x5,41000888 <rvcp_print_test_result+0xb0>
    41000860:	1010031b          	addiw	x6,x0,257
    41000864:	03031313          	slli	x6,x6,0x30
    41000868:	005362b3          	or	x5,x6,x5
    4100086c:	0003f317          	auipc	x6,0x3f
    41000870:	79430313          	addi	x6,x6,1940 # 41040000 <tohost>
    41000874:	00033383          	ld	x7,0(x6)
    41000878:	fe039ee3          	bnez	x7,41000874 <rvcp_print_test_result+0x9c>
    4100087c:	00533023          	sd	x5,0(x6)
    41000880:	001f0f13          	addi	x30,x30,1
    41000884:	fd5ff06f          	j	41000858 <rvcp_print_test_result+0x80>
    41000888:	42b46f37          	lui	x30,0x42b46
    4100088c:	05ff0f1b          	addiw	x30,x30,95 # 42b4605f <rvcp_space_str_pa>
    41000890:	000f4283          	lbu	x5,0(x30)
    41000894:	02028663          	beqz	x5,410008c0 <rvcp_print_test_result+0xe8>
    41000898:	1010031b          	addiw	x6,x0,257
    4100089c:	03031313          	slli	x6,x6,0x30
    410008a0:	005362b3          	or	x5,x6,x5
    410008a4:	0003f317          	auipc	x6,0x3f
    410008a8:	75c30313          	addi	x6,x6,1884 # 41040000 <tohost>
    410008ac:	00033383          	ld	x7,0(x6)
    410008b0:	fe039ee3          	bnez	x7,410008ac <rvcp_print_test_result+0xd4>
    410008b4:	00533023          	sd	x5,0(x6)
    410008b8:	001f0f13          	addi	x30,x30,1
    410008bc:	fd5ff06f          	j	41000890 <rvcp_print_test_result+0xb8>
    410008c0:	000e8f13          	mv	x30,x29
    410008c4:	000f4283          	lbu	x5,0(x30)
    410008c8:	02028663          	beqz	x5,410008f4 <rvcp_print_test_result+0x11c>
    410008cc:	1010031b          	addiw	x6,x0,257
    410008d0:	03031313          	slli	x6,x6,0x30
    410008d4:	005362b3          	or	x5,x6,x5
    410008d8:	0003f317          	auipc	x6,0x3f
    410008dc:	72830313          	addi	x6,x6,1832 # 41040000 <tohost>
    410008e0:	00033383          	ld	x7,0(x6)
    410008e4:	fe039ee3          	bnez	x7,410008e0 <rvcp_print_test_result+0x108>
    410008e8:	00533023          	sd	x5,0(x6)
    410008ec:	001f0f13          	addi	x30,x30,1
    410008f0:	fd5ff06f          	j	410008c4 <rvcp_print_test_result+0xec>
    410008f4:	42b46f37          	lui	x30,0x42b46
    410008f8:	05ff0f1b          	addiw	x30,x30,95 # 42b4605f <rvcp_space_str_pa>
    410008fc:	000f4283          	lbu	x5,0(x30)
    41000900:	02028663          	beqz	x5,4100092c <rvcp_print_test_result+0x154>
    41000904:	1010031b          	addiw	x6,x0,257
    41000908:	03031313          	slli	x6,x6,0x30
    4100090c:	005362b3          	or	x5,x6,x5
    41000910:	0003f317          	auipc	x6,0x3f
    41000914:	6f030313          	addi	x6,x6,1776 # 41040000 <tohost>
    41000918:	00033383          	ld	x7,0(x6)
    4100091c:	fe039ee3          	bnez	x7,41000918 <rvcp_print_test_result+0x140>
    41000920:	00533023          	sd	x5,0(x6)
    41000924:	001f0f13          	addi	x30,x30,1
    41000928:	fd5ff06f          	j	410008fc <rvcp_print_test_result+0x124>
    4100092c:	000e1863          	bnez	x28,4100093c <rvcp_print_test_result+0x164>
    41000930:	42b46f37          	lui	x30,0x42b46
    41000934:	051f0f1b          	addiw	x30,x30,81 # 42b46051 <rvcp_passed_str_pa>
    41000938:	00c0006f          	j	41000944 <rvcp_print_test_result+0x16c>
    4100093c:	42b46f37          	lui	x30,0x42b46
    41000940:	058f0f1b          	addiw	x30,x30,88 # 42b46058 <rvcp_failed_str_pa>
    41000944:	000f4283          	lbu	x5,0(x30)
    41000948:	02028663          	beqz	x5,41000974 <rvcp_print_test_result+0x19c>
    4100094c:	1010031b          	addiw	x6,x0,257
    41000950:	03031313          	slli	x6,x6,0x30
    41000954:	005362b3          	or	x5,x6,x5
    41000958:	0003f317          	auipc	x6,0x3f
    4100095c:	6a830313          	addi	x6,x6,1704 # 41040000 <tohost>
    41000960:	00033383          	ld	x7,0(x6)
    41000964:	fe039ee3          	bnez	x7,41000960 <rvcp_print_test_result+0x188>
    41000968:	00533023          	sd	x5,0(x6)
    4100096c:	001f0f13          	addi	x30,x30,1
    41000970:	fd5ff06f          	j	41000944 <rvcp_print_test_result+0x16c>
    41000974:	42b46f37          	lui	x30,0x42b46
    41000978:	061f0f1b          	addiw	x30,x30,97 # 42b46061 <rvcp_newline_str_pa>
    4100097c:	000f4283          	lbu	x5,0(x30)
    41000980:	02028663          	beqz	x5,410009ac <rvcp_print_test_result+0x1d4>
    41000984:	1010031b          	addiw	x6,x0,257
    41000988:	03031313          	slli	x6,x6,0x30
    4100098c:	005362b3          	or	x5,x6,x5
    41000990:	0003f317          	auipc	x6,0x3f
    41000994:	67030313          	addi	x6,x6,1648 # 41040000 <tohost>
    41000998:	00033383          	ld	x7,0(x6)
    4100099c:	fe039ee3          	bnez	x7,41000998 <rvcp_print_test_result+0x1c0>
    410009a0:	00533023          	sd	x5,0(x6)
    410009a4:	001f0f13          	addi	x30,x30,1
    410009a8:	fd5ff06f          	j	4100097c <rvcp_print_test_result+0x1a4>
    410009ac:	00008067          	ret

00000000410009b0 <os_rng_orig>:
    410009b0:	f14023f3          	csrr	x7,mhartid
    410009b4:	00068313          	mv	x6,x13
    410009b8:	026383b3          	mul	x7,x7,x6
    410009bc:	00058313          	mv	x6,x11
    410009c0:	00730333          	add	x6,x6,x7
    410009c4:	00033283          	ld	x5,0(x6)
    410009c8:	01529313          	slli	x6,x5,0x15
    410009cc:	0062c2b3          	xor	x5,x5,x6
    410009d0:	0232d313          	srli	x6,x5,0x23
    410009d4:	0062c2b3          	xor	x5,x5,x6
    410009d8:	00429313          	slli	x6,x5,0x4
    410009dc:	0062c2b3          	xor	x5,x5,x6
    410009e0:	00058313          	mv	x6,x11
    410009e4:	00730333          	add	x6,x6,x7
    410009e8:	00533023          	sd	x5,0(x6)
    410009ec:	00060313          	mv	x6,x12
    410009f0:	0262f2b3          	remu	x5,x5,x6
    410009f4:	00028513          	mv	x10,x5
    410009f8:	00008067          	ret
    410009fc:	02a00513          	li	x10,42
    41000a00:	001965b7          	lui	x11,0x196
    41000a04:	60d5859b          	addiw	x11,x11,1549 # 19660d <hart_stack_0_end+0x6a60d>
    41000a08:	3c6ef637          	lui	x12,0x3c6ef
    41000a0c:	35f6061b          	addiw	x12,x12,863 # 3c6ef35f <__section_os_data_1+0x2d79435f>
    41000a10:	02200693          	li	x13,34
    41000a14:	02b50533          	mul	x10,x10,x11
    41000a18:	00c50533          	add	x10,x10,x12
    41000a1c:	02d56533          	rem	x10,x10,x13
    41000a20:	00b00593          	li	x11,11
    41000a24:	02b56533          	rem	x10,x10,x11
    41000a28:	00008067          	ret
    41000a2c:	0000                	.insn	2, 0x0000
	...

0000000041000a30 <tohost_mutex>:
	...

0000000041000a38 <tohost_addr_mem>:
    41000a38:	0000                	.insn	2, 0x0000
    41000a3a:	4104                	.insn	2, 0x4104
    41000a3c:	0000                	.insn	2, 0x0000
	...

0000000041000a40 <eot__end_test>:
    41000a40:	00100293          	li	x5,1
    41000a44:	00328463          	beq	x5,x3,41000a4c <eot__passed>
    41000a48:	01c0006f          	j	41000a64 <eot__failed>

0000000041000a4c <eot__passed>:
    41000a4c:	0ff0000f          	fence
    41000a50:	00000297          	auipc	x5,0x0
    41000a54:	fe82b283          	ld	x5,-24(x5) # 41000a38 <tohost_addr_mem>
    41000a58:	00100313          	li	x6,1
    41000a5c:	0062a023          	sw	x6,0(x5)
    41000a60:	0240006f          	j	41000a84 <eot__halt>

0000000041000a64 <eot__failed>:
    41000a64:	00100513          	li	x10,1
    41000a68:	d71ff0ef          	jal	410007d8 <rvcp_print_test_result>
    41000a6c:	0ff0000f          	fence
    41000a70:	00000297          	auipc	x5,0x0
    41000a74:	fc82b283          	ld	x5,-56(x5) # 41000a38 <tohost_addr_mem>
    41000a78:	00300313          	li	x6,3
    41000a7c:	0062a023          	sw	x6,0(x5)
    41000a80:	0040006f          	j	41000a84 <eot__halt>

0000000041000a84 <eot__halt>:
    41000a84:	10500073          	wfi
    41000a88:	ffdff06f          	j	41000a84 <eot__halt>

0000000041000a8c <scheduler__init>:
    41000a8c:	00000297          	auipc	x5,0x0
    41000a90:	0b828293          	addi	x5,x5,184 # 41000b44 <scheduler__panic>
    41000a94:	305292f3          	csrrw	x5,mtvec,x5
    41000a98:	18523023          	sd	x5,384(x4) # 180 <XLEN+0x140>
    41000a9c:	00d00293          	li	x5,13
    41000aa0:	18523823          	sd	x5,400(x4) # 190 <XLEN+0x150>
    41000aa4:	0010029b          	addiw	x5,x0,1
    41000aa8:	02029293          	slli	x5,x5,0x20
    41000aac:	ffe28293          	addi	x5,x5,-2
    41000ab0:	18523423          	sd	x5,392(x4) # 188 <XLEN+0x148>
    41000ab4:	00000317          	auipc	x6,0x0
    41000ab8:	24030313          	addi	x6,x6,576 # 41000cf4 <scheduler__test_setup_ptr>
    41000abc:	00033303          	ld	x6,0(x6)
    41000ac0:	05c0006f          	j	41000b1c <scheduler__execute_test>

0000000041000ac4 <scheduler__dispatch>:
    41000ac4:	00000297          	auipc	x5,0x0
    41000ac8:	08028293          	addi	x5,x5,128 # 41000b44 <scheduler__panic>
    41000acc:	305292f3          	csrrw	x5,mtvec,x5
    41000ad0:	18523023          	sd	x5,384(x4) # 180 <XLEN+0x140>

0000000041000ad4 <scheduler__csr_read_randomization>:
    41000ad4:	106022f3          	csrr	x5,scounteren
    41000ad8:	142022f3          	csrr	x5,scause
    41000adc:	106022f3          	csrr	x5,scounteren

0000000041000ae0 <scheduler__load_num_runs>:
    41000ae0:	19023303          	ld	x6,400(x4) # 190 <XLEN+0x150>
    41000ae4:	04030c63          	beqz	x6,41000b3c <scheduler__finished>

0000000041000ae8 <scheduler__decrement_num_runs>:
    41000ae8:	fff30393          	addi	x7,x6,-1
    41000aec:	18723823          	sd	x7,400(x4) # 190 <XLEN+0x150>
    41000af0:	00000e17          	auipc	x28,0x0
    41000af4:	1d0e0e13          	addi	x28,x28,464 # 41000cc0 <dtest_index_map>
    41000af8:	00239e93          	slli	x29,x7,0x2
    41000afc:	01de0e33          	add	x28,x28,x29
    41000b00:	000e2e03          	lw	x28,0(x28)
    41000b04:	19c23423          	sd	x28,392(x4) # 188 <XLEN+0x148>

0000000041000b08 <scheduler__calc_test_pointer>:
    41000b08:	00339293          	slli	x5,x7,0x3

0000000041000b0c <scheduler__load_test_addr>:
    41000b0c:	00000317          	auipc	x6,0x0
    41000b10:	04830313          	addi	x6,x6,72 # 41000b54 <os_test_sequence>
    41000b14:	006282b3          	add	x5,x5,x6
    41000b18:	0002b303          	ld	x6,0(x5)

0000000041000b1c <scheduler__execute_test>:
    41000b1c:	18023283          	ld	x5,384(x4) # 180 <XLEN+0x140>
    41000b20:	30529073          	csrw	mtvec,x5
    41000b24:	34021273          	csrrw	x4,mscratch,x4
    41000b28:	00000213          	li	x4,0
    41000b2c:	14131073          	csrw	sepc,x6
    41000b30:	10000293          	li	x5,256
    41000b34:	1002b073          	csrc	sstatus,x5
    41000b38:	10200073          	sret

0000000041000b3c <scheduler__finished>:
    41000b3c:	00100193          	li	x3,1
    41000b40:	f01ff06f          	j	41000a40 <eot__end_test>

0000000041000b44 <scheduler__panic>:
    41000b44:	00000193          	li	x3,0
    41000b48:	ef9ff06f          	j	41000a40 <eot__end_test>

0000000041000b4c <num_runs>:
    41000b4c:	000d                	.insn	2, 0x000d
    41000b4e:	0000                	.insn	2, 0x0000
    41000b50:	0000                	.insn	2, 0x0000
	...

0000000041000b54 <os_test_sequence>:
    41000b54:	681c                	.insn	2, 0x681c
    41000b56:	4101                	.insn	2, 0x4101
    41000b58:	0000                	.insn	2, 0x0000
    41000b5a:	0000                	.insn	2, 0x0000
    41000b5c:	6490                	.insn	2, 0x6490
    41000b5e:	4101                	.insn	2, 0x4101
    41000b60:	0000                	.insn	2, 0x0000
    41000b62:	0000                	.insn	2, 0x0000
    41000b64:	674c                	.insn	2, 0x674c
    41000b66:	4101                	.insn	2, 0x4101
    41000b68:	0000                	.insn	2, 0x0000
    41000b6a:	0000                	.insn	2, 0x0000
    41000b6c:	50d0                	.insn	2, 0x50d0
    41000b6e:	4101                	.insn	2, 0x4101
    41000b70:	0000                	.insn	2, 0x0000
    41000b72:	0000                	.insn	2, 0x0000
    41000b74:	652c                	.insn	2, 0x652c
    41000b76:	4101                	.insn	2, 0x4101
    41000b78:	0000                	.insn	2, 0x0000
    41000b7a:	0000                	.insn	2, 0x0000
    41000b7c:	5f40                	.insn	2, 0x5f40
    41000b7e:	4101                	.insn	2, 0x4101
    41000b80:	0000                	.insn	2, 0x0000
    41000b82:	0000                	.insn	2, 0x0000
    41000b84:	6154                	.insn	2, 0x6154
    41000b86:	4101                	.insn	2, 0x4101
    41000b88:	0000                	.insn	2, 0x0000
    41000b8a:	0000                	.insn	2, 0x0000
    41000b8c:	587c                	.insn	2, 0x587c
    41000b8e:	4101                	.insn	2, 0x4101
    41000b90:	0000                	.insn	2, 0x0000
    41000b92:	0000                	.insn	2, 0x0000
    41000b94:	6714                	.insn	2, 0x6714
    41000b96:	4101                	.insn	2, 0x4101
    41000b98:	0000                	.insn	2, 0x0000
    41000b9a:	0000                	.insn	2, 0x0000
    41000b9c:	5c24                	.insn	2, 0x5c24
    41000b9e:	4101                	.insn	2, 0x4101
    41000ba0:	0000                	.insn	2, 0x0000
    41000ba2:	0000                	.insn	2, 0x0000
    41000ba4:	52dc                	.insn	2, 0x52dc
    41000ba6:	4101                	.insn	2, 0x4101
    41000ba8:	0000                	.insn	2, 0x0000
    41000baa:	0000                	.insn	2, 0x0000
    41000bac:	65bc                	.insn	2, 0x65bc
    41000bae:	4101                	.insn	2, 0x4101
    41000bb0:	0000                	.insn	2, 0x0000
    41000bb2:	0000                	.insn	2, 0x0000
    41000bb4:	54c4                	.insn	2, 0x54c4
    41000bb6:	4101                	.insn	2, 0x4101
    41000bb8:	0000                	.insn	2, 0x0000
	...

0000000041000bbc <dtest_descriptor_table>:
    41000bbc:	0c1c                	.insn	2, 0x0c1c
    41000bbe:	4100                	.insn	2, 0x4100
    41000bc0:	0000                	.insn	2, 0x0000
    41000bc2:	0000                	.insn	2, 0x0000
    41000bc4:	0c2c                	.insn	2, 0x0c2c
    41000bc6:	4100                	.insn	2, 0x4100
    41000bc8:	0000                	.insn	2, 0x0000
    41000bca:	0000                	.insn	2, 0x0000
    41000bcc:	0c39                	.insn	2, 0x0c39
    41000bce:	4100                	.insn	2, 0x4100
    41000bd0:	0000                	.insn	2, 0x0000
    41000bd2:	0000                	.insn	2, 0x0000
    41000bd4:	0c46                	.insn	2, 0x0c46
    41000bd6:	4100                	.insn	2, 0x4100
    41000bd8:	0000                	.insn	2, 0x0000
    41000bda:	0000                	.insn	2, 0x0000
    41000bdc:	41000c53          	.insn	4, 0x41000c53
    41000be0:	0000                	.insn	2, 0x0000
    41000be2:	0000                	.insn	2, 0x0000
    41000be4:	0c60                	.insn	2, 0x0c60
    41000be6:	4100                	.insn	2, 0x4100
    41000be8:	0000                	.insn	2, 0x0000
    41000bea:	0000                	.insn	2, 0x0000
    41000bec:	0c6d                	.insn	2, 0x0c6d
    41000bee:	4100                	.insn	2, 0x4100
    41000bf0:	0000                	.insn	2, 0x0000
    41000bf2:	0000                	.insn	2, 0x0000
    41000bf4:	0c7c                	.insn	2, 0x0c7c
    41000bf6:	4100                	.insn	2, 0x4100
    41000bf8:	0000                	.insn	2, 0x0000
    41000bfa:	0000                	.insn	2, 0x0000
    41000bfc:	0c89                	.insn	2, 0x0c89
    41000bfe:	4100                	.insn	2, 0x4100
    41000c00:	0000                	.insn	2, 0x0000
    41000c02:	0000                	.insn	2, 0x0000
    41000c04:	0c96                	.insn	2, 0x0c96
    41000c06:	4100                	.insn	2, 0x4100
    41000c08:	0000                	.insn	2, 0x0000
    41000c0a:	0000                	.insn	2, 0x0000
    41000c0c:	0ca5                	.insn	2, 0x0ca5
    41000c0e:	4100                	.insn	2, 0x4100
    41000c10:	0000                	.insn	2, 0x0000
    41000c12:	0000                	.insn	2, 0x0000
    41000c14:	0cb2                	.insn	2, 0x0cb2
    41000c16:	4100                	.insn	2, 0x4100
    41000c18:	0000                	.insn	2, 0x0000
	...

0000000041000c1c <dtest_name_0>:
    41000c1c:	5f444953          	.insn	4, 0x5f444953
    41000c20:	5845                	.insn	2, 0x5845
    41000c22:	5f504543          	.insn	4, 0x5f504543
    41000c26:	3430                	.insn	2, 0x3430
    41000c28:	535f 0055       	.insn	6, 0x49530055535f

0000000041000c2c <dtest_name_1>:
    41000c2c:	5f444953          	.insn	4, 0x5f444953
    41000c30:	5845                	.insn	2, 0x5845
    41000c32:	5f504543          	.insn	4, 0x5f504543
    41000c36:	3530                	.insn	2, 0x3530
	...

0000000041000c39 <dtest_name_2>:
    41000c39:	5f444953          	.insn	4, 0x5f444953
    41000c3d:	5845                	.insn	2, 0x5845
    41000c3f:	5f504543          	.insn	4, 0x5f504543
    41000c43:	3630                	.insn	2, 0x3630
	...

0000000041000c46 <dtest_name_3>:
    41000c46:	5f444953          	.insn	4, 0x5f444953
    41000c4a:	5845                	.insn	2, 0x5845
    41000c4c:	5f504543          	.insn	4, 0x5f504543
    41000c50:	3730                	.insn	2, 0x3730
	...

0000000041000c53 <dtest_name_4>:
    41000c53:	5f444953          	.insn	4, 0x5f444953
    41000c57:	5845                	.insn	2, 0x5845
    41000c59:	5f504543          	.insn	4, 0x5f504543
    41000c5d:	3830                	.insn	2, 0x3830
	...

0000000041000c60 <dtest_name_5>:
    41000c60:	5f444953          	.insn	4, 0x5f444953
    41000c64:	5845                	.insn	2, 0x5845
    41000c66:	5f504543          	.insn	4, 0x5f504543
    41000c6a:	3031                	.insn	2, 0x3031
	...

0000000041000c6d <dtest_name_6>:
    41000c6d:	5f444953          	.insn	4, 0x5f444953
    41000c71:	5845                	.insn	2, 0x5845
    41000c73:	5f504543          	.insn	4, 0x5f504543
    41000c77:	3531                	.insn	2, 0x3531
    41000c79:	555f        	.insn	6, 0x44495300555f

0000000041000c7c <dtest_name_7>:
    41000c7c:	5f444953          	.insn	4, 0x5f444953
    41000c80:	5845                	.insn	2, 0x5845
    41000c82:	5f504543          	.insn	4, 0x5f504543
    41000c86:	3631                	.insn	2, 0x3631
	...

0000000041000c89 <dtest_name_8>:
    41000c89:	5f444953          	.insn	4, 0x5f444953
    41000c8d:	5845                	.insn	2, 0x5845
    41000c8f:	5f504543          	.insn	4, 0x5f504543
    41000c93:	3731                	.insn	2, 0x3731
	...

0000000041000c96 <dtest_name_9>:
    41000c96:	5f444953          	.insn	4, 0x5f444953
    41000c9a:	5845                	.insn	2, 0x5845
    41000c9c:	5f504543          	.insn	4, 0x5f504543
    41000ca0:	555f3533          	.insn	4, 0x555f3533
	...

0000000041000ca5 <dtest_name_10>:
    41000ca5:	5f444953          	.insn	4, 0x5f444953
    41000ca9:	5845                	.insn	2, 0x5845
    41000cab:	5f504543          	.insn	4, 0x5f504543
    41000caf:	          	.insn	4, 0x53003733

0000000041000cb2 <dtest_name_11>:
    41000cb2:	5f444953          	.insn	4, 0x5f444953
    41000cb6:	5845                	.insn	2, 0x5845
    41000cb8:	5f504543          	.insn	4, 0x5f504543
    41000cbc:	00003833          	snez	x16,x0

0000000041000cc0 <dtest_index_map>:
    41000cc0:	ffff                	.insn	2, 0xffff
    41000cc2:	ffff                	.insn	2, 0xffff
    41000cc4:	00000007          	vle8.v	v0,(x0),v0.t
    41000cc8:	0000000b          	.insn	4, 0x000b
    41000ccc:	0000                	.insn	2, 0x0000
    41000cce:	0000                	.insn	2, 0x0000
    41000cd0:	0008                	.insn	2, 0x0008
    41000cd2:	0000                	.insn	2, 0x0000
    41000cd4:	0005                	.insn	2, 0x0005
    41000cd6:	0000                	.insn	2, 0x0000
    41000cd8:	0006                	.insn	2, 0x0006
    41000cda:	0000                	.insn	2, 0x0000
    41000cdc:	00000003          	lb	x0,0(x0) # 0 <ALL_4KB_PAGES>
    41000ce0:	000a                	.insn	2, 0x000a
    41000ce2:	0000                	.insn	2, 0x0000
    41000ce4:	0004                	.insn	2, 0x0004
    41000ce6:	0000                	.insn	2, 0x0000
    41000ce8:	0001                	.insn	2, 0x0001
    41000cea:	0000                	.insn	2, 0x0000
    41000cec:	0009                	.insn	2, 0x0009
    41000cee:	0000                	.insn	2, 0x0000
    41000cf0:	0002                	.insn	2, 0x0002
	...

0000000041000cf4 <scheduler__test_setup_ptr>:
    41000cf4:	50c0                	.insn	2, 0x50c0
    41000cf6:	4101                	.insn	2, 0x4101
    41000cf8:	0000                	.insn	2, 0x0000
	...

0000000041000cfc <scheduler__test_cleanup_ptr>:
    41000cfc:	681c                	.insn	2, 0x681c
    41000cfe:	4101                	.insn	2, 0x4101
    41000d00:	0000                	.insn	2, 0x0000
	...

Disassembly of section .runtime_s:

0000000041011000 <trap_handler_s__invalid_interrupt>:
    41011000:	1740006f          	j	41011174 <trap_handler_s__test_failed>

0000000041011004 <trap_handler_s__clear_all_interrupts>:
    41011004:	14401073          	csrw	sip,x0
    41011008:	10200073          	sret

000000004101100c <trap_handler_s___CLEAR_SSI>:
    4101100c:	00200293          	li	x5,2
    41011010:	1442b073          	csrc	sip,x5
    41011014:	10200073          	sret

0000000041011018 <trap_handler_s___CLEAR_MSI>:
    41011018:	00800293          	li	x5,8
    4101101c:	1442b073          	csrc	sip,x5
    41011020:	10200073          	sret

0000000041011024 <trap_handler_s___CLEAR_STI>:
    41011024:	02000293          	li	x5,32
    41011028:	1442b073          	csrc	sip,x5
    4101102c:	10200073          	sret

0000000041011030 <trap_handler_s___CLEAR_MTI>:
    41011030:	08000293          	li	x5,128
    41011034:	1442b073          	csrc	sip,x5
    41011038:	10200073          	sret

000000004101103c <trap_handler_s___CLEAR_SEI>:
    4101103c:	20000293          	li	x5,512
    41011040:	1442b073          	csrc	sip,x5
    41011044:	10200073          	sret

0000000041011048 <trap_handler_s___CLEAR_MEI>:
    41011048:	000012b7          	lui	x5,0x1
    4101104c:	8002829b          	addiw	x5,x5,-2048 # 800 <XLEN+0x7c0>
    41011050:	1442b073          	csrc	sip,x5
    41011054:	10200073          	sret

0000000041011058 <trap_handler_s___CLEAR_COI>:
    41011058:	000022b7          	lui	x5,0x2
    4101105c:	1442b073          	csrc	sip,x5
    41011060:	10200073          	sret

0000000041011064 <trap_handler_s__clear_highest_priority_interrupt>:
    41011064:	144022f3          	csrr	x5,sip
    41011068:	40500333          	neg	x6,x5
    4101106c:	0062f2b3          	and	x5,x5,x6
    41011070:	1442b073          	csrc	sip,x5
    41011074:	10200073          	sret

0000000041011078 <trap_handler_s__trap_entry>:
    41011078:	10c0006f          	j	41011184 <trap_handler_s__trap_handler>

000000004101107c <trap_handler_s__interrupt_vector_table>:
    4101107c:	f91ff06f          	j	4101100c <trap_handler_s___CLEAR_SSI>
    41011080:	f81ff06f          	j	41011000 <trap_handler_s__invalid_interrupt>
    41011084:	f95ff06f          	j	41011018 <trap_handler_s___CLEAR_MSI>
    41011088:	f79ff06f          	j	41011000 <trap_handler_s__invalid_interrupt>
    4101108c:	f99ff06f          	j	41011024 <trap_handler_s___CLEAR_STI>
    41011090:	f71ff06f          	j	41011000 <trap_handler_s__invalid_interrupt>
    41011094:	f9dff06f          	j	41011030 <trap_handler_s___CLEAR_MTI>
    41011098:	f69ff06f          	j	41011000 <trap_handler_s__invalid_interrupt>
    4101109c:	fa1ff06f          	j	4101103c <trap_handler_s___CLEAR_SEI>
    410110a0:	f61ff06f          	j	41011000 <trap_handler_s__invalid_interrupt>
    410110a4:	fa5ff06f          	j	41011048 <trap_handler_s___CLEAR_MEI>
    410110a8:	f59ff06f          	j	41011000 <trap_handler_s__invalid_interrupt>
    410110ac:	fadff06f          	j	41011058 <trap_handler_s___CLEAR_COI>
    410110b0:	f51ff06f          	j	41011000 <trap_handler_s__invalid_interrupt>
    410110b4:	f4dff06f          	j	41011000 <trap_handler_s__invalid_interrupt>
    410110b8:	fadff06f          	j	41011064 <trap_handler_s__clear_highest_priority_interrupt>
    410110bc:	fa9ff06f          	j	41011064 <trap_handler_s__clear_highest_priority_interrupt>
    410110c0:	fa5ff06f          	j	41011064 <trap_handler_s__clear_highest_priority_interrupt>
    410110c4:	fa1ff06f          	j	41011064 <trap_handler_s__clear_highest_priority_interrupt>
    410110c8:	f9dff06f          	j	41011064 <trap_handler_s__clear_highest_priority_interrupt>
    410110cc:	f99ff06f          	j	41011064 <trap_handler_s__clear_highest_priority_interrupt>
    410110d0:	f95ff06f          	j	41011064 <trap_handler_s__clear_highest_priority_interrupt>
    410110d4:	f91ff06f          	j	41011064 <trap_handler_s__clear_highest_priority_interrupt>
    410110d8:	f8dff06f          	j	41011064 <trap_handler_s__clear_highest_priority_interrupt>
    410110dc:	f89ff06f          	j	41011064 <trap_handler_s__clear_highest_priority_interrupt>
    410110e0:	f85ff06f          	j	41011064 <trap_handler_s__clear_highest_priority_interrupt>
    410110e4:	f81ff06f          	j	41011064 <trap_handler_s__clear_highest_priority_interrupt>
    410110e8:	f7dff06f          	j	41011064 <trap_handler_s__clear_highest_priority_interrupt>
    410110ec:	f79ff06f          	j	41011064 <trap_handler_s__clear_highest_priority_interrupt>
    410110f0:	f75ff06f          	j	41011064 <trap_handler_s__clear_highest_priority_interrupt>
    410110f4:	f71ff06f          	j	41011064 <trap_handler_s__clear_highest_priority_interrupt>
    410110f8:	f6dff06f          	j	41011064 <trap_handler_s__clear_highest_priority_interrupt>
    410110fc:	f69ff06f          	j	41011064 <trap_handler_s__clear_highest_priority_interrupt>
    41011100:	f65ff06f          	j	41011064 <trap_handler_s__clear_highest_priority_interrupt>
    41011104:	f61ff06f          	j	41011064 <trap_handler_s__clear_highest_priority_interrupt>
    41011108:	f5dff06f          	j	41011064 <trap_handler_s__clear_highest_priority_interrupt>
    4101110c:	f59ff06f          	j	41011064 <trap_handler_s__clear_highest_priority_interrupt>
    41011110:	f55ff06f          	j	41011064 <trap_handler_s__clear_highest_priority_interrupt>
    41011114:	f51ff06f          	j	41011064 <trap_handler_s__clear_highest_priority_interrupt>
    41011118:	f4dff06f          	j	41011064 <trap_handler_s__clear_highest_priority_interrupt>
    4101111c:	f49ff06f          	j	41011064 <trap_handler_s__clear_highest_priority_interrupt>
    41011120:	f45ff06f          	j	41011064 <trap_handler_s__clear_highest_priority_interrupt>
    41011124:	f41ff06f          	j	41011064 <trap_handler_s__clear_highest_priority_interrupt>
    41011128:	f3dff06f          	j	41011064 <trap_handler_s__clear_highest_priority_interrupt>
    4101112c:	f39ff06f          	j	41011064 <trap_handler_s__clear_highest_priority_interrupt>
    41011130:	f35ff06f          	j	41011064 <trap_handler_s__clear_highest_priority_interrupt>
    41011134:	f31ff06f          	j	41011064 <trap_handler_s__clear_highest_priority_interrupt>
    41011138:	f2dff06f          	j	41011064 <trap_handler_s__clear_highest_priority_interrupt>
    4101113c:	f29ff06f          	j	41011064 <trap_handler_s__clear_highest_priority_interrupt>
    41011140:	f25ff06f          	j	41011064 <trap_handler_s__clear_highest_priority_interrupt>
    41011144:	f21ff06f          	j	41011064 <trap_handler_s__clear_highest_priority_interrupt>
    41011148:	f1dff06f          	j	41011064 <trap_handler_s__clear_highest_priority_interrupt>
    4101114c:	f19ff06f          	j	41011064 <trap_handler_s__clear_highest_priority_interrupt>
    41011150:	f15ff06f          	j	41011064 <trap_handler_s__clear_highest_priority_interrupt>
    41011154:	f11ff06f          	j	41011064 <trap_handler_s__clear_highest_priority_interrupt>
    41011158:	f0dff06f          	j	41011064 <trap_handler_s__clear_highest_priority_interrupt>
    4101115c:	f09ff06f          	j	41011064 <trap_handler_s__clear_highest_priority_interrupt>
    41011160:	f05ff06f          	j	41011064 <trap_handler_s__clear_highest_priority_interrupt>
    41011164:	f01ff06f          	j	41011064 <trap_handler_s__clear_highest_priority_interrupt>
    41011168:	efdff06f          	j	41011064 <trap_handler_s__clear_highest_priority_interrupt>
    4101116c:	ef9ff06f          	j	41011064 <trap_handler_s__clear_highest_priority_interrupt>
    41011170:	ef5ff06f          	j	41011064 <trap_handler_s__clear_highest_priority_interrupt>

0000000041011174 <trap_handler_s__test_failed>:
    41011174:	00f00f9b          	addiw	x31,x0,15
    41011178:	01cf9f93          	slli	x31,x31,0x1c
    4101117c:	002f8f93          	addi	x31,x31,2
    41011180:	00000073          	ecall

0000000041011184 <trap_handler_s__trap_handler>:
    41011184:	142022f3          	csrr	x5,scause
    41011188:	fff0031b          	addiw	x6,x0,-1
    4101118c:	03f31313          	slli	x6,x6,0x3f
    41011190:	00537333          	and	x6,x6,x5
    41011194:	02030263          	beqz	x6,410111b8 <trap_handler_s__exception_path>

0000000041011198 <trap_handler_s__interrupt_handler>:
    41011198:	fff0031b          	addiw	x6,x0,-1
    4101119c:	03f31313          	slli	x6,x6,0x3f
    410111a0:	0062c2b3          	xor	x5,x5,x6
    410111a4:	00000317          	auipc	x6,0x0
    410111a8:	ed430313          	addi	x6,x6,-300 # 41011078 <trap_handler_s__trap_entry>
    410111ac:	00229293          	slli	x5,x5,0x2
    410111b0:	005302b3          	add	x5,x6,x5
    410111b4:	00028067          	jr	x5 # 2000 <pma_region_1_size+0x1000>

00000000410111b8 <trap_handler_s__exception_path>:
    410111b8:	14021273          	csrrw	x4,sscratch,x4
    410111bc:	00000297          	auipc	x5,0x0
    410111c0:	0cc28293          	addi	x5,x5,204 # 41011288 <trap_handler_s__trap_panic>
    410111c4:	10529073          	csrw	stvec,x5
    410111c8:	0040006f          	j	410111cc <trap_handler_s__excp_entry>

00000000410111cc <trap_handler_s__excp_entry>:
    410111cc:	14202373          	csrr	x6,scause
    410111d0:	00800293          	li	x5,8
    410111d4:	00534863          	blt	x6,x5,410111e4 <trap_handler_s__check_exception_label>
    410111d8:	00b00293          	li	x5,11
    410111dc:	0062c463          	blt	x5,x6,410111e4 <trap_handler_s__check_exception_label>
    410111e0:	0a80006f          	j	41011288 <trap_handler_s__trap_panic>

00000000410111e4 <trap_handler_s__check_exception_label>:
    410111e4:	04623c23          	sd	x6,88(x4) # 58 <XLEN+0x18>
    410111e8:	141022f3          	csrr	x5,sepc
    410111ec:	02523423          	sd	x5,40(x4) # 28 <SECURE_ACCESS_PROBABILITY+0xa>
    410111f0:	01820283          	lb	x5,24(x4) # 18 <STORE_GUEST_PAGE_FAULT+0x1>
    410111f4:	00029863          	bnez	x5,41011204 <trap_handler_s__check_excp>
    410111f8:	00128293          	addi	x5,x5,1
    410111fc:	00520c23          	sb	x5,24(x4) # 18 <STORE_GUEST_PAGE_FAULT+0x1>
    41011200:	05c0006f          	j	4101125c <trap_handler_s__ecall_from_machine>

0000000041011204 <trap_handler_s__check_excp>:
    41011204:	06823283          	ld	x5,104(x4) # 68 <XLEN+0x28>
    41011208:	06023423          	sd	x0,104(x4) # 68 <XLEN+0x28>
    4101120c:	00028663          	beqz	x5,41011218 <trap_handler_s__skip_mode_check>
    41011210:	00300393          	li	x7,3
    41011214:	f67290e3          	bne	x5,x7,41011174 <trap_handler_s__test_failed>

0000000041011218 <trap_handler_s__skip_mode_check>:
    41011218:	05023283          	ld	x5,80(x4) # 50 <XLEN+0x10>
    4101121c:	04023823          	sd	x0,80(x4) # 50 <XLEN+0x10>
    41011220:	f4531ae3          	bne	x6,x5,41011174 <trap_handler_s__test_failed>
    41011224:	03823283          	ld	x5,56(x4) # 38 <SECURE_ACCESS_PROBABILITY+0x1a>
    41011228:	02023c23          	sd	x0,56(x4) # 38 <SECURE_ACCESS_PROBABILITY+0x1a>
    4101122c:	02029663          	bnez	x5,41011258 <trap_handler_s__skip_nonzero_tval_check>
    41011230:	02023303          	ld	x6,32(x4) # 20 <SECURE_ACCESS_PROBABILITY+0x2>
    41011234:	02023023          	sd	x0,32(x4) # 20 <SECURE_ACCESS_PROBABILITY+0x2>
    41011238:	02823283          	ld	x5,40(x4) # 28 <SECURE_ACCESS_PROBABILITY+0xa>
    4101123c:	02023423          	sd	x0,40(x4) # 28 <SECURE_ACCESS_PROBABILITY+0xa>
    41011240:	f2531ae3          	bne	x6,x5,41011174 <trap_handler_s__test_failed>
    41011244:	04023283          	ld	x5,64(x4) # 40 <XLEN>
    41011248:	04023023          	sd	x0,64(x4) # 40 <XLEN>
    4101124c:	00028663          	beqz	x5,41011258 <trap_handler_s__skip_nonzero_tval_check>

0000000041011250 <trap_handler_s__nonzero_tval_check>:
    41011250:	14302373          	csrr	x6,stval
    41011254:	f25310e3          	bne	x6,x5,41011174 <trap_handler_s__test_failed>

0000000041011258 <trap_handler_s__skip_nonzero_tval_check>:
    41011258:	0040006f          	j	4101125c <trap_handler_s__ecall_from_machine>

000000004101125c <trap_handler_s__ecall_from_machine>:
    4101125c:	03023283          	ld	x5,48(x4) # 30 <SECURE_ACCESS_PROBABILITY+0x12>
    41011260:	02023823          	sd	x0,48(x4) # 30 <SECURE_ACCESS_PROBABILITY+0x12>
    41011264:	07023303          	ld	x6,112(x4) # 70 <XLEN+0x30>
    41011268:	06023823          	sd	x0,112(x4) # 70 <XLEN+0x30>
    4101126c:	00031463          	bnez	x6,41011274 <trap_handler_s__skip_xepc_write>
    41011270:	14129073          	csrw	sepc,x5

0000000041011274 <trap_handler_s__skip_xepc_write>:
    41011274:	00000317          	auipc	x6,0x0
    41011278:	e0430313          	addi	x6,x6,-508 # 41011078 <trap_handler_s__trap_entry>
    4101127c:	10531073          	csrw	stvec,x6
    41011280:	14021273          	csrrw	x4,sscratch,x4
    41011284:	10200073          	sret

0000000041011288 <trap_handler_s__trap_panic>:
    41011288:	00000193          	li	x3,0
    4101128c:	00f00f9b          	addiw	x31,x0,15
    41011290:	01cf9f93          	slli	x31,x31,0x1c
    41011294:	002f8f93          	addi	x31,x31,2
    41011298:	00000073          	ecall

Disassembly of section .code:

0000000041015090 <passed>:
    41015090:	00f00f9b          	addiw	x31,x0,15
    41015094:	01cf9f93          	slli	x31,x31,0x1c
    41015098:	001f8f93          	addi	x31,x31,1
    4101509c:	00000073          	ecall

00000000410150a0 <failed>:
    410150a0:	00f00f9b          	addiw	x31,x0,15
    410150a4:	01cf9f93          	slli	x31,x31,0x1c
    410150a8:	002f8f93          	addi	x31,x31,2
    410150ac:	00000073          	ecall

00000000410150b0 <end_test>:
    410150b0:	00f00f9b          	addiw	x31,x0,15
    410150b4:	01cf9f93          	slli	x31,x31,0x1c
    410150b8:	003f8f93          	addi	x31,x31,3
    410150bc:	00000073          	ecall

00000000410150c0 <test_setup>:
    410150c0:	00f00f9b          	addiw	x31,x0,15
    410150c4:	01cf9f93          	slli	x31,x31,0x1c
    410150c8:	001f8f93          	addi	x31,x31,1
    410150cc:	00000073          	ecall

00000000410150d0 <SID_EXCEP_04_SU>:
    410150d0:	1382f137          	lui	x2,0x1382f
    410150d4:	baf1011b          	addiw	x2,x2,-1105 # 1382ebaf <__section_os_data_1+0x48d3baf>
    410150d8:	00d11113          	slli	x2,x2,0xd
    410150dc:	89f10113          	addi	x2,x2,-1889
    410150e0:	00e11113          	slli	x2,x2,0xe
    410150e4:	000012b7          	lui	x5,0x1
    410150e8:	00510133          	add	x2,x2,x5
    410150ec:	ff017113          	andi	x2,x2,-16
    410150f0:	0e5ea237          	lui	x4,0xe5ea
    410150f4:	faf2021b          	addiw	x4,x4,-81 # e5e9faf <pma_region_2_size+0xa5e9faf>
    410150f8:	00f21213          	slli	x4,x4,0xf
    410150fc:	00200e13          	li	x28,2
    41015100:	05c23823          	sd	x28,80(x4) # 50 <XLEN+0x10>
    41015104:	00000e17          	auipc	x28,0x0
    41015108:	048e0e13          	addi	x28,x28,72 # 4101514c <fault_label_0>
    4101510c:	03c23023          	sd	x28,32(x4) # 20 <SECURE_ACCESS_PROBABILITY+0x2>
    41015110:	00000e13          	li	x28,0
    41015114:	05c23023          	sd	x28,64(x4) # 40 <XLEN>
    41015118:	00000e13          	li	x28,0
    4101511c:	05c23423          	sd	x28,72(x4) # 48 <XLEN+0x8>
    41015120:	00000e17          	auipc	x28,0x0
    41015124:	044e0e13          	addi	x28,x28,68 # 41015164 <excp_return_label_0>
    41015128:	03c23823          	sd	x28,48(x4) # 30 <SECURE_ACCESS_PROBABILITY+0x12>
    4101512c:	00000e13          	li	x28,0
    41015130:	03c23c23          	sd	x28,56(x4) # 38 <SECURE_ACCESS_PROBABILITY+0x1a>
    41015134:	00000e13          	li	x28,0
    41015138:	07c23023          	sd	x28,96(x4) # 60 <XLEN+0x20>
    4101513c:	00000e13          	li	x28,0
    41015140:	07c23423          	sd	x28,104(x4) # 68 <XLEN+0x28>
    41015144:	00000e13          	li	x28,0
    41015148:	07c23823          	sd	x28,112(x4) # 70 <XLEN+0x30>

000000004101514c <fault_label_0>:
    4101514c:	300023f3          	csrr	x7,mstatus
    41015150:	00038393          	mv	x7,x7
    41015154:	0ef5afb7          	lui	x31,0xef5a
    41015158:	008f8f9b          	addiw	x31,x31,8 # ef5a008 <failed_addr>
    4101515c:	000fb483          	ld	x9,0(x31)
    41015160:	00048067          	jr	x9

0000000041015164 <excp_return_label_0>:
    41015164:	000018b7          	lui	x17,0x1
    41015168:	2348889b          	addiw	x17,x17,564 # 1234 <pma_region_1_size+0x234>
    4101516c:	0e5ea237          	lui	x4,0xe5ea
    41015170:	faf2021b          	addiw	x4,x4,-81 # e5e9faf <pma_region_2_size+0xa5e9faf>
    41015174:	00f21213          	slli	x4,x4,0xf
    41015178:	00200e13          	li	x28,2
    4101517c:	05c23823          	sd	x28,80(x4) # 50 <XLEN+0x10>
    41015180:	00000e17          	auipc	x28,0x0
    41015184:	04ce0e13          	addi	x28,x28,76 # 410151cc <fault_label_1>
    41015188:	03c23023          	sd	x28,32(x4) # 20 <SECURE_ACCESS_PROBABILITY+0x2>
    4101518c:	00000e13          	li	x28,0
    41015190:	05c23023          	sd	x28,64(x4) # 40 <XLEN>
    41015194:	00000e13          	li	x28,0
    41015198:	05c23423          	sd	x28,72(x4) # 48 <XLEN+0x8>
    4101519c:	00000e17          	auipc	x28,0x0
    410151a0:	044e0e13          	addi	x28,x28,68 # 410151e0 <excp_return_label_1>
    410151a4:	03c23823          	sd	x28,48(x4) # 30 <SECURE_ACCESS_PROBABILITY+0x12>
    410151a8:	00000e13          	li	x28,0
    410151ac:	03c23c23          	sd	x28,56(x4) # 38 <SECURE_ACCESS_PROBABILITY+0x1a>
    410151b0:	00000e13          	li	x28,0
    410151b4:	07c23023          	sd	x28,96(x4) # 60 <XLEN+0x20>
    410151b8:	00000e13          	li	x28,0
    410151bc:	07c23423          	sd	x28,104(x4) # 68 <XLEN+0x28>
    410151c0:	00000e13          	li	x28,0
    410151c4:	07c23823          	sd	x28,112(x4) # 70 <XLEN+0x30>
    410151c8:	00088393          	mv	x7,x17

00000000410151cc <fault_label_1>:
    410151cc:	f11393f3          	csrrw	x7,mvendorid,x7
    410151d0:	0ef5a5b7          	lui	x11,0xef5a
    410151d4:	0085859b          	addiw	x11,x11,8 # ef5a008 <failed_addr>
    410151d8:	0005bc83          	ld	x25,0(x11)
    410151dc:	000c8067          	jr	x25

00000000410151e0 <excp_return_label_1>:
    410151e0:	0e5ea237          	lui	x4,0xe5ea
    410151e4:	faf2021b          	addiw	x4,x4,-81 # e5e9faf <pma_region_2_size+0xa5e9faf>
    410151e8:	00f21213          	slli	x4,x4,0xf
    410151ec:	00200e13          	li	x28,2
    410151f0:	05c23823          	sd	x28,80(x4) # 50 <XLEN+0x10>
    410151f4:	00000e17          	auipc	x28,0x0
    410151f8:	048e0e13          	addi	x28,x28,72 # 4101523c <fault_label_2>
    410151fc:	03c23023          	sd	x28,32(x4) # 20 <SECURE_ACCESS_PROBABILITY+0x2>
    41015200:	00000e13          	li	x28,0
    41015204:	05c23023          	sd	x28,64(x4) # 40 <XLEN>
    41015208:	00000e13          	li	x28,0
    4101520c:	05c23423          	sd	x28,72(x4) # 48 <XLEN+0x8>
    41015210:	00000e17          	auipc	x28,0x0
    41015214:	044e0e13          	addi	x28,x28,68 # 41015254 <excp_return_label_2>
    41015218:	03c23823          	sd	x28,48(x4) # 30 <SECURE_ACCESS_PROBABILITY+0x12>
    4101521c:	00000e13          	li	x28,0
    41015220:	03c23c23          	sd	x28,56(x4) # 38 <SECURE_ACCESS_PROBABILITY+0x1a>
    41015224:	00000e13          	li	x28,0
    41015228:	07c23023          	sd	x28,96(x4) # 60 <XLEN+0x20>
    4101522c:	00000e13          	li	x28,0
    41015230:	07c23423          	sd	x28,104(x4) # 68 <XLEN+0x28>
    41015234:	00000e13          	li	x28,0
    41015238:	07c23823          	sd	x28,112(x4) # 70 <XLEN+0x30>

000000004101523c <fault_label_2>:
    4101523c:	000023f3          	csrr	x7,ustatus
    41015240:	00038c93          	mv	x25,x7
    41015244:	0ef5ac37          	lui	x24,0xef5a
    41015248:	008c0c1b          	addiw	x24,x24,8 # ef5a008 <failed_addr>
    4101524c:	000c3d83          	ld	x27,0(x24)
    41015250:	000d8067          	jr	x27

0000000041015254 <excp_return_label_2>:
    41015254:	00000c93          	li	x25,0
    41015258:	0e5ea237          	lui	x4,0xe5ea
    4101525c:	faf2021b          	addiw	x4,x4,-81 # e5e9faf <pma_region_2_size+0xa5e9faf>
    41015260:	00f21213          	slli	x4,x4,0xf
    41015264:	00200e13          	li	x28,2
    41015268:	05c23823          	sd	x28,80(x4) # 50 <XLEN+0x10>
    4101526c:	00000e17          	auipc	x28,0x0
    41015270:	04ce0e13          	addi	x28,x28,76 # 410152b8 <fault_label_3>
    41015274:	03c23023          	sd	x28,32(x4) # 20 <SECURE_ACCESS_PROBABILITY+0x2>
    41015278:	00000e13          	li	x28,0
    4101527c:	05c23023          	sd	x28,64(x4) # 40 <XLEN>
    41015280:	00000e13          	li	x28,0
    41015284:	05c23423          	sd	x28,72(x4) # 48 <XLEN+0x8>
    41015288:	00000e17          	auipc	x28,0x0
    4101528c:	044e0e13          	addi	x28,x28,68 # 410152cc <SID_EXCEP_04_SU_passed>
    41015290:	03c23823          	sd	x28,48(x4) # 30 <SECURE_ACCESS_PROBABILITY+0x12>
    41015294:	00000e13          	li	x28,0
    41015298:	03c23c23          	sd	x28,56(x4) # 38 <SECURE_ACCESS_PROBABILITY+0x1a>
    4101529c:	00000e13          	li	x28,0
    410152a0:	07c23023          	sd	x28,96(x4) # 60 <XLEN+0x20>
    410152a4:	00000e13          	li	x28,0
    410152a8:	07c23423          	sd	x28,104(x4) # 68 <XLEN+0x28>
    410152ac:	00000e13          	li	x28,0
    410152b0:	07c23823          	sd	x28,112(x4) # 70 <XLEN+0x30>
    410152b4:	000c8393          	mv	x7,x25

00000000410152b8 <fault_label_3>:
    410152b8:	c00393f3          	csrrw	x7,cycle,x7
    410152bc:	0ef5ab37          	lui	x22,0xef5a
    410152c0:	008b0b1b          	addiw	x22,x22,8 # ef5a008 <failed_addr>
    410152c4:	000b3b03          	ld	x22,0(x22)
    410152c8:	000b0067          	jr	x22

00000000410152cc <SID_EXCEP_04_SU_passed>:
    410152cc:	00f00f9b          	addiw	x31,x0,15
    410152d0:	01cf9f93          	slli	x31,x31,0x1c
    410152d4:	001f8f93          	addi	x31,x31,1
    410152d8:	00000073          	ecall

00000000410152dc <SID_EXCEP_05>:
    410152dc:	1133c137          	lui	x2,0x1133c
    410152e0:	b4b1011b          	addiw	x2,x2,-1205 # 1133bb4b <__section_os_data_1+0x23e0b4b>
    410152e4:	00c11113          	slli	x2,x2,0xc
    410152e8:	000012b7          	lui	x5,0x1
    410152ec:	00510133          	add	x2,x2,x5
    410152f0:	ff017113          	andi	x2,x2,-16
    410152f4:	0e5ea237          	lui	x4,0xe5ea
    410152f8:	faf2021b          	addiw	x4,x4,-81 # e5e9faf <pma_region_2_size+0xa5e9faf>
    410152fc:	00f21213          	slli	x4,x4,0xf
    41015300:	00200e13          	li	x28,2
    41015304:	05c23823          	sd	x28,80(x4) # 50 <XLEN+0x10>
    41015308:	00000e17          	auipc	x28,0x0
    4101530c:	048e0e13          	addi	x28,x28,72 # 41015350 <fault_label_4>
    41015310:	03c23023          	sd	x28,32(x4) # 20 <SECURE_ACCESS_PROBABILITY+0x2>
    41015314:	00000e13          	li	x28,0
    41015318:	05c23023          	sd	x28,64(x4) # 40 <XLEN>
    4101531c:	00000e13          	li	x28,0
    41015320:	05c23423          	sd	x28,72(x4) # 48 <XLEN+0x8>
    41015324:	00000e17          	auipc	x28,0x0
    41015328:	040e0e13          	addi	x28,x28,64 # 41015364 <excp_return_label_4>
    4101532c:	03c23823          	sd	x28,48(x4) # 30 <SECURE_ACCESS_PROBABILITY+0x12>
    41015330:	00000e13          	li	x28,0
    41015334:	03c23c23          	sd	x28,56(x4) # 38 <SECURE_ACCESS_PROBABILITY+0x1a>
    41015338:	00000e13          	li	x28,0
    4101533c:	07c23023          	sd	x28,96(x4) # 60 <XLEN+0x20>
    41015340:	00000e13          	li	x28,0
    41015344:	07c23423          	sd	x28,104(x4) # 68 <XLEN+0x28>
    41015348:	00000e13          	li	x28,0
    4101534c:	07c23823          	sd	x28,112(x4) # 70 <XLEN+0x30>

0000000041015350 <fault_label_4>:
    41015350:	0000                	.insn	2, 0x0000
    41015352:	0000                	.insn	2, 0x0000
    41015354:	0ef5a637          	lui	x12,0xef5a
    41015358:	0086061b          	addiw	x12,x12,8 # ef5a008 <failed_addr>
    4101535c:	00063483          	ld	x9,0(x12)
    41015360:	00048067          	jr	x9

0000000041015364 <excp_return_label_4>:
    41015364:	0e5ea237          	lui	x4,0xe5ea
    41015368:	faf2021b          	addiw	x4,x4,-81 # e5e9faf <pma_region_2_size+0xa5e9faf>
    4101536c:	00f21213          	slli	x4,x4,0xf
    41015370:	00200e13          	li	x28,2
    41015374:	05c23823          	sd	x28,80(x4) # 50 <XLEN+0x10>
    41015378:	00000e17          	auipc	x28,0x0
    4101537c:	048e0e13          	addi	x28,x28,72 # 410153c0 <fault_label_5>
    41015380:	03c23023          	sd	x28,32(x4) # 20 <SECURE_ACCESS_PROBABILITY+0x2>
    41015384:	00000e13          	li	x28,0
    41015388:	05c23023          	sd	x28,64(x4) # 40 <XLEN>
    4101538c:	00000e13          	li	x28,0
    41015390:	05c23423          	sd	x28,72(x4) # 48 <XLEN+0x8>
    41015394:	00000e17          	auipc	x28,0x0
    41015398:	040e0e13          	addi	x28,x28,64 # 410153d4 <excp_return_label_5>
    4101539c:	03c23823          	sd	x28,48(x4) # 30 <SECURE_ACCESS_PROBABILITY+0x12>
    410153a0:	00000e13          	li	x28,0
    410153a4:	03c23c23          	sd	x28,56(x4) # 38 <SECURE_ACCESS_PROBABILITY+0x1a>
    410153a8:	00000e13          	li	x28,0
    410153ac:	07c23023          	sd	x28,96(x4) # 60 <XLEN+0x20>
    410153b0:	00000e13          	li	x28,0
    410153b4:	07c23423          	sd	x28,104(x4) # 68 <XLEN+0x28>
    410153b8:	00000e13          	li	x28,0
    410153bc:	07c23823          	sd	x28,112(x4) # 70 <XLEN+0x30>

00000000410153c0 <fault_label_5>:
    410153c0:	ffff                	.insn	2, 0xffff
    410153c2:	ffff                	.insn	2, 0xffff
    410153c4:	0ef5abb7          	lui	x23,0xef5a
    410153c8:	008b8b9b          	addiw	x23,x23,8 # ef5a008 <failed_addr>
    410153cc:	000bb303          	ld	x6,0(x23)
    410153d0:	00030067          	jr	x6

00000000410153d4 <excp_return_label_5>:
    410153d4:	0e5ea237          	lui	x4,0xe5ea
    410153d8:	faf2021b          	addiw	x4,x4,-81 # e5e9faf <pma_region_2_size+0xa5e9faf>
    410153dc:	00f21213          	slli	x4,x4,0xf
    410153e0:	00200e13          	li	x28,2
    410153e4:	05c23823          	sd	x28,80(x4) # 50 <XLEN+0x10>
    410153e8:	00000e17          	auipc	x28,0x0
    410153ec:	048e0e13          	addi	x28,x28,72 # 41015430 <fault_label_6>
    410153f0:	03c23023          	sd	x28,32(x4) # 20 <SECURE_ACCESS_PROBABILITY+0x2>
    410153f4:	00000e13          	li	x28,0
    410153f8:	05c23023          	sd	x28,64(x4) # 40 <XLEN>
    410153fc:	00000e13          	li	x28,0
    41015400:	05c23423          	sd	x28,72(x4) # 48 <XLEN+0x8>
    41015404:	00000e17          	auipc	x28,0x0
    41015408:	040e0e13          	addi	x28,x28,64 # 41015444 <excp_return_label_6>
    4101540c:	03c23823          	sd	x28,48(x4) # 30 <SECURE_ACCESS_PROBABILITY+0x12>
    41015410:	00000e13          	li	x28,0
    41015414:	03c23c23          	sd	x28,56(x4) # 38 <SECURE_ACCESS_PROBABILITY+0x1a>
    41015418:	00000e13          	li	x28,0
    4101541c:	07c23023          	sd	x28,96(x4) # 60 <XLEN+0x20>
    41015420:	00000e13          	li	x28,0
    41015424:	07c23423          	sd	x28,104(x4) # 68 <XLEN+0x28>
    41015428:	00000e13          	li	x28,0
    4101542c:	07c23823          	sd	x28,112(x4) # 70 <XLEN+0x30>

0000000041015430 <fault_label_6>:
    41015430:	0000                	.insn	2, 0x0000
    41015432:	dead                	.insn	2, 0xdead
    41015434:	0ef5aab7          	lui	x21,0xef5a
    41015438:	008a8a9b          	addiw	x21,x21,8 # ef5a008 <failed_addr>
    4101543c:	000abc03          	ld	x24,0(x21)
    41015440:	000c0067          	jr	x24

0000000041015444 <excp_return_label_6>:
    41015444:	0e5ea237          	lui	x4,0xe5ea
    41015448:	faf2021b          	addiw	x4,x4,-81 # e5e9faf <pma_region_2_size+0xa5e9faf>
    4101544c:	00f21213          	slli	x4,x4,0xf
    41015450:	00200e13          	li	x28,2
    41015454:	05c23823          	sd	x28,80(x4) # 50 <XLEN+0x10>
    41015458:	00000e17          	auipc	x28,0x0
    4101545c:	048e0e13          	addi	x28,x28,72 # 410154a0 <fault_label_7>
    41015460:	03c23023          	sd	x28,32(x4) # 20 <SECURE_ACCESS_PROBABILITY+0x2>
    41015464:	00000e13          	li	x28,0
    41015468:	05c23023          	sd	x28,64(x4) # 40 <XLEN>
    4101546c:	00000e13          	li	x28,0
    41015470:	05c23423          	sd	x28,72(x4) # 48 <XLEN+0x8>
    41015474:	00000e17          	auipc	x28,0x0
    41015478:	040e0e13          	addi	x28,x28,64 # 410154b4 <SID_EXCEP_05_passed>
    4101547c:	03c23823          	sd	x28,48(x4) # 30 <SECURE_ACCESS_PROBABILITY+0x12>
    41015480:	00000e13          	li	x28,0
    41015484:	03c23c23          	sd	x28,56(x4) # 38 <SECURE_ACCESS_PROBABILITY+0x1a>
    41015488:	00000e13          	li	x28,0
    4101548c:	07c23023          	sd	x28,96(x4) # 60 <XLEN+0x20>
    41015490:	00000e13          	li	x28,0
    41015494:	07c23423          	sd	x28,104(x4) # 68 <XLEN+0x28>
    41015498:	00000e13          	li	x28,0
    4101549c:	07c23823          	sd	x28,112(x4) # 70 <XLEN+0x30>

00000000410154a0 <fault_label_7>:
    410154a0:	007f 0000 afb7 0ef5 	.insn	10, 0x8f9b0ef5afb70000007f
    410154a8:	8f9b 
    410154aa:	bc03008f          	.insn	4, 0xbc03008f
    410154ae:	0067000f          	.insn	4, 0x0067000f
    410154b2:	000c                	.insn	2, 0x000c

00000000410154b4 <SID_EXCEP_05_passed>:
    410154b4:	00f00f9b          	addiw	x31,x0,15
    410154b8:	01cf9f93          	slli	x31,x31,0x1c
    410154bc:	001f8f93          	addi	x31,x31,1
    410154c0:	00000073          	ecall

00000000410154c4 <SID_EXCEP_06>:
    410154c4:	0aeb5137          	lui	x2,0xaeb5
    410154c8:	c651011b          	addiw	x2,x2,-923 # aeb4c65 <pma_region_2_size+0x6eb4c65>
    410154cc:	00d11113          	slli	x2,x2,0xd
    410154d0:	c8110113          	addi	x2,x2,-895
    410154d4:	00f11113          	slli	x2,x2,0xf
    410154d8:	0ef5afb7          	lui	x31,0xef5a
    410154dc:	0a8f8f9b          	addiw	x31,x31,168 # ef5a0a8 <machine_csr_jump_table_flags>
    410154e0:	00500f13          	li	x30,5
    410154e4:	01efb023          	sd	x30,0(x31)
    410154e8:	000f0fb7          	lui	x31,0xf0
    410154ec:	001f8f9b          	addiw	x31,x31,1 # f0001 <SID_EXCEP_16_stack+0x93001>
    410154f0:	00cf9f93          	slli	x31,x31,0xc
    410154f4:	005f8f93          	addi	x31,x31,5
    410154f8:	00000073          	ecall
    410154fc:	00713023          	sd	x7,0(x2)
    41015500:	02caa137          	lui	x2,0x2caa
    41015504:	a8f1011b          	addiw	x2,x2,-1393 # 2ca9a8f <hart_stack_0_end+0x2b7da8f>
    41015508:	00c11113          	slli	x2,x2,0xc
    4101550c:	35710113          	addi	x2,x2,855
    41015510:	00c11113          	slli	x2,x2,0xc
    41015514:	000012b7          	lui	x5,0x1
    41015518:	00510133          	add	x2,x2,x5
    4101551c:	ff017113          	andi	x2,x2,-16
    41015520:	00001437          	lui	x8,0x1
    41015524:	00040393          	mv	x7,x8
    41015528:	0ef5afb7          	lui	x31,0xef5a
    4101552c:	0a8f8f9b          	addiw	x31,x31,168 # ef5a0a8 <machine_csr_jump_table_flags>
    41015530:	00600f13          	li	x30,6
    41015534:	01efb023          	sd	x30,0(x31)
    41015538:	000f0fb7          	lui	x31,0xf0
    4101553c:	001f8f9b          	addiw	x31,x31,1 # f0001 <SID_EXCEP_16_stack+0x93001>
    41015540:	00cf9f93          	slli	x31,x31,0xc
    41015544:	005f8f93          	addi	x31,x31,5
    41015548:	00000073          	ecall
    4101554c:	0e5ea237          	lui	x4,0xe5ea
    41015550:	faf2021b          	addiw	x4,x4,-81 # e5e9faf <pma_region_2_size+0xa5e9faf>
    41015554:	00f21213          	slli	x4,x4,0xf
    41015558:	00200e13          	li	x28,2
    4101555c:	05c23823          	sd	x28,80(x4) # 50 <XLEN+0x10>
    41015560:	00000e17          	auipc	x28,0x0
    41015564:	048e0e13          	addi	x28,x28,72 # 410155a8 <fault_label_8>
    41015568:	03c23023          	sd	x28,32(x4) # 20 <SECURE_ACCESS_PROBABILITY+0x2>
    4101556c:	00000e13          	li	x28,0
    41015570:	05c23023          	sd	x28,64(x4) # 40 <XLEN>
    41015574:	00000e13          	li	x28,0
    41015578:	05c23423          	sd	x28,72(x4) # 48 <XLEN+0x8>
    4101557c:	00000e17          	auipc	x28,0x0
    41015580:	040e0e13          	addi	x28,x28,64 # 410155bc <excp_return_label_8>
    41015584:	03c23823          	sd	x28,48(x4) # 30 <SECURE_ACCESS_PROBABILITY+0x12>
    41015588:	00000e13          	li	x28,0
    4101558c:	03c23c23          	sd	x28,56(x4) # 38 <SECURE_ACCESS_PROBABILITY+0x1a>
    41015590:	00000e13          	li	x28,0
    41015594:	07c23023          	sd	x28,96(x4) # 60 <XLEN+0x20>
    41015598:	00000e13          	li	x28,0
    4101559c:	07c23423          	sd	x28,104(x4) # 68 <XLEN+0x28>
    410155a0:	00000e13          	li	x28,0
    410155a4:	07c23823          	sd	x28,112(x4) # 70 <XLEN+0x30>

00000000410155a8 <fault_label_8>:
    410155a8:	02c58533          	mul	x10,x11,x12
    410155ac:	0ef5af37          	lui	x30,0xef5a
    410155b0:	008f0f1b          	addiw	x30,x30,8 # ef5a008 <failed_addr>
    410155b4:	000f3b03          	ld	x22,0(x30)
    410155b8:	000b0067          	jr	x22

00000000410155bc <excp_return_label_8>:
    410155bc:	00040393          	mv	x7,x8
    410155c0:	0ef5afb7          	lui	x31,0xef5a
    410155c4:	0a8f8f9b          	addiw	x31,x31,168 # ef5a0a8 <machine_csr_jump_table_flags>
    410155c8:	00700f13          	li	x30,7
    410155cc:	01efb023          	sd	x30,0(x31)
    410155d0:	000f0fb7          	lui	x31,0xf0
    410155d4:	001f8f9b          	addiw	x31,x31,1 # f0001 <SID_EXCEP_16_stack+0x93001>
    410155d8:	00cf9f93          	slli	x31,x31,0xc
    410155dc:	005f8f93          	addi	x31,x31,5
    410155e0:	00000073          	ecall
    410155e4:	02000893          	li	x17,32
    410155e8:	00088393          	mv	x7,x17
    410155ec:	0ef5afb7          	lui	x31,0xef5a
    410155f0:	0a8f8f9b          	addiw	x31,x31,168 # ef5a0a8 <machine_csr_jump_table_flags>
    410155f4:	00600f13          	li	x30,6
    410155f8:	01efb023          	sd	x30,0(x31)
    410155fc:	000f0fb7          	lui	x31,0xf0
    41015600:	001f8f9b          	addiw	x31,x31,1 # f0001 <SID_EXCEP_16_stack+0x93001>
    41015604:	00cf9f93          	slli	x31,x31,0xc
    41015608:	005f8f93          	addi	x31,x31,5
    4101560c:	00000073          	ecall
    41015610:	0e5ea237          	lui	x4,0xe5ea
    41015614:	faf2021b          	addiw	x4,x4,-81 # e5e9faf <pma_region_2_size+0xa5e9faf>
    41015618:	00f21213          	slli	x4,x4,0xf
    4101561c:	00200e13          	li	x28,2
    41015620:	05c23823          	sd	x28,80(x4) # 50 <XLEN+0x10>
    41015624:	00000e17          	auipc	x28,0x0
    41015628:	048e0e13          	addi	x28,x28,72 # 4101566c <fault_label_9>
    4101562c:	03c23023          	sd	x28,32(x4) # 20 <SECURE_ACCESS_PROBABILITY+0x2>
    41015630:	00000e13          	li	x28,0
    41015634:	05c23023          	sd	x28,64(x4) # 40 <XLEN>
    41015638:	00000e13          	li	x28,0
    4101563c:	05c23423          	sd	x28,72(x4) # 48 <XLEN+0x8>
    41015640:	00000e17          	auipc	x28,0x0
    41015644:	040e0e13          	addi	x28,x28,64 # 41015680 <excp_return_label_9>
    41015648:	03c23823          	sd	x28,48(x4) # 30 <SECURE_ACCESS_PROBABILITY+0x12>
    4101564c:	00000e13          	li	x28,0
    41015650:	03c23c23          	sd	x28,56(x4) # 38 <SECURE_ACCESS_PROBABILITY+0x1a>
    41015654:	00000e13          	li	x28,0
    41015658:	07c23023          	sd	x28,96(x4) # 60 <XLEN+0x20>
    4101565c:	00000e13          	li	x28,0
    41015660:	07c23423          	sd	x28,104(x4) # 68 <XLEN+0x28>
    41015664:	00000e13          	li	x28,0
    41015668:	07c23823          	sd	x28,112(x4) # 70 <XLEN+0x30>

000000004101566c <fault_label_9>:
    4101566c:	00c5f553          	fadd.s	f10,f11,f12
    41015670:	0ef5a437          	lui	x8,0xef5a
    41015674:	0084041b          	addiw	x8,x8,8 # ef5a008 <failed_addr>
    41015678:	00043783          	ld	x15,0(x8)
    4101567c:	00078067          	jr	x15

0000000041015680 <excp_return_label_9>:
    41015680:	00088393          	mv	x7,x17
    41015684:	0ef5afb7          	lui	x31,0xef5a
    41015688:	0a8f8f9b          	addiw	x31,x31,168 # ef5a0a8 <machine_csr_jump_table_flags>
    4101568c:	00700f13          	li	x30,7
    41015690:	01efb023          	sd	x30,0(x31)
    41015694:	000f0fb7          	lui	x31,0xf0
    41015698:	001f8f9b          	addiw	x31,x31,1 # f0001 <SID_EXCEP_16_stack+0x93001>
    4101569c:	00cf9f93          	slli	x31,x31,0xc
    410156a0:	005f8f93          	addi	x31,x31,5
    410156a4:	00000073          	ecall
    410156a8:	00800413          	li	x8,8
    410156ac:	00040393          	mv	x7,x8
    410156b0:	0ef5afb7          	lui	x31,0xef5a
    410156b4:	0a8f8f9b          	addiw	x31,x31,168 # ef5a0a8 <machine_csr_jump_table_flags>
    410156b8:	00600f13          	li	x30,6
    410156bc:	01efb023          	sd	x30,0(x31)
    410156c0:	000f0fb7          	lui	x31,0xf0
    410156c4:	001f8f9b          	addiw	x31,x31,1 # f0001 <SID_EXCEP_16_stack+0x93001>
    410156c8:	00cf9f93          	slli	x31,x31,0xc
    410156cc:	005f8f93          	addi	x31,x31,5
    410156d0:	00000073          	ecall
    410156d4:	0e5ea237          	lui	x4,0xe5ea
    410156d8:	faf2021b          	addiw	x4,x4,-81 # e5e9faf <pma_region_2_size+0xa5e9faf>
    410156dc:	00f21213          	slli	x4,x4,0xf
    410156e0:	00200e13          	li	x28,2
    410156e4:	05c23823          	sd	x28,80(x4) # 50 <XLEN+0x10>
    410156e8:	00000e17          	auipc	x28,0x0
    410156ec:	048e0e13          	addi	x28,x28,72 # 41015730 <fault_label_10>
    410156f0:	03c23023          	sd	x28,32(x4) # 20 <SECURE_ACCESS_PROBABILITY+0x2>
    410156f4:	00000e13          	li	x28,0
    410156f8:	05c23023          	sd	x28,64(x4) # 40 <XLEN>
    410156fc:	00000e13          	li	x28,0
    41015700:	05c23423          	sd	x28,72(x4) # 48 <XLEN+0x8>
    41015704:	00000e17          	auipc	x28,0x0
    41015708:	040e0e13          	addi	x28,x28,64 # 41015744 <excp_return_label_10>
    4101570c:	03c23823          	sd	x28,48(x4) # 30 <SECURE_ACCESS_PROBABILITY+0x12>
    41015710:	00000e13          	li	x28,0
    41015714:	03c23c23          	sd	x28,56(x4) # 38 <SECURE_ACCESS_PROBABILITY+0x1a>
    41015718:	00000e13          	li	x28,0
    4101571c:	07c23023          	sd	x28,96(x4) # 60 <XLEN+0x20>
    41015720:	00000e13          	li	x28,0
    41015724:	07c23423          	sd	x28,104(x4) # 68 <XLEN+0x28>
    41015728:	00000e13          	li	x28,0
    4101572c:	07c23823          	sd	x28,112(x4) # 70 <XLEN+0x30>

0000000041015730 <fault_label_10>:
    41015730:	02c5f553          	fadd.d	f10,f11,f12
    41015734:	0ef5a5b7          	lui	x11,0xef5a
    41015738:	0085859b          	addiw	x11,x11,8 # ef5a008 <failed_addr>
    4101573c:	0005ba83          	ld	x21,0(x11)
    41015740:	000a8067          	jr	x21

0000000041015744 <excp_return_label_10>:
    41015744:	00040393          	mv	x7,x8
    41015748:	0ef5afb7          	lui	x31,0xef5a
    4101574c:	0a8f8f9b          	addiw	x31,x31,168 # ef5a0a8 <machine_csr_jump_table_flags>
    41015750:	00700f13          	li	x30,7
    41015754:	01efb023          	sd	x30,0(x31)
    41015758:	000f0fb7          	lui	x31,0xf0
    4101575c:	001f8f9b          	addiw	x31,x31,1 # f0001 <SID_EXCEP_16_stack+0x93001>
    41015760:	00cf9f93          	slli	x31,x31,0xc
    41015764:	005f8f93          	addi	x31,x31,5
    41015768:	00000073          	ecall
    4101576c:	002004b7          	lui	x9,0x200
    41015770:	00048393          	mv	x7,x9
    41015774:	0ef5afb7          	lui	x31,0xef5a
    41015778:	0a8f8f9b          	addiw	x31,x31,168 # ef5a0a8 <machine_csr_jump_table_flags>
    4101577c:	00600f13          	li	x30,6
    41015780:	01efb023          	sd	x30,0(x31)
    41015784:	000f0fb7          	lui	x31,0xf0
    41015788:	001f8f9b          	addiw	x31,x31,1 # f0001 <SID_EXCEP_16_stack+0x93001>
    4101578c:	00cf9f93          	slli	x31,x31,0xc
    41015790:	005f8f93          	addi	x31,x31,5
    41015794:	00000073          	ecall
    41015798:	0e5ea237          	lui	x4,0xe5ea
    4101579c:	faf2021b          	addiw	x4,x4,-81 # e5e9faf <pma_region_2_size+0xa5e9faf>
    410157a0:	00f21213          	slli	x4,x4,0xf
    410157a4:	00200e13          	li	x28,2
    410157a8:	05c23823          	sd	x28,80(x4) # 50 <XLEN+0x10>
    410157ac:	00000e17          	auipc	x28,0x0
    410157b0:	048e0e13          	addi	x28,x28,72 # 410157f4 <fault_label_11>
    410157b4:	03c23023          	sd	x28,32(x4) # 20 <SECURE_ACCESS_PROBABILITY+0x2>
    410157b8:	00000e13          	li	x28,0
    410157bc:	05c23023          	sd	x28,64(x4) # 40 <XLEN>
    410157c0:	00000e13          	li	x28,0
    410157c4:	05c23423          	sd	x28,72(x4) # 48 <XLEN+0x8>
    410157c8:	00000e17          	auipc	x28,0x0
    410157cc:	040e0e13          	addi	x28,x28,64 # 41015808 <excp_return_label_11>
    410157d0:	03c23823          	sd	x28,48(x4) # 30 <SECURE_ACCESS_PROBABILITY+0x12>
    410157d4:	00000e13          	li	x28,0
    410157d8:	03c23c23          	sd	x28,56(x4) # 38 <SECURE_ACCESS_PROBABILITY+0x1a>
    410157dc:	00000e13          	li	x28,0
    410157e0:	07c23023          	sd	x28,96(x4) # 60 <XLEN+0x20>
    410157e4:	00000e13          	li	x28,0
    410157e8:	07c23423          	sd	x28,104(x4) # 68 <XLEN+0x28>
    410157ec:	00000e13          	li	x28,0
    410157f0:	07c23823          	sd	x28,112(x4) # 70 <XLEN+0x30>

00000000410157f4 <fault_label_11>:
    410157f4:	02110057          	vadd.vv	v0,v1,v2
    410157f8:	0ef5a337          	lui	x6,0xef5a
    410157fc:	0083031b          	addiw	x6,x6,8 # ef5a008 <failed_addr>
    41015800:	00033503          	ld	x10,0(x6)
    41015804:	00050067          	jr	x10

0000000041015808 <excp_return_label_11>:
    41015808:	00048393          	mv	x7,x9
    4101580c:	0ef5afb7          	lui	x31,0xef5a
    41015810:	0a8f8f9b          	addiw	x31,x31,168 # ef5a0a8 <machine_csr_jump_table_flags>
    41015814:	00700f13          	li	x30,7
    41015818:	01efb023          	sd	x30,0(x31)
    4101581c:	000f0fb7          	lui	x31,0xf0
    41015820:	001f8f9b          	addiw	x31,x31,1 # f0001 <SID_EXCEP_16_stack+0x93001>
    41015824:	00cf9f93          	slli	x31,x31,0xc
    41015828:	005f8f93          	addi	x31,x31,5
    4101582c:	00000073          	ecall
    41015830:	0aeb5137          	lui	x2,0xaeb5
    41015834:	c651011b          	addiw	x2,x2,-923 # aeb4c65 <pma_region_2_size+0x6eb4c65>
    41015838:	00d11113          	slli	x2,x2,0xd
    4101583c:	c8110113          	addi	x2,x2,-895
    41015840:	00f11113          	slli	x2,x2,0xf
    41015844:	00013383          	ld	x7,0(x2)
    41015848:	0ef5afb7          	lui	x31,0xef5a
    4101584c:	0a8f8f9b          	addiw	x31,x31,168 # ef5a0a8 <machine_csr_jump_table_flags>
    41015850:	00e00f13          	li	x30,14
    41015854:	01efb023          	sd	x30,0(x31)
    41015858:	000f0fb7          	lui	x31,0xf0
    4101585c:	001f8f9b          	addiw	x31,x31,1 # f0001 <SID_EXCEP_16_stack+0x93001>
    41015860:	00cf9f93          	slli	x31,x31,0xc
    41015864:	005f8f93          	addi	x31,x31,5
    41015868:	00000073          	ecall

000000004101586c <SID_EXCEP_06_passed>:
    4101586c:	00f00f9b          	addiw	x31,x0,15
    41015870:	01cf9f93          	slli	x31,x31,0x1c
    41015874:	001f8f93          	addi	x31,x31,1
    41015878:	00000073          	ecall

000000004101587c <SID_EXCEP_07>:
    4101587c:	0aeb5137          	lui	x2,0xaeb5
    41015880:	c651011b          	addiw	x2,x2,-923 # aeb4c65 <pma_region_2_size+0x6eb4c65>
    41015884:	00d11113          	slli	x2,x2,0xd
    41015888:	c8110113          	addi	x2,x2,-895
    4101588c:	00f11113          	slli	x2,x2,0xf
    41015890:	0ef5afb7          	lui	x31,0xef5a
    41015894:	0a8f8f9b          	addiw	x31,x31,168 # ef5a0a8 <machine_csr_jump_table_flags>
    41015898:	00500f13          	li	x30,5
    4101589c:	01efb023          	sd	x30,0(x31)
    410158a0:	000f0fb7          	lui	x31,0xf0
    410158a4:	001f8f9b          	addiw	x31,x31,1 # f0001 <SID_EXCEP_16_stack+0x93001>
    410158a8:	00cf9f93          	slli	x31,x31,0xc
    410158ac:	005f8f93          	addi	x31,x31,5
    410158b0:	00000073          	ecall
    410158b4:	00713023          	sd	x7,0(x2)
    410158b8:	03e9f137          	lui	x2,0x3e9f
    410158bc:	000012b7          	lui	x5,0x1
    410158c0:	00510133          	add	x2,x2,x5
    410158c4:	ff017113          	andi	x2,x2,-16
    410158c8:	02000e93          	li	x29,32
    410158cc:	000e8393          	mv	x7,x29
    410158d0:	0ef5afb7          	lui	x31,0xef5a
    410158d4:	0a8f8f9b          	addiw	x31,x31,168 # ef5a0a8 <machine_csr_jump_table_flags>
    410158d8:	00600f13          	li	x30,6
    410158dc:	01efb023          	sd	x30,0(x31)
    410158e0:	000f0fb7          	lui	x31,0xf0
    410158e4:	001f8f9b          	addiw	x31,x31,1 # f0001 <SID_EXCEP_16_stack+0x93001>
    410158e8:	00cf9f93          	slli	x31,x31,0xc
    410158ec:	005f8f93          	addi	x31,x31,5
    410158f0:	00000073          	ecall
    410158f4:	0e5ea237          	lui	x4,0xe5ea
    410158f8:	faf2021b          	addiw	x4,x4,-81 # e5e9faf <pma_region_2_size+0xa5e9faf>
    410158fc:	00f21213          	slli	x4,x4,0xf
    41015900:	00200e13          	li	x28,2
    41015904:	05c23823          	sd	x28,80(x4) # 50 <XLEN+0x10>
    41015908:	00000e17          	auipc	x28,0x0
    4101590c:	048e0e13          	addi	x28,x28,72 # 41015950 <fault_label_12>
    41015910:	03c23023          	sd	x28,32(x4) # 20 <SECURE_ACCESS_PROBABILITY+0x2>
    41015914:	00000e13          	li	x28,0
    41015918:	05c23023          	sd	x28,64(x4) # 40 <XLEN>
    4101591c:	00000e13          	li	x28,0
    41015920:	05c23423          	sd	x28,72(x4) # 48 <XLEN+0x8>
    41015924:	00000e17          	auipc	x28,0x0
    41015928:	040e0e13          	addi	x28,x28,64 # 41015964 <excp_return_label_12>
    4101592c:	03c23823          	sd	x28,48(x4) # 30 <SECURE_ACCESS_PROBABILITY+0x12>
    41015930:	00000e13          	li	x28,0
    41015934:	03c23c23          	sd	x28,56(x4) # 38 <SECURE_ACCESS_PROBABILITY+0x1a>
    41015938:	00000e13          	li	x28,0
    4101593c:	07c23023          	sd	x28,96(x4) # 60 <XLEN+0x20>
    41015940:	00000e13          	li	x28,0
    41015944:	07c23423          	sd	x28,104(x4) # 68 <XLEN+0x28>
    41015948:	00000e13          	li	x28,0
    4101594c:	07c23823          	sd	x28,112(x4) # 70 <XLEN+0x30>

0000000041015950 <fault_label_12>:
    41015950:	02c5f553          	fadd.d	f10,f11,f12
    41015954:	0ef5ac37          	lui	x24,0xef5a
    41015958:	008c0c1b          	addiw	x24,x24,8 # ef5a008 <failed_addr>
    4101595c:	000c3303          	ld	x6,0(x24)
    41015960:	00030067          	jr	x6

0000000041015964 <excp_return_label_12>:
    41015964:	000e8393          	mv	x7,x29
    41015968:	0ef5afb7          	lui	x31,0xef5a
    4101596c:	0a8f8f9b          	addiw	x31,x31,168 # ef5a0a8 <machine_csr_jump_table_flags>
    41015970:	00700f13          	li	x30,7
    41015974:	01efb023          	sd	x30,0(x31)
    41015978:	000f0fb7          	lui	x31,0xf0
    4101597c:	001f8f9b          	addiw	x31,x31,1 # f0001 <SID_EXCEP_16_stack+0x93001>
    41015980:	00cf9f93          	slli	x31,x31,0xc
    41015984:	005f8f93          	addi	x31,x31,5
    41015988:	00000073          	ecall
    4101598c:	02000a13          	li	x20,32
    41015990:	000a0393          	mv	x7,x20
    41015994:	0ef5afb7          	lui	x31,0xef5a
    41015998:	0a8f8f9b          	addiw	x31,x31,168 # ef5a0a8 <machine_csr_jump_table_flags>
    4101599c:	00600f13          	li	x30,6
    410159a0:	01efb023          	sd	x30,0(x31)
    410159a4:	000f0fb7          	lui	x31,0xf0
    410159a8:	001f8f9b          	addiw	x31,x31,1 # f0001 <SID_EXCEP_16_stack+0x93001>
    410159ac:	00cf9f93          	slli	x31,x31,0xc
    410159b0:	005f8f93          	addi	x31,x31,5
    410159b4:	00000073          	ecall
    410159b8:	0e5ea237          	lui	x4,0xe5ea
    410159bc:	faf2021b          	addiw	x4,x4,-81 # e5e9faf <pma_region_2_size+0xa5e9faf>
    410159c0:	00f21213          	slli	x4,x4,0xf
    410159c4:	00200e13          	li	x28,2
    410159c8:	05c23823          	sd	x28,80(x4) # 50 <XLEN+0x10>
    410159cc:	00000e17          	auipc	x28,0x0
    410159d0:	048e0e13          	addi	x28,x28,72 # 41015a14 <fault_label_13>
    410159d4:	03c23023          	sd	x28,32(x4) # 20 <SECURE_ACCESS_PROBABILITY+0x2>
    410159d8:	00000e13          	li	x28,0
    410159dc:	05c23023          	sd	x28,64(x4) # 40 <XLEN>
    410159e0:	00000e13          	li	x28,0
    410159e4:	05c23423          	sd	x28,72(x4) # 48 <XLEN+0x8>
    410159e8:	00000e17          	auipc	x28,0x0
    410159ec:	040e0e13          	addi	x28,x28,64 # 41015a28 <excp_return_label_13>
    410159f0:	03c23823          	sd	x28,48(x4) # 30 <SECURE_ACCESS_PROBABILITY+0x12>
    410159f4:	00000e13          	li	x28,0
    410159f8:	03c23c23          	sd	x28,56(x4) # 38 <SECURE_ACCESS_PROBABILITY+0x1a>
    410159fc:	00000e13          	li	x28,0
    41015a00:	07c23023          	sd	x28,96(x4) # 60 <XLEN+0x20>
    41015a04:	00000e13          	li	x28,0
    41015a08:	07c23423          	sd	x28,104(x4) # 68 <XLEN+0x28>
    41015a0c:	00000e13          	li	x28,0
    41015a10:	07c23823          	sd	x28,112(x4) # 70 <XLEN+0x30>

0000000041015a14 <fault_label_13>:
    41015a14:	04c5f553          	fadd.h	f10,f11,f12
    41015a18:	0ef5ac37          	lui	x24,0xef5a
    41015a1c:	008c0c1b          	addiw	x24,x24,8 # ef5a008 <failed_addr>
    41015a20:	000c3703          	ld	x14,0(x24)
    41015a24:	00070067          	jr	x14

0000000041015a28 <excp_return_label_13>:
    41015a28:	000a0393          	mv	x7,x20
    41015a2c:	0ef5afb7          	lui	x31,0xef5a
    41015a30:	0a8f8f9b          	addiw	x31,x31,168 # ef5a0a8 <machine_csr_jump_table_flags>
    41015a34:	00700f13          	li	x30,7
    41015a38:	01efb023          	sd	x30,0(x31)
    41015a3c:	000f0fb7          	lui	x31,0xf0
    41015a40:	001f8f9b          	addiw	x31,x31,1 # f0001 <SID_EXCEP_16_stack+0x93001>
    41015a44:	00cf9f93          	slli	x31,x31,0xc
    41015a48:	005f8f93          	addi	x31,x31,5
    41015a4c:	00000073          	ecall
    41015a50:	02000b93          	li	x23,32
    41015a54:	000b8393          	mv	x7,x23
    41015a58:	0ef5afb7          	lui	x31,0xef5a
    41015a5c:	0a8f8f9b          	addiw	x31,x31,168 # ef5a0a8 <machine_csr_jump_table_flags>
    41015a60:	00600f13          	li	x30,6
    41015a64:	01efb023          	sd	x30,0(x31)
    41015a68:	000f0fb7          	lui	x31,0xf0
    41015a6c:	001f8f9b          	addiw	x31,x31,1 # f0001 <SID_EXCEP_16_stack+0x93001>
    41015a70:	00cf9f93          	slli	x31,x31,0xc
    41015a74:	005f8f93          	addi	x31,x31,5
    41015a78:	00000073          	ecall
    41015a7c:	0e5ea237          	lui	x4,0xe5ea
    41015a80:	faf2021b          	addiw	x4,x4,-81 # e5e9faf <pma_region_2_size+0xa5e9faf>
    41015a84:	00f21213          	slli	x4,x4,0xf
    41015a88:	00200e13          	li	x28,2
    41015a8c:	05c23823          	sd	x28,80(x4) # 50 <XLEN+0x10>
    41015a90:	00000e17          	auipc	x28,0x0
    41015a94:	048e0e13          	addi	x28,x28,72 # 41015ad8 <fault_label_14>
    41015a98:	03c23023          	sd	x28,32(x4) # 20 <SECURE_ACCESS_PROBABILITY+0x2>
    41015a9c:	00000e13          	li	x28,0
    41015aa0:	05c23023          	sd	x28,64(x4) # 40 <XLEN>
    41015aa4:	00000e13          	li	x28,0
    41015aa8:	05c23423          	sd	x28,72(x4) # 48 <XLEN+0x8>
    41015aac:	00000e17          	auipc	x28,0x0
    41015ab0:	040e0e13          	addi	x28,x28,64 # 41015aec <excp_return_label_14>
    41015ab4:	03c23823          	sd	x28,48(x4) # 30 <SECURE_ACCESS_PROBABILITY+0x12>
    41015ab8:	00000e13          	li	x28,0
    41015abc:	03c23c23          	sd	x28,56(x4) # 38 <SECURE_ACCESS_PROBABILITY+0x1a>
    41015ac0:	00000e13          	li	x28,0
    41015ac4:	07c23023          	sd	x28,96(x4) # 60 <XLEN+0x20>
    41015ac8:	00000e13          	li	x28,0
    41015acc:	07c23423          	sd	x28,104(x4) # 68 <XLEN+0x28>
    41015ad0:	00000e13          	li	x28,0
    41015ad4:	07c23823          	sd	x28,112(x4) # 70 <XLEN+0x30>

0000000041015ad8 <fault_label_14>:
    41015ad8:	02111057          	vfadd.vv	v0,v1,v2
    41015adc:	0ef5aa37          	lui	x20,0xef5a
    41015ae0:	008a0a1b          	addiw	x20,x20,8 # ef5a008 <failed_addr>
    41015ae4:	000a3403          	ld	x8,0(x20)
    41015ae8:	00040067          	jr	x8

0000000041015aec <excp_return_label_14>:
    41015aec:	000b8393          	mv	x7,x23
    41015af0:	0ef5afb7          	lui	x31,0xef5a
    41015af4:	0a8f8f9b          	addiw	x31,x31,168 # ef5a0a8 <machine_csr_jump_table_flags>
    41015af8:	00700f13          	li	x30,7
    41015afc:	01efb023          	sd	x30,0(x31)
    41015b00:	000f0fb7          	lui	x31,0xf0
    41015b04:	001f8f9b          	addiw	x31,x31,1 # f0001 <SID_EXCEP_16_stack+0x93001>
    41015b08:	00cf9f93          	slli	x31,x31,0xc
    41015b0c:	005f8f93          	addi	x31,x31,5
    41015b10:	00000073          	ecall
    41015b14:	00200c37          	lui	x24,0x200
    41015b18:	000c0393          	mv	x7,x24
    41015b1c:	0ef5afb7          	lui	x31,0xef5a
    41015b20:	0a8f8f9b          	addiw	x31,x31,168 # ef5a0a8 <machine_csr_jump_table_flags>
    41015b24:	00600f13          	li	x30,6
    41015b28:	01efb023          	sd	x30,0(x31)
    41015b2c:	000f0fb7          	lui	x31,0xf0
    41015b30:	001f8f9b          	addiw	x31,x31,1 # f0001 <SID_EXCEP_16_stack+0x93001>
    41015b34:	00cf9f93          	slli	x31,x31,0xc
    41015b38:	005f8f93          	addi	x31,x31,5
    41015b3c:	00000073          	ecall
    41015b40:	0e5ea237          	lui	x4,0xe5ea
    41015b44:	faf2021b          	addiw	x4,x4,-81 # e5e9faf <pma_region_2_size+0xa5e9faf>
    41015b48:	00f21213          	slli	x4,x4,0xf
    41015b4c:	00200e13          	li	x28,2
    41015b50:	05c23823          	sd	x28,80(x4) # 50 <XLEN+0x10>
    41015b54:	00000e17          	auipc	x28,0x0
    41015b58:	048e0e13          	addi	x28,x28,72 # 41015b9c <fault_label_15>
    41015b5c:	03c23023          	sd	x28,32(x4) # 20 <SECURE_ACCESS_PROBABILITY+0x2>
    41015b60:	00000e13          	li	x28,0
    41015b64:	05c23023          	sd	x28,64(x4) # 40 <XLEN>
    41015b68:	00000e13          	li	x28,0
    41015b6c:	05c23423          	sd	x28,72(x4) # 48 <XLEN+0x8>
    41015b70:	00000e17          	auipc	x28,0x0
    41015b74:	040e0e13          	addi	x28,x28,64 # 41015bb0 <excp_return_label_15>
    41015b78:	03c23823          	sd	x28,48(x4) # 30 <SECURE_ACCESS_PROBABILITY+0x12>
    41015b7c:	00000e13          	li	x28,0
    41015b80:	03c23c23          	sd	x28,56(x4) # 38 <SECURE_ACCESS_PROBABILITY+0x1a>
    41015b84:	00000e13          	li	x28,0
    41015b88:	07c23023          	sd	x28,96(x4) # 60 <XLEN+0x20>
    41015b8c:	00000e13          	li	x28,0
    41015b90:	07c23423          	sd	x28,104(x4) # 68 <XLEN+0x28>
    41015b94:	00000e13          	li	x28,0
    41015b98:	07c23823          	sd	x28,112(x4) # 70 <XLEN+0x30>

0000000041015b9c <fault_label_15>:
    41015b9c:	06110057          	vandn.vv	v0,v1,v2
    41015ba0:	0ef5a8b7          	lui	x17,0xef5a
    41015ba4:	0088889b          	addiw	x17,x17,8 # ef5a008 <failed_addr>
    41015ba8:	0008b883          	ld	x17,0(x17)
    41015bac:	00088067          	jr	x17

0000000041015bb0 <excp_return_label_15>:
    41015bb0:	000c0393          	mv	x7,x24
    41015bb4:	0ef5afb7          	lui	x31,0xef5a
    41015bb8:	0a8f8f9b          	addiw	x31,x31,168 # ef5a0a8 <machine_csr_jump_table_flags>
    41015bbc:	00700f13          	li	x30,7
    41015bc0:	01efb023          	sd	x30,0(x31)
    41015bc4:	000f0fb7          	lui	x31,0xf0
    41015bc8:	001f8f9b          	addiw	x31,x31,1 # f0001 <SID_EXCEP_16_stack+0x93001>
    41015bcc:	00cf9f93          	slli	x31,x31,0xc
    41015bd0:	005f8f93          	addi	x31,x31,5
    41015bd4:	00000073          	ecall
    41015bd8:	0aeb5137          	lui	x2,0xaeb5
    41015bdc:	c651011b          	addiw	x2,x2,-923 # aeb4c65 <pma_region_2_size+0x6eb4c65>
    41015be0:	00d11113          	slli	x2,x2,0xd
    41015be4:	c8110113          	addi	x2,x2,-895
    41015be8:	00f11113          	slli	x2,x2,0xf
    41015bec:	00013383          	ld	x7,0(x2)
    41015bf0:	0ef5afb7          	lui	x31,0xef5a
    41015bf4:	0a8f8f9b          	addiw	x31,x31,168 # ef5a0a8 <machine_csr_jump_table_flags>
    41015bf8:	00e00f13          	li	x30,14
    41015bfc:	01efb023          	sd	x30,0(x31)
    41015c00:	000f0fb7          	lui	x31,0xf0
    41015c04:	001f8f9b          	addiw	x31,x31,1 # f0001 <SID_EXCEP_16_stack+0x93001>
    41015c08:	00cf9f93          	slli	x31,x31,0xc
    41015c0c:	005f8f93          	addi	x31,x31,5
    41015c10:	00000073          	ecall

0000000041015c14 <SID_EXCEP_07_passed>:
    41015c14:	00f00f9b          	addiw	x31,x0,15
    41015c18:	01cf9f93          	slli	x31,x31,0x1c
    41015c1c:	001f8f93          	addi	x31,x31,1
    41015c20:	00000073          	ecall

0000000041015c24 <SID_EXCEP_08>:
    41015c24:	0aeb5137          	lui	x2,0xaeb5
    41015c28:	c651011b          	addiw	x2,x2,-923 # aeb4c65 <pma_region_2_size+0x6eb4c65>
    41015c2c:	00d11113          	slli	x2,x2,0xd
    41015c30:	c8110113          	addi	x2,x2,-895
    41015c34:	00f11113          	slli	x2,x2,0xf
    41015c38:	0ef5afb7          	lui	x31,0xef5a
    41015c3c:	0a8f8f9b          	addiw	x31,x31,168 # ef5a0a8 <machine_csr_jump_table_flags>
    41015c40:	01900f13          	li	x30,25
    41015c44:	01efb023          	sd	x30,0(x31)
    41015c48:	000f0fb7          	lui	x31,0xf0
    41015c4c:	001f8f9b          	addiw	x31,x31,1 # f0001 <SID_EXCEP_16_stack+0x93001>
    41015c50:	00cf9f93          	slli	x31,x31,0xc
    41015c54:	005f8f93          	addi	x31,x31,5
    41015c58:	00000073          	ecall
    41015c5c:	00713023          	sd	x7,0(x2)
    41015c60:	05f3b137          	lui	x2,0x5f3b
    41015c64:	d7f1011b          	addiw	x2,x2,-641 # 5f3ad7f <pma_region_2_size+0x1f3ad7f>
    41015c68:	00c11113          	slli	x2,x2,0xc
    41015c6c:	fab10113          	addi	x2,x2,-85
    41015c70:	00c11113          	slli	x2,x2,0xc
    41015c74:	000012b7          	lui	x5,0x1
    41015c78:	00510133          	add	x2,x2,x5
    41015c7c:	ff017113          	andi	x2,x2,-16
    41015c80:	00006a37          	lui	x20,0x6
    41015c84:	000a0393          	mv	x7,x20
    41015c88:	0ef5afb7          	lui	x31,0xef5a
    41015c8c:	0a8f8f9b          	addiw	x31,x31,168 # ef5a0a8 <machine_csr_jump_table_flags>
    41015c90:	01a00f13          	li	x30,26
    41015c94:	01efb023          	sd	x30,0(x31)
    41015c98:	000f0fb7          	lui	x31,0xf0
    41015c9c:	001f8f9b          	addiw	x31,x31,1 # f0001 <SID_EXCEP_16_stack+0x93001>
    41015ca0:	00cf9f93          	slli	x31,x31,0xc
    41015ca4:	005f8f93          	addi	x31,x31,5
    41015ca8:	00000073          	ecall
    41015cac:	0e5ea237          	lui	x4,0xe5ea
    41015cb0:	faf2021b          	addiw	x4,x4,-81 # e5e9faf <pma_region_2_size+0xa5e9faf>
    41015cb4:	00f21213          	slli	x4,x4,0xf
    41015cb8:	00200e13          	li	x28,2
    41015cbc:	05c23823          	sd	x28,80(x4) # 50 <XLEN+0x10>
    41015cc0:	00000e17          	auipc	x28,0x0
    41015cc4:	048e0e13          	addi	x28,x28,72 # 41015d08 <fault_label_16>
    41015cc8:	03c23023          	sd	x28,32(x4) # 20 <SECURE_ACCESS_PROBABILITY+0x2>
    41015ccc:	00000e13          	li	x28,0
    41015cd0:	05c23023          	sd	x28,64(x4) # 40 <XLEN>
    41015cd4:	00000e13          	li	x28,0
    41015cd8:	05c23423          	sd	x28,72(x4) # 48 <XLEN+0x8>
    41015cdc:	00000e17          	auipc	x28,0x0
    41015ce0:	040e0e13          	addi	x28,x28,64 # 41015d1c <excp_return_label_16>
    41015ce4:	03c23823          	sd	x28,48(x4) # 30 <SECURE_ACCESS_PROBABILITY+0x12>
    41015ce8:	00000e13          	li	x28,0
    41015cec:	03c23c23          	sd	x28,56(x4) # 38 <SECURE_ACCESS_PROBABILITY+0x1a>
    41015cf0:	00000e13          	li	x28,0
    41015cf4:	07c23023          	sd	x28,96(x4) # 60 <XLEN+0x20>
    41015cf8:	00000e13          	li	x28,0
    41015cfc:	07c23423          	sd	x28,104(x4) # 68 <XLEN+0x28>
    41015d00:	00000e13          	li	x28,0
    41015d04:	07c23823          	sd	x28,112(x4) # 70 <XLEN+0x30>

0000000041015d08 <fault_label_16>:
    41015d08:	00c5f553          	fadd.s	f10,f11,f12
    41015d0c:	0ef5abb7          	lui	x23,0xef5a
    41015d10:	008b8b9b          	addiw	x23,x23,8 # ef5a008 <failed_addr>
    41015d14:	000bbd03          	ld	x26,0(x23)
    41015d18:	000d0067          	jr	x26

0000000041015d1c <excp_return_label_16>:
    41015d1c:	0e5ea237          	lui	x4,0xe5ea
    41015d20:	faf2021b          	addiw	x4,x4,-81 # e5e9faf <pma_region_2_size+0xa5e9faf>
    41015d24:	00f21213          	slli	x4,x4,0xf
    41015d28:	00200e13          	li	x28,2
    41015d2c:	05c23823          	sd	x28,80(x4) # 50 <XLEN+0x10>
    41015d30:	00000e17          	auipc	x28,0x0
    41015d34:	048e0e13          	addi	x28,x28,72 # 41015d78 <fault_label_17>
    41015d38:	03c23023          	sd	x28,32(x4) # 20 <SECURE_ACCESS_PROBABILITY+0x2>
    41015d3c:	00000e13          	li	x28,0
    41015d40:	05c23023          	sd	x28,64(x4) # 40 <XLEN>
    41015d44:	00000e13          	li	x28,0
    41015d48:	05c23423          	sd	x28,72(x4) # 48 <XLEN+0x8>
    41015d4c:	00000e17          	auipc	x28,0x0
    41015d50:	040e0e13          	addi	x28,x28,64 # 41015d8c <excp_return_label_17>
    41015d54:	03c23823          	sd	x28,48(x4) # 30 <SECURE_ACCESS_PROBABILITY+0x12>
    41015d58:	00000e13          	li	x28,0
    41015d5c:	03c23c23          	sd	x28,56(x4) # 38 <SECURE_ACCESS_PROBABILITY+0x1a>
    41015d60:	00000e13          	li	x28,0
    41015d64:	07c23023          	sd	x28,96(x4) # 60 <XLEN+0x20>
    41015d68:	00000e13          	li	x28,0
    41015d6c:	07c23423          	sd	x28,104(x4) # 68 <XLEN+0x28>
    41015d70:	00000e13          	li	x28,0
    41015d74:	07c23823          	sd	x28,112(x4) # 70 <XLEN+0x30>

0000000041015d78 <fault_label_17>:
    41015d78:	00052507          	flw	f10,0(x10)
    41015d7c:	0ef5a737          	lui	x14,0xef5a
    41015d80:	0087071b          	addiw	x14,x14,8 # ef5a008 <failed_addr>
    41015d84:	00073983          	ld	x19,0(x14)
    41015d88:	00098067          	jr	x19

0000000041015d8c <excp_return_label_17>:
    41015d8c:	000067b7          	lui	x15,0x6
    41015d90:	00078393          	mv	x7,x15
    41015d94:	0ef5afb7          	lui	x31,0xef5a
    41015d98:	0a8f8f9b          	addiw	x31,x31,168 # ef5a0a8 <machine_csr_jump_table_flags>
    41015d9c:	01b00f13          	li	x30,27
    41015da0:	01efb023          	sd	x30,0(x31)
    41015da4:	000f0fb7          	lui	x31,0xf0
    41015da8:	001f8f9b          	addiw	x31,x31,1 # f0001 <SID_EXCEP_16_stack+0x93001>
    41015dac:	00cf9f93          	slli	x31,x31,0xc
    41015db0:	005f8f93          	addi	x31,x31,5
    41015db4:	00000073          	ecall
    41015db8:	60000d13          	li	x26,1536
    41015dbc:	000d0393          	mv	x7,x26
    41015dc0:	0ef5afb7          	lui	x31,0xef5a
    41015dc4:	0a8f8f9b          	addiw	x31,x31,168 # ef5a0a8 <machine_csr_jump_table_flags>
    41015dc8:	01a00f13          	li	x30,26
    41015dcc:	01efb023          	sd	x30,0(x31)
    41015dd0:	000f0fb7          	lui	x31,0xf0
    41015dd4:	001f8f9b          	addiw	x31,x31,1 # f0001 <SID_EXCEP_16_stack+0x93001>
    41015dd8:	00cf9f93          	slli	x31,x31,0xc
    41015ddc:	005f8f93          	addi	x31,x31,5
    41015de0:	00000073          	ecall
    41015de4:	0e5ea237          	lui	x4,0xe5ea
    41015de8:	faf2021b          	addiw	x4,x4,-81 # e5e9faf <pma_region_2_size+0xa5e9faf>
    41015dec:	00f21213          	slli	x4,x4,0xf
    41015df0:	00200e13          	li	x28,2
    41015df4:	05c23823          	sd	x28,80(x4) # 50 <XLEN+0x10>
    41015df8:	00000e17          	auipc	x28,0x0
    41015dfc:	048e0e13          	addi	x28,x28,72 # 41015e40 <fault_label_18>
    41015e00:	03c23023          	sd	x28,32(x4) # 20 <SECURE_ACCESS_PROBABILITY+0x2>
    41015e04:	00000e13          	li	x28,0
    41015e08:	05c23023          	sd	x28,64(x4) # 40 <XLEN>
    41015e0c:	00000e13          	li	x28,0
    41015e10:	05c23423          	sd	x28,72(x4) # 48 <XLEN+0x8>
    41015e14:	00000e17          	auipc	x28,0x0
    41015e18:	040e0e13          	addi	x28,x28,64 # 41015e54 <excp_return_label_18>
    41015e1c:	03c23823          	sd	x28,48(x4) # 30 <SECURE_ACCESS_PROBABILITY+0x12>
    41015e20:	00000e13          	li	x28,0
    41015e24:	03c23c23          	sd	x28,56(x4) # 38 <SECURE_ACCESS_PROBABILITY+0x1a>
    41015e28:	00000e13          	li	x28,0
    41015e2c:	07c23023          	sd	x28,96(x4) # 60 <XLEN+0x20>
    41015e30:	00000e13          	li	x28,0
    41015e34:	07c23423          	sd	x28,104(x4) # 68 <XLEN+0x28>
    41015e38:	00000e13          	li	x28,0
    41015e3c:	07c23823          	sd	x28,112(x4) # 70 <XLEN+0x30>

0000000041015e40 <fault_label_18>:
    41015e40:	02110057          	vadd.vv	v0,v1,v2
    41015e44:	0ef5a837          	lui	x16,0xef5a
    41015e48:	0088081b          	addiw	x16,x16,8 # ef5a008 <failed_addr>
    41015e4c:	00083383          	ld	x7,0(x16)
    41015e50:	00038067          	jr	x7

0000000041015e54 <excp_return_label_18>:
    41015e54:	0e5ea237          	lui	x4,0xe5ea
    41015e58:	faf2021b          	addiw	x4,x4,-81 # e5e9faf <pma_region_2_size+0xa5e9faf>
    41015e5c:	00f21213          	slli	x4,x4,0xf
    41015e60:	00200e13          	li	x28,2
    41015e64:	05c23823          	sd	x28,80(x4) # 50 <XLEN+0x10>
    41015e68:	00000e17          	auipc	x28,0x0
    41015e6c:	048e0e13          	addi	x28,x28,72 # 41015eb0 <fault_label_19>
    41015e70:	03c23023          	sd	x28,32(x4) # 20 <SECURE_ACCESS_PROBABILITY+0x2>
    41015e74:	00000e13          	li	x28,0
    41015e78:	05c23023          	sd	x28,64(x4) # 40 <XLEN>
    41015e7c:	00000e13          	li	x28,0
    41015e80:	05c23423          	sd	x28,72(x4) # 48 <XLEN+0x8>
    41015e84:	00000e17          	auipc	x28,0x0
    41015e88:	044e0e13          	addi	x28,x28,68 # 41015ec8 <excp_return_label_19>
    41015e8c:	03c23823          	sd	x28,48(x4) # 30 <SECURE_ACCESS_PROBABILITY+0x12>
    41015e90:	00000e13          	li	x28,0
    41015e94:	03c23c23          	sd	x28,56(x4) # 38 <SECURE_ACCESS_PROBABILITY+0x1a>
    41015e98:	00000e13          	li	x28,0
    41015e9c:	07c23023          	sd	x28,96(x4) # 60 <XLEN+0x20>
    41015ea0:	00000e13          	li	x28,0
    41015ea4:	07c23423          	sd	x28,104(x4) # 68 <XLEN+0x28>
    41015ea8:	00000e13          	li	x28,0
    41015eac:	07c23823          	sd	x28,112(x4) # 70 <XLEN+0x30>

0000000041015eb0 <fault_label_19>:
    41015eb0:	c20023f3          	csrr	x7,vl
    41015eb4:	00038e13          	mv	x28,x7
    41015eb8:	0ef5aab7          	lui	x21,0xef5a
    41015ebc:	008a8a9b          	addiw	x21,x21,8 # ef5a008 <failed_addr>
    41015ec0:	000ab303          	ld	x6,0(x21)
    41015ec4:	00030067          	jr	x6

0000000041015ec8 <excp_return_label_19>:
    41015ec8:	60000f13          	li	x30,1536
    41015ecc:	000f0393          	mv	x7,x30
    41015ed0:	0ef5afb7          	lui	x31,0xef5a
    41015ed4:	0a8f8f9b          	addiw	x31,x31,168 # ef5a0a8 <machine_csr_jump_table_flags>
    41015ed8:	01b00f13          	li	x30,27
    41015edc:	01efb023          	sd	x30,0(x31)
    41015ee0:	000f0fb7          	lui	x31,0xf0
    41015ee4:	001f8f9b          	addiw	x31,x31,1 # f0001 <SID_EXCEP_16_stack+0x93001>
    41015ee8:	00cf9f93          	slli	x31,x31,0xc
    41015eec:	005f8f93          	addi	x31,x31,5
    41015ef0:	00000073          	ecall
    41015ef4:	0aeb5137          	lui	x2,0xaeb5
    41015ef8:	c651011b          	addiw	x2,x2,-923 # aeb4c65 <pma_region_2_size+0x6eb4c65>
    41015efc:	00d11113          	slli	x2,x2,0xd
    41015f00:	c8110113          	addi	x2,x2,-895
    41015f04:	00f11113          	slli	x2,x2,0xf
    41015f08:	00013383          	ld	x7,0(x2)
    41015f0c:	0ef5afb7          	lui	x31,0xef5a
    41015f10:	0a8f8f9b          	addiw	x31,x31,168 # ef5a0a8 <machine_csr_jump_table_flags>
    41015f14:	01f00f13          	li	x30,31
    41015f18:	01efb023          	sd	x30,0(x31)
    41015f1c:	000f0fb7          	lui	x31,0xf0
    41015f20:	001f8f9b          	addiw	x31,x31,1 # f0001 <SID_EXCEP_16_stack+0x93001>
    41015f24:	00cf9f93          	slli	x31,x31,0xc
    41015f28:	005f8f93          	addi	x31,x31,5
    41015f2c:	00000073          	ecall

0000000041015f30 <SID_EXCEP_08_passed>:
    41015f30:	00f00f9b          	addiw	x31,x0,15
    41015f34:	01cf9f93          	slli	x31,x31,0x1c
    41015f38:	001f8f93          	addi	x31,x31,1
    41015f3c:	00000073          	ecall

0000000041015f40 <SID_EXCEP_10>:
    41015f40:	0aeb5137          	lui	x2,0xaeb5
    41015f44:	c651011b          	addiw	x2,x2,-923 # aeb4c65 <pma_region_2_size+0x6eb4c65>
    41015f48:	00d11113          	slli	x2,x2,0xd
    41015f4c:	c8110113          	addi	x2,x2,-895
    41015f50:	00f11113          	slli	x2,x2,0xf
    41015f54:	0ef5afb7          	lui	x31,0xef5a
    41015f58:	0a8f8f9b          	addiw	x31,x31,168 # ef5a0a8 <machine_csr_jump_table_flags>
    41015f5c:	02000f13          	li	x30,32
    41015f60:	01efb023          	sd	x30,0(x31)
    41015f64:	000f0fb7          	lui	x31,0xf0
    41015f68:	001f8f9b          	addiw	x31,x31,1 # f0001 <SID_EXCEP_16_stack+0x93001>
    41015f6c:	00cf9f93          	slli	x31,x31,0xc
    41015f70:	005f8f93          	addi	x31,x31,5
    41015f74:	00000073          	ecall
    41015f78:	00713023          	sd	x7,0(x2)
    41015f7c:	000e1137          	lui	x2,0xe1
    41015f80:	6a91011b          	addiw	x2,x2,1705 # e16a9 <SID_EXCEP_16_stack+0x846a9>
    41015f84:	00e11113          	slli	x2,x2,0xe
    41015f88:	000012b7          	lui	x5,0x1
    41015f8c:	00510133          	add	x2,x2,x5
    41015f90:	ff017113          	andi	x2,x2,-16
    41015f94:	0a000b93          	li	x23,160
    41015f98:	000b8393          	mv	x7,x23
    41015f9c:	003393f3          	fscsr	x7,x7
    41015fa0:	0e5ea237          	lui	x4,0xe5ea
    41015fa4:	faf2021b          	addiw	x4,x4,-81 # e5e9faf <pma_region_2_size+0xa5e9faf>
    41015fa8:	00f21213          	slli	x4,x4,0xf
    41015fac:	00200e13          	li	x28,2
    41015fb0:	05c23823          	sd	x28,80(x4) # 50 <XLEN+0x10>
    41015fb4:	00000e17          	auipc	x28,0x0
    41015fb8:	048e0e13          	addi	x28,x28,72 # 41015ffc <fault_label_20>
    41015fbc:	03c23023          	sd	x28,32(x4) # 20 <SECURE_ACCESS_PROBABILITY+0x2>
    41015fc0:	00000e13          	li	x28,0
    41015fc4:	05c23023          	sd	x28,64(x4) # 40 <XLEN>
    41015fc8:	00000e13          	li	x28,0
    41015fcc:	05c23423          	sd	x28,72(x4) # 48 <XLEN+0x8>
    41015fd0:	00000e17          	auipc	x28,0x0
    41015fd4:	040e0e13          	addi	x28,x28,64 # 41016010 <excp_return_label_20>
    41015fd8:	03c23823          	sd	x28,48(x4) # 30 <SECURE_ACCESS_PROBABILITY+0x12>
    41015fdc:	00000e13          	li	x28,0
    41015fe0:	03c23c23          	sd	x28,56(x4) # 38 <SECURE_ACCESS_PROBABILITY+0x1a>
    41015fe4:	00000e13          	li	x28,0
    41015fe8:	07c23023          	sd	x28,96(x4) # 60 <XLEN+0x20>
    41015fec:	00000e13          	li	x28,0
    41015ff0:	07c23423          	sd	x28,104(x4) # 68 <XLEN+0x28>
    41015ff4:	00000e13          	li	x28,0
    41015ff8:	07c23823          	sd	x28,112(x4) # 70 <XLEN+0x30>

0000000041015ffc <fault_label_20>:
    41015ffc:	00c5f553          	fadd.s	f10,f11,f12
    41016000:	0ef5ae37          	lui	x28,0xef5a
    41016004:	008e0e1b          	addiw	x28,x28,8 # ef5a008 <failed_addr>
    41016008:	000e3503          	ld	x10,0(x28)
    4101600c:	00050067          	jr	x10

0000000041016010 <excp_return_label_20>:
    41016010:	0c000693          	li	x13,192
    41016014:	00068393          	mv	x7,x13
    41016018:	003393f3          	fscsr	x7,x7
    4101601c:	0e5ea237          	lui	x4,0xe5ea
    41016020:	faf2021b          	addiw	x4,x4,-81 # e5e9faf <pma_region_2_size+0xa5e9faf>
    41016024:	00f21213          	slli	x4,x4,0xf
    41016028:	00200e13          	li	x28,2
    4101602c:	05c23823          	sd	x28,80(x4) # 50 <XLEN+0x10>
    41016030:	00000e17          	auipc	x28,0x0
    41016034:	048e0e13          	addi	x28,x28,72 # 41016078 <fault_label_21>
    41016038:	03c23023          	sd	x28,32(x4) # 20 <SECURE_ACCESS_PROBABILITY+0x2>
    4101603c:	00000e13          	li	x28,0
    41016040:	05c23023          	sd	x28,64(x4) # 40 <XLEN>
    41016044:	00000e13          	li	x28,0
    41016048:	05c23423          	sd	x28,72(x4) # 48 <XLEN+0x8>
    4101604c:	00000e17          	auipc	x28,0x0
    41016050:	040e0e13          	addi	x28,x28,64 # 4101608c <excp_return_label_21>
    41016054:	03c23823          	sd	x28,48(x4) # 30 <SECURE_ACCESS_PROBABILITY+0x12>
    41016058:	00000e13          	li	x28,0
    4101605c:	03c23c23          	sd	x28,56(x4) # 38 <SECURE_ACCESS_PROBABILITY+0x1a>
    41016060:	00000e13          	li	x28,0
    41016064:	07c23023          	sd	x28,96(x4) # 60 <XLEN+0x20>
    41016068:	00000e13          	li	x28,0
    4101606c:	07c23423          	sd	x28,104(x4) # 68 <XLEN+0x28>
    41016070:	00000e13          	li	x28,0
    41016074:	07c23823          	sd	x28,112(x4) # 70 <XLEN+0x30>

0000000041016078 <fault_label_21>:
    41016078:	00c5f553          	fadd.s	f10,f11,f12
    4101607c:	0ef5afb7          	lui	x31,0xef5a
    41016080:	008f8f9b          	addiw	x31,x31,8 # ef5a008 <failed_addr>
    41016084:	000fb683          	ld	x13,0(x31)
    41016088:	00068067          	jr	x13

000000004101608c <excp_return_label_21>:
    4101608c:	0e000913          	li	x18,224
    41016090:	00090393          	mv	x7,x18
    41016094:	003393f3          	fscsr	x7,x7
    41016098:	0e5ea237          	lui	x4,0xe5ea
    4101609c:	faf2021b          	addiw	x4,x4,-81 # e5e9faf <pma_region_2_size+0xa5e9faf>
    410160a0:	00f21213          	slli	x4,x4,0xf
    410160a4:	00200e13          	li	x28,2
    410160a8:	05c23823          	sd	x28,80(x4) # 50 <XLEN+0x10>
    410160ac:	00000e17          	auipc	x28,0x0
    410160b0:	048e0e13          	addi	x28,x28,72 # 410160f4 <fault_label_22>
    410160b4:	03c23023          	sd	x28,32(x4) # 20 <SECURE_ACCESS_PROBABILITY+0x2>
    410160b8:	00000e13          	li	x28,0
    410160bc:	05c23023          	sd	x28,64(x4) # 40 <XLEN>
    410160c0:	00000e13          	li	x28,0
    410160c4:	05c23423          	sd	x28,72(x4) # 48 <XLEN+0x8>
    410160c8:	00000e17          	auipc	x28,0x0
    410160cc:	040e0e13          	addi	x28,x28,64 # 41016108 <excp_return_label_22>
    410160d0:	03c23823          	sd	x28,48(x4) # 30 <SECURE_ACCESS_PROBABILITY+0x12>
    410160d4:	00000e13          	li	x28,0
    410160d8:	03c23c23          	sd	x28,56(x4) # 38 <SECURE_ACCESS_PROBABILITY+0x1a>
    410160dc:	00000e13          	li	x28,0
    410160e0:	07c23023          	sd	x28,96(x4) # 60 <XLEN+0x20>
    410160e4:	00000e13          	li	x28,0
    410160e8:	07c23423          	sd	x28,104(x4) # 68 <XLEN+0x28>
    410160ec:	00000e13          	li	x28,0
    410160f0:	07c23823          	sd	x28,112(x4) # 70 <XLEN+0x30>

00000000410160f4 <fault_label_22>:
    410160f4:	00c5f553          	fadd.s	f10,f11,f12
    410160f8:	0ef5a5b7          	lui	x11,0xef5a
    410160fc:	0085859b          	addiw	x11,x11,8 # ef5a008 <failed_addr>
    41016100:	0005b903          	ld	x18,0(x11)
    41016104:	00090067          	jr	x18

0000000041016108 <excp_return_label_22>:
    41016108:	0aeb5137          	lui	x2,0xaeb5
    4101610c:	c651011b          	addiw	x2,x2,-923 # aeb4c65 <pma_region_2_size+0x6eb4c65>
    41016110:	00d11113          	slli	x2,x2,0xd
    41016114:	c8110113          	addi	x2,x2,-895
    41016118:	00f11113          	slli	x2,x2,0xf
    4101611c:	00013383          	ld	x7,0(x2)
    41016120:	0ef5afb7          	lui	x31,0xef5a
    41016124:	0a8f8f9b          	addiw	x31,x31,168 # ef5a0a8 <machine_csr_jump_table_flags>
    41016128:	02400f13          	li	x30,36
    4101612c:	01efb023          	sd	x30,0(x31)
    41016130:	000f0fb7          	lui	x31,0xf0
    41016134:	001f8f9b          	addiw	x31,x31,1 # f0001 <SID_EXCEP_16_stack+0x93001>
    41016138:	00cf9f93          	slli	x31,x31,0xc
    4101613c:	005f8f93          	addi	x31,x31,5
    41016140:	00000073          	ecall

0000000041016144 <SID_EXCEP_10_passed>:
    41016144:	00f00f9b          	addiw	x31,x0,15
    41016148:	01cf9f93          	slli	x31,x31,0x1c
    4101614c:	001f8f93          	addi	x31,x31,1
    41016150:	00000073          	ecall

0000000041016154 <SID_EXCEP_15_U>:
    41016154:	0aeb5137          	lui	x2,0xaeb5
    41016158:	c651011b          	addiw	x2,x2,-923 # aeb4c65 <pma_region_2_size+0x6eb4c65>
    4101615c:	00d11113          	slli	x2,x2,0xd
    41016160:	c8110113          	addi	x2,x2,-895
    41016164:	00f11113          	slli	x2,x2,0xf
    41016168:	0ef5afb7          	lui	x31,0xef5a
    4101616c:	0a8f8f9b          	addiw	x31,x31,168 # ef5a0a8 <machine_csr_jump_table_flags>
    41016170:	02500f13          	li	x30,37
    41016174:	01efb023          	sd	x30,0(x31)
    41016178:	000f0fb7          	lui	x31,0xf0
    4101617c:	001f8f9b          	addiw	x31,x31,1 # f0001 <SID_EXCEP_16_stack+0x93001>
    41016180:	00cf9f93          	slli	x31,x31,0xc
    41016184:	005f8f93          	addi	x31,x31,5
    41016188:	00000073          	ecall
    4101618c:	00713023          	sd	x7,0(x2)
    41016190:	0ef5afb7          	lui	x31,0xef5a
    41016194:	0a8f8f9b          	addiw	x31,x31,168 # ef5a0a8 <machine_csr_jump_table_flags>
    41016198:	02600f13          	li	x30,38
    4101619c:	01efb023          	sd	x30,0(x31)
    410161a0:	000f0fb7          	lui	x31,0xf0
    410161a4:	001f8f9b          	addiw	x31,x31,1 # f0001 <SID_EXCEP_16_stack+0x93001>
    410161a8:	00cf9f93          	slli	x31,x31,0xc
    410161ac:	005f8f93          	addi	x31,x31,5
    410161b0:	00000073          	ecall
    410161b4:	00713423          	sd	x7,8(x2)
    410161b8:	0010f137          	lui	x2,0x10f
    410161bc:	000012b7          	lui	x5,0x1
    410161c0:	00510133          	add	x2,x2,x5
    410161c4:	ff017113          	andi	x2,x2,-16
    410161c8:	00000813          	li	x16,0
    410161cc:	00080393          	mv	x7,x16
    410161d0:	0ef5afb7          	lui	x31,0xef5a
    410161d4:	0a8f8f9b          	addiw	x31,x31,168 # ef5a0a8 <machine_csr_jump_table_flags>
    410161d8:	02700f13          	li	x30,39
    410161dc:	01efb023          	sd	x30,0(x31)
    410161e0:	000f0fb7          	lui	x31,0xf0
    410161e4:	001f8f9b          	addiw	x31,x31,1 # f0001 <SID_EXCEP_16_stack+0x93001>
    410161e8:	00cf9f93          	slli	x31,x31,0xc
    410161ec:	005f8f93          	addi	x31,x31,5
    410161f0:	00000073          	ecall
    410161f4:	0e5ea237          	lui	x4,0xe5ea
    410161f8:	faf2021b          	addiw	x4,x4,-81 # e5e9faf <pma_region_2_size+0xa5e9faf>
    410161fc:	00f21213          	slli	x4,x4,0xf
    41016200:	00200e13          	li	x28,2
    41016204:	05c23823          	sd	x28,80(x4) # 50 <XLEN+0x10>
    41016208:	00000e17          	auipc	x28,0x0
    4101620c:	048e0e13          	addi	x28,x28,72 # 41016250 <fault_label_23>
    41016210:	03c23023          	sd	x28,32(x4) # 20 <SECURE_ACCESS_PROBABILITY+0x2>
    41016214:	00000e13          	li	x28,0
    41016218:	05c23023          	sd	x28,64(x4) # 40 <XLEN>
    4101621c:	00000e13          	li	x28,0
    41016220:	05c23423          	sd	x28,72(x4) # 48 <XLEN+0x8>
    41016224:	00000e17          	auipc	x28,0x0
    41016228:	044e0e13          	addi	x28,x28,68 # 41016268 <excp_return_label_23>
    4101622c:	03c23823          	sd	x28,48(x4) # 30 <SECURE_ACCESS_PROBABILITY+0x12>
    41016230:	00000e13          	li	x28,0
    41016234:	03c23c23          	sd	x28,56(x4) # 38 <SECURE_ACCESS_PROBABILITY+0x1a>
    41016238:	00000e13          	li	x28,0
    4101623c:	07c23023          	sd	x28,96(x4) # 60 <XLEN+0x20>
    41016240:	00000e13          	li	x28,0
    41016244:	07c23423          	sd	x28,104(x4) # 68 <XLEN+0x28>
    41016248:	00000e13          	li	x28,0
    4101624c:	07c23823          	sd	x28,112(x4) # 70 <XLEN+0x30>

0000000041016250 <fault_label_23>:
    41016250:	c00023f3          	rdcycle	x7
    41016254:	00038f93          	mv	x31,x7
    41016258:	0ef5af37          	lui	x30,0xef5a
    4101625c:	008f0f1b          	addiw	x30,x30,8 # ef5a008 <failed_addr>
    41016260:	000f3c03          	ld	x24,0(x30)
    41016264:	000c0067          	jr	x24 # 200000 <hart_stack_0_end+0xd4000>

0000000041016268 <excp_return_label_23>:
    41016268:	0e5ea237          	lui	x4,0xe5ea
    4101626c:	faf2021b          	addiw	x4,x4,-81 # e5e9faf <pma_region_2_size+0xa5e9faf>
    41016270:	00f21213          	slli	x4,x4,0xf
    41016274:	00200e13          	li	x28,2
    41016278:	05c23823          	sd	x28,80(x4) # 50 <XLEN+0x10>
    4101627c:	00000e17          	auipc	x28,0x0
    41016280:	048e0e13          	addi	x28,x28,72 # 410162c4 <fault_label_24>
    41016284:	03c23023          	sd	x28,32(x4) # 20 <SECURE_ACCESS_PROBABILITY+0x2>
    41016288:	00000e13          	li	x28,0
    4101628c:	05c23023          	sd	x28,64(x4) # 40 <XLEN>
    41016290:	00000e13          	li	x28,0
    41016294:	05c23423          	sd	x28,72(x4) # 48 <XLEN+0x8>
    41016298:	00000e17          	auipc	x28,0x0
    4101629c:	044e0e13          	addi	x28,x28,68 # 410162dc <excp_return_label_24>
    410162a0:	03c23823          	sd	x28,48(x4) # 30 <SECURE_ACCESS_PROBABILITY+0x12>
    410162a4:	00000e13          	li	x28,0
    410162a8:	03c23c23          	sd	x28,56(x4) # 38 <SECURE_ACCESS_PROBABILITY+0x1a>
    410162ac:	00000e13          	li	x28,0
    410162b0:	07c23023          	sd	x28,96(x4) # 60 <XLEN+0x20>
    410162b4:	00000e13          	li	x28,0
    410162b8:	07c23423          	sd	x28,104(x4) # 68 <XLEN+0x28>
    410162bc:	00000e13          	li	x28,0
    410162c0:	07c23823          	sd	x28,112(x4) # 70 <XLEN+0x30>

00000000410162c4 <fault_label_24>:
    410162c4:	c01023f3          	rdtime	x7
    410162c8:	00038a93          	mv	x21,x7
    410162cc:	0ef5ad37          	lui	x26,0xef5a
    410162d0:	008d0d1b          	addiw	x26,x26,8 # ef5a008 <failed_addr>
    410162d4:	000d3f03          	ld	x30,0(x26)
    410162d8:	000f0067          	jr	x30

00000000410162dc <excp_return_label_24>:
    410162dc:	0e5ea237          	lui	x4,0xe5ea
    410162e0:	faf2021b          	addiw	x4,x4,-81 # e5e9faf <pma_region_2_size+0xa5e9faf>
    410162e4:	00f21213          	slli	x4,x4,0xf
    410162e8:	00200e13          	li	x28,2
    410162ec:	05c23823          	sd	x28,80(x4) # 50 <XLEN+0x10>
    410162f0:	00000e17          	auipc	x28,0x0
    410162f4:	048e0e13          	addi	x28,x28,72 # 41016338 <fault_label_25>
    410162f8:	03c23023          	sd	x28,32(x4) # 20 <SECURE_ACCESS_PROBABILITY+0x2>
    410162fc:	00000e13          	li	x28,0
    41016300:	05c23023          	sd	x28,64(x4) # 40 <XLEN>
    41016304:	00000e13          	li	x28,0
    41016308:	05c23423          	sd	x28,72(x4) # 48 <XLEN+0x8>
    4101630c:	00000e17          	auipc	x28,0x0
    41016310:	044e0e13          	addi	x28,x28,68 # 41016350 <excp_return_label_25>
    41016314:	03c23823          	sd	x28,48(x4) # 30 <SECURE_ACCESS_PROBABILITY+0x12>
    41016318:	00000e13          	li	x28,0
    4101631c:	03c23c23          	sd	x28,56(x4) # 38 <SECURE_ACCESS_PROBABILITY+0x1a>
    41016320:	00000e13          	li	x28,0
    41016324:	07c23023          	sd	x28,96(x4) # 60 <XLEN+0x20>
    41016328:	00000e13          	li	x28,0
    4101632c:	07c23423          	sd	x28,104(x4) # 68 <XLEN+0x28>
    41016330:	00000e13          	li	x28,0
    41016334:	07c23823          	sd	x28,112(x4) # 70 <XLEN+0x30>

0000000041016338 <fault_label_25>:
    41016338:	c02023f3          	rdinstret	x7
    4101633c:	00038693          	mv	x13,x7
    41016340:	0ef5a937          	lui	x18,0xef5a
    41016344:	0089091b          	addiw	x18,x18,8 # ef5a008 <failed_addr>
    41016348:	00093983          	ld	x19,0(x18)
    4101634c:	00098067          	jr	x19

0000000041016350 <excp_return_label_25>:
    41016350:	fff00c13          	li	x24,-1
    41016354:	000c0393          	mv	x7,x24
    41016358:	0ef5afb7          	lui	x31,0xef5a
    4101635c:	0a8f8f9b          	addiw	x31,x31,168 # ef5a0a8 <machine_csr_jump_table_flags>
    41016360:	02700f13          	li	x30,39
    41016364:	01efb023          	sd	x30,0(x31)
    41016368:	000f0fb7          	lui	x31,0xf0
    4101636c:	001f8f9b          	addiw	x31,x31,1 # f0001 <SID_EXCEP_16_stack+0x93001>
    41016370:	00cf9f93          	slli	x31,x31,0xc
    41016374:	005f8f93          	addi	x31,x31,5
    41016378:	00000073          	ecall
    4101637c:	00000e93          	li	x29,0
    41016380:	000e8393          	mv	x7,x29
    41016384:	0ef5afb7          	lui	x31,0xef5a
    41016388:	0b0f8f9b          	addiw	x31,x31,176 # ef5a0b0 <super_csr_jump_table_flags>
    4101638c:	02c00f13          	li	x30,44
    41016390:	01efb023          	sd	x30,0(x31)
    41016394:	000f0fb7          	lui	x31,0xf0
    41016398:	001f8f9b          	addiw	x31,x31,1 # f0001 <SID_EXCEP_16_stack+0x93001>
    4101639c:	00cf9f93          	slli	x31,x31,0xc
    410163a0:	006f8f93          	addi	x31,x31,6
    410163a4:	00000073          	ecall
    410163a8:	0e5ea237          	lui	x4,0xe5ea
    410163ac:	faf2021b          	addiw	x4,x4,-81 # e5e9faf <pma_region_2_size+0xa5e9faf>
    410163b0:	00f21213          	slli	x4,x4,0xf
    410163b4:	00200e13          	li	x28,2
    410163b8:	05c23823          	sd	x28,80(x4) # 50 <XLEN+0x10>
    410163bc:	00000e17          	auipc	x28,0x0
    410163c0:	048e0e13          	addi	x28,x28,72 # 41016404 <fault_label_26>
    410163c4:	03c23023          	sd	x28,32(x4) # 20 <SECURE_ACCESS_PROBABILITY+0x2>
    410163c8:	00000e13          	li	x28,0
    410163cc:	05c23023          	sd	x28,64(x4) # 40 <XLEN>
    410163d0:	00000e13          	li	x28,0
    410163d4:	05c23423          	sd	x28,72(x4) # 48 <XLEN+0x8>
    410163d8:	00000e17          	auipc	x28,0x0
    410163dc:	044e0e13          	addi	x28,x28,68 # 4101641c <excp_return_label_26>
    410163e0:	03c23823          	sd	x28,48(x4) # 30 <SECURE_ACCESS_PROBABILITY+0x12>
    410163e4:	00000e13          	li	x28,0
    410163e8:	03c23c23          	sd	x28,56(x4) # 38 <SECURE_ACCESS_PROBABILITY+0x1a>
    410163ec:	00000e13          	li	x28,0
    410163f0:	07c23023          	sd	x28,96(x4) # 60 <XLEN+0x20>
    410163f4:	00000e13          	li	x28,0
    410163f8:	07c23423          	sd	x28,104(x4) # 68 <XLEN+0x28>
    410163fc:	00000e13          	li	x28,0
    41016400:	07c23823          	sd	x28,112(x4) # 70 <XLEN+0x30>

0000000041016404 <fault_label_26>:
    41016404:	c00023f3          	rdcycle	x7
    41016408:	00038f93          	mv	x31,x7
    4101640c:	0ef5acb7          	lui	x25,0xef5a
    41016410:	008c8c9b          	addiw	x25,x25,8 # ef5a008 <failed_addr>
    41016414:	000cb683          	ld	x13,0(x25)
    41016418:	00068067          	jr	x13

000000004101641c <excp_return_label_26>:
    4101641c:	0aeb5137          	lui	x2,0xaeb5
    41016420:	c651011b          	addiw	x2,x2,-923 # aeb4c65 <pma_region_2_size+0x6eb4c65>
    41016424:	00d11113          	slli	x2,x2,0xd
    41016428:	c8110113          	addi	x2,x2,-895
    4101642c:	00f11113          	slli	x2,x2,0xf
    41016430:	00013383          	ld	x7,0(x2)
    41016434:	0ef5afb7          	lui	x31,0xef5a
    41016438:	0a8f8f9b          	addiw	x31,x31,168 # ef5a0a8 <machine_csr_jump_table_flags>
    4101643c:	02e00f13          	li	x30,46
    41016440:	01efb023          	sd	x30,0(x31)
    41016444:	000f0fb7          	lui	x31,0xf0
    41016448:	001f8f9b          	addiw	x31,x31,1 # f0001 <SID_EXCEP_16_stack+0x93001>
    4101644c:	00cf9f93          	slli	x31,x31,0xc
    41016450:	005f8f93          	addi	x31,x31,5
    41016454:	00000073          	ecall
    41016458:	00813383          	ld	x7,8(x2)
    4101645c:	0ef5afb7          	lui	x31,0xef5a
    41016460:	0a8f8f9b          	addiw	x31,x31,168 # ef5a0a8 <machine_csr_jump_table_flags>
    41016464:	02f00f13          	li	x30,47
    41016468:	01efb023          	sd	x30,0(x31)
    4101646c:	000f0fb7          	lui	x31,0xf0
    41016470:	001f8f9b          	addiw	x31,x31,1 # f0001 <SID_EXCEP_16_stack+0x93001>
    41016474:	00cf9f93          	slli	x31,x31,0xc
    41016478:	005f8f93          	addi	x31,x31,5
    4101647c:	00000073          	ecall

0000000041016480 <SID_EXCEP_15_U_passed>:
    41016480:	00f00f9b          	addiw	x31,x0,15
    41016484:	01cf9f93          	slli	x31,x31,0x1c
    41016488:	001f8f93          	addi	x31,x31,1
    4101648c:	00000073          	ecall

0000000041016490 <SID_EXCEP_16>:
    41016490:	0005d137          	lui	x2,0x5d
    41016494:	000012b7          	lui	x5,0x1
    41016498:	00510133          	add	x2,x2,x5
    4101649c:	ff017113          	andi	x2,x2,-16
    410164a0:	0e5ea237          	lui	x4,0xe5ea
    410164a4:	faf2021b          	addiw	x4,x4,-81 # e5e9faf <pma_region_2_size+0xa5e9faf>
    410164a8:	00f21213          	slli	x4,x4,0xf
    410164ac:	00200e13          	li	x28,2
    410164b0:	05c23823          	sd	x28,80(x4) # 50 <XLEN+0x10>
    410164b4:	00000e17          	auipc	x28,0x0
    410164b8:	054e0e13          	addi	x28,x28,84 # 41016508 <fault_label_27>
    410164bc:	03c23023          	sd	x28,32(x4) # 20 <SECURE_ACCESS_PROBABILITY+0x2>
    410164c0:	000c0e37          	lui	x28,0xc0
    410164c4:	001e0e1b          	addiw	x28,x28,1 # c0001 <SID_EXCEP_16_stack+0x63001>
    410164c8:	00ce1e13          	slli	x28,x28,0xc
    410164cc:	073e0e13          	addi	x28,x28,115
    410164d0:	05c23023          	sd	x28,64(x4) # 40 <XLEN>
    410164d4:	00000e13          	li	x28,0
    410164d8:	05c23423          	sd	x28,72(x4) # 48 <XLEN+0x8>
    410164dc:	00000e17          	auipc	x28,0x0
    410164e0:	040e0e13          	addi	x28,x28,64 # 4101651c <SID_EXCEP_16_passed>
    410164e4:	03c23823          	sd	x28,48(x4) # 30 <SECURE_ACCESS_PROBABILITY+0x12>
    410164e8:	00000e13          	li	x28,0
    410164ec:	03c23c23          	sd	x28,56(x4) # 38 <SECURE_ACCESS_PROBABILITY+0x1a>
    410164f0:	00000e13          	li	x28,0
    410164f4:	07c23023          	sd	x28,96(x4) # 60 <XLEN+0x20>
    410164f8:	00000e13          	li	x28,0
    410164fc:	07c23423          	sd	x28,104(x4) # 68 <XLEN+0x28>
    41016500:	00000e13          	li	x28,0
    41016504:	07c23823          	sd	x28,112(x4) # 70 <XLEN+0x30>

0000000041016508 <fault_label_27>:
    41016508:	c0001073          	unimp
    4101650c:	0ef5a3b7          	lui	x7,0xef5a
    41016510:	0083839b          	addiw	x7,x7,8 # ef5a008 <failed_addr>
    41016514:	0003bb03          	ld	x22,0(x7)
    41016518:	000b0067          	jr	x22

000000004101651c <SID_EXCEP_16_passed>:
    4101651c:	00f00f9b          	addiw	x31,x0,15
    41016520:	01cf9f93          	slli	x31,x31,0x1c
    41016524:	001f8f93          	addi	x31,x31,1
    41016528:	00000073          	ecall

000000004101652c <SID_EXCEP_17>:
    4101652c:	03efe137          	lui	x2,0x3efe
    41016530:	000012b7          	lui	x5,0x1
    41016534:	00510133          	add	x2,x2,x5
    41016538:	ff017113          	andi	x2,x2,-16
    4101653c:	0e5ea237          	lui	x4,0xe5ea
    41016540:	faf2021b          	addiw	x4,x4,-81 # e5e9faf <pma_region_2_size+0xa5e9faf>
    41016544:	00f21213          	slli	x4,x4,0xf
    41016548:	00800e13          	li	x28,8
    4101654c:	05c23823          	sd	x28,80(x4) # 50 <XLEN+0x10>
    41016550:	00000e17          	auipc	x28,0x0
    41016554:	048e0e13          	addi	x28,x28,72 # 41016598 <fault_label_28>
    41016558:	03c23023          	sd	x28,32(x4) # 20 <SECURE_ACCESS_PROBABILITY+0x2>
    4101655c:	00000e13          	li	x28,0
    41016560:	05c23023          	sd	x28,64(x4) # 40 <XLEN>
    41016564:	00000e13          	li	x28,0
    41016568:	05c23423          	sd	x28,72(x4) # 48 <XLEN+0x8>
    4101656c:	00000e17          	auipc	x28,0x0
    41016570:	040e0e13          	addi	x28,x28,64 # 410165ac <SID_EXCEP_17_passed>
    41016574:	03c23823          	sd	x28,48(x4) # 30 <SECURE_ACCESS_PROBABILITY+0x12>
    41016578:	00000e13          	li	x28,0
    4101657c:	03c23c23          	sd	x28,56(x4) # 38 <SECURE_ACCESS_PROBABILITY+0x1a>
    41016580:	00000e13          	li	x28,0
    41016584:	07c23023          	sd	x28,96(x4) # 60 <XLEN+0x20>
    41016588:	00000e13          	li	x28,0
    4101658c:	07c23423          	sd	x28,104(x4) # 68 <XLEN+0x28>
    41016590:	00000e13          	li	x28,0
    41016594:	07c23823          	sd	x28,112(x4) # 70 <XLEN+0x30>

0000000041016598 <fault_label_28>:
    41016598:	00000073          	ecall
    4101659c:	0ef5a6b7          	lui	x13,0xef5a
    410165a0:	0086869b          	addiw	x13,x13,8 # ef5a008 <failed_addr>
    410165a4:	0006bf03          	ld	x30,0(x13)
    410165a8:	000f0067          	jr	x30

00000000410165ac <SID_EXCEP_17_passed>:
    410165ac:	00f00f9b          	addiw	x31,x0,15
    410165b0:	01cf9f93          	slli	x31,x31,0x1c
    410165b4:	001f8f93          	addi	x31,x31,1
    410165b8:	00000073          	ecall

00000000410165bc <SID_EXCEP_35_U>:
    410165bc:	0aeb5137          	lui	x2,0xaeb5
    410165c0:	c651011b          	addiw	x2,x2,-923 # aeb4c65 <pma_region_2_size+0x6eb4c65>
    410165c4:	00d11113          	slli	x2,x2,0xd
    410165c8:	c8110113          	addi	x2,x2,-895
    410165cc:	00f11113          	slli	x2,x2,0xf
    410165d0:	0ef5afb7          	lui	x31,0xef5a
    410165d4:	0a8f8f9b          	addiw	x31,x31,168 # ef5a0a8 <machine_csr_jump_table_flags>
    410165d8:	02500f13          	li	x30,37
    410165dc:	01efb023          	sd	x30,0(x31)
    410165e0:	000f0fb7          	lui	x31,0xf0
    410165e4:	001f8f9b          	addiw	x31,x31,1 # f0001 <SID_EXCEP_16_stack+0x93001>
    410165e8:	00cf9f93          	slli	x31,x31,0xc
    410165ec:	005f8f93          	addi	x31,x31,5
    410165f0:	00000073          	ecall
    410165f4:	00713023          	sd	x7,0(x2)
    410165f8:	0ef5afb7          	lui	x31,0xef5a
    410165fc:	0a8f8f9b          	addiw	x31,x31,168 # ef5a0a8 <machine_csr_jump_table_flags>
    41016600:	02600f13          	li	x30,38
    41016604:	01efb023          	sd	x30,0(x31)
    41016608:	000f0fb7          	lui	x31,0xf0
    4101660c:	001f8f9b          	addiw	x31,x31,1 # f0001 <SID_EXCEP_16_stack+0x93001>
    41016610:	00cf9f93          	slli	x31,x31,0xc
    41016614:	005f8f93          	addi	x31,x31,5
    41016618:	00000073          	ecall
    4101661c:	00713423          	sd	x7,8(x2)
    41016620:	0797e137          	lui	x2,0x797e
    41016624:	1071011b          	addiw	x2,x2,263 # 797e107 <pma_region_2_size+0x397e107>
    41016628:	00c11113          	slli	x2,x2,0xc
    4101662c:	000012b7          	lui	x5,0x1
    41016630:	00510133          	add	x2,x2,x5
    41016634:	ff017113          	andi	x2,x2,-16
    41016638:	00100f93          	li	x31,1
    4101663c:	000f8393          	mv	x7,x31
    41016640:	0ef5afb7          	lui	x31,0xef5a
    41016644:	0a8f8f9b          	addiw	x31,x31,168 # ef5a0a8 <machine_csr_jump_table_flags>
    41016648:	03200f13          	li	x30,50
    4101664c:	01efb023          	sd	x30,0(x31)
    41016650:	000f0fb7          	lui	x31,0xf0
    41016654:	001f8f9b          	addiw	x31,x31,1 # f0001 <SID_EXCEP_16_stack+0x93001>
    41016658:	00cf9f93          	slli	x31,x31,0xc
    4101665c:	005f8f93          	addi	x31,x31,5
    41016660:	00000073          	ecall
    41016664:	00100993          	li	x19,1
    41016668:	00098393          	mv	x7,x19
    4101666c:	0ef5afb7          	lui	x31,0xef5a
    41016670:	0b0f8f9b          	addiw	x31,x31,176 # ef5a0b0 <super_csr_jump_table_flags>
    41016674:	03300f13          	li	x30,51
    41016678:	01efb023          	sd	x30,0(x31)
    4101667c:	000f0fb7          	lui	x31,0xf0
    41016680:	001f8f9b          	addiw	x31,x31,1 # f0001 <SID_EXCEP_16_stack+0x93001>
    41016684:	00cf9f93          	slli	x31,x31,0xc
    41016688:	006f8f93          	addi	x31,x31,6
    4101668c:	00000073          	ecall
    41016690:	c0002af3          	rdcycle	x21
    41016694:	c0003f73          	csrrc	x30,cycle,x0
    41016698:	c0006673          	csrrsi	x12,cycle,0
    4101669c:	c0007a73          	csrrci	x20,cycle,0
    410166a0:	0aeb5137          	lui	x2,0xaeb5
    410166a4:	c651011b          	addiw	x2,x2,-923 # aeb4c65 <pma_region_2_size+0x6eb4c65>
    410166a8:	00d11113          	slli	x2,x2,0xd
    410166ac:	c8110113          	addi	x2,x2,-895
    410166b0:	00f11113          	slli	x2,x2,0xf
    410166b4:	00013383          	ld	x7,0(x2)
    410166b8:	0ef5afb7          	lui	x31,0xef5a
    410166bc:	0a8f8f9b          	addiw	x31,x31,168 # ef5a0a8 <machine_csr_jump_table_flags>
    410166c0:	02e00f13          	li	x30,46
    410166c4:	01efb023          	sd	x30,0(x31)
    410166c8:	000f0fb7          	lui	x31,0xf0
    410166cc:	001f8f9b          	addiw	x31,x31,1 # f0001 <SID_EXCEP_16_stack+0x93001>
    410166d0:	00cf9f93          	slli	x31,x31,0xc
    410166d4:	005f8f93          	addi	x31,x31,5
    410166d8:	00000073          	ecall
    410166dc:	00813383          	ld	x7,8(x2)
    410166e0:	0ef5afb7          	lui	x31,0xef5a
    410166e4:	0a8f8f9b          	addiw	x31,x31,168 # ef5a0a8 <machine_csr_jump_table_flags>
    410166e8:	02f00f13          	li	x30,47
    410166ec:	01efb023          	sd	x30,0(x31)
    410166f0:	000f0fb7          	lui	x31,0xf0
    410166f4:	001f8f9b          	addiw	x31,x31,1 # f0001 <SID_EXCEP_16_stack+0x93001>
    410166f8:	00cf9f93          	slli	x31,x31,0xc
    410166fc:	005f8f93          	addi	x31,x31,5
    41016700:	00000073          	ecall

0000000041016704 <SID_EXCEP_35_U_passed>:
    41016704:	00f00f9b          	addiw	x31,x0,15
    41016708:	01cf9f93          	slli	x31,x31,0x1c
    4101670c:	001f8f93          	addi	x31,x31,1
    41016710:	00000073          	ecall

0000000041016714 <SID_EXCEP_37>:
    41016714:	00125137          	lui	x2,0x125
    41016718:	2811011b          	addiw	x2,x2,641 # 125281 <SID_EXCEP_15_U_stack+0x16281>
    4101671c:	00c11113          	slli	x2,x2,0xc
    41016720:	000012b7          	lui	x5,0x1
    41016724:	00510133          	add	x2,x2,x5
    41016728:	ff017113          	andi	x2,x2,-16
    4101672c:	00000b97          	auipc	x23,0x0
    41016730:	00db8e93          	addi	x29,x23,13 # 41016739 <SID_EXCEP_37+0x25>
    41016734:	000e8be7          	jalr	x23,x29
    41016738:	00000013          	nop

000000004101673c <SID_EXCEP_37_passed>:
    4101673c:	00f00f9b          	addiw	x31,x0,15
    41016740:	01cf9f93          	slli	x31,x31,0x1c
    41016744:	001f8f93          	addi	x31,x31,1
    41016748:	00000073          	ecall

000000004101674c <SID_EXCEP_38>:
    4101674c:	0aeb5137          	lui	x2,0xaeb5
    41016750:	c651011b          	addiw	x2,x2,-923 # aeb4c65 <pma_region_2_size+0x6eb4c65>
    41016754:	00d11113          	slli	x2,x2,0xd
    41016758:	c8110113          	addi	x2,x2,-895
    4101675c:	00f11113          	slli	x2,x2,0xf
    41016760:	0ef5afb7          	lui	x31,0xef5a
    41016764:	0a8f8f9b          	addiw	x31,x31,168 # ef5a0a8 <machine_csr_jump_table_flags>
    41016768:	02000f13          	li	x30,32
    4101676c:	01efb023          	sd	x30,0(x31)
    41016770:	000f0fb7          	lui	x31,0xf0
    41016774:	001f8f9b          	addiw	x31,x31,1 # f0001 <SID_EXCEP_16_stack+0x93001>
    41016778:	00cf9f93          	slli	x31,x31,0xc
    4101677c:	005f8f93          	addi	x31,x31,5
    41016780:	00000073          	ecall
    41016784:	00713023          	sd	x7,0(x2)
    41016788:	214c7137          	lui	x2,0x214c7
    4101678c:	b571011b          	addiw	x2,x2,-1193 # 214c6b57 <__section_os_data_1+0x1256bb57>
    41016790:	00c11113          	slli	x2,x2,0xc
    41016794:	000012b7          	lui	x5,0x1
    41016798:	00510133          	add	x2,x2,x5
    4101679c:	ff017113          	andi	x2,x2,-16
    410167a0:	0a000d93          	li	x27,160
    410167a4:	000d8393          	mv	x7,x27
    410167a8:	003393f3          	fscsr	x7,x7
    410167ac:	00c58553          	fadd.s	f10,f11,f12,rne
    410167b0:	0c000f93          	li	x31,192
    410167b4:	000f8393          	mv	x7,x31
    410167b8:	003393f3          	fscsr	x7,x7
    410167bc:	10c59553          	fmul.s	f10,f11,f12,rtz
    410167c0:	0e000913          	li	x18,224
    410167c4:	00090393          	mv	x7,x18
    410167c8:	003393f3          	fscsr	x7,x7
    410167cc:	08c5a553          	fsub.s	f10,f11,f12,rdn
    410167d0:	0aeb5137          	lui	x2,0xaeb5
    410167d4:	c651011b          	addiw	x2,x2,-923 # aeb4c65 <pma_region_2_size+0x6eb4c65>
    410167d8:	00d11113          	slli	x2,x2,0xd
    410167dc:	c8110113          	addi	x2,x2,-895
    410167e0:	00f11113          	slli	x2,x2,0xf
    410167e4:	00013383          	ld	x7,0(x2)
    410167e8:	0ef5afb7          	lui	x31,0xef5a
    410167ec:	0a8f8f9b          	addiw	x31,x31,168 # ef5a0a8 <machine_csr_jump_table_flags>
    410167f0:	02400f13          	li	x30,36
    410167f4:	01efb023          	sd	x30,0(x31)
    410167f8:	000f0fb7          	lui	x31,0xf0
    410167fc:	001f8f9b          	addiw	x31,x31,1 # f0001 <SID_EXCEP_16_stack+0x93001>
    41016800:	00cf9f93          	slli	x31,x31,0xc
    41016804:	005f8f93          	addi	x31,x31,5
    41016808:	00000073          	ecall

000000004101680c <SID_EXCEP_38_passed>:
    4101680c:	00f00f9b          	addiw	x31,x0,15
    41016810:	01cf9f93          	slli	x31,x31,0x1c
    41016814:	001f8f93          	addi	x31,x31,1
    41016818:	00000073          	ecall

000000004101681c <test_cleanup>:
    4101681c:	00f00f9b          	addiw	x31,x0,15
    41016820:	01cf9f93          	slli	x31,x31,0x1c
    41016824:	001f8f93          	addi	x31,x31,1
    41016828:	00000073          	ecall

000000004101682c <local_test_failed>:
    4101682c:	00f00f9b          	addiw	x31,x0,15
    41016830:	01cf9f93          	slli	x31,x31,0x1c
    41016834:	002f8f93          	addi	x31,x31,2
    41016838:	00000073          	ecall

Disassembly of section .csr_machine_0:

0000000041215000 <csr_access_mstatus_machine_key_31_write-0xb0>:
    41215000:	42b46fb7          	lui	x31,0x42b46
    41215004:	0a8f8f9b          	addiw	x31,x31,168 # 42b460a8 <machine_csr_jump_table_flags_pa>
    41215008:	000fbf83          	ld	x31,0(x31)
    4121500c:	01f00293          	li	x5,31
    41215010:	0a5f8063          	beq	x31,x5,412150b0 <csr_access_mstatus_machine_key_31_write>
    41215014:	00100293          	li	x5,1
    41215018:	0a5f8063          	beq	x31,x5,412150b8 <csr_access_mstatus_machine_key_1_read>
    4121501c:	01900293          	li	x5,25
    41215020:	0a5f8063          	beq	x31,x5,412150c0 <csr_access_mstatus_machine_key_25_read>
    41215024:	01b00293          	li	x5,27
    41215028:	0a5f8063          	beq	x31,x5,412150c8 <csr_access_mstatus_machine_key_27_set>
    4121502c:	01a00293          	li	x5,26
    41215030:	0a5f8063          	beq	x31,x5,412150d0 <csr_access_mstatus_machine_key_26_clear>
    41215034:	00200293          	li	x5,2
    41215038:	0a5f8063          	beq	x31,x5,412150d8 <csr_access_mvendorid_machine_key_2_write>
    4121503c:	00e00293          	li	x5,14
    41215040:	0a5f8063          	beq	x31,x5,412150e0 <csr_access_misa_machine_key_14_write>
    41215044:	00500293          	li	x5,5
    41215048:	0a5f8063          	beq	x31,x5,412150e8 <csr_access_misa_machine_key_5_read>
    4121504c:	00700293          	li	x5,7
    41215050:	0a5f8063          	beq	x31,x5,412150f0 <csr_access_misa_machine_key_7_set>
    41215054:	00600293          	li	x5,6
    41215058:	0a5f8063          	beq	x31,x5,412150f8 <csr_access_misa_machine_key_6_clear>
    4121505c:	02400293          	li	x5,36
    41215060:	0a5f8063          	beq	x31,x5,41215100 <csr_access_fcsr_user_key_36_write>
    41215064:	02000293          	li	x5,32
    41215068:	0a5f8063          	beq	x31,x5,41215108 <csr_access_fcsr_user_key_32_read>
    4121506c:	02700293          	li	x5,39
    41215070:	0a5f8063          	beq	x31,x5,41215110 <csr_access_mcounteren_machine_key_39_write>
    41215074:	02e00293          	li	x5,46
    41215078:	0a5f8063          	beq	x31,x5,41215118 <csr_access_mcounteren_machine_key_46_write>
    4121507c:	02500293          	li	x5,37
    41215080:	0a5f8063          	beq	x31,x5,41215120 <csr_access_mcounteren_machine_key_37_read>
    41215084:	03200293          	li	x5,50
    41215088:	0a5f8063          	beq	x31,x5,41215128 <csr_access_mcounteren_machine_key_50_set>
    4121508c:	02f00293          	li	x5,47
    41215090:	0a5f8063          	beq	x31,x5,41215130 <csr_access_scounteren_supervisor_key_47_write>
    41215094:	02600293          	li	x5,38
    41215098:	0a5f8063          	beq	x31,x5,41215138 <csr_access_scounteren_supervisor_key_38_read>
    4121509c:	03700293          	li	x5,55
    412150a0:	0a5f8063          	beq	x31,x5,41215140 <csr_access_mtvec_machine_key_55_set>
    412150a4:	03600293          	li	x5,54
    412150a8:	0a5f8063          	beq	x31,x5,41215148 <csr_access_mtvec_machine_key_54_clear>
    412150ac:	0a40006f          	j	41215150 <end_machine_label>

00000000412150b0 <csr_access_mstatus_machine_key_31_write>:
    412150b0:	30039073          	csrw	mstatus,x7
    412150b4:	09c0006f          	j	41215150 <end_machine_label>

00000000412150b8 <csr_access_mstatus_machine_key_1_read>:
    412150b8:	300023f3          	csrr	x7,mstatus
    412150bc:	0940006f          	j	41215150 <end_machine_label>

00000000412150c0 <csr_access_mstatus_machine_key_25_read>:
    412150c0:	300023f3          	csrr	x7,mstatus
    412150c4:	08c0006f          	j	41215150 <end_machine_label>

00000000412150c8 <csr_access_mstatus_machine_key_27_set>:
    412150c8:	3003a073          	csrs	mstatus,x7
    412150cc:	0840006f          	j	41215150 <end_machine_label>

00000000412150d0 <csr_access_mstatus_machine_key_26_clear>:
    412150d0:	3003b073          	csrc	mstatus,x7
    412150d4:	07c0006f          	j	41215150 <end_machine_label>

00000000412150d8 <csr_access_mvendorid_machine_key_2_write>:
    412150d8:	f1139073          	csrw	mvendorid,x7
    412150dc:	0740006f          	j	41215150 <end_machine_label>

00000000412150e0 <csr_access_misa_machine_key_14_write>:
    412150e0:	30139073          	csrw	misa,x7
    412150e4:	06c0006f          	j	41215150 <end_machine_label>

00000000412150e8 <csr_access_misa_machine_key_5_read>:
    412150e8:	301023f3          	csrr	x7,misa
    412150ec:	0640006f          	j	41215150 <end_machine_label>

00000000412150f0 <csr_access_misa_machine_key_7_set>:
    412150f0:	3013a073          	csrs	misa,x7
    412150f4:	05c0006f          	j	41215150 <end_machine_label>

00000000412150f8 <csr_access_misa_machine_key_6_clear>:
    412150f8:	3013b073          	csrc	misa,x7
    412150fc:	0540006f          	j	41215150 <end_machine_label>

0000000041215100 <csr_access_fcsr_user_key_36_write>:
    41215100:	00339073          	fscsr	x7
    41215104:	04c0006f          	j	41215150 <end_machine_label>

0000000041215108 <csr_access_fcsr_user_key_32_read>:
    41215108:	003023f3          	frcsr	x7
    4121510c:	0440006f          	j	41215150 <end_machine_label>

0000000041215110 <csr_access_mcounteren_machine_key_39_write>:
    41215110:	30639073          	csrw	mcounteren,x7
    41215114:	03c0006f          	j	41215150 <end_machine_label>

0000000041215118 <csr_access_mcounteren_machine_key_46_write>:
    41215118:	30639073          	csrw	mcounteren,x7
    4121511c:	0340006f          	j	41215150 <end_machine_label>

0000000041215120 <csr_access_mcounteren_machine_key_37_read>:
    41215120:	306023f3          	csrr	x7,mcounteren
    41215124:	02c0006f          	j	41215150 <end_machine_label>

0000000041215128 <csr_access_mcounteren_machine_key_50_set>:
    41215128:	3063a073          	csrs	mcounteren,x7
    4121512c:	0240006f          	j	41215150 <end_machine_label>

0000000041215130 <csr_access_scounteren_supervisor_key_47_write>:
    41215130:	10639073          	csrw	scounteren,x7
    41215134:	01c0006f          	j	41215150 <end_machine_label>

0000000041215138 <csr_access_scounteren_supervisor_key_38_read>:
    41215138:	106023f3          	csrr	x7,scounteren
    4121513c:	0140006f          	j	41215150 <end_machine_label>

0000000041215140 <csr_access_mtvec_machine_key_55_set>:
    41215140:	3053a073          	csrs	mtvec,x7
    41215144:	00c0006f          	j	41215150 <end_machine_label>

0000000041215148 <csr_access_mtvec_machine_key_54_clear>:
    41215148:	3053b073          	csrc	mtvec,x7
    4121514c:	0040006f          	j	41215150 <end_machine_label>

0000000041215150 <end_machine_label>:
    41215150:	000f0fb7          	lui	x31,0xf0
    41215154:	001f8f9b          	addiw	x31,x31,1 # f0001 <SID_EXCEP_16_stack+0x93001>
    41215158:	00cf9f93          	slli	x31,x31,0xc
    4121515c:	004f8f93          	addi	x31,x31,4
    41215160:	00000073          	ecall

Disassembly of section .csr_super_0:

0000000041216000 <csr_access_vl_supervisor_key_29_read-0x48>:
    41216000:	0ef5afb7          	lui	x31,0xef5a
    41216004:	0b0f8f9b          	addiw	x31,x31,176 # ef5a0b0 <super_csr_jump_table_flags>
    41216008:	000fbf83          	ld	x31,0(x31)
    4121600c:	01d00293          	li	x5,29
    41216010:	025f8c63          	beq	x31,x5,41216048 <csr_access_vl_supervisor_key_29_read>
    41216014:	02c00293          	li	x5,44
    41216018:	025f8c63          	beq	x31,x5,41216050 <csr_access_scounteren_supervisor_key_44_write>
    4121601c:	03300293          	li	x5,51
    41216020:	025f8c63          	beq	x31,x5,41216058 <csr_access_scounteren_supervisor_key_51_set>
    41216024:	03500293          	li	x5,53
    41216028:	025f8c63          	beq	x31,x5,41216060 <csr_access_sstatus_supervisor_key_53_set>
    4121602c:	03400293          	li	x5,52
    41216030:	025f8c63          	beq	x31,x5,41216068 <csr_access_sstatus_supervisor_key_52_clear>
    41216034:	03900293          	li	x5,57
    41216038:	025f8c63          	beq	x31,x5,41216070 <csr_access_stvec_supervisor_key_57_set>
    4121603c:	03800293          	li	x5,56
    41216040:	025f8c63          	beq	x31,x5,41216078 <csr_access_stvec_supervisor_key_56_clear>
    41216044:	03c0006f          	j	41216080 <end_super_label>

0000000041216048 <csr_access_vl_supervisor_key_29_read>:
    41216048:	c20023f3          	csrr	x7,vl
    4121604c:	0340006f          	j	41216080 <end_super_label>

0000000041216050 <csr_access_scounteren_supervisor_key_44_write>:
    41216050:	10639073          	csrw	scounteren,x7
    41216054:	02c0006f          	j	41216080 <end_super_label>

0000000041216058 <csr_access_scounteren_supervisor_key_51_set>:
    41216058:	1063a073          	csrs	scounteren,x7
    4121605c:	0240006f          	j	41216080 <end_super_label>

0000000041216060 <csr_access_sstatus_supervisor_key_53_set>:
    41216060:	1003a073          	csrs	sstatus,x7
    41216064:	01c0006f          	j	41216080 <end_super_label>

0000000041216068 <csr_access_sstatus_supervisor_key_52_clear>:
    41216068:	1003b073          	csrc	sstatus,x7
    4121606c:	0140006f          	j	41216080 <end_super_label>

0000000041216070 <csr_access_stvec_supervisor_key_57_set>:
    41216070:	1053a073          	csrs	stvec,x7
    41216074:	00c0006f          	j	41216080 <end_super_label>

0000000041216078 <csr_access_stvec_supervisor_key_56_clear>:
    41216078:	1053b073          	csrc	stvec,x7
    4121607c:	0040006f          	j	41216080 <end_super_label>

0000000041216080 <end_super_label>:
    41216080:	000f0fb7          	lui	x31,0xf0
    41216084:	001f8f9b          	addiw	x31,x31,1 # f0001 <SID_EXCEP_16_stack+0x93001>
    41216088:	00cf9f93          	slli	x31,x31,0xc
    4121608c:	004f8f93          	addi	x31,x31,4
    41216090:	00000073          	ecall

Disassembly of section .os_data:

000000000ef5a000 <passed_addr_ptr>:
 ef5a000:	5090                	.insn	2, 0x5090
 ef5a002:	4101                	.insn	2, 0x4101
 ef5a004:	0000                	.insn	2, 0x0000
	...

000000000ef5a008 <failed_addr_ptr>:
 ef5a008:	50a0                	.insn	2, 0x50a0
 ef5a00a:	4101                	.insn	2, 0x4101
 ef5a00c:	0000                	.insn	2, 0x0000
	...

000000000ef5a010 <end_test_addr_ptr>:
 ef5a010:	50b0                	.insn	2, 0x50b0
 ef5a012:	4101                	.insn	2, 0x4101
 ef5a014:	0000                	.insn	2, 0x0000
	...

000000000ef5a018 <os_passed_addr_ptr>:
 ef5a018:	07b0                	.insn	2, 0x07b0
 ef5a01a:	4100                	.insn	2, 0x4100
 ef5a01c:	0000                	.insn	2, 0x0000
	...

000000000ef5a020 <os_failed_addr_ptr>:
 ef5a020:	07c0                	.insn	2, 0x07c0
 ef5a022:	4100                	.insn	2, 0x4100
 ef5a024:	0000                	.insn	2, 0x0000
	...

000000000ef5a028 <os_end_test_addr_ptr>:
 ef5a028:	07cc                	.insn	2, 0x07cc
 ef5a02a:	4100                	.insn	2, 0x4100
 ef5a02c:	0000                	.insn	2, 0x0000
	...

000000000ef5a030 <rvcp_prefix_str_data>:
 ef5a030:	5652                	.insn	2, 0x5652
 ef5a032:	203a5043          	fmadd.s	f0,f20,f3,f4,unknown
 ef5a036:	6554                	.insn	2, 0x6554
 ef5a038:	46207473          	csrrci	x8,0x462,0
 ef5a03c:	6c69                	.insn	2, 0x6c69
 ef5a03e:	2065                	.insn	2, 0x2065
	...

000000000ef5a041 <rvcp_testname_str_data>:
 ef5a041:	7074                	.insn	2, 0x7074
 ef5a043:	655f 6378 7065      	.insn	6, 0x70656378655f
 ef5a049:	6974                	.insn	2, 0x6974
 ef5a04b:	5f736e6f          	jal	x28,ef90e41 <__section_os_data_1+0x35e41>
 ef5a04f:	0031                	.insn	2, 0x0031

000000000ef5a051 <rvcp_passed_str_data>:
 ef5a051:	4150                	.insn	2, 0x4150
 ef5a053:	44455353          	fround.h	f6,f10,unknown
	...

000000000ef5a058 <rvcp_failed_str_data>:
 ef5a058:	4146                	.insn	2, 0x4146
 ef5a05a:	4c49                	.insn	2, 0x4c49
 ef5a05c:	4445                	.insn	2, 0x4445
	...

000000000ef5a05f <rvcp_space_str_data>:
 ef5a05f:	0020                	.insn	2, 0x0020

000000000ef5a061 <rvcp_newline_str_data>:
 ef5a061:	000a                	.insn	2, 0x000a
 ef5a063:	0000                	.insn	2, 0x0000
 ef5a065:	0000                	.insn	2, 0x0000
	...

000000000ef5a068 <excp_ignored_count_mem>:
	...

000000000ef5a070 <machine_flags_mem>:
	...

000000000ef5a078 <user_flags_mem>:
	...

000000000ef5a080 <super_flags_mem>:
	...

000000000ef5a088 <machine_area_mem>:
	...

000000000ef5a090 <user_area_mem>:
	...

000000000ef5a098 <super_area_mem>:
	...

000000000ef5a0a0 <zero_data_mem>:
	...

000000000ef5a0a8 <machine_csr_jump_table_flags_mem>:
	...

000000000ef5a0b0 <super_csr_jump_table_flags_mem>:
	...

000000000ef5a0b8 <pte_access_flags_mem>:
	...

000000000ef5a0d0 <num_harts_ended_mem>:
	...

000000000ef5a0d8 <num_hard_fails_mem>:
	...

Disassembly of section .hart_context:

0000072f4fd78000 <hart_context_0>:
 72f4fd78000:	c000                	.insn	2, 0xc000
 72f4fd78002:	0012                	.insn	2, 0x0012
	...
 72f4fd78018:	0001                	.insn	2, 0x0001
 72f4fd7801a:	0000                	.insn	2, 0x0000
 72f4fd7801c:	0000                	.insn	2, 0x0000
 72f4fd7801e:	0000                	.insn	2, 0x0000
 72f4fd78020:	ffff                	.insn	2, 0xffff
 72f4fd78022:	ffff                	.insn	2, 0xffff
 72f4fd78024:	ffff                	.insn	2, 0xffff
 72f4fd78026:	ffff                	.insn	2, 0xffff
 72f4fd78028:	ffff                	.insn	2, 0xffff
 72f4fd7802a:	ffff                	.insn	2, 0xffff
 72f4fd7802c:	ffff                	.insn	2, 0xffff
 72f4fd7802e:	ffff                	.insn	2, 0xffff
 72f4fd78030:	ffff                	.insn	2, 0xffff
 72f4fd78032:	ffff                	.insn	2, 0xffff
 72f4fd78034:	ffff                	.insn	2, 0xffff
 72f4fd78036:	ffff                	.insn	2, 0xffff
	...
 72f4fd78050:	00ff 0000 0000 0000 	.insn	10, 0x00ff00000000000000ff
 72f4fd78058:	00ff 
	...
 72f4fd78176:	0000                	.insn	2, 0x0000
 72f4fd78178:	ffff                	.insn	2, 0xffff
 72f4fd7817a:	ffff                	.insn	2, 0xffff
 72f4fd7817c:	ffff                	.insn	2, 0xffff
 72f4fd7817e:	ffff                	.insn	2, 0xffff
	...
 72f4fd78188:	ffff                	.insn	2, 0xffff
 72f4fd7818a:	ffff                	.insn	2, 0xffff
	...

Disassembly of section .hart_stack_0:

000000000012b000 <hart_stack_0>:
	...

Disassembly of section .io_htif:

0000000041040000 <tohost>:
	...

0000000041040040 <fromhost>:
	...

Disassembly of section .tp_csr_storage:

00aeb4c64e408000 <.tp_csr_storage>:
  aeb4c64e408000:	c0de                	.insn	2, 0xc0de
  aeb4c64e408002:	c001                	.insn	2, 0xc001
  aeb4c64e408004:	0000                	.insn	2, 0x0000
	...

Disassembly of section .SID_EXCEP_04_SU_stack:

009c175d7627c000 <.SID_EXCEP_04_SU_stack>:
  9c175d7627c000:	c0de                	.insn	2, 0xc0de
  9c175d7627c002:	c001                	.insn	2, 0xc001
  9c175d7627c004:	0000                	.insn	2, 0x0000
	...

Disassembly of section .SID_EXCEP_05_stack:

000001133bb4b000 <.SID_EXCEP_05_stack>:
 1133bb4b000:	c0de                	.insn	2, 0xc0de
 1133bb4b002:	c001                	.insn	2, 0xc001
 1133bb4b004:	0000                	.insn	2, 0x0000
	...

Disassembly of section .SID_EXCEP_06_stack:

0002ca9a8f357000 <.SID_EXCEP_06_stack>:
   2ca9a8f357000:	c0de                	.insn	2, 0xc0de
   2ca9a8f357002:	c001                	.insn	2, 0xc001
   2ca9a8f357004:	0000                	.insn	2, 0x0000
	...

Disassembly of section .SID_EXCEP_07_stack:

0000000003e9f000 <.SID_EXCEP_07_stack>:
 3e9f000:	c0de                	.insn	2, 0xc0de
 3e9f002:	c001                	.insn	2, 0xc001
 3e9f004:	0000                	.insn	2, 0x0000
	...

Disassembly of section .SID_EXCEP_08_stack:

0005f3ad7efab000 <.SID_EXCEP_08_stack>:
   5f3ad7efab000:	c0de                	.insn	2, 0xc0de
   5f3ad7efab002:	c001                	.insn	2, 0xc001
   5f3ad7efab004:	0000                	.insn	2, 0x0000
	...

Disassembly of section .SID_EXCEP_10_stack:

0000000385aa4000 <.SID_EXCEP_10_stack>:
   385aa4000:	c0de                	.insn	2, 0xc0de
   385aa4002:	c001                	.insn	2, 0xc001
   385aa4004:	0000                	.insn	2, 0x0000
	...

Disassembly of section .SID_EXCEP_15_U_stack:

000000000010f000 <.SID_EXCEP_15_U_stack>:
  10f000:	c0de                	.insn	2, 0xc0de
  10f002:	c001                	.insn	2, 0xc001
  10f004:	0000                	.insn	2, 0x0000
	...

Disassembly of section .SID_EXCEP_16_stack:

000000000005d000 <.SID_EXCEP_16_stack>:
   5d000:	c0de                	.insn	2, 0xc0de
   5d002:	c001                	.insn	2, 0xc001
   5d004:	0000                	.insn	2, 0x0000
	...

Disassembly of section .SID_EXCEP_17_stack:

0000000003efe000 <.SID_EXCEP_17_stack>:
 3efe000:	c0de                	.insn	2, 0xc0de
 3efe002:	c001                	.insn	2, 0xc001
 3efe004:	0000                	.insn	2, 0x0000
	...

Disassembly of section .SID_EXCEP_35_U_stack:

000000797e107000 <.SID_EXCEP_35_U_stack>:
  797e107000:	c0de                	.insn	2, 0xc0de
  797e107002:	c001                	.insn	2, 0xc001
  797e107004:	0000                	.insn	2, 0x0000
	...

Disassembly of section .SID_EXCEP_37_stack:

0000000125281000 <.SID_EXCEP_37_stack>:
   125281000:	c0de                	.insn	2, 0xc0de
   125281002:	c001                	.insn	2, 0xc001
   125281004:	0000                	.insn	2, 0x0000
	...

Disassembly of section .SID_EXCEP_38_stack:

00000214c6b57000 <.SID_EXCEP_38_stack>:
 214c6b57000:	c0de                	.insn	2, 0xc0de
 214c6b57002:	c001                	.insn	2, 0xc001
 214c6b57004:	0000                	.insn	2, 0x0000
	...

Disassembly of section .__pagetable_map_os_0x000000004217e000:

000000004217e000 <__pagetable_map_os_0x000000004217e000>:
    4217e000:	a801                	.insn	2, 0xa801
    4217e002:	1129                	.insn	2, 0x1129
	...
    4217e010:	3401                	.insn	2, 0x3401
    4217e012:	1059                	.insn	2, 0x1059
	...
    4217e028:	f401                	.insn	2, 0xf401
    4217e02a:	1116                	.insn	2, 0x1116
	...
    4217e4e0:	9c01                	.insn	2, 0x9c01
    4217e4e2:	1059                	.insn	2, 0x1059
	...
    4217e570:	ac01                	.insn	2, 0xac01
    4217e572:	00001113          	slli	x2,x0,0x0
	...
    4217e9ee:	0000                	.insn	2, 0x0000
    4217e9f0:	9c01                	.insn	2, 0x9c01
    4217e9f2:	00001083          	lh	x1,0(x0) # 0 <ALL_4KB_PAGES>
	...

Disassembly of section .__pagetable_map_os_0x0000000044a6a000:

0000000044a6a000 <__pagetable_map_os_0x0000000044a6a000>:
    44a6a000:	6001                	.insn	2, 0x6001
    44a6a002:	1129                	.insn	2, 0x1129
	...
    44a6a010:	b401                	.insn	2, 0xb401
    44a6a012:	1059                	.insn	2, 0x1059
	...
    44a6a020:	8801                	.insn	2, 0x8801
    44a6a022:	1129                	.insn	2, 0x1129
	...
    44a6a070:	b401                	.insn	2, 0xb401
    44a6a072:	10ad                	.insn	2, 0x10ad
    44a6a074:	0000                	.insn	2, 0x0000
	...

Disassembly of section .__pagetable_map_os_0x0000000044a58000:

0000000044a58000 <__pagetable_map_os_0x0000000044a58000>:
    44a58000:	b401                	.insn	2, 0xb401
    44a58002:	10ae                	.insn	2, 0x10ae
    44a58004:	0000                	.insn	2, 0x0000
    44a58006:	0000                	.insn	2, 0x0000
    44a58008:	1401                	.insn	2, 0x1401
    44a5800a:	00001117          	auipc	x2,0x1
	...
    44a5801e:	0000                	.insn	2, 0x0000
    44a58020:	f001                	.insn	2, 0xf001
    44a58022:	00001113          	slli	x2,x0,0x0
	...
    44a5806e:	0000                	.insn	2, 0x0000
    44a58070:	7001                	.insn	2, 0x7001
    44a58072:	111f 0000 0000      	.insn	6, 0x111f
	...
    44a58f28:	c801                	.insn	2, 0xc801
    44a58f2a:	00001127          	fsh	f0,2(x0) # 2 <CHECK_EXCP_MODE_HS>
	...

Disassembly of section .__pagetable_map_os_0x00000000445c5000:

00000000445c5000 <__pagetable_map_os_0x00000000445c5000>:
	...
    445c5040:	cc01                	.insn	2, 0xcc01
    445c5042:	1116                	.insn	2, 0x1116
    445c5044:	0000                	.insn	2, 0x0000
    445c5046:	0000                	.insn	2, 0x0000
    445c5048:	4801                	.insn	2, 0x4801
    445c504a:	1129                	.insn	2, 0x1129
	...
    445c5080:	e401                	.insn	2, 0xe401
    445c5082:	106c                	.insn	2, 0x106c
    445c5084:	0000                	.insn	2, 0x0000
	...

Disassembly of section .__pagetable_map_os_0x00000000445b3000:

00000000445b3000 <__pagetable_map_os_0x00000000445b3000>:
	...
    445b3080:	40df 1040 0000      	.insn	6, 0x104040df
    445b3086:	0000                	.insn	2, 0x0000
    445b3088:	104044cf          	fnmadd.s	f9,f0,f4,f2,rmm
    445b308c:	0000                	.insn	2, 0x0000
    445b308e:	0000                	.insn	2, 0x0000
    445b3090:	104048cf          	fnmadd.s	f17,f0,f4,f2,rmm
    445b3094:	0000                	.insn	2, 0x0000
    445b3096:	0000                	.insn	2, 0x0000
    445b3098:	10404ccf          	fnmadd.s	f25,f0,f4,f2,rmm
    445b309c:	0000                	.insn	2, 0x0000
    445b309e:	0000                	.insn	2, 0x0000
    445b30a0:	104050cf          	fnmadd.s	f1,f0,f4,f2,unknown
    445b30a4:	0000                	.insn	2, 0x0000
    445b30a6:	0000                	.insn	2, 0x0000
    445b30a8:	00df 1100 0000      	.insn	6, 0x110000df
    445b30ae:	0000                	.insn	2, 0x0000
    445b30b0:	04df 1100 0000      	.insn	6, 0x110004df
    445b30b6:	0000                	.insn	2, 0x0000
    445b30b8:	08df 1100 0000      	.insn	6, 0x110008df
    445b30be:	0000                	.insn	2, 0x0000
    445b30c0:	0cdf 1100 0000      	.insn	6, 0x11000cdf
    445b30c6:	0000                	.insn	2, 0x0000
    445b30c8:	10df 1100 0000      	.insn	6, 0x110010df
    445b30ce:	0000                	.insn	2, 0x0000
    445b30d0:	14df 1100 0000      	.insn	6, 0x110014df
    445b30d6:	0000                	.insn	2, 0x0000
    445b30d8:	18df 1100 0000      	.insn	6, 0x110018df
    445b30de:	0000                	.insn	2, 0x0000
    445b30e0:	1cdf 1100 0000      	.insn	6, 0x11001cdf
    445b30e6:	0000                	.insn	2, 0x0000
    445b30e8:	20df 1100 0000      	.insn	6, 0x110020df
    445b30ee:	0000                	.insn	2, 0x0000
    445b30f0:	24df 1100 0000      	.insn	6, 0x110024df
    445b30f6:	0000                	.insn	2, 0x0000
    445b30f8:	28df 1100 0000      	.insn	6, 0x110028df
    445b30fe:	0000                	.insn	2, 0x0000
    445b3100:	2cdf 1100 0000      	.insn	6, 0x11002cdf
    445b3106:	0000                	.insn	2, 0x0000
    445b3108:	30df 1100 0000      	.insn	6, 0x110030df
    445b310e:	0000                	.insn	2, 0x0000
    445b3110:	34df 1100 0000      	.insn	6, 0x110034df
    445b3116:	0000                	.insn	2, 0x0000
    445b3118:	38df 1100 0000      	.insn	6, 0x110038df
    445b311e:	0000                	.insn	2, 0x0000
    445b3120:	3cdf 1100 0000      	.insn	6, 0x11003cdf
    445b3126:	0000                	.insn	2, 0x0000
    445b3128:	40df 1100 0000      	.insn	6, 0x110040df
    445b312e:	0000                	.insn	2, 0x0000
    445b3130:	44df 1100 0000      	.insn	6, 0x110044df
    445b3136:	0000                	.insn	2, 0x0000
    445b3138:	48df 1100 0000      	.insn	6, 0x110048df
    445b313e:	0000                	.insn	2, 0x0000
    445b3140:	4cdf 1100 0000      	.insn	6, 0x11004cdf
    445b3146:	0000                	.insn	2, 0x0000
    445b3148:	50df 1100 0000      	.insn	6, 0x110050df
    445b314e:	0000                	.insn	2, 0x0000
    445b3150:	54df 1100 0000      	.insn	6, 0x110054df
    445b3156:	0000                	.insn	2, 0x0000
    445b3158:	58df 1100 0000      	.insn	6, 0x110058df
    445b315e:	0000                	.insn	2, 0x0000
    445b3160:	5cdf 1100 0000      	.insn	6, 0x11005cdf
    445b3166:	0000                	.insn	2, 0x0000
    445b3168:	60df 1100 0000      	.insn	6, 0x110060df
    445b316e:	0000                	.insn	2, 0x0000
    445b3170:	64df 1100 0000      	.insn	6, 0x110064df
    445b3176:	0000                	.insn	2, 0x0000
    445b3178:	68df 1100 0000      	.insn	6, 0x110068df
    445b317e:	0000                	.insn	2, 0x0000
    445b3180:	6cdf 1100 0000      	.insn	6, 0x11006cdf
    445b3186:	0000                	.insn	2, 0x0000
    445b3188:	70df 1100 0000      	.insn	6, 0x110070df
    445b318e:	0000                	.insn	2, 0x0000
    445b3190:	74df 1100 0000      	.insn	6, 0x110074df
    445b3196:	0000                	.insn	2, 0x0000
    445b3198:	78df 1100 0000      	.insn	6, 0x110078df
    445b319e:	0000                	.insn	2, 0x0000
    445b31a0:	7cdf 1100 0000      	.insn	6, 0x11007cdf
    445b31a6:	0000                	.insn	2, 0x0000
    445b31a8:	80df 1100 0000      	.insn	6, 0x110080df
    445b31ae:	0000                	.insn	2, 0x0000
    445b31b0:	84df 1100 0000      	.insn	6, 0x110084df
    445b31b6:	0000                	.insn	2, 0x0000
    445b31b8:	88df 1100 0000      	.insn	6, 0x110088df
    445b31be:	0000                	.insn	2, 0x0000
    445b31c0:	8cdf 1100 0000      	.insn	6, 0x11008cdf
    445b31c6:	0000                	.insn	2, 0x0000
    445b31c8:	90df 1100 0000      	.insn	6, 0x110090df
    445b31ce:	0000                	.insn	2, 0x0000
    445b31d0:	94df 1100 0000      	.insn	6, 0x110094df
    445b31d6:	0000                	.insn	2, 0x0000
    445b31d8:	98df 1100 0000      	.insn	6, 0x110098df
    445b31de:	0000                	.insn	2, 0x0000
    445b31e0:	9cdf 1100 0000      	.insn	6, 0x11009cdf
    445b31e6:	0000                	.insn	2, 0x0000
    445b31e8:	a0df 1100 0000      	.insn	6, 0x1100a0df
    445b31ee:	0000                	.insn	2, 0x0000
    445b31f0:	a4df 1100 0000      	.insn	6, 0x1100a4df
    445b31f6:	0000                	.insn	2, 0x0000
    445b31f8:	a8df 1100 0000      	.insn	6, 0x1100a8df
    445b31fe:	0000                	.insn	2, 0x0000
    445b3200:	00df 1041 0000      	.insn	6, 0x104100df
    445b3206:	0000                	.insn	2, 0x0000
    445b3208:	b0df 1100 0000      	.insn	6, 0x1100b0df
    445b320e:	0000                	.insn	2, 0x0000
    445b3210:	b4df 1100 0000      	.insn	6, 0x1100b4df
    445b3216:	0000                	.insn	2, 0x0000
    445b3218:	b8df 1100 0000      	.insn	6, 0x1100b8df
    445b321e:	0000                	.insn	2, 0x0000
    445b3220:	bcdf 1100 0000      	.insn	6, 0x1100bcdf
    445b3226:	0000                	.insn	2, 0x0000
    445b3228:	c0df 1100 0000      	.insn	6, 0x1100c0df
    445b322e:	0000                	.insn	2, 0x0000
    445b3230:	c4df 1100 0000      	.insn	6, 0x1100c4df
    445b3236:	0000                	.insn	2, 0x0000
    445b3238:	c8df 1100 0000      	.insn	6, 0x1100c8df
    445b323e:	0000                	.insn	2, 0x0000
    445b3240:	ccdf 1100 0000      	.insn	6, 0x1100ccdf
    445b3246:	0000                	.insn	2, 0x0000
    445b3248:	d0df 1100 0000      	.insn	6, 0x1100d0df
    445b324e:	0000                	.insn	2, 0x0000
    445b3250:	d4df 1100 0000      	.insn	6, 0x1100d4df
    445b3256:	0000                	.insn	2, 0x0000
    445b3258:	d8df 1100 0000      	.insn	6, 0x1100d8df
    445b325e:	0000                	.insn	2, 0x0000
    445b3260:	dcdf 1100 0000      	.insn	6, 0x1100dcdf
    445b3266:	0000                	.insn	2, 0x0000
    445b3268:	e0df 1100 0000      	.insn	6, 0x1100e0df
    445b326e:	0000                	.insn	2, 0x0000
    445b3270:	e4df 1100 0000      	.insn	6, 0x1100e4df
    445b3276:	0000                	.insn	2, 0x0000
    445b3278:	e8df 1100 0000      	.insn	6, 0x1100e8df
    445b327e:	0000                	.insn	2, 0x0000
    445b3280:	ecdf 1100 0000      	.insn	6, 0x1100ecdf
    445b3286:	0000                	.insn	2, 0x0000
    445b3288:	f0df 1100 0000      	.insn	6, 0x1100f0df
    445b328e:	0000                	.insn	2, 0x0000
    445b3290:	f4df 1100 0000      	.insn	6, 0x1100f4df
    445b3296:	0000                	.insn	2, 0x0000
    445b3298:	f8df 1100 0000      	.insn	6, 0x1100f8df
    445b329e:	0000                	.insn	2, 0x0000
    445b32a0:	fcdf 1100 0000      	.insn	6, 0x1100fcdf
    445b32a6:	0000                	.insn	2, 0x0000
    445b32a8:	00df 1101 0000      	.insn	6, 0x110100df
    445b32ae:	0000                	.insn	2, 0x0000
    445b32b0:	04df 1101 0000      	.insn	6, 0x110104df
    445b32b6:	0000                	.insn	2, 0x0000
    445b32b8:	08df 1101 0000      	.insn	6, 0x110108df
    445b32be:	0000                	.insn	2, 0x0000
    445b32c0:	0cdf 1101 0000      	.insn	6, 0x11010cdf
    445b32c6:	0000                	.insn	2, 0x0000
    445b32c8:	10df 1101 0000      	.insn	6, 0x110110df
    445b32ce:	0000                	.insn	2, 0x0000
    445b32d0:	14df 1101 0000      	.insn	6, 0x110114df
    445b32d6:	0000                	.insn	2, 0x0000
    445b32d8:	18df 1101 0000      	.insn	6, 0x110118df
    445b32de:	0000                	.insn	2, 0x0000
    445b32e0:	1cdf 1101 0000      	.insn	6, 0x11011cdf
    445b32e6:	0000                	.insn	2, 0x0000
    445b32e8:	20df 1101 0000      	.insn	6, 0x110120df
    445b32ee:	0000                	.insn	2, 0x0000
    445b32f0:	24df 1101 0000      	.insn	6, 0x110124df
    445b32f6:	0000                	.insn	2, 0x0000
    445b32f8:	28df 1101 0000      	.insn	6, 0x110128df
    445b32fe:	0000                	.insn	2, 0x0000
    445b3300:	2cdf 1101 0000      	.insn	6, 0x11012cdf
    445b3306:	0000                	.insn	2, 0x0000
    445b3308:	30df 1101 0000      	.insn	6, 0x110130df
    445b330e:	0000                	.insn	2, 0x0000
    445b3310:	34df 1101 0000      	.insn	6, 0x110134df
    445b3316:	0000                	.insn	2, 0x0000
    445b3318:	38df 1101 0000      	.insn	6, 0x110138df
    445b331e:	0000                	.insn	2, 0x0000
    445b3320:	3cdf 1101 0000      	.insn	6, 0x11013cdf
    445b3326:	0000                	.insn	2, 0x0000
    445b3328:	40df 1101 0000      	.insn	6, 0x110140df
    445b332e:	0000                	.insn	2, 0x0000
    445b3330:	44df 1101 0000      	.insn	6, 0x110144df
    445b3336:	0000                	.insn	2, 0x0000
    445b3338:	48df 1101 0000      	.insn	6, 0x110148df
    445b333e:	0000                	.insn	2, 0x0000
    445b3340:	4cdf 1101 0000      	.insn	6, 0x11014cdf
    445b3346:	0000                	.insn	2, 0x0000
    445b3348:	50df 1101 0000      	.insn	6, 0x110150df
    445b334e:	0000                	.insn	2, 0x0000
    445b3350:	54df 1101 0000      	.insn	6, 0x110154df
    445b3356:	0000                	.insn	2, 0x0000
    445b3358:	58df 1101 0000      	.insn	6, 0x110158df
    445b335e:	0000                	.insn	2, 0x0000
    445b3360:	5cdf 1101 0000      	.insn	6, 0x11015cdf
    445b3366:	0000                	.insn	2, 0x0000
    445b3368:	60df 1101 0000      	.insn	6, 0x110160df
    445b336e:	0000                	.insn	2, 0x0000
    445b3370:	64df 1101 0000      	.insn	6, 0x110164df
    445b3376:	0000                	.insn	2, 0x0000
    445b3378:	68df 1101 0000      	.insn	6, 0x110168df
    445b337e:	0000                	.insn	2, 0x0000
    445b3380:	6cdf 1101 0000      	.insn	6, 0x11016cdf
    445b3386:	0000                	.insn	2, 0x0000
    445b3388:	70df 1101 0000      	.insn	6, 0x110170df
    445b338e:	0000                	.insn	2, 0x0000
    445b3390:	74df 1101 0000      	.insn	6, 0x110174df
    445b3396:	0000                	.insn	2, 0x0000
    445b3398:	78df 1101 0000      	.insn	6, 0x110178df
    445b339e:	0000                	.insn	2, 0x0000
    445b33a0:	7cdf 1101 0000      	.insn	6, 0x11017cdf
    445b33a6:	0000                	.insn	2, 0x0000
    445b33a8:	80df 1101 0000      	.insn	6, 0x110180df
    445b33ae:	0000                	.insn	2, 0x0000
    445b33b0:	84df 1101 0000      	.insn	6, 0x110184df
    445b33b6:	0000                	.insn	2, 0x0000
    445b33b8:	88df 1101 0000      	.insn	6, 0x110188df
    445b33be:	0000                	.insn	2, 0x0000
    445b33c0:	8cdf 1101 0000      	.insn	6, 0x11018cdf
    445b33c6:	0000                	.insn	2, 0x0000
    445b33c8:	90df 1101 0000      	.insn	6, 0x110190df
    445b33ce:	0000                	.insn	2, 0x0000
    445b33d0:	94df 1101 0000      	.insn	6, 0x110194df
    445b33d6:	0000                	.insn	2, 0x0000
    445b33d8:	98df 1101 0000      	.insn	6, 0x110198df
    445b33de:	0000                	.insn	2, 0x0000
    445b33e0:	9cdf 1101 0000      	.insn	6, 0x11019cdf
    445b33e6:	0000                	.insn	2, 0x0000
    445b33e8:	a0df 1101 0000      	.insn	6, 0x1101a0df
    445b33ee:	0000                	.insn	2, 0x0000
    445b33f0:	a4df 1101 0000      	.insn	6, 0x1101a4df
    445b33f6:	0000                	.insn	2, 0x0000
    445b33f8:	a8df 1101 0000      	.insn	6, 0x1101a8df
    445b33fe:	0000                	.insn	2, 0x0000
    445b3400:	acdf 1101 0000      	.insn	6, 0x1101acdf
    445b3406:	0000                	.insn	2, 0x0000
    445b3408:	b0df 1101 0000      	.insn	6, 0x1101b0df
    445b340e:	0000                	.insn	2, 0x0000
    445b3410:	b4df 1101 0000      	.insn	6, 0x1101b4df
    445b3416:	0000                	.insn	2, 0x0000
    445b3418:	b8df 1101 0000      	.insn	6, 0x1101b8df
    445b341e:	0000                	.insn	2, 0x0000
    445b3420:	bcdf 1101 0000      	.insn	6, 0x1101bcdf
    445b3426:	0000                	.insn	2, 0x0000
    445b3428:	c0df 1101 0000      	.insn	6, 0x1101c0df
    445b342e:	0000                	.insn	2, 0x0000
    445b3430:	c4df 1101 0000      	.insn	6, 0x1101c4df
    445b3436:	0000                	.insn	2, 0x0000
    445b3438:	c8df 1101 0000      	.insn	6, 0x1101c8df
    445b343e:	0000                	.insn	2, 0x0000
    445b3440:	ccdf 1101 0000      	.insn	6, 0x1101ccdf
    445b3446:	0000                	.insn	2, 0x0000
    445b3448:	d0df 1101 0000      	.insn	6, 0x1101d0df
    445b344e:	0000                	.insn	2, 0x0000
    445b3450:	d4df 1101 0000      	.insn	6, 0x1101d4df
    445b3456:	0000                	.insn	2, 0x0000
    445b3458:	d8df 1101 0000      	.insn	6, 0x1101d8df
    445b345e:	0000                	.insn	2, 0x0000
    445b3460:	dcdf 1101 0000      	.insn	6, 0x1101dcdf
    445b3466:	0000                	.insn	2, 0x0000
    445b3468:	e0df 1101 0000      	.insn	6, 0x1101e0df
    445b346e:	0000                	.insn	2, 0x0000
    445b3470:	e4df 1101 0000      	.insn	6, 0x1101e4df
    445b3476:	0000                	.insn	2, 0x0000
    445b3478:	e8df 1101 0000      	.insn	6, 0x1101e8df
    445b347e:	0000                	.insn	2, 0x0000
    445b3480:	ecdf 1101 0000      	.insn	6, 0x1101ecdf
    445b3486:	0000                	.insn	2, 0x0000
    445b3488:	f0df 1101 0000      	.insn	6, 0x1101f0df
    445b348e:	0000                	.insn	2, 0x0000
    445b3490:	f4df 1101 0000      	.insn	6, 0x1101f4df
    445b3496:	0000                	.insn	2, 0x0000
    445b3498:	f8df 1101 0000      	.insn	6, 0x1101f8df
    445b349e:	0000                	.insn	2, 0x0000
    445b34a0:	fcdf 1101 0000      	.insn	6, 0x1101fcdf
    445b34a6:	0000                	.insn	2, 0x0000
    445b34a8:	110200cf          	fnmadd.s	f1,f4,f16,f2,rne
    445b34ac:	0000                	.insn	2, 0x0000
    445b34ae:	0000                	.insn	2, 0x0000
    445b34b0:	110204cf          	fnmadd.s	f9,f4,f16,f2,rne
    445b34b4:	0000                	.insn	2, 0x0000
    445b34b6:	0000                	.insn	2, 0x0000
    445b34b8:	110208cf          	fnmadd.s	f17,f4,f16,f2,rne
    445b34bc:	0000                	.insn	2, 0x0000
    445b34be:	0000                	.insn	2, 0x0000
    445b34c0:	11020ccf          	fnmadd.s	f25,f4,f16,f2,rne
    445b34c4:	0000                	.insn	2, 0x0000
    445b34c6:	0000                	.insn	2, 0x0000
    445b34c8:	110210cf          	fnmadd.s	f1,f4,f16,f2,rtz
    445b34cc:	0000                	.insn	2, 0x0000
    445b34ce:	0000                	.insn	2, 0x0000
    445b34d0:	110214cf          	fnmadd.s	f9,f4,f16,f2,rtz
    445b34d4:	0000                	.insn	2, 0x0000
    445b34d6:	0000                	.insn	2, 0x0000
    445b34d8:	110218cf          	fnmadd.s	f17,f4,f16,f2,rtz
    445b34dc:	0000                	.insn	2, 0x0000
    445b34de:	0000                	.insn	2, 0x0000
    445b34e0:	11021ccf          	fnmadd.s	f25,f4,f16,f2,rtz
    445b34e4:	0000                	.insn	2, 0x0000
    445b34e6:	0000                	.insn	2, 0x0000
    445b34e8:	110220cf          	fnmadd.s	f1,f4,f16,f2,rdn
    445b34ec:	0000                	.insn	2, 0x0000
    445b34ee:	0000                	.insn	2, 0x0000
    445b34f0:	110224cf          	fnmadd.s	f9,f4,f16,f2,rdn
    445b34f4:	0000                	.insn	2, 0x0000
    445b34f6:	0000                	.insn	2, 0x0000
    445b34f8:	110228cf          	fnmadd.s	f17,f4,f16,f2,rdn
    445b34fc:	0000                	.insn	2, 0x0000
    445b34fe:	0000                	.insn	2, 0x0000
    445b3500:	11022ccf          	fnmadd.s	f25,f4,f16,f2,rdn
    445b3504:	0000                	.insn	2, 0x0000
    445b3506:	0000                	.insn	2, 0x0000
    445b3508:	110230cf          	fnmadd.s	f1,f4,f16,f2,rup
    445b350c:	0000                	.insn	2, 0x0000
    445b350e:	0000                	.insn	2, 0x0000
    445b3510:	110234cf          	fnmadd.s	f9,f4,f16,f2,rup
    445b3514:	0000                	.insn	2, 0x0000
    445b3516:	0000                	.insn	2, 0x0000
    445b3518:	110238cf          	fnmadd.s	f17,f4,f16,f2,rup
    445b351c:	0000                	.insn	2, 0x0000
    445b351e:	0000                	.insn	2, 0x0000
    445b3520:	11023ccf          	fnmadd.s	f25,f4,f16,f2,rup
    445b3524:	0000                	.insn	2, 0x0000
    445b3526:	0000                	.insn	2, 0x0000
    445b3528:	110240cf          	fnmadd.s	f1,f4,f16,f2,rmm
    445b352c:	0000                	.insn	2, 0x0000
    445b352e:	0000                	.insn	2, 0x0000
    445b3530:	110244cf          	fnmadd.s	f9,f4,f16,f2,rmm
    445b3534:	0000                	.insn	2, 0x0000
    445b3536:	0000                	.insn	2, 0x0000
    445b3538:	110248cf          	fnmadd.s	f17,f4,f16,f2,rmm
    445b353c:	0000                	.insn	2, 0x0000
    445b353e:	0000                	.insn	2, 0x0000
    445b3540:	11024ccf          	fnmadd.s	f25,f4,f16,f2,rmm
    445b3544:	0000                	.insn	2, 0x0000
    445b3546:	0000                	.insn	2, 0x0000
    445b3548:	110250cf          	fnmadd.s	f1,f4,f16,f2,unknown
    445b354c:	0000                	.insn	2, 0x0000
    445b354e:	0000                	.insn	2, 0x0000
    445b3550:	110254cf          	fnmadd.s	f9,f4,f16,f2,unknown
    445b3554:	0000                	.insn	2, 0x0000
    445b3556:	0000                	.insn	2, 0x0000
    445b3558:	110258cf          	fnmadd.s	f17,f4,f16,f2,unknown
    445b355c:	0000                	.insn	2, 0x0000
    445b355e:	0000                	.insn	2, 0x0000
    445b3560:	11025ccf          	fnmadd.s	f25,f4,f16,f2,unknown
    445b3564:	0000                	.insn	2, 0x0000
    445b3566:	0000                	.insn	2, 0x0000
    445b3568:	110260cf          	fnmadd.s	f1,f4,f16,f2,unknown
    445b356c:	0000                	.insn	2, 0x0000
    445b356e:	0000                	.insn	2, 0x0000
    445b3570:	110264cf          	fnmadd.s	f9,f4,f16,f2,unknown
    445b3574:	0000                	.insn	2, 0x0000
    445b3576:	0000                	.insn	2, 0x0000
    445b3578:	110268cf          	fnmadd.s	f17,f4,f16,f2,unknown
    445b357c:	0000                	.insn	2, 0x0000
    445b357e:	0000                	.insn	2, 0x0000
    445b3580:	11026ccf          	fnmadd.s	f25,f4,f16,f2,unknown
    445b3584:	0000                	.insn	2, 0x0000
    445b3586:	0000                	.insn	2, 0x0000
    445b3588:	110270cf          	fnmadd.s	f1,f4,f16,f2
    445b358c:	0000                	.insn	2, 0x0000
    445b358e:	0000                	.insn	2, 0x0000
    445b3590:	110274cf          	fnmadd.s	f9,f4,f16,f2
    445b3594:	0000                	.insn	2, 0x0000
    445b3596:	0000                	.insn	2, 0x0000
    445b3598:	110278cf          	fnmadd.s	f17,f4,f16,f2
    445b359c:	0000                	.insn	2, 0x0000
    445b359e:	0000                	.insn	2, 0x0000
    445b35a0:	11027ccf          	fnmadd.s	f25,f4,f16,f2
    445b35a4:	0000                	.insn	2, 0x0000
    445b35a6:	0000                	.insn	2, 0x0000
    445b35a8:	110280cf          	fnmadd.s	f1,f5,f16,f2,rne
    445b35ac:	0000                	.insn	2, 0x0000
    445b35ae:	0000                	.insn	2, 0x0000
    445b35b0:	110284cf          	fnmadd.s	f9,f5,f16,f2,rne
    445b35b4:	0000                	.insn	2, 0x0000
    445b35b6:	0000                	.insn	2, 0x0000
    445b35b8:	110288cf          	fnmadd.s	f17,f5,f16,f2,rne
    445b35bc:	0000                	.insn	2, 0x0000
    445b35be:	0000                	.insn	2, 0x0000
    445b35c0:	11028ccf          	fnmadd.s	f25,f5,f16,f2,rne
    445b35c4:	0000                	.insn	2, 0x0000
    445b35c6:	0000                	.insn	2, 0x0000
    445b35c8:	110290cf          	fnmadd.s	f1,f5,f16,f2,rtz
    445b35cc:	0000                	.insn	2, 0x0000
    445b35ce:	0000                	.insn	2, 0x0000
    445b35d0:	110294cf          	fnmadd.s	f9,f5,f16,f2,rtz
    445b35d4:	0000                	.insn	2, 0x0000
    445b35d6:	0000                	.insn	2, 0x0000
    445b35d8:	110298cf          	fnmadd.s	f17,f5,f16,f2,rtz
    445b35dc:	0000                	.insn	2, 0x0000
    445b35de:	0000                	.insn	2, 0x0000
    445b35e0:	11029ccf          	fnmadd.s	f25,f5,f16,f2,rtz
    445b35e4:	0000                	.insn	2, 0x0000
    445b35e6:	0000                	.insn	2, 0x0000
    445b35e8:	1102a0cf          	fnmadd.s	f1,f5,f16,f2,rdn
    445b35ec:	0000                	.insn	2, 0x0000
    445b35ee:	0000                	.insn	2, 0x0000
    445b35f0:	1102a4cf          	fnmadd.s	f9,f5,f16,f2,rdn
    445b35f4:	0000                	.insn	2, 0x0000
    445b35f6:	0000                	.insn	2, 0x0000
    445b35f8:	1102a8cf          	fnmadd.s	f17,f5,f16,f2,rdn
    445b35fc:	0000                	.insn	2, 0x0000
    445b35fe:	0000                	.insn	2, 0x0000
    445b3600:	1102accf          	fnmadd.s	f25,f5,f16,f2,rdn
    445b3604:	0000                	.insn	2, 0x0000
    445b3606:	0000                	.insn	2, 0x0000
    445b3608:	1102b0cf          	fnmadd.s	f1,f5,f16,f2,rup
    445b360c:	0000                	.insn	2, 0x0000
    445b360e:	0000                	.insn	2, 0x0000
    445b3610:	1102b4cf          	fnmadd.s	f9,f5,f16,f2,rup
    445b3614:	0000                	.insn	2, 0x0000
    445b3616:	0000                	.insn	2, 0x0000
    445b3618:	1102b8cf          	fnmadd.s	f17,f5,f16,f2,rup
    445b361c:	0000                	.insn	2, 0x0000
    445b361e:	0000                	.insn	2, 0x0000
    445b3620:	1102bccf          	fnmadd.s	f25,f5,f16,f2,rup
    445b3624:	0000                	.insn	2, 0x0000
    445b3626:	0000                	.insn	2, 0x0000
    445b3628:	1102c0cf          	fnmadd.s	f1,f5,f16,f2,rmm
    445b362c:	0000                	.insn	2, 0x0000
    445b362e:	0000                	.insn	2, 0x0000
    445b3630:	1102c4cf          	fnmadd.s	f9,f5,f16,f2,rmm
    445b3634:	0000                	.insn	2, 0x0000
    445b3636:	0000                	.insn	2, 0x0000
    445b3638:	1102c8cf          	fnmadd.s	f17,f5,f16,f2,rmm
    445b363c:	0000                	.insn	2, 0x0000
    445b363e:	0000                	.insn	2, 0x0000
    445b3640:	1102cccf          	fnmadd.s	f25,f5,f16,f2,rmm
    445b3644:	0000                	.insn	2, 0x0000
    445b3646:	0000                	.insn	2, 0x0000
    445b3648:	1102d0cf          	fnmadd.s	f1,f5,f16,f2,unknown
    445b364c:	0000                	.insn	2, 0x0000
    445b364e:	0000                	.insn	2, 0x0000
    445b3650:	1102d4cf          	fnmadd.s	f9,f5,f16,f2,unknown
    445b3654:	0000                	.insn	2, 0x0000
    445b3656:	0000                	.insn	2, 0x0000
    445b3658:	1102d8cf          	fnmadd.s	f17,f5,f16,f2,unknown
    445b365c:	0000                	.insn	2, 0x0000
    445b365e:	0000                	.insn	2, 0x0000
    445b3660:	1102dccf          	fnmadd.s	f25,f5,f16,f2,unknown
    445b3664:	0000                	.insn	2, 0x0000
    445b3666:	0000                	.insn	2, 0x0000
    445b3668:	1102e0cf          	fnmadd.s	f1,f5,f16,f2,unknown
    445b366c:	0000                	.insn	2, 0x0000
    445b366e:	0000                	.insn	2, 0x0000
    445b3670:	1102e4cf          	fnmadd.s	f9,f5,f16,f2,unknown
    445b3674:	0000                	.insn	2, 0x0000
    445b3676:	0000                	.insn	2, 0x0000
    445b3678:	1102e8cf          	fnmadd.s	f17,f5,f16,f2,unknown
    445b367c:	0000                	.insn	2, 0x0000
    445b367e:	0000                	.insn	2, 0x0000
    445b3680:	1102eccf          	fnmadd.s	f25,f5,f16,f2,unknown
    445b3684:	0000                	.insn	2, 0x0000
    445b3686:	0000                	.insn	2, 0x0000
    445b3688:	1102f0cf          	fnmadd.s	f1,f5,f16,f2
    445b368c:	0000                	.insn	2, 0x0000
    445b368e:	0000                	.insn	2, 0x0000
    445b3690:	1102f4cf          	fnmadd.s	f9,f5,f16,f2
    445b3694:	0000                	.insn	2, 0x0000
    445b3696:	0000                	.insn	2, 0x0000
    445b3698:	1102f8cf          	fnmadd.s	f17,f5,f16,f2
    445b369c:	0000                	.insn	2, 0x0000
    445b369e:	0000                	.insn	2, 0x0000
    445b36a0:	1102fccf          	fnmadd.s	f25,f5,f16,f2
    445b36a4:	0000                	.insn	2, 0x0000
    445b36a6:	0000                	.insn	2, 0x0000
    445b36a8:	110300cf          	fnmadd.s	f1,f6,f16,f2,rne
    445b36ac:	0000                	.insn	2, 0x0000
    445b36ae:	0000                	.insn	2, 0x0000
    445b36b0:	110304cf          	fnmadd.s	f9,f6,f16,f2,rne
    445b36b4:	0000                	.insn	2, 0x0000
    445b36b6:	0000                	.insn	2, 0x0000
    445b36b8:	110308cf          	fnmadd.s	f17,f6,f16,f2,rne
    445b36bc:	0000                	.insn	2, 0x0000
    445b36be:	0000                	.insn	2, 0x0000
    445b36c0:	11030ccf          	fnmadd.s	f25,f6,f16,f2,rne
    445b36c4:	0000                	.insn	2, 0x0000
    445b36c6:	0000                	.insn	2, 0x0000
    445b36c8:	110310cf          	fnmadd.s	f1,f6,f16,f2,rtz
    445b36cc:	0000                	.insn	2, 0x0000
    445b36ce:	0000                	.insn	2, 0x0000
    445b36d0:	110314cf          	fnmadd.s	f9,f6,f16,f2,rtz
    445b36d4:	0000                	.insn	2, 0x0000
    445b36d6:	0000                	.insn	2, 0x0000
    445b36d8:	110318cf          	fnmadd.s	f17,f6,f16,f2,rtz
    445b36dc:	0000                	.insn	2, 0x0000
    445b36de:	0000                	.insn	2, 0x0000
    445b36e0:	11031ccf          	fnmadd.s	f25,f6,f16,f2,rtz
    445b36e4:	0000                	.insn	2, 0x0000
    445b36e6:	0000                	.insn	2, 0x0000
    445b36e8:	110320cf          	fnmadd.s	f1,f6,f16,f2,rdn
    445b36ec:	0000                	.insn	2, 0x0000
    445b36ee:	0000                	.insn	2, 0x0000
    445b36f0:	110324cf          	fnmadd.s	f9,f6,f16,f2,rdn
    445b36f4:	0000                	.insn	2, 0x0000
    445b36f6:	0000                	.insn	2, 0x0000
    445b36f8:	110328cf          	fnmadd.s	f17,f6,f16,f2,rdn
    445b36fc:	0000                	.insn	2, 0x0000
    445b36fe:	0000                	.insn	2, 0x0000
    445b3700:	11032ccf          	fnmadd.s	f25,f6,f16,f2,rdn
    445b3704:	0000                	.insn	2, 0x0000
    445b3706:	0000                	.insn	2, 0x0000
    445b3708:	110330cf          	fnmadd.s	f1,f6,f16,f2,rup
    445b370c:	0000                	.insn	2, 0x0000
    445b370e:	0000                	.insn	2, 0x0000
    445b3710:	110334cf          	fnmadd.s	f9,f6,f16,f2,rup
    445b3714:	0000                	.insn	2, 0x0000
    445b3716:	0000                	.insn	2, 0x0000
    445b3718:	110338cf          	fnmadd.s	f17,f6,f16,f2,rup
    445b371c:	0000                	.insn	2, 0x0000
    445b371e:	0000                	.insn	2, 0x0000
    445b3720:	11033ccf          	fnmadd.s	f25,f6,f16,f2,rup
    445b3724:	0000                	.insn	2, 0x0000
    445b3726:	0000                	.insn	2, 0x0000
    445b3728:	110340cf          	fnmadd.s	f1,f6,f16,f2,rmm
    445b372c:	0000                	.insn	2, 0x0000
    445b372e:	0000                	.insn	2, 0x0000
    445b3730:	110344cf          	fnmadd.s	f9,f6,f16,f2,rmm
    445b3734:	0000                	.insn	2, 0x0000
    445b3736:	0000                	.insn	2, 0x0000
    445b3738:	110348cf          	fnmadd.s	f17,f6,f16,f2,rmm
    445b373c:	0000                	.insn	2, 0x0000
    445b373e:	0000                	.insn	2, 0x0000
    445b3740:	11034ccf          	fnmadd.s	f25,f6,f16,f2,rmm
    445b3744:	0000                	.insn	2, 0x0000
    445b3746:	0000                	.insn	2, 0x0000
    445b3748:	110350cf          	fnmadd.s	f1,f6,f16,f2,unknown
    445b374c:	0000                	.insn	2, 0x0000
    445b374e:	0000                	.insn	2, 0x0000
    445b3750:	110354cf          	fnmadd.s	f9,f6,f16,f2,unknown
    445b3754:	0000                	.insn	2, 0x0000
    445b3756:	0000                	.insn	2, 0x0000
    445b3758:	110358cf          	fnmadd.s	f17,f6,f16,f2,unknown
    445b375c:	0000                	.insn	2, 0x0000
    445b375e:	0000                	.insn	2, 0x0000
    445b3760:	11035ccf          	fnmadd.s	f25,f6,f16,f2,unknown
    445b3764:	0000                	.insn	2, 0x0000
    445b3766:	0000                	.insn	2, 0x0000
    445b3768:	110360cf          	fnmadd.s	f1,f6,f16,f2,unknown
    445b376c:	0000                	.insn	2, 0x0000
    445b376e:	0000                	.insn	2, 0x0000
    445b3770:	110364cf          	fnmadd.s	f9,f6,f16,f2,unknown
    445b3774:	0000                	.insn	2, 0x0000
    445b3776:	0000                	.insn	2, 0x0000
    445b3778:	110368cf          	fnmadd.s	f17,f6,f16,f2,unknown
    445b377c:	0000                	.insn	2, 0x0000
    445b377e:	0000                	.insn	2, 0x0000
    445b3780:	11036ccf          	fnmadd.s	f25,f6,f16,f2,unknown
    445b3784:	0000                	.insn	2, 0x0000
    445b3786:	0000                	.insn	2, 0x0000
    445b3788:	110370cf          	fnmadd.s	f1,f6,f16,f2
    445b378c:	0000                	.insn	2, 0x0000
    445b378e:	0000                	.insn	2, 0x0000
    445b3790:	110374cf          	fnmadd.s	f9,f6,f16,f2
    445b3794:	0000                	.insn	2, 0x0000
    445b3796:	0000                	.insn	2, 0x0000
    445b3798:	110378cf          	fnmadd.s	f17,f6,f16,f2
    445b379c:	0000                	.insn	2, 0x0000
    445b379e:	0000                	.insn	2, 0x0000
    445b37a0:	11037ccf          	fnmadd.s	f25,f6,f16,f2
    445b37a4:	0000                	.insn	2, 0x0000
    445b37a6:	0000                	.insn	2, 0x0000
    445b37a8:	110380cf          	fnmadd.s	f1,f7,f16,f2,rne
    445b37ac:	0000                	.insn	2, 0x0000
    445b37ae:	0000                	.insn	2, 0x0000
    445b37b0:	110384cf          	fnmadd.s	f9,f7,f16,f2,rne
    445b37b4:	0000                	.insn	2, 0x0000
    445b37b6:	0000                	.insn	2, 0x0000
    445b37b8:	110388cf          	fnmadd.s	f17,f7,f16,f2,rne
    445b37bc:	0000                	.insn	2, 0x0000
    445b37be:	0000                	.insn	2, 0x0000
    445b37c0:	11038ccf          	fnmadd.s	f25,f7,f16,f2,rne
    445b37c4:	0000                	.insn	2, 0x0000
    445b37c6:	0000                	.insn	2, 0x0000
    445b37c8:	110390cf          	fnmadd.s	f1,f7,f16,f2,rtz
    445b37cc:	0000                	.insn	2, 0x0000
    445b37ce:	0000                	.insn	2, 0x0000
    445b37d0:	110394cf          	fnmadd.s	f9,f7,f16,f2,rtz
    445b37d4:	0000                	.insn	2, 0x0000
    445b37d6:	0000                	.insn	2, 0x0000
    445b37d8:	110398cf          	fnmadd.s	f17,f7,f16,f2,rtz
    445b37dc:	0000                	.insn	2, 0x0000
    445b37de:	0000                	.insn	2, 0x0000
    445b37e0:	11039ccf          	fnmadd.s	f25,f7,f16,f2,rtz
    445b37e4:	0000                	.insn	2, 0x0000
    445b37e6:	0000                	.insn	2, 0x0000
    445b37e8:	1103a0cf          	fnmadd.s	f1,f7,f16,f2,rdn
    445b37ec:	0000                	.insn	2, 0x0000
    445b37ee:	0000                	.insn	2, 0x0000
    445b37f0:	1103a4cf          	fnmadd.s	f9,f7,f16,f2,rdn
    445b37f4:	0000                	.insn	2, 0x0000
    445b37f6:	0000                	.insn	2, 0x0000
    445b37f8:	1103a8cf          	fnmadd.s	f17,f7,f16,f2,rdn
    445b37fc:	0000                	.insn	2, 0x0000
    445b37fe:	0000                	.insn	2, 0x0000
    445b3800:	1103accf          	fnmadd.s	f25,f7,f16,f2,rdn
    445b3804:	0000                	.insn	2, 0x0000
    445b3806:	0000                	.insn	2, 0x0000
    445b3808:	1103b0cf          	fnmadd.s	f1,f7,f16,f2,rup
    445b380c:	0000                	.insn	2, 0x0000
    445b380e:	0000                	.insn	2, 0x0000
    445b3810:	1103b4cf          	fnmadd.s	f9,f7,f16,f2,rup
    445b3814:	0000                	.insn	2, 0x0000
    445b3816:	0000                	.insn	2, 0x0000
    445b3818:	1103b8cf          	fnmadd.s	f17,f7,f16,f2,rup
    445b381c:	0000                	.insn	2, 0x0000
    445b381e:	0000                	.insn	2, 0x0000
    445b3820:	1103bccf          	fnmadd.s	f25,f7,f16,f2,rup
    445b3824:	0000                	.insn	2, 0x0000
    445b3826:	0000                	.insn	2, 0x0000
    445b3828:	1103c0cf          	fnmadd.s	f1,f7,f16,f2,rmm
    445b382c:	0000                	.insn	2, 0x0000
    445b382e:	0000                	.insn	2, 0x0000
    445b3830:	1103c4cf          	fnmadd.s	f9,f7,f16,f2,rmm
    445b3834:	0000                	.insn	2, 0x0000
    445b3836:	0000                	.insn	2, 0x0000
    445b3838:	1103c8cf          	fnmadd.s	f17,f7,f16,f2,rmm
    445b383c:	0000                	.insn	2, 0x0000
    445b383e:	0000                	.insn	2, 0x0000
    445b3840:	1103cccf          	fnmadd.s	f25,f7,f16,f2,rmm
    445b3844:	0000                	.insn	2, 0x0000
    445b3846:	0000                	.insn	2, 0x0000
    445b3848:	1103d0cf          	fnmadd.s	f1,f7,f16,f2,unknown
    445b384c:	0000                	.insn	2, 0x0000
    445b384e:	0000                	.insn	2, 0x0000
    445b3850:	1103d4cf          	fnmadd.s	f9,f7,f16,f2,unknown
    445b3854:	0000                	.insn	2, 0x0000
    445b3856:	0000                	.insn	2, 0x0000
    445b3858:	1103d8cf          	fnmadd.s	f17,f7,f16,f2,unknown
    445b385c:	0000                	.insn	2, 0x0000
    445b385e:	0000                	.insn	2, 0x0000
    445b3860:	1103dccf          	fnmadd.s	f25,f7,f16,f2,unknown
    445b3864:	0000                	.insn	2, 0x0000
    445b3866:	0000                	.insn	2, 0x0000
    445b3868:	1103e0cf          	fnmadd.s	f1,f7,f16,f2,unknown
    445b386c:	0000                	.insn	2, 0x0000
    445b386e:	0000                	.insn	2, 0x0000
    445b3870:	1103e4cf          	fnmadd.s	f9,f7,f16,f2,unknown
    445b3874:	0000                	.insn	2, 0x0000
    445b3876:	0000                	.insn	2, 0x0000
    445b3878:	1103e8cf          	fnmadd.s	f17,f7,f16,f2,unknown
    445b387c:	0000                	.insn	2, 0x0000
    445b387e:	0000                	.insn	2, 0x0000
    445b3880:	1103eccf          	fnmadd.s	f25,f7,f16,f2,unknown
    445b3884:	0000                	.insn	2, 0x0000
    445b3886:	0000                	.insn	2, 0x0000
    445b3888:	1103f0cf          	fnmadd.s	f1,f7,f16,f2
    445b388c:	0000                	.insn	2, 0x0000
    445b388e:	0000                	.insn	2, 0x0000
    445b3890:	1103f4cf          	fnmadd.s	f9,f7,f16,f2
    445b3894:	0000                	.insn	2, 0x0000
    445b3896:	0000                	.insn	2, 0x0000
    445b3898:	1103f8cf          	fnmadd.s	f17,f7,f16,f2
    445b389c:	0000                	.insn	2, 0x0000
    445b389e:	0000                	.insn	2, 0x0000
    445b38a0:	1103fccf          	fnmadd.s	f25,f7,f16,f2
    445b38a4:	0000                	.insn	2, 0x0000
    445b38a6:	0000                	.insn	2, 0x0000
    445b38a8:	00df 1104 0000      	.insn	6, 0x110400df
    445b38ae:	0000                	.insn	2, 0x0000
    445b38b0:	04df 1104 0000      	.insn	6, 0x110404df
    445b38b6:	0000                	.insn	2, 0x0000
    445b38b8:	08df 1104 0000      	.insn	6, 0x110408df
    445b38be:	0000                	.insn	2, 0x0000
    445b38c0:	0cdf 1104 0000      	.insn	6, 0x11040cdf
    445b38c6:	0000                	.insn	2, 0x0000
    445b38c8:	10df 1104 0000      	.insn	6, 0x110410df
    445b38ce:	0000                	.insn	2, 0x0000
    445b38d0:	14df 1104 0000      	.insn	6, 0x110414df
    445b38d6:	0000                	.insn	2, 0x0000
    445b38d8:	18df 1104 0000      	.insn	6, 0x110418df
    445b38de:	0000                	.insn	2, 0x0000
    445b38e0:	1cdf 1104 0000      	.insn	6, 0x11041cdf
    445b38e6:	0000                	.insn	2, 0x0000
    445b38e8:	20df 1104 0000      	.insn	6, 0x110420df
    445b38ee:	0000                	.insn	2, 0x0000
    445b38f0:	24df 1104 0000      	.insn	6, 0x110424df
    445b38f6:	0000                	.insn	2, 0x0000
    445b38f8:	28df 1104 0000      	.insn	6, 0x110428df
    445b38fe:	0000                	.insn	2, 0x0000
    445b3900:	2cdf 1104 0000      	.insn	6, 0x11042cdf
    445b3906:	0000                	.insn	2, 0x0000
    445b3908:	30df 1104 0000      	.insn	6, 0x110430df
    445b390e:	0000                	.insn	2, 0x0000
    445b3910:	34df 1104 0000      	.insn	6, 0x110434df
    445b3916:	0000                	.insn	2, 0x0000
    445b3918:	38df 1104 0000      	.insn	6, 0x110438df
    445b391e:	0000                	.insn	2, 0x0000
    445b3920:	3cdf 1104 0000      	.insn	6, 0x11043cdf
    445b3926:	0000                	.insn	2, 0x0000
    445b3928:	40df 1104 0000      	.insn	6, 0x110440df
    445b392e:	0000                	.insn	2, 0x0000
    445b3930:	44df 1104 0000      	.insn	6, 0x110444df
    445b3936:	0000                	.insn	2, 0x0000
    445b3938:	48df 1104 0000      	.insn	6, 0x110448df
    445b393e:	0000                	.insn	2, 0x0000
    445b3940:	4cdf 1104 0000      	.insn	6, 0x11044cdf
    445b3946:	0000                	.insn	2, 0x0000
    445b3948:	50df 1104 0000      	.insn	6, 0x110450df
    445b394e:	0000                	.insn	2, 0x0000
    445b3950:	54df 1104 0000      	.insn	6, 0x110454df
    445b3956:	0000                	.insn	2, 0x0000
    445b3958:	58df 1104 0000      	.insn	6, 0x110458df
    445b395e:	0000                	.insn	2, 0x0000
    445b3960:	5cdf 1104 0000      	.insn	6, 0x11045cdf
    445b3966:	0000                	.insn	2, 0x0000
    445b3968:	60df 1104 0000      	.insn	6, 0x110460df
    445b396e:	0000                	.insn	2, 0x0000
    445b3970:	64df 1104 0000      	.insn	6, 0x110464df
    445b3976:	0000                	.insn	2, 0x0000
    445b3978:	68df 1104 0000      	.insn	6, 0x110468df
    445b397e:	0000                	.insn	2, 0x0000
    445b3980:	6cdf 1104 0000      	.insn	6, 0x11046cdf
    445b3986:	0000                	.insn	2, 0x0000
    445b3988:	70df 1104 0000      	.insn	6, 0x110470df
    445b398e:	0000                	.insn	2, 0x0000
    445b3990:	74df 1104 0000      	.insn	6, 0x110474df
    445b3996:	0000                	.insn	2, 0x0000
    445b3998:	78df 1104 0000      	.insn	6, 0x110478df
    445b399e:	0000                	.insn	2, 0x0000
    445b39a0:	7cdf 1104 0000      	.insn	6, 0x11047cdf
    445b39a6:	0000                	.insn	2, 0x0000
    445b39a8:	80df 1104 0000      	.insn	6, 0x110480df
    445b39ae:	0000                	.insn	2, 0x0000
    445b39b0:	84df 1104 0000      	.insn	6, 0x110484df
    445b39b6:	0000                	.insn	2, 0x0000
    445b39b8:	88df 1104 0000      	.insn	6, 0x110488df
    445b39be:	0000                	.insn	2, 0x0000
    445b39c0:	8cdf 1104 0000      	.insn	6, 0x11048cdf
    445b39c6:	0000                	.insn	2, 0x0000
    445b39c8:	90df 1104 0000      	.insn	6, 0x110490df
    445b39ce:	0000                	.insn	2, 0x0000
    445b39d0:	94df 1104 0000      	.insn	6, 0x110494df
    445b39d6:	0000                	.insn	2, 0x0000
    445b39d8:	98df 1104 0000      	.insn	6, 0x110498df
    445b39de:	0000                	.insn	2, 0x0000
    445b39e0:	9cdf 1104 0000      	.insn	6, 0x11049cdf
    445b39e6:	0000                	.insn	2, 0x0000
    445b39e8:	a0df 1104 0000      	.insn	6, 0x1104a0df
    445b39ee:	0000                	.insn	2, 0x0000
    445b39f0:	a4df 1104 0000      	.insn	6, 0x1104a4df
    445b39f6:	0000                	.insn	2, 0x0000
    445b39f8:	a8df 1104 0000      	.insn	6, 0x1104a8df
    445b39fe:	0000                	.insn	2, 0x0000
    445b3a00:	acdf 1104 0000      	.insn	6, 0x1104acdf
    445b3a06:	0000                	.insn	2, 0x0000
    445b3a08:	b0df 1104 0000      	.insn	6, 0x1104b0df
    445b3a0e:	0000                	.insn	2, 0x0000
    445b3a10:	b4df 1104 0000      	.insn	6, 0x1104b4df
    445b3a16:	0000                	.insn	2, 0x0000
    445b3a18:	b8df 1104 0000      	.insn	6, 0x1104b8df
    445b3a1e:	0000                	.insn	2, 0x0000
    445b3a20:	bcdf 1104 0000      	.insn	6, 0x1104bcdf
    445b3a26:	0000                	.insn	2, 0x0000
    445b3a28:	c0df 1104 0000      	.insn	6, 0x1104c0df
    445b3a2e:	0000                	.insn	2, 0x0000
    445b3a30:	c4df 1104 0000      	.insn	6, 0x1104c4df
    445b3a36:	0000                	.insn	2, 0x0000
    445b3a38:	c8df 1104 0000      	.insn	6, 0x1104c8df
    445b3a3e:	0000                	.insn	2, 0x0000
    445b3a40:	ccdf 1104 0000      	.insn	6, 0x1104ccdf
    445b3a46:	0000                	.insn	2, 0x0000
    445b3a48:	d0df 1104 0000      	.insn	6, 0x1104d0df
    445b3a4e:	0000                	.insn	2, 0x0000
    445b3a50:	d4df 1104 0000      	.insn	6, 0x1104d4df
    445b3a56:	0000                	.insn	2, 0x0000
    445b3a58:	d8df 1104 0000      	.insn	6, 0x1104d8df
    445b3a5e:	0000                	.insn	2, 0x0000
    445b3a60:	dcdf 1104 0000      	.insn	6, 0x1104dcdf
    445b3a66:	0000                	.insn	2, 0x0000
    445b3a68:	e0df 1104 0000      	.insn	6, 0x1104e0df
    445b3a6e:	0000                	.insn	2, 0x0000
    445b3a70:	e4df 1104 0000      	.insn	6, 0x1104e4df
    445b3a76:	0000                	.insn	2, 0x0000
    445b3a78:	e8df 1104 0000      	.insn	6, 0x1104e8df
    445b3a7e:	0000                	.insn	2, 0x0000
    445b3a80:	ecdf 1104 0000      	.insn	6, 0x1104ecdf
    445b3a86:	0000                	.insn	2, 0x0000
    445b3a88:	f0df 1104 0000      	.insn	6, 0x1104f0df
    445b3a8e:	0000                	.insn	2, 0x0000
    445b3a90:	f4df 1104 0000      	.insn	6, 0x1104f4df
    445b3a96:	0000                	.insn	2, 0x0000
    445b3a98:	f8df 1104 0000      	.insn	6, 0x1104f8df
    445b3a9e:	0000                	.insn	2, 0x0000
    445b3aa0:	fcdf 1104 0000      	.insn	6, 0x1104fcdf
    445b3aa6:	0000                	.insn	2, 0x0000
    445b3aa8:	00df 1105 0000      	.insn	6, 0x110500df
    445b3aae:	0000                	.insn	2, 0x0000
    445b3ab0:	04df 1105 0000      	.insn	6, 0x110504df
    445b3ab6:	0000                	.insn	2, 0x0000
    445b3ab8:	08df 1105 0000      	.insn	6, 0x110508df
    445b3abe:	0000                	.insn	2, 0x0000
    445b3ac0:	0cdf 1105 0000      	.insn	6, 0x11050cdf
    445b3ac6:	0000                	.insn	2, 0x0000
    445b3ac8:	10df 1105 0000      	.insn	6, 0x110510df
    445b3ace:	0000                	.insn	2, 0x0000
    445b3ad0:	14df 1105 0000      	.insn	6, 0x110514df
    445b3ad6:	0000                	.insn	2, 0x0000
    445b3ad8:	18df 1105 0000      	.insn	6, 0x110518df
    445b3ade:	0000                	.insn	2, 0x0000
    445b3ae0:	1cdf 1105 0000      	.insn	6, 0x11051cdf
    445b3ae6:	0000                	.insn	2, 0x0000
    445b3ae8:	20df 1105 0000      	.insn	6, 0x110520df
    445b3aee:	0000                	.insn	2, 0x0000
    445b3af0:	24df 1105 0000      	.insn	6, 0x110524df
    445b3af6:	0000                	.insn	2, 0x0000
    445b3af8:	28df 1105 0000      	.insn	6, 0x110528df
    445b3afe:	0000                	.insn	2, 0x0000
    445b3b00:	2cdf 1105 0000      	.insn	6, 0x11052cdf
    445b3b06:	0000                	.insn	2, 0x0000
    445b3b08:	30df 1105 0000      	.insn	6, 0x110530df
    445b3b0e:	0000                	.insn	2, 0x0000
    445b3b10:	34df 1105 0000      	.insn	6, 0x110534df
    445b3b16:	0000                	.insn	2, 0x0000
    445b3b18:	38df 1105 0000      	.insn	6, 0x110538df
    445b3b1e:	0000                	.insn	2, 0x0000
    445b3b20:	3cdf 1105 0000      	.insn	6, 0x11053cdf
    445b3b26:	0000                	.insn	2, 0x0000
    445b3b28:	40df 1105 0000      	.insn	6, 0x110540df
    445b3b2e:	0000                	.insn	2, 0x0000
    445b3b30:	44df 1105 0000      	.insn	6, 0x110544df
    445b3b36:	0000                	.insn	2, 0x0000
    445b3b38:	48df 1105 0000      	.insn	6, 0x110548df
    445b3b3e:	0000                	.insn	2, 0x0000
    445b3b40:	4cdf 1105 0000      	.insn	6, 0x11054cdf
    445b3b46:	0000                	.insn	2, 0x0000
    445b3b48:	50df 1105 0000      	.insn	6, 0x110550df
    445b3b4e:	0000                	.insn	2, 0x0000
    445b3b50:	54df 1105 0000      	.insn	6, 0x110554df
    445b3b56:	0000                	.insn	2, 0x0000
    445b3b58:	58df 1105 0000      	.insn	6, 0x110558df
    445b3b5e:	0000                	.insn	2, 0x0000
    445b3b60:	5cdf 1105 0000      	.insn	6, 0x11055cdf
    445b3b66:	0000                	.insn	2, 0x0000
    445b3b68:	60df 1105 0000      	.insn	6, 0x110560df
    445b3b6e:	0000                	.insn	2, 0x0000
    445b3b70:	64df 1105 0000      	.insn	6, 0x110564df
    445b3b76:	0000                	.insn	2, 0x0000
    445b3b78:	68df 1105 0000      	.insn	6, 0x110568df
    445b3b7e:	0000                	.insn	2, 0x0000
    445b3b80:	6cdf 1105 0000      	.insn	6, 0x11056cdf
    445b3b86:	0000                	.insn	2, 0x0000
    445b3b88:	70df 1105 0000      	.insn	6, 0x110570df
    445b3b8e:	0000                	.insn	2, 0x0000
    445b3b90:	74df 1105 0000      	.insn	6, 0x110574df
    445b3b96:	0000                	.insn	2, 0x0000
    445b3b98:	78df 1105 0000      	.insn	6, 0x110578df
    445b3b9e:	0000                	.insn	2, 0x0000
    445b3ba0:	7cdf 1105 0000      	.insn	6, 0x11057cdf
    445b3ba6:	0000                	.insn	2, 0x0000
    445b3ba8:	80df 1105 0000      	.insn	6, 0x110580df
    445b3bae:	0000                	.insn	2, 0x0000
    445b3bb0:	84df 1105 0000      	.insn	6, 0x110584df
    445b3bb6:	0000                	.insn	2, 0x0000
    445b3bb8:	88df 1105 0000      	.insn	6, 0x110588df
    445b3bbe:	0000                	.insn	2, 0x0000
    445b3bc0:	8cdf 1105 0000      	.insn	6, 0x11058cdf
    445b3bc6:	0000                	.insn	2, 0x0000
    445b3bc8:	90df 1105 0000      	.insn	6, 0x110590df
    445b3bce:	0000                	.insn	2, 0x0000
    445b3bd0:	94df 1105 0000      	.insn	6, 0x110594df
    445b3bd6:	0000                	.insn	2, 0x0000
    445b3bd8:	98df 1105 0000      	.insn	6, 0x110598df
    445b3bde:	0000                	.insn	2, 0x0000
    445b3be0:	9cdf 1105 0000      	.insn	6, 0x11059cdf
    445b3be6:	0000                	.insn	2, 0x0000
    445b3be8:	a0df 1105 0000      	.insn	6, 0x1105a0df
    445b3bee:	0000                	.insn	2, 0x0000
    445b3bf0:	a4df 1105 0000      	.insn	6, 0x1105a4df
    445b3bf6:	0000                	.insn	2, 0x0000
    445b3bf8:	a8df 1105 0000      	.insn	6, 0x1105a8df
    445b3bfe:	0000                	.insn	2, 0x0000
    445b3c00:	acdf 1105 0000      	.insn	6, 0x1105acdf
    445b3c06:	0000                	.insn	2, 0x0000
    445b3c08:	b0df 1105 0000      	.insn	6, 0x1105b0df
    445b3c0e:	0000                	.insn	2, 0x0000
    445b3c10:	b4df 1105 0000      	.insn	6, 0x1105b4df
    445b3c16:	0000                	.insn	2, 0x0000
    445b3c18:	b8df 1105 0000      	.insn	6, 0x1105b8df
    445b3c1e:	0000                	.insn	2, 0x0000
    445b3c20:	bcdf 1105 0000      	.insn	6, 0x1105bcdf
    445b3c26:	0000                	.insn	2, 0x0000
    445b3c28:	c0df 1105 0000      	.insn	6, 0x1105c0df
    445b3c2e:	0000                	.insn	2, 0x0000
    445b3c30:	c4df 1105 0000      	.insn	6, 0x1105c4df
    445b3c36:	0000                	.insn	2, 0x0000
    445b3c38:	c8df 1105 0000      	.insn	6, 0x1105c8df
    445b3c3e:	0000                	.insn	2, 0x0000
    445b3c40:	ccdf 1105 0000      	.insn	6, 0x1105ccdf
    445b3c46:	0000                	.insn	2, 0x0000
    445b3c48:	d0df 1105 0000      	.insn	6, 0x1105d0df
    445b3c4e:	0000                	.insn	2, 0x0000
    445b3c50:	d4df 1105 0000      	.insn	6, 0x1105d4df
    445b3c56:	0000                	.insn	2, 0x0000
    445b3c58:	d8df 1105 0000      	.insn	6, 0x1105d8df
    445b3c5e:	0000                	.insn	2, 0x0000
    445b3c60:	dcdf 1105 0000      	.insn	6, 0x1105dcdf
    445b3c66:	0000                	.insn	2, 0x0000
    445b3c68:	e0df 1105 0000      	.insn	6, 0x1105e0df
    445b3c6e:	0000                	.insn	2, 0x0000
    445b3c70:	e4df 1105 0000      	.insn	6, 0x1105e4df
    445b3c76:	0000                	.insn	2, 0x0000
    445b3c78:	e8df 1105 0000      	.insn	6, 0x1105e8df
    445b3c7e:	0000                	.insn	2, 0x0000
    445b3c80:	ecdf 1105 0000      	.insn	6, 0x1105ecdf
    445b3c86:	0000                	.insn	2, 0x0000
    445b3c88:	f0df 1105 0000      	.insn	6, 0x1105f0df
    445b3c8e:	0000                	.insn	2, 0x0000
    445b3c90:	f4df 1105 0000      	.insn	6, 0x1105f4df
    445b3c96:	0000                	.insn	2, 0x0000
    445b3c98:	f8df 1105 0000      	.insn	6, 0x1105f8df
    445b3c9e:	0000                	.insn	2, 0x0000
    445b3ca0:	fcdf 1105 0000      	.insn	6, 0x1105fcdf
	...

Disassembly of section .__pagetable_map_os_0x0000000044a52000:

0000000044a52000 <__pagetable_map_os_0x0000000044a52000>:
	...
    44a520b0:	110804cf          	fnmadd.s	f9,f16,f16,f2,rne
    44a520b4:	0000                	.insn	2, 0x0000
	...

Disassembly of section .__pagetable_map_os_0x0000000041b39000:

0000000041b39000 <__pagetable_map_os_0x0000000041b39000>:
	...
    41b39bf0:	f8df 1085 0000      	.insn	6, 0x1085f8df
	...

Disassembly of section .__pagetable_map_os_0x0000000042bad000:

0000000042bad000 <__pagetable_map_os_0x0000000042bad000>:
    42bad000:	2c01                	.insn	2, 0x2c01
    42bad002:	10ad                	.insn	2, 0x10ad
	...
    42bad0f8:	0801                	.insn	2, 0x0801
    42bad0fa:	107e                	.insn	2, 0x107e
	...
    42bad3b8:	3001                	.insn	2, 0x3001
    42bad3ba:	00001127          	fsh	f0,2(x0) # 2 <CHECK_EXCP_MODE_HS>
	...

Disassembly of section .__pagetable_map_os_0x00000000449cc000:

00000000449cc000 <__pagetable_map_os_0x00000000449cc000>:
	...
    449ccad0:	18df 10ad 0000      	.insn	6, 0x10ad18df
    449ccad6:	0000                	.insn	2, 0x0000
    449ccad8:	1cdf 10ad 0000      	.insn	6, 0x10ad1cdf
	...

Disassembly of section .__pagetable_map_os_0x0000000042b4b000:

0000000042b4b000 <__pagetable_map_os_0x0000000042b4b000>:
	...
    42b4b2e8:	111008d7          	vminu.vv	v17,v17,v0,v0.t
	...
    42b4b878:	11156cd7          	.insn	4, 0x11156cd7
	...
    42b4b958:	44df 1129 0000      	.insn	6, 0x112944df
	...

Disassembly of section .__pagetable_map_os_0x0000000041f82000:

0000000041f82000 <__pagetable_map_os_0x0000000041f82000>:
	...
    41f824f8:	10e738d7          	.insn	4, 0x10e738d7
	...
    41f827f0:	1072d4d7          	vfmin.vf	v9,v7,f5,v0.t
    41f827f4:	0000                	.insn	2, 0x0000
	...

Disassembly of section .__pagetable_map_os_0x00000000447dc000:

00000000447dc000 <__pagetable_map_os_0x00000000447dc000>:
	...
    447dc168:	6001                	.insn	2, 0x6001
    447dc16a:	1079                	.insn	2, 0x1079
    447dc16c:	0000                	.insn	2, 0x0000
	...

Disassembly of section .__pagetable_map_os_0x0000000041e58000:

0000000041e58000 <__pagetable_map_os_0x0000000041e58000>:
	...
    41e58520:	1116dcd7          	vfmin.vf	v25,v17,f13,v0.t
    41e58524:	0000                	.insn	2, 0x0000
	...

Disassembly of section .__pagetable_map_os_0x00000000449f2000:

00000000449f2000 <__pagetable_map_os_0x00000000449f2000>:
	...
    449f2f80:	7c01                	.insn	2, 0x7c01
    449f2f82:	1082                	.insn	2, 0x1082
    449f2f84:	0000                	.insn	2, 0x0000
	...

Disassembly of section .__pagetable_map_os_0x000000004209f000:

000000004209f000 <__pagetable_map_os_0x000000004209f000>:
	...
    4209f838:	105a7cd7          	vsetvli	x25,x20,261
    4209f83c:	0000                	.insn	2, 0x0000
	...

Disassembly of section .__pagetable_map_os_0x00000000444fc000:

00000000444fc000 <__pagetable_map_os_0x00000000444fc000>:
	...
    444fc948:	6401                	.insn	2, 0x6401
    444fc94a:	1129                	.insn	2, 0x1129
    444fc94c:	0000                	.insn	2, 0x0000
	...

Disassembly of section .__pagetable_map_os_0x0000000044a59000:

0000000044a59000 <__pagetable_map_os_0x0000000044a59000>:
	...
    44a59408:	1116c0d7          	vminu.vx	v1,v17,x13,v0.t
    44a5940c:	0000                	.insn	2, 0x0000
	...

Disassembly of section .__pagetable_map_os_0x0000000042b6d000:

0000000042b6d000 <__pagetable_map_os_0x0000000042b6d000>:
	...
    42b6d5e8:	bc01                	.insn	2, 0xbc01
    42b6d5ea:	1116                	.insn	2, 0x1116
    42b6d5ec:	0000                	.insn	2, 0x0000
	...

Disassembly of section .__pagetable_map_os_0x00000000445af000:

00000000445af000 <__pagetable_map_os_0x00000000445af000>:
	...
    445af3f0:	4c01                	.insn	2, 0x4c01
    445af3f2:	111f 0000 0000      	.insn	6, 0x111f

Disassembly of section .__pagetable_map_os_0x00000000447d3000:

00000000447d3000 <__pagetable_map_os_0x00000000447d3000>:
	...
    447d3bc0:	58df 1118 0000      	.insn	6, 0x111858df
	...

Disassembly of section .__pagetable_map_os_0x000000004166d000:

000000004166d000 <__pagetable_map_os_0x000000004166d000>:
	...
    4166d260:	1001                	.insn	2, 0x1001
    4166d262:	00001083          	lh	x1,0(x0) # 0 <ALL_4KB_PAGES>
	...

Disassembly of section .__pagetable_map_os_0x00000000420c4000:

00000000420c4000 <__pagetable_map_os_0x00000000420c4000>:
	...
    420c4ee8:	9c01                	.insn	2, 0x9c01
    420c4eea:	1129                	.insn	2, 0x1129
    420c4eec:	0000                	.insn	2, 0x0000
	...

Disassembly of section .__pagetable_map_os_0x0000000044a67000:

0000000044a67000 <__pagetable_map_os_0x0000000044a67000>:
	...
    44a67a58:	1129a0d7          	vredminu.vs	v1,v18,v19,v0.t
    44a67a5c:	0000                	.insn	2, 0x0000
	...

Disassembly of section .__pagetable_map_os_0x0000000044a62000:

0000000044a62000 <__pagetable_map_os_0x0000000044a62000>:
	...
    44a62298:	6c01                	.insn	2, 0x6c01
    44a6229a:	1129                	.insn	2, 0x1129
    44a6229c:	0000                	.insn	2, 0x0000
	...

Disassembly of section .__pagetable_map_os_0x0000000044a5b000:

0000000044a5b000 <__pagetable_map_os_0x0000000044a5b000>:
	...
    44a5b1a8:	c001                	.insn	2, 0xc001
    44a5b1aa:	10a5                	.insn	2, 0x10a5
    44a5b1ac:	0000                	.insn	2, 0x0000
	...

Disassembly of section .__pagetable_map_os_0x0000000042970000:

0000000042970000 <__pagetable_map_os_0x0000000042970000>:
	...
    42970ab8:	111ca4d7          	vredminu.vs	v9,v17,v25,v0.t
    42970abc:	0000                	.insn	2, 0x0000
	...

Disassembly of section .__pagetable_map_os_0x00000000420e7000:

00000000420e7000 <__pagetable_map_os_0x00000000420e7000>:
	...
    420e7240:	d001                	.insn	2, 0xd001
    420e7242:	1116                	.insn	2, 0x1116
    420e7244:	0000                	.insn	2, 0x0000
	...

Disassembly of section .__pagetable_map_os_0x00000000445b4000:

00000000445b4000 <__pagetable_map_os_0x00000000445b4000>:
	...
    445b4698:	c801                	.insn	2, 0xc801
    445b469a:	1120                	.insn	2, 0x1120
    445b469c:	0000                	.insn	2, 0x0000
	...

Disassembly of section .__pagetable_map_os_0x0000000044832000:

0000000044832000 <__pagetable_map_os_0x0000000044832000>:
	...
    44832df0:	3001                	.insn	2, 0x3001
    44832df2:	1068                	.insn	2, 0x1068
    44832df4:	0000                	.insn	2, 0x0000
	...

Disassembly of section .__pagetable_map_os_0x0000000041a0c000:

0000000041a0c000 <__pagetable_map_os_0x0000000041a0c000>:
	...
    41a0c640:	b0df 1129 0000      	.insn	6, 0x1129b0df
    41a0c646:	0000                	.insn	2, 0x0000
    41a0c648:	b4df 1129 0000      	.insn	6, 0x1129b4df
	...

Disassembly of section .__pagetable_map_os_0x00000000444eb000:

00000000444eb000 <__pagetable_map_os_0x00000000444eb000>:
	...
    444ebb48:	c401                	.insn	2, 0xc401
    444ebb4a:	1120                	.insn	2, 0x1120
    444ebb4c:	0000                	.insn	2, 0x0000
	...

Disassembly of section .__pagetable_map_os_0x0000000044831000:

0000000044831000 <__pagetable_map_os_0x0000000044831000>:
	...
    448318c8:	1c01                	.insn	2, 0x1c01
    448318ca:	1128                	.insn	2, 0x1128
    448318cc:	0000                	.insn	2, 0x0000
	...

Disassembly of section .__pagetable_map_os_0x0000000044a07000:

0000000044a07000 <__pagetable_map_os_0x0000000044a07000>:
	...
    44a07390:	d801                	.insn	2, 0xd801
    44a07392:	1084                	.insn	2, 0x1084
    44a07394:	0000                	.insn	2, 0x0000
	...

Disassembly of section .__pagetable_map_os_0x0000000042136000:

0000000042136000 <__pagetable_map_os_0x0000000042136000>:
	...
    42136040:	107f98d7          	vfmin.vv	v17,v7,v31,v0.t
    42136044:	0000                	.insn	2, 0x0000
	...

Disassembly of section .__pagetable_map_os_0x0000000041667000:

0000000041667000 <__pagetable_map_os_0x0000000041667000>:
	...
    41667170:	f001                	.insn	2, 0xf001
    41667172:	1075                	.insn	2, 0x1075
    41667174:	0000                	.insn	2, 0x0000
	...

Disassembly of section .__pagetable_map_os_0x0000000041d7c000:

0000000041d7c000 <__pagetable_map_os_0x0000000041d7c000>:
	...
    41d7cba8:	9801                	.insn	2, 0x9801
    41d7cbaa:	1129                	.insn	2, 0x1129
    41d7cbac:	0000                	.insn	2, 0x0000
	...

Disassembly of section .__pagetable_map_os_0x0000000044a66000:

0000000044a66000 <__pagetable_map_os_0x0000000044a66000>:
	...
    44a66d88:	a001                	.insn	2, 0xa001
    44a66d8a:	1059                	.insn	2, 0x1059
    44a66d8c:	0000                	.insn	2, 0x0000
	...

Disassembly of section .__pagetable_map_os_0x0000000041668000:

0000000041668000 <__pagetable_map_os_0x0000000041668000>:
	...
    416683e0:	112994d7          	vfmin.vv	v9,v18,v19,v0.t
    416683e4:	0000                	.insn	2, 0x0000
	...

Disassembly of section .__pagetable_map_os_0x000000004164d000:

000000004164d000 <__pagetable_map_os_0x000000004164d000>:
	...
    4164dca8:	0401                	.insn	2, 0x0401
    4164dcaa:	10de                	.insn	2, 0x10de
    4164dcac:	0000                	.insn	2, 0x0000
	...

Disassembly of section .__pagetable_map_os_0x0000000043781000:

0000000043781000 <__pagetable_map_os_0x0000000043781000>:
	...
    43781350:	7801                	.insn	2, 0x7801
    43781352:	105a                	.insn	2, 0x105a
    43781354:	0000                	.insn	2, 0x0000
	...

Disassembly of section .__pagetable_map_os_0x000000004169e000:

000000004169e000 <__pagetable_map_os_0x000000004169e000>:
	...
    4169e3c8:	6801                	.insn	2, 0x6801
    4169e3ca:	1129                	.insn	2, 0x1129
    4169e3cc:	0000                	.insn	2, 0x0000
	...

Disassembly of section .__pagetable_map_os_0x0000000044a5a000:

0000000044a5a000 <__pagetable_map_os_0x0000000044a5a000>:
	...
    44a5aab8:	106c0cd7          	vminu.vv	v25,v6,v24,v0.t
    44a5aabc:	0000                	.insn	2, 0x0000
	...

Disassembly of section .__pagetable_map_os_0x00000000445bd000:

00000000445bd000 <__pagetable_map_os_0x00000000445bd000>:
	...
    445bdf38:	a401                	.insn	2, 0xa401
    445bdf3a:	1059                	.insn	2, 0x1059
    445bdf3c:	0000                	.insn	2, 0x0000
	...

Disassembly of section .__pagetable_map_os_0x0000000041669000:

0000000041669000 <__pagetable_map_os_0x0000000041669000>:
	...
    416695a8:	6801                	.insn	2, 0x6801
    416695aa:	1075                	.insn	2, 0x1075
    416695ac:	0000                	.insn	2, 0x0000
	...

Disassembly of section .__pagetable_map_os_0x0000000041d5a000:

0000000041d5a000 <__pagetable_map_os_0x0000000041d5a000>:
	...
    41d5afb8:	5801                	.insn	2, 0x5801
    41d5afba:	1129                	.insn	2, 0x1129
    41d5afbc:	0000                	.insn	2, 0x0000
	...

Disassembly of section .__pagetable_map_os_0x0000000044a56000:

0000000044a56000 <__pagetable_map_os_0x0000000044a56000>:
	...
    44a56d58:	1116d8d7          	vfmin.vf	v17,v17,f13,v0.t
    44a56d5c:	0000                	.insn	2, 0x0000
	...
