
/home/abdullah/RiescueC/riescue/10x_R/zjpm/testsuite/zjpm/super_sv48/tp_zjpm_2:     file format elf64-littleriscv


Disassembly of section .runtime:

0000000080000000 <_start>:
    80000000:	00000093          	li	x1,0
    80000004:	00000113          	li	x2,0
    80000008:	00000193          	li	x3,0
    8000000c:	00000213          	li	x4,0
    80000010:	00000293          	li	x5,0
    80000014:	00000313          	li	x6,0
    80000018:	00000393          	li	x7,0
    8000001c:	00000413          	li	x8,0
    80000020:	00000493          	li	x9,0
    80000024:	00000513          	li	x10,0
    80000028:	00000593          	li	x11,0
    8000002c:	00000613          	li	x12,0
    80000030:	00000693          	li	x13,0
    80000034:	00000713          	li	x14,0
    80000038:	00000793          	li	x15,0
    8000003c:	00000813          	li	x16,0
    80000040:	00000893          	li	x17,0
    80000044:	00000913          	li	x18,0
    80000048:	00000993          	li	x19,0
    8000004c:	00000a13          	li	x20,0
    80000050:	00000a93          	li	x21,0
    80000054:	00000b13          	li	x22,0
    80000058:	00000b93          	li	x23,0
    8000005c:	00000c13          	li	x24,0
    80000060:	00000c93          	li	x25,0
    80000064:	00000d13          	li	x26,0
    80000068:	00000d93          	li	x27,0
    8000006c:	00000e13          	li	x28,0
    80000070:	00000e93          	li	x29,0
    80000074:	00000f13          	li	x30,0
    80000078:	00000f93          	li	x31,0

000000008000007c <loader__load_panic_address>:
    8000007c:	00001297          	auipc	x5,0x1
    80000080:	c9828293          	addi	x5,x5,-872 # 80000d14 <eot__failed>
    80000084:	30529073          	csrw	mtvec,x5

0000000080000088 <loader__initialize_runtime>:
    80000088:	0010029b          	addiw	x5,x0,1
    8000008c:	03229293          	slli	x5,x5,0x32
    80000090:	20128293          	addi	x5,x5,513
    80000094:	00c29293          	slli	x5,x5,0xc
    80000098:	1ad28293          	addi	x5,x5,429
    8000009c:	3012a2f3          	csrrs	x5,misa,x5

00000000800000a0 <loader__set_mstatus>:
    800000a0:	000422b7          	lui	x5,0x42
    800000a4:	20a2829b          	addiw	x5,x5,522 # 4220a <SID_26_pm_different_tags_same_address_stack+0x220a>
    800000a8:	3002a2f3          	csrrs	x5,mstatus,x5

00000000800000ac <loader__init_fp_registers>:
    800000ac:	000412b7          	lui	x5,0x41
    800000b0:	5a72829b          	addiw	x5,x5,1447 # 415a7 <SID_26_pm_different_tags_same_address_stack+0x15a7>
    800000b4:	01229293          	slli	x5,x5,0x12
    800000b8:	0bf28293          	addi	x5,x5,191
    800000bc:	00e29293          	slli	x5,x5,0xe
    800000c0:	09828293          	addi	x5,x5,152
    800000c4:	0002b007          	fld	f0,0(x5)
    800000c8:	0002b087          	fld	f1,0(x5)
    800000cc:	0002b107          	fld	f2,0(x5)
    800000d0:	0002b187          	fld	f3,0(x5)
    800000d4:	0002b207          	fld	f4,0(x5)
    800000d8:	0002b287          	fld	f5,0(x5)
    800000dc:	0002b307          	fld	f6,0(x5)
    800000e0:	0002b387          	fld	f7,0(x5)
    800000e4:	0002b407          	fld	f8,0(x5)
    800000e8:	0002b487          	fld	f9,0(x5)
    800000ec:	0002b507          	fld	f10,0(x5)
    800000f0:	0002b587          	fld	f11,0(x5)
    800000f4:	0002b607          	fld	f12,0(x5)
    800000f8:	0002b687          	fld	f13,0(x5)
    800000fc:	0002b707          	fld	f14,0(x5)
    80000100:	0002b787          	fld	f15,0(x5)
    80000104:	0002b807          	fld	f16,0(x5)
    80000108:	0002b887          	fld	f17,0(x5)
    8000010c:	0002b907          	fld	f18,0(x5)
    80000110:	0002b987          	fld	f19,0(x5)
    80000114:	0002ba07          	fld	f20,0(x5)
    80000118:	0002ba87          	fld	f21,0(x5)
    8000011c:	0002bb07          	fld	f22,0(x5)
    80000120:	0002bb87          	fld	f23,0(x5)
    80000124:	0002bc07          	fld	f24,0(x5)
    80000128:	0002bc87          	fld	f25,0(x5)
    8000012c:	0002bd07          	fld	f26,0(x5)
    80000130:	0002bd87          	fld	f27,0(x5)
    80000134:	0002be07          	fld	f28,0(x5)
    80000138:	0002be87          	fld	f29,0(x5)
    8000013c:	0002bf07          	fld	f30,0(x5)
    80000140:	0002bf87          	fld	f31,0(x5)

0000000080000144 <loader__init_vector_registers>:
    80000144:	00000213          	li	x4,0
    80000148:	00400293          	li	x5,4
    8000014c:	0d800313          	li	x6,216
    80000150:	8062f257          	vsetvl	x4,x5,x6
    80000154:	5e004057          	vmv.v.x	v0,x0
    80000158:	5e0040d7          	vmv.v.x	v1,x0
    8000015c:	5e004157          	vmv.v.x	v2,x0
    80000160:	5e0041d7          	vmv.v.x	v3,x0
    80000164:	5e004257          	vmv.v.x	v4,x0
    80000168:	5e0042d7          	vmv.v.x	v5,x0
    8000016c:	5e004357          	vmv.v.x	v6,x0
    80000170:	5e0043d7          	vmv.v.x	v7,x0
    80000174:	5e004457          	vmv.v.x	v8,x0
    80000178:	5e0044d7          	vmv.v.x	v9,x0
    8000017c:	5e004557          	vmv.v.x	v10,x0
    80000180:	5e0045d7          	vmv.v.x	v11,x0
    80000184:	5e004657          	vmv.v.x	v12,x0
    80000188:	5e0046d7          	vmv.v.x	v13,x0
    8000018c:	5e004757          	vmv.v.x	v14,x0
    80000190:	5e0047d7          	vmv.v.x	v15,x0
    80000194:	5e004857          	vmv.v.x	v16,x0
    80000198:	5e0048d7          	vmv.v.x	v17,x0
    8000019c:	5e004957          	vmv.v.x	v18,x0
    800001a0:	5e0049d7          	vmv.v.x	v19,x0
    800001a4:	5e004a57          	vmv.v.x	v20,x0
    800001a8:	5e004ad7          	vmv.v.x	v21,x0
    800001ac:	5e004b57          	vmv.v.x	v22,x0
    800001b0:	5e004bd7          	vmv.v.x	v23,x0
    800001b4:	5e004c57          	vmv.v.x	v24,x0
    800001b8:	5e004cd7          	vmv.v.x	v25,x0
    800001bc:	5e004d57          	vmv.v.x	v26,x0
    800001c0:	5e004dd7          	vmv.v.x	v27,x0
    800001c4:	5e004e57          	vmv.v.x	v28,x0
    800001c8:	5e004ed7          	vmv.v.x	v29,x0
    800001cc:	5e004f57          	vmv.v.x	v30,x0
    800001d0:	5e004fd7          	vmv.v.x	v31,x0
    800001d4:	01027237          	lui	x4,0x1027
    800001d8:	4492021b          	addiw	x4,x4,1097 # 1027449 <current_test_index+0x64e2b1>
    800001dc:	00d21213          	slli	x4,x4,0xd
    800001e0:	00920213          	addi	x4,x4,9 # 9 <ECALL>
    800001e4:	00d21213          	slli	x4,x4,0xd
    800001e8:	34021073          	csrw	mscratch,x4
    800001ec:	009d9237          	lui	x4,0x9d9
    800001f0:	14021073          	csrw	sscratch,x4
    800001f4:	01027237          	lui	x4,0x1027
    800001f8:	4492021b          	addiw	x4,x4,1097 # 1027449 <current_test_index+0x64e2b1>
    800001fc:	00d21213          	slli	x4,x4,0xd
    80000200:	00920213          	addi	x4,x4,9 # 9 <ECALL>
    80000204:	00d21213          	slli	x4,x4,0xd

0000000080000208 <loader__setup_medeleg>:
    80000208:	009262b7          	lui	x5,0x926
    8000020c:	e472829b          	addiw	x5,x5,-441 # 925e47 <SID_02_henvcfg_hstatus_pmm_warl_stack+0x63e47>
    80000210:	00c29293          	slli	x5,x5,0xc
    80000214:	49b28293          	addi	x5,x5,1179
    80000218:	00c29293          	slli	x5,x5,0xc
    8000021c:	57528293          	addi	x5,x5,1397
    80000220:	00c29293          	slli	x5,x5,0xc
    80000224:	0d128293          	addi	x5,x5,209
    80000228:	30229073          	csrw	medeleg,x5

000000008000022c <loader__setup_mideleg>:
    8000022c:	28000293          	li	x5,640
    80000230:	30329073          	csrw	mideleg,x5

0000000080000234 <loader__setup_tvec>:
    80000234:	00000297          	auipc	x5,0x0
    80000238:	55828293          	addi	x5,x5,1368 # 8000078c <trap_handler_m__trap_entry>
    8000023c:	30529073          	csrw	mtvec,x5
    80000240:	00010297          	auipc	x5,0x10
    80000244:	e3828293          	addi	x5,x5,-456 # 80010078 <trap_handler_s__trap_entry>
    80000248:	10529073          	csrw	stvec,x5

000000008000024c <loader__enable_paging>:
    8000024c:	fffc80b7          	lui	x1,0xfffc8
    80000250:	0b90809b          	addiw	x1,x1,185 # fffffffffffc80b9 <MISA_BITS+0xbfffffffffdc6f0c>
    80000254:	01309093          	slli	x1,x1,0x13
    80000258:	5ad08093          	addi	x1,x1,1453
    8000025c:	00d09093          	slli	x1,x1,0xd
    80000260:	0ad08093          	addi	x1,x1,173
    80000264:	00d09093          	slli	x1,x1,0xd
    80000268:	7da08093          	addi	x1,x1,2010
    8000026c:	18009073          	csrw	satp,x1

0000000080000270 <loader__done>:
    80000270:	2cd0006f          	j	80000d3c <scheduler__init>

0000000080000274 <loader__panic>:
    80000274:	2a10006f          	j	80000d14 <eot__failed>

0000000080000278 <syscalls__syscall_check_schedule_next_test>:
    80000278:	00f0029b          	addiw	x5,x0,15
    8000027c:	01c29293          	slli	x5,x5,0x1c
    80000280:	00128293          	addi	x5,x5,1
    80000284:	01f29a63          	bne	x5,x31,80000298 <syscalls__syscall_check_fail_test>
    80000288:	00000317          	auipc	x6,0x0
    8000028c:	50430313          	addi	x6,x6,1284 # 8000078c <trap_handler_m__trap_entry>
    80000290:	30531073          	csrw	mtvec,x6
    80000294:	73c0006f          	j	800009d0 <enter_scheduler>

0000000080000298 <syscalls__syscall_check_fail_test>:
    80000298:	00f0029b          	addiw	x5,x0,15
    8000029c:	01c29293          	slli	x5,x5,0x1c
    800002a0:	00228293          	addi	x5,x5,2
    800002a4:	01f29a63          	bne	x5,x31,800002b8 <syscalls__syscall_check_end_test_without_failure>
    800002a8:	00000317          	auipc	x6,0x0
    800002ac:	4e430313          	addi	x6,x6,1252 # 8000078c <trap_handler_m__trap_entry>
    800002b0:	30531073          	csrw	mtvec,x6
    800002b4:	74c0006f          	j	80000a00 <test_failed>

00000000800002b8 <syscalls__syscall_check_end_test_without_failure>:
    800002b8:	00f0029b          	addiw	x5,x0,15
    800002bc:	01c29293          	slli	x5,x5,0x1c
    800002c0:	00328293          	addi	x5,x5,3
    800002c4:	01f29a63          	bne	x5,x31,800002d8 <syscalls__syscall_check_switch_machine_mode>
    800002c8:	00000317          	auipc	x6,0x0
    800002cc:	4c430313          	addi	x6,x6,1220 # 8000078c <trap_handler_m__trap_entry>
    800002d0:	30531073          	csrw	mtvec,x6
    800002d4:	7380006f          	j	80000a0c <os_end_test>

00000000800002d8 <syscalls__syscall_check_switch_machine_mode>:
    800002d8:	000f02b7          	lui	x5,0xf0
    800002dc:	0012829b          	addiw	x5,x5,1 # f0001 <mem7+0x4001>
    800002e0:	00c29293          	slli	x5,x5,0xc
    800002e4:	00128293          	addi	x5,x5,1
    800002e8:	0a5f8463          	beq	x31,x5,80000390 <syscalls__os_fn_f0001001>

00000000800002ec <syscalls__syscall_check_switch_super_mode>:
    800002ec:	000f02b7          	lui	x5,0xf0
    800002f0:	0012829b          	addiw	x5,x5,1 # f0001 <mem7+0x4001>
    800002f4:	00c29293          	slli	x5,x5,0xc
    800002f8:	00228293          	addi	x5,x5,2
    800002fc:	0c5f8463          	beq	x31,x5,800003c4 <syscalls__os_fn_f0001002>

0000000080000300 <syscalls__syscall_check_switch_user_mode>:
    80000300:	000f02b7          	lui	x5,0xf0
    80000304:	0012829b          	addiw	x5,x5,1 # f0001 <mem7+0x4001>
    80000308:	00c29293          	slli	x5,x5,0xc
    8000030c:	00328293          	addi	x5,x5,3
    80000310:	0c5f8263          	beq	x31,x5,800003d4 <syscalls__os_fn_f0001003>

0000000080000314 <syscalls__syscall_check_switch_test_mode>:
    80000314:	000f02b7          	lui	x5,0xf0
    80000318:	0012829b          	addiw	x5,x5,1 # f0001 <mem7+0x4001>
    8000031c:	00c29293          	slli	x5,x5,0xc
    80000320:	00428293          	addi	x5,x5,4
    80000324:	0e5f8063          	beq	x31,x5,80000404 <syscalls__os_fn_f0001004>

0000000080000328 <syscalls__syscall_machine_csr_rw>:
    80000328:	000f02b7          	lui	x5,0xf0
    8000032c:	0012829b          	addiw	x5,x5,1 # f0001 <mem7+0x4001>
    80000330:	00c29293          	slli	x5,x5,0xc
    80000334:	00528293          	addi	x5,x5,5
    80000338:	0e5f8c63          	beq	x31,x5,80000430 <syscalls__os_fn_f0001005>

000000008000033c <syscalls__syscall_supervisor_csr_rw>:
    8000033c:	000f02b7          	lui	x5,0xf0
    80000340:	0012829b          	addiw	x5,x5,1 # f0001 <mem7+0x4001>
    80000344:	00c29293          	slli	x5,x5,0xc
    80000348:	00628293          	addi	x5,x5,6
    8000034c:	105f8c63          	beq	x31,x5,80000464 <syscalls__os_fn_f0001006>

0000000080000350 <syscalls__syscall_machine_pte_read>:
    80000350:	000f02b7          	lui	x5,0xf0
    80000354:	0012829b          	addiw	x5,x5,1 # f0001 <mem7+0x4001>
    80000358:	00c29293          	slli	x5,x5,0xc
    8000035c:	00728293          	addi	x5,x5,7
    80000360:	105f8a63          	beq	x31,x5,80000474 <syscalls__os_fn_f0001007>

0000000080000364 <syscalls__syscall_machine_pte_write>:
    80000364:	000f02b7          	lui	x5,0xf0
    80000368:	0012829b          	addiw	x5,x5,1 # f0001 <mem7+0x4001>
    8000036c:	00c29293          	slli	x5,x5,0xc
    80000370:	00828293          	addi	x5,x5,8
    80000374:	225f8e63          	beq	x31,x5,800005b0 <syscalls__os_fn_f0001008>

0000000080000378 <syscalls__syscall_check_get_hart_context>:
    80000378:	000782b7          	lui	x5,0x78
    8000037c:	0012829b          	addiw	x5,x5,1 # 78001 <code_mem8+0x21001>
    80000380:	00d29293          	slli	x5,x5,0xd
    80000384:	00128293          	addi	x5,x5,1
    80000388:	365f8263          	beq	x31,x5,800006ec <syscalls__os_get_hart_context>
    8000038c:	55c0006f          	j	800008e8 <trap_handler_m__check_exception_label>

0000000080000390 <syscalls__os_fn_f0001001>:
    80000390:	000022b7          	lui	x5,0x2
    80000394:	8002829b          	addiw	x5,x5,-2048 # 1800 <FS_RANDOMIZATION+0x179c>
    80000398:	3002b073          	csrc	mstatus,x5
    8000039c:	000022b7          	lui	x5,0x2
    800003a0:	8002829b          	addiw	x5,x5,-2048 # 1800 <FS_RANDOMIZATION+0x179c>
    800003a4:	3002a073          	csrs	mstatus,x5
    800003a8:	0010029b          	addiw	x5,x0,1
    800003ac:	02729293          	slli	x5,x5,0x27
    800003b0:	3002b073          	csrc	mstatus,x5
    800003b4:	000202b7          	lui	x5,0x20
    800003b8:	0652829b          	addiw	x5,x5,101 # 20065 <_all_interrupts+0x1d5bb>
    800003bc:	00e29293          	slli	x5,x5,0xe
    800003c0:	33c0006f          	j	800006fc <syscalls__ret_from_os_fn>

00000000800003c4 <syscalls__os_fn_f0001002>:
    800003c4:	000202b7          	lui	x5,0x20
    800003c8:	0252829b          	addiw	x5,x5,37 # 20025 <_all_interrupts+0x1d57b>
    800003cc:	00e29293          	slli	x5,x5,0xe
    800003d0:	32c0006f          	j	800006fc <syscalls__ret_from_os_fn>

00000000800003d4 <syscalls__os_fn_f0001003>:
    800003d4:	000022b7          	lui	x5,0x2
    800003d8:	8002829b          	addiw	x5,x5,-2048 # 1800 <FS_RANDOMIZATION+0x179c>
    800003dc:	3002b073          	csrc	mstatus,x5
    800003e0:	00000293          	li	x5,0
    800003e4:	3002a073          	csrs	mstatus,x5
    800003e8:	0010029b          	addiw	x5,x0,1
    800003ec:	02729293          	slli	x5,x5,0x27
    800003f0:	3002b073          	csrc	mstatus,x5
    800003f4:	000202b7          	lui	x5,0x20
    800003f8:	0452829b          	addiw	x5,x5,69 # 20045 <_all_interrupts+0x1d59b>
    800003fc:	00e29293          	slli	x5,x5,0xe
    80000400:	2fc0006f          	j	800006fc <syscalls__ret_from_os_fn>

0000000080000404 <syscalls__os_fn_f0001004>:
    80000404:	000022b7          	lui	x5,0x2
    80000408:	8002829b          	addiw	x5,x5,-2048 # 1800 <FS_RANDOMIZATION+0x179c>
    8000040c:	3002b073          	csrc	mstatus,x5
    80000410:	000012b7          	lui	x5,0x1
    80000414:	8002829b          	addiw	x5,x5,-2048 # 800 <FS_RANDOMIZATION+0x79c>
    80000418:	3002a073          	csrs	mstatus,x5
    8000041c:	0010029b          	addiw	x5,x0,1
    80000420:	02729293          	slli	x5,x5,0x27
    80000424:	3002b073          	csrc	mstatus,x5
    80000428:	17823283          	ld	x5,376(x4) # 178 <FS_RANDOMIZATION+0x114>
    8000042c:	2d00006f          	j	800006fc <syscalls__ret_from_os_fn>

0000000080000430 <syscalls__os_fn_f0001005>:
    80000430:	000022b7          	lui	x5,0x2
    80000434:	8002829b          	addiw	x5,x5,-2048 # 1800 <FS_RANDOMIZATION+0x179c>
    80000438:	3002b073          	csrc	mstatus,x5
    8000043c:	000022b7          	lui	x5,0x2
    80000440:	8002829b          	addiw	x5,x5,-2048 # 1800 <FS_RANDOMIZATION+0x179c>
    80000444:	3002a073          	csrs	mstatus,x5
    80000448:	0010029b          	addiw	x5,x0,1
    8000044c:	02729293          	slli	x5,x5,0x27
    80000450:	3002b073          	csrc	mstatus,x5
    80000454:	000202b7          	lui	x5,0x20
    80000458:	0852829b          	addiw	x5,x5,133 # 20085 <_all_interrupts+0x1d5db>
    8000045c:	00e29293          	slli	x5,x5,0xe
    80000460:	29c0006f          	j	800006fc <syscalls__ret_from_os_fn>

0000000080000464 <syscalls__os_fn_f0001006>:
    80000464:	000802b7          	lui	x5,0x80
    80000468:	2152829b          	addiw	x5,x5,533 # 80215 <SID_27_pm_implicit_access_stack+0x4215>
    8000046c:	00c29293          	slli	x5,x5,0xc
    80000470:	28c0006f          	j	800006fc <syscalls__ret_from_os_fn>

0000000080000474 <syscalls__os_fn_f0001007>:
    80000474:	00041fb7          	lui	x31,0x41
    80000478:	5a7f8f9b          	addiw	x31,x31,1447 # 415a7 <SID_26_pm_different_tags_same_address_stack+0x15a7>
    8000047c:	012f9f93          	slli	x31,x31,0x12
    80000480:	0bff8f93          	addi	x31,x31,191
    80000484:	00ef9f93          	slli	x31,x31,0xe
    80000488:	0b0f8f93          	addi	x31,x31,176
    8000048c:	000fbf83          	ld	x31,0(x31)
    80000490:	000412b7          	lui	x5,0x41
    80000494:	5a72829b          	addiw	x5,x5,1447 # 415a7 <SID_26_pm_different_tags_same_address_stack+0x15a7>
    80000498:	01229293          	slli	x5,x5,0x12
    8000049c:	0bf28293          	addi	x5,x5,191
    800004a0:	00e29293          	slli	x5,x5,0xe
    800004a4:	0b828293          	addi	x5,x5,184
    800004a8:	0002b283          	ld	x5,0(x5)
    800004ac:	00041e37          	lui	x28,0x41
    800004b0:	5a7e0e1b          	addiw	x28,x28,1447 # 415a7 <SID_26_pm_different_tags_same_address_stack+0x15a7>
    800004b4:	012e1e13          	slli	x28,x28,0x12
    800004b8:	0bfe0e13          	addi	x28,x28,191
    800004bc:	00ee1e13          	slli	x28,x28,0xe
    800004c0:	0c0e0e13          	addi	x28,x28,192
    800004c4:	000e3e03          	ld	x28,0(x28)

00000000800004c8 <syscalls__pte_walk_check_glevel_without_gstage_read>:
    800004c8:	fff00f93          	li	x31,-1
    800004cc:	0ffe1063          	bne	x28,x31,800005ac <syscalls__pte_walk_fail_read>
    800004d0:	18002373          	csrr	x6,satp
    800004d4:	03c35e93          	srli	x29,x6,0x3c
    800004d8:	01431313          	slli	x6,x6,0x14
    800004dc:	01435313          	srli	x6,x6,0x14
    800004e0:	00c31313          	slli	x6,x6,0xc
    800004e4:	ff8e8e93          	addi	x29,x29,-8
    800004e8:	003e9f13          	slli	x30,x29,0x3
    800004ec:	01df0eb3          	add	x29,x30,x29
    800004f0:	01ee8e93          	addi	x29,x29,30
    800004f4:	00000f13          	li	x30,0

00000000800004f8 <syscalls__pte_walk_loop_read>:
    800004f8:	00041fb7          	lui	x31,0x41
    800004fc:	5a7f8f9b          	addiw	x31,x31,1447 # 415a7 <SID_26_pm_different_tags_same_address_stack+0x15a7>
    80000500:	012f9f93          	slli	x31,x31,0x12
    80000504:	0bff8f93          	addi	x31,x31,191
    80000508:	00ef9f93          	slli	x31,x31,0xe
    8000050c:	0b0f8f93          	addi	x31,x31,176
    80000510:	000fbf83          	ld	x31,0(x31)
    80000514:	01dfdfb3          	srl	x31,x31,x29
    80000518:	1fffff93          	andi	x31,x31,511
    8000051c:	003f9f93          	slli	x31,x31,0x3
    80000520:	01f30333          	add	x6,x6,x31
    80000524:	005f0e63          	beq	x30,x5,80000540 <syscalls__pte_walk_done_read>
    80000528:	00033f83          	ld	x31,0(x6)
    8000052c:	00afdf93          	srli	x31,x31,0xa
    80000530:	00cf9313          	slli	x6,x31,0xc
    80000534:	001f0f13          	addi	x30,x30,1
    80000538:	ff7e8e93          	addi	x29,x29,-9
    8000053c:	fbdff06f          	j	800004f8 <syscalls__pte_walk_loop_read>

0000000080000540 <syscalls__pte_walk_done_read>:
    80000540:	fff00f93          	li	x31,-1
    80000544:	05fe0a63          	beq	x28,x31,80000598 <syscalls__pte_walk_final_read>

0000000080000548 <syscalls__pte_walk_gstage_read>:
    80000548:	00041fb7          	lui	x31,0x41
    8000054c:	5a7f8f9b          	addiw	x31,x31,1447 # 415a7 <SID_26_pm_different_tags_same_address_stack+0x15a7>
    80000550:	012f9f93          	slli	x31,x31,0x12
    80000554:	0bff8f93          	addi	x31,x31,191
    80000558:	00ef9f93          	slli	x31,x31,0xe
    8000055c:	0b0f8f93          	addi	x31,x31,176
    80000560:	006fb023          	sd	x6,0(x31)
    80000564:	000e0293          	mv	x5,x28
    80000568:	fff00e13          	li	x28,-1
    8000056c:	68002373          	csrr	x6,hgatp
    80000570:	03c35e93          	srli	x29,x6,0x3c
    80000574:	01431313          	slli	x6,x6,0x14
    80000578:	01435313          	srli	x6,x6,0x14
    8000057c:	00c31313          	slli	x6,x6,0xc
    80000580:	ff8e8e93          	addi	x29,x29,-8
    80000584:	003e9f13          	slli	x30,x29,0x3
    80000588:	01df0eb3          	add	x29,x30,x29
    8000058c:	01ee8e93          	addi	x29,x29,30
    80000590:	00000f13          	li	x30,0
    80000594:	f65ff06f          	j	800004f8 <syscalls__pte_walk_loop_read>

0000000080000598 <syscalls__pte_walk_final_read>:
    80000598:	00033383          	ld	x7,0(x6)
    8000059c:	341022f3          	csrr	x5,mepc
    800005a0:	00428293          	addi	x5,x5,4
    800005a4:	16523c23          	sd	x5,376(x4) # 178 <FS_RANDOMIZATION+0x114>
    800005a8:	e5dff06f          	j	80000404 <syscalls__os_fn_f0001004>

00000000800005ac <syscalls__pte_walk_fail_read>:
    800005ac:	4540006f          	j	80000a00 <test_failed>

00000000800005b0 <syscalls__os_fn_f0001008>:
    800005b0:	00041fb7          	lui	x31,0x41
    800005b4:	5a7f8f9b          	addiw	x31,x31,1447 # 415a7 <SID_26_pm_different_tags_same_address_stack+0x15a7>
    800005b8:	012f9f93          	slli	x31,x31,0x12
    800005bc:	0bff8f93          	addi	x31,x31,191
    800005c0:	00ef9f93          	slli	x31,x31,0xe
    800005c4:	0b0f8f93          	addi	x31,x31,176
    800005c8:	000fbf83          	ld	x31,0(x31)
    800005cc:	000412b7          	lui	x5,0x41
    800005d0:	5a72829b          	addiw	x5,x5,1447 # 415a7 <SID_26_pm_different_tags_same_address_stack+0x15a7>
    800005d4:	01229293          	slli	x5,x5,0x12
    800005d8:	0bf28293          	addi	x5,x5,191
    800005dc:	00e29293          	slli	x5,x5,0xe
    800005e0:	0b828293          	addi	x5,x5,184
    800005e4:	0002b283          	ld	x5,0(x5)
    800005e8:	00041e37          	lui	x28,0x41
    800005ec:	5a7e0e1b          	addiw	x28,x28,1447 # 415a7 <SID_26_pm_different_tags_same_address_stack+0x15a7>
    800005f0:	012e1e13          	slli	x28,x28,0x12
    800005f4:	0bfe0e13          	addi	x28,x28,191
    800005f8:	00ee1e13          	slli	x28,x28,0xe
    800005fc:	0c0e0e13          	addi	x28,x28,192
    80000600:	000e3e03          	ld	x28,0(x28)

0000000080000604 <syscalls__pte_walk_check_glevel_without_gstage_write>:
    80000604:	fff00f93          	li	x31,-1
    80000608:	0ffe1063          	bne	x28,x31,800006e8 <syscalls__pte_walk_fail_write>
    8000060c:	18002373          	csrr	x6,satp
    80000610:	03c35e93          	srli	x29,x6,0x3c
    80000614:	01431313          	slli	x6,x6,0x14
    80000618:	01435313          	srli	x6,x6,0x14
    8000061c:	00c31313          	slli	x6,x6,0xc
    80000620:	ff8e8e93          	addi	x29,x29,-8
    80000624:	003e9f13          	slli	x30,x29,0x3
    80000628:	01df0eb3          	add	x29,x30,x29
    8000062c:	01ee8e93          	addi	x29,x29,30
    80000630:	00000f13          	li	x30,0

0000000080000634 <syscalls__pte_walk_loop_write>:
    80000634:	00041fb7          	lui	x31,0x41
    80000638:	5a7f8f9b          	addiw	x31,x31,1447 # 415a7 <SID_26_pm_different_tags_same_address_stack+0x15a7>
    8000063c:	012f9f93          	slli	x31,x31,0x12
    80000640:	0bff8f93          	addi	x31,x31,191
    80000644:	00ef9f93          	slli	x31,x31,0xe
    80000648:	0b0f8f93          	addi	x31,x31,176
    8000064c:	000fbf83          	ld	x31,0(x31)
    80000650:	01dfdfb3          	srl	x31,x31,x29
    80000654:	1fffff93          	andi	x31,x31,511
    80000658:	003f9f93          	slli	x31,x31,0x3
    8000065c:	01f30333          	add	x6,x6,x31
    80000660:	005f0e63          	beq	x30,x5,8000067c <syscalls__pte_walk_done_write>
    80000664:	00033f83          	ld	x31,0(x6)
    80000668:	00afdf93          	srli	x31,x31,0xa
    8000066c:	00cf9313          	slli	x6,x31,0xc
    80000670:	001f0f13          	addi	x30,x30,1
    80000674:	ff7e8e93          	addi	x29,x29,-9
    80000678:	fbdff06f          	j	80000634 <syscalls__pte_walk_loop_write>

000000008000067c <syscalls__pte_walk_done_write>:
    8000067c:	fff00f93          	li	x31,-1
    80000680:	05fe0a63          	beq	x28,x31,800006d4 <syscalls__pte_walk_final_write>

0000000080000684 <syscalls__pte_walk_gstage_write>:
    80000684:	00041fb7          	lui	x31,0x41
    80000688:	5a7f8f9b          	addiw	x31,x31,1447 # 415a7 <SID_26_pm_different_tags_same_address_stack+0x15a7>
    8000068c:	012f9f93          	slli	x31,x31,0x12
    80000690:	0bff8f93          	addi	x31,x31,191
    80000694:	00ef9f93          	slli	x31,x31,0xe
    80000698:	0b0f8f93          	addi	x31,x31,176
    8000069c:	006fb023          	sd	x6,0(x31)
    800006a0:	000e0293          	mv	x5,x28
    800006a4:	fff00e13          	li	x28,-1
    800006a8:	68002373          	csrr	x6,hgatp
    800006ac:	03c35e93          	srli	x29,x6,0x3c
    800006b0:	01431313          	slli	x6,x6,0x14
    800006b4:	01435313          	srli	x6,x6,0x14
    800006b8:	00c31313          	slli	x6,x6,0xc
    800006bc:	ff8e8e93          	addi	x29,x29,-8
    800006c0:	003e9f13          	slli	x30,x29,0x3
    800006c4:	01df0eb3          	add	x29,x30,x29
    800006c8:	01ee8e93          	addi	x29,x29,30
    800006cc:	00000f13          	li	x30,0
    800006d0:	f65ff06f          	j	80000634 <syscalls__pte_walk_loop_write>

00000000800006d4 <syscalls__pte_walk_final_write>:
    800006d4:	00733023          	sd	x7,0(x6)
    800006d8:	341022f3          	csrr	x5,mepc
    800006dc:	00428293          	addi	x5,x5,4
    800006e0:	16523c23          	sd	x5,376(x4) # 178 <FS_RANDOMIZATION+0x114>
    800006e4:	d21ff06f          	j	80000404 <syscalls__os_fn_f0001004>

00000000800006e8 <syscalls__pte_walk_fail_write>:
    800006e8:	3180006f          	j	80000a00 <test_failed>

00000000800006ec <syscalls__os_get_hart_context>:
    800006ec:	14002573          	csrr	x10,sscratch
    800006f0:	341022f3          	csrr	x5,mepc
    800006f4:	00428293          	addi	x5,x5,4
    800006f8:	0040006f          	j	800006fc <syscalls__ret_from_os_fn>

00000000800006fc <syscalls__ret_from_os_fn>:
    800006fc:	34102373          	csrr	x6,mepc
    80000700:	00430313          	addi	x6,x6,4
    80000704:	16623c23          	sd	x6,376(x4) # 178 <FS_RANDOMIZATION+0x114>
    80000708:	34129073          	csrw	mepc,x5
    8000070c:	fff00f93          	li	x31,-1
    80000710:	2a40006f          	j	800009b4 <trap_handler_m__skip_xepc_write>

0000000080000714 <trap_handler_m__invalid_interrupt>:
    80000714:	2ec0006f          	j	80000a00 <test_failed>

0000000080000718 <trap_handler_m__clear_all_interrupts>:
    80000718:	34401073          	csrw	mip,x0
    8000071c:	30200073          	mret

0000000080000720 <trap_handler_m___CLEAR_SSI>:
    80000720:	00200293          	li	x5,2
    80000724:	3442b073          	csrc	mip,x5
    80000728:	30200073          	mret

000000008000072c <trap_handler_m___CLEAR_MSI>:
    8000072c:	00800293          	li	x5,8
    80000730:	3442b073          	csrc	mip,x5
    80000734:	30200073          	mret

0000000080000738 <trap_handler_m___CLEAR_STI>:
    80000738:	02000293          	li	x5,32
    8000073c:	3442b073          	csrc	mip,x5
    80000740:	30200073          	mret

0000000080000744 <trap_handler_m___CLEAR_MTI>:
    80000744:	08000293          	li	x5,128
    80000748:	3442b073          	csrc	mip,x5
    8000074c:	30200073          	mret

0000000080000750 <trap_handler_m___CLEAR_SEI>:
    80000750:	20000293          	li	x5,512
    80000754:	3442b073          	csrc	mip,x5
    80000758:	30200073          	mret

000000008000075c <trap_handler_m___CLEAR_MEI>:
    8000075c:	000012b7          	lui	x5,0x1
    80000760:	8002829b          	addiw	x5,x5,-2048 # 800 <FS_RANDOMIZATION+0x79c>
    80000764:	3442b073          	csrc	mip,x5
    80000768:	30200073          	mret

000000008000076c <trap_handler_m___CLEAR_COI>:
    8000076c:	000022b7          	lui	x5,0x2
    80000770:	3442b073          	csrc	mip,x5
    80000774:	30200073          	mret

0000000080000778 <trap_handler_m__clear_highest_priority_interrupt>:
    80000778:	344022f3          	csrr	x5,mip
    8000077c:	40500333          	neg	x6,x5
    80000780:	0062f2b3          	and	x5,x5,x6
    80000784:	3442b073          	csrc	mip,x5
    80000788:	30200073          	mret

000000008000078c <trap_handler_m__trap_entry>:
    8000078c:	0fc0006f          	j	80000888 <trap_handler_m__trap_handler>

0000000080000790 <trap_handler_m__interrupt_vector_table>:
    80000790:	f91ff06f          	j	80000720 <trap_handler_m___CLEAR_SSI>
    80000794:	f81ff06f          	j	80000714 <trap_handler_m__invalid_interrupt>
    80000798:	f95ff06f          	j	8000072c <trap_handler_m___CLEAR_MSI>
    8000079c:	f79ff06f          	j	80000714 <trap_handler_m__invalid_interrupt>
    800007a0:	f99ff06f          	j	80000738 <trap_handler_m___CLEAR_STI>
    800007a4:	f71ff06f          	j	80000714 <trap_handler_m__invalid_interrupt>
    800007a8:	f9dff06f          	j	80000744 <trap_handler_m___CLEAR_MTI>
    800007ac:	f69ff06f          	j	80000714 <trap_handler_m__invalid_interrupt>
    800007b0:	fa1ff06f          	j	80000750 <trap_handler_m___CLEAR_SEI>
    800007b4:	f61ff06f          	j	80000714 <trap_handler_m__invalid_interrupt>
    800007b8:	fa5ff06f          	j	8000075c <trap_handler_m___CLEAR_MEI>
    800007bc:	f59ff06f          	j	80000714 <trap_handler_m__invalid_interrupt>
    800007c0:	fadff06f          	j	8000076c <trap_handler_m___CLEAR_COI>
    800007c4:	f51ff06f          	j	80000714 <trap_handler_m__invalid_interrupt>
    800007c8:	f4dff06f          	j	80000714 <trap_handler_m__invalid_interrupt>
    800007cc:	fadff06f          	j	80000778 <trap_handler_m__clear_highest_priority_interrupt>
    800007d0:	fa9ff06f          	j	80000778 <trap_handler_m__clear_highest_priority_interrupt>
    800007d4:	fa5ff06f          	j	80000778 <trap_handler_m__clear_highest_priority_interrupt>
    800007d8:	fa1ff06f          	j	80000778 <trap_handler_m__clear_highest_priority_interrupt>
    800007dc:	f9dff06f          	j	80000778 <trap_handler_m__clear_highest_priority_interrupt>
    800007e0:	f99ff06f          	j	80000778 <trap_handler_m__clear_highest_priority_interrupt>
    800007e4:	f95ff06f          	j	80000778 <trap_handler_m__clear_highest_priority_interrupt>
    800007e8:	f91ff06f          	j	80000778 <trap_handler_m__clear_highest_priority_interrupt>
    800007ec:	f8dff06f          	j	80000778 <trap_handler_m__clear_highest_priority_interrupt>
    800007f0:	f89ff06f          	j	80000778 <trap_handler_m__clear_highest_priority_interrupt>
    800007f4:	f85ff06f          	j	80000778 <trap_handler_m__clear_highest_priority_interrupt>
    800007f8:	f81ff06f          	j	80000778 <trap_handler_m__clear_highest_priority_interrupt>
    800007fc:	f7dff06f          	j	80000778 <trap_handler_m__clear_highest_priority_interrupt>
    80000800:	f79ff06f          	j	80000778 <trap_handler_m__clear_highest_priority_interrupt>
    80000804:	f75ff06f          	j	80000778 <trap_handler_m__clear_highest_priority_interrupt>
    80000808:	f71ff06f          	j	80000778 <trap_handler_m__clear_highest_priority_interrupt>
    8000080c:	f6dff06f          	j	80000778 <trap_handler_m__clear_highest_priority_interrupt>
    80000810:	f69ff06f          	j	80000778 <trap_handler_m__clear_highest_priority_interrupt>
    80000814:	f65ff06f          	j	80000778 <trap_handler_m__clear_highest_priority_interrupt>
    80000818:	f61ff06f          	j	80000778 <trap_handler_m__clear_highest_priority_interrupt>
    8000081c:	f5dff06f          	j	80000778 <trap_handler_m__clear_highest_priority_interrupt>
    80000820:	f59ff06f          	j	80000778 <trap_handler_m__clear_highest_priority_interrupt>
    80000824:	f55ff06f          	j	80000778 <trap_handler_m__clear_highest_priority_interrupt>
    80000828:	f51ff06f          	j	80000778 <trap_handler_m__clear_highest_priority_interrupt>
    8000082c:	f4dff06f          	j	80000778 <trap_handler_m__clear_highest_priority_interrupt>
    80000830:	f49ff06f          	j	80000778 <trap_handler_m__clear_highest_priority_interrupt>
    80000834:	f45ff06f          	j	80000778 <trap_handler_m__clear_highest_priority_interrupt>
    80000838:	f41ff06f          	j	80000778 <trap_handler_m__clear_highest_priority_interrupt>
    8000083c:	f3dff06f          	j	80000778 <trap_handler_m__clear_highest_priority_interrupt>
    80000840:	f39ff06f          	j	80000778 <trap_handler_m__clear_highest_priority_interrupt>
    80000844:	f35ff06f          	j	80000778 <trap_handler_m__clear_highest_priority_interrupt>
    80000848:	f31ff06f          	j	80000778 <trap_handler_m__clear_highest_priority_interrupt>
    8000084c:	f2dff06f          	j	80000778 <trap_handler_m__clear_highest_priority_interrupt>
    80000850:	f29ff06f          	j	80000778 <trap_handler_m__clear_highest_priority_interrupt>
    80000854:	f25ff06f          	j	80000778 <trap_handler_m__clear_highest_priority_interrupt>
    80000858:	f21ff06f          	j	80000778 <trap_handler_m__clear_highest_priority_interrupt>
    8000085c:	f1dff06f          	j	80000778 <trap_handler_m__clear_highest_priority_interrupt>
    80000860:	f19ff06f          	j	80000778 <trap_handler_m__clear_highest_priority_interrupt>
    80000864:	f15ff06f          	j	80000778 <trap_handler_m__clear_highest_priority_interrupt>
    80000868:	f11ff06f          	j	80000778 <trap_handler_m__clear_highest_priority_interrupt>
    8000086c:	f0dff06f          	j	80000778 <trap_handler_m__clear_highest_priority_interrupt>
    80000870:	f09ff06f          	j	80000778 <trap_handler_m__clear_highest_priority_interrupt>
    80000874:	f05ff06f          	j	80000778 <trap_handler_m__clear_highest_priority_interrupt>
    80000878:	f01ff06f          	j	80000778 <trap_handler_m__clear_highest_priority_interrupt>
    8000087c:	efdff06f          	j	80000778 <trap_handler_m__clear_highest_priority_interrupt>
    80000880:	ef9ff06f          	j	80000778 <trap_handler_m__clear_highest_priority_interrupt>
    80000884:	ef5ff06f          	j	80000778 <trap_handler_m__clear_highest_priority_interrupt>

0000000080000888 <trap_handler_m__trap_handler>:
    80000888:	342022f3          	csrr	x5,mcause
    8000088c:	fff0031b          	addiw	x6,x0,-1
    80000890:	03f31313          	slli	x6,x6,0x3f
    80000894:	00537333          	and	x6,x6,x5
    80000898:	02030263          	beqz	x6,800008bc <trap_handler_m__exception_path>

000000008000089c <trap_handler_m__interrupt_handler>:
    8000089c:	fff0031b          	addiw	x6,x0,-1
    800008a0:	03f31313          	slli	x6,x6,0x3f
    800008a4:	0062c2b3          	xor	x5,x5,x6
    800008a8:	00000317          	auipc	x6,0x0
    800008ac:	ee430313          	addi	x6,x6,-284 # 8000078c <trap_handler_m__trap_entry>
    800008b0:	00229293          	slli	x5,x5,0x2
    800008b4:	005302b3          	add	x5,x6,x5
    800008b8:	00028067          	jr	x5 # 2000 <FS_RANDOMIZATION+0x1f9c>

00000000800008bc <trap_handler_m__exception_path>:
    800008bc:	34021273          	csrrw	x4,mscratch,x4
    800008c0:	00000297          	auipc	x5,0x0
    800008c4:	10828293          	addi	x5,x5,264 # 800009c8 <trap_handler_m__trap_panic>
    800008c8:	30529073          	csrw	mtvec,x5
    800008cc:	0040006f          	j	800008d0 <trap_handler_m__excp_entry>

00000000800008d0 <trap_handler_m__excp_entry>:
    800008d0:	34202373          	csrr	x6,mcause
    800008d4:	00800293          	li	x5,8
    800008d8:	00534863          	blt	x6,x5,800008e8 <trap_handler_m__check_exception_label>
    800008dc:	00b00293          	li	x5,11
    800008e0:	0062c463          	blt	x5,x6,800008e8 <trap_handler_m__check_exception_label>
    800008e4:	995ff06f          	j	80000278 <syscalls__syscall_check_schedule_next_test>

00000000800008e8 <trap_handler_m__check_exception_label>:
    800008e8:	04623c23          	sd	x6,88(x4) # 58 <XLEN+0x18>
    800008ec:	341022f3          	csrr	x5,mepc
    800008f0:	02523423          	sd	x5,40(x4) # 28 <SECURE_ACCESS_PROBABILITY+0xa>
    800008f4:	01820283          	lb	x5,24(x4) # 18 <STORE_GUEST_PAGE_FAULT+0x1>
    800008f8:	00029863          	bnez	x5,80000908 <trap_handler_m__check_excp>
    800008fc:	00128293          	addi	x5,x5,1
    80000900:	00520c23          	sb	x5,24(x4) # 18 <STORE_GUEST_PAGE_FAULT+0x1>
    80000904:	0980006f          	j	8000099c <trap_handler_m__ecall_from_machine>

0000000080000908 <trap_handler_m__check_excp>:
    80000908:	06820293          	addi	x5,x4,104 # 68 <FS_RANDOMIZATION+0x4>
    8000090c:	0802b2af          	amoswap.d	x5,x0,(x5)
    80000910:	00028663          	beqz	x5,8000091c <trap_handler_m__skip_mode_check>
    80000914:	00100393          	li	x7,1
    80000918:	0e729463          	bne	x5,x7,80000a00 <test_failed>

000000008000091c <trap_handler_m__skip_mode_check>:
    8000091c:	05020293          	addi	x5,x4,80 # 50 <XLEN+0x10>
    80000920:	0802b2af          	amoswap.d	x5,x0,(x5)
    80000924:	0c531e63          	bne	x6,x5,80000a00 <test_failed>
    80000928:	03820293          	addi	x5,x4,56 # 38 <SECURE_ACCESS_PROBABILITY+0x1a>
    8000092c:	0802b2af          	amoswap.d	x5,x0,(x5)
    80000930:	06029463          	bnez	x5,80000998 <trap_handler_m__skip_gva_check>
    80000934:	02020313          	addi	x6,x4,32 # 20 <SECURE_ACCESS_PROBABILITY+0x2>
    80000938:	0803332f          	amoswap.d	x6,x0,(x6)
    8000093c:	02820293          	addi	x5,x4,40 # 28 <SECURE_ACCESS_PROBABILITY+0xa>
    80000940:	0802b2af          	amoswap.d	x5,x0,(x5)
    80000944:	0a531e63          	bne	x6,x5,80000a00 <test_failed>
    80000948:	04020293          	addi	x5,x4,64 # 40 <XLEN>
    8000094c:	0802b2af          	amoswap.d	x5,x0,(x5)
    80000950:	00028663          	beqz	x5,8000095c <trap_handler_m__skip_nonzero_tval_check>

0000000080000954 <trap_handler_m__nonzero_tval_check>:
    80000954:	34302373          	csrr	x6,mtval
    80000958:	0a531463          	bne	x6,x5,80000a00 <test_failed>

000000008000095c <trap_handler_m__skip_nonzero_tval_check>:
    8000095c:	04820293          	addi	x5,x4,72 # 48 <XLEN+0x8>
    80000960:	0802b2af          	amoswap.d	x5,x0,(x5)
    80000964:	00028663          	beqz	x5,80000970 <trap_handler_m__skip_nonzero_htval_check>

0000000080000968 <trap_handler_m__nonzero_htval_check>:
    80000968:	34b02373          	csrr	x6,0x34b
    8000096c:	08531a63          	bne	x6,x5,80000a00 <test_failed>

0000000080000970 <trap_handler_m__skip_nonzero_htval_check>:
    80000970:	06020293          	addi	x5,x4,96 # 60 <XLEN+0x20>
    80000974:	0802b2af          	amoswap.d	x5,x0,(x5)
    80000978:	02028063          	beqz	x5,80000998 <trap_handler_m__skip_gva_check>

000000008000097c <trap_handler_m__gva_check>:
    8000097c:	30002373          	csrr	x6,mstatus
    80000980:	02635313          	srli	x6,x6,0x26
    80000984:	00137313          	andi	x6,x6,1
    80000988:	06030c63          	beqz	x6,80000a00 <test_failed>
    8000098c:	0010031b          	addiw	x6,x0,1
    80000990:	02631313          	slli	x6,x6,0x26
    80000994:	30033073          	csrc	mstatus,x6

0000000080000998 <trap_handler_m__skip_gva_check>:
    80000998:	0040006f          	j	8000099c <trap_handler_m__ecall_from_machine>

000000008000099c <trap_handler_m__ecall_from_machine>:
    8000099c:	03020293          	addi	x5,x4,48 # 30 <SECURE_ACCESS_PROBABILITY+0x12>
    800009a0:	0802b2af          	amoswap.d	x5,x0,(x5)
    800009a4:	07020313          	addi	x6,x4,112 # 70 <FS_RANDOMIZATION+0xc>
    800009a8:	0803332f          	amoswap.d	x6,x0,(x6)
    800009ac:	00031463          	bnez	x6,800009b4 <trap_handler_m__skip_xepc_write>
    800009b0:	34129073          	csrw	mepc,x5

00000000800009b4 <trap_handler_m__skip_xepc_write>:
    800009b4:	00000317          	auipc	x6,0x0
    800009b8:	dd830313          	addi	x6,x6,-552 # 8000078c <trap_handler_m__trap_entry>
    800009bc:	30531073          	csrw	mtvec,x6
    800009c0:	34021273          	csrrw	x4,mscratch,x4
    800009c4:	30200073          	mret

00000000800009c8 <trap_handler_m__trap_panic>:
    800009c8:	00000193          	li	x3,0
    800009cc:	3240006f          	j	80000cf0 <eot__end_test>

00000000800009d0 <enter_scheduler>:
    800009d0:	0002f337          	lui	x6,0x2f
    800009d4:	ab73031b          	addiw	x6,x6,-1353 # 2eab7 <_all_interrupts+0x2c00d>
    800009d8:	00e31313          	slli	x6,x6,0xe
    800009dc:	0de30313          	addi	x6,x6,222
    800009e0:	02628063          	beq	x5,x6,80000a00 <test_failed>
    800009e4:	00000513          	li	x10,0
    800009e8:	030000ef          	jal	80000a18 <rvcp_print_test_result>
    800009ec:	3880006f          	j	80000d74 <scheduler__dispatch>

00000000800009f0 <test_passed>:
    800009f0:	34021273          	csrrw	x4,mscratch,x4
    800009f4:	00000513          	li	x10,0
    800009f8:	020000ef          	jal	80000a18 <rvcp_print_test_result>
    800009fc:	3780006f          	j	80000d74 <scheduler__dispatch>

0000000080000a00 <test_failed>:
    80000a00:	34021273          	csrrw	x4,mscratch,x4
    80000a04:	00300193          	li	x3,3
    80000a08:	2e80006f          	j	80000cf0 <eot__end_test>

0000000080000a0c <os_end_test>:
    80000a0c:	34021273          	csrrw	x4,mscratch,x4
    80000a10:	00100193          	li	x3,1
    80000a14:	2dc0006f          	j	80000cf0 <eot__end_test>

0000000080000a18 <rvcp_print_test_result>:
    80000a18:	00050e13          	mv	x28,x10
    80000a1c:	19823283          	ld	x5,408(x4) # 198 <FS_RANDOMIZATION+0x134>
    80000a20:	0010031b          	addiw	x6,x0,1
    80000a24:	02031313          	slli	x6,x6,0x20
    80000a28:	ffe30313          	addi	x6,x6,-2
    80000a2c:	22628863          	beq	x5,x6,80000c5c <rvcp_print_test_result+0x244>
    80000a30:	0010031b          	addiw	x6,x0,1
    80000a34:	02031313          	slli	x6,x6,0x20
    80000a38:	fff30313          	addi	x6,x6,-1
    80000a3c:	22628063          	beq	x5,x6,80000c5c <rvcp_print_test_result+0x244>
    80000a40:	2002ce63          	bltz	x5,80000c5c <rvcp_print_test_result+0x244>
    80000a44:	00000317          	auipc	x6,0x0
    80000a48:	5a830313          	addi	x6,x6,1448 # 80000fec <dtest_descriptor_table>
    80000a4c:	00329393          	slli	x7,x5,0x3
    80000a50:	00730333          	add	x6,x6,x7
    80000a54:	00033e83          	ld	x29,0(x6)
    80000a58:	00041f37          	lui	x30,0x41
    80000a5c:	5a7f0f1b          	addiw	x30,x30,1447 # 415a7 <SID_26_pm_different_tags_same_address_stack+0x15a7>
    80000a60:	012f1f13          	slli	x30,x30,0x12
    80000a64:	0bff0f13          	addi	x30,x30,191
    80000a68:	00ef1f13          	slli	x30,x30,0xe
    80000a6c:	030f0f13          	addi	x30,x30,48
    80000a70:	000f4283          	lbu	x5,0(x30)
    80000a74:	02028663          	beqz	x5,80000aa0 <rvcp_print_test_result+0x88>
    80000a78:	1010031b          	addiw	x6,x0,257
    80000a7c:	03031313          	slli	x6,x6,0x30
    80000a80:	005362b3          	or	x5,x6,x5
    80000a84:	effff317          	auipc	x6,0xeffff
    80000a88:	57c30313          	addi	x6,x6,1404 # 70000000 <tohost>
    80000a8c:	00033383          	ld	x7,0(x6)
    80000a90:	fe039ee3          	bnez	x7,80000a8c <rvcp_print_test_result+0x74>
    80000a94:	00533023          	sd	x5,0(x6)
    80000a98:	001f0f13          	addi	x30,x30,1
    80000a9c:	fd5ff06f          	j	80000a70 <rvcp_print_test_result+0x58>
    80000aa0:	00041f37          	lui	x30,0x41
    80000aa4:	5a7f0f1b          	addiw	x30,x30,1447 # 415a7 <SID_26_pm_different_tags_same_address_stack+0x15a7>
    80000aa8:	012f1f13          	slli	x30,x30,0x12
    80000aac:	0bff0f13          	addi	x30,x30,191
    80000ab0:	00ef1f13          	slli	x30,x30,0xe
    80000ab4:	041f0f13          	addi	x30,x30,65
    80000ab8:	000f4283          	lbu	x5,0(x30)
    80000abc:	02028663          	beqz	x5,80000ae8 <rvcp_print_test_result+0xd0>
    80000ac0:	1010031b          	addiw	x6,x0,257
    80000ac4:	03031313          	slli	x6,x6,0x30
    80000ac8:	005362b3          	or	x5,x6,x5
    80000acc:	effff317          	auipc	x6,0xeffff
    80000ad0:	53430313          	addi	x6,x6,1332 # 70000000 <tohost>
    80000ad4:	00033383          	ld	x7,0(x6)
    80000ad8:	fe039ee3          	bnez	x7,80000ad4 <rvcp_print_test_result+0xbc>
    80000adc:	00533023          	sd	x5,0(x6)
    80000ae0:	001f0f13          	addi	x30,x30,1
    80000ae4:	fd5ff06f          	j	80000ab8 <rvcp_print_test_result+0xa0>
    80000ae8:	00041f37          	lui	x30,0x41
    80000aec:	5a7f0f1b          	addiw	x30,x30,1447 # 415a7 <SID_26_pm_different_tags_same_address_stack+0x15a7>
    80000af0:	012f1f13          	slli	x30,x30,0x12
    80000af4:	0bff0f13          	addi	x30,x30,191
    80000af8:	00ef1f13          	slli	x30,x30,0xe
    80000afc:	059f0f13          	addi	x30,x30,89
    80000b00:	000f4283          	lbu	x5,0(x30)
    80000b04:	02028663          	beqz	x5,80000b30 <rvcp_print_test_result+0x118>
    80000b08:	1010031b          	addiw	x6,x0,257
    80000b0c:	03031313          	slli	x6,x6,0x30
    80000b10:	005362b3          	or	x5,x6,x5
    80000b14:	effff317          	auipc	x6,0xeffff
    80000b18:	4ec30313          	addi	x6,x6,1260 # 70000000 <tohost>
    80000b1c:	00033383          	ld	x7,0(x6)
    80000b20:	fe039ee3          	bnez	x7,80000b1c <rvcp_print_test_result+0x104>
    80000b24:	00533023          	sd	x5,0(x6)
    80000b28:	001f0f13          	addi	x30,x30,1
    80000b2c:	fd5ff06f          	j	80000b00 <rvcp_print_test_result+0xe8>
    80000b30:	000e8f13          	mv	x30,x29
    80000b34:	000f4283          	lbu	x5,0(x30)
    80000b38:	02028663          	beqz	x5,80000b64 <rvcp_print_test_result+0x14c>
    80000b3c:	1010031b          	addiw	x6,x0,257
    80000b40:	03031313          	slli	x6,x6,0x30
    80000b44:	005362b3          	or	x5,x6,x5
    80000b48:	effff317          	auipc	x6,0xeffff
    80000b4c:	4b830313          	addi	x6,x6,1208 # 70000000 <tohost>
    80000b50:	00033383          	ld	x7,0(x6)
    80000b54:	fe039ee3          	bnez	x7,80000b50 <rvcp_print_test_result+0x138>
    80000b58:	00533023          	sd	x5,0(x6)
    80000b5c:	001f0f13          	addi	x30,x30,1
    80000b60:	fd5ff06f          	j	80000b34 <rvcp_print_test_result+0x11c>
    80000b64:	00041f37          	lui	x30,0x41
    80000b68:	5a7f0f1b          	addiw	x30,x30,1447 # 415a7 <SID_26_pm_different_tags_same_address_stack+0x15a7>
    80000b6c:	012f1f13          	slli	x30,x30,0x12
    80000b70:	0bff0f13          	addi	x30,x30,191
    80000b74:	00ef1f13          	slli	x30,x30,0xe
    80000b78:	059f0f13          	addi	x30,x30,89
    80000b7c:	000f4283          	lbu	x5,0(x30)
    80000b80:	02028663          	beqz	x5,80000bac <rvcp_print_test_result+0x194>
    80000b84:	1010031b          	addiw	x6,x0,257
    80000b88:	03031313          	slli	x6,x6,0x30
    80000b8c:	005362b3          	or	x5,x6,x5
    80000b90:	effff317          	auipc	x6,0xeffff
    80000b94:	47030313          	addi	x6,x6,1136 # 70000000 <tohost>
    80000b98:	00033383          	ld	x7,0(x6)
    80000b9c:	fe039ee3          	bnez	x7,80000b98 <rvcp_print_test_result+0x180>
    80000ba0:	00533023          	sd	x5,0(x6)
    80000ba4:	001f0f13          	addi	x30,x30,1
    80000ba8:	fd5ff06f          	j	80000b7c <rvcp_print_test_result+0x164>
    80000bac:	020e1063          	bnez	x28,80000bcc <rvcp_print_test_result+0x1b4>
    80000bb0:	00041f37          	lui	x30,0x41
    80000bb4:	5a7f0f1b          	addiw	x30,x30,1447 # 415a7 <SID_26_pm_different_tags_same_address_stack+0x15a7>
    80000bb8:	012f1f13          	slli	x30,x30,0x12
    80000bbc:	0bff0f13          	addi	x30,x30,191
    80000bc0:	00ef1f13          	slli	x30,x30,0xe
    80000bc4:	04bf0f13          	addi	x30,x30,75
    80000bc8:	01c0006f          	j	80000be4 <rvcp_print_test_result+0x1cc>
    80000bcc:	00041f37          	lui	x30,0x41
    80000bd0:	5a7f0f1b          	addiw	x30,x30,1447 # 415a7 <SID_26_pm_different_tags_same_address_stack+0x15a7>
    80000bd4:	012f1f13          	slli	x30,x30,0x12
    80000bd8:	0bff0f13          	addi	x30,x30,191
    80000bdc:	00ef1f13          	slli	x30,x30,0xe
    80000be0:	052f0f13          	addi	x30,x30,82
    80000be4:	000f4283          	lbu	x5,0(x30)
    80000be8:	02028663          	beqz	x5,80000c14 <rvcp_print_test_result+0x1fc>
    80000bec:	1010031b          	addiw	x6,x0,257
    80000bf0:	03031313          	slli	x6,x6,0x30
    80000bf4:	005362b3          	or	x5,x6,x5
    80000bf8:	effff317          	auipc	x6,0xeffff
    80000bfc:	40830313          	addi	x6,x6,1032 # 70000000 <tohost>
    80000c00:	00033383          	ld	x7,0(x6)
    80000c04:	fe039ee3          	bnez	x7,80000c00 <rvcp_print_test_result+0x1e8>
    80000c08:	00533023          	sd	x5,0(x6)
    80000c0c:	001f0f13          	addi	x30,x30,1
    80000c10:	fd5ff06f          	j	80000be4 <rvcp_print_test_result+0x1cc>
    80000c14:	00041f37          	lui	x30,0x41
    80000c18:	5a7f0f1b          	addiw	x30,x30,1447 # 415a7 <SID_26_pm_different_tags_same_address_stack+0x15a7>
    80000c1c:	012f1f13          	slli	x30,x30,0x12
    80000c20:	0bff0f13          	addi	x30,x30,191
    80000c24:	00ef1f13          	slli	x30,x30,0xe
    80000c28:	05bf0f13          	addi	x30,x30,91
    80000c2c:	000f4283          	lbu	x5,0(x30)
    80000c30:	02028663          	beqz	x5,80000c5c <rvcp_print_test_result+0x244>
    80000c34:	1010031b          	addiw	x6,x0,257
    80000c38:	03031313          	slli	x6,x6,0x30
    80000c3c:	005362b3          	or	x5,x6,x5
    80000c40:	effff317          	auipc	x6,0xeffff
    80000c44:	3c030313          	addi	x6,x6,960 # 70000000 <tohost>
    80000c48:	00033383          	ld	x7,0(x6)
    80000c4c:	fe039ee3          	bnez	x7,80000c48 <rvcp_print_test_result+0x230>
    80000c50:	00533023          	sd	x5,0(x6)
    80000c54:	001f0f13          	addi	x30,x30,1
    80000c58:	fd5ff06f          	j	80000c2c <rvcp_print_test_result+0x214>
    80000c5c:	00008067          	ret

0000000080000c60 <os_rng_orig>:
    80000c60:	f14023f3          	csrr	x7,mhartid
    80000c64:	00068313          	mv	x6,x13
    80000c68:	026383b3          	mul	x7,x7,x6
    80000c6c:	00058313          	mv	x6,x11
    80000c70:	00730333          	add	x6,x6,x7
    80000c74:	00033283          	ld	x5,0(x6)
    80000c78:	01529313          	slli	x6,x5,0x15
    80000c7c:	0062c2b3          	xor	x5,x5,x6
    80000c80:	0232d313          	srli	x6,x5,0x23
    80000c84:	0062c2b3          	xor	x5,x5,x6
    80000c88:	00429313          	slli	x6,x5,0x4
    80000c8c:	0062c2b3          	xor	x5,x5,x6
    80000c90:	00058313          	mv	x6,x11
    80000c94:	00730333          	add	x6,x6,x7
    80000c98:	00533023          	sd	x5,0(x6)
    80000c9c:	00060313          	mv	x6,x12
    80000ca0:	0262f2b3          	remu	x5,x5,x6
    80000ca4:	00028513          	mv	x10,x5
    80000ca8:	00008067          	ret
    80000cac:	02a00513          	li	x10,42
    80000cb0:	001965b7          	lui	x11,0x196
    80000cb4:	60d5859b          	addiw	x11,x11,1549 # 19660d <SID_29_pm_xtvec_tagged_address_stack+0x6360d>
    80000cb8:	3c6ef637          	lui	x12,0x3c6ef
    80000cbc:	35f6061b          	addiw	x12,x12,863 # 3c6ef35f <saplic_255+0x1bdf035f>
    80000cc0:	02200693          	li	x13,34
    80000cc4:	02b50533          	mul	x10,x10,x11
    80000cc8:	00c50533          	add	x10,x10,x12
    80000ccc:	02d56533          	rem	x10,x10,x13
    80000cd0:	00b00593          	li	x11,11
    80000cd4:	02b56533          	rem	x10,x10,x11
    80000cd8:	00008067          	ret
    80000cdc:	0000                	.insn	2, 0x0000
	...

0000000080000ce0 <tohost_mutex>:
	...

0000000080000ce8 <tohost_addr_mem>:
    80000ce8:	0000                	.insn	2, 0x0000
    80000cea:	7000                	.insn	2, 0x7000
    80000cec:	0000                	.insn	2, 0x0000
	...

0000000080000cf0 <eot__end_test>:
    80000cf0:	00100293          	li	x5,1
    80000cf4:	00328463          	beq	x5,x3,80000cfc <eot__passed>
    80000cf8:	01c0006f          	j	80000d14 <eot__failed>

0000000080000cfc <eot__passed>:
    80000cfc:	0ff0000f          	fence
    80000d00:	00000297          	auipc	x5,0x0
    80000d04:	fe82b283          	ld	x5,-24(x5) # 80000ce8 <tohost_addr_mem>
    80000d08:	00100313          	li	x6,1
    80000d0c:	0062a023          	sw	x6,0(x5)
    80000d10:	0240006f          	j	80000d34 <eot__halt>

0000000080000d14 <eot__failed>:
    80000d14:	00100513          	li	x10,1
    80000d18:	d01ff0ef          	jal	80000a18 <rvcp_print_test_result>
    80000d1c:	0ff0000f          	fence
    80000d20:	00000297          	auipc	x5,0x0
    80000d24:	fc82b283          	ld	x5,-56(x5) # 80000ce8 <tohost_addr_mem>
    80000d28:	00300313          	li	x6,3
    80000d2c:	0062a023          	sw	x6,0(x5)
    80000d30:	0040006f          	j	80000d34 <eot__halt>

0000000080000d34 <eot__halt>:
    80000d34:	10500073          	wfi
    80000d38:	ffdff06f          	j	80000d34 <eot__halt>

0000000080000d3c <scheduler__init>:
    80000d3c:	00000297          	auipc	x5,0x0
    80000d40:	15c28293          	addi	x5,x5,348 # 80000e98 <scheduler__panic>
    80000d44:	305292f3          	csrrw	x5,mtvec,x5
    80000d48:	18523023          	sd	x5,384(x4) # 180 <FS_RANDOMIZATION+0x11c>
    80000d4c:	02500293          	li	x5,37
    80000d50:	1a523023          	sd	x5,416(x4) # 1a0 <FS_RANDOMIZATION+0x13c>
    80000d54:	0010029b          	addiw	x5,x0,1
    80000d58:	02029293          	slli	x5,x5,0x20
    80000d5c:	ffe28293          	addi	x5,x5,-2
    80000d60:	18523c23          	sd	x5,408(x4) # 198 <FS_RANDOMIZATION+0x134>
    80000d64:	00000317          	auipc	x6,0x0
    80000d68:	4e030313          	addi	x6,x6,1248 # 80001244 <scheduler__test_setup_ptr>
    80000d6c:	00033303          	ld	x6,0(x6)
    80000d70:	1000006f          	j	80000e70 <scheduler__execute_test>

0000000080000d74 <scheduler__dispatch>:
    80000d74:	00000297          	auipc	x5,0x0
    80000d78:	12428293          	addi	x5,x5,292 # 80000e98 <scheduler__panic>
    80000d7c:	305292f3          	csrrw	x5,mtvec,x5
    80000d80:	18523023          	sd	x5,384(x4) # 180 <FS_RANDOMIZATION+0x11c>

0000000080000d84 <scheduler__csr_read_randomization>:
    80000d84:	00000e17          	auipc	x28,0x0
    80000d88:	250e0e13          	addi	x28,x28,592 # 80000fd4 <fs_rr_table>
    80000d8c:	18823e83          	ld	x29,392(x4) # 188 <FS_RANDOMIZATION+0x124>
    80000d90:	002e9f13          	slli	x30,x29,0x2
    80000d94:	01ee0f33          	add	x30,x28,x30
    80000d98:	000f2f03          	lw	x30,0(x30)
    80000d9c:	00df1f13          	slli	x30,x30,0xd
    80000da0:	00006e37          	lui	x28,0x6
    80000da4:	100e3073          	csrc	sstatus,x28
    80000da8:	100f2073          	csrs	sstatus,x30
    80000dac:	001e8e93          	addi	x29,x29,1
    80000db0:	00300e13          	li	x28,3
    80000db4:	01cec463          	blt	x29,x28,80000dbc <scheduler__csr_read_randomization+0x38>
    80000db8:	00000e93          	li	x29,0
    80000dbc:	19d23423          	sd	x29,392(x4) # 188 <FS_RANDOMIZATION+0x124>
    80000dc0:	00000e17          	auipc	x28,0x0
    80000dc4:	220e0e13          	addi	x28,x28,544 # 80000fe0 <vs_rr_table>
    80000dc8:	19023e83          	ld	x29,400(x4) # 190 <FS_RANDOMIZATION+0x12c>
    80000dcc:	002e9f13          	slli	x30,x29,0x2
    80000dd0:	01ee0f33          	add	x30,x28,x30
    80000dd4:	000f2f03          	lw	x30,0(x30)
    80000dd8:	009f1f13          	slli	x30,x30,0x9
    80000ddc:	60000e13          	li	x28,1536
    80000de0:	100e3073          	csrc	sstatus,x28
    80000de4:	100f2073          	csrs	sstatus,x30
    80000de8:	001e8e93          	addi	x29,x29,1
    80000dec:	00300e13          	li	x28,3
    80000df0:	01cec463          	blt	x29,x28,80000df8 <scheduler__csr_read_randomization+0x74>
    80000df4:	00000e93          	li	x29,0
    80000df8:	19d23823          	sd	x29,400(x4) # 190 <FS_RANDOMIZATION+0x12c>
    80000dfc:	105022f3          	csrr	x5,stvec
    80000e00:	141022f3          	csrr	x5,sepc
    80000e04:	341022f3          	csrr	x5,mepc
    80000e08:	f12022f3          	csrr	x5,marchid
    80000e0c:	f14022f3          	csrr	x5,mhartid
    80000e10:	304022f3          	csrr	x5,mie
    80000e14:	302022f3          	csrr	x5,medeleg
    80000e18:	105022f3          	csrr	x5,stvec
    80000e1c:	142022f3          	csrr	x5,scause
    80000e20:	f15022f3          	csrr	x5,0xf15
    80000e24:	104022f3          	csrr	x5,sie
    80000e28:	105022f3          	csrr	x5,stvec
    80000e2c:	104022f3          	csrr	x5,sie
    80000e30:	106022f3          	csrr	x5,scounteren

0000000080000e34 <scheduler__load_num_runs>:
    80000e34:	1a023303          	ld	x6,416(x4) # 1a0 <FS_RANDOMIZATION+0x13c>
    80000e38:	04030c63          	beqz	x6,80000e90 <scheduler__finished>

0000000080000e3c <scheduler__decrement_num_runs>:
    80000e3c:	fff30393          	addi	x7,x6,-1
    80000e40:	1a723023          	sd	x7,416(x4) # 1a0 <FS_RANDOMIZATION+0x13c>
    80000e44:	00000e17          	auipc	x28,0x0
    80000e48:	36ce0e13          	addi	x28,x28,876 # 800011b0 <dtest_index_map>
    80000e4c:	00239e93          	slli	x29,x7,0x2
    80000e50:	01de0e33          	add	x28,x28,x29
    80000e54:	000e2e03          	lw	x28,0(x28)
    80000e58:	19c23c23          	sd	x28,408(x4) # 198 <FS_RANDOMIZATION+0x134>

0000000080000e5c <scheduler__calc_test_pointer>:
    80000e5c:	00339293          	slli	x5,x7,0x3

0000000080000e60 <scheduler__load_test_addr>:
    80000e60:	00000317          	auipc	x6,0x0
    80000e64:	04c30313          	addi	x6,x6,76 # 80000eac <os_test_sequence>
    80000e68:	006282b3          	add	x5,x5,x6
    80000e6c:	0002b303          	ld	x6,0(x5)

0000000080000e70 <scheduler__execute_test>:
    80000e70:	18023283          	ld	x5,384(x4) # 180 <FS_RANDOMIZATION+0x11c>
    80000e74:	30529073          	csrw	mtvec,x5
    80000e78:	34021273          	csrrw	x4,mscratch,x4
    80000e7c:	00000213          	li	x4,0
    80000e80:	14131073          	csrw	sepc,x6
    80000e84:	10000293          	li	x5,256
    80000e88:	1002a073          	csrs	sstatus,x5
    80000e8c:	10200073          	sret

0000000080000e90 <scheduler__finished>:
    80000e90:	00100193          	li	x3,1
    80000e94:	e5dff06f          	j	80000cf0 <eot__end_test>

0000000080000e98 <scheduler__panic>:
    80000e98:	00000193          	li	x3,0
    80000e9c:	e55ff06f          	j	80000cf0 <eot__end_test>
    80000ea0:	0000                	.insn	2, 0x0000
	...

0000000080000ea4 <num_runs>:
    80000ea4:	0025                	.insn	2, 0x0025
    80000ea6:	0000                	.insn	2, 0x0000
    80000ea8:	0000                	.insn	2, 0x0000
	...

0000000080000eac <os_test_sequence>:
    80000eac:	4cf4                	.insn	2, 0x4cf4
    80000eae:	8001                	.insn	2, 0x8001
    80000eb0:	0000                	.insn	2, 0x0000
    80000eb2:	0000                	.insn	2, 0x0000
    80000eb4:	46f4                	.insn	2, 0x46f4
    80000eb6:	8001                	.insn	2, 0x8001
    80000eb8:	0000                	.insn	2, 0x0000
    80000eba:	0000                	.insn	2, 0x0000
    80000ebc:	4940                	.insn	2, 0x4940
    80000ebe:	8001                	.insn	2, 0x8001
    80000ec0:	0000                	.insn	2, 0x0000
    80000ec2:	0000                	.insn	2, 0x0000
    80000ec4:	4ac0                	.insn	2, 0x4ac0
    80000ec6:	8001                	.insn	2, 0x8001
    80000ec8:	0000                	.insn	2, 0x0000
    80000eca:	0000                	.insn	2, 0x0000
    80000ecc:	4a04                	.insn	2, 0x4a04
    80000ece:	8001                	.insn	2, 0x8001
    80000ed0:	0000                	.insn	2, 0x0000
    80000ed2:	0000                	.insn	2, 0x0000
    80000ed4:	46f4                	.insn	2, 0x46f4
    80000ed6:	8001                	.insn	2, 0x8001
    80000ed8:	0000                	.insn	2, 0x0000
    80000eda:	0000                	.insn	2, 0x0000
    80000edc:	4bf4                	.insn	2, 0x4bf4
    80000ede:	8001                	.insn	2, 0x8001
    80000ee0:	0000                	.insn	2, 0x0000
    80000ee2:	0000                	.insn	2, 0x0000
    80000ee4:	4080                	.insn	2, 0x4080
    80000ee6:	8001                	.insn	2, 0x8001
    80000ee8:	0000                	.insn	2, 0x0000
    80000eea:	0000                	.insn	2, 0x0000
    80000eec:	47cc                	.insn	2, 0x47cc
    80000eee:	8001                	.insn	2, 0x8001
    80000ef0:	0000                	.insn	2, 0x0000
    80000ef2:	0000                	.insn	2, 0x0000
    80000ef4:	4878                	.insn	2, 0x4878
    80000ef6:	8001                	.insn	2, 0x8001
    80000ef8:	0000                	.insn	2, 0x0000
    80000efa:	0000                	.insn	2, 0x0000
    80000efc:	4ac0                	.insn	2, 0x4ac0
    80000efe:	8001                	.insn	2, 0x8001
    80000f00:	0000                	.insn	2, 0x0000
    80000f02:	0000                	.insn	2, 0x0000
    80000f04:	4080                	.insn	2, 0x4080
    80000f06:	8001                	.insn	2, 0x8001
    80000f08:	0000                	.insn	2, 0x0000
    80000f0a:	0000                	.insn	2, 0x0000
    80000f0c:	4154                	.insn	2, 0x4154
    80000f0e:	8001                	.insn	2, 0x8001
    80000f10:	0000                	.insn	2, 0x0000
    80000f12:	0000                	.insn	2, 0x0000
    80000f14:	452c                	.insn	2, 0x452c
    80000f16:	8001                	.insn	2, 0x8001
    80000f18:	0000                	.insn	2, 0x0000
    80000f1a:	0000                	.insn	2, 0x0000
    80000f1c:	42b0                	.insn	2, 0x42b0
    80000f1e:	8001                	.insn	2, 0x8001
    80000f20:	0000                	.insn	2, 0x0000
    80000f22:	0000                	.insn	2, 0x0000
    80000f24:	4a04                	.insn	2, 0x4a04
    80000f26:	8001                	.insn	2, 0x8001
    80000f28:	0000                	.insn	2, 0x0000
    80000f2a:	0000                	.insn	2, 0x0000
    80000f2c:	4414                	.insn	2, 0x4414
    80000f2e:	8001                	.insn	2, 0x8001
    80000f30:	0000                	.insn	2, 0x0000
    80000f32:	0000                	.insn	2, 0x0000
    80000f34:	46f4                	.insn	2, 0x46f4
    80000f36:	8001                	.insn	2, 0x8001
    80000f38:	0000                	.insn	2, 0x0000
    80000f3a:	0000                	.insn	2, 0x0000
    80000f3c:	452c                	.insn	2, 0x452c
    80000f3e:	8001                	.insn	2, 0x8001
    80000f40:	0000                	.insn	2, 0x0000
    80000f42:	0000                	.insn	2, 0x0000
    80000f44:	452c                	.insn	2, 0x452c
    80000f46:	8001                	.insn	2, 0x8001
    80000f48:	0000                	.insn	2, 0x0000
    80000f4a:	0000                	.insn	2, 0x0000
    80000f4c:	4bf4                	.insn	2, 0x4bf4
    80000f4e:	8001                	.insn	2, 0x8001
    80000f50:	0000                	.insn	2, 0x0000
    80000f52:	0000                	.insn	2, 0x0000
    80000f54:	47cc                	.insn	2, 0x47cc
    80000f56:	8001                	.insn	2, 0x8001
    80000f58:	0000                	.insn	2, 0x0000
    80000f5a:	0000                	.insn	2, 0x0000
    80000f5c:	4080                	.insn	2, 0x4080
    80000f5e:	8001                	.insn	2, 0x8001
    80000f60:	0000                	.insn	2, 0x0000
    80000f62:	0000                	.insn	2, 0x0000
    80000f64:	4940                	.insn	2, 0x4940
    80000f66:	8001                	.insn	2, 0x8001
    80000f68:	0000                	.insn	2, 0x0000
    80000f6a:	0000                	.insn	2, 0x0000
    80000f6c:	42b0                	.insn	2, 0x42b0
    80000f6e:	8001                	.insn	2, 0x8001
    80000f70:	0000                	.insn	2, 0x0000
    80000f72:	0000                	.insn	2, 0x0000
    80000f74:	47cc                	.insn	2, 0x47cc
    80000f76:	8001                	.insn	2, 0x8001
    80000f78:	0000                	.insn	2, 0x0000
    80000f7a:	0000                	.insn	2, 0x0000
    80000f7c:	42b0                	.insn	2, 0x42b0
    80000f7e:	8001                	.insn	2, 0x8001
    80000f80:	0000                	.insn	2, 0x0000
    80000f82:	0000                	.insn	2, 0x0000
    80000f84:	4414                	.insn	2, 0x4414
    80000f86:	8001                	.insn	2, 0x8001
    80000f88:	0000                	.insn	2, 0x0000
    80000f8a:	0000                	.insn	2, 0x0000
    80000f8c:	4a04                	.insn	2, 0x4a04
    80000f8e:	8001                	.insn	2, 0x8001
    80000f90:	0000                	.insn	2, 0x0000
    80000f92:	0000                	.insn	2, 0x0000
    80000f94:	4878                	.insn	2, 0x4878
    80000f96:	8001                	.insn	2, 0x8001
    80000f98:	0000                	.insn	2, 0x0000
    80000f9a:	0000                	.insn	2, 0x0000
    80000f9c:	4940                	.insn	2, 0x4940
    80000f9e:	8001                	.insn	2, 0x8001
    80000fa0:	0000                	.insn	2, 0x0000
    80000fa2:	0000                	.insn	2, 0x0000
    80000fa4:	4ac0                	.insn	2, 0x4ac0
    80000fa6:	8001                	.insn	2, 0x8001
    80000fa8:	0000                	.insn	2, 0x0000
    80000faa:	0000                	.insn	2, 0x0000
    80000fac:	4414                	.insn	2, 0x4414
    80000fae:	8001                	.insn	2, 0x8001
    80000fb0:	0000                	.insn	2, 0x0000
    80000fb2:	0000                	.insn	2, 0x0000
    80000fb4:	4878                	.insn	2, 0x4878
    80000fb6:	8001                	.insn	2, 0x8001
    80000fb8:	0000                	.insn	2, 0x0000
    80000fba:	0000                	.insn	2, 0x0000
    80000fbc:	4bf4                	.insn	2, 0x4bf4
    80000fbe:	8001                	.insn	2, 0x8001
    80000fc0:	0000                	.insn	2, 0x0000
    80000fc2:	0000                	.insn	2, 0x0000
    80000fc4:	4154                	.insn	2, 0x4154
    80000fc6:	8001                	.insn	2, 0x8001
    80000fc8:	0000                	.insn	2, 0x0000
    80000fca:	0000                	.insn	2, 0x0000
    80000fcc:	4154                	.insn	2, 0x4154
    80000fce:	8001                	.insn	2, 0x8001
    80000fd0:	0000                	.insn	2, 0x0000
	...

0000000080000fd4 <fs_rr_table>:
    80000fd4:	0001                	.insn	2, 0x0001
    80000fd6:	0000                	.insn	2, 0x0000
    80000fd8:	0002                	.insn	2, 0x0002
    80000fda:	0000                	.insn	2, 0x0000
    80000fdc:	00000003          	lb	x0,0(x0) # 0 <ALL_4KB_PAGES>

0000000080000fe0 <vs_rr_table>:
    80000fe0:	0001                	.insn	2, 0x0001
    80000fe2:	0000                	.insn	2, 0x0000
    80000fe4:	0002                	.insn	2, 0x0002
    80000fe6:	0000                	.insn	2, 0x0000
    80000fe8:	00000003          	lb	x0,0(x0) # 0 <ALL_4KB_PAGES>

0000000080000fec <dtest_descriptor_table>:
    80000fec:	104c                	.insn	2, 0x104c
    80000fee:	8000                	.insn	2, 0x8000
    80000ff0:	0000                	.insn	2, 0x0000
    80000ff2:	0000                	.insn	2, 0x0000
    80000ff4:	1064                	.insn	2, 0x1064
    80000ff6:	8000                	.insn	2, 0x8000
    80000ff8:	0000                	.insn	2, 0x0000
    80000ffa:	0000                	.insn	2, 0x0000
    80000ffc:	1084                	.insn	2, 0x1084
    80000ffe:	8000                	.insn	2, 0x8000
    80001000:	0000                	.insn	2, 0x0000
    80001002:	0000                	.insn	2, 0x0000
    80001004:	10a1                	.insn	2, 0x10a1
    80001006:	8000                	.insn	2, 0x8000
    80001008:	0000                	.insn	2, 0x0000
    8000100a:	0000                	.insn	2, 0x0000
    8000100c:	10bd                	.insn	2, 0x10bd
    8000100e:	8000                	.insn	2, 0x8000
    80001010:	0000                	.insn	2, 0x0000
    80001012:	0000                	.insn	2, 0x0000
    80001014:	10d8                	.insn	2, 0x10d8
    80001016:	8000                	.insn	2, 0x8000
    80001018:	0000                	.insn	2, 0x0000
    8000101a:	0000                	.insn	2, 0x0000
    8000101c:	10fc                	.insn	2, 0x10fc
    8000101e:	8000                	.insn	2, 0x8000
    80001020:	0000                	.insn	2, 0x0000
    80001022:	0000                	.insn	2, 0x0000
    80001024:	1116                	.insn	2, 0x1116
    80001026:	8000                	.insn	2, 0x8000
    80001028:	0000                	.insn	2, 0x0000
    8000102a:	0000                	.insn	2, 0x0000
    8000102c:	1132                	.insn	2, 0x1132
    8000102e:	8000                	.insn	2, 0x8000
    80001030:	0000                	.insn	2, 0x0000
    80001032:	0000                	.insn	2, 0x0000
    80001034:	1158                	.insn	2, 0x1158
    80001036:	8000                	.insn	2, 0x8000
    80001038:	0000                	.insn	2, 0x0000
    8000103a:	0000                	.insn	2, 0x0000
    8000103c:	1172                	.insn	2, 0x1172
    8000103e:	8000                	.insn	2, 0x8000
    80001040:	0000                	.insn	2, 0x0000
    80001042:	0000                	.insn	2, 0x0000
    80001044:	8000118f          	.insn	4, 0x8000118f
    80001048:	0000                	.insn	2, 0x0000
	...

000000008000104c <dtest_name_0>:
    8000104c:	5f444953          	.insn	4, 0x5f444953
    80001050:	3130                	.insn	2, 0x3130
    80001052:	735f 6e65 6376      	.insn	6, 0x63766e65735f
    80001058:	6766                	.insn	2, 0x6766
    8000105a:	705f 6d6d 775f      	.insn	6, 0x775f6d6d705f
    80001060:	7261                	.insn	2, 0x7261
    80001062:	006c                	.insn	2, 0x006c

0000000080001064 <dtest_name_1>:
    80001064:	5f444953          	.insn	4, 0x5f444953
    80001068:	3230                	.insn	2, 0x3230
    8000106a:	685f 6e65 6376      	.insn	6, 0x63766e65685f
    80001070:	6766                	.insn	2, 0x6766
    80001072:	685f 7473 7461      	.insn	6, 0x74617473685f
    80001078:	7375                	.insn	2, 0x7375
    8000107a:	705f 6d6d 775f      	.insn	6, 0x775f6d6d705f
    80001080:	7261                	.insn	2, 0x7261
    80001082:	006c                	.insn	2, 0x006c

0000000080001084 <dtest_name_2>:
    80001084:	5f444953          	.insn	4, 0x5f444953
    80001088:	3730                	.insn	2, 0x3730
    8000108a:	705f 5f6d 6964      	.insn	6, 0x69645f6d705f
    80001090:	6c626173          	csrrsi	x2,0x6c6,4
    80001094:	6465                	.insn	2, 0x6465
    80001096:	735f 685f 5f73      	.insn	6, 0x5f73685f735f
    8000109c:	6f6d                	.insn	2, 0x6f6d
    8000109e:	6564                	.insn	2, 0x6564
	...

00000000800010a1 <dtest_name_3>:
    800010a1:	5f444953          	.insn	4, 0x5f444953
    800010a5:	3131                	.insn	2, 0x3131
    800010a7:	705f 5f6d 6e65      	.insn	6, 0x6e655f6d705f
    800010ad:	6261                	.insn	2, 0x6261
    800010af:	656c                	.insn	2, 0x656c
    800010b1:	5f64                	.insn	2, 0x5f64
    800010b3:	73685f73          	csrrwi	x30,mhpmevent22h,16
    800010b7:	6d5f 646f 0065      	.insn	6, 0x0065646f6d5f

00000000800010bd <dtest_name_4>:
    800010bd:	5f444953          	.insn	4, 0x5f444953
    800010c1:	3232                	.insn	2, 0x3232
    800010c3:	705f 5f6d 6964      	.insn	6, 0x69645f6d705f
    800010c9:	6c626173          	csrrsi	x2,0x6c6,4
    800010cd:	6465                	.insn	2, 0x6465
    800010cf:	6d5f 7278 735f      	.insn	6, 0x735f72786d5f
    800010d5:	7465                	.insn	2, 0x7465
	...

00000000800010d8 <dtest_name_5>:
    800010d8:	5f444953          	.insn	4, 0x5f444953
    800010dc:	3332                	.insn	2, 0x3332
    800010de:	705f 5f6d 6e69      	.insn	6, 0x6e695f6d705f
    800010e4:	6176                	.insn	2, 0x6176
    800010e6:	696c                	.insn	2, 0x696c
    800010e8:	6164                	.insn	2, 0x6164
    800010ea:	6974                	.insn	2, 0x6974
    800010ec:	695f6e6f          	jal	x28,800f7f80 <code_super_99+0xf80>
    800010f0:	736e                	.insn	2, 0x736e
    800010f2:	7274                	.insn	2, 0x7274
    800010f4:	6375                	.insn	2, 0x6375
    800010f6:	6974                	.insn	2, 0x6974
    800010f8:	00736e6f          	jal	x28,800378fe <__section__code_35+0x8fe>

00000000800010fc <dtest_name_6>:
    800010fc:	5f444953          	.insn	4, 0x5f444953
    80001100:	3432                	.insn	2, 0x3432
    80001102:	705f 5f6d 6e69      	.insn	6, 0x6e695f6d705f
    80001108:	75727473          	csrrci	x8,0x757,4
    8000110c:	6f697463          	bgeu	x18,x22,800017f4 <scheduler__test_cleanup_ptr+0x5a8>
    80001110:	5f6e                	.insn	2, 0x5f6e
    80001112:	00746573          	csrrsi	x10,0x7,8

0000000080001116 <dtest_name_7>:
    80001116:	5f444953          	.insn	4, 0x5f444953
    8000111a:	3532                	.insn	2, 0x3532
    8000111c:	705f 5f6d 696d      	.insn	6, 0x696d5f6d705f
    80001122:	696c6173          	csrrsi	x2,0x696,24
    80001126:	64656e67          	.insn	4, 0x64656e67
    8000112a:	615f 6363 7365      	.insn	6, 0x73656363615f
    80001130:	          	.insn	4, 0x49530073

0000000080001132 <dtest_name_8>:
    80001132:	5f444953          	.insn	4, 0x5f444953
    80001136:	3632                	.insn	2, 0x3632
    80001138:	705f 5f6d 6964      	.insn	6, 0x69645f6d705f
    8000113e:	6666                	.insn	2, 0x6666
    80001140:	7265                	.insn	2, 0x7265
    80001142:	6e65                	.insn	2, 0x6e65
    80001144:	5f74                	.insn	2, 0x5f74
    80001146:	6174                	.insn	2, 0x6174
    80001148:	735f7367          	.insn	4, 0x735f7367
    8000114c:	6d61                	.insn	2, 0x6d61
    8000114e:	5f65                	.insn	2, 0x5f65
    80001150:	6461                	.insn	2, 0x6461
    80001152:	7264                	.insn	2, 0x7264
    80001154:	7365                	.insn	2, 0x7365
    80001156:	          	.insn	4, 0x49530073

0000000080001158 <dtest_name_9>:
    80001158:	5f444953          	.insn	4, 0x5f444953
    8000115c:	3732                	.insn	2, 0x3732
    8000115e:	705f 5f6d 6d69      	.insn	6, 0x6d695f6d705f
    80001164:	6c70                	.insn	2, 0x6c70
    80001166:	6369                	.insn	2, 0x6369
    80001168:	7469                	.insn	2, 0x7469
    8000116a:	615f 6363 7365      	.insn	6, 0x73656363615f
    80001170:	          	.insn	4, 0x49530073

0000000080001172 <dtest_name_10>:
    80001172:	5f444953          	.insn	4, 0x5f444953
    80001176:	3832                	.insn	2, 0x3832
    80001178:	705f 5f6d 6166      	.insn	6, 0x61665f6d705f
    8000117e:	6c75                	.insn	2, 0x6c75
    80001180:	7374                	.insn	2, 0x7374
    80001182:	745f 6172 5f70      	.insn	6, 0x5f706172745f
    80001188:	6176                	.insn	2, 0x6176
    8000118a:	756c                	.insn	2, 0x756c
    8000118c:	7365                	.insn	2, 0x7365
	...

000000008000118f <dtest_name_11>:
    8000118f:	5f444953          	.insn	4, 0x5f444953
    80001193:	3932                	.insn	2, 0x3932
    80001195:	705f 5f6d 7478      	.insn	6, 0x74785f6d705f
    8000119b:	6576                	.insn	2, 0x6576
    8000119d:	61745f63          	bge	x8,x23,800017bb <scheduler__test_cleanup_ptr+0x56f>
    800011a1:	64656767          	.insn	4, 0x64656767
    800011a5:	615f 6464 6572      	.insn	6, 0x65726464615f
    800011ab:	00007373          	csrrci	x6,ustatus,0
	...

00000000800011b0 <dtest_index_map>:
    800011b0:	ffff                	.insn	2, 0xffff
    800011b2:	ffff                	.insn	2, 0xffff
    800011b4:	0005                	.insn	2, 0x0005
    800011b6:	0000                	.insn	2, 0x0000
    800011b8:	0008                	.insn	2, 0x0008
    800011ba:	0000                	.insn	2, 0x0000
    800011bc:	000a                	.insn	2, 0x000a
    800011be:	0000                	.insn	2, 0x0000
    800011c0:	0009                	.insn	2, 0x0009
    800011c2:	0000                	.insn	2, 0x0000
    800011c4:	0005                	.insn	2, 0x0005
    800011c6:	0000                	.insn	2, 0x0000
    800011c8:	0000000b          	.insn	4, 0x000b
    800011cc:	0000                	.insn	2, 0x0000
    800011ce:	0000                	.insn	2, 0x0000
    800011d0:	0006                	.insn	2, 0x0006
    800011d2:	0000                	.insn	2, 0x0000
    800011d4:	00000007          	vle8.v	v0,(x0),v0.t
    800011d8:	000a                	.insn	2, 0x000a
    800011da:	0000                	.insn	2, 0x0000
    800011dc:	0000                	.insn	2, 0x0000
    800011de:	0000                	.insn	2, 0x0000
    800011e0:	0001                	.insn	2, 0x0001
    800011e2:	0000                	.insn	2, 0x0000
    800011e4:	0004                	.insn	2, 0x0004
    800011e6:	0000                	.insn	2, 0x0000
    800011e8:	0002                	.insn	2, 0x0002
    800011ea:	0000                	.insn	2, 0x0000
    800011ec:	0009                	.insn	2, 0x0009
    800011ee:	0000                	.insn	2, 0x0000
    800011f0:	00000003          	lb	x0,0(x0) # 0 <ALL_4KB_PAGES>
    800011f4:	0005                	.insn	2, 0x0005
    800011f6:	0000                	.insn	2, 0x0000
    800011f8:	0004                	.insn	2, 0x0004
    800011fa:	0000                	.insn	2, 0x0000
    800011fc:	0004                	.insn	2, 0x0004
    800011fe:	0000                	.insn	2, 0x0000
    80001200:	0000000b          	.insn	4, 0x000b
    80001204:	0006                	.insn	2, 0x0006
    80001206:	0000                	.insn	2, 0x0000
    80001208:	0000                	.insn	2, 0x0000
    8000120a:	0000                	.insn	2, 0x0000
    8000120c:	0008                	.insn	2, 0x0008
    8000120e:	0000                	.insn	2, 0x0000
    80001210:	0002                	.insn	2, 0x0002
    80001212:	0000                	.insn	2, 0x0000
    80001214:	0006                	.insn	2, 0x0006
    80001216:	0000                	.insn	2, 0x0000
    80001218:	0002                	.insn	2, 0x0002
    8000121a:	0000                	.insn	2, 0x0000
    8000121c:	00000003          	lb	x0,0(x0) # 0 <ALL_4KB_PAGES>
    80001220:	0009                	.insn	2, 0x0009
    80001222:	0000                	.insn	2, 0x0000
    80001224:	00000007          	vle8.v	v0,(x0),v0.t
    80001228:	0008                	.insn	2, 0x0008
    8000122a:	0000                	.insn	2, 0x0000
    8000122c:	000a                	.insn	2, 0x000a
    8000122e:	0000                	.insn	2, 0x0000
    80001230:	00000003          	lb	x0,0(x0) # 0 <ALL_4KB_PAGES>
    80001234:	00000007          	vle8.v	v0,(x0),v0.t
    80001238:	0000000b          	.insn	4, 0x000b
    8000123c:	0001                	.insn	2, 0x0001
    8000123e:	0000                	.insn	2, 0x0000
    80001240:	0001                	.insn	2, 0x0001
	...

0000000080001244 <scheduler__test_setup_ptr>:
    80001244:	4070                	.insn	2, 0x4070
    80001246:	8001                	.insn	2, 0x8001
    80001248:	0000                	.insn	2, 0x0000
	...

000000008000124c <scheduler__test_cleanup_ptr>:
    8000124c:	4cf4                	.insn	2, 0x4cf4
    8000124e:	8001                	.insn	2, 0x8001
    80001250:	0000                	.insn	2, 0x0000
	...

Disassembly of section .runtime_s:

0000000080010000 <trap_handler_s__invalid_interrupt>:
    80010000:	1740006f          	j	80010174 <trap_handler_s__test_failed>

0000000080010004 <trap_handler_s__clear_all_interrupts>:
    80010004:	14401073          	csrw	sip,x0
    80010008:	10200073          	sret

000000008001000c <trap_handler_s___CLEAR_SSI>:
    8001000c:	00200293          	li	x5,2
    80010010:	1442b073          	csrc	sip,x5
    80010014:	10200073          	sret

0000000080010018 <trap_handler_s___CLEAR_MSI>:
    80010018:	00800293          	li	x5,8
    8001001c:	1442b073          	csrc	sip,x5
    80010020:	10200073          	sret

0000000080010024 <trap_handler_s___CLEAR_STI>:
    80010024:	02000293          	li	x5,32
    80010028:	1442b073          	csrc	sip,x5
    8001002c:	10200073          	sret

0000000080010030 <trap_handler_s___CLEAR_MTI>:
    80010030:	08000293          	li	x5,128
    80010034:	1442b073          	csrc	sip,x5
    80010038:	10200073          	sret

000000008001003c <trap_handler_s___CLEAR_SEI>:
    8001003c:	20000293          	li	x5,512
    80010040:	1442b073          	csrc	sip,x5
    80010044:	10200073          	sret

0000000080010048 <trap_handler_s___CLEAR_MEI>:
    80010048:	000012b7          	lui	x5,0x1
    8001004c:	8002829b          	addiw	x5,x5,-2048 # 800 <FS_RANDOMIZATION+0x79c>
    80010050:	1442b073          	csrc	sip,x5
    80010054:	10200073          	sret

0000000080010058 <trap_handler_s___CLEAR_COI>:
    80010058:	000022b7          	lui	x5,0x2
    8001005c:	1442b073          	csrc	sip,x5
    80010060:	10200073          	sret

0000000080010064 <trap_handler_s__clear_highest_priority_interrupt>:
    80010064:	144022f3          	csrr	x5,sip
    80010068:	40500333          	neg	x6,x5
    8001006c:	0062f2b3          	and	x5,x5,x6
    80010070:	1442b073          	csrc	sip,x5
    80010074:	10200073          	sret

0000000080010078 <trap_handler_s__trap_entry>:
    80010078:	10c0006f          	j	80010184 <trap_handler_s__trap_handler>

000000008001007c <trap_handler_s__interrupt_vector_table>:
    8001007c:	f91ff06f          	j	8001000c <trap_handler_s___CLEAR_SSI>
    80010080:	f81ff06f          	j	80010000 <trap_handler_s__invalid_interrupt>
    80010084:	f95ff06f          	j	80010018 <trap_handler_s___CLEAR_MSI>
    80010088:	f79ff06f          	j	80010000 <trap_handler_s__invalid_interrupt>
    8001008c:	f99ff06f          	j	80010024 <trap_handler_s___CLEAR_STI>
    80010090:	f71ff06f          	j	80010000 <trap_handler_s__invalid_interrupt>
    80010094:	f9dff06f          	j	80010030 <trap_handler_s___CLEAR_MTI>
    80010098:	f69ff06f          	j	80010000 <trap_handler_s__invalid_interrupt>
    8001009c:	fa1ff06f          	j	8001003c <trap_handler_s___CLEAR_SEI>
    800100a0:	f61ff06f          	j	80010000 <trap_handler_s__invalid_interrupt>
    800100a4:	fa5ff06f          	j	80010048 <trap_handler_s___CLEAR_MEI>
    800100a8:	f59ff06f          	j	80010000 <trap_handler_s__invalid_interrupt>
    800100ac:	fadff06f          	j	80010058 <trap_handler_s___CLEAR_COI>
    800100b0:	f51ff06f          	j	80010000 <trap_handler_s__invalid_interrupt>
    800100b4:	f4dff06f          	j	80010000 <trap_handler_s__invalid_interrupt>
    800100b8:	fadff06f          	j	80010064 <trap_handler_s__clear_highest_priority_interrupt>
    800100bc:	fa9ff06f          	j	80010064 <trap_handler_s__clear_highest_priority_interrupt>
    800100c0:	fa5ff06f          	j	80010064 <trap_handler_s__clear_highest_priority_interrupt>
    800100c4:	fa1ff06f          	j	80010064 <trap_handler_s__clear_highest_priority_interrupt>
    800100c8:	f9dff06f          	j	80010064 <trap_handler_s__clear_highest_priority_interrupt>
    800100cc:	f99ff06f          	j	80010064 <trap_handler_s__clear_highest_priority_interrupt>
    800100d0:	f95ff06f          	j	80010064 <trap_handler_s__clear_highest_priority_interrupt>
    800100d4:	f91ff06f          	j	80010064 <trap_handler_s__clear_highest_priority_interrupt>
    800100d8:	f8dff06f          	j	80010064 <trap_handler_s__clear_highest_priority_interrupt>
    800100dc:	f89ff06f          	j	80010064 <trap_handler_s__clear_highest_priority_interrupt>
    800100e0:	f85ff06f          	j	80010064 <trap_handler_s__clear_highest_priority_interrupt>
    800100e4:	f81ff06f          	j	80010064 <trap_handler_s__clear_highest_priority_interrupt>
    800100e8:	f7dff06f          	j	80010064 <trap_handler_s__clear_highest_priority_interrupt>
    800100ec:	f79ff06f          	j	80010064 <trap_handler_s__clear_highest_priority_interrupt>
    800100f0:	f75ff06f          	j	80010064 <trap_handler_s__clear_highest_priority_interrupt>
    800100f4:	f71ff06f          	j	80010064 <trap_handler_s__clear_highest_priority_interrupt>
    800100f8:	f6dff06f          	j	80010064 <trap_handler_s__clear_highest_priority_interrupt>
    800100fc:	f69ff06f          	j	80010064 <trap_handler_s__clear_highest_priority_interrupt>
    80010100:	f65ff06f          	j	80010064 <trap_handler_s__clear_highest_priority_interrupt>
    80010104:	f61ff06f          	j	80010064 <trap_handler_s__clear_highest_priority_interrupt>
    80010108:	f5dff06f          	j	80010064 <trap_handler_s__clear_highest_priority_interrupt>
    8001010c:	f59ff06f          	j	80010064 <trap_handler_s__clear_highest_priority_interrupt>
    80010110:	f55ff06f          	j	80010064 <trap_handler_s__clear_highest_priority_interrupt>
    80010114:	f51ff06f          	j	80010064 <trap_handler_s__clear_highest_priority_interrupt>
    80010118:	f4dff06f          	j	80010064 <trap_handler_s__clear_highest_priority_interrupt>
    8001011c:	f49ff06f          	j	80010064 <trap_handler_s__clear_highest_priority_interrupt>
    80010120:	f45ff06f          	j	80010064 <trap_handler_s__clear_highest_priority_interrupt>
    80010124:	f41ff06f          	j	80010064 <trap_handler_s__clear_highest_priority_interrupt>
    80010128:	f3dff06f          	j	80010064 <trap_handler_s__clear_highest_priority_interrupt>
    8001012c:	f39ff06f          	j	80010064 <trap_handler_s__clear_highest_priority_interrupt>
    80010130:	f35ff06f          	j	80010064 <trap_handler_s__clear_highest_priority_interrupt>
    80010134:	f31ff06f          	j	80010064 <trap_handler_s__clear_highest_priority_interrupt>
    80010138:	f2dff06f          	j	80010064 <trap_handler_s__clear_highest_priority_interrupt>
    8001013c:	f29ff06f          	j	80010064 <trap_handler_s__clear_highest_priority_interrupt>
    80010140:	f25ff06f          	j	80010064 <trap_handler_s__clear_highest_priority_interrupt>
    80010144:	f21ff06f          	j	80010064 <trap_handler_s__clear_highest_priority_interrupt>
    80010148:	f1dff06f          	j	80010064 <trap_handler_s__clear_highest_priority_interrupt>
    8001014c:	f19ff06f          	j	80010064 <trap_handler_s__clear_highest_priority_interrupt>
    80010150:	f15ff06f          	j	80010064 <trap_handler_s__clear_highest_priority_interrupt>
    80010154:	f11ff06f          	j	80010064 <trap_handler_s__clear_highest_priority_interrupt>
    80010158:	f0dff06f          	j	80010064 <trap_handler_s__clear_highest_priority_interrupt>
    8001015c:	f09ff06f          	j	80010064 <trap_handler_s__clear_highest_priority_interrupt>
    80010160:	f05ff06f          	j	80010064 <trap_handler_s__clear_highest_priority_interrupt>
    80010164:	f01ff06f          	j	80010064 <trap_handler_s__clear_highest_priority_interrupt>
    80010168:	efdff06f          	j	80010064 <trap_handler_s__clear_highest_priority_interrupt>
    8001016c:	ef9ff06f          	j	80010064 <trap_handler_s__clear_highest_priority_interrupt>
    80010170:	ef5ff06f          	j	80010064 <trap_handler_s__clear_highest_priority_interrupt>

0000000080010174 <trap_handler_s__test_failed>:
    80010174:	00f00f9b          	addiw	x31,x0,15
    80010178:	01cf9f93          	slli	x31,x31,0x1c
    8001017c:	002f8f93          	addi	x31,x31,2
    80010180:	00000073          	ecall

0000000080010184 <trap_handler_s__trap_handler>:
    80010184:	142022f3          	csrr	x5,scause
    80010188:	fff0031b          	addiw	x6,x0,-1
    8001018c:	03f31313          	slli	x6,x6,0x3f
    80010190:	00537333          	and	x6,x6,x5
    80010194:	02030263          	beqz	x6,800101b8 <trap_handler_s__exception_path>

0000000080010198 <trap_handler_s__interrupt_handler>:
    80010198:	fff0031b          	addiw	x6,x0,-1
    8001019c:	03f31313          	slli	x6,x6,0x3f
    800101a0:	0062c2b3          	xor	x5,x5,x6
    800101a4:	00000317          	auipc	x6,0x0
    800101a8:	ed430313          	addi	x6,x6,-300 # 80010078 <trap_handler_s__trap_entry>
    800101ac:	00229293          	slli	x5,x5,0x2
    800101b0:	005302b3          	add	x5,x6,x5
    800101b4:	00028067          	jr	x5 # 2000 <FS_RANDOMIZATION+0x1f9c>

00000000800101b8 <trap_handler_s__exception_path>:
    800101b8:	14021273          	csrrw	x4,sscratch,x4
    800101bc:	00000297          	auipc	x5,0x0
    800101c0:	0cc28293          	addi	x5,x5,204 # 80010288 <trap_handler_s__trap_panic>
    800101c4:	10529073          	csrw	stvec,x5
    800101c8:	0040006f          	j	800101cc <trap_handler_s__excp_entry>

00000000800101cc <trap_handler_s__excp_entry>:
    800101cc:	14202373          	csrr	x6,scause
    800101d0:	00800293          	li	x5,8
    800101d4:	00534863          	blt	x6,x5,800101e4 <trap_handler_s__check_exception_label>
    800101d8:	00b00293          	li	x5,11
    800101dc:	0062c463          	blt	x5,x6,800101e4 <trap_handler_s__check_exception_label>
    800101e0:	0a80006f          	j	80010288 <trap_handler_s__trap_panic>

00000000800101e4 <trap_handler_s__check_exception_label>:
    800101e4:	04623c23          	sd	x6,88(x4) # 58 <XLEN+0x18>
    800101e8:	141022f3          	csrr	x5,sepc
    800101ec:	02523423          	sd	x5,40(x4) # 28 <SECURE_ACCESS_PROBABILITY+0xa>
    800101f0:	01820283          	lb	x5,24(x4) # 18 <STORE_GUEST_PAGE_FAULT+0x1>
    800101f4:	00029863          	bnez	x5,80010204 <trap_handler_s__check_excp>
    800101f8:	00128293          	addi	x5,x5,1
    800101fc:	00520c23          	sb	x5,24(x4) # 18 <STORE_GUEST_PAGE_FAULT+0x1>
    80010200:	05c0006f          	j	8001025c <trap_handler_s__ecall_from_machine>

0000000080010204 <trap_handler_s__check_excp>:
    80010204:	06820293          	addi	x5,x4,104 # 68 <FS_RANDOMIZATION+0x4>
    80010208:	0802b2af          	amoswap.d	x5,x0,(x5)
    8001020c:	00028663          	beqz	x5,80010218 <trap_handler_s__skip_mode_check>
    80010210:	00300393          	li	x7,3
    80010214:	f67290e3          	bne	x5,x7,80010174 <trap_handler_s__test_failed>

0000000080010218 <trap_handler_s__skip_mode_check>:
    80010218:	05020293          	addi	x5,x4,80 # 50 <XLEN+0x10>
    8001021c:	0802b2af          	amoswap.d	x5,x0,(x5)
    80010220:	f4531ae3          	bne	x6,x5,80010174 <trap_handler_s__test_failed>
    80010224:	03820293          	addi	x5,x4,56 # 38 <SECURE_ACCESS_PROBABILITY+0x1a>
    80010228:	0802b2af          	amoswap.d	x5,x0,(x5)
    8001022c:	02029663          	bnez	x5,80010258 <trap_handler_s__skip_nonzero_tval_check>
    80010230:	02020313          	addi	x6,x4,32 # 20 <SECURE_ACCESS_PROBABILITY+0x2>
    80010234:	0803332f          	amoswap.d	x6,x0,(x6)
    80010238:	02820293          	addi	x5,x4,40 # 28 <SECURE_ACCESS_PROBABILITY+0xa>
    8001023c:	0802b2af          	amoswap.d	x5,x0,(x5)
    80010240:	f2531ae3          	bne	x6,x5,80010174 <trap_handler_s__test_failed>
    80010244:	04020293          	addi	x5,x4,64 # 40 <XLEN>
    80010248:	0802b2af          	amoswap.d	x5,x0,(x5)
    8001024c:	00028663          	beqz	x5,80010258 <trap_handler_s__skip_nonzero_tval_check>

0000000080010250 <trap_handler_s__nonzero_tval_check>:
    80010250:	14302373          	csrr	x6,stval
    80010254:	f25310e3          	bne	x6,x5,80010174 <trap_handler_s__test_failed>

0000000080010258 <trap_handler_s__skip_nonzero_tval_check>:
    80010258:	0040006f          	j	8001025c <trap_handler_s__ecall_from_machine>

000000008001025c <trap_handler_s__ecall_from_machine>:
    8001025c:	03020293          	addi	x5,x4,48 # 30 <SECURE_ACCESS_PROBABILITY+0x12>
    80010260:	0802b2af          	amoswap.d	x5,x0,(x5)
    80010264:	07020313          	addi	x6,x4,112 # 70 <FS_RANDOMIZATION+0xc>
    80010268:	0803332f          	amoswap.d	x6,x0,(x6)
    8001026c:	00031463          	bnez	x6,80010274 <trap_handler_s__skip_xepc_write>
    80010270:	14129073          	csrw	sepc,x5

0000000080010274 <trap_handler_s__skip_xepc_write>:
    80010274:	00000317          	auipc	x6,0x0
    80010278:	e0430313          	addi	x6,x6,-508 # 80010078 <trap_handler_s__trap_entry>
    8001027c:	10531073          	csrw	stvec,x6
    80010280:	14021273          	csrrw	x4,sscratch,x4
    80010284:	10200073          	sret

0000000080010288 <trap_handler_s__trap_panic>:
    80010288:	00000193          	li	x3,0
    8001028c:	00f00f9b          	addiw	x31,x0,15
    80010290:	01cf9f93          	slli	x31,x31,0x1c
    80010294:	002f8f93          	addi	x31,x31,2
    80010298:	00000073          	ecall

Disassembly of section .code:

0000000080014040 <passed>:
    80014040:	00f00f9b          	addiw	x31,x0,15
    80014044:	01cf9f93          	slli	x31,x31,0x1c
    80014048:	001f8f93          	addi	x31,x31,1
    8001404c:	00000073          	ecall

0000000080014050 <failed>:
    80014050:	00f00f9b          	addiw	x31,x0,15
    80014054:	01cf9f93          	slli	x31,x31,0x1c
    80014058:	002f8f93          	addi	x31,x31,2
    8001405c:	00000073          	ecall

0000000080014060 <end_test>:
    80014060:	00f00f9b          	addiw	x31,x0,15
    80014064:	01cf9f93          	slli	x31,x31,0x1c
    80014068:	003f8f93          	addi	x31,x31,3
    8001406c:	00000073          	ecall

0000000080014070 <test_setup>:
    80014070:	00f00f9b          	addiw	x31,x0,15
    80014074:	01cf9f93          	slli	x31,x31,0x1c
    80014078:	001f8f93          	addi	x31,x31,1
    8001407c:	00000073          	ecall

0000000080014080 <SID_01_senvcfg_pmm_warl>:
    80014080:	00490137          	lui	x2,0x490
    80014084:	02651fb7          	lui	x31,0x2651
    80014088:	7d3f8f9b          	addiw	x31,x31,2003 # 26517d3 <current_test_index+0x1c7863b>
    8001408c:	00ff9f93          	slli	x31,x31,0xf
    80014090:	0a0f8f93          	addi	x31,x31,160
    80014094:	00100f13          	li	x30,1
    80014098:	01efb023          	sd	x30,0(x31)
    8001409c:	000f0fb7          	lui	x31,0xf0
    800140a0:	001f8f9b          	addiw	x31,x31,1 # f0001 <mem7+0x4001>
    800140a4:	00cf9f93          	slli	x31,x31,0xc
    800140a8:	005f8f93          	addi	x31,x31,5
    800140ac:	00000073          	ecall
    800140b0:	00713023          	sd	x7,0(x2) # 490000 <tp_csr_storage>
    800140b4:	0097e137          	lui	x2,0x97e
    800140b8:	5ff1011b          	addiw	x2,x2,1535 # 97e5ff <SID_02_henvcfg_hstatus_pmm_warl_stack+0xbc5ff>
    800140bc:	00e11113          	slli	x2,x2,0xe
    800140c0:	000012b7          	lui	x5,0x1
    800140c4:	00510133          	add	x2,x2,x5
    800140c8:	ff017113          	andi	x2,x2,-16
    800140cc:	10a02ff3          	csrr	x31,0x10a
    800140d0:	020fdd93          	srli	x27,x31,0x20
    800140d4:	003df793          	andi	x15,x27,3
    800140d8:	0010071b          	addiw	x14,x0,1
    800140dc:	02071713          	slli	x14,x14,0x20
    800140e0:	10a71e73          	csrrw	x28,0x10a,x14
    800140e4:	10a02673          	csrr	x12,0x10a
    800140e8:	02065f13          	srli	x30,x12,0x20
    800140ec:	003f7393          	andi	x7,x30,3
    800140f0:	00100f93          	li	x31,1
    800140f4:	01f39e63          	bne	x7,x31,80014110 <pass_label_0>
    800140f8:	02651e37          	lui	x28,0x2651
    800140fc:	7d3e0e1b          	addiw	x28,x28,2003 # 26517d3 <current_test_index+0x1c7863b>
    80014100:	00fe1e13          	slli	x28,x28,0xf
    80014104:	008e0e13          	addi	x28,x28,8
    80014108:	000e3683          	ld	x13,0(x28)
    8001410c:	00068067          	jr	x13

0000000080014110 <pass_label_0>:
    80014110:	00490137          	lui	x2,0x490
    80014114:	00013383          	ld	x7,0(x2) # 490000 <tp_csr_storage>
    80014118:	02651fb7          	lui	x31,0x2651
    8001411c:	7d3f8f9b          	addiw	x31,x31,2003 # 26517d3 <current_test_index+0x1c7863b>
    80014120:	00ff9f93          	slli	x31,x31,0xf
    80014124:	0a0f8f93          	addi	x31,x31,160
    80014128:	00200f13          	li	x30,2
    8001412c:	01efb023          	sd	x30,0(x31)
    80014130:	000f0fb7          	lui	x31,0xf0
    80014134:	001f8f9b          	addiw	x31,x31,1 # f0001 <mem7+0x4001>
    80014138:	00cf9f93          	slli	x31,x31,0xc
    8001413c:	005f8f93          	addi	x31,x31,5
    80014140:	00000073          	ecall

0000000080014144 <SID_01_senvcfg_pmm_warl_passed>:
    80014144:	00f00f9b          	addiw	x31,x0,15
    80014148:	01cf9f93          	slli	x31,x31,0x1c
    8001414c:	001f8f93          	addi	x31,x31,1
    80014150:	00000073          	ecall

0000000080014154 <SID_02_henvcfg_hstatus_pmm_warl>:
    80014154:	00490137          	lui	x2,0x490
    80014158:	02651fb7          	lui	x31,0x2651
    8001415c:	7d3f8f9b          	addiw	x31,x31,2003 # 26517d3 <current_test_index+0x1c7863b>
    80014160:	00ff9f93          	slli	x31,x31,0xf
    80014164:	0a0f8f93          	addi	x31,x31,160
    80014168:	00300f13          	li	x30,3
    8001416c:	01efb023          	sd	x30,0(x31)
    80014170:	000f0fb7          	lui	x31,0xf0
    80014174:	001f8f9b          	addiw	x31,x31,1 # f0001 <mem7+0x4001>
    80014178:	00cf9f93          	slli	x31,x31,0xc
    8001417c:	005f8f93          	addi	x31,x31,5
    80014180:	00000073          	ecall
    80014184:	00713023          	sd	x7,0(x2) # 490000 <tp_csr_storage>
    80014188:	02651fb7          	lui	x31,0x2651
    8001418c:	7d3f8f9b          	addiw	x31,x31,2003 # 26517d3 <current_test_index+0x1c7863b>
    80014190:	00ff9f93          	slli	x31,x31,0xf
    80014194:	0a0f8f93          	addi	x31,x31,160
    80014198:	00400f13          	li	x30,4
    8001419c:	01efb023          	sd	x30,0(x31)
    800141a0:	000f0fb7          	lui	x31,0xf0
    800141a4:	001f8f9b          	addiw	x31,x31,1 # f0001 <mem7+0x4001>
    800141a8:	00cf9f93          	slli	x31,x31,0xc
    800141ac:	005f8f93          	addi	x31,x31,5
    800141b0:	00000073          	ecall
    800141b4:	00713423          	sd	x7,8(x2)
    800141b8:	008c2137          	lui	x2,0x8c2
    800141bc:	000012b7          	lui	x5,0x1
    800141c0:	00510133          	add	x2,x2,x5
    800141c4:	ff017113          	andi	x2,x2,-16
    800141c8:	60a029f3          	csrr	x19,henvcfg
    800141cc:	00100d9b          	addiw	x27,x0,1
    800141d0:	020d9d93          	slli	x27,x27,0x20
    800141d4:	60ad9973          	csrrw	x18,henvcfg,x27
    800141d8:	60a02973          	csrr	x18,henvcfg
    800141dc:	02095993          	srli	x19,x18,0x20
    800141e0:	0039fc13          	andi	x24,x19,3
    800141e4:	00100893          	li	x17,1
    800141e8:	011c1e63          	bne	x24,x17,80014204 <pass_label_1>
    800141ec:	02651e37          	lui	x28,0x2651
    800141f0:	7d3e0e1b          	addiw	x28,x28,2003 # 26517d3 <current_test_index+0x1c7863b>
    800141f4:	00fe1e13          	slli	x28,x28,0xf
    800141f8:	008e0e13          	addi	x28,x28,8
    800141fc:	000e3b83          	ld	x23,0(x28)
    80014200:	000b8067          	jr	x23

0000000080014204 <pass_label_1>:
    80014204:	60002ef3          	csrr	x29,hstatus
    80014208:	0010071b          	addiw	x14,x0,1
    8001420c:	03071713          	slli	x14,x14,0x30
    80014210:	600713f3          	csrrw	x7,hstatus,x14
    80014214:	60002373          	csrr	x6,hstatus
    80014218:	03035c93          	srli	x25,x6,0x30
    8001421c:	003cfd93          	andi	x27,x25,3
    80014220:	011d9e63          	bne	x27,x17,8001423c <pass_label_2>
    80014224:	02651b37          	lui	x22,0x2651
    80014228:	7d3b0b1b          	addiw	x22,x22,2003 # 26517d3 <current_test_index+0x1c7863b>
    8001422c:	00fb1b13          	slli	x22,x22,0xf
    80014230:	008b0b13          	addi	x22,x22,8
    80014234:	000b3f83          	ld	x31,0(x22)
    80014238:	000f8067          	jr	x31

000000008001423c <pass_label_2>:
    8001423c:	00490137          	lui	x2,0x490
    80014240:	00013383          	ld	x7,0(x2) # 490000 <tp_csr_storage>
    80014244:	02651fb7          	lui	x31,0x2651
    80014248:	7d3f8f9b          	addiw	x31,x31,2003 # 26517d3 <current_test_index+0x1c7863b>
    8001424c:	00ff9f93          	slli	x31,x31,0xf
    80014250:	0a0f8f93          	addi	x31,x31,160
    80014254:	00500f13          	li	x30,5
    80014258:	01efb023          	sd	x30,0(x31)
    8001425c:	000f0fb7          	lui	x31,0xf0
    80014260:	001f8f9b          	addiw	x31,x31,1 # f0001 <mem7+0x4001>
    80014264:	00cf9f93          	slli	x31,x31,0xc
    80014268:	005f8f93          	addi	x31,x31,5
    8001426c:	00000073          	ecall
    80014270:	00813383          	ld	x7,8(x2)
    80014274:	02651fb7          	lui	x31,0x2651
    80014278:	7d3f8f9b          	addiw	x31,x31,2003 # 26517d3 <current_test_index+0x1c7863b>
    8001427c:	00ff9f93          	slli	x31,x31,0xf
    80014280:	0a0f8f93          	addi	x31,x31,160
    80014284:	00600f13          	li	x30,6
    80014288:	01efb023          	sd	x30,0(x31)
    8001428c:	000f0fb7          	lui	x31,0xf0
    80014290:	001f8f9b          	addiw	x31,x31,1 # f0001 <mem7+0x4001>
    80014294:	00cf9f93          	slli	x31,x31,0xc
    80014298:	005f8f93          	addi	x31,x31,5
    8001429c:	00000073          	ecall

00000000800142a0 <SID_02_henvcfg_hstatus_pmm_warl_passed>:
    800142a0:	00f00f9b          	addiw	x31,x0,15
    800142a4:	01cf9f93          	slli	x31,x31,0x1c
    800142a8:	001f8f93          	addi	x31,x31,1
    800142ac:	00000073          	ecall

00000000800142b0 <SID_07_pm_disabled_s_hs_mode>:
    800142b0:	00490137          	lui	x2,0x490
    800142b4:	02651fb7          	lui	x31,0x2651
    800142b8:	7d3f8f9b          	addiw	x31,x31,2003 # 26517d3 <current_test_index+0x1c7863b>
    800142bc:	00ff9f93          	slli	x31,x31,0xf
    800142c0:	0a0f8f93          	addi	x31,x31,160
    800142c4:	00700f13          	li	x30,7
    800142c8:	01efb023          	sd	x30,0(x31)
    800142cc:	000f0fb7          	lui	x31,0xf0
    800142d0:	001f8f9b          	addiw	x31,x31,1 # f0001 <mem7+0x4001>
    800142d4:	00cf9f93          	slli	x31,x31,0xc
    800142d8:	005f8f93          	addi	x31,x31,5
    800142dc:	00000073          	ecall
    800142e0:	00713023          	sd	x7,0(x2) # 490000 <tp_csr_storage>
    800142e4:	001eb137          	lui	x2,0x1eb
    800142e8:	000012b7          	lui	x5,0x1
    800142ec:	00510133          	add	x2,x2,x5
    800142f0:	ff017113          	andi	x2,x2,-16
    800142f4:	0030039b          	addiw	x7,x0,3
    800142f8:	02039393          	slli	x7,x7,0x20
    800142fc:	02651fb7          	lui	x31,0x2651
    80014300:	7d3f8f9b          	addiw	x31,x31,2003 # 26517d3 <current_test_index+0x1c7863b>
    80014304:	00ff9f93          	slli	x31,x31,0xf
    80014308:	0a0f8f93          	addi	x31,x31,160
    8001430c:	00800f13          	li	x30,8
    80014310:	01efb023          	sd	x30,0(x31)
    80014314:	000f0fb7          	lui	x31,0xf0
    80014318:	001f8f9b          	addiw	x31,x31,1 # f0001 <mem7+0x4001>
    8001431c:	00cf9f93          	slli	x31,x31,0xc
    80014320:	005f8f93          	addi	x31,x31,5
    80014324:	00000073          	ecall
    80014328:	00008c37          	lui	x24,0x8
    8001432c:	f77c0c1b          	addiw	x24,x24,-137 # 7f77 <_all_interrupts+0x54cd>
    80014330:	011c1c13          	slli	x24,x24,0x11
    80014334:	acec0c13          	addi	x24,x24,-1330
    80014338:	0258e637          	lui	x12,0x258e
    8001433c:	dbd6061b          	addiw	x12,x12,-579 # 258ddbd <current_test_index+0x1bb4c25>
    80014340:	00c61613          	slli	x12,x12,0xc
    80014344:	01862023          	sw	x24,0(x12)
    80014348:	0258e7b7          	lui	x15,0x258e
    8001434c:	dbd7879b          	addiw	x15,x15,-579 # 258ddbd <current_test_index+0x1bb4c25>
    80014350:	00c79793          	slli	x15,x15,0xc
    80014354:	fff0081b          	addiw	x16,x0,-1
    80014358:	03981813          	slli	x16,x16,0x39
    8001435c:	0107c433          	xor	x8,x15,x16
    80014360:	009d9237          	lui	x4,0x9d9
    80014364:	00d00e13          	li	x28,13
    80014368:	05c23823          	sd	x28,80(x4) # 9d9050 <check_excp_expected_cause>
    8001436c:	00000e17          	auipc	x28,0x0
    80014370:	048e0e13          	addi	x28,x28,72 # 800143b4 <fault_label_0>
    80014374:	03c23023          	sd	x28,32(x4) # 20 <SECURE_ACCESS_PROBABILITY+0x2>
    80014378:	00000e13          	li	x28,0
    8001437c:	05c23023          	sd	x28,64(x4) # 40 <XLEN>
    80014380:	00000e13          	li	x28,0
    80014384:	05c23423          	sd	x28,72(x4) # 48 <XLEN+0x8>
    80014388:	00000e17          	auipc	x28,0x0
    8001438c:	048e0e13          	addi	x28,x28,72 # 800143d0 <excp_return_label_0>
    80014390:	03c23823          	sd	x28,48(x4) # 30 <SECURE_ACCESS_PROBABILITY+0x12>
    80014394:	00000e13          	li	x28,0
    80014398:	03c23c23          	sd	x28,56(x4) # 38 <SECURE_ACCESS_PROBABILITY+0x1a>
    8001439c:	00000e13          	li	x28,0
    800143a0:	07c23023          	sd	x28,96(x4) # 60 <XLEN+0x20>
    800143a4:	00000e13          	li	x28,0
    800143a8:	07c23423          	sd	x28,104(x4) # 68 <FS_RANDOMIZATION+0x4>
    800143ac:	00000e13          	li	x28,0
    800143b0:	07c23823          	sd	x28,112(x4) # 70 <FS_RANDOMIZATION+0xc>

00000000800143b4 <fault_label_0>:
    800143b4:	00043703          	ld	x14,0(x8)
    800143b8:	02651b37          	lui	x22,0x2651
    800143bc:	7d3b0b1b          	addiw	x22,x22,2003 # 26517d3 <current_test_index+0x1c7863b>
    800143c0:	00fb1b13          	slli	x22,x22,0xf
    800143c4:	008b0b13          	addi	x22,x22,8
    800143c8:	000b3883          	ld	x17,0(x22)
    800143cc:	00088067          	jr	x17

00000000800143d0 <excp_return_label_0>:
    800143d0:	00490137          	lui	x2,0x490
    800143d4:	00013383          	ld	x7,0(x2) # 490000 <tp_csr_storage>
    800143d8:	02651fb7          	lui	x31,0x2651
    800143dc:	7d3f8f9b          	addiw	x31,x31,2003 # 26517d3 <current_test_index+0x1c7863b>
    800143e0:	00ff9f93          	slli	x31,x31,0xf
    800143e4:	0a0f8f93          	addi	x31,x31,160
    800143e8:	00900f13          	li	x30,9
    800143ec:	01efb023          	sd	x30,0(x31)
    800143f0:	000f0fb7          	lui	x31,0xf0
    800143f4:	001f8f9b          	addiw	x31,x31,1 # f0001 <mem7+0x4001>
    800143f8:	00cf9f93          	slli	x31,x31,0xc
    800143fc:	005f8f93          	addi	x31,x31,5
    80014400:	00000073          	ecall

0000000080014404 <SID_07_pm_disabled_s_hs_mode_passed>:
    80014404:	00f00f9b          	addiw	x31,x0,15
    80014408:	01cf9f93          	slli	x31,x31,0x1c
    8001440c:	001f8f93          	addi	x31,x31,1
    80014410:	00000073          	ecall

0000000080014414 <SID_11_pm_enabled_s_hs_mode>:
    80014414:	00490137          	lui	x2,0x490
    80014418:	02651fb7          	lui	x31,0x2651
    8001441c:	7d3f8f9b          	addiw	x31,x31,2003 # 26517d3 <current_test_index+0x1c7863b>
    80014420:	00ff9f93          	slli	x31,x31,0xf
    80014424:	0a0f8f93          	addi	x31,x31,160
    80014428:	00700f13          	li	x30,7
    8001442c:	01efb023          	sd	x30,0(x31)
    80014430:	000f0fb7          	lui	x31,0xf0
    80014434:	001f8f9b          	addiw	x31,x31,1 # f0001 <mem7+0x4001>
    80014438:	00cf9f93          	slli	x31,x31,0xc
    8001443c:	005f8f93          	addi	x31,x31,5
    80014440:	00000073          	ecall
    80014444:	00713023          	sd	x7,0(x2) # 490000 <tp_csr_storage>
    80014448:	003ee137          	lui	x2,0x3ee
    8001444c:	000012b7          	lui	x5,0x1
    80014450:	00510133          	add	x2,x2,x5
    80014454:	ff017113          	andi	x2,x2,-16
    80014458:	0010039b          	addiw	x7,x0,1
    8001445c:	02139393          	slli	x7,x7,0x21
    80014460:	02651fb7          	lui	x31,0x2651
    80014464:	7d3f8f9b          	addiw	x31,x31,2003 # 26517d3 <current_test_index+0x1c7863b>
    80014468:	00ff9f93          	slli	x31,x31,0xf
    8001446c:	0a0f8f93          	addi	x31,x31,160
    80014470:	00b00f13          	li	x30,11
    80014474:	01efb023          	sd	x30,0(x31)
    80014478:	000f0fb7          	lui	x31,0xf0
    8001447c:	001f8f9b          	addiw	x31,x31,1 # f0001 <mem7+0x4001>
    80014480:	00cf9f93          	slli	x31,x31,0xc
    80014484:	005f8f93          	addi	x31,x31,5
    80014488:	00000073          	ecall
    8001448c:	123453b7          	lui	x7,0x12345
    80014490:	6783839b          	addiw	x7,x7,1656 # 12345678 <maplic_255+0x1a46678>
    80014494:	01a57a37          	lui	x20,0x1a57
    80014498:	475a0a1b          	addiw	x20,x20,1141 # 1a57475 <current_test_index+0x107e2dd>
    8001449c:	00ea1a13          	slli	x20,x20,0xe
    800144a0:	007a3023          	sd	x7,0(x20)
    800144a4:	01a57fb7          	lui	x31,0x1a57
    800144a8:	475f8f9b          	addiw	x31,x31,1141 # 1a57475 <current_test_index+0x107e2dd>
    800144ac:	00ef9f93          	slli	x31,x31,0xe
    800144b0:	fff00c1b          	addiw	x24,x0,-1
    800144b4:	039c1c13          	slli	x24,x24,0x39
    800144b8:	018fcfb3          	xor	x31,x31,x24
    800144bc:	000fb607          	fld	f12,0(x31)
    800144c0:	000acdb7          	lui	x27,0xac
    800144c4:	cdfd8d9b          	addiw	x27,x27,-801 # abcdf <mem6+0x27cdf>
    800144c8:	00cd9d93          	slli	x27,x27,0xc
    800144cc:	f00d8d93          	addi	x27,x27,-256
    800144d0:	d01df6d3          	fcvt.s.wu	f13,x27
    800144d4:	00dfb027          	fsd	f13,0(x31)
    800144d8:	01a57937          	lui	x18,0x1a57
    800144dc:	4759091b          	addiw	x18,x18,1141 # 1a57475 <current_test_index+0x107e2dd>
    800144e0:	00e91913          	slli	x18,x18,0xe
    800144e4:	00093b83          	ld	x23,0(x18)
    800144e8:	00490137          	lui	x2,0x490
    800144ec:	00013383          	ld	x7,0(x2) # 490000 <tp_csr_storage>
    800144f0:	02651fb7          	lui	x31,0x2651
    800144f4:	7d3f8f9b          	addiw	x31,x31,2003 # 26517d3 <current_test_index+0x1c7863b>
    800144f8:	00ff9f93          	slli	x31,x31,0xf
    800144fc:	0a0f8f93          	addi	x31,x31,160
    80014500:	00900f13          	li	x30,9
    80014504:	01efb023          	sd	x30,0(x31)
    80014508:	000f0fb7          	lui	x31,0xf0
    8001450c:	001f8f9b          	addiw	x31,x31,1 # f0001 <mem7+0x4001>
    80014510:	00cf9f93          	slli	x31,x31,0xc
    80014514:	005f8f93          	addi	x31,x31,5
    80014518:	00000073          	ecall

000000008001451c <SID_11_pm_enabled_s_hs_mode_passed>:
    8001451c:	00f00f9b          	addiw	x31,x0,15
    80014520:	01cf9f93          	slli	x31,x31,0x1c
    80014524:	001f8f93          	addi	x31,x31,1
    80014528:	00000073          	ecall

000000008001452c <SID_22_pm_disabled_mxr_set>:
    8001452c:	00490137          	lui	x2,0x490
    80014530:	02651fb7          	lui	x31,0x2651
    80014534:	7d3f8f9b          	addiw	x31,x31,2003 # 26517d3 <current_test_index+0x1c7863b>
    80014538:	00ff9f93          	slli	x31,x31,0xf
    8001453c:	0a0f8f93          	addi	x31,x31,160
    80014540:	00d00f13          	li	x30,13
    80014544:	01efb023          	sd	x30,0(x31)
    80014548:	000f0fb7          	lui	x31,0xf0
    8001454c:	001f8f9b          	addiw	x31,x31,1 # f0001 <mem7+0x4001>
    80014550:	00cf9f93          	slli	x31,x31,0xc
    80014554:	005f8f93          	addi	x31,x31,5
    80014558:	00000073          	ecall
    8001455c:	00713023          	sd	x7,0(x2) # 490000 <tp_csr_storage>
    80014560:	02651fb7          	lui	x31,0x2651
    80014564:	7d3f8f9b          	addiw	x31,x31,2003 # 26517d3 <current_test_index+0x1c7863b>
    80014568:	00ff9f93          	slli	x31,x31,0xf
    8001456c:	0a0f8f93          	addi	x31,x31,160
    80014570:	00100f13          	li	x30,1
    80014574:	01efb023          	sd	x30,0(x31)
    80014578:	000f0fb7          	lui	x31,0xf0
    8001457c:	001f8f9b          	addiw	x31,x31,1 # f0001 <mem7+0x4001>
    80014580:	00cf9f93          	slli	x31,x31,0xc
    80014584:	005f8f93          	addi	x31,x31,5
    80014588:	00000073          	ecall
    8001458c:	00713423          	sd	x7,8(x2)
    80014590:	000ea137          	lui	x2,0xea
    80014594:	000012b7          	lui	x5,0x1
    80014598:	00510133          	add	x2,x2,x5
    8001459c:	ff017113          	andi	x2,x2,-16
    800145a0:	00100e1b          	addiw	x28,x0,1
    800145a4:	021e1e13          	slli	x28,x28,0x21
    800145a8:	10ae2f73          	csrrs	x30,0x10a,x28
    800145ac:	00080a37          	lui	x20,0x80
    800145b0:	000a0393          	mv	x7,x20
    800145b4:	02651fb7          	lui	x31,0x2651
    800145b8:	7d3f8f9b          	addiw	x31,x31,2003 # 26517d3 <current_test_index+0x1c7863b>
    800145bc:	00ff9f93          	slli	x31,x31,0xf
    800145c0:	0a0f8f93          	addi	x31,x31,160
    800145c4:	00f00f13          	li	x30,15
    800145c8:	01efb023          	sd	x30,0(x31)
    800145cc:	000f0fb7          	lui	x31,0xf0
    800145d0:	001f8f9b          	addiw	x31,x31,1 # f0001 <mem7+0x4001>
    800145d4:	00cf9f93          	slli	x31,x31,0xc
    800145d8:	005f8f93          	addi	x31,x31,5
    800145dc:	00000073          	ecall
    800145e0:	12345eb7          	lui	x29,0x12345
    800145e4:	678e8e9b          	addiw	x29,x29,1656 # 12345678 <maplic_255+0x1a46678>
    800145e8:	00123c37          	lui	x24,0x123
    800145ec:	a85c0c1b          	addiw	x24,x24,-1403 # 122a85 <mem7+0x36a85>
    800145f0:	00dc1c13          	slli	x24,x24,0xd
    800145f4:	01dc3023          	sd	x29,0(x24)
    800145f8:	00123737          	lui	x14,0x123
    800145fc:	a857071b          	addiw	x14,x14,-1403 # 122a85 <mem7+0x36a85>
    80014600:	00d71713          	slli	x14,x14,0xd
    80014604:	fff00c9b          	addiw	x25,x0,-1
    80014608:	039c9c93          	slli	x25,x25,0x39
    8001460c:	019748b3          	xor	x17,x14,x25
    80014610:	009d9237          	lui	x4,0x9d9
    80014614:	00d00e13          	li	x28,13
    80014618:	05c23823          	sd	x28,80(x4) # 9d9050 <check_excp_expected_cause>
    8001461c:	00000e17          	auipc	x28,0x0
    80014620:	048e0e13          	addi	x28,x28,72 # 80014664 <fault_label_1>
    80014624:	03c23023          	sd	x28,32(x4) # 20 <SECURE_ACCESS_PROBABILITY+0x2>
    80014628:	00000e13          	li	x28,0
    8001462c:	05c23023          	sd	x28,64(x4) # 40 <XLEN>
    80014630:	00000e13          	li	x28,0
    80014634:	05c23423          	sd	x28,72(x4) # 48 <XLEN+0x8>
    80014638:	00000e17          	auipc	x28,0x0
    8001463c:	048e0e13          	addi	x28,x28,72 # 80014680 <excp_return_label_1>
    80014640:	03c23823          	sd	x28,48(x4) # 30 <SECURE_ACCESS_PROBABILITY+0x12>
    80014644:	00000e13          	li	x28,0
    80014648:	03c23c23          	sd	x28,56(x4) # 38 <SECURE_ACCESS_PROBABILITY+0x1a>
    8001464c:	00000e13          	li	x28,0
    80014650:	07c23023          	sd	x28,96(x4) # 60 <XLEN+0x20>
    80014654:	00000e13          	li	x28,0
    80014658:	07c23423          	sd	x28,104(x4) # 68 <FS_RANDOMIZATION+0x4>
    8001465c:	00000e13          	li	x28,0
    80014660:	07c23823          	sd	x28,112(x4) # 70 <FS_RANDOMIZATION+0xc>

0000000080014664 <fault_label_1>:
    80014664:	0008bf07          	fld	f30,0(x17)
    80014668:	02651db7          	lui	x27,0x2651
    8001466c:	7d3d8d9b          	addiw	x27,x27,2003 # 26517d3 <current_test_index+0x1c7863b>
    80014670:	00fd9d93          	slli	x27,x27,0xf
    80014674:	008d8d93          	addi	x27,x27,8
    80014678:	000dbe03          	ld	x28,0(x27)
    8001467c:	000e0067          	jr	x28

0000000080014680 <excp_return_label_1>:
    80014680:	00490137          	lui	x2,0x490
    80014684:	00013383          	ld	x7,0(x2) # 490000 <tp_csr_storage>
    80014688:	02651fb7          	lui	x31,0x2651
    8001468c:	7d3f8f9b          	addiw	x31,x31,2003 # 26517d3 <current_test_index+0x1c7863b>
    80014690:	00ff9f93          	slli	x31,x31,0xf
    80014694:	0a0f8f93          	addi	x31,x31,160
    80014698:	01000f13          	li	x30,16
    8001469c:	01efb023          	sd	x30,0(x31)
    800146a0:	000f0fb7          	lui	x31,0xf0
    800146a4:	001f8f9b          	addiw	x31,x31,1 # f0001 <mem7+0x4001>
    800146a8:	00cf9f93          	slli	x31,x31,0xc
    800146ac:	005f8f93          	addi	x31,x31,5
    800146b0:	00000073          	ecall
    800146b4:	00813383          	ld	x7,8(x2)
    800146b8:	02651fb7          	lui	x31,0x2651
    800146bc:	7d3f8f9b          	addiw	x31,x31,2003 # 26517d3 <current_test_index+0x1c7863b>
    800146c0:	00ff9f93          	slli	x31,x31,0xf
    800146c4:	0a0f8f93          	addi	x31,x31,160
    800146c8:	00200f13          	li	x30,2
    800146cc:	01efb023          	sd	x30,0(x31)
    800146d0:	000f0fb7          	lui	x31,0xf0
    800146d4:	001f8f9b          	addiw	x31,x31,1 # f0001 <mem7+0x4001>
    800146d8:	00cf9f93          	slli	x31,x31,0xc
    800146dc:	005f8f93          	addi	x31,x31,5
    800146e0:	00000073          	ecall

00000000800146e4 <SID_22_pm_disabled_mxr_set_passed>:
    800146e4:	00f00f9b          	addiw	x31,x0,15
    800146e8:	01cf9f93          	slli	x31,x31,0x1c
    800146ec:	001f8f93          	addi	x31,x31,1
    800146f0:	00000073          	ecall

00000000800146f4 <SID_23_pm_invalidation_instructions>:
    800146f4:	00490137          	lui	x2,0x490
    800146f8:	02651fb7          	lui	x31,0x2651
    800146fc:	7d3f8f9b          	addiw	x31,x31,2003 # 26517d3 <current_test_index+0x1c7863b>
    80014700:	00ff9f93          	slli	x31,x31,0xf
    80014704:	0a0f8f93          	addi	x31,x31,160
    80014708:	00100f13          	li	x30,1
    8001470c:	01efb023          	sd	x30,0(x31)
    80014710:	000f0fb7          	lui	x31,0xf0
    80014714:	001f8f9b          	addiw	x31,x31,1 # f0001 <mem7+0x4001>
    80014718:	00cf9f93          	slli	x31,x31,0xc
    8001471c:	005f8f93          	addi	x31,x31,5
    80014720:	00000073          	ecall
    80014724:	00713023          	sd	x7,0(x2) # 490000 <tp_csr_storage>
    80014728:	07661137          	lui	x2,0x7661
    8001472c:	000012b7          	lui	x5,0x1
    80014730:	00510133          	add	x2,x2,x5
    80014734:	ff017113          	andi	x2,x2,-16
    80014738:	00100a1b          	addiw	x20,x0,1
    8001473c:	021a1a13          	slli	x20,x20,0x21
    80014740:	10aa28f3          	csrrs	x17,0x10a,x20
    80014744:	000acd37          	lui	x26,0xac
    80014748:	cd1d0d1b          	addiw	x26,x26,-815 # abcd1 <mem6+0x27cd1>
    8001474c:	00cd1d13          	slli	x26,x26,0xc
    80014750:	234d0d13          	addi	x26,x26,564
    80014754:	00001a37          	lui	x20,0x1
    80014758:	345a0a1b          	addiw	x20,x20,837 # 1345 <FS_RANDOMIZATION+0x12e1>
    8001475c:	013a1a13          	slli	x20,x20,0x13
    80014760:	f45a0a13          	addi	x20,x20,-187
    80014764:	00da1a13          	slli	x20,x20,0xd
    80014768:	d01d7f53          	fcvt.s.wu	f30,x26
    8001476c:	01ea3027          	fsd	f30,0(x20)
    80014770:	00001cb7          	lui	x25,0x1
    80014774:	345c8c9b          	addiw	x25,x25,837 # 1345 <FS_RANDOMIZATION+0x12e1>
    80014778:	013c9c93          	slli	x25,x25,0x13
    8001477c:	f45c8c93          	addi	x25,x25,-187
    80014780:	00dc9c93          	slli	x25,x25,0xd
    80014784:	000cbc07          	fld	f24,0(x25)
    80014788:	00490137          	lui	x2,0x490
    8001478c:	00013383          	ld	x7,0(x2) # 490000 <tp_csr_storage>
    80014790:	02651fb7          	lui	x31,0x2651
    80014794:	7d3f8f9b          	addiw	x31,x31,2003 # 26517d3 <current_test_index+0x1c7863b>
    80014798:	00ff9f93          	slli	x31,x31,0xf
    8001479c:	0a0f8f93          	addi	x31,x31,160
    800147a0:	00200f13          	li	x30,2
    800147a4:	01efb023          	sd	x30,0(x31)
    800147a8:	000f0fb7          	lui	x31,0xf0
    800147ac:	001f8f9b          	addiw	x31,x31,1 # f0001 <mem7+0x4001>
    800147b0:	00cf9f93          	slli	x31,x31,0xc
    800147b4:	005f8f93          	addi	x31,x31,5
    800147b8:	00000073          	ecall

00000000800147bc <SID_23_pm_invalidation_instructions_passed>:
    800147bc:	00f00f9b          	addiw	x31,x0,15
    800147c0:	01cf9f93          	slli	x31,x31,0x1c
    800147c4:	001f8f93          	addi	x31,x31,1
    800147c8:	00000073          	ecall

00000000800147cc <SID_24_pm_instruction_set>:
    800147cc:	00490137          	lui	x2,0x490
    800147d0:	02651fb7          	lui	x31,0x2651
    800147d4:	7d3f8f9b          	addiw	x31,x31,2003 # 26517d3 <current_test_index+0x1c7863b>
    800147d8:	00ff9f93          	slli	x31,x31,0xf
    800147dc:	0a0f8f93          	addi	x31,x31,160
    800147e0:	00100f13          	li	x30,1
    800147e4:	01efb023          	sd	x30,0(x31)
    800147e8:	000f0fb7          	lui	x31,0xf0
    800147ec:	001f8f9b          	addiw	x31,x31,1 # f0001 <mem7+0x4001>
    800147f0:	00cf9f93          	slli	x31,x31,0xc
    800147f4:	005f8f93          	addi	x31,x31,5
    800147f8:	00000073          	ecall
    800147fc:	00713023          	sd	x7,0(x2) # 490000 <tp_csr_storage>
    80014800:	002a4137          	lui	x2,0x2a4
    80014804:	000012b7          	lui	x5,0x1
    80014808:	00510133          	add	x2,x2,x5
    8001480c:	ff017113          	andi	x2,x2,-16
    80014810:	00100d9b          	addiw	x27,x0,1
    80014814:	021d9d93          	slli	x27,x27,0x21
    80014818:	10ada6f3          	csrrs	x13,0x10a,x27
    8001481c:	112238b7          	lui	x17,0x11223
    80014820:	3448889b          	addiw	x17,x17,836 # 11223344 <maplic_255+0x924344>
    80014824:	00054fb7          	lui	x31,0x54
    80014828:	011fa023          	sw	x17,0(x31) # 54000 <mem4>
    8001482c:	000545b7          	lui	x11,0x54
    80014830:	0005be87          	fld	f29,0(x11) # 54000 <mem4>
    80014834:	00490137          	lui	x2,0x490
    80014838:	00013383          	ld	x7,0(x2) # 490000 <tp_csr_storage>
    8001483c:	02651fb7          	lui	x31,0x2651
    80014840:	7d3f8f9b          	addiw	x31,x31,2003 # 26517d3 <current_test_index+0x1c7863b>
    80014844:	00ff9f93          	slli	x31,x31,0xf
    80014848:	0a0f8f93          	addi	x31,x31,160
    8001484c:	00200f13          	li	x30,2
    80014850:	01efb023          	sd	x30,0(x31)
    80014854:	000f0fb7          	lui	x31,0xf0
    80014858:	001f8f9b          	addiw	x31,x31,1 # f0001 <mem7+0x4001>
    8001485c:	00cf9f93          	slli	x31,x31,0xc
    80014860:	005f8f93          	addi	x31,x31,5
    80014864:	00000073          	ecall

0000000080014868 <SID_24_pm_instruction_set_passed>:
    80014868:	00f00f9b          	addiw	x31,x0,15
    8001486c:	01cf9f93          	slli	x31,x31,0x1c
    80014870:	001f8f93          	addi	x31,x31,1
    80014874:	00000073          	ecall

0000000080014878 <SID_25_pm_misaligned_access>:
    80014878:	00490137          	lui	x2,0x490
    8001487c:	02651fb7          	lui	x31,0x2651
    80014880:	7d3f8f9b          	addiw	x31,x31,2003 # 26517d3 <current_test_index+0x1c7863b>
    80014884:	00ff9f93          	slli	x31,x31,0xf
    80014888:	0a0f8f93          	addi	x31,x31,160
    8001488c:	00100f13          	li	x30,1
    80014890:	01efb023          	sd	x30,0(x31)
    80014894:	000f0fb7          	lui	x31,0xf0
    80014898:	001f8f9b          	addiw	x31,x31,1 # f0001 <mem7+0x4001>
    8001489c:	00cf9f93          	slli	x31,x31,0xc
    800148a0:	005f8f93          	addi	x31,x31,5
    800148a4:	00000073          	ecall
    800148a8:	00713023          	sd	x7,0(x2) # 490000 <tp_csr_storage>
    800148ac:	001d0137          	lui	x2,0x1d0
    800148b0:	a8d1011b          	addiw	x2,x2,-1395 # 1cfa8d <hart_stack_0_end+0x16a8d>
    800148b4:	00c11113          	slli	x2,x2,0xc
    800148b8:	000012b7          	lui	x5,0x1
    800148bc:	00510133          	add	x2,x2,x5
    800148c0:	ff017113          	andi	x2,x2,-16
    800148c4:	0030079b          	addiw	x15,x0,3
    800148c8:	02079793          	slli	x15,x15,0x20
    800148cc:	10a7a873          	csrrs	x16,0x10a,x15
    800148d0:	55667837          	lui	x16,0x55667
    800148d4:	7888081b          	addiw	x16,x16,1928 # 55667788 <saplic_255+0x34d68788>
    800148d8:	0000df37          	lui	x30,0xd
    800148dc:	ee7f0f1b          	addiw	x30,x30,-281 # cee7 <_all_interrupts+0xa43d>
    800148e0:	010f1f13          	slli	x30,x30,0x10
    800148e4:	d0187dd3          	fcvt.s.wu	f27,x16
    800148e8:	01bf3027          	fsd	f27,0(x30)
    800148ec:	0000dc37          	lui	x24,0xd
    800148f0:	ee7c0c1b          	addiw	x24,x24,-281 # cee7 <_all_interrupts+0xa43d>
    800148f4:	010c1c13          	slli	x24,x24,0x10
    800148f8:	000c3907          	fld	f18,0(x24)
    800148fc:	00490137          	lui	x2,0x490
    80014900:	00013383          	ld	x7,0(x2) # 490000 <tp_csr_storage>
    80014904:	02651fb7          	lui	x31,0x2651
    80014908:	7d3f8f9b          	addiw	x31,x31,2003 # 26517d3 <current_test_index+0x1c7863b>
    8001490c:	00ff9f93          	slli	x31,x31,0xf
    80014910:	0a0f8f93          	addi	x31,x31,160
    80014914:	00200f13          	li	x30,2
    80014918:	01efb023          	sd	x30,0(x31)
    8001491c:	000f0fb7          	lui	x31,0xf0
    80014920:	001f8f9b          	addiw	x31,x31,1 # f0001 <mem7+0x4001>
    80014924:	00cf9f93          	slli	x31,x31,0xc
    80014928:	005f8f93          	addi	x31,x31,5
    8001492c:	00000073          	ecall

0000000080014930 <SID_25_pm_misaligned_access_passed>:
    80014930:	00f00f9b          	addiw	x31,x0,15
    80014934:	01cf9f93          	slli	x31,x31,0x1c
    80014938:	001f8f93          	addi	x31,x31,1
    8001493c:	00000073          	ecall

0000000080014940 <SID_26_pm_different_tags_same_address>:
    80014940:	00490137          	lui	x2,0x490
    80014944:	02651fb7          	lui	x31,0x2651
    80014948:	7d3f8f9b          	addiw	x31,x31,2003 # 26517d3 <current_test_index+0x1c7863b>
    8001494c:	00ff9f93          	slli	x31,x31,0xf
    80014950:	0a0f8f93          	addi	x31,x31,160
    80014954:	00100f13          	li	x30,1
    80014958:	01efb023          	sd	x30,0(x31)
    8001495c:	000f0fb7          	lui	x31,0xf0
    80014960:	001f8f9b          	addiw	x31,x31,1 # f0001 <mem7+0x4001>
    80014964:	00cf9f93          	slli	x31,x31,0xc
    80014968:	005f8f93          	addi	x31,x31,5
    8001496c:	00000073          	ecall
    80014970:	00713023          	sd	x7,0(x2) # 490000 <tp_csr_storage>
    80014974:	00040137          	lui	x2,0x40
    80014978:	000012b7          	lui	x5,0x1
    8001497c:	00510133          	add	x2,x2,x5
    80014980:	ff017113          	andi	x2,x2,-16
    80014984:	00300a9b          	addiw	x21,x0,3
    80014988:	020a9a93          	slli	x21,x21,0x20
    8001498c:	10aaabf3          	csrrs	x23,0x10a,x21
    80014990:	111118b7          	lui	x17,0x11111
    80014994:	1118889b          	addiw	x17,x17,273 # 11111111 <maplic_255+0x812111>
    80014998:	00084f37          	lui	x30,0x84
    8001499c:	d028fa53          	fcvt.s.l	f20,x17
    800149a0:	014f3027          	fsd	f20,0(x30) # 84000 <mem6>
    800149a4:	22222437          	lui	x8,0x22222
    800149a8:	2224041b          	addiw	x8,x8,546 # 22222222 <saplic_255+0x1923222>
    800149ac:	00084937          	lui	x18,0x84
    800149b0:	d2140cd3          	fcvt.d.wu	f25,x8
    800149b4:	01993027          	fsd	f25,0(x18) # 84000 <mem6>
    800149b8:	00084337          	lui	x6,0x84
    800149bc:	00033a07          	fld	f20,0(x6) # 84000 <mem6>
    800149c0:	00490137          	lui	x2,0x490
    800149c4:	00013383          	ld	x7,0(x2) # 490000 <tp_csr_storage>
    800149c8:	02651fb7          	lui	x31,0x2651
    800149cc:	7d3f8f9b          	addiw	x31,x31,2003 # 26517d3 <current_test_index+0x1c7863b>
    800149d0:	00ff9f93          	slli	x31,x31,0xf
    800149d4:	0a0f8f93          	addi	x31,x31,160
    800149d8:	00200f13          	li	x30,2
    800149dc:	01efb023          	sd	x30,0(x31)
    800149e0:	000f0fb7          	lui	x31,0xf0
    800149e4:	001f8f9b          	addiw	x31,x31,1 # f0001 <mem7+0x4001>
    800149e8:	00cf9f93          	slli	x31,x31,0xc
    800149ec:	005f8f93          	addi	x31,x31,5
    800149f0:	00000073          	ecall

00000000800149f4 <SID_26_pm_different_tags_same_address_passed>:
    800149f4:	00f00f9b          	addiw	x31,x0,15
    800149f8:	01cf9f93          	slli	x31,x31,0x1c
    800149fc:	001f8f93          	addi	x31,x31,1
    80014a00:	00000073          	ecall

0000000080014a04 <SID_27_pm_implicit_access>:
    80014a04:	00490137          	lui	x2,0x490
    80014a08:	02651fb7          	lui	x31,0x2651
    80014a0c:	7d3f8f9b          	addiw	x31,x31,2003 # 26517d3 <current_test_index+0x1c7863b>
    80014a10:	00ff9f93          	slli	x31,x31,0xf
    80014a14:	0a0f8f93          	addi	x31,x31,160
    80014a18:	00100f13          	li	x30,1
    80014a1c:	01efb023          	sd	x30,0(x31)
    80014a20:	000f0fb7          	lui	x31,0xf0
    80014a24:	001f8f9b          	addiw	x31,x31,1 # f0001 <mem7+0x4001>
    80014a28:	00cf9f93          	slli	x31,x31,0xc
    80014a2c:	005f8f93          	addi	x31,x31,5
    80014a30:	00000073          	ecall
    80014a34:	00713023          	sd	x7,0(x2) # 490000 <tp_csr_storage>
    80014a38:	0007c137          	lui	x2,0x7c
    80014a3c:	000012b7          	lui	x5,0x1
    80014a40:	00510133          	add	x2,x2,x5
    80014a44:	ff017113          	andi	x2,x2,-16
    80014a48:	0010039b          	addiw	x7,x0,1
    80014a4c:	02139393          	slli	x7,x7,0x21
    80014a50:	10a3acf3          	csrrs	x25,0x10a,x7
    80014a54:	00040e37          	lui	x28,0x40
    80014a58:	bb7e0e1b          	addiw	x28,x28,-1097 # 3fbb7 <_all_interrupts+0x3d10d>
    80014a5c:	00ee1e13          	slli	x28,x28,0xe
    80014a60:	0dee0e13          	addi	x28,x28,222
    80014a64:	000ec437          	lui	x8,0xec
    80014a68:	01c43023          	sd	x28,0(x8) # ec000 <mem7>
    80014a6c:	000ec837          	lui	x16,0xec
    80014a70:	00083e83          	ld	x29,0(x16) # ec000 <mem7>
    80014a74:	000577b7          	lui	x15,0x57
    80014a78:	000780e7          	jalr	x15 # 57000 <code_mem8>
    80014a7c:	00490137          	lui	x2,0x490
    80014a80:	00013383          	ld	x7,0(x2) # 490000 <tp_csr_storage>
    80014a84:	02651fb7          	lui	x31,0x2651
    80014a88:	7d3f8f9b          	addiw	x31,x31,2003 # 26517d3 <current_test_index+0x1c7863b>
    80014a8c:	00ff9f93          	slli	x31,x31,0xf
    80014a90:	0a0f8f93          	addi	x31,x31,160
    80014a94:	00200f13          	li	x30,2
    80014a98:	01efb023          	sd	x30,0(x31)
    80014a9c:	000f0fb7          	lui	x31,0xf0
    80014aa0:	001f8f9b          	addiw	x31,x31,1 # f0001 <mem7+0x4001>
    80014aa4:	00cf9f93          	slli	x31,x31,0xc
    80014aa8:	005f8f93          	addi	x31,x31,5
    80014aac:	00000073          	ecall

0000000080014ab0 <SID_27_pm_implicit_access_passed>:
    80014ab0:	00f00f9b          	addiw	x31,x0,15
    80014ab4:	01cf9f93          	slli	x31,x31,0x1c
    80014ab8:	001f8f93          	addi	x31,x31,1
    80014abc:	00000073          	ecall

0000000080014ac0 <SID_28_pm_faults_trap_values>:
    80014ac0:	00490137          	lui	x2,0x490
    80014ac4:	02651fb7          	lui	x31,0x2651
    80014ac8:	7d3f8f9b          	addiw	x31,x31,2003 # 26517d3 <current_test_index+0x1c7863b>
    80014acc:	00ff9f93          	slli	x31,x31,0xf
    80014ad0:	0a0f8f93          	addi	x31,x31,160
    80014ad4:	00100f13          	li	x30,1
    80014ad8:	01efb023          	sd	x30,0(x31)
    80014adc:	000f0fb7          	lui	x31,0xf0
    80014ae0:	001f8f9b          	addiw	x31,x31,1 # f0001 <mem7+0x4001>
    80014ae4:	00cf9f93          	slli	x31,x31,0xc
    80014ae8:	005f8f93          	addi	x31,x31,5
    80014aec:	00000073          	ecall
    80014af0:	00713023          	sd	x7,0(x2) # 490000 <tp_csr_storage>
    80014af4:	00269137          	lui	x2,0x269
    80014af8:	2d31011b          	addiw	x2,x2,723 # 2692d3 <SID_07_pm_disabled_s_hs_mode_stack+0x7e2d3>
    80014afc:	00c11113          	slli	x2,x2,0xc
    80014b00:	3c110113          	addi	x2,x2,961
    80014b04:	00d11113          	slli	x2,x2,0xd
    80014b08:	000012b7          	lui	x5,0x1
    80014b0c:	00510133          	add	x2,x2,x5
    80014b10:	ff017113          	andi	x2,x2,-16
    80014b14:	00100f1b          	addiw	x30,x0,1
    80014b18:	021f1f13          	slli	x30,x30,0x21
    80014b1c:	10af2b73          	csrrs	x22,0x10a,x30
    80014b20:	0badf637          	lui	x12,0xbadf
    80014b24:	00d6061b          	addiw	x12,x12,13 # badf00d <SID_23_pm_invalidation_instructions_stack+0x447e00d>
    80014b28:	009d9237          	lui	x4,0x9d9
    80014b2c:	00f00e13          	li	x28,15
    80014b30:	05c23823          	sd	x28,80(x4) # 9d9050 <check_excp_expected_cause>
    80014b34:	00000e17          	auipc	x28,0x0
    80014b38:	060e0e13          	addi	x28,x28,96 # 80014b94 <fault_label_2>
    80014b3c:	03c23023          	sd	x28,32(x4) # 20 <SECURE_ACCESS_PROBABILITY+0x2>
    80014b40:	00000e13          	li	x28,0
    80014b44:	05c23023          	sd	x28,64(x4) # 40 <XLEN>
    80014b48:	00000e13          	li	x28,0
    80014b4c:	05c23423          	sd	x28,72(x4) # 48 <XLEN+0x8>
    80014b50:	00000e17          	auipc	x28,0x0
    80014b54:	060e0e13          	addi	x28,x28,96 # 80014bb0 <excp_return_label_2>
    80014b58:	03c23823          	sd	x28,48(x4) # 30 <SECURE_ACCESS_PROBABILITY+0x12>
    80014b5c:	00000e13          	li	x28,0
    80014b60:	03c23c23          	sd	x28,56(x4) # 38 <SECURE_ACCESS_PROBABILITY+0x1a>
    80014b64:	00000e13          	li	x28,0
    80014b68:	07c23023          	sd	x28,96(x4) # 60 <XLEN+0x20>
    80014b6c:	00000e13          	li	x28,0
    80014b70:	07c23423          	sd	x28,104(x4) # 68 <FS_RANDOMIZATION+0x4>
    80014b74:	00000e13          	li	x28,0
    80014b78:	07c23823          	sd	x28,112(x4) # 70 <FS_RANDOMIZATION+0xc>
    80014b7c:	000b17b7          	lui	x15,0xb1
    80014b80:	49f7879b          	addiw	x15,x15,1183 # b149f <mem6+0x2d49f>
    80014b84:	00d79793          	slli	x15,x15,0xd
    80014b88:	70178793          	addi	x15,x15,1793
    80014b8c:	00c79793          	slli	x15,x15,0xc
    80014b90:	d2367453          	fcvt.d.lu	f8,x12

0000000080014b94 <fault_label_2>:
    80014b94:	0087a027          	fsw	f8,0(x15)
    80014b98:	026516b7          	lui	x13,0x2651
    80014b9c:	7d36869b          	addiw	x13,x13,2003 # 26517d3 <current_test_index+0x1c7863b>
    80014ba0:	00f69693          	slli	x13,x13,0xf
    80014ba4:	00868693          	addi	x13,x13,8
    80014ba8:	0006b383          	ld	x7,0(x13)
    80014bac:	00038067          	jr	x7

0000000080014bb0 <excp_return_label_2>:
    80014bb0:	00490137          	lui	x2,0x490
    80014bb4:	00013383          	ld	x7,0(x2) # 490000 <tp_csr_storage>
    80014bb8:	02651fb7          	lui	x31,0x2651
    80014bbc:	7d3f8f9b          	addiw	x31,x31,2003 # 26517d3 <current_test_index+0x1c7863b>
    80014bc0:	00ff9f93          	slli	x31,x31,0xf
    80014bc4:	0a0f8f93          	addi	x31,x31,160
    80014bc8:	00200f13          	li	x30,2
    80014bcc:	01efb023          	sd	x30,0(x31)
    80014bd0:	000f0fb7          	lui	x31,0xf0
    80014bd4:	001f8f9b          	addiw	x31,x31,1 # f0001 <mem7+0x4001>
    80014bd8:	00cf9f93          	slli	x31,x31,0xc
    80014bdc:	005f8f93          	addi	x31,x31,5
    80014be0:	00000073          	ecall

0000000080014be4 <SID_28_pm_faults_trap_values_passed>:
    80014be4:	00f00f9b          	addiw	x31,x0,15
    80014be8:	01cf9f93          	slli	x31,x31,0x1c
    80014bec:	001f8f93          	addi	x31,x31,1
    80014bf0:	00000073          	ecall

0000000080014bf4 <SID_29_pm_xtvec_tagged_address>:
    80014bf4:	00490137          	lui	x2,0x490
    80014bf8:	02651fb7          	lui	x31,0x2651
    80014bfc:	7d3f8f9b          	addiw	x31,x31,2003 # 26517d3 <current_test_index+0x1c7863b>
    80014c00:	00ff9f93          	slli	x31,x31,0xf
    80014c04:	0a0f8f93          	addi	x31,x31,160
    80014c08:	00100f13          	li	x30,1
    80014c0c:	01efb023          	sd	x30,0(x31)
    80014c10:	000f0fb7          	lui	x31,0xf0
    80014c14:	001f8f9b          	addiw	x31,x31,1 # f0001 <mem7+0x4001>
    80014c18:	00cf9f93          	slli	x31,x31,0xc
    80014c1c:	005f8f93          	addi	x31,x31,5
    80014c20:	00000073          	ecall
    80014c24:	00713023          	sd	x7,0(x2) # 490000 <tp_csr_storage>
    80014c28:	02651fb7          	lui	x31,0x2651
    80014c2c:	7d3f8f9b          	addiw	x31,x31,2003 # 26517d3 <current_test_index+0x1c7863b>
    80014c30:	00ff9f93          	slli	x31,x31,0xf
    80014c34:	0a0f8f93          	addi	x31,x31,160
    80014c38:	01f00f13          	li	x30,31
    80014c3c:	01efb023          	sd	x30,0(x31)
    80014c40:	000f0fb7          	lui	x31,0xf0
    80014c44:	001f8f9b          	addiw	x31,x31,1 # f0001 <mem7+0x4001>
    80014c48:	00cf9f93          	slli	x31,x31,0xc
    80014c4c:	005f8f93          	addi	x31,x31,5
    80014c50:	00000073          	ecall
    80014c54:	00713423          	sd	x7,8(x2)
    80014c58:	00133137          	lui	x2,0x133
    80014c5c:	000012b7          	lui	x5,0x1
    80014c60:	00510133          	add	x2,x2,x5
    80014c64:	ff017113          	andi	x2,x2,-16
    80014c68:	0010099b          	addiw	x19,x0,1
    80014c6c:	02199993          	slli	x19,x19,0x21
    80014c70:	10a9aef3          	csrrs	x29,0x10a,x19
    80014c74:	000139b7          	lui	x19,0x13
    80014c78:	105993f3          	csrrw	x7,stvec,x19
    80014c7c:	10502473          	csrr	x8,stvec
    80014c80:	00490137          	lui	x2,0x490
    80014c84:	00013383          	ld	x7,0(x2) # 490000 <tp_csr_storage>
    80014c88:	02651fb7          	lui	x31,0x2651
    80014c8c:	7d3f8f9b          	addiw	x31,x31,2003 # 26517d3 <current_test_index+0x1c7863b>
    80014c90:	00ff9f93          	slli	x31,x31,0xf
    80014c94:	0a0f8f93          	addi	x31,x31,160
    80014c98:	00200f13          	li	x30,2
    80014c9c:	01efb023          	sd	x30,0(x31)
    80014ca0:	000f0fb7          	lui	x31,0xf0
    80014ca4:	001f8f9b          	addiw	x31,x31,1 # f0001 <mem7+0x4001>
    80014ca8:	00cf9f93          	slli	x31,x31,0xc
    80014cac:	005f8f93          	addi	x31,x31,5
    80014cb0:	00000073          	ecall
    80014cb4:	00813383          	ld	x7,8(x2)
    80014cb8:	02651fb7          	lui	x31,0x2651
    80014cbc:	7d3f8f9b          	addiw	x31,x31,2003 # 26517d3 <current_test_index+0x1c7863b>
    80014cc0:	00ff9f93          	slli	x31,x31,0xf
    80014cc4:	0a0f8f93          	addi	x31,x31,160
    80014cc8:	02100f13          	li	x30,33
    80014ccc:	01efb023          	sd	x30,0(x31)
    80014cd0:	000f0fb7          	lui	x31,0xf0
    80014cd4:	001f8f9b          	addiw	x31,x31,1 # f0001 <mem7+0x4001>
    80014cd8:	00cf9f93          	slli	x31,x31,0xc
    80014cdc:	005f8f93          	addi	x31,x31,5
    80014ce0:	00000073          	ecall

0000000080014ce4 <SID_29_pm_xtvec_tagged_address_passed>:
    80014ce4:	00f00f9b          	addiw	x31,x0,15
    80014ce8:	01cf9f93          	slli	x31,x31,0x1c
    80014cec:	001f8f93          	addi	x31,x31,1
    80014cf0:	00000073          	ecall

0000000080014cf4 <test_cleanup>:
    80014cf4:	00f00f9b          	addiw	x31,x0,15
    80014cf8:	01cf9f93          	slli	x31,x31,0x1c
    80014cfc:	001f8f93          	addi	x31,x31,1
    80014d00:	00000073          	ecall

0000000080014d04 <local_test_failed>:
    80014d04:	00f00f9b          	addiw	x31,x0,15
    80014d08:	01cf9f93          	slli	x31,x31,0x1c
    80014d0c:	002f8f93          	addi	x31,x31,2
    80014d10:	00000073          	ecall

Disassembly of section .csr_machine_0:

0000000080214000 <csr_access_senvcfg_supervisor_key_2_write-0xb0>:
    80214000:	00041fb7          	lui	x31,0x41
    80214004:	5a7f8f9b          	addiw	x31,x31,1447 # 415a7 <SID_26_pm_different_tags_same_address_stack+0x15a7>
    80214008:	012f9f93          	slli	x31,x31,0x12
    8021400c:	0bff8f93          	addi	x31,x31,191
    80214010:	00ef9f93          	slli	x31,x31,0xe
    80214014:	0a0f8f93          	addi	x31,x31,160
    80214018:	000fbf83          	ld	x31,0(x31)
    8021401c:	00200293          	li	x5,2
    80214020:	085f8863          	beq	x31,x5,802140b0 <csr_access_senvcfg_supervisor_key_2_write>
    80214024:	00100293          	li	x5,1
    80214028:	085f8863          	beq	x31,x5,802140b8 <csr_access_senvcfg_supervisor_key_1_read>
    8021402c:	00500293          	li	x5,5
    80214030:	085f8863          	beq	x31,x5,802140c0 <csr_access_henvcfg_supervisor_key_5_write>
    80214034:	00300293          	li	x5,3
    80214038:	085f8863          	beq	x31,x5,802140c8 <csr_access_henvcfg_supervisor_key_3_read>
    8021403c:	00600293          	li	x5,6
    80214040:	085f8863          	beq	x31,x5,802140d0 <csr_access_hstatus_supervisor_key_6_write>
    80214044:	00400293          	li	x5,4
    80214048:	085f8863          	beq	x31,x5,802140d8 <csr_access_hstatus_supervisor_key_4_read>
    8021404c:	00900293          	li	x5,9
    80214050:	085f8863          	beq	x31,x5,802140e0 <csr_access_menvcfg_machine_key_9_write>
    80214054:	00700293          	li	x5,7
    80214058:	085f8863          	beq	x31,x5,802140e8 <csr_access_menvcfg_machine_key_7_read>
    8021405c:	00b00293          	li	x5,11
    80214060:	085f8863          	beq	x31,x5,802140f0 <csr_access_menvcfg_machine_key_11_set>
    80214064:	00800293          	li	x5,8
    80214068:	085f8863          	beq	x31,x5,802140f8 <csr_access_menvcfg_machine_key_8_clear>
    8021406c:	01000293          	li	x5,16
    80214070:	085f8863          	beq	x31,x5,80214100 <csr_access_mstatus_machine_key_16_write>
    80214074:	00d00293          	li	x5,13
    80214078:	085f8863          	beq	x31,x5,80214108 <csr_access_mstatus_machine_key_13_read>
    8021407c:	00f00293          	li	x5,15
    80214080:	085f8863          	beq	x31,x5,80214110 <csr_access_mstatus_machine_key_15_set>
    80214084:	02200293          	li	x5,34
    80214088:	085f8863          	beq	x31,x5,80214118 <csr_access_mstatus_machine_key_34_clear>
    8021408c:	02100293          	li	x5,33
    80214090:	085f8863          	beq	x31,x5,80214120 <csr_access_stvec_supervisor_key_33_write>
    80214094:	01f00293          	li	x5,31
    80214098:	085f8863          	beq	x31,x5,80214128 <csr_access_stvec_supervisor_key_31_read>
    8021409c:	02400293          	li	x5,36
    802140a0:	085f8863          	beq	x31,x5,80214130 <csr_access_mtvec_machine_key_36_set>
    802140a4:	02300293          	li	x5,35
    802140a8:	085f8863          	beq	x31,x5,80214138 <csr_access_mtvec_machine_key_35_clear>
    802140ac:	0940006f          	j	80214140 <end_machine_label>

00000000802140b0 <csr_access_senvcfg_supervisor_key_2_write>:
    802140b0:	10a39073          	csrw	0x10a,x7
    802140b4:	08c0006f          	j	80214140 <end_machine_label>

00000000802140b8 <csr_access_senvcfg_supervisor_key_1_read>:
    802140b8:	10a023f3          	csrr	x7,0x10a
    802140bc:	0840006f          	j	80214140 <end_machine_label>

00000000802140c0 <csr_access_henvcfg_supervisor_key_5_write>:
    802140c0:	60a39073          	csrw	henvcfg,x7
    802140c4:	07c0006f          	j	80214140 <end_machine_label>

00000000802140c8 <csr_access_henvcfg_supervisor_key_3_read>:
    802140c8:	60a023f3          	csrr	x7,henvcfg
    802140cc:	0740006f          	j	80214140 <end_machine_label>

00000000802140d0 <csr_access_hstatus_supervisor_key_6_write>:
    802140d0:	60039073          	csrw	hstatus,x7
    802140d4:	06c0006f          	j	80214140 <end_machine_label>

00000000802140d8 <csr_access_hstatus_supervisor_key_4_read>:
    802140d8:	600023f3          	csrr	x7,hstatus
    802140dc:	0640006f          	j	80214140 <end_machine_label>

00000000802140e0 <csr_access_menvcfg_machine_key_9_write>:
    802140e0:	30a39073          	csrw	0x30a,x7
    802140e4:	05c0006f          	j	80214140 <end_machine_label>

00000000802140e8 <csr_access_menvcfg_machine_key_7_read>:
    802140e8:	30a023f3          	csrr	x7,0x30a
    802140ec:	0540006f          	j	80214140 <end_machine_label>

00000000802140f0 <csr_access_menvcfg_machine_key_11_set>:
    802140f0:	30a3a073          	csrs	0x30a,x7
    802140f4:	04c0006f          	j	80214140 <end_machine_label>

00000000802140f8 <csr_access_menvcfg_machine_key_8_clear>:
    802140f8:	30a3b073          	csrc	0x30a,x7
    802140fc:	0440006f          	j	80214140 <end_machine_label>

0000000080214100 <csr_access_mstatus_machine_key_16_write>:
    80214100:	30039073          	csrw	mstatus,x7
    80214104:	03c0006f          	j	80214140 <end_machine_label>

0000000080214108 <csr_access_mstatus_machine_key_13_read>:
    80214108:	300023f3          	csrr	x7,mstatus
    8021410c:	0340006f          	j	80214140 <end_machine_label>

0000000080214110 <csr_access_mstatus_machine_key_15_set>:
    80214110:	3003a073          	csrs	mstatus,x7
    80214114:	02c0006f          	j	80214140 <end_machine_label>

0000000080214118 <csr_access_mstatus_machine_key_34_clear>:
    80214118:	3003b073          	csrc	mstatus,x7
    8021411c:	0240006f          	j	80214140 <end_machine_label>

0000000080214120 <csr_access_stvec_supervisor_key_33_write>:
    80214120:	10539073          	csrw	stvec,x7
    80214124:	01c0006f          	j	80214140 <end_machine_label>

0000000080214128 <csr_access_stvec_supervisor_key_31_read>:
    80214128:	105023f3          	csrr	x7,stvec
    8021412c:	0140006f          	j	80214140 <end_machine_label>

0000000080214130 <csr_access_mtvec_machine_key_36_set>:
    80214130:	3053a073          	csrs	mtvec,x7
    80214134:	00c0006f          	j	80214140 <end_machine_label>

0000000080214138 <csr_access_mtvec_machine_key_35_clear>:
    80214138:	3053b073          	csrc	mtvec,x7
    8021413c:	0040006f          	j	80214140 <end_machine_label>

0000000080214140 <end_machine_label>:
    80214140:	000f0fb7          	lui	x31,0xf0
    80214144:	001f8f9b          	addiw	x31,x31,1 # f0001 <mem7+0x4001>
    80214148:	00cf9f93          	slli	x31,x31,0xc
    8021414c:	004f8f93          	addi	x31,x31,4
    80214150:	00000073          	ecall

Disassembly of section .csr_super_0:

0000000080215000 <end_super_label-0x18>:
    80215000:	02651fb7          	lui	x31,0x2651
    80215004:	7d3f8f9b          	addiw	x31,x31,2003 # 26517d3 <current_test_index+0x1c7863b>
    80215008:	00ff9f93          	slli	x31,x31,0xf
    8021500c:	0a8f8f93          	addi	x31,x31,168
    80215010:	000fbf83          	ld	x31,0(x31)
    80215014:	0040006f          	j	80215018 <end_super_label>

0000000080215018 <end_super_label>:
    80215018:	000f0fb7          	lui	x31,0xf0
    8021501c:	001f8f9b          	addiw	x31,x31,1 # f0001 <mem7+0x4001>
    80215020:	00cf9f93          	slli	x31,x31,0xc
    80215024:	004f8f93          	addi	x31,x31,4
    80215028:	00000073          	ecall

Disassembly of section .os_data:

000001328be98000 <passed_addr_ptr>:
 1328be98000:	4040                	.insn	2, 0x4040
 1328be98002:	8001                	.insn	2, 0x8001
 1328be98004:	0000                	.insn	2, 0x0000
	...

000001328be98008 <failed_addr_ptr>:
 1328be98008:	4050                	.insn	2, 0x4050
 1328be9800a:	8001                	.insn	2, 0x8001
 1328be9800c:	0000                	.insn	2, 0x0000
	...

000001328be98010 <end_test_addr_ptr>:
 1328be98010:	4060                	.insn	2, 0x4060
 1328be98012:	8001                	.insn	2, 0x8001
 1328be98014:	0000                	.insn	2, 0x0000
	...

000001328be98018 <os_passed_addr_ptr>:
 1328be98018:	09f0                	.insn	2, 0x09f0
 1328be9801a:	8000                	.insn	2, 0x8000
 1328be9801c:	0000                	.insn	2, 0x0000
	...

000001328be98020 <os_failed_addr_ptr>:
 1328be98020:	0a00                	.insn	2, 0x0a00
 1328be98022:	8000                	.insn	2, 0x8000
 1328be98024:	0000                	.insn	2, 0x0000
	...

000001328be98028 <os_end_test_addr_ptr>:
 1328be98028:	0a0c                	.insn	2, 0x0a0c
 1328be9802a:	8000                	.insn	2, 0x8000
 1328be9802c:	0000                	.insn	2, 0x0000
	...

000001328be98030 <rvcp_prefix_str_data>:
 1328be98030:	5652                	.insn	2, 0x5652
 1328be98032:	203a5043          	fmadd.s	f0,f20,f3,f4,unknown
 1328be98036:	6554                	.insn	2, 0x6554
 1328be98038:	46207473          	csrrci	x8,0x462,0
 1328be9803c:	6c69                	.insn	2, 0x6c69
 1328be9803e:	2065                	.insn	2, 0x2065
	...

000001328be98041 <rvcp_testname_str_data>:
 1328be98041:	7074                	.insn	2, 0x7074
 1328be98043:	7a5f 706a 5f6d      	.insn	6, 0x5f6d706a7a5f
 1328be98049:	0032                	.insn	2, 0x0032

000001328be9804b <rvcp_passed_str_data>:
 1328be9804b:	4150                	.insn	2, 0x4150
 1328be9804d:	44455353          	fround.h	f6,f10,unknown
	...

000001328be98052 <rvcp_failed_str_data>:
 1328be98052:	4146                	.insn	2, 0x4146
 1328be98054:	4c49                	.insn	2, 0x4c49
 1328be98056:	4445                	.insn	2, 0x4445
	...

000001328be98059 <rvcp_space_str_data>:
 1328be98059:	0020                	.insn	2, 0x0020

000001328be9805b <rvcp_newline_str_data>:
 1328be9805b:	000a                	.insn	2, 0x000a
 1328be9805d:	0000                	.insn	2, 0x0000
	...

000001328be98060 <excp_ignored_count_mem>:
	...

000001328be98068 <machine_flags_mem>:
	...

000001328be98070 <user_flags_mem>:
	...

000001328be98078 <super_flags_mem>:
	...

000001328be98080 <machine_area_mem>:
	...

000001328be98088 <user_area_mem>:
	...

000001328be98090 <super_area_mem>:
	...

000001328be98098 <zero_data_mem>:
	...

000001328be980a0 <machine_csr_jump_table_flags_mem>:
	...

000001328be980a8 <super_csr_jump_table_flags_mem>:
	...

000001328be980b0 <pte_access_flags_mem>:
	...

000001328be980c8 <num_harts_ended_mem>:
	...

000001328be980d0 <num_hard_fails_mem>:
	...

Disassembly of section .hart_context:

00000000009d9000 <hart_context_0>:
  9d9000:	9000                	.insn	2, 0x9000
  9d9002:	0000001b          	sext.w	x0,x0
	...
  9d9016:	0000                	.insn	2, 0x0000
  9d9018:	0001                	.insn	2, 0x0001
  9d901a:	0000                	.insn	2, 0x0000
  9d901c:	0000                	.insn	2, 0x0000
  9d901e:	0000                	.insn	2, 0x0000
  9d9020:	ffff                	.insn	2, 0xffff
  9d9022:	ffff                	.insn	2, 0xffff
  9d9024:	ffff                	.insn	2, 0xffff
  9d9026:	ffff                	.insn	2, 0xffff
  9d9028:	ffff                	.insn	2, 0xffff
  9d902a:	ffff                	.insn	2, 0xffff
  9d902c:	ffff                	.insn	2, 0xffff
  9d902e:	ffff                	.insn	2, 0xffff
  9d9030:	ffff                	.insn	2, 0xffff
  9d9032:	ffff                	.insn	2, 0xffff
  9d9034:	ffff                	.insn	2, 0xffff
  9d9036:	ffff                	.insn	2, 0xffff
	...
  9d9050:	00ff 0000 0000 0000 	.insn	10, 0x00ff00000000000000ff
  9d9058:	00ff 
	...
  9d9176:	0000                	.insn	2, 0x0000
  9d9178:	ffff                	.insn	2, 0xffff
  9d917a:	ffff                	.insn	2, 0xffff
  9d917c:	ffff                	.insn	2, 0xffff
  9d917e:	ffff                	.insn	2, 0xffff
	...
  9d9198:	ffff                	.insn	2, 0xffff
  9d919a:	ffff                	.insn	2, 0xffff
	...

Disassembly of section .hart_stack_0:

00000000001b8000 <hart_stack_0>:
	...

Disassembly of section .io_htif:

0000000070000000 <tohost>:
	...

0000000070000040 <fromhost>:
	...

Disassembly of section .code_mem8:

0000000000057000 <.code_mem8>:
   57000:	177228b7          	lui	x17,0x17722
   57004:	9d68889b          	addiw	x17,x17,-1578 # 177219d6 <maplic_255+0x6e229d6>
   57008:	15ba35b7          	lui	x11,0x15ba3
   5700c:	be05859b          	addiw	x11,x11,-1056 # 15ba2be0 <maplic_255+0x52a3be0>
   57010:	00b88fbb          	addw	x31,x17,x11
   57014:	00008067          	ret

Disassembly of section .mem0:

000000258ddbd000 <.mem0>:
  258ddbd000:	c0de                	.insn	2, 0xc0de
  258ddbd002:	c001                	.insn	2, 0xc001
  258ddbd004:	0000                	.insn	2, 0x0000
	...

Disassembly of section .mem1:

000000695d1d4000 <.mem1>:
  695d1d4000:	c0de                	.insn	2, 0xc0de
  695d1d4002:	c001                	.insn	2, 0xc001
  695d1d4004:	0000                	.insn	2, 0x0000
	...

Disassembly of section .mem2:

000000024550a000 <.mem2>:
   24550a000:	c0de                	.insn	2, 0xc0de
   24550a002:	c001                	.insn	2, 0xc001
   24550a004:	0000                	.insn	2, 0x0000
	...

Disassembly of section .mem3:

00001344ffe8a000 <.mem3>:
    1344ffe8a000:	c0de                	.insn	2, 0xc0de
    1344ffe8a002:	c001                	.insn	2, 0xc001
    1344ffe8a004:	0000                	.insn	2, 0x0000
	...

Disassembly of section .mem4:

0000000000054000 <.mem4>:
   54000:	c0de                	.insn	2, 0xc0de
   54002:	c001                	.insn	2, 0xc001
   54004:	0000                	.insn	2, 0x0000
	...

Disassembly of section .mem5:

00000000cee70000 <.mem5>:
    cee70000:	c0de                	.insn	2, 0xc0de
    cee70002:	c001                	.insn	2, 0xc001
    cee70004:	0000                	.insn	2, 0x0000
	...

Disassembly of section .mem6:

0000000000084000 <.mem6>:
   84000:	c0de                	.insn	2, 0xc0de
   84002:	c001                	.insn	2, 0xc001
   84004:	0000                	.insn	2, 0x0000
	...

Disassembly of section .mem7:

00000000000ec000 <.mem7>:
   ec000:	c0de                	.insn	2, 0xc0de
   ec002:	c001                	.insn	2, 0xc001
   ec004:	0000                	.insn	2, 0x0000
	...

Disassembly of section .mem9:

000016293e701000 <.mem9>:
    16293e701000:	c0de                	.insn	2, 0xc0de
    16293e701002:	c001                	.insn	2, 0xc001
    16293e701004:	0000                	.insn	2, 0x0000
	...

Disassembly of section .tp_csr_storage:

0000000000490000 <.tp_csr_storage>:
  490000:	c0de                	.insn	2, 0xc0de
  490002:	c001                	.insn	2, 0xc001
  490004:	0000                	.insn	2, 0x0000
	...

Disassembly of section .SID_01_senvcfg_pmm_warl_stack:

00000025f97fc000 <.SID_01_senvcfg_pmm_warl_stack>:
  25f97fc000:	c0de                	.insn	2, 0xc0de
  25f97fc002:	c001                	.insn	2, 0xc001
  25f97fc004:	0000                	.insn	2, 0x0000
	...

Disassembly of section .SID_02_henvcfg_hstatus_pmm_warl_stack:

00000000008c2000 <.SID_02_henvcfg_hstatus_pmm_warl_stack>:
  8c2000:	c0de                	.insn	2, 0xc0de
  8c2002:	c001                	.insn	2, 0xc001
  8c2004:	0000                	.insn	2, 0x0000
	...

Disassembly of section .SID_07_pm_disabled_s_hs_mode_stack:

00000000001eb000 <.SID_07_pm_disabled_s_hs_mode_stack>:
  1eb000:	c0de                	.insn	2, 0xc0de
  1eb002:	c001                	.insn	2, 0xc001
  1eb004:	0000                	.insn	2, 0x0000
	...

Disassembly of section .SID_11_pm_enabled_s_hs_mode_stack:

00000000003ee000 <.SID_11_pm_enabled_s_hs_mode_stack>:
  3ee000:	c0de                	.insn	2, 0xc0de
  3ee002:	c001                	.insn	2, 0xc001
  3ee004:	0000                	.insn	2, 0x0000
	...

Disassembly of section .SID_22_pm_disabled_mxr_set_stack:

00000000000ea000 <.SID_22_pm_disabled_mxr_set_stack>:
   ea000:	c0de                	.insn	2, 0xc0de
   ea002:	c001                	.insn	2, 0xc001
   ea004:	0000                	.insn	2, 0x0000
	...

Disassembly of section .SID_23_pm_invalidation_instructions_stack:

0000000007661000 <.SID_23_pm_invalidation_instructions_stack>:
 7661000:	c0de                	.insn	2, 0xc0de
 7661002:	c001                	.insn	2, 0xc001
 7661004:	0000                	.insn	2, 0x0000
	...

Disassembly of section .SID_24_pm_instruction_set_stack:

00000000002a4000 <.SID_24_pm_instruction_set_stack>:
  2a4000:	c0de                	.insn	2, 0xc0de
  2a4002:	c001                	.insn	2, 0xc001
  2a4004:	0000                	.insn	2, 0x0000
	...

Disassembly of section .SID_25_pm_misaligned_access_stack:

00000001cfa8d000 <.SID_25_pm_misaligned_access_stack>:
   1cfa8d000:	c0de                	.insn	2, 0xc0de
   1cfa8d002:	c001                	.insn	2, 0xc001
   1cfa8d004:	0000                	.insn	2, 0x0000
	...

Disassembly of section .SID_26_pm_different_tags_same_address_stack:

0000000000040000 <.SID_26_pm_different_tags_same_address_stack>:
   40000:	c0de                	.insn	2, 0xc0de
   40002:	c001                	.insn	2, 0xc001
   40004:	0000                	.insn	2, 0x0000
	...

Disassembly of section .SID_27_pm_implicit_access_stack:

000000000007c000 <.SID_27_pm_implicit_access_stack>:
   7c000:	c0de                	.insn	2, 0xc0de
   7c002:	c001                	.insn	2, 0xc001
   7c004:	0000                	.insn	2, 0x0000
	...

Disassembly of section .SID_28_pm_faults_trap_values_stack:

00004d25a6782000 <.SID_28_pm_faults_trap_values_stack>:
    4d25a6782000:	c0de                	.insn	2, 0xc0de
    4d25a6782002:	c001                	.insn	2, 0xc001
    4d25a6782004:	0000                	.insn	2, 0x0000
	...

Disassembly of section .SID_29_pm_xtvec_tagged_address_stack:

0000000000133000 <.SID_29_pm_xtvec_tagged_address_stack>:
  133000:	c0de                	.insn	2, 0xc0de
  133002:	c001                	.insn	2, 0xc001
  133004:	0000                	.insn	2, 0x0000
	...

Disassembly of section .__pagetable_map_os_0x00016b415a7da000:

00016b415a7da000 <__pagetable_map_os_0x00016b415a7da000>:
   16b415a7da000:	e801                	.insn	2, 0xe801
   16b415a7da002:	8544                	.insn	2, 0x8544
   16b415a7da004:	00023c6f          	jal	x24,16b415a7fd004 <__pagetable_map_os_0x00016b415a7da000+0x23004>
	...
   16b415a7da010:	c801                	.insn	2, 0xc801
   16b415a7da012:	0000fdc3          	fmadd.s	f27,f1,f0,f0
   16b415a7da016:	0000                	.insn	2, 0x0000
   16b415a7da018:	7c01                	.insn	2, 0x7c01
   16b415a7da01a:	3660                	.insn	2, 0x3660
   16b415a7da01c:	000001e3          	beqz	x0,16b415a7da81e <__pagetable_map_os_0x00016b415a7da000+0x81e>
	...
   16b415a7da130:	4c01                	.insn	2, 0x4c01
   16b415a7da132:	e48d                	.insn	2, 0xe48d
   16b415a7da134:	54ed                	.insn	2, 0x54ed
   16b415a7da136:	0002                	.insn	2, 0x0002
	...
   16b415a7da160:	4c01                	.insn	2, 0x4c01
   16b415a7da162:	a72d                	.insn	2, 0xa72d
   16b415a7da164:	0784                	.insn	2, 0x0784
	...
   16b415a7da4ce:	0000                	.insn	2, 0x0000
   16b415a7da4d0:	3001                	.insn	2, 0x3001
   16b415a7da4d2:	ec84                	.insn	2, 0xec84
   16b415a7da4d4:	00001cfb          	.insn	4, 0x1cfb
	...
   16b415a7da6b0:	ac01                	.insn	2, 0xac01
   16b415a7da6b2:	6009                	.insn	2, 0x6009
   16b415a7da6b4:	0000000b          	.insn	4, 0x000b

Disassembly of section .__pagetable_map_os_0x0008f1be1513a000:

0008f1be1513a000 <__pagetable_map_os_0x0008f1be1513a000>:
   8f1be1513a000:	b801                	.insn	2, 0xb801
   8f1be1513a002:	9d7c                	.insn	2, 0x9d7c
   8f1be1513a004:	0005                	.insn	2, 0x0005
   8f1be1513a006:	0000                	.insn	2, 0x0000
   8f1be1513a008:	dc01                	.insn	2, 0xdc01
   8f1be1513a00a:	0974e217          	auipc	x4,0x974e
   8f1be1513a00e:	0000                	.insn	2, 0x0000
   8f1be1513a010:	2401                	.insn	2, 0x2401
   8f1be1513a012:	f81e                	.insn	2, 0xf81e
   8f1be1513a014:	0000                	.insn	2, 0x0000
   8f1be1513a016:	0000                	.insn	2, 0x0000
   8f1be1513a018:	d001                	.insn	2, 0xd001
   8f1be1513a01a:	fbe9                	.insn	2, 0xfbe9
	...
   8f1be1513a038:	d801                	.insn	2, 0xd801
   8f1be1513a03a:	bbe4                	.insn	2, 0xbbe4
   8f1be1513a03c:	0002512b          	.insn	4, 0x0002512b
	...
   8f1be1513a048:	c801                	.insn	2, 0xc801
   8f1be1513a04a:	0080267b          	.insn	4, 0x0080267b
	...
   8f1be1513a4ae:	0000                	.insn	2, 0x0000
   8f1be1513a4b0:	cc01                	.insn	2, 0xcc01
   8f1be1513a4b2:	3005                	.insn	2, 0x3005
   8f1be1513a4b4:	0002                	.insn	2, 0x0002
   8f1be1513a4b6:	0000                	.insn	2, 0x0000
   8f1be1513a4b8:	4c01                	.insn	2, 0x4c01
   8f1be1513a4ba:	bfec                	.insn	2, 0xbfec
   8f1be1513a4bc:	001a                	.insn	2, 0x001a
	...
   8f1be1513ad26:	0000                	.insn	2, 0x0000
   8f1be1513ad28:	d801                	.insn	2, 0xd801
   8f1be1513ad2a:	c7bd                	.insn	2, 0xc7bd
   8f1be1513ad2c:	0022                	.insn	2, 0x0022
	...

Disassembly of section .__pagetable_map_os_0x00000003e0789000:

00000003e0789000 <__pagetable_map_os_0x00000003e0789000>:
   3e0789000:	3801                	.insn	2, 0x3801
   3e0789002:	47b5                	.insn	2, 0x47b5
   3e0789004:	7461                	.insn	2, 0x7461
   3e0789006:	0000                	.insn	2, 0x0000
   3e0789008:	a001                	.insn	2, 0xa001
   3e078900a:	0033ee83          	lwu	x29,3(x7)
	...

Disassembly of section .__pagetable_map_os_0x0001d1851ed4e000:

0001d1851ed4e000 <__pagetable_map_os_0x0001d1851ed4e000>:
	...
   1d1851ed4e080:	200040cf          	fnmadd.s	f1,f0,f0,f4,rmm
   1d1851ed4e084:	0000                	.insn	2, 0x0000
   1d1851ed4e086:	0000                	.insn	2, 0x0000
   1d1851ed4e088:	200044cf          	fnmadd.s	f9,f0,f0,f4,rmm
   1d1851ed4e08c:	0000                	.insn	2, 0x0000
   1d1851ed4e08e:	0000                	.insn	2, 0x0000
   1d1851ed4e090:	200048cf          	fnmadd.s	f17,f0,f0,f4,rmm
   1d1851ed4e094:	0000                	.insn	2, 0x0000
   1d1851ed4e096:	0000                	.insn	2, 0x0000
   1d1851ed4e098:	20004ccf          	fnmadd.s	f25,f0,f0,f4,rmm
   1d1851ed4e09c:	0000                	.insn	2, 0x0000
   1d1851ed4e09e:	0000                	.insn	2, 0x0000
   1d1851ed4e0a0:	bd0800cf          	fnmadd.h	f1,f16,f16,f23,rne
   1d1851ed4e0a4:	0001                	.insn	2, 0x0001
   1d1851ed4e0a6:	0000                	.insn	2, 0x0000
   1d1851ed4e0a8:	bd0804cf          	fnmadd.h	f9,f16,f16,f23,rne
   1d1851ed4e0ac:	0001                	.insn	2, 0x0001
   1d1851ed4e0ae:	0000                	.insn	2, 0x0000
   1d1851ed4e0b0:	bd0808cf          	fnmadd.h	f17,f16,f16,f23,rne
   1d1851ed4e0b4:	0001                	.insn	2, 0x0001
   1d1851ed4e0b6:	0000                	.insn	2, 0x0000
   1d1851ed4e0b8:	bd080ccf          	fnmadd.h	f25,f16,f16,f23,rne
   1d1851ed4e0bc:	0001                	.insn	2, 0x0001
   1d1851ed4e0be:	0000                	.insn	2, 0x0000
   1d1851ed4e0c0:	bd0810cf          	fnmadd.h	f1,f16,f16,f23,rtz
   1d1851ed4e0c4:	0001                	.insn	2, 0x0001
   1d1851ed4e0c6:	0000                	.insn	2, 0x0000
   1d1851ed4e0c8:	bd0814cf          	fnmadd.h	f9,f16,f16,f23,rtz
   1d1851ed4e0cc:	0001                	.insn	2, 0x0001
   1d1851ed4e0ce:	0000                	.insn	2, 0x0000
   1d1851ed4e0d0:	bd0818cf          	fnmadd.h	f17,f16,f16,f23,rtz
   1d1851ed4e0d4:	0001                	.insn	2, 0x0001
   1d1851ed4e0d6:	0000                	.insn	2, 0x0000
   1d1851ed4e0d8:	bd081ccf          	fnmadd.h	f25,f16,f16,f23,rtz
   1d1851ed4e0dc:	0001                	.insn	2, 0x0001
   1d1851ed4e0de:	0000                	.insn	2, 0x0000
   1d1851ed4e0e0:	bd0820cf          	fnmadd.h	f1,f16,f16,f23,rdn
   1d1851ed4e0e4:	0001                	.insn	2, 0x0001
   1d1851ed4e0e6:	0000                	.insn	2, 0x0000
   1d1851ed4e0e8:	bd0824cf          	fnmadd.h	f9,f16,f16,f23,rdn
   1d1851ed4e0ec:	0001                	.insn	2, 0x0001
   1d1851ed4e0ee:	0000                	.insn	2, 0x0000
   1d1851ed4e0f0:	bd0828cf          	fnmadd.h	f17,f16,f16,f23,rdn
   1d1851ed4e0f4:	0001                	.insn	2, 0x0001
   1d1851ed4e0f6:	0000                	.insn	2, 0x0000
   1d1851ed4e0f8:	bd082ccf          	fnmadd.h	f25,f16,f16,f23,rdn
   1d1851ed4e0fc:	0001                	.insn	2, 0x0001
   1d1851ed4e0fe:	0000                	.insn	2, 0x0000
   1d1851ed4e100:	bd0830cf          	fnmadd.h	f1,f16,f16,f23,rup
   1d1851ed4e104:	0001                	.insn	2, 0x0001
   1d1851ed4e106:	0000                	.insn	2, 0x0000
   1d1851ed4e108:	bd0834cf          	fnmadd.h	f9,f16,f16,f23,rup
   1d1851ed4e10c:	0001                	.insn	2, 0x0001
   1d1851ed4e10e:	0000                	.insn	2, 0x0000
   1d1851ed4e110:	bd0838cf          	fnmadd.h	f17,f16,f16,f23,rup
   1d1851ed4e114:	0001                	.insn	2, 0x0001
   1d1851ed4e116:	0000                	.insn	2, 0x0000
   1d1851ed4e118:	bd083ccf          	fnmadd.h	f25,f16,f16,f23,rup
   1d1851ed4e11c:	0001                	.insn	2, 0x0001
   1d1851ed4e11e:	0000                	.insn	2, 0x0000
   1d1851ed4e120:	bd0840cf          	fnmadd.h	f1,f16,f16,f23,rmm
   1d1851ed4e124:	0001                	.insn	2, 0x0001
   1d1851ed4e126:	0000                	.insn	2, 0x0000
   1d1851ed4e128:	bd0844cf          	fnmadd.h	f9,f16,f16,f23,rmm
   1d1851ed4e12c:	0001                	.insn	2, 0x0001
   1d1851ed4e12e:	0000                	.insn	2, 0x0000
   1d1851ed4e130:	bd0848cf          	fnmadd.h	f17,f16,f16,f23,rmm
   1d1851ed4e134:	0001                	.insn	2, 0x0001
   1d1851ed4e136:	0000                	.insn	2, 0x0000
   1d1851ed4e138:	bd084ccf          	fnmadd.h	f25,f16,f16,f23,rmm
   1d1851ed4e13c:	0001                	.insn	2, 0x0001
   1d1851ed4e13e:	0000                	.insn	2, 0x0000
   1d1851ed4e140:	bd0850cf          	fnmadd.h	f1,f16,f16,f23,unknown
   1d1851ed4e144:	0001                	.insn	2, 0x0001
   1d1851ed4e146:	0000                	.insn	2, 0x0000
   1d1851ed4e148:	bd0854cf          	fnmadd.h	f9,f16,f16,f23,unknown
   1d1851ed4e14c:	0001                	.insn	2, 0x0001
   1d1851ed4e14e:	0000                	.insn	2, 0x0000
   1d1851ed4e150:	bd0858cf          	fnmadd.h	f17,f16,f16,f23,unknown
   1d1851ed4e154:	0001                	.insn	2, 0x0001
   1d1851ed4e156:	0000                	.insn	2, 0x0000
   1d1851ed4e158:	bd085ccf          	fnmadd.h	f25,f16,f16,f23,unknown
   1d1851ed4e15c:	0001                	.insn	2, 0x0001
   1d1851ed4e15e:	0000                	.insn	2, 0x0000
   1d1851ed4e160:	bd0860cf          	fnmadd.h	f1,f16,f16,f23,unknown
   1d1851ed4e164:	0001                	.insn	2, 0x0001
   1d1851ed4e166:	0000                	.insn	2, 0x0000
   1d1851ed4e168:	bd0864cf          	fnmadd.h	f9,f16,f16,f23,unknown
   1d1851ed4e16c:	0001                	.insn	2, 0x0001
   1d1851ed4e16e:	0000                	.insn	2, 0x0000
   1d1851ed4e170:	bd0868cf          	fnmadd.h	f17,f16,f16,f23,unknown
   1d1851ed4e174:	0001                	.insn	2, 0x0001
   1d1851ed4e176:	0000                	.insn	2, 0x0000
   1d1851ed4e178:	bd086ccf          	fnmadd.h	f25,f16,f16,f23,unknown
   1d1851ed4e17c:	0001                	.insn	2, 0x0001
   1d1851ed4e17e:	0000                	.insn	2, 0x0000
   1d1851ed4e180:	bd0870cf          	fnmadd.h	f1,f16,f16,f23
   1d1851ed4e184:	0001                	.insn	2, 0x0001
   1d1851ed4e186:	0000                	.insn	2, 0x0000
   1d1851ed4e188:	bd0874cf          	fnmadd.h	f9,f16,f16,f23
   1d1851ed4e18c:	0001                	.insn	2, 0x0001
   1d1851ed4e18e:	0000                	.insn	2, 0x0000
   1d1851ed4e190:	bd0878cf          	fnmadd.h	f17,f16,f16,f23
   1d1851ed4e194:	0001                	.insn	2, 0x0001
   1d1851ed4e196:	0000                	.insn	2, 0x0000
   1d1851ed4e198:	bd087ccf          	fnmadd.h	f25,f16,f16,f23
   1d1851ed4e19c:	0001                	.insn	2, 0x0001
   1d1851ed4e19e:	0000                	.insn	2, 0x0000
   1d1851ed4e1a0:	bd0880cf          	fnmadd.h	f1,f17,f16,f23,rne
   1d1851ed4e1a4:	0001                	.insn	2, 0x0001
   1d1851ed4e1a6:	0000                	.insn	2, 0x0000
   1d1851ed4e1a8:	bd0884cf          	fnmadd.h	f9,f17,f16,f23,rne
   1d1851ed4e1ac:	0001                	.insn	2, 0x0001
   1d1851ed4e1ae:	0000                	.insn	2, 0x0000
   1d1851ed4e1b0:	bd0888cf          	fnmadd.h	f17,f17,f16,f23,rne
   1d1851ed4e1b4:	0001                	.insn	2, 0x0001
   1d1851ed4e1b6:	0000                	.insn	2, 0x0000
   1d1851ed4e1b8:	bd088ccf          	fnmadd.h	f25,f17,f16,f23,rne
   1d1851ed4e1bc:	0001                	.insn	2, 0x0001
   1d1851ed4e1be:	0000                	.insn	2, 0x0000
   1d1851ed4e1c0:	bd0890cf          	fnmadd.h	f1,f17,f16,f23,rtz
   1d1851ed4e1c4:	0001                	.insn	2, 0x0001
   1d1851ed4e1c6:	0000                	.insn	2, 0x0000
   1d1851ed4e1c8:	bd0894cf          	fnmadd.h	f9,f17,f16,f23,rtz
   1d1851ed4e1cc:	0001                	.insn	2, 0x0001
   1d1851ed4e1ce:	0000                	.insn	2, 0x0000
   1d1851ed4e1d0:	bd0898cf          	fnmadd.h	f17,f17,f16,f23,rtz
   1d1851ed4e1d4:	0001                	.insn	2, 0x0001
   1d1851ed4e1d6:	0000                	.insn	2, 0x0000
   1d1851ed4e1d8:	bd089ccf          	fnmadd.h	f25,f17,f16,f23,rtz
   1d1851ed4e1dc:	0001                	.insn	2, 0x0001
   1d1851ed4e1de:	0000                	.insn	2, 0x0000
   1d1851ed4e1e0:	bd08a0cf          	fnmadd.h	f1,f17,f16,f23,rdn
   1d1851ed4e1e4:	0001                	.insn	2, 0x0001
   1d1851ed4e1e6:	0000                	.insn	2, 0x0000
   1d1851ed4e1e8:	bd08a4cf          	fnmadd.h	f9,f17,f16,f23,rdn
   1d1851ed4e1ec:	0001                	.insn	2, 0x0001
   1d1851ed4e1ee:	0000                	.insn	2, 0x0000
   1d1851ed4e1f0:	bd08a8cf          	fnmadd.h	f17,f17,f16,f23,rdn
   1d1851ed4e1f4:	0001                	.insn	2, 0x0001
   1d1851ed4e1f6:	0000                	.insn	2, 0x0000
   1d1851ed4e1f8:	bd08accf          	fnmadd.h	f25,f17,f16,f23,rdn
   1d1851ed4e1fc:	0001                	.insn	2, 0x0001
   1d1851ed4e1fe:	0000                	.insn	2, 0x0000
   1d1851ed4e200:	bd08b0cf          	fnmadd.h	f1,f17,f16,f23,rup
   1d1851ed4e204:	0001                	.insn	2, 0x0001
   1d1851ed4e206:	0000                	.insn	2, 0x0000
   1d1851ed4e208:	bd08b4cf          	fnmadd.h	f9,f17,f16,f23,rup
   1d1851ed4e20c:	0001                	.insn	2, 0x0001
   1d1851ed4e20e:	0000                	.insn	2, 0x0000
   1d1851ed4e210:	bd08b8cf          	fnmadd.h	f17,f17,f16,f23,rup
   1d1851ed4e214:	0001                	.insn	2, 0x0001
   1d1851ed4e216:	0000                	.insn	2, 0x0000
   1d1851ed4e218:	bd08bccf          	fnmadd.h	f25,f17,f16,f23,rup
   1d1851ed4e21c:	0001                	.insn	2, 0x0001
   1d1851ed4e21e:	0000                	.insn	2, 0x0000
   1d1851ed4e220:	bd08c0cf          	fnmadd.h	f1,f17,f16,f23,rmm
   1d1851ed4e224:	0001                	.insn	2, 0x0001
   1d1851ed4e226:	0000                	.insn	2, 0x0000
   1d1851ed4e228:	bd08c4cf          	fnmadd.h	f9,f17,f16,f23,rmm
   1d1851ed4e22c:	0001                	.insn	2, 0x0001
   1d1851ed4e22e:	0000                	.insn	2, 0x0000
   1d1851ed4e230:	bd08c8cf          	fnmadd.h	f17,f17,f16,f23,rmm
   1d1851ed4e234:	0001                	.insn	2, 0x0001
   1d1851ed4e236:	0000                	.insn	2, 0x0000
   1d1851ed4e238:	bd08cccf          	fnmadd.h	f25,f17,f16,f23,rmm
   1d1851ed4e23c:	0001                	.insn	2, 0x0001
   1d1851ed4e23e:	0000                	.insn	2, 0x0000
   1d1851ed4e240:	bd08d0cf          	fnmadd.h	f1,f17,f16,f23,unknown
   1d1851ed4e244:	0001                	.insn	2, 0x0001
   1d1851ed4e246:	0000                	.insn	2, 0x0000
   1d1851ed4e248:	bd08d4cf          	fnmadd.h	f9,f17,f16,f23,unknown
   1d1851ed4e24c:	0001                	.insn	2, 0x0001
   1d1851ed4e24e:	0000                	.insn	2, 0x0000
   1d1851ed4e250:	bd08d8cf          	fnmadd.h	f17,f17,f16,f23,unknown
   1d1851ed4e254:	0001                	.insn	2, 0x0001
   1d1851ed4e256:	0000                	.insn	2, 0x0000
   1d1851ed4e258:	bd08dccf          	fnmadd.h	f25,f17,f16,f23,unknown
   1d1851ed4e25c:	0001                	.insn	2, 0x0001
   1d1851ed4e25e:	0000                	.insn	2, 0x0000
   1d1851ed4e260:	bd08e0cf          	fnmadd.h	f1,f17,f16,f23,unknown
   1d1851ed4e264:	0001                	.insn	2, 0x0001
   1d1851ed4e266:	0000                	.insn	2, 0x0000
   1d1851ed4e268:	bd08e4cf          	fnmadd.h	f9,f17,f16,f23,unknown
   1d1851ed4e26c:	0001                	.insn	2, 0x0001
   1d1851ed4e26e:	0000                	.insn	2, 0x0000
   1d1851ed4e270:	bd08e8cf          	fnmadd.h	f17,f17,f16,f23,unknown
   1d1851ed4e274:	0001                	.insn	2, 0x0001
   1d1851ed4e276:	0000                	.insn	2, 0x0000
   1d1851ed4e278:	bd08eccf          	fnmadd.h	f25,f17,f16,f23,unknown
   1d1851ed4e27c:	0001                	.insn	2, 0x0001
   1d1851ed4e27e:	0000                	.insn	2, 0x0000
   1d1851ed4e280:	bd08f0cf          	fnmadd.h	f1,f17,f16,f23
   1d1851ed4e284:	0001                	.insn	2, 0x0001
   1d1851ed4e286:	0000                	.insn	2, 0x0000
   1d1851ed4e288:	bd08f4cf          	fnmadd.h	f9,f17,f16,f23
   1d1851ed4e28c:	0001                	.insn	2, 0x0001
   1d1851ed4e28e:	0000                	.insn	2, 0x0000
   1d1851ed4e290:	bd08f8cf          	fnmadd.h	f17,f17,f16,f23
   1d1851ed4e294:	0001                	.insn	2, 0x0001
   1d1851ed4e296:	0000                	.insn	2, 0x0000
   1d1851ed4e298:	bd08fccf          	fnmadd.h	f25,f17,f16,f23
   1d1851ed4e29c:	0001                	.insn	2, 0x0001
   1d1851ed4e29e:	0000                	.insn	2, 0x0000
   1d1851ed4e2a0:	bd0900cf          	fnmadd.h	f1,f18,f16,f23,rne
   1d1851ed4e2a4:	0001                	.insn	2, 0x0001
   1d1851ed4e2a6:	0000                	.insn	2, 0x0000
   1d1851ed4e2a8:	bd0904cf          	fnmadd.h	f9,f18,f16,f23,rne
   1d1851ed4e2ac:	0001                	.insn	2, 0x0001
   1d1851ed4e2ae:	0000                	.insn	2, 0x0000
   1d1851ed4e2b0:	bd0908cf          	fnmadd.h	f17,f18,f16,f23,rne
   1d1851ed4e2b4:	0001                	.insn	2, 0x0001
   1d1851ed4e2b6:	0000                	.insn	2, 0x0000
   1d1851ed4e2b8:	bd090ccf          	fnmadd.h	f25,f18,f16,f23,rne
   1d1851ed4e2bc:	0001                	.insn	2, 0x0001
   1d1851ed4e2be:	0000                	.insn	2, 0x0000
   1d1851ed4e2c0:	bd0910cf          	fnmadd.h	f1,f18,f16,f23,rtz
   1d1851ed4e2c4:	0001                	.insn	2, 0x0001
   1d1851ed4e2c6:	0000                	.insn	2, 0x0000
   1d1851ed4e2c8:	bd0914cf          	fnmadd.h	f9,f18,f16,f23,rtz
   1d1851ed4e2cc:	0001                	.insn	2, 0x0001
   1d1851ed4e2ce:	0000                	.insn	2, 0x0000
   1d1851ed4e2d0:	bd0918cf          	fnmadd.h	f17,f18,f16,f23,rtz
   1d1851ed4e2d4:	0001                	.insn	2, 0x0001
   1d1851ed4e2d6:	0000                	.insn	2, 0x0000
   1d1851ed4e2d8:	bd091ccf          	fnmadd.h	f25,f18,f16,f23,rtz
   1d1851ed4e2dc:	0001                	.insn	2, 0x0001
   1d1851ed4e2de:	0000                	.insn	2, 0x0000
   1d1851ed4e2e0:	bd0920cf          	fnmadd.h	f1,f18,f16,f23,rdn
   1d1851ed4e2e4:	0001                	.insn	2, 0x0001
   1d1851ed4e2e6:	0000                	.insn	2, 0x0000
   1d1851ed4e2e8:	bd0924cf          	fnmadd.h	f9,f18,f16,f23,rdn
   1d1851ed4e2ec:	0001                	.insn	2, 0x0001
   1d1851ed4e2ee:	0000                	.insn	2, 0x0000
   1d1851ed4e2f0:	bd0928cf          	fnmadd.h	f17,f18,f16,f23,rdn
   1d1851ed4e2f4:	0001                	.insn	2, 0x0001
   1d1851ed4e2f6:	0000                	.insn	2, 0x0000
   1d1851ed4e2f8:	bd092ccf          	fnmadd.h	f25,f18,f16,f23,rdn
   1d1851ed4e2fc:	0001                	.insn	2, 0x0001
   1d1851ed4e2fe:	0000                	.insn	2, 0x0000
   1d1851ed4e300:	bd0930cf          	fnmadd.h	f1,f18,f16,f23,rup
   1d1851ed4e304:	0001                	.insn	2, 0x0001
   1d1851ed4e306:	0000                	.insn	2, 0x0000
   1d1851ed4e308:	bd0934cf          	fnmadd.h	f9,f18,f16,f23,rup
   1d1851ed4e30c:	0001                	.insn	2, 0x0001
   1d1851ed4e30e:	0000                	.insn	2, 0x0000
   1d1851ed4e310:	bd0938cf          	fnmadd.h	f17,f18,f16,f23,rup
   1d1851ed4e314:	0001                	.insn	2, 0x0001
   1d1851ed4e316:	0000                	.insn	2, 0x0000
   1d1851ed4e318:	bd093ccf          	fnmadd.h	f25,f18,f16,f23,rup
   1d1851ed4e31c:	0001                	.insn	2, 0x0001
   1d1851ed4e31e:	0000                	.insn	2, 0x0000
   1d1851ed4e320:	bd0940cf          	fnmadd.h	f1,f18,f16,f23,rmm
   1d1851ed4e324:	0001                	.insn	2, 0x0001
   1d1851ed4e326:	0000                	.insn	2, 0x0000
   1d1851ed4e328:	bd0944cf          	fnmadd.h	f9,f18,f16,f23,rmm
   1d1851ed4e32c:	0001                	.insn	2, 0x0001
   1d1851ed4e32e:	0000                	.insn	2, 0x0000
   1d1851ed4e330:	bd0948cf          	fnmadd.h	f17,f18,f16,f23,rmm
   1d1851ed4e334:	0001                	.insn	2, 0x0001
   1d1851ed4e336:	0000                	.insn	2, 0x0000
   1d1851ed4e338:	bd094ccf          	fnmadd.h	f25,f18,f16,f23,rmm
   1d1851ed4e33c:	0001                	.insn	2, 0x0001
   1d1851ed4e33e:	0000                	.insn	2, 0x0000
   1d1851ed4e340:	bd0950cf          	fnmadd.h	f1,f18,f16,f23,unknown
   1d1851ed4e344:	0001                	.insn	2, 0x0001
   1d1851ed4e346:	0000                	.insn	2, 0x0000
   1d1851ed4e348:	bd0954cf          	fnmadd.h	f9,f18,f16,f23,unknown
   1d1851ed4e34c:	0001                	.insn	2, 0x0001
   1d1851ed4e34e:	0000                	.insn	2, 0x0000
   1d1851ed4e350:	bd0958cf          	fnmadd.h	f17,f18,f16,f23,unknown
   1d1851ed4e354:	0001                	.insn	2, 0x0001
   1d1851ed4e356:	0000                	.insn	2, 0x0000
   1d1851ed4e358:	bd095ccf          	fnmadd.h	f25,f18,f16,f23,unknown
   1d1851ed4e35c:	0001                	.insn	2, 0x0001
   1d1851ed4e35e:	0000                	.insn	2, 0x0000
   1d1851ed4e360:	bd0960cf          	fnmadd.h	f1,f18,f16,f23,unknown
   1d1851ed4e364:	0001                	.insn	2, 0x0001
   1d1851ed4e366:	0000                	.insn	2, 0x0000
   1d1851ed4e368:	bd0964cf          	fnmadd.h	f9,f18,f16,f23,unknown
   1d1851ed4e36c:	0001                	.insn	2, 0x0001
   1d1851ed4e36e:	0000                	.insn	2, 0x0000
   1d1851ed4e370:	bd0968cf          	fnmadd.h	f17,f18,f16,f23,unknown
   1d1851ed4e374:	0001                	.insn	2, 0x0001
   1d1851ed4e376:	0000                	.insn	2, 0x0000
   1d1851ed4e378:	bd096ccf          	fnmadd.h	f25,f18,f16,f23,unknown
   1d1851ed4e37c:	0001                	.insn	2, 0x0001
   1d1851ed4e37e:	0000                	.insn	2, 0x0000
   1d1851ed4e380:	bd0970cf          	fnmadd.h	f1,f18,f16,f23
   1d1851ed4e384:	0001                	.insn	2, 0x0001
   1d1851ed4e386:	0000                	.insn	2, 0x0000
   1d1851ed4e388:	bd0974cf          	fnmadd.h	f9,f18,f16,f23
   1d1851ed4e38c:	0001                	.insn	2, 0x0001
   1d1851ed4e38e:	0000                	.insn	2, 0x0000
   1d1851ed4e390:	bd0978cf          	fnmadd.h	f17,f18,f16,f23
   1d1851ed4e394:	0001                	.insn	2, 0x0001
   1d1851ed4e396:	0000                	.insn	2, 0x0000
   1d1851ed4e398:	bd097ccf          	fnmadd.h	f25,f18,f16,f23
   1d1851ed4e39c:	0001                	.insn	2, 0x0001
   1d1851ed4e39e:	0000                	.insn	2, 0x0000
   1d1851ed4e3a0:	bd0980cf          	fnmadd.h	f1,f19,f16,f23,rne
   1d1851ed4e3a4:	0001                	.insn	2, 0x0001
   1d1851ed4e3a6:	0000                	.insn	2, 0x0000
   1d1851ed4e3a8:	bd0984cf          	fnmadd.h	f9,f19,f16,f23,rne
   1d1851ed4e3ac:	0001                	.insn	2, 0x0001
   1d1851ed4e3ae:	0000                	.insn	2, 0x0000
   1d1851ed4e3b0:	bd0988cf          	fnmadd.h	f17,f19,f16,f23,rne
   1d1851ed4e3b4:	0001                	.insn	2, 0x0001
   1d1851ed4e3b6:	0000                	.insn	2, 0x0000
   1d1851ed4e3b8:	bd098ccf          	fnmadd.h	f25,f19,f16,f23,rne
   1d1851ed4e3bc:	0001                	.insn	2, 0x0001
   1d1851ed4e3be:	0000                	.insn	2, 0x0000
   1d1851ed4e3c0:	bd0990cf          	fnmadd.h	f1,f19,f16,f23,rtz
   1d1851ed4e3c4:	0001                	.insn	2, 0x0001
   1d1851ed4e3c6:	0000                	.insn	2, 0x0000
   1d1851ed4e3c8:	bd0994cf          	fnmadd.h	f9,f19,f16,f23,rtz
   1d1851ed4e3cc:	0001                	.insn	2, 0x0001
   1d1851ed4e3ce:	0000                	.insn	2, 0x0000
   1d1851ed4e3d0:	bd0998cf          	fnmadd.h	f17,f19,f16,f23,rtz
   1d1851ed4e3d4:	0001                	.insn	2, 0x0001
   1d1851ed4e3d6:	0000                	.insn	2, 0x0000
   1d1851ed4e3d8:	bd099ccf          	fnmadd.h	f25,f19,f16,f23,rtz
   1d1851ed4e3dc:	0001                	.insn	2, 0x0001
   1d1851ed4e3de:	0000                	.insn	2, 0x0000
   1d1851ed4e3e0:	bd09a0cf          	fnmadd.h	f1,f19,f16,f23,rdn
   1d1851ed4e3e4:	0001                	.insn	2, 0x0001
   1d1851ed4e3e6:	0000                	.insn	2, 0x0000
   1d1851ed4e3e8:	bd09a4cf          	fnmadd.h	f9,f19,f16,f23,rdn
   1d1851ed4e3ec:	0001                	.insn	2, 0x0001
   1d1851ed4e3ee:	0000                	.insn	2, 0x0000
   1d1851ed4e3f0:	bd09a8cf          	fnmadd.h	f17,f19,f16,f23,rdn
   1d1851ed4e3f4:	0001                	.insn	2, 0x0001
   1d1851ed4e3f6:	0000                	.insn	2, 0x0000
   1d1851ed4e3f8:	bd09accf          	fnmadd.h	f25,f19,f16,f23,rdn
   1d1851ed4e3fc:	0001                	.insn	2, 0x0001
   1d1851ed4e3fe:	0000                	.insn	2, 0x0000
   1d1851ed4e400:	bd09b0cf          	fnmadd.h	f1,f19,f16,f23,rup
   1d1851ed4e404:	0001                	.insn	2, 0x0001
   1d1851ed4e406:	0000                	.insn	2, 0x0000
   1d1851ed4e408:	bd09b4cf          	fnmadd.h	f9,f19,f16,f23,rup
   1d1851ed4e40c:	0001                	.insn	2, 0x0001
   1d1851ed4e40e:	0000                	.insn	2, 0x0000
   1d1851ed4e410:	bd09b8cf          	fnmadd.h	f17,f19,f16,f23,rup
   1d1851ed4e414:	0001                	.insn	2, 0x0001
   1d1851ed4e416:	0000                	.insn	2, 0x0000
   1d1851ed4e418:	bd09bccf          	fnmadd.h	f25,f19,f16,f23,rup
   1d1851ed4e41c:	0001                	.insn	2, 0x0001
   1d1851ed4e41e:	0000                	.insn	2, 0x0000
   1d1851ed4e420:	bd09c0cf          	fnmadd.h	f1,f19,f16,f23,rmm
   1d1851ed4e424:	0001                	.insn	2, 0x0001
   1d1851ed4e426:	0000                	.insn	2, 0x0000
   1d1851ed4e428:	bd09c4cf          	fnmadd.h	f9,f19,f16,f23,rmm
   1d1851ed4e42c:	0001                	.insn	2, 0x0001
   1d1851ed4e42e:	0000                	.insn	2, 0x0000
   1d1851ed4e430:	bd09c8cf          	fnmadd.h	f17,f19,f16,f23,rmm
   1d1851ed4e434:	0001                	.insn	2, 0x0001
   1d1851ed4e436:	0000                	.insn	2, 0x0000
   1d1851ed4e438:	bd09cccf          	fnmadd.h	f25,f19,f16,f23,rmm
   1d1851ed4e43c:	0001                	.insn	2, 0x0001
   1d1851ed4e43e:	0000                	.insn	2, 0x0000
   1d1851ed4e440:	bd09d0cf          	fnmadd.h	f1,f19,f16,f23,unknown
   1d1851ed4e444:	0001                	.insn	2, 0x0001
   1d1851ed4e446:	0000                	.insn	2, 0x0000
   1d1851ed4e448:	bd09d4cf          	fnmadd.h	f9,f19,f16,f23,unknown
   1d1851ed4e44c:	0001                	.insn	2, 0x0001
   1d1851ed4e44e:	0000                	.insn	2, 0x0000
   1d1851ed4e450:	bd09d8cf          	fnmadd.h	f17,f19,f16,f23,unknown
   1d1851ed4e454:	0001                	.insn	2, 0x0001
   1d1851ed4e456:	0000                	.insn	2, 0x0000
   1d1851ed4e458:	bd09dccf          	fnmadd.h	f25,f19,f16,f23,unknown
   1d1851ed4e45c:	0001                	.insn	2, 0x0001
   1d1851ed4e45e:	0000                	.insn	2, 0x0000
   1d1851ed4e460:	bd09e0cf          	fnmadd.h	f1,f19,f16,f23,unknown
   1d1851ed4e464:	0001                	.insn	2, 0x0001
   1d1851ed4e466:	0000                	.insn	2, 0x0000
   1d1851ed4e468:	bd09e4cf          	fnmadd.h	f9,f19,f16,f23,unknown
   1d1851ed4e46c:	0001                	.insn	2, 0x0001
   1d1851ed4e46e:	0000                	.insn	2, 0x0000
   1d1851ed4e470:	bd09e8cf          	fnmadd.h	f17,f19,f16,f23,unknown
   1d1851ed4e474:	0001                	.insn	2, 0x0001
   1d1851ed4e476:	0000                	.insn	2, 0x0000
   1d1851ed4e478:	bd09eccf          	fnmadd.h	f25,f19,f16,f23,unknown
   1d1851ed4e47c:	0001                	.insn	2, 0x0001
   1d1851ed4e47e:	0000                	.insn	2, 0x0000
   1d1851ed4e480:	bd09f0cf          	fnmadd.h	f1,f19,f16,f23
   1d1851ed4e484:	0001                	.insn	2, 0x0001
   1d1851ed4e486:	0000                	.insn	2, 0x0000
   1d1851ed4e488:	bd09f4cf          	fnmadd.h	f9,f19,f16,f23
   1d1851ed4e48c:	0001                	.insn	2, 0x0001
   1d1851ed4e48e:	0000                	.insn	2, 0x0000
   1d1851ed4e490:	bd09f8cf          	fnmadd.h	f17,f19,f16,f23
   1d1851ed4e494:	0001                	.insn	2, 0x0001
   1d1851ed4e496:	0000                	.insn	2, 0x0000
   1d1851ed4e498:	bd09fccf          	fnmadd.h	f25,f19,f16,f23
   1d1851ed4e49c:	0001                	.insn	2, 0x0001
   1d1851ed4e49e:	0000                	.insn	2, 0x0000
   1d1851ed4e4a0:	bd0a00cf          	fnmadd.h	f1,f20,f16,f23,rne
   1d1851ed4e4a4:	0001                	.insn	2, 0x0001
   1d1851ed4e4a6:	0000                	.insn	2, 0x0000
   1d1851ed4e4a8:	bd0a04cf          	fnmadd.h	f9,f20,f16,f23,rne
   1d1851ed4e4ac:	0001                	.insn	2, 0x0001
   1d1851ed4e4ae:	0000                	.insn	2, 0x0000
   1d1851ed4e4b0:	bd0a08cf          	fnmadd.h	f17,f20,f16,f23,rne
   1d1851ed4e4b4:	0001                	.insn	2, 0x0001
   1d1851ed4e4b6:	0000                	.insn	2, 0x0000
   1d1851ed4e4b8:	bd0a0ccf          	fnmadd.h	f25,f20,f16,f23,rne
   1d1851ed4e4bc:	0001                	.insn	2, 0x0001
   1d1851ed4e4be:	0000                	.insn	2, 0x0000
   1d1851ed4e4c0:	bd0a10cf          	fnmadd.h	f1,f20,f16,f23,rtz
   1d1851ed4e4c4:	0001                	.insn	2, 0x0001
   1d1851ed4e4c6:	0000                	.insn	2, 0x0000
   1d1851ed4e4c8:	bd0a14cf          	fnmadd.h	f9,f20,f16,f23,rtz
   1d1851ed4e4cc:	0001                	.insn	2, 0x0001
   1d1851ed4e4ce:	0000                	.insn	2, 0x0000
   1d1851ed4e4d0:	bd0a18cf          	fnmadd.h	f17,f20,f16,f23,rtz
   1d1851ed4e4d4:	0001                	.insn	2, 0x0001
   1d1851ed4e4d6:	0000                	.insn	2, 0x0000
   1d1851ed4e4d8:	bd0a1ccf          	fnmadd.h	f25,f20,f16,f23,rtz
   1d1851ed4e4dc:	0001                	.insn	2, 0x0001
   1d1851ed4e4de:	0000                	.insn	2, 0x0000
   1d1851ed4e4e0:	bd0a20cf          	fnmadd.h	f1,f20,f16,f23,rdn
   1d1851ed4e4e4:	0001                	.insn	2, 0x0001
   1d1851ed4e4e6:	0000                	.insn	2, 0x0000
   1d1851ed4e4e8:	bd0a24cf          	fnmadd.h	f9,f20,f16,f23,rdn
   1d1851ed4e4ec:	0001                	.insn	2, 0x0001
   1d1851ed4e4ee:	0000                	.insn	2, 0x0000
   1d1851ed4e4f0:	bd0a28cf          	fnmadd.h	f17,f20,f16,f23,rdn
   1d1851ed4e4f4:	0001                	.insn	2, 0x0001
   1d1851ed4e4f6:	0000                	.insn	2, 0x0000
   1d1851ed4e4f8:	bd0a2ccf          	fnmadd.h	f25,f20,f16,f23,rdn
   1d1851ed4e4fc:	0001                	.insn	2, 0x0001
   1d1851ed4e4fe:	0000                	.insn	2, 0x0000
   1d1851ed4e500:	bd0a30cf          	fnmadd.h	f1,f20,f16,f23,rup
   1d1851ed4e504:	0001                	.insn	2, 0x0001
   1d1851ed4e506:	0000                	.insn	2, 0x0000
   1d1851ed4e508:	bd0a34cf          	fnmadd.h	f9,f20,f16,f23,rup
   1d1851ed4e50c:	0001                	.insn	2, 0x0001
   1d1851ed4e50e:	0000                	.insn	2, 0x0000
   1d1851ed4e510:	bd0a38cf          	fnmadd.h	f17,f20,f16,f23,rup
   1d1851ed4e514:	0001                	.insn	2, 0x0001
   1d1851ed4e516:	0000                	.insn	2, 0x0000
   1d1851ed4e518:	bd0a3ccf          	fnmadd.h	f25,f20,f16,f23,rup
   1d1851ed4e51c:	0001                	.insn	2, 0x0001
   1d1851ed4e51e:	0000                	.insn	2, 0x0000
   1d1851ed4e520:	bd0a40cf          	fnmadd.h	f1,f20,f16,f23,rmm
   1d1851ed4e524:	0001                	.insn	2, 0x0001
   1d1851ed4e526:	0000                	.insn	2, 0x0000
   1d1851ed4e528:	bd0a44cf          	fnmadd.h	f9,f20,f16,f23,rmm
   1d1851ed4e52c:	0001                	.insn	2, 0x0001
   1d1851ed4e52e:	0000                	.insn	2, 0x0000
   1d1851ed4e530:	bd0a48cf          	fnmadd.h	f17,f20,f16,f23,rmm
   1d1851ed4e534:	0001                	.insn	2, 0x0001
   1d1851ed4e536:	0000                	.insn	2, 0x0000
   1d1851ed4e538:	bd0a4ccf          	fnmadd.h	f25,f20,f16,f23,rmm
   1d1851ed4e53c:	0001                	.insn	2, 0x0001
   1d1851ed4e53e:	0000                	.insn	2, 0x0000
   1d1851ed4e540:	bd0a50cf          	fnmadd.h	f1,f20,f16,f23,unknown
   1d1851ed4e544:	0001                	.insn	2, 0x0001
   1d1851ed4e546:	0000                	.insn	2, 0x0000
   1d1851ed4e548:	bd0a54cf          	fnmadd.h	f9,f20,f16,f23,unknown
   1d1851ed4e54c:	0001                	.insn	2, 0x0001
   1d1851ed4e54e:	0000                	.insn	2, 0x0000
   1d1851ed4e550:	bd0a58cf          	fnmadd.h	f17,f20,f16,f23,unknown
   1d1851ed4e554:	0001                	.insn	2, 0x0001
   1d1851ed4e556:	0000                	.insn	2, 0x0000
   1d1851ed4e558:	bd0a5ccf          	fnmadd.h	f25,f20,f16,f23,unknown
   1d1851ed4e55c:	0001                	.insn	2, 0x0001
   1d1851ed4e55e:	0000                	.insn	2, 0x0000
   1d1851ed4e560:	bd0a60cf          	fnmadd.h	f1,f20,f16,f23,unknown
   1d1851ed4e564:	0001                	.insn	2, 0x0001
   1d1851ed4e566:	0000                	.insn	2, 0x0000
   1d1851ed4e568:	bd0a64cf          	fnmadd.h	f9,f20,f16,f23,unknown
   1d1851ed4e56c:	0001                	.insn	2, 0x0001
   1d1851ed4e56e:	0000                	.insn	2, 0x0000
   1d1851ed4e570:	bd0a68cf          	fnmadd.h	f17,f20,f16,f23,unknown
   1d1851ed4e574:	0001                	.insn	2, 0x0001
   1d1851ed4e576:	0000                	.insn	2, 0x0000
   1d1851ed4e578:	bd0a6ccf          	fnmadd.h	f25,f20,f16,f23,unknown
   1d1851ed4e57c:	0001                	.insn	2, 0x0001
   1d1851ed4e57e:	0000                	.insn	2, 0x0000
   1d1851ed4e580:	bd0a70cf          	fnmadd.h	f1,f20,f16,f23
   1d1851ed4e584:	0001                	.insn	2, 0x0001
   1d1851ed4e586:	0000                	.insn	2, 0x0000
   1d1851ed4e588:	bd0a74cf          	fnmadd.h	f9,f20,f16,f23
   1d1851ed4e58c:	0001                	.insn	2, 0x0001
   1d1851ed4e58e:	0000                	.insn	2, 0x0000
   1d1851ed4e590:	bd0a78cf          	fnmadd.h	f17,f20,f16,f23
   1d1851ed4e594:	0001                	.insn	2, 0x0001
   1d1851ed4e596:	0000                	.insn	2, 0x0000
   1d1851ed4e598:	bd0a7ccf          	fnmadd.h	f25,f20,f16,f23
   1d1851ed4e59c:	0001                	.insn	2, 0x0001
   1d1851ed4e59e:	0000                	.insn	2, 0x0000
   1d1851ed4e5a0:	bd0a80cf          	fnmadd.h	f1,f21,f16,f23,rne
   1d1851ed4e5a4:	0001                	.insn	2, 0x0001
   1d1851ed4e5a6:	0000                	.insn	2, 0x0000
   1d1851ed4e5a8:	bd0a84cf          	fnmadd.h	f9,f21,f16,f23,rne
   1d1851ed4e5ac:	0001                	.insn	2, 0x0001
   1d1851ed4e5ae:	0000                	.insn	2, 0x0000
   1d1851ed4e5b0:	bd0a88cf          	fnmadd.h	f17,f21,f16,f23,rne
   1d1851ed4e5b4:	0001                	.insn	2, 0x0001
   1d1851ed4e5b6:	0000                	.insn	2, 0x0000
   1d1851ed4e5b8:	bd0a8ccf          	fnmadd.h	f25,f21,f16,f23,rne
   1d1851ed4e5bc:	0001                	.insn	2, 0x0001
   1d1851ed4e5be:	0000                	.insn	2, 0x0000
   1d1851ed4e5c0:	bd0a90cf          	fnmadd.h	f1,f21,f16,f23,rtz
   1d1851ed4e5c4:	0001                	.insn	2, 0x0001
   1d1851ed4e5c6:	0000                	.insn	2, 0x0000
   1d1851ed4e5c8:	bd0a94cf          	fnmadd.h	f9,f21,f16,f23,rtz
   1d1851ed4e5cc:	0001                	.insn	2, 0x0001
   1d1851ed4e5ce:	0000                	.insn	2, 0x0000
   1d1851ed4e5d0:	bd0a98cf          	fnmadd.h	f17,f21,f16,f23,rtz
   1d1851ed4e5d4:	0001                	.insn	2, 0x0001
   1d1851ed4e5d6:	0000                	.insn	2, 0x0000
   1d1851ed4e5d8:	bd0a9ccf          	fnmadd.h	f25,f21,f16,f23,rtz
   1d1851ed4e5dc:	0001                	.insn	2, 0x0001
   1d1851ed4e5de:	0000                	.insn	2, 0x0000
   1d1851ed4e5e0:	bd0aa0cf          	fnmadd.h	f1,f21,f16,f23,rdn
   1d1851ed4e5e4:	0001                	.insn	2, 0x0001
   1d1851ed4e5e6:	0000                	.insn	2, 0x0000
   1d1851ed4e5e8:	bd0aa4cf          	fnmadd.h	f9,f21,f16,f23,rdn
   1d1851ed4e5ec:	0001                	.insn	2, 0x0001
   1d1851ed4e5ee:	0000                	.insn	2, 0x0000
   1d1851ed4e5f0:	bd0aa8cf          	fnmadd.h	f17,f21,f16,f23,rdn
   1d1851ed4e5f4:	0001                	.insn	2, 0x0001
   1d1851ed4e5f6:	0000                	.insn	2, 0x0000
   1d1851ed4e5f8:	bd0aaccf          	fnmadd.h	f25,f21,f16,f23,rdn
   1d1851ed4e5fc:	0001                	.insn	2, 0x0001
   1d1851ed4e5fe:	0000                	.insn	2, 0x0000
   1d1851ed4e600:	bd0ab0cf          	fnmadd.h	f1,f21,f16,f23,rup
   1d1851ed4e604:	0001                	.insn	2, 0x0001
   1d1851ed4e606:	0000                	.insn	2, 0x0000
   1d1851ed4e608:	bd0ab4cf          	fnmadd.h	f9,f21,f16,f23,rup
   1d1851ed4e60c:	0001                	.insn	2, 0x0001
   1d1851ed4e60e:	0000                	.insn	2, 0x0000
   1d1851ed4e610:	bd0ab8cf          	fnmadd.h	f17,f21,f16,f23,rup
   1d1851ed4e614:	0001                	.insn	2, 0x0001
   1d1851ed4e616:	0000                	.insn	2, 0x0000
   1d1851ed4e618:	bd0abccf          	fnmadd.h	f25,f21,f16,f23,rup
   1d1851ed4e61c:	0001                	.insn	2, 0x0001
   1d1851ed4e61e:	0000                	.insn	2, 0x0000
   1d1851ed4e620:	bd0ac0cf          	fnmadd.h	f1,f21,f16,f23,rmm
   1d1851ed4e624:	0001                	.insn	2, 0x0001
   1d1851ed4e626:	0000                	.insn	2, 0x0000
   1d1851ed4e628:	bd0ac4cf          	fnmadd.h	f9,f21,f16,f23,rmm
   1d1851ed4e62c:	0001                	.insn	2, 0x0001
   1d1851ed4e62e:	0000                	.insn	2, 0x0000
   1d1851ed4e630:	bd0ac8cf          	fnmadd.h	f17,f21,f16,f23,rmm
   1d1851ed4e634:	0001                	.insn	2, 0x0001
   1d1851ed4e636:	0000                	.insn	2, 0x0000
   1d1851ed4e638:	bd0acccf          	fnmadd.h	f25,f21,f16,f23,rmm
   1d1851ed4e63c:	0001                	.insn	2, 0x0001
   1d1851ed4e63e:	0000                	.insn	2, 0x0000
   1d1851ed4e640:	bd0ad0cf          	fnmadd.h	f1,f21,f16,f23,unknown
   1d1851ed4e644:	0001                	.insn	2, 0x0001
   1d1851ed4e646:	0000                	.insn	2, 0x0000
   1d1851ed4e648:	bd0ad4cf          	fnmadd.h	f9,f21,f16,f23,unknown
   1d1851ed4e64c:	0001                	.insn	2, 0x0001
   1d1851ed4e64e:	0000                	.insn	2, 0x0000
   1d1851ed4e650:	bd0ad8cf          	fnmadd.h	f17,f21,f16,f23,unknown
   1d1851ed4e654:	0001                	.insn	2, 0x0001
   1d1851ed4e656:	0000                	.insn	2, 0x0000
   1d1851ed4e658:	bd0adccf          	fnmadd.h	f25,f21,f16,f23,unknown
   1d1851ed4e65c:	0001                	.insn	2, 0x0001
   1d1851ed4e65e:	0000                	.insn	2, 0x0000
   1d1851ed4e660:	bd0ae0cf          	fnmadd.h	f1,f21,f16,f23,unknown
   1d1851ed4e664:	0001                	.insn	2, 0x0001
   1d1851ed4e666:	0000                	.insn	2, 0x0000
   1d1851ed4e668:	bd0ae4cf          	fnmadd.h	f9,f21,f16,f23,unknown
   1d1851ed4e66c:	0001                	.insn	2, 0x0001
   1d1851ed4e66e:	0000                	.insn	2, 0x0000
   1d1851ed4e670:	bd0ae8cf          	fnmadd.h	f17,f21,f16,f23,unknown
   1d1851ed4e674:	0001                	.insn	2, 0x0001
   1d1851ed4e676:	0000                	.insn	2, 0x0000
   1d1851ed4e678:	bd0aeccf          	fnmadd.h	f25,f21,f16,f23,unknown
   1d1851ed4e67c:	0001                	.insn	2, 0x0001
   1d1851ed4e67e:	0000                	.insn	2, 0x0000
   1d1851ed4e680:	bd0af0cf          	fnmadd.h	f1,f21,f16,f23
   1d1851ed4e684:	0001                	.insn	2, 0x0001
   1d1851ed4e686:	0000                	.insn	2, 0x0000
   1d1851ed4e688:	bd0af4cf          	fnmadd.h	f9,f21,f16,f23
   1d1851ed4e68c:	0001                	.insn	2, 0x0001
   1d1851ed4e68e:	0000                	.insn	2, 0x0000
   1d1851ed4e690:	bd0af8cf          	fnmadd.h	f17,f21,f16,f23
   1d1851ed4e694:	0001                	.insn	2, 0x0001
   1d1851ed4e696:	0000                	.insn	2, 0x0000
   1d1851ed4e698:	bd0afccf          	fnmadd.h	f25,f21,f16,f23
   1d1851ed4e69c:	0001                	.insn	2, 0x0001
   1d1851ed4e69e:	0000                	.insn	2, 0x0000
   1d1851ed4e6a0:	bd0b00cf          	fnmadd.h	f1,f22,f16,f23,rne
   1d1851ed4e6a4:	0001                	.insn	2, 0x0001
   1d1851ed4e6a6:	0000                	.insn	2, 0x0000
   1d1851ed4e6a8:	bd0b04cf          	fnmadd.h	f9,f22,f16,f23,rne
   1d1851ed4e6ac:	0001                	.insn	2, 0x0001
   1d1851ed4e6ae:	0000                	.insn	2, 0x0000
   1d1851ed4e6b0:	bd0b08cf          	fnmadd.h	f17,f22,f16,f23,rne
   1d1851ed4e6b4:	0001                	.insn	2, 0x0001
   1d1851ed4e6b6:	0000                	.insn	2, 0x0000
   1d1851ed4e6b8:	bd0b0ccf          	fnmadd.h	f25,f22,f16,f23,rne
   1d1851ed4e6bc:	0001                	.insn	2, 0x0001
   1d1851ed4e6be:	0000                	.insn	2, 0x0000
   1d1851ed4e6c0:	bd0b10cf          	fnmadd.h	f1,f22,f16,f23,rtz
   1d1851ed4e6c4:	0001                	.insn	2, 0x0001
   1d1851ed4e6c6:	0000                	.insn	2, 0x0000
   1d1851ed4e6c8:	bd0b14cf          	fnmadd.h	f9,f22,f16,f23,rtz
   1d1851ed4e6cc:	0001                	.insn	2, 0x0001
   1d1851ed4e6ce:	0000                	.insn	2, 0x0000
   1d1851ed4e6d0:	bd0b18cf          	fnmadd.h	f17,f22,f16,f23,rtz
   1d1851ed4e6d4:	0001                	.insn	2, 0x0001
   1d1851ed4e6d6:	0000                	.insn	2, 0x0000
   1d1851ed4e6d8:	bd0b1ccf          	fnmadd.h	f25,f22,f16,f23,rtz
   1d1851ed4e6dc:	0001                	.insn	2, 0x0001
   1d1851ed4e6de:	0000                	.insn	2, 0x0000
   1d1851ed4e6e0:	bd0b20cf          	fnmadd.h	f1,f22,f16,f23,rdn
   1d1851ed4e6e4:	0001                	.insn	2, 0x0001
   1d1851ed4e6e6:	0000                	.insn	2, 0x0000
   1d1851ed4e6e8:	bd0b24cf          	fnmadd.h	f9,f22,f16,f23,rdn
   1d1851ed4e6ec:	0001                	.insn	2, 0x0001
   1d1851ed4e6ee:	0000                	.insn	2, 0x0000
   1d1851ed4e6f0:	bd0b28cf          	fnmadd.h	f17,f22,f16,f23,rdn
   1d1851ed4e6f4:	0001                	.insn	2, 0x0001
   1d1851ed4e6f6:	0000                	.insn	2, 0x0000
   1d1851ed4e6f8:	bd0b2ccf          	fnmadd.h	f25,f22,f16,f23,rdn
   1d1851ed4e6fc:	0001                	.insn	2, 0x0001
   1d1851ed4e6fe:	0000                	.insn	2, 0x0000
   1d1851ed4e700:	bd0b30cf          	fnmadd.h	f1,f22,f16,f23,rup
   1d1851ed4e704:	0001                	.insn	2, 0x0001
   1d1851ed4e706:	0000                	.insn	2, 0x0000
   1d1851ed4e708:	bd0b34cf          	fnmadd.h	f9,f22,f16,f23,rup
   1d1851ed4e70c:	0001                	.insn	2, 0x0001
   1d1851ed4e70e:	0000                	.insn	2, 0x0000
   1d1851ed4e710:	bd0b38cf          	fnmadd.h	f17,f22,f16,f23,rup
   1d1851ed4e714:	0001                	.insn	2, 0x0001
   1d1851ed4e716:	0000                	.insn	2, 0x0000
   1d1851ed4e718:	bd0b3ccf          	fnmadd.h	f25,f22,f16,f23,rup
   1d1851ed4e71c:	0001                	.insn	2, 0x0001
   1d1851ed4e71e:	0000                	.insn	2, 0x0000
   1d1851ed4e720:	bd0b40cf          	fnmadd.h	f1,f22,f16,f23,rmm
   1d1851ed4e724:	0001                	.insn	2, 0x0001
   1d1851ed4e726:	0000                	.insn	2, 0x0000
   1d1851ed4e728:	bd0b44cf          	fnmadd.h	f9,f22,f16,f23,rmm
   1d1851ed4e72c:	0001                	.insn	2, 0x0001
   1d1851ed4e72e:	0000                	.insn	2, 0x0000
   1d1851ed4e730:	bd0b48cf          	fnmadd.h	f17,f22,f16,f23,rmm
   1d1851ed4e734:	0001                	.insn	2, 0x0001
   1d1851ed4e736:	0000                	.insn	2, 0x0000
   1d1851ed4e738:	bd0b4ccf          	fnmadd.h	f25,f22,f16,f23,rmm
   1d1851ed4e73c:	0001                	.insn	2, 0x0001
   1d1851ed4e73e:	0000                	.insn	2, 0x0000
   1d1851ed4e740:	bd0b50cf          	fnmadd.h	f1,f22,f16,f23,unknown
   1d1851ed4e744:	0001                	.insn	2, 0x0001
   1d1851ed4e746:	0000                	.insn	2, 0x0000
   1d1851ed4e748:	bd0b54cf          	fnmadd.h	f9,f22,f16,f23,unknown
   1d1851ed4e74c:	0001                	.insn	2, 0x0001
   1d1851ed4e74e:	0000                	.insn	2, 0x0000
   1d1851ed4e750:	bd0b58cf          	fnmadd.h	f17,f22,f16,f23,unknown
   1d1851ed4e754:	0001                	.insn	2, 0x0001
   1d1851ed4e756:	0000                	.insn	2, 0x0000
   1d1851ed4e758:	bd0b5ccf          	fnmadd.h	f25,f22,f16,f23,unknown
   1d1851ed4e75c:	0001                	.insn	2, 0x0001
   1d1851ed4e75e:	0000                	.insn	2, 0x0000
   1d1851ed4e760:	bd0b60cf          	fnmadd.h	f1,f22,f16,f23,unknown
   1d1851ed4e764:	0001                	.insn	2, 0x0001
   1d1851ed4e766:	0000                	.insn	2, 0x0000
   1d1851ed4e768:	bd0b64cf          	fnmadd.h	f9,f22,f16,f23,unknown
   1d1851ed4e76c:	0001                	.insn	2, 0x0001
   1d1851ed4e76e:	0000                	.insn	2, 0x0000
   1d1851ed4e770:	bd0b68cf          	fnmadd.h	f17,f22,f16,f23,unknown
   1d1851ed4e774:	0001                	.insn	2, 0x0001
   1d1851ed4e776:	0000                	.insn	2, 0x0000
   1d1851ed4e778:	bd0b6ccf          	fnmadd.h	f25,f22,f16,f23,unknown
   1d1851ed4e77c:	0001                	.insn	2, 0x0001
   1d1851ed4e77e:	0000                	.insn	2, 0x0000
   1d1851ed4e780:	bd0b70cf          	fnmadd.h	f1,f22,f16,f23
   1d1851ed4e784:	0001                	.insn	2, 0x0001
   1d1851ed4e786:	0000                	.insn	2, 0x0000
   1d1851ed4e788:	bd0b74cf          	fnmadd.h	f9,f22,f16,f23
   1d1851ed4e78c:	0001                	.insn	2, 0x0001
   1d1851ed4e78e:	0000                	.insn	2, 0x0000
   1d1851ed4e790:	bd0b78cf          	fnmadd.h	f17,f22,f16,f23
   1d1851ed4e794:	0001                	.insn	2, 0x0001
   1d1851ed4e796:	0000                	.insn	2, 0x0000
   1d1851ed4e798:	bd0b7ccf          	fnmadd.h	f25,f22,f16,f23
   1d1851ed4e79c:	0001                	.insn	2, 0x0001
   1d1851ed4e79e:	0000                	.insn	2, 0x0000
   1d1851ed4e7a0:	bd0b80cf          	fnmadd.h	f1,f23,f16,f23,rne
   1d1851ed4e7a4:	0001                	.insn	2, 0x0001
   1d1851ed4e7a6:	0000                	.insn	2, 0x0000
   1d1851ed4e7a8:	bd0b84cf          	fnmadd.h	f9,f23,f16,f23,rne
   1d1851ed4e7ac:	0001                	.insn	2, 0x0001
   1d1851ed4e7ae:	0000                	.insn	2, 0x0000
   1d1851ed4e7b0:	bd0b88cf          	fnmadd.h	f17,f23,f16,f23,rne
   1d1851ed4e7b4:	0001                	.insn	2, 0x0001
   1d1851ed4e7b6:	0000                	.insn	2, 0x0000
   1d1851ed4e7b8:	bd0b8ccf          	fnmadd.h	f25,f23,f16,f23,rne
   1d1851ed4e7bc:	0001                	.insn	2, 0x0001
   1d1851ed4e7be:	0000                	.insn	2, 0x0000
   1d1851ed4e7c0:	bd0b90cf          	fnmadd.h	f1,f23,f16,f23,rtz
   1d1851ed4e7c4:	0001                	.insn	2, 0x0001
   1d1851ed4e7c6:	0000                	.insn	2, 0x0000
   1d1851ed4e7c8:	bd0b94cf          	fnmadd.h	f9,f23,f16,f23,rtz
   1d1851ed4e7cc:	0001                	.insn	2, 0x0001
   1d1851ed4e7ce:	0000                	.insn	2, 0x0000
   1d1851ed4e7d0:	bd0b98cf          	fnmadd.h	f17,f23,f16,f23,rtz
   1d1851ed4e7d4:	0001                	.insn	2, 0x0001
   1d1851ed4e7d6:	0000                	.insn	2, 0x0000
   1d1851ed4e7d8:	bd0b9ccf          	fnmadd.h	f25,f23,f16,f23,rtz
   1d1851ed4e7dc:	0001                	.insn	2, 0x0001
   1d1851ed4e7de:	0000                	.insn	2, 0x0000
   1d1851ed4e7e0:	bd0ba0cf          	fnmadd.h	f1,f23,f16,f23,rdn
   1d1851ed4e7e4:	0001                	.insn	2, 0x0001
   1d1851ed4e7e6:	0000                	.insn	2, 0x0000
   1d1851ed4e7e8:	bd0ba4cf          	fnmadd.h	f9,f23,f16,f23,rdn
   1d1851ed4e7ec:	0001                	.insn	2, 0x0001
   1d1851ed4e7ee:	0000                	.insn	2, 0x0000
   1d1851ed4e7f0:	bd0ba8cf          	fnmadd.h	f17,f23,f16,f23,rdn
   1d1851ed4e7f4:	0001                	.insn	2, 0x0001
   1d1851ed4e7f6:	0000                	.insn	2, 0x0000
   1d1851ed4e7f8:	bd0baccf          	fnmadd.h	f25,f23,f16,f23,rdn
   1d1851ed4e7fc:	0001                	.insn	2, 0x0001
   1d1851ed4e7fe:	0000                	.insn	2, 0x0000
   1d1851ed4e800:	bd0bb0cf          	fnmadd.h	f1,f23,f16,f23,rup
   1d1851ed4e804:	0001                	.insn	2, 0x0001
   1d1851ed4e806:	0000                	.insn	2, 0x0000
   1d1851ed4e808:	bd0bb4cf          	fnmadd.h	f9,f23,f16,f23,rup
   1d1851ed4e80c:	0001                	.insn	2, 0x0001
   1d1851ed4e80e:	0000                	.insn	2, 0x0000
   1d1851ed4e810:	bd0bb8cf          	fnmadd.h	f17,f23,f16,f23,rup
   1d1851ed4e814:	0001                	.insn	2, 0x0001
   1d1851ed4e816:	0000                	.insn	2, 0x0000
   1d1851ed4e818:	bd0bbccf          	fnmadd.h	f25,f23,f16,f23,rup
   1d1851ed4e81c:	0001                	.insn	2, 0x0001
   1d1851ed4e81e:	0000                	.insn	2, 0x0000
   1d1851ed4e820:	bd0bc0cf          	fnmadd.h	f1,f23,f16,f23,rmm
   1d1851ed4e824:	0001                	.insn	2, 0x0001
   1d1851ed4e826:	0000                	.insn	2, 0x0000
   1d1851ed4e828:	bd0bc4cf          	fnmadd.h	f9,f23,f16,f23,rmm
   1d1851ed4e82c:	0001                	.insn	2, 0x0001
   1d1851ed4e82e:	0000                	.insn	2, 0x0000
   1d1851ed4e830:	bd0bc8cf          	fnmadd.h	f17,f23,f16,f23,rmm
   1d1851ed4e834:	0001                	.insn	2, 0x0001
   1d1851ed4e836:	0000                	.insn	2, 0x0000
   1d1851ed4e838:	bd0bcccf          	fnmadd.h	f25,f23,f16,f23,rmm
   1d1851ed4e83c:	0001                	.insn	2, 0x0001
   1d1851ed4e83e:	0000                	.insn	2, 0x0000
   1d1851ed4e840:	bd0bd0cf          	fnmadd.h	f1,f23,f16,f23,unknown
   1d1851ed4e844:	0001                	.insn	2, 0x0001
   1d1851ed4e846:	0000                	.insn	2, 0x0000
   1d1851ed4e848:	bd0bd4cf          	fnmadd.h	f9,f23,f16,f23,unknown
   1d1851ed4e84c:	0001                	.insn	2, 0x0001
   1d1851ed4e84e:	0000                	.insn	2, 0x0000
   1d1851ed4e850:	bd0bd8cf          	fnmadd.h	f17,f23,f16,f23,unknown
   1d1851ed4e854:	0001                	.insn	2, 0x0001
   1d1851ed4e856:	0000                	.insn	2, 0x0000
   1d1851ed4e858:	bd0bdccf          	fnmadd.h	f25,f23,f16,f23,unknown
   1d1851ed4e85c:	0001                	.insn	2, 0x0001
   1d1851ed4e85e:	0000                	.insn	2, 0x0000
   1d1851ed4e860:	bd0be0cf          	fnmadd.h	f1,f23,f16,f23,unknown
   1d1851ed4e864:	0001                	.insn	2, 0x0001
   1d1851ed4e866:	0000                	.insn	2, 0x0000
   1d1851ed4e868:	bd0be4cf          	fnmadd.h	f9,f23,f16,f23,unknown
   1d1851ed4e86c:	0001                	.insn	2, 0x0001
   1d1851ed4e86e:	0000                	.insn	2, 0x0000
   1d1851ed4e870:	bd0be8cf          	fnmadd.h	f17,f23,f16,f23,unknown
   1d1851ed4e874:	0001                	.insn	2, 0x0001
   1d1851ed4e876:	0000                	.insn	2, 0x0000
   1d1851ed4e878:	bd0beccf          	fnmadd.h	f25,f23,f16,f23,unknown
   1d1851ed4e87c:	0001                	.insn	2, 0x0001
   1d1851ed4e87e:	0000                	.insn	2, 0x0000
   1d1851ed4e880:	bd0bf0cf          	fnmadd.h	f1,f23,f16,f23
   1d1851ed4e884:	0001                	.insn	2, 0x0001
   1d1851ed4e886:	0000                	.insn	2, 0x0000
   1d1851ed4e888:	bd0bf4cf          	fnmadd.h	f9,f23,f16,f23
   1d1851ed4e88c:	0001                	.insn	2, 0x0001
   1d1851ed4e88e:	0000                	.insn	2, 0x0000
   1d1851ed4e890:	bd0bf8cf          	fnmadd.h	f17,f23,f16,f23
   1d1851ed4e894:	0001                	.insn	2, 0x0001
   1d1851ed4e896:	0000                	.insn	2, 0x0000
   1d1851ed4e898:	bd0bfccf          	fnmadd.h	f25,f23,f16,f23
   1d1851ed4e89c:	0001                	.insn	2, 0x0001
   1d1851ed4e89e:	0000                	.insn	2, 0x0000
   1d1851ed4e8a0:	00df bd0c 0001      	.insn	6, 0x0001bd0c00df
   1d1851ed4e8a6:	0000                	.insn	2, 0x0000
   1d1851ed4e8a8:	04df bd0c 0001      	.insn	6, 0x0001bd0c04df
   1d1851ed4e8ae:	0000                	.insn	2, 0x0000
   1d1851ed4e8b0:	08df bd0c 0001      	.insn	6, 0x0001bd0c08df
   1d1851ed4e8b6:	0000                	.insn	2, 0x0000
   1d1851ed4e8b8:	0cdf bd0c 0001      	.insn	6, 0x0001bd0c0cdf
   1d1851ed4e8be:	0000                	.insn	2, 0x0000
   1d1851ed4e8c0:	10df bd0c 0001      	.insn	6, 0x0001bd0c10df
   1d1851ed4e8c6:	0000                	.insn	2, 0x0000
   1d1851ed4e8c8:	14df bd0c 0001      	.insn	6, 0x0001bd0c14df
   1d1851ed4e8ce:	0000                	.insn	2, 0x0000
   1d1851ed4e8d0:	18df bd0c 0001      	.insn	6, 0x0001bd0c18df
   1d1851ed4e8d6:	0000                	.insn	2, 0x0000
   1d1851ed4e8d8:	1cdf bd0c 0001      	.insn	6, 0x0001bd0c1cdf
   1d1851ed4e8de:	0000                	.insn	2, 0x0000
   1d1851ed4e8e0:	20df bd0c 0001      	.insn	6, 0x0001bd0c20df
   1d1851ed4e8e6:	0000                	.insn	2, 0x0000
   1d1851ed4e8e8:	24df bd0c 0001      	.insn	6, 0x0001bd0c24df
   1d1851ed4e8ee:	0000                	.insn	2, 0x0000
   1d1851ed4e8f0:	28df bd0c 0001      	.insn	6, 0x0001bd0c28df
   1d1851ed4e8f6:	0000                	.insn	2, 0x0000
   1d1851ed4e8f8:	2cdf bd0c 0001      	.insn	6, 0x0001bd0c2cdf
   1d1851ed4e8fe:	0000                	.insn	2, 0x0000
   1d1851ed4e900:	30df bd0c 0001      	.insn	6, 0x0001bd0c30df
   1d1851ed4e906:	0000                	.insn	2, 0x0000
   1d1851ed4e908:	34df bd0c 0001      	.insn	6, 0x0001bd0c34df
   1d1851ed4e90e:	0000                	.insn	2, 0x0000
   1d1851ed4e910:	38df bd0c 0001      	.insn	6, 0x0001bd0c38df
   1d1851ed4e916:	0000                	.insn	2, 0x0000
   1d1851ed4e918:	3cdf bd0c 0001      	.insn	6, 0x0001bd0c3cdf
   1d1851ed4e91e:	0000                	.insn	2, 0x0000
   1d1851ed4e920:	40df bd0c 0001      	.insn	6, 0x0001bd0c40df
   1d1851ed4e926:	0000                	.insn	2, 0x0000
   1d1851ed4e928:	44df bd0c 0001      	.insn	6, 0x0001bd0c44df
   1d1851ed4e92e:	0000                	.insn	2, 0x0000
   1d1851ed4e930:	48df bd0c 0001      	.insn	6, 0x0001bd0c48df
   1d1851ed4e936:	0000                	.insn	2, 0x0000
   1d1851ed4e938:	4cdf bd0c 0001      	.insn	6, 0x0001bd0c4cdf
   1d1851ed4e93e:	0000                	.insn	2, 0x0000
   1d1851ed4e940:	50df bd0c 0001      	.insn	6, 0x0001bd0c50df
   1d1851ed4e946:	0000                	.insn	2, 0x0000
   1d1851ed4e948:	54df bd0c 0001      	.insn	6, 0x0001bd0c54df
   1d1851ed4e94e:	0000                	.insn	2, 0x0000
   1d1851ed4e950:	58df bd0c 0001      	.insn	6, 0x0001bd0c58df
   1d1851ed4e956:	0000                	.insn	2, 0x0000
   1d1851ed4e958:	5cdf bd0c 0001      	.insn	6, 0x0001bd0c5cdf
   1d1851ed4e95e:	0000                	.insn	2, 0x0000
   1d1851ed4e960:	60df bd0c 0001      	.insn	6, 0x0001bd0c60df
   1d1851ed4e966:	0000                	.insn	2, 0x0000
   1d1851ed4e968:	64df bd0c 0001      	.insn	6, 0x0001bd0c64df
   1d1851ed4e96e:	0000                	.insn	2, 0x0000
   1d1851ed4e970:	68df bd0c 0001      	.insn	6, 0x0001bd0c68df
   1d1851ed4e976:	0000                	.insn	2, 0x0000
   1d1851ed4e978:	6cdf bd0c 0001      	.insn	6, 0x0001bd0c6cdf
   1d1851ed4e97e:	0000                	.insn	2, 0x0000
   1d1851ed4e980:	70df bd0c 0001      	.insn	6, 0x0001bd0c70df
   1d1851ed4e986:	0000                	.insn	2, 0x0000
   1d1851ed4e988:	74df bd0c 0001      	.insn	6, 0x0001bd0c74df
   1d1851ed4e98e:	0000                	.insn	2, 0x0000
   1d1851ed4e990:	78df bd0c 0001      	.insn	6, 0x0001bd0c78df
   1d1851ed4e996:	0000                	.insn	2, 0x0000
   1d1851ed4e998:	7cdf bd0c 0001      	.insn	6, 0x0001bd0c7cdf
   1d1851ed4e99e:	0000                	.insn	2, 0x0000
   1d1851ed4e9a0:	80df bd0c 0001      	.insn	6, 0x0001bd0c80df
   1d1851ed4e9a6:	0000                	.insn	2, 0x0000
   1d1851ed4e9a8:	84df bd0c 0001      	.insn	6, 0x0001bd0c84df
   1d1851ed4e9ae:	0000                	.insn	2, 0x0000
   1d1851ed4e9b0:	88df bd0c 0001      	.insn	6, 0x0001bd0c88df
   1d1851ed4e9b6:	0000                	.insn	2, 0x0000
   1d1851ed4e9b8:	8cdf bd0c 0001      	.insn	6, 0x0001bd0c8cdf
   1d1851ed4e9be:	0000                	.insn	2, 0x0000
   1d1851ed4e9c0:	90df bd0c 0001      	.insn	6, 0x0001bd0c90df
   1d1851ed4e9c6:	0000                	.insn	2, 0x0000
   1d1851ed4e9c8:	94df bd0c 0001      	.insn	6, 0x0001bd0c94df
   1d1851ed4e9ce:	0000                	.insn	2, 0x0000
   1d1851ed4e9d0:	98df bd0c 0001      	.insn	6, 0x0001bd0c98df
   1d1851ed4e9d6:	0000                	.insn	2, 0x0000
   1d1851ed4e9d8:	9cdf bd0c 0001      	.insn	6, 0x0001bd0c9cdf
   1d1851ed4e9de:	0000                	.insn	2, 0x0000
   1d1851ed4e9e0:	a0df bd0c 0001      	.insn	6, 0x0001bd0ca0df
   1d1851ed4e9e6:	0000                	.insn	2, 0x0000
   1d1851ed4e9e8:	a4df bd0c 0001      	.insn	6, 0x0001bd0ca4df
   1d1851ed4e9ee:	0000                	.insn	2, 0x0000
   1d1851ed4e9f0:	a8df bd0c 0001      	.insn	6, 0x0001bd0ca8df
   1d1851ed4e9f6:	0000                	.insn	2, 0x0000
   1d1851ed4e9f8:	acdf bd0c 0001      	.insn	6, 0x0001bd0cacdf
   1d1851ed4e9fe:	0000                	.insn	2, 0x0000
   1d1851ed4ea00:	b0df bd0c 0001      	.insn	6, 0x0001bd0cb0df
   1d1851ed4ea06:	0000                	.insn	2, 0x0000
   1d1851ed4ea08:	b4df bd0c 0001      	.insn	6, 0x0001bd0cb4df
   1d1851ed4ea0e:	0000                	.insn	2, 0x0000
   1d1851ed4ea10:	b8df bd0c 0001      	.insn	6, 0x0001bd0cb8df
   1d1851ed4ea16:	0000                	.insn	2, 0x0000
   1d1851ed4ea18:	bcdf bd0c 0001      	.insn	6, 0x0001bd0cbcdf
   1d1851ed4ea1e:	0000                	.insn	2, 0x0000
   1d1851ed4ea20:	c0df bd0c 0001      	.insn	6, 0x0001bd0cc0df
   1d1851ed4ea26:	0000                	.insn	2, 0x0000
   1d1851ed4ea28:	c4df bd0c 0001      	.insn	6, 0x0001bd0cc4df
   1d1851ed4ea2e:	0000                	.insn	2, 0x0000
   1d1851ed4ea30:	c8df bd0c 0001      	.insn	6, 0x0001bd0cc8df
   1d1851ed4ea36:	0000                	.insn	2, 0x0000
   1d1851ed4ea38:	ccdf bd0c 0001      	.insn	6, 0x0001bd0cccdf
   1d1851ed4ea3e:	0000                	.insn	2, 0x0000
   1d1851ed4ea40:	d0df bd0c 0001      	.insn	6, 0x0001bd0cd0df
   1d1851ed4ea46:	0000                	.insn	2, 0x0000
   1d1851ed4ea48:	d4df bd0c 0001      	.insn	6, 0x0001bd0cd4df
   1d1851ed4ea4e:	0000                	.insn	2, 0x0000
   1d1851ed4ea50:	d8df bd0c 0001      	.insn	6, 0x0001bd0cd8df
   1d1851ed4ea56:	0000                	.insn	2, 0x0000
   1d1851ed4ea58:	dcdf bd0c 0001      	.insn	6, 0x0001bd0cdcdf
   1d1851ed4ea5e:	0000                	.insn	2, 0x0000
   1d1851ed4ea60:	e0df bd0c 0001      	.insn	6, 0x0001bd0ce0df
   1d1851ed4ea66:	0000                	.insn	2, 0x0000
   1d1851ed4ea68:	e4df bd0c 0001      	.insn	6, 0x0001bd0ce4df
   1d1851ed4ea6e:	0000                	.insn	2, 0x0000
   1d1851ed4ea70:	e8df bd0c 0001      	.insn	6, 0x0001bd0ce8df
   1d1851ed4ea76:	0000                	.insn	2, 0x0000
   1d1851ed4ea78:	ecdf bd0c 0001      	.insn	6, 0x0001bd0cecdf
   1d1851ed4ea7e:	0000                	.insn	2, 0x0000
   1d1851ed4ea80:	f0df bd0c 0001      	.insn	6, 0x0001bd0cf0df
   1d1851ed4ea86:	0000                	.insn	2, 0x0000
   1d1851ed4ea88:	f4df bd0c 0001      	.insn	6, 0x0001bd0cf4df
   1d1851ed4ea8e:	0000                	.insn	2, 0x0000
   1d1851ed4ea90:	f8df bd0c 0001      	.insn	6, 0x0001bd0cf8df
   1d1851ed4ea96:	0000                	.insn	2, 0x0000
   1d1851ed4ea98:	fcdf bd0c 0001      	.insn	6, 0x0001bd0cfcdf
   1d1851ed4ea9e:	0000                	.insn	2, 0x0000
   1d1851ed4eaa0:	00df bd0d 0001      	.insn	6, 0x0001bd0d00df
   1d1851ed4eaa6:	0000                	.insn	2, 0x0000
   1d1851ed4eaa8:	04df bd0d 0001      	.insn	6, 0x0001bd0d04df
   1d1851ed4eaae:	0000                	.insn	2, 0x0000
   1d1851ed4eab0:	08df bd0d 0001      	.insn	6, 0x0001bd0d08df
   1d1851ed4eab6:	0000                	.insn	2, 0x0000
   1d1851ed4eab8:	0cdf bd0d 0001      	.insn	6, 0x0001bd0d0cdf
   1d1851ed4eabe:	0000                	.insn	2, 0x0000
   1d1851ed4eac0:	10df bd0d 0001      	.insn	6, 0x0001bd0d10df
   1d1851ed4eac6:	0000                	.insn	2, 0x0000
   1d1851ed4eac8:	14df bd0d 0001      	.insn	6, 0x0001bd0d14df
   1d1851ed4eace:	0000                	.insn	2, 0x0000
   1d1851ed4ead0:	18df bd0d 0001      	.insn	6, 0x0001bd0d18df
   1d1851ed4ead6:	0000                	.insn	2, 0x0000
   1d1851ed4ead8:	1cdf bd0d 0001      	.insn	6, 0x0001bd0d1cdf
   1d1851ed4eade:	0000                	.insn	2, 0x0000
   1d1851ed4eae0:	20df bd0d 0001      	.insn	6, 0x0001bd0d20df
   1d1851ed4eae6:	0000                	.insn	2, 0x0000
   1d1851ed4eae8:	24df bd0d 0001      	.insn	6, 0x0001bd0d24df
   1d1851ed4eaee:	0000                	.insn	2, 0x0000
   1d1851ed4eaf0:	28df bd0d 0001      	.insn	6, 0x0001bd0d28df
   1d1851ed4eaf6:	0000                	.insn	2, 0x0000
   1d1851ed4eaf8:	2cdf bd0d 0001      	.insn	6, 0x0001bd0d2cdf
   1d1851ed4eafe:	0000                	.insn	2, 0x0000
   1d1851ed4eb00:	30df bd0d 0001      	.insn	6, 0x0001bd0d30df
   1d1851ed4eb06:	0000                	.insn	2, 0x0000
   1d1851ed4eb08:	34df bd0d 0001      	.insn	6, 0x0001bd0d34df
   1d1851ed4eb0e:	0000                	.insn	2, 0x0000
   1d1851ed4eb10:	38df bd0d 0001      	.insn	6, 0x0001bd0d38df
   1d1851ed4eb16:	0000                	.insn	2, 0x0000
   1d1851ed4eb18:	3cdf bd0d 0001      	.insn	6, 0x0001bd0d3cdf
   1d1851ed4eb1e:	0000                	.insn	2, 0x0000
   1d1851ed4eb20:	40df bd0d 0001      	.insn	6, 0x0001bd0d40df
   1d1851ed4eb26:	0000                	.insn	2, 0x0000
   1d1851ed4eb28:	44df bd0d 0001      	.insn	6, 0x0001bd0d44df
   1d1851ed4eb2e:	0000                	.insn	2, 0x0000
   1d1851ed4eb30:	48df bd0d 0001      	.insn	6, 0x0001bd0d48df
   1d1851ed4eb36:	0000                	.insn	2, 0x0000
   1d1851ed4eb38:	4cdf bd0d 0001      	.insn	6, 0x0001bd0d4cdf
   1d1851ed4eb3e:	0000                	.insn	2, 0x0000
   1d1851ed4eb40:	50df bd0d 0001      	.insn	6, 0x0001bd0d50df
   1d1851ed4eb46:	0000                	.insn	2, 0x0000
   1d1851ed4eb48:	54df bd0d 0001      	.insn	6, 0x0001bd0d54df
   1d1851ed4eb4e:	0000                	.insn	2, 0x0000
   1d1851ed4eb50:	58df bd0d 0001      	.insn	6, 0x0001bd0d58df
   1d1851ed4eb56:	0000                	.insn	2, 0x0000
   1d1851ed4eb58:	5cdf bd0d 0001      	.insn	6, 0x0001bd0d5cdf
   1d1851ed4eb5e:	0000                	.insn	2, 0x0000
   1d1851ed4eb60:	60df bd0d 0001      	.insn	6, 0x0001bd0d60df
   1d1851ed4eb66:	0000                	.insn	2, 0x0000
   1d1851ed4eb68:	64df bd0d 0001      	.insn	6, 0x0001bd0d64df
   1d1851ed4eb6e:	0000                	.insn	2, 0x0000
   1d1851ed4eb70:	68df bd0d 0001      	.insn	6, 0x0001bd0d68df
   1d1851ed4eb76:	0000                	.insn	2, 0x0000
   1d1851ed4eb78:	6cdf bd0d 0001      	.insn	6, 0x0001bd0d6cdf
   1d1851ed4eb7e:	0000                	.insn	2, 0x0000
   1d1851ed4eb80:	70df bd0d 0001      	.insn	6, 0x0001bd0d70df
   1d1851ed4eb86:	0000                	.insn	2, 0x0000
   1d1851ed4eb88:	74df bd0d 0001      	.insn	6, 0x0001bd0d74df
   1d1851ed4eb8e:	0000                	.insn	2, 0x0000
   1d1851ed4eb90:	78df bd0d 0001      	.insn	6, 0x0001bd0d78df
   1d1851ed4eb96:	0000                	.insn	2, 0x0000
   1d1851ed4eb98:	7cdf bd0d 0001      	.insn	6, 0x0001bd0d7cdf
   1d1851ed4eb9e:	0000                	.insn	2, 0x0000
   1d1851ed4eba0:	80df bd0d 0001      	.insn	6, 0x0001bd0d80df
   1d1851ed4eba6:	0000                	.insn	2, 0x0000
   1d1851ed4eba8:	84df bd0d 0001      	.insn	6, 0x0001bd0d84df
   1d1851ed4ebae:	0000                	.insn	2, 0x0000
   1d1851ed4ebb0:	88df bd0d 0001      	.insn	6, 0x0001bd0d88df
   1d1851ed4ebb6:	0000                	.insn	2, 0x0000
   1d1851ed4ebb8:	8cdf bd0d 0001      	.insn	6, 0x0001bd0d8cdf
   1d1851ed4ebbe:	0000                	.insn	2, 0x0000
   1d1851ed4ebc0:	90df bd0d 0001      	.insn	6, 0x0001bd0d90df
   1d1851ed4ebc6:	0000                	.insn	2, 0x0000
   1d1851ed4ebc8:	94df bd0d 0001      	.insn	6, 0x0001bd0d94df
   1d1851ed4ebce:	0000                	.insn	2, 0x0000
   1d1851ed4ebd0:	98df bd0d 0001      	.insn	6, 0x0001bd0d98df
   1d1851ed4ebd6:	0000                	.insn	2, 0x0000
   1d1851ed4ebd8:	9cdf bd0d 0001      	.insn	6, 0x0001bd0d9cdf
   1d1851ed4ebde:	0000                	.insn	2, 0x0000
   1d1851ed4ebe0:	a0df bd0d 0001      	.insn	6, 0x0001bd0da0df
   1d1851ed4ebe6:	0000                	.insn	2, 0x0000
   1d1851ed4ebe8:	a4df bd0d 0001      	.insn	6, 0x0001bd0da4df
   1d1851ed4ebee:	0000                	.insn	2, 0x0000
   1d1851ed4ebf0:	a8df bd0d 0001      	.insn	6, 0x0001bd0da8df
   1d1851ed4ebf6:	0000                	.insn	2, 0x0000
   1d1851ed4ebf8:	acdf bd0d 0001      	.insn	6, 0x0001bd0dacdf
   1d1851ed4ebfe:	0000                	.insn	2, 0x0000
   1d1851ed4ec00:	b0df bd0d 0001      	.insn	6, 0x0001bd0db0df
   1d1851ed4ec06:	0000                	.insn	2, 0x0000
   1d1851ed4ec08:	b4df bd0d 0001      	.insn	6, 0x0001bd0db4df
   1d1851ed4ec0e:	0000                	.insn	2, 0x0000
   1d1851ed4ec10:	b8df bd0d 0001      	.insn	6, 0x0001bd0db8df
   1d1851ed4ec16:	0000                	.insn	2, 0x0000
   1d1851ed4ec18:	bcdf bd0d 0001      	.insn	6, 0x0001bd0dbcdf
   1d1851ed4ec1e:	0000                	.insn	2, 0x0000
   1d1851ed4ec20:	c0df bd0d 0001      	.insn	6, 0x0001bd0dc0df
   1d1851ed4ec26:	0000                	.insn	2, 0x0000
   1d1851ed4ec28:	c4df bd0d 0001      	.insn	6, 0x0001bd0dc4df
   1d1851ed4ec2e:	0000                	.insn	2, 0x0000
   1d1851ed4ec30:	c8df bd0d 0001      	.insn	6, 0x0001bd0dc8df
   1d1851ed4ec36:	0000                	.insn	2, 0x0000
   1d1851ed4ec38:	ccdf bd0d 0001      	.insn	6, 0x0001bd0dccdf
   1d1851ed4ec3e:	0000                	.insn	2, 0x0000
   1d1851ed4ec40:	d0df bd0d 0001      	.insn	6, 0x0001bd0dd0df
   1d1851ed4ec46:	0000                	.insn	2, 0x0000
   1d1851ed4ec48:	d4df bd0d 0001      	.insn	6, 0x0001bd0dd4df
   1d1851ed4ec4e:	0000                	.insn	2, 0x0000
   1d1851ed4ec50:	d8df bd0d 0001      	.insn	6, 0x0001bd0dd8df
   1d1851ed4ec56:	0000                	.insn	2, 0x0000
   1d1851ed4ec58:	dcdf bd0d 0001      	.insn	6, 0x0001bd0ddcdf
   1d1851ed4ec5e:	0000                	.insn	2, 0x0000
   1d1851ed4ec60:	e0df bd0d 0001      	.insn	6, 0x0001bd0de0df
   1d1851ed4ec66:	0000                	.insn	2, 0x0000
   1d1851ed4ec68:	e4df bd0d 0001      	.insn	6, 0x0001bd0de4df
   1d1851ed4ec6e:	0000                	.insn	2, 0x0000
   1d1851ed4ec70:	e8df bd0d 0001      	.insn	6, 0x0001bd0de8df
   1d1851ed4ec76:	0000                	.insn	2, 0x0000
   1d1851ed4ec78:	ecdf bd0d 0001      	.insn	6, 0x0001bd0decdf
   1d1851ed4ec7e:	0000                	.insn	2, 0x0000
   1d1851ed4ec80:	f0df bd0d 0001      	.insn	6, 0x0001bd0df0df
   1d1851ed4ec86:	0000                	.insn	2, 0x0000
   1d1851ed4ec88:	f4df bd0d 0001      	.insn	6, 0x0001bd0df4df
   1d1851ed4ec8e:	0000                	.insn	2, 0x0000
   1d1851ed4ec90:	f8df bd0d 0001      	.insn	6, 0x0001bd0df8df
   1d1851ed4ec96:	0000                	.insn	2, 0x0000
   1d1851ed4ec98:	fcdf bd0d 0001      	.insn	6, 0x0001bd0dfcdf
	...

Disassembly of section .__pagetable_map_os_0x000000cfba0e8000:

000000cfba0e8000 <__pagetable_map_os_0x000000cfba0e8000>:
	...
  cfba0e80a8:	bd1004cf          	fnmadd.h	f9,f0,f17,f23,rne
  cfba0e80ac:	0001                	.insn	2, 0x0001
	...

Disassembly of section .__pagetable_map_os_0x0000001675f2e000:

0000001675f2e000 <__pagetable_map_os_0x0000001675f2e000>:
  1675f2e000:	f801                	.insn	2, 0xf801
  1675f2e002:	d92c                	.insn	2, 0xd92c
  1675f2e004:	0774                	.insn	2, 0x0774
  1675f2e006:	0000                	.insn	2, 0x0000
  1675f2e008:	c401                	.insn	2, 0xc401
  1675f2e00a:	0000fdc3          	fmadd.s	f27,f1,f0,f0
  1675f2e00e:	0000                	.insn	2, 0x0000
  1675f2e010:	c401                	.insn	2, 0xc401
  1675f2e012:	b956                	.insn	2, 0xb956
  1675f2e014:	0002                	.insn	2, 0x0002
	...
  1675f2e01e:	0000                	.insn	2, 0x0000
  1675f2e020:	e801                	.insn	2, 0xe801
  1675f2e022:	efa2                	.insn	2, 0xefa2
  1675f2e024:	03ce                	.insn	2, 0x03ce
	...
  1675f2e1d6:	0000                	.insn	2, 0x0000
  1675f2e1d8:	fc01                	.insn	2, 0xfc01
  1675f2e1da:	942d                	.insn	2, 0x942d
  1675f2e1dc:	4e15                	.insn	2, 0x4e15
  1675f2e1de:	0002                	.insn	2, 0x0002
	...
  1675f2e420:	b401                	.insn	2, 0xb401
  1675f2e422:	2c9a                	.insn	2, 0x2c9a
	...
  1675f2e820:	c001                	.insn	2, 0xc001
  1675f2e822:	2bc9                	.insn	2, 0x2bc9
  1675f2e824:	01e6                	.insn	2, 0x01e6
	...

Disassembly of section .__pagetable_map_os_0x00000f3bbe8ba000:

00000f3bbe8ba000 <__pagetable_map_os_0x00000f3bbe8ba000>:
	...
 f3bbe8ba610:	9bca98c7          	fmsub.d	f17,f21,f28,f19,rtz
 f3bbe8ba614:	036c                	.insn	2, 0x036c
	...
 f3bbe8baec6:	0000                	.insn	2, 0x0000
 f3bbe8baec8:	490048cf          	fnmadd.s	f17,f0,f16,f9,rmm
 f3bbe8baecc:	0274                	.insn	2, 0x0274
 f3bbe8baece:	0001                	.insn	2, 0x0001

Disassembly of section .__pagetable_map_os_0x00001dd364b3e000:

00001dd364b3e000 <__pagetable_map_os_0x00001dd364b3e000>:
	...
    1dd364b3e200:	2bdddcc7          	fmsub.d	f25,f27,f29,f5,unknown
	...
    1dd364b3e2a0:	2270c8c7          	fmsub.d	f17,f1,f7,f4,rmm
    1dd364b3e2a4:	0000bb93          	sltiu	x23,x1,0
	...
    1dd364b3e2b8:	e78e74cf          	.insn	4, 0xe78e74cf
    1dd364b3e2bc:	0001                	.insn	2, 0x0001
	...
    1dd364b3e3de:	0000                	.insn	2, 0x0000
    1dd364b3e3e0:	c99a4cc7          	fmsub.s	f25,f20,f25,f25,rmm
    1dd364b3e3e4:	371f 0002 0000      	.insn	6, 0x0002371f
	...
    1dd364b3e41e:	0000                	.insn	2, 0x0000
    1dd364b3e420:	08e45cc7          	fmsub.s	f25,f8,f14,f1,unknown
    1dd364b3e424:	00000053          	fadd.s	f0,f0,f0,rne
	...
    1dd364b3e750:	49004cc7          	fmsub.s	f25,f0,f16,f9,rmm
    1dd364b3e754:	0274                	.insn	2, 0x0274
    1dd364b3e756:	0001                	.insn	2, 0x0001
	...
    1dd364b3e760:	d91fa4cf          	fnmadd.s	f9,f31,f17,f27,rdn
    1dd364b3e764:	5cfd                	.insn	2, 0x5cfd
	...
    1dd364b3e996:	0000                	.insn	2, 0x0000
    1dd364b3e998:	bab568c7          	fmsub.d	f17,f10,f11,f23,unknown
    1dd364b3e99c:	00003cd7          	vadd.vi	v25,v0,0,v0.t
	...
    1dd364b3edc0:	eae214cf          	fnmadd.d	f9,f4,f14,f29,rtz
	...
    1dd364b3ef58:	2e91a8c7          	.insn	4, 0x2e91a8c7
    1dd364b3ef5c:	0000                	.insn	2, 0x0000
	...

Disassembly of section .__pagetable_map_os_0x00000000b26ad000:

00000000b26ad000 <__pagetable_map_os_0x00000000b26ad000>:
    b26ad000:	042000cf          	fnmadd.h	f1,f0,f2,f0,rne
    b26ad004:	0000                	.insn	2, 0x0000
    b26ad006:	0000                	.insn	2, 0x0000
    b26ad008:	042004cf          	fnmadd.h	f9,f0,f2,f0,rne
    b26ad00c:	0000                	.insn	2, 0x0000
    b26ad00e:	0000                	.insn	2, 0x0000
    b26ad010:	042008cf          	fnmadd.h	f17,f0,f2,f0,rne
    b26ad014:	0000                	.insn	2, 0x0000
    b26ad016:	0000                	.insn	2, 0x0000
    b26ad018:	04200ccf          	fnmadd.h	f25,f0,f2,f0,rne
    b26ad01c:	0000                	.insn	2, 0x0000
    b26ad01e:	0000                	.insn	2, 0x0000
    b26ad020:	042010cf          	fnmadd.h	f1,f0,f2,f0,rtz
    b26ad024:	0000                	.insn	2, 0x0000
    b26ad026:	0000                	.insn	2, 0x0000
    b26ad028:	042014cf          	fnmadd.h	f9,f0,f2,f0,rtz
    b26ad02c:	0000                	.insn	2, 0x0000
    b26ad02e:	0000                	.insn	2, 0x0000
    b26ad030:	042018cf          	fnmadd.h	f17,f0,f2,f0,rtz
    b26ad034:	0000                	.insn	2, 0x0000
    b26ad036:	0000                	.insn	2, 0x0000
    b26ad038:	04201ccf          	fnmadd.h	f25,f0,f2,f0,rtz
    b26ad03c:	0000                	.insn	2, 0x0000
    b26ad03e:	0000                	.insn	2, 0x0000
    b26ad040:	042020cf          	fnmadd.h	f1,f0,f2,f0,rdn
    b26ad044:	0000                	.insn	2, 0x0000
    b26ad046:	0000                	.insn	2, 0x0000
    b26ad048:	042024cf          	fnmadd.h	f9,f0,f2,f0,rdn
    b26ad04c:	0000                	.insn	2, 0x0000
    b26ad04e:	0000                	.insn	2, 0x0000
    b26ad050:	042028cf          	fnmadd.h	f17,f0,f2,f0,rdn
    b26ad054:	0000                	.insn	2, 0x0000
    b26ad056:	0000                	.insn	2, 0x0000
    b26ad058:	04202ccf          	fnmadd.h	f25,f0,f2,f0,rdn
    b26ad05c:	0000                	.insn	2, 0x0000
    b26ad05e:	0000                	.insn	2, 0x0000
    b26ad060:	042030cf          	fnmadd.h	f1,f0,f2,f0,rup
    b26ad064:	0000                	.insn	2, 0x0000
    b26ad066:	0000                	.insn	2, 0x0000
    b26ad068:	042034cf          	fnmadd.h	f9,f0,f2,f0,rup
    b26ad06c:	0000                	.insn	2, 0x0000
    b26ad06e:	0000                	.insn	2, 0x0000
    b26ad070:	042038cf          	fnmadd.h	f17,f0,f2,f0,rup
    b26ad074:	0000                	.insn	2, 0x0000
    b26ad076:	0000                	.insn	2, 0x0000
    b26ad078:	04203ccf          	fnmadd.h	f25,f0,f2,f0,rup
    b26ad07c:	0000                	.insn	2, 0x0000
    b26ad07e:	0000                	.insn	2, 0x0000
    b26ad080:	042040cf          	fnmadd.h	f1,f0,f2,f0,rmm
    b26ad084:	0000                	.insn	2, 0x0000
    b26ad086:	0000                	.insn	2, 0x0000
    b26ad088:	042044cf          	fnmadd.h	f9,f0,f2,f0,rmm
    b26ad08c:	0000                	.insn	2, 0x0000
    b26ad08e:	0000                	.insn	2, 0x0000
    b26ad090:	042048cf          	fnmadd.h	f17,f0,f2,f0,rmm
    b26ad094:	0000                	.insn	2, 0x0000
    b26ad096:	0000                	.insn	2, 0x0000
    b26ad098:	04204ccf          	fnmadd.h	f25,f0,f2,f0,rmm
    b26ad09c:	0000                	.insn	2, 0x0000
    b26ad09e:	0000                	.insn	2, 0x0000
    b26ad0a0:	042050cf          	fnmadd.h	f1,f0,f2,f0,unknown
    b26ad0a4:	0000                	.insn	2, 0x0000
    b26ad0a6:	0000                	.insn	2, 0x0000
    b26ad0a8:	042054cf          	fnmadd.h	f9,f0,f2,f0,unknown
    b26ad0ac:	0000                	.insn	2, 0x0000
    b26ad0ae:	0000                	.insn	2, 0x0000
    b26ad0b0:	042058cf          	fnmadd.h	f17,f0,f2,f0,unknown
    b26ad0b4:	0000                	.insn	2, 0x0000
    b26ad0b6:	0000                	.insn	2, 0x0000
    b26ad0b8:	04205ccf          	fnmadd.h	f25,f0,f2,f0,unknown
    b26ad0bc:	0000                	.insn	2, 0x0000
    b26ad0be:	0000                	.insn	2, 0x0000
    b26ad0c0:	042060cf          	fnmadd.h	f1,f0,f2,f0,unknown
    b26ad0c4:	0000                	.insn	2, 0x0000
    b26ad0c6:	0000                	.insn	2, 0x0000
    b26ad0c8:	042064cf          	fnmadd.h	f9,f0,f2,f0,unknown
    b26ad0cc:	0000                	.insn	2, 0x0000
    b26ad0ce:	0000                	.insn	2, 0x0000
    b26ad0d0:	042068cf          	fnmadd.h	f17,f0,f2,f0,unknown
    b26ad0d4:	0000                	.insn	2, 0x0000
    b26ad0d6:	0000                	.insn	2, 0x0000
    b26ad0d8:	04206ccf          	fnmadd.h	f25,f0,f2,f0,unknown
    b26ad0dc:	0000                	.insn	2, 0x0000
    b26ad0de:	0000                	.insn	2, 0x0000
    b26ad0e0:	042070cf          	fnmadd.h	f1,f0,f2,f0
    b26ad0e4:	0000                	.insn	2, 0x0000
    b26ad0e6:	0000                	.insn	2, 0x0000
    b26ad0e8:	042074cf          	fnmadd.h	f9,f0,f2,f0
    b26ad0ec:	0000                	.insn	2, 0x0000
    b26ad0ee:	0000                	.insn	2, 0x0000
    b26ad0f0:	042078cf          	fnmadd.h	f17,f0,f2,f0
    b26ad0f4:	0000                	.insn	2, 0x0000
    b26ad0f6:	0000                	.insn	2, 0x0000
    b26ad0f8:	04207ccf          	fnmadd.h	f25,f0,f2,f0
    b26ad0fc:	0000                	.insn	2, 0x0000
    b26ad0fe:	0000                	.insn	2, 0x0000
    b26ad100:	042080cf          	fnmadd.h	f1,f1,f2,f0,rne
    b26ad104:	0000                	.insn	2, 0x0000
    b26ad106:	0000                	.insn	2, 0x0000
    b26ad108:	042084cf          	fnmadd.h	f9,f1,f2,f0,rne
    b26ad10c:	0000                	.insn	2, 0x0000
    b26ad10e:	0000                	.insn	2, 0x0000
    b26ad110:	042088cf          	fnmadd.h	f17,f1,f2,f0,rne
    b26ad114:	0000                	.insn	2, 0x0000
    b26ad116:	0000                	.insn	2, 0x0000
    b26ad118:	04208ccf          	fnmadd.h	f25,f1,f2,f0,rne
    b26ad11c:	0000                	.insn	2, 0x0000
    b26ad11e:	0000                	.insn	2, 0x0000
    b26ad120:	042090cf          	fnmadd.h	f1,f1,f2,f0,rtz
    b26ad124:	0000                	.insn	2, 0x0000
    b26ad126:	0000                	.insn	2, 0x0000
    b26ad128:	042094cf          	fnmadd.h	f9,f1,f2,f0,rtz
    b26ad12c:	0000                	.insn	2, 0x0000
    b26ad12e:	0000                	.insn	2, 0x0000
    b26ad130:	042098cf          	fnmadd.h	f17,f1,f2,f0,rtz
    b26ad134:	0000                	.insn	2, 0x0000
    b26ad136:	0000                	.insn	2, 0x0000
    b26ad138:	04209ccf          	fnmadd.h	f25,f1,f2,f0,rtz
    b26ad13c:	0000                	.insn	2, 0x0000
    b26ad13e:	0000                	.insn	2, 0x0000
    b26ad140:	0420a0cf          	fnmadd.h	f1,f1,f2,f0,rdn
    b26ad144:	0000                	.insn	2, 0x0000
    b26ad146:	0000                	.insn	2, 0x0000
    b26ad148:	0420a4cf          	fnmadd.h	f9,f1,f2,f0,rdn
    b26ad14c:	0000                	.insn	2, 0x0000
    b26ad14e:	0000                	.insn	2, 0x0000
    b26ad150:	0420a8cf          	fnmadd.h	f17,f1,f2,f0,rdn
    b26ad154:	0000                	.insn	2, 0x0000
    b26ad156:	0000                	.insn	2, 0x0000
    b26ad158:	0420accf          	fnmadd.h	f25,f1,f2,f0,rdn
    b26ad15c:	0000                	.insn	2, 0x0000
    b26ad15e:	0000                	.insn	2, 0x0000
    b26ad160:	0420b0cf          	fnmadd.h	f1,f1,f2,f0,rup
    b26ad164:	0000                	.insn	2, 0x0000
    b26ad166:	0000                	.insn	2, 0x0000
    b26ad168:	0420b4cf          	fnmadd.h	f9,f1,f2,f0,rup
    b26ad16c:	0000                	.insn	2, 0x0000
    b26ad16e:	0000                	.insn	2, 0x0000
    b26ad170:	0420b8cf          	fnmadd.h	f17,f1,f2,f0,rup
    b26ad174:	0000                	.insn	2, 0x0000
    b26ad176:	0000                	.insn	2, 0x0000
    b26ad178:	0420bccf          	fnmadd.h	f25,f1,f2,f0,rup
    b26ad17c:	0000                	.insn	2, 0x0000
    b26ad17e:	0000                	.insn	2, 0x0000
    b26ad180:	0420c0cf          	fnmadd.h	f1,f1,f2,f0,rmm
    b26ad184:	0000                	.insn	2, 0x0000
    b26ad186:	0000                	.insn	2, 0x0000
    b26ad188:	0420c4cf          	fnmadd.h	f9,f1,f2,f0,rmm
    b26ad18c:	0000                	.insn	2, 0x0000
    b26ad18e:	0000                	.insn	2, 0x0000
    b26ad190:	0420c8cf          	fnmadd.h	f17,f1,f2,f0,rmm
    b26ad194:	0000                	.insn	2, 0x0000
    b26ad196:	0000                	.insn	2, 0x0000
    b26ad198:	0420cccf          	fnmadd.h	f25,f1,f2,f0,rmm
    b26ad19c:	0000                	.insn	2, 0x0000
    b26ad19e:	0000                	.insn	2, 0x0000
    b26ad1a0:	0420d0cf          	fnmadd.h	f1,f1,f2,f0,unknown
    b26ad1a4:	0000                	.insn	2, 0x0000
    b26ad1a6:	0000                	.insn	2, 0x0000
    b26ad1a8:	0420d4cf          	fnmadd.h	f9,f1,f2,f0,unknown
    b26ad1ac:	0000                	.insn	2, 0x0000
    b26ad1ae:	0000                	.insn	2, 0x0000
    b26ad1b0:	0420d8cf          	fnmadd.h	f17,f1,f2,f0,unknown
    b26ad1b4:	0000                	.insn	2, 0x0000
    b26ad1b6:	0000                	.insn	2, 0x0000
    b26ad1b8:	0420dccf          	fnmadd.h	f25,f1,f2,f0,unknown
    b26ad1bc:	0000                	.insn	2, 0x0000
    b26ad1be:	0000                	.insn	2, 0x0000
    b26ad1c0:	0420e0cf          	fnmadd.h	f1,f1,f2,f0,unknown
    b26ad1c4:	0000                	.insn	2, 0x0000
    b26ad1c6:	0000                	.insn	2, 0x0000
    b26ad1c8:	0420e4cf          	fnmadd.h	f9,f1,f2,f0,unknown
    b26ad1cc:	0000                	.insn	2, 0x0000
    b26ad1ce:	0000                	.insn	2, 0x0000
    b26ad1d0:	0420e8cf          	fnmadd.h	f17,f1,f2,f0,unknown
    b26ad1d4:	0000                	.insn	2, 0x0000
    b26ad1d6:	0000                	.insn	2, 0x0000
    b26ad1d8:	0420eccf          	fnmadd.h	f25,f1,f2,f0,unknown
    b26ad1dc:	0000                	.insn	2, 0x0000
    b26ad1de:	0000                	.insn	2, 0x0000
    b26ad1e0:	0420f0cf          	fnmadd.h	f1,f1,f2,f0
    b26ad1e4:	0000                	.insn	2, 0x0000
    b26ad1e6:	0000                	.insn	2, 0x0000
    b26ad1e8:	0420f4cf          	fnmadd.h	f9,f1,f2,f0
    b26ad1ec:	0000                	.insn	2, 0x0000
    b26ad1ee:	0000                	.insn	2, 0x0000
    b26ad1f0:	0420f8cf          	fnmadd.h	f17,f1,f2,f0
    b26ad1f4:	0000                	.insn	2, 0x0000
    b26ad1f6:	0000                	.insn	2, 0x0000
    b26ad1f8:	0420fccf          	fnmadd.h	f25,f1,f2,f0
    b26ad1fc:	0000                	.insn	2, 0x0000
    b26ad1fe:	0000                	.insn	2, 0x0000
    b26ad200:	042100cf          	fnmadd.h	f1,f2,f2,f0,rne
    b26ad204:	0000                	.insn	2, 0x0000
    b26ad206:	0000                	.insn	2, 0x0000
    b26ad208:	042104cf          	fnmadd.h	f9,f2,f2,f0,rne
    b26ad20c:	0000                	.insn	2, 0x0000
    b26ad20e:	0000                	.insn	2, 0x0000
    b26ad210:	042108cf          	fnmadd.h	f17,f2,f2,f0,rne
    b26ad214:	0000                	.insn	2, 0x0000
    b26ad216:	0000                	.insn	2, 0x0000
    b26ad218:	04210ccf          	fnmadd.h	f25,f2,f2,f0,rne
    b26ad21c:	0000                	.insn	2, 0x0000
    b26ad21e:	0000                	.insn	2, 0x0000
    b26ad220:	042110cf          	fnmadd.h	f1,f2,f2,f0,rtz
    b26ad224:	0000                	.insn	2, 0x0000
    b26ad226:	0000                	.insn	2, 0x0000
    b26ad228:	042114cf          	fnmadd.h	f9,f2,f2,f0,rtz
    b26ad22c:	0000                	.insn	2, 0x0000
    b26ad22e:	0000                	.insn	2, 0x0000
    b26ad230:	042118cf          	fnmadd.h	f17,f2,f2,f0,rtz
    b26ad234:	0000                	.insn	2, 0x0000
    b26ad236:	0000                	.insn	2, 0x0000
    b26ad238:	04211ccf          	fnmadd.h	f25,f2,f2,f0,rtz
    b26ad23c:	0000                	.insn	2, 0x0000
    b26ad23e:	0000                	.insn	2, 0x0000
    b26ad240:	042120cf          	fnmadd.h	f1,f2,f2,f0,rdn
    b26ad244:	0000                	.insn	2, 0x0000
    b26ad246:	0000                	.insn	2, 0x0000
    b26ad248:	042124cf          	fnmadd.h	f9,f2,f2,f0,rdn
    b26ad24c:	0000                	.insn	2, 0x0000
    b26ad24e:	0000                	.insn	2, 0x0000
    b26ad250:	042128cf          	fnmadd.h	f17,f2,f2,f0,rdn
    b26ad254:	0000                	.insn	2, 0x0000
    b26ad256:	0000                	.insn	2, 0x0000
    b26ad258:	04212ccf          	fnmadd.h	f25,f2,f2,f0,rdn
    b26ad25c:	0000                	.insn	2, 0x0000
    b26ad25e:	0000                	.insn	2, 0x0000
    b26ad260:	042130cf          	fnmadd.h	f1,f2,f2,f0,rup
    b26ad264:	0000                	.insn	2, 0x0000
    b26ad266:	0000                	.insn	2, 0x0000
    b26ad268:	042134cf          	fnmadd.h	f9,f2,f2,f0,rup
    b26ad26c:	0000                	.insn	2, 0x0000
    b26ad26e:	0000                	.insn	2, 0x0000
    b26ad270:	042138cf          	fnmadd.h	f17,f2,f2,f0,rup
    b26ad274:	0000                	.insn	2, 0x0000
    b26ad276:	0000                	.insn	2, 0x0000
    b26ad278:	04213ccf          	fnmadd.h	f25,f2,f2,f0,rup
    b26ad27c:	0000                	.insn	2, 0x0000
    b26ad27e:	0000                	.insn	2, 0x0000
    b26ad280:	042140cf          	fnmadd.h	f1,f2,f2,f0,rmm
    b26ad284:	0000                	.insn	2, 0x0000
    b26ad286:	0000                	.insn	2, 0x0000
    b26ad288:	042144cf          	fnmadd.h	f9,f2,f2,f0,rmm
    b26ad28c:	0000                	.insn	2, 0x0000
    b26ad28e:	0000                	.insn	2, 0x0000
    b26ad290:	042148cf          	fnmadd.h	f17,f2,f2,f0,rmm
    b26ad294:	0000                	.insn	2, 0x0000
    b26ad296:	0000                	.insn	2, 0x0000
    b26ad298:	04214ccf          	fnmadd.h	f25,f2,f2,f0,rmm
    b26ad29c:	0000                	.insn	2, 0x0000
    b26ad29e:	0000                	.insn	2, 0x0000
    b26ad2a0:	042150cf          	fnmadd.h	f1,f2,f2,f0,unknown
    b26ad2a4:	0000                	.insn	2, 0x0000
    b26ad2a6:	0000                	.insn	2, 0x0000
    b26ad2a8:	042154cf          	fnmadd.h	f9,f2,f2,f0,unknown
    b26ad2ac:	0000                	.insn	2, 0x0000
    b26ad2ae:	0000                	.insn	2, 0x0000
    b26ad2b0:	042158cf          	fnmadd.h	f17,f2,f2,f0,unknown
    b26ad2b4:	0000                	.insn	2, 0x0000
    b26ad2b6:	0000                	.insn	2, 0x0000
    b26ad2b8:	04215ccf          	fnmadd.h	f25,f2,f2,f0,unknown
    b26ad2bc:	0000                	.insn	2, 0x0000
    b26ad2be:	0000                	.insn	2, 0x0000
    b26ad2c0:	042160cf          	fnmadd.h	f1,f2,f2,f0,unknown
    b26ad2c4:	0000                	.insn	2, 0x0000
    b26ad2c6:	0000                	.insn	2, 0x0000
    b26ad2c8:	042164cf          	fnmadd.h	f9,f2,f2,f0,unknown
    b26ad2cc:	0000                	.insn	2, 0x0000
    b26ad2ce:	0000                	.insn	2, 0x0000
    b26ad2d0:	042168cf          	fnmadd.h	f17,f2,f2,f0,unknown
    b26ad2d4:	0000                	.insn	2, 0x0000
    b26ad2d6:	0000                	.insn	2, 0x0000
    b26ad2d8:	04216ccf          	fnmadd.h	f25,f2,f2,f0,unknown
    b26ad2dc:	0000                	.insn	2, 0x0000
    b26ad2de:	0000                	.insn	2, 0x0000
    b26ad2e0:	042170cf          	fnmadd.h	f1,f2,f2,f0
    b26ad2e4:	0000                	.insn	2, 0x0000
    b26ad2e6:	0000                	.insn	2, 0x0000
    b26ad2e8:	042174cf          	fnmadd.h	f9,f2,f2,f0
    b26ad2ec:	0000                	.insn	2, 0x0000
    b26ad2ee:	0000                	.insn	2, 0x0000
    b26ad2f0:	042178cf          	fnmadd.h	f17,f2,f2,f0
    b26ad2f4:	0000                	.insn	2, 0x0000
    b26ad2f6:	0000                	.insn	2, 0x0000
    b26ad2f8:	04217ccf          	fnmadd.h	f25,f2,f2,f0
    b26ad2fc:	0000                	.insn	2, 0x0000
    b26ad2fe:	0000                	.insn	2, 0x0000
    b26ad300:	042180cf          	fnmadd.h	f1,f3,f2,f0,rne
    b26ad304:	0000                	.insn	2, 0x0000
    b26ad306:	0000                	.insn	2, 0x0000
    b26ad308:	042184cf          	fnmadd.h	f9,f3,f2,f0,rne
    b26ad30c:	0000                	.insn	2, 0x0000
    b26ad30e:	0000                	.insn	2, 0x0000
    b26ad310:	042188cf          	fnmadd.h	f17,f3,f2,f0,rne
    b26ad314:	0000                	.insn	2, 0x0000
    b26ad316:	0000                	.insn	2, 0x0000
    b26ad318:	04218ccf          	fnmadd.h	f25,f3,f2,f0,rne
    b26ad31c:	0000                	.insn	2, 0x0000
    b26ad31e:	0000                	.insn	2, 0x0000
    b26ad320:	042190cf          	fnmadd.h	f1,f3,f2,f0,rtz
    b26ad324:	0000                	.insn	2, 0x0000
    b26ad326:	0000                	.insn	2, 0x0000
    b26ad328:	042194cf          	fnmadd.h	f9,f3,f2,f0,rtz
    b26ad32c:	0000                	.insn	2, 0x0000
    b26ad32e:	0000                	.insn	2, 0x0000
    b26ad330:	042198cf          	fnmadd.h	f17,f3,f2,f0,rtz
    b26ad334:	0000                	.insn	2, 0x0000
    b26ad336:	0000                	.insn	2, 0x0000
    b26ad338:	04219ccf          	fnmadd.h	f25,f3,f2,f0,rtz
    b26ad33c:	0000                	.insn	2, 0x0000
    b26ad33e:	0000                	.insn	2, 0x0000
    b26ad340:	0421a0cf          	fnmadd.h	f1,f3,f2,f0,rdn
    b26ad344:	0000                	.insn	2, 0x0000
    b26ad346:	0000                	.insn	2, 0x0000
    b26ad348:	0421a4cf          	fnmadd.h	f9,f3,f2,f0,rdn
    b26ad34c:	0000                	.insn	2, 0x0000
    b26ad34e:	0000                	.insn	2, 0x0000
    b26ad350:	0421a8cf          	fnmadd.h	f17,f3,f2,f0,rdn
    b26ad354:	0000                	.insn	2, 0x0000
    b26ad356:	0000                	.insn	2, 0x0000
    b26ad358:	0421accf          	fnmadd.h	f25,f3,f2,f0,rdn
    b26ad35c:	0000                	.insn	2, 0x0000
    b26ad35e:	0000                	.insn	2, 0x0000
    b26ad360:	0421b0cf          	fnmadd.h	f1,f3,f2,f0,rup
    b26ad364:	0000                	.insn	2, 0x0000
    b26ad366:	0000                	.insn	2, 0x0000
    b26ad368:	0421b4cf          	fnmadd.h	f9,f3,f2,f0,rup
    b26ad36c:	0000                	.insn	2, 0x0000
    b26ad36e:	0000                	.insn	2, 0x0000
    b26ad370:	0421b8cf          	fnmadd.h	f17,f3,f2,f0,rup
    b26ad374:	0000                	.insn	2, 0x0000
    b26ad376:	0000                	.insn	2, 0x0000
    b26ad378:	0421bccf          	fnmadd.h	f25,f3,f2,f0,rup
    b26ad37c:	0000                	.insn	2, 0x0000
    b26ad37e:	0000                	.insn	2, 0x0000
    b26ad380:	0421c0cf          	fnmadd.h	f1,f3,f2,f0,rmm
    b26ad384:	0000                	.insn	2, 0x0000
    b26ad386:	0000                	.insn	2, 0x0000
    b26ad388:	0421c4cf          	fnmadd.h	f9,f3,f2,f0,rmm
    b26ad38c:	0000                	.insn	2, 0x0000
    b26ad38e:	0000                	.insn	2, 0x0000
    b26ad390:	0421c8cf          	fnmadd.h	f17,f3,f2,f0,rmm
    b26ad394:	0000                	.insn	2, 0x0000
    b26ad396:	0000                	.insn	2, 0x0000
    b26ad398:	0421cccf          	fnmadd.h	f25,f3,f2,f0,rmm
    b26ad39c:	0000                	.insn	2, 0x0000
    b26ad39e:	0000                	.insn	2, 0x0000
    b26ad3a0:	0421d0cf          	fnmadd.h	f1,f3,f2,f0,unknown
    b26ad3a4:	0000                	.insn	2, 0x0000
    b26ad3a6:	0000                	.insn	2, 0x0000
    b26ad3a8:	0421d4cf          	fnmadd.h	f9,f3,f2,f0,unknown
    b26ad3ac:	0000                	.insn	2, 0x0000
    b26ad3ae:	0000                	.insn	2, 0x0000
    b26ad3b0:	0421d8cf          	fnmadd.h	f17,f3,f2,f0,unknown
    b26ad3b4:	0000                	.insn	2, 0x0000
    b26ad3b6:	0000                	.insn	2, 0x0000
    b26ad3b8:	0421dccf          	fnmadd.h	f25,f3,f2,f0,unknown
    b26ad3bc:	0000                	.insn	2, 0x0000
    b26ad3be:	0000                	.insn	2, 0x0000
    b26ad3c0:	0421e0cf          	fnmadd.h	f1,f3,f2,f0,unknown
    b26ad3c4:	0000                	.insn	2, 0x0000
    b26ad3c6:	0000                	.insn	2, 0x0000
    b26ad3c8:	0421e4cf          	fnmadd.h	f9,f3,f2,f0,unknown
    b26ad3cc:	0000                	.insn	2, 0x0000
    b26ad3ce:	0000                	.insn	2, 0x0000
    b26ad3d0:	0421e8cf          	fnmadd.h	f17,f3,f2,f0,unknown
    b26ad3d4:	0000                	.insn	2, 0x0000
    b26ad3d6:	0000                	.insn	2, 0x0000
    b26ad3d8:	0421eccf          	fnmadd.h	f25,f3,f2,f0,unknown
    b26ad3dc:	0000                	.insn	2, 0x0000
    b26ad3de:	0000                	.insn	2, 0x0000
    b26ad3e0:	0421f0cf          	fnmadd.h	f1,f3,f2,f0
    b26ad3e4:	0000                	.insn	2, 0x0000
    b26ad3e6:	0000                	.insn	2, 0x0000
    b26ad3e8:	0421f4cf          	fnmadd.h	f9,f3,f2,f0
    b26ad3ec:	0000                	.insn	2, 0x0000
    b26ad3ee:	0000                	.insn	2, 0x0000
    b26ad3f0:	0421f8cf          	fnmadd.h	f17,f3,f2,f0
    b26ad3f4:	0000                	.insn	2, 0x0000
    b26ad3f6:	0000                	.insn	2, 0x0000
    b26ad3f8:	0421fccf          	fnmadd.h	f25,f3,f2,f0
    b26ad3fc:	0000                	.insn	2, 0x0000
    b26ad3fe:	0000                	.insn	2, 0x0000
    b26ad400:	042200cf          	fnmadd.h	f1,f4,f2,f0,rne
    b26ad404:	0000                	.insn	2, 0x0000
    b26ad406:	0000                	.insn	2, 0x0000
    b26ad408:	042204cf          	fnmadd.h	f9,f4,f2,f0,rne
    b26ad40c:	0000                	.insn	2, 0x0000
    b26ad40e:	0000                	.insn	2, 0x0000
    b26ad410:	042208cf          	fnmadd.h	f17,f4,f2,f0,rne
    b26ad414:	0000                	.insn	2, 0x0000
    b26ad416:	0000                	.insn	2, 0x0000
    b26ad418:	04220ccf          	fnmadd.h	f25,f4,f2,f0,rne
    b26ad41c:	0000                	.insn	2, 0x0000
    b26ad41e:	0000                	.insn	2, 0x0000
    b26ad420:	042210cf          	fnmadd.h	f1,f4,f2,f0,rtz
    b26ad424:	0000                	.insn	2, 0x0000
    b26ad426:	0000                	.insn	2, 0x0000
    b26ad428:	042214cf          	fnmadd.h	f9,f4,f2,f0,rtz
    b26ad42c:	0000                	.insn	2, 0x0000
    b26ad42e:	0000                	.insn	2, 0x0000
    b26ad430:	042218cf          	fnmadd.h	f17,f4,f2,f0,rtz
    b26ad434:	0000                	.insn	2, 0x0000
    b26ad436:	0000                	.insn	2, 0x0000
    b26ad438:	04221ccf          	fnmadd.h	f25,f4,f2,f0,rtz
    b26ad43c:	0000                	.insn	2, 0x0000
    b26ad43e:	0000                	.insn	2, 0x0000
    b26ad440:	042220cf          	fnmadd.h	f1,f4,f2,f0,rdn
    b26ad444:	0000                	.insn	2, 0x0000
    b26ad446:	0000                	.insn	2, 0x0000
    b26ad448:	042224cf          	fnmadd.h	f9,f4,f2,f0,rdn
    b26ad44c:	0000                	.insn	2, 0x0000
    b26ad44e:	0000                	.insn	2, 0x0000
    b26ad450:	042228cf          	fnmadd.h	f17,f4,f2,f0,rdn
    b26ad454:	0000                	.insn	2, 0x0000
    b26ad456:	0000                	.insn	2, 0x0000
    b26ad458:	04222ccf          	fnmadd.h	f25,f4,f2,f0,rdn
    b26ad45c:	0000                	.insn	2, 0x0000
    b26ad45e:	0000                	.insn	2, 0x0000
    b26ad460:	042230cf          	fnmadd.h	f1,f4,f2,f0,rup
    b26ad464:	0000                	.insn	2, 0x0000
    b26ad466:	0000                	.insn	2, 0x0000
    b26ad468:	042234cf          	fnmadd.h	f9,f4,f2,f0,rup
    b26ad46c:	0000                	.insn	2, 0x0000
    b26ad46e:	0000                	.insn	2, 0x0000
    b26ad470:	042238cf          	fnmadd.h	f17,f4,f2,f0,rup
    b26ad474:	0000                	.insn	2, 0x0000
    b26ad476:	0000                	.insn	2, 0x0000
    b26ad478:	04223ccf          	fnmadd.h	f25,f4,f2,f0,rup
    b26ad47c:	0000                	.insn	2, 0x0000
    b26ad47e:	0000                	.insn	2, 0x0000
    b26ad480:	042240cf          	fnmadd.h	f1,f4,f2,f0,rmm
    b26ad484:	0000                	.insn	2, 0x0000
    b26ad486:	0000                	.insn	2, 0x0000
    b26ad488:	042244cf          	fnmadd.h	f9,f4,f2,f0,rmm
    b26ad48c:	0000                	.insn	2, 0x0000
    b26ad48e:	0000                	.insn	2, 0x0000
    b26ad490:	042248cf          	fnmadd.h	f17,f4,f2,f0,rmm
    b26ad494:	0000                	.insn	2, 0x0000
    b26ad496:	0000                	.insn	2, 0x0000
    b26ad498:	04224ccf          	fnmadd.h	f25,f4,f2,f0,rmm
    b26ad49c:	0000                	.insn	2, 0x0000
    b26ad49e:	0000                	.insn	2, 0x0000
    b26ad4a0:	042250cf          	fnmadd.h	f1,f4,f2,f0,unknown
    b26ad4a4:	0000                	.insn	2, 0x0000
    b26ad4a6:	0000                	.insn	2, 0x0000
    b26ad4a8:	042254cf          	fnmadd.h	f9,f4,f2,f0,unknown
    b26ad4ac:	0000                	.insn	2, 0x0000
    b26ad4ae:	0000                	.insn	2, 0x0000
    b26ad4b0:	042258cf          	fnmadd.h	f17,f4,f2,f0,unknown
    b26ad4b4:	0000                	.insn	2, 0x0000
    b26ad4b6:	0000                	.insn	2, 0x0000
    b26ad4b8:	04225ccf          	fnmadd.h	f25,f4,f2,f0,unknown
    b26ad4bc:	0000                	.insn	2, 0x0000
    b26ad4be:	0000                	.insn	2, 0x0000
    b26ad4c0:	042260cf          	fnmadd.h	f1,f4,f2,f0,unknown
    b26ad4c4:	0000                	.insn	2, 0x0000
    b26ad4c6:	0000                	.insn	2, 0x0000
    b26ad4c8:	042264cf          	fnmadd.h	f9,f4,f2,f0,unknown
    b26ad4cc:	0000                	.insn	2, 0x0000
    b26ad4ce:	0000                	.insn	2, 0x0000
    b26ad4d0:	042268cf          	fnmadd.h	f17,f4,f2,f0,unknown
    b26ad4d4:	0000                	.insn	2, 0x0000
    b26ad4d6:	0000                	.insn	2, 0x0000
    b26ad4d8:	04226ccf          	fnmadd.h	f25,f4,f2,f0,unknown
    b26ad4dc:	0000                	.insn	2, 0x0000
    b26ad4de:	0000                	.insn	2, 0x0000
    b26ad4e0:	042270cf          	fnmadd.h	f1,f4,f2,f0
    b26ad4e4:	0000                	.insn	2, 0x0000
    b26ad4e6:	0000                	.insn	2, 0x0000
    b26ad4e8:	042274cf          	fnmadd.h	f9,f4,f2,f0
    b26ad4ec:	0000                	.insn	2, 0x0000
    b26ad4ee:	0000                	.insn	2, 0x0000
    b26ad4f0:	042278cf          	fnmadd.h	f17,f4,f2,f0
    b26ad4f4:	0000                	.insn	2, 0x0000
    b26ad4f6:	0000                	.insn	2, 0x0000
    b26ad4f8:	04227ccf          	fnmadd.h	f25,f4,f2,f0
    b26ad4fc:	0000                	.insn	2, 0x0000
    b26ad4fe:	0000                	.insn	2, 0x0000
    b26ad500:	042280cf          	fnmadd.h	f1,f5,f2,f0,rne
    b26ad504:	0000                	.insn	2, 0x0000
    b26ad506:	0000                	.insn	2, 0x0000
    b26ad508:	042284cf          	fnmadd.h	f9,f5,f2,f0,rne
    b26ad50c:	0000                	.insn	2, 0x0000
    b26ad50e:	0000                	.insn	2, 0x0000
    b26ad510:	042288cf          	fnmadd.h	f17,f5,f2,f0,rne
