
/home/abdullah/RiescueC/riescue/10x_R/zkt/testsuite/zkt/machine/tp_zkt_1:     file format elf64-littleriscv


Disassembly of section .runtime:

0000000041000000 <_start>:
    41000000:	00000093          	li	x1,0
    41000004:	00000113          	li	x2,0
    41000008:	00000193          	li	x3,0
    4100000c:	00000213          	li	x4,0
    41000010:	00000293          	li	x5,0
    41000014:	00000313          	li	x6,0
    41000018:	00000393          	li	x7,0
    4100001c:	00000413          	li	x8,0
    41000020:	00000493          	li	x9,0
    41000024:	00000513          	li	x10,0
    41000028:	00000593          	li	x11,0
    4100002c:	00000613          	li	x12,0
    41000030:	00000693          	li	x13,0
    41000034:	00000713          	li	x14,0
    41000038:	00000793          	li	x15,0
    4100003c:	00000813          	li	x16,0
    41000040:	00000893          	li	x17,0
    41000044:	00000913          	li	x18,0
    41000048:	00000993          	li	x19,0
    4100004c:	00000a13          	li	x20,0
    41000050:	00000a93          	li	x21,0
    41000054:	00000b13          	li	x22,0
    41000058:	00000b93          	li	x23,0
    4100005c:	00000c13          	li	x24,0
    41000060:	00000c93          	li	x25,0
    41000064:	00000d13          	li	x26,0
    41000068:	00000d93          	li	x27,0
    4100006c:	00000e13          	li	x28,0
    41000070:	00000e93          	li	x29,0
    41000074:	00000f13          	li	x30,0
    41000078:	00000f93          	li	x31,0

000000004100007c <loader__load_panic_address>:
    4100007c:	00001297          	auipc	x5,0x1
    41000080:	96028293          	addi	x5,x5,-1696 # 410009dc <eot__failed>
    41000084:	30529073          	csrw	mtvec,x5

0000000041000088 <loader__initialize_runtime>:
    41000088:	00000293          	li	x5,0
    4100008c:	3012a2f3          	csrrs	x5,misa,x5

0000000041000090 <loader__set_mstatus>:
    41000090:	000402b7          	lui	x5,0x40
    41000094:	00a2829b          	addiw	x5,x5,10 # 4000a <pma_region_0_size+0xa>
    41000098:	3002a2f3          	csrrs	x5,mstatus,x5
    4100009c:	4186e237          	lui	x4,0x4186e
    410000a0:	34021073          	csrw	mscratch,x4

00000000410000a4 <loader__setup_tvec>:
    410000a4:	00000297          	auipc	x5,0x0
    410000a8:	42028293          	addi	x5,x5,1056 # 410004c4 <trap_handler_m__trap_entry>
    410000ac:	30529073          	csrw	mtvec,x5

00000000410000b0 <loader__done>:
    410000b0:	1550006f          	j	41000a04 <scheduler__init>

00000000410000b4 <loader__panic>:
    410000b4:	1290006f          	j	410009dc <eot__failed>

00000000410000b8 <syscalls__syscall_check_schedule_next_test>:
    410000b8:	00f0029b          	addiw	x5,x0,15
    410000bc:	01c29293          	slli	x5,x5,0x1c
    410000c0:	00128293          	addi	x5,x5,1
    410000c4:	01f29a63          	bne	x5,x31,410000d8 <syscalls__syscall_check_fail_test>
    410000c8:	00000317          	auipc	x6,0x0
    410000cc:	3fc30313          	addi	x6,x6,1020 # 410004c4 <trap_handler_m__trap_entry>
    410000d0:	30531073          	csrw	mtvec,x6
    410000d4:	6340006f          	j	41000708 <enter_scheduler>

00000000410000d8 <syscalls__syscall_check_fail_test>:
    410000d8:	00f0029b          	addiw	x5,x0,15
    410000dc:	01c29293          	slli	x5,x5,0x1c
    410000e0:	00228293          	addi	x5,x5,2
    410000e4:	01f29a63          	bne	x5,x31,410000f8 <syscalls__syscall_check_end_test_without_failure>
    410000e8:	00000317          	auipc	x6,0x0
    410000ec:	3dc30313          	addi	x6,x6,988 # 410004c4 <trap_handler_m__trap_entry>
    410000f0:	30531073          	csrw	mtvec,x6
    410000f4:	6440006f          	j	41000738 <test_failed>

00000000410000f8 <syscalls__syscall_check_end_test_without_failure>:
    410000f8:	00f0029b          	addiw	x5,x0,15
    410000fc:	01c29293          	slli	x5,x5,0x1c
    41000100:	00328293          	addi	x5,x5,3
    41000104:	01f29a63          	bne	x5,x31,41000118 <syscalls__syscall_check_switch_machine_mode>
    41000108:	00000317          	auipc	x6,0x0
    4100010c:	3bc30313          	addi	x6,x6,956 # 410004c4 <trap_handler_m__trap_entry>
    41000110:	30531073          	csrw	mtvec,x6
    41000114:	6300006f          	j	41000744 <os_end_test>

0000000041000118 <syscalls__syscall_check_switch_machine_mode>:
    41000118:	000f02b7          	lui	x5,0xf0
    4100011c:	0012829b          	addiw	x5,x5,1 # f0001 <pma_region_0_size+0xb0001>
    41000120:	00c29293          	slli	x5,x5,0xc
    41000124:	00128293          	addi	x5,x5,1
    41000128:	0a5f8463          	beq	x31,x5,410001d0 <syscalls__os_fn_f0001001>

000000004100012c <syscalls__syscall_check_switch_super_mode>:
    4100012c:	000f02b7          	lui	x5,0xf0
    41000130:	0012829b          	addiw	x5,x5,1 # f0001 <pma_region_0_size+0xb0001>
    41000134:	00c29293          	slli	x5,x5,0xc
    41000138:	00228293          	addi	x5,x5,2
    4100013c:	085f8e63          	beq	x31,x5,410001d8 <syscalls__os_fn_f0001002>

0000000041000140 <syscalls__syscall_check_switch_user_mode>:
    41000140:	000f02b7          	lui	x5,0xf0
    41000144:	0012829b          	addiw	x5,x5,1 # f0001 <pma_region_0_size+0xb0001>
    41000148:	00c29293          	slli	x5,x5,0xc
    4100014c:	00328293          	addi	x5,x5,3
    41000150:	0a5f8c63          	beq	x31,x5,41000208 <syscalls__os_fn_f0001003>

0000000041000154 <syscalls__syscall_check_switch_test_mode>:
    41000154:	000f02b7          	lui	x5,0xf0
    41000158:	0012829b          	addiw	x5,x5,1 # f0001 <pma_region_0_size+0xb0001>
    4100015c:	00c29293          	slli	x5,x5,0xc
    41000160:	00428293          	addi	x5,x5,4
    41000164:	0c5f8663          	beq	x31,x5,41000230 <syscalls__os_fn_f0001004>

0000000041000168 <syscalls__syscall_machine_csr_rw>:
    41000168:	000f02b7          	lui	x5,0xf0
    4100016c:	0012829b          	addiw	x5,x5,1 # f0001 <pma_region_0_size+0xb0001>
    41000170:	00c29293          	slli	x5,x5,0xc
    41000174:	00528293          	addi	x5,x5,5
    41000178:	0e5f8263          	beq	x31,x5,4100025c <syscalls__os_fn_f0001005>

000000004100017c <syscalls__syscall_supervisor_csr_rw>:
    4100017c:	000f02b7          	lui	x5,0xf0
    41000180:	0012829b          	addiw	x5,x5,1 # f0001 <pma_region_0_size+0xb0001>
    41000184:	00c29293          	slli	x5,x5,0xc
    41000188:	00628293          	addi	x5,x5,6
    4100018c:	0c5f8c63          	beq	x31,x5,41000264 <syscalls__os_fn_f0001006>

0000000041000190 <syscalls__syscall_machine_pte_read>:
    41000190:	000f02b7          	lui	x5,0xf0
    41000194:	0012829b          	addiw	x5,x5,1 # f0001 <pma_region_0_size+0xb0001>
    41000198:	00c29293          	slli	x5,x5,0xc
    4100019c:	00728293          	addi	x5,x5,7
    410001a0:	0e5f8a63          	beq	x31,x5,41000294 <syscalls__os_fn_f0001007>

00000000410001a4 <syscalls__syscall_machine_pte_write>:
    410001a4:	000f02b7          	lui	x5,0xf0
    410001a8:	0012829b          	addiw	x5,x5,1 # f0001 <pma_region_0_size+0xb0001>
    410001ac:	00c29293          	slli	x5,x5,0xc
    410001b0:	00828293          	addi	x5,x5,8
    410001b4:	1a5f8463          	beq	x31,x5,4100035c <syscalls__os_fn_f0001008>

00000000410001b8 <syscalls__syscall_check_get_hart_context>:
    410001b8:	000782b7          	lui	x5,0x78
    410001bc:	0012829b          	addiw	x5,x5,1 # 78001 <pma_region_0_size+0x38001>
    410001c0:	00d29293          	slli	x5,x5,0xd
    410001c4:	00128293          	addi	x5,x5,1
    410001c8:	245f8e63          	beq	x31,x5,41000424 <syscalls__os_get_hart_context>
    410001cc:	4540006f          	j	41000620 <trap_handler_m__check_exception_label>

00000000410001d0 <syscalls__os_fn_f0001001>:
    410001d0:	411942b7          	lui	x5,0x41194
    410001d4:	2600006f          	j	41000434 <syscalls__ret_from_os_fn>

00000000410001d8 <syscalls__os_fn_f0001002>:
    410001d8:	000022b7          	lui	x5,0x2
    410001dc:	8002829b          	addiw	x5,x5,-2048 # 1800 <pma_region_1_size+0x800>
    410001e0:	3002b073          	csrc	mstatus,x5
    410001e4:	000012b7          	lui	x5,0x1
    410001e8:	8002829b          	addiw	x5,x5,-2048 # 800 <XLEN+0x7c0>
    410001ec:	3002a073          	csrs	mstatus,x5
    410001f0:	0010029b          	addiw	x5,x0,1
    410001f4:	02729293          	slli	x5,x5,0x27
    410001f8:	3002b073          	csrc	mstatus,x5
    410001fc:	12000073          	sfence.vma
    41000200:	410942b7          	lui	x5,0x41094
    41000204:	2300006f          	j	41000434 <syscalls__ret_from_os_fn>

0000000041000208 <syscalls__os_fn_f0001003>:
    41000208:	000022b7          	lui	x5,0x2
    4100020c:	8002829b          	addiw	x5,x5,-2048 # 1800 <pma_region_1_size+0x800>
    41000210:	3002b073          	csrc	mstatus,x5
    41000214:	00000293          	li	x5,0
    41000218:	3002a073          	csrs	mstatus,x5
    4100021c:	0010029b          	addiw	x5,x0,1
    41000220:	02729293          	slli	x5,x5,0x27
    41000224:	3002b073          	csrc	mstatus,x5
    41000228:	411142b7          	lui	x5,0x41114
    4100022c:	2080006f          	j	41000434 <syscalls__ret_from_os_fn>

0000000041000230 <syscalls__os_fn_f0001004>:
    41000230:	000022b7          	lui	x5,0x2
    41000234:	8002829b          	addiw	x5,x5,-2048 # 1800 <pma_region_1_size+0x800>
    41000238:	3002b073          	csrc	mstatus,x5
    4100023c:	000022b7          	lui	x5,0x2
    41000240:	8002829b          	addiw	x5,x5,-2048 # 1800 <pma_region_1_size+0x800>
    41000244:	3002a073          	csrs	mstatus,x5
    41000248:	0010029b          	addiw	x5,x0,1
    4100024c:	02729293          	slli	x5,x5,0x27
    41000250:	3002b073          	csrc	mstatus,x5
    41000254:	17823283          	ld	x5,376(x4) # 4186e178 <os_save_ecall_fn_epc>
    41000258:	1dc0006f          	j	41000434 <syscalls__ret_from_os_fn>

000000004100025c <syscalls__os_fn_f0001005>:
    4100025c:	412142b7          	lui	x5,0x41214
    41000260:	1d40006f          	j	41000434 <syscalls__ret_from_os_fn>

0000000041000264 <syscalls__os_fn_f0001006>:
    41000264:	000022b7          	lui	x5,0x2
    41000268:	8002829b          	addiw	x5,x5,-2048 # 1800 <pma_region_1_size+0x800>
    4100026c:	3002b073          	csrc	mstatus,x5
    41000270:	000012b7          	lui	x5,0x1
    41000274:	8002829b          	addiw	x5,x5,-2048 # 800 <XLEN+0x7c0>
    41000278:	3002a073          	csrs	mstatus,x5
    4100027c:	0010029b          	addiw	x5,x0,1
    41000280:	02729293          	slli	x5,x5,0x27
    41000284:	3002b073          	csrc	mstatus,x5
    41000288:	12000073          	sfence.vma
    4100028c:	412152b7          	lui	x5,0x41215
    41000290:	1a40006f          	j	41000434 <syscalls__ret_from_os_fn>

0000000041000294 <syscalls__os_fn_f0001007>:
    41000294:	41572fb7          	lui	x31,0x41572
    41000298:	0b0f8f9b          	addiw	x31,x31,176 # 415720b0 <pte_access_flags>
    4100029c:	000fbf83          	ld	x31,0(x31)
    410002a0:	415722b7          	lui	x5,0x41572
    410002a4:	0b82829b          	addiw	x5,x5,184 # 415720b8 <pte_access_flags+0x8>
    410002a8:	0002b283          	ld	x5,0(x5)
    410002ac:	41572e37          	lui	x28,0x41572
    410002b0:	0c0e0e1b          	addiw	x28,x28,192 # 415720c0 <pte_access_flags+0x10>
    410002b4:	000e3e03          	ld	x28,0(x28)

00000000410002b8 <syscalls__pte_walk_check_paging_disabled_nonvirt_target_level_read>:
    410002b8:	0a029063          	bnez	x5,41000358 <syscalls__pte_walk_fail_read>

00000000410002bc <syscalls__pte_walk_check_glevel_without_gstage_read>:
    410002bc:	fff00f93          	li	x31,-1
    410002c0:	09fe1c63          	bne	x28,x31,41000358 <syscalls__pte_walk_fail_read>

00000000410002c4 <syscalls__pte_walk_loop_read>:
    410002c4:	41572fb7          	lui	x31,0x41572
    410002c8:	0b0f8f9b          	addiw	x31,x31,176 # 415720b0 <pte_access_flags>
    410002cc:	000fbf83          	ld	x31,0(x31)
    410002d0:	01dfdfb3          	srl	x31,x31,x29
    410002d4:	1fffff93          	andi	x31,x31,511
    410002d8:	003f9f93          	slli	x31,x31,0x3
    410002dc:	01f30333          	add	x6,x6,x31
    410002e0:	005f0e63          	beq	x30,x5,410002fc <syscalls__pte_walk_done_read>
    410002e4:	00033f83          	ld	x31,0(x6)
    410002e8:	00afdf93          	srli	x31,x31,0xa
    410002ec:	00cf9313          	slli	x6,x31,0xc
    410002f0:	001f0f13          	addi	x30,x30,1
    410002f4:	ff7e8e93          	addi	x29,x29,-9
    410002f8:	fcdff06f          	j	410002c4 <syscalls__pte_walk_loop_read>

00000000410002fc <syscalls__pte_walk_done_read>:
    410002fc:	fff00f93          	li	x31,-1
    41000300:	05fe0263          	beq	x28,x31,41000344 <syscalls__pte_walk_final_read>

0000000041000304 <syscalls__pte_walk_gstage_read>:
    41000304:	41572fb7          	lui	x31,0x41572
    41000308:	0b0f8f9b          	addiw	x31,x31,176 # 415720b0 <pte_access_flags>
    4100030c:	006fb023          	sd	x6,0(x31)
    41000310:	000e0293          	mv	x5,x28
    41000314:	fff00e13          	li	x28,-1
    41000318:	68002373          	csrr	x6,hgatp
    4100031c:	03c35e93          	srli	x29,x6,0x3c
    41000320:	01431313          	slli	x6,x6,0x14
    41000324:	01435313          	srli	x6,x6,0x14
    41000328:	00c31313          	slli	x6,x6,0xc
    4100032c:	ff8e8e93          	addi	x29,x29,-8
    41000330:	003e9f13          	slli	x30,x29,0x3
    41000334:	01df0eb3          	add	x29,x30,x29
    41000338:	01ee8e93          	addi	x29,x29,30
    4100033c:	00000f13          	li	x30,0
    41000340:	f85ff06f          	j	410002c4 <syscalls__pte_walk_loop_read>

0000000041000344 <syscalls__pte_walk_final_read>:
    41000344:	00033383          	ld	x7,0(x6)
    41000348:	341022f3          	csrr	x5,mepc
    4100034c:	00428293          	addi	x5,x5,4
    41000350:	16523c23          	sd	x5,376(x4) # 178 <XLEN+0x138>
    41000354:	eddff06f          	j	41000230 <syscalls__os_fn_f0001004>

0000000041000358 <syscalls__pte_walk_fail_read>:
    41000358:	3e00006f          	j	41000738 <test_failed>

000000004100035c <syscalls__os_fn_f0001008>:
    4100035c:	41572fb7          	lui	x31,0x41572
    41000360:	0b0f8f9b          	addiw	x31,x31,176 # 415720b0 <pte_access_flags>
    41000364:	000fbf83          	ld	x31,0(x31)
    41000368:	415722b7          	lui	x5,0x41572
    4100036c:	0b82829b          	addiw	x5,x5,184 # 415720b8 <pte_access_flags+0x8>
    41000370:	0002b283          	ld	x5,0(x5)
    41000374:	41572e37          	lui	x28,0x41572
    41000378:	0c0e0e1b          	addiw	x28,x28,192 # 415720c0 <pte_access_flags+0x10>
    4100037c:	000e3e03          	ld	x28,0(x28)

0000000041000380 <syscalls__pte_walk_check_paging_disabled_nonvirt_target_level_write>:
    41000380:	0a029063          	bnez	x5,41000420 <syscalls__pte_walk_fail_write>

0000000041000384 <syscalls__pte_walk_check_glevel_without_gstage_write>:
    41000384:	fff00f93          	li	x31,-1
    41000388:	09fe1c63          	bne	x28,x31,41000420 <syscalls__pte_walk_fail_write>

000000004100038c <syscalls__pte_walk_loop_write>:
    4100038c:	41572fb7          	lui	x31,0x41572
    41000390:	0b0f8f9b          	addiw	x31,x31,176 # 415720b0 <pte_access_flags>
    41000394:	000fbf83          	ld	x31,0(x31)
    41000398:	01dfdfb3          	srl	x31,x31,x29
    4100039c:	1fffff93          	andi	x31,x31,511
    410003a0:	003f9f93          	slli	x31,x31,0x3
    410003a4:	01f30333          	add	x6,x6,x31
    410003a8:	005f0e63          	beq	x30,x5,410003c4 <syscalls__pte_walk_done_write>
    410003ac:	00033f83          	ld	x31,0(x6)
    410003b0:	00afdf93          	srli	x31,x31,0xa
    410003b4:	00cf9313          	slli	x6,x31,0xc
    410003b8:	001f0f13          	addi	x30,x30,1
    410003bc:	ff7e8e93          	addi	x29,x29,-9
    410003c0:	fcdff06f          	j	4100038c <syscalls__pte_walk_loop_write>

00000000410003c4 <syscalls__pte_walk_done_write>:
    410003c4:	fff00f93          	li	x31,-1
    410003c8:	05fe0263          	beq	x28,x31,4100040c <syscalls__pte_walk_final_write>

00000000410003cc <syscalls__pte_walk_gstage_write>:
    410003cc:	41572fb7          	lui	x31,0x41572
    410003d0:	0b0f8f9b          	addiw	x31,x31,176 # 415720b0 <pte_access_flags>
    410003d4:	006fb023          	sd	x6,0(x31)
    410003d8:	000e0293          	mv	x5,x28
    410003dc:	fff00e13          	li	x28,-1
    410003e0:	68002373          	csrr	x6,hgatp
    410003e4:	03c35e93          	srli	x29,x6,0x3c
    410003e8:	01431313          	slli	x6,x6,0x14
    410003ec:	01435313          	srli	x6,x6,0x14
    410003f0:	00c31313          	slli	x6,x6,0xc
    410003f4:	ff8e8e93          	addi	x29,x29,-8
    410003f8:	003e9f13          	slli	x30,x29,0x3
    410003fc:	01df0eb3          	add	x29,x30,x29
    41000400:	01ee8e93          	addi	x29,x29,30
    41000404:	00000f13          	li	x30,0
    41000408:	f85ff06f          	j	4100038c <syscalls__pte_walk_loop_write>

000000004100040c <syscalls__pte_walk_final_write>:
    4100040c:	00733023          	sd	x7,0(x6)
    41000410:	341022f3          	csrr	x5,mepc
    41000414:	00428293          	addi	x5,x5,4
    41000418:	16523c23          	sd	x5,376(x4) # 178 <XLEN+0x138>
    4100041c:	e15ff06f          	j	41000230 <syscalls__os_fn_f0001004>

0000000041000420 <syscalls__pte_walk_fail_write>:
    41000420:	3180006f          	j	41000738 <test_failed>

0000000041000424 <syscalls__os_get_hart_context>:
    41000424:	00020513          	mv	x10,x4
    41000428:	341022f3          	csrr	x5,mepc
    4100042c:	00428293          	addi	x5,x5,4
    41000430:	0040006f          	j	41000434 <syscalls__ret_from_os_fn>

0000000041000434 <syscalls__ret_from_os_fn>:
    41000434:	34102373          	csrr	x6,mepc
    41000438:	00430313          	addi	x6,x6,4
    4100043c:	16623c23          	sd	x6,376(x4) # 178 <XLEN+0x138>
    41000440:	34129073          	csrw	mepc,x5
    41000444:	fff00f93          	li	x31,-1
    41000448:	2a40006f          	j	410006ec <trap_handler_m__skip_xepc_write>

000000004100044c <trap_handler_m__invalid_interrupt>:
    4100044c:	2ec0006f          	j	41000738 <test_failed>

0000000041000450 <trap_handler_m__clear_all_interrupts>:
    41000450:	34401073          	csrw	mip,x0
    41000454:	30200073          	mret

0000000041000458 <trap_handler_m___CLEAR_SSI>:
    41000458:	00200293          	li	x5,2
    4100045c:	3442b073          	csrc	mip,x5
    41000460:	30200073          	mret

0000000041000464 <trap_handler_m___CLEAR_MSI>:
    41000464:	00800293          	li	x5,8
    41000468:	3442b073          	csrc	mip,x5
    4100046c:	30200073          	mret

0000000041000470 <trap_handler_m___CLEAR_STI>:
    41000470:	02000293          	li	x5,32
    41000474:	3442b073          	csrc	mip,x5
    41000478:	30200073          	mret

000000004100047c <trap_handler_m___CLEAR_MTI>:
    4100047c:	08000293          	li	x5,128
    41000480:	3442b073          	csrc	mip,x5
    41000484:	30200073          	mret

0000000041000488 <trap_handler_m___CLEAR_SEI>:
    41000488:	20000293          	li	x5,512
    4100048c:	3442b073          	csrc	mip,x5
    41000490:	30200073          	mret

0000000041000494 <trap_handler_m___CLEAR_MEI>:
    41000494:	000012b7          	lui	x5,0x1
    41000498:	8002829b          	addiw	x5,x5,-2048 # 800 <XLEN+0x7c0>
    4100049c:	3442b073          	csrc	mip,x5
    410004a0:	30200073          	mret

00000000410004a4 <trap_handler_m___CLEAR_COI>:
    410004a4:	000022b7          	lui	x5,0x2
    410004a8:	3442b073          	csrc	mip,x5
    410004ac:	30200073          	mret

00000000410004b0 <trap_handler_m__clear_highest_priority_interrupt>:
    410004b0:	344022f3          	csrr	x5,mip
    410004b4:	40500333          	neg	x6,x5
    410004b8:	0062f2b3          	and	x5,x5,x6
    410004bc:	3442b073          	csrc	mip,x5
    410004c0:	30200073          	mret

00000000410004c4 <trap_handler_m__trap_entry>:
    410004c4:	0fc0006f          	j	410005c0 <trap_handler_m__trap_handler>

00000000410004c8 <trap_handler_m__interrupt_vector_table>:
    410004c8:	f91ff06f          	j	41000458 <trap_handler_m___CLEAR_SSI>
    410004cc:	f81ff06f          	j	4100044c <trap_handler_m__invalid_interrupt>
    410004d0:	f95ff06f          	j	41000464 <trap_handler_m___CLEAR_MSI>
    410004d4:	f79ff06f          	j	4100044c <trap_handler_m__invalid_interrupt>
    410004d8:	f99ff06f          	j	41000470 <trap_handler_m___CLEAR_STI>
    410004dc:	f71ff06f          	j	4100044c <trap_handler_m__invalid_interrupt>
    410004e0:	f9dff06f          	j	4100047c <trap_handler_m___CLEAR_MTI>
    410004e4:	f69ff06f          	j	4100044c <trap_handler_m__invalid_interrupt>
    410004e8:	fa1ff06f          	j	41000488 <trap_handler_m___CLEAR_SEI>
    410004ec:	f61ff06f          	j	4100044c <trap_handler_m__invalid_interrupt>
    410004f0:	fa5ff06f          	j	41000494 <trap_handler_m___CLEAR_MEI>
    410004f4:	f59ff06f          	j	4100044c <trap_handler_m__invalid_interrupt>
    410004f8:	fadff06f          	j	410004a4 <trap_handler_m___CLEAR_COI>
    410004fc:	f51ff06f          	j	4100044c <trap_handler_m__invalid_interrupt>
    41000500:	f4dff06f          	j	4100044c <trap_handler_m__invalid_interrupt>
    41000504:	fadff06f          	j	410004b0 <trap_handler_m__clear_highest_priority_interrupt>
    41000508:	fa9ff06f          	j	410004b0 <trap_handler_m__clear_highest_priority_interrupt>
    4100050c:	fa5ff06f          	j	410004b0 <trap_handler_m__clear_highest_priority_interrupt>
    41000510:	fa1ff06f          	j	410004b0 <trap_handler_m__clear_highest_priority_interrupt>
    41000514:	f9dff06f          	j	410004b0 <trap_handler_m__clear_highest_priority_interrupt>
    41000518:	f99ff06f          	j	410004b0 <trap_handler_m__clear_highest_priority_interrupt>
    4100051c:	f95ff06f          	j	410004b0 <trap_handler_m__clear_highest_priority_interrupt>
    41000520:	f91ff06f          	j	410004b0 <trap_handler_m__clear_highest_priority_interrupt>
    41000524:	f8dff06f          	j	410004b0 <trap_handler_m__clear_highest_priority_interrupt>
    41000528:	f89ff06f          	j	410004b0 <trap_handler_m__clear_highest_priority_interrupt>
    4100052c:	f85ff06f          	j	410004b0 <trap_handler_m__clear_highest_priority_interrupt>
    41000530:	f81ff06f          	j	410004b0 <trap_handler_m__clear_highest_priority_interrupt>
    41000534:	f7dff06f          	j	410004b0 <trap_handler_m__clear_highest_priority_interrupt>
    41000538:	f79ff06f          	j	410004b0 <trap_handler_m__clear_highest_priority_interrupt>
    4100053c:	f75ff06f          	j	410004b0 <trap_handler_m__clear_highest_priority_interrupt>
    41000540:	f71ff06f          	j	410004b0 <trap_handler_m__clear_highest_priority_interrupt>
    41000544:	f6dff06f          	j	410004b0 <trap_handler_m__clear_highest_priority_interrupt>
    41000548:	f69ff06f          	j	410004b0 <trap_handler_m__clear_highest_priority_interrupt>
    4100054c:	f65ff06f          	j	410004b0 <trap_handler_m__clear_highest_priority_interrupt>
    41000550:	f61ff06f          	j	410004b0 <trap_handler_m__clear_highest_priority_interrupt>
    41000554:	f5dff06f          	j	410004b0 <trap_handler_m__clear_highest_priority_interrupt>
    41000558:	f59ff06f          	j	410004b0 <trap_handler_m__clear_highest_priority_interrupt>
    4100055c:	f55ff06f          	j	410004b0 <trap_handler_m__clear_highest_priority_interrupt>
    41000560:	f51ff06f          	j	410004b0 <trap_handler_m__clear_highest_priority_interrupt>
    41000564:	f4dff06f          	j	410004b0 <trap_handler_m__clear_highest_priority_interrupt>
    41000568:	f49ff06f          	j	410004b0 <trap_handler_m__clear_highest_priority_interrupt>
    4100056c:	f45ff06f          	j	410004b0 <trap_handler_m__clear_highest_priority_interrupt>
    41000570:	f41ff06f          	j	410004b0 <trap_handler_m__clear_highest_priority_interrupt>
    41000574:	f3dff06f          	j	410004b0 <trap_handler_m__clear_highest_priority_interrupt>
    41000578:	f39ff06f          	j	410004b0 <trap_handler_m__clear_highest_priority_interrupt>
    4100057c:	f35ff06f          	j	410004b0 <trap_handler_m__clear_highest_priority_interrupt>
    41000580:	f31ff06f          	j	410004b0 <trap_handler_m__clear_highest_priority_interrupt>
    41000584:	f2dff06f          	j	410004b0 <trap_handler_m__clear_highest_priority_interrupt>
    41000588:	f29ff06f          	j	410004b0 <trap_handler_m__clear_highest_priority_interrupt>
    4100058c:	f25ff06f          	j	410004b0 <trap_handler_m__clear_highest_priority_interrupt>
    41000590:	f21ff06f          	j	410004b0 <trap_handler_m__clear_highest_priority_interrupt>
    41000594:	f1dff06f          	j	410004b0 <trap_handler_m__clear_highest_priority_interrupt>
    41000598:	f19ff06f          	j	410004b0 <trap_handler_m__clear_highest_priority_interrupt>
    4100059c:	f15ff06f          	j	410004b0 <trap_handler_m__clear_highest_priority_interrupt>
    410005a0:	f11ff06f          	j	410004b0 <trap_handler_m__clear_highest_priority_interrupt>
    410005a4:	f0dff06f          	j	410004b0 <trap_handler_m__clear_highest_priority_interrupt>
    410005a8:	f09ff06f          	j	410004b0 <trap_handler_m__clear_highest_priority_interrupt>
    410005ac:	f05ff06f          	j	410004b0 <trap_handler_m__clear_highest_priority_interrupt>
    410005b0:	f01ff06f          	j	410004b0 <trap_handler_m__clear_highest_priority_interrupt>
    410005b4:	efdff06f          	j	410004b0 <trap_handler_m__clear_highest_priority_interrupt>
    410005b8:	ef9ff06f          	j	410004b0 <trap_handler_m__clear_highest_priority_interrupt>
    410005bc:	ef5ff06f          	j	410004b0 <trap_handler_m__clear_highest_priority_interrupt>

00000000410005c0 <trap_handler_m__trap_handler>:
    410005c0:	342022f3          	csrr	x5,mcause
    410005c4:	fff0031b          	addiw	x6,x0,-1
    410005c8:	03f31313          	slli	x6,x6,0x3f
    410005cc:	00537333          	and	x6,x6,x5
    410005d0:	02030263          	beqz	x6,410005f4 <trap_handler_m__exception_path>

00000000410005d4 <trap_handler_m__interrupt_handler>:
    410005d4:	fff0031b          	addiw	x6,x0,-1
    410005d8:	03f31313          	slli	x6,x6,0x3f
    410005dc:	0062c2b3          	xor	x5,x5,x6
    410005e0:	00000317          	auipc	x6,0x0
    410005e4:	ee430313          	addi	x6,x6,-284 # 410004c4 <trap_handler_m__trap_entry>
    410005e8:	00229293          	slli	x5,x5,0x2
    410005ec:	005302b3          	add	x5,x6,x5
    410005f0:	00028067          	jr	x5 # 2000 <pma_region_1_size+0x1000>

00000000410005f4 <trap_handler_m__exception_path>:
    410005f4:	34021273          	csrrw	x4,mscratch,x4
    410005f8:	00000297          	auipc	x5,0x0
    410005fc:	10828293          	addi	x5,x5,264 # 41000700 <trap_handler_m__trap_panic>
    41000600:	30529073          	csrw	mtvec,x5
    41000604:	0040006f          	j	41000608 <trap_handler_m__excp_entry>

0000000041000608 <trap_handler_m__excp_entry>:
    41000608:	34202373          	csrr	x6,mcause
    4100060c:	00800293          	li	x5,8
    41000610:	00534863          	blt	x6,x5,41000620 <trap_handler_m__check_exception_label>
    41000614:	00b00293          	li	x5,11
    41000618:	0062c463          	blt	x5,x6,41000620 <trap_handler_m__check_exception_label>
    4100061c:	a9dff06f          	j	410000b8 <syscalls__syscall_check_schedule_next_test>

0000000041000620 <trap_handler_m__check_exception_label>:
    41000620:	04623c23          	sd	x6,88(x4) # 58 <XLEN+0x18>
    41000624:	341022f3          	csrr	x5,mepc
    41000628:	02523423          	sd	x5,40(x4) # 28 <SECURE_ACCESS_PROBABILITY+0xa>
    4100062c:	01820283          	lb	x5,24(x4) # 18 <STORE_GUEST_PAGE_FAULT+0x1>
    41000630:	00029863          	bnez	x5,41000640 <trap_handler_m__check_excp>
    41000634:	00128293          	addi	x5,x5,1
    41000638:	00520c23          	sb	x5,24(x4) # 18 <STORE_GUEST_PAGE_FAULT+0x1>
    4100063c:	0980006f          	j	410006d4 <trap_handler_m__ecall_from_machine>

0000000041000640 <trap_handler_m__check_excp>:
    41000640:	06823283          	ld	x5,104(x4) # 68 <XLEN+0x28>
    41000644:	06023423          	sd	x0,104(x4) # 68 <XLEN+0x28>
    41000648:	00028663          	beqz	x5,41000654 <trap_handler_m__skip_mode_check>
    4100064c:	00100393          	li	x7,1
    41000650:	0e729463          	bne	x5,x7,41000738 <test_failed>

0000000041000654 <trap_handler_m__skip_mode_check>:
    41000654:	05023283          	ld	x5,80(x4) # 50 <XLEN+0x10>
    41000658:	04023823          	sd	x0,80(x4) # 50 <XLEN+0x10>
    4100065c:	0c531e63          	bne	x6,x5,41000738 <test_failed>
    41000660:	03823283          	ld	x5,56(x4) # 38 <SECURE_ACCESS_PROBABILITY+0x1a>
    41000664:	02023c23          	sd	x0,56(x4) # 38 <SECURE_ACCESS_PROBABILITY+0x1a>
    41000668:	06029463          	bnez	x5,410006d0 <trap_handler_m__skip_gva_check>
    4100066c:	02023303          	ld	x6,32(x4) # 20 <SECURE_ACCESS_PROBABILITY+0x2>
    41000670:	02023023          	sd	x0,32(x4) # 20 <SECURE_ACCESS_PROBABILITY+0x2>
    41000674:	02823283          	ld	x5,40(x4) # 28 <SECURE_ACCESS_PROBABILITY+0xa>
    41000678:	02023423          	sd	x0,40(x4) # 28 <SECURE_ACCESS_PROBABILITY+0xa>
    4100067c:	0a531e63          	bne	x6,x5,41000738 <test_failed>
    41000680:	04023283          	ld	x5,64(x4) # 40 <XLEN>
    41000684:	04023023          	sd	x0,64(x4) # 40 <XLEN>
    41000688:	00028663          	beqz	x5,41000694 <trap_handler_m__skip_nonzero_tval_check>

000000004100068c <trap_handler_m__nonzero_tval_check>:
    4100068c:	34302373          	csrr	x6,mtval
    41000690:	0a531463          	bne	x6,x5,41000738 <test_failed>

0000000041000694 <trap_handler_m__skip_nonzero_tval_check>:
    41000694:	04823283          	ld	x5,72(x4) # 48 <XLEN+0x8>
    41000698:	04023423          	sd	x0,72(x4) # 48 <XLEN+0x8>
    4100069c:	00028663          	beqz	x5,410006a8 <trap_handler_m__skip_nonzero_htval_check>

00000000410006a0 <trap_handler_m__nonzero_htval_check>:
    410006a0:	34b02373          	csrr	x6,0x34b
    410006a4:	08531a63          	bne	x6,x5,41000738 <test_failed>

00000000410006a8 <trap_handler_m__skip_nonzero_htval_check>:
    410006a8:	06023283          	ld	x5,96(x4) # 60 <XLEN+0x20>
    410006ac:	06023023          	sd	x0,96(x4) # 60 <XLEN+0x20>
    410006b0:	02028063          	beqz	x5,410006d0 <trap_handler_m__skip_gva_check>

00000000410006b4 <trap_handler_m__gva_check>:
    410006b4:	30002373          	csrr	x6,mstatus
    410006b8:	02635313          	srli	x6,x6,0x26
    410006bc:	00137313          	andi	x6,x6,1
    410006c0:	06030c63          	beqz	x6,41000738 <test_failed>
    410006c4:	0010031b          	addiw	x6,x0,1
    410006c8:	02631313          	slli	x6,x6,0x26
    410006cc:	30033073          	csrc	mstatus,x6

00000000410006d0 <trap_handler_m__skip_gva_check>:
    410006d0:	0040006f          	j	410006d4 <trap_handler_m__ecall_from_machine>

00000000410006d4 <trap_handler_m__ecall_from_machine>:
    410006d4:	03023283          	ld	x5,48(x4) # 30 <SECURE_ACCESS_PROBABILITY+0x12>
    410006d8:	02023823          	sd	x0,48(x4) # 30 <SECURE_ACCESS_PROBABILITY+0x12>
    410006dc:	07023303          	ld	x6,112(x4) # 70 <XLEN+0x30>
    410006e0:	06023823          	sd	x0,112(x4) # 70 <XLEN+0x30>
    410006e4:	00031463          	bnez	x6,410006ec <trap_handler_m__skip_xepc_write>
    410006e8:	34129073          	csrw	mepc,x5

00000000410006ec <trap_handler_m__skip_xepc_write>:
    410006ec:	00000317          	auipc	x6,0x0
    410006f0:	dd830313          	addi	x6,x6,-552 # 410004c4 <trap_handler_m__trap_entry>
    410006f4:	30531073          	csrw	mtvec,x6
    410006f8:	34021273          	csrrw	x4,mscratch,x4
    410006fc:	30200073          	mret

0000000041000700 <trap_handler_m__trap_panic>:
    41000700:	00000193          	li	x3,0
    41000704:	2b40006f          	j	410009b8 <eot__end_test>

0000000041000708 <enter_scheduler>:
    41000708:	0002f337          	lui	x6,0x2f
    4100070c:	ab73031b          	addiw	x6,x6,-1353 # 2eab7 <_all_interrupts+0x2c00d>
    41000710:	00e31313          	slli	x6,x6,0xe
    41000714:	0de30313          	addi	x6,x6,222
    41000718:	02628063          	beq	x5,x6,41000738 <test_failed>
    4100071c:	00000513          	li	x10,0
    41000720:	030000ef          	jal	41000750 <rvcp_print_test_result>
    41000724:	3180006f          	j	41000a3c <scheduler__dispatch>

0000000041000728 <test_passed>:
    41000728:	34021273          	csrrw	x4,mscratch,x4
    4100072c:	00000513          	li	x10,0
    41000730:	020000ef          	jal	41000750 <rvcp_print_test_result>
    41000734:	3080006f          	j	41000a3c <scheduler__dispatch>

0000000041000738 <test_failed>:
    41000738:	34021273          	csrrw	x4,mscratch,x4
    4100073c:	00300193          	li	x3,3
    41000740:	2780006f          	j	410009b8 <eot__end_test>

0000000041000744 <os_end_test>:
    41000744:	34021273          	csrrw	x4,mscratch,x4
    41000748:	00100193          	li	x3,1
    4100074c:	26c0006f          	j	410009b8 <eot__end_test>

0000000041000750 <rvcp_print_test_result>:
    41000750:	00050e13          	mv	x28,x10
    41000754:	18823283          	ld	x5,392(x4) # 188 <XLEN+0x148>
    41000758:	0010031b          	addiw	x6,x0,1
    4100075c:	02031313          	slli	x6,x6,0x20
    41000760:	ffe30313          	addi	x6,x6,-2
    41000764:	1c628063          	beq	x5,x6,41000924 <rvcp_print_test_result+0x1d4>
    41000768:	0010031b          	addiw	x6,x0,1
    4100076c:	02031313          	slli	x6,x6,0x20
    41000770:	fff30313          	addi	x6,x6,-1
    41000774:	1a628863          	beq	x5,x6,41000924 <rvcp_print_test_result+0x1d4>
    41000778:	1a02c663          	bltz	x5,41000924 <rvcp_print_test_result+0x1d4>
    4100077c:	00001317          	auipc	x6,0x1
    41000780:	8c030313          	addi	x6,x6,-1856 # 4100103c <dtest_descriptor_table>
    41000784:	00329393          	slli	x7,x5,0x3
    41000788:	00730333          	add	x6,x6,x7
    4100078c:	00033e83          	ld	x29,0(x6)
    41000790:	41572f37          	lui	x30,0x41572
    41000794:	030f0f1b          	addiw	x30,x30,48 # 41572030 <rvcp_prefix_str>
    41000798:	000f4283          	lbu	x5,0(x30)
    4100079c:	02028663          	beqz	x5,410007c8 <rvcp_print_test_result+0x78>
    410007a0:	1010031b          	addiw	x6,x0,257
    410007a4:	03031313          	slli	x6,x6,0x30
    410007a8:	005362b3          	or	x5,x6,x5
    410007ac:	00040317          	auipc	x6,0x40
    410007b0:	85430313          	addi	x6,x6,-1964 # 41040000 <tohost>
    410007b4:	00033383          	ld	x7,0(x6)
    410007b8:	fe039ee3          	bnez	x7,410007b4 <rvcp_print_test_result+0x64>
    410007bc:	00533023          	sd	x5,0(x6)
    410007c0:	001f0f13          	addi	x30,x30,1
    410007c4:	fd5ff06f          	j	41000798 <rvcp_print_test_result+0x48>
    410007c8:	41572f37          	lui	x30,0x41572
    410007cc:	041f0f1b          	addiw	x30,x30,65 # 41572041 <rvcp_testname_str>
    410007d0:	000f4283          	lbu	x5,0(x30)
    410007d4:	02028663          	beqz	x5,41000800 <rvcp_print_test_result+0xb0>
    410007d8:	1010031b          	addiw	x6,x0,257
    410007dc:	03031313          	slli	x6,x6,0x30
    410007e0:	005362b3          	or	x5,x6,x5
    410007e4:	00040317          	auipc	x6,0x40
    410007e8:	81c30313          	addi	x6,x6,-2020 # 41040000 <tohost>
    410007ec:	00033383          	ld	x7,0(x6)
    410007f0:	fe039ee3          	bnez	x7,410007ec <rvcp_print_test_result+0x9c>
    410007f4:	00533023          	sd	x5,0(x6)
    410007f8:	001f0f13          	addi	x30,x30,1
    410007fc:	fd5ff06f          	j	410007d0 <rvcp_print_test_result+0x80>
    41000800:	41572f37          	lui	x30,0x41572
    41000804:	058f0f1b          	addiw	x30,x30,88 # 41572058 <rvcp_space_str>
    41000808:	000f4283          	lbu	x5,0(x30)
    4100080c:	02028663          	beqz	x5,41000838 <rvcp_print_test_result+0xe8>
    41000810:	1010031b          	addiw	x6,x0,257
    41000814:	03031313          	slli	x6,x6,0x30
    41000818:	005362b3          	or	x5,x6,x5
    4100081c:	0003f317          	auipc	x6,0x3f
    41000820:	7e430313          	addi	x6,x6,2020 # 41040000 <tohost>
    41000824:	00033383          	ld	x7,0(x6)
    41000828:	fe039ee3          	bnez	x7,41000824 <rvcp_print_test_result+0xd4>
    4100082c:	00533023          	sd	x5,0(x6)
    41000830:	001f0f13          	addi	x30,x30,1
    41000834:	fd5ff06f          	j	41000808 <rvcp_print_test_result+0xb8>
    41000838:	000e8f13          	mv	x30,x29
    4100083c:	000f4283          	lbu	x5,0(x30)
    41000840:	02028663          	beqz	x5,4100086c <rvcp_print_test_result+0x11c>
    41000844:	1010031b          	addiw	x6,x0,257
    41000848:	03031313          	slli	x6,x6,0x30
    4100084c:	005362b3          	or	x5,x6,x5
    41000850:	0003f317          	auipc	x6,0x3f
    41000854:	7b030313          	addi	x6,x6,1968 # 41040000 <tohost>
    41000858:	00033383          	ld	x7,0(x6)
    4100085c:	fe039ee3          	bnez	x7,41000858 <rvcp_print_test_result+0x108>
    41000860:	00533023          	sd	x5,0(x6)
    41000864:	001f0f13          	addi	x30,x30,1
    41000868:	fd5ff06f          	j	4100083c <rvcp_print_test_result+0xec>
    4100086c:	41572f37          	lui	x30,0x41572
    41000870:	058f0f1b          	addiw	x30,x30,88 # 41572058 <rvcp_space_str>
    41000874:	000f4283          	lbu	x5,0(x30)
    41000878:	02028663          	beqz	x5,410008a4 <rvcp_print_test_result+0x154>
    4100087c:	1010031b          	addiw	x6,x0,257
    41000880:	03031313          	slli	x6,x6,0x30
    41000884:	005362b3          	or	x5,x6,x5
    41000888:	0003f317          	auipc	x6,0x3f
    4100088c:	77830313          	addi	x6,x6,1912 # 41040000 <tohost>
    41000890:	00033383          	ld	x7,0(x6)
    41000894:	fe039ee3          	bnez	x7,41000890 <rvcp_print_test_result+0x140>
    41000898:	00533023          	sd	x5,0(x6)
    4100089c:	001f0f13          	addi	x30,x30,1
    410008a0:	fd5ff06f          	j	41000874 <rvcp_print_test_result+0x124>
    410008a4:	000e1863          	bnez	x28,410008b4 <rvcp_print_test_result+0x164>
    410008a8:	41572f37          	lui	x30,0x41572
    410008ac:	04af0f1b          	addiw	x30,x30,74 # 4157204a <rvcp_passed_str>
    410008b0:	00c0006f          	j	410008bc <rvcp_print_test_result+0x16c>
    410008b4:	41572f37          	lui	x30,0x41572
    410008b8:	051f0f1b          	addiw	x30,x30,81 # 41572051 <rvcp_failed_str>
    410008bc:	000f4283          	lbu	x5,0(x30)
    410008c0:	02028663          	beqz	x5,410008ec <rvcp_print_test_result+0x19c>
    410008c4:	1010031b          	addiw	x6,x0,257
    410008c8:	03031313          	slli	x6,x6,0x30
    410008cc:	005362b3          	or	x5,x6,x5
    410008d0:	0003f317          	auipc	x6,0x3f
    410008d4:	73030313          	addi	x6,x6,1840 # 41040000 <tohost>
    410008d8:	00033383          	ld	x7,0(x6)
    410008dc:	fe039ee3          	bnez	x7,410008d8 <rvcp_print_test_result+0x188>
    410008e0:	00533023          	sd	x5,0(x6)
    410008e4:	001f0f13          	addi	x30,x30,1
    410008e8:	fd5ff06f          	j	410008bc <rvcp_print_test_result+0x16c>
    410008ec:	41572f37          	lui	x30,0x41572
    410008f0:	05af0f1b          	addiw	x30,x30,90 # 4157205a <rvcp_newline_str>
    410008f4:	000f4283          	lbu	x5,0(x30)
    410008f8:	02028663          	beqz	x5,41000924 <rvcp_print_test_result+0x1d4>
    410008fc:	1010031b          	addiw	x6,x0,257
    41000900:	03031313          	slli	x6,x6,0x30
    41000904:	005362b3          	or	x5,x6,x5
    41000908:	0003f317          	auipc	x6,0x3f
    4100090c:	6f830313          	addi	x6,x6,1784 # 41040000 <tohost>
    41000910:	00033383          	ld	x7,0(x6)
    41000914:	fe039ee3          	bnez	x7,41000910 <rvcp_print_test_result+0x1c0>
    41000918:	00533023          	sd	x5,0(x6)
    4100091c:	001f0f13          	addi	x30,x30,1
    41000920:	fd5ff06f          	j	410008f4 <rvcp_print_test_result+0x1a4>
    41000924:	00008067          	ret

0000000041000928 <os_rng_orig>:
    41000928:	f14023f3          	csrr	x7,mhartid
    4100092c:	00068313          	mv	x6,x13
    41000930:	026383b3          	mul	x7,x7,x6
    41000934:	00058313          	mv	x6,x11
    41000938:	00730333          	add	x6,x6,x7
    4100093c:	00033283          	ld	x5,0(x6)
    41000940:	01529313          	slli	x6,x5,0x15
    41000944:	0062c2b3          	xor	x5,x5,x6
    41000948:	0232d313          	srli	x6,x5,0x23
    4100094c:	0062c2b3          	xor	x5,x5,x6
    41000950:	00429313          	slli	x6,x5,0x4
    41000954:	0062c2b3          	xor	x5,x5,x6
    41000958:	00058313          	mv	x6,x11
    4100095c:	00730333          	add	x6,x6,x7
    41000960:	00533023          	sd	x5,0(x6)
    41000964:	00060313          	mv	x6,x12
    41000968:	0262f2b3          	remu	x5,x5,x6
    4100096c:	00028513          	mv	x10,x5
    41000970:	00008067          	ret
    41000974:	02a00513          	li	x10,42
    41000978:	001965b7          	lui	x11,0x196
    4100097c:	60d5859b          	addiw	x11,x11,1549 # 19660d <pma_region_0_size+0x15660d>
    41000980:	3c6ef637          	lui	x12,0x3c6ef
    41000984:	35f6061b          	addiw	x12,x12,863 # 3c6ef35f <pma_region_2_size+0x386ef35f>
    41000988:	02200693          	li	x13,34
    4100098c:	02b50533          	mul	x10,x10,x11
    41000990:	00c50533          	add	x10,x10,x12
    41000994:	02d56533          	rem	x10,x10,x13
    41000998:	00b00593          	li	x11,11
    4100099c:	02b56533          	rem	x10,x10,x11
    410009a0:	00008067          	ret
    410009a4:	0000                	.insn	2, 0x0000
	...

00000000410009a8 <tohost_mutex>:
	...

00000000410009b0 <tohost_addr_mem>:
    410009b0:	0000                	.insn	2, 0x0000
    410009b2:	4104                	.insn	2, 0x4104
    410009b4:	0000                	.insn	2, 0x0000
	...

00000000410009b8 <eot__end_test>:
    410009b8:	00100293          	li	x5,1
    410009bc:	00328463          	beq	x5,x3,410009c4 <eot__passed>
    410009c0:	01c0006f          	j	410009dc <eot__failed>

00000000410009c4 <eot__passed>:
    410009c4:	0ff0000f          	fence
    410009c8:	00000297          	auipc	x5,0x0
    410009cc:	fe82b283          	ld	x5,-24(x5) # 410009b0 <tohost_addr_mem>
    410009d0:	00100313          	li	x6,1
    410009d4:	0062a023          	sw	x6,0(x5)
    410009d8:	0240006f          	j	410009fc <eot__halt>

00000000410009dc <eot__failed>:
    410009dc:	00100513          	li	x10,1
    410009e0:	d71ff0ef          	jal	41000750 <rvcp_print_test_result>
    410009e4:	0ff0000f          	fence
    410009e8:	00000297          	auipc	x5,0x0
    410009ec:	fc82b283          	ld	x5,-56(x5) # 410009b0 <tohost_addr_mem>
    410009f0:	00300313          	li	x6,3
    410009f4:	0062a023          	sw	x6,0(x5)
    410009f8:	0040006f          	j	410009fc <eot__halt>

00000000410009fc <eot__halt>:
    410009fc:	10500073          	wfi
    41000a00:	ffdff06f          	j	410009fc <eot__halt>

0000000041000a04 <scheduler__init>:
    41000a04:	00000297          	auipc	x5,0x0
    41000a08:	0dc28293          	addi	x5,x5,220 # 41000ae0 <scheduler__panic>
    41000a0c:	305292f3          	csrrw	x5,mtvec,x5
    41000a10:	18523023          	sd	x5,384(x4) # 180 <XLEN+0x140>
    41000a14:	0a900293          	li	x5,169
    41000a18:	18523823          	sd	x5,400(x4) # 190 <XLEN+0x150>
    41000a1c:	0010029b          	addiw	x5,x0,1
    41000a20:	02029293          	slli	x5,x5,0x20
    41000a24:	ffe28293          	addi	x5,x5,-2
    41000a28:	18523423          	sd	x5,392(x4) # 188 <XLEN+0x148>
    41000a2c:	00001317          	auipc	x6,0x1
    41000a30:	df830313          	addi	x6,x6,-520 # 41001824 <scheduler__test_setup_ptr>
    41000a34:	00033303          	ld	x6,0(x6)
    41000a38:	07c0006f          	j	41000ab4 <scheduler__execute_test>

0000000041000a3c <scheduler__dispatch>:
    41000a3c:	300472f3          	csrrci	x5,mstatus,8
    41000a40:	0082f293          	andi	x5,x5,8
    41000a44:	00429293          	slli	x5,x5,0x4
    41000a48:	3002a073          	csrs	mstatus,x5
    41000a4c:	00000297          	auipc	x5,0x0
    41000a50:	09428293          	addi	x5,x5,148 # 41000ae0 <scheduler__panic>
    41000a54:	305292f3          	csrrw	x5,mtvec,x5
    41000a58:	18523023          	sd	x5,384(x4) # 180 <XLEN+0x140>

0000000041000a5c <scheduler__csr_read_randomization>:
    41000a5c:	143022f3          	csrr	x5,stval
    41000a60:	105022f3          	csrr	x5,stvec
    41000a64:	144022f3          	csrr	x5,sip
    41000a68:	340022f3          	csrr	x5,mscratch
    41000a6c:	f15022f3          	csrr	x5,0xf15
    41000a70:	105022f3          	csrr	x5,stvec
    41000a74:	143022f3          	csrr	x5,stval

0000000041000a78 <scheduler__load_num_runs>:
    41000a78:	19023303          	ld	x6,400(x4) # 190 <XLEN+0x150>
    41000a7c:	04030e63          	beqz	x6,41000ad8 <scheduler__finished>

0000000041000a80 <scheduler__decrement_num_runs>:
    41000a80:	fff30393          	addi	x7,x6,-1
    41000a84:	18723823          	sd	x7,400(x4) # 190 <XLEN+0x150>
    41000a88:	00001e17          	auipc	x28,0x1
    41000a8c:	af4e0e13          	addi	x28,x28,-1292 # 4100157c <dtest_index_map>
    41000a90:	00239e93          	slli	x29,x7,0x2
    41000a94:	01de0e33          	add	x28,x28,x29
    41000a98:	000e2e03          	lw	x28,0(x28)
    41000a9c:	19c23423          	sd	x28,392(x4) # 188 <XLEN+0x148>

0000000041000aa0 <scheduler__calc_test_pointer>:
    41000aa0:	00339293          	slli	x5,x7,0x3

0000000041000aa4 <scheduler__load_test_addr>:
    41000aa4:	00000317          	auipc	x6,0x0
    41000aa8:	05030313          	addi	x6,x6,80 # 41000af4 <os_test_sequence>
    41000aac:	006282b3          	add	x5,x5,x6
    41000ab0:	0002b303          	ld	x6,0(x5)

0000000041000ab4 <scheduler__execute_test>:
    41000ab4:	18023283          	ld	x5,384(x4) # 180 <XLEN+0x140>
    41000ab8:	30529073          	csrw	mtvec,x5
    41000abc:	34021273          	csrrw	x4,mscratch,x4
    41000ac0:	00000213          	li	x4,0
    41000ac4:	300022f3          	csrr	x5,mstatus
    41000ac8:	0802f293          	andi	x5,x5,128
    41000acc:	0042d293          	srli	x5,x5,0x4
    41000ad0:	3002a073          	csrs	mstatus,x5
    41000ad4:	00030067          	jr	x6

0000000041000ad8 <scheduler__finished>:
    41000ad8:	00100193          	li	x3,1
    41000adc:	eddff06f          	j	410009b8 <eot__end_test>

0000000041000ae0 <scheduler__panic>:
    41000ae0:	00000193          	li	x3,0
    41000ae4:	ed5ff06f          	j	410009b8 <eot__end_test>
    41000ae8:	0000                	.insn	2, 0x0000
	...

0000000041000aec <num_runs>:
    41000aec:	00a9                	.insn	2, 0x00a9
    41000aee:	0000                	.insn	2, 0x0000
    41000af0:	0000                	.insn	2, 0x0000
	...

0000000041000af4 <os_test_sequence>:
    41000af4:	0f78                	.insn	2, 0x0f78
    41000af6:	00004103          	lbu	x2,0(x0) # 0 <ALL_4KB_PAGES>
    41000afa:	0000                	.insn	2, 0x0000
    41000afc:	2f38                	.insn	2, 0x2f38
    41000afe:	4102                	.insn	2, 0x4102
    41000b00:	0000                	.insn	2, 0x0000
    41000b02:	0000                	.insn	2, 0x0000
    41000b04:	109c                	.insn	2, 0x109c
    41000b06:	4102                	.insn	2, 0x4102
    41000b08:	0000                	.insn	2, 0x0000
    41000b0a:	0000                	.insn	2, 0x0000
    41000b0c:	dc18                	.insn	2, 0xdc18
    41000b0e:	4102                	.insn	2, 0x4102
    41000b10:	0000                	.insn	2, 0x0000
    41000b12:	0000                	.insn	2, 0x0000
    41000b14:	6140                	.insn	2, 0x6140
    41000b16:	4101                	.insn	2, 0x4101
    41000b18:	0000                	.insn	2, 0x0000
    41000b1a:	0000                	.insn	2, 0x0000
    41000b1c:	f5c8                	.insn	2, 0xf5c8
    41000b1e:	4102                	.insn	2, 0x4102
    41000b20:	0000                	.insn	2, 0x0000
    41000b22:	0000                	.insn	2, 0x0000
    41000b24:	0558                	.insn	2, 0x0558
    41000b26:	00004103          	lbu	x2,0(x0) # 0 <ALL_4KB_PAGES>
    41000b2a:	0000                	.insn	2, 0x0000
    41000b2c:	c7d8                	.insn	2, 0xc7d8
    41000b2e:	4102                	.insn	2, 0x4102
    41000b30:	0000                	.insn	2, 0x0000
    41000b32:	0000                	.insn	2, 0x0000
    41000b34:	50f0                	.insn	2, 0x50f0
    41000b36:	4101                	.insn	2, 0x4101
    41000b38:	0000                	.insn	2, 0x0000
    41000b3a:	0000                	.insn	2, 0x0000
    41000b3c:	d1f8                	.insn	2, 0xd1f8
    41000b3e:	4102                	.insn	2, 0x4102
    41000b40:	0000                	.insn	2, 0x0000
    41000b42:	0000                	.insn	2, 0x0000
    41000b44:	8750                	.insn	2, 0x8750
    41000b46:	4101                	.insn	2, 0x4101
    41000b48:	0000                	.insn	2, 0x0000
    41000b4a:	0000                	.insn	2, 0x0000
    41000b4c:	6bf8                	.insn	2, 0x6bf8
    41000b4e:	4102                	.insn	2, 0x4102
    41000b50:	0000                	.insn	2, 0x0000
    41000b52:	0000                	.insn	2, 0x0000
    41000b54:	d3dc                	.insn	2, 0xd3dc
    41000b56:	4101                	.insn	2, 0x4101
    41000b58:	0000                	.insn	2, 0x0000
    41000b5a:	0000                	.insn	2, 0x0000
    41000b5c:	ddfc                	.insn	2, 0xddfc
    41000b5e:	4101                	.insn	2, 0x4101
    41000b60:	0000                	.insn	2, 0x0000
    41000b62:	0000                	.insn	2, 0x0000
    41000b64:	3958                	.insn	2, 0x3958
    41000b66:	4102                	.insn	2, 0x4102
    41000b68:	0000                	.insn	2, 0x0000
    41000b6a:	0000                	.insn	2, 0x0000
    41000b6c:	a408                	.insn	2, 0xa408
    41000b6e:	4102                	.insn	2, 0x4102
    41000b70:	0000                	.insn	2, 0x0000
    41000b72:	0000                	.insn	2, 0x0000
    41000b74:	971c                	.insn	2, 0x971c
    41000b76:	4101                	.insn	2, 0x4101
    41000b78:	0000                	.insn	2, 0x0000
    41000b7a:	0000                	.insn	2, 0x0000
    41000b7c:	bdb8                	.insn	2, 0xbdb8
    41000b7e:	4102                	.insn	2, 0x4102
    41000b80:	0000                	.insn	2, 0x0000
    41000b82:	0000                	.insn	2, 0x0000
    41000b84:	0558                	.insn	2, 0x0558
    41000b86:	00004103          	lbu	x2,0(x0) # 0 <ALL_4KB_PAGES>
    41000b8a:	0000                	.insn	2, 0x0000
    41000b8c:	7190                	.insn	2, 0x7190
    41000b8e:	4101                	.insn	2, 0x4101
    41000b90:	0000                	.insn	2, 0x0000
    41000b92:	0000                	.insn	2, 0x0000
    41000b94:	9478                	.insn	2, 0x9478
    41000b96:	4102                	.insn	2, 0x4102
    41000b98:	0000                	.insn	2, 0x0000
    41000b9a:	0000                	.insn	2, 0x0000
    41000b9c:	bdb8                	.insn	2, 0xbdb8
    41000b9e:	4102                	.insn	2, 0x4102
    41000ba0:	0000                	.insn	2, 0x0000
    41000ba2:	0000                	.insn	2, 0x0000
    41000ba4:	8750                	.insn	2, 0x8750
    41000ba6:	4101                	.insn	2, 0x4101
    41000ba8:	0000                	.insn	2, 0x0000
    41000baa:	0000                	.insn	2, 0x0000
    41000bac:	e81c                	.insn	2, 0xe81c
    41000bae:	4101                	.insn	2, 0x4101
    41000bb0:	0000                	.insn	2, 0x0000
    41000bb2:	0000                	.insn	2, 0x0000
    41000bb4:	5660                	.insn	2, 0x5660
    41000bb6:	4101                	.insn	2, 0x4101
    41000bb8:	0000                	.insn	2, 0x0000
    41000bba:	0000                	.insn	2, 0x0000
    41000bbc:	50f0                	.insn	2, 0x50f0
    41000bbe:	4101                	.insn	2, 0x4101
    41000bc0:	0000                	.insn	2, 0x0000
    41000bc2:	0000                	.insn	2, 0x0000
    41000bc4:	8cc0                	.insn	2, 0x8cc0
    41000bc6:	4101                	.insn	2, 0x4101
    41000bc8:	0000                	.insn	2, 0x0000
    41000bca:	0000                	.insn	2, 0x0000
    41000bcc:	8038                	.insn	2, 0x8038
    41000bce:	4102                	.insn	2, 0x4102
    41000bd0:	0000                	.insn	2, 0x0000
    41000bd2:	0000                	.insn	2, 0x0000
    41000bd4:	6140                	.insn	2, 0x6140
    41000bd6:	4101                	.insn	2, 0x4101
    41000bd8:	0000                	.insn	2, 0x0000
    41000bda:	0000                	.insn	2, 0x0000
    41000bdc:	d1f8                	.insn	2, 0xd1f8
    41000bde:	4102                	.insn	2, 0x4102
    41000be0:	0000                	.insn	2, 0x0000
    41000be2:	0000                	.insn	2, 0x0000
    41000be4:	b57c                	.insn	2, 0xb57c
    41000be6:	4101                	.insn	2, 0x4101
    41000be8:	0000                	.insn	2, 0x0000
    41000bea:	0000                	.insn	2, 0x0000
    41000bec:	a13c                	.insn	2, 0xa13c
    41000bee:	4101                	.insn	2, 0x4101
    41000bf0:	0000                	.insn	2, 0x0000
    41000bf2:	0000                	.insn	2, 0x0000
    41000bf4:	61d8                	.insn	2, 0x61d8
    41000bf6:	4102                	.insn	2, 0x4102
    41000bf8:	0000                	.insn	2, 0x0000
    41000bfa:	0000                	.insn	2, 0x0000
    41000bfc:	61d8                	.insn	2, 0x61d8
    41000bfe:	4102                	.insn	2, 0x4102
    41000c00:	0000                	.insn	2, 0x0000
    41000c02:	0000                	.insn	2, 0x0000
    41000c04:	99e8                	.insn	2, 0x99e8
    41000c06:	4102                	.insn	2, 0x4102
    41000c08:	0000                	.insn	2, 0x0000
    41000c0a:	0000                	.insn	2, 0x0000
    41000c0c:	2518                	.insn	2, 0x2518
    41000c0e:	4102                	.insn	2, 0x4102
    41000c10:	0000                	.insn	2, 0x0000
    41000c12:	0000                	.insn	2, 0x0000
    41000c14:	d1f8                	.insn	2, 0xd1f8
    41000c16:	4102                	.insn	2, 0x4102
    41000c18:	0000                	.insn	2, 0x0000
    41000c1a:	0000                	.insn	2, 0x0000
    41000c1c:	971c                	.insn	2, 0x971c
    41000c1e:	4101                	.insn	2, 0x4101
    41000c20:	0000                	.insn	2, 0x0000
    41000c22:	0000                	.insn	2, 0x0000
    41000c24:	f5c8                	.insn	2, 0xf5c8
    41000c26:	4102                	.insn	2, 0x4102
    41000c28:	0000                	.insn	2, 0x0000
    41000c2a:	0000                	.insn	2, 0x0000
    41000c2c:	8cfc                	.insn	2, 0x8cfc
    41000c2e:	4101                	.insn	2, 0x4101
    41000c30:	0000                	.insn	2, 0x0000
    41000c32:	0000                	.insn	2, 0x0000
    41000c34:	f23c                	.insn	2, 0xf23c
    41000c36:	4101                	.insn	2, 0x4101
    41000c38:	0000                	.insn	2, 0x0000
    41000c3a:	0000                	.insn	2, 0x0000
    41000c3c:	7618                	.insn	2, 0x7618
    41000c3e:	4102                	.insn	2, 0x4102
    41000c40:	0000                	.insn	2, 0x0000
    41000c42:	0000                	.insn	2, 0x0000
    41000c44:	fb38                	.insn	2, 0xfb38
    41000c46:	4102                	.insn	2, 0x4102
    41000c48:	0000                	.insn	2, 0x0000
    41000c4a:	0000                	.insn	2, 0x0000
    41000c4c:	f23c                	.insn	2, 0xf23c
    41000c4e:	4101                	.insn	2, 0x4101
    41000c50:	0000                	.insn	2, 0x0000
    41000c52:	0000                	.insn	2, 0x0000
    41000c54:	7190                	.insn	2, 0x7190
    41000c56:	4101                	.insn	2, 0x4101
    41000c58:	0000                	.insn	2, 0x0000
    41000c5a:	0000                	.insn	2, 0x0000
    41000c5c:	8038                	.insn	2, 0x8038
    41000c5e:	4102                	.insn	2, 0x4102
    41000c60:	0000                	.insn	2, 0x0000
    41000c62:	0000                	.insn	2, 0x0000
    41000c64:	b398                	.insn	2, 0xb398
    41000c66:	4102                	.insn	2, 0x4102
    41000c68:	0000                	.insn	2, 0x0000
    41000c6a:	0000                	.insn	2, 0x0000
    41000c6c:	7c70                	.insn	2, 0x7c70
    41000c6e:	4101                	.insn	2, 0x4101
    41000c70:	0000                	.insn	2, 0x0000
    41000c72:	0000                	.insn	2, 0x0000
    41000c74:	4b80                	.insn	2, 0x4b80
    41000c76:	4101                	.insn	2, 0x4101
    41000c78:	0000                	.insn	2, 0x0000
    41000c7a:	0000                	.insn	2, 0x0000
    41000c7c:	7700                	.insn	2, 0x7700
    41000c7e:	4101                	.insn	2, 0x4101
    41000c80:	0000                	.insn	2, 0x0000
    41000c82:	0000                	.insn	2, 0x0000
    41000c84:	fc5c                	.insn	2, 0xfc5c
    41000c86:	4101                	.insn	2, 0x4101
    41000c88:	0000                	.insn	2, 0x0000
    41000c8a:	0000                	.insn	2, 0x0000
    41000c8c:	e81c                	.insn	2, 0xe81c
    41000c8e:	4101                	.insn	2, 0x4101
    41000c90:	0000                	.insn	2, 0x0000
    41000c92:	0000                	.insn	2, 0x0000
    41000c94:	4378                	.insn	2, 0x4378
    41000c96:	4102                	.insn	2, 0x4102
    41000c98:	0000                	.insn	2, 0x0000
    41000c9a:	0000                	.insn	2, 0x0000
    41000c9c:	dc18                	.insn	2, 0xdc18
    41000c9e:	4102                	.insn	2, 0x4102
    41000ca0:	0000                	.insn	2, 0x0000
    41000ca2:	0000                	.insn	2, 0x0000
    41000ca4:	1abc                	.insn	2, 0x1abc
    41000ca6:	4102                	.insn	2, 0x4102
    41000ca8:	0000                	.insn	2, 0x0000
    41000caa:	0000                	.insn	2, 0x0000
    41000cac:	4378                	.insn	2, 0x4378
    41000cae:	4102                	.insn	2, 0x4102
    41000cb0:	0000                	.insn	2, 0x0000
    41000cb2:	0000                	.insn	2, 0x0000
    41000cb4:	7c70                	.insn	2, 0x7c70
    41000cb6:	4101                	.insn	2, 0x4101
    41000cb8:	0000                	.insn	2, 0x0000
    41000cba:	0000                	.insn	2, 0x0000
    41000cbc:	ae28                	.insn	2, 0xae28
    41000cbe:	4102                	.insn	2, 0x4102
    41000cc0:	0000                	.insn	2, 0x0000
    41000cc2:	0000                	.insn	2, 0x0000
    41000cc4:	5bd0                	.insn	2, 0x5bd0
    41000cc6:	4101                	.insn	2, 0x4101
    41000cc8:	0000                	.insn	2, 0x0000
    41000cca:	0000                	.insn	2, 0x0000
    41000ccc:	067c                	.insn	2, 0x067c
    41000cce:	4102                	.insn	2, 0x4102
    41000cd0:	0000                	.insn	2, 0x0000
    41000cd2:	0000                	.insn	2, 0x0000
    41000cd4:	24dc                	.insn	2, 0x24dc
    41000cd6:	4102                	.insn	2, 0x4102
    41000cd8:	0000                	.insn	2, 0x0000
    41000cda:	0000                	.insn	2, 0x0000
    41000cdc:	4378                	.insn	2, 0x4378
    41000cde:	4102                	.insn	2, 0x4102
    41000ce0:	0000                	.insn	2, 0x0000
    41000ce2:	0000                	.insn	2, 0x0000
    41000ce4:	b398                	.insn	2, 0xb398
    41000ce6:	4102                	.insn	2, 0x4102
    41000ce8:	0000                	.insn	2, 0x0000
    41000cea:	0000                	.insn	2, 0x0000
    41000cec:	bdb8                	.insn	2, 0xbdb8
    41000cee:	4102                	.insn	2, 0x4102
    41000cf0:	0000                	.insn	2, 0x0000
    41000cf2:	0000                	.insn	2, 0x0000
    41000cf4:	8cc0                	.insn	2, 0x8cc0
    41000cf6:	4101                	.insn	2, 0x4101
    41000cf8:	0000                	.insn	2, 0x0000
    41000cfa:	0000                	.insn	2, 0x0000
    41000cfc:	2518                	.insn	2, 0x2518
    41000cfe:	4102                	.insn	2, 0x4102
    41000d00:	0000                	.insn	2, 0x0000
    41000d02:	0000                	.insn	2, 0x0000
    41000d04:	dc18                	.insn	2, 0xdc18
    41000d06:	4102                	.insn	2, 0x4102
    41000d08:	0000                	.insn	2, 0x0000
    41000d0a:	0000                	.insn	2, 0x0000
    41000d0c:	6c20                	.insn	2, 0x6c20
    41000d0e:	4101                	.insn	2, 0x4101
    41000d10:	0000                	.insn	2, 0x0000
    41000d12:	0000                	.insn	2, 0x0000
    41000d14:	40a0                	.insn	2, 0x40a0
    41000d16:	4101                	.insn	2, 0x4101
    41000d18:	0000                	.insn	2, 0x0000
    41000d1a:	0000                	.insn	2, 0x0000
    41000d1c:	7190                	.insn	2, 0x7190
    41000d1e:	4101                	.insn	2, 0x4101
    41000d20:	0000                	.insn	2, 0x0000
    41000d22:	0000                	.insn	2, 0x0000
    41000d24:	e638                	.insn	2, 0xe638
    41000d26:	4102                	.insn	2, 0x4102
    41000d28:	0000                	.insn	2, 0x0000
    41000d2a:	0000                	.insn	2, 0x0000
    41000d2c:	8a58                	.insn	2, 0x8a58
    41000d2e:	4102                	.insn	2, 0x4102
    41000d30:	0000                	.insn	2, 0x0000
    41000d32:	0000                	.insn	2, 0x0000
    41000d34:	66b0                	.insn	2, 0x66b0
    41000d36:	4101                	.insn	2, 0x4101
    41000d38:	0000                	.insn	2, 0x0000
    41000d3a:	0000                	.insn	2, 0x0000
    41000d3c:	fc5c                	.insn	2, 0xfc5c
    41000d3e:	4101                	.insn	2, 0x4101
    41000d40:	0000                	.insn	2, 0x0000
    41000d42:	0000                	.insn	2, 0x0000
    41000d44:	8750                	.insn	2, 0x8750
    41000d46:	4101                	.insn	2, 0x4101
    41000d48:	0000                	.insn	2, 0x0000
    41000d4a:	0000                	.insn	2, 0x0000
    41000d4c:	9478                	.insn	2, 0x9478
    41000d4e:	4102                	.insn	2, 0x4102
    41000d50:	0000                	.insn	2, 0x0000
    41000d52:	0000                	.insn	2, 0x0000
    41000d54:	bf9c                	.insn	2, 0xbf9c
    41000d56:	4101                	.insn	2, 0x4101
    41000d58:	0000                	.insn	2, 0x0000
    41000d5a:	0000                	.insn	2, 0x0000
    41000d5c:	4610                	.insn	2, 0x4610
    41000d5e:	4101                	.insn	2, 0x4101
    41000d60:	0000                	.insn	2, 0x0000
    41000d62:	0000                	.insn	2, 0x0000
    41000d64:	bf9c                	.insn	2, 0xbf9c
    41000d66:	4101                	.insn	2, 0x4101
    41000d68:	0000                	.insn	2, 0x0000
    41000d6a:	0000                	.insn	2, 0x0000
    41000d6c:	1abc                	.insn	2, 0x1abc
    41000d6e:	4102                	.insn	2, 0x4102
    41000d70:	0000                	.insn	2, 0x0000
    41000d72:	0000                	.insn	2, 0x0000
    41000d74:	2f38                	.insn	2, 0x2f38
    41000d76:	4102                	.insn	2, 0x4102
    41000d78:	0000                	.insn	2, 0x0000
    41000d7a:	0000                	.insn	2, 0x0000
    41000d7c:	d3dc                	.insn	2, 0xd3dc
    41000d7e:	4101                	.insn	2, 0x4101
    41000d80:	0000                	.insn	2, 0x0000
    41000d82:	0000                	.insn	2, 0x0000
    41000d84:	6140                	.insn	2, 0x6140
    41000d86:	4101                	.insn	2, 0x4101
    41000d88:	0000                	.insn	2, 0x0000
    41000d8a:	0000                	.insn	2, 0x0000
    41000d8c:	5660                	.insn	2, 0x5660
    41000d8e:	4101                	.insn	2, 0x4101
    41000d90:	0000                	.insn	2, 0x0000
    41000d92:	0000                	.insn	2, 0x0000
    41000d94:	fb38                	.insn	2, 0xfb38
    41000d96:	4102                	.insn	2, 0x4102
    41000d98:	0000                	.insn	2, 0x0000
    41000d9a:	0000                	.insn	2, 0x0000
    41000d9c:	99e8                	.insn	2, 0x99e8
    41000d9e:	4102                	.insn	2, 0x4102
    41000da0:	0000                	.insn	2, 0x0000
    41000da2:	0000                	.insn	2, 0x0000
    41000da4:	50f0                	.insn	2, 0x50f0
    41000da6:	4101                	.insn	2, 0x4101
    41000da8:	0000                	.insn	2, 0x0000
    41000daa:	0000                	.insn	2, 0x0000
    41000dac:	8cfc                	.insn	2, 0x8cfc
    41000dae:	4101                	.insn	2, 0x4101
    41000db0:	0000                	.insn	2, 0x0000
    41000db2:	0000                	.insn	2, 0x0000
    41000db4:	109c                	.insn	2, 0x109c
    41000db6:	4102                	.insn	2, 0x4102
    41000db8:	0000                	.insn	2, 0x0000
    41000dba:	0000                	.insn	2, 0x0000
    41000dbc:	ddfc                	.insn	2, 0xddfc
    41000dbe:	4101                	.insn	2, 0x4101
    41000dc0:	0000                	.insn	2, 0x0000
    41000dc2:	0000                	.insn	2, 0x0000
    41000dc4:	8cfc                	.insn	2, 0x8cfc
    41000dc6:	4101                	.insn	2, 0x4101
    41000dc8:	0000                	.insn	2, 0x0000
    41000dca:	0000                	.insn	2, 0x0000
    41000dcc:	66b0                	.insn	2, 0x66b0
    41000dce:	4101                	.insn	2, 0x4101
    41000dd0:	0000                	.insn	2, 0x0000
    41000dd2:	0000                	.insn	2, 0x0000
    41000dd4:	4d98                	.insn	2, 0x4d98
    41000dd6:	4102                	.insn	2, 0x4102
    41000dd8:	0000                	.insn	2, 0x0000
    41000dda:	0000                	.insn	2, 0x0000
    41000ddc:	a408                	.insn	2, 0xa408
    41000dde:	4102                	.insn	2, 0x4102
    41000de0:	0000                	.insn	2, 0x0000
    41000de2:	0000                	.insn	2, 0x0000
    41000de4:	a13c                	.insn	2, 0xa13c
    41000de6:	4101                	.insn	2, 0x4101
    41000de8:	0000                	.insn	2, 0x0000
    41000dea:	0000                	.insn	2, 0x0000
    41000dec:	7700                	.insn	2, 0x7700
    41000dee:	4101                	.insn	2, 0x4101
    41000df0:	0000                	.insn	2, 0x0000
    41000df2:	0000                	.insn	2, 0x0000
    41000df4:	bf9c                	.insn	2, 0xbf9c
    41000df6:	4101                	.insn	2, 0x4101
    41000df8:	0000                	.insn	2, 0x0000
    41000dfa:	0000                	.insn	2, 0x0000
    41000dfc:	4610                	.insn	2, 0x4610
    41000dfe:	4101                	.insn	2, 0x4101
    41000e00:	0000                	.insn	2, 0x0000
    41000e02:	0000                	.insn	2, 0x0000
    41000e04:	3958                	.insn	2, 0x3958
    41000e06:	4102                	.insn	2, 0x4102
    41000e08:	0000                	.insn	2, 0x0000
    41000e0a:	0000                	.insn	2, 0x0000
    41000e0c:	971c                	.insn	2, 0x971c
    41000e0e:	4101                	.insn	2, 0x4101
    41000e10:	0000                	.insn	2, 0x0000
    41000e12:	0000                	.insn	2, 0x0000
    41000e14:	8a58                	.insn	2, 0x8a58
    41000e16:	4102                	.insn	2, 0x4102
    41000e18:	0000                	.insn	2, 0x0000
    41000e1a:	0000                	.insn	2, 0x0000
    41000e1c:	c9bc                	.insn	2, 0xc9bc
    41000e1e:	4101                	.insn	2, 0x4101
    41000e20:	0000                	.insn	2, 0x0000
    41000e22:	0000                	.insn	2, 0x0000
    41000e24:	f23c                	.insn	2, 0xf23c
    41000e26:	4101                	.insn	2, 0x4101
    41000e28:	0000                	.insn	2, 0x0000
    41000e2a:	0000                	.insn	2, 0x0000
    41000e2c:	81e0                	.insn	2, 0x81e0
    41000e2e:	4101                	.insn	2, 0x4101
    41000e30:	0000                	.insn	2, 0x0000
    41000e32:	0000                	.insn	2, 0x0000
    41000e34:	81e0                	.insn	2, 0x81e0
    41000e36:	4101                	.insn	2, 0x4101
    41000e38:	0000                	.insn	2, 0x0000
    41000e3a:	0000                	.insn	2, 0x0000
    41000e3c:	f058                	.insn	2, 0xf058
    41000e3e:	4102                	.insn	2, 0x4102
    41000e40:	0000                	.insn	2, 0x0000
    41000e42:	0000                	.insn	2, 0x0000
    41000e44:	109c                	.insn	2, 0x109c
    41000e46:	4102                	.insn	2, 0x4102
    41000e48:	0000                	.insn	2, 0x0000
    41000e4a:	0000                	.insn	2, 0x0000
    41000e4c:	4d98                	.insn	2, 0x4d98
    41000e4e:	4102                	.insn	2, 0x4102
    41000e50:	0000                	.insn	2, 0x0000
    41000e52:	0000                	.insn	2, 0x0000
    41000e54:	57b8                	.insn	2, 0x57b8
    41000e56:	4102                	.insn	2, 0x4102
    41000e58:	0000                	.insn	2, 0x0000
    41000e5a:	0000                	.insn	2, 0x0000
    41000e5c:	ab5c                	.insn	2, 0xab5c
    41000e5e:	4101                	.insn	2, 0x4101
    41000e60:	0000                	.insn	2, 0x0000
    41000e62:	0000                	.insn	2, 0x0000
    41000e64:	c9bc                	.insn	2, 0xc9bc
    41000e66:	4101                	.insn	2, 0x4101
    41000e68:	0000                	.insn	2, 0x0000
    41000e6a:	0000                	.insn	2, 0x0000
    41000e6c:	24dc                	.insn	2, 0x24dc
    41000e6e:	4102                	.insn	2, 0x4102
    41000e70:	0000                	.insn	2, 0x0000
    41000e72:	0000                	.insn	2, 0x0000
    41000e74:	f058                	.insn	2, 0xf058
    41000e76:	4102                	.insn	2, 0x4102
    41000e78:	0000                	.insn	2, 0x0000
    41000e7a:	0000                	.insn	2, 0x0000
    41000e7c:	8cc0                	.insn	2, 0x8cc0
    41000e7e:	4101                	.insn	2, 0x4101
    41000e80:	0000                	.insn	2, 0x0000
    41000e82:	0000                	.insn	2, 0x0000
    41000e84:	2518                	.insn	2, 0x2518
    41000e86:	4102                	.insn	2, 0x4102
    41000e88:	0000                	.insn	2, 0x0000
    41000e8a:	0000                	.insn	2, 0x0000
    41000e8c:	5bd0                	.insn	2, 0x5bd0
    41000e8e:	4101                	.insn	2, 0x4101
    41000e90:	0000                	.insn	2, 0x0000
    41000e92:	0000                	.insn	2, 0x0000
    41000e94:	81e0                	.insn	2, 0x81e0
    41000e96:	4101                	.insn	2, 0x4101
    41000e98:	0000                	.insn	2, 0x0000
    41000e9a:	0000                	.insn	2, 0x0000
    41000e9c:	e638                	.insn	2, 0xe638
    41000e9e:	4102                	.insn	2, 0x4102
    41000ea0:	0000                	.insn	2, 0x0000
    41000ea2:	0000                	.insn	2, 0x0000
    41000ea4:	24dc                	.insn	2, 0x24dc
    41000ea6:	4102                	.insn	2, 0x4102
    41000ea8:	0000                	.insn	2, 0x0000
    41000eaa:	0000                	.insn	2, 0x0000
    41000eac:	fc5c                	.insn	2, 0xfc5c
    41000eae:	4101                	.insn	2, 0x4101
    41000eb0:	0000                	.insn	2, 0x0000
    41000eb2:	0000                	.insn	2, 0x0000
    41000eb4:	66b0                	.insn	2, 0x66b0
    41000eb6:	4101                	.insn	2, 0x4101
    41000eb8:	0000                	.insn	2, 0x0000
    41000eba:	0000                	.insn	2, 0x0000
    41000ebc:	5660                	.insn	2, 0x5660
    41000ebe:	4101                	.insn	2, 0x4101
    41000ec0:	0000                	.insn	2, 0x0000
    41000ec2:	0000                	.insn	2, 0x0000
    41000ec4:	067c                	.insn	2, 0x067c
    41000ec6:	4102                	.insn	2, 0x4102
    41000ec8:	0000                	.insn	2, 0x0000
    41000eca:	0000                	.insn	2, 0x0000
    41000ecc:	7618                	.insn	2, 0x7618
    41000ece:	4102                	.insn	2, 0x4102
    41000ed0:	0000                	.insn	2, 0x0000
    41000ed2:	0000                	.insn	2, 0x0000
    41000ed4:	ddfc                	.insn	2, 0xddfc
    41000ed6:	4101                	.insn	2, 0x4101
    41000ed8:	0000                	.insn	2, 0x0000
    41000eda:	0000                	.insn	2, 0x0000
    41000edc:	99e8                	.insn	2, 0x99e8
    41000ede:	4102                	.insn	2, 0x4102
    41000ee0:	0000                	.insn	2, 0x0000
    41000ee2:	0000                	.insn	2, 0x0000
    41000ee4:	4d98                	.insn	2, 0x4d98
    41000ee6:	4102                	.insn	2, 0x4102
    41000ee8:	0000                	.insn	2, 0x0000
    41000eea:	0000                	.insn	2, 0x0000
    41000eec:	f058                	.insn	2, 0xf058
    41000eee:	4102                	.insn	2, 0x4102
    41000ef0:	0000                	.insn	2, 0x0000
    41000ef2:	0000                	.insn	2, 0x0000
    41000ef4:	0558                	.insn	2, 0x0558
    41000ef6:	00004103          	lbu	x2,0(x0) # 0 <ALL_4KB_PAGES>
    41000efa:	0000                	.insn	2, 0x0000
    41000efc:	e81c                	.insn	2, 0xe81c
    41000efe:	4101                	.insn	2, 0x4101
    41000f00:	0000                	.insn	2, 0x0000
    41000f02:	0000                	.insn	2, 0x0000
    41000f04:	7618                	.insn	2, 0x7618
    41000f06:	4102                	.insn	2, 0x4102
    41000f08:	0000                	.insn	2, 0x0000
    41000f0a:	0000                	.insn	2, 0x0000
    41000f0c:	ae28                	.insn	2, 0xae28
    41000f0e:	4102                	.insn	2, 0x4102
    41000f10:	0000                	.insn	2, 0x0000
    41000f12:	0000                	.insn	2, 0x0000
    41000f14:	a408                	.insn	2, 0xa408
    41000f16:	4102                	.insn	2, 0x4102
    41000f18:	0000                	.insn	2, 0x0000
    41000f1a:	0000                	.insn	2, 0x0000
    41000f1c:	1abc                	.insn	2, 0x1abc
    41000f1e:	4102                	.insn	2, 0x4102
    41000f20:	0000                	.insn	2, 0x0000
    41000f22:	0000                	.insn	2, 0x0000
    41000f24:	b57c                	.insn	2, 0xb57c
    41000f26:	4101                	.insn	2, 0x4101
    41000f28:	0000                	.insn	2, 0x0000
    41000f2a:	0000                	.insn	2, 0x0000
    41000f2c:	fb38                	.insn	2, 0xfb38
    41000f2e:	4102                	.insn	2, 0x4102
    41000f30:	0000                	.insn	2, 0x0000
    41000f32:	0000                	.insn	2, 0x0000
    41000f34:	61d8                	.insn	2, 0x61d8
    41000f36:	4102                	.insn	2, 0x4102
    41000f38:	0000                	.insn	2, 0x0000
    41000f3a:	0000                	.insn	2, 0x0000
    41000f3c:	ab5c                	.insn	2, 0xab5c
    41000f3e:	4101                	.insn	2, 0x4101
    41000f40:	0000                	.insn	2, 0x0000
    41000f42:	0000                	.insn	2, 0x0000
    41000f44:	ae28                	.insn	2, 0xae28
    41000f46:	4102                	.insn	2, 0x4102
    41000f48:	0000                	.insn	2, 0x0000
    41000f4a:	0000                	.insn	2, 0x0000
    41000f4c:	c7d8                	.insn	2, 0xc7d8
    41000f4e:	4102                	.insn	2, 0x4102
    41000f50:	0000                	.insn	2, 0x0000
    41000f52:	0000                	.insn	2, 0x0000
    41000f54:	57b8                	.insn	2, 0x57b8
    41000f56:	4102                	.insn	2, 0x4102
    41000f58:	0000                	.insn	2, 0x0000
    41000f5a:	0000                	.insn	2, 0x0000
    41000f5c:	ab5c                	.insn	2, 0xab5c
    41000f5e:	4101                	.insn	2, 0x4101
    41000f60:	0000                	.insn	2, 0x0000
    41000f62:	0000                	.insn	2, 0x0000
    41000f64:	f5c8                	.insn	2, 0xf5c8
    41000f66:	4102                	.insn	2, 0x4102
    41000f68:	0000                	.insn	2, 0x0000
    41000f6a:	0000                	.insn	2, 0x0000
    41000f6c:	40a0                	.insn	2, 0x40a0
    41000f6e:	4101                	.insn	2, 0x4101
    41000f70:	0000                	.insn	2, 0x0000
    41000f72:	0000                	.insn	2, 0x0000
    41000f74:	b398                	.insn	2, 0xb398
    41000f76:	4102                	.insn	2, 0x4102
    41000f78:	0000                	.insn	2, 0x0000
    41000f7a:	0000                	.insn	2, 0x0000
    41000f7c:	4b80                	.insn	2, 0x4b80
    41000f7e:	4101                	.insn	2, 0x4101
    41000f80:	0000                	.insn	2, 0x0000
    41000f82:	0000                	.insn	2, 0x0000
    41000f84:	4610                	.insn	2, 0x4610
    41000f86:	4101                	.insn	2, 0x4101
    41000f88:	0000                	.insn	2, 0x0000
    41000f8a:	0000                	.insn	2, 0x0000
    41000f8c:	e638                	.insn	2, 0xe638
    41000f8e:	4102                	.insn	2, 0x4102
    41000f90:	0000                	.insn	2, 0x0000
    41000f92:	0000                	.insn	2, 0x0000
    41000f94:	067c                	.insn	2, 0x067c
    41000f96:	4102                	.insn	2, 0x4102
    41000f98:	0000                	.insn	2, 0x0000
    41000f9a:	0000                	.insn	2, 0x0000
    41000f9c:	6c20                	.insn	2, 0x6c20
    41000f9e:	4101                	.insn	2, 0x4101
    41000fa0:	0000                	.insn	2, 0x0000
    41000fa2:	0000                	.insn	2, 0x0000
    41000fa4:	b57c                	.insn	2, 0xb57c
    41000fa6:	4101                	.insn	2, 0x4101
    41000fa8:	0000                	.insn	2, 0x0000
    41000faa:	0000                	.insn	2, 0x0000
    41000fac:	d3dc                	.insn	2, 0xd3dc
    41000fae:	4101                	.insn	2, 0x4101
    41000fb0:	0000                	.insn	2, 0x0000
    41000fb2:	0000                	.insn	2, 0x0000
    41000fb4:	6bf8                	.insn	2, 0x6bf8
    41000fb6:	4102                	.insn	2, 0x4102
    41000fb8:	0000                	.insn	2, 0x0000
    41000fba:	0000                	.insn	2, 0x0000
    41000fbc:	40a0                	.insn	2, 0x40a0
    41000fbe:	4101                	.insn	2, 0x4101
    41000fc0:	0000                	.insn	2, 0x0000
    41000fc2:	0000                	.insn	2, 0x0000
    41000fc4:	57b8                	.insn	2, 0x57b8
    41000fc6:	4102                	.insn	2, 0x4102
    41000fc8:	0000                	.insn	2, 0x0000
    41000fca:	0000                	.insn	2, 0x0000
    41000fcc:	3958                	.insn	2, 0x3958
    41000fce:	4102                	.insn	2, 0x4102
    41000fd0:	0000                	.insn	2, 0x0000
    41000fd2:	0000                	.insn	2, 0x0000
    41000fd4:	4b80                	.insn	2, 0x4b80
    41000fd6:	4101                	.insn	2, 0x4101
    41000fd8:	0000                	.insn	2, 0x0000
    41000fda:	0000                	.insn	2, 0x0000
    41000fdc:	8a58                	.insn	2, 0x8a58
    41000fde:	4102                	.insn	2, 0x4102
    41000fe0:	0000                	.insn	2, 0x0000
    41000fe2:	0000                	.insn	2, 0x0000
    41000fe4:	6c20                	.insn	2, 0x6c20
    41000fe6:	4101                	.insn	2, 0x4101
    41000fe8:	0000                	.insn	2, 0x0000
    41000fea:	0000                	.insn	2, 0x0000
    41000fec:	a13c                	.insn	2, 0xa13c
    41000fee:	4101                	.insn	2, 0x4101
    41000ff0:	0000                	.insn	2, 0x0000
    41000ff2:	0000                	.insn	2, 0x0000
    41000ff4:	2f38                	.insn	2, 0x2f38
    41000ff6:	4102                	.insn	2, 0x4102
    41000ff8:	0000                	.insn	2, 0x0000
    41000ffa:	0000                	.insn	2, 0x0000
    41000ffc:	8038                	.insn	2, 0x8038
    41000ffe:	4102                	.insn	2, 0x4102
    41001000:	0000                	.insn	2, 0x0000
    41001002:	0000                	.insn	2, 0x0000
    41001004:	6bf8                	.insn	2, 0x6bf8
    41001006:	4102                	.insn	2, 0x4102
    41001008:	0000                	.insn	2, 0x0000
    4100100a:	0000                	.insn	2, 0x0000
    4100100c:	9478                	.insn	2, 0x9478
    4100100e:	4102                	.insn	2, 0x4102
    41001010:	0000                	.insn	2, 0x0000
    41001012:	0000                	.insn	2, 0x0000
    41001014:	7700                	.insn	2, 0x7700
    41001016:	4101                	.insn	2, 0x4101
    41001018:	0000                	.insn	2, 0x0000
    4100101a:	0000                	.insn	2, 0x0000
    4100101c:	c9bc                	.insn	2, 0xc9bc
    4100101e:	4101                	.insn	2, 0x4101
    41001020:	0000                	.insn	2, 0x0000
    41001022:	0000                	.insn	2, 0x0000
    41001024:	5bd0                	.insn	2, 0x5bd0
    41001026:	4101                	.insn	2, 0x4101
    41001028:	0000                	.insn	2, 0x0000
    4100102a:	0000                	.insn	2, 0x0000
    4100102c:	c7d8                	.insn	2, 0xc7d8
    4100102e:	4102                	.insn	2, 0x4102
    41001030:	0000                	.insn	2, 0x0000
    41001032:	0000                	.insn	2, 0x0000
    41001034:	7c70                	.insn	2, 0x7c70
    41001036:	4101                	.insn	2, 0x4101
    41001038:	0000                	.insn	2, 0x0000
	...

000000004100103c <dtest_descriptor_table>:
    4100103c:	11fc                	.insn	2, 0x11fc
    4100103e:	4100                	.insn	2, 0x4100
    41001040:	0000                	.insn	2, 0x0000
    41001042:	0000                	.insn	2, 0x0000
    41001044:	41001207          	flh	f4,1040(x0) # 410 <XLEN+0x3d0>
    41001048:	0000                	.insn	2, 0x0000
    4100104a:	0000                	.insn	2, 0x0000
    4100104c:	41001217          	auipc	x4,0x41001
    41001050:	0000                	.insn	2, 0x0000
    41001052:	0000                	.insn	2, 0x0000
    41001054:	41001227          	fsh	f16,1028(x0) # 404 <XLEN+0x3c4>
    41001058:	0000                	.insn	2, 0x0000
    4100105a:	0000                	.insn	2, 0x0000
    4100105c:	1238                	.insn	2, 0x1238
    4100105e:	4100                	.insn	2, 0x4100
    41001060:	0000                	.insn	2, 0x0000
    41001062:	0000                	.insn	2, 0x0000
    41001064:	1248                	.insn	2, 0x1248
    41001066:	4100                	.insn	2, 0x4100
    41001068:	0000                	.insn	2, 0x0000
    4100106a:	0000                	.insn	2, 0x0000
    4100106c:	41001257          	.insn	4, 0x41001257
    41001070:	0000                	.insn	2, 0x0000
    41001072:	0000                	.insn	2, 0x0000
    41001074:	41001267          	.insn	4, 0x41001267
    41001078:	0000                	.insn	2, 0x0000
    4100107a:	0000                	.insn	2, 0x0000
    4100107c:	41001277          	.insn	4, 0x41001277
    41001080:	0000                	.insn	2, 0x0000
    41001082:	0000                	.insn	2, 0x0000
    41001084:	41001287          	flh	f5,1040(x0) # 410 <XLEN+0x3d0>
    41001088:	0000                	.insn	2, 0x0000
    4100108a:	0000                	.insn	2, 0x0000
    4100108c:	41001297          	auipc	x5,0x41001
    41001090:	0000                	.insn	2, 0x0000
    41001092:	0000                	.insn	2, 0x0000
    41001094:	12a8                	.insn	2, 0x12a8
    41001096:	4100                	.insn	2, 0x4100
    41001098:	0000                	.insn	2, 0x0000
    4100109a:	0000                	.insn	2, 0x0000
    4100109c:	12b9                	.insn	2, 0x12b9
    4100109e:	4100                	.insn	2, 0x4100
    410010a0:	0000                	.insn	2, 0x0000
    410010a2:	0000                	.insn	2, 0x0000
    410010a4:	12ca                	.insn	2, 0x12ca
    410010a6:	4100                	.insn	2, 0x4100
    410010a8:	0000                	.insn	2, 0x0000
    410010aa:	0000                	.insn	2, 0x0000
    410010ac:	410012db          	.insn	4, 0x410012db
    410010b0:	0000                	.insn	2, 0x0000
    410010b2:	0000                	.insn	2, 0x0000
    410010b4:	12e6                	.insn	2, 0x12e6
    410010b6:	4100                	.insn	2, 0x4100
    410010b8:	0000                	.insn	2, 0x0000
    410010ba:	0000                	.insn	2, 0x0000
    410010bc:	12f5                	.insn	2, 0x12f5
    410010be:	4100                	.insn	2, 0x4100
    410010c0:	0000                	.insn	2, 0x0000
    410010c2:	0000                	.insn	2, 0x0000
    410010c4:	1304                	.insn	2, 0x1304
    410010c6:	4100                	.insn	2, 0x4100
    410010c8:	0000                	.insn	2, 0x0000
    410010ca:	0000                	.insn	2, 0x0000
    410010cc:	41001313          	.insn	4, 0x41001313
    410010d0:	0000                	.insn	2, 0x0000
    410010d2:	0000                	.insn	2, 0x0000
    410010d4:	1322                	.insn	2, 0x1322
    410010d6:	4100                	.insn	2, 0x4100
    410010d8:	0000                	.insn	2, 0x0000
    410010da:	0000                	.insn	2, 0x0000
    410010dc:	1332                	.insn	2, 0x1332
    410010de:	4100                	.insn	2, 0x4100
    410010e0:	0000                	.insn	2, 0x0000
    410010e2:	0000                	.insn	2, 0x0000
    410010e4:	1341                	.insn	2, 0x1341
    410010e6:	4100                	.insn	2, 0x4100
    410010e8:	0000                	.insn	2, 0x0000
    410010ea:	0000                	.insn	2, 0x0000
    410010ec:	1350                	.insn	2, 0x1350
    410010ee:	4100                	.insn	2, 0x4100
    410010f0:	0000                	.insn	2, 0x0000
    410010f2:	0000                	.insn	2, 0x0000
    410010f4:	135f 4100 0000      	.insn	6, 0x4100135f
    410010fa:	0000                	.insn	2, 0x0000
    410010fc:	136d                	.insn	2, 0x136d
    410010fe:	4100                	.insn	2, 0x4100
    41001100:	0000                	.insn	2, 0x0000
    41001102:	0000                	.insn	2, 0x0000
    41001104:	137c                	.insn	2, 0x137c
    41001106:	4100                	.insn	2, 0x4100
    41001108:	0000                	.insn	2, 0x0000
    4100110a:	0000                	.insn	2, 0x0000
    4100110c:	138c                	.insn	2, 0x138c
    4100110e:	4100                	.insn	2, 0x4100
    41001110:	0000                	.insn	2, 0x0000
    41001112:	0000                	.insn	2, 0x0000
    41001114:	139c                	.insn	2, 0x139c
    41001116:	4100                	.insn	2, 0x4100
    41001118:	0000                	.insn	2, 0x0000
    4100111a:	0000                	.insn	2, 0x0000
    4100111c:	13ac                	.insn	2, 0x13ac
    4100111e:	4100                	.insn	2, 0x4100
    41001120:	0000                	.insn	2, 0x0000
    41001122:	0000                	.insn	2, 0x0000
    41001124:	13bc                	.insn	2, 0x13bc
    41001126:	4100                	.insn	2, 0x4100
    41001128:	0000                	.insn	2, 0x0000
    4100112a:	0000                	.insn	2, 0x0000
    4100112c:	13cc                	.insn	2, 0x13cc
    4100112e:	4100                	.insn	2, 0x4100
    41001130:	0000                	.insn	2, 0x0000
    41001132:	0000                	.insn	2, 0x0000
    41001134:	410013d7          	.insn	4, 0x410013d7
    41001138:	0000                	.insn	2, 0x0000
    4100113a:	0000                	.insn	2, 0x0000
    4100113c:	13e6                	.insn	2, 0x13e6
    4100113e:	4100                	.insn	2, 0x4100
    41001140:	0000                	.insn	2, 0x0000
    41001142:	0000                	.insn	2, 0x0000
    41001144:	13f6                	.insn	2, 0x13f6
    41001146:	4100                	.insn	2, 0x4100
    41001148:	0000                	.insn	2, 0x0000
    4100114a:	0000                	.insn	2, 0x0000
    4100114c:	41001407          	flh	f8,1040(x0) # 410 <XLEN+0x3d0>
    41001150:	0000                	.insn	2, 0x0000
    41001152:	0000                	.insn	2, 0x0000
    41001154:	1419                	.insn	2, 0x1419
    41001156:	4100                	.insn	2, 0x4100
    41001158:	0000                	.insn	2, 0x0000
    4100115a:	0000                	.insn	2, 0x0000
    4100115c:	1429                	.insn	2, 0x1429
    4100115e:	4100                	.insn	2, 0x4100
    41001160:	0000                	.insn	2, 0x0000
    41001162:	0000                	.insn	2, 0x0000
    41001164:	143a                	.insn	2, 0x143a
    41001166:	4100                	.insn	2, 0x4100
    41001168:	0000                	.insn	2, 0x0000
    4100116a:	0000                	.insn	2, 0x0000
    4100116c:	144c                	.insn	2, 0x144c
    4100116e:	4100                	.insn	2, 0x4100
    41001170:	0000                	.insn	2, 0x0000
    41001172:	0000                	.insn	2, 0x0000
    41001174:	145e                	.insn	2, 0x145e
    41001176:	4100                	.insn	2, 0x4100
    41001178:	0000                	.insn	2, 0x0000
    4100117a:	0000                	.insn	2, 0x0000
    4100117c:	1470                	.insn	2, 0x1470
    4100117e:	4100                	.insn	2, 0x4100
    41001180:	0000                	.insn	2, 0x0000
    41001182:	0000                	.insn	2, 0x0000
    41001184:	4100147f 00000000 	.insn	12, 0x4100148e000000004100147f
    4100118c:	4100148e 
    41001190:	0000                	.insn	2, 0x0000
    41001192:	0000                	.insn	2, 0x0000
    41001194:	149e                	.insn	2, 0x149e
    41001196:	4100                	.insn	2, 0x4100
    41001198:	0000                	.insn	2, 0x0000
    4100119a:	0000                	.insn	2, 0x0000
    4100119c:	14ae                	.insn	2, 0x14ae
    4100119e:	4100                	.insn	2, 0x4100
    410011a0:	0000                	.insn	2, 0x0000
    410011a2:	0000                	.insn	2, 0x0000
    410011a4:	14be                	.insn	2, 0x14be
    410011a6:	4100                	.insn	2, 0x4100
    410011a8:	0000                	.insn	2, 0x0000
    410011aa:	0000                	.insn	2, 0x0000
    410011ac:	410014cf          	fnmadd.s	f9,f0,f16,f8,rtz
    410011b0:	0000                	.insn	2, 0x0000
    410011b2:	0000                	.insn	2, 0x0000
    410011b4:	14df 4100 0000      	.insn	6, 0x410014df
    410011ba:	0000                	.insn	2, 0x0000
    410011bc:	14ee                	.insn	2, 0x14ee
    410011be:	4100                	.insn	2, 0x4100
    410011c0:	0000                	.insn	2, 0x0000
    410011c2:	0000                	.insn	2, 0x0000
    410011c4:	14fe                	.insn	2, 0x14fe
    410011c6:	4100                	.insn	2, 0x4100
    410011c8:	0000                	.insn	2, 0x0000
    410011ca:	0000                	.insn	2, 0x0000
    410011cc:	150e                	.insn	2, 0x150e
    410011ce:	4100                	.insn	2, 0x4100
    410011d0:	0000                	.insn	2, 0x0000
    410011d2:	0000                	.insn	2, 0x0000
    410011d4:	151f 4100 0000      	.insn	6, 0x4100151f
    410011da:	0000                	.insn	2, 0x0000
    410011dc:	1530                	.insn	2, 0x1530
    410011de:	4100                	.insn	2, 0x4100
    410011e0:	0000                	.insn	2, 0x0000
    410011e2:	0000                	.insn	2, 0x0000
    410011e4:	1541                	.insn	2, 0x1541
    410011e6:	4100                	.insn	2, 0x4100
    410011e8:	0000                	.insn	2, 0x0000
    410011ea:	0000                	.insn	2, 0x0000
    410011ec:	1551                	.insn	2, 0x1551
    410011ee:	4100                	.insn	2, 0x4100
    410011f0:	0000                	.insn	2, 0x0000
    410011f2:	0000                	.insn	2, 0x0000
    410011f4:	1566                	.insn	2, 0x1566
    410011f6:	4100                	.insn	2, 0x4100
    410011f8:	0000                	.insn	2, 0x0000
	...

00000000410011fc <dtest_name_0>:
    410011fc:	5f444953          	.insn	4, 0x5f444953
    41001200:	4b5a                	.insn	2, 0x4b5a
    41001202:	5f54                	.insn	2, 0x5f54
    41001204:	3230                	.insn	2, 0x3230
	...

0000000041001207 <dtest_name_1>:
    41001207:	5f444953          	.insn	4, 0x5f444953
    4100120b:	4b5a                	.insn	2, 0x4b5a
    4100120d:	5f54                	.insn	2, 0x5f54
    4100120f:	3330                	.insn	2, 0x3330
    41001211:	415f 4444 0049      	.insn	6, 0x00494444415f

0000000041001217 <dtest_name_2>:
    41001217:	5f444953          	.insn	4, 0x5f444953
    4100121b:	4b5a                	.insn	2, 0x4b5a
    4100121d:	5f54                	.insn	2, 0x5f54
    4100121f:	3330                	.insn	2, 0x3330
    41001221:	535f 544c 0049      	.insn	6, 0x0049544c535f

0000000041001227 <dtest_name_3>:
    41001227:	5f444953          	.insn	4, 0x5f444953
    4100122b:	4b5a                	.insn	2, 0x4b5a
    4100122d:	5f54                	.insn	2, 0x5f54
    4100122f:	3330                	.insn	2, 0x3330
    41001231:	535f 544c 5549      	.insn	6, 0x5549544c535f
	...

0000000041001238 <dtest_name_4>:
    41001238:	5f444953          	.insn	4, 0x5f444953
    4100123c:	4b5a                	.insn	2, 0x4b5a
    4100123e:	5f54                	.insn	2, 0x5f54
    41001240:	3330                	.insn	2, 0x3330
    41001242:	585f 524f 0049      	.insn	6, 0x0049524f585f

0000000041001248 <dtest_name_5>:
    41001248:	5f444953          	.insn	4, 0x5f444953
    4100124c:	4b5a                	.insn	2, 0x4b5a
    4100124e:	5f54                	.insn	2, 0x5f54
    41001250:	3330                	.insn	2, 0x3330
    41001252:	4f5f 4952       	.insn	6, 0x530049524f5f

0000000041001257 <dtest_name_6>:
    41001257:	5f444953          	.insn	4, 0x5f444953
    4100125b:	4b5a                	.insn	2, 0x4b5a
    4100125d:	5f54                	.insn	2, 0x5f54
    4100125f:	3330                	.insn	2, 0x3330
    41001261:	415f 444e 0049      	.insn	6, 0x0049444e415f

0000000041001267 <dtest_name_7>:
    41001267:	5f444953          	.insn	4, 0x5f444953
    4100126b:	4b5a                	.insn	2, 0x4b5a
    4100126d:	5f54                	.insn	2, 0x5f54
    4100126f:	3330                	.insn	2, 0x3330
    41001271:	535f 4c4c 0049      	.insn	6, 0x00494c4c535f

0000000041001277 <dtest_name_8>:
    41001277:	5f444953          	.insn	4, 0x5f444953
    4100127b:	4b5a                	.insn	2, 0x4b5a
    4100127d:	5f54                	.insn	2, 0x5f54
    4100127f:	3330                	.insn	2, 0x3330
    41001281:	535f 4c52 0049      	.insn	6, 0x00494c52535f

0000000041001287 <dtest_name_9>:
    41001287:	5f444953          	.insn	4, 0x5f444953
    4100128b:	4b5a                	.insn	2, 0x4b5a
    4100128d:	5f54                	.insn	2, 0x5f54
    4100128f:	3330                	.insn	2, 0x3330
    41001291:	535f 4152 0049      	.insn	6, 0x00494152535f

0000000041001297 <dtest_name_10>:
    41001297:	5f444953          	.insn	4, 0x5f444953
    4100129b:	4b5a                	.insn	2, 0x4b5a
    4100129d:	5f54                	.insn	2, 0x5f54
    4100129f:	3330                	.insn	2, 0x3330
    410012a1:	415f 4444 5749      	.insn	6, 0x57494444415f
	...

00000000410012a8 <dtest_name_11>:
    410012a8:	5f444953          	.insn	4, 0x5f444953
    410012ac:	4b5a                	.insn	2, 0x4b5a
    410012ae:	5f54                	.insn	2, 0x5f54
    410012b0:	3330                	.insn	2, 0x3330
    410012b2:	535f 4c4c 5749      	.insn	6, 0x57494c4c535f
	...

00000000410012b9 <dtest_name_12>:
    410012b9:	5f444953          	.insn	4, 0x5f444953
    410012bd:	4b5a                	.insn	2, 0x4b5a
    410012bf:	5f54                	.insn	2, 0x5f54
    410012c1:	3330                	.insn	2, 0x3330
    410012c3:	535f 4c52 5749      	.insn	6, 0x57494c52535f
	...

00000000410012ca <dtest_name_13>:
    410012ca:	5f444953          	.insn	4, 0x5f444953
    410012ce:	4b5a                	.insn	2, 0x4b5a
    410012d0:	5f54                	.insn	2, 0x5f54
    410012d2:	3330                	.insn	2, 0x3330
    410012d4:	535f 4152 5749      	.insn	6, 0x57494152535f
	...

00000000410012db <dtest_name_14>:
    410012db:	5f444953          	.insn	4, 0x5f444953
    410012df:	4b5a                	.insn	2, 0x4b5a
    410012e1:	5f54                	.insn	2, 0x5f54
    410012e3:	3430                	.insn	2, 0x3430
	...

00000000410012e6 <dtest_name_15>:
    410012e6:	5f444953          	.insn	4, 0x5f444953
    410012ea:	4b5a                	.insn	2, 0x4b5a
    410012ec:	5f54                	.insn	2, 0x5f54
    410012ee:	3530                	.insn	2, 0x3530
    410012f0:	415f 4444       	.insn	6, 0x53004444415f

00000000410012f5 <dtest_name_16>:
    410012f5:	5f444953          	.insn	4, 0x5f444953
    410012f9:	4b5a                	.insn	2, 0x4b5a
    410012fb:	5f54                	.insn	2, 0x5f54
    410012fd:	3530                	.insn	2, 0x3530
    410012ff:	535f 4255       	.insn	6, 0x53004255535f

0000000041001304 <dtest_name_17>:
    41001304:	5f444953          	.insn	4, 0x5f444953
    41001308:	4b5a                	.insn	2, 0x4b5a
    4100130a:	5f54                	.insn	2, 0x5f54
    4100130c:	3530                	.insn	2, 0x3530
    4100130e:	535f 4c4c       	.insn	6, 0x53004c4c535f

0000000041001313 <dtest_name_18>:
    41001313:	5f444953          	.insn	4, 0x5f444953
    41001317:	4b5a                	.insn	2, 0x4b5a
    41001319:	5f54                	.insn	2, 0x5f54
    4100131b:	3530                	.insn	2, 0x3530
    4100131d:	535f 544c       	.insn	6, 0x5300544c535f

0000000041001322 <dtest_name_19>:
    41001322:	5f444953          	.insn	4, 0x5f444953
    41001326:	4b5a                	.insn	2, 0x4b5a
    41001328:	5f54                	.insn	2, 0x5f54
    4100132a:	3530                	.insn	2, 0x3530
    4100132c:	535f 544c 0055      	.insn	6, 0x0055544c535f

0000000041001332 <dtest_name_20>:
    41001332:	5f444953          	.insn	4, 0x5f444953
    41001336:	4b5a                	.insn	2, 0x4b5a
    41001338:	5f54                	.insn	2, 0x5f54
    4100133a:	3530                	.insn	2, 0x3530
    4100133c:	585f 524f       	.insn	6, 0x5300524f585f

0000000041001341 <dtest_name_21>:
    41001341:	5f444953          	.insn	4, 0x5f444953
    41001345:	4b5a                	.insn	2, 0x4b5a
    41001347:	5f54                	.insn	2, 0x5f54
    41001349:	3530                	.insn	2, 0x3530
    4100134b:	535f 4c52       	.insn	6, 0x53004c52535f

0000000041001350 <dtest_name_22>:
    41001350:	5f444953          	.insn	4, 0x5f444953
    41001354:	4b5a                	.insn	2, 0x4b5a
    41001356:	5f54                	.insn	2, 0x5f54
    41001358:	3530                	.insn	2, 0x3530
    4100135a:	535f 4152       	.insn	6, 0x53004152535f

000000004100135f <dtest_name_23>:
    4100135f:	5f444953          	.insn	4, 0x5f444953
    41001363:	4b5a                	.insn	2, 0x4b5a
    41001365:	5f54                	.insn	2, 0x5f54
    41001367:	3530                	.insn	2, 0x3530
    41001369:	4f5f 0052       	.insn	6, 0x495300524f5f

000000004100136d <dtest_name_24>:
    4100136d:	5f444953          	.insn	4, 0x5f444953
    41001371:	4b5a                	.insn	2, 0x4b5a
    41001373:	5f54                	.insn	2, 0x5f54
    41001375:	3530                	.insn	2, 0x3530
    41001377:	415f 444e       	.insn	6, 0x5300444e415f

000000004100137c <dtest_name_25>:
    4100137c:	5f444953          	.insn	4, 0x5f444953
    41001380:	4b5a                	.insn	2, 0x4b5a
    41001382:	5f54                	.insn	2, 0x5f54
    41001384:	3530                	.insn	2, 0x3530
    41001386:	415f 4444 0057      	.insn	6, 0x00574444415f

000000004100138c <dtest_name_26>:
    4100138c:	5f444953          	.insn	4, 0x5f444953
    41001390:	4b5a                	.insn	2, 0x4b5a
    41001392:	5f54                	.insn	2, 0x5f54
    41001394:	3530                	.insn	2, 0x3530
    41001396:	535f 4255 0057      	.insn	6, 0x00574255535f

000000004100139c <dtest_name_27>:
    4100139c:	5f444953          	.insn	4, 0x5f444953
    410013a0:	4b5a                	.insn	2, 0x4b5a
    410013a2:	5f54                	.insn	2, 0x5f54
    410013a4:	3530                	.insn	2, 0x3530
    410013a6:	535f 4c4c 0057      	.insn	6, 0x00574c4c535f

00000000410013ac <dtest_name_28>:
    410013ac:	5f444953          	.insn	4, 0x5f444953
    410013b0:	4b5a                	.insn	2, 0x4b5a
    410013b2:	5f54                	.insn	2, 0x5f54
    410013b4:	3530                	.insn	2, 0x3530
    410013b6:	535f 4c52 0057      	.insn	6, 0x00574c52535f

00000000410013bc <dtest_name_29>:
    410013bc:	5f444953          	.insn	4, 0x5f444953
    410013c0:	4b5a                	.insn	2, 0x4b5a
    410013c2:	5f54                	.insn	2, 0x5f54
    410013c4:	3530                	.insn	2, 0x3530
    410013c6:	535f 4152 0057      	.insn	6, 0x00574152535f

00000000410013cc <dtest_name_30>:
    410013cc:	5f444953          	.insn	4, 0x5f444953
    410013d0:	4b5a                	.insn	2, 0x4b5a
    410013d2:	5f54                	.insn	2, 0x5f54
    410013d4:	3630                	.insn	2, 0x3630
	...

00000000410013d7 <dtest_name_31>:
    410013d7:	5f444953          	.insn	4, 0x5f444953
    410013db:	4b5a                	.insn	2, 0x4b5a
    410013dd:	5f54                	.insn	2, 0x5f54
    410013df:	3730                	.insn	2, 0x3730
    410013e1:	4d5f 4c55       	.insn	6, 0x53004c554d5f

00000000410013e6 <dtest_name_32>:
    410013e6:	5f444953          	.insn	4, 0x5f444953
    410013ea:	4b5a                	.insn	2, 0x4b5a
    410013ec:	5f54                	.insn	2, 0x5f54
    410013ee:	3730                	.insn	2, 0x3730
    410013f0:	4d5f 4c55 0048      	.insn	6, 0x00484c554d5f

00000000410013f6 <dtest_name_33>:
    410013f6:	5f444953          	.insn	4, 0x5f444953
    410013fa:	4b5a                	.insn	2, 0x4b5a
    410013fc:	5f54                	.insn	2, 0x5f54
    410013fe:	3730                	.insn	2, 0x3730
    41001400:	4d5f 4c55 5548      	.insn	6, 0x55484c554d5f
	...

0000000041001407 <dtest_name_34>:
    41001407:	5f444953          	.insn	4, 0x5f444953
    4100140b:	4b5a                	.insn	2, 0x4b5a
    4100140d:	5f54                	.insn	2, 0x5f54
    4100140f:	3730                	.insn	2, 0x3730
    41001411:	4d5f 4c55 5348      	.insn	6, 0x53484c554d5f
    41001417:	0055                	.insn	2, 0x0055

0000000041001419 <dtest_name_35>:
    41001419:	5f444953          	.insn	4, 0x5f444953
    4100141d:	4b5a                	.insn	2, 0x4b5a
    4100141f:	5f54                	.insn	2, 0x5f54
    41001421:	3730                	.insn	2, 0x3730
    41001423:	4d5f 4c55 0057      	.insn	6, 0x00574c554d5f

0000000041001429 <dtest_name_36>:
    41001429:	5f444953          	.insn	4, 0x5f444953
    4100142d:	4b5a                	.insn	2, 0x4b5a
    4100142f:	5f54                	.insn	2, 0x5f54
    41001431:	3830                	.insn	2, 0x3830
    41001433:	435f 4d4c 4c55      	.insn	6, 0x4c554d4c435f
	...

000000004100143a <dtest_name_37>:
    4100143a:	5f444953          	.insn	4, 0x5f444953
    4100143e:	4b5a                	.insn	2, 0x4b5a
    41001440:	5f54                	.insn	2, 0x5f54
    41001442:	3830                	.insn	2, 0x3830
    41001444:	435f 4d4c 4c55      	.insn	6, 0x4c554d4c435f
    4100144a:	0048                	.insn	2, 0x0048

000000004100144c <dtest_name_38>:
    4100144c:	5f444953          	.insn	4, 0x5f444953
    41001450:	4b5a                	.insn	2, 0x4b5a
    41001452:	5f54                	.insn	2, 0x5f54
    41001454:	3830                	.insn	2, 0x3830
    41001456:	585f 4550 4d52      	.insn	6, 0x4d524550585f
    4100145c:	0034                	.insn	2, 0x0034

000000004100145e <dtest_name_39>:
    4100145e:	5f444953          	.insn	4, 0x5f444953
    41001462:	4b5a                	.insn	2, 0x4b5a
    41001464:	5f54                	.insn	2, 0x5f54
    41001466:	3830                	.insn	2, 0x3830
    41001468:	585f 4550 4d52      	.insn	6, 0x4d524550585f
    4100146e:	0038                	.insn	2, 0x0038

0000000041001470 <dtest_name_40>:
    41001470:	5f444953          	.insn	4, 0x5f444953
    41001474:	4b5a                	.insn	2, 0x4b5a
    41001476:	5f54                	.insn	2, 0x5f54
    41001478:	3830                	.insn	2, 0x3830
    4100147a:	525f 524f       	.insn	6, 0x5300524f525f

000000004100147f <dtest_name_41>:
    4100147f:	5f444953          	.insn	4, 0x5f444953
    41001483:	4b5a                	.insn	2, 0x4b5a
    41001485:	5f54                	.insn	2, 0x5f54
    41001487:	3830                	.insn	2, 0x3830
    41001489:	525f 4c4f       	.insn	6, 0x53004c4f525f

000000004100148e <dtest_name_42>:
    4100148e:	5f444953          	.insn	4, 0x5f444953
    41001492:	4b5a                	.insn	2, 0x4b5a
    41001494:	5f54                	.insn	2, 0x5f54
    41001496:	3830                	.insn	2, 0x3830
    41001498:	525f 524f 0049      	.insn	6, 0x0049524f525f

000000004100149e <dtest_name_43>:
    4100149e:	5f444953          	.insn	4, 0x5f444953
    410014a2:	4b5a                	.insn	2, 0x4b5a
    410014a4:	5f54                	.insn	2, 0x5f54
    410014a6:	3830                	.insn	2, 0x3830
    410014a8:	525f 524f 0057      	.insn	6, 0x0057524f525f

00000000410014ae <dtest_name_44>:
    410014ae:	5f444953          	.insn	4, 0x5f444953
    410014b2:	4b5a                	.insn	2, 0x4b5a
    410014b4:	5f54                	.insn	2, 0x5f54
    410014b6:	3830                	.insn	2, 0x3830
    410014b8:	525f 4c4f 0057      	.insn	6, 0x00574c4f525f

00000000410014be <dtest_name_45>:
    410014be:	5f444953          	.insn	4, 0x5f444953
    410014c2:	4b5a                	.insn	2, 0x4b5a
    410014c4:	5f54                	.insn	2, 0x5f54
    410014c6:	3830                	.insn	2, 0x3830
    410014c8:	525f 524f 5749      	.insn	6, 0x5749524f525f
	...

00000000410014cf <dtest_name_46>:
    410014cf:	5f444953          	.insn	4, 0x5f444953
    410014d3:	4b5a                	.insn	2, 0x4b5a
    410014d5:	5f54                	.insn	2, 0x5f54
    410014d7:	3830                	.insn	2, 0x3830
    410014d9:	415f 444e 004e      	.insn	6, 0x004e444e415f

00000000410014df <dtest_name_47>:
    410014df:	5f444953          	.insn	4, 0x5f444953
    410014e3:	4b5a                	.insn	2, 0x4b5a
    410014e5:	5f54                	.insn	2, 0x5f54
    410014e7:	3830                	.insn	2, 0x3830
    410014e9:	4f5f 4e52       	.insn	6, 0x53004e524f5f

00000000410014ee <dtest_name_48>:
    410014ee:	5f444953          	.insn	4, 0x5f444953
    410014f2:	4b5a                	.insn	2, 0x4b5a
    410014f4:	5f54                	.insn	2, 0x5f54
    410014f6:	3830                	.insn	2, 0x3830
    410014f8:	585f 4f4e 0052      	.insn	6, 0x00524f4e585f

00000000410014fe <dtest_name_49>:
    410014fe:	5f444953          	.insn	4, 0x5f444953
    41001502:	4b5a                	.insn	2, 0x4b5a
    41001504:	5f54                	.insn	2, 0x5f54
    41001506:	3830                	.insn	2, 0x3830
    41001508:	505f 4341 004b      	.insn	6, 0x004b4341505f

000000004100150e <dtest_name_50>:
    4100150e:	5f444953          	.insn	4, 0x5f444953
    41001512:	4b5a                	.insn	2, 0x4b5a
    41001514:	5f54                	.insn	2, 0x5f54
    41001516:	3830                	.insn	2, 0x3830
    41001518:	505f 4341 484b      	.insn	6, 0x484b4341505f
	...

000000004100151f <dtest_name_51>:
    4100151f:	5f444953          	.insn	4, 0x5f444953
    41001523:	4b5a                	.insn	2, 0x4b5a
    41001525:	5f54                	.insn	2, 0x5f54
    41001527:	3830                	.insn	2, 0x3830
    41001529:	505f 4341 574b      	.insn	6, 0x574b4341505f
	...

0000000041001530 <dtest_name_52>:
    41001530:	5f444953          	.insn	4, 0x5f444953
    41001534:	4b5a                	.insn	2, 0x4b5a
    41001536:	5f54                	.insn	2, 0x5f54
    41001538:	3830                	.insn	2, 0x3830
    4100153a:	425f 4552 3856      	.insn	6, 0x38564552425f
	...

0000000041001541 <dtest_name_53>:
    41001541:	5f444953          	.insn	4, 0x5f444953
    41001545:	4b5a                	.insn	2, 0x4b5a
    41001547:	5f54                	.insn	2, 0x5f54
    41001549:	3830                	.insn	2, 0x3830
    4100154b:	525f 5645 0038      	.insn	6, 0x00385645525f

0000000041001551 <dtest_name_54>:
    41001551:	5f444953          	.insn	4, 0x5f444953
    41001555:	4b5a                	.insn	2, 0x4b5a
    41001557:	5f54                	.insn	2, 0x5f54
    41001559:	3930                	.insn	2, 0x3930
    4100155b:	435f 455a 4f52      	.insn	6, 0x4f52455a435f
    41001561:	455f 5a51       	.insn	6, 0x53005a51455f

0000000041001566 <dtest_name_55>:
    41001566:	5f444953          	.insn	4, 0x5f444953
    4100156a:	4b5a                	.insn	2, 0x4b5a
    4100156c:	5f54                	.insn	2, 0x5f54
    4100156e:	3930                	.insn	2, 0x3930
    41001570:	435f 455a 4f52      	.insn	6, 0x4f52455a435f
    41001576:	4e5f 5a45 0000      	.insn	6, 0x5a454e5f

000000004100157c <dtest_index_map>:
    4100157c:	ffff                	.insn	2, 0xffff
    4100157e:	ffff                	.insn	2, 0xffff
    41001580:	0020                	.insn	2, 0x0020
    41001582:	0000                	.insn	2, 0x0000
    41001584:	001c                	.insn	2, 0x001c
    41001586:	0000                	.insn	2, 0x0000
    41001588:	0032                	.insn	2, 0x0032
    4100158a:	0000                	.insn	2, 0x0000
    4100158c:	0006                	.insn	2, 0x0006
    4100158e:	0000                	.insn	2, 0x0000
    41001590:	0035                	.insn	2, 0x0035
    41001592:	0000                	.insn	2, 0x0000
    41001594:	00000037          	lui	x0,0x0
    41001598:	0030                	.insn	2, 0x0030
    4100159a:	0000                	.insn	2, 0x0000
    4100159c:	00000003          	lb	x0,0(x0) # 0 <ALL_4KB_PAGES>
    410015a0:	0031                	.insn	2, 0x0031
    410015a2:	0000                	.insn	2, 0x0000
    410015a4:	000d                	.insn	2, 0x000d
    410015a6:	0000                	.insn	2, 0x0000
    410015a8:	0026                	.insn	2, 0x0026
    410015aa:	0000                	.insn	2, 0x0000
    410015ac:	0016                	.insn	2, 0x0016
    410015ae:	0000                	.insn	2, 0x0000
    410015b0:	00000017          	auipc	x0,0x0
    410015b4:	0021                	.insn	2, 0x0021
    410015b6:	0000                	.insn	2, 0x0000
    410015b8:	002c                	.insn	2, 0x002c
    410015ba:	0000                	.insn	2, 0x0000
    410015bc:	0010                	.insn	2, 0x0010
    410015be:	0000                	.insn	2, 0x0000
    410015c0:	0000002f          	.insn	4, 0x002f
    410015c4:	00000037          	lui	x0,0x0
    410015c8:	0009                	.insn	2, 0x0009
    410015ca:	0000                	.insn	2, 0x0000
    410015cc:	002a                	.insn	2, 0x002a
    410015ce:	0000                	.insn	2, 0x0000
    410015d0:	0000002f          	.insn	4, 0x002f
    410015d4:	000d                	.insn	2, 0x000d
    410015d6:	0000                	.insn	2, 0x0000
    410015d8:	0018                	.insn	2, 0x0018
    410015da:	0000                	.insn	2, 0x0000
    410015dc:	0004                	.insn	2, 0x0004
    410015de:	0000                	.insn	2, 0x0000
    410015e0:	00000003          	lb	x0,0(x0) # 0 <ALL_4KB_PAGES>
    410015e4:	000e                	.insn	2, 0x000e
    410015e6:	0000                	.insn	2, 0x0000
    410015e8:	0028                	.insn	2, 0x0028
    410015ea:	0000                	.insn	2, 0x0000
    410015ec:	0006                	.insn	2, 0x0006
    410015ee:	0000                	.insn	2, 0x0000
    410015f0:	0031                	.insn	2, 0x0031
    410015f2:	0000                	.insn	2, 0x0000
    410015f4:	00000013          	nop
    410015f8:	0011                	.insn	2, 0x0011
    410015fa:	0000                	.insn	2, 0x0000
    410015fc:	0025                	.insn	2, 0x0025
    410015fe:	0000                	.insn	2, 0x0000
    41001600:	0025                	.insn	2, 0x0025
    41001602:	0000                	.insn	2, 0x0000
    41001604:	0000002b          	.insn	4, 0x002b
    41001608:	001f 0000 0031      	.insn	6, 0x00310000001f
    4100160e:	0000                	.insn	2, 0x0000
    41001610:	0010                	.insn	2, 0x0010
    41001612:	0000                	.insn	2, 0x0000
    41001614:	0035                	.insn	2, 0x0035
    41001616:	0000                	.insn	2, 0x0000
    41001618:	0000000f          	fence	unknown,unknown
    4100161c:	0019                	.insn	2, 0x0019
    4100161e:	0000                	.insn	2, 0x0000
    41001620:	00000027          	vse8.v	v0,(x0),v0.t
    41001624:	0036                	.insn	2, 0x0036
    41001626:	0000                	.insn	2, 0x0000
    41001628:	0019                	.insn	2, 0x0019
    4100162a:	0000                	.insn	2, 0x0000
    4100162c:	0009                	.insn	2, 0x0009
    4100162e:	0000                	.insn	2, 0x0000
    41001630:	0028                	.insn	2, 0x0028
    41001632:	0000                	.insn	2, 0x0000
    41001634:	002e                	.insn	2, 0x002e
    41001636:	0000                	.insn	2, 0x0000
    41001638:	0000000b          	.insn	4, 0x000b
    4100163c:	0002                	.insn	2, 0x0002
    4100163e:	0000                	.insn	2, 0x0000
    41001640:	000a                	.insn	2, 0x000a
    41001642:	0000                	.insn	2, 0x0000
    41001644:	001a                	.insn	2, 0x001a
    41001646:	0000                	.insn	2, 0x0000
    41001648:	0018                	.insn	2, 0x0018
    4100164a:	0000                	.insn	2, 0x0000
    4100164c:	0022                	.insn	2, 0x0022
    4100164e:	0000                	.insn	2, 0x0000
    41001650:	0032                	.insn	2, 0x0032
    41001652:	0000                	.insn	2, 0x0000
    41001654:	001d                	.insn	2, 0x001d
    41001656:	0000                	.insn	2, 0x0000
    41001658:	0022                	.insn	2, 0x0022
    4100165a:	0000                	.insn	2, 0x0000
    4100165c:	0000000b          	.insn	4, 0x000b
    41001660:	002d                	.insn	2, 0x002d
    41001662:	0000                	.insn	2, 0x0000
    41001664:	0005                	.insn	2, 0x0005
    41001666:	0000                	.insn	2, 0x0000
    41001668:	0000001b          	sext.w	x0,x0
    4100166c:	001e                	.insn	2, 0x001e
    4100166e:	0000                	.insn	2, 0x0000
    41001670:	0022                	.insn	2, 0x0022
    41001672:	0000                	.insn	2, 0x0000
    41001674:	002e                	.insn	2, 0x002e
    41001676:	0000                	.insn	2, 0x0000
    41001678:	0000002f          	.insn	4, 0x002f
    4100167c:	000e                	.insn	2, 0x000e
    4100167e:	0000                	.insn	2, 0x0000
    41001680:	001f 0000 0032      	.insn	6, 0x00320000001f
    41001686:	0000                	.insn	2, 0x0000
    41001688:	0008                	.insn	2, 0x0008
    4100168a:	0000                	.insn	2, 0x0000
    4100168c:	0000                	.insn	2, 0x0000
    4100168e:	0000                	.insn	2, 0x0000
    41001690:	0009                	.insn	2, 0x0009
    41001692:	0000                	.insn	2, 0x0000
    41001694:	00000033          	add	x0,x0,x0
    41001698:	0029                	.insn	2, 0x0029
    4100169a:	0000                	.insn	2, 0x0000
    4100169c:	00000007          	vle8.v	v0,(x0),v0.t
    410016a0:	001a                	.insn	2, 0x001a
    410016a2:	0000                	.insn	2, 0x0000
    410016a4:	000d                	.insn	2, 0x000d
    410016a6:	0000                	.insn	2, 0x0000
    410016a8:	002a                	.insn	2, 0x002a
    410016aa:	0000                	.insn	2, 0x0000
    410016ac:	0014                	.insn	2, 0x0014
    410016ae:	0000                	.insn	2, 0x0000
    410016b0:	0001                	.insn	2, 0x0001
    410016b2:	0000                	.insn	2, 0x0000
    410016b4:	0014                	.insn	2, 0x0014
    410016b6:	0000                	.insn	2, 0x0000
    410016b8:	001d                	.insn	2, 0x001d
    410016ba:	0000                	.insn	2, 0x0000
    410016bc:	0020                	.insn	2, 0x0020
    410016be:	0000                	.insn	2, 0x0000
    410016c0:	0016                	.insn	2, 0x0016
    410016c2:	0000                	.insn	2, 0x0000
    410016c4:	0006                	.insn	2, 0x0006
    410016c6:	0000                	.insn	2, 0x0000
    410016c8:	0004                	.insn	2, 0x0004
    410016ca:	0000                	.insn	2, 0x0000
    410016cc:	0036                	.insn	2, 0x0036
    410016ce:	0000                	.insn	2, 0x0000
    410016d0:	0000002b          	.insn	4, 0x002b
    410016d4:	00000003          	lb	x0,0(x0) # 0 <ALL_4KB_PAGES>
    410016d8:	0000000f          	fence	unknown,unknown
    410016dc:	001c                	.insn	2, 0x001c
    410016de:	0000                	.insn	2, 0x0000
    410016e0:	00000017          	auipc	x0,0x0
    410016e4:	0000000f          	fence	unknown,unknown
    410016e8:	00000007          	vle8.v	v0,(x0),v0.t
    410016ec:	00000023          	sb	x0,0(x0) # 0 <ALL_4KB_PAGES>
    410016f0:	002c                	.insn	2, 0x002c
    410016f2:	0000                	.insn	2, 0x0000
    410016f4:	0011                	.insn	2, 0x0011
    410016f6:	0000                	.insn	2, 0x0000
    410016f8:	000a                	.insn	2, 0x000a
    410016fa:	0000                	.insn	2, 0x0000
    410016fc:	0014                	.insn	2, 0x0014
    410016fe:	0000                	.insn	2, 0x0000
    41001700:	0001                	.insn	2, 0x0001
    41001702:	0000                	.insn	2, 0x0000
    41001704:	0021                	.insn	2, 0x0021
    41001706:	0000                	.insn	2, 0x0000
    41001708:	0010                	.insn	2, 0x0010
    4100170a:	0000                	.insn	2, 0x0000
    4100170c:	0029                	.insn	2, 0x0029
    4100170e:	0000                	.insn	2, 0x0000
    41001710:	0015                	.insn	2, 0x0015
    41001712:	0000                	.insn	2, 0x0000
    41001714:	0019                	.insn	2, 0x0019
    41001716:	0000                	.insn	2, 0x0000
    41001718:	000c                	.insn	2, 0x000c
    4100171a:	0000                	.insn	2, 0x0000
    4100171c:	000c                	.insn	2, 0x000c
    4100171e:	0000                	.insn	2, 0x0000
    41001720:	0034                	.insn	2, 0x0034
    41001722:	0000                	.insn	2, 0x0000
    41001724:	001c                	.insn	2, 0x001c
    41001726:	0000                	.insn	2, 0x0000
    41001728:	00000023          	sb	x0,0(x0) # 0 <ALL_4KB_PAGES>
    4100172c:	0024                	.insn	2, 0x0024
    4100172e:	0000                	.insn	2, 0x0000
    41001730:	0012                	.insn	2, 0x0012
    41001732:	0000                	.insn	2, 0x0000
    41001734:	0015                	.insn	2, 0x0015
    41001736:	0000                	.insn	2, 0x0000
    41001738:	001e                	.insn	2, 0x001e
    4100173a:	0000                	.insn	2, 0x0000
    4100173c:	0034                	.insn	2, 0x0034
    4100173e:	0000                	.insn	2, 0x0000
    41001740:	000e                	.insn	2, 0x000e
    41001742:	0000                	.insn	2, 0x0000
    41001744:	001f 0000 0005      	.insn	6, 0x00050000001f
    4100174a:	0000                	.insn	2, 0x0000
    4100174c:	000c                	.insn	2, 0x000c
    4100174e:	0000                	.insn	2, 0x0000
    41001750:	00000033          	add	x0,x0,x0
    41001754:	001e                	.insn	2, 0x001e
    41001756:	0000                	.insn	2, 0x0000
    41001758:	001a                	.insn	2, 0x001a
    4100175a:	0000                	.insn	2, 0x0000
    4100175c:	00000007          	vle8.v	v0,(x0),v0.t
    41001760:	0004                	.insn	2, 0x0004
    41001762:	0000                	.insn	2, 0x0000
    41001764:	0000001b          	sext.w	x0,x0
    41001768:	00000027          	vse8.v	v0,(x0),v0.t
    4100176c:	00000017          	auipc	x0,0x0
    41001770:	0000002b          	.insn	4, 0x002b
    41001774:	00000023          	sb	x0,0(x0) # 0 <ALL_4KB_PAGES>
    41001778:	0034                	.insn	2, 0x0034
    4100177a:	0000                	.insn	2, 0x0000
    4100177c:	00000037          	lui	x0,0x0
    41001780:	0018                	.insn	2, 0x0018
    41001782:	0000                	.insn	2, 0x0000
    41001784:	00000027          	vse8.v	v0,(x0),v0.t
    41001788:	002d                	.insn	2, 0x002d
    4100178a:	0000                	.insn	2, 0x0000
    4100178c:	002c                	.insn	2, 0x002c
    4100178e:	0000                	.insn	2, 0x0000
    41001790:	001d                	.insn	2, 0x001d
    41001792:	0000                	.insn	2, 0x0000
    41001794:	00000013          	nop
    41001798:	0036                	.insn	2, 0x0036
    4100179a:	0000                	.insn	2, 0x0000
    4100179c:	0025                	.insn	2, 0x0025
    4100179e:	0000                	.insn	2, 0x0000
    410017a0:	0012                	.insn	2, 0x0012
    410017a2:	0000                	.insn	2, 0x0000
    410017a4:	002d                	.insn	2, 0x002d
    410017a6:	0000                	.insn	2, 0x0000
    410017a8:	0030                	.insn	2, 0x0030
    410017aa:	0000                	.insn	2, 0x0000
    410017ac:	0024                	.insn	2, 0x0024
    410017ae:	0000                	.insn	2, 0x0000
    410017b0:	0012                	.insn	2, 0x0012
    410017b2:	0000                	.insn	2, 0x0000
    410017b4:	0035                	.insn	2, 0x0035
    410017b6:	0000                	.insn	2, 0x0000
    410017b8:	0000                	.insn	2, 0x0000
    410017ba:	0000                	.insn	2, 0x0000
    410017bc:	002e                	.insn	2, 0x002e
    410017be:	0000                	.insn	2, 0x0000
    410017c0:	0002                	.insn	2, 0x0002
    410017c2:	0000                	.insn	2, 0x0000
    410017c4:	0001                	.insn	2, 0x0001
    410017c6:	0000                	.insn	2, 0x0000
    410017c8:	00000033          	add	x0,x0,x0
    410017cc:	0000001b          	sext.w	x0,x0
    410017d0:	0008                	.insn	2, 0x0008
    410017d2:	0000                	.insn	2, 0x0000
    410017d4:	00000013          	nop
    410017d8:	0016                	.insn	2, 0x0016
    410017da:	0000                	.insn	2, 0x0000
    410017dc:	0026                	.insn	2, 0x0026
    410017de:	0000                	.insn	2, 0x0000
    410017e0:	0000                	.insn	2, 0x0000
    410017e2:	0000                	.insn	2, 0x0000
    410017e4:	0024                	.insn	2, 0x0024
    410017e6:	0000                	.insn	2, 0x0000
    410017e8:	0021                	.insn	2, 0x0021
    410017ea:	0000                	.insn	2, 0x0000
    410017ec:	0002                	.insn	2, 0x0002
    410017ee:	0000                	.insn	2, 0x0000
    410017f0:	0029                	.insn	2, 0x0029
    410017f2:	0000                	.insn	2, 0x0000
    410017f4:	0008                	.insn	2, 0x0008
    410017f6:	0000                	.insn	2, 0x0000
    410017f8:	0011                	.insn	2, 0x0011
    410017fa:	0000                	.insn	2, 0x0000
    410017fc:	0020                	.insn	2, 0x0020
    410017fe:	0000                	.insn	2, 0x0000
    41001800:	0028                	.insn	2, 0x0028
    41001802:	0000                	.insn	2, 0x0000
    41001804:	0026                	.insn	2, 0x0026
    41001806:	0000                	.insn	2, 0x0000
    41001808:	002a                	.insn	2, 0x002a
    4100180a:	0000                	.insn	2, 0x0000
    4100180c:	000a                	.insn	2, 0x000a
    4100180e:	0000                	.insn	2, 0x0000
    41001810:	0015                	.insn	2, 0x0015
    41001812:	0000                	.insn	2, 0x0000
    41001814:	0005                	.insn	2, 0x0005
    41001816:	0000                	.insn	2, 0x0000
    41001818:	0030                	.insn	2, 0x0030
    4100181a:	0000                	.insn	2, 0x0000
    4100181c:	0000000b          	.insn	4, 0x000b
    41001820:	0000                	.insn	2, 0x0000
	...

0000000041001824 <scheduler__test_setup_ptr>:
    41001824:	4090                	.insn	2, 0x4090
    41001826:	4101                	.insn	2, 0x4101
    41001828:	0000                	.insn	2, 0x0000
	...

000000004100182c <scheduler__test_cleanup_ptr>:
    4100182c:	0f78                	.insn	2, 0x0f78
    4100182e:	00004103          	lbu	x2,0(x0) # 0 <ALL_4KB_PAGES>
	...

Disassembly of section .runtime_s:

0000000041010000 <trap_handler_s__invalid_interrupt>:
    41010000:	1740006f          	j	41010174 <trap_handler_s__test_failed>

0000000041010004 <trap_handler_s__clear_all_interrupts>:
    41010004:	14401073          	csrw	sip,x0
    41010008:	10200073          	sret

000000004101000c <trap_handler_s___CLEAR_SSI>:
    4101000c:	00200293          	li	x5,2
    41010010:	1442b073          	csrc	sip,x5
    41010014:	10200073          	sret

0000000041010018 <trap_handler_s___CLEAR_MSI>:
    41010018:	00800293          	li	x5,8
    4101001c:	1442b073          	csrc	sip,x5
    41010020:	10200073          	sret

0000000041010024 <trap_handler_s___CLEAR_STI>:
    41010024:	02000293          	li	x5,32
    41010028:	1442b073          	csrc	sip,x5
    4101002c:	10200073          	sret

0000000041010030 <trap_handler_s___CLEAR_MTI>:
    41010030:	08000293          	li	x5,128
    41010034:	1442b073          	csrc	sip,x5
    41010038:	10200073          	sret

000000004101003c <trap_handler_s___CLEAR_SEI>:
    4101003c:	20000293          	li	x5,512
    41010040:	1442b073          	csrc	sip,x5
    41010044:	10200073          	sret

0000000041010048 <trap_handler_s___CLEAR_MEI>:
    41010048:	000012b7          	lui	x5,0x1
    4101004c:	8002829b          	addiw	x5,x5,-2048 # 800 <XLEN+0x7c0>
    41010050:	1442b073          	csrc	sip,x5
    41010054:	10200073          	sret

0000000041010058 <trap_handler_s___CLEAR_COI>:
    41010058:	000022b7          	lui	x5,0x2
    4101005c:	1442b073          	csrc	sip,x5
    41010060:	10200073          	sret

0000000041010064 <trap_handler_s__clear_highest_priority_interrupt>:
    41010064:	144022f3          	csrr	x5,sip
    41010068:	40500333          	neg	x6,x5
    4101006c:	0062f2b3          	and	x5,x5,x6
    41010070:	1442b073          	csrc	sip,x5
    41010074:	10200073          	sret

0000000041010078 <trap_handler_s__trap_entry>:
    41010078:	10c0006f          	j	41010184 <trap_handler_s__trap_handler>

000000004101007c <trap_handler_s__interrupt_vector_table>:
    4101007c:	f91ff06f          	j	4101000c <trap_handler_s___CLEAR_SSI>
    41010080:	f81ff06f          	j	41010000 <trap_handler_s__invalid_interrupt>
    41010084:	f95ff06f          	j	41010018 <trap_handler_s___CLEAR_MSI>
    41010088:	f79ff06f          	j	41010000 <trap_handler_s__invalid_interrupt>
    4101008c:	f99ff06f          	j	41010024 <trap_handler_s___CLEAR_STI>
    41010090:	f71ff06f          	j	41010000 <trap_handler_s__invalid_interrupt>
    41010094:	f9dff06f          	j	41010030 <trap_handler_s___CLEAR_MTI>
    41010098:	f69ff06f          	j	41010000 <trap_handler_s__invalid_interrupt>
    4101009c:	fa1ff06f          	j	4101003c <trap_handler_s___CLEAR_SEI>
    410100a0:	f61ff06f          	j	41010000 <trap_handler_s__invalid_interrupt>
    410100a4:	fa5ff06f          	j	41010048 <trap_handler_s___CLEAR_MEI>
    410100a8:	f59ff06f          	j	41010000 <trap_handler_s__invalid_interrupt>
    410100ac:	fadff06f          	j	41010058 <trap_handler_s___CLEAR_COI>
    410100b0:	f51ff06f          	j	41010000 <trap_handler_s__invalid_interrupt>
    410100b4:	f4dff06f          	j	41010000 <trap_handler_s__invalid_interrupt>
    410100b8:	fadff06f          	j	41010064 <trap_handler_s__clear_highest_priority_interrupt>
    410100bc:	fa9ff06f          	j	41010064 <trap_handler_s__clear_highest_priority_interrupt>
    410100c0:	fa5ff06f          	j	41010064 <trap_handler_s__clear_highest_priority_interrupt>
    410100c4:	fa1ff06f          	j	41010064 <trap_handler_s__clear_highest_priority_interrupt>
    410100c8:	f9dff06f          	j	41010064 <trap_handler_s__clear_highest_priority_interrupt>
    410100cc:	f99ff06f          	j	41010064 <trap_handler_s__clear_highest_priority_interrupt>
    410100d0:	f95ff06f          	j	41010064 <trap_handler_s__clear_highest_priority_interrupt>
    410100d4:	f91ff06f          	j	41010064 <trap_handler_s__clear_highest_priority_interrupt>
    410100d8:	f8dff06f          	j	41010064 <trap_handler_s__clear_highest_priority_interrupt>
    410100dc:	f89ff06f          	j	41010064 <trap_handler_s__clear_highest_priority_interrupt>
    410100e0:	f85ff06f          	j	41010064 <trap_handler_s__clear_highest_priority_interrupt>
    410100e4:	f81ff06f          	j	41010064 <trap_handler_s__clear_highest_priority_interrupt>
    410100e8:	f7dff06f          	j	41010064 <trap_handler_s__clear_highest_priority_interrupt>
    410100ec:	f79ff06f          	j	41010064 <trap_handler_s__clear_highest_priority_interrupt>
    410100f0:	f75ff06f          	j	41010064 <trap_handler_s__clear_highest_priority_interrupt>
    410100f4:	f71ff06f          	j	41010064 <trap_handler_s__clear_highest_priority_interrupt>
    410100f8:	f6dff06f          	j	41010064 <trap_handler_s__clear_highest_priority_interrupt>
    410100fc:	f69ff06f          	j	41010064 <trap_handler_s__clear_highest_priority_interrupt>
    41010100:	f65ff06f          	j	41010064 <trap_handler_s__clear_highest_priority_interrupt>
    41010104:	f61ff06f          	j	41010064 <trap_handler_s__clear_highest_priority_interrupt>
    41010108:	f5dff06f          	j	41010064 <trap_handler_s__clear_highest_priority_interrupt>
    4101010c:	f59ff06f          	j	41010064 <trap_handler_s__clear_highest_priority_interrupt>
    41010110:	f55ff06f          	j	41010064 <trap_handler_s__clear_highest_priority_interrupt>
    41010114:	f51ff06f          	j	41010064 <trap_handler_s__clear_highest_priority_interrupt>
    41010118:	f4dff06f          	j	41010064 <trap_handler_s__clear_highest_priority_interrupt>
    4101011c:	f49ff06f          	j	41010064 <trap_handler_s__clear_highest_priority_interrupt>
    41010120:	f45ff06f          	j	41010064 <trap_handler_s__clear_highest_priority_interrupt>
    41010124:	f41ff06f          	j	41010064 <trap_handler_s__clear_highest_priority_interrupt>
    41010128:	f3dff06f          	j	41010064 <trap_handler_s__clear_highest_priority_interrupt>
    4101012c:	f39ff06f          	j	41010064 <trap_handler_s__clear_highest_priority_interrupt>
    41010130:	f35ff06f          	j	41010064 <trap_handler_s__clear_highest_priority_interrupt>
    41010134:	f31ff06f          	j	41010064 <trap_handler_s__clear_highest_priority_interrupt>
    41010138:	f2dff06f          	j	41010064 <trap_handler_s__clear_highest_priority_interrupt>
    4101013c:	f29ff06f          	j	41010064 <trap_handler_s__clear_highest_priority_interrupt>
    41010140:	f25ff06f          	j	41010064 <trap_handler_s__clear_highest_priority_interrupt>
    41010144:	f21ff06f          	j	41010064 <trap_handler_s__clear_highest_priority_interrupt>
    41010148:	f1dff06f          	j	41010064 <trap_handler_s__clear_highest_priority_interrupt>
    4101014c:	f19ff06f          	j	41010064 <trap_handler_s__clear_highest_priority_interrupt>
    41010150:	f15ff06f          	j	41010064 <trap_handler_s__clear_highest_priority_interrupt>
    41010154:	f11ff06f          	j	41010064 <trap_handler_s__clear_highest_priority_interrupt>
    41010158:	f0dff06f          	j	41010064 <trap_handler_s__clear_highest_priority_interrupt>
    4101015c:	f09ff06f          	j	41010064 <trap_handler_s__clear_highest_priority_interrupt>
    41010160:	f05ff06f          	j	41010064 <trap_handler_s__clear_highest_priority_interrupt>
    41010164:	f01ff06f          	j	41010064 <trap_handler_s__clear_highest_priority_interrupt>
    41010168:	efdff06f          	j	41010064 <trap_handler_s__clear_highest_priority_interrupt>
    4101016c:	ef9ff06f          	j	41010064 <trap_handler_s__clear_highest_priority_interrupt>
    41010170:	ef5ff06f          	j	41010064 <trap_handler_s__clear_highest_priority_interrupt>

0000000041010174 <trap_handler_s__test_failed>:
    41010174:	00f00f9b          	addiw	x31,x0,15
    41010178:	01cf9f93          	slli	x31,x31,0x1c
    4101017c:	002f8f93          	addi	x31,x31,2
    41010180:	00000073          	ecall

0000000041010184 <trap_handler_s__trap_handler>:
    41010184:	142022f3          	csrr	x5,scause
    41010188:	fff0031b          	addiw	x6,x0,-1
    4101018c:	03f31313          	slli	x6,x6,0x3f
    41010190:	00537333          	and	x6,x6,x5
    41010194:	02030263          	beqz	x6,410101b8 <trap_handler_s__exception_path>

0000000041010198 <trap_handler_s__interrupt_handler>:
    41010198:	fff0031b          	addiw	x6,x0,-1
    4101019c:	03f31313          	slli	x6,x6,0x3f
    410101a0:	0062c2b3          	xor	x5,x5,x6
    410101a4:	00000317          	auipc	x6,0x0
    410101a8:	ed430313          	addi	x6,x6,-300 # 41010078 <trap_handler_s__trap_entry>
    410101ac:	00229293          	slli	x5,x5,0x2
    410101b0:	005302b3          	add	x5,x6,x5
    410101b4:	00028067          	jr	x5 # 2000 <pma_region_1_size+0x1000>

00000000410101b8 <trap_handler_s__exception_path>:
    410101b8:	14021273          	csrrw	x4,sscratch,x4
    410101bc:	00000297          	auipc	x5,0x0
    410101c0:	0cc28293          	addi	x5,x5,204 # 41010288 <trap_handler_s__trap_panic>
    410101c4:	10529073          	csrw	stvec,x5
    410101c8:	0040006f          	j	410101cc <trap_handler_s__excp_entry>

00000000410101cc <trap_handler_s__excp_entry>:
    410101cc:	14202373          	csrr	x6,scause
    410101d0:	00800293          	li	x5,8
    410101d4:	00534863          	blt	x6,x5,410101e4 <trap_handler_s__check_exception_label>
    410101d8:	00b00293          	li	x5,11
    410101dc:	0062c463          	blt	x5,x6,410101e4 <trap_handler_s__check_exception_label>
    410101e0:	0a80006f          	j	41010288 <trap_handler_s__trap_panic>

00000000410101e4 <trap_handler_s__check_exception_label>:
    410101e4:	04623c23          	sd	x6,88(x4) # 820020a4 <pma_region_2_end+0x3cfc10a4>
    410101e8:	141022f3          	csrr	x5,sepc
    410101ec:	02523423          	sd	x5,40(x4) # 28 <SECURE_ACCESS_PROBABILITY+0xa>
    410101f0:	01820283          	lb	x5,24(x4) # 18 <STORE_GUEST_PAGE_FAULT+0x1>
    410101f4:	00029863          	bnez	x5,41010204 <trap_handler_s__check_excp>
    410101f8:	00128293          	addi	x5,x5,1
    410101fc:	00520c23          	sb	x5,24(x4) # 18 <STORE_GUEST_PAGE_FAULT+0x1>
    41010200:	05c0006f          	j	4101025c <trap_handler_s__ecall_from_machine>

0000000041010204 <trap_handler_s__check_excp>:
    41010204:	06823283          	ld	x5,104(x4) # 68 <XLEN+0x28>
    41010208:	06023423          	sd	x0,104(x4) # 68 <XLEN+0x28>
    4101020c:	00028663          	beqz	x5,41010218 <trap_handler_s__skip_mode_check>
    41010210:	00300393          	li	x7,3
    41010214:	f67290e3          	bne	x5,x7,41010174 <trap_handler_s__test_failed>

0000000041010218 <trap_handler_s__skip_mode_check>:
    41010218:	05023283          	ld	x5,80(x4) # 50 <XLEN+0x10>
    4101021c:	04023823          	sd	x0,80(x4) # 50 <XLEN+0x10>
    41010220:	f4531ae3          	bne	x6,x5,41010174 <trap_handler_s__test_failed>
    41010224:	03823283          	ld	x5,56(x4) # 38 <SECURE_ACCESS_PROBABILITY+0x1a>
    41010228:	02023c23          	sd	x0,56(x4) # 38 <SECURE_ACCESS_PROBABILITY+0x1a>
    4101022c:	02029663          	bnez	x5,41010258 <trap_handler_s__skip_nonzero_tval_check>
    41010230:	02023303          	ld	x6,32(x4) # 20 <SECURE_ACCESS_PROBABILITY+0x2>
    41010234:	02023023          	sd	x0,32(x4) # 20 <SECURE_ACCESS_PROBABILITY+0x2>
    41010238:	02823283          	ld	x5,40(x4) # 28 <SECURE_ACCESS_PROBABILITY+0xa>
    4101023c:	02023423          	sd	x0,40(x4) # 28 <SECURE_ACCESS_PROBABILITY+0xa>
    41010240:	f2531ae3          	bne	x6,x5,41010174 <trap_handler_s__test_failed>
    41010244:	04023283          	ld	x5,64(x4) # 40 <XLEN>
    41010248:	04023023          	sd	x0,64(x4) # 40 <XLEN>
    4101024c:	00028663          	beqz	x5,41010258 <trap_handler_s__skip_nonzero_tval_check>

0000000041010250 <trap_handler_s__nonzero_tval_check>:
    41010250:	14302373          	csrr	x6,stval
    41010254:	f25310e3          	bne	x6,x5,41010174 <trap_handler_s__test_failed>

0000000041010258 <trap_handler_s__skip_nonzero_tval_check>:
    41010258:	0040006f          	j	4101025c <trap_handler_s__ecall_from_machine>

000000004101025c <trap_handler_s__ecall_from_machine>:
    4101025c:	03023283          	ld	x5,48(x4) # 30 <SECURE_ACCESS_PROBABILITY+0x12>
    41010260:	02023823          	sd	x0,48(x4) # 30 <SECURE_ACCESS_PROBABILITY+0x12>
    41010264:	07023303          	ld	x6,112(x4) # 70 <XLEN+0x30>
    41010268:	06023823          	sd	x0,112(x4) # 70 <XLEN+0x30>
    4101026c:	00031463          	bnez	x6,41010274 <trap_handler_s__skip_xepc_write>
    41010270:	14129073          	csrw	sepc,x5

0000000041010274 <trap_handler_s__skip_xepc_write>:
    41010274:	00000317          	auipc	x6,0x0
    41010278:	e0430313          	addi	x6,x6,-508 # 41010078 <trap_handler_s__trap_entry>
    4101027c:	10531073          	csrw	stvec,x6
    41010280:	14021273          	csrrw	x4,sscratch,x4
    41010284:	10200073          	sret

0000000041010288 <trap_handler_s__trap_panic>:
    41010288:	00000193          	li	x3,0
    4101028c:	00f00f9b          	addiw	x31,x0,15
    41010290:	01cf9f93          	slli	x31,x31,0x1c
    41010294:	002f8f93          	addi	x31,x31,2
    41010298:	00000073          	ecall

Disassembly of section .code:

0000000041014060 <passed>:
    41014060:	415722b7          	lui	x5,0x41572
    41014064:	0182829b          	addiw	x5,x5,24 # 41572018 <os_passed_addr>
    41014068:	0002b303          	ld	x6,0(x5)
    4101406c:	00030067          	jr	x6

0000000041014070 <failed>:
    41014070:	415722b7          	lui	x5,0x41572
    41014074:	0202829b          	addiw	x5,x5,32 # 41572020 <os_failed_addr>
    41014078:	0002b303          	ld	x6,0(x5)
    4101407c:	00030067          	jr	x6

0000000041014080 <end_test>:
    41014080:	415722b7          	lui	x5,0x41572
    41014084:	0282829b          	addiw	x5,x5,40 # 41572028 <os_end_test_addr>
    41014088:	0002b303          	ld	x6,0(x5)
    4101408c:	00030067          	jr	x6

0000000041014090 <test_setup>:
    41014090:	415722b7          	lui	x5,0x41572
    41014094:	0182829b          	addiw	x5,x5,24 # 41572018 <os_passed_addr>
    41014098:	0002b303          	ld	x6,0(x5)
    4101409c:	00030067          	jr	x6

00000000410140a0 <SID_ZKT_02>:
    410140a0:	41d4e137          	lui	x2,0x41d4e
    410140a4:	000012b7          	lui	x5,0x1
    410140a8:	00510133          	add	x2,x2,x5
    410140ac:	ff017113          	andi	x2,x2,-16
    410140b0:	00000313          	li	x6,0
    410140b4:	c01029f3          	rdtime	x19
    410140b8:	c00025f3          	rdcycle	x11
    410140bc:	c0202473          	rdinstret	x8
    410140c0:	006ca717          	auipc	x14,0x6ca
    410140c4:	0066ec97          	auipc	x25,0x66e
    410140c8:	0061fc97          	auipc	x25,0x61f
    410140cc:	00084e17          	auipc	x28,0x84
    410140d0:	0020dc97          	auipc	x25,0x20d
    410140d4:	000f4c17          	auipc	x24,0xf4
    410140d8:	003f9f97          	auipc	x31,0x3f9
    410140dc:	00619897          	auipc	x17,0x619
    410140e0:	0039bc17          	auipc	x24,0x39b
    410140e4:	003cac17          	auipc	x24,0x3ca
    410140e8:	00539317          	auipc	x6,0x539
    410140ec:	0030ce97          	auipc	x29,0x30c
    410140f0:	00652917          	auipc	x18,0x652
    410140f4:	001b0c97          	auipc	x25,0x1b0
    410140f8:	000c3e97          	auipc	x29,0xc3
    410140fc:	003ea397          	auipc	x7,0x3ea
    41014100:	0003df17          	auipc	x30,0x3d
    41014104:	00728397          	auipc	x7,0x728
    41014108:	006b2917          	auipc	x18,0x6b2
    4101410c:	00321d17          	auipc	x26,0x321
    41014110:	00379917          	auipc	x18,0x379
    41014114:	004df397          	auipc	x7,0x4df
    41014118:	0061cf97          	auipc	x31,0x61c
    4101411c:	00626517          	auipc	x10,0x626
    41014120:	00007d97          	auipc	x27,0x7
    41014124:	00594817          	auipc	x16,0x594
    41014128:	00393b17          	auipc	x22,0x393
    4101412c:	00224617          	auipc	x12,0x224
    41014130:	005c8c17          	auipc	x24,0x5c8
    41014134:	0066d797          	auipc	x15,0x66d
    41014138:	001d7a17          	auipc	x20,0x1d7
    4101413c:	004bde97          	auipc	x29,0x4bd
    41014140:	00792f17          	auipc	x30,0x792
    41014144:	000d4e17          	auipc	x28,0xd4
    41014148:	00739d97          	auipc	x27,0x739
    4101414c:	0028da17          	auipc	x20,0x28d
    41014150:	00041d17          	auipc	x26,0x41
    41014154:	00030717          	auipc	x14,0x30
    41014158:	00037497          	auipc	x9,0x37
    4101415c:	00535e17          	auipc	x28,0x535
    41014160:	00457a97          	auipc	x21,0x457
    41014164:	00015d17          	auipc	x26,0x15
    41014168:	00786397          	auipc	x7,0x786
    4101416c:	0070f497          	auipc	x9,0x70f
    41014170:	0030ff17          	auipc	x30,0x30f
    41014174:	00580917          	auipc	x18,0x580
    41014178:	001be917          	auipc	x18,0x1be
    4101417c:	007c3397          	auipc	x7,0x7c3
    41014180:	00363e17          	auipc	x28,0x363
    41014184:	005d1b97          	auipc	x23,0x5d1
    41014188:	0003ed97          	auipc	x27,0x3e
    4101418c:	0043b817          	auipc	x16,0x43b
    41014190:	001c9a17          	auipc	x20,0x1c9
    41014194:	0061fc97          	auipc	x25,0x61f
    41014198:	00383617          	auipc	x12,0x383
    4101419c:	00786d97          	auipc	x27,0x786
    410141a0:	003fa617          	auipc	x12,0x3fa
    410141a4:	0046ff17          	auipc	x30,0x46f
    410141a8:	001e0a17          	auipc	x20,0x1e0
    410141ac:	002c6c17          	auipc	x24,0x2c6
    410141b0:	001dbb97          	auipc	x23,0x1db
    410141b4:	0056df97          	auipc	x31,0x56d
    410141b8:	001c3b97          	auipc	x23,0x1c3
    410141bc:	00619397          	auipc	x7,0x619
    410141c0:	003b0d17          	auipc	x26,0x3b0
    410141c4:	007a1f17          	auipc	x30,0x7a1
    410141c8:	00254617          	auipc	x12,0x254
    410141cc:	0076c697          	auipc	x13,0x76c
    410141d0:	0002fe17          	auipc	x28,0x2f
    410141d4:	00357f17          	auipc	x30,0x357
    410141d8:	006b6d97          	auipc	x27,0x6b6
    410141dc:	00757917          	auipc	x18,0x757
    410141e0:	00476897          	auipc	x17,0x476
    410141e4:	00763717          	auipc	x14,0x763
    410141e8:	00526497          	auipc	x9,0x526
    410141ec:	000cff97          	auipc	x31,0xcf
    410141f0:	0017f917          	auipc	x18,0x17f
    410141f4:	0050be97          	auipc	x29,0x50b
    410141f8:	007f3397          	auipc	x7,0x7f3
    410141fc:	005cde17          	auipc	x28,0x5cd
    41014200:	006e4c97          	auipc	x25,0x6e4
    41014204:	00262b97          	auipc	x23,0x262
    41014208:	000fac97          	auipc	x25,0xfa
    4101420c:	005f4797          	auipc	x15,0x5f4
    41014210:	002ac897          	auipc	x17,0x2ac
    41014214:	0072d397          	auipc	x7,0x72d
    41014218:	005c8d97          	auipc	x27,0x5c8
    4101421c:	007cc397          	auipc	x7,0x7cc
    41014220:	005b3b97          	auipc	x23,0x5b3
    41014224:	00404e97          	auipc	x29,0x404
    41014228:	00780797          	auipc	x15,0x780
    4101422c:	007bfd17          	auipc	x26,0x7bf
    41014230:	00363b17          	auipc	x22,0x363
    41014234:	00412517          	auipc	x10,0x412
    41014238:	006a6817          	auipc	x16,0x6a6
    4101423c:	0074b617          	auipc	x12,0x74b
    41014240:	0055ff17          	auipc	x30,0x55f
    41014244:	00187717          	auipc	x14,0x187
    41014248:	00270b17          	auipc	x22,0x270
    4101424c:	00248f97          	auipc	x31,0x248
    41014250:	c0102cf3          	rdtime	x25
    41014254:	c00023f3          	rdcycle	x7
    41014258:	c0202b73          	rdinstret	x22
    4101425c:	413c8633          	sub	x12,x25,x19
    41014260:	40b388b3          	sub	x17,x7,x11
    41014264:	408b07b3          	sub	x15,x22,x8
    41014268:	00000e93          	li	x29,0
    4101426c:	c0102d73          	rdtime	x26
    41014270:	c0002c73          	rdcycle	x24
    41014274:	c0202573          	rdinstret	x10
    41014278:	004b6d97          	auipc	x27,0x4b6
    4101427c:	007ccb17          	auipc	x22,0x7cc
    41014280:	00712b17          	auipc	x22,0x712
    41014284:	00401597          	auipc	x11,0x401
    41014288:	006c8497          	auipc	x9,0x6c8
    4101428c:	00789e97          	auipc	x29,0x789
    41014290:	0040d797          	auipc	x15,0x40d
    41014294:	00328697          	auipc	x13,0x328
    41014298:	004b9997          	auipc	x19,0x4b9
    4101429c:	006d6a97          	auipc	x21,0x6d6
    410142a0:	00049417          	auipc	x8,0x49
    410142a4:	003da917          	auipc	x18,0x3da
    410142a8:	001f4d97          	auipc	x27,0x1f4
    410142ac:	005f6817          	auipc	x16,0x5f6
    410142b0:	00664f17          	auipc	x30,0x664
    410142b4:	0033eb17          	auipc	x22,0x33e
    410142b8:	00353b97          	auipc	x23,0x353
    410142bc:	00554817          	auipc	x16,0x554
    410142c0:	00165d97          	auipc	x27,0x165
    410142c4:	002f2797          	auipc	x15,0x2f2
    410142c8:	00466e17          	auipc	x28,0x466
    410142cc:	00712b97          	auipc	x23,0x712
    410142d0:	005a2b17          	auipc	x22,0x5a2
    410142d4:	00637897          	auipc	x17,0x637
    410142d8:	00568797          	auipc	x15,0x568
    410142dc:	005ea717          	auipc	x14,0x5ea
    410142e0:	00302e97          	auipc	x29,0x302
    410142e4:	000b4417          	auipc	x8,0xb4
    410142e8:	00385997          	auipc	x19,0x385
    410142ec:	00552797          	auipc	x15,0x552
    410142f0:	00414897          	auipc	x17,0x414
    410142f4:	000e0c97          	auipc	x25,0xe0
    410142f8:	0063db97          	auipc	x23,0x63d
    410142fc:	00152a97          	auipc	x21,0x152
    41014300:	0042d617          	auipc	x12,0x42d
    41014304:	006bba17          	auipc	x20,0x6bb
    41014308:	00328d97          	auipc	x27,0x328
    4101430c:	002f9317          	auipc	x6,0x2f9
    41014310:	003ed617          	auipc	x12,0x3ed
    41014314:	005df317          	auipc	x6,0x5df
    41014318:	0003ff97          	auipc	x31,0x3f
    4101431c:	003c4497          	auipc	x9,0x3c4
    41014320:	0005c897          	auipc	x17,0x5c
    41014324:	0027a917          	auipc	x18,0x27a
    41014328:	005a3597          	auipc	x11,0x5a3
    4101432c:	006cc717          	auipc	x14,0x6cc
    41014330:	007e0417          	auipc	x8,0x7e0
    41014334:	004ee897          	auipc	x17,0x4ee
    41014338:	004c1d97          	auipc	x27,0x4c1
    4101433c:	004a3b17          	auipc	x22,0x4a3
    41014340:	00329817          	auipc	x16,0x329
    41014344:	00530497          	auipc	x9,0x530
    41014348:	0015f997          	auipc	x19,0x15f
    4101434c:	0015c497          	auipc	x9,0x15c
    41014350:	00407b97          	auipc	x23,0x407
    41014354:	001d3797          	auipc	x15,0x1d3
    41014358:	007dee17          	auipc	x28,0x7de
    4101435c:	0001c417          	auipc	x8,0x1c
    41014360:	0062d717          	auipc	x14,0x62d
    41014364:	0019b497          	auipc	x9,0x19b
    41014368:	00454f97          	auipc	x31,0x454
    4101436c:	0075f797          	auipc	x15,0x75f
    41014370:	006e4317          	auipc	x6,0x6e4
    41014374:	00465317          	auipc	x6,0x465
    41014378:	001deb97          	auipc	x23,0x1de
    4101437c:	0033f897          	auipc	x17,0x33f
    41014380:	0041fe97          	auipc	x29,0x41f
    41014384:	002c3617          	auipc	x12,0x2c3
    41014388:	007a1897          	auipc	x17,0x7a1
    4101438c:	006ca817          	auipc	x16,0x6ca
    41014390:	004a2697          	auipc	x13,0x4a2
    41014394:	002d6397          	auipc	x7,0x2d6
    41014398:	003aff17          	auipc	x30,0x3af
    4101439c:	0074a417          	auipc	x8,0x74a
    410143a0:	0022a697          	auipc	x13,0x22a
    410143a4:	00549497          	auipc	x9,0x549
    410143a8:	00465e97          	auipc	x29,0x465
    410143ac:	004e2317          	auipc	x6,0x4e2
    410143b0:	007abf97          	auipc	x31,0x7ab
    410143b4:	005d8617          	auipc	x12,0x5d8
    410143b8:	0000ea17          	auipc	x20,0xe
    410143bc:	00314917          	auipc	x18,0x314
    410143c0:	00647897          	auipc	x17,0x647
    410143c4:	006de617          	auipc	x12,0x6de
    410143c8:	00693697          	auipc	x13,0x693
    410143cc:	007a6d97          	auipc	x27,0x7a6
    410143d0:	00719b97          	auipc	x23,0x719
    410143d4:	00784717          	auipc	x14,0x784
    410143d8:	005ef697          	auipc	x13,0x5ef
    410143dc:	0041c897          	auipc	x17,0x41c
    410143e0:	0067c897          	auipc	x17,0x67c
    410143e4:	0010ba17          	auipc	x20,0x10b
    410143e8:	00429897          	auipc	x17,0x429
    410143ec:	0063b497          	auipc	x9,0x63b
    410143f0:	00480397          	auipc	x7,0x480
    410143f4:	001a7e17          	auipc	x28,0x1a7
    410143f8:	0036b697          	auipc	x13,0x36b
    410143fc:	0079c817          	auipc	x16,0x79c
    41014400:	00075317          	auipc	x6,0x75
    41014404:	003dcf17          	auipc	x30,0x3dc
    41014408:	c0102ef3          	rdtime	x29
    4101440c:	c0002bf3          	rdcycle	x23
    41014410:	c02025f3          	rdinstret	x11
    41014414:	41ae8633          	sub	x12,x29,x26
    41014418:	418b8b33          	sub	x22,x23,x24
    4101441c:	40a585b3          	sub	x11,x11,x10
    41014420:	00000693          	li	x13,0
    41014424:	c01029f3          	rdtime	x19
    41014428:	c0002bf3          	rdcycle	x23
    4101442c:	c0202673          	rdinstret	x12
    41014430:	006f8697          	auipc	x13,0x6f8
    41014434:	002ed497          	auipc	x9,0x2ed
    41014438:	00492717          	auipc	x14,0x492
    4101443c:	00472317          	auipc	x6,0x472
    41014440:	0019c397          	auipc	x7,0x19c
    41014444:	0078aa97          	auipc	x21,0x78a
    41014448:	0040cf17          	auipc	x30,0x40c
    4101444c:	00351d97          	auipc	x27,0x351
    41014450:	003e4e97          	auipc	x29,0x3e4
    41014454:	00684f17          	auipc	x30,0x684
    41014458:	002ddd17          	auipc	x26,0x2dd
    4101445c:	00353e17          	auipc	x28,0x353
    41014460:	002c7697          	auipc	x13,0x2c7
    41014464:	00006f97          	auipc	x31,0x6
    41014468:	00451d17          	auipc	x26,0x451
    4101446c:	00455f97          	auipc	x31,0x455
    41014470:	004ff697          	auipc	x13,0x4ff
    41014474:	0064df97          	auipc	x31,0x64d
    41014478:	004e9417          	auipc	x8,0x4e9
    4101447c:	002a9517          	auipc	x10,0x2a9
    41014480:	003ad497          	auipc	x9,0x3ad
    41014484:	004cfc97          	auipc	x25,0x4cf
    41014488:	0003c317          	auipc	x6,0x3c
    4101448c:	00672e17          	auipc	x28,0x672
    41014490:	001d9a17          	auipc	x20,0x1d9
    41014494:	00518d97          	auipc	x27,0x518
    41014498:	0016d317          	auipc	x6,0x16d
    4101449c:	0046a897          	auipc	x17,0x46a
    410144a0:	004af817          	auipc	x16,0x4af
    410144a4:	00175797          	auipc	x15,0x175
    410144a8:	006e6797          	auipc	x15,0x6e6
    410144ac:	000be917          	auipc	x18,0xbe
    410144b0:	00666417          	auipc	x8,0x666
    410144b4:	0046bc97          	auipc	x25,0x46b
    410144b8:	00663897          	auipc	x17,0x663
    410144bc:	006d2817          	auipc	x16,0x6d2
    410144c0:	0068be97          	auipc	x29,0x68b
    410144c4:	00775a97          	auipc	x21,0x775
    410144c8:	0020dc97          	auipc	x25,0x20d
    410144cc:	00045a17          	auipc	x20,0x45
    410144d0:	006be397          	auipc	x7,0x6be
    410144d4:	0078fe97          	auipc	x29,0x78f
    410144d8:	00565f97          	auipc	x31,0x565
    410144dc:	00093517          	auipc	x10,0x93
    410144e0:	000ad697          	auipc	x13,0xad
    410144e4:	006f4497          	auipc	x9,0x6f4
    410144e8:	00025897          	auipc	x17,0x25
    410144ec:	003a2417          	auipc	x8,0x3a2
    410144f0:	00020d17          	auipc	x26,0x20
    410144f4:	0060b697          	auipc	x13,0x60b
    410144f8:	0060ed17          	auipc	x26,0x60e
    410144fc:	00242a97          	auipc	x21,0x242
    41014500:	00202d97          	auipc	x27,0x202
    41014504:	00229917          	auipc	x18,0x229
    41014508:	000e3317          	auipc	x6,0xe3
    4101450c:	00663a97          	auipc	x21,0x663
    41014510:	00502717          	auipc	x14,0x502
    41014514:	0017d517          	auipc	x10,0x17d
    41014518:	002c4717          	auipc	x14,0x2c4
    4101451c:	00255317          	auipc	x6,0x255
    41014520:	00091a17          	auipc	x20,0x91
    41014524:	00159c97          	auipc	x25,0x159
    41014528:	00149897          	auipc	x17,0x149
    4101452c:	0020d917          	auipc	x18,0x20d
    41014530:	0043ba17          	auipc	x20,0x43b
    41014534:	007a0397          	auipc	x7,0x7a0
    41014538:	0015bf17          	auipc	x30,0x15b
    4101453c:	00543417          	auipc	x8,0x543
    41014540:	00231d17          	auipc	x26,0x231
    41014544:	00532797          	auipc	x15,0x532
    41014548:	005b4917          	auipc	x18,0x5b4
    4101454c:	0025e897          	auipc	x17,0x25e
    41014550:	003a6d17          	auipc	x26,0x3a6
    41014554:	005a1a97          	auipc	x21,0x5a1
    41014558:	00296917          	auipc	x18,0x296
    4101455c:	003fbf17          	auipc	x30,0x3fb
    41014560:	003cdd17          	auipc	x26,0x3cd
    41014564:	000ec417          	auipc	x8,0xec
    41014568:	00033c17          	auipc	x24,0x33
    4101456c:	00281397          	auipc	x7,0x281
    41014570:	0031ac97          	auipc	x25,0x31a
    41014574:	002c2697          	auipc	x13,0x2c2
    41014578:	00361317          	auipc	x6,0x361
    4101457c:	00661417          	auipc	x8,0x661
    41014580:	00184e17          	auipc	x28,0x184
    41014584:	00214e17          	auipc	x28,0x214
    41014588:	000e1d17          	auipc	x26,0xe1
    4101458c:	0020a417          	auipc	x8,0x20a
    41014590:	00735817          	auipc	x16,0x735
    41014594:	005daf97          	auipc	x31,0x5da
    41014598:	00417c17          	auipc	x24,0x417
    4101459c:	007d3817          	auipc	x16,0x7d3
    410145a0:	001af717          	auipc	x14,0x1af
    410145a4:	007bcc17          	auipc	x24,0x7bc
    410145a8:	004dba17          	auipc	x20,0x4db
    410145ac:	00377797          	auipc	x15,0x377
    410145b0:	0068c397          	auipc	x7,0x68c
    410145b4:	007d0c97          	auipc	x25,0x7d0
    410145b8:	0002d417          	auipc	x8,0x2d
    410145bc:	001d0397          	auipc	x7,0x1d0
    410145c0:	c0102ff3          	rdtime	x31
    410145c4:	c0002af3          	rdcycle	x21
    410145c8:	c0202df3          	rdinstret	x27
    410145cc:	413f8333          	sub	x6,x31,x19
    410145d0:	417a8433          	sub	x8,x21,x23
    410145d4:	40cd8eb3          	sub	x29,x27,x12
    410145d8:	008b0a63          	beq	x22,x8,410145ec <pass_label_0>
    410145dc:	415726b7          	lui	x13,0x41572
    410145e0:	0086869b          	addiw	x13,x13,8 # 41572008 <failed_addr>
    410145e4:	0006b303          	ld	x6,0(x13)
    410145e8:	00030067          	jr	x6 # 41375578 <SID_ZKT_03_SLLIW_stack+0x132578>

00000000410145ec <pass_label_0>:
    410145ec:	01d58a63          	beq	x11,x29,41014600 <SID_ZKT_02_passed>
    410145f0:	41572a37          	lui	x20,0x41572
    410145f4:	008a0a1b          	addiw	x20,x20,8 # 41572008 <failed_addr>
    410145f8:	000a3a83          	ld	x21,0(x20)
    410145fc:	000a8067          	jr	x21 # 415b5554 <SID_ZKT_05_AND_stack+0x11554>

0000000041014600 <SID_ZKT_02_passed>:
    41014600:	415722b7          	lui	x5,0x41572
    41014604:	0182829b          	addiw	x5,x5,24 # 41572018 <os_passed_addr>
    41014608:	0002b303          	ld	x6,0(x5)
    4101460c:	00030067          	jr	x6

0000000041014610 <SID_ZKT_03_ADDI>:
    41014610:	44b59137          	lui	x2,0x44b59
    41014614:	000012b7          	lui	x5,0x1
    41014618:	00510133          	add	x2,x2,x5
    4101461c:	ff017113          	andi	x2,x2,-16
    41014620:	00000413          	li	x8,0
    41014624:	c0102b73          	rdtime	x22
    41014628:	c0002ff3          	rdcycle	x31
    4101462c:	c0202773          	rdinstret	x14
    41014630:	72740e93          	addi	x29,x8,1831 # 41041cdf <__section__code_45+0xcdf>
    41014634:	533e8f13          	addi	x30,x29,1331 # 417a3a07 <SID_ZKT_05_OR_stack+0x8ca07>
    41014638:	760f0893          	addi	x17,x30,1888 # 4140fcbc <SID_ZKT_08_PACKW_stack+0x55cbc>
    4101463c:	38488e93          	addi	x29,x17,900 # 412728d0 <SID_ZKT_03_SLLIW_stack+0x2f8d0>
    41014640:	773e8313          	addi	x6,x29,1907
    41014644:	58030c13          	addi	x24,x6,1408
    41014648:	51fc0e93          	addi	x29,x24,1311 # 417d0ac3 <SID_ZKT_05_OR_stack+0xb9ac3>
    4101464c:	5dce8613          	addi	x12,x29,1500
    41014650:	1d160c13          	addi	x24,x12,465 # 416f2595 <SID_ZKT_05_SRL_stack+0xe595>
    41014654:	1ebc0c93          	addi	x25,x24,491
    41014658:	283c8993          	addi	x19,x25,643 # 417e4837 <SID_ZKT_05_OR_stack+0xcd837>
    4101465c:	3f898793          	addi	x15,x19,1016 # 41173740 <__section_code_user_95+0x740>
    41014660:	58178513          	addi	x10,x15,1409 # 4138bb2d <SID_ZKT_03_SLLIW_stack+0x148b2d>
    41014664:	3d750c93          	addi	x25,x10,983 # 411918eb <__section_code_user_125+0x8eb>
    41014668:	7a9c8393          	addi	x7,x25,1961
    4101466c:	1cf38413          	addi	x8,x7,463 # 411e478b <__section_code_machine_80+0x78b>
    41014670:	5b640d13          	addi	x26,x8,1462
    41014674:	34fd0d13          	addi	x26,x26,847 # 410f58d7 <__section_code_super_97+0x8d7>
    41014678:	2b5d0e93          	addi	x29,x26,693
    4101467c:	47ee8d13          	addi	x26,x29,1150
    41014680:	4e6d0513          	addi	x10,x26,1254
    41014684:	74450e13          	addi	x28,x10,1860
    41014688:	5d6e0913          	addi	x18,x28,1494 # 41228b5a <SID_ZKT_08_ROLW_stack+0x6b5a>
    4101468c:	75a90793          	addi	x15,x18,1882 # 412aacb2 <SID_ZKT_03_SLLIW_stack+0x67cb2>
    41014690:	53d78f13          	addi	x30,x15,1341
    41014694:	236f0413          	addi	x8,x30,566
    41014698:	7ca40a93          	addi	x21,x8,1994
    4101469c:	52ea8e93          	addi	x29,x21,1326
    410146a0:	1c4e8e13          	addi	x28,x29,452
    410146a4:	065e0593          	addi	x11,x28,101
    410146a8:	76258613          	addi	x12,x11,1890 # 415b7a8a <SID_ZKT_03_XORI_stack+0xa8a>
    410146ac:	09560f13          	addi	x30,x12,149
    410146b0:	61ef0a13          	addi	x20,x30,1566
    410146b4:	41aa0e13          	addi	x28,x20,1050
    410146b8:	52ce0913          	addi	x18,x28,1324
    410146bc:	70790813          	addi	x16,x18,1799
    410146c0:	2f680513          	addi	x10,x16,758 # 417e7892 <SID_ZKT_05_OR_stack+0xd0892>
    410146c4:	14950b93          	addi	x23,x10,329
    410146c8:	41ab8513          	addi	x10,x23,1050 # 4172d7ea <SID_ZKT_05_OR_stack+0x167ea>
    410146cc:	62350593          	addi	x11,x10,1571
    410146d0:	65958493          	addi	x9,x11,1625
    410146d4:	71348993          	addi	x19,x9,1811 # 41708bf7 <SID_ZKT_05_SRL_stack+0x24bf7>
    410146d8:	1a498913          	addi	x18,x19,420
    410146dc:	28190913          	addi	x18,x18,641
    410146e0:	26690c93          	addi	x25,x18,614
    410146e4:	58dc8c93          	addi	x25,x25,1421
    410146e8:	268c8893          	addi	x17,x25,616
    410146ec:	6cd88a13          	addi	x20,x17,1741
    410146f0:	46ea0c93          	addi	x25,x20,1134
    410146f4:	2fcc8c93          	addi	x25,x25,764
    410146f8:	155c8a93          	addi	x21,x25,341
    410146fc:	59fa8893          	addi	x17,x21,1439
    41014700:	59f88613          	addi	x12,x17,1439
    41014704:	5e760793          	addi	x15,x12,1511
    41014708:	3ba78913          	addi	x18,x15,954
    4101470c:	4c490413          	addi	x8,x18,1220
    41014710:	0b140f13          	addi	x30,x8,177
    41014714:	6dcf0513          	addi	x10,x30,1756
    41014718:	0ff50813          	addi	x16,x10,255
    4101471c:	72f80313          	addi	x6,x16,1839
    41014720:	4dc30c13          	addi	x24,x6,1244
    41014724:	7b1c0c13          	addi	x24,x24,1969
    41014728:	41fc0913          	addi	x18,x24,1055
    4101472c:	49490c13          	addi	x24,x18,1172
    41014730:	307c0c93          	addi	x25,x24,775
    41014734:	16cc8793          	addi	x15,x25,364
    41014738:	14278513          	addi	x10,x15,322
    4101473c:	20450313          	addi	x6,x10,516
    41014740:	36c30d93          	addi	x27,x6,876
    41014744:	1c0d8b93          	addi	x23,x27,448 # 412166c0 <end_super_label+0x16b0>
    41014748:	78bb8a93          	addi	x21,x23,1931
    4101474c:	491a8d93          	addi	x27,x21,1169
    41014750:	5c4d8d93          	addi	x27,x27,1476
    41014754:	612d8793          	addi	x15,x27,1554
    41014758:	64578a13          	addi	x20,x15,1605
    4101475c:	06da0f13          	addi	x30,x20,109
    41014760:	3f8f0d93          	addi	x27,x30,1016
    41014764:	576d8993          	addi	x19,x27,1398
    41014768:	32998c13          	addi	x24,x19,809
    4101476c:	5bfc0793          	addi	x15,x24,1471
    41014770:	51b78c93          	addi	x25,x15,1307
    41014774:	2cbc8593          	addi	x11,x25,715
    41014778:	31558a13          	addi	x20,x11,789
    4101477c:	421a0413          	addi	x8,x20,1057
    41014780:	6c640c93          	addi	x25,x8,1734
    41014784:	154c8513          	addi	x10,x25,340
    41014788:	45d50513          	addi	x10,x10,1117
    4101478c:	5d950613          	addi	x12,x10,1497
    41014790:	7f760913          	addi	x18,x12,2039
    41014794:	05690c93          	addi	x25,x18,86
    41014798:	434c8c93          	addi	x25,x25,1076
    4101479c:	7dcc8813          	addi	x16,x25,2012
    410147a0:	0bc80c93          	addi	x25,x16,188
    410147a4:	679c8693          	addi	x13,x25,1657
    410147a8:	20d68913          	addi	x18,x13,525
    410147ac:	50a90c13          	addi	x24,x18,1290
    410147b0:	0d1c0d93          	addi	x27,x24,209
    410147b4:	226d8a13          	addi	x20,x27,550
    410147b8:	5e8a0b93          	addi	x23,x20,1512
    410147bc:	750b8f13          	addi	x30,x23,1872
    410147c0:	c0102373          	rdtime	x6
    410147c4:	c0002ef3          	rdcycle	x29
    410147c8:	c0202f73          	rdinstret	x30
    410147cc:	41630ab3          	sub	x21,x6,x22
    410147d0:	41fe8bb3          	sub	x23,x29,x31
    410147d4:	40ef0933          	sub	x18,x30,x14
    410147d8:	00000313          	li	x6,0
    410147dc:	c0102f73          	rdtime	x30
    410147e0:	c00028f3          	rdcycle	x17
    410147e4:	c0202ef3          	rdinstret	x29
    410147e8:	0ae30513          	addi	x10,x6,174
    410147ec:	7af50a13          	addi	x20,x10,1967
    410147f0:	7cfa0f93          	addi	x31,x20,1999
    410147f4:	11ff8793          	addi	x15,x31,287 # 415ee6b3 <SID_ZKT_03_XORI_stack+0x376b3>
    410147f8:	7c378993          	addi	x19,x15,1987
    410147fc:	63798593          	addi	x11,x19,1591
    41014800:	4f258593          	addi	x11,x11,1266
    41014804:	6bf58713          	addi	x14,x11,1727
    41014808:	7bf70b13          	addi	x22,x14,1983 # 411c3d5f <__section_code_machine_47+0xd5f>
    4101480c:	54ab0c13          	addi	x24,x22,1354 # 414b7886 <SID_ZKT_03_ORI_stack+0x58886>
    41014810:	581c0913          	addi	x18,x24,1409
    41014814:	59d90c93          	addi	x25,x18,1437
    41014818:	0aac8493          	addi	x9,x25,170
    4101481c:	39248493          	addi	x9,x9,914
    41014820:	6d148693          	addi	x13,x9,1745
    41014824:	76768693          	addi	x13,x13,1895
    41014828:	1f068493          	addi	x9,x13,496
    4101482c:	7c848313          	addi	x6,x9,1992
    41014830:	6d130e13          	addi	x28,x6,1745
    41014834:	312e0613          	addi	x12,x28,786
    41014838:	78860513          	addi	x10,x12,1928
    4101483c:	66e50713          	addi	x14,x10,1646
    41014840:	73d70993          	addi	x19,x14,1853
    41014844:	37998693          	addi	x13,x19,889
    41014848:	33068813          	addi	x16,x13,816
    4101484c:	15480b93          	addi	x23,x16,340
    41014850:	74ab8d13          	addi	x26,x23,1866
    41014854:	29dd0413          	addi	x8,x26,669
    41014858:	38440813          	addi	x16,x8,900
    4101485c:	10580393          	addi	x7,x16,261
    41014860:	4fd38b13          	addi	x22,x7,1277
    41014864:	748b0393          	addi	x7,x22,1864
    41014868:	3ea38a93          	addi	x21,x7,1002
    4101486c:	7afa8693          	addi	x13,x21,1967
    41014870:	1b568693          	addi	x13,x13,437
    41014874:	0f768d13          	addi	x26,x13,247
    41014878:	376d0393          	addi	x7,x26,886
    4101487c:	4d138993          	addi	x19,x7,1233
    41014880:	44898e13          	addi	x28,x19,1096
    41014884:	347e0993          	addi	x19,x28,839
    41014888:	74998493          	addi	x9,x19,1865
    4101488c:	0f448793          	addi	x15,x9,244
    41014890:	54b78e13          	addi	x28,x15,1355
    41014894:	260e0e13          	addi	x28,x28,608
    41014898:	23be0913          	addi	x18,x28,571
    4101489c:	1ff90593          	addi	x11,x18,511
    410148a0:	30a58513          	addi	x10,x11,778
    410148a4:	60250a93          	addi	x21,x10,1538
    410148a8:	47ca8713          	addi	x14,x21,1148
    410148ac:	00b70493          	addi	x9,x14,11
    410148b0:	7b048993          	addi	x19,x9,1968
    410148b4:	18798d13          	addi	x26,x19,391
    410148b8:	43dd0313          	addi	x6,x26,1085
    410148bc:	38530413          	addi	x8,x6,901
    410148c0:	4a440813          	addi	x16,x8,1188
    410148c4:	02e80393          	addi	x7,x16,46
    410148c8:	04238a93          	addi	x21,x7,66
    410148cc:	508a8d13          	addi	x26,x21,1288
    410148d0:	7cbd0413          	addi	x8,x26,1995
    410148d4:	4db40593          	addi	x11,x8,1243
    410148d8:	1f358b93          	addi	x23,x11,499
    410148dc:	6b1b8993          	addi	x19,x23,1713
    410148e0:	21898993          	addi	x19,x19,536
    410148e4:	1aa98793          	addi	x15,x19,426
    410148e8:	16578513          	addi	x10,x15,357
    410148ec:	24a50a93          	addi	x21,x10,586
    410148f0:	132a8b93          	addi	x23,x21,306
    410148f4:	459b8c13          	addi	x24,x23,1113
    410148f8:	19dc0693          	addi	x13,x24,413
    410148fc:	23268f93          	addi	x31,x13,562
    41014900:	280f8a13          	addi	x20,x31,640
    41014904:	4b2a0d93          	addi	x27,x20,1202
    41014908:	612d8c93          	addi	x25,x27,1554
    4101490c:	204c8a93          	addi	x21,x25,516
    41014910:	6aba8413          	addi	x8,x21,1707
    41014914:	57a40793          	addi	x15,x8,1402
    41014918:	39578d93          	addi	x27,x15,917
    4101491c:	657d8d13          	addi	x26,x27,1623
    41014920:	6e6d0313          	addi	x6,x26,1766
    41014924:	67b30c13          	addi	x24,x6,1659
    41014928:	6dac0493          	addi	x9,x24,1754
    4101492c:	7cc48313          	addi	x6,x9,1996
    41014930:	15b30713          	addi	x14,x6,347
    41014934:	45f70613          	addi	x12,x14,1119
    41014938:	2de60b13          	addi	x22,x12,734
    4101493c:	3f0b0a93          	addi	x21,x22,1008
    41014940:	35fa8593          	addi	x11,x21,863
    41014944:	6db58a93          	addi	x21,x11,1755
    41014948:	0fca8313          	addi	x6,x21,252
    4101494c:	62a30913          	addi	x18,x6,1578
    41014950:	1ae90b13          	addi	x22,x18,430
    41014954:	493b0d93          	addi	x27,x22,1171
    41014958:	70bd8a13          	addi	x20,x27,1803
    4101495c:	313a0513          	addi	x10,x20,787
    41014960:	1a650393          	addi	x7,x10,422
    41014964:	24838593          	addi	x11,x7,584
    41014968:	67f58513          	addi	x10,x11,1663
    4101496c:	0e050d13          	addi	x26,x10,224
    41014970:	73ed0e13          	addi	x28,x26,1854
    41014974:	678e0993          	addi	x19,x28,1656
    41014978:	c01023f3          	rdtime	x7
    4101497c:	c0002bf3          	rdcycle	x23
    41014980:	c02025f3          	rdinstret	x11
    41014984:	41e38433          	sub	x8,x7,x30
    41014988:	411b86b3          	sub	x13,x23,x17
    4101498c:	41d58ab3          	sub	x21,x11,x29
    41014990:	00000793          	li	x15,0
    41014994:	c0102d73          	rdtime	x26
    41014998:	c0002cf3          	rdcycle	x25
    4101499c:	c0202373          	rdinstret	x6
    410149a0:	03478813          	addi	x16,x15,52
    410149a4:	0f480893          	addi	x17,x16,244
    410149a8:	49088893          	addi	x17,x17,1168
    410149ac:	5fd88613          	addi	x12,x17,1533
    410149b0:	01e60513          	addi	x10,x12,30
    410149b4:	45f50d93          	addi	x27,x10,1119
    410149b8:	262d8593          	addi	x11,x27,610
    410149bc:	7bb58b93          	addi	x23,x11,1979
    410149c0:	567b8393          	addi	x7,x23,1383
    410149c4:	61938393          	addi	x7,x7,1561
    410149c8:	5ce38993          	addi	x19,x7,1486
    410149cc:	7cc98f13          	addi	x30,x19,1996
    410149d0:	534f0f13          	addi	x30,x30,1332
    410149d4:	11af0f13          	addi	x30,x30,282
    410149d8:	09cf0e13          	addi	x28,x30,156
    410149dc:	403e0413          	addi	x8,x28,1027
    410149e0:	30040c13          	addi	x24,x8,768
    410149e4:	497c0e13          	addi	x28,x24,1175
    410149e8:	674e0413          	addi	x8,x28,1652
    410149ec:	28040a13          	addi	x20,x8,640
    410149f0:	382a0d93          	addi	x27,x20,898
    410149f4:	409d8393          	addi	x7,x27,1033
    410149f8:	56e38d93          	addi	x27,x7,1390
    410149fc:	2ddd8413          	addi	x8,x27,733
    41014a00:	61440413          	addi	x8,x8,1556
    41014a04:	43d40e13          	addi	x28,x8,1085
    41014a08:	299e0493          	addi	x9,x28,665
    41014a0c:	00448b93          	addi	x23,x9,4
    41014a10:	100b8413          	addi	x8,x23,256
    41014a14:	38c40c13          	addi	x24,x8,908
    41014a18:	5c1c0493          	addi	x9,x24,1473
    41014a1c:	39b48813          	addi	x16,x9,923
    41014a20:	2d080413          	addi	x8,x16,720
    41014a24:	27340393          	addi	x7,x8,627
    41014a28:	45338913          	addi	x18,x7,1107
    41014a2c:	33490593          	addi	x11,x18,820
    41014a30:	2ba58913          	addi	x18,x11,698
    41014a34:	64690b13          	addi	x22,x18,1606
    41014a38:	5dcb0f13          	addi	x30,x22,1500
    41014a3c:	57af0613          	addi	x12,x30,1402
    41014a40:	49560793          	addi	x15,x12,1173
    41014a44:	3f378513          	addi	x10,x15,1011
    41014a48:	0ea50713          	addi	x14,x10,234
    41014a4c:	53170e13          	addi	x28,x14,1329
    41014a50:	75ae0913          	addi	x18,x28,1882
    41014a54:	30890e93          	addi	x29,x18,776
    41014a58:	312e8893          	addi	x17,x29,786
    41014a5c:	1a488893          	addi	x17,x17,420
    41014a60:	47788a13          	addi	x20,x17,1143
    41014a64:	00aa0e13          	addi	x28,x20,10
    41014a68:	7f8e0713          	addi	x14,x28,2040
    41014a6c:	23b70e93          	addi	x29,x14,571
    41014a70:	518e8f13          	addi	x30,x29,1304
    41014a74:	4ccf0b93          	addi	x23,x30,1228
    41014a78:	5cab8613          	addi	x12,x23,1482
    41014a7c:	71060993          	addi	x19,x12,1808
    41014a80:	5eb98813          	addi	x16,x19,1515
    41014a84:	6a580b93          	addi	x23,x16,1701
    41014a88:	5d6b8d93          	addi	x27,x23,1494
    41014a8c:	419d8e93          	addi	x29,x27,1049
    41014a90:	19ae8393          	addi	x7,x29,410
    41014a94:	7e838713          	addi	x14,x7,2024
    41014a98:	76570993          	addi	x19,x14,1893
    41014a9c:	3b498f93          	addi	x31,x19,948
    41014aa0:	4d1f8e93          	addi	x29,x31,1233
    41014aa4:	6b0e8893          	addi	x17,x29,1712
    41014aa8:	42588413          	addi	x8,x17,1061
    41014aac:	34840e13          	addi	x28,x8,840
    41014ab0:	782e0813          	addi	x16,x28,1922
    41014ab4:	5f880593          	addi	x11,x16,1528
    41014ab8:	5b558b93          	addi	x23,x11,1461
    41014abc:	7e9b8493          	addi	x9,x23,2025
    41014ac0:	7e948f93          	addi	x31,x9,2025
    41014ac4:	274f8b13          	addi	x22,x31,628
    41014ac8:	5a2b0393          	addi	x7,x22,1442
    41014acc:	15f38e93          	addi	x29,x7,351
    41014ad0:	39be8a13          	addi	x20,x29,923
    41014ad4:	4f8a0993          	addi	x19,x20,1272
    41014ad8:	55c98593          	addi	x11,x19,1372
    41014adc:	44258913          	addi	x18,x11,1090
    41014ae0:	19790e13          	addi	x28,x18,407
    41014ae4:	2e3e0f13          	addi	x30,x28,739
    41014ae8:	438f0393          	addi	x7,x30,1080
    41014aec:	00a38413          	addi	x8,x7,10
    41014af0:	57040913          	addi	x18,x8,1392
    41014af4:	32090f13          	addi	x30,x18,800
    41014af8:	4a5f0893          	addi	x17,x30,1189
    41014afc:	36b88b13          	addi	x22,x17,875
    41014b00:	7c6b0e93          	addi	x29,x22,1990
    41014b04:	340e8913          	addi	x18,x29,832
    41014b08:	2b390593          	addi	x11,x18,691
    41014b0c:	6e658e93          	addi	x29,x11,1766
    41014b10:	4fce8f13          	addi	x30,x29,1276
    41014b14:	4aff0613          	addi	x12,x30,1199
    41014b18:	7ce60713          	addi	x14,x12,1998
    41014b1c:	5e170713          	addi	x14,x14,1505
    41014b20:	59b70b13          	addi	x22,x14,1435
    41014b24:	731b0e93          	addi	x29,x22,1841
    41014b28:	7c0e8613          	addi	x12,x29,1984
    41014b2c:	60060b13          	addi	x22,x12,1536
    41014b30:	c0102f73          	rdtime	x30
    41014b34:	c0002ef3          	rdcycle	x29
    41014b38:	c0202c73          	rdinstret	x24
    41014b3c:	41af0e33          	sub	x28,x30,x26
    41014b40:	419e84b3          	sub	x9,x29,x25
    41014b44:	406c0a33          	sub	x20,x24,x6
    41014b48:	00968a63          	beq	x13,x9,41014b5c <pass_label_2>
    41014b4c:	415725b7          	lui	x11,0x41572
    41014b50:	0085859b          	addiw	x11,x11,8 # 41572008 <failed_addr>
    41014b54:	0005b603          	ld	x12,0(x11)
    41014b58:	00060067          	jr	x12

0000000041014b5c <pass_label_2>:
    41014b5c:	014a8a63          	beq	x21,x20,41014b70 <SID_ZKT_03_ADDI_passed>
    41014b60:	41572cb7          	lui	x25,0x41572
    41014b64:	008c8c9b          	addiw	x25,x25,8 # 41572008 <failed_addr>
    41014b68:	000cb903          	ld	x18,0(x25)
    41014b6c:	00090067          	jr	x18

0000000041014b70 <SID_ZKT_03_ADDI_passed>:
    41014b70:	415722b7          	lui	x5,0x41572
    41014b74:	0182829b          	addiw	x5,x5,24 # 41572018 <os_passed_addr>
    41014b78:	0002b303          	ld	x6,0(x5)
    41014b7c:	00030067          	jr	x6

0000000041014b80 <SID_ZKT_03_SLTI>:
    41014b80:	41cb6137          	lui	x2,0x41cb6
    41014b84:	000012b7          	lui	x5,0x1
    41014b88:	00510133          	add	x2,x2,x5
    41014b8c:	ff017113          	andi	x2,x2,-16
    41014b90:	00000e93          	li	x29,0
    41014b94:	c01029f3          	rdtime	x19
    41014b98:	c0002f73          	rdcycle	x30
    41014b9c:	c0202773          	rdinstret	x14
    41014ba0:	0caeaa93          	slti	x21,x29,202
    41014ba4:	349aa893          	slti	x17,x21,841
    41014ba8:	2c68ac93          	slti	x25,x17,710
    41014bac:	105ca613          	slti	x12,x25,261
    41014bb0:	49c62613          	slti	x12,x12,1180
    41014bb4:	08762d93          	slti	x27,x12,135
    41014bb8:	05cdab93          	slti	x23,x27,92
    41014bbc:	26abab93          	slti	x23,x23,618
    41014bc0:	688bad13          	slti	x26,x23,1672
    41014bc4:	667d2413          	slti	x8,x26,1639
    41014bc8:	53842493          	slti	x9,x8,1336
    41014bcc:	4474a693          	slti	x13,x9,1095
    41014bd0:	2856a913          	slti	x18,x13,645
    41014bd4:	35a92793          	slti	x15,x18,858
    41014bd8:	2657ac13          	slti	x24,x15,613
    41014bdc:	28fc2313          	slti	x6,x24,655
    41014be0:	2d532813          	slti	x16,x6,725
    41014be4:	23182a93          	slti	x21,x16,561
    41014be8:	29daab13          	slti	x22,x21,669
    41014bec:	600b2693          	slti	x13,x22,1536
    41014bf0:	5ff6aa13          	slti	x20,x13,1535
    41014bf4:	42ca2413          	slti	x8,x20,1068
    41014bf8:	40542693          	slti	x13,x8,1029
    41014bfc:	0146ae93          	slti	x29,x13,20
    41014c00:	438ea393          	slti	x7,x29,1080
    41014c04:	0fc3ae13          	slti	x28,x7,252
    41014c08:	133e2313          	slti	x6,x28,307
    41014c0c:	28c32e93          	slti	x29,x6,652
    41014c10:	753ea593          	slti	x11,x29,1875
    41014c14:	5d35a693          	slti	x13,x11,1491
    41014c18:	29d6ab93          	slti	x23,x13,669
    41014c1c:	64abae13          	slti	x28,x23,1610
    41014c20:	2a1e2b13          	slti	x22,x28,673
    41014c24:	498b2813          	slti	x16,x22,1176
    41014c28:	08f82f93          	slti	x31,x16,143
    41014c2c:	3a0fab13          	slti	x22,x31,928
    41014c30:	7d8b2613          	slti	x12,x22,2008
    41014c34:	23f62b93          	slti	x23,x12,575
    41014c38:	3d9ba613          	slti	x12,x23,985
    41014c3c:	3a562313          	slti	x6,x12,933
    41014c40:	75032613          	slti	x12,x6,1872
    41014c44:	2ec62d93          	slti	x27,x12,748
    41014c48:	76edaa93          	slti	x21,x27,1902
    41014c4c:	5f1aad93          	slti	x27,x21,1521
    41014c50:	7c5daa13          	slti	x20,x27,1989
    41014c54:	30ea2913          	slti	x18,x20,782
    41014c58:	68992b13          	slti	x22,x18,1673
    41014c5c:	720b2b13          	slti	x22,x22,1824
    41014c60:	76ab2893          	slti	x17,x22,1898
    41014c64:	0a38a413          	slti	x8,x17,163
    41014c68:	76342893          	slti	x17,x8,1891
    41014c6c:	4a48ab13          	slti	x22,x17,1188
    41014c70:	66cb2d13          	slti	x26,x22,1644
    41014c74:	075d2b93          	slti	x23,x26,117
    41014c78:	116ba793          	slti	x15,x23,278
    41014c7c:	0667ab93          	slti	x23,x15,102
    41014c80:	433bad93          	slti	x27,x23,1075
    41014c84:	3f2da813          	slti	x16,x27,1010
    41014c88:	49d82d93          	slti	x27,x16,1181
    41014c8c:	6d6da893          	slti	x17,x27,1750
    41014c90:	7f38a413          	slti	x8,x17,2035
    41014c94:	20642a93          	slti	x21,x8,518
    41014c98:	648aac13          	slti	x24,x21,1608
    41014c9c:	1f9c2893          	slti	x17,x24,505
    41014ca0:	5a28a793          	slti	x15,x17,1442
    41014ca4:	49a7a393          	slti	x7,x15,1178
    41014ca8:	5fc3a593          	slti	x11,x7,1532
    41014cac:	2b85ad13          	slti	x26,x11,696
    41014cb0:	2e7d2793          	slti	x15,x26,743
    41014cb4:	7ef7a793          	slti	x15,x15,2031
    41014cb8:	78c7af93          	slti	x31,x15,1932
    41014cbc:	663fae13          	slti	x28,x31,1635
    41014cc0:	528e2893          	slti	x17,x28,1320
    41014cc4:	2f98a913          	slti	x18,x17,761
    41014cc8:	33b92a93          	slti	x21,x18,827
    41014ccc:	278aa793          	slti	x15,x21,632
    41014cd0:	3ba7ab93          	slti	x23,x15,954
    41014cd4:	4ccbad13          	slti	x26,x23,1228
    41014cd8:	7d9d2793          	slti	x15,x26,2009
    41014cdc:	2bc7a893          	slti	x17,x15,700
    41014ce0:	4448a613          	slti	x12,x17,1092
    41014ce4:	41262d13          	slti	x26,x12,1042
    41014ce8:	15ad2413          	slti	x8,x26,346
    41014cec:	03e42913          	slti	x18,x8,62
    41014cf0:	13292e93          	slti	x29,x18,306
    41014cf4:	203ea513          	slti	x10,x29,515
    41014cf8:	58252e93          	slti	x29,x10,1410
    41014cfc:	1c7eaf93          	slti	x31,x29,455
    41014d00:	483faf93          	slti	x31,x31,1155
    41014d04:	114fac13          	slti	x24,x31,276
    41014d08:	744c2493          	slti	x9,x24,1860
    41014d0c:	0e94a913          	slti	x18,x9,233
    41014d10:	17d92c13          	slti	x24,x18,381
    41014d14:	624c2613          	slti	x12,x24,1572
    41014d18:	34c62e13          	slti	x28,x12,844
    41014d1c:	786e2a13          	slti	x20,x28,1926
    41014d20:	5d5a2593          	slti	x11,x20,1493
    41014d24:	4f85a493          	slti	x9,x11,1272
    41014d28:	0694ab93          	slti	x23,x9,105
    41014d2c:	681ba793          	slti	x15,x23,1665
    41014d30:	c01027f3          	rdtime	x15
    41014d34:	c0002af3          	rdcycle	x21
    41014d38:	c0202973          	rdinstret	x18
    41014d3c:	41378833          	sub	x16,x15,x19
    41014d40:	41ea8db3          	sub	x27,x21,x30
    41014d44:	40e90533          	sub	x10,x18,x14
    41014d48:	00000d13          	li	x26,0
    41014d4c:	c01025f3          	rdtime	x11
    41014d50:	c0002873          	rdcycle	x16
    41014d54:	c0202773          	rdinstret	x14
    41014d58:	0ced2d93          	slti	x27,x26,206
    41014d5c:	7d7da693          	slti	x13,x27,2007
    41014d60:	4606aa93          	slti	x21,x13,1120
    41014d64:	576aad13          	slti	x26,x21,1398
    41014d68:	223d2f13          	slti	x30,x26,547
    41014d6c:	5baf2893          	slti	x17,x30,1466
    41014d70:	0de8a993          	slti	x19,x17,222
    41014d74:	1a59a613          	slti	x12,x19,421
    41014d78:	21a62e13          	slti	x28,x12,538
    41014d7c:	08be2693          	slti	x13,x28,139
    41014d80:	5116a693          	slti	x13,x13,1297
    41014d84:	4946a493          	slti	x9,x13,1172
    41014d88:	4394aa13          	slti	x20,x9,1081
    41014d8c:	523a2f13          	slti	x30,x20,1315
    41014d90:	0a3f2f93          	slti	x31,x30,163
    41014d94:	6dafa993          	slti	x19,x31,1754
    41014d98:	0989ad93          	slti	x27,x19,152
    41014d9c:	65ddaf13          	slti	x30,x27,1629
    41014da0:	6d1f2e13          	slti	x28,x30,1745
    41014da4:	1c0e2b93          	slti	x23,x28,448
    41014da8:	528baa93          	slti	x21,x23,1320
    41014dac:	6b7aae93          	slti	x29,x21,1719
    41014db0:	166eae13          	slti	x28,x29,358
    41014db4:	41ae2c13          	slti	x24,x28,1050
    41014db8:	6e8c2b93          	slti	x23,x24,1768
    41014dbc:	377bab93          	slti	x23,x23,887
    41014dc0:	02fbaf93          	slti	x31,x23,47
    41014dc4:	4bcfaa93          	slti	x21,x31,1212
    41014dc8:	2f4aa413          	slti	x8,x21,756
    41014dcc:	73642313          	slti	x6,x8,1846
    41014dd0:	6ca32e13          	slti	x28,x6,1738
    41014dd4:	3e7e2493          	slti	x9,x28,999
    41014dd8:	5b14ab93          	slti	x23,x9,1457
    41014ddc:	678bab93          	slti	x23,x23,1656
    41014de0:	248ba913          	slti	x18,x23,584
    41014de4:	1c592493          	slti	x9,x18,453
    41014de8:	7244a893          	slti	x17,x9,1828
    41014dec:	19d8ad93          	slti	x27,x17,413
    41014df0:	4cbda913          	slti	x18,x27,1227
    41014df4:	3f592413          	slti	x8,x18,1013
    41014df8:	6ef42313          	slti	x6,x8,1775
    41014dfc:	73332f13          	slti	x30,x6,1843
    41014e00:	727f2793          	slti	x15,x30,1831
    41014e04:	1e47ad13          	slti	x26,x15,484
    41014e08:	36ad2613          	slti	x12,x26,874
    41014e0c:	3a162613          	slti	x12,x12,929
    41014e10:	56a62c13          	slti	x24,x12,1386
    41014e14:	2f2c2e93          	slti	x29,x24,754
    41014e18:	45eea393          	slti	x7,x29,1118
    41014e1c:	7503ac13          	slti	x24,x7,1872
    41014e20:	791c2793          	slti	x15,x24,1937
    41014e24:	1857a793          	slti	x15,x15,389
    41014e28:	6657ab13          	slti	x22,x15,1637
    41014e2c:	3deb2e93          	slti	x29,x22,990
    41014e30:	5d1eaf93          	slti	x31,x29,1489
    41014e34:	097fae93          	slti	x29,x31,151
    41014e38:	686eaa13          	slti	x20,x29,1670
    41014e3c:	6bca2493          	slti	x9,x20,1724
    41014e40:	7ff4ab13          	slti	x22,x9,2047
    41014e44:	7d2b2b93          	slti	x23,x22,2002
    41014e48:	210ba793          	slti	x15,x23,528
    41014e4c:	3457aa13          	slti	x20,x15,837
    41014e50:	19fa2793          	slti	x15,x20,415
    41014e54:	0137a413          	slti	x8,x15,19
    41014e58:	5fc42393          	slti	x7,x8,1532
    41014e5c:	4443af13          	slti	x30,x7,1092
    41014e60:	62cf2c93          	slti	x25,x30,1580
    41014e64:	30eca513          	slti	x10,x25,782
    41014e68:	42052613          	slti	x12,x10,1056
    41014e6c:	70562f13          	slti	x30,x12,1797
    41014e70:	3e8f2313          	slti	x6,x30,1000
    41014e74:	09f32a93          	slti	x21,x6,159
    41014e78:	33daac13          	slti	x24,x21,829
    41014e7c:	4f0c2e93          	slti	x29,x24,1264
    41014e80:	712eac13          	slti	x24,x29,1810
    41014e84:	417c2a93          	slti	x21,x24,1047
    41014e88:	661aab93          	slti	x23,x21,1633
    41014e8c:	4a3ba493          	slti	x9,x23,1187
    41014e90:	4b04ac13          	slti	x24,x9,1200
    41014e94:	36ac2f13          	slti	x30,x24,874
    41014e98:	055f2393          	slti	x7,x30,85
    41014e9c:	2d33a693          	slti	x13,x7,723
    41014ea0:	6d26ad93          	slti	x27,x13,1746
    41014ea4:	7eadac93          	slti	x25,x27,2026
    41014ea8:	3adca613          	slti	x12,x25,941
    41014eac:	01062d13          	slti	x26,x12,16
    41014eb0:	187d2913          	slti	x18,x26,391
    41014eb4:	7b292513          	slti	x10,x18,1970
    41014eb8:	26852b13          	slti	x22,x10,616
    41014ebc:	594b2513          	slti	x10,x22,1428
    41014ec0:	58a52613          	slti	x12,x10,1418
    41014ec4:	52562e13          	slti	x28,x12,1317
    41014ec8:	00ee2c13          	slti	x24,x28,14
    41014ecc:	456c2f93          	slti	x31,x24,1110
    41014ed0:	0f8faa13          	slti	x20,x31,248
    41014ed4:	696a2413          	slti	x8,x20,1686
    41014ed8:	26e42393          	slti	x7,x8,622
    41014edc:	41c3ad93          	slti	x27,x7,1052
    41014ee0:	71bda493          	slti	x9,x27,1819
    41014ee4:	7f64a693          	slti	x13,x9,2038
    41014ee8:	c0102ff3          	rdtime	x31
    41014eec:	c00028f3          	rdcycle	x17
    41014ef0:	c0202573          	rdinstret	x10
    41014ef4:	40bf89b3          	sub	x19,x31,x11
    41014ef8:	41088eb3          	sub	x29,x17,x16
    41014efc:	40e50f33          	sub	x30,x10,x14
    41014f00:	00000413          	li	x8,0
    41014f04:	c0102a73          	rdtime	x20
    41014f08:	c0002773          	rdcycle	x14
    41014f0c:	c0202b73          	rdinstret	x22
    41014f10:	5fc42b93          	slti	x23,x8,1532
    41014f14:	289bad93          	slti	x27,x23,649
    41014f18:	7c7dac13          	slti	x24,x27,1991
    41014f1c:	639c2793          	slti	x15,x24,1593
    41014f20:	45b7a413          	slti	x8,x15,1115
    41014f24:	52c42593          	slti	x11,x8,1324
    41014f28:	4965ad13          	slti	x26,x11,1174
    41014f2c:	7f6d2813          	slti	x16,x26,2038
    41014f30:	46c82813          	slti	x16,x16,1132
    41014f34:	24582613          	slti	x12,x16,581
    41014f38:	43762813          	slti	x16,x12,1079
    41014f3c:	34d82f93          	slti	x31,x16,845
    41014f40:	459fad93          	slti	x27,x31,1113
    41014f44:	787dac93          	slti	x25,x27,1927
    41014f48:	68fcaf93          	slti	x31,x25,1679
    41014f4c:	76dfac93          	slti	x25,x31,1901
    41014f50:	7a3ca613          	slti	x12,x25,1955
    41014f54:	42762d13          	slti	x26,x12,1063
    41014f58:	347d2c93          	slti	x25,x26,839
    41014f5c:	4d5ca413          	slti	x8,x25,1237
    41014f60:	50d42613          	slti	x12,x8,1293
    41014f64:	4a962793          	slti	x15,x12,1193
    41014f68:	2797a513          	slti	x10,x15,633
    41014f6c:	3a152993          	slti	x19,x10,929
    41014f70:	26d9a993          	slti	x19,x19,621
    41014f74:	10f9ac13          	slti	x24,x19,271
    41014f78:	40fc2793          	slti	x15,x24,1039
    41014f7c:	3907a393          	slti	x7,x15,912
    41014f80:	4b33aa93          	slti	x21,x7,1203
    41014f84:	122aa393          	slti	x7,x21,290
    41014f88:	4693a993          	slti	x19,x7,1129
    41014f8c:	6319a493          	slti	x9,x19,1585
    41014f90:	7d34ab93          	slti	x23,x9,2003
    41014f94:	7cebad93          	slti	x27,x23,1998
    41014f98:	150da813          	slti	x16,x27,336
    41014f9c:	20882793          	slti	x15,x16,520
    41014fa0:	51a7ac93          	slti	x25,x15,1306
    41014fa4:	016cad93          	slti	x27,x25,22
    41014fa8:	7f7da313          	slti	x6,x27,2039
    41014fac:	36732613          	slti	x12,x6,871
    41014fb0:	5e662c93          	slti	x25,x12,1510
    41014fb4:	54dca513          	slti	x10,x25,1357
    41014fb8:	48952d93          	slti	x27,x10,1161
    41014fbc:	04ddac13          	slti	x24,x27,77
    41014fc0:	2f5c2313          	slti	x6,x24,757
    41014fc4:	36032593          	slti	x11,x6,864
    41014fc8:	33a5a813          	slti	x16,x11,826
    41014fcc:	24382893          	slti	x17,x16,579
    41014fd0:	7808a793          	slti	x15,x17,1920
    41014fd4:	5487a693          	slti	x13,x15,1352
    41014fd8:	72c6a693          	slti	x13,x13,1836
    41014fdc:	6056a813          	slti	x16,x13,1541
    41014fe0:	55e82c93          	slti	x25,x16,1374
    41014fe4:	028ca793          	slti	x15,x25,40
    41014fe8:	7337a693          	slti	x13,x15,1843
    41014fec:	0bc6a893          	slti	x17,x13,188
    41014ff0:	7698a793          	slti	x15,x17,1897
    41014ff4:	0bb7a913          	slti	x18,x15,187
    41014ff8:	6c892793          	slti	x15,x18,1736
    41014ffc:	00c7a613          	slti	x12,x15,12
    41015000:	31462813          	slti	x16,x12,788
    41015004:	22982a93          	slti	x21,x16,553
    41015008:	3baaa393          	slti	x7,x21,954
    4101500c:	22f3ad13          	slti	x26,x7,559
    41015010:	661d2a93          	slti	x21,x26,1633
    41015014:	643aa493          	slti	x9,x21,1603
    41015018:	2fe4ad93          	slti	x27,x9,766
    4101501c:	519da813          	slti	x16,x27,1305
    41015020:	60182693          	slti	x13,x16,1537
    41015024:	6d46a913          	slti	x18,x13,1748
    41015028:	3dc92c93          	slti	x25,x18,988
    4101502c:	629ca513          	slti	x10,x25,1577
    41015030:	2b452b93          	slti	x23,x10,692
    41015034:	31ebaa93          	slti	x21,x23,798
    41015038:	3a9aa813          	slti	x16,x21,937
    4101503c:	67082493          	slti	x9,x16,1648
    41015040:	0f14a993          	slti	x19,x9,241
    41015044:	3e19a493          	slti	x9,x19,993
    41015048:	2d94a313          	slti	x6,x9,729
    4101504c:	12b32393          	slti	x7,x6,299
    41015050:	3553ad93          	slti	x27,x7,853
    41015054:	132dad93          	slti	x27,x27,306
    41015058:	028da393          	slti	x7,x27,40
    4101505c:	7f83ae13          	slti	x28,x7,2040
    41015060:	163e2313          	slti	x6,x28,355
    41015064:	68632f93          	slti	x31,x6,1670
    41015068:	217faf93          	slti	x31,x31,535
    4101506c:	2f4fa793          	slti	x15,x31,756
    41015070:	6df7a813          	slti	x16,x15,1759
    41015074:	10782313          	slti	x6,x16,263
    41015078:	4ba32893          	slti	x17,x6,1210
    4101507c:	64d8a393          	slti	x7,x17,1613
    41015080:	24f3a413          	slti	x8,x7,591
    41015084:	79b42e13          	slti	x28,x8,1947
    41015088:	7fee2413          	slti	x8,x28,2046
    4101508c:	35042f93          	slti	x31,x8,848
    41015090:	213fab93          	slti	x23,x31,531
    41015094:	786bad93          	slti	x27,x23,1926
    41015098:	41fda313          	slti	x6,x27,1055
    4101509c:	24f32813          	slti	x16,x6,591
    410150a0:	c0102373          	rdtime	x6
    410150a4:	c0002e73          	rdcycle	x28
    410150a8:	c02025f3          	rdinstret	x11
    410150ac:	414306b3          	sub	x13,x6,x20
    410150b0:	40ee0db3          	sub	x27,x28,x14
    410150b4:	41658633          	sub	x12,x11,x22
    410150b8:	01be8a63          	beq	x29,x27,410150cc <pass_label_4>
    410150bc:	41572b37          	lui	x22,0x41572
    410150c0:	008b0b1b          	addiw	x22,x22,8 # 41572008 <failed_addr>
    410150c4:	000b3d83          	ld	x27,0(x22)
    410150c8:	000d8067          	jr	x27

00000000410150cc <pass_label_4>:
    410150cc:	00cf0a63          	beq	x30,x12,410150e0 <SID_ZKT_03_SLTI_passed>
    410150d0:	41572b37          	lui	x22,0x41572
    410150d4:	008b0b1b          	addiw	x22,x22,8 # 41572008 <failed_addr>
    410150d8:	000b3c03          	ld	x24,0(x22)
    410150dc:	000c0067          	jr	x24

00000000410150e0 <SID_ZKT_03_SLTI_passed>:
    410150e0:	415722b7          	lui	x5,0x41572
    410150e4:	0182829b          	addiw	x5,x5,24 # 41572018 <os_passed_addr>
    410150e8:	0002b303          	ld	x6,0(x5)
    410150ec:	00030067          	jr	x6

00000000410150f0 <SID_ZKT_03_SLTIU>:
    410150f0:	43594137          	lui	x2,0x43594
    410150f4:	000012b7          	lui	x5,0x1
    410150f8:	00510133          	add	x2,x2,x5
    410150fc:	ff017113          	andi	x2,x2,-16
    41015100:	00000713          	li	x14,0
    41015104:	c01026f3          	rdtime	x13
    41015108:	c0002673          	rdcycle	x12
    4101510c:	c0202473          	rdinstret	x8
    41015110:	68273e13          	sltiu	x28,x14,1666
    41015114:	059e3d93          	sltiu	x27,x28,89
    41015118:	6aadbf93          	sltiu	x31,x27,1706
    4101511c:	0e6fb813          	sltiu	x16,x31,230
    41015120:	4b583f13          	sltiu	x30,x16,1205
    41015124:	120f3c13          	sltiu	x24,x30,288
    41015128:	441c3c13          	sltiu	x24,x24,1089
    4101512c:	413c3913          	sltiu	x18,x24,1043
    41015130:	61e93f93          	sltiu	x31,x18,1566
    41015134:	2dcfb593          	sltiu	x11,x31,732
    41015138:	46b5b813          	sltiu	x16,x11,1131
    4101513c:	22d83713          	sltiu	x14,x16,557
    41015140:	64673d13          	sltiu	x26,x14,1606
    41015144:	7e1d3d13          	sltiu	x26,x26,2017
    41015148:	48ed3993          	sltiu	x19,x26,1166
    4101514c:	7489b493          	sltiu	x9,x19,1864
    41015150:	7c24bd13          	sltiu	x26,x9,1986
    41015154:	540d3513          	sltiu	x10,x26,1344
    41015158:	2dc53a13          	sltiu	x20,x10,732
    4101515c:	66da3513          	sltiu	x10,x20,1645
    41015160:	3cd53393          	sltiu	x7,x10,973
    41015164:	6913b313          	sltiu	x6,x7,1681
    41015168:	59733f93          	sltiu	x31,x6,1431
    4101516c:	1f9fb593          	sltiu	x11,x31,505
    41015170:	76e5b713          	sltiu	x14,x11,1902
    41015174:	67a73593          	sltiu	x11,x14,1658
    41015178:	4fc5bb93          	sltiu	x23,x11,1276
    4101517c:	1eebb313          	sltiu	x6,x23,494
    41015180:	0db33713          	sltiu	x14,x6,219
    41015184:	48273c93          	sltiu	x25,x14,1154
    41015188:	7a0cb713          	sltiu	x14,x25,1952
    4101518c:	2df73f93          	sltiu	x31,x14,735
    41015190:	6fcfb593          	sltiu	x11,x31,1788
    41015194:	1475ba93          	sltiu	x21,x11,327
    41015198:	0f1abc13          	sltiu	x24,x21,241
    4101519c:	639c3a13          	sltiu	x20,x24,1593
    410151a0:	056a3e13          	sltiu	x28,x20,86
    410151a4:	757e3493          	sltiu	x9,x28,1879
    410151a8:	5a44b913          	sltiu	x18,x9,1444
    410151ac:	28593493          	sltiu	x9,x18,645
    410151b0:	3644b313          	sltiu	x6,x9,868
    410151b4:	70c33b93          	sltiu	x23,x6,1804
    410151b8:	5d4bbf13          	sltiu	x30,x23,1492
    410151bc:	2c8f3d13          	sltiu	x26,x30,712
    410151c0:	20ad3c93          	sltiu	x25,x26,522
    410151c4:	545cbc93          	sltiu	x25,x25,1349
    410151c8:	504cbd93          	sltiu	x27,x25,1284
    410151cc:	7fadba93          	sltiu	x21,x27,2042
    410151d0:	732ab493          	sltiu	x9,x21,1842
    410151d4:	6304bf13          	sltiu	x30,x9,1584
    410151d8:	756f3f93          	sltiu	x31,x30,1878
    410151dc:	075fbb13          	sltiu	x22,x31,117
    410151e0:	4f2b3c93          	sltiu	x25,x22,1266
    410151e4:	37dcbc13          	sltiu	x24,x25,893
    410151e8:	354c3393          	sltiu	x7,x24,852
    410151ec:	3053b393          	sltiu	x7,x7,773
    410151f0:	2e13bd93          	sltiu	x27,x7,737
    410151f4:	25cdb793          	sltiu	x15,x27,604
    410151f8:	60b7b913          	sltiu	x18,x15,1547
    410151fc:	68a93393          	sltiu	x7,x18,1674
    41015200:	2bd3bc13          	sltiu	x24,x7,701
    41015204:	38ac3993          	sltiu	x19,x24,906
    41015208:	6659b913          	sltiu	x18,x19,1637
    4101520c:	59b93a93          	sltiu	x21,x18,1435
    41015210:	1eaabb13          	sltiu	x22,x21,490
    41015214:	517b3313          	sltiu	x6,x22,1303
    41015218:	4e333913          	sltiu	x18,x6,1251
    4101521c:	42993e93          	sltiu	x29,x18,1065
    41015220:	12aeb813          	sltiu	x16,x29,298
    41015224:	07583f93          	sltiu	x31,x16,117
    41015228:	2befbe13          	sltiu	x28,x31,702
    4101522c:	565e3a13          	sltiu	x20,x28,1381
    41015230:	0eba3f93          	sltiu	x31,x20,235
    41015234:	724fb593          	sltiu	x11,x31,1828
    41015238:	41d5bb93          	sltiu	x23,x11,1053
    4101523c:	163bbb13          	sltiu	x22,x23,355
    41015240:	45bb3593          	sltiu	x11,x22,1115
    41015244:	5275ba13          	sltiu	x20,x11,1319
    41015248:	504a3d93          	sltiu	x27,x20,1284
    4101524c:	3e9dbc93          	sltiu	x25,x27,1001
    41015250:	72acbf93          	sltiu	x31,x25,1834
    41015254:	2bdfbb93          	sltiu	x23,x31,701
    41015258:	612bb913          	sltiu	x18,x23,1554
    4101525c:	5b193d13          	sltiu	x26,x18,1457
    41015260:	0fbd3d13          	sltiu	x26,x26,251
    41015264:	7d0d3393          	sltiu	x7,x26,2000
    41015268:	4ac3be13          	sltiu	x28,x7,1196
    4101526c:	02fe3393          	sltiu	x7,x28,47
    41015270:	3da3bc93          	sltiu	x25,x7,986
    41015274:	730cbf13          	sltiu	x30,x25,1840
    41015278:	1aff3f13          	sltiu	x30,x30,431
    4101527c:	313f3d13          	sltiu	x26,x30,787
    41015280:	510d3313          	sltiu	x6,x26,1296
    41015284:	6ae33893          	sltiu	x17,x6,1710
    41015288:	7a28b893          	sltiu	x17,x17,1954
    4101528c:	1688b793          	sltiu	x15,x17,360
    41015290:	3307be93          	sltiu	x29,x15,816
    41015294:	5beebd13          	sltiu	x26,x29,1470
    41015298:	1d5d3b93          	sltiu	x23,x26,469
    4101529c:	0cfbbd13          	sltiu	x26,x23,207
    410152a0:	c0102cf3          	rdtime	x25
    410152a4:	c00028f3          	rdcycle	x17
    410152a8:	c0202bf3          	rdinstret	x23
    410152ac:	40dc8b33          	sub	x22,x25,x13
    410152b0:	40c88a33          	sub	x20,x17,x12
    410152b4:	408b8733          	sub	x14,x23,x8
    410152b8:	00000613          	li	x12,0
    410152bc:	c0102873          	rdtime	x16
    410152c0:	c0002473          	rdcycle	x8
    410152c4:	c0202bf3          	rdinstret	x23
    410152c8:	1ff63c93          	sltiu	x25,x12,511
    410152cc:	2b2cb693          	sltiu	x13,x25,690
    410152d0:	7cf6bf93          	sltiu	x31,x13,1999
    410152d4:	7c5fbe93          	sltiu	x29,x31,1989
    410152d8:	2a4ebe13          	sltiu	x28,x29,676
    410152dc:	543e3e93          	sltiu	x29,x28,1347
    410152e0:	1f9ebb13          	sltiu	x22,x29,505
    410152e4:	649b3d13          	sltiu	x26,x22,1609
    410152e8:	56dd3393          	sltiu	x7,x26,1389
    410152ec:	3b33bc93          	sltiu	x25,x7,947
    410152f0:	5f4cb993          	sltiu	x19,x25,1524
    410152f4:	3c79bc93          	sltiu	x25,x19,967
    410152f8:	2f7cb593          	sltiu	x11,x25,759
    410152fc:	3f35b913          	sltiu	x18,x11,1011
    41015300:	53993d13          	sltiu	x26,x18,1337
    41015304:	632d3513          	sltiu	x10,x26,1586
    41015308:	55153e93          	sltiu	x29,x10,1361
    4101530c:	5ccebc13          	sltiu	x24,x29,1484
    41015310:	781c3993          	sltiu	x19,x24,1921
    41015314:	18f9b893          	sltiu	x17,x19,399
    41015318:	3778bb13          	sltiu	x22,x17,887
    4101531c:	389b3513          	sltiu	x10,x22,905
    41015320:	33353f93          	sltiu	x31,x10,819
    41015324:	459fb713          	sltiu	x14,x31,1113
    41015328:	0f973f13          	sltiu	x30,x14,249
    4101532c:	495f3d93          	sltiu	x27,x30,1173
    41015330:	3eadbf13          	sltiu	x30,x27,1002
    41015334:	76df3a93          	sltiu	x21,x30,1901
    41015338:	224abc13          	sltiu	x24,x21,548
    4101533c:	6bac3893          	sltiu	x17,x24,1722
    41015340:	1038be13          	sltiu	x28,x17,259
    41015344:	135e3693          	sltiu	x13,x28,309
    41015348:	01b6bc13          	sltiu	x24,x13,27
    4101534c:	305c3d93          	sltiu	x27,x24,773
    41015350:	354dbc93          	sltiu	x25,x27,852
    41015354:	0e2cba93          	sltiu	x21,x25,226
    41015358:	667ab513          	sltiu	x10,x21,1639
    4101535c:	03853e13          	sltiu	x28,x10,56
    41015360:	53be3b13          	sltiu	x22,x28,1339
    41015364:	09bb3593          	sltiu	x11,x22,155
    41015368:	78a5bd13          	sltiu	x26,x11,1930
    4101536c:	179d3f13          	sltiu	x30,x26,377
    41015370:	3aef3d13          	sltiu	x26,x30,942
    41015374:	623d3e13          	sltiu	x28,x26,1571
    41015378:	307e3793          	sltiu	x15,x28,775
    4101537c:	5597b893          	sltiu	x17,x15,1369
    41015380:	4078b313          	sltiu	x6,x17,1031
    41015384:	66533513          	sltiu	x10,x6,1637
    41015388:	68853a13          	sltiu	x20,x10,1672
    4101538c:	251a3893          	sltiu	x17,x20,593
    41015390:	75a8b993          	sltiu	x19,x17,1882
    41015394:	1419be93          	sltiu	x29,x19,321
    41015398:	13eebc93          	sltiu	x25,x29,318
    4101539c:	7c9cb793          	sltiu	x15,x25,1993
    410153a0:	4357b613          	sltiu	x12,x15,1077
    410153a4:	69e63993          	sltiu	x19,x12,1694
    410153a8:	0db9ba13          	sltiu	x20,x19,219
    410153ac:	796a3913          	sltiu	x18,x20,1942
    410153b0:	20c93793          	sltiu	x15,x18,524
    410153b4:	0297be13          	sltiu	x28,x15,41
    410153b8:	3bae3f93          	sltiu	x31,x28,954
    410153bc:	32ffb513          	sltiu	x10,x31,815
    410153c0:	67f53993          	sltiu	x19,x10,1663
    410153c4:	5159b793          	sltiu	x15,x19,1301
    410153c8:	5a67b513          	sltiu	x10,x15,1446
    410153cc:	5e653f13          	sltiu	x30,x10,1510
    410153d0:	65af3e93          	sltiu	x29,x30,1626
    410153d4:	750eb593          	sltiu	x11,x29,1872
    410153d8:	1d65bc93          	sltiu	x25,x11,470
    410153dc:	450cbf93          	sltiu	x31,x25,1104
    410153e0:	593fb393          	sltiu	x7,x31,1427
    410153e4:	3233bf13          	sltiu	x30,x7,803
    410153e8:	7f1f3793          	sltiu	x15,x30,2033
    410153ec:	00d7b493          	sltiu	x9,x15,13
    410153f0:	45d4b993          	sltiu	x19,x9,1117
    410153f4:	6719b613          	sltiu	x12,x19,1649
    410153f8:	20163f13          	sltiu	x30,x12,513
    410153fc:	7def3913          	sltiu	x18,x30,2014
    41015400:	36593a93          	sltiu	x21,x18,869
    41015404:	745ab613          	sltiu	x12,x21,1861
    41015408:	14863993          	sltiu	x19,x12,328
    4101540c:	54f9b493          	sltiu	x9,x19,1359
    41015410:	1714ba13          	sltiu	x20,x9,369
    41015414:	2c0a3c13          	sltiu	x24,x20,704
    41015418:	54fc3993          	sltiu	x19,x24,1359
    4101541c:	1ec9bc93          	sltiu	x25,x19,492
    41015420:	09ecb793          	sltiu	x15,x25,158
    41015424:	6367b393          	sltiu	x7,x15,1590
    41015428:	44d3b493          	sltiu	x9,x7,1101
    4101542c:	77e4b713          	sltiu	x14,x9,1918
    41015430:	47973c93          	sltiu	x25,x14,1145
    41015434:	7b1cb793          	sltiu	x15,x25,1969
    41015438:	14c7bd13          	sltiu	x26,x15,332
    4101543c:	16ad3d93          	sltiu	x27,x26,362
    41015440:	304db713          	sltiu	x14,x27,772
    41015444:	4b173393          	sltiu	x7,x14,1201
    41015448:	02f3b693          	sltiu	x13,x7,47
    4101544c:	41d6be13          	sltiu	x28,x13,1053
    41015450:	1bfe3613          	sltiu	x12,x28,447
    41015454:	36e63a13          	sltiu	x20,x12,878
    41015458:	c01029f3          	rdtime	x19
    4101545c:	c00023f3          	rdcycle	x7
    41015460:	c0202373          	rdinstret	x6
    41015464:	41098833          	sub	x16,x19,x16
    41015468:	40838cb3          	sub	x25,x7,x8
    4101546c:	41730a33          	sub	x20,x6,x23
    41015470:	00000513          	li	x10,0
    41015474:	c0102e73          	rdtime	x28
    41015478:	c0002bf3          	rdcycle	x23
    4101547c:	c0202ef3          	rdinstret	x29
    41015480:	1e553413          	sltiu	x8,x10,485
    41015484:	65d43613          	sltiu	x12,x8,1629
    41015488:	05563d13          	sltiu	x26,x12,85
    4101548c:	77fd3313          	sltiu	x6,x26,1919
    41015490:	42333413          	sltiu	x8,x6,1059
    41015494:	5cf43b13          	sltiu	x22,x8,1487
    41015498:	188b3a93          	sltiu	x21,x22,392
    4101549c:	59dab693          	sltiu	x13,x21,1437
    410154a0:	40b6b813          	sltiu	x16,x13,1035
    410154a4:	58983493          	sltiu	x9,x16,1417
    410154a8:	4e84b913          	sltiu	x18,x9,1256
    410154ac:	53d93813          	sltiu	x16,x18,1341
    410154b0:	7ff83c13          	sltiu	x24,x16,2047
    410154b4:	44ec3913          	sltiu	x18,x24,1102
    410154b8:	0a193f13          	sltiu	x30,x18,161
    410154bc:	1fef3413          	sltiu	x8,x30,510
    410154c0:	33243d13          	sltiu	x26,x8,818
    410154c4:	63fd3c13          	sltiu	x24,x26,1599
    410154c8:	3bbc3693          	sltiu	x13,x24,955
    410154cc:	0f66bb13          	sltiu	x22,x13,246
    410154d0:	48cb3313          	sltiu	x6,x22,1164
    410154d4:	52933513          	sltiu	x10,x6,1321
    410154d8:	06653313          	sltiu	x6,x10,102
    410154dc:	31b33813          	sltiu	x16,x6,795
    410154e0:	0ba83593          	sltiu	x11,x16,186
    410154e4:	47d5b793          	sltiu	x15,x11,1149
    410154e8:	0c47b793          	sltiu	x15,x15,196
    410154ec:	5247ba93          	sltiu	x21,x15,1316
    410154f0:	688ab913          	sltiu	x18,x21,1672
    410154f4:	3d793693          	sltiu	x13,x18,983
    410154f8:	05f6b793          	sltiu	x15,x13,95
    410154fc:	7d67b413          	sltiu	x8,x15,2006
    41015500:	42843693          	sltiu	x13,x8,1064
    41015504:	1ec6b413          	sltiu	x8,x13,492
    41015508:	63b43d93          	sltiu	x27,x8,1595
    4101550c:	01bdb713          	sltiu	x14,x27,27
    41015510:	02d73493          	sltiu	x9,x14,45
    41015514:	7a74bb13          	sltiu	x22,x9,1959
    41015518:	6e2b3913          	sltiu	x18,x22,1762
    4101551c:	28193993          	sltiu	x19,x18,641
    41015520:	3be9bf13          	sltiu	x30,x19,958
    41015524:	23cf3593          	sltiu	x11,x30,572
    41015528:	5cb5b913          	sltiu	x18,x11,1483
    4101552c:	35693913          	sltiu	x18,x18,854
    41015530:	15893813          	sltiu	x16,x18,344
    41015534:	4c583313          	sltiu	x6,x16,1221
    41015538:	11333513          	sltiu	x10,x6,275
    4101553c:	7e653613          	sltiu	x12,x10,2022
    41015540:	48163413          	sltiu	x8,x12,1153
    41015544:	5ac43913          	sltiu	x18,x8,1452
    41015548:	6a093f93          	sltiu	x31,x18,1696
    4101554c:	28efb513          	sltiu	x10,x31,654
    41015550:	62d53493          	sltiu	x9,x10,1581
    41015554:	44a4b693          	sltiu	x13,x9,1098
    41015558:	51a6bf93          	sltiu	x31,x13,1306
    4101555c:	399fbd13          	sltiu	x26,x31,921
    41015560:	7f2d3493          	sltiu	x9,x26,2034
    41015564:	4064b593          	sltiu	x11,x9,1030
    41015568:	66f5b813          	sltiu	x16,x11,1647
    4101556c:	35a83f13          	sltiu	x30,x16,858
    41015570:	471f3d13          	sltiu	x26,x30,1137
    41015574:	15ad3793          	sltiu	x15,x26,346
    41015578:	59a7b393          	sltiu	x7,x15,1434
    4101557c:	32c3b493          	sltiu	x9,x7,812
    41015580:	5994b513          	sltiu	x10,x9,1433
    41015584:	31f53c13          	sltiu	x24,x10,799
    41015588:	67ac3893          	sltiu	x17,x24,1658
    4101558c:	19e8bf93          	sltiu	x31,x17,414
    41015590:	3f9fbd13          	sltiu	x26,x31,1017
    41015594:	68cd3313          	sltiu	x6,x26,1676
    41015598:	23d33893          	sltiu	x17,x6,573
    4101559c:	2e48bd93          	sltiu	x27,x17,740
    410155a0:	76fdb313          	sltiu	x6,x27,1903
    410155a4:	13933313          	sltiu	x6,x6,313
    410155a8:	21633f93          	sltiu	x31,x6,534
    410155ac:	48bfb493          	sltiu	x9,x31,1163
    410155b0:	23f4b413          	sltiu	x8,x9,575
    410155b4:	6c543693          	sltiu	x13,x8,1733
    410155b8:	1696b813          	sltiu	x16,x13,361
    410155bc:	64183993          	sltiu	x19,x16,1601
    410155c0:	5c79b693          	sltiu	x13,x19,1479
    410155c4:	4fc6b913          	sltiu	x18,x13,1276
    410155c8:	0ae93993          	sltiu	x19,x18,174
    410155cc:	5dc9b413          	sltiu	x8,x19,1500
    410155d0:	2e543613          	sltiu	x12,x8,741
    410155d4:	2b363c13          	sltiu	x24,x12,691
    410155d8:	770c3813          	sltiu	x16,x24,1904
    410155dc:	12783393          	sltiu	x7,x16,295
    410155e0:	2143b713          	sltiu	x14,x7,532
    410155e4:	20d73493          	sltiu	x9,x14,525
    410155e8:	2074b413          	sltiu	x8,x9,519
    410155ec:	2ce43f93          	sltiu	x31,x8,718
    410155f0:	315fb413          	sltiu	x8,x31,789
    410155f4:	23e43913          	sltiu	x18,x8,574
    410155f8:	48993893          	sltiu	x17,x18,1161
    410155fc:	3c08b893          	sltiu	x17,x17,960
    41015600:	01e8ba93          	sltiu	x21,x17,30
    41015604:	134abb13          	sltiu	x22,x21,308
    41015608:	7a4b3f93          	sltiu	x31,x22,1956
    4101560c:	10dfbf13          	sltiu	x30,x31,269
    41015610:	c0102373          	rdtime	x6
    41015614:	c0002c73          	rdcycle	x24
    41015618:	c0202ff3          	rdinstret	x31
    4101561c:	41c307b3          	sub	x15,x6,x28
    41015620:	417c05b3          	sub	x11,x24,x23
    41015624:	41df83b3          	sub	x7,x31,x29
    41015628:	00bc8a63          	beq	x25,x11,4101563c <pass_label_6>
    4101562c:	41572db7          	lui	x27,0x41572
    41015630:	008d8d9b          	addiw	x27,x27,8 # 41572008 <failed_addr>
    41015634:	000db783          	ld	x15,0(x27)
    41015638:	00078067          	jr	x15

000000004101563c <pass_label_6>:
    4101563c:	007a0a63          	beq	x20,x7,41015650 <SID_ZKT_03_SLTIU_passed>
    41015640:	41572837          	lui	x16,0x41572
    41015644:	0088081b          	addiw	x16,x16,8 # 41572008 <failed_addr>
    41015648:	00083d03          	ld	x26,0(x16)
    4101564c:	000d0067          	jr	x26

0000000041015650 <SID_ZKT_03_SLTIU_passed>:
    41015650:	415722b7          	lui	x5,0x41572
    41015654:	0182829b          	addiw	x5,x5,24 # 41572018 <os_passed_addr>
    41015658:	0002b303          	ld	x6,0(x5)
    4101565c:	00030067          	jr	x6

0000000041015660 <SID_ZKT_03_XORI>:
    41015660:	415b7137          	lui	x2,0x415b7
    41015664:	000012b7          	lui	x5,0x1
    41015668:	00510133          	add	x2,x2,x5
    4101566c:	ff017113          	andi	x2,x2,-16
    41015670:	00000b93          	li	x23,0
    41015674:	c0102673          	rdtime	x12
    41015678:	c0002b73          	rdcycle	x22
    4101567c:	c02026f3          	rdinstret	x13
    41015680:	794bc813          	xori	x16,x23,1940
    41015684:	43c84913          	xori	x18,x16,1084
    41015688:	19d94f13          	xori	x30,x18,413
    4101568c:	1aff4e93          	xori	x29,x30,431
    41015690:	38eece13          	xori	x28,x29,910
    41015694:	252e4893          	xori	x17,x28,594
    41015698:	1f48c793          	xori	x15,x17,500
    4101569c:	3ef7c593          	xori	x11,x15,1007
    410156a0:	40f5c993          	xori	x19,x11,1039
    410156a4:	2fb9cf93          	xori	x31,x19,763
    410156a8:	29cfc393          	xori	x7,x31,668
    410156ac:	3253cc13          	xori	x24,x7,805
    410156b0:	791c4793          	xori	x15,x24,1937
    410156b4:	53d7c793          	xori	x15,x15,1341
    410156b8:	0997ce93          	xori	x29,x15,153
    410156bc:	192ec413          	xori	x8,x29,402
    410156c0:	4c444813          	xori	x16,x8,1220
    410156c4:	17684913          	xori	x18,x16,374
    410156c8:	18394593          	xori	x11,x18,387
    410156cc:	57c5c713          	xori	x14,x11,1404
    410156d0:	4ff74313          	xori	x6,x14,1279
    410156d4:	26334813          	xori	x16,x6,611
    410156d8:	7a784d13          	xori	x26,x16,1959
    410156dc:	779d4413          	xori	x8,x26,1913
    410156e0:	4a944813          	xori	x16,x8,1193
    410156e4:	36b84a13          	xori	x20,x16,875
    410156e8:	4eba4b93          	xori	x23,x20,1259
    410156ec:	3cdbce13          	xori	x28,x23,973
    410156f0:	2ebe4993          	xori	x19,x28,747
    410156f4:	0329cf13          	xori	x30,x19,50
    410156f8:	3e9f4793          	xori	x15,x30,1001
    410156fc:	02d7cc93          	xori	x25,x15,45
    41015700:	773cc513          	xori	x10,x25,1907
    41015704:	0d954713          	xori	x14,x10,217
    41015708:	54874f93          	xori	x31,x14,1352
    4101570c:	504fcd93          	xori	x27,x31,1284
    41015710:	4a2dce13          	xori	x28,x27,1186
    41015714:	553e4c13          	xori	x24,x28,1363
    41015718:	4f8c4313          	xori	x6,x24,1272
    4101571c:	7a134a93          	xori	x21,x6,1953
    41015720:	6c7aca13          	xori	x20,x21,1735
    41015724:	378a4f13          	xori	x30,x20,888
    41015728:	6a1f4893          	xori	x17,x30,1697
    4101572c:	5ac8c313          	xori	x6,x17,1452
    41015730:	4ab34e93          	xori	x29,x6,1195
    41015734:	2c2ecd93          	xori	x27,x29,706
    41015738:	2b9dc813          	xori	x16,x27,697
    4101573c:	09a84993          	xori	x19,x16,154
    41015740:	52f9c813          	xori	x16,x19,1327
    41015744:	35f84413          	xori	x8,x16,863
    41015748:	19244593          	xori	x11,x8,402
    4101574c:	59f5c393          	xori	x7,x11,1439
    41015750:	4203c513          	xori	x10,x7,1056
    41015754:	67254913          	xori	x18,x10,1650
    41015758:	3f794793          	xori	x15,x18,1015
    4101575c:	7a07cb93          	xori	x23,x15,1952
    41015760:	6bfbca93          	xori	x21,x23,1727
    41015764:	6abac893          	xori	x17,x21,1707
    41015768:	4e08c893          	xori	x17,x17,1248
    4101576c:	4858cf13          	xori	x30,x17,1157
    41015770:	54bf4513          	xori	x10,x30,1355
    41015774:	46a54413          	xori	x8,x10,1130
    41015778:	78744a13          	xori	x20,x8,1927
    4101577c:	405a4d13          	xori	x26,x20,1029
    41015780:	6dad4d93          	xori	x27,x26,1754
    41015784:	3d5dc313          	xori	x6,x27,981
    41015788:	4cf34393          	xori	x7,x6,1231
    4101578c:	5743c793          	xori	x15,x7,1396
    41015790:	5eb7cb93          	xori	x23,x15,1515
    41015794:	49ebc513          	xori	x10,x23,1182
    41015798:	74054b93          	xori	x23,x10,1856
    4101579c:	6debc393          	xori	x7,x23,1758
    410157a0:	6273c893          	xori	x17,x7,1575
    410157a4:	39c8c393          	xori	x7,x17,924
    410157a8:	4d73cf13          	xori	x30,x7,1239
    410157ac:	3c7f4713          	xori	x14,x30,967
    410157b0:	15574d13          	xori	x26,x14,341
    410157b4:	6abd4813          	xori	x16,x26,1707
    410157b8:	22884513          	xori	x10,x16,552
    410157bc:	56a54413          	xori	x8,x10,1386
    410157c0:	69144e93          	xori	x29,x8,1681
    410157c4:	435ec813          	xori	x16,x29,1077
    410157c8:	26c84413          	xori	x8,x16,620
    410157cc:	48444e13          	xori	x28,x8,1156
    410157d0:	621e4a93          	xori	x21,x28,1569
    410157d4:	675acf93          	xori	x31,x21,1653
    410157d8:	32efcf13          	xori	x30,x31,814
    410157dc:	4def4313          	xori	x6,x30,1246
    410157e0:	45434413          	xori	x8,x6,1108
    410157e4:	21544b93          	xori	x23,x8,533
    410157e8:	20ebc393          	xori	x7,x23,526
    410157ec:	27e3cd13          	xori	x26,x7,638
    410157f0:	021d4813          	xori	x16,x26,33
    410157f4:	4d984a93          	xori	x21,x16,1241
    410157f8:	612ac513          	xori	x10,x21,1554
    410157fc:	06054e93          	xori	x29,x10,96
    41015800:	644ec713          	xori	x14,x29,1604
    41015804:	3ac74f13          	xori	x30,x14,940
    41015808:	3acf4393          	xori	x7,x30,940
    4101580c:	7253c813          	xori	x16,x7,1829
    41015810:	c01024f3          	rdtime	x9
    41015814:	c0002373          	rdcycle	x6
    41015818:	c0202973          	rdinstret	x18
    4101581c:	40c48fb3          	sub	x31,x9,x12
    41015820:	41630db3          	sub	x27,x6,x22
    41015824:	40d90bb3          	sub	x23,x18,x13
    41015828:	00000493          	li	x9,0
    4101582c:	c0102a73          	rdtime	x20
    41015830:	c0002ff3          	rdcycle	x31
    41015834:	c0202bf3          	rdinstret	x23
    41015838:	2db4c793          	xori	x15,x9,731
    4101583c:	1de7ce13          	xori	x28,x15,478
    41015840:	413e4613          	xori	x12,x28,1043
    41015844:	39064793          	xori	x15,x12,912
    41015848:	1af7ce13          	xori	x28,x15,431
    4101584c:	59be4893          	xori	x17,x28,1435
    41015850:	3d18c413          	xori	x8,x17,977
    41015854:	76a44a93          	xori	x21,x8,1898
    41015858:	2b2ac993          	xori	x19,x21,690
    4101585c:	5949c893          	xori	x17,x19,1428
    41015860:	7eb8c393          	xori	x7,x17,2027
    41015864:	5043cf13          	xori	x30,x7,1284
    41015868:	12bf4693          	xori	x13,x30,299
    4101586c:	3156c393          	xori	x7,x13,789
    41015870:	6e93cd93          	xori	x27,x7,1769
    41015874:	382dce93          	xori	x29,x27,898
    41015878:	072ec313          	xori	x6,x29,114
    4101587c:	52534993          	xori	x19,x6,1317
    41015880:	0e69c493          	xori	x9,x19,230
    41015884:	2dc4c593          	xori	x11,x9,732
    41015888:	6fb5c893          	xori	x17,x11,1787
    4101588c:	64a8c713          	xori	x14,x17,1610
    41015890:	75574313          	xori	x6,x14,1877
    41015894:	01334a93          	xori	x21,x6,19
    41015898:	20eacd93          	xori	x27,x21,526
    4101589c:	605dc513          	xori	x10,x27,1541
    410158a0:	45754b13          	xori	x22,x10,1111
    410158a4:	5f2b4513          	xori	x10,x22,1522
    410158a8:	07154693          	xori	x13,x10,113
    410158ac:	2766cd13          	xori	x26,x13,630
    410158b0:	30ad4693          	xori	x13,x26,778
    410158b4:	0216c793          	xori	x15,x13,33
    410158b8:	29b7c313          	xori	x6,x15,667
    410158bc:	2b734b13          	xori	x22,x6,695
    410158c0:	27bb4c13          	xori	x24,x22,635
    410158c4:	4b9c4813          	xori	x16,x24,1209
    410158c8:	70984393          	xori	x7,x16,1801
    410158cc:	64e3cc13          	xori	x24,x7,1614
    410158d0:	69ac4713          	xori	x14,x24,1690
    410158d4:	6f974a93          	xori	x21,x14,1785
    410158d8:	068ac313          	xori	x6,x21,104
    410158dc:	1ae34d93          	xori	x27,x6,430
    410158e0:	5bedc813          	xori	x16,x27,1470
    410158e4:	0aa84313          	xori	x6,x16,170
    410158e8:	2a434813          	xori	x16,x6,676
    410158ec:	0f884513          	xori	x10,x16,248
    410158f0:	56254893          	xori	x17,x10,1378
    410158f4:	7ec8c813          	xori	x16,x17,2028
    410158f8:	69484e13          	xori	x28,x16,1684
    410158fc:	52ce4e93          	xori	x29,x28,1324
    41015900:	08aec393          	xori	x7,x29,138
    41015904:	1093c913          	xori	x18,x7,265
    41015908:	64294693          	xori	x13,x18,1602
    4101590c:	5896ce93          	xori	x29,x13,1417
    41015910:	25dece93          	xori	x29,x29,605
    41015914:	7b0ec593          	xori	x11,x29,1968
    41015918:	3495c613          	xori	x12,x11,841
    4101591c:	4df64b13          	xori	x22,x12,1247
    41015920:	2bcb4a93          	xori	x21,x22,700
    41015924:	1dfac313          	xori	x6,x21,479
    41015928:	03a34593          	xori	x11,x6,58
    4101592c:	7b55c813          	xori	x16,x11,1973
    41015930:	52a84c13          	xori	x24,x16,1322
    41015934:	59dc4e13          	xori	x28,x24,1437
    41015938:	587e4413          	xori	x8,x28,1415
    4101593c:	17944d93          	xori	x27,x8,377
    41015940:	60edc393          	xori	x7,x27,1550
    41015944:	6243c393          	xori	x7,x7,1572
    41015948:	6103cc13          	xori	x24,x7,1552
    4101594c:	40bc4c93          	xori	x25,x24,1035
    41015950:	602cc513          	xori	x10,x25,1538
    41015954:	49a54d13          	xori	x26,x10,1178
    41015958:	523d4713          	xori	x14,x26,1315
    4101595c:	2f074e93          	xori	x29,x14,752
    41015960:	26eec593          	xori	x11,x29,622
    41015964:	25c5cc13          	xori	x24,x11,604
    41015968:	309c4b13          	xori	x22,x24,777
    4101596c:	360b4893          	xori	x17,x22,864
    41015970:	76d8c693          	xori	x13,x17,1901
    41015974:	4396c313          	xori	x6,x13,1081
    41015978:	7cb34493          	xori	x9,x6,1995
    4101597c:	3b44cd93          	xori	x27,x9,948
    41015980:	67fdc893          	xori	x17,x27,1663
    41015984:	6f18cc13          	xori	x24,x17,1777
    41015988:	6e0c4b13          	xori	x22,x24,1760
    4101598c:	09ab4313          	xori	x6,x22,154
    41015990:	78834893          	xori	x17,x6,1928
    41015994:	19a8c493          	xori	x9,x17,410
    41015998:	3454c713          	xori	x14,x9,837
    4101599c:	78374593          	xori	x11,x14,1923
    410159a0:	1dd5c313          	xori	x6,x11,477
    410159a4:	4df34c13          	xori	x24,x6,1247
    410159a8:	059c4d93          	xori	x27,x24,89
    410159ac:	4f3dca93          	xori	x21,x27,1267
    410159b0:	1f0ac493          	xori	x9,x21,496
    410159b4:	50c4cd13          	xori	x26,x9,1292
    410159b8:	1ced4e13          	xori	x28,x26,462
    410159bc:	1f5e4893          	xori	x17,x28,501
    410159c0:	5b78c793          	xori	x15,x17,1463
    410159c4:	32b7c513          	xori	x10,x15,811
    410159c8:	c01023f3          	rdtime	x7
    410159cc:	c0002ef3          	rdcycle	x29
    410159d0:	c0202873          	rdinstret	x16
    410159d4:	41438433          	sub	x8,x7,x20
    410159d8:	41fe8b33          	sub	x22,x29,x31
    410159dc:	41780f33          	sub	x30,x16,x23
    410159e0:	00000713          	li	x14,0
    410159e4:	c0102573          	rdtime	x10
    410159e8:	c0002d73          	rdcycle	x26
    410159ec:	c02025f3          	rdinstret	x11
    410159f0:	30b74913          	xori	x18,x14,779
    410159f4:	1b194793          	xori	x15,x18,433
    410159f8:	4fc7cc93          	xori	x25,x15,1276
    410159fc:	13acc793          	xori	x15,x25,314
    41015a00:	5c57c493          	xori	x9,x15,1477
    41015a04:	7ed4ca93          	xori	x21,x9,2029
    41015a08:	267ac693          	xori	x13,x21,615
    41015a0c:	5f66c713          	xori	x14,x13,1526
    41015a10:	5c374713          	xori	x14,x14,1475
    41015a14:	70b74713          	xori	x14,x14,1803
    41015a18:	2e474893          	xori	x17,x14,740
    41015a1c:	0058c713          	xori	x14,x17,5
    41015a20:	5b674e93          	xori	x29,x14,1462
    41015a24:	5a5ece13          	xori	x28,x29,1445
    41015a28:	582e4713          	xori	x14,x28,1410
    41015a2c:	27874993          	xori	x19,x14,632
    41015a30:	3909c413          	xori	x8,x19,912
    41015a34:	3fe44c93          	xori	x25,x8,1022
    41015a38:	160cce93          	xori	x29,x25,352
    41015a3c:	569ec993          	xori	x19,x29,1385
    41015a40:	12e9c313          	xori	x6,x19,302
    41015a44:	04234c13          	xori	x24,x6,66
    41015a48:	7f2c4693          	xori	x13,x24,2034
    41015a4c:	2fa6cc93          	xori	x25,x13,762
    41015a50:	381cc313          	xori	x6,x25,897
    41015a54:	47134893          	xori	x17,x6,1137
    41015a58:	2bf8cf93          	xori	x31,x17,703
    41015a5c:	701fcc13          	xori	x24,x31,1793
    41015a60:	66bc4a13          	xori	x20,x24,1643
    41015a64:	41ea4313          	xori	x6,x20,1054
    41015a68:	3ed34713          	xori	x14,x6,1005
    41015a6c:	28d74a13          	xori	x20,x14,653
    41015a70:	786a4e13          	xori	x28,x20,1926
    41015a74:	4d7e4a13          	xori	x20,x28,1239
    41015a78:	0e7a4e93          	xori	x29,x20,231
    41015a7c:	4aeece13          	xori	x28,x29,1198
    41015a80:	52de4393          	xori	x7,x28,1325
    41015a84:	2593c313          	xori	x6,x7,601
    41015a88:	67e34693          	xori	x13,x6,1662
    41015a8c:	4656cc13          	xori	x24,x13,1125
    41015a90:	550c4b93          	xori	x23,x24,1360
    41015a94:	238bc993          	xori	x19,x23,568
    41015a98:	3729c813          	xori	x16,x19,882
    41015a9c:	01a84813          	xori	x16,x16,26
    41015aa0:	6bf84713          	xori	x14,x16,1727
    41015aa4:	27f74613          	xori	x12,x14,639
    41015aa8:	60764413          	xori	x8,x12,1543
    41015aac:	0b444e13          	xori	x28,x8,180
    41015ab0:	51fe4f93          	xori	x31,x28,1311
    41015ab4:	3f2fc313          	xori	x6,x31,1010
    41015ab8:	0ee34e93          	xori	x29,x6,238
    41015abc:	405ec393          	xori	x7,x29,1029
    41015ac0:	1c63cc13          	xori	x24,x7,454
    41015ac4:	6f9c4e13          	xori	x28,x24,1785
    41015ac8:	4dbe4613          	xori	x12,x28,1243
    41015acc:	5fe64d93          	xori	x27,x12,1534
    41015ad0:	528dc993          	xori	x19,x27,1320
    41015ad4:	6019c893          	xori	x17,x19,1537
    41015ad8:	7cc8c893          	xori	x17,x17,1996
    41015adc:	7ed8c713          	xori	x14,x17,2029
    41015ae0:	76d74793          	xori	x15,x14,1901
    41015ae4:	2217cc93          	xori	x25,x15,545
    41015ae8:	381cce13          	xori	x28,x25,897
    41015aec:	2fee4613          	xori	x12,x28,766
    41015af0:	64964e13          	xori	x28,x12,1609
    41015af4:	1dbe4813          	xori	x16,x28,475
    41015af8:	07284313          	xori	x6,x16,114
    41015afc:	0d434d93          	xori	x27,x6,212
    41015b00:	4c9dcd93          	xori	x27,x27,1225
    41015b04:	422dc813          	xori	x16,x27,1058
    41015b08:	42084c93          	xori	x25,x16,1056
    41015b0c:	41accd93          	xori	x27,x25,1050
    41015b10:	150dc393          	xori	x7,x27,336
    41015b14:	10c3cd93          	xori	x27,x7,268
    41015b18:	259dce93          	xori	x29,x27,601
    41015b1c:	764ecb93          	xori	x23,x29,1892
    41015b20:	065bc713          	xori	x14,x23,101
    41015b24:	7d674693          	xori	x13,x14,2006
    41015b28:	7166ce13          	xori	x28,x13,1814
    41015b2c:	08ee4a13          	xori	x20,x28,142
    41015b30:	1c1a4c93          	xori	x25,x20,449
    41015b34:	009cc813          	xori	x16,x25,9
    41015b38:	56484693          	xori	x13,x16,1380
    41015b3c:	0816cc93          	xori	x25,x13,129
    41015b40:	365cc993          	xori	x19,x25,869
    41015b44:	5dd9ce93          	xori	x29,x19,1501
    41015b48:	5bcece13          	xori	x28,x29,1468
    41015b4c:	6d4e4f93          	xori	x31,x28,1748
    41015b50:	02efc693          	xori	x13,x31,46
    41015b54:	08a6c613          	xori	x12,x13,138
    41015b58:	07364493          	xori	x9,x12,115
    41015b5c:	0154c493          	xori	x9,x9,21
    41015b60:	04a4c393          	xori	x7,x9,74
    41015b64:	4503c413          	xori	x8,x7,1104
    41015b68:	2b944c13          	xori	x24,x8,697
    41015b6c:	2acc4a93          	xori	x21,x24,684
    41015b70:	64aac493          	xori	x9,x21,1610
    41015b74:	0294c393          	xori	x7,x9,41
    41015b78:	4e73c613          	xori	x12,x7,1255
    41015b7c:	01564493          	xori	x9,x12,21
    41015b80:	c0102473          	rdtime	x8
    41015b84:	c00029f3          	rdcycle	x19
    41015b88:	c02023f3          	rdinstret	x7
    41015b8c:	40a40bb3          	sub	x23,x8,x10
    41015b90:	41a98433          	sub	x8,x19,x26
    41015b94:	40b383b3          	sub	x7,x7,x11
    41015b98:	008b0a63          	beq	x22,x8,41015bac <pass_label_8>
    41015b9c:	41572637          	lui	x12,0x41572
    41015ba0:	0086061b          	addiw	x12,x12,8 # 41572008 <failed_addr>
    41015ba4:	00063683          	ld	x13,0(x12)
    41015ba8:	00068067          	jr	x13

0000000041015bac <pass_label_8>:
    41015bac:	007f0a63          	beq	x30,x7,41015bc0 <SID_ZKT_03_XORI_passed>
    41015bb0:	41572937          	lui	x18,0x41572
    41015bb4:	0089091b          	addiw	x18,x18,8 # 41572008 <failed_addr>
    41015bb8:	00093a83          	ld	x21,0(x18)
    41015bbc:	000a8067          	jr	x21

0000000041015bc0 <SID_ZKT_03_XORI_passed>:
    41015bc0:	415722b7          	lui	x5,0x41572
    41015bc4:	0182829b          	addiw	x5,x5,24 # 41572018 <os_passed_addr>
    41015bc8:	0002b303          	ld	x6,0(x5)
    41015bcc:	00030067          	jr	x6

0000000041015bd0 <SID_ZKT_03_ORI>:
    41015bd0:	4145f137          	lui	x2,0x4145f
    41015bd4:	000012b7          	lui	x5,0x1
    41015bd8:	00510133          	add	x2,x2,x5
    41015bdc:	ff017113          	andi	x2,x2,-16
    41015be0:	00000813          	li	x16,0
    41015be4:	c0102a73          	rdtime	x20
    41015be8:	c0002373          	rdcycle	x6
    41015bec:	c02029f3          	rdinstret	x19
    41015bf0:	46e86a93          	ori	x21,x16,1134
    41015bf4:	5ceaeb13          	ori	x22,x21,1486
    41015bf8:	482b6f93          	ori	x31,x22,1154
    41015bfc:	6a8fe813          	ori	x16,x31,1704
    41015c00:	5f286f93          	ori	x31,x16,1522
    41015c04:	39dfec93          	ori	x25,x31,925
    41015c08:	155ce693          	ori	x13,x25,341
    41015c0c:	4c26e913          	ori	x18,x13,1218
    41015c10:	4b896793          	ori	x15,x18,1208
    41015c14:	2ff7ed13          	ori	x26,x15,767
    41015c18:	06cd6e93          	ori	x29,x26,108
    41015c1c:	6bceee93          	ori	x29,x29,1724
    41015c20:	5d1eef13          	ori	x30,x29,1489
    41015c24:	2f5f6e93          	ori	x29,x30,757
    41015c28:	695ee613          	ori	x12,x29,1685
    41015c2c:	2d566393          	ori	x7,x12,725
    41015c30:	3833e813          	ori	x16,x7,899
    41015c34:	1e986613          	ori	x12,x16,489
    41015c38:	58366b13          	ori	x22,x12,1411
    41015c3c:	52bb6393          	ori	x7,x22,1323
    41015c40:	54f3e813          	ori	x16,x7,1359
    41015c44:	46286c13          	ori	x24,x16,1122
    41015c48:	270c6d93          	ori	x27,x24,624
    41015c4c:	6d2de513          	ori	x10,x27,1746
    41015c50:	0b756813          	ori	x16,x10,183
    41015c54:	38b86693          	ori	x13,x16,907
    41015c58:	6136ed13          	ori	x26,x13,1555
    41015c5c:	6fcd6e13          	ori	x28,x26,1788
    41015c60:	2dee6e13          	ori	x28,x28,734
    41015c64:	192e6913          	ori	x18,x28,402
    41015c68:	14d96713          	ori	x14,x18,333
    41015c6c:	11676393          	ori	x7,x14,278
    41015c70:	38c3e413          	ori	x8,x7,908
    41015c74:	77446b13          	ori	x22,x8,1908
    41015c78:	6acb6893          	ori	x17,x22,1708
    41015c7c:	05f8e813          	ori	x16,x17,95
    41015c80:	7a586f93          	ori	x31,x16,1957
    41015c84:	2ecfea93          	ori	x21,x31,748
    41015c88:	48cae413          	ori	x8,x21,1164
    41015c8c:	2b546f13          	ori	x30,x8,693
    41015c90:	7c5f6693          	ori	x13,x30,1989
    41015c94:	67a6e793          	ori	x15,x13,1658
    41015c98:	1667e713          	ori	x14,x15,358
    41015c9c:	48f76b13          	ori	x22,x14,1167
    41015ca0:	3efb6e13          	ori	x28,x22,1007
    41015ca4:	3d6e6f13          	ori	x30,x28,982
    41015ca8:	014f6b13          	ori	x22,x30,20
    41015cac:	49eb6b13          	ori	x22,x22,1182
    41015cb0:	1e2b6413          	ori	x8,x22,482
    41015cb4:	71646513          	ori	x10,x8,1814
    41015cb8:	70656c13          	ori	x24,x10,1798
    41015cbc:	4e3c6d93          	ori	x27,x24,1251
    41015cc0:	07cde613          	ori	x12,x27,124
    41015cc4:	39066d13          	ori	x26,x12,912
    41015cc8:	53fd6413          	ori	x8,x26,1343
    41015ccc:	15146913          	ori	x18,x8,337
    41015cd0:	41696e93          	ori	x29,x18,1046
    41015cd4:	1adeec93          	ori	x25,x29,429
    41015cd8:	7e9ce513          	ori	x10,x25,2025
    41015cdc:	33656413          	ori	x8,x10,822
    41015ce0:	7f546613          	ori	x12,x8,2037
    41015ce4:	3bd66893          	ori	x17,x12,957
    41015ce8:	0ff8ec13          	ori	x24,x17,255
    41015cec:	287c6813          	ori	x16,x24,647
    41015cf0:	21b86f13          	ori	x30,x16,539
    41015cf4:	11ef6893          	ori	x17,x30,286
    41015cf8:	7f18e893          	ori	x17,x17,2033
    41015cfc:	15d8ef13          	ori	x30,x17,349
    41015d00:	2a6f6b13          	ori	x22,x30,678
    41015d04:	110b6813          	ori	x16,x22,272
    41015d08:	17486f93          	ori	x31,x16,372
    41015d0c:	674fe493          	ori	x9,x31,1652
    41015d10:	74e4ee93          	ori	x29,x9,1870
    41015d14:	5f1ee793          	ori	x15,x29,1521
    41015d18:	4f37ed93          	ori	x27,x15,1267
    41015d1c:	440ded13          	ori	x26,x27,1088
    41015d20:	27ad6d13          	ori	x26,x26,634
    41015d24:	1e2d6b13          	ori	x22,x26,482
    41015d28:	472b6e93          	ori	x29,x22,1138
    41015d2c:	5aaee813          	ori	x16,x29,1450
    41015d30:	36e86b93          	ori	x23,x16,878
    41015d34:	3c1bee93          	ori	x29,x23,961
    41015d38:	3aceea93          	ori	x21,x29,940
    41015d3c:	418aee13          	ori	x28,x21,1048
    41015d40:	46de6b13          	ori	x22,x28,1133
    41015d44:	280b6d93          	ori	x27,x22,640
    41015d48:	15edee93          	ori	x29,x27,350
    41015d4c:	42bee913          	ori	x18,x29,1067
    41015d50:	4ef96413          	ori	x8,x18,1263
    41015d54:	41146493          	ori	x9,x8,1041
    41015d58:	7a74e493          	ori	x9,x9,1959
    41015d5c:	27b4ec93          	ori	x25,x9,635
    41015d60:	4bfcef13          	ori	x30,x25,1215
    41015d64:	6c0f6813          	ori	x16,x30,1728
    41015d68:	64f86693          	ori	x13,x16,1615
    41015d6c:	1aa6ee13          	ori	x28,x13,426
    41015d70:	245e6913          	ori	x18,x28,581
    41015d74:	56696593          	ori	x11,x18,1382
    41015d78:	13f5ec93          	ori	x25,x11,319
    41015d7c:	578ce413          	ori	x8,x25,1400
    41015d80:	c0102ff3          	rdtime	x31
    41015d84:	c0002d73          	rdcycle	x26
    41015d88:	c02027f3          	rdinstret	x15
    41015d8c:	414f83b3          	sub	x7,x31,x20
    41015d90:	406d0d33          	sub	x26,x26,x6
    41015d94:	41378333          	sub	x6,x15,x19
    41015d98:	00000e93          	li	x29,0
    41015d9c:	c0102573          	rdtime	x10
    41015da0:	c00024f3          	rdcycle	x9
    41015da4:	c0202a73          	rdinstret	x20
    41015da8:	010eeb13          	ori	x22,x29,16
    41015dac:	684b6c13          	ori	x24,x22,1668
    41015db0:	7dcc6b93          	ori	x23,x24,2012
    41015db4:	2bcbea93          	ori	x21,x23,700
    41015db8:	0f6aef93          	ori	x31,x21,246
    41015dbc:	36afec93          	ori	x25,x31,874
    41015dc0:	30dced93          	ori	x27,x25,781
    41015dc4:	5b7de313          	ori	x6,x27,1463
    41015dc8:	53f36313          	ori	x6,x6,1343
    41015dcc:	41d36a93          	ori	x21,x6,1053
    41015dd0:	5e3aec13          	ori	x24,x21,1507
    41015dd4:	171c6c13          	ori	x24,x24,369
    41015dd8:	4f4c6313          	ori	x6,x24,1268
    41015ddc:	71c36b13          	ori	x22,x6,1820
    41015de0:	387b6313          	ori	x6,x22,903
    41015de4:	39b36593          	ori	x11,x6,923
    41015de8:	6875e813          	ori	x16,x11,1671
    41015dec:	44786b93          	ori	x23,x16,1095
    41015df0:	38cbe793          	ori	x15,x23,908
    41015df4:	2eb7e813          	ori	x16,x15,747
    41015df8:	6b186e93          	ori	x29,x16,1713
    41015dfc:	1a9eec93          	ori	x25,x29,425
    41015e00:	071cea93          	ori	x21,x25,113
    41015e04:	0b1aec13          	ori	x24,x21,177
    41015e08:	5c9c6f93          	ori	x31,x24,1481
    41015e0c:	0defe813          	ori	x16,x31,222
    41015e10:	0ca86913          	ori	x18,x16,202
    41015e14:	45196413          	ori	x8,x18,1105
    41015e18:	31c46893          	ori	x17,x8,796
    41015e1c:	11c8ee13          	ori	x28,x17,284
    41015e20:	38fe6d93          	ori	x27,x28,911
    41015e24:	330deb13          	ori	x22,x27,816
    41015e28:	177b6713          	ori	x14,x22,375
    41015e2c:	3cf76593          	ori	x11,x14,975
    41015e30:	39a5e713          	ori	x14,x11,922
    41015e34:	42f76c13          	ori	x24,x14,1071
    41015e38:	6d5c6913          	ori	x18,x24,1749
    41015e3c:	4c296593          	ori	x11,x18,1218
    41015e40:	04d5e413          	ori	x8,x11,77
    41015e44:	4b546713          	ori	x14,x8,1205
    41015e48:	19076393          	ori	x7,x14,400
    41015e4c:	7963ef13          	ori	x30,x7,1942
    41015e50:	7d1f6b93          	ori	x23,x30,2001
    41015e54:	4bcbe913          	ori	x18,x23,1212
    41015e58:	39c96613          	ori	x12,x18,924
    41015e5c:	3eb66d13          	ori	x26,x12,1003
    41015e60:	321d6c13          	ori	x24,x26,801
    41015e64:	256c6813          	ori	x16,x24,598
    41015e68:	75086413          	ori	x8,x16,1872
    41015e6c:	2cd46e93          	ori	x29,x8,717
    41015e70:	637ee893          	ori	x17,x29,1591
    41015e74:	60f8e893          	ori	x17,x17,1551
    41015e78:	1668ee93          	ori	x29,x17,358
    41015e7c:	6bfee713          	ori	x14,x29,1727
    41015e80:	4cb76b93          	ori	x23,x14,1227
    41015e84:	232be593          	ori	x11,x23,562
    41015e88:	1745e893          	ori	x17,x11,372
    41015e8c:	7088e993          	ori	x19,x17,1800
    41015e90:	6379e413          	ori	x8,x19,1591
    41015e94:	03b46c13          	ori	x24,x8,59
    41015e98:	476c6a93          	ori	x21,x24,1142
    41015e9c:	07faea93          	ori	x21,x21,127
    41015ea0:	666aeb93          	ori	x23,x21,1638
    41015ea4:	562be613          	ori	x12,x23,1378
    41015ea8:	08766413          	ori	x8,x12,135
    41015eac:	7d046313          	ori	x6,x8,2000
    41015eb0:	76f36813          	ori	x16,x6,1903
    41015eb4:	46986f93          	ori	x31,x16,1129
    41015eb8:	1d9fef13          	ori	x30,x31,473
    41015ebc:	393f6813          	ori	x16,x30,915
    41015ec0:	6cf86f93          	ori	x31,x16,1743
    41015ec4:	290fee13          	ori	x28,x31,656
    41015ec8:	38be6c13          	ori	x24,x28,907
    41015ecc:	2b1c6b13          	ori	x22,x24,689
    41015ed0:	71fb6693          	ori	x13,x22,1823
    41015ed4:	5fa6ea93          	ori	x21,x13,1530
    41015ed8:	0d3ae913          	ori	x18,x21,211
    41015edc:	31e96d13          	ori	x26,x18,798
    41015ee0:	071d6b93          	ori	x23,x26,113
    41015ee4:	5fdbe793          	ori	x15,x23,1533
    41015ee8:	3c27ec13          	ori	x24,x15,962
    41015eec:	23cc6b93          	ori	x23,x24,572
    41015ef0:	774bec93          	ori	x25,x23,1908
    41015ef4:	349ce693          	ori	x13,x25,841
    41015ef8:	3bb6ee93          	ori	x29,x13,955
    41015efc:	2a9eec13          	ori	x24,x29,681
    41015f00:	412c6b13          	ori	x22,x24,1042
    41015f04:	0c7b6713          	ori	x14,x22,199
    41015f08:	15376793          	ori	x15,x14,339
    41015f0c:	3387e693          	ori	x13,x15,824
    41015f10:	4576eb13          	ori	x22,x13,1111
    41015f14:	6f0b6c93          	ori	x25,x22,1776
    41015f18:	36dce893          	ori	x17,x25,877
    41015f1c:	7148e613          	ori	x12,x17,1812
    41015f20:	71d66793          	ori	x15,x12,1821
    41015f24:	4eb7e613          	ori	x12,x15,1259
    41015f28:	5f066613          	ori	x12,x12,1520
    41015f2c:	6dc66d13          	ori	x26,x12,1756
    41015f30:	3d5d6793          	ori	x15,x26,981
    41015f34:	40e7e893          	ori	x17,x15,1038
    41015f38:	c0102b73          	rdtime	x22
    41015f3c:	c0002ef3          	rdcycle	x29
    41015f40:	c0202873          	rdinstret	x16
    41015f44:	40ab0633          	sub	x12,x22,x10
    41015f48:	409e8c33          	sub	x24,x29,x9
    41015f4c:	41480d33          	sub	x26,x16,x20
    41015f50:	00000813          	li	x16,0
    41015f54:	c0102973          	rdtime	x18
    41015f58:	c00027f3          	rdcycle	x15
    41015f5c:	c02029f3          	rdinstret	x19
    41015f60:	13486593          	ori	x11,x16,308
    41015f64:	2915ee13          	ori	x28,x11,657
    41015f68:	12de6813          	ori	x16,x28,301
    41015f6c:	2cf86e13          	ori	x28,x16,719
    41015f70:	7c8e6893          	ori	x17,x28,1992
    41015f74:	11c8e313          	ori	x6,x17,284
    41015f78:	4e636f13          	ori	x30,x6,1254
    41015f7c:	18ff6613          	ori	x12,x30,399
    41015f80:	1cf66f93          	ori	x31,x12,463
    41015f84:	64efe693          	ori	x13,x31,1614
    41015f88:	67f6ea93          	ori	x21,x13,1663
    41015f8c:	7e1aea93          	ori	x21,x21,2017
    41015f90:	1bdaef93          	ori	x31,x21,445
    41015f94:	71bfe413          	ori	x8,x31,1819
    41015f98:	3a446d93          	ori	x27,x8,932
    41015f9c:	535de693          	ori	x13,x27,1333
    41015fa0:	7076e313          	ori	x6,x13,1799
    41015fa4:	14136e93          	ori	x29,x6,321
    41015fa8:	0d6ee713          	ori	x14,x29,214
    41015fac:	59a76e13          	ori	x28,x14,1434
    41015fb0:	0d5e6d93          	ori	x27,x28,213
    41015fb4:	369dee13          	ori	x28,x27,873
    41015fb8:	06ee6b93          	ori	x23,x28,110
    41015fbc:	3a3bed93          	ori	x27,x23,931
    41015fc0:	139de413          	ori	x8,x27,313
    41015fc4:	7ed46e13          	ori	x28,x8,2029
    41015fc8:	302e6f13          	ori	x30,x28,770
    41015fcc:	47ef6693          	ori	x13,x30,1150
    41015fd0:	2956e693          	ori	x13,x13,661
    41015fd4:	7836ec93          	ori	x25,x13,1923
    41015fd8:	240ce693          	ori	x13,x25,576
    41015fdc:	3326e393          	ori	x7,x13,818
    41015fe0:	0203ea93          	ori	x21,x7,32
    41015fe4:	31cae393          	ori	x7,x21,796
    41015fe8:	3e83ee13          	ori	x28,x7,1000
    41015fec:	5bee6413          	ori	x8,x28,1470
    41015ff0:	39346613          	ori	x12,x8,915
    41015ff4:	26c66313          	ori	x6,x12,620
    41015ff8:	5f036b93          	ori	x23,x6,1520
    41015ffc:	5b5be393          	ori	x7,x23,1461
    41016000:	26f3ea93          	ori	x21,x7,623
    41016004:	529ae313          	ori	x6,x21,1321
    41016008:	4a936b13          	ori	x22,x6,1193
    4101600c:	31bb6713          	ori	x14,x22,795
    41016010:	28476393          	ori	x7,x14,644
    41016014:	6ce3e893          	ori	x17,x7,1742
    41016018:	6098eb93          	ori	x23,x17,1545
    4101601c:	254bea93          	ori	x21,x23,596
    41016020:	167aec93          	ori	x25,x21,359
    41016024:	0d0ceb93          	ori	x23,x25,208
    41016028:	3edbea93          	ori	x21,x23,1005
    4101602c:	173aef93          	ori	x31,x21,371
    41016030:	393fe413          	ori	x8,x31,915
    41016034:	13d46c93          	ori	x25,x8,317
    41016038:	3aeceb13          	ori	x22,x25,942
    4101603c:	0dbb6393          	ori	x7,x22,219
    41016040:	4513e413          	ori	x8,x7,1105
    41016044:	0ff46393          	ori	x7,x8,255
    41016048:	44d3e713          	ori	x14,x7,1101
    4101604c:	28f76f93          	ori	x31,x14,655
    41016050:	28afef93          	ori	x31,x31,650
    41016054:	7f8fef13          	ori	x30,x31,2040
    41016058:	69af6613          	ori	x12,x30,1690
    4101605c:	3f766513          	ori	x10,x12,1015
    41016060:	79f56593          	ori	x11,x10,1951
    41016064:	56d5ed93          	ori	x27,x11,1389
    41016068:	47bdef93          	ori	x31,x27,1147
    4101606c:	77dfee93          	ori	x29,x31,1917
    41016070:	518ee413          	ori	x8,x29,1304
    41016074:	2bd46a93          	ori	x21,x8,701
    41016078:	5cdaeb13          	ori	x22,x21,1485
    4101607c:	4a9b6e93          	ori	x29,x22,1193
    41016080:	291ee393          	ori	x7,x29,657
    41016084:	4823ee13          	ori	x28,x7,1154
    41016088:	4c0e6693          	ori	x13,x28,1216
    4101608c:	6676eb13          	ori	x22,x13,1639
    41016090:	3b6b6893          	ori	x17,x22,950
    41016094:	2998ea93          	ori	x21,x17,665
    41016098:	3e3aea13          	ori	x20,x21,995
    4101609c:	58aa6393          	ori	x7,x20,1418
    410160a0:	32a3e693          	ori	x13,x7,810
    410160a4:	69a6ea13          	ori	x20,x13,1690
    410160a8:	44da6d93          	ori	x27,x20,1101
    410160ac:	745de393          	ori	x7,x27,1861
    410160b0:	1c13e413          	ori	x8,x7,449
    410160b4:	15746c93          	ori	x25,x8,343
    410160b8:	1f0ce493          	ori	x9,x25,496
    410160bc:	44d4e393          	ori	x7,x9,1101
    410160c0:	19c3e513          	ori	x10,x7,412
    410160c4:	6e156e93          	ori	x29,x10,1761
    410160c8:	4c4ee513          	ori	x10,x29,1220
    410160cc:	77a56b93          	ori	x23,x10,1914
    410160d0:	1f9be413          	ori	x8,x23,505
    410160d4:	06c46893          	ori	x17,x8,108
    410160d8:	6418e813          	ori	x16,x17,1601
    410160dc:	29486813          	ori	x16,x16,660
    410160e0:	74186a93          	ori	x21,x16,1857
    410160e4:	4f8aeb93          	ori	x23,x21,1272
    410160e8:	616be313          	ori	x6,x23,1558
    410160ec:	08136a93          	ori	x21,x6,129
    410160f0:	c01023f3          	rdtime	x7
    410160f4:	c00025f3          	rdcycle	x11
    410160f8:	c0202ff3          	rdinstret	x31
    410160fc:	41238eb3          	sub	x29,x7,x18
    41016100:	40f58eb3          	sub	x29,x11,x15
    41016104:	413f87b3          	sub	x15,x31,x19
    41016108:	01dc0a63          	beq	x24,x29,4101611c <pass_label_10>
    4101610c:	415729b7          	lui	x19,0x41572
    41016110:	0089899b          	addiw	x19,x19,8 # 41572008 <failed_addr>
    41016114:	0009be83          	ld	x29,0(x19)
    41016118:	000e8067          	jr	x29

000000004101611c <pass_label_10>:
    4101611c:	00fd0a63          	beq	x26,x15,41016130 <SID_ZKT_03_ORI_passed>
    41016120:	415729b7          	lui	x19,0x41572
    41016124:	0089899b          	addiw	x19,x19,8 # 41572008 <failed_addr>
    41016128:	0009b383          	ld	x7,0(x19)
    4101612c:	00038067          	jr	x7

0000000041016130 <SID_ZKT_03_ORI_passed>:
    41016130:	415722b7          	lui	x5,0x41572
    41016134:	0182829b          	addiw	x5,x5,24 # 41572018 <os_passed_addr>
    41016138:	0002b303          	ld	x6,0(x5)
    4101613c:	00030067          	jr	x6

0000000041016140 <SID_ZKT_03_ANDI>:
    41016140:	41cb7137          	lui	x2,0x41cb7
    41016144:	000012b7          	lui	x5,0x1
    41016148:	00510133          	add	x2,x2,x5
    4101614c:	ff017113          	andi	x2,x2,-16
    41016150:	00000c93          	li	x25,0
    41016154:	c01026f3          	rdtime	x13
    41016158:	c0002773          	rdcycle	x14
    4101615c:	c0202ef3          	rdinstret	x29
    41016160:	76fcfc93          	andi	x25,x25,1903
    41016164:	71ccf613          	andi	x12,x25,1820
    41016168:	39767913          	andi	x18,x12,919
    4101616c:	0be97993          	andi	x19,x18,190
    41016170:	4e69ff13          	andi	x30,x19,1254
    41016174:	3fff7a93          	andi	x21,x30,1023
    41016178:	43fafa93          	andi	x21,x21,1087
    4101617c:	2c2afa13          	andi	x20,x21,706
    41016180:	4b9a7913          	andi	x18,x20,1209
    41016184:	70097313          	andi	x6,x18,1792
    41016188:	57237913          	andi	x18,x6,1394
    4101618c:	05c97c93          	andi	x25,x18,92
    41016190:	183cfb13          	andi	x22,x25,387
    41016194:	15eb7c93          	andi	x25,x22,350
    41016198:	074cf893          	andi	x17,x25,116
    4101619c:	4f28f593          	andi	x11,x17,1266
    410161a0:	0f15fc13          	andi	x24,x11,241
    410161a4:	676c7813          	andi	x16,x24,1654
    410161a8:	05a87493          	andi	x9,x16,90
    410161ac:	0f34ff93          	andi	x31,x9,243
    410161b0:	473ffa13          	andi	x20,x31,1139
    410161b4:	43fa7d93          	andi	x27,x20,1087
    410161b8:	273dfb93          	andi	x23,x27,627
    410161bc:	609bfe13          	andi	x28,x23,1545
    410161c0:	649e7493          	andi	x9,x28,1609
    410161c4:	19d4fd93          	andi	x27,x9,413
    410161c8:	14edf513          	andi	x10,x27,334
    410161cc:	44757b13          	andi	x22,x10,1095
    410161d0:	136b7593          	andi	x11,x22,310
    410161d4:	1d55f593          	andi	x11,x11,469
    410161d8:	6ef5ff13          	andi	x30,x11,1775
    410161dc:	1c0f7993          	andi	x19,x30,448
    410161e0:	0ba9f413          	andi	x8,x19,186
    410161e4:	40a47e13          	andi	x28,x8,1034
    410161e8:	2d5e7913          	andi	x18,x28,725
    410161ec:	73297b93          	andi	x23,x18,1842
    410161f0:	588bf613          	andi	x12,x23,1416
    410161f4:	6bc67613          	andi	x12,x12,1724
    410161f8:	48367f93          	andi	x31,x12,1155
    410161fc:	37effc13          	andi	x24,x31,894
    41016200:	225c7613          	andi	x12,x24,549
    41016204:	4ed67493          	andi	x9,x12,1261
    41016208:	1164fe13          	andi	x28,x9,278
    4101620c:	24ce7613          	andi	x12,x28,588
    41016210:	4a267993          	andi	x19,x12,1186
    41016214:	6829f513          	andi	x10,x19,1666
    41016218:	1ff57d13          	andi	x26,x10,511
    4101621c:	091d7a93          	andi	x21,x26,145
    41016220:	6dcaf313          	andi	x6,x21,1756
    41016224:	4c737b13          	andi	x22,x6,1223
    41016228:	221b7893          	andi	x17,x22,545
    4101622c:	0778f993          	andi	x19,x17,119
    41016230:	7799fe13          	andi	x28,x19,1913
    41016234:	7f1e7e13          	andi	x28,x28,2033
    41016238:	02fe7a93          	andi	x21,x28,47
    4101623c:	377af613          	andi	x12,x21,887
    41016240:	4e667393          	andi	x7,x12,1254
    41016244:	7bb3fe13          	andi	x28,x7,1979
    41016248:	245e7593          	andi	x11,x28,581
    4101624c:	6c25f313          	andi	x6,x11,1730
    41016250:	3cf37d13          	andi	x26,x6,975
    41016254:	363d7613          	andi	x12,x26,867
    41016258:	38067a13          	andi	x20,x12,896
    4101625c:	6bca7913          	andi	x18,x20,1724
    41016260:	67c97793          	andi	x15,x18,1660
    41016264:	08e7fc13          	andi	x24,x15,142
    41016268:	17ec7b13          	andi	x22,x24,382
    4101626c:	1bab7f93          	andi	x31,x22,442
    41016270:	627ff613          	andi	x12,x31,1575
    41016274:	57167c13          	andi	x24,x12,1393
    41016278:	048c7993          	andi	x19,x24,72
    4101627c:	7759fa93          	andi	x21,x19,1909
    41016280:	51baf893          	andi	x17,x21,1307
    41016284:	7dc8f313          	andi	x6,x17,2012
    41016288:	69937393          	andi	x7,x6,1689
    4101628c:	6123f593          	andi	x11,x7,1554
    41016290:	3725f813          	andi	x16,x11,882
    41016294:	7a387c93          	andi	x25,x16,1955
    41016298:	6cdcfd93          	andi	x27,x25,1741
    4101629c:	353df813          	andi	x16,x27,851
    410162a0:	2d987993          	andi	x19,x16,729
    410162a4:	7899f413          	andi	x8,x19,1929
    410162a8:	2d947a13          	andi	x20,x8,729
    410162ac:	41aa7493          	andi	x9,x20,1050
    410162b0:	74c4fc13          	andi	x24,x9,1868
    410162b4:	132c7593          	andi	x11,x24,306
    410162b8:	7ef5fc13          	andi	x24,x11,2031
    410162bc:	171c7613          	andi	x12,x24,369
    410162c0:	65367e13          	andi	x28,x12,1619
    410162c4:	1d1e7f93          	andi	x31,x28,465
    410162c8:	1d8ffe13          	andi	x28,x31,472
    410162cc:	67de7d13          	andi	x26,x28,1661
    410162d0:	78cd7a93          	andi	x21,x26,1932
    410162d4:	07caff13          	andi	x30,x21,124
    410162d8:	2eff7313          	andi	x6,x30,751
    410162dc:	08c37a93          	andi	x21,x6,140
    410162e0:	6f3afb13          	andi	x22,x21,1779
    410162e4:	395b7f13          	andi	x30,x22,917
    410162e8:	296f7313          	andi	x6,x30,662
    410162ec:	68637f13          	andi	x30,x6,1670
    410162f0:	c0102373          	rdtime	x6
    410162f4:	c0002bf3          	rdcycle	x23
    410162f8:	c0202673          	rdinstret	x12
    410162fc:	40d30533          	sub	x10,x6,x13
    41016300:	40eb8b33          	sub	x22,x23,x14
    41016304:	41d609b3          	sub	x19,x12,x29
    41016308:	00000a93          	li	x21,0
    4101630c:	c0102df3          	rdtime	x27
    41016310:	c0002573          	rdcycle	x10
    41016314:	c0202973          	rdinstret	x18
    41016318:	1c0af493          	andi	x9,x21,448
    4101631c:	1c34f813          	andi	x16,x9,451
    41016320:	21287393          	andi	x7,x16,530
    41016324:	1403f793          	andi	x15,x7,320
    41016328:	58a7f593          	andi	x11,x15,1418
    4101632c:	7245f313          	andi	x6,x11,1828
    41016330:	7d937813          	andi	x16,x6,2009
    41016334:	5a687413          	andi	x8,x16,1446
    41016338:	42d47493          	andi	x9,x8,1069
    4101633c:	3104f793          	andi	x15,x9,784
    41016340:	0de7f693          	andi	x13,x15,222
    41016344:	3d56fd13          	andi	x26,x13,981
    41016348:	57dd7993          	andi	x19,x26,1405
    4101634c:	5de9f893          	andi	x17,x19,1502
    41016350:	7338f493          	andi	x9,x17,1843
    41016354:	7734fb13          	andi	x22,x9,1907
    41016358:	643b7393          	andi	x7,x22,1603
    4101635c:	4e83fe93          	andi	x29,x7,1256
    41016360:	006ef993          	andi	x19,x29,6
    41016364:	3c99f813          	andi	x16,x19,969
    41016368:	28287413          	andi	x8,x16,642
    4101636c:	21c47493          	andi	x9,x8,540
    41016370:	6394fb13          	andi	x22,x9,1593
    41016374:	65bb7e93          	andi	x29,x22,1627
    41016378:	59fefd13          	andi	x26,x29,1439
    4101637c:	257d7613          	andi	x12,x26,599
    41016380:	7fa67c13          	andi	x24,x12,2042
