
/home/abdullah/RiescueC/riescue/10x_R/paging/testsuite/paging/user_sv57/tp_paging_2:     file format elf64-littleriscv


Disassembly of section .runtime:

0000000041000000 <_start>:
    41000000:	00000093          	li	x1,0
    41000004:	00000113          	li	x2,0
    41000008:	00000193          	li	x3,0
    4100000c:	00000213          	li	x4,0
    41000010:	00000293          	li	x5,0
    41000014:	00000313          	li	x6,0
    41000018:	00000393          	li	x7,0
    4100001c:	00000413          	li	x8,0
    41000020:	00000493          	li	x9,0
    41000024:	00000513          	li	x10,0
    41000028:	00000593          	li	x11,0
    4100002c:	00000613          	li	x12,0
    41000030:	00000693          	li	x13,0
    41000034:	00000713          	li	x14,0
    41000038:	00000793          	li	x15,0
    4100003c:	00000813          	li	x16,0
    41000040:	00000893          	li	x17,0
    41000044:	00000913          	li	x18,0
    41000048:	00000993          	li	x19,0
    4100004c:	00000a13          	li	x20,0
    41000050:	00000a93          	li	x21,0
    41000054:	00000b13          	li	x22,0
    41000058:	00000b93          	li	x23,0
    4100005c:	00000c13          	li	x24,0
    41000060:	00000c93          	li	x25,0
    41000064:	00000d13          	li	x26,0
    41000068:	00000d93          	li	x27,0
    4100006c:	00000e13          	li	x28,0
    41000070:	00000e93          	li	x29,0
    41000074:	00000f13          	li	x30,0
    41000078:	00000f93          	li	x31,0

000000004100007c <loader__load_panic_address>:
    4100007c:	00001297          	auipc	x5,0x1
    41000080:	9e828293          	addi	x5,x5,-1560 # 41000a64 <eot__failed>
    41000084:	30529073          	csrw	mtvec,x5

0000000041000088 <loader__initialize_runtime>:
    41000088:	00000293          	li	x5,0
    4100008c:	3012a2f3          	csrrs	x5,misa,x5

0000000041000090 <loader__set_mstatus>:
    41000090:	000402b7          	lui	x5,0x40
    41000094:	00a2829b          	addiw	x5,x5,10 # 4000a <pma_region_0_size+0xa>
    41000098:	3002a2f3          	csrrs	x5,mstatus,x5
    4100009c:	44f61237          	lui	x4,0x44f61
    410000a0:	34021073          	csrw	mscratch,x4

00000000410000a4 <loader__setup_menvcfg>:
    410000a4:	00000297          	auipc	x5,0x0
    410000a8:	4a828293          	addi	x5,x5,1192 # 4100054c <trap_handler_m__trap_entry>
    410000ac:	30529073          	csrw	mtvec,x5

00000000410000b0 <loader__enable_paging>:
    410000b0:	fffe80b7          	lui	x1,0xfffe8
    410000b4:	0010809b          	addiw	x1,x1,1 # fffffffffffe8001 <mem21+0x1bfffffffe8001>
    410000b8:	02209093          	slli	x1,x1,0x22
    410000bc:	04508093          	addi	x1,x1,69
    410000c0:	00c09093          	slli	x1,x1,0xc
    410000c4:	e2e08093          	addi	x1,x1,-466
    410000c8:	18009073          	csrw	satp,x1

00000000410000cc <loader__done>:
    410000cc:	1c10006f          	j	41000a8c <scheduler__init>

00000000410000d0 <loader__panic>:
    410000d0:	1950006f          	j	41000a64 <eot__failed>

00000000410000d4 <syscalls__syscall_check_schedule_next_test>:
    410000d4:	00f0029b          	addiw	x5,x0,15
    410000d8:	01c29293          	slli	x5,x5,0x1c
    410000dc:	00128293          	addi	x5,x5,1
    410000e0:	01f29a63          	bne	x5,x31,410000f4 <syscalls__syscall_check_fail_test>
    410000e4:	00000317          	auipc	x6,0x0
    410000e8:	46830313          	addi	x6,x6,1128 # 4100054c <trap_handler_m__trap_entry>
    410000ec:	30531073          	csrw	mtvec,x6
    410000f0:	6a00006f          	j	41000790 <enter_scheduler>

00000000410000f4 <syscalls__syscall_check_fail_test>:
    410000f4:	00f0029b          	addiw	x5,x0,15
    410000f8:	01c29293          	slli	x5,x5,0x1c
    410000fc:	00228293          	addi	x5,x5,2
    41000100:	01f29a63          	bne	x5,x31,41000114 <syscalls__syscall_check_end_test_without_failure>
    41000104:	00000317          	auipc	x6,0x0
    41000108:	44830313          	addi	x6,x6,1096 # 4100054c <trap_handler_m__trap_entry>
    4100010c:	30531073          	csrw	mtvec,x6
    41000110:	6b00006f          	j	410007c0 <test_failed>

0000000041000114 <syscalls__syscall_check_end_test_without_failure>:
    41000114:	00f0029b          	addiw	x5,x0,15
    41000118:	01c29293          	slli	x5,x5,0x1c
    4100011c:	00328293          	addi	x5,x5,3
    41000120:	01f29a63          	bne	x5,x31,41000134 <syscalls__syscall_check_switch_machine_mode>
    41000124:	00000317          	auipc	x6,0x0
    41000128:	42830313          	addi	x6,x6,1064 # 4100054c <trap_handler_m__trap_entry>
    4100012c:	30531073          	csrw	mtvec,x6
    41000130:	69c0006f          	j	410007cc <os_end_test>

0000000041000134 <syscalls__syscall_check_switch_machine_mode>:
    41000134:	000f02b7          	lui	x5,0xf0
    41000138:	0012829b          	addiw	x5,x5,1 # f0001 <mem22__pt_level2+0x54001>
    4100013c:	00c29293          	slli	x5,x5,0xc
    41000140:	00128293          	addi	x5,x5,1
    41000144:	0a5f8463          	beq	x31,x5,410001ec <syscalls__os_fn_f0001001>

0000000041000148 <syscalls__syscall_check_switch_super_mode>:
    41000148:	000f02b7          	lui	x5,0xf0
    4100014c:	0012829b          	addiw	x5,x5,1 # f0001 <mem22__pt_level2+0x54001>
    41000150:	00c29293          	slli	x5,x5,0xc
    41000154:	00228293          	addi	x5,x5,2
    41000158:	0c5f8063          	beq	x31,x5,41000218 <syscalls__os_fn_f0001002>

000000004100015c <syscalls__syscall_check_switch_user_mode>:
    4100015c:	000f02b7          	lui	x5,0xf0
    41000160:	0012829b          	addiw	x5,x5,1 # f0001 <mem22__pt_level2+0x54001>
    41000164:	00c29293          	slli	x5,x5,0xc
    41000168:	00328293          	addi	x5,x5,3
    4100016c:	0c5f8e63          	beq	x31,x5,41000248 <syscalls__os_fn_f0001003>

0000000041000170 <syscalls__syscall_check_switch_test_mode>:
    41000170:	000f02b7          	lui	x5,0xf0
    41000174:	0012829b          	addiw	x5,x5,1 # f0001 <mem22__pt_level2+0x54001>
    41000178:	00c29293          	slli	x5,x5,0xc
    4100017c:	00428293          	addi	x5,x5,4
    41000180:	0c5f8863          	beq	x31,x5,41000250 <syscalls__os_fn_f0001004>

0000000041000184 <syscalls__syscall_machine_csr_rw>:
    41000184:	000f02b7          	lui	x5,0xf0
    41000188:	0012829b          	addiw	x5,x5,1 # f0001 <mem22__pt_level2+0x54001>
    4100018c:	00c29293          	slli	x5,x5,0xc
    41000190:	00528293          	addi	x5,x5,5
    41000194:	0e5f8263          	beq	x31,x5,41000278 <syscalls__os_fn_f0001005>

0000000041000198 <syscalls__syscall_supervisor_csr_rw>:
    41000198:	000f02b7          	lui	x5,0xf0
    4100019c:	0012829b          	addiw	x5,x5,1 # f0001 <mem22__pt_level2+0x54001>
    410001a0:	00c29293          	slli	x5,x5,0xc
    410001a4:	00628293          	addi	x5,x5,6
    410001a8:	0e5f8e63          	beq	x31,x5,410002a4 <syscalls__os_fn_f0001006>

00000000410001ac <syscalls__syscall_machine_pte_read>:
    410001ac:	000f02b7          	lui	x5,0xf0
    410001b0:	0012829b          	addiw	x5,x5,1 # f0001 <mem22__pt_level2+0x54001>
    410001b4:	00c29293          	slli	x5,x5,0xc
    410001b8:	00728293          	addi	x5,x5,7
    410001bc:	105f8c63          	beq	x31,x5,410002d4 <syscalls__os_fn_f0001007>

00000000410001c0 <syscalls__syscall_machine_pte_write>:
    410001c0:	000f02b7          	lui	x5,0xf0
    410001c4:	0012829b          	addiw	x5,x5,1 # f0001 <mem22__pt_level2+0x54001>
    410001c8:	00c29293          	slli	x5,x5,0xc
    410001cc:	00828293          	addi	x5,x5,8
    410001d0:	1e5f8863          	beq	x31,x5,410003c0 <syscalls__os_fn_f0001008>

00000000410001d4 <syscalls__syscall_check_get_hart_context>:
    410001d4:	000782b7          	lui	x5,0x78
    410001d8:	0012829b          	addiw	x5,x5,1 # 78001 <mem21__pt_level0+0x1a001>
    410001dc:	00d29293          	slli	x5,x5,0xd
    410001e0:	00128293          	addi	x5,x5,1
    410001e4:	2c5f8463          	beq	x31,x5,410004ac <syscalls__os_get_hart_context>
    410001e8:	4c00006f          	j	410006a8 <trap_handler_m__check_exception_label>

00000000410001ec <syscalls__os_fn_f0001001>:
    410001ec:	000022b7          	lui	x5,0x2
    410001f0:	8002829b          	addiw	x5,x5,-2048 # 1800 <mem9__pt_level3+0x800>
    410001f4:	3002b073          	csrc	mstatus,x5
    410001f8:	000022b7          	lui	x5,0x2
    410001fc:	8002829b          	addiw	x5,x5,-2048 # 1800 <mem9__pt_level3+0x800>
    41000200:	3002a073          	csrs	mstatus,x5
    41000204:	0010029b          	addiw	x5,x0,1
    41000208:	02729293          	slli	x5,x5,0x27
    4100020c:	3002b073          	csrc	mstatus,x5
    41000210:	413092b7          	lui	x5,0x41309
    41000214:	2a80006f          	j	410004bc <syscalls__ret_from_os_fn>

0000000041000218 <syscalls__os_fn_f0001002>:
    41000218:	000022b7          	lui	x5,0x2
    4100021c:	8002829b          	addiw	x5,x5,-2048 # 1800 <mem9__pt_level3+0x800>
    41000220:	3002b073          	csrc	mstatus,x5
    41000224:	000012b7          	lui	x5,0x1
    41000228:	8002829b          	addiw	x5,x5,-2048 # 800 <XLEN+0x7c0>
    4100022c:	3002a073          	csrs	mstatus,x5
    41000230:	0010029b          	addiw	x5,x0,1
    41000234:	02729293          	slli	x5,x5,0x27
    41000238:	3002b073          	csrc	mstatus,x5
    4100023c:	12000073          	sfence.vma
    41000240:	412092b7          	lui	x5,0x41209
    41000244:	2780006f          	j	410004bc <syscalls__ret_from_os_fn>

0000000041000248 <syscalls__os_fn_f0001003>:
    41000248:	412892b7          	lui	x5,0x41289
    4100024c:	2700006f          	j	410004bc <syscalls__ret_from_os_fn>

0000000041000250 <syscalls__os_fn_f0001004>:
    41000250:	000022b7          	lui	x5,0x2
    41000254:	8002829b          	addiw	x5,x5,-2048 # 1800 <mem9__pt_level3+0x800>
    41000258:	3002b073          	csrc	mstatus,x5
    4100025c:	00000293          	li	x5,0
    41000260:	3002a073          	csrs	mstatus,x5
    41000264:	0010029b          	addiw	x5,x0,1
    41000268:	02729293          	slli	x5,x5,0x27
    4100026c:	3002b073          	csrc	mstatus,x5
    41000270:	17823283          	ld	x5,376(x4) # 44f61178 <__section_hart_context+0x178>
    41000274:	2480006f          	j	410004bc <syscalls__ret_from_os_fn>

0000000041000278 <syscalls__os_fn_f0001005>:
    41000278:	000022b7          	lui	x5,0x2
    4100027c:	8002829b          	addiw	x5,x5,-2048 # 1800 <mem9__pt_level3+0x800>
    41000280:	3002b073          	csrc	mstatus,x5
    41000284:	000022b7          	lui	x5,0x2
    41000288:	8002829b          	addiw	x5,x5,-2048 # 1800 <mem9__pt_level3+0x800>
    4100028c:	3002a073          	csrs	mstatus,x5
    41000290:	0010029b          	addiw	x5,x0,1
    41000294:	02729293          	slli	x5,x5,0x27
    41000298:	3002b073          	csrc	mstatus,x5
    4100029c:	413892b7          	lui	x5,0x41389
    410002a0:	21c0006f          	j	410004bc <syscalls__ret_from_os_fn>

00000000410002a4 <syscalls__os_fn_f0001006>:
    410002a4:	000022b7          	lui	x5,0x2
    410002a8:	8002829b          	addiw	x5,x5,-2048 # 1800 <mem9__pt_level3+0x800>
    410002ac:	3002b073          	csrc	mstatus,x5
    410002b0:	000012b7          	lui	x5,0x1
    410002b4:	8002829b          	addiw	x5,x5,-2048 # 800 <XLEN+0x7c0>
    410002b8:	3002a073          	csrs	mstatus,x5
    410002bc:	0010029b          	addiw	x5,x0,1
    410002c0:	02729293          	slli	x5,x5,0x27
    410002c4:	3002b073          	csrc	mstatus,x5
    410002c8:	12000073          	sfence.vma
    410002cc:	4138a2b7          	lui	x5,0x4138a
    410002d0:	1ec0006f          	j	410004bc <syscalls__ret_from_os_fn>

00000000410002d4 <syscalls__os_fn_f0001007>:
    410002d4:	447fefb7          	lui	x31,0x447fe
    410002d8:	0b0f8f9b          	addiw	x31,x31,176 # 447fe0b0 <pte_access_flags_pa>
    410002dc:	000fbf83          	ld	x31,0(x31)
    410002e0:	447fe2b7          	lui	x5,0x447fe
    410002e4:	0b82829b          	addiw	x5,x5,184 # 447fe0b8 <pte_access_flags_pa+0x8>
    410002e8:	0002b283          	ld	x5,0(x5)
    410002ec:	447fee37          	lui	x28,0x447fe
    410002f0:	0c0e0e1b          	addiw	x28,x28,192 # 447fe0c0 <pte_access_flags_pa+0x10>
    410002f4:	000e3e03          	ld	x28,0(x28)

00000000410002f8 <syscalls__pte_walk_check_glevel_without_gstage_read>:
    410002f8:	fff00f93          	li	x31,-1
    410002fc:	0dfe1063          	bne	x28,x31,410003bc <syscalls__pte_walk_fail_read>
    41000300:	18002373          	csrr	x6,satp
    41000304:	03c35e93          	srli	x29,x6,0x3c
    41000308:	01431313          	slli	x6,x6,0x14
    4100030c:	01435313          	srli	x6,x6,0x14
    41000310:	00c31313          	slli	x6,x6,0xc
    41000314:	ff8e8e93          	addi	x29,x29,-8
    41000318:	003e9f13          	slli	x30,x29,0x3
    4100031c:	01df0eb3          	add	x29,x30,x29
    41000320:	01ee8e93          	addi	x29,x29,30
    41000324:	00000f13          	li	x30,0

0000000041000328 <syscalls__pte_walk_loop_read>:
    41000328:	447fefb7          	lui	x31,0x447fe
    4100032c:	0b0f8f9b          	addiw	x31,x31,176 # 447fe0b0 <pte_access_flags_pa>
    41000330:	000fbf83          	ld	x31,0(x31)
    41000334:	01dfdfb3          	srl	x31,x31,x29
    41000338:	1fffff93          	andi	x31,x31,511
    4100033c:	003f9f93          	slli	x31,x31,0x3
    41000340:	01f30333          	add	x6,x6,x31
    41000344:	005f0e63          	beq	x30,x5,41000360 <syscalls__pte_walk_done_read>
    41000348:	00033f83          	ld	x31,0(x6)
    4100034c:	00afdf93          	srli	x31,x31,0xa
    41000350:	00cf9313          	slli	x6,x31,0xc
    41000354:	001f0f13          	addi	x30,x30,1
    41000358:	ff7e8e93          	addi	x29,x29,-9
    4100035c:	fcdff06f          	j	41000328 <syscalls__pte_walk_loop_read>

0000000041000360 <syscalls__pte_walk_done_read>:
    41000360:	fff00f93          	li	x31,-1
    41000364:	05fe0263          	beq	x28,x31,410003a8 <syscalls__pte_walk_final_read>

0000000041000368 <syscalls__pte_walk_gstage_read>:
    41000368:	447fefb7          	lui	x31,0x447fe
    4100036c:	0b0f8f9b          	addiw	x31,x31,176 # 447fe0b0 <pte_access_flags_pa>
    41000370:	006fb023          	sd	x6,0(x31)
    41000374:	000e0293          	mv	x5,x28
    41000378:	fff00e13          	li	x28,-1
    4100037c:	68002373          	csrr	x6,hgatp
    41000380:	03c35e93          	srli	x29,x6,0x3c
    41000384:	01431313          	slli	x6,x6,0x14
    41000388:	01435313          	srli	x6,x6,0x14
    4100038c:	00c31313          	slli	x6,x6,0xc
    41000390:	ff8e8e93          	addi	x29,x29,-8
    41000394:	003e9f13          	slli	x30,x29,0x3
    41000398:	01df0eb3          	add	x29,x30,x29
    4100039c:	01ee8e93          	addi	x29,x29,30
    410003a0:	00000f13          	li	x30,0
    410003a4:	f85ff06f          	j	41000328 <syscalls__pte_walk_loop_read>

00000000410003a8 <syscalls__pte_walk_final_read>:
    410003a8:	00033383          	ld	x7,0(x6)
    410003ac:	341022f3          	csrr	x5,mepc
    410003b0:	00428293          	addi	x5,x5,4
    410003b4:	16523c23          	sd	x5,376(x4) # 178 <XLEN+0x138>
    410003b8:	e99ff06f          	j	41000250 <syscalls__os_fn_f0001004>

00000000410003bc <syscalls__pte_walk_fail_read>:
    410003bc:	4040006f          	j	410007c0 <test_failed>

00000000410003c0 <syscalls__os_fn_f0001008>:
    410003c0:	447fefb7          	lui	x31,0x447fe
    410003c4:	0b0f8f9b          	addiw	x31,x31,176 # 447fe0b0 <pte_access_flags_pa>
    410003c8:	000fbf83          	ld	x31,0(x31)
    410003cc:	447fe2b7          	lui	x5,0x447fe
    410003d0:	0b82829b          	addiw	x5,x5,184 # 447fe0b8 <pte_access_flags_pa+0x8>
    410003d4:	0002b283          	ld	x5,0(x5)
    410003d8:	447fee37          	lui	x28,0x447fe
    410003dc:	0c0e0e1b          	addiw	x28,x28,192 # 447fe0c0 <pte_access_flags_pa+0x10>
    410003e0:	000e3e03          	ld	x28,0(x28)

00000000410003e4 <syscalls__pte_walk_check_glevel_without_gstage_write>:
    410003e4:	fff00f93          	li	x31,-1
    410003e8:	0dfe1063          	bne	x28,x31,410004a8 <syscalls__pte_walk_fail_write>
    410003ec:	18002373          	csrr	x6,satp
    410003f0:	03c35e93          	srli	x29,x6,0x3c
    410003f4:	01431313          	slli	x6,x6,0x14
    410003f8:	01435313          	srli	x6,x6,0x14
    410003fc:	00c31313          	slli	x6,x6,0xc
    41000400:	ff8e8e93          	addi	x29,x29,-8
    41000404:	003e9f13          	slli	x30,x29,0x3
    41000408:	01df0eb3          	add	x29,x30,x29
    4100040c:	01ee8e93          	addi	x29,x29,30
    41000410:	00000f13          	li	x30,0

0000000041000414 <syscalls__pte_walk_loop_write>:
    41000414:	447fefb7          	lui	x31,0x447fe
    41000418:	0b0f8f9b          	addiw	x31,x31,176 # 447fe0b0 <pte_access_flags_pa>
    4100041c:	000fbf83          	ld	x31,0(x31)
    41000420:	01dfdfb3          	srl	x31,x31,x29
    41000424:	1fffff93          	andi	x31,x31,511
    41000428:	003f9f93          	slli	x31,x31,0x3
    4100042c:	01f30333          	add	x6,x6,x31
    41000430:	005f0e63          	beq	x30,x5,4100044c <syscalls__pte_walk_done_write>
    41000434:	00033f83          	ld	x31,0(x6)
    41000438:	00afdf93          	srli	x31,x31,0xa
    4100043c:	00cf9313          	slli	x6,x31,0xc
    41000440:	001f0f13          	addi	x30,x30,1
    41000444:	ff7e8e93          	addi	x29,x29,-9
    41000448:	fcdff06f          	j	41000414 <syscalls__pte_walk_loop_write>

000000004100044c <syscalls__pte_walk_done_write>:
    4100044c:	fff00f93          	li	x31,-1
    41000450:	05fe0263          	beq	x28,x31,41000494 <syscalls__pte_walk_final_write>

0000000041000454 <syscalls__pte_walk_gstage_write>:
    41000454:	447fefb7          	lui	x31,0x447fe
    41000458:	0b0f8f9b          	addiw	x31,x31,176 # 447fe0b0 <pte_access_flags_pa>
    4100045c:	006fb023          	sd	x6,0(x31)
    41000460:	000e0293          	mv	x5,x28
    41000464:	fff00e13          	li	x28,-1
    41000468:	68002373          	csrr	x6,hgatp
    4100046c:	03c35e93          	srli	x29,x6,0x3c
    41000470:	01431313          	slli	x6,x6,0x14
    41000474:	01435313          	srli	x6,x6,0x14
    41000478:	00c31313          	slli	x6,x6,0xc
    4100047c:	ff8e8e93          	addi	x29,x29,-8
    41000480:	003e9f13          	slli	x30,x29,0x3
    41000484:	01df0eb3          	add	x29,x30,x29
    41000488:	01ee8e93          	addi	x29,x29,30
    4100048c:	00000f13          	li	x30,0
    41000490:	f85ff06f          	j	41000414 <syscalls__pte_walk_loop_write>

0000000041000494 <syscalls__pte_walk_final_write>:
    41000494:	00733023          	sd	x7,0(x6)
    41000498:	341022f3          	csrr	x5,mepc
    4100049c:	00428293          	addi	x5,x5,4
    410004a0:	16523c23          	sd	x5,376(x4) # 178 <XLEN+0x138>
    410004a4:	dadff06f          	j	41000250 <syscalls__os_fn_f0001004>

00000000410004a8 <syscalls__pte_walk_fail_write>:
    410004a8:	3180006f          	j	410007c0 <test_failed>

00000000410004ac <syscalls__os_get_hart_context>:
    410004ac:	14002573          	csrr	x10,sscratch
    410004b0:	341022f3          	csrr	x5,mepc
    410004b4:	00428293          	addi	x5,x5,4
    410004b8:	0040006f          	j	410004bc <syscalls__ret_from_os_fn>

00000000410004bc <syscalls__ret_from_os_fn>:
    410004bc:	34102373          	csrr	x6,mepc
    410004c0:	00430313          	addi	x6,x6,4
    410004c4:	16623c23          	sd	x6,376(x4) # 178 <XLEN+0x138>
    410004c8:	34129073          	csrw	mepc,x5
    410004cc:	fff00f93          	li	x31,-1
    410004d0:	2a40006f          	j	41000774 <trap_handler_m__skip_xepc_write>

00000000410004d4 <trap_handler_m__invalid_interrupt>:
    410004d4:	2ec0006f          	j	410007c0 <test_failed>

00000000410004d8 <trap_handler_m__clear_all_interrupts>:
    410004d8:	34401073          	csrw	mip,x0
    410004dc:	30200073          	mret

00000000410004e0 <trap_handler_m___CLEAR_SSI>:
    410004e0:	00200293          	li	x5,2
    410004e4:	3442b073          	csrc	mip,x5
    410004e8:	30200073          	mret

00000000410004ec <trap_handler_m___CLEAR_MSI>:
    410004ec:	00800293          	li	x5,8
    410004f0:	3442b073          	csrc	mip,x5
    410004f4:	30200073          	mret

00000000410004f8 <trap_handler_m___CLEAR_STI>:
    410004f8:	02000293          	li	x5,32
    410004fc:	3442b073          	csrc	mip,x5
    41000500:	30200073          	mret

0000000041000504 <trap_handler_m___CLEAR_MTI>:
    41000504:	08000293          	li	x5,128
    41000508:	3442b073          	csrc	mip,x5
    4100050c:	30200073          	mret

0000000041000510 <trap_handler_m___CLEAR_SEI>:
    41000510:	20000293          	li	x5,512
    41000514:	3442b073          	csrc	mip,x5
    41000518:	30200073          	mret

000000004100051c <trap_handler_m___CLEAR_MEI>:
    4100051c:	000012b7          	lui	x5,0x1
    41000520:	8002829b          	addiw	x5,x5,-2048 # 800 <XLEN+0x7c0>
    41000524:	3442b073          	csrc	mip,x5
    41000528:	30200073          	mret

000000004100052c <trap_handler_m___CLEAR_COI>:
    4100052c:	000022b7          	lui	x5,0x2
    41000530:	3442b073          	csrc	mip,x5
    41000534:	30200073          	mret

0000000041000538 <trap_handler_m__clear_highest_priority_interrupt>:
    41000538:	344022f3          	csrr	x5,mip
    4100053c:	40500333          	neg	x6,x5
    41000540:	0062f2b3          	and	x5,x5,x6
    41000544:	3442b073          	csrc	mip,x5
    41000548:	30200073          	mret

000000004100054c <trap_handler_m__trap_entry>:
    4100054c:	0fc0006f          	j	41000648 <trap_handler_m__trap_handler>

0000000041000550 <trap_handler_m__interrupt_vector_table>:
    41000550:	f91ff06f          	j	410004e0 <trap_handler_m___CLEAR_SSI>
    41000554:	f81ff06f          	j	410004d4 <trap_handler_m__invalid_interrupt>
    41000558:	f95ff06f          	j	410004ec <trap_handler_m___CLEAR_MSI>
    4100055c:	f79ff06f          	j	410004d4 <trap_handler_m__invalid_interrupt>
    41000560:	f99ff06f          	j	410004f8 <trap_handler_m___CLEAR_STI>
    41000564:	f71ff06f          	j	410004d4 <trap_handler_m__invalid_interrupt>
    41000568:	f9dff06f          	j	41000504 <trap_handler_m___CLEAR_MTI>
    4100056c:	f69ff06f          	j	410004d4 <trap_handler_m__invalid_interrupt>
    41000570:	fa1ff06f          	j	41000510 <trap_handler_m___CLEAR_SEI>
    41000574:	f61ff06f          	j	410004d4 <trap_handler_m__invalid_interrupt>
    41000578:	fa5ff06f          	j	4100051c <trap_handler_m___CLEAR_MEI>
    4100057c:	f59ff06f          	j	410004d4 <trap_handler_m__invalid_interrupt>
    41000580:	fadff06f          	j	4100052c <trap_handler_m___CLEAR_COI>
    41000584:	f51ff06f          	j	410004d4 <trap_handler_m__invalid_interrupt>
    41000588:	f4dff06f          	j	410004d4 <trap_handler_m__invalid_interrupt>
    4100058c:	fadff06f          	j	41000538 <trap_handler_m__clear_highest_priority_interrupt>
    41000590:	fa9ff06f          	j	41000538 <trap_handler_m__clear_highest_priority_interrupt>
    41000594:	fa5ff06f          	j	41000538 <trap_handler_m__clear_highest_priority_interrupt>
    41000598:	fa1ff06f          	j	41000538 <trap_handler_m__clear_highest_priority_interrupt>
    4100059c:	f9dff06f          	j	41000538 <trap_handler_m__clear_highest_priority_interrupt>
    410005a0:	f99ff06f          	j	41000538 <trap_handler_m__clear_highest_priority_interrupt>
    410005a4:	f95ff06f          	j	41000538 <trap_handler_m__clear_highest_priority_interrupt>
    410005a8:	f91ff06f          	j	41000538 <trap_handler_m__clear_highest_priority_interrupt>
    410005ac:	f8dff06f          	j	41000538 <trap_handler_m__clear_highest_priority_interrupt>
    410005b0:	f89ff06f          	j	41000538 <trap_handler_m__clear_highest_priority_interrupt>
    410005b4:	f85ff06f          	j	41000538 <trap_handler_m__clear_highest_priority_interrupt>
    410005b8:	f81ff06f          	j	41000538 <trap_handler_m__clear_highest_priority_interrupt>
    410005bc:	f7dff06f          	j	41000538 <trap_handler_m__clear_highest_priority_interrupt>
    410005c0:	f79ff06f          	j	41000538 <trap_handler_m__clear_highest_priority_interrupt>
    410005c4:	f75ff06f          	j	41000538 <trap_handler_m__clear_highest_priority_interrupt>
    410005c8:	f71ff06f          	j	41000538 <trap_handler_m__clear_highest_priority_interrupt>
    410005cc:	f6dff06f          	j	41000538 <trap_handler_m__clear_highest_priority_interrupt>
    410005d0:	f69ff06f          	j	41000538 <trap_handler_m__clear_highest_priority_interrupt>
    410005d4:	f65ff06f          	j	41000538 <trap_handler_m__clear_highest_priority_interrupt>
    410005d8:	f61ff06f          	j	41000538 <trap_handler_m__clear_highest_priority_interrupt>
    410005dc:	f5dff06f          	j	41000538 <trap_handler_m__clear_highest_priority_interrupt>
    410005e0:	f59ff06f          	j	41000538 <trap_handler_m__clear_highest_priority_interrupt>
    410005e4:	f55ff06f          	j	41000538 <trap_handler_m__clear_highest_priority_interrupt>
    410005e8:	f51ff06f          	j	41000538 <trap_handler_m__clear_highest_priority_interrupt>
    410005ec:	f4dff06f          	j	41000538 <trap_handler_m__clear_highest_priority_interrupt>
    410005f0:	f49ff06f          	j	41000538 <trap_handler_m__clear_highest_priority_interrupt>
    410005f4:	f45ff06f          	j	41000538 <trap_handler_m__clear_highest_priority_interrupt>
    410005f8:	f41ff06f          	j	41000538 <trap_handler_m__clear_highest_priority_interrupt>
    410005fc:	f3dff06f          	j	41000538 <trap_handler_m__clear_highest_priority_interrupt>
    41000600:	f39ff06f          	j	41000538 <trap_handler_m__clear_highest_priority_interrupt>
    41000604:	f35ff06f          	j	41000538 <trap_handler_m__clear_highest_priority_interrupt>
    41000608:	f31ff06f          	j	41000538 <trap_handler_m__clear_highest_priority_interrupt>
    4100060c:	f2dff06f          	j	41000538 <trap_handler_m__clear_highest_priority_interrupt>
    41000610:	f29ff06f          	j	41000538 <trap_handler_m__clear_highest_priority_interrupt>
    41000614:	f25ff06f          	j	41000538 <trap_handler_m__clear_highest_priority_interrupt>
    41000618:	f21ff06f          	j	41000538 <trap_handler_m__clear_highest_priority_interrupt>
    4100061c:	f1dff06f          	j	41000538 <trap_handler_m__clear_highest_priority_interrupt>
    41000620:	f19ff06f          	j	41000538 <trap_handler_m__clear_highest_priority_interrupt>
    41000624:	f15ff06f          	j	41000538 <trap_handler_m__clear_highest_priority_interrupt>
    41000628:	f11ff06f          	j	41000538 <trap_handler_m__clear_highest_priority_interrupt>
    4100062c:	f0dff06f          	j	41000538 <trap_handler_m__clear_highest_priority_interrupt>
    41000630:	f09ff06f          	j	41000538 <trap_handler_m__clear_highest_priority_interrupt>
    41000634:	f05ff06f          	j	41000538 <trap_handler_m__clear_highest_priority_interrupt>
    41000638:	f01ff06f          	j	41000538 <trap_handler_m__clear_highest_priority_interrupt>
    4100063c:	efdff06f          	j	41000538 <trap_handler_m__clear_highest_priority_interrupt>
    41000640:	ef9ff06f          	j	41000538 <trap_handler_m__clear_highest_priority_interrupt>
    41000644:	ef5ff06f          	j	41000538 <trap_handler_m__clear_highest_priority_interrupt>

0000000041000648 <trap_handler_m__trap_handler>:
    41000648:	342022f3          	csrr	x5,mcause
    4100064c:	fff0031b          	addiw	x6,x0,-1
    41000650:	03f31313          	slli	x6,x6,0x3f
    41000654:	00537333          	and	x6,x6,x5
    41000658:	02030263          	beqz	x6,4100067c <trap_handler_m__exception_path>

000000004100065c <trap_handler_m__interrupt_handler>:
    4100065c:	fff0031b          	addiw	x6,x0,-1
    41000660:	03f31313          	slli	x6,x6,0x3f
    41000664:	0062c2b3          	xor	x5,x5,x6
    41000668:	00000317          	auipc	x6,0x0
    4100066c:	ee430313          	addi	x6,x6,-284 # 4100054c <trap_handler_m__trap_entry>
    41000670:	00229293          	slli	x5,x5,0x2
    41000674:	005302b3          	add	x5,x6,x5
    41000678:	00028067          	jr	x5 # 2000 <data>

000000004100067c <trap_handler_m__exception_path>:
    4100067c:	34021273          	csrrw	x4,mscratch,x4
    41000680:	00000297          	auipc	x5,0x0
    41000684:	10828293          	addi	x5,x5,264 # 41000788 <trap_handler_m__trap_panic>
    41000688:	30529073          	csrw	mtvec,x5
    4100068c:	0040006f          	j	41000690 <trap_handler_m__excp_entry>

0000000041000690 <trap_handler_m__excp_entry>:
    41000690:	34202373          	csrr	x6,mcause
    41000694:	00800293          	li	x5,8
    41000698:	00534863          	blt	x6,x5,410006a8 <trap_handler_m__check_exception_label>
    4100069c:	00b00293          	li	x5,11
    410006a0:	0062c463          	blt	x5,x6,410006a8 <trap_handler_m__check_exception_label>
    410006a4:	a31ff06f          	j	410000d4 <syscalls__syscall_check_schedule_next_test>

00000000410006a8 <trap_handler_m__check_exception_label>:
    410006a8:	04623c23          	sd	x6,88(x4) # 58 <XLEN+0x18>
    410006ac:	341022f3          	csrr	x5,mepc
    410006b0:	02523423          	sd	x5,40(x4) # 28 <SECURE_ACCESS_PROBABILITY+0xa>
    410006b4:	01820283          	lb	x5,24(x4) # 18 <STORE_GUEST_PAGE_FAULT+0x1>
    410006b8:	00029863          	bnez	x5,410006c8 <trap_handler_m__check_excp>
    410006bc:	00128293          	addi	x5,x5,1
    410006c0:	00520c23          	sb	x5,24(x4) # 18 <STORE_GUEST_PAGE_FAULT+0x1>
    410006c4:	0980006f          	j	4100075c <trap_handler_m__ecall_from_machine>

00000000410006c8 <trap_handler_m__check_excp>:
    410006c8:	06823283          	ld	x5,104(x4) # 68 <XLEN+0x28>
    410006cc:	06023423          	sd	x0,104(x4) # 68 <XLEN+0x28>
    410006d0:	00028663          	beqz	x5,410006dc <trap_handler_m__skip_mode_check>
    410006d4:	00100393          	li	x7,1
    410006d8:	0e729463          	bne	x5,x7,410007c0 <test_failed>

00000000410006dc <trap_handler_m__skip_mode_check>:
    410006dc:	05023283          	ld	x5,80(x4) # 50 <XLEN+0x10>
    410006e0:	04023823          	sd	x0,80(x4) # 50 <XLEN+0x10>
    410006e4:	0c531e63          	bne	x6,x5,410007c0 <test_failed>
    410006e8:	03823283          	ld	x5,56(x4) # 38 <SECURE_ACCESS_PROBABILITY+0x1a>
    410006ec:	02023c23          	sd	x0,56(x4) # 38 <SECURE_ACCESS_PROBABILITY+0x1a>
    410006f0:	06029463          	bnez	x5,41000758 <trap_handler_m__skip_gva_check>
    410006f4:	02023303          	ld	x6,32(x4) # 20 <SECURE_ACCESS_PROBABILITY+0x2>
    410006f8:	02023023          	sd	x0,32(x4) # 20 <SECURE_ACCESS_PROBABILITY+0x2>
    410006fc:	02823283          	ld	x5,40(x4) # 28 <SECURE_ACCESS_PROBABILITY+0xa>
    41000700:	02023423          	sd	x0,40(x4) # 28 <SECURE_ACCESS_PROBABILITY+0xa>
    41000704:	0a531e63          	bne	x6,x5,410007c0 <test_failed>
    41000708:	04023283          	ld	x5,64(x4) # 40 <XLEN>
    4100070c:	04023023          	sd	x0,64(x4) # 40 <XLEN>
    41000710:	00028663          	beqz	x5,4100071c <trap_handler_m__skip_nonzero_tval_check>

0000000041000714 <trap_handler_m__nonzero_tval_check>:
    41000714:	34302373          	csrr	x6,mtval
    41000718:	0a531463          	bne	x6,x5,410007c0 <test_failed>

000000004100071c <trap_handler_m__skip_nonzero_tval_check>:
    4100071c:	04823283          	ld	x5,72(x4) # 48 <XLEN+0x8>
    41000720:	04023423          	sd	x0,72(x4) # 48 <XLEN+0x8>
    41000724:	00028663          	beqz	x5,41000730 <trap_handler_m__skip_nonzero_htval_check>

0000000041000728 <trap_handler_m__nonzero_htval_check>:
    41000728:	34b02373          	csrr	x6,0x34b
    4100072c:	08531a63          	bne	x6,x5,410007c0 <test_failed>

0000000041000730 <trap_handler_m__skip_nonzero_htval_check>:
    41000730:	06023283          	ld	x5,96(x4) # 60 <XLEN+0x20>
    41000734:	06023023          	sd	x0,96(x4) # 60 <XLEN+0x20>
    41000738:	02028063          	beqz	x5,41000758 <trap_handler_m__skip_gva_check>

000000004100073c <trap_handler_m__gva_check>:
    4100073c:	30002373          	csrr	x6,mstatus
    41000740:	02635313          	srli	x6,x6,0x26
    41000744:	00137313          	andi	x6,x6,1
    41000748:	06030c63          	beqz	x6,410007c0 <test_failed>
    4100074c:	0010031b          	addiw	x6,x0,1
    41000750:	02631313          	slli	x6,x6,0x26
    41000754:	30033073          	csrc	mstatus,x6

0000000041000758 <trap_handler_m__skip_gva_check>:
    41000758:	0040006f          	j	4100075c <trap_handler_m__ecall_from_machine>

000000004100075c <trap_handler_m__ecall_from_machine>:
    4100075c:	03023283          	ld	x5,48(x4) # 30 <SECURE_ACCESS_PROBABILITY+0x12>
    41000760:	02023823          	sd	x0,48(x4) # 30 <SECURE_ACCESS_PROBABILITY+0x12>
    41000764:	07023303          	ld	x6,112(x4) # 70 <XLEN+0x30>
    41000768:	06023823          	sd	x0,112(x4) # 70 <XLEN+0x30>
    4100076c:	00031463          	bnez	x6,41000774 <trap_handler_m__skip_xepc_write>
    41000770:	34129073          	csrw	mepc,x5

0000000041000774 <trap_handler_m__skip_xepc_write>:
    41000774:	00000317          	auipc	x6,0x0
    41000778:	dd830313          	addi	x6,x6,-552 # 4100054c <trap_handler_m__trap_entry>
    4100077c:	30531073          	csrw	mtvec,x6
    41000780:	34021273          	csrrw	x4,mscratch,x4
    41000784:	30200073          	mret

0000000041000788 <trap_handler_m__trap_panic>:
    41000788:	00000193          	li	x3,0
    4100078c:	2b40006f          	j	41000a40 <eot__end_test>

0000000041000790 <enter_scheduler>:
    41000790:	0002f337          	lui	x6,0x2f
    41000794:	ab73031b          	addiw	x6,x6,-1353 # 2eab7 <SID_PBVMS_043_fetch_window_spill_page_cross_stack+0x6ab7>
    41000798:	00e31313          	slli	x6,x6,0xe
    4100079c:	0de30313          	addi	x6,x6,222
    410007a0:	02628063          	beq	x5,x6,410007c0 <test_failed>
    410007a4:	00000513          	li	x10,0
    410007a8:	030000ef          	jal	410007d8 <rvcp_print_test_result>
    410007ac:	3180006f          	j	41000ac4 <scheduler__dispatch>

00000000410007b0 <test_passed>:
    410007b0:	34021273          	csrrw	x4,mscratch,x4
    410007b4:	00000513          	li	x10,0
    410007b8:	020000ef          	jal	410007d8 <rvcp_print_test_result>
    410007bc:	3080006f          	j	41000ac4 <scheduler__dispatch>

00000000410007c0 <test_failed>:
    410007c0:	34021273          	csrrw	x4,mscratch,x4
    410007c4:	00300193          	li	x3,3
    410007c8:	2780006f          	j	41000a40 <eot__end_test>

00000000410007cc <os_end_test>:
    410007cc:	34021273          	csrrw	x4,mscratch,x4
    410007d0:	00100193          	li	x3,1
    410007d4:	26c0006f          	j	41000a40 <eot__end_test>

00000000410007d8 <rvcp_print_test_result>:
    410007d8:	00050e13          	mv	x28,x10
    410007dc:	18823283          	ld	x5,392(x4) # 188 <XLEN+0x148>
    410007e0:	0010031b          	addiw	x6,x0,1
    410007e4:	02031313          	slli	x6,x6,0x20
    410007e8:	ffe30313          	addi	x6,x6,-2
    410007ec:	1c628063          	beq	x5,x6,410009ac <rvcp_print_test_result+0x1d4>
    410007f0:	0010031b          	addiw	x6,x0,1
    410007f4:	02031313          	slli	x6,x6,0x20
    410007f8:	fff30313          	addi	x6,x6,-1
    410007fc:	1a628863          	beq	x5,x6,410009ac <rvcp_print_test_result+0x1d4>
    41000800:	1a02c663          	bltz	x5,410009ac <rvcp_print_test_result+0x1d4>
    41000804:	00000317          	auipc	x6,0x0
    41000808:	40030313          	addi	x6,x6,1024 # 41000c04 <dtest_descriptor_table>
    4100080c:	00329393          	slli	x7,x5,0x3
    41000810:	00730333          	add	x6,x6,x7
    41000814:	00033e83          	ld	x29,0(x6)
    41000818:	447fef37          	lui	x30,0x447fe
    4100081c:	030f0f1b          	addiw	x30,x30,48 # 447fe030 <rvcp_prefix_str_pa>
    41000820:	000f4283          	lbu	x5,0(x30)
    41000824:	02028663          	beqz	x5,41000850 <rvcp_print_test_result+0x78>
    41000828:	1010031b          	addiw	x6,x0,257
    4100082c:	03031313          	slli	x6,x6,0x30
    41000830:	005362b3          	or	x5,x6,x5
    41000834:	0003f317          	auipc	x6,0x3f
    41000838:	7cc30313          	addi	x6,x6,1996 # 41040000 <tohost>
    4100083c:	00033383          	ld	x7,0(x6)
    41000840:	fe039ee3          	bnez	x7,4100083c <rvcp_print_test_result+0x64>
    41000844:	00533023          	sd	x5,0(x6)
    41000848:	001f0f13          	addi	x30,x30,1
    4100084c:	fd5ff06f          	j	41000820 <rvcp_print_test_result+0x48>
    41000850:	447fef37          	lui	x30,0x447fe
    41000854:	041f0f1b          	addiw	x30,x30,65 # 447fe041 <rvcp_testname_str_pa>
    41000858:	000f4283          	lbu	x5,0(x30)
    4100085c:	02028663          	beqz	x5,41000888 <rvcp_print_test_result+0xb0>
    41000860:	1010031b          	addiw	x6,x0,257
    41000864:	03031313          	slli	x6,x6,0x30
    41000868:	005362b3          	or	x5,x6,x5
    4100086c:	0003f317          	auipc	x6,0x3f
    41000870:	79430313          	addi	x6,x6,1940 # 41040000 <tohost>
    41000874:	00033383          	ld	x7,0(x6)
    41000878:	fe039ee3          	bnez	x7,41000874 <rvcp_print_test_result+0x9c>
    4100087c:	00533023          	sd	x5,0(x6)
    41000880:	001f0f13          	addi	x30,x30,1
    41000884:	fd5ff06f          	j	41000858 <rvcp_print_test_result+0x80>
    41000888:	447fef37          	lui	x30,0x447fe
    4100088c:	05bf0f1b          	addiw	x30,x30,91 # 447fe05b <rvcp_space_str_pa>
    41000890:	000f4283          	lbu	x5,0(x30)
    41000894:	02028663          	beqz	x5,410008c0 <rvcp_print_test_result+0xe8>
    41000898:	1010031b          	addiw	x6,x0,257
    4100089c:	03031313          	slli	x6,x6,0x30
    410008a0:	005362b3          	or	x5,x6,x5
    410008a4:	0003f317          	auipc	x6,0x3f
    410008a8:	75c30313          	addi	x6,x6,1884 # 41040000 <tohost>
    410008ac:	00033383          	ld	x7,0(x6)
    410008b0:	fe039ee3          	bnez	x7,410008ac <rvcp_print_test_result+0xd4>
    410008b4:	00533023          	sd	x5,0(x6)
    410008b8:	001f0f13          	addi	x30,x30,1
    410008bc:	fd5ff06f          	j	41000890 <rvcp_print_test_result+0xb8>
    410008c0:	000e8f13          	mv	x30,x29
    410008c4:	000f4283          	lbu	x5,0(x30)
    410008c8:	02028663          	beqz	x5,410008f4 <rvcp_print_test_result+0x11c>
    410008cc:	1010031b          	addiw	x6,x0,257
    410008d0:	03031313          	slli	x6,x6,0x30
    410008d4:	005362b3          	or	x5,x6,x5
    410008d8:	0003f317          	auipc	x6,0x3f
    410008dc:	72830313          	addi	x6,x6,1832 # 41040000 <tohost>
    410008e0:	00033383          	ld	x7,0(x6)
    410008e4:	fe039ee3          	bnez	x7,410008e0 <rvcp_print_test_result+0x108>
    410008e8:	00533023          	sd	x5,0(x6)
    410008ec:	001f0f13          	addi	x30,x30,1
    410008f0:	fd5ff06f          	j	410008c4 <rvcp_print_test_result+0xec>
    410008f4:	447fef37          	lui	x30,0x447fe
    410008f8:	05bf0f1b          	addiw	x30,x30,91 # 447fe05b <rvcp_space_str_pa>
    410008fc:	000f4283          	lbu	x5,0(x30)
    41000900:	02028663          	beqz	x5,4100092c <rvcp_print_test_result+0x154>
    41000904:	1010031b          	addiw	x6,x0,257
    41000908:	03031313          	slli	x6,x6,0x30
    4100090c:	005362b3          	or	x5,x6,x5
    41000910:	0003f317          	auipc	x6,0x3f
    41000914:	6f030313          	addi	x6,x6,1776 # 41040000 <tohost>
    41000918:	00033383          	ld	x7,0(x6)
    4100091c:	fe039ee3          	bnez	x7,41000918 <rvcp_print_test_result+0x140>
    41000920:	00533023          	sd	x5,0(x6)
    41000924:	001f0f13          	addi	x30,x30,1
    41000928:	fd5ff06f          	j	410008fc <rvcp_print_test_result+0x124>
    4100092c:	000e1863          	bnez	x28,4100093c <rvcp_print_test_result+0x164>
    41000930:	447fef37          	lui	x30,0x447fe
    41000934:	04df0f1b          	addiw	x30,x30,77 # 447fe04d <rvcp_passed_str_pa>
    41000938:	00c0006f          	j	41000944 <rvcp_print_test_result+0x16c>
    4100093c:	447fef37          	lui	x30,0x447fe
    41000940:	054f0f1b          	addiw	x30,x30,84 # 447fe054 <rvcp_failed_str_pa>
    41000944:	000f4283          	lbu	x5,0(x30)
    41000948:	02028663          	beqz	x5,41000974 <rvcp_print_test_result+0x19c>
    4100094c:	1010031b          	addiw	x6,x0,257
    41000950:	03031313          	slli	x6,x6,0x30
    41000954:	005362b3          	or	x5,x6,x5
    41000958:	0003f317          	auipc	x6,0x3f
    4100095c:	6a830313          	addi	x6,x6,1704 # 41040000 <tohost>
    41000960:	00033383          	ld	x7,0(x6)
    41000964:	fe039ee3          	bnez	x7,41000960 <rvcp_print_test_result+0x188>
    41000968:	00533023          	sd	x5,0(x6)
    4100096c:	001f0f13          	addi	x30,x30,1
    41000970:	fd5ff06f          	j	41000944 <rvcp_print_test_result+0x16c>
    41000974:	447fef37          	lui	x30,0x447fe
    41000978:	05df0f1b          	addiw	x30,x30,93 # 447fe05d <rvcp_newline_str_pa>
    4100097c:	000f4283          	lbu	x5,0(x30)
    41000980:	02028663          	beqz	x5,410009ac <rvcp_print_test_result+0x1d4>
    41000984:	1010031b          	addiw	x6,x0,257
    41000988:	03031313          	slli	x6,x6,0x30
    4100098c:	005362b3          	or	x5,x6,x5
    41000990:	0003f317          	auipc	x6,0x3f
    41000994:	67030313          	addi	x6,x6,1648 # 41040000 <tohost>
    41000998:	00033383          	ld	x7,0(x6)
    4100099c:	fe039ee3          	bnez	x7,41000998 <rvcp_print_test_result+0x1c0>
    410009a0:	00533023          	sd	x5,0(x6)
    410009a4:	001f0f13          	addi	x30,x30,1
    410009a8:	fd5ff06f          	j	4100097c <rvcp_print_test_result+0x1a4>
    410009ac:	00008067          	ret

00000000410009b0 <os_rng_orig>:
    410009b0:	f14023f3          	csrr	x7,mhartid
    410009b4:	00068313          	mv	x6,x13
    410009b8:	026383b3          	mul	x7,x7,x6
    410009bc:	00058313          	mv	x6,x11
    410009c0:	00730333          	add	x6,x6,x7
    410009c4:	00033283          	ld	x5,0(x6)
    410009c8:	01529313          	slli	x6,x5,0x15
    410009cc:	0062c2b3          	xor	x5,x5,x6
    410009d0:	0232d313          	srli	x6,x5,0x23
    410009d4:	0062c2b3          	xor	x5,x5,x6
    410009d8:	00429313          	slli	x6,x5,0x4
    410009dc:	0062c2b3          	xor	x5,x5,x6
    410009e0:	00058313          	mv	x6,x11
    410009e4:	00730333          	add	x6,x6,x7
    410009e8:	00533023          	sd	x5,0(x6)
    410009ec:	00060313          	mv	x6,x12
    410009f0:	0262f2b3          	remu	x5,x5,x6
    410009f4:	00028513          	mv	x10,x5
    410009f8:	00008067          	ret
    410009fc:	02a00513          	li	x10,42
    41000a00:	001965b7          	lui	x11,0x196
    41000a04:	60d5859b          	addiw	x11,x11,1549 # 19660d <mem0+0x3a60d>
    41000a08:	3c6ef637          	lui	x12,0x3c6ef
    41000a0c:	35f6061b          	addiw	x12,x12,863 # 3c6ef35f <mem21__pt_level1+0x246635f>
    41000a10:	02200693          	li	x13,34
    41000a14:	02b50533          	mul	x10,x10,x11
    41000a18:	00c50533          	add	x10,x10,x12
    41000a1c:	02d56533          	rem	x10,x10,x13
    41000a20:	00b00593          	li	x11,11
    41000a24:	02b56533          	rem	x10,x10,x11
    41000a28:	00008067          	ret
    41000a2c:	0000                	.insn	2, 0x0000
	...

0000000041000a30 <tohost_mutex>:
	...

0000000041000a38 <tohost_addr_mem>:
    41000a38:	0000                	.insn	2, 0x0000
    41000a3a:	4104                	.insn	2, 0x4104
    41000a3c:	0000                	.insn	2, 0x0000
	...

0000000041000a40 <eot__end_test>:
    41000a40:	00100293          	li	x5,1
    41000a44:	00328463          	beq	x5,x3,41000a4c <eot__passed>
    41000a48:	01c0006f          	j	41000a64 <eot__failed>

0000000041000a4c <eot__passed>:
    41000a4c:	0ff0000f          	fence
    41000a50:	00000297          	auipc	x5,0x0
    41000a54:	fe82b283          	ld	x5,-24(x5) # 41000a38 <tohost_addr_mem>
    41000a58:	00100313          	li	x6,1
    41000a5c:	0062a023          	sw	x6,0(x5)
    41000a60:	0240006f          	j	41000a84 <eot__halt>

0000000041000a64 <eot__failed>:
    41000a64:	00100513          	li	x10,1
    41000a68:	d71ff0ef          	jal	410007d8 <rvcp_print_test_result>
    41000a6c:	0ff0000f          	fence
    41000a70:	00000297          	auipc	x5,0x0
    41000a74:	fc82b283          	ld	x5,-56(x5) # 41000a38 <tohost_addr_mem>
    41000a78:	00300313          	li	x6,3
    41000a7c:	0062a023          	sw	x6,0(x5)
    41000a80:	0040006f          	j	41000a84 <eot__halt>

0000000041000a84 <eot__halt>:
    41000a84:	10500073          	wfi
    41000a88:	ffdff06f          	j	41000a84 <eot__halt>

0000000041000a8c <scheduler__init>:
    41000a8c:	00000297          	auipc	x5,0x0
    41000a90:	0c828293          	addi	x5,x5,200 # 41000b54 <scheduler__panic>
    41000a94:	305292f3          	csrrw	x5,mtvec,x5
    41000a98:	18523023          	sd	x5,384(x4) # 180 <XLEN+0x140>
    41000a9c:	01400293          	li	x5,20
    41000aa0:	18523823          	sd	x5,400(x4) # 190 <XLEN+0x150>
    41000aa4:	0010029b          	addiw	x5,x0,1
    41000aa8:	02029293          	slli	x5,x5,0x20
    41000aac:	ffe28293          	addi	x5,x5,-2
    41000ab0:	18523423          	sd	x5,392(x4) # 188 <XLEN+0x148>
    41000ab4:	00000317          	auipc	x6,0x0
    41000ab8:	51030313          	addi	x6,x6,1296 # 41000fc4 <scheduler__test_setup_ptr>
    41000abc:	00033303          	ld	x6,0(x6)
    41000ac0:	06c0006f          	j	41000b2c <scheduler__execute_test>

0000000041000ac4 <scheduler__dispatch>:
    41000ac4:	00000297          	auipc	x5,0x0
    41000ac8:	09028293          	addi	x5,x5,144 # 41000b54 <scheduler__panic>
    41000acc:	305292f3          	csrrw	x5,mtvec,x5
    41000ad0:	18523023          	sd	x5,384(x4) # 180 <XLEN+0x140>

0000000041000ad4 <scheduler__csr_read_randomization>:
    41000ad4:	141022f3          	csrr	x5,sepc
    41000ad8:	f13022f3          	csrr	x5,mimpid
    41000adc:	10a022f3          	csrr	x5,0x10a
    41000ae0:	f13022f3          	csrr	x5,mimpid
    41000ae4:	f12022f3          	csrr	x5,marchid
    41000ae8:	106022f3          	csrr	x5,scounteren
    41000aec:	305022f3          	csrr	x5,mtvec

0000000041000af0 <scheduler__load_num_runs>:
    41000af0:	19023303          	ld	x6,400(x4) # 190 <XLEN+0x150>
    41000af4:	04030c63          	beqz	x6,41000b4c <scheduler__finished>

0000000041000af8 <scheduler__decrement_num_runs>:
    41000af8:	fff30393          	addi	x7,x6,-1
    41000afc:	18723823          	sd	x7,400(x4) # 190 <XLEN+0x150>
    41000b00:	00000e17          	auipc	x28,0x0
    41000b04:	474e0e13          	addi	x28,x28,1140 # 41000f74 <dtest_index_map>
    41000b08:	00239e93          	slli	x29,x7,0x2
    41000b0c:	01de0e33          	add	x28,x28,x29
    41000b10:	000e2e03          	lw	x28,0(x28)
    41000b14:	19c23423          	sd	x28,392(x4) # 188 <XLEN+0x148>

0000000041000b18 <scheduler__calc_test_pointer>:
    41000b18:	00339293          	slli	x5,x7,0x3

0000000041000b1c <scheduler__load_test_addr>:
    41000b1c:	00000317          	auipc	x6,0x0
    41000b20:	04830313          	addi	x6,x6,72 # 41000b64 <os_test_sequence>
    41000b24:	006282b3          	add	x5,x5,x6
    41000b28:	0002b303          	ld	x6,0(x5)

0000000041000b2c <scheduler__execute_test>:
    41000b2c:	18023283          	ld	x5,384(x4) # 180 <XLEN+0x140>
    41000b30:	30529073          	csrw	mtvec,x5
    41000b34:	34021273          	csrrw	x4,mscratch,x4
    41000b38:	00000213          	li	x4,0
    41000b3c:	14131073          	csrw	sepc,x6
    41000b40:	10000293          	li	x5,256
    41000b44:	1002b073          	csrc	sstatus,x5
    41000b48:	10200073          	sret

0000000041000b4c <scheduler__finished>:
    41000b4c:	00100193          	li	x3,1
    41000b50:	ef1ff06f          	j	41000a40 <eot__end_test>

0000000041000b54 <scheduler__panic>:
    41000b54:	00000193          	li	x3,0
    41000b58:	ee9ff06f          	j	41000a40 <eot__end_test>

0000000041000b5c <num_runs>:
    41000b5c:	0014                	.insn	2, 0x0014
    41000b5e:	0000                	.insn	2, 0x0000
    41000b60:	0000                	.insn	2, 0x0000
	...

0000000041000b64 <os_test_sequence>:
    41000b64:	6890                	.insn	2, 0x6890
    41000b66:	4101                	.insn	2, 0x4101
    41000b68:	0000                	.insn	2, 0x0000
    41000b6a:	0000                	.insn	2, 0x0000
    41000b6c:	5868                	.insn	2, 0x5868
    41000b6e:	4101                	.insn	2, 0x4101
    41000b70:	0000                	.insn	2, 0x0000
    41000b72:	0000                	.insn	2, 0x0000
    41000b74:	56c8                	.insn	2, 0x56c8
    41000b76:	4101                	.insn	2, 0x4101
    41000b78:	0000                	.insn	2, 0x0000
    41000b7a:	0000                	.insn	2, 0x0000
    41000b7c:	62ec                	.insn	2, 0x62ec
    41000b7e:	4101                	.insn	2, 0x4101
    41000b80:	0000                	.insn	2, 0x0000
    41000b82:	0000                	.insn	2, 0x0000
    41000b84:	5944                	.insn	2, 0x5944
    41000b86:	4101                	.insn	2, 0x4101
    41000b88:	0000                	.insn	2, 0x0000
    41000b8a:	0000                	.insn	2, 0x0000
    41000b8c:	6868                	.insn	2, 0x6868
    41000b8e:	4101                	.insn	2, 0x4101
    41000b90:	0000                	.insn	2, 0x0000
    41000b92:	0000                	.insn	2, 0x0000
    41000b94:	556c                	.insn	2, 0x556c
    41000b96:	4101                	.insn	2, 0x4101
    41000b98:	0000                	.insn	2, 0x0000
    41000b9a:	0000                	.insn	2, 0x0000
    41000b9c:	5bcc                	.insn	2, 0x5bcc
    41000b9e:	4101                	.insn	2, 0x4101
    41000ba0:	0000                	.insn	2, 0x0000
    41000ba2:	0000                	.insn	2, 0x0000
    41000ba4:	5130                	.insn	2, 0x5130
    41000ba6:	4101                	.insn	2, 0x4101
    41000ba8:	0000                	.insn	2, 0x0000
    41000baa:	0000                	.insn	2, 0x0000
    41000bac:	5268                	.insn	2, 0x5268
    41000bae:	4101                	.insn	2, 0x4101
    41000bb0:	0000                	.insn	2, 0x0000
    41000bb2:	0000                	.insn	2, 0x0000
    41000bb4:	6098                	.insn	2, 0x6098
    41000bb6:	4101                	.insn	2, 0x4101
    41000bb8:	0000                	.insn	2, 0x0000
    41000bba:	0000                	.insn	2, 0x0000
    41000bbc:	5318                	.insn	2, 0x5318
    41000bbe:	4101                	.insn	2, 0x4101
    41000bc0:	0000                	.insn	2, 0x0000
    41000bc2:	0000                	.insn	2, 0x0000
    41000bc4:	5d88                	.insn	2, 0x5d88
    41000bc6:	4101                	.insn	2, 0x4101
    41000bc8:	0000                	.insn	2, 0x0000
    41000bca:	0000                	.insn	2, 0x0000
    41000bcc:	6454                	.insn	2, 0x6454
    41000bce:	4101                	.insn	2, 0x4101
    41000bd0:	0000                	.insn	2, 0x0000
    41000bd2:	0000                	.insn	2, 0x0000
    41000bd4:	6574                	.insn	2, 0x6574
    41000bd6:	4101                	.insn	2, 0x4101
    41000bd8:	0000                	.insn	2, 0x0000
    41000bda:	0000                	.insn	2, 0x0000
    41000bdc:	61ec                	.insn	2, 0x61ec
    41000bde:	4101                	.insn	2, 0x4101
    41000be0:	0000                	.insn	2, 0x0000
    41000be2:	0000                	.insn	2, 0x0000
    41000be4:	5ef8                	.insn	2, 0x5ef8
    41000be6:	4101                	.insn	2, 0x4101
    41000be8:	0000                	.insn	2, 0x0000
    41000bea:	0000                	.insn	2, 0x0000
    41000bec:	67b8                	.insn	2, 0x67b8
    41000bee:	4101                	.insn	2, 0x4101
    41000bf0:	0000                	.insn	2, 0x0000
    41000bf2:	0000                	.insn	2, 0x0000
    41000bf4:	51d4                	.insn	2, 0x51d4
    41000bf6:	4101                	.insn	2, 0x4101
    41000bf8:	0000                	.insn	2, 0x0000
    41000bfa:	0000                	.insn	2, 0x0000
    41000bfc:	519c                	.insn	2, 0x519c
    41000bfe:	4101                	.insn	2, 0x4101
    41000c00:	0000                	.insn	2, 0x0000
	...

0000000041000c04 <dtest_descriptor_table>:
    41000c04:	0c9c                	.insn	2, 0x0c9c
    41000c06:	4100                	.insn	2, 0x4100
    41000c08:	0000                	.insn	2, 0x0000
    41000c0a:	0000                	.insn	2, 0x0000
    41000c0c:	0cc9                	.insn	2, 0x0cc9
    41000c0e:	4100                	.insn	2, 0x4100
    41000c10:	0000                	.insn	2, 0x0000
    41000c12:	0000                	.insn	2, 0x0000
    41000c14:	41000cef          	jal	x25,41001024 <__section__runtime_1+0x24>
    41000c18:	0000                	.insn	2, 0x0000
    41000c1a:	0000                	.insn	2, 0x0000
    41000c1c:	0d18                	.insn	2, 0x0d18
    41000c1e:	4100                	.insn	2, 0x4100
    41000c20:	0000                	.insn	2, 0x0000
    41000c22:	0000                	.insn	2, 0x0000
    41000c24:	0d3e                	.insn	2, 0x0d3e
    41000c26:	4100                	.insn	2, 0x4100
    41000c28:	0000                	.insn	2, 0x0000
    41000c2a:	0000                	.insn	2, 0x0000
    41000c2c:	0d66                	.insn	2, 0x0d66
    41000c2e:	4100                	.insn	2, 0x4100
    41000c30:	0000                	.insn	2, 0x0000
    41000c32:	0000                	.insn	2, 0x0000
    41000c34:	0d90                	.insn	2, 0x0d90
    41000c36:	4100                	.insn	2, 0x4100
    41000c38:	0000                	.insn	2, 0x0000
    41000c3a:	0000                	.insn	2, 0x0000
    41000c3c:	41000db7          	lui	x27,0x41000
    41000c40:	0000                	.insn	2, 0x0000
    41000c42:	0000                	.insn	2, 0x0000
    41000c44:	0dde                	.insn	2, 0x0dde
    41000c46:	4100                	.insn	2, 0x4100
    41000c48:	0000                	.insn	2, 0x0000
    41000c4a:	0000                	.insn	2, 0x0000
    41000c4c:	0dfc                	.insn	2, 0x0dfc
    41000c4e:	4100                	.insn	2, 0x4100
    41000c50:	0000                	.insn	2, 0x0000
    41000c52:	0000                	.insn	2, 0x0000
    41000c54:	0e1e                	.insn	2, 0x0e1e
    41000c56:	4100                	.insn	2, 0x4100
    41000c58:	0000                	.insn	2, 0x0000
    41000c5a:	0000                	.insn	2, 0x0000
    41000c5c:	41000e3f 00000000 	.insn	8, 0x41000e3f
    41000c64:	0e61                	.insn	2, 0x0e61
    41000c66:	4100                	.insn	2, 0x4100
    41000c68:	0000                	.insn	2, 0x0000
    41000c6a:	0000                	.insn	2, 0x0000
    41000c6c:	0e86                	.insn	2, 0x0e86
    41000c6e:	4100                	.insn	2, 0x4100
    41000c70:	0000                	.insn	2, 0x0000
    41000c72:	0000                	.insn	2, 0x0000
    41000c74:	41000eab          	.insn	4, 0x41000eab
    41000c78:	0000                	.insn	2, 0x0000
    41000c7a:	0000                	.insn	2, 0x0000
    41000c7c:	0ed0                	.insn	2, 0x0ed0
    41000c7e:	4100                	.insn	2, 0x4100
    41000c80:	0000                	.insn	2, 0x0000
    41000c82:	0000                	.insn	2, 0x0000
    41000c84:	41000ef3          	.insn	4, 0x41000ef3
    41000c88:	0000                	.insn	2, 0x0000
    41000c8a:	0000                	.insn	2, 0x0000
    41000c8c:	0f18                	.insn	2, 0x0f18
    41000c8e:	4100                	.insn	2, 0x4100
    41000c90:	0000                	.insn	2, 0x0000
    41000c92:	0000                	.insn	2, 0x0000
    41000c94:	0f48                	.insn	2, 0x0f48
    41000c96:	4100                	.insn	2, 0x4100
    41000c98:	0000                	.insn	2, 0x0000
	...

0000000041000c9c <dtest_name_0>:
    41000c9c:	5f444953          	.insn	4, 0x5f444953
    41000ca0:	4250                	.insn	2, 0x4250
    41000ca2:	4d56                	.insn	2, 0x4d56
    41000ca4:	30305f53          	.insn	4, 0x30305f53
    41000ca8:	5f31                	.insn	2, 0x5f31
    41000caa:	7470                	.insn	2, 0x7470
    41000cac:	6f6e5f77          	.insn	4, 0x6f6e5f77
    41000cb0:	665f 7561 746c      	.insn	6, 0x746c7561665f
    41000cb6:	6c615f73          	csrrwi	x30,0x6c6,2
    41000cba:	5f6c                	.insn	2, 0x5f6c
    41000cbc:	6361                	.insn	2, 0x6361
    41000cbe:	73736563          	bltu	x6,x23,410013e8 <__section__runtime_1+0x3e8>
    41000cc2:	745f 7079 7365      	.insn	6, 0x73657079745f
	...

0000000041000cc9 <dtest_name_1>:
    41000cc9:	5f444953          	.insn	4, 0x5f444953
    41000ccd:	4250                	.insn	2, 0x4250
    41000ccf:	4d56                	.insn	2, 0x4d56
    41000cd1:	30305f53          	.insn	4, 0x30305f53
    41000cd5:	74705f33          	.insn	4, 0x74705f33
    41000cd9:	6c615f77          	.insn	4, 0x6c615f77
    41000cdd:	5f6c                	.insn	2, 0x5f6c
    41000cdf:	7270                	.insn	2, 0x7270
    41000ce1:	7669                	.insn	2, 0x7669
    41000ce3:	6c69                	.insn	2, 0x6c69
    41000ce5:	6765                	.insn	2, 0x6765
    41000ce7:	5f65                	.insn	2, 0x5f65
    41000ce9:	6f6d                	.insn	2, 0x6f6d
    41000ceb:	6564                	.insn	2, 0x6564
    41000ced:	          	.insn	4, 0x49530073

0000000041000cef <dtest_name_2>:
    41000cef:	5f444953          	.insn	4, 0x5f444953
    41000cf3:	4250                	.insn	2, 0x4250
    41000cf5:	4d56                	.insn	2, 0x4d56
    41000cf7:	30305f53          	.insn	4, 0x30305f53
    41000cfb:	5f36                	.insn	2, 0x5f36
    41000cfd:	7470                	.insn	2, 0x7470
    41000cff:	61705f77          	.insn	4, 0x61705f77
    41000d03:	625f6567          	.insn	4, 0x625f6567
    41000d07:	646e756f          	jal	x10,410e834d <__section__code_211+0x34d>
    41000d0b:	7261                	.insn	2, 0x7261
    41000d0d:	5f79                	.insn	2, 0x5f79
    41000d0f:	736f7263          	bgeu	x30,x22,41001433 <__section__runtime_1+0x433>
    41000d13:	676e6973          	csrrsi	x18,0x676,28
	...

0000000041000d18 <dtest_name_3>:
    41000d18:	5f444953          	.insn	4, 0x5f444953
    41000d1c:	4250                	.insn	2, 0x4250
    41000d1e:	4d56                	.insn	2, 0x4d56
    41000d20:	30305f53          	.insn	4, 0x30305f53
    41000d24:	5f38                	.insn	2, 0x5f38
    41000d26:	6176                	.insn	2, 0x6176
    41000d28:	735f 6769 5f6e      	.insn	6, 0x5f6e6769735f
    41000d2e:	7865                	.insn	2, 0x7865
    41000d30:	6574                	.insn	2, 0x6574
    41000d32:	736e                	.insn	2, 0x736e
    41000d34:	6f69                	.insn	2, 0x6f69
    41000d36:	5f6e                	.insn	2, 0x5f6e
    41000d38:	6166                	.insn	2, 0x6166
    41000d3a:	6c75                	.insn	2, 0x6c75
    41000d3c:	0074                	.insn	2, 0x0074

0000000041000d3e <dtest_name_4>:
    41000d3e:	5f444953          	.insn	4, 0x5f444953
    41000d42:	4250                	.insn	2, 0x4250
    41000d44:	4d56                	.insn	2, 0x4d56
    41000d46:	30305f53          	.insn	4, 0x30305f53
    41000d4a:	5f39                	.insn	2, 0x5f39
    41000d4c:	65707573          	csrrci	x10,hviprio2h,0
    41000d50:	7072                	.insn	2, 0x7072
    41000d52:	6761                	.insn	2, 0x6761
    41000d54:	5f65                	.insn	2, 0x5f65
    41000d56:	6c61                	.insn	2, 0x6c61
    41000d58:	6769                	.insn	2, 0x6769
    41000d5a:	6d6e                	.insn	2, 0x6d6e
    41000d5c:	6e65                	.insn	2, 0x6e65
    41000d5e:	5f74                	.insn	2, 0x5f74
    41000d60:	6166                	.insn	2, 0x6166
    41000d62:	6c75                	.insn	2, 0x6c75
    41000d64:	0074                	.insn	2, 0x0074

0000000041000d66 <dtest_name_5>:
    41000d66:	5f444953          	.insn	4, 0x5f444953
    41000d6a:	4250                	.insn	2, 0x4250
    41000d6c:	4d56                	.insn	2, 0x4d56
    41000d6e:	31305f53          	.insn	4, 0x31305f53
    41000d72:	5f31                	.insn	2, 0x5f31
    41000d74:	7470                	.insn	2, 0x7470
    41000d76:	61665f77          	.insn	4, 0x61665f77
    41000d7a:	6c75                	.insn	2, 0x6c75
    41000d7c:	5f74                	.insn	2, 0x5f74
    41000d7e:	6f62                	.insn	2, 0x6f62
    41000d80:	6e75                	.insn	2, 0x6e75
    41000d82:	6164                	.insn	2, 0x6164
    41000d84:	7972                	.insn	2, 0x7972
    41000d86:	635f 6f72 7373      	.insn	6, 0x73736f72635f
    41000d8c:	6e69                	.insn	2, 0x6e69
    41000d8e:	          	jr	1173(x6)

0000000041000d90 <dtest_name_6>:
    41000d90:	5f444953          	.insn	4, 0x5f444953
    41000d94:	4250                	.insn	2, 0x4250
    41000d96:	4d56                	.insn	2, 0x4d56
    41000d98:	31305f53          	.insn	4, 0x31305f53
    41000d9c:	5f32                	.insn	2, 0x5f32
    41000d9e:	7470                	.insn	2, 0x7470
    41000da0:	61665f77          	.insn	4, 0x61665f77
    41000da4:	6c75                	.insn	2, 0x6c75
    41000da6:	5f74                	.insn	2, 0x5f74
    41000da8:	7270                	.insn	2, 0x7270
    41000daa:	6f69                	.insn	2, 0x6f69
    41000dac:	6972                	.insn	2, 0x6972
    41000dae:	6974                	.insn	2, 0x6974
    41000db0:	617a                	.insn	2, 0x617a
    41000db2:	6974                	.insn	2, 0x6974
    41000db4:	          	jal	x28,410072e4 <__section__runtime_7+0x2e4>

0000000041000db7 <dtest_name_7>:
    41000db7:	5f444953          	.insn	4, 0x5f444953
    41000dbb:	4250                	.insn	2, 0x4250
    41000dbd:	4d56                	.insn	2, 0x4d56
    41000dbf:	31305f53          	.insn	4, 0x31305f53
    41000dc3:	74705f33          	.insn	4, 0x74705f33
    41000dc7:	65705f77          	.insn	4, 0x65705f77
    41000dcb:	6d72                	.insn	2, 0x6d72
    41000dcd:	7369                	.insn	2, 0x7369
    41000dcf:	6e6f6973          	csrrsi	x18,0x6e6,30
    41000dd3:	655f 636e 646f      	.insn	6, 0x646f636e655f
    41000dd9:	6e69                	.insn	2, 0x6e69
    41000ddb:	          	.insn	4, 0x53007367

0000000041000dde <dtest_name_8>:
    41000dde:	5f444953          	.insn	4, 0x5f444953
    41000de2:	4250                	.insn	2, 0x4250
    41000de4:	4d56                	.insn	2, 0x4d56
    41000de6:	31305f53          	.insn	4, 0x31305f53
    41000dea:	5f34                	.insn	2, 0x5f34
    41000dec:	736d                	.insn	2, 0x736d
    41000dee:	6174                	.insn	2, 0x6174
    41000df0:	7574                	.insn	2, 0x7574
    41000df2:	75735f73          	csrrwi	x30,0x757,6
    41000df6:	5f6d                	.insn	2, 0x5f6d
    41000df8:	786d                	.insn	2, 0x786d
    41000dfa:	0072                	.insn	2, 0x0072

0000000041000dfc <dtest_name_9>:
    41000dfc:	5f444953          	.insn	4, 0x5f444953
    41000e00:	4250                	.insn	2, 0x4250
    41000e02:	4d56                	.insn	2, 0x4d56
    41000e04:	31305f53          	.insn	4, 0x31305f53
    41000e08:	5f35                	.insn	2, 0x5f35
    41000e0a:	626f6c67          	.insn	4, 0x626f6c67
    41000e0e:	6c61                	.insn	2, 0x6c61
    41000e10:	625f 7469 685f      	.insn	6, 0x685f7469625f
    41000e16:	756f6e6f          	jal	x28,410f756c <__section__code_226+0x56c>
    41000e1a:	6572                	.insn	2, 0x6572
    41000e1c:	0064                	.insn	2, 0x0064

0000000041000e1e <dtest_name_10>:
    41000e1e:	5f444953          	.insn	4, 0x5f444953
    41000e22:	4250                	.insn	2, 0x4250
    41000e24:	4d56                	.insn	2, 0x4d56
    41000e26:	31305f53          	.insn	4, 0x31305f53
    41000e2a:	6c675f37          	lui	x30,0x6c675
    41000e2e:	6c61626f          	jal	x4,410174f4 <__section__code_2+0x4f4>
    41000e32:	615f 5f74 6f6e      	.insn	6, 0x6f6e5f74615f
    41000e38:	5f6e                	.insn	2, 0x5f6e
    41000e3a:	656c                	.insn	2, 0x656c
    41000e3c:	6661                	.insn	2, 0x6661
	...

0000000041000e3f <dtest_name_11>:
    41000e3f:	5f444953          	.insn	4, 0x5f444953
    41000e43:	4250                	.insn	2, 0x4250
    41000e45:	4d56                	.insn	2, 0x4d56
    41000e47:	31305f53          	.insn	4, 0x31305f53
    41000e4b:	5f38                	.insn	2, 0x5f38
    41000e4d:	7372                	.insn	2, 0x7372
    41000e4f:	69665f77          	.insn	4, 0x69665f77
    41000e53:	6c65                	.insn	2, 0x6c65
    41000e55:	7364                	.insn	2, 0x7364
    41000e57:	775f 6972 6174      	.insn	6, 0x61746972775f
    41000e5d:	6c62                	.insn	2, 0x6c62
    41000e5f:	0065                	.insn	2, 0x0065

0000000041000e61 <dtest_name_12>:
    41000e61:	5f444953          	.insn	4, 0x5f444953
    41000e65:	4250                	.insn	2, 0x4250
    41000e67:	4d56                	.insn	2, 0x4d56
    41000e69:	32305f53          	.insn	4, 0x32305f53
    41000e6d:	5f31                	.insn	2, 0x5f31
    41000e6f:	70746173          	csrrsi	x2,0x707,8
    41000e73:	765f 6c61 6469      	.insn	6, 0x64696c61765f
    41000e79:	745f 5f6f 6572      	.insn	6, 0x65725f6f745f
    41000e7f:	76726573          	csrrsi	x10,0x767,4
    41000e83:	6465                	.insn	2, 0x6465
	...

0000000041000e86 <dtest_name_13>:
    41000e86:	5f444953          	.insn	4, 0x5f444953
    41000e8a:	4250                	.insn	2, 0x4250
    41000e8c:	4d56                	.insn	2, 0x4d56
    41000e8e:	32305f53          	.insn	4, 0x32305f53
    41000e92:	5f32                	.insn	2, 0x5f32
    41000e94:	70746173          	csrrsi	x2,0x707,8
    41000e98:	635f 7273 615f      	.insn	6, 0x615f7273635f
    41000e9e:	73656363          	bltu	x10,x22,410015c4 <__section__runtime_1+0x5c4>
    41000ea2:	69626973          	csrrsi	x18,0x696,4
    41000ea6:	696c                	.insn	2, 0x696c
    41000ea8:	7974                	.insn	2, 0x7974
	...

0000000041000eab <dtest_name_14>:
    41000eab:	5f444953          	.insn	4, 0x5f444953
    41000eaf:	4250                	.insn	2, 0x4250
    41000eb1:	4d56                	.insn	2, 0x4d56
    41000eb3:	32305f53          	.insn	4, 0x32305f53
    41000eb7:	61735f33          	ror	x30,x6,x23
    41000ebb:	7074                	.insn	2, 0x7074
    41000ebd:	615f 6973 6c64      	.insn	6, 0x6c646973615f
    41000ec3:	6e65                	.insn	2, 0x6e65
    41000ec5:	645f 7369 6f63      	.insn	6, 0x6f637369645f
    41000ecb:	6576                	.insn	2, 0x6576
    41000ecd:	7972                	.insn	2, 0x7972
	...

0000000041000ed0 <dtest_name_15>:
    41000ed0:	5f444953          	.insn	4, 0x5f444953
    41000ed4:	4250                	.insn	2, 0x4250
    41000ed6:	4d56                	.insn	2, 0x4d56
    41000ed8:	32305f53          	.insn	4, 0x32305f53
    41000edc:	61735f37          	lui	x30,0x61735
    41000ee0:	7074                	.insn	2, 0x7074
    41000ee2:	755f 6573 5f72      	.insn	6, 0x5f726573755f
    41000ee8:	6f6d                	.insn	2, 0x6f6d
    41000eea:	6564                	.insn	2, 0x6564
    41000eec:	665f 7561 746c      	.insn	6, 0x746c7561665f
	...

0000000041000ef3 <dtest_name_16>:
    41000ef3:	5f444953          	.insn	4, 0x5f444953
    41000ef7:	4250                	.insn	2, 0x4250
    41000ef9:	4d56                	.insn	2, 0x4d56
    41000efb:	34305f53          	.insn	4, 0x34305f53
    41000eff:	5f30                	.insn	2, 0x5f30
    41000f01:	746e6f63          	bltu	x28,x6,4100165f <__section__runtime_1+0x65f>
    41000f05:	7865                	.insn	2, 0x7865
    41000f07:	5f74                	.insn	2, 0x5f74
    41000f09:	6174                	.insn	2, 0x6174
    41000f0b:	6c62                	.insn	2, 0x6c62
    41000f0d:	5f65                	.insn	2, 0x5f65
    41000f0f:	7265766f          	jal	x12,41058635 <__section__code_67+0x635>
    41000f13:	6c66                	.insn	2, 0x6c66
    41000f15:	          	jal	x14,41008445 <__section__runtime_8+0x445>

0000000041000f18 <dtest_name_17>:
    41000f18:	5f444953          	.insn	4, 0x5f444953
    41000f1c:	4250                	.insn	2, 0x4250
    41000f1e:	4d56                	.insn	2, 0x4d56
    41000f20:	34305f53          	.insn	4, 0x34305f53
    41000f24:	5f32                	.insn	2, 0x5f32
    41000f26:	6f6e6163          	bltu	x28,x22,41001608 <__section__runtime_1+0x608>
    41000f2a:	696e                	.insn	2, 0x696e
    41000f2c:	5f6c6163          	bltu	x24,x22,4100150e <__section__runtime_1+0x50e>
    41000f30:	6f62                	.insn	2, 0x6f62
    41000f32:	6e75                	.insn	2, 0x6e75
    41000f34:	6164                	.insn	2, 0x6164
    41000f36:	7972                	.insn	2, 0x7972
    41000f38:	635f 6f72 7373      	.insn	6, 0x73736f72635f
    41000f3e:	6e69                	.insn	2, 0x6e69
    41000f40:	61665f67          	.insn	4, 0x61665f67
    41000f44:	6c75                	.insn	2, 0x6c75
    41000f46:	0074                	.insn	2, 0x0074

0000000041000f48 <dtest_name_18>:
    41000f48:	5f444953          	.insn	4, 0x5f444953
    41000f4c:	4250                	.insn	2, 0x4250
    41000f4e:	4d56                	.insn	2, 0x4d56
    41000f50:	34305f53          	.insn	4, 0x34305f53
    41000f54:	65665f33          	.insn	4, 0x65665f33
    41000f58:	6374                	.insn	2, 0x6374
    41000f5a:	5f68                	.insn	2, 0x5f68
    41000f5c:	646e6977          	.insn	4, 0x646e6977
    41000f60:	735f776f          	jal	x14,410f8e94 <__section__code_227+0xe94>
    41000f64:	6970                	.insn	2, 0x6970
    41000f66:	6c6c                	.insn	2, 0x6c6c
    41000f68:	705f 6761 5f65      	.insn	6, 0x5f656761705f
    41000f6e:	736f7263          	bgeu	x30,x22,41001692 <__section__runtime_1+0x692>
    41000f72:	          	.insn	4, 0xffff0073

0000000041000f74 <dtest_index_map>:
    41000f74:	ffff                	.insn	2, 0xffff
    41000f76:	ffff                	.insn	2, 0xffff
    41000f78:	00000007          	vle8.v	v0,(x0),v0.t
    41000f7c:	0006                	.insn	2, 0x0006
    41000f7e:	0000                	.insn	2, 0x0000
    41000f80:	000e                	.insn	2, 0x000e
    41000f82:	0000                	.insn	2, 0x0000
    41000f84:	0008                	.insn	2, 0x0008
    41000f86:	0000                	.insn	2, 0x0000
    41000f88:	0012                	.insn	2, 0x0012
    41000f8a:	0000                	.insn	2, 0x0000
    41000f8c:	0005                	.insn	2, 0x0005
    41000f8e:	0000                	.insn	2, 0x0000
    41000f90:	0009                	.insn	2, 0x0009
    41000f92:	0000                	.insn	2, 0x0000
    41000f94:	0000                	.insn	2, 0x0000
    41000f96:	0000                	.insn	2, 0x0000
    41000f98:	00000003          	lb	x0,0(x0) # 0 <ALL_4KB_PAGES>
    41000f9c:	000c                	.insn	2, 0x000c
    41000f9e:	0000                	.insn	2, 0x0000
    41000fa0:	0004                	.insn	2, 0x0004
    41000fa2:	0000                	.insn	2, 0x0000
    41000fa4:	000a                	.insn	2, 0x000a
    41000fa6:	0000                	.insn	2, 0x0000
    41000fa8:	0000000f          	fence	unknown,unknown
    41000fac:	0010                	.insn	2, 0x0010
    41000fae:	0000                	.insn	2, 0x0000
    41000fb0:	000d                	.insn	2, 0x000d
    41000fb2:	0000                	.insn	2, 0x0000
    41000fb4:	0000000b          	.insn	4, 0x000b
    41000fb8:	0011                	.insn	2, 0x0011
    41000fba:	0000                	.insn	2, 0x0000
    41000fbc:	0002                	.insn	2, 0x0002
    41000fbe:	0000                	.insn	2, 0x0000
    41000fc0:	0001                	.insn	2, 0x0001
	...

0000000041000fc4 <scheduler__test_setup_ptr>:
    41000fc4:	5120                	.insn	2, 0x5120
    41000fc6:	4101                	.insn	2, 0x4101
    41000fc8:	0000                	.insn	2, 0x0000
	...

0000000041000fcc <scheduler__test_cleanup_ptr>:
    41000fcc:	6890                	.insn	2, 0x6890
    41000fce:	4101                	.insn	2, 0x4101
    41000fd0:	0000                	.insn	2, 0x0000
	...

Disassembly of section .runtime_s:

0000000041011000 <trap_handler_s__invalid_interrupt>:
    41011000:	1740006f          	j	41011174 <trap_handler_s__test_failed>

0000000041011004 <trap_handler_s__clear_all_interrupts>:
    41011004:	14401073          	csrw	sip,x0
    41011008:	10200073          	sret

000000004101100c <trap_handler_s___CLEAR_SSI>:
    4101100c:	00200293          	li	x5,2
    41011010:	1442b073          	csrc	sip,x5
    41011014:	10200073          	sret

0000000041011018 <trap_handler_s___CLEAR_MSI>:
    41011018:	00800293          	li	x5,8
    4101101c:	1442b073          	csrc	sip,x5
    41011020:	10200073          	sret

0000000041011024 <trap_handler_s___CLEAR_STI>:
    41011024:	02000293          	li	x5,32
    41011028:	1442b073          	csrc	sip,x5
    4101102c:	10200073          	sret

0000000041011030 <trap_handler_s___CLEAR_MTI>:
    41011030:	08000293          	li	x5,128
    41011034:	1442b073          	csrc	sip,x5
    41011038:	10200073          	sret

000000004101103c <trap_handler_s___CLEAR_SEI>:
    4101103c:	20000293          	li	x5,512
    41011040:	1442b073          	csrc	sip,x5
    41011044:	10200073          	sret

0000000041011048 <trap_handler_s___CLEAR_MEI>:
    41011048:	000012b7          	lui	x5,0x1
    4101104c:	8002829b          	addiw	x5,x5,-2048 # 800 <XLEN+0x7c0>
    41011050:	1442b073          	csrc	sip,x5
    41011054:	10200073          	sret

0000000041011058 <trap_handler_s___CLEAR_COI>:
    41011058:	000022b7          	lui	x5,0x2
    4101105c:	1442b073          	csrc	sip,x5
    41011060:	10200073          	sret

0000000041011064 <trap_handler_s__clear_highest_priority_interrupt>:
    41011064:	144022f3          	csrr	x5,sip
    41011068:	40500333          	neg	x6,x5
    4101106c:	0062f2b3          	and	x5,x5,x6
    41011070:	1442b073          	csrc	sip,x5
    41011074:	10200073          	sret

0000000041011078 <trap_handler_s__trap_entry>:
    41011078:	10c0006f          	j	41011184 <trap_handler_s__trap_handler>

000000004101107c <trap_handler_s__interrupt_vector_table>:
    4101107c:	f91ff06f          	j	4101100c <trap_handler_s___CLEAR_SSI>
    41011080:	f81ff06f          	j	41011000 <trap_handler_s__invalid_interrupt>
    41011084:	f95ff06f          	j	41011018 <trap_handler_s___CLEAR_MSI>
    41011088:	f79ff06f          	j	41011000 <trap_handler_s__invalid_interrupt>
    4101108c:	f99ff06f          	j	41011024 <trap_handler_s___CLEAR_STI>
    41011090:	f71ff06f          	j	41011000 <trap_handler_s__invalid_interrupt>
    41011094:	f9dff06f          	j	41011030 <trap_handler_s___CLEAR_MTI>
    41011098:	f69ff06f          	j	41011000 <trap_handler_s__invalid_interrupt>
    4101109c:	fa1ff06f          	j	4101103c <trap_handler_s___CLEAR_SEI>
    410110a0:	f61ff06f          	j	41011000 <trap_handler_s__invalid_interrupt>
    410110a4:	fa5ff06f          	j	41011048 <trap_handler_s___CLEAR_MEI>
    410110a8:	f59ff06f          	j	41011000 <trap_handler_s__invalid_interrupt>
    410110ac:	fadff06f          	j	41011058 <trap_handler_s___CLEAR_COI>
    410110b0:	f51ff06f          	j	41011000 <trap_handler_s__invalid_interrupt>
    410110b4:	f4dff06f          	j	41011000 <trap_handler_s__invalid_interrupt>
    410110b8:	fadff06f          	j	41011064 <trap_handler_s__clear_highest_priority_interrupt>
    410110bc:	fa9ff06f          	j	41011064 <trap_handler_s__clear_highest_priority_interrupt>
    410110c0:	fa5ff06f          	j	41011064 <trap_handler_s__clear_highest_priority_interrupt>
    410110c4:	fa1ff06f          	j	41011064 <trap_handler_s__clear_highest_priority_interrupt>
    410110c8:	f9dff06f          	j	41011064 <trap_handler_s__clear_highest_priority_interrupt>
    410110cc:	f99ff06f          	j	41011064 <trap_handler_s__clear_highest_priority_interrupt>
    410110d0:	f95ff06f          	j	41011064 <trap_handler_s__clear_highest_priority_interrupt>
    410110d4:	f91ff06f          	j	41011064 <trap_handler_s__clear_highest_priority_interrupt>
    410110d8:	f8dff06f          	j	41011064 <trap_handler_s__clear_highest_priority_interrupt>
    410110dc:	f89ff06f          	j	41011064 <trap_handler_s__clear_highest_priority_interrupt>
    410110e0:	f85ff06f          	j	41011064 <trap_handler_s__clear_highest_priority_interrupt>
    410110e4:	f81ff06f          	j	41011064 <trap_handler_s__clear_highest_priority_interrupt>
    410110e8:	f7dff06f          	j	41011064 <trap_handler_s__clear_highest_priority_interrupt>
    410110ec:	f79ff06f          	j	41011064 <trap_handler_s__clear_highest_priority_interrupt>
    410110f0:	f75ff06f          	j	41011064 <trap_handler_s__clear_highest_priority_interrupt>
    410110f4:	f71ff06f          	j	41011064 <trap_handler_s__clear_highest_priority_interrupt>
    410110f8:	f6dff06f          	j	41011064 <trap_handler_s__clear_highest_priority_interrupt>
    410110fc:	f69ff06f          	j	41011064 <trap_handler_s__clear_highest_priority_interrupt>
    41011100:	f65ff06f          	j	41011064 <trap_handler_s__clear_highest_priority_interrupt>
    41011104:	f61ff06f          	j	41011064 <trap_handler_s__clear_highest_priority_interrupt>
    41011108:	f5dff06f          	j	41011064 <trap_handler_s__clear_highest_priority_interrupt>
    4101110c:	f59ff06f          	j	41011064 <trap_handler_s__clear_highest_priority_interrupt>
    41011110:	f55ff06f          	j	41011064 <trap_handler_s__clear_highest_priority_interrupt>
    41011114:	f51ff06f          	j	41011064 <trap_handler_s__clear_highest_priority_interrupt>
    41011118:	f4dff06f          	j	41011064 <trap_handler_s__clear_highest_priority_interrupt>
    4101111c:	f49ff06f          	j	41011064 <trap_handler_s__clear_highest_priority_interrupt>
    41011120:	f45ff06f          	j	41011064 <trap_handler_s__clear_highest_priority_interrupt>
    41011124:	f41ff06f          	j	41011064 <trap_handler_s__clear_highest_priority_interrupt>
    41011128:	f3dff06f          	j	41011064 <trap_handler_s__clear_highest_priority_interrupt>
    4101112c:	f39ff06f          	j	41011064 <trap_handler_s__clear_highest_priority_interrupt>
    41011130:	f35ff06f          	j	41011064 <trap_handler_s__clear_highest_priority_interrupt>
    41011134:	f31ff06f          	j	41011064 <trap_handler_s__clear_highest_priority_interrupt>
    41011138:	f2dff06f          	j	41011064 <trap_handler_s__clear_highest_priority_interrupt>
    4101113c:	f29ff06f          	j	41011064 <trap_handler_s__clear_highest_priority_interrupt>
    41011140:	f25ff06f          	j	41011064 <trap_handler_s__clear_highest_priority_interrupt>
    41011144:	f21ff06f          	j	41011064 <trap_handler_s__clear_highest_priority_interrupt>
    41011148:	f1dff06f          	j	41011064 <trap_handler_s__clear_highest_priority_interrupt>
    4101114c:	f19ff06f          	j	41011064 <trap_handler_s__clear_highest_priority_interrupt>
    41011150:	f15ff06f          	j	41011064 <trap_handler_s__clear_highest_priority_interrupt>
    41011154:	f11ff06f          	j	41011064 <trap_handler_s__clear_highest_priority_interrupt>
    41011158:	f0dff06f          	j	41011064 <trap_handler_s__clear_highest_priority_interrupt>
    4101115c:	f09ff06f          	j	41011064 <trap_handler_s__clear_highest_priority_interrupt>
    41011160:	f05ff06f          	j	41011064 <trap_handler_s__clear_highest_priority_interrupt>
    41011164:	f01ff06f          	j	41011064 <trap_handler_s__clear_highest_priority_interrupt>
    41011168:	efdff06f          	j	41011064 <trap_handler_s__clear_highest_priority_interrupt>
    4101116c:	ef9ff06f          	j	41011064 <trap_handler_s__clear_highest_priority_interrupt>
    41011170:	ef5ff06f          	j	41011064 <trap_handler_s__clear_highest_priority_interrupt>

0000000041011174 <trap_handler_s__test_failed>:
    41011174:	00f00f9b          	addiw	x31,x0,15
    41011178:	01cf9f93          	slli	x31,x31,0x1c
    4101117c:	002f8f93          	addi	x31,x31,2
    41011180:	00000073          	ecall

0000000041011184 <trap_handler_s__trap_handler>:
    41011184:	142022f3          	csrr	x5,scause
    41011188:	fff0031b          	addiw	x6,x0,-1
    4101118c:	03f31313          	slli	x6,x6,0x3f
    41011190:	00537333          	and	x6,x6,x5
    41011194:	02030263          	beqz	x6,410111b8 <trap_handler_s__exception_path>

0000000041011198 <trap_handler_s__interrupt_handler>:
    41011198:	fff0031b          	addiw	x6,x0,-1
    4101119c:	03f31313          	slli	x6,x6,0x3f
    410111a0:	0062c2b3          	xor	x5,x5,x6
    410111a4:	00000317          	auipc	x6,0x0
    410111a8:	ed430313          	addi	x6,x6,-300 # 41011078 <trap_handler_s__trap_entry>
    410111ac:	00229293          	slli	x5,x5,0x2
    410111b0:	005302b3          	add	x5,x6,x5
    410111b4:	00028067          	jr	x5 # 2000 <data>

00000000410111b8 <trap_handler_s__exception_path>:
    410111b8:	14021273          	csrrw	x4,sscratch,x4
    410111bc:	00000297          	auipc	x5,0x0
    410111c0:	0cc28293          	addi	x5,x5,204 # 41011288 <trap_handler_s__trap_panic>
    410111c4:	10529073          	csrw	stvec,x5
    410111c8:	0040006f          	j	410111cc <trap_handler_s__excp_entry>

00000000410111cc <trap_handler_s__excp_entry>:
    410111cc:	14202373          	csrr	x6,scause
    410111d0:	00800293          	li	x5,8
    410111d4:	00534863          	blt	x6,x5,410111e4 <trap_handler_s__check_exception_label>
    410111d8:	00b00293          	li	x5,11
    410111dc:	0062c463          	blt	x5,x6,410111e4 <trap_handler_s__check_exception_label>
    410111e0:	0a80006f          	j	41011288 <trap_handler_s__trap_panic>

00000000410111e4 <trap_handler_s__check_exception_label>:
    410111e4:	04623c23          	sd	x6,88(x4) # 58 <XLEN+0x18>
    410111e8:	141022f3          	csrr	x5,sepc
    410111ec:	02523423          	sd	x5,40(x4) # 28 <SECURE_ACCESS_PROBABILITY+0xa>
    410111f0:	01820283          	lb	x5,24(x4) # 18 <STORE_GUEST_PAGE_FAULT+0x1>
    410111f4:	00029863          	bnez	x5,41011204 <trap_handler_s__check_excp>
    410111f8:	00128293          	addi	x5,x5,1
    410111fc:	00520c23          	sb	x5,24(x4) # 18 <STORE_GUEST_PAGE_FAULT+0x1>
    41011200:	05c0006f          	j	4101125c <trap_handler_s__ecall_from_machine>

0000000041011204 <trap_handler_s__check_excp>:
    41011204:	06823283          	ld	x5,104(x4) # 68 <XLEN+0x28>
    41011208:	06023423          	sd	x0,104(x4) # 68 <XLEN+0x28>
    4101120c:	00028663          	beqz	x5,41011218 <trap_handler_s__skip_mode_check>
    41011210:	00300393          	li	x7,3
    41011214:	f67290e3          	bne	x5,x7,41011174 <trap_handler_s__test_failed>

0000000041011218 <trap_handler_s__skip_mode_check>:
    41011218:	05023283          	ld	x5,80(x4) # 50 <XLEN+0x10>
    4101121c:	04023823          	sd	x0,80(x4) # 50 <XLEN+0x10>
    41011220:	f4531ae3          	bne	x6,x5,41011174 <trap_handler_s__test_failed>
    41011224:	03823283          	ld	x5,56(x4) # 38 <SECURE_ACCESS_PROBABILITY+0x1a>
    41011228:	02023c23          	sd	x0,56(x4) # 38 <SECURE_ACCESS_PROBABILITY+0x1a>
    4101122c:	02029663          	bnez	x5,41011258 <trap_handler_s__skip_nonzero_tval_check>
    41011230:	02023303          	ld	x6,32(x4) # 20 <SECURE_ACCESS_PROBABILITY+0x2>
    41011234:	02023023          	sd	x0,32(x4) # 20 <SECURE_ACCESS_PROBABILITY+0x2>
    41011238:	02823283          	ld	x5,40(x4) # 28 <SECURE_ACCESS_PROBABILITY+0xa>
    4101123c:	02023423          	sd	x0,40(x4) # 28 <SECURE_ACCESS_PROBABILITY+0xa>
    41011240:	f2531ae3          	bne	x6,x5,41011174 <trap_handler_s__test_failed>
    41011244:	04023283          	ld	x5,64(x4) # 40 <XLEN>
    41011248:	04023023          	sd	x0,64(x4) # 40 <XLEN>
    4101124c:	00028663          	beqz	x5,41011258 <trap_handler_s__skip_nonzero_tval_check>

0000000041011250 <trap_handler_s__nonzero_tval_check>:
    41011250:	14302373          	csrr	x6,stval
    41011254:	f25310e3          	bne	x6,x5,41011174 <trap_handler_s__test_failed>

0000000041011258 <trap_handler_s__skip_nonzero_tval_check>:
    41011258:	0040006f          	j	4101125c <trap_handler_s__ecall_from_machine>

000000004101125c <trap_handler_s__ecall_from_machine>:
    4101125c:	03023283          	ld	x5,48(x4) # 30 <SECURE_ACCESS_PROBABILITY+0x12>
    41011260:	02023823          	sd	x0,48(x4) # 30 <SECURE_ACCESS_PROBABILITY+0x12>
    41011264:	07023303          	ld	x6,112(x4) # 70 <XLEN+0x30>
    41011268:	06023823          	sd	x0,112(x4) # 70 <XLEN+0x30>
    4101126c:	00031463          	bnez	x6,41011274 <trap_handler_s__skip_xepc_write>
    41011270:	14129073          	csrw	sepc,x5

0000000041011274 <trap_handler_s__skip_xepc_write>:
    41011274:	00000317          	auipc	x6,0x0
    41011278:	e0430313          	addi	x6,x6,-508 # 41011078 <trap_handler_s__trap_entry>
    4101127c:	10531073          	csrw	stvec,x6
    41011280:	14021273          	csrrw	x4,sscratch,x4
    41011284:	10200073          	sret

0000000041011288 <trap_handler_s__trap_panic>:
    41011288:	00000193          	li	x3,0
    4101128c:	00f00f9b          	addiw	x31,x0,15
    41011290:	01cf9f93          	slli	x31,x31,0x1c
    41011294:	002f8f93          	addi	x31,x31,2
    41011298:	00000073          	ecall

Disassembly of section .code:

00000000410150f0 <passed>:
    410150f0:	00f00f9b          	addiw	x31,x0,15
    410150f4:	01cf9f93          	slli	x31,x31,0x1c
    410150f8:	001f8f93          	addi	x31,x31,1
    410150fc:	00000073          	ecall

0000000041015100 <failed>:
    41015100:	00f00f9b          	addiw	x31,x0,15
    41015104:	01cf9f93          	slli	x31,x31,0x1c
    41015108:	002f8f93          	addi	x31,x31,2
    4101510c:	00000073          	ecall

0000000041015110 <end_test>:
    41015110:	00f00f9b          	addiw	x31,x0,15
    41015114:	01cf9f93          	slli	x31,x31,0x1c
    41015118:	003f8f93          	addi	x31,x31,3
    4101511c:	00000073          	ecall

0000000041015120 <test_setup>:
    41015120:	00f00f9b          	addiw	x31,x0,15
    41015124:	01cf9f93          	slli	x31,x31,0x1c
    41015128:	001f8f93          	addi	x31,x31,1
    4101512c:	00000073          	ecall

0000000041015130 <SID_PBVMS_001_ptw_no_faults_all_access_types>:
    41015130:	0019f137          	lui	x2,0x19f
    41015134:	5a71011b          	addiw	x2,x2,1447 # 19f5a7 <mem0+0x435a7>
    41015138:	00c11113          	slli	x2,x2,0xc
    4101513c:	0df10113          	addi	x2,x2,223
    41015140:	00c11113          	slli	x2,x2,0xc
    41015144:	000012b7          	lui	x5,0x1
    41015148:	00510133          	add	x2,x2,x5
    4101514c:	ff017113          	andi	x2,x2,-16
    41015150:	0015cab7          	lui	x21,0x15c
    41015154:	000aae03          	lw	x28,0(x21) # 15c000 <mem0>
    41015158:	0015c6b7          	lui	x13,0x15c
    4101515c:	0005d8b7          	lui	x17,0x5d
    41015160:	e9d8889b          	addiw	x17,x17,-355 # 5ce9d <mem9__pt_level4+0x15b7d>
    41015164:	00d89893          	slli	x17,x17,0xd
    41015168:	ccd88893          	addi	x17,x17,-819
    4101516c:	d018fdd3          	fcvt.s.wu	f27,x17
    41015170:	01b6b027          	fsd	f27,0(x13) # 15c000 <mem0>
    41015174:	0015cab7          	lui	x21,0x15c
    41015178:	00000593          	li	x11,0
    4101517c:	00ba8f33          	add	x30,x21,x11
    41015180:	000f282f          	amoadd.w	x16,x0,(x30)
    41015184:	0000bf37          	lui	x30,0xb
    41015188:	000f00e7          	jalr	x30 # b000 <code_mem1>

000000004101518c <SID_PBVMS_001_ptw_no_faults_all_access_types_passed>:
    4101518c:	00f00f9b          	addiw	x31,x0,15
    41015190:	01cf9f93          	slli	x31,x31,0x1c
    41015194:	001f8f93          	addi	x31,x31,1
    41015198:	00000073          	ecall

000000004101519c <SID_PBVMS_003_ptw_all_privilege_modes>:
    4101519c:	0d8dc137          	lui	x2,0xd8dc
    410151a0:	000012b7          	lui	x5,0x1
    410151a4:	00510133          	add	x2,x2,x5
    410151a8:	ff017113          	andi	x2,x2,-16
    410151ac:	2f7d2fb7          	lui	x31,0x2f7d2
    410151b0:	000fbb87          	fld	f23,0(x31) # 2f7d2000 <mem2>
    410151b4:	2f7d2b37          	lui	x22,0x2f7d2
    410151b8:	4da4ec37          	lui	x24,0x4da4e
    410151bc:	aeec0c1b          	addiw	x24,x24,-1298 # 4da4daee <pma_region_2_end+0x8a0caee>
    410151c0:	018b1023          	sh	x24,0(x22) # 2f7d2000 <mem2>

00000000410151c4 <SID_PBVMS_003_ptw_all_privilege_modes_passed>:
    410151c4:	00f00f9b          	addiw	x31,x0,15
    410151c8:	01cf9f93          	slli	x31,x31,0x1c
    410151cc:	001f8f93          	addi	x31,x31,1
    410151d0:	00000073          	ecall

00000000410151d4 <SID_PBVMS_006_ptw_page_boundary_crossing>:
    410151d4:	00691137          	lui	x2,0x691
    410151d8:	61f1011b          	addiw	x2,x2,1567 # 69161f <mem10__pt_level3+0x39561f>
    410151dc:	00d11113          	slli	x2,x2,0xd
    410151e0:	000012b7          	lui	x5,0x1
    410151e4:	00510133          	add	x2,x2,x5
    410151e8:	ff017113          	andi	x2,x2,-16
    410151ec:	0d600637          	lui	x12,0xd600
    410151f0:	00001b37          	lui	x22,0x1
    410151f4:	ff8b0b1b          	addiw	x22,x22,-8 # ff8 <XLEN+0xfb8>
    410151f8:	01660c33          	add	x24,x12,x22
    410151fc:	000c3607          	fld	f12,0(x24)
    41015200:	0d600f37          	lui	x30,0xd600
    41015204:	00001e37          	lui	x28,0x1
    41015208:	ff8e0e1b          	addiw	x28,x28,-8 # ff8 <XLEN+0xfb8>
    4101520c:	01cf0433          	add	x8,x30,x28
    41015210:	0002f937          	lui	x18,0x2f
    41015214:	c799091b          	addiw	x18,x18,-903 # 2ec79 <SID_PBVMS_043_fetch_window_spill_page_cross_stack+0x6c79>
    41015218:	00e91913          	slli	x18,x18,0xe
    4101521c:	86f90913          	addi	x18,x18,-1937
    41015220:	01241023          	sh	x18,0(x8)
    41015224:	0d600e37          	lui	x28,0xd600
    41015228:	00001337          	lui	x6,0x1
    4101522c:	ff83031b          	addiw	x6,x6,-8 # ff8 <XLEN+0xfb8>
    41015230:	006e07b3          	add	x15,x28,x6
    41015234:	00001e37          	lui	x28,0x1
    41015238:	ff8e0e1b          	addiw	x28,x28,-8 # ff8 <XLEN+0xfb8>
    4101523c:	01c7b5af          	amoadd.d	x11,x28,(x15)
    41015240:	000a74b7          	lui	x9,0xa7
    41015244:	71d4849b          	addiw	x9,x9,1821 # a771d <mem22__pt_level2+0xb71d>
    41015248:	01149493          	slli	x9,x9,0x11
    4101524c:	6ed48493          	addi	x9,x9,1773
    41015250:	00d49493          	slli	x9,x9,0xd
    41015254:	000480e7          	jalr	x9

0000000041015258 <SID_PBVMS_006_ptw_page_boundary_crossing_passed>:
    41015258:	00f00f9b          	addiw	x31,x0,15
    4101525c:	01cf9f93          	slli	x31,x31,0x1c
    41015260:	001f8f93          	addi	x31,x31,1
    41015264:	00000073          	ecall

0000000041015268 <SID_PBVMS_008_va_sign_extension_fault>:
    41015268:	21843137          	lui	x2,0x21843
    4101526c:	9911011b          	addiw	x2,x2,-1647 # 21842991 <mem11__pt_level4+0x403e971>
    41015270:	00e11113          	slli	x2,x2,0xe
    41015274:	000012b7          	lui	x5,0x1
    41015278:	00510133          	add	x2,x2,x5
    4101527c:	ff017113          	andi	x2,x2,-16
    41015280:	03787237          	lui	x4,0x3787
    41015284:	d632021b          	addiw	x4,x4,-669 # 3786d63 <mem6__pt_level1+0xed2d63>
    41015288:	00c21213          	slli	x4,x4,0xc
    4101528c:	00d00e13          	li	x28,13
    41015290:	05c23823          	sd	x28,80(x4) # 50 <XLEN+0x10>
    41015294:	00000e17          	auipc	x28,0x0
    41015298:	058e0e13          	addi	x28,x28,88 # 410152ec <fault_label_0>
    4101529c:	03c23023          	sd	x28,32(x4) # 20 <SECURE_ACCESS_PROBABILITY+0x2>
    410152a0:	00000e13          	li	x28,0
    410152a4:	05c23023          	sd	x28,64(x4) # 40 <XLEN>
    410152a8:	00000e13          	li	x28,0
    410152ac:	05c23423          	sd	x28,72(x4) # 48 <XLEN+0x8>
    410152b0:	00000e17          	auipc	x28,0x0
    410152b4:	058e0e13          	addi	x28,x28,88 # 41015308 <SID_PBVMS_008_va_sign_extension_fault_passed>
    410152b8:	03c23823          	sd	x28,48(x4) # 30 <SECURE_ACCESS_PROBABILITY+0x12>
    410152bc:	00000e13          	li	x28,0
    410152c0:	03c23c23          	sd	x28,56(x4) # 38 <SECURE_ACCESS_PROBABILITY+0x1a>
    410152c4:	00000e13          	li	x28,0
    410152c8:	07c23023          	sd	x28,96(x4) # 60 <XLEN+0x20>
    410152cc:	00000e13          	li	x28,0
    410152d0:	07c23423          	sd	x28,104(x4) # 68 <XLEN+0x28>
    410152d4:	00000e13          	li	x28,0
    410152d8:	07c23823          	sd	x28,112(x4) # 70 <XLEN+0x30>
    410152dc:	36d9e737          	lui	x14,0x36d9e
    410152e0:	fff00c9b          	addiw	x25,x0,-1
    410152e4:	03fc9c93          	slli	x25,x25,0x3f
    410152e8:	019706b3          	add	x13,x14,x25

00000000410152ec <fault_label_0>:
    410152ec:	00068f03          	lb	x30,0(x13)
    410152f0:	03acf4b7          	lui	x9,0x3acf
    410152f4:	1fd4849b          	addiw	x9,x9,509 # 3acf1fd <mem6__pt_level1+0x121b1fd>
    410152f8:	00e49493          	slli	x9,x9,0xe
    410152fc:	00848493          	addi	x9,x9,8
    41015300:	0004bf03          	ld	x30,0(x9)
    41015304:	000f0067          	jr	x30 # d600000 <mem3>

0000000041015308 <SID_PBVMS_008_va_sign_extension_fault_passed>:
    41015308:	00f00f9b          	addiw	x31,x0,15
    4101530c:	01cf9f93          	slli	x31,x31,0x1c
    41015310:	001f8f93          	addi	x31,x31,1
    41015314:	00000073          	ecall

0000000041015318 <SID_PBVMS_009_superpage_alignment_fault>:
    41015318:	01ff9137          	lui	x2,0x1ff9
    4101531c:	6271011b          	addiw	x2,x2,1575 # 1ff9627 <mem10__pt_level4+0x162561f>
    41015320:	00d11113          	slli	x2,x2,0xd
    41015324:	a9710113          	addi	x2,x2,-1385
    41015328:	00c11113          	slli	x2,x2,0xc
    4101532c:	000012b7          	lui	x5,0x1
    41015330:	00510133          	add	x2,x2,x5
    41015334:	ff017113          	andi	x2,x2,-16
    41015338:	03acffb7          	lui	x31,0x3acf
    4101533c:	1fdf8f9b          	addiw	x31,x31,509 # 3acf1fd <mem6__pt_level1+0x121b1fd>
    41015340:	00ef9f93          	slli	x31,x31,0xe
    41015344:	0b0f8f93          	addi	x31,x31,176
    41015348:	00b0029b          	addiw	x5,x0,11
    4101534c:	03029293          	slli	x5,x5,0x30
    41015350:	005fb023          	sd	x5,0(x31)
    41015354:	00300293          	li	x5,3
    41015358:	005fb423          	sd	x5,8(x31)
    4101535c:	fff00293          	li	x5,-1
    41015360:	005fb823          	sd	x5,16(x31)
    41015364:	000f0fb7          	lui	x31,0xf0
    41015368:	001f8f9b          	addiw	x31,x31,1 # f0001 <mem22__pt_level2+0x54001>
    4101536c:	00cf9f93          	slli	x31,x31,0xc
    41015370:	007f8f93          	addi	x31,x31,7
    41015374:	00000073          	ecall
    41015378:	40000793          	li	x15,1024
    4101537c:	00f3e733          	or	x14,x7,x15
    41015380:	00070393          	mv	x7,x14
    41015384:	03acffb7          	lui	x31,0x3acf
    41015388:	1fdf8f9b          	addiw	x31,x31,509 # 3acf1fd <mem6__pt_level1+0x121b1fd>
    4101538c:	00ef9f93          	slli	x31,x31,0xe
    41015390:	0b0f8f93          	addi	x31,x31,176
    41015394:	00b0029b          	addiw	x5,x0,11
    41015398:	03029293          	slli	x5,x5,0x30
    4101539c:	005fb023          	sd	x5,0(x31)
    410153a0:	00300293          	li	x5,3
    410153a4:	005fb423          	sd	x5,8(x31)
    410153a8:	fff00293          	li	x5,-1
    410153ac:	005fb823          	sd	x5,16(x31)
    410153b0:	000f0fb7          	lui	x31,0xf0
    410153b4:	001f8f9b          	addiw	x31,x31,1 # f0001 <mem22__pt_level2+0x54001>
    410153b8:	00cf9f93          	slli	x31,x31,0xc
    410153bc:	008f8f93          	addi	x31,x31,8
    410153c0:	00000073          	ecall
    410153c4:	03787237          	lui	x4,0x3787
    410153c8:	d632021b          	addiw	x4,x4,-669 # 3786d63 <mem6__pt_level1+0xed2d63>
    410153cc:	00c21213          	slli	x4,x4,0xc
    410153d0:	00d00e13          	li	x28,13
    410153d4:	05c23823          	sd	x28,80(x4) # 50 <XLEN+0x10>
    410153d8:	00000e17          	auipc	x28,0x0
    410153dc:	050e0e13          	addi	x28,x28,80 # 41015428 <fault_label_1>
    410153e0:	03c23023          	sd	x28,32(x4) # 20 <SECURE_ACCESS_PROBABILITY+0x2>
    410153e4:	00000e13          	li	x28,0
    410153e8:	05c23023          	sd	x28,64(x4) # 40 <XLEN>
    410153ec:	00000e13          	li	x28,0
    410153f0:	05c23423          	sd	x28,72(x4) # 48 <XLEN+0x8>
    410153f4:	00000e17          	auipc	x28,0x0
    410153f8:	050e0e13          	addi	x28,x28,80 # 41015444 <excp_return_label_1>
    410153fc:	03c23823          	sd	x28,48(x4) # 30 <SECURE_ACCESS_PROBABILITY+0x12>
    41015400:	00000e13          	li	x28,0
    41015404:	03c23c23          	sd	x28,56(x4) # 38 <SECURE_ACCESS_PROBABILITY+0x1a>
    41015408:	00000e13          	li	x28,0
    4101540c:	07c23023          	sd	x28,96(x4) # 60 <XLEN+0x20>
    41015410:	00000e13          	li	x28,0
    41015414:	07c23423          	sd	x28,104(x4) # 68 <XLEN+0x28>
    41015418:	00000e13          	li	x28,0
    4101541c:	07c23823          	sd	x28,112(x4) # 70 <XLEN+0x30>
    41015420:	00b0069b          	addiw	x13,x0,11
    41015424:	03069693          	slli	x13,x13,0x30

0000000041015428 <fault_label_1>:
    41015428:	0006af87          	flw	f31,0(x13)
    4101542c:	03acf437          	lui	x8,0x3acf
    41015430:	1fd4041b          	addiw	x8,x8,509 # 3acf1fd <mem6__pt_level1+0x121b1fd>
    41015434:	00e41413          	slli	x8,x8,0xe
    41015438:	00840413          	addi	x8,x8,8
    4101543c:	00043c03          	ld	x24,0(x8)
    41015440:	000c0067          	jr	x24

0000000041015444 <excp_return_label_1>:
    41015444:	03787237          	lui	x4,0x3787
    41015448:	d632021b          	addiw	x4,x4,-669 # 3786d63 <mem6__pt_level1+0xed2d63>
    4101544c:	00c21213          	slli	x4,x4,0xc
    41015450:	00f00e13          	li	x28,15
    41015454:	05c23823          	sd	x28,80(x4) # 50 <XLEN+0x10>
    41015458:	00000e17          	auipc	x28,0x0
    4101545c:	060e0e13          	addi	x28,x28,96 # 410154b8 <fault_label_2>
    41015460:	03c23023          	sd	x28,32(x4) # 20 <SECURE_ACCESS_PROBABILITY+0x2>
    41015464:	00000e13          	li	x28,0
    41015468:	05c23023          	sd	x28,64(x4) # 40 <XLEN>
    4101546c:	00000e13          	li	x28,0
    41015470:	05c23423          	sd	x28,72(x4) # 48 <XLEN+0x8>
    41015474:	00000e17          	auipc	x28,0x0
    41015478:	060e0e13          	addi	x28,x28,96 # 410154d4 <excp_return_label_2>
    4101547c:	03c23823          	sd	x28,48(x4) # 30 <SECURE_ACCESS_PROBABILITY+0x12>
    41015480:	00000e13          	li	x28,0
    41015484:	03c23c23          	sd	x28,56(x4) # 38 <SECURE_ACCESS_PROBABILITY+0x1a>
    41015488:	00000e13          	li	x28,0
    4101548c:	07c23023          	sd	x28,96(x4) # 60 <XLEN+0x20>
    41015490:	00000e13          	li	x28,0
    41015494:	07c23423          	sd	x28,104(x4) # 68 <XLEN+0x28>
    41015498:	00000e13          	li	x28,0
    4101549c:	07c23823          	sd	x28,112(x4) # 70 <XLEN+0x30>
    410154a0:	00b0039b          	addiw	x7,x0,11
    410154a4:	03039393          	slli	x7,x7,0x30
    410154a8:	00003c37          	lui	x24,0x3
    410154ac:	6a7c0c1b          	addiw	x24,x24,1703 # 36a7 <__section_data_1+0x6a7>
    410154b0:	012c1c13          	slli	x24,x24,0x12
    410154b4:	25dc0c13          	addi	x24,x24,605

00000000410154b8 <fault_label_2>:
    410154b8:	0183b023          	sd	x24,0(x7)
    410154bc:	03acf4b7          	lui	x9,0x3acf
    410154c0:	1fd4849b          	addiw	x9,x9,509 # 3acf1fd <mem6__pt_level1+0x121b1fd>
    410154c4:	00e49493          	slli	x9,x9,0xe
    410154c8:	00848493          	addi	x9,x9,8
    410154cc:	0004b503          	ld	x10,0(x9)
    410154d0:	00050067          	jr	x10

00000000410154d4 <excp_return_label_2>:
    410154d4:	03787237          	lui	x4,0x3787
    410154d8:	d632021b          	addiw	x4,x4,-669 # 3786d63 <mem6__pt_level1+0xed2d63>
    410154dc:	00c21213          	slli	x4,x4,0xc
    410154e0:	00f00e13          	li	x28,15
    410154e4:	05c23823          	sd	x28,80(x4) # 50 <XLEN+0x10>
    410154e8:	00000e17          	auipc	x28,0x0
    410154ec:	058e0e13          	addi	x28,x28,88 # 41015540 <fault_label_3>
    410154f0:	03c23023          	sd	x28,32(x4) # 20 <SECURE_ACCESS_PROBABILITY+0x2>
    410154f4:	00000e13          	li	x28,0
    410154f8:	05c23023          	sd	x28,64(x4) # 40 <XLEN>
    410154fc:	00000e13          	li	x28,0
    41015500:	05c23423          	sd	x28,72(x4) # 48 <XLEN+0x8>
    41015504:	00000e17          	auipc	x28,0x0
    41015508:	058e0e13          	addi	x28,x28,88 # 4101555c <SID_PBVMS_009_superpage_alignment_fault_passed>
    4101550c:	03c23823          	sd	x28,48(x4) # 30 <SECURE_ACCESS_PROBABILITY+0x12>
    41015510:	00000e13          	li	x28,0
    41015514:	03c23c23          	sd	x28,56(x4) # 38 <SECURE_ACCESS_PROBABILITY+0x1a>
    41015518:	00000e13          	li	x28,0
    4101551c:	07c23023          	sd	x28,96(x4) # 60 <XLEN+0x20>
    41015520:	00000e13          	li	x28,0
    41015524:	07c23423          	sd	x28,104(x4) # 68 <XLEN+0x28>
    41015528:	00000e13          	li	x28,0
    4101552c:	07c23823          	sd	x28,112(x4) # 70 <XLEN+0x30>
    41015530:	00b00c9b          	addiw	x25,x0,11
    41015534:	030c9c93          	slli	x25,x25,0x30
    41015538:	00000d13          	li	x26,0
    4101553c:	01ac8933          	add	x18,x25,x26

0000000041015540 <fault_label_3>:
    41015540:	00092aaf          	amoadd.w	x21,x0,(x18)
    41015544:	03acf537          	lui	x10,0x3acf
    41015548:	1fd5051b          	addiw	x10,x10,509 # 3acf1fd <mem6__pt_level1+0x121b1fd>
    4101554c:	00e51513          	slli	x10,x10,0xe
    41015550:	00850513          	addi	x10,x10,8
    41015554:	00053303          	ld	x6,0(x10)
    41015558:	00030067          	jr	x6

000000004101555c <SID_PBVMS_009_superpage_alignment_fault_passed>:
    4101555c:	00f00f9b          	addiw	x31,x0,15
    41015560:	01cf9f93          	slli	x31,x31,0x1c
    41015564:	001f8f93          	addi	x31,x31,1
    41015568:	00000073          	ecall

000000004101556c <SID_PBVMS_011_ptw_fault_boundary_crossing>:
    4101556c:	10fd1137          	lui	x2,0x10fd1
    41015570:	b1f1011b          	addiw	x2,x2,-1249 # 10fd0b1f <mem10__pt_level1+0x995b1f>
    41015574:	00d11113          	slli	x2,x2,0xd
    41015578:	000012b7          	lui	x5,0x1
    4101557c:	00510133          	add	x2,x2,x5
    41015580:	ff017113          	andi	x2,x2,-16
    41015584:	1850039b          	addiw	x7,x0,389
    41015588:	01839393          	slli	x7,x7,0x18
    4101558c:	0003cf03          	lbu	x30,0(x7)
    41015590:	03787237          	lui	x4,0x3787
    41015594:	d632021b          	addiw	x4,x4,-669 # 3786d63 <mem6__pt_level1+0xed2d63>
    41015598:	00c21213          	slli	x4,x4,0xc
    4101559c:	00d00e13          	li	x28,13
    410155a0:	05c23823          	sd	x28,80(x4) # 50 <XLEN+0x10>
    410155a4:	00000e17          	auipc	x28,0x0
    410155a8:	060e0e13          	addi	x28,x28,96 # 41015604 <fault_label_4>
    410155ac:	03c23023          	sd	x28,32(x4) # 20 <SECURE_ACCESS_PROBABILITY+0x2>
    410155b0:	00000e13          	li	x28,0
    410155b4:	05c23023          	sd	x28,64(x4) # 40 <XLEN>
    410155b8:	00000e13          	li	x28,0
    410155bc:	05c23423          	sd	x28,72(x4) # 48 <XLEN+0x8>
    410155c0:	00000e17          	auipc	x28,0x0
    410155c4:	060e0e13          	addi	x28,x28,96 # 41015620 <excp_return_label_4>
    410155c8:	03c23823          	sd	x28,48(x4) # 30 <SECURE_ACCESS_PROBABILITY+0x12>
    410155cc:	00000e13          	li	x28,0
    410155d0:	03c23c23          	sd	x28,56(x4) # 38 <SECURE_ACCESS_PROBABILITY+0x1a>
    410155d4:	00000e13          	li	x28,0
    410155d8:	07c23023          	sd	x28,96(x4) # 60 <XLEN+0x20>
    410155dc:	00000e13          	li	x28,0
    410155e0:	07c23423          	sd	x28,104(x4) # 68 <XLEN+0x28>
    410155e4:	00000e13          	li	x28,0
    410155e8:	07c23823          	sd	x28,112(x4) # 70 <XLEN+0x30>
    410155ec:	0000b337          	lui	x6,0xb
    410155f0:	9973031b          	addiw	x6,x6,-1641 # a997 <mem25+0x2997>
    410155f4:	01531313          	slli	x6,x6,0x15
    410155f8:	000019b7          	lui	x19,0x1
    410155fc:	ffa9899b          	addiw	x19,x19,-6 # ffa <XLEN+0xfba>
    41015600:	01330833          	add	x16,x6,x19

0000000041015604 <fault_label_4>:
    41015604:	00083603          	ld	x12,0(x16)
    41015608:	03acf737          	lui	x14,0x3acf
    4101560c:	1fd7071b          	addiw	x14,x14,509 # 3acf1fd <mem6__pt_level1+0x121b1fd>
    41015610:	00e71713          	slli	x14,x14,0xe
    41015614:	00870713          	addi	x14,x14,8
    41015618:	00073803          	ld	x16,0(x14)
    4101561c:	00080067          	jr	x16

0000000041015620 <excp_return_label_4>:
    41015620:	03787237          	lui	x4,0x3787
    41015624:	d632021b          	addiw	x4,x4,-669 # 3786d63 <mem6__pt_level1+0xed2d63>
    41015628:	00c21213          	slli	x4,x4,0xc
    4101562c:	00f00e13          	li	x28,15
    41015630:	05c23823          	sd	x28,80(x4) # 50 <XLEN+0x10>
    41015634:	00000e17          	auipc	x28,0x0
    41015638:	068e0e13          	addi	x28,x28,104 # 4101569c <fault_label_5>
    4101563c:	03c23023          	sd	x28,32(x4) # 20 <SECURE_ACCESS_PROBABILITY+0x2>
    41015640:	00000e13          	li	x28,0
    41015644:	05c23023          	sd	x28,64(x4) # 40 <XLEN>
    41015648:	00000e13          	li	x28,0
    4101564c:	05c23423          	sd	x28,72(x4) # 48 <XLEN+0x8>
    41015650:	00000e17          	auipc	x28,0x0
    41015654:	068e0e13          	addi	x28,x28,104 # 410156b8 <SID_PBVMS_011_ptw_fault_boundary_crossing_passed>
    41015658:	03c23823          	sd	x28,48(x4) # 30 <SECURE_ACCESS_PROBABILITY+0x12>
    4101565c:	00000e13          	li	x28,0
    41015660:	03c23c23          	sd	x28,56(x4) # 38 <SECURE_ACCESS_PROBABILITY+0x1a>
    41015664:	00000e13          	li	x28,0
    41015668:	07c23023          	sd	x28,96(x4) # 60 <XLEN+0x20>
    4101566c:	00000e13          	li	x28,0
    41015670:	07c23423          	sd	x28,104(x4) # 68 <XLEN+0x28>
    41015674:	00000e13          	li	x28,0
    41015678:	07c23823          	sd	x28,112(x4) # 70 <XLEN+0x30>
    4101567c:	0000b7b7          	lui	x15,0xb
    41015680:	9977879b          	addiw	x15,x15,-1641 # a997 <mem25+0x2997>
    41015684:	01579793          	slli	x15,x15,0x15
    41015688:	00001eb7          	lui	x29,0x1
    4101568c:	ffae8e9b          	addiw	x29,x29,-6 # ffa <XLEN+0xfba>
    41015690:	01d78733          	add	x14,x15,x29
    41015694:	067d0437          	lui	x8,0x67d0
    41015698:	dce4041b          	addiw	x8,x8,-562 # 67cfdce <pma_region_2_size+0x27cfdce>

000000004101569c <fault_label_5>:
    4101569c:	00870023          	sb	x8,0(x14)
    410156a0:	03acfd37          	lui	x26,0x3acf
    410156a4:	1fdd0d1b          	addiw	x26,x26,509 # 3acf1fd <mem6__pt_level1+0x121b1fd>
    410156a8:	00ed1d13          	slli	x26,x26,0xe
    410156ac:	008d0d13          	addi	x26,x26,8
    410156b0:	000d3983          	ld	x19,0(x26)
    410156b4:	00098067          	jr	x19

00000000410156b8 <SID_PBVMS_011_ptw_fault_boundary_crossing_passed>:
    410156b8:	00f00f9b          	addiw	x31,x0,15
    410156bc:	01cf9f93          	slli	x31,x31,0x1c
    410156c0:	001f8f93          	addi	x31,x31,1
    410156c4:	00000073          	ecall

00000000410156c8 <SID_PBVMS_012_ptw_fault_prioritization>:
    410156c8:	000f2137          	lui	x2,0xf2
    410156cc:	000012b7          	lui	x5,0x1
    410156d0:	00510133          	add	x2,x2,x5
    410156d4:	ff017113          	andi	x2,x2,-16
    410156d8:	03787237          	lui	x4,0x3787
    410156dc:	d632021b          	addiw	x4,x4,-669 # 3786d63 <mem6__pt_level1+0xed2d63>
    410156e0:	00c21213          	slli	x4,x4,0xc
    410156e4:	00d00e13          	li	x28,13
    410156e8:	05c23823          	sd	x28,80(x4) # 50 <XLEN+0x10>
    410156ec:	00000e17          	auipc	x28,0x0
    410156f0:	050e0e13          	addi	x28,x28,80 # 4101573c <fault_label_6>
    410156f4:	03c23023          	sd	x28,32(x4) # 20 <SECURE_ACCESS_PROBABILITY+0x2>
    410156f8:	00000e13          	li	x28,0
    410156fc:	05c23023          	sd	x28,64(x4) # 40 <XLEN>
    41015700:	00000e13          	li	x28,0
    41015704:	05c23423          	sd	x28,72(x4) # 48 <XLEN+0x8>
    41015708:	00000e17          	auipc	x28,0x0
    4101570c:	050e0e13          	addi	x28,x28,80 # 41015758 <excp_return_label_6>
    41015710:	03c23823          	sd	x28,48(x4) # 30 <SECURE_ACCESS_PROBABILITY+0x12>
    41015714:	00000e13          	li	x28,0
    41015718:	03c23c23          	sd	x28,56(x4) # 38 <SECURE_ACCESS_PROBABILITY+0x1a>
    4101571c:	00000e13          	li	x28,0
    41015720:	07c23023          	sd	x28,96(x4) # 60 <XLEN+0x20>
    41015724:	00000e13          	li	x28,0
    41015728:	07c23423          	sd	x28,104(x4) # 68 <XLEN+0x28>
    4101572c:	00000e13          	li	x28,0
    41015730:	07c23823          	sd	x28,112(x4) # 70 <XLEN+0x30>
    41015734:	0190039b          	addiw	x7,x0,25
    41015738:	03239393          	slli	x7,x7,0x32

000000004101573c <fault_label_6>:
    4101573c:	00038303          	lb	x6,0(x7)
    41015740:	03acf9b7          	lui	x19,0x3acf
    41015744:	1fd9899b          	addiw	x19,x19,509 # 3acf1fd <mem6__pt_level1+0x121b1fd>
    41015748:	00e99993          	slli	x19,x19,0xe
    4101574c:	00898993          	addi	x19,x19,8
    41015750:	0009be03          	ld	x28,0(x19)
    41015754:	000e0067          	jr	x28

0000000041015758 <excp_return_label_6>:
    41015758:	03787237          	lui	x4,0x3787
    4101575c:	d632021b          	addiw	x4,x4,-669 # 3786d63 <mem6__pt_level1+0xed2d63>
    41015760:	00c21213          	slli	x4,x4,0xc
    41015764:	00d00e13          	li	x28,13
    41015768:	05c23823          	sd	x28,80(x4) # 50 <XLEN+0x10>
    4101576c:	00000e17          	auipc	x28,0x0
    41015770:	050e0e13          	addi	x28,x28,80 # 410157bc <fault_label_7>
    41015774:	03c23023          	sd	x28,32(x4) # 20 <SECURE_ACCESS_PROBABILITY+0x2>
    41015778:	00000e13          	li	x28,0
    4101577c:	05c23023          	sd	x28,64(x4) # 40 <XLEN>
    41015780:	00000e13          	li	x28,0
    41015784:	05c23423          	sd	x28,72(x4) # 48 <XLEN+0x8>
    41015788:	00000e17          	auipc	x28,0x0
    4101578c:	050e0e13          	addi	x28,x28,80 # 410157d8 <excp_return_label_7>
    41015790:	03c23823          	sd	x28,48(x4) # 30 <SECURE_ACCESS_PROBABILITY+0x12>
    41015794:	00000e13          	li	x28,0
    41015798:	03c23c23          	sd	x28,56(x4) # 38 <SECURE_ACCESS_PROBABILITY+0x1a>
    4101579c:	00000e13          	li	x28,0
    410157a0:	07c23023          	sd	x28,96(x4) # 60 <XLEN+0x20>
    410157a4:	00000e13          	li	x28,0
    410157a8:	07c23423          	sd	x28,104(x4) # 68 <XLEN+0x28>
    410157ac:	00000e13          	li	x28,0
    410157b0:	07c23823          	sd	x28,112(x4) # 70 <XLEN+0x30>
    410157b4:	00100f1b          	addiw	x30,x0,1
    410157b8:	030f1f13          	slli	x30,x30,0x30

00000000410157bc <fault_label_7>:
    410157bc:	000f1983          	lh	x19,0(x30)
    410157c0:	03acfe37          	lui	x28,0x3acf
    410157c4:	1fde0e1b          	addiw	x28,x28,509 # 3acf1fd <mem6__pt_level1+0x121b1fd>
    410157c8:	00ee1e13          	slli	x28,x28,0xe
    410157cc:	008e0e13          	addi	x28,x28,8
    410157d0:	000e3583          	ld	x11,0(x28)
    410157d4:	00058067          	jr	x11

00000000410157d8 <excp_return_label_7>:
    410157d8:	03787237          	lui	x4,0x3787
    410157dc:	d632021b          	addiw	x4,x4,-669 # 3786d63 <mem6__pt_level1+0xed2d63>
    410157e0:	00c21213          	slli	x4,x4,0xc
    410157e4:	00d00e13          	li	x28,13
    410157e8:	05c23823          	sd	x28,80(x4) # 50 <XLEN+0x10>
    410157ec:	00000e17          	auipc	x28,0x0
    410157f0:	050e0e13          	addi	x28,x28,80 # 4101583c <fault_label_8>
    410157f4:	03c23023          	sd	x28,32(x4) # 20 <SECURE_ACCESS_PROBABILITY+0x2>
    410157f8:	00000e13          	li	x28,0
    410157fc:	05c23023          	sd	x28,64(x4) # 40 <XLEN>
    41015800:	00000e13          	li	x28,0
    41015804:	05c23423          	sd	x28,72(x4) # 48 <XLEN+0x8>
    41015808:	00000e17          	auipc	x28,0x0
    4101580c:	050e0e13          	addi	x28,x28,80 # 41015858 <SID_PBVMS_012_ptw_fault_prioritization_passed>
    41015810:	03c23823          	sd	x28,48(x4) # 30 <SECURE_ACCESS_PROBABILITY+0x12>
    41015814:	00000e13          	li	x28,0
    41015818:	03c23c23          	sd	x28,56(x4) # 38 <SECURE_ACCESS_PROBABILITY+0x1a>
    4101581c:	00000e13          	li	x28,0
    41015820:	07c23023          	sd	x28,96(x4) # 60 <XLEN+0x20>
    41015824:	00000e13          	li	x28,0
    41015828:	07c23423          	sd	x28,104(x4) # 68 <XLEN+0x28>
    4101582c:	00000e13          	li	x28,0
    41015830:	07c23823          	sd	x28,112(x4) # 70 <XLEN+0x30>
    41015834:	0010091b          	addiw	x18,x0,1
    41015838:	03291913          	slli	x18,x18,0x32

000000004101583c <fault_label_8>:
    4101583c:	00093a83          	ld	x21,0(x18)
    41015840:	03acfdb7          	lui	x27,0x3acf
    41015844:	1fdd8d9b          	addiw	x27,x27,509 # 3acf1fd <mem6__pt_level1+0x121b1fd>
    41015848:	00ed9d93          	slli	x27,x27,0xe
    4101584c:	008d8d93          	addi	x27,x27,8
    41015850:	000db403          	ld	x8,0(x27)
    41015854:	00040067          	jr	x8

0000000041015858 <SID_PBVMS_012_ptw_fault_prioritization_passed>:
    41015858:	00f00f9b          	addiw	x31,x0,15
    4101585c:	01cf9f93          	slli	x31,x31,0x1c
    41015860:	001f8f93          	addi	x31,x31,1
    41015864:	00000073          	ecall

0000000041015868 <SID_PBVMS_013_ptw_permission_encodings>:
    41015868:	0f9a7137          	lui	x2,0xf9a7
    4101586c:	a831011b          	addiw	x2,x2,-1405 # f9a6a83 <SID_PBVMS_003_ptw_all_privilege_modes_stack+0x20caa83>
    41015870:	00c11113          	slli	x2,x2,0xc
    41015874:	000012b7          	lui	x5,0x1
    41015878:	00510133          	add	x2,x2,x5
    4101587c:	ff017113          	andi	x2,x2,-16
    41015880:	fffdeab7          	lui	x21,0xfffde
    41015884:	8eba8a9b          	addiw	x21,x21,-1813 # fffffffffffdd8eb <mem21+0x1bfffffffdd8eb>
    41015888:	00ea9a93          	slli	x21,x21,0xe
    4101588c:	deba8a93          	addi	x21,x21,-533
    41015890:	00ca9a93          	slli	x21,x21,0xc
    41015894:	ca7a8a93          	addi	x21,x21,-857
    41015898:	00ca9a93          	slli	x21,x21,0xc
    4101589c:	000ad683          	lhu	x13,0(x21)
    410158a0:	4cf1a437          	lui	x8,0x4cf1a
    410158a4:	e914041b          	addiw	x8,x8,-367 # 4cf19e91 <pma_region_2_end+0x7ed8e91>
    410158a8:	00d41413          	slli	x8,x8,0xd
    410158ac:	00043b07          	fld	f22,0(x8)
    410158b0:	4cf1af37          	lui	x30,0x4cf1a
    410158b4:	e91f0f1b          	addiw	x30,x30,-367 # 4cf19e91 <pma_region_2_end+0x7ed8e91>
    410158b8:	00df1f13          	slli	x30,x30,0xd
    410158bc:	00037937          	lui	x18,0x37
    410158c0:	3259091b          	addiw	x18,x18,805 # 37325 <SID_PBVMS_043_fetch_window_spill_page_cross_stack+0xf325>
    410158c4:	00e91913          	slli	x18,x18,0xe
    410158c8:	f1190913          	addi	x18,x18,-239
    410158cc:	d2090e53          	fcvt.d.w	f28,x18
    410158d0:	01cf3027          	fsd	f28,0(x30)
    410158d4:	04e35537          	lui	x10,0x4e35
    410158d8:	47d5051b          	addiw	x10,x10,1149 # 4e3547d <pma_region_2_size+0xe3547d>
    410158dc:	00f51513          	slli	x10,x10,0xf
    410158e0:	00050303          	lb	x6,0(x10)
    410158e4:	02640d37          	lui	x26,0x2640
    410158e8:	2efd0d1b          	addiw	x26,x26,751 # 26402ef <mem10__pt_level4+0x1c6c2e7>
    410158ec:	00dd1d13          	slli	x26,x26,0xd
    410158f0:	000d00e7          	jalr	x26
    410158f4:	03fb9d37          	lui	x26,0x3fb9
    410158f8:	453d0d1b          	addiw	x26,x26,1107 # 3fb9453 <SID_PBVMS_023_satp_asidlen_discovery_stack+0xbf453>
    410158fc:	00cd1d13          	slli	x26,x26,0xc
    41015900:	effd0d13          	addi	x26,x26,-257
    41015904:	00cd1d13          	slli	x26,x26,0xc
    41015908:	000d5703          	lhu	x14,0(x26)
    4101590c:	03fb9fb7          	lui	x31,0x3fb9
    41015910:	453f8f9b          	addiw	x31,x31,1107 # 3fb9453 <SID_PBVMS_023_satp_asidlen_discovery_stack+0xbf453>
    41015914:	00cf9f93          	slli	x31,x31,0xc
    41015918:	efff8f93          	addi	x31,x31,-257
    4101591c:	00cf9f93          	slli	x31,x31,0xc
    41015920:	00050437          	lui	x8,0x50
    41015924:	9074041b          	addiw	x8,x8,-1785 # 4f907 <mem9__pt_level4+0x85e7>
    41015928:	00d41413          	slli	x8,x8,0xd
    4101592c:	bb340413          	addi	x8,x8,-1101
    41015930:	008fa023          	sw	x8,0(x31)

0000000041015934 <SID_PBVMS_013_ptw_permission_encodings_passed>:
    41015934:	00f00f9b          	addiw	x31,x0,15
    41015938:	01cf9f93          	slli	x31,x31,0x1c
    4101593c:	001f8f93          	addi	x31,x31,1
    41015940:	00000073          	ecall

0000000041015944 <SID_PBVMS_014_mstatus_sum_mxr>:
    41015944:	0ec96137          	lui	x2,0xec96
    41015948:	cf71011b          	addiw	x2,x2,-777 # ec95cf7 <SID_PBVMS_003_ptw_all_privilege_modes_stack+0x13b9cf7>
    4101594c:	00d11113          	slli	x2,x2,0xd
    41015950:	03acffb7          	lui	x31,0x3acf
    41015954:	1fdf8f9b          	addiw	x31,x31,509 # 3acf1fd <mem6__pt_level1+0x121b1fd>
    41015958:	00ef9f93          	slli	x31,x31,0xe
    4101595c:	0a0f8f93          	addi	x31,x31,160
    41015960:	00100f13          	li	x30,1
    41015964:	01efb023          	sd	x30,0(x31)
    41015968:	000f0fb7          	lui	x31,0xf0
    4101596c:	001f8f9b          	addiw	x31,x31,1 # f0001 <mem22__pt_level2+0x54001>
    41015970:	00cf9f93          	slli	x31,x31,0xc
    41015974:	005f8f93          	addi	x31,x31,5
    41015978:	00000073          	ecall
    4101597c:	00713023          	sd	x7,0(x2)
    41015980:	037ee137          	lui	x2,0x37ee
    41015984:	9ff1011b          	addiw	x2,x2,-1537 # 37ed9ff <mem6__pt_level1+0xf399ff>
    41015988:	00c11113          	slli	x2,x2,0xc
    4101598c:	000012b7          	lui	x5,0x1
    41015990:	00510133          	add	x2,x2,x5
    41015994:	ff017113          	andi	x2,x2,-16
    41015998:	000803b7          	lui	x7,0x80
    4101599c:	03acffb7          	lui	x31,0x3acf
    410159a0:	1fdf8f9b          	addiw	x31,x31,509 # 3acf1fd <mem6__pt_level1+0x121b1fd>
    410159a4:	00ef9f93          	slli	x31,x31,0xe
    410159a8:	0a0f8f93          	addi	x31,x31,160
    410159ac:	00200f13          	li	x30,2
    410159b0:	01efb023          	sd	x30,0(x31)
    410159b4:	000f0fb7          	lui	x31,0xf0
    410159b8:	001f8f9b          	addiw	x31,x31,1 # f0001 <mem22__pt_level2+0x54001>
    410159bc:	00cf9f93          	slli	x31,x31,0xc
    410159c0:	005f8f93          	addi	x31,x31,5
    410159c4:	00000073          	ecall
    410159c8:	003a25b7          	lui	x11,0x3a2
    410159cc:	b0f5859b          	addiw	x11,x11,-1265 # 3a1b0f <mem10__pt_level3+0xa5b0f>
    410159d0:	00c59593          	slli	x11,x11,0xc
    410159d4:	0005e903          	lwu	x18,0(x11)
    410159d8:	000803b7          	lui	x7,0x80
    410159dc:	03acffb7          	lui	x31,0x3acf
    410159e0:	1fdf8f9b          	addiw	x31,x31,509 # 3acf1fd <mem6__pt_level1+0x121b1fd>
    410159e4:	00ef9f93          	slli	x31,x31,0xe
    410159e8:	0a0f8f93          	addi	x31,x31,160
    410159ec:	00300f13          	li	x30,3
    410159f0:	01efb023          	sd	x30,0(x31)
    410159f4:	000f0fb7          	lui	x31,0xf0
    410159f8:	001f8f9b          	addiw	x31,x31,1 # f0001 <mem22__pt_level2+0x54001>
    410159fc:	00cf9f93          	slli	x31,x31,0xc
    41015a00:	005f8f93          	addi	x31,x31,5
    41015a04:	00000073          	ecall
    41015a08:	03787237          	lui	x4,0x3787
    41015a0c:	d632021b          	addiw	x4,x4,-669 # 3786d63 <mem6__pt_level1+0xed2d63>
    41015a10:	00c21213          	slli	x4,x4,0xc
    41015a14:	00d00e13          	li	x28,13
    41015a18:	05c23823          	sd	x28,80(x4) # 50 <XLEN+0x10>
    41015a1c:	00000e17          	auipc	x28,0x0
    41015a20:	054e0e13          	addi	x28,x28,84 # 41015a70 <fault_label_9>
    41015a24:	03c23023          	sd	x28,32(x4) # 20 <SECURE_ACCESS_PROBABILITY+0x2>
    41015a28:	00000e13          	li	x28,0
    41015a2c:	05c23023          	sd	x28,64(x4) # 40 <XLEN>
    41015a30:	00000e13          	li	x28,0
    41015a34:	05c23423          	sd	x28,72(x4) # 48 <XLEN+0x8>
    41015a38:	00000e17          	auipc	x28,0x0
    41015a3c:	054e0e13          	addi	x28,x28,84 # 41015a8c <excp_return_label_9>
    41015a40:	03c23823          	sd	x28,48(x4) # 30 <SECURE_ACCESS_PROBABILITY+0x12>
    41015a44:	00000e13          	li	x28,0
    41015a48:	03c23c23          	sd	x28,56(x4) # 38 <SECURE_ACCESS_PROBABILITY+0x1a>
    41015a4c:	00000e13          	li	x28,0
    41015a50:	07c23023          	sd	x28,96(x4) # 60 <XLEN+0x20>
    41015a54:	00000e13          	li	x28,0
    41015a58:	07c23423          	sd	x28,104(x4) # 68 <XLEN+0x28>
    41015a5c:	00000e13          	li	x28,0
    41015a60:	07c23823          	sd	x28,112(x4) # 70 <XLEN+0x30>
    41015a64:	003a2837          	lui	x16,0x3a2
    41015a68:	b0f8081b          	addiw	x16,x16,-1265 # 3a1b0f <mem10__pt_level3+0xa5b0f>
    41015a6c:	00c81813          	slli	x16,x16,0xc

0000000041015a70 <fault_label_9>:
    41015a70:	00083487          	fld	f9,0(x16)
    41015a74:	03acfeb7          	lui	x29,0x3acf
    41015a78:	1fde8e9b          	addiw	x29,x29,509 # 3acf1fd <mem6__pt_level1+0x121b1fd>
    41015a7c:	00ee9e93          	slli	x29,x29,0xe
    41015a80:	008e8e93          	addi	x29,x29,8
    41015a84:	000ebb83          	ld	x23,0(x29)
    41015a88:	000b8067          	jr	x23

0000000041015a8c <excp_return_label_9>:
    41015a8c:	000403b7          	lui	x7,0x40
    41015a90:	03acffb7          	lui	x31,0x3acf
    41015a94:	1fdf8f9b          	addiw	x31,x31,509 # 3acf1fd <mem6__pt_level1+0x121b1fd>
    41015a98:	00ef9f93          	slli	x31,x31,0xe
    41015a9c:	0a0f8f93          	addi	x31,x31,160
    41015aa0:	00200f13          	li	x30,2
    41015aa4:	01efb023          	sd	x30,0(x31)
    41015aa8:	000f0fb7          	lui	x31,0xf0
    41015aac:	001f8f9b          	addiw	x31,x31,1 # f0001 <mem22__pt_level2+0x54001>
    41015ab0:	00cf9f93          	slli	x31,x31,0xc
    41015ab4:	005f8f93          	addi	x31,x31,5
    41015ab8:	00000073          	ecall
    41015abc:	096eb5b7          	lui	x11,0x96eb
    41015ac0:	01f5859b          	addiw	x11,x11,31 # 96eb01f <mem22__pt_level0+0xe4701f>
    41015ac4:	00e59593          	slli	x11,x11,0xe
    41015ac8:	0005a087          	flw	f1,0(x11)
    41015acc:	000403b7          	lui	x7,0x40
    41015ad0:	03acffb7          	lui	x31,0x3acf
    41015ad4:	1fdf8f9b          	addiw	x31,x31,509 # 3acf1fd <mem6__pt_level1+0x121b1fd>
    41015ad8:	00ef9f93          	slli	x31,x31,0xe
    41015adc:	0a0f8f93          	addi	x31,x31,160
    41015ae0:	00300f13          	li	x30,3
    41015ae4:	01efb023          	sd	x30,0(x31)
    41015ae8:	000f0fb7          	lui	x31,0xf0
    41015aec:	001f8f9b          	addiw	x31,x31,1 # f0001 <mem22__pt_level2+0x54001>
    41015af0:	00cf9f93          	slli	x31,x31,0xc
    41015af4:	005f8f93          	addi	x31,x31,5
    41015af8:	00000073          	ecall
    41015afc:	03787237          	lui	x4,0x3787
    41015b00:	d632021b          	addiw	x4,x4,-669 # 3786d63 <mem6__pt_level1+0xed2d63>
    41015b04:	00c21213          	slli	x4,x4,0xc
    41015b08:	00d00e13          	li	x28,13
    41015b0c:	05c23823          	sd	x28,80(x4) # 50 <XLEN+0x10>
    41015b10:	00000e17          	auipc	x28,0x0
    41015b14:	054e0e13          	addi	x28,x28,84 # 41015b64 <fault_label_10>
    41015b18:	03c23023          	sd	x28,32(x4) # 20 <SECURE_ACCESS_PROBABILITY+0x2>
    41015b1c:	00000e13          	li	x28,0
    41015b20:	05c23023          	sd	x28,64(x4) # 40 <XLEN>
    41015b24:	00000e13          	li	x28,0
    41015b28:	05c23423          	sd	x28,72(x4) # 48 <XLEN+0x8>
    41015b2c:	00000e17          	auipc	x28,0x0
    41015b30:	054e0e13          	addi	x28,x28,84 # 41015b80 <excp_return_label_10>
    41015b34:	03c23823          	sd	x28,48(x4) # 30 <SECURE_ACCESS_PROBABILITY+0x12>
    41015b38:	00000e13          	li	x28,0
    41015b3c:	03c23c23          	sd	x28,56(x4) # 38 <SECURE_ACCESS_PROBABILITY+0x1a>
    41015b40:	00000e13          	li	x28,0
    41015b44:	07c23023          	sd	x28,96(x4) # 60 <XLEN+0x20>
    41015b48:	00000e13          	li	x28,0
    41015b4c:	07c23423          	sd	x28,104(x4) # 68 <XLEN+0x28>
    41015b50:	00000e13          	li	x28,0
    41015b54:	07c23823          	sd	x28,112(x4) # 70 <XLEN+0x30>
    41015b58:	096ebeb7          	lui	x29,0x96eb
    41015b5c:	01fe8e9b          	addiw	x29,x29,31 # 96eb01f <mem22__pt_level0+0xe4701f>
    41015b60:	00ee9e93          	slli	x29,x29,0xe

0000000041015b64 <fault_label_10>:
    41015b64:	000eae03          	lw	x28,0(x29)
    41015b68:	03acf637          	lui	x12,0x3acf
    41015b6c:	1fd6061b          	addiw	x12,x12,509 # 3acf1fd <mem6__pt_level1+0x121b1fd>
    41015b70:	00e61613          	slli	x12,x12,0xe
    41015b74:	00860613          	addi	x12,x12,8
    41015b78:	00063583          	ld	x11,0(x12)
    41015b7c:	00058067          	jr	x11

0000000041015b80 <excp_return_label_10>:
    41015b80:	0ec96137          	lui	x2,0xec96
    41015b84:	cf71011b          	addiw	x2,x2,-777 # ec95cf7 <SID_PBVMS_003_ptw_all_privilege_modes_stack+0x13b9cf7>
    41015b88:	00d11113          	slli	x2,x2,0xd
    41015b8c:	00013383          	ld	x7,0(x2)
    41015b90:	03acffb7          	lui	x31,0x3acf
    41015b94:	1fdf8f9b          	addiw	x31,x31,509 # 3acf1fd <mem6__pt_level1+0x121b1fd>
    41015b98:	00ef9f93          	slli	x31,x31,0xe
    41015b9c:	0a0f8f93          	addi	x31,x31,160
    41015ba0:	00600f13          	li	x30,6
    41015ba4:	01efb023          	sd	x30,0(x31)
    41015ba8:	000f0fb7          	lui	x31,0xf0
    41015bac:	001f8f9b          	addiw	x31,x31,1 # f0001 <mem22__pt_level2+0x54001>
    41015bb0:	00cf9f93          	slli	x31,x31,0xc
    41015bb4:	005f8f93          	addi	x31,x31,5
    41015bb8:	00000073          	ecall

0000000041015bbc <SID_PBVMS_014_mstatus_sum_mxr_passed>:
    41015bbc:	00f00f9b          	addiw	x31,x0,15
    41015bc0:	01cf9f93          	slli	x31,x31,0x1c
    41015bc4:	001f8f93          	addi	x31,x31,1
    41015bc8:	00000073          	ecall

0000000041015bcc <SID_PBVMS_015_global_bit_honoured>:
    41015bcc:	0ec96137          	lui	x2,0xec96
    41015bd0:	cf71011b          	addiw	x2,x2,-777 # ec95cf7 <SID_PBVMS_003_ptw_all_privilege_modes_stack+0x13b9cf7>
    41015bd4:	00d11113          	slli	x2,x2,0xd
    41015bd8:	03acffb7          	lui	x31,0x3acf
    41015bdc:	1fdf8f9b          	addiw	x31,x31,509 # 3acf1fd <mem6__pt_level1+0x121b1fd>
    41015be0:	00ef9f93          	slli	x31,x31,0xe
    41015be4:	0a0f8f93          	addi	x31,x31,160
    41015be8:	00700f13          	li	x30,7
    41015bec:	01efb023          	sd	x30,0(x31)
    41015bf0:	000f0fb7          	lui	x31,0xf0
    41015bf4:	001f8f9b          	addiw	x31,x31,1 # f0001 <mem22__pt_level2+0x54001>
    41015bf8:	00cf9f93          	slli	x31,x31,0xc
    41015bfc:	005f8f93          	addi	x31,x31,5
    41015c00:	00000073          	ecall
    41015c04:	00713023          	sd	x7,0(x2)
    41015c08:	00175137          	lui	x2,0x175
    41015c0c:	8ad1011b          	addiw	x2,x2,-1875 # 1748ad <mem0+0x188ad>
    41015c10:	00c11113          	slli	x2,x2,0xc
    41015c14:	000012b7          	lui	x5,0x1
    41015c18:	00510133          	add	x2,x2,x5
    41015c1c:	ff017113          	andi	x2,x2,-16
    41015c20:	03acffb7          	lui	x31,0x3acf
    41015c24:	1fdf8f9b          	addiw	x31,x31,509 # 3acf1fd <mem6__pt_level1+0x121b1fd>
    41015c28:	00ef9f93          	slli	x31,x31,0xe
    41015c2c:	0a8f8f93          	addi	x31,x31,168
    41015c30:	00800f13          	li	x30,8
    41015c34:	01efb023          	sd	x30,0(x31)
    41015c38:	000f0fb7          	lui	x31,0xf0
    41015c3c:	001f8f9b          	addiw	x31,x31,1 # f0001 <mem22__pt_level2+0x54001>
    41015c40:	00cf9f93          	slli	x31,x31,0xc
    41015c44:	006f8f93          	addi	x31,x31,6
    41015c48:	00000073          	ecall
    41015c4c:	00038613          	mv	x12,x7
    41015c50:	00060713          	mv	x14,x12
    41015c54:	00f0039b          	addiw	x7,x0,15
    41015c58:	02c39393          	slli	x7,x7,0x2c
    41015c5c:	03acffb7          	lui	x31,0x3acf
    41015c60:	1fdf8f9b          	addiw	x31,x31,509 # 3acf1fd <mem6__pt_level1+0x121b1fd>
    41015c64:	00ef9f93          	slli	x31,x31,0xe
    41015c68:	0a8f8f93          	addi	x31,x31,168
    41015c6c:	00900f13          	li	x30,9
    41015c70:	01efb023          	sd	x30,0(x31)
    41015c74:	000f0fb7          	lui	x31,0xf0
    41015c78:	001f8f9b          	addiw	x31,x31,1 # f0001 <mem22__pt_level2+0x54001>
    41015c7c:	00cf9f93          	slli	x31,x31,0xc
    41015c80:	006f8f93          	addi	x31,x31,6
    41015c84:	00000073          	ecall
    41015c88:	0027a537          	lui	x10,0x27a
    41015c8c:	40d5051b          	addiw	x10,x10,1037 # 27a40d <mem0+0x11e40d>
    41015c90:	00d51513          	slli	x10,x10,0xd
    41015c94:	e0f50513          	addi	x10,x10,-497
    41015c98:	00f51513          	slli	x10,x10,0xf
    41015c9c:	21b73c37          	lui	x24,0x21b73
    41015ca0:	7a2c0c1b          	addiw	x24,x24,1954 # 21b737a2 <mem11__pt_level4+0x436f782>
    41015ca4:	01850023          	sb	x24,0(x10)
    41015ca8:	00f0039b          	addiw	x7,x0,15
    41015cac:	02c39393          	slli	x7,x7,0x2c
    41015cb0:	03acffb7          	lui	x31,0x3acf
    41015cb4:	1fdf8f9b          	addiw	x31,x31,509 # 3acf1fd <mem6__pt_level1+0x121b1fd>
    41015cb8:	00ef9f93          	slli	x31,x31,0xe
    41015cbc:	0a8f8f93          	addi	x31,x31,168
    41015cc0:	00a00f13          	li	x30,10
    41015cc4:	01efb023          	sd	x30,0(x31)
    41015cc8:	000f0fb7          	lui	x31,0xf0
    41015ccc:	001f8f9b          	addiw	x31,x31,1 # f0001 <mem22__pt_level2+0x54001>
    41015cd0:	00cf9f93          	slli	x31,x31,0xc
    41015cd4:	006f8f93          	addi	x31,x31,6
    41015cd8:	00000073          	ecall
    41015cdc:	0027afb7          	lui	x31,0x27a
    41015ce0:	40df8f9b          	addiw	x31,x31,1037 # 27a40d <mem0+0x11e40d>
    41015ce4:	00df9f93          	slli	x31,x31,0xd
    41015ce8:	e0ff8f93          	addi	x31,x31,-497
    41015cec:	00ff9f93          	slli	x31,x31,0xf
    41015cf0:	000fd883          	lhu	x17,0(x31)
    41015cf4:	00070393          	mv	x7,x14
    41015cf8:	03acffb7          	lui	x31,0x3acf
    41015cfc:	1fdf8f9b          	addiw	x31,x31,509 # 3acf1fd <mem6__pt_level1+0x121b1fd>
    41015d00:	00ef9f93          	slli	x31,x31,0xe
    41015d04:	0a8f8f93          	addi	x31,x31,168
    41015d08:	00b00f13          	li	x30,11
    41015d0c:	01efb023          	sd	x30,0(x31)
    41015d10:	000f0fb7          	lui	x31,0xf0
    41015d14:	001f8f9b          	addiw	x31,x31,1 # f0001 <mem22__pt_level2+0x54001>
    41015d18:	00cf9f93          	slli	x31,x31,0xc
    41015d1c:	006f8f93          	addi	x31,x31,6
    41015d20:	00000073          	ecall
    41015d24:	0027ae37          	lui	x28,0x27a
    41015d28:	40de0e1b          	addiw	x28,x28,1037 # 27a40d <mem0+0x11e40d>
    41015d2c:	00de1e13          	slli	x28,x28,0xd
    41015d30:	e0fe0e13          	addi	x28,x28,-497
    41015d34:	00fe1e13          	slli	x28,x28,0xf
    41015d38:	000e0883          	lb	x17,0(x28)
    41015d3c:	0ec96137          	lui	x2,0xec96
    41015d40:	cf71011b          	addiw	x2,x2,-777 # ec95cf7 <SID_PBVMS_003_ptw_all_privilege_modes_stack+0x13b9cf7>
    41015d44:	00d11113          	slli	x2,x2,0xd
    41015d48:	00013383          	ld	x7,0(x2)
    41015d4c:	03acffb7          	lui	x31,0x3acf
    41015d50:	1fdf8f9b          	addiw	x31,x31,509 # 3acf1fd <mem6__pt_level1+0x121b1fd>
    41015d54:	00ef9f93          	slli	x31,x31,0xe
    41015d58:	0a0f8f93          	addi	x31,x31,160
    41015d5c:	00c00f13          	li	x30,12
    41015d60:	01efb023          	sd	x30,0(x31)
    41015d64:	000f0fb7          	lui	x31,0xf0
    41015d68:	001f8f9b          	addiw	x31,x31,1 # f0001 <mem22__pt_level2+0x54001>
    41015d6c:	00cf9f93          	slli	x31,x31,0xc
    41015d70:	005f8f93          	addi	x31,x31,5
    41015d74:	00000073          	ecall

0000000041015d78 <SID_PBVMS_015_global_bit_honoured_passed>:
    41015d78:	00f00f9b          	addiw	x31,x0,15
    41015d7c:	01cf9f93          	slli	x31,x31,0x1c
    41015d80:	001f8f93          	addi	x31,x31,1
    41015d84:	00000073          	ecall

0000000041015d88 <SID_PBVMS_017_global_at_non_leaf>:
    41015d88:	0ec96137          	lui	x2,0xec96
    41015d8c:	cf71011b          	addiw	x2,x2,-777 # ec95cf7 <SID_PBVMS_003_ptw_all_privilege_modes_stack+0x13b9cf7>
    41015d90:	00d11113          	slli	x2,x2,0xd
    41015d94:	03acffb7          	lui	x31,0x3acf
    41015d98:	1fdf8f9b          	addiw	x31,x31,509 # 3acf1fd <mem6__pt_level1+0x121b1fd>
    41015d9c:	00ef9f93          	slli	x31,x31,0xe
    41015da0:	0a0f8f93          	addi	x31,x31,160
    41015da4:	00700f13          	li	x30,7
    41015da8:	01efb023          	sd	x30,0(x31)
    41015dac:	000f0fb7          	lui	x31,0xf0
    41015db0:	001f8f9b          	addiw	x31,x31,1 # f0001 <mem22__pt_level2+0x54001>
    41015db4:	00cf9f93          	slli	x31,x31,0xc
    41015db8:	005f8f93          	addi	x31,x31,5
    41015dbc:	00000073          	ecall
    41015dc0:	00713023          	sd	x7,0(x2)
    41015dc4:	04773137          	lui	x2,0x4773
    41015dc8:	7a71011b          	addiw	x2,x2,1959 # 47737a7 <pma_region_2_size+0x7737a7>
    41015dcc:	00c11113          	slli	x2,x2,0xc
    41015dd0:	000012b7          	lui	x5,0x1
    41015dd4:	00510133          	add	x2,x2,x5
    41015dd8:	ff017113          	andi	x2,x2,-16
    41015ddc:	03acffb7          	lui	x31,0x3acf
    41015de0:	1fdf8f9b          	addiw	x31,x31,509 # 3acf1fd <mem6__pt_level1+0x121b1fd>
    41015de4:	00ef9f93          	slli	x31,x31,0xe
    41015de8:	0b0f8f93          	addi	x31,x31,176
    41015dec:	ff90029b          	addiw	x5,x0,-7
    41015df0:	03229293          	slli	x5,x5,0x32
    41015df4:	005fb023          	sd	x5,0(x31)
    41015df8:	00100293          	li	x5,1
    41015dfc:	005fb423          	sd	x5,8(x31)
    41015e00:	fff00293          	li	x5,-1
    41015e04:	005fb823          	sd	x5,16(x31)
    41015e08:	000f0fb7          	lui	x31,0xf0
    41015e0c:	001f8f9b          	addiw	x31,x31,1 # f0001 <mem22__pt_level2+0x54001>
    41015e10:	00cf9f93          	slli	x31,x31,0xc
    41015e14:	007f8f93          	addi	x31,x31,7
    41015e18:	00000073          	ecall
    41015e1c:	00038393          	mv	x7,x7
    41015e20:	03acffb7          	lui	x31,0x3acf
    41015e24:	1fdf8f9b          	addiw	x31,x31,509 # 3acf1fd <mem6__pt_level1+0x121b1fd>
    41015e28:	00ef9f93          	slli	x31,x31,0xe
    41015e2c:	0b0f8f93          	addi	x31,x31,176
    41015e30:	ff90029b          	addiw	x5,x0,-7
    41015e34:	03229293          	slli	x5,x5,0x32
    41015e38:	005fb023          	sd	x5,0(x31)
    41015e3c:	00100293          	li	x5,1
    41015e40:	005fb423          	sd	x5,8(x31)
    41015e44:	fff00293          	li	x5,-1
    41015e48:	005fb823          	sd	x5,16(x31)
    41015e4c:	000f0fb7          	lui	x31,0xf0
    41015e50:	001f8f9b          	addiw	x31,x31,1 # f0001 <mem22__pt_level2+0x54001>
    41015e54:	00cf9f93          	slli	x31,x31,0xc
    41015e58:	008f8f93          	addi	x31,x31,8
    41015e5c:	00000073          	ecall
    41015e60:	ff90071b          	addiw	x14,x0,-7
    41015e64:	03271713          	slli	x14,x14,0x32
    41015e68:	00070f03          	lb	x30,0(x14)
    41015e6c:	0ff0039b          	addiw	x7,x0,255
    41015e70:	02c39393          	slli	x7,x7,0x2c
    41015e74:	03acffb7          	lui	x31,0x3acf
    41015e78:	1fdf8f9b          	addiw	x31,x31,509 # 3acf1fd <mem6__pt_level1+0x121b1fd>
    41015e7c:	00ef9f93          	slli	x31,x31,0xe
    41015e80:	0a8f8f93          	addi	x31,x31,168
    41015e84:	00900f13          	li	x30,9
    41015e88:	01efb023          	sd	x30,0(x31)
    41015e8c:	000f0fb7          	lui	x31,0xf0
    41015e90:	001f8f9b          	addiw	x31,x31,1 # f0001 <mem22__pt_level2+0x54001>
    41015e94:	00cf9f93          	slli	x31,x31,0xc
    41015e98:	006f8f93          	addi	x31,x31,6
    41015e9c:	00000073          	ecall
    41015ea0:	ff900b1b          	addiw	x22,x0,-7
    41015ea4:	032b1b13          	slli	x22,x22,0x32
    41015ea8:	000b1483          	lh	x9,0(x22)
    41015eac:	0ec96137          	lui	x2,0xec96
    41015eb0:	cf71011b          	addiw	x2,x2,-777 # ec95cf7 <SID_PBVMS_003_ptw_all_privilege_modes_stack+0x13b9cf7>
    41015eb4:	00d11113          	slli	x2,x2,0xd
    41015eb8:	00013383          	ld	x7,0(x2)
    41015ebc:	03acffb7          	lui	x31,0x3acf
    41015ec0:	1fdf8f9b          	addiw	x31,x31,509 # 3acf1fd <mem6__pt_level1+0x121b1fd>
    41015ec4:	00ef9f93          	slli	x31,x31,0xe
    41015ec8:	0a0f8f93          	addi	x31,x31,160
    41015ecc:	00c00f13          	li	x30,12
    41015ed0:	01efb023          	sd	x30,0(x31)
    41015ed4:	000f0fb7          	lui	x31,0xf0
    41015ed8:	001f8f9b          	addiw	x31,x31,1 # f0001 <mem22__pt_level2+0x54001>
    41015edc:	00cf9f93          	slli	x31,x31,0xc
    41015ee0:	005f8f93          	addi	x31,x31,5
    41015ee4:	00000073          	ecall

0000000041015ee8 <SID_PBVMS_017_global_at_non_leaf_passed>:
    41015ee8:	00f00f9b          	addiw	x31,x0,15
    41015eec:	01cf9f93          	slli	x31,x31,0x1c
    41015ef0:	001f8f93          	addi	x31,x31,1
    41015ef4:	00000073          	ecall

0000000041015ef8 <SID_PBVMS_018_rsw_fields_writable>:
    41015ef8:	0000d137          	lui	x2,0xd
    41015efc:	000012b7          	lui	x5,0x1
    41015f00:	00510133          	add	x2,x2,x5
    41015f04:	ff017113          	andi	x2,x2,-16
    41015f08:	03acffb7          	lui	x31,0x3acf
    41015f0c:	1fdf8f9b          	addiw	x31,x31,509 # 3acf1fd <mem6__pt_level1+0x121b1fd>
    41015f10:	00ef9f93          	slli	x31,x31,0xe
    41015f14:	0b0f8f93          	addi	x31,x31,176
    41015f18:	0090029b          	addiw	x5,x0,9
    41015f1c:	03129293          	slli	x5,x5,0x31
    41015f20:	005fb023          	sd	x5,0(x31)
    41015f24:	00400293          	li	x5,4
    41015f28:	005fb423          	sd	x5,8(x31)
    41015f2c:	fff00293          	li	x5,-1
    41015f30:	005fb823          	sd	x5,16(x31)
    41015f34:	000f0fb7          	lui	x31,0xf0
    41015f38:	001f8f9b          	addiw	x31,x31,1 # f0001 <mem22__pt_level2+0x54001>
    41015f3c:	00cf9f93          	slli	x31,x31,0xc
    41015f40:	007f8f93          	addi	x31,x31,7
    41015f44:	00000073          	ecall
    41015f48:	30000513          	li	x10,768
    41015f4c:	00a3ed33          	or	x26,x7,x10
    41015f50:	000d0393          	mv	x7,x26
    41015f54:	03acffb7          	lui	x31,0x3acf
    41015f58:	1fdf8f9b          	addiw	x31,x31,509 # 3acf1fd <mem6__pt_level1+0x121b1fd>
    41015f5c:	00ef9f93          	slli	x31,x31,0xe
    41015f60:	0b0f8f93          	addi	x31,x31,176
    41015f64:	0090029b          	addiw	x5,x0,9
    41015f68:	03129293          	slli	x5,x5,0x31
    41015f6c:	005fb023          	sd	x5,0(x31)
    41015f70:	00400293          	li	x5,4
    41015f74:	005fb423          	sd	x5,8(x31)
    41015f78:	fff00293          	li	x5,-1
    41015f7c:	005fb823          	sd	x5,16(x31)
    41015f80:	000f0fb7          	lui	x31,0xf0
    41015f84:	001f8f9b          	addiw	x31,x31,1 # f0001 <mem22__pt_level2+0x54001>
    41015f88:	00cf9f93          	slli	x31,x31,0xc
    41015f8c:	008f8f93          	addi	x31,x31,8
    41015f90:	00000073          	ecall
    41015f94:	03acffb7          	lui	x31,0x3acf
    41015f98:	1fdf8f9b          	addiw	x31,x31,509 # 3acf1fd <mem6__pt_level1+0x121b1fd>
    41015f9c:	00ef9f93          	slli	x31,x31,0xe
    41015fa0:	0b0f8f93          	addi	x31,x31,176
    41015fa4:	0090029b          	addiw	x5,x0,9
    41015fa8:	03129293          	slli	x5,x5,0x31
    41015fac:	005fb023          	sd	x5,0(x31)
    41015fb0:	00400293          	li	x5,4
    41015fb4:	005fb423          	sd	x5,8(x31)
    41015fb8:	fff00293          	li	x5,-1
    41015fbc:	005fb823          	sd	x5,16(x31)
    41015fc0:	000f0fb7          	lui	x31,0xf0
    41015fc4:	001f8f9b          	addiw	x31,x31,1 # f0001 <mem22__pt_level2+0x54001>
    41015fc8:	00cf9f93          	slli	x31,x31,0xc
    41015fcc:	007f8f93          	addi	x31,x31,7
    41015fd0:	00000073          	ecall
    41015fd4:	00a3f7b3          	and	x15,x7,x10
    41015fd8:	00a78e63          	beq	x15,x10,41015ff4 <pass_label_0>
    41015fdc:	03acfeb7          	lui	x29,0x3acf
    41015fe0:	1fde8e9b          	addiw	x29,x29,509 # 3acf1fd <mem6__pt_level1+0x121b1fd>
    41015fe4:	00ee9e93          	slli	x29,x29,0xe
    41015fe8:	008e8e93          	addi	x29,x29,8
    41015fec:	000ebf03          	ld	x30,0(x29)
    41015ff0:	000f0067          	jr	x30

0000000041015ff4 <pass_label_0>:
    41015ff4:	03acffb7          	lui	x31,0x3acf
    41015ff8:	1fdf8f9b          	addiw	x31,x31,509 # 3acf1fd <mem6__pt_level1+0x121b1fd>
    41015ffc:	00ef9f93          	slli	x31,x31,0xe
    41016000:	0b0f8f93          	addi	x31,x31,176
    41016004:	0090029b          	addiw	x5,x0,9
    41016008:	03129293          	slli	x5,x5,0x31
    4101600c:	005fb023          	sd	x5,0(x31)
    41016010:	00100293          	li	x5,1
    41016014:	005fb423          	sd	x5,8(x31)
    41016018:	fff00293          	li	x5,-1
    4101601c:	005fb823          	sd	x5,16(x31)
    41016020:	000f0fb7          	lui	x31,0xf0
    41016024:	001f8f9b          	addiw	x31,x31,1 # f0001 <mem22__pt_level2+0x54001>
    41016028:	00cf9f93          	slli	x31,x31,0xc
    4101602c:	007f8f93          	addi	x31,x31,7
    41016030:	00000073          	ecall
    41016034:	00a3eeb3          	or	x29,x7,x10
    41016038:	000e8393          	mv	x7,x29
    4101603c:	03acffb7          	lui	x31,0x3acf
    41016040:	1fdf8f9b          	addiw	x31,x31,509 # 3acf1fd <mem6__pt_level1+0x121b1fd>
    41016044:	00ef9f93          	slli	x31,x31,0xe
    41016048:	0b0f8f93          	addi	x31,x31,176
    4101604c:	0090029b          	addiw	x5,x0,9
    41016050:	03129293          	slli	x5,x5,0x31
    41016054:	005fb023          	sd	x5,0(x31)
    41016058:	00100293          	li	x5,1
    4101605c:	005fb423          	sd	x5,8(x31)
    41016060:	fff00293          	li	x5,-1
    41016064:	005fb823          	sd	x5,16(x31)
    41016068:	000f0fb7          	lui	x31,0xf0
    4101606c:	001f8f9b          	addiw	x31,x31,1 # f0001 <mem22__pt_level2+0x54001>
    41016070:	00cf9f93          	slli	x31,x31,0xc
    41016074:	008f8f93          	addi	x31,x31,8
    41016078:	00000073          	ecall
    4101607c:	00900a1b          	addiw	x20,x0,9
    41016080:	031a1a13          	slli	x20,x20,0x31
    41016084:	000a5883          	lhu	x17,0(x20)

0000000041016088 <SID_PBVMS_018_rsw_fields_writable_passed>:
    41016088:	00f00f9b          	addiw	x31,x0,15
    4101608c:	01cf9f93          	slli	x31,x31,0x1c
    41016090:	001f8f93          	addi	x31,x31,1
    41016094:	00000073          	ecall

0000000041016098 <SID_PBVMS_021_satp_valid_to_reserved>:
    41016098:	0ec96137          	lui	x2,0xec96
    4101609c:	cf71011b          	addiw	x2,x2,-777 # ec95cf7 <SID_PBVMS_003_ptw_all_privilege_modes_stack+0x13b9cf7>
    410160a0:	00d11113          	slli	x2,x2,0xd
    410160a4:	03acffb7          	lui	x31,0x3acf
    410160a8:	1fdf8f9b          	addiw	x31,x31,509 # 3acf1fd <mem6__pt_level1+0x121b1fd>
    410160ac:	00ef9f93          	slli	x31,x31,0xe
    410160b0:	0a0f8f93          	addi	x31,x31,160
    410160b4:	00700f13          	li	x30,7
    410160b8:	01efb023          	sd	x30,0(x31)
    410160bc:	000f0fb7          	lui	x31,0xf0
    410160c0:	001f8f9b          	addiw	x31,x31,1 # f0001 <mem22__pt_level2+0x54001>
    410160c4:	00cf9f93          	slli	x31,x31,0xc
    410160c8:	005f8f93          	addi	x31,x31,5
    410160cc:	00000073          	ecall
    410160d0:	00713023          	sd	x7,0(x2)
    410160d4:	003d1137          	lui	x2,0x3d1
    410160d8:	d431011b          	addiw	x2,x2,-701 # 3d0d43 <mem10__pt_level3+0xd4d43>
    410160dc:	00c11113          	slli	x2,x2,0xc
    410160e0:	000012b7          	lui	x5,0x1
    410160e4:	00510133          	add	x2,x2,x5
    410160e8:	ff017113          	andi	x2,x2,-16
    410160ec:	03acffb7          	lui	x31,0x3acf
    410160f0:	1fdf8f9b          	addiw	x31,x31,509 # 3acf1fd <mem6__pt_level1+0x121b1fd>
    410160f4:	00ef9f93          	slli	x31,x31,0xe
    410160f8:	0a8f8f93          	addi	x31,x31,168
    410160fc:	00800f13          	li	x30,8
    41016100:	01efb023          	sd	x30,0(x31)
    41016104:	000f0fb7          	lui	x31,0xf0
    41016108:	001f8f9b          	addiw	x31,x31,1 # f0001 <mem22__pt_level2+0x54001>
    4101610c:	00cf9f93          	slli	x31,x31,0xc
    41016110:	006f8f93          	addi	x31,x31,6
    41016114:	00000073          	ecall
    41016118:	00038e93          	mv	x29,x7
    4101611c:	00100a1b          	addiw	x20,x0,1
    41016120:	03da1a13          	slli	x20,x20,0x3d
    41016124:	000a0393          	mv	x7,x20
    41016128:	03acffb7          	lui	x31,0x3acf
    4101612c:	1fdf8f9b          	addiw	x31,x31,509 # 3acf1fd <mem6__pt_level1+0x121b1fd>
    41016130:	00ef9f93          	slli	x31,x31,0xe
    41016134:	0a8f8f93          	addi	x31,x31,168
    41016138:	00b00f13          	li	x30,11
    4101613c:	01efb023          	sd	x30,0(x31)
    41016140:	000f0fb7          	lui	x31,0xf0
    41016144:	001f8f9b          	addiw	x31,x31,1 # f0001 <mem22__pt_level2+0x54001>
    41016148:	00cf9f93          	slli	x31,x31,0xc
    4101614c:	006f8f93          	addi	x31,x31,6
    41016150:	00000073          	ecall
    41016154:	03acffb7          	lui	x31,0x3acf
    41016158:	1fdf8f9b          	addiw	x31,x31,509 # 3acf1fd <mem6__pt_level1+0x121b1fd>
    4101615c:	00ef9f93          	slli	x31,x31,0xe
    41016160:	0a8f8f93          	addi	x31,x31,168
    41016164:	00800f13          	li	x30,8
    41016168:	01efb023          	sd	x30,0(x31)
    4101616c:	000f0fb7          	lui	x31,0xf0
    41016170:	001f8f9b          	addiw	x31,x31,1 # f0001 <mem22__pt_level2+0x54001>
    41016174:	00cf9f93          	slli	x31,x31,0xc
    41016178:	006f8f93          	addi	x31,x31,6
    4101617c:	00000073          	ecall
    41016180:	00038793          	mv	x15,x7
    41016184:	00fe8e63          	beq	x29,x15,410161a0 <pass_label_1>
    41016188:	03acfcb7          	lui	x25,0x3acf
    4101618c:	1fdc8c9b          	addiw	x25,x25,509 # 3acf1fd <mem6__pt_level1+0x121b1fd>
    41016190:	00ec9c93          	slli	x25,x25,0xe
    41016194:	008c8c93          	addi	x25,x25,8
    41016198:	000cb783          	ld	x15,0(x25)
    4101619c:	00078067          	jr	x15

00000000410161a0 <pass_label_1>:
    410161a0:	0ec96137          	lui	x2,0xec96
    410161a4:	cf71011b          	addiw	x2,x2,-777 # ec95cf7 <SID_PBVMS_003_ptw_all_privilege_modes_stack+0x13b9cf7>
    410161a8:	00d11113          	slli	x2,x2,0xd
    410161ac:	00013383          	ld	x7,0(x2)
    410161b0:	03acffb7          	lui	x31,0x3acf
    410161b4:	1fdf8f9b          	addiw	x31,x31,509 # 3acf1fd <mem6__pt_level1+0x121b1fd>
    410161b8:	00ef9f93          	slli	x31,x31,0xe
    410161bc:	0a0f8f93          	addi	x31,x31,160
    410161c0:	00c00f13          	li	x30,12
    410161c4:	01efb023          	sd	x30,0(x31)
    410161c8:	000f0fb7          	lui	x31,0xf0
    410161cc:	001f8f9b          	addiw	x31,x31,1 # f0001 <mem22__pt_level2+0x54001>
    410161d0:	00cf9f93          	slli	x31,x31,0xc
    410161d4:	005f8f93          	addi	x31,x31,5
    410161d8:	00000073          	ecall

00000000410161dc <SID_PBVMS_021_satp_valid_to_reserved_passed>:
    410161dc:	00f00f9b          	addiw	x31,x0,15
    410161e0:	01cf9f93          	slli	x31,x31,0x1c
    410161e4:	001f8f93          	addi	x31,x31,1
    410161e8:	00000073          	ecall

00000000410161ec <SID_PBVMS_022_satp_csr_accessibility>:
    410161ec:	0ec96137          	lui	x2,0xec96
    410161f0:	cf71011b          	addiw	x2,x2,-777 # ec95cf7 <SID_PBVMS_003_ptw_all_privilege_modes_stack+0x13b9cf7>
    410161f4:	00d11113          	slli	x2,x2,0xd
    410161f8:	03acffb7          	lui	x31,0x3acf
    410161fc:	1fdf8f9b          	addiw	x31,x31,509 # 3acf1fd <mem6__pt_level1+0x121b1fd>
    41016200:	00ef9f93          	slli	x31,x31,0xe
    41016204:	0a0f8f93          	addi	x31,x31,160
    41016208:	00700f13          	li	x30,7
    4101620c:	01efb023          	sd	x30,0(x31)
    41016210:	000f0fb7          	lui	x31,0xf0
    41016214:	001f8f9b          	addiw	x31,x31,1 # f0001 <mem22__pt_level2+0x54001>
    41016218:	00cf9f93          	slli	x31,x31,0xc
    4101621c:	005f8f93          	addi	x31,x31,5
    41016220:	00000073          	ecall
    41016224:	00713023          	sd	x7,0(x2)
    41016228:	7dd74137          	lui	x2,0x7dd74
    4101622c:	4b11011b          	addiw	x2,x2,1201 # 7dd744b1 <pma_region_2_end+0x38d334b1>
    41016230:	00c11113          	slli	x2,x2,0xc
    41016234:	000012b7          	lui	x5,0x1
    41016238:	00510133          	add	x2,x2,x5
    4101623c:	ff017113          	andi	x2,x2,-16
    41016240:	03acffb7          	lui	x31,0x3acf
    41016244:	1fdf8f9b          	addiw	x31,x31,509 # 3acf1fd <mem6__pt_level1+0x121b1fd>
    41016248:	00ef9f93          	slli	x31,x31,0xe
    4101624c:	0a8f8f93          	addi	x31,x31,168
    41016250:	00800f13          	li	x30,8
    41016254:	01efb023          	sd	x30,0(x31)
    41016258:	000f0fb7          	lui	x31,0xf0
    4101625c:	001f8f9b          	addiw	x31,x31,1 # f0001 <mem22__pt_level2+0x54001>
    41016260:	00cf9f93          	slli	x31,x31,0xc
    41016264:	006f8f93          	addi	x31,x31,6
    41016268:	00000073          	ecall
    4101626c:	00038313          	mv	x6,x7
    41016270:	00030393          	mv	x7,x6
    41016274:	03acffb7          	lui	x31,0x3acf
    41016278:	1fdf8f9b          	addiw	x31,x31,509 # 3acf1fd <mem6__pt_level1+0x121b1fd>
    4101627c:	00ef9f93          	slli	x31,x31,0xe
    41016280:	0a8f8f93          	addi	x31,x31,168
    41016284:	00b00f13          	li	x30,11
    41016288:	01efb023          	sd	x30,0(x31)
    4101628c:	000f0fb7          	lui	x31,0xf0
    41016290:	001f8f9b          	addiw	x31,x31,1 # f0001 <mem22__pt_level2+0x54001>
    41016294:	00cf9f93          	slli	x31,x31,0xc
    41016298:	006f8f93          	addi	x31,x31,6
    4101629c:	00000073          	ecall
    410162a0:	0ec96137          	lui	x2,0xec96
    410162a4:	cf71011b          	addiw	x2,x2,-777 # ec95cf7 <SID_PBVMS_003_ptw_all_privilege_modes_stack+0x13b9cf7>
    410162a8:	00d11113          	slli	x2,x2,0xd
    410162ac:	00013383          	ld	x7,0(x2)
    410162b0:	03acffb7          	lui	x31,0x3acf
    410162b4:	1fdf8f9b          	addiw	x31,x31,509 # 3acf1fd <mem6__pt_level1+0x121b1fd>
    410162b8:	00ef9f93          	slli	x31,x31,0xe
    410162bc:	0a0f8f93          	addi	x31,x31,160
    410162c0:	00c00f13          	li	x30,12
    410162c4:	01efb023          	sd	x30,0(x31)
    410162c8:	000f0fb7          	lui	x31,0xf0
    410162cc:	001f8f9b          	addiw	x31,x31,1 # f0001 <mem22__pt_level2+0x54001>
    410162d0:	00cf9f93          	slli	x31,x31,0xc
    410162d4:	005f8f93          	addi	x31,x31,5
    410162d8:	00000073          	ecall

00000000410162dc <SID_PBVMS_022_satp_csr_accessibility_passed>:
    410162dc:	00f00f9b          	addiw	x31,x0,15
    410162e0:	01cf9f93          	slli	x31,x31,0x1c
    410162e4:	001f8f93          	addi	x31,x31,1
    410162e8:	00000073          	ecall

00000000410162ec <SID_PBVMS_023_satp_asidlen_discovery>:
    410162ec:	0ec96137          	lui	x2,0xec96
    410162f0:	cf71011b          	addiw	x2,x2,-777 # ec95cf7 <SID_PBVMS_003_ptw_all_privilege_modes_stack+0x13b9cf7>
    410162f4:	00d11113          	slli	x2,x2,0xd
    410162f8:	03acffb7          	lui	x31,0x3acf
    410162fc:	1fdf8f9b          	addiw	x31,x31,509 # 3acf1fd <mem6__pt_level1+0x121b1fd>
    41016300:	00ef9f93          	slli	x31,x31,0xe
    41016304:	0a0f8f93          	addi	x31,x31,160
    41016308:	00700f13          	li	x30,7
    4101630c:	01efb023          	sd	x30,0(x31)
    41016310:	000f0fb7          	lui	x31,0xf0
    41016314:	001f8f9b          	addiw	x31,x31,1 # f0001 <mem22__pt_level2+0x54001>
    41016318:	00cf9f93          	slli	x31,x31,0xc
    4101631c:	005f8f93          	addi	x31,x31,5
    41016320:	00000073          	ecall
    41016324:	00713023          	sd	x7,0(x2)
    41016328:	03efa137          	lui	x2,0x3efa
    4101632c:	000012b7          	lui	x5,0x1
    41016330:	00510133          	add	x2,x2,x5
    41016334:	ff017113          	andi	x2,x2,-16
    41016338:	03acffb7          	lui	x31,0x3acf
    4101633c:	1fdf8f9b          	addiw	x31,x31,509 # 3acf1fd <mem6__pt_level1+0x121b1fd>
    41016340:	00ef9f93          	slli	x31,x31,0xe
    41016344:	0a8f8f93          	addi	x31,x31,168
    41016348:	00800f13          	li	x30,8
    4101634c:	01efb023          	sd	x30,0(x31)
    41016350:	000f0fb7          	lui	x31,0xf0
    41016354:	001f8f9b          	addiw	x31,x31,1 # f0001 <mem22__pt_level2+0x54001>
    41016358:	00cf9f93          	slli	x31,x31,0xc
    4101635c:	006f8f93          	addi	x31,x31,6
    41016360:	00000073          	ecall
    41016364:	00038593          	mv	x11,x7
    41016368:	00010437          	lui	x8,0x10
    4101636c:	fff4041b          	addiw	x8,x8,-1 # ffff <mem11__pt_level2+0xfff>
    41016370:	02c41413          	slli	x8,x8,0x2c
    41016374:	0085eab3          	or	x21,x11,x8
    41016378:	000a8393          	mv	x7,x21
    4101637c:	03acffb7          	lui	x31,0x3acf
    41016380:	1fdf8f9b          	addiw	x31,x31,509 # 3acf1fd <mem6__pt_level1+0x121b1fd>
    41016384:	00ef9f93          	slli	x31,x31,0xe
    41016388:	0a8f8f93          	addi	x31,x31,168
    4101638c:	00b00f13          	li	x30,11
    41016390:	01efb023          	sd	x30,0(x31)
    41016394:	000f0fb7          	lui	x31,0xf0
    41016398:	001f8f9b          	addiw	x31,x31,1 # f0001 <mem22__pt_level2+0x54001>
    4101639c:	00cf9f93          	slli	x31,x31,0xc
    410163a0:	006f8f93          	addi	x31,x31,6
    410163a4:	00000073          	ecall
    410163a8:	03acffb7          	lui	x31,0x3acf
    410163ac:	1fdf8f9b          	addiw	x31,x31,509 # 3acf1fd <mem6__pt_level1+0x121b1fd>
    410163b0:	00ef9f93          	slli	x31,x31,0xe
    410163b4:	0a8f8f93          	addi	x31,x31,168
    410163b8:	00800f13          	li	x30,8
    410163bc:	01efb023          	sd	x30,0(x31)
    410163c0:	000f0fb7          	lui	x31,0xf0
    410163c4:	001f8f9b          	addiw	x31,x31,1 # f0001 <mem22__pt_level2+0x54001>
    410163c8:	00cf9f93          	slli	x31,x31,0xc
    410163cc:	006f8f93          	addi	x31,x31,6
    410163d0:	00000073          	ecall
    410163d4:	00038b93          	mv	x23,x7
    410163d8:	02c00713          	li	x14,44
    410163dc:	00ebd633          	srl	x12,x23,x14
    410163e0:	00010eb7          	lui	x29,0x10
    410163e4:	fffe8e9b          	addiw	x29,x29,-1 # ffff <mem11__pt_level2+0xfff>
    410163e8:	01d67733          	and	x14,x12,x29
    410163ec:	01d70e63          	beq	x14,x29,41016408 <pass_label_2>
    410163f0:	03acf537          	lui	x10,0x3acf
    410163f4:	1fd5051b          	addiw	x10,x10,509 # 3acf1fd <mem6__pt_level1+0x121b1fd>
    410163f8:	00e51513          	slli	x10,x10,0xe
    410163fc:	00850513          	addi	x10,x10,8
    41016400:	00053983          	ld	x19,0(x10)
    41016404:	00098067          	jr	x19

0000000041016408 <pass_label_2>:
    41016408:	0ec96137          	lui	x2,0xec96
    4101640c:	cf71011b          	addiw	x2,x2,-777 # ec95cf7 <SID_PBVMS_003_ptw_all_privilege_modes_stack+0x13b9cf7>
    41016410:	00d11113          	slli	x2,x2,0xd
    41016414:	00013383          	ld	x7,0(x2)
    41016418:	03acffb7          	lui	x31,0x3acf
    4101641c:	1fdf8f9b          	addiw	x31,x31,509 # 3acf1fd <mem6__pt_level1+0x121b1fd>
    41016420:	00ef9f93          	slli	x31,x31,0xe
    41016424:	0a0f8f93          	addi	x31,x31,160
    41016428:	00c00f13          	li	x30,12
    4101642c:	01efb023          	sd	x30,0(x31)
    41016430:	000f0fb7          	lui	x31,0xf0
    41016434:	001f8f9b          	addiw	x31,x31,1 # f0001 <mem22__pt_level2+0x54001>
    41016438:	00cf9f93          	slli	x31,x31,0xc
    4101643c:	005f8f93          	addi	x31,x31,5
    41016440:	00000073          	ecall

0000000041016444 <SID_PBVMS_023_satp_asidlen_discovery_passed>:
    41016444:	00f00f9b          	addiw	x31,x0,15
    41016448:	01cf9f93          	slli	x31,x31,0x1c
    4101644c:	001f8f93          	addi	x31,x31,1
    41016450:	00000073          	ecall

0000000041016454 <SID_PBVMS_027_satp_user_mode_fault>:
    41016454:	0017a137          	lui	x2,0x17a
    41016458:	4951011b          	addiw	x2,x2,1173 # 17a495 <mem0+0x1e495>
    4101645c:	00c11113          	slli	x2,x2,0xc
    41016460:	000012b7          	lui	x5,0x1
    41016464:	00510133          	add	x2,x2,x5
    41016468:	ff017113          	andi	x2,x2,-16
    4101646c:	03787237          	lui	x4,0x3787
    41016470:	d632021b          	addiw	x4,x4,-669 # 3786d63 <mem6__pt_level1+0xed2d63>
    41016474:	00c21213          	slli	x4,x4,0xc
    41016478:	00200e13          	li	x28,2
    4101647c:	05c23823          	sd	x28,80(x4) # 50 <XLEN+0x10>
    41016480:	00000e17          	auipc	x28,0x0
    41016484:	048e0e13          	addi	x28,x28,72 # 410164c8 <fault_label_11>
    41016488:	03c23023          	sd	x28,32(x4) # 20 <SECURE_ACCESS_PROBABILITY+0x2>
    4101648c:	00000e13          	li	x28,0
    41016490:	05c23023          	sd	x28,64(x4) # 40 <XLEN>
    41016494:	00000e13          	li	x28,0
    41016498:	05c23423          	sd	x28,72(x4) # 48 <XLEN+0x8>
    4101649c:	00000e17          	auipc	x28,0x0
    410164a0:	04ce0e13          	addi	x28,x28,76 # 410164e8 <excp_return_label_11>
    410164a4:	03c23823          	sd	x28,48(x4) # 30 <SECURE_ACCESS_PROBABILITY+0x12>
    410164a8:	00000e13          	li	x28,0
    410164ac:	03c23c23          	sd	x28,56(x4) # 38 <SECURE_ACCESS_PROBABILITY+0x1a>
    410164b0:	00000e13          	li	x28,0
    410164b4:	07c23023          	sd	x28,96(x4) # 60 <XLEN+0x20>
    410164b8:	00000e13          	li	x28,0
    410164bc:	07c23423          	sd	x28,104(x4) # 68 <XLEN+0x28>
    410164c0:	00000e13          	li	x28,0
    410164c4:	07c23823          	sd	x28,112(x4) # 70 <XLEN+0x30>

00000000410164c8 <fault_label_11>:
    410164c8:	180023f3          	csrr	x7,satp
    410164cc:	00038513          	mv	x10,x7
    410164d0:	03acf5b7          	lui	x11,0x3acf
    410164d4:	1fd5859b          	addiw	x11,x11,509 # 3acf1fd <mem6__pt_level1+0x121b1fd>
    410164d8:	00e59593          	slli	x11,x11,0xe
    410164dc:	00858593          	addi	x11,x11,8
    410164e0:	0005b303          	ld	x6,0(x11)
    410164e4:	00030067          	jr	x6

00000000410164e8 <excp_return_label_11>:
    410164e8:	03787237          	lui	x4,0x3787
    410164ec:	d632021b          	addiw	x4,x4,-669 # 3786d63 <mem6__pt_level1+0xed2d63>
    410164f0:	00c21213          	slli	x4,x4,0xc
    410164f4:	00200e13          	li	x28,2
    410164f8:	05c23823          	sd	x28,80(x4) # 50 <XLEN+0x10>
    410164fc:	00000e17          	auipc	x28,0x0
    41016500:	04ce0e13          	addi	x28,x28,76 # 41016548 <fault_label_12>
    41016504:	03c23023          	sd	x28,32(x4) # 20 <SECURE_ACCESS_PROBABILITY+0x2>
    41016508:	00000e13          	li	x28,0
    4101650c:	05c23023          	sd	x28,64(x4) # 40 <XLEN>
    41016510:	00000e13          	li	x28,0
    41016514:	05c23423          	sd	x28,72(x4) # 48 <XLEN+0x8>
    41016518:	00000e17          	auipc	x28,0x0
    4101651c:	04ce0e13          	addi	x28,x28,76 # 41016564 <SID_PBVMS_027_satp_user_mode_fault_passed>
    41016520:	03c23823          	sd	x28,48(x4) # 30 <SECURE_ACCESS_PROBABILITY+0x12>
    41016524:	00000e13          	li	x28,0
    41016528:	03c23c23          	sd	x28,56(x4) # 38 <SECURE_ACCESS_PROBABILITY+0x1a>
    4101652c:	00000e13          	li	x28,0
    41016530:	07c23023          	sd	x28,96(x4) # 60 <XLEN+0x20>
    41016534:	00000e13          	li	x28,0
    41016538:	07c23423          	sd	x28,104(x4) # 68 <XLEN+0x28>
    4101653c:	00000e13          	li	x28,0
    41016540:	07c23823          	sd	x28,112(x4) # 70 <XLEN+0x30>
    41016544:	00000393          	li	x7,0

0000000041016548 <fault_label_12>:
    41016548:	180393f3          	csrrw	x7,satp,x7
    4101654c:	03acf7b7          	lui	x15,0x3acf
    41016550:	1fd7879b          	addiw	x15,x15,509 # 3acf1fd <mem6__pt_level1+0x121b1fd>
    41016554:	00e79793          	slli	x15,x15,0xe
    41016558:	00878793          	addi	x15,x15,8
    4101655c:	0007b383          	ld	x7,0(x15)
    41016560:	00038067          	jr	x7 # 40000 <pma_region_0_size>

0000000041016564 <SID_PBVMS_027_satp_user_mode_fault_passed>:
    41016564:	00f00f9b          	addiw	x31,x0,15
    41016568:	01cf9f93          	slli	x31,x31,0x1c
    4101656c:	001f8f93          	addi	x31,x31,1
    41016570:	00000073          	ecall

0000000041016574 <SID_PBVMS_040_context_table_overflow>:
    41016574:	0ec96137          	lui	x2,0xec96
    41016578:	cf71011b          	addiw	x2,x2,-777 # ec95cf7 <SID_PBVMS_003_ptw_all_privilege_modes_stack+0x13b9cf7>
    4101657c:	00d11113          	slli	x2,x2,0xd
    41016580:	03acffb7          	lui	x31,0x3acf
    41016584:	1fdf8f9b          	addiw	x31,x31,509 # 3acf1fd <mem6__pt_level1+0x121b1fd>
    41016588:	00ef9f93          	slli	x31,x31,0xe
    4101658c:	0a0f8f93          	addi	x31,x31,160
    41016590:	00700f13          	li	x30,7
    41016594:	01efb023          	sd	x30,0(x31)
    41016598:	000f0fb7          	lui	x31,0xf0
    4101659c:	001f8f9b          	addiw	x31,x31,1 # f0001 <mem22__pt_level2+0x54001>
    410165a0:	00cf9f93          	slli	x31,x31,0xc
    410165a4:	005f8f93          	addi	x31,x31,5
    410165a8:	00000073          	ecall
    410165ac:	00713023          	sd	x7,0(x2)
    410165b0:	0e9a4137          	lui	x2,0xe9a4
    410165b4:	61b1011b          	addiw	x2,x2,1563 # e9a461b <SID_PBVMS_003_ptw_all_privilege_modes_stack+0x10c861b>
    410165b8:	00c11113          	slli	x2,x2,0xc
    410165bc:	000012b7          	lui	x5,0x1
    410165c0:	00510133          	add	x2,x2,x5
    410165c4:	ff017113          	andi	x2,x2,-16
    410165c8:	0010039b          	addiw	x7,x0,1
    410165cc:	02c39393          	slli	x7,x7,0x2c
    410165d0:	03acffb7          	lui	x31,0x3acf
    410165d4:	1fdf8f9b          	addiw	x31,x31,509 # 3acf1fd <mem6__pt_level1+0x121b1fd>
    410165d8:	00ef9f93          	slli	x31,x31,0xe
    410165dc:	0a8f8f93          	addi	x31,x31,168
    410165e0:	00900f13          	li	x30,9
    410165e4:	01efb023          	sd	x30,0(x31)
    410165e8:	000f0fb7          	lui	x31,0xf0
    410165ec:	001f8f9b          	addiw	x31,x31,1 # f0001 <mem22__pt_level2+0x54001>
    410165f0:	00cf9f93          	slli	x31,x31,0xc
    410165f4:	006f8f93          	addi	x31,x31,6
    410165f8:	00000073          	ecall
    410165fc:	04ed6e37          	lui	x28,0x4ed6
    41016600:	d51e0e1b          	addiw	x28,x28,-687 # 4ed5d51 <pma_region_2_size+0xed5d51>
    41016604:	00ce1e13          	slli	x28,x28,0xc
    41016608:	000e1a83          	lh	x21,0(x28)
    4101660c:	001a5b37          	lui	x22,0x1a5
    41016610:	2d1b0b1b          	addiw	x22,x22,721 # 1a52d1 <mem0+0x492d1>
    41016614:	00eb1b13          	slli	x22,x22,0xe
    41016618:	000b00e7          	jalr	x22
    4101661c:	0010039b          	addiw	x7,x0,1
    41016620:	02d39393          	slli	x7,x7,0x2d
    41016624:	03acffb7          	lui	x31,0x3acf
    41016628:	1fdf8f9b          	addiw	x31,x31,509 # 3acf1fd <mem6__pt_level1+0x121b1fd>
    4101662c:	00ef9f93          	slli	x31,x31,0xe
    41016630:	0a8f8f93          	addi	x31,x31,168
    41016634:	00900f13          	li	x30,9
    41016638:	01efb023          	sd	x30,0(x31)
    4101663c:	000f0fb7          	lui	x31,0xf0
    41016640:	001f8f9b          	addiw	x31,x31,1 # f0001 <mem22__pt_level2+0x54001>
    41016644:	00cf9f93          	slli	x31,x31,0xc
    41016648:	006f8f93          	addi	x31,x31,6
    4101664c:	00000073          	ecall
    41016650:	04ed6837          	lui	x16,0x4ed6
    41016654:	d518081b          	addiw	x16,x16,-687 # 4ed5d51 <pma_region_2_size+0xed5d51>
    41016658:	00c81813          	slli	x16,x16,0xc
    4101665c:	00084d83          	lbu	x27,0(x16)
    41016660:	001a5e37          	lui	x28,0x1a5
    41016664:	2d1e0e1b          	addiw	x28,x28,721 # 1a52d1 <mem0+0x492d1>
    41016668:	00ee1e13          	slli	x28,x28,0xe
    4101666c:	000e00e7          	jalr	x28
    41016670:	0030039b          	addiw	x7,x0,3
    41016674:	02c39393          	slli	x7,x7,0x2c
    41016678:	03acffb7          	lui	x31,0x3acf
    4101667c:	1fdf8f9b          	addiw	x31,x31,509 # 3acf1fd <mem6__pt_level1+0x121b1fd>
    41016680:	00ef9f93          	slli	x31,x31,0xe
    41016684:	0a8f8f93          	addi	x31,x31,168
    41016688:	00900f13          	li	x30,9
    4101668c:	01efb023          	sd	x30,0(x31)
    41016690:	000f0fb7          	lui	x31,0xf0
    41016694:	001f8f9b          	addiw	x31,x31,1 # f0001 <mem22__pt_level2+0x54001>
    41016698:	00cf9f93          	slli	x31,x31,0xc
    4101669c:	006f8f93          	addi	x31,x31,6
    410166a0:	00000073          	ecall
    410166a4:	04ed6a37          	lui	x20,0x4ed6
    410166a8:	d51a0a1b          	addiw	x20,x20,-687 # 4ed5d51 <pma_region_2_size+0xed5d51>
    410166ac:	00ca1a13          	slli	x20,x20,0xc
    410166b0:	000a1683          	lh	x13,0(x20)
    410166b4:	001a5db7          	lui	x27,0x1a5
    410166b8:	2d1d8d9b          	addiw	x27,x27,721 # 1a52d1 <mem0+0x492d1>
    410166bc:	00ed9d93          	slli	x27,x27,0xe
    410166c0:	000d80e7          	jalr	x27
    410166c4:	0010039b          	addiw	x7,x0,1
    410166c8:	02e39393          	slli	x7,x7,0x2e
    410166cc:	03acffb7          	lui	x31,0x3acf
    410166d0:	1fdf8f9b          	addiw	x31,x31,509 # 3acf1fd <mem6__pt_level1+0x121b1fd>
    410166d4:	00ef9f93          	slli	x31,x31,0xe
    410166d8:	0a8f8f93          	addi	x31,x31,168
    410166dc:	00900f13          	li	x30,9
    410166e0:	01efb023          	sd	x30,0(x31)
    410166e4:	000f0fb7          	lui	x31,0xf0
    410166e8:	001f8f9b          	addiw	x31,x31,1 # f0001 <mem22__pt_level2+0x54001>
    410166ec:	00cf9f93          	slli	x31,x31,0xc
    410166f0:	006f8f93          	addi	x31,x31,6
    410166f4:	00000073          	ecall
    410166f8:	04ed6db7          	lui	x27,0x4ed6
    410166fc:	d51d8d9b          	addiw	x27,x27,-687 # 4ed5d51 <pma_region_2_size+0xed5d51>
    41016700:	00cd9d93          	slli	x27,x27,0xc
    41016704:	000d8703          	lb	x14,0(x27)
    41016708:	001a53b7          	lui	x7,0x1a5
    4101670c:	2d13839b          	addiw	x7,x7,721 # 1a52d1 <mem0+0x492d1>
    41016710:	00e39393          	slli	x7,x7,0xe
    41016714:	000380e7          	jalr	x7
    41016718:	0010039b          	addiw	x7,x0,1
    4101671c:	02c39393          	slli	x7,x7,0x2c
    41016720:	03acffb7          	lui	x31,0x3acf
    41016724:	1fdf8f9b          	addiw	x31,x31,509 # 3acf1fd <mem6__pt_level1+0x121b1fd>
    41016728:	00ef9f93          	slli	x31,x31,0xe
    4101672c:	0a8f8f93          	addi	x31,x31,168
    41016730:	00900f13          	li	x30,9
    41016734:	01efb023          	sd	x30,0(x31)
    41016738:	000f0fb7          	lui	x31,0xf0
    4101673c:	001f8f9b          	addiw	x31,x31,1 # f0001 <mem22__pt_level2+0x54001>
    41016740:	00cf9f93          	slli	x31,x31,0xc
    41016744:	006f8f93          	addi	x31,x31,6
    41016748:	00000073          	ecall
    4101674c:	04ed63b7          	lui	x7,0x4ed6
    41016750:	d513839b          	addiw	x7,x7,-687 # 4ed5d51 <pma_region_2_size+0xed5d51>
    41016754:	00c39393          	slli	x7,x7,0xc
    41016758:	0003a707          	flw	f14,0(x7)
    4101675c:	001a5d37          	lui	x26,0x1a5
    41016760:	2d1d0d1b          	addiw	x26,x26,721 # 1a52d1 <mem0+0x492d1>
    41016764:	00ed1d13          	slli	x26,x26,0xe
    41016768:	000d00e7          	jalr	x26
    4101676c:	0ec96137          	lui	x2,0xec96
    41016770:	cf71011b          	addiw	x2,x2,-777 # ec95cf7 <SID_PBVMS_003_ptw_all_privilege_modes_stack+0x13b9cf7>
    41016774:	00d11113          	slli	x2,x2,0xd
    41016778:	00013383          	ld	x7,0(x2)
    4101677c:	03acffb7          	lui	x31,0x3acf
    41016780:	1fdf8f9b          	addiw	x31,x31,509 # 3acf1fd <mem6__pt_level1+0x121b1fd>
    41016784:	00ef9f93          	slli	x31,x31,0xe
    41016788:	0a0f8f93          	addi	x31,x31,160
    4101678c:	00c00f13          	li	x30,12
    41016790:	01efb023          	sd	x30,0(x31)
    41016794:	000f0fb7          	lui	x31,0xf0
    41016798:	001f8f9b          	addiw	x31,x31,1 # f0001 <mem22__pt_level2+0x54001>
    4101679c:	00cf9f93          	slli	x31,x31,0xc
    410167a0:	005f8f93          	addi	x31,x31,5
    410167a4:	00000073          	ecall

00000000410167a8 <SID_PBVMS_040_context_table_overflow_passed>:
    410167a8:	00f00f9b          	addiw	x31,x0,15
    410167ac:	01cf9f93          	slli	x31,x31,0x1c
    410167b0:	001f8f93          	addi	x31,x31,1
    410167b4:	00000073          	ecall

00000000410167b8 <SID_PBVMS_042_canonical_boundary_crossing_fault>:
    410167b8:	1c9e4137          	lui	x2,0x1c9e4
    410167bc:	65d1011b          	addiw	x2,x2,1629 # 1c9e465d <mem10__pt_level1+0xc3a965d>
    410167c0:	00c11113          	slli	x2,x2,0xc
    410167c4:	000012b7          	lui	x5,0x1
    410167c8:	00510133          	add	x2,x2,x5
    410167cc:	ff017113          	andi	x2,x2,-16
    410167d0:	03787237          	lui	x4,0x3787
    410167d4:	d632021b          	addiw	x4,x4,-669 # 3786d63 <mem6__pt_level1+0xed2d63>
    410167d8:	00c21213          	slli	x4,x4,0xc
    410167dc:	00d00e13          	li	x28,13
    410167e0:	05c23823          	sd	x28,80(x4) # 50 <XLEN+0x10>
    410167e4:	00000e17          	auipc	x28,0x0
    410167e8:	058e0e13          	addi	x28,x28,88 # 4101683c <fault_label_13>
    410167ec:	03c23023          	sd	x28,32(x4) # 20 <SECURE_ACCESS_PROBABILITY+0x2>
    410167f0:	00000e13          	li	x28,0
    410167f4:	05c23023          	sd	x28,64(x4) # 40 <XLEN>
    410167f8:	00000e13          	li	x28,0
    410167fc:	05c23423          	sd	x28,72(x4) # 48 <XLEN+0x8>
    41016800:	00000e17          	auipc	x28,0x0
    41016804:	058e0e13          	addi	x28,x28,88 # 41016858 <SID_PBVMS_042_canonical_boundary_crossing_fault_passed>
    41016808:	03c23823          	sd	x28,48(x4) # 30 <SECURE_ACCESS_PROBABILITY+0x12>
    4101680c:	00000e13          	li	x28,0
    41016810:	03c23c23          	sd	x28,56(x4) # 38 <SECURE_ACCESS_PROBABILITY+0x1a>
    41016814:	00000e13          	li	x28,0
    41016818:	07c23023          	sd	x28,96(x4) # 60 <XLEN+0x20>
    4101681c:	00000e13          	li	x28,0
    41016820:	07c23423          	sd	x28,104(x4) # 68 <XLEN+0x28>
    41016824:	00000e13          	li	x28,0
    41016828:	07c23823          	sd	x28,112(x4) # 70 <XLEN+0x30>
    4101682c:	00008337          	lui	x6,0x8
    41016830:	fff00c9b          	addiw	x25,x0,-1
    41016834:	03fc9c93          	slli	x25,x25,0x3f
    41016838:	01930d33          	add	x26,x6,x25

000000004101683c <fault_label_13>:
    4101683c:	000d2107          	flw	f2,0(x26)
    41016840:	03acfa37          	lui	x20,0x3acf
    41016844:	1fda0a1b          	addiw	x20,x20,509 # 3acf1fd <mem6__pt_level1+0x121b1fd>
    41016848:	00ea1a13          	slli	x20,x20,0xe
    4101684c:	008a0a13          	addi	x20,x20,8
    41016850:	000a3c03          	ld	x24,0(x20)
    41016854:	000c0067          	jr	x24

0000000041016858 <SID_PBVMS_042_canonical_boundary_crossing_fault_passed>:
    41016858:	00f00f9b          	addiw	x31,x0,15
    4101685c:	01cf9f93          	slli	x31,x31,0x1c
    41016860:	001f8f93          	addi	x31,x31,1
    41016864:	00000073          	ecall

0000000041016868 <SID_PBVMS_043_fetch_window_spill_page_cross>:
    41016868:	00028137          	lui	x2,0x28
    4101686c:	000012b7          	lui	x5,0x1
    41016870:	00510133          	add	x2,x2,x5
    41016874:	ff017113          	andi	x2,x2,-16
    41016878:	40e22c37          	lui	x24,0x40e22
    4101687c:	000c00e7          	jalr	x24 # 40e22000 <code_mem27>

0000000041016880 <SID_PBVMS_043_fetch_window_spill_page_cross_passed>:
    41016880:	00f00f9b          	addiw	x31,x0,15
    41016884:	01cf9f93          	slli	x31,x31,0x1c
    41016888:	001f8f93          	addi	x31,x31,1
    4101688c:	00000073          	ecall

0000000041016890 <test_cleanup>:
    41016890:	00f00f9b          	addiw	x31,x0,15
    41016894:	01cf9f93          	slli	x31,x31,0x1c
    41016898:	001f8f93          	addi	x31,x31,1
    4101689c:	00000073          	ecall

00000000410168a0 <local_test_failed>:
    410168a0:	00f00f9b          	addiw	x31,x0,15
    410168a4:	01cf9f93          	slli	x31,x31,0x1c
    410168a8:	002f8f93          	addi	x31,x31,2
    410168ac:	00000073          	ecall

Disassembly of section .csr_machine_0:

0000000041389000 <csr_access_mstatus_machine_key_6_write-0x50>:
    41389000:	447fefb7          	lui	x31,0x447fe
    41389004:	0a0f8f9b          	addiw	x31,x31,160 # 447fe0a0 <machine_csr_jump_table_flags_pa>
    41389008:	000fbf83          	ld	x31,0(x31)
    4138900c:	00600293          	li	x5,6
    41389010:	045f8063          	beq	x31,x5,41389050 <csr_access_mstatus_machine_key_6_write>
    41389014:	00100293          	li	x5,1
    41389018:	045f8063          	beq	x31,x5,41389058 <csr_access_mstatus_machine_key_1_read>
    4138901c:	00200293          	li	x5,2
    41389020:	045f8063          	beq	x31,x5,41389060 <csr_access_mstatus_machine_key_2_set>
    41389024:	00300293          	li	x5,3
    41389028:	045f8063          	beq	x31,x5,41389068 <csr_access_mstatus_machine_key_3_clear>
    4138902c:	00c00293          	li	x5,12
    41389030:	045f8063          	beq	x31,x5,41389070 <csr_access_satp_supervisor_key_12_write>
    41389034:	00700293          	li	x5,7
    41389038:	045f8063          	beq	x31,x5,41389078 <csr_access_satp_supervisor_key_7_read>
    4138903c:	01000293          	li	x5,16
    41389040:	045f8063          	beq	x31,x5,41389080 <csr_access_mtvec_machine_key_16_set>
    41389044:	00f00293          	li	x5,15
    41389048:	045f8063          	beq	x31,x5,41389088 <csr_access_mtvec_machine_key_15_clear>
    4138904c:	0440006f          	j	41389090 <end_machine_label>

0000000041389050 <csr_access_mstatus_machine_key_6_write>:
    41389050:	30039073          	csrw	mstatus,x7
    41389054:	03c0006f          	j	41389090 <end_machine_label>

0000000041389058 <csr_access_mstatus_machine_key_1_read>:
    41389058:	300023f3          	csrr	x7,mstatus
    4138905c:	0340006f          	j	41389090 <end_machine_label>

0000000041389060 <csr_access_mstatus_machine_key_2_set>:
    41389060:	3003a073          	csrs	mstatus,x7
    41389064:	02c0006f          	j	41389090 <end_machine_label>

0000000041389068 <csr_access_mstatus_machine_key_3_clear>:
    41389068:	3003b073          	csrc	mstatus,x7
    4138906c:	0240006f          	j	41389090 <end_machine_label>

0000000041389070 <csr_access_satp_supervisor_key_12_write>:
    41389070:	18039073          	csrw	satp,x7
    41389074:	01c0006f          	j	41389090 <end_machine_label>

0000000041389078 <csr_access_satp_supervisor_key_7_read>:
    41389078:	180023f3          	csrr	x7,satp
    4138907c:	0140006f          	j	41389090 <end_machine_label>

0000000041389080 <csr_access_mtvec_machine_key_16_set>:
    41389080:	3053a073          	csrs	mtvec,x7
    41389084:	00c0006f          	j	41389090 <end_machine_label>

0000000041389088 <csr_access_mtvec_machine_key_15_clear>:
    41389088:	3053b073          	csrc	mtvec,x7
    4138908c:	0040006f          	j	41389090 <end_machine_label>

0000000041389090 <end_machine_label>:
    41389090:	000f0fb7          	lui	x31,0xf0
    41389094:	001f8f9b          	addiw	x31,x31,1 # f0001 <mem22__pt_level2+0x54001>
    41389098:	00cf9f93          	slli	x31,x31,0xc
    4138909c:	004f8f93          	addi	x31,x31,4
    413890a0:	00000073          	ecall

Disassembly of section .csr_super_0:

000000004138a000 <csr_access_satp_supervisor_key_11_write-0x58>:
    4138a000:	03acffb7          	lui	x31,0x3acf
    4138a004:	1fdf8f9b          	addiw	x31,x31,509 # 3acf1fd <mem6__pt_level1+0x121b1fd>
    4138a008:	00ef9f93          	slli	x31,x31,0xe
    4138a00c:	0a8f8f93          	addi	x31,x31,168
    4138a010:	000fbf83          	ld	x31,0(x31)
    4138a014:	00800293          	li	x5,8
    4138a018:	045f8463          	beq	x31,x5,4138a060 <csr_access_satp_supervisor_key_8_read>
    4138a01c:	00b00293          	li	x5,11
    4138a020:	025f8c63          	beq	x31,x5,4138a058 <csr_access_satp_supervisor_key_11_write>
    4138a024:	00900293          	li	x5,9
    4138a028:	045f8063          	beq	x31,x5,4138a068 <csr_access_satp_supervisor_key_9_set>
    4138a02c:	00a00293          	li	x5,10
    4138a030:	045f8063          	beq	x31,x5,4138a070 <csr_access_satp_supervisor_key_10_clear>
    4138a034:	00e00293          	li	x5,14
    4138a038:	045f8063          	beq	x31,x5,4138a078 <csr_access_sstatus_supervisor_key_14_set>
    4138a03c:	00d00293          	li	x5,13
    4138a040:	045f8063          	beq	x31,x5,4138a080 <csr_access_sstatus_supervisor_key_13_clear>
    4138a044:	01200293          	li	x5,18
    4138a048:	045f8063          	beq	x31,x5,4138a088 <csr_access_stvec_supervisor_key_18_set>
    4138a04c:	01100293          	li	x5,17
    4138a050:	045f8063          	beq	x31,x5,4138a090 <csr_access_stvec_supervisor_key_17_clear>
    4138a054:	0440006f          	j	4138a098 <end_super_label>

000000004138a058 <csr_access_satp_supervisor_key_11_write>:
    4138a058:	18039073          	csrw	satp,x7
    4138a05c:	03c0006f          	j	4138a098 <end_super_label>

000000004138a060 <csr_access_satp_supervisor_key_8_read>:
    4138a060:	180023f3          	csrr	x7,satp
    4138a064:	0340006f          	j	4138a098 <end_super_label>

000000004138a068 <csr_access_satp_supervisor_key_9_set>:
    4138a068:	1803a073          	csrs	satp,x7
    4138a06c:	02c0006f          	j	4138a098 <end_super_label>

000000004138a070 <csr_access_satp_supervisor_key_10_clear>:
    4138a070:	1803b073          	csrc	satp,x7
    4138a074:	0240006f          	j	4138a098 <end_super_label>

000000004138a078 <csr_access_sstatus_supervisor_key_14_set>:
    4138a078:	1003a073          	csrs	sstatus,x7
    4138a07c:	01c0006f          	j	4138a098 <end_super_label>

000000004138a080 <csr_access_sstatus_supervisor_key_13_clear>:
    4138a080:	1003b073          	csrc	sstatus,x7
    4138a084:	0140006f          	j	4138a098 <end_super_label>

000000004138a088 <csr_access_stvec_supervisor_key_18_set>:
    4138a088:	1053a073          	csrs	stvec,x7
    4138a08c:	00c0006f          	j	4138a098 <end_super_label>

000000004138a090 <csr_access_stvec_supervisor_key_17_clear>:
    4138a090:	1053b073          	csrc	stvec,x7
    4138a094:	0040006f          	j	4138a098 <end_super_label>

000000004138a098 <end_super_label>:
    4138a098:	000f0fb7          	lui	x31,0xf0
    4138a09c:	001f8f9b          	addiw	x31,x31,1 # f0001 <mem22__pt_level2+0x54001>
    4138a0a0:	00cf9f93          	slli	x31,x31,0xc
    4138a0a4:	004f8f93          	addi	x31,x31,4
    4138a0a8:	00000073          	ecall

Disassembly of section .os_data:

000000eb3c7f4000 <passed_addr_ptr>:
  eb3c7f4000:	50f0                	.insn	2, 0x50f0
  eb3c7f4002:	4101                	.insn	2, 0x4101
  eb3c7f4004:	0000                	.insn	2, 0x0000
	...

000000eb3c7f4008 <failed_addr_ptr>:
  eb3c7f4008:	5100                	.insn	2, 0x5100
  eb3c7f400a:	4101                	.insn	2, 0x4101
  eb3c7f400c:	0000                	.insn	2, 0x0000
	...

000000eb3c7f4010 <end_test_addr_ptr>:
  eb3c7f4010:	5110                	.insn	2, 0x5110
  eb3c7f4012:	4101                	.insn	2, 0x4101
  eb3c7f4014:	0000                	.insn	2, 0x0000
	...

000000eb3c7f4018 <os_passed_addr_ptr>:
  eb3c7f4018:	07b0                	.insn	2, 0x07b0
  eb3c7f401a:	4100                	.insn	2, 0x4100
  eb3c7f401c:	0000                	.insn	2, 0x0000
	...

000000eb3c7f4020 <os_failed_addr_ptr>:
  eb3c7f4020:	07c0                	.insn	2, 0x07c0
  eb3c7f4022:	4100                	.insn	2, 0x4100
  eb3c7f4024:	0000                	.insn	2, 0x0000
	...

000000eb3c7f4028 <os_end_test_addr_ptr>:
  eb3c7f4028:	07cc                	.insn	2, 0x07cc
  eb3c7f402a:	4100                	.insn	2, 0x4100
  eb3c7f402c:	0000                	.insn	2, 0x0000
	...

000000eb3c7f4030 <rvcp_prefix_str_data>:
  eb3c7f4030:	5652                	.insn	2, 0x5652
  eb3c7f4032:	203a5043          	fmadd.s	f0,f20,f3,f4,unknown
  eb3c7f4036:	6554                	.insn	2, 0x6554
  eb3c7f4038:	46207473          	csrrci	x8,0x462,0
  eb3c7f403c:	6c69                	.insn	2, 0x6c69
  eb3c7f403e:	2065                	.insn	2, 0x2065
	...

000000eb3c7f4041 <rvcp_testname_str_data>:
  eb3c7f4041:	7074                	.insn	2, 0x7074
  eb3c7f4043:	705f 6761 6e69      	.insn	6, 0x6e696761705f
  eb3c7f4049:	00325f67          	.insn	4, 0x00325f67

000000eb3c7f404d <rvcp_passed_str_data>:
  eb3c7f404d:	4150                	.insn	2, 0x4150
  eb3c7f404f:	44455353          	fround.h	f6,f10,unknown
	...

000000eb3c7f4054 <rvcp_failed_str_data>:
  eb3c7f4054:	4146                	.insn	2, 0x4146
  eb3c7f4056:	4c49                	.insn	2, 0x4c49
  eb3c7f4058:	4445                	.insn	2, 0x4445
	...

000000eb3c7f405b <rvcp_space_str_data>:
  eb3c7f405b:	0020                	.insn	2, 0x0020

000000eb3c7f405d <rvcp_newline_str_data>:
  eb3c7f405d:	000a                	.insn	2, 0x000a
	...

000000eb3c7f4060 <excp_ignored_count_mem>:
	...

000000eb3c7f4068 <machine_flags_mem>:
	...

000000eb3c7f4070 <user_flags_mem>:
	...

000000eb3c7f4078 <super_flags_mem>:
	...

000000eb3c7f4080 <machine_area_mem>:
	...

000000eb3c7f4088 <user_area_mem>:
	...

000000eb3c7f4090 <super_area_mem>:
	...

000000eb3c7f4098 <zero_data_mem>:
	...

000000eb3c7f40a0 <machine_csr_jump_table_flags_mem>:
	...

000000eb3c7f40a8 <super_csr_jump_table_flags_mem>:
	...

000000eb3c7f40b0 <pte_access_flags_mem>:
	...

000000eb3c7f40c8 <num_harts_ended_mem>:
	...

000000eb3c7f40d0 <num_hard_fails_mem>:
	...

Disassembly of section .hart_context:

0000003786d63000 <hart_context_0>:
  3786d63000:	e000                	.insn	2, 0xe000
  3786d63002:	6338                	.insn	2, 0x6338
  3786d63004:	00000017          	auipc	x0,0x0
	...
  3786d63018:	0001                	.insn	2, 0x0001
  3786d6301a:	0000                	.insn	2, 0x0000
  3786d6301c:	0000                	.insn	2, 0x0000
  3786d6301e:	0000                	.insn	2, 0x0000
  3786d63020:	ffff                	.insn	2, 0xffff
  3786d63022:	ffff                	.insn	2, 0xffff
  3786d63024:	ffff                	.insn	2, 0xffff
  3786d63026:	ffff                	.insn	2, 0xffff
  3786d63028:	ffff                	.insn	2, 0xffff
  3786d6302a:	ffff                	.insn	2, 0xffff
  3786d6302c:	ffff                	.insn	2, 0xffff
  3786d6302e:	ffff                	.insn	2, 0xffff
  3786d63030:	ffff                	.insn	2, 0xffff
  3786d63032:	ffff                	.insn	2, 0xffff
  3786d63034:	ffff                	.insn	2, 0xffff
  3786d63036:	ffff                	.insn	2, 0xffff
	...
  3786d63050:	00ff 0000 0000 0000 	.insn	10, 0x00ff00000000000000ff
  3786d63058:	00ff 
	...
  3786d63176:	0000                	.insn	2, 0x0000
  3786d63178:	ffff                	.insn	2, 0xffff
  3786d6317a:	ffff                	.insn	2, 0xffff
  3786d6317c:	ffff                	.insn	2, 0xffff
  3786d6317e:	ffff                	.insn	2, 0xffff
	...
  3786d63188:	ffff                	.insn	2, 0xffff
  3786d6318a:	ffff                	.insn	2, 0xffff
	...

Disassembly of section .hart_stack_0:

000000176338d000 <hart_stack_0>:
	...

Disassembly of section .io_htif:

0000000041040000 <tohost>:
	...

0000000041040040 <fromhost>:
	...

Disassembly of section .code_mem1:

000000000000b000 <.code_mem1>:
    b000:	5c6e45b7          	lui	x11,0x5c6e4
    b004:	33a5859b          	addiw	x11,x11,826 # 5c6e433a <pma_region_2_end+0x176a333a>
    b008:	00035f37          	lui	x30,0x35
    b00c:	78df0f1b          	addiw	x30,x30,1933 # 3578d <SID_PBVMS_043_fetch_window_spill_page_cross_stack+0xd78d>
    b010:	00ef1f13          	slli	x30,x30,0xe
    b014:	127f0f13          	addi	x30,x30,295
    b018:	01e58f3b          	addw	x30,x11,x30
    b01c:	000b0e37          	lui	x28,0xb0
    b020:	00008067          	ret

Disassembly of section .code_mem4:

00029dc740dda000 <.code_mem4>:
   29dc740dda000:	0004ebb7          	lui	x23,0x4e
   29dc740dda004:	abbb8b9b          	addiw	x23,x23,-1349 # 4dabb <mem9__pt_level4+0x679b>
   29dc740dda008:	00db9b93          	slli	x23,x23,0xd
   29dc740dda00c:	bd4b8b93          	addi	x23,x23,-1068
   29dc740dda010:	0925ea37          	lui	x20,0x925e
   29dc740dda014:	477a0a1b          	addiw	x20,x20,1143 # 925e477 <mem22__pt_level0+0x9ba477>
   29dc740dda018:	034bfc3b          	remuw	x24,x23,x20
   29dc740dda01c:	00095737          	lui	x14,0x95
   29dc740dda020:	c9d7071b          	addiw	x14,x14,-867 # 94c9d <mem21__pt_level0+0x36c9d>
   29dc740dda024:	00c71713          	slli	x14,x14,0xc
   29dc740dda028:	95370713          	addi	x14,x14,-1709
   29dc740dda02c:	000573b7          	lui	x7,0x57
   29dc740dda030:	3313839b          	addiw	x7,x7,817 # 57331 <mem9__pt_level4+0x10011>
   29dc740dda034:	00d39393          	slli	x7,x7,0xd
   29dc740dda038:	67838393          	addi	x7,x7,1656
   29dc740dda03c:	0277033b          	mulw	x6,x14,x7
   29dc740dda040:	288bcab7          	lui	x21,0x288bc
   29dc740dda044:	784a8a9b          	addiw	x21,x21,1924 # 288bc784 <mem11__pt_level4+0xb0b8764>
   29dc740dda048:	00100db7          	lui	x27,0x100
   29dc740dda04c:	ed9d8d9b          	addiw	x27,x27,-295 # ffed9 <SID_PBVMS_012_ptw_fault_prioritization_stack+0xded9>
   29dc740dda050:	00cd9d93          	slli	x27,x27,0xc
   29dc740dda054:	238d8d93          	addi	x27,x27,568
   29dc740dda058:	d00aff53          	fcvt.s.w	f30,x21
   29dc740dda05c:	d03df5d3          	fcvt.s.lu	f11,x27
   29dc740dda060:	08bf7f53          	fsub.s	f30,f30,f11
   29dc740dda064:	6e406cb7          	lui	x25,0x6e406
   29dc740dda068:	d96c8c9b          	addiw	x25,x25,-618 # 6e405d96 <pma_region_2_end+0x293c4d96>
   29dc740dda06c:	00052e37          	lui	x28,0x52
   29dc740dda070:	b97e0e1b          	addiw	x28,x28,-1129 # 51b97 <mem9__pt_level4+0xa877>
   29dc740dda074:	00de1e13          	slli	x28,x28,0xd
   29dc740dda078:	b92e0e13          	addi	x28,x28,-1134
   29dc740dda07c:	03cc9bb3          	mulh	x23,x25,x28
   29dc740dda080:	00008067          	ret

Disassembly of section .code_mem16:

0000004c805de000 <.code_mem16>:
  4c805de000:	000486b7          	lui	x13,0x48
  4c805de004:	bed6869b          	addiw	x13,x13,-1043 # 47bed <mem9__pt_level4+0x8cd>
  4c805de008:	00d69693          	slli	x13,x13,0xd
  4c805de00c:	b7b68693          	addi	x13,x13,-1157
  4c805de010:	2d6c8737          	lui	x14,0x2d6c8
  4c805de014:	9827071b          	addiw	x14,x14,-1662 # 2d6c7982 <mem11__pt_level4+0xfec3962>
  4c805de018:	02e6d33b          	divuw	x6,x13,x14
  4c805de01c:	00008067          	ret

Disassembly of section .code_mem24:

0000000694b44000 <.code_mem24>:
   694b44000:	533c9537          	lui	x10,0x533c9
   694b44004:	1385051b          	addiw	x10,x10,312 # 533c9138 <pma_region_2_end+0xe388138>
   694b44008:	2c705bb7          	lui	x23,0x2c705
   694b4400c:	021b8b9b          	addiw	x23,x23,33 # 2c705021 <mem11__pt_level4+0xef01001>
   694b44010:	03754c3b          	divw	x24,x10,x23
   694b44014:	00008067          	ret

Disassembly of section .code_mem27:

0000000040e22000 <.code_mem27>:
    40e22000:	000ffe37          	lui	x28,0xff
    40e22004:	c3fe0e1b          	addiw	x28,x28,-961 # fec3f <SID_PBVMS_012_ptw_fault_prioritization_stack+0xcc3f>
    40e22008:	00ce1e13          	slli	x28,x28,0xc
    40e2200c:	6b6e0e13          	addi	x28,x28,1718
    40e22010:	00072f37          	lui	x30,0x72
    40e22014:	609f0f1b          	addiw	x30,x30,1545 # 72609 <mem21__pt_level0+0x14609>
    40e22018:	00df1f13          	slli	x30,x30,0xd
    40e2201c:	ab5f0f13          	addi	x30,x30,-1355
    40e22020:	d03e77d3          	fcvt.s.lu	f15,x28
    40e22024:	d03f7b53          	fcvt.s.lu	f22,x30
    40e22028:	0367f953          	fadd.d	f18,f15,f22
    40e2202c:	721556b7          	lui	x13,0x72155
    40e22030:	e796869b          	addiw	x13,x13,-391 # 72154e79 <pma_region_2_end+0x2d113e79>
    40e22034:	000ccb37          	lui	x22,0xcc
    40e22038:	f87b0b1b          	addiw	x22,x22,-121 # cbf87 <mem22__pt_level2+0x2ff87>
    40e2203c:	00cb1b13          	slli	x22,x22,0xc
    40e22040:	547b0b13          	addi	x22,x22,1351
    40e22044:	d036f4d3          	fcvt.s.lu	f9,x13
    40e22048:	d01b7953          	fcvt.s.wu	f18,x22
    40e2204c:	1924f9d3          	fdiv.s	f19,f9,f18
    40e22050:	6a27ec37          	lui	x24,0x6a27e
    40e22054:	0e2c0c1b          	addiw	x24,x24,226 # 6a27e0e2 <pma_region_2_end+0x2523d0e2>
    40e22058:	0002fcb7          	lui	x25,0x2f
    40e2205c:	007c8c9b          	addiw	x25,x25,7 # 2f007 <SID_PBVMS_043_fetch_window_spill_page_cross_stack+0x7007>
    40e22060:	00ec9c93          	slli	x25,x25,0xe
    40e22064:	fd1c8c93          	addi	x25,x25,-47
    40e22068:	d20c07d3          	fcvt.d.w	f15,x24
    40e2206c:	d00cffd3          	fcvt.s.w	f31,x25
    40e22070:	11f7f6d3          	fmul.s	f13,f15,f31
    40e22074:	00043f37          	lui	x30,0x43
    40e22078:	3f3f0f1b          	addiw	x30,x30,1011 # 433f3 <pma_region_0_size+0x33f3>
    40e2207c:	00df1f13          	slli	x30,x30,0xd
    40e22080:	e18f0f13          	addi	x30,x30,-488
    40e22084:	0001dab7          	lui	x21,0x1d
    40e22088:	02da8a9b          	addiw	x21,x21,45 # 1d02d <mem6__pt_level3+0x2d>
    40e2208c:	00fa9a93          	slli	x21,x21,0xf
    40e22090:	564a8a93          	addi	x21,x21,1380
    40e22094:	035f4bbb          	divw	x23,x30,x21
    40e22098:	00008067          	ret

Disassembly of section .mem0:

000000000015c000 <.mem0>:
  15c000:	c0de                	.insn	2, 0xc0de
  15c002:	c001                	.insn	2, 0xc001
  15c004:	0000                	.insn	2, 0x0000
	...

Disassembly of section .mem2:

000000002f7d2000 <.mem2>:
    2f7d2000:	c0de                	.insn	2, 0xc0de
    2f7d2002:	c001                	.insn	2, 0xc001
    2f7d2004:	0000                	.insn	2, 0x0000
	...

Disassembly of section .mem3:

000000000d600000 <.mem3>:
 d600000:	c0de                	.insn	2, 0xc0de
 d600002:	c001                	.insn	2, 0xc001
 d600004:	0000                	.insn	2, 0x0000
	...

Disassembly of section .mem5:

0000000036d9e000 <.mem5>:
    36d9e000:	c0de                	.insn	2, 0xc0de
    36d9e002:	c001                	.insn	2, 0xc001
    36d9e004:	0000                	.insn	2, 0x0000
	...

Disassembly of section .mem6:

000b000000000000 <.mem6>:
   b000000000000:	c0de                	.insn	2, 0xc0de
   b000000000002:	c001                	.insn	2, 0xc001
   b000000000004:	0000                	.insn	2, 0x0000
	...

Disassembly of section .mem7:

0000000185000000 <.mem7>:
   185000000:	c0de                	.insn	2, 0xc0de
   185000002:	c001                	.insn	2, 0xc001
   185000004:	0000                	.insn	2, 0x0000
	...

Disassembly of section .mem8:

0000001532e00000 <.mem8>:
  1532e00000:	c0de                	.insn	2, 0xc0de
  1532e00002:	c001                	.insn	2, 0xc001
  1532e00004:	0000                	.insn	2, 0x0000
	...

Disassembly of section .mem9:

0064000000000000 <.mem9>:
  64000000000000:	c0de                	.insn	2, 0xc0de
  64000000000002:	c001                	.insn	2, 0xc001
  64000000000004:	0000                	.insn	2, 0x0000
	...

Disassembly of section .mem10:

0001000000000000 <.mem10>:
   1000000000000:	c0de                	.insn	2, 0xc0de
   1000000000002:	c001                	.insn	2, 0xc001
   1000000000004:	0000                	.insn	2, 0x0000
	...

Disassembly of section .mem11:

0004000000000000 <.mem11>:
   4000000000000:	c0de                	.insn	2, 0xc0de
   4000000000002:	c001                	.insn	2, 0xc001
   4000000000004:	0000                	.insn	2, 0x0000
	...

Disassembly of section .mem12:

ff763abdeaca7000 <.mem12>:
ff763abdeaca7000:	c0de                	.insn	2, 0xc0de
ff763abdeaca7002:	c001                	.insn	2, 0xc001
ff763abdeaca7004:	0000                	.insn	2, 0x0000
	...

Disassembly of section .mem13:

0000099e33d22000 <.mem13>:
 99e33d22000:	c0de                	.insn	2, 0xc0de
 99e33d22002:	c001                	.insn	2, 0xc001
 99e33d22004:	0000                	.insn	2, 0x0000
	...

Disassembly of section .mem14:

00000000e88b9000 <.mem14>:
    e88b9000:	c0de                	.insn	2, 0xc0de
    e88b9002:	c001                	.insn	2, 0xc001
    e88b9004:	0000                	.insn	2, 0x0000
	...

Disassembly of section .mem15:

00000271aa3e8000 <.mem15>:
 271aa3e8000:	c0de                	.insn	2, 0xc0de
 271aa3e8002:	c001                	.insn	2, 0xc001
 271aa3e8004:	0000                	.insn	2, 0x0000
	...

Disassembly of section .mem17:

0003fb9452eff000 <.mem17>:
   3fb9452eff000:	c0de                	.insn	2, 0xc0de
   3fb9452eff002:	c001                	.insn	2, 0xc001
   3fb9452eff004:	0000                	.insn	2, 0x0000
	...

Disassembly of section .mem18:

00000003a1b0f000 <.mem18>:
   3a1b0f000:	c0de                	.insn	2, 0xc0de
   3a1b0f002:	c001                	.insn	2, 0xc001
   3a1b0f004:	0000                	.insn	2, 0x0000
	...

Disassembly of section .mem19:

0000025bac07c000 <.mem19>:
 25bac07c000:	c0de                	.insn	2, 0xc0de
 25bac07c002:	c001                	.insn	2, 0xc001
 25bac07c004:	0000                	.insn	2, 0x0000
	...

Disassembly of section .mem20:

00027a40cf078000 <.mem20>:
   27a40cf078000:	c0de                	.insn	2, 0xc0de
   27a40cf078002:	c001                	.insn	2, 0xc001
   27a40cf078004:	0000                	.insn	2, 0x0000
	...

Disassembly of section .mem21:

ffe4000000000000 <.mem21>:
ffe4000000000000:	c0de                	.insn	2, 0xc0de
ffe4000000000002:	c001                	.insn	2, 0xc001
ffe4000000000004:	0000                	.insn	2, 0x0000
	...

Disassembly of section .mem22:

0012000000000000 <.mem22>:
  12000000000000:	c0de                	.insn	2, 0xc0de
  12000000000002:	c001                	.insn	2, 0xc001
  12000000000004:	0000                	.insn	2, 0x0000
	...

Disassembly of section .mem23:

0000004ed5d51000 <.mem23>:
  4ed5d51000:	c0de                	.insn	2, 0xc0de
  4ed5d51002:	c001                	.insn	2, 0xc001
  4ed5d51004:	0000                	.insn	2, 0x0000
	...

Disassembly of section .mem25:

0000000000008000 <.mem25>:
    8000:	c0de                	.insn	2, 0xc0de
    8002:	c001                	.insn	2, 0xc001
    8004:	0000                	.insn	2, 0x0000
	...

Disassembly of section .mem26:

0000000007c00000 <.mem26>:
 7c00000:	c0de                	.insn	2, 0xc0de
 7c00002:	c001                	.insn	2, 0xc001
 7c00004:	0000                	.insn	2, 0x0000
	...

Disassembly of section .tp_csr_storage:

000001d92b9ee000 <.tp_csr_storage>:
 1d92b9ee000:	c0de                	.insn	2, 0xc0de
 1d92b9ee002:	c001                	.insn	2, 0xc001
 1d92b9ee004:	0000                	.insn	2, 0x0000
	...

Disassembly of section .SID_PBVMS_001_ptw_no_faults_all_access_types_stack:

000019f5a70df000 <.SID_PBVMS_001_ptw_no_faults_all_access_types_stack>:
    19f5a70df000:	c0de                	.insn	2, 0xc0de
    19f5a70df002:	c001                	.insn	2, 0xc001
    19f5a70df004:	0000                	.insn	2, 0x0000
	...

Disassembly of section .SID_PBVMS_003_ptw_all_privilege_modes_stack:

000000000d8dc000 <.SID_PBVMS_003_ptw_all_privilege_modes_stack>:
 d8dc000:	c0de                	.insn	2, 0xc0de
 d8dc002:	c001                	.insn	2, 0xc001
 d8dc004:	0000                	.insn	2, 0x0000
	...

Disassembly of section .SID_PBVMS_006_ptw_page_boundary_crossing_stack:

0000000d22c3e000 <.SID_PBVMS_006_ptw_page_boundary_crossing_stack>:
   d22c3e000:	c0de                	.insn	2, 0xc0de
   d22c3e002:	c001                	.insn	2, 0xc001
   d22c3e004:	0000                	.insn	2, 0x0000
	...

Disassembly of section .SID_PBVMS_008_va_sign_extension_fault_stack:

000008610a644000 <.SID_PBVMS_008_va_sign_extension_fault_stack>:
 8610a644000:	c0de                	.insn	2, 0xc0de
 8610a644002:	c001                	.insn	2, 0xc001
 8610a644004:	0000                	.insn	2, 0x0000
	...

Disassembly of section .SID_PBVMS_009_superpage_alignment_fault_stack:

0003ff2c4da97000 <.SID_PBVMS_009_superpage_alignment_fault_stack>:
   3ff2c4da97000:	c0de                	.insn	2, 0xc0de
   3ff2c4da97002:	c001                	.insn	2, 0xc001
   3ff2c4da97004:	0000                	.insn	2, 0x0000
	...

Disassembly of section .SID_PBVMS_011_ptw_fault_boundary_crossing_stack:

0000021fa163e000 <.SID_PBVMS_011_ptw_fault_boundary_crossing_stack>:
 21fa163e000:	c0de                	.insn	2, 0xc0de
 21fa163e002:	c001                	.insn	2, 0xc001
 21fa163e004:	0000                	.insn	2, 0x0000
	...

Disassembly of section .SID_PBVMS_012_ptw_fault_prioritization_stack:

00000000000f2000 <.SID_PBVMS_012_ptw_fault_prioritization_stack>:
   f2000:	c0de                	.insn	2, 0xc0de
   f2002:	c001                	.insn	2, 0xc001
   f2004:	0000                	.insn	2, 0x0000
	...

Disassembly of section .SID_PBVMS_013_ptw_permission_encodings_stack:

000000f9a6a83000 <.SID_PBVMS_013_ptw_permission_encodings_stack>:
  f9a6a83000:	c0de                	.insn	2, 0xc0de
  f9a6a83002:	c001                	.insn	2, 0xc001
  f9a6a83004:	0000                	.insn	2, 0x0000
	...

Disassembly of section .SID_PBVMS_014_mstatus_sum_mxr_stack:

00000037ed9ff000 <.SID_PBVMS_014_mstatus_sum_mxr_stack>:
  37ed9ff000:	c0de                	.insn	2, 0xc0de
  37ed9ff002:	c001                	.insn	2, 0xc001
  37ed9ff004:	0000                	.insn	2, 0x0000
	...

Disassembly of section .SID_PBVMS_015_global_bit_honoured_stack:

00000001748ad000 <.SID_PBVMS_015_global_bit_honoured_stack>:
   1748ad000:	c0de                	.insn	2, 0xc0de
   1748ad002:	c001                	.insn	2, 0xc001
   1748ad004:	0000                	.insn	2, 0x0000
	...

Disassembly of section .SID_PBVMS_017_global_at_non_leaf_stack:

00000047737a7000 <.SID_PBVMS_017_global_at_non_leaf_stack>:
  47737a7000:	c0de                	.insn	2, 0xc0de
  47737a7002:	c001                	.insn	2, 0xc001
  47737a7004:	0000                	.insn	2, 0x0000
	...

Disassembly of section .SID_PBVMS_018_rsw_fields_writable_stack:

000000000000d000 <.SID_PBVMS_018_rsw_fields_writable_stack>:
    d000:	c0de                	.insn	2, 0xc0de
    d002:	c001                	.insn	2, 0xc001
    d004:	0000                	.insn	2, 0x0000
	...

Disassembly of section .SID_PBVMS_021_satp_valid_to_reserved_stack:

00000003d0d43000 <.SID_PBVMS_021_satp_valid_to_reserved_stack>:
   3d0d43000:	c0de                	.insn	2, 0xc0de
   3d0d43002:	c001                	.insn	2, 0xc001
   3d0d43004:	0000                	.insn	2, 0x0000
	...

Disassembly of section .SID_PBVMS_022_satp_csr_accessibility_stack:

000007dd744b1000 <.SID_PBVMS_022_satp_csr_accessibility_stack>:
 7dd744b1000:	c0de                	.insn	2, 0xc0de
 7dd744b1002:	c001                	.insn	2, 0xc001
 7dd744b1004:	0000                	.insn	2, 0x0000
	...

Disassembly of section .SID_PBVMS_023_satp_asidlen_discovery_stack:

0000000003efa000 <.SID_PBVMS_023_satp_asidlen_discovery_stack>:
 3efa000:	c0de                	.insn	2, 0xc0de
 3efa002:	c001                	.insn	2, 0xc001
 3efa004:	0000                	.insn	2, 0x0000
	...

Disassembly of section .SID_PBVMS_027_satp_user_mode_fault_stack:

000000017a495000 <.SID_PBVMS_027_satp_user_mode_fault_stack>:
   17a495000:	c0de                	.insn	2, 0xc0de
   17a495002:	c001                	.insn	2, 0xc001
   17a495004:	0000                	.insn	2, 0x0000
	...

Disassembly of section .SID_PBVMS_040_context_table_overflow_stack:

000000e9a461b000 <.SID_PBVMS_040_context_table_overflow_stack>:
  e9a461b000:	c0de                	.insn	2, 0xc0de
  e9a461b002:	c001                	.insn	2, 0xc001
  e9a461b004:	0000                	.insn	2, 0x0000
	...

Disassembly of section .SID_PBVMS_042_canonical_boundary_crossing_fault_stack:

000001c9e465d000 <.SID_PBVMS_042_canonical_boundary_crossing_fault_stack>:
 1c9e465d000:	c0de                	.insn	2, 0xc0de
 1c9e465d002:	c001                	.insn	2, 0xc001
 1c9e465d004:	0000                	.insn	2, 0x0000
	...

Disassembly of section .SID_PBVMS_043_fetch_window_spill_page_cross_stack:

0000000000028000 <.SID_PBVMS_043_fetch_window_spill_page_cross_stack>:
   28000:	c0de                	.insn	2, 0xc0de
   28002:	c001                	.insn	2, 0xc001
   28004:	0000                	.insn	2, 0x0000
	...

Disassembly of section .__pagetable_map_os_0x0000000044e2e000:

0000000044e2e000 <__pagetable_map_os_0x0000000044e2e000>:
    44e2e000:	f001                	.insn	2, 0xf001
    44e2e002:	113c                	.insn	2, 0x113c
    44e2e004:	0000                	.insn	2, 0x0000
    44e2e006:	0000                	.insn	2, 0x0000
    44e2e008:	0001                	.insn	2, 0x0001
    44e2e00a:	111c                	.insn	2, 0x111c
    44e2e00c:	0000                	.insn	2, 0x0000
    44e2e00e:	0000                	.insn	2, 0x0000
    44e2e010:	d801                	.insn	2, 0xd801
    44e2e012:	110e                	.insn	2, 0x110e
    44e2e014:	0000                	.insn	2, 0x0000
    44e2e016:	0000                	.insn	2, 0x0000
    44e2e018:	8001                	.insn	2, 0x8001
    44e2e01a:	111f 0000 0000      	.insn	6, 0x111f
    44e2e020:	cc01                	.insn	2, 0xcc01
    44e2e022:	000010cb          	fnmsub.s	f1,f0,f0,f0,rtz
	...
    44e2e056:	0000                	.insn	2, 0x0000
    44e2e058:	f401                	.insn	2, 0xf401
    44e2e05a:	104e                	.insn	2, 0x104e
	...
    44e2e070:	3001                	.insn	2, 0x3001
    44e2e072:	113a                	.insn	2, 0x113a
	...
    44e2e090:	1001                	.insn	2, 0x1001
    44e2e092:	113d                	.insn	2, 0x113d
	...
    44e2e320:	3c01                	.insn	2, 0x3c01
    44e2e322:	1140                	.insn	2, 0x1140
	...
    44e2ebb0:	e001                	.insn	2, 0xe001
    44e2ebb2:	111f 0000 0000      	.insn	6, 0x111f
	...
    44e2ef20:	4401                	.insn	2, 0x4401
    44e2ef22:	1132                	.insn	2, 0x1132
    44e2ef24:	0000                	.insn	2, 0x0000
	...

Disassembly of section .__pagetable_map_os_0x0000000044f3c000:

0000000044f3c000 <__pagetable_map_os_0x0000000044f3c000>:
    44f3c000:	ac01                	.insn	2, 0xac01
    44f3c002:	00001107          	flh	f2,0(x0) # 0 <ALL_4KB_PAGES>
    44f3c006:	0000                	.insn	2, 0x0000
    44f3c008:	c801                	.insn	2, 0xc801
    44f3c00a:	000010ff 00000000 	.insn	12, 0x10ff
    44f3c012:	00000000 
    44f3c016:	0000                	.insn	2, 0x0000
    44f3c018:	d801                	.insn	2, 0xd801
    44f3c01a:	104e                	.insn	2, 0x104e
    44f3c01c:	0000                	.insn	2, 0x0000
    44f3c01e:	0000                	.insn	2, 0x0000
    44f3c020:	9801                	.insn	2, 0x9801
    44f3c022:	0000111b          	slliw	x2,x0,0x0
	...
    44f3c076:	0000                	.insn	2, 0x0000
    44f3c078:	b001                	.insn	2, 0xb001
    44f3c07a:	0000111b          	slliw	x2,x0,0x0
    44f3c07e:	0000                	.insn	2, 0x0000
    44f3c080:	4801                	.insn	2, 0x4801
    44f3c082:	1136                	.insn	2, 0x1136
	...
    44f3c098:	3401                	.insn	2, 0x3401
    44f3c09a:	113d                	.insn	2, 0x113d
	...
    44f3c198:	e401                	.insn	2, 0xe401
    44f3c19a:	106c                	.insn	2, 0x106c
	...
    44f3c1a8:	9801                	.insn	2, 0x9801
    44f3c1aa:	1055                	.insn	2, 0x1055
    44f3c1ac:	0000                	.insn	2, 0x0000
	...

Disassembly of section .__pagetable_map_os_0x00000000441eb000:

00000000441eb000 <__pagetable_map_os_0x00000000441eb000>:
    441eb000:	3001                	.insn	2, 0x3001
    441eb002:	1136                	.insn	2, 0x1136
    441eb004:	0000                	.insn	2, 0x0000
    441eb006:	0000                	.insn	2, 0x0000
    441eb008:	1c01                	.insn	2, 0x1c01
    441eb00a:	1136                	.insn	2, 0x1136
	...
    441eb018:	0001                	.insn	2, 0x0001
    441eb01a:	000010eb          	.insn	4, 0x10eb
    441eb01e:	0000                	.insn	2, 0x0000
    441eb020:	ec01                	.insn	2, 0xec01
    441eb022:	112e                	.insn	2, 0x112e
    441eb024:	0000                	.insn	2, 0x0000
    441eb026:	0000                	.insn	2, 0x0000
    441eb028:	d401                	.insn	2, 0xd401
    441eb02a:	1134                	.insn	2, 0x1134
    441eb02c:	0000                	.insn	2, 0x0000
    441eb02e:	0000                	.insn	2, 0x0000
    441eb030:	d801                	.insn	2, 0xd801
    441eb032:	112d                	.insn	2, 0x112d
	...
    441eb070:	e401                	.insn	2, 0xe401
    441eb072:	000010d7          	vfadd.vv	v1,v0,v0,v0.t
    441eb076:	0000                	.insn	2, 0x0000
    441eb078:	d801                	.insn	2, 0xd801
    441eb07a:	0000111b          	slliw	x2,x0,0x0
	...
    441eb0ce:	0000                	.insn	2, 0x0000
    441eb0d0:	3401                	.insn	2, 0x3401
    441eb0d2:	0000110f          	.insn	4, 0x110f
	...
    441eb186:	0000                	.insn	2, 0x0000
    441eb188:	0801                	.insn	2, 0x0801
    441eb18a:	106d                	.insn	2, 0x106d
	...
    441eb1a0:	b401                	.insn	2, 0xb401
    441eb1a2:	0000106b          	.insn	4, 0x106b
	...
    441eb266:	0000                	.insn	2, 0x0000
    441eb268:	8c01                	.insn	2, 0x8c01
    441eb26a:	0000111b          	slliw	x2,x0,0x0
	...
    441eb29e:	0000                	.insn	2, 0x0000
    441eb2a0:	6801                	.insn	2, 0x6801
    441eb2a2:	10ed                	.insn	2, 0x10ed
	...
    441eb2c0:	f401                	.insn	2, 0xf401
    441eb2c2:	10e8                	.insn	2, 0x10e8
	...
    441eb2e8:	9001                	.insn	2, 0x9001
    441eb2ea:	111e                	.insn	2, 0x111e
	...
    441eb6f0:	e401                	.insn	2, 0xe401
    441eb6f2:	111f 0000 0000      	.insn	6, 0x111f
    441eb6f8:	3c01                	.insn	2, 0x3c01
    441eb6fa:	10f6                	.insn	2, 0x10f6
	...
    441eb7b0:	4801                	.insn	2, 0x4801
    441eb7b2:	1140                	.insn	2, 0x1140
	...
    441eb8e8:	5c01                	.insn	2, 0x5c01
    441eb8ea:	1108                	.insn	2, 0x1108
	...
    441eb990:	0001                	.insn	2, 0x0001
    441eb992:	110d                	.insn	2, 0x110d
	...
    441eb9d8:	9001                	.insn	2, 0x9001
    441eb9da:	1055                	.insn	2, 0x1055
    441eb9dc:	0000                	.insn	2, 0x0000
	...

Disassembly of section .__pagetable_map_os_0x0000000044d87000:

0000000044d87000 <__pagetable_map_os_0x0000000044d87000>:
	...
    44d87038:	3c01                	.insn	2, 0x3c01
    44d8703a:	000010ff 38010000 	.insn	12, 0x114038010000000010ff
    44d87042:	00001140 
    44d87046:	0000                	.insn	2, 0x0000
    44d87048:	3c01                	.insn	2, 0x3c01
    44d8704a:	0000110f          	.insn	4, 0x110f
	...
    44d87136:	0000                	.insn	2, 0x0000
    44d87138:	2401                	.insn	2, 0x2401
    44d8713a:	1136                	.insn	2, 0x1136
    44d8713c:	0000                	.insn	2, 0x0000
	...

Disassembly of section .__pagetable_map_os_0x000000004500e000:

000000004500e000 <__pagetable_map_os_0x000000004500e000>:
	...
    4500e080:	40df 1040 0000      	.insn	6, 0x104040df
    4500e086:	0000                	.insn	2, 0x0000
    4500e088:	104044cf          	fnmadd.s	f9,f0,f4,f2,rmm
    4500e08c:	0000                	.insn	2, 0x0000
    4500e08e:	0000                	.insn	2, 0x0000
    4500e090:	104048cf          	fnmadd.s	f17,f0,f4,f2,rmm
    4500e094:	0000                	.insn	2, 0x0000
    4500e096:	0000                	.insn	2, 0x0000
    4500e098:	10404ccf          	fnmadd.s	f25,f0,f4,f2,rmm
    4500e09c:	0000                	.insn	2, 0x0000
    4500e09e:	0000                	.insn	2, 0x0000
    4500e0a0:	104050cf          	fnmadd.s	f1,f0,f4,f2,unknown
    4500e0a4:	0000                	.insn	2, 0x0000
    4500e0a6:	0000                	.insn	2, 0x0000
    4500e0a8:	00df 1120 0000      	.insn	6, 0x112000df
    4500e0ae:	0000                	.insn	2, 0x0000
    4500e0b0:	04df 1120 0000      	.insn	6, 0x112004df
    4500e0b6:	0000                	.insn	2, 0x0000
    4500e0b8:	08df 1120 0000      	.insn	6, 0x112008df
    4500e0be:	0000                	.insn	2, 0x0000
    4500e0c0:	0cdf 1120 0000      	.insn	6, 0x11200cdf
    4500e0c6:	0000                	.insn	2, 0x0000
    4500e0c8:	10df 1120 0000      	.insn	6, 0x112010df
    4500e0ce:	0000                	.insn	2, 0x0000
    4500e0d0:	14df 1120 0000      	.insn	6, 0x112014df
    4500e0d6:	0000                	.insn	2, 0x0000
    4500e0d8:	18df 1120 0000      	.insn	6, 0x112018df
    4500e0de:	0000                	.insn	2, 0x0000
    4500e0e0:	1cdf 1120 0000      	.insn	6, 0x11201cdf
    4500e0e6:	0000                	.insn	2, 0x0000
    4500e0e8:	20df 1120 0000      	.insn	6, 0x112020df
    4500e0ee:	0000                	.insn	2, 0x0000
    4500e0f0:	24df 1120 0000      	.insn	6, 0x112024df
    4500e0f6:	0000                	.insn	2, 0x0000
    4500e0f8:	28df 1120 0000      	.insn	6, 0x112028df
    4500e0fe:	0000                	.insn	2, 0x0000
    4500e100:	2cdf 1120 0000      	.insn	6, 0x11202cdf
    4500e106:	0000                	.insn	2, 0x0000
    4500e108:	30df 1120 0000      	.insn	6, 0x112030df
    4500e10e:	0000                	.insn	2, 0x0000
    4500e110:	34df 1120 0000      	.insn	6, 0x112034df
    4500e116:	0000                	.insn	2, 0x0000
    4500e118:	38df 1120 0000      	.insn	6, 0x112038df
    4500e11e:	0000                	.insn	2, 0x0000
    4500e120:	3cdf 1120 0000      	.insn	6, 0x11203cdf
    4500e126:	0000                	.insn	2, 0x0000
    4500e128:	40df 1120 0000      	.insn	6, 0x112040df
    4500e12e:	0000                	.insn	2, 0x0000
    4500e130:	44df 1120 0000      	.insn	6, 0x112044df
    4500e136:	0000                	.insn	2, 0x0000
    4500e138:	48df 1120 0000      	.insn	6, 0x112048df
    4500e13e:	0000                	.insn	2, 0x0000
    4500e140:	4cdf 1120 0000      	.insn	6, 0x11204cdf
    4500e146:	0000                	.insn	2, 0x0000
    4500e148:	50df 1120 0000      	.insn	6, 0x112050df
    4500e14e:	0000                	.insn	2, 0x0000
    4500e150:	54df 1120 0000      	.insn	6, 0x112054df
    4500e156:	0000                	.insn	2, 0x0000
    4500e158:	58df 1120 0000      	.insn	6, 0x112058df
    4500e15e:	0000                	.insn	2, 0x0000
    4500e160:	5cdf 1120 0000      	.insn	6, 0x11205cdf
    4500e166:	0000                	.insn	2, 0x0000
    4500e168:	60df 1120 0000      	.insn	6, 0x112060df
    4500e16e:	0000                	.insn	2, 0x0000
    4500e170:	64df 1120 0000      	.insn	6, 0x112064df
    4500e176:	0000                	.insn	2, 0x0000
    4500e178:	68df 1120 0000      	.insn	6, 0x112068df
    4500e17e:	0000                	.insn	2, 0x0000
    4500e180:	6cdf 1120 0000      	.insn	6, 0x11206cdf
    4500e186:	0000                	.insn	2, 0x0000
    4500e188:	70df 1120 0000      	.insn	6, 0x112070df
    4500e18e:	0000                	.insn	2, 0x0000
    4500e190:	74df 1120 0000      	.insn	6, 0x112074df
    4500e196:	0000                	.insn	2, 0x0000
    4500e198:	78df 1120 0000      	.insn	6, 0x112078df
    4500e19e:	0000                	.insn	2, 0x0000
    4500e1a0:	7cdf 1120 0000      	.insn	6, 0x11207cdf
    4500e1a6:	0000                	.insn	2, 0x0000
    4500e1a8:	80df 1120 0000      	.insn	6, 0x112080df
    4500e1ae:	0000                	.insn	2, 0x0000
    4500e1b0:	84df 1120 0000      	.insn	6, 0x112084df
    4500e1b6:	0000                	.insn	2, 0x0000
    4500e1b8:	88df 1120 0000      	.insn	6, 0x112088df
    4500e1be:	0000                	.insn	2, 0x0000
    4500e1c0:	8cdf 1120 0000      	.insn	6, 0x11208cdf
    4500e1c6:	0000                	.insn	2, 0x0000
    4500e1c8:	90df 1120 0000      	.insn	6, 0x112090df
    4500e1ce:	0000                	.insn	2, 0x0000
    4500e1d0:	94df 1120 0000      	.insn	6, 0x112094df
    4500e1d6:	0000                	.insn	2, 0x0000
    4500e1d8:	98df 1120 0000      	.insn	6, 0x112098df
    4500e1de:	0000                	.insn	2, 0x0000
    4500e1e0:	9cdf 1120 0000      	.insn	6, 0x11209cdf
    4500e1e6:	0000                	.insn	2, 0x0000
    4500e1e8:	a0df 1120 0000      	.insn	6, 0x1120a0df
    4500e1ee:	0000                	.insn	2, 0x0000
    4500e1f0:	a4df 1120 0000      	.insn	6, 0x1120a4df
    4500e1f6:	0000                	.insn	2, 0x0000
    4500e1f8:	a8df 1120 0000      	.insn	6, 0x1120a8df
    4500e1fe:	0000                	.insn	2, 0x0000
    4500e200:	00df 1041 0000      	.insn	6, 0x104100df
    4500e206:	0000                	.insn	2, 0x0000
    4500e208:	b0df 1120 0000      	.insn	6, 0x1120b0df
    4500e20e:	0000                	.insn	2, 0x0000
    4500e210:	b4df 1120 0000      	.insn	6, 0x1120b4df
    4500e216:	0000                	.insn	2, 0x0000
    4500e218:	b8df 1120 0000      	.insn	6, 0x1120b8df
    4500e21e:	0000                	.insn	2, 0x0000
    4500e220:	bcdf 1120 0000      	.insn	6, 0x1120bcdf
    4500e226:	0000                	.insn	2, 0x0000
    4500e228:	c0df 1120 0000      	.insn	6, 0x1120c0df
    4500e22e:	0000                	.insn	2, 0x0000
    4500e230:	c4df 1120 0000      	.insn	6, 0x1120c4df
    4500e236:	0000                	.insn	2, 0x0000
    4500e238:	c8df 1120 0000      	.insn	6, 0x1120c8df
    4500e23e:	0000                	.insn	2, 0x0000
    4500e240:	ccdf 1120 0000      	.insn	6, 0x1120ccdf
    4500e246:	0000                	.insn	2, 0x0000
    4500e248:	d0df 1120 0000      	.insn	6, 0x1120d0df
    4500e24e:	0000                	.insn	2, 0x0000
    4500e250:	d4df 1120 0000      	.insn	6, 0x1120d4df
    4500e256:	0000                	.insn	2, 0x0000
    4500e258:	d8df 1120 0000      	.insn	6, 0x1120d8df
    4500e25e:	0000                	.insn	2, 0x0000
    4500e260:	dcdf 1120 0000      	.insn	6, 0x1120dcdf
    4500e266:	0000                	.insn	2, 0x0000
    4500e268:	e0df 1120 0000      	.insn	6, 0x1120e0df
    4500e26e:	0000                	.insn	2, 0x0000
    4500e270:	e4df 1120 0000      	.insn	6, 0x1120e4df
    4500e276:	0000                	.insn	2, 0x0000
    4500e278:	e8df 1120 0000      	.insn	6, 0x1120e8df
    4500e27e:	0000                	.insn	2, 0x0000
    4500e280:	ecdf 1120 0000      	.insn	6, 0x1120ecdf
    4500e286:	0000                	.insn	2, 0x0000
    4500e288:	f0df 1120 0000      	.insn	6, 0x1120f0df
    4500e28e:	0000                	.insn	2, 0x0000
    4500e290:	f4df 1120 0000      	.insn	6, 0x1120f4df
    4500e296:	0000                	.insn	2, 0x0000
    4500e298:	f8df 1120 0000      	.insn	6, 0x1120f8df
    4500e29e:	0000                	.insn	2, 0x0000
    4500e2a0:	fcdf 1120 0000      	.insn	6, 0x1120fcdf
    4500e2a6:	0000                	.insn	2, 0x0000
    4500e2a8:	00df 1121 0000      	.insn	6, 0x112100df
    4500e2ae:	0000                	.insn	2, 0x0000
    4500e2b0:	04df 1121 0000      	.insn	6, 0x112104df
    4500e2b6:	0000                	.insn	2, 0x0000
    4500e2b8:	08df 1121 0000      	.insn	6, 0x112108df
    4500e2be:	0000                	.insn	2, 0x0000
    4500e2c0:	0cdf 1121 0000      	.insn	6, 0x11210cdf
    4500e2c6:	0000                	.insn	2, 0x0000
    4500e2c8:	10df 1121 0000      	.insn	6, 0x112110df
    4500e2ce:	0000                	.insn	2, 0x0000
    4500e2d0:	14df 1121 0000      	.insn	6, 0x112114df
    4500e2d6:	0000                	.insn	2, 0x0000
    4500e2d8:	18df 1121 0000      	.insn	6, 0x112118df
    4500e2de:	0000                	.insn	2, 0x0000
    4500e2e0:	1cdf 1121 0000      	.insn	6, 0x11211cdf
    4500e2e6:	0000                	.insn	2, 0x0000
    4500e2e8:	20df 1121 0000      	.insn	6, 0x112120df
    4500e2ee:	0000                	.insn	2, 0x0000
    4500e2f0:	24df 1121 0000      	.insn	6, 0x112124df
    4500e2f6:	0000                	.insn	2, 0x0000
    4500e2f8:	28df 1121 0000      	.insn	6, 0x112128df
    4500e2fe:	0000                	.insn	2, 0x0000
    4500e300:	2cdf 1121 0000      	.insn	6, 0x11212cdf
    4500e306:	0000                	.insn	2, 0x0000
    4500e308:	30df 1121 0000      	.insn	6, 0x112130df
    4500e30e:	0000                	.insn	2, 0x0000
    4500e310:	34df 1121 0000      	.insn	6, 0x112134df
    4500e316:	0000                	.insn	2, 0x0000
    4500e318:	38df 1121 0000      	.insn	6, 0x112138df
    4500e31e:	0000                	.insn	2, 0x0000
    4500e320:	3cdf 1121 0000      	.insn	6, 0x11213cdf
    4500e326:	0000                	.insn	2, 0x0000
    4500e328:	40df 1121 0000      	.insn	6, 0x112140df
    4500e32e:	0000                	.insn	2, 0x0000
    4500e330:	44df 1121 0000      	.insn	6, 0x112144df
    4500e336:	0000                	.insn	2, 0x0000
    4500e338:	48df 1121 0000      	.insn	6, 0x112148df
    4500e33e:	0000                	.insn	2, 0x0000
    4500e340:	4cdf 1121 0000      	.insn	6, 0x11214cdf
    4500e346:	0000                	.insn	2, 0x0000
    4500e348:	50df 1121 0000      	.insn	6, 0x112150df
    4500e34e:	0000                	.insn	2, 0x0000
    4500e350:	54df 1121 0000      	.insn	6, 0x112154df
    4500e356:	0000                	.insn	2, 0x0000
    4500e358:	58df 1121 0000      	.insn	6, 0x112158df
    4500e35e:	0000                	.insn	2, 0x0000
    4500e360:	5cdf 1121 0000      	.insn	6, 0x11215cdf
    4500e366:	0000                	.insn	2, 0x0000
    4500e368:	60df 1121 0000      	.insn	6, 0x112160df
    4500e36e:	0000                	.insn	2, 0x0000
    4500e370:	64df 1121 0000      	.insn	6, 0x112164df
    4500e376:	0000                	.insn	2, 0x0000
    4500e378:	68df 1121 0000      	.insn	6, 0x112168df
    4500e37e:	0000                	.insn	2, 0x0000
    4500e380:	6cdf 1121 0000      	.insn	6, 0x11216cdf
    4500e386:	0000                	.insn	2, 0x0000
    4500e388:	70df 1121 0000      	.insn	6, 0x112170df
    4500e38e:	0000                	.insn	2, 0x0000
    4500e390:	74df 1121 0000      	.insn	6, 0x112174df
    4500e396:	0000                	.insn	2, 0x0000
    4500e398:	78df 1121 0000      	.insn	6, 0x112178df
    4500e39e:	0000                	.insn	2, 0x0000
    4500e3a0:	7cdf 1121 0000      	.insn	6, 0x11217cdf
    4500e3a6:	0000                	.insn	2, 0x0000
    4500e3a8:	80df 1121 0000      	.insn	6, 0x112180df
    4500e3ae:	0000                	.insn	2, 0x0000
    4500e3b0:	84df 1121 0000      	.insn	6, 0x112184df
    4500e3b6:	0000                	.insn	2, 0x0000
    4500e3b8:	88df 1121 0000      	.insn	6, 0x112188df
    4500e3be:	0000                	.insn	2, 0x0000
    4500e3c0:	8cdf 1121 0000      	.insn	6, 0x11218cdf
    4500e3c6:	0000                	.insn	2, 0x0000
    4500e3c8:	90df 1121 0000      	.insn	6, 0x112190df
    4500e3ce:	0000                	.insn	2, 0x0000
    4500e3d0:	94df 1121 0000      	.insn	6, 0x112194df
    4500e3d6:	0000                	.insn	2, 0x0000
    4500e3d8:	98df 1121 0000      	.insn	6, 0x112198df
    4500e3de:	0000                	.insn	2, 0x0000
    4500e3e0:	9cdf 1121 0000      	.insn	6, 0x11219cdf
    4500e3e6:	0000                	.insn	2, 0x0000
    4500e3e8:	a0df 1121 0000      	.insn	6, 0x1121a0df
    4500e3ee:	0000                	.insn	2, 0x0000
    4500e3f0:	a4df 1121 0000      	.insn	6, 0x1121a4df
    4500e3f6:	0000                	.insn	2, 0x0000
    4500e3f8:	a8df 1121 0000      	.insn	6, 0x1121a8df
    4500e3fe:	0000                	.insn	2, 0x0000
    4500e400:	acdf 1121 0000      	.insn	6, 0x1121acdf
    4500e406:	0000                	.insn	2, 0x0000
    4500e408:	b0df 1121 0000      	.insn	6, 0x1121b0df
    4500e40e:	0000                	.insn	2, 0x0000
    4500e410:	b4df 1121 0000      	.insn	6, 0x1121b4df
    4500e416:	0000                	.insn	2, 0x0000
    4500e418:	b8df 1121 0000      	.insn	6, 0x1121b8df
    4500e41e:	0000                	.insn	2, 0x0000
    4500e420:	bcdf 1121 0000      	.insn	6, 0x1121bcdf
    4500e426:	0000                	.insn	2, 0x0000
    4500e428:	c0df 1121 0000      	.insn	6, 0x1121c0df
    4500e42e:	0000                	.insn	2, 0x0000
    4500e430:	c4df 1121 0000      	.insn	6, 0x1121c4df
    4500e436:	0000                	.insn	2, 0x0000
    4500e438:	c8df 1121 0000      	.insn	6, 0x1121c8df
    4500e43e:	0000                	.insn	2, 0x0000
    4500e440:	ccdf 1121 0000      	.insn	6, 0x1121ccdf
    4500e446:	0000                	.insn	2, 0x0000
    4500e448:	d0df 1121 0000      	.insn	6, 0x1121d0df
    4500e44e:	0000                	.insn	2, 0x0000
    4500e450:	d4df 1121 0000      	.insn	6, 0x1121d4df
    4500e456:	0000                	.insn	2, 0x0000
    4500e458:	d8df 1121 0000      	.insn	6, 0x1121d8df
    4500e45e:	0000                	.insn	2, 0x0000
    4500e460:	dcdf 1121 0000      	.insn	6, 0x1121dcdf
    4500e466:	0000                	.insn	2, 0x0000
    4500e468:	e0df 1121 0000      	.insn	6, 0x1121e0df
    4500e46e:	0000                	.insn	2, 0x0000
    4500e470:	e4df 1121 0000      	.insn	6, 0x1121e4df
    4500e476:	0000                	.insn	2, 0x0000
    4500e478:	e8df 1121 0000      	.insn	6, 0x1121e8df
    4500e47e:	0000                	.insn	2, 0x0000
    4500e480:	ecdf 1121 0000      	.insn	6, 0x1121ecdf
    4500e486:	0000                	.insn	2, 0x0000
    4500e488:	f0df 1121 0000      	.insn	6, 0x1121f0df
    4500e48e:	0000                	.insn	2, 0x0000
    4500e490:	f4df 1121 0000      	.insn	6, 0x1121f4df
    4500e496:	0000                	.insn	2, 0x0000
    4500e498:	f8df 1121 0000      	.insn	6, 0x1121f8df
    4500e49e:	0000                	.insn	2, 0x0000
    4500e4a0:	fcdf 1121 0000      	.insn	6, 0x1121fcdf
    4500e4a6:	0000                	.insn	2, 0x0000
    4500e4a8:	00df 1122 0000      	.insn	6, 0x112200df
    4500e4ae:	0000                	.insn	2, 0x0000
    4500e4b0:	04df 1122 0000      	.insn	6, 0x112204df
    4500e4b6:	0000                	.insn	2, 0x0000
    4500e4b8:	08df 1122 0000      	.insn	6, 0x112208df
    4500e4be:	0000                	.insn	2, 0x0000
    4500e4c0:	0cdf 1122 0000      	.insn	6, 0x11220cdf
    4500e4c6:	0000                	.insn	2, 0x0000
    4500e4c8:	10df 1122 0000      	.insn	6, 0x112210df
    4500e4ce:	0000                	.insn	2, 0x0000
    4500e4d0:	14df 1122 0000      	.insn	6, 0x112214df
    4500e4d6:	0000                	.insn	2, 0x0000
    4500e4d8:	18df 1122 0000      	.insn	6, 0x112218df
    4500e4de:	0000                	.insn	2, 0x0000
    4500e4e0:	1cdf 1122 0000      	.insn	6, 0x11221cdf
    4500e4e6:	0000                	.insn	2, 0x0000
    4500e4e8:	20df 1122 0000      	.insn	6, 0x112220df
    4500e4ee:	0000                	.insn	2, 0x0000
    4500e4f0:	24df 1122 0000      	.insn	6, 0x112224df
    4500e4f6:	0000                	.insn	2, 0x0000
    4500e4f8:	28df 1122 0000      	.insn	6, 0x112228df
    4500e4fe:	0000                	.insn	2, 0x0000
    4500e500:	2cdf 1122 0000      	.insn	6, 0x11222cdf
    4500e506:	0000                	.insn	2, 0x0000
    4500e508:	30df 1122 0000      	.insn	6, 0x112230df
    4500e50e:	0000                	.insn	2, 0x0000
    4500e510:	34df 1122 0000      	.insn	6, 0x112234df
    4500e516:	0000                	.insn	2, 0x0000
    4500e518:	38df 1122 0000      	.insn	6, 0x112238df
    4500e51e:	0000                	.insn	2, 0x0000
    4500e520:	3cdf 1122 0000      	.insn	6, 0x11223cdf
    4500e526:	0000                	.insn	2, 0x0000
    4500e528:	40df 1122 0000      	.insn	6, 0x112240df
    4500e52e:	0000                	.insn	2, 0x0000
    4500e530:	44df 1122 0000      	.insn	6, 0x112244df
    4500e536:	0000                	.insn	2, 0x0000
    4500e538:	48df 1122 0000      	.insn	6, 0x112248df
    4500e53e:	0000                	.insn	2, 0x0000
    4500e540:	4cdf 1122 0000      	.insn	6, 0x11224cdf
    4500e546:	0000                	.insn	2, 0x0000
    4500e548:	50df 1122 0000      	.insn	6, 0x112250df
    4500e54e:	0000                	.insn	2, 0x0000
    4500e550:	54df 1122 0000      	.insn	6, 0x112254df
    4500e556:	0000                	.insn	2, 0x0000
    4500e558:	58df 1122 0000      	.insn	6, 0x112258df
    4500e55e:	0000                	.insn	2, 0x0000
    4500e560:	5cdf 1122 0000      	.insn	6, 0x11225cdf
    4500e566:	0000                	.insn	2, 0x0000
    4500e568:	60df 1122 0000      	.insn	6, 0x112260df
    4500e56e:	0000                	.insn	2, 0x0000
    4500e570:	64df 1122 0000      	.insn	6, 0x112264df
    4500e576:	0000                	.insn	2, 0x0000
    4500e578:	68df 1122 0000      	.insn	6, 0x112268df
    4500e57e:	0000                	.insn	2, 0x0000
    4500e580:	6cdf 1122 0000      	.insn	6, 0x11226cdf
    4500e586:	0000                	.insn	2, 0x0000
    4500e588:	70df 1122 0000      	.insn	6, 0x112270df
    4500e58e:	0000                	.insn	2, 0x0000
    4500e590:	74df 1122 0000      	.insn	6, 0x112274df
    4500e596:	0000                	.insn	2, 0x0000
    4500e598:	78df 1122 0000      	.insn	6, 0x112278df
    4500e59e:	0000                	.insn	2, 0x0000
    4500e5a0:	7cdf 1122 0000      	.insn	6, 0x11227cdf
    4500e5a6:	0000                	.insn	2, 0x0000
    4500e5a8:	80df 1122 0000      	.insn	6, 0x112280df
    4500e5ae:	0000                	.insn	2, 0x0000
    4500e5b0:	84df 1122 0000      	.insn	6, 0x112284df
    4500e5b6:	0000                	.insn	2, 0x0000
    4500e5b8:	88df 1122 0000      	.insn	6, 0x112288df
    4500e5be:	0000                	.insn	2, 0x0000
    4500e5c0:	8cdf 1122 0000      	.insn	6, 0x11228cdf
    4500e5c6:	0000                	.insn	2, 0x0000
    4500e5c8:	90df 1122 0000      	.insn	6, 0x112290df
    4500e5ce:	0000                	.insn	2, 0x0000
    4500e5d0:	94df 1122 0000      	.insn	6, 0x112294df
    4500e5d6:	0000                	.insn	2, 0x0000
    4500e5d8:	98df 1122 0000      	.insn	6, 0x112298df
    4500e5de:	0000                	.insn	2, 0x0000
    4500e5e0:	9cdf 1122 0000      	.insn	6, 0x11229cdf
    4500e5e6:	0000                	.insn	2, 0x0000
    4500e5e8:	a0df 1122 0000      	.insn	6, 0x1122a0df
    4500e5ee:	0000                	.insn	2, 0x0000
    4500e5f0:	a4df 1122 0000      	.insn	6, 0x1122a4df
    4500e5f6:	0000                	.insn	2, 0x0000
    4500e5f8:	a8df 1122 0000      	.insn	6, 0x1122a8df
    4500e5fe:	0000                	.insn	2, 0x0000
    4500e600:	acdf 1122 0000      	.insn	6, 0x1122acdf
    4500e606:	0000                	.insn	2, 0x0000
    4500e608:	b0df 1122 0000      	.insn	6, 0x1122b0df
    4500e60e:	0000                	.insn	2, 0x0000
    4500e610:	b4df 1122 0000      	.insn	6, 0x1122b4df
    4500e616:	0000                	.insn	2, 0x0000
    4500e618:	b8df 1122 0000      	.insn	6, 0x1122b8df
    4500e61e:	0000                	.insn	2, 0x0000
    4500e620:	bcdf 1122 0000      	.insn	6, 0x1122bcdf
    4500e626:	0000                	.insn	2, 0x0000
    4500e628:	c0df 1122 0000      	.insn	6, 0x1122c0df
    4500e62e:	0000                	.insn	2, 0x0000
    4500e630:	c4df 1122 0000      	.insn	6, 0x1122c4df
    4500e636:	0000                	.insn	2, 0x0000
    4500e638:	c8df 1122 0000      	.insn	6, 0x1122c8df
    4500e63e:	0000                	.insn	2, 0x0000
    4500e640:	ccdf 1122 0000      	.insn	6, 0x1122ccdf
    4500e646:	0000                	.insn	2, 0x0000
    4500e648:	d0df 1122 0000      	.insn	6, 0x1122d0df
    4500e64e:	0000                	.insn	2, 0x0000
    4500e650:	d4df 1122 0000      	.insn	6, 0x1122d4df
    4500e656:	0000                	.insn	2, 0x0000
    4500e658:	d8df 1122 0000      	.insn	6, 0x1122d8df
    4500e65e:	0000                	.insn	2, 0x0000
    4500e660:	dcdf 1122 0000      	.insn	6, 0x1122dcdf
    4500e666:	0000                	.insn	2, 0x0000
    4500e668:	e0df 1122 0000      	.insn	6, 0x1122e0df
    4500e66e:	0000                	.insn	2, 0x0000
    4500e670:	e4df 1122 0000      	.insn	6, 0x1122e4df
    4500e676:	0000                	.insn	2, 0x0000
    4500e678:	e8df 1122 0000      	.insn	6, 0x1122e8df
    4500e67e:	0000                	.insn	2, 0x0000
    4500e680:	ecdf 1122 0000      	.insn	6, 0x1122ecdf
    4500e686:	0000                	.insn	2, 0x0000
    4500e688:	f0df 1122 0000      	.insn	6, 0x1122f0df
    4500e68e:	0000                	.insn	2, 0x0000
    4500e690:	f4df 1122 0000      	.insn	6, 0x1122f4df
    4500e696:	0000                	.insn	2, 0x0000
    4500e698:	f8df 1122 0000      	.insn	6, 0x1122f8df
    4500e69e:	0000                	.insn	2, 0x0000
    4500e6a0:	fcdf 1122 0000      	.insn	6, 0x1122fcdf
    4500e6a6:	0000                	.insn	2, 0x0000
    4500e6a8:	00df 1123 0000      	.insn	6, 0x112300df
    4500e6ae:	0000                	.insn	2, 0x0000
    4500e6b0:	04df 1123 0000      	.insn	6, 0x112304df
    4500e6b6:	0000                	.insn	2, 0x0000
    4500e6b8:	08df 1123 0000      	.insn	6, 0x112308df
    4500e6be:	0000                	.insn	2, 0x0000
    4500e6c0:	0cdf 1123 0000      	.insn	6, 0x11230cdf
    4500e6c6:	0000                	.insn	2, 0x0000
    4500e6c8:	10df 1123 0000      	.insn	6, 0x112310df
    4500e6ce:	0000                	.insn	2, 0x0000
    4500e6d0:	14df 1123 0000      	.insn	6, 0x112314df
    4500e6d6:	0000                	.insn	2, 0x0000
    4500e6d8:	18df 1123 0000      	.insn	6, 0x112318df
    4500e6de:	0000                	.insn	2, 0x0000
    4500e6e0:	1cdf 1123 0000      	.insn	6, 0x11231cdf
    4500e6e6:	0000                	.insn	2, 0x0000
    4500e6e8:	20df 1123 0000      	.insn	6, 0x112320df
    4500e6ee:	0000                	.insn	2, 0x0000
    4500e6f0:	24df 1123 0000      	.insn	6, 0x112324df
    4500e6f6:	0000                	.insn	2, 0x0000
    4500e6f8:	28df 1123 0000      	.insn	6, 0x112328df
    4500e6fe:	0000                	.insn	2, 0x0000
    4500e700:	2cdf 1123 0000      	.insn	6, 0x11232cdf
    4500e706:	0000                	.insn	2, 0x0000
    4500e708:	30df 1123 0000      	.insn	6, 0x112330df
    4500e70e:	0000                	.insn	2, 0x0000
    4500e710:	34df 1123 0000      	.insn	6, 0x112334df
    4500e716:	0000                	.insn	2, 0x0000
    4500e718:	38df 1123 0000      	.insn	6, 0x112338df
    4500e71e:	0000                	.insn	2, 0x0000
    4500e720:	3cdf 1123 0000      	.insn	6, 0x11233cdf
    4500e726:	0000                	.insn	2, 0x0000
    4500e728:	40df 1123 0000      	.insn	6, 0x112340df
    4500e72e:	0000                	.insn	2, 0x0000
    4500e730:	44df 1123 0000      	.insn	6, 0x112344df
    4500e736:	0000                	.insn	2, 0x0000
    4500e738:	48df 1123 0000      	.insn	6, 0x112348df
    4500e73e:	0000                	.insn	2, 0x0000
    4500e740:	4cdf 1123 0000      	.insn	6, 0x11234cdf
    4500e746:	0000                	.insn	2, 0x0000
    4500e748:	50df 1123 0000      	.insn	6, 0x112350df
    4500e74e:	0000                	.insn	2, 0x0000
    4500e750:	54df 1123 0000      	.insn	6, 0x112354df
    4500e756:	0000                	.insn	2, 0x0000
    4500e758:	58df 1123 0000      	.insn	6, 0x112358df
    4500e75e:	0000                	.insn	2, 0x0000
    4500e760:	5cdf 1123 0000      	.insn	6, 0x11235cdf
    4500e766:	0000                	.insn	2, 0x0000
    4500e768:	60df 1123 0000      	.insn	6, 0x112360df
    4500e76e:	0000                	.insn	2, 0x0000
    4500e770:	64df 1123 0000      	.insn	6, 0x112364df
    4500e776:	0000                	.insn	2, 0x0000
    4500e778:	68df 1123 0000      	.insn	6, 0x112368df
    4500e77e:	0000                	.insn	2, 0x0000
    4500e780:	6cdf 1123 0000      	.insn	6, 0x11236cdf
    4500e786:	0000                	.insn	2, 0x0000
    4500e788:	70df 1123 0000      	.insn	6, 0x112370df
    4500e78e:	0000                	.insn	2, 0x0000
    4500e790:	74df 1123 0000      	.insn	6, 0x112374df
    4500e796:	0000                	.insn	2, 0x0000
    4500e798:	78df 1123 0000      	.insn	6, 0x112378df
    4500e79e:	0000                	.insn	2, 0x0000
    4500e7a0:	7cdf 1123 0000      	.insn	6, 0x11237cdf
    4500e7a6:	0000                	.insn	2, 0x0000
    4500e7a8:	80df 1123 0000      	.insn	6, 0x112380df
    4500e7ae:	0000                	.insn	2, 0x0000
    4500e7b0:	84df 1123 0000      	.insn	6, 0x112384df
    4500e7b6:	0000                	.insn	2, 0x0000
    4500e7b8:	88df 1123 0000      	.insn	6, 0x112388df
    4500e7be:	0000                	.insn	2, 0x0000
    4500e7c0:	8cdf 1123 0000      	.insn	6, 0x11238cdf
    4500e7c6:	0000                	.insn	2, 0x0000
    4500e7c8:	90df 1123 0000      	.insn	6, 0x112390df
    4500e7ce:	0000                	.insn	2, 0x0000
    4500e7d0:	94df 1123 0000      	.insn	6, 0x112394df
    4500e7d6:	0000                	.insn	2, 0x0000
    4500e7d8:	98df 1123 0000      	.insn	6, 0x112398df
    4500e7de:	0000                	.insn	2, 0x0000
    4500e7e0:	9cdf 1123 0000      	.insn	6, 0x11239cdf
    4500e7e6:	0000                	.insn	2, 0x0000
    4500e7e8:	a0df 1123 0000      	.insn	6, 0x1123a0df
    4500e7ee:	0000                	.insn	2, 0x0000
    4500e7f0:	a4df 1123 0000      	.insn	6, 0x1123a4df
    4500e7f6:	0000                	.insn	2, 0x0000
    4500e7f8:	a8df 1123 0000      	.insn	6, 0x1123a8df
    4500e7fe:	0000                	.insn	2, 0x0000
    4500e800:	acdf 1123 0000      	.insn	6, 0x1123acdf
    4500e806:	0000                	.insn	2, 0x0000
    4500e808:	b0df 1123 0000      	.insn	6, 0x1123b0df
    4500e80e:	0000                	.insn	2, 0x0000
    4500e810:	b4df 1123 0000      	.insn	6, 0x1123b4df
    4500e816:	0000                	.insn	2, 0x0000
    4500e818:	b8df 1123 0000      	.insn	6, 0x1123b8df
    4500e81e:	0000                	.insn	2, 0x0000
    4500e820:	bcdf 1123 0000      	.insn	6, 0x1123bcdf
    4500e826:	0000                	.insn	2, 0x0000
    4500e828:	c0df 1123 0000      	.insn	6, 0x1123c0df
    4500e82e:	0000                	.insn	2, 0x0000
    4500e830:	c4df 1123 0000      	.insn	6, 0x1123c4df
    4500e836:	0000                	.insn	2, 0x0000
    4500e838:	c8df 1123 0000      	.insn	6, 0x1123c8df
    4500e83e:	0000                	.insn	2, 0x0000
    4500e840:	ccdf 1123 0000      	.insn	6, 0x1123ccdf
    4500e846:	0000                	.insn	2, 0x0000
    4500e848:	d0df 1123 0000      	.insn	6, 0x1123d0df
    4500e84e:	0000                	.insn	2, 0x0000
    4500e850:	d4df 1123 0000      	.insn	6, 0x1123d4df
    4500e856:	0000                	.insn	2, 0x0000
    4500e858:	d8df 1123 0000      	.insn	6, 0x1123d8df
    4500e85e:	0000                	.insn	2, 0x0000
    4500e860:	dcdf 1123 0000      	.insn	6, 0x1123dcdf
    4500e866:	0000                	.insn	2, 0x0000
    4500e868:	e0df 1123 0000      	.insn	6, 0x1123e0df
    4500e86e:	0000                	.insn	2, 0x0000
    4500e870:	e4df 1123 0000      	.insn	6, 0x1123e4df
    4500e876:	0000                	.insn	2, 0x0000
    4500e878:	e8df 1123 0000      	.insn	6, 0x1123e8df
    4500e87e:	0000                	.insn	2, 0x0000
    4500e880:	ecdf 1123 0000      	.insn	6, 0x1123ecdf
    4500e886:	0000                	.insn	2, 0x0000
    4500e888:	f0df 1123 0000      	.insn	6, 0x1123f0df
    4500e88e:	0000                	.insn	2, 0x0000
    4500e890:	f4df 1123 0000      	.insn	6, 0x1123f4df
    4500e896:	0000                	.insn	2, 0x0000
    4500e898:	f8df 1123 0000      	.insn	6, 0x1123f8df
    4500e89e:	0000                	.insn	2, 0x0000
    4500e8a0:	fcdf 1123 0000      	.insn	6, 0x1123fcdf
    4500e8a6:	0000                	.insn	2, 0x0000
    4500e8a8:	00df 1124 0000      	.insn	6, 0x112400df
    4500e8ae:	0000                	.insn	2, 0x0000
    4500e8b0:	04df 1124 0000      	.insn	6, 0x112404df
    4500e8b6:	0000                	.insn	2, 0x0000
    4500e8b8:	08df 1124 0000      	.insn	6, 0x112408df
    4500e8be:	0000                	.insn	2, 0x0000
    4500e8c0:	0cdf 1124 0000      	.insn	6, 0x11240cdf
    4500e8c6:	0000                	.insn	2, 0x0000
    4500e8c8:	10df 1124 0000      	.insn	6, 0x112410df
    4500e8ce:	0000                	.insn	2, 0x0000
    4500e8d0:	14df 1124 0000      	.insn	6, 0x112414df
    4500e8d6:	0000                	.insn	2, 0x0000
    4500e8d8:	18df 1124 0000      	.insn	6, 0x112418df
    4500e8de:	0000                	.insn	2, 0x0000
    4500e8e0:	1cdf 1124 0000      	.insn	6, 0x11241cdf
    4500e8e6:	0000                	.insn	2, 0x0000
    4500e8e8:	20df 1124 0000      	.insn	6, 0x112420df
    4500e8ee:	0000                	.insn	2, 0x0000
    4500e8f0:	24df 1124 0000      	.insn	6, 0x112424df
    4500e8f6:	0000                	.insn	2, 0x0000
    4500e8f8:	28df 1124 0000      	.insn	6, 0x112428df
    4500e8fe:	0000                	.insn	2, 0x0000
    4500e900:	2cdf 1124 0000      	.insn	6, 0x11242cdf
    4500e906:	0000                	.insn	2, 0x0000
    4500e908:	30df 1124 0000      	.insn	6, 0x112430df
    4500e90e:	0000                	.insn	2, 0x0000
    4500e910:	34df 1124 0000      	.insn	6, 0x112434df
    4500e916:	0000                	.insn	2, 0x0000
    4500e918:	38df 1124 0000      	.insn	6, 0x112438df
    4500e91e:	0000                	.insn	2, 0x0000
    4500e920:	3cdf 1124 0000      	.insn	6, 0x11243cdf
    4500e926:	0000                	.insn	2, 0x0000
    4500e928:	40df 1124 0000      	.insn	6, 0x112440df
    4500e92e:	0000                	.insn	2, 0x0000
    4500e930:	44df 1124 0000      	.insn	6, 0x112444df
    4500e936:	0000                	.insn	2, 0x0000
    4500e938:	48df 1124 0000      	.insn	6, 0x112448df
    4500e93e:	0000                	.insn	2, 0x0000
    4500e940:	4cdf 1124 0000      	.insn	6, 0x11244cdf
    4500e946:	0000                	.insn	2, 0x0000
    4500e948:	50df 1124 0000      	.insn	6, 0x112450df
    4500e94e:	0000                	.insn	2, 0x0000
    4500e950:	54df 1124 0000      	.insn	6, 0x112454df
    4500e956:	0000                	.insn	2, 0x0000
    4500e958:	58df 1124 0000      	.insn	6, 0x112458df
    4500e95e:	0000                	.insn	2, 0x0000
    4500e960:	5cdf 1124 0000      	.insn	6, 0x11245cdf
    4500e966:	0000                	.insn	2, 0x0000
    4500e968:	60df 1124 0000      	.insn	6, 0x112460df
    4500e96e:	0000                	.insn	2, 0x0000
    4500e970:	64df 1124 0000      	.insn	6, 0x112464df
    4500e976:	0000                	.insn	2, 0x0000
    4500e978:	68df 1124 0000      	.insn	6, 0x112468df
    4500e97e:	0000                	.insn	2, 0x0000
    4500e980:	6cdf 1124 0000      	.insn	6, 0x11246cdf
    4500e986:	0000                	.insn	2, 0x0000
    4500e988:	70df 1124 0000      	.insn	6, 0x112470df
    4500e98e:	0000                	.insn	2, 0x0000
    4500e990:	74df 1124 0000      	.insn	6, 0x112474df
    4500e996:	0000                	.insn	2, 0x0000
    4500e998:	78df 1124 0000      	.insn	6, 0x112478df
    4500e99e:	0000                	.insn	2, 0x0000
    4500e9a0:	7cdf 1124 0000      	.insn	6, 0x11247cdf
    4500e9a6:	0000                	.insn	2, 0x0000
    4500e9a8:	80df 1124 0000      	.insn	6, 0x112480df
    4500e9ae:	0000                	.insn	2, 0x0000
    4500e9b0:	84df 1124 0000      	.insn	6, 0x112484df
    4500e9b6:	0000                	.insn	2, 0x0000
    4500e9b8:	88df 1124 0000      	.insn	6, 0x112488df
    4500e9be:	0000                	.insn	2, 0x0000
    4500e9c0:	8cdf 1124 0000      	.insn	6, 0x11248cdf
    4500e9c6:	0000                	.insn	2, 0x0000
    4500e9c8:	90df 1124 0000      	.insn	6, 0x112490df
    4500e9ce:	0000                	.insn	2, 0x0000
    4500e9d0:	94df 1124 0000      	.insn	6, 0x112494df
    4500e9d6:	0000                	.insn	2, 0x0000
    4500e9d8:	98df 1124 0000      	.insn	6, 0x112498df
    4500e9de:	0000                	.insn	2, 0x0000
    4500e9e0:	9cdf 1124 0000      	.insn	6, 0x11249cdf
    4500e9e6:	0000                	.insn	2, 0x0000
    4500e9e8:	a0df 1124 0000      	.insn	6, 0x1124a0df
    4500e9ee:	0000                	.insn	2, 0x0000
    4500e9f0:	a4df 1124 0000      	.insn	6, 0x1124a4df
    4500e9f6:	0000                	.insn	2, 0x0000
    4500e9f8:	a8df 1124 0000      	.insn	6, 0x1124a8df
    4500e9fe:	0000                	.insn	2, 0x0000
    4500ea00:	acdf 1124 0000      	.insn	6, 0x1124acdf
    4500ea06:	0000                	.insn	2, 0x0000
    4500ea08:	b0df 1124 0000      	.insn	6, 0x1124b0df
    4500ea0e:	0000                	.insn	2, 0x0000
    4500ea10:	b4df 1124 0000      	.insn	6, 0x1124b4df
    4500ea16:	0000                	.insn	2, 0x0000
    4500ea18:	b8df 1124 0000      	.insn	6, 0x1124b8df
    4500ea1e:	0000                	.insn	2, 0x0000
    4500ea20:	bcdf 1124 0000      	.insn	6, 0x1124bcdf
    4500ea26:	0000                	.insn	2, 0x0000
    4500ea28:	c0df 1124 0000      	.insn	6, 0x1124c0df
    4500ea2e:	0000                	.insn	2, 0x0000
    4500ea30:	c4df 1124 0000      	.insn	6, 0x1124c4df
    4500ea36:	0000                	.insn	2, 0x0000
    4500ea38:	c8df 1124 0000      	.insn	6, 0x1124c8df
    4500ea3e:	0000                	.insn	2, 0x0000
    4500ea40:	ccdf 1124 0000      	.insn	6, 0x1124ccdf
    4500ea46:	0000                	.insn	2, 0x0000
    4500ea48:	d0df 1124 0000      	.insn	6, 0x1124d0df
    4500ea4e:	0000                	.insn	2, 0x0000
    4500ea50:	d4df 1124 0000      	.insn	6, 0x1124d4df
    4500ea56:	0000                	.insn	2, 0x0000
    4500ea58:	d8df 1124 0000      	.insn	6, 0x1124d8df
    4500ea5e:	0000                	.insn	2, 0x0000
    4500ea60:	dcdf 1124 0000      	.insn	6, 0x1124dcdf
    4500ea66:	0000                	.insn	2, 0x0000
    4500ea68:	e0df 1124 0000      	.insn	6, 0x1124e0df
    4500ea6e:	0000                	.insn	2, 0x0000
    4500ea70:	e4df 1124 0000      	.insn	6, 0x1124e4df
    4500ea76:	0000                	.insn	2, 0x0000
    4500ea78:	e8df 1124 0000      	.insn	6, 0x1124e8df
    4500ea7e:	0000                	.insn	2, 0x0000
    4500ea80:	ecdf 1124 0000      	.insn	6, 0x1124ecdf
    4500ea86:	0000                	.insn	2, 0x0000
    4500ea88:	f0df 1124 0000      	.insn	6, 0x1124f0df
    4500ea8e:	0000                	.insn	2, 0x0000
    4500ea90:	f4df 1124 0000      	.insn	6, 0x1124f4df
    4500ea96:	0000                	.insn	2, 0x0000
    4500ea98:	f8df 1124 0000      	.insn	6, 0x1124f8df
    4500ea9e:	0000                	.insn	2, 0x0000
    4500eaa0:	fcdf 1124 0000      	.insn	6, 0x1124fcdf
    4500eaa6:	0000                	.insn	2, 0x0000
    4500eaa8:	00df 1125 0000      	.insn	6, 0x112500df
    4500eaae:	0000                	.insn	2, 0x0000
    4500eab0:	04df 1125 0000      	.insn	6, 0x112504df
    4500eab6:	0000                	.insn	2, 0x0000
    4500eab8:	08df 1125 0000      	.insn	6, 0x112508df
    4500eabe:	0000                	.insn	2, 0x0000
    4500eac0:	0cdf 1125 0000      	.insn	6, 0x11250cdf
    4500eac6:	0000                	.insn	2, 0x0000
    4500eac8:	10df 1125 0000      	.insn	6, 0x112510df
    4500eace:	0000                	.insn	2, 0x0000
    4500ead0:	14df 1125 0000      	.insn	6, 0x112514df
    4500ead6:	0000                	.insn	2, 0x0000
    4500ead8:	18df 1125 0000      	.insn	6, 0x112518df
    4500eade:	0000                	.insn	2, 0x0000
    4500eae0:	1cdf 1125 0000      	.insn	6, 0x11251cdf
    4500eae6:	0000                	.insn	2, 0x0000
    4500eae8:	20df 1125 0000      	.insn	6, 0x112520df
    4500eaee:	0000                	.insn	2, 0x0000
    4500eaf0:	24df 1125 0000      	.insn	6, 0x112524df
    4500eaf6:	0000                	.insn	2, 0x0000
    4500eaf8:	28df 1125 0000      	.insn	6, 0x112528df
    4500eafe:	0000                	.insn	2, 0x0000
    4500eb00:	2cdf 1125 0000      	.insn	6, 0x11252cdf
    4500eb06:	0000                	.insn	2, 0x0000
    4500eb08:	30df 1125 0000      	.insn	6, 0x112530df
    4500eb0e:	0000                	.insn	2, 0x0000
    4500eb10:	34df 1125 0000      	.insn	6, 0x112534df
    4500eb16:	0000                	.insn	2, 0x0000
    4500eb18:	38df 1125 0000      	.insn	6, 0x112538df
    4500eb1e:	0000                	.insn	2, 0x0000
    4500eb20:	3cdf 1125 0000      	.insn	6, 0x11253cdf
    4500eb26:	0000                	.insn	2, 0x0000
    4500eb28:	40df 1125 0000      	.insn	6, 0x112540df
    4500eb2e:	0000                	.insn	2, 0x0000
    4500eb30:	44df 1125 0000      	.insn	6, 0x112544df
    4500eb36:	0000                	.insn	2, 0x0000
    4500eb38:	48df 1125 0000      	.insn	6, 0x112548df
    4500eb3e:	0000                	.insn	2, 0x0000
    4500eb40:	4cdf 1125 0000      	.insn	6, 0x11254cdf
    4500eb46:	0000                	.insn	2, 0x0000
    4500eb48:	50df 1125 0000      	.insn	6, 0x112550df
    4500eb4e:	0000                	.insn	2, 0x0000
    4500eb50:	54df 1125 0000      	.insn	6, 0x112554df
    4500eb56:	0000                	.insn	2, 0x0000
    4500eb58:	58df 1125 0000      	.insn	6, 0x112558df
    4500eb5e:	0000                	.insn	2, 0x0000
    4500eb60:	5cdf 1125 0000      	.insn	6, 0x11255cdf
    4500eb66:	0000                	.insn	2, 0x0000
    4500eb68:	60df 1125 0000      	.insn	6, 0x112560df
    4500eb6e:	0000                	.insn	2, 0x0000
    4500eb70:	64df 1125 0000      	.insn	6, 0x112564df
    4500eb76:	0000                	.insn	2, 0x0000
    4500eb78:	68df 1125 0000      	.insn	6, 0x112568df
    4500eb7e:	0000                	.insn	2, 0x0000
    4500eb80:	6cdf 1125 0000      	.insn	6, 0x11256cdf
    4500eb86:	0000                	.insn	2, 0x0000
    4500eb88:	70df 1125 0000      	.insn	6, 0x112570df
    4500eb8e:	0000                	.insn	2, 0x0000
    4500eb90:	74df 1125 0000      	.insn	6, 0x112574df
    4500eb96:	0000                	.insn	2, 0x0000
    4500eb98:	78df 1125 0000      	.insn	6, 0x112578df
    4500eb9e:	0000                	.insn	2, 0x0000
    4500eba0:	7cdf 1125 0000      	.insn	6, 0x11257cdf
    4500eba6:	0000                	.insn	2, 0x0000
    4500eba8:	80df 1125 0000      	.insn	6, 0x112580df
    4500ebae:	0000                	.insn	2, 0x0000
    4500ebb0:	84df 1125 0000      	.insn	6, 0x112584df
    4500ebb6:	0000                	.insn	2, 0x0000
    4500ebb8:	88df 1125 0000      	.insn	6, 0x112588df
    4500ebbe:	0000                	.insn	2, 0x0000
    4500ebc0:	8cdf 1125 0000      	.insn	6, 0x11258cdf
    4500ebc6:	0000                	.insn	2, 0x0000
    4500ebc8:	90df 1125 0000      	.insn	6, 0x112590df
    4500ebce:	0000                	.insn	2, 0x0000
    4500ebd0:	94df 1125 0000      	.insn	6, 0x112594df
    4500ebd6:	0000                	.insn	2, 0x0000
    4500ebd8:	98df 1125 0000      	.insn	6, 0x112598df
    4500ebde:	0000                	.insn	2, 0x0000
    4500ebe0:	9cdf 1125 0000      	.insn	6, 0x11259cdf
    4500ebe6:	0000                	.insn	2, 0x0000
    4500ebe8:	a0df 1125 0000      	.insn	6, 0x1125a0df
    4500ebee:	0000                	.insn	2, 0x0000
    4500ebf0:	a4df 1125 0000      	.insn	6, 0x1125a4df
    4500ebf6:	0000                	.insn	2, 0x0000
    4500ebf8:	a8df 1125 0000      	.insn	6, 0x1125a8df
    4500ebfe:	0000                	.insn	2, 0x0000
    4500ec00:	acdf 1125 0000      	.insn	6, 0x1125acdf
    4500ec06:	0000                	.insn	2, 0x0000
    4500ec08:	b0df 1125 0000      	.insn	6, 0x1125b0df
    4500ec0e:	0000                	.insn	2, 0x0000
    4500ec10:	b4df 1125 0000      	.insn	6, 0x1125b4df
    4500ec16:	0000                	.insn	2, 0x0000
    4500ec18:	b8df 1125 0000      	.insn	6, 0x1125b8df
    4500ec1e:	0000                	.insn	2, 0x0000
    4500ec20:	bcdf 1125 0000      	.insn	6, 0x1125bcdf
    4500ec26:	0000                	.insn	2, 0x0000
    4500ec28:	c0df 1125 0000      	.insn	6, 0x1125c0df
    4500ec2e:	0000                	.insn	2, 0x0000
    4500ec30:	c4df 1125 0000      	.insn	6, 0x1125c4df
    4500ec36:	0000                	.insn	2, 0x0000
    4500ec38:	c8df 1125 0000      	.insn	6, 0x1125c8df
    4500ec3e:	0000                	.insn	2, 0x0000
    4500ec40:	ccdf 1125 0000      	.insn	6, 0x1125ccdf
    4500ec46:	0000                	.insn	2, 0x0000
    4500ec48:	d0df 1125 0000      	.insn	6, 0x1125d0df
    4500ec4e:	0000                	.insn	2, 0x0000
    4500ec50:	d4df 1125 0000      	.insn	6, 0x1125d4df
    4500ec56:	0000                	.insn	2, 0x0000
    4500ec58:	d8df 1125 0000      	.insn	6, 0x1125d8df
    4500ec5e:	0000                	.insn	2, 0x0000
    4500ec60:	dcdf 1125 0000      	.insn	6, 0x1125dcdf
    4500ec66:	0000                	.insn	2, 0x0000
    4500ec68:	e0df 1125 0000      	.insn	6, 0x1125e0df
    4500ec6e:	0000                	.insn	2, 0x0000
    4500ec70:	e4df 1125 0000      	.insn	6, 0x1125e4df
    4500ec76:	0000                	.insn	2, 0x0000
    4500ec78:	e8df 1125 0000      	.insn	6, 0x1125e8df
    4500ec7e:	0000                	.insn	2, 0x0000
    4500ec80:	ecdf 1125 0000      	.insn	6, 0x1125ecdf
    4500ec86:	0000                	.insn	2, 0x0000
    4500ec88:	f0df 1125 0000      	.insn	6, 0x1125f0df
    4500ec8e:	0000                	.insn	2, 0x0000
    4500ec90:	f4df 1125 0000      	.insn	6, 0x1125f4df
    4500ec96:	0000                	.insn	2, 0x0000
    4500ec98:	f8df 1125 0000      	.insn	6, 0x1125f8df
    4500ec9e:	0000                	.insn	2, 0x0000
    4500eca0:	fcdf 1125 0000      	.insn	6, 0x1125fcdf
    4500eca6:	0000                	.insn	2, 0x0000
    4500eca8:	00df 1126 0000      	.insn	6, 0x112600df
    4500ecae:	0000                	.insn	2, 0x0000
    4500ecb0:	04df 1126 0000      	.insn	6, 0x112604df
    4500ecb6:	0000                	.insn	2, 0x0000
    4500ecb8:	08df 1126 0000      	.insn	6, 0x112608df
    4500ecbe:	0000                	.insn	2, 0x0000
    4500ecc0:	0cdf 1126 0000      	.insn	6, 0x11260cdf
    4500ecc6:	0000                	.insn	2, 0x0000
    4500ecc8:	10df 1126 0000      	.insn	6, 0x112610df
    4500ecce:	0000                	.insn	2, 0x0000
    4500ecd0:	14df 1126 0000      	.insn	6, 0x112614df
    4500ecd6:	0000                	.insn	2, 0x0000
    4500ecd8:	18df 1126 0000      	.insn	6, 0x112618df
    4500ecde:	0000                	.insn	2, 0x0000
    4500ece0:	1cdf 1126 0000      	.insn	6, 0x11261cdf
    4500ece6:	0000                	.insn	2, 0x0000
    4500ece8:	20df 1126 0000      	.insn	6, 0x112620df
    4500ecee:	0000                	.insn	2, 0x0000
    4500ecf0:	24df 1126 0000      	.insn	6, 0x112624df
    4500ecf6:	0000                	.insn	2, 0x0000
    4500ecf8:	28df 1126 0000      	.insn	6, 0x112628df
    4500ecfe:	0000                	.insn	2, 0x0000
    4500ed00:	2cdf 1126 0000      	.insn	6, 0x11262cdf
    4500ed06:	0000                	.insn	2, 0x0000
    4500ed08:	30df 1126 0000      	.insn	6, 0x112630df
    4500ed0e:	0000                	.insn	2, 0x0000
    4500ed10:	34df 1126 0000      	.insn	6, 0x112634df
    4500ed16:	0000                	.insn	2, 0x0000
    4500ed18:	38df 1126 0000      	.insn	6, 0x112638df
    4500ed1e:	0000                	.insn	2, 0x0000
    4500ed20:	3cdf 1126 0000      	.insn	6, 0x11263cdf
    4500ed26:	0000                	.insn	2, 0x0000
    4500ed28:	40df 1126 0000      	.insn	6, 0x112640df
    4500ed2e:	0000                	.insn	2, 0x0000
    4500ed30:	44df 1126 0000      	.insn	6, 0x112644df
    4500ed36:	0000                	.insn	2, 0x0000
    4500ed38:	48df 1126 0000      	.insn	6, 0x112648df
    4500ed3e:	0000                	.insn	2, 0x0000
    4500ed40:	4cdf 1126 0000      	.insn	6, 0x11264cdf
    4500ed46:	0000                	.insn	2, 0x0000
    4500ed48:	50df 1126 0000      	.insn	6, 0x112650df
    4500ed4e:	0000                	.insn	2, 0x0000
    4500ed50:	54df 1126 0000      	.insn	6, 0x112654df
    4500ed56:	0000                	.insn	2, 0x0000
    4500ed58:	58df 1126 0000      	.insn	6, 0x112658df
    4500ed5e:	0000                	.insn	2, 0x0000
    4500ed60:	5cdf 1126 0000      	.insn	6, 0x11265cdf
    4500ed66:	0000                	.insn	2, 0x0000
    4500ed68:	60df 1126 0000      	.insn	6, 0x112660df
    4500ed6e:	0000                	.insn	2, 0x0000
    4500ed70:	64df 1126 0000      	.insn	6, 0x112664df
    4500ed76:	0000                	.insn	2, 0x0000
    4500ed78:	68df 1126 0000      	.insn	6, 0x112668df
