
/home/abdullah/RiescueC/riescue/10x_R/za64rs/testsuite/za64rs/user_sv57/tp_za64rs_2:     file format elf64-littleriscv


Disassembly of section .runtime:

0000000041000000 <_start>:
    41000000:	00000093          	li	x1,0
    41000004:	00000113          	li	x2,0
    41000008:	00000193          	li	x3,0
    4100000c:	00000213          	li	x4,0
    41000010:	00000293          	li	x5,0
    41000014:	00000313          	li	x6,0
    41000018:	00000393          	li	x7,0
    4100001c:	00000413          	li	x8,0
    41000020:	00000493          	li	x9,0
    41000024:	00000513          	li	x10,0
    41000028:	00000593          	li	x11,0
    4100002c:	00000613          	li	x12,0
    41000030:	00000693          	li	x13,0
    41000034:	00000713          	li	x14,0
    41000038:	00000793          	li	x15,0
    4100003c:	00000813          	li	x16,0
    41000040:	00000893          	li	x17,0
    41000044:	00000913          	li	x18,0
    41000048:	00000993          	li	x19,0
    4100004c:	00000a13          	li	x20,0
    41000050:	00000a93          	li	x21,0
    41000054:	00000b13          	li	x22,0
    41000058:	00000b93          	li	x23,0
    4100005c:	00000c13          	li	x24,0
    41000060:	00000c93          	li	x25,0
    41000064:	00000d13          	li	x26,0
    41000068:	00000d93          	li	x27,0
    4100006c:	00000e13          	li	x28,0
    41000070:	00000e93          	li	x29,0
    41000074:	00000f13          	li	x30,0
    41000078:	00000f93          	li	x31,0

000000004100007c <loader__load_panic_address>:
    4100007c:	00001297          	auipc	x5,0x1
    41000080:	9e828293          	addi	x5,x5,-1560 # 41000a64 <eot__failed>
    41000084:	30529073          	csrw	mtvec,x5

0000000041000088 <loader__initialize_runtime>:
    41000088:	00000293          	li	x5,0
    4100008c:	3012a2f3          	csrrs	x5,misa,x5

0000000041000090 <loader__set_mstatus>:
    41000090:	000402b7          	lui	x5,0x40
    41000094:	00a2829b          	addiw	x5,x5,10 # 4000a <pma_region_0_size+0xa>
    41000098:	3002a2f3          	csrrs	x5,mstatus,x5
    4100009c:	4309c237          	lui	x4,0x4309c
    410000a0:	34021073          	csrw	mscratch,x4

00000000410000a4 <loader__setup_menvcfg>:
    410000a4:	00000297          	auipc	x5,0x0
    410000a8:	4a828293          	addi	x5,x5,1192 # 4100054c <trap_handler_m__trap_entry>
    410000ac:	30529073          	csrw	mtvec,x5

00000000410000b0 <loader__enable_paging>:
    410000b0:	fffe80b7          	lui	x1,0xfffe8
    410000b4:	0390809b          	addiw	x1,x1,57 # fffffffffffe8039 <SID_ZA64RS_03_w_stack+0xff26d105ef3ee039>
    410000b8:	02009093          	slli	x1,x1,0x20
    410000bc:	01108093          	addi	x1,x1,17
    410000c0:	00e09093          	slli	x1,x1,0xe
    410000c4:	4c608093          	addi	x1,x1,1222
    410000c8:	18009073          	csrw	satp,x1

00000000410000cc <loader__done>:
    410000cc:	1c10006f          	j	41000a8c <scheduler__init>

00000000410000d0 <loader__panic>:
    410000d0:	1950006f          	j	41000a64 <eot__failed>

00000000410000d4 <syscalls__syscall_check_schedule_next_test>:
    410000d4:	00f0029b          	addiw	x5,x0,15
    410000d8:	01c29293          	slli	x5,x5,0x1c
    410000dc:	00128293          	addi	x5,x5,1
    410000e0:	01f29a63          	bne	x5,x31,410000f4 <syscalls__syscall_check_fail_test>
    410000e4:	00000317          	auipc	x6,0x0
    410000e8:	46830313          	addi	x6,x6,1128 # 4100054c <trap_handler_m__trap_entry>
    410000ec:	30531073          	csrw	mtvec,x6
    410000f0:	6a00006f          	j	41000790 <enter_scheduler>

00000000410000f4 <syscalls__syscall_check_fail_test>:
    410000f4:	00f0029b          	addiw	x5,x0,15
    410000f8:	01c29293          	slli	x5,x5,0x1c
    410000fc:	00228293          	addi	x5,x5,2
    41000100:	01f29a63          	bne	x5,x31,41000114 <syscalls__syscall_check_end_test_without_failure>
    41000104:	00000317          	auipc	x6,0x0
    41000108:	44830313          	addi	x6,x6,1096 # 4100054c <trap_handler_m__trap_entry>
    4100010c:	30531073          	csrw	mtvec,x6
    41000110:	6b00006f          	j	410007c0 <test_failed>

0000000041000114 <syscalls__syscall_check_end_test_without_failure>:
    41000114:	00f0029b          	addiw	x5,x0,15
    41000118:	01c29293          	slli	x5,x5,0x1c
    4100011c:	00328293          	addi	x5,x5,3
    41000120:	01f29a63          	bne	x5,x31,41000134 <syscalls__syscall_check_switch_machine_mode>
    41000124:	00000317          	auipc	x6,0x0
    41000128:	42830313          	addi	x6,x6,1064 # 4100054c <trap_handler_m__trap_entry>
    4100012c:	30531073          	csrw	mtvec,x6
    41000130:	69c0006f          	j	410007cc <os_end_test>

0000000041000134 <syscalls__syscall_check_switch_machine_mode>:
    41000134:	000f02b7          	lui	x5,0xf0
    41000138:	0012829b          	addiw	x5,x5,1 # f0001 <mem7+0xa6001>
    4100013c:	00c29293          	slli	x5,x5,0xc
    41000140:	00128293          	addi	x5,x5,1
    41000144:	0a5f8463          	beq	x31,x5,410001ec <syscalls__os_fn_f0001001>

0000000041000148 <syscalls__syscall_check_switch_super_mode>:
    41000148:	000f02b7          	lui	x5,0xf0
    4100014c:	0012829b          	addiw	x5,x5,1 # f0001 <mem7+0xa6001>
    41000150:	00c29293          	slli	x5,x5,0xc
    41000154:	00228293          	addi	x5,x5,2
    41000158:	0c5f8063          	beq	x31,x5,41000218 <syscalls__os_fn_f0001002>

000000004100015c <syscalls__syscall_check_switch_user_mode>:
    4100015c:	000f02b7          	lui	x5,0xf0
    41000160:	0012829b          	addiw	x5,x5,1 # f0001 <mem7+0xa6001>
    41000164:	00c29293          	slli	x5,x5,0xc
    41000168:	00328293          	addi	x5,x5,3
    4100016c:	0c5f8e63          	beq	x31,x5,41000248 <syscalls__os_fn_f0001003>

0000000041000170 <syscalls__syscall_check_switch_test_mode>:
    41000170:	000f02b7          	lui	x5,0xf0
    41000174:	0012829b          	addiw	x5,x5,1 # f0001 <mem7+0xa6001>
    41000178:	00c29293          	slli	x5,x5,0xc
    4100017c:	00428293          	addi	x5,x5,4
    41000180:	0c5f8863          	beq	x31,x5,41000250 <syscalls__os_fn_f0001004>

0000000041000184 <syscalls__syscall_machine_csr_rw>:
    41000184:	000f02b7          	lui	x5,0xf0
    41000188:	0012829b          	addiw	x5,x5,1 # f0001 <mem7+0xa6001>
    4100018c:	00c29293          	slli	x5,x5,0xc
    41000190:	00528293          	addi	x5,x5,5
    41000194:	0e5f8263          	beq	x31,x5,41000278 <syscalls__os_fn_f0001005>

0000000041000198 <syscalls__syscall_supervisor_csr_rw>:
    41000198:	000f02b7          	lui	x5,0xf0
    4100019c:	0012829b          	addiw	x5,x5,1 # f0001 <mem7+0xa6001>
    410001a0:	00c29293          	slli	x5,x5,0xc
    410001a4:	00628293          	addi	x5,x5,6
    410001a8:	0e5f8e63          	beq	x31,x5,410002a4 <syscalls__os_fn_f0001006>

00000000410001ac <syscalls__syscall_machine_pte_read>:
    410001ac:	000f02b7          	lui	x5,0xf0
    410001b0:	0012829b          	addiw	x5,x5,1 # f0001 <mem7+0xa6001>
    410001b4:	00c29293          	slli	x5,x5,0xc
    410001b8:	00728293          	addi	x5,x5,7
    410001bc:	105f8c63          	beq	x31,x5,410002d4 <syscalls__os_fn_f0001007>

00000000410001c0 <syscalls__syscall_machine_pte_write>:
    410001c0:	000f02b7          	lui	x5,0xf0
    410001c4:	0012829b          	addiw	x5,x5,1 # f0001 <mem7+0xa6001>
    410001c8:	00c29293          	slli	x5,x5,0xc
    410001cc:	00828293          	addi	x5,x5,8
    410001d0:	1e5f8863          	beq	x31,x5,410003c0 <syscalls__os_fn_f0001008>

00000000410001d4 <syscalls__syscall_check_get_hart_context>:
    410001d4:	000782b7          	lui	x5,0x78
    410001d8:	0012829b          	addiw	x5,x5,1 # 78001 <mem7+0x2e001>
    410001dc:	00d29293          	slli	x5,x5,0xd
    410001e0:	00128293          	addi	x5,x5,1
    410001e4:	2c5f8463          	beq	x31,x5,410004ac <syscalls__os_get_hart_context>
    410001e8:	4c00006f          	j	410006a8 <trap_handler_m__check_exception_label>

00000000410001ec <syscalls__os_fn_f0001001>:
    410001ec:	000022b7          	lui	x5,0x2
    410001f0:	8002829b          	addiw	x5,x5,-2048 # 1800 <pma_region_1_size+0x800>
    410001f4:	3002b073          	csrc	mstatus,x5
    410001f8:	000022b7          	lui	x5,0x2
    410001fc:	8002829b          	addiw	x5,x5,-2048 # 1800 <pma_region_1_size+0x800>
    41000200:	3002a073          	csrs	mstatus,x5
    41000204:	0010029b          	addiw	x5,x0,1
    41000208:	02729293          	slli	x5,x5,0x27
    4100020c:	3002b073          	csrc	mstatus,x5
    41000210:	411952b7          	lui	x5,0x41195
    41000214:	2a80006f          	j	410004bc <syscalls__ret_from_os_fn>

0000000041000218 <syscalls__os_fn_f0001002>:
    41000218:	000022b7          	lui	x5,0x2
    4100021c:	8002829b          	addiw	x5,x5,-2048 # 1800 <pma_region_1_size+0x800>
    41000220:	3002b073          	csrc	mstatus,x5
    41000224:	000012b7          	lui	x5,0x1
    41000228:	8002829b          	addiw	x5,x5,-2048 # 800 <XLEN+0x7c0>
    4100022c:	3002a073          	csrs	mstatus,x5
    41000230:	0010029b          	addiw	x5,x0,1
    41000234:	02729293          	slli	x5,x5,0x27
    41000238:	3002b073          	csrc	mstatus,x5
    4100023c:	12000073          	sfence.vma
    41000240:	410952b7          	lui	x5,0x41095
    41000244:	2780006f          	j	410004bc <syscalls__ret_from_os_fn>

0000000041000248 <syscalls__os_fn_f0001003>:
    41000248:	411152b7          	lui	x5,0x41115
    4100024c:	2700006f          	j	410004bc <syscalls__ret_from_os_fn>

0000000041000250 <syscalls__os_fn_f0001004>:
    41000250:	000022b7          	lui	x5,0x2
    41000254:	8002829b          	addiw	x5,x5,-2048 # 1800 <pma_region_1_size+0x800>
    41000258:	3002b073          	csrc	mstatus,x5
    4100025c:	00000293          	li	x5,0
    41000260:	3002a073          	csrs	mstatus,x5
    41000264:	0010029b          	addiw	x5,x0,1
    41000268:	02729293          	slli	x5,x5,0x27
    4100026c:	3002b073          	csrc	mstatus,x5
    41000270:	17823283          	ld	x5,376(x4) # 4309c178 <__section_hart_context+0x178>
    41000274:	2480006f          	j	410004bc <syscalls__ret_from_os_fn>

0000000041000278 <syscalls__os_fn_f0001005>:
    41000278:	000022b7          	lui	x5,0x2
    4100027c:	8002829b          	addiw	x5,x5,-2048 # 1800 <pma_region_1_size+0x800>
    41000280:	3002b073          	csrc	mstatus,x5
    41000284:	000022b7          	lui	x5,0x2
    41000288:	8002829b          	addiw	x5,x5,-2048 # 1800 <pma_region_1_size+0x800>
    4100028c:	3002a073          	csrs	mstatus,x5
    41000290:	0010029b          	addiw	x5,x0,1
    41000294:	02729293          	slli	x5,x5,0x27
    41000298:	3002b073          	csrc	mstatus,x5
    4100029c:	412152b7          	lui	x5,0x41215
    410002a0:	21c0006f          	j	410004bc <syscalls__ret_from_os_fn>

00000000410002a4 <syscalls__os_fn_f0001006>:
    410002a4:	000022b7          	lui	x5,0x2
    410002a8:	8002829b          	addiw	x5,x5,-2048 # 1800 <pma_region_1_size+0x800>
    410002ac:	3002b073          	csrc	mstatus,x5
    410002b0:	000012b7          	lui	x5,0x1
    410002b4:	8002829b          	addiw	x5,x5,-2048 # 800 <XLEN+0x7c0>
    410002b8:	3002a073          	csrs	mstatus,x5
    410002bc:	0010029b          	addiw	x5,x0,1
    410002c0:	02729293          	slli	x5,x5,0x27
    410002c4:	3002b073          	csrc	mstatus,x5
    410002c8:	12000073          	sfence.vma
    410002cc:	412162b7          	lui	x5,0x41216
    410002d0:	1ec0006f          	j	410004bc <syscalls__ret_from_os_fn>

00000000410002d4 <syscalls__os_fn_f0001007>:
    410002d4:	4296afb7          	lui	x31,0x4296a
    410002d8:	0b0f8f9b          	addiw	x31,x31,176 # 4296a0b0 <pte_access_flags_pa>
    410002dc:	000fbf83          	ld	x31,0(x31)
    410002e0:	4296a2b7          	lui	x5,0x4296a
    410002e4:	0b82829b          	addiw	x5,x5,184 # 4296a0b8 <pte_access_flags_pa+0x8>
    410002e8:	0002b283          	ld	x5,0(x5)
    410002ec:	4296ae37          	lui	x28,0x4296a
    410002f0:	0c0e0e1b          	addiw	x28,x28,192 # 4296a0c0 <pte_access_flags_pa+0x10>
    410002f4:	000e3e03          	ld	x28,0(x28)

00000000410002f8 <syscalls__pte_walk_check_glevel_without_gstage_read>:
    410002f8:	fff00f93          	li	x31,-1
    410002fc:	0dfe1063          	bne	x28,x31,410003bc <syscalls__pte_walk_fail_read>
    41000300:	18002373          	csrr	x6,satp
    41000304:	03c35e93          	srli	x29,x6,0x3c
    41000308:	01431313          	slli	x6,x6,0x14
    4100030c:	01435313          	srli	x6,x6,0x14
    41000310:	00c31313          	slli	x6,x6,0xc
    41000314:	ff8e8e93          	addi	x29,x29,-8
    41000318:	003e9f13          	slli	x30,x29,0x3
    4100031c:	01df0eb3          	add	x29,x30,x29
    41000320:	01ee8e93          	addi	x29,x29,30
    41000324:	00000f13          	li	x30,0

0000000041000328 <syscalls__pte_walk_loop_read>:
    41000328:	4296afb7          	lui	x31,0x4296a
    4100032c:	0b0f8f9b          	addiw	x31,x31,176 # 4296a0b0 <pte_access_flags_pa>
    41000330:	000fbf83          	ld	x31,0(x31)
    41000334:	01dfdfb3          	srl	x31,x31,x29
    41000338:	1fffff93          	andi	x31,x31,511
    4100033c:	003f9f93          	slli	x31,x31,0x3
    41000340:	01f30333          	add	x6,x6,x31
    41000344:	005f0e63          	beq	x30,x5,41000360 <syscalls__pte_walk_done_read>
    41000348:	00033f83          	ld	x31,0(x6)
    4100034c:	00afdf93          	srli	x31,x31,0xa
    41000350:	00cf9313          	slli	x6,x31,0xc
    41000354:	001f0f13          	addi	x30,x30,1
    41000358:	ff7e8e93          	addi	x29,x29,-9
    4100035c:	fcdff06f          	j	41000328 <syscalls__pte_walk_loop_read>

0000000041000360 <syscalls__pte_walk_done_read>:
    41000360:	fff00f93          	li	x31,-1
    41000364:	05fe0263          	beq	x28,x31,410003a8 <syscalls__pte_walk_final_read>

0000000041000368 <syscalls__pte_walk_gstage_read>:
    41000368:	4296afb7          	lui	x31,0x4296a
    4100036c:	0b0f8f9b          	addiw	x31,x31,176 # 4296a0b0 <pte_access_flags_pa>
    41000370:	006fb023          	sd	x6,0(x31)
    41000374:	000e0293          	mv	x5,x28
    41000378:	fff00e13          	li	x28,-1
    4100037c:	68002373          	csrr	x6,hgatp
    41000380:	03c35e93          	srli	x29,x6,0x3c
    41000384:	01431313          	slli	x6,x6,0x14
    41000388:	01435313          	srli	x6,x6,0x14
    4100038c:	00c31313          	slli	x6,x6,0xc
    41000390:	ff8e8e93          	addi	x29,x29,-8
    41000394:	003e9f13          	slli	x30,x29,0x3
    41000398:	01df0eb3          	add	x29,x30,x29
    4100039c:	01ee8e93          	addi	x29,x29,30
    410003a0:	00000f13          	li	x30,0
    410003a4:	f85ff06f          	j	41000328 <syscalls__pte_walk_loop_read>

00000000410003a8 <syscalls__pte_walk_final_read>:
    410003a8:	00033383          	ld	x7,0(x6)
    410003ac:	341022f3          	csrr	x5,mepc
    410003b0:	00428293          	addi	x5,x5,4
    410003b4:	16523c23          	sd	x5,376(x4) # 178 <XLEN+0x138>
    410003b8:	e99ff06f          	j	41000250 <syscalls__os_fn_f0001004>

00000000410003bc <syscalls__pte_walk_fail_read>:
    410003bc:	4040006f          	j	410007c0 <test_failed>

00000000410003c0 <syscalls__os_fn_f0001008>:
    410003c0:	4296afb7          	lui	x31,0x4296a
    410003c4:	0b0f8f9b          	addiw	x31,x31,176 # 4296a0b0 <pte_access_flags_pa>
    410003c8:	000fbf83          	ld	x31,0(x31)
    410003cc:	4296a2b7          	lui	x5,0x4296a
    410003d0:	0b82829b          	addiw	x5,x5,184 # 4296a0b8 <pte_access_flags_pa+0x8>
    410003d4:	0002b283          	ld	x5,0(x5)
    410003d8:	4296ae37          	lui	x28,0x4296a
    410003dc:	0c0e0e1b          	addiw	x28,x28,192 # 4296a0c0 <pte_access_flags_pa+0x10>
    410003e0:	000e3e03          	ld	x28,0(x28)

00000000410003e4 <syscalls__pte_walk_check_glevel_without_gstage_write>:
    410003e4:	fff00f93          	li	x31,-1
    410003e8:	0dfe1063          	bne	x28,x31,410004a8 <syscalls__pte_walk_fail_write>
    410003ec:	18002373          	csrr	x6,satp
    410003f0:	03c35e93          	srli	x29,x6,0x3c
    410003f4:	01431313          	slli	x6,x6,0x14
    410003f8:	01435313          	srli	x6,x6,0x14
    410003fc:	00c31313          	slli	x6,x6,0xc
    41000400:	ff8e8e93          	addi	x29,x29,-8
    41000404:	003e9f13          	slli	x30,x29,0x3
    41000408:	01df0eb3          	add	x29,x30,x29
    4100040c:	01ee8e93          	addi	x29,x29,30
    41000410:	00000f13          	li	x30,0

0000000041000414 <syscalls__pte_walk_loop_write>:
    41000414:	4296afb7          	lui	x31,0x4296a
    41000418:	0b0f8f9b          	addiw	x31,x31,176 # 4296a0b0 <pte_access_flags_pa>
    4100041c:	000fbf83          	ld	x31,0(x31)
    41000420:	01dfdfb3          	srl	x31,x31,x29
    41000424:	1fffff93          	andi	x31,x31,511
    41000428:	003f9f93          	slli	x31,x31,0x3
    4100042c:	01f30333          	add	x6,x6,x31
    41000430:	005f0e63          	beq	x30,x5,4100044c <syscalls__pte_walk_done_write>
    41000434:	00033f83          	ld	x31,0(x6)
    41000438:	00afdf93          	srli	x31,x31,0xa
    4100043c:	00cf9313          	slli	x6,x31,0xc
    41000440:	001f0f13          	addi	x30,x30,1
    41000444:	ff7e8e93          	addi	x29,x29,-9
    41000448:	fcdff06f          	j	41000414 <syscalls__pte_walk_loop_write>

000000004100044c <syscalls__pte_walk_done_write>:
    4100044c:	fff00f93          	li	x31,-1
    41000450:	05fe0263          	beq	x28,x31,41000494 <syscalls__pte_walk_final_write>

0000000041000454 <syscalls__pte_walk_gstage_write>:
    41000454:	4296afb7          	lui	x31,0x4296a
    41000458:	0b0f8f9b          	addiw	x31,x31,176 # 4296a0b0 <pte_access_flags_pa>
    4100045c:	006fb023          	sd	x6,0(x31)
    41000460:	000e0293          	mv	x5,x28
    41000464:	fff00e13          	li	x28,-1
    41000468:	68002373          	csrr	x6,hgatp
    4100046c:	03c35e93          	srli	x29,x6,0x3c
    41000470:	01431313          	slli	x6,x6,0x14
    41000474:	01435313          	srli	x6,x6,0x14
    41000478:	00c31313          	slli	x6,x6,0xc
    4100047c:	ff8e8e93          	addi	x29,x29,-8
    41000480:	003e9f13          	slli	x30,x29,0x3
    41000484:	01df0eb3          	add	x29,x30,x29
    41000488:	01ee8e93          	addi	x29,x29,30
    4100048c:	00000f13          	li	x30,0
    41000490:	f85ff06f          	j	41000414 <syscalls__pte_walk_loop_write>

0000000041000494 <syscalls__pte_walk_final_write>:
    41000494:	00733023          	sd	x7,0(x6)
    41000498:	341022f3          	csrr	x5,mepc
    4100049c:	00428293          	addi	x5,x5,4
    410004a0:	16523c23          	sd	x5,376(x4) # 178 <XLEN+0x138>
    410004a4:	dadff06f          	j	41000250 <syscalls__os_fn_f0001004>

00000000410004a8 <syscalls__pte_walk_fail_write>:
    410004a8:	3180006f          	j	410007c0 <test_failed>

00000000410004ac <syscalls__os_get_hart_context>:
    410004ac:	14002573          	csrr	x10,sscratch
    410004b0:	341022f3          	csrr	x5,mepc
    410004b4:	00428293          	addi	x5,x5,4
    410004b8:	0040006f          	j	410004bc <syscalls__ret_from_os_fn>

00000000410004bc <syscalls__ret_from_os_fn>:
    410004bc:	34102373          	csrr	x6,mepc
    410004c0:	00430313          	addi	x6,x6,4
    410004c4:	16623c23          	sd	x6,376(x4) # 178 <XLEN+0x138>
    410004c8:	34129073          	csrw	mepc,x5
    410004cc:	fff00f93          	li	x31,-1
    410004d0:	2a40006f          	j	41000774 <trap_handler_m__skip_xepc_write>

00000000410004d4 <trap_handler_m__invalid_interrupt>:
    410004d4:	2ec0006f          	j	410007c0 <test_failed>

00000000410004d8 <trap_handler_m__clear_all_interrupts>:
    410004d8:	34401073          	csrw	mip,x0
    410004dc:	30200073          	mret

00000000410004e0 <trap_handler_m___CLEAR_SSI>:
    410004e0:	00200293          	li	x5,2
    410004e4:	3442b073          	csrc	mip,x5
    410004e8:	30200073          	mret

00000000410004ec <trap_handler_m___CLEAR_MSI>:
    410004ec:	00800293          	li	x5,8
    410004f0:	3442b073          	csrc	mip,x5
    410004f4:	30200073          	mret

00000000410004f8 <trap_handler_m___CLEAR_STI>:
    410004f8:	02000293          	li	x5,32
    410004fc:	3442b073          	csrc	mip,x5
    41000500:	30200073          	mret

0000000041000504 <trap_handler_m___CLEAR_MTI>:
    41000504:	08000293          	li	x5,128
    41000508:	3442b073          	csrc	mip,x5
    4100050c:	30200073          	mret

0000000041000510 <trap_handler_m___CLEAR_SEI>:
    41000510:	20000293          	li	x5,512
    41000514:	3442b073          	csrc	mip,x5
    41000518:	30200073          	mret

000000004100051c <trap_handler_m___CLEAR_MEI>:
    4100051c:	000012b7          	lui	x5,0x1
    41000520:	8002829b          	addiw	x5,x5,-2048 # 800 <XLEN+0x7c0>
    41000524:	3442b073          	csrc	mip,x5
    41000528:	30200073          	mret

000000004100052c <trap_handler_m___CLEAR_COI>:
    4100052c:	000022b7          	lui	x5,0x2
    41000530:	3442b073          	csrc	mip,x5
    41000534:	30200073          	mret

0000000041000538 <trap_handler_m__clear_highest_priority_interrupt>:
    41000538:	344022f3          	csrr	x5,mip
    4100053c:	40500333          	neg	x6,x5
    41000540:	0062f2b3          	and	x5,x5,x6
    41000544:	3442b073          	csrc	mip,x5
    41000548:	30200073          	mret

000000004100054c <trap_handler_m__trap_entry>:
    4100054c:	0fc0006f          	j	41000648 <trap_handler_m__trap_handler>

0000000041000550 <trap_handler_m__interrupt_vector_table>:
    41000550:	f91ff06f          	j	410004e0 <trap_handler_m___CLEAR_SSI>
    41000554:	f81ff06f          	j	410004d4 <trap_handler_m__invalid_interrupt>
    41000558:	f95ff06f          	j	410004ec <trap_handler_m___CLEAR_MSI>
    4100055c:	f79ff06f          	j	410004d4 <trap_handler_m__invalid_interrupt>
    41000560:	f99ff06f          	j	410004f8 <trap_handler_m___CLEAR_STI>
    41000564:	f71ff06f          	j	410004d4 <trap_handler_m__invalid_interrupt>
    41000568:	f9dff06f          	j	41000504 <trap_handler_m___CLEAR_MTI>
    4100056c:	f69ff06f          	j	410004d4 <trap_handler_m__invalid_interrupt>
    41000570:	fa1ff06f          	j	41000510 <trap_handler_m___CLEAR_SEI>
    41000574:	f61ff06f          	j	410004d4 <trap_handler_m__invalid_interrupt>
    41000578:	fa5ff06f          	j	4100051c <trap_handler_m___CLEAR_MEI>
    4100057c:	f59ff06f          	j	410004d4 <trap_handler_m__invalid_interrupt>
    41000580:	fadff06f          	j	4100052c <trap_handler_m___CLEAR_COI>
    41000584:	f51ff06f          	j	410004d4 <trap_handler_m__invalid_interrupt>
    41000588:	f4dff06f          	j	410004d4 <trap_handler_m__invalid_interrupt>
    4100058c:	fadff06f          	j	41000538 <trap_handler_m__clear_highest_priority_interrupt>
    41000590:	fa9ff06f          	j	41000538 <trap_handler_m__clear_highest_priority_interrupt>
    41000594:	fa5ff06f          	j	41000538 <trap_handler_m__clear_highest_priority_interrupt>
    41000598:	fa1ff06f          	j	41000538 <trap_handler_m__clear_highest_priority_interrupt>
    4100059c:	f9dff06f          	j	41000538 <trap_handler_m__clear_highest_priority_interrupt>
    410005a0:	f99ff06f          	j	41000538 <trap_handler_m__clear_highest_priority_interrupt>
    410005a4:	f95ff06f          	j	41000538 <trap_handler_m__clear_highest_priority_interrupt>
    410005a8:	f91ff06f          	j	41000538 <trap_handler_m__clear_highest_priority_interrupt>
    410005ac:	f8dff06f          	j	41000538 <trap_handler_m__clear_highest_priority_interrupt>
    410005b0:	f89ff06f          	j	41000538 <trap_handler_m__clear_highest_priority_interrupt>
    410005b4:	f85ff06f          	j	41000538 <trap_handler_m__clear_highest_priority_interrupt>
    410005b8:	f81ff06f          	j	41000538 <trap_handler_m__clear_highest_priority_interrupt>
    410005bc:	f7dff06f          	j	41000538 <trap_handler_m__clear_highest_priority_interrupt>
    410005c0:	f79ff06f          	j	41000538 <trap_handler_m__clear_highest_priority_interrupt>
    410005c4:	f75ff06f          	j	41000538 <trap_handler_m__clear_highest_priority_interrupt>
    410005c8:	f71ff06f          	j	41000538 <trap_handler_m__clear_highest_priority_interrupt>
    410005cc:	f6dff06f          	j	41000538 <trap_handler_m__clear_highest_priority_interrupt>
    410005d0:	f69ff06f          	j	41000538 <trap_handler_m__clear_highest_priority_interrupt>
    410005d4:	f65ff06f          	j	41000538 <trap_handler_m__clear_highest_priority_interrupt>
    410005d8:	f61ff06f          	j	41000538 <trap_handler_m__clear_highest_priority_interrupt>
    410005dc:	f5dff06f          	j	41000538 <trap_handler_m__clear_highest_priority_interrupt>
    410005e0:	f59ff06f          	j	41000538 <trap_handler_m__clear_highest_priority_interrupt>
    410005e4:	f55ff06f          	j	41000538 <trap_handler_m__clear_highest_priority_interrupt>
    410005e8:	f51ff06f          	j	41000538 <trap_handler_m__clear_highest_priority_interrupt>
    410005ec:	f4dff06f          	j	41000538 <trap_handler_m__clear_highest_priority_interrupt>
    410005f0:	f49ff06f          	j	41000538 <trap_handler_m__clear_highest_priority_interrupt>
    410005f4:	f45ff06f          	j	41000538 <trap_handler_m__clear_highest_priority_interrupt>
    410005f8:	f41ff06f          	j	41000538 <trap_handler_m__clear_highest_priority_interrupt>
    410005fc:	f3dff06f          	j	41000538 <trap_handler_m__clear_highest_priority_interrupt>
    41000600:	f39ff06f          	j	41000538 <trap_handler_m__clear_highest_priority_interrupt>
    41000604:	f35ff06f          	j	41000538 <trap_handler_m__clear_highest_priority_interrupt>
    41000608:	f31ff06f          	j	41000538 <trap_handler_m__clear_highest_priority_interrupt>
    4100060c:	f2dff06f          	j	41000538 <trap_handler_m__clear_highest_priority_interrupt>
    41000610:	f29ff06f          	j	41000538 <trap_handler_m__clear_highest_priority_interrupt>
    41000614:	f25ff06f          	j	41000538 <trap_handler_m__clear_highest_priority_interrupt>
    41000618:	f21ff06f          	j	41000538 <trap_handler_m__clear_highest_priority_interrupt>
    4100061c:	f1dff06f          	j	41000538 <trap_handler_m__clear_highest_priority_interrupt>
    41000620:	f19ff06f          	j	41000538 <trap_handler_m__clear_highest_priority_interrupt>
    41000624:	f15ff06f          	j	41000538 <trap_handler_m__clear_highest_priority_interrupt>
    41000628:	f11ff06f          	j	41000538 <trap_handler_m__clear_highest_priority_interrupt>
    4100062c:	f0dff06f          	j	41000538 <trap_handler_m__clear_highest_priority_interrupt>
    41000630:	f09ff06f          	j	41000538 <trap_handler_m__clear_highest_priority_interrupt>
    41000634:	f05ff06f          	j	41000538 <trap_handler_m__clear_highest_priority_interrupt>
    41000638:	f01ff06f          	j	41000538 <trap_handler_m__clear_highest_priority_interrupt>
    4100063c:	efdff06f          	j	41000538 <trap_handler_m__clear_highest_priority_interrupt>
    41000640:	ef9ff06f          	j	41000538 <trap_handler_m__clear_highest_priority_interrupt>
    41000644:	ef5ff06f          	j	41000538 <trap_handler_m__clear_highest_priority_interrupt>

0000000041000648 <trap_handler_m__trap_handler>:
    41000648:	342022f3          	csrr	x5,mcause
    4100064c:	fff0031b          	addiw	x6,x0,-1
    41000650:	03f31313          	slli	x6,x6,0x3f
    41000654:	00537333          	and	x6,x6,x5
    41000658:	02030263          	beqz	x6,4100067c <trap_handler_m__exception_path>

000000004100065c <trap_handler_m__interrupt_handler>:
    4100065c:	fff0031b          	addiw	x6,x0,-1
    41000660:	03f31313          	slli	x6,x6,0x3f
    41000664:	0062c2b3          	xor	x5,x5,x6
    41000668:	00000317          	auipc	x6,0x0
    4100066c:	ee430313          	addi	x6,x6,-284 # 4100054c <trap_handler_m__trap_entry>
    41000670:	00229293          	slli	x5,x5,0x2
    41000674:	005302b3          	add	x5,x6,x5
    41000678:	00028067          	jr	x5 # 2000 <pma_region_1_size+0x1000>

000000004100067c <trap_handler_m__exception_path>:
    4100067c:	34021273          	csrrw	x4,mscratch,x4
    41000680:	00000297          	auipc	x5,0x0
    41000684:	10828293          	addi	x5,x5,264 # 41000788 <trap_handler_m__trap_panic>
    41000688:	30529073          	csrw	mtvec,x5
    4100068c:	0040006f          	j	41000690 <trap_handler_m__excp_entry>

0000000041000690 <trap_handler_m__excp_entry>:
    41000690:	34202373          	csrr	x6,mcause
    41000694:	00800293          	li	x5,8
    41000698:	00534863          	blt	x6,x5,410006a8 <trap_handler_m__check_exception_label>
    4100069c:	00b00293          	li	x5,11
    410006a0:	0062c463          	blt	x5,x6,410006a8 <trap_handler_m__check_exception_label>
    410006a4:	a31ff06f          	j	410000d4 <syscalls__syscall_check_schedule_next_test>

00000000410006a8 <trap_handler_m__check_exception_label>:
    410006a8:	04623c23          	sd	x6,88(x4) # 58 <XLEN+0x18>
    410006ac:	341022f3          	csrr	x5,mepc
    410006b0:	02523423          	sd	x5,40(x4) # 28 <SECURE_ACCESS_PROBABILITY+0xa>
    410006b4:	01820283          	lb	x5,24(x4) # 18 <STORE_GUEST_PAGE_FAULT+0x1>
    410006b8:	00029863          	bnez	x5,410006c8 <trap_handler_m__check_excp>
    410006bc:	00128293          	addi	x5,x5,1
    410006c0:	00520c23          	sb	x5,24(x4) # 18 <STORE_GUEST_PAGE_FAULT+0x1>
    410006c4:	0980006f          	j	4100075c <trap_handler_m__ecall_from_machine>

00000000410006c8 <trap_handler_m__check_excp>:
    410006c8:	06823283          	ld	x5,104(x4) # 68 <XLEN+0x28>
    410006cc:	06023423          	sd	x0,104(x4) # 68 <XLEN+0x28>
    410006d0:	00028663          	beqz	x5,410006dc <trap_handler_m__skip_mode_check>
    410006d4:	00100393          	li	x7,1
    410006d8:	0e729463          	bne	x5,x7,410007c0 <test_failed>

00000000410006dc <trap_handler_m__skip_mode_check>:
    410006dc:	05023283          	ld	x5,80(x4) # 50 <XLEN+0x10>
    410006e0:	04023823          	sd	x0,80(x4) # 50 <XLEN+0x10>
    410006e4:	0c531e63          	bne	x6,x5,410007c0 <test_failed>
    410006e8:	03823283          	ld	x5,56(x4) # 38 <SECURE_ACCESS_PROBABILITY+0x1a>
    410006ec:	02023c23          	sd	x0,56(x4) # 38 <SECURE_ACCESS_PROBABILITY+0x1a>
    410006f0:	06029463          	bnez	x5,41000758 <trap_handler_m__skip_gva_check>
    410006f4:	02023303          	ld	x6,32(x4) # 20 <SECURE_ACCESS_PROBABILITY+0x2>
    410006f8:	02023023          	sd	x0,32(x4) # 20 <SECURE_ACCESS_PROBABILITY+0x2>
    410006fc:	02823283          	ld	x5,40(x4) # 28 <SECURE_ACCESS_PROBABILITY+0xa>
    41000700:	02023423          	sd	x0,40(x4) # 28 <SECURE_ACCESS_PROBABILITY+0xa>
    41000704:	0a531e63          	bne	x6,x5,410007c0 <test_failed>
    41000708:	04023283          	ld	x5,64(x4) # 40 <XLEN>
    4100070c:	04023023          	sd	x0,64(x4) # 40 <XLEN>
    41000710:	00028663          	beqz	x5,4100071c <trap_handler_m__skip_nonzero_tval_check>

0000000041000714 <trap_handler_m__nonzero_tval_check>:
    41000714:	34302373          	csrr	x6,mtval
    41000718:	0a531463          	bne	x6,x5,410007c0 <test_failed>

000000004100071c <trap_handler_m__skip_nonzero_tval_check>:
    4100071c:	04823283          	ld	x5,72(x4) # 48 <XLEN+0x8>
    41000720:	04023423          	sd	x0,72(x4) # 48 <XLEN+0x8>
    41000724:	00028663          	beqz	x5,41000730 <trap_handler_m__skip_nonzero_htval_check>

0000000041000728 <trap_handler_m__nonzero_htval_check>:
    41000728:	34b02373          	csrr	x6,0x34b
    4100072c:	08531a63          	bne	x6,x5,410007c0 <test_failed>

0000000041000730 <trap_handler_m__skip_nonzero_htval_check>:
    41000730:	06023283          	ld	x5,96(x4) # 60 <XLEN+0x20>
    41000734:	06023023          	sd	x0,96(x4) # 60 <XLEN+0x20>
    41000738:	02028063          	beqz	x5,41000758 <trap_handler_m__skip_gva_check>

000000004100073c <trap_handler_m__gva_check>:
    4100073c:	30002373          	csrr	x6,mstatus
    41000740:	02635313          	srli	x6,x6,0x26
    41000744:	00137313          	andi	x6,x6,1
    41000748:	06030c63          	beqz	x6,410007c0 <test_failed>
    4100074c:	0010031b          	addiw	x6,x0,1
    41000750:	02631313          	slli	x6,x6,0x26
    41000754:	30033073          	csrc	mstatus,x6

0000000041000758 <trap_handler_m__skip_gva_check>:
    41000758:	0040006f          	j	4100075c <trap_handler_m__ecall_from_machine>

000000004100075c <trap_handler_m__ecall_from_machine>:
    4100075c:	03023283          	ld	x5,48(x4) # 30 <SECURE_ACCESS_PROBABILITY+0x12>
    41000760:	02023823          	sd	x0,48(x4) # 30 <SECURE_ACCESS_PROBABILITY+0x12>
    41000764:	07023303          	ld	x6,112(x4) # 70 <XLEN+0x30>
    41000768:	06023823          	sd	x0,112(x4) # 70 <XLEN+0x30>
    4100076c:	00031463          	bnez	x6,41000774 <trap_handler_m__skip_xepc_write>
    41000770:	34129073          	csrw	mepc,x5

0000000041000774 <trap_handler_m__skip_xepc_write>:
    41000774:	00000317          	auipc	x6,0x0
    41000778:	dd830313          	addi	x6,x6,-552 # 4100054c <trap_handler_m__trap_entry>
    4100077c:	30531073          	csrw	mtvec,x6
    41000780:	34021273          	csrrw	x4,mscratch,x4
    41000784:	30200073          	mret

0000000041000788 <trap_handler_m__trap_panic>:
    41000788:	00000193          	li	x3,0
    4100078c:	2b40006f          	j	41000a40 <eot__end_test>

0000000041000790 <enter_scheduler>:
    41000790:	0002f337          	lui	x6,0x2f
    41000794:	ab73031b          	addiw	x6,x6,-1353 # 2eab7 <mem0+0x2aab7>
    41000798:	00e31313          	slli	x6,x6,0xe
    4100079c:	0de30313          	addi	x6,x6,222
    410007a0:	02628063          	beq	x5,x6,410007c0 <test_failed>
    410007a4:	00000513          	li	x10,0
    410007a8:	030000ef          	jal	410007d8 <rvcp_print_test_result>
    410007ac:	3180006f          	j	41000ac4 <scheduler__dispatch>

00000000410007b0 <test_passed>:
    410007b0:	34021273          	csrrw	x4,mscratch,x4
    410007b4:	00000513          	li	x10,0
    410007b8:	020000ef          	jal	410007d8 <rvcp_print_test_result>
    410007bc:	3080006f          	j	41000ac4 <scheduler__dispatch>

00000000410007c0 <test_failed>:
    410007c0:	34021273          	csrrw	x4,mscratch,x4
    410007c4:	00300193          	li	x3,3
    410007c8:	2780006f          	j	41000a40 <eot__end_test>

00000000410007cc <os_end_test>:
    410007cc:	34021273          	csrrw	x4,mscratch,x4
    410007d0:	00100193          	li	x3,1
    410007d4:	26c0006f          	j	41000a40 <eot__end_test>

00000000410007d8 <rvcp_print_test_result>:
    410007d8:	00050e13          	mv	x28,x10
    410007dc:	18823283          	ld	x5,392(x4) # 188 <XLEN+0x148>
    410007e0:	0010031b          	addiw	x6,x0,1
    410007e4:	02031313          	slli	x6,x6,0x20
    410007e8:	ffe30313          	addi	x6,x6,-2
    410007ec:	1c628063          	beq	x5,x6,410009ac <rvcp_print_test_result+0x1d4>
    410007f0:	0010031b          	addiw	x6,x0,1
    410007f4:	02031313          	slli	x6,x6,0x20
    410007f8:	fff30313          	addi	x6,x6,-1
    410007fc:	1a628863          	beq	x5,x6,410009ac <rvcp_print_test_result+0x1d4>
    41000800:	1a02c663          	bltz	x5,410009ac <rvcp_print_test_result+0x1d4>
    41000804:	00000317          	auipc	x6,0x0
    41000808:	45030313          	addi	x6,x6,1104 # 41000c54 <dtest_descriptor_table>
    4100080c:	00329393          	slli	x7,x5,0x3
    41000810:	00730333          	add	x6,x6,x7
    41000814:	00033e83          	ld	x29,0(x6)
    41000818:	4296af37          	lui	x30,0x4296a
    4100081c:	030f0f1b          	addiw	x30,x30,48 # 4296a030 <rvcp_prefix_str_pa>
    41000820:	000f4283          	lbu	x5,0(x30)
    41000824:	02028663          	beqz	x5,41000850 <rvcp_print_test_result+0x78>
    41000828:	1010031b          	addiw	x6,x0,257
    4100082c:	03031313          	slli	x6,x6,0x30
    41000830:	005362b3          	or	x5,x6,x5
    41000834:	0003f317          	auipc	x6,0x3f
    41000838:	7cc30313          	addi	x6,x6,1996 # 41040000 <tohost>
    4100083c:	00033383          	ld	x7,0(x6)
    41000840:	fe039ee3          	bnez	x7,4100083c <rvcp_print_test_result+0x64>
    41000844:	00533023          	sd	x5,0(x6)
    41000848:	001f0f13          	addi	x30,x30,1
    4100084c:	fd5ff06f          	j	41000820 <rvcp_print_test_result+0x48>
    41000850:	4296af37          	lui	x30,0x4296a
    41000854:	041f0f1b          	addiw	x30,x30,65 # 4296a041 <rvcp_testname_str_pa>
    41000858:	000f4283          	lbu	x5,0(x30)
    4100085c:	02028663          	beqz	x5,41000888 <rvcp_print_test_result+0xb0>
    41000860:	1010031b          	addiw	x6,x0,257
    41000864:	03031313          	slli	x6,x6,0x30
    41000868:	005362b3          	or	x5,x6,x5
    4100086c:	0003f317          	auipc	x6,0x3f
    41000870:	79430313          	addi	x6,x6,1940 # 41040000 <tohost>
    41000874:	00033383          	ld	x7,0(x6)
    41000878:	fe039ee3          	bnez	x7,41000874 <rvcp_print_test_result+0x9c>
    4100087c:	00533023          	sd	x5,0(x6)
    41000880:	001f0f13          	addi	x30,x30,1
    41000884:	fd5ff06f          	j	41000858 <rvcp_print_test_result+0x80>
    41000888:	4296af37          	lui	x30,0x4296a
    4100088c:	05bf0f1b          	addiw	x30,x30,91 # 4296a05b <rvcp_space_str_pa>
    41000890:	000f4283          	lbu	x5,0(x30)
    41000894:	02028663          	beqz	x5,410008c0 <rvcp_print_test_result+0xe8>
    41000898:	1010031b          	addiw	x6,x0,257
    4100089c:	03031313          	slli	x6,x6,0x30
    410008a0:	005362b3          	or	x5,x6,x5
    410008a4:	0003f317          	auipc	x6,0x3f
    410008a8:	75c30313          	addi	x6,x6,1884 # 41040000 <tohost>
    410008ac:	00033383          	ld	x7,0(x6)
    410008b0:	fe039ee3          	bnez	x7,410008ac <rvcp_print_test_result+0xd4>
    410008b4:	00533023          	sd	x5,0(x6)
    410008b8:	001f0f13          	addi	x30,x30,1
    410008bc:	fd5ff06f          	j	41000890 <rvcp_print_test_result+0xb8>
    410008c0:	000e8f13          	mv	x30,x29
    410008c4:	000f4283          	lbu	x5,0(x30)
    410008c8:	02028663          	beqz	x5,410008f4 <rvcp_print_test_result+0x11c>
    410008cc:	1010031b          	addiw	x6,x0,257
    410008d0:	03031313          	slli	x6,x6,0x30
    410008d4:	005362b3          	or	x5,x6,x5
    410008d8:	0003f317          	auipc	x6,0x3f
    410008dc:	72830313          	addi	x6,x6,1832 # 41040000 <tohost>
    410008e0:	00033383          	ld	x7,0(x6)
    410008e4:	fe039ee3          	bnez	x7,410008e0 <rvcp_print_test_result+0x108>
    410008e8:	00533023          	sd	x5,0(x6)
    410008ec:	001f0f13          	addi	x30,x30,1
    410008f0:	fd5ff06f          	j	410008c4 <rvcp_print_test_result+0xec>
    410008f4:	4296af37          	lui	x30,0x4296a
    410008f8:	05bf0f1b          	addiw	x30,x30,91 # 4296a05b <rvcp_space_str_pa>
    410008fc:	000f4283          	lbu	x5,0(x30)
    41000900:	02028663          	beqz	x5,4100092c <rvcp_print_test_result+0x154>
    41000904:	1010031b          	addiw	x6,x0,257
    41000908:	03031313          	slli	x6,x6,0x30
    4100090c:	005362b3          	or	x5,x6,x5
    41000910:	0003f317          	auipc	x6,0x3f
    41000914:	6f030313          	addi	x6,x6,1776 # 41040000 <tohost>
    41000918:	00033383          	ld	x7,0(x6)
    4100091c:	fe039ee3          	bnez	x7,41000918 <rvcp_print_test_result+0x140>
    41000920:	00533023          	sd	x5,0(x6)
    41000924:	001f0f13          	addi	x30,x30,1
    41000928:	fd5ff06f          	j	410008fc <rvcp_print_test_result+0x124>
    4100092c:	000e1863          	bnez	x28,4100093c <rvcp_print_test_result+0x164>
    41000930:	4296af37          	lui	x30,0x4296a
    41000934:	04df0f1b          	addiw	x30,x30,77 # 4296a04d <rvcp_passed_str_pa>
    41000938:	00c0006f          	j	41000944 <rvcp_print_test_result+0x16c>
    4100093c:	4296af37          	lui	x30,0x4296a
    41000940:	054f0f1b          	addiw	x30,x30,84 # 4296a054 <rvcp_failed_str_pa>
    41000944:	000f4283          	lbu	x5,0(x30)
    41000948:	02028663          	beqz	x5,41000974 <rvcp_print_test_result+0x19c>
    4100094c:	1010031b          	addiw	x6,x0,257
    41000950:	03031313          	slli	x6,x6,0x30
    41000954:	005362b3          	or	x5,x6,x5
    41000958:	0003f317          	auipc	x6,0x3f
    4100095c:	6a830313          	addi	x6,x6,1704 # 41040000 <tohost>
    41000960:	00033383          	ld	x7,0(x6)
    41000964:	fe039ee3          	bnez	x7,41000960 <rvcp_print_test_result+0x188>
    41000968:	00533023          	sd	x5,0(x6)
    4100096c:	001f0f13          	addi	x30,x30,1
    41000970:	fd5ff06f          	j	41000944 <rvcp_print_test_result+0x16c>
    41000974:	4296af37          	lui	x30,0x4296a
    41000978:	05df0f1b          	addiw	x30,x30,93 # 4296a05d <rvcp_newline_str_pa>
    4100097c:	000f4283          	lbu	x5,0(x30)
    41000980:	02028663          	beqz	x5,410009ac <rvcp_print_test_result+0x1d4>
    41000984:	1010031b          	addiw	x6,x0,257
    41000988:	03031313          	slli	x6,x6,0x30
    4100098c:	005362b3          	or	x5,x6,x5
    41000990:	0003f317          	auipc	x6,0x3f
    41000994:	67030313          	addi	x6,x6,1648 # 41040000 <tohost>
    41000998:	00033383          	ld	x7,0(x6)
    4100099c:	fe039ee3          	bnez	x7,41000998 <rvcp_print_test_result+0x1c0>
    410009a0:	00533023          	sd	x5,0(x6)
    410009a4:	001f0f13          	addi	x30,x30,1
    410009a8:	fd5ff06f          	j	4100097c <rvcp_print_test_result+0x1a4>
    410009ac:	00008067          	ret

00000000410009b0 <os_rng_orig>:
    410009b0:	f14023f3          	csrr	x7,mhartid
    410009b4:	00068313          	mv	x6,x13
    410009b8:	026383b3          	mul	x7,x7,x6
    410009bc:	00058313          	mv	x6,x11
    410009c0:	00730333          	add	x6,x6,x7
    410009c4:	00033283          	ld	x5,0(x6)
    410009c8:	01529313          	slli	x6,x5,0x15
    410009cc:	0062c2b3          	xor	x5,x5,x6
    410009d0:	0232d313          	srli	x6,x5,0x23
    410009d4:	0062c2b3          	xor	x5,x5,x6
    410009d8:	00429313          	slli	x6,x5,0x4
    410009dc:	0062c2b3          	xor	x5,x5,x6
    410009e0:	00058313          	mv	x6,x11
    410009e4:	00730333          	add	x6,x6,x7
    410009e8:	00533023          	sd	x5,0(x6)
    410009ec:	00060313          	mv	x6,x12
    410009f0:	0262f2b3          	remu	x5,x5,x6
    410009f4:	00028513          	mv	x10,x5
    410009f8:	00008067          	ret
    410009fc:	02a00513          	li	x10,42
    41000a00:	001965b7          	lui	x11,0x196
    41000a04:	60d5859b          	addiw	x11,x11,1549 # 19660d <hart_stack_0_end+0x7860d>
    41000a08:	3c6ef637          	lui	x12,0x3c6ef
    41000a0c:	35f6061b          	addiw	x12,x12,863 # 3c6ef35f <mem5+0x64ef35f>
    41000a10:	02200693          	li	x13,34
    41000a14:	02b50533          	mul	x10,x10,x11
    41000a18:	00c50533          	add	x10,x10,x12
    41000a1c:	02d56533          	rem	x10,x10,x13
    41000a20:	00b00593          	li	x11,11
    41000a24:	02b56533          	rem	x10,x10,x11
    41000a28:	00008067          	ret
    41000a2c:	0000                	.insn	2, 0x0000
	...

0000000041000a30 <tohost_mutex>:
	...

0000000041000a38 <tohost_addr_mem>:
    41000a38:	0000                	.insn	2, 0x0000
    41000a3a:	4104                	.insn	2, 0x4104
    41000a3c:	0000                	.insn	2, 0x0000
	...

0000000041000a40 <eot__end_test>:
    41000a40:	00100293          	li	x5,1
    41000a44:	00328463          	beq	x5,x3,41000a4c <eot__passed>
    41000a48:	01c0006f          	j	41000a64 <eot__failed>

0000000041000a4c <eot__passed>:
    41000a4c:	0ff0000f          	fence
    41000a50:	00000297          	auipc	x5,0x0
    41000a54:	fe82b283          	ld	x5,-24(x5) # 41000a38 <tohost_addr_mem>
    41000a58:	00100313          	li	x6,1
    41000a5c:	0062a023          	sw	x6,0(x5)
    41000a60:	0240006f          	j	41000a84 <eot__halt>

0000000041000a64 <eot__failed>:
    41000a64:	00100513          	li	x10,1
    41000a68:	d71ff0ef          	jal	410007d8 <rvcp_print_test_result>
    41000a6c:	0ff0000f          	fence
    41000a70:	00000297          	auipc	x5,0x0
    41000a74:	fc82b283          	ld	x5,-56(x5) # 41000a38 <tohost_addr_mem>
    41000a78:	00300313          	li	x6,3
    41000a7c:	0062a023          	sw	x6,0(x5)
    41000a80:	0040006f          	j	41000a84 <eot__halt>

0000000041000a84 <eot__halt>:
    41000a84:	10500073          	wfi
    41000a88:	ffdff06f          	j	41000a84 <eot__halt>

0000000041000a8c <scheduler__init>:
    41000a8c:	00000297          	auipc	x5,0x0
    41000a90:	0c028293          	addi	x5,x5,192 # 41000b4c <scheduler__panic>
    41000a94:	305292f3          	csrrw	x5,mtvec,x5
    41000a98:	18523023          	sd	x5,384(x4) # 180 <XLEN+0x140>
    41000a9c:	01f00293          	li	x5,31
    41000aa0:	18523823          	sd	x5,400(x4) # 190 <XLEN+0x150>
    41000aa4:	0010029b          	addiw	x5,x0,1
    41000aa8:	02029293          	slli	x5,x5,0x20
    41000aac:	ffe28293          	addi	x5,x5,-2
    41000ab0:	18523423          	sd	x5,392(x4) # 188 <XLEN+0x148>
    41000ab4:	00000317          	auipc	x6,0x0
    41000ab8:	32030313          	addi	x6,x6,800 # 41000dd4 <scheduler__test_setup_ptr>
    41000abc:	00033303          	ld	x6,0(x6)
    41000ac0:	0640006f          	j	41000b24 <scheduler__execute_test>

0000000041000ac4 <scheduler__dispatch>:
    41000ac4:	00000297          	auipc	x5,0x0
    41000ac8:	08828293          	addi	x5,x5,136 # 41000b4c <scheduler__panic>
    41000acc:	305292f3          	csrrw	x5,mtvec,x5
    41000ad0:	18523023          	sd	x5,384(x4) # 180 <XLEN+0x140>

0000000041000ad4 <scheduler__csr_read_randomization>:
    41000ad4:	f11022f3          	csrr	x5,mvendorid
    41000ad8:	143022f3          	csrr	x5,stval
    41000adc:	f11022f3          	csrr	x5,mvendorid
    41000ae0:	141022f3          	csrr	x5,sepc
    41000ae4:	305022f3          	csrr	x5,mtvec

0000000041000ae8 <scheduler__load_num_runs>:
    41000ae8:	19023303          	ld	x6,400(x4) # 190 <XLEN+0x150>
    41000aec:	04030c63          	beqz	x6,41000b44 <scheduler__finished>

0000000041000af0 <scheduler__decrement_num_runs>:
    41000af0:	fff30393          	addi	x7,x6,-1
    41000af4:	18723823          	sd	x7,400(x4) # 190 <XLEN+0x150>
    41000af8:	00000e17          	auipc	x28,0x0
    41000afc:	260e0e13          	addi	x28,x28,608 # 41000d58 <dtest_index_map>
    41000b00:	00239e93          	slli	x29,x7,0x2
    41000b04:	01de0e33          	add	x28,x28,x29
    41000b08:	000e2e03          	lw	x28,0(x28)
    41000b0c:	19c23423          	sd	x28,392(x4) # 188 <XLEN+0x148>

0000000041000b10 <scheduler__calc_test_pointer>:
    41000b10:	00339293          	slli	x5,x7,0x3

0000000041000b14 <scheduler__load_test_addr>:
    41000b14:	00000317          	auipc	x6,0x0
    41000b18:	04830313          	addi	x6,x6,72 # 41000b5c <os_test_sequence>
    41000b1c:	006282b3          	add	x5,x5,x6
    41000b20:	0002b303          	ld	x6,0(x5)

0000000041000b24 <scheduler__execute_test>:
    41000b24:	18023283          	ld	x5,384(x4) # 180 <XLEN+0x140>
    41000b28:	30529073          	csrw	mtvec,x5
    41000b2c:	34021273          	csrrw	x4,mscratch,x4
    41000b30:	00000213          	li	x4,0
    41000b34:	14131073          	csrw	sepc,x6
    41000b38:	10000293          	li	x5,256
    41000b3c:	1002b073          	csrc	sstatus,x5
    41000b40:	10200073          	sret

0000000041000b44 <scheduler__finished>:
    41000b44:	00100193          	li	x3,1
    41000b48:	ef9ff06f          	j	41000a40 <eot__end_test>

0000000041000b4c <scheduler__panic>:
    41000b4c:	00000193          	li	x3,0
    41000b50:	ef1ff06f          	j	41000a40 <eot__end_test>

0000000041000b54 <num_runs>:
    41000b54:	001f 0000 0000      	.insn	6, 0x001f
	...

0000000041000b5c <os_test_sequence>:
    41000b5c:	59d0                	.insn	2, 0x59d0
    41000b5e:	4101                	.insn	2, 0x4101
    41000b60:	0000                	.insn	2, 0x0000
    41000b62:	0000                	.insn	2, 0x0000
    41000b64:	5268                	.insn	2, 0x5268
    41000b66:	4101                	.insn	2, 0x4101
    41000b68:	0000                	.insn	2, 0x0000
    41000b6a:	0000                	.insn	2, 0x0000
    41000b6c:	5764                	.insn	2, 0x5764
    41000b6e:	4101                	.insn	2, 0x4101
    41000b70:	0000                	.insn	2, 0x0000
    41000b72:	0000                	.insn	2, 0x0000
    41000b74:	55e4                	.insn	2, 0x55e4
    41000b76:	4101                	.insn	2, 0x4101
    41000b78:	0000                	.insn	2, 0x0000
    41000b7a:	0000                	.insn	2, 0x0000
    41000b7c:	55e4                	.insn	2, 0x55e4
    41000b7e:	4101                	.insn	2, 0x4101
    41000b80:	0000                	.insn	2, 0x0000
    41000b82:	0000                	.insn	2, 0x0000
    41000b84:	5160                	.insn	2, 0x5160
    41000b86:	4101                	.insn	2, 0x4101
    41000b88:	0000                	.insn	2, 0x0000
    41000b8a:	0000                	.insn	2, 0x0000
    41000b8c:	5810                	.insn	2, 0x5810
    41000b8e:	4101                	.insn	2, 0x4101
    41000b90:	0000                	.insn	2, 0x0000
    41000b92:	0000                	.insn	2, 0x0000
    41000b94:	5268                	.insn	2, 0x5268
    41000b96:	4101                	.insn	2, 0x4101
    41000b98:	0000                	.insn	2, 0x0000
    41000b9a:	0000                	.insn	2, 0x0000
    41000b9c:	5390                	.insn	2, 0x5390
    41000b9e:	4101                	.insn	2, 0x4101
    41000ba0:	0000                	.insn	2, 0x0000
    41000ba2:	0000                	.insn	2, 0x0000
    41000ba4:	5530                	.insn	2, 0x5530
    41000ba6:	4101                	.insn	2, 0x4101
    41000ba8:	0000                	.insn	2, 0x0000
    41000baa:	0000                	.insn	2, 0x0000
    41000bac:	55e4                	.insn	2, 0x55e4
    41000bae:	4101                	.insn	2, 0x4101
    41000bb0:	0000                	.insn	2, 0x0000
    41000bb2:	0000                	.insn	2, 0x0000
    41000bb4:	5690                	.insn	2, 0x5690
    41000bb6:	4101                	.insn	2, 0x4101
    41000bb8:	0000                	.insn	2, 0x0000
    41000bba:	0000                	.insn	2, 0x0000
    41000bbc:	5810                	.insn	2, 0x5810
    41000bbe:	4101                	.insn	2, 0x4101
    41000bc0:	0000                	.insn	2, 0x0000
    41000bc2:	0000                	.insn	2, 0x0000
    41000bc4:	5530                	.insn	2, 0x5530
    41000bc6:	4101                	.insn	2, 0x4101
    41000bc8:	0000                	.insn	2, 0x0000
    41000bca:	0000                	.insn	2, 0x0000
    41000bcc:	5690                	.insn	2, 0x5690
    41000bce:	4101                	.insn	2, 0x4101
    41000bd0:	0000                	.insn	2, 0x0000
    41000bd2:	0000                	.insn	2, 0x0000
    41000bd4:	5444                	.insn	2, 0x5444
    41000bd6:	4101                	.insn	2, 0x4101
    41000bd8:	0000                	.insn	2, 0x0000
    41000bda:	0000                	.insn	2, 0x0000
    41000bdc:	5530                	.insn	2, 0x5530
    41000bde:	4101                	.insn	2, 0x4101
    41000be0:	0000                	.insn	2, 0x0000
    41000be2:	0000                	.insn	2, 0x0000
    41000be4:	5764                	.insn	2, 0x5764
    41000be6:	4101                	.insn	2, 0x4101
    41000be8:	0000                	.insn	2, 0x0000
    41000bea:	0000                	.insn	2, 0x0000
    41000bec:	58e4                	.insn	2, 0x58e4
    41000bee:	4101                	.insn	2, 0x4101
    41000bf0:	0000                	.insn	2, 0x0000
    41000bf2:	0000                	.insn	2, 0x0000
    41000bf4:	5390                	.insn	2, 0x5390
    41000bf6:	4101                	.insn	2, 0x4101
    41000bf8:	0000                	.insn	2, 0x0000
    41000bfa:	0000                	.insn	2, 0x0000
    41000bfc:	5690                	.insn	2, 0x5690
    41000bfe:	4101                	.insn	2, 0x4101
    41000c00:	0000                	.insn	2, 0x0000
    41000c02:	0000                	.insn	2, 0x0000
    41000c04:	5390                	.insn	2, 0x5390
    41000c06:	4101                	.insn	2, 0x4101
    41000c08:	0000                	.insn	2, 0x0000
    41000c0a:	0000                	.insn	2, 0x0000
    41000c0c:	5444                	.insn	2, 0x5444
    41000c0e:	4101                	.insn	2, 0x4101
    41000c10:	0000                	.insn	2, 0x0000
    41000c12:	0000                	.insn	2, 0x0000
    41000c14:	5764                	.insn	2, 0x5764
    41000c16:	4101                	.insn	2, 0x4101
    41000c18:	0000                	.insn	2, 0x0000
    41000c1a:	0000                	.insn	2, 0x0000
    41000c1c:	5268                	.insn	2, 0x5268
    41000c1e:	4101                	.insn	2, 0x4101
    41000c20:	0000                	.insn	2, 0x0000
    41000c22:	0000                	.insn	2, 0x0000
    41000c24:	5444                	.insn	2, 0x5444
    41000c26:	4101                	.insn	2, 0x4101
    41000c28:	0000                	.insn	2, 0x0000
    41000c2a:	0000                	.insn	2, 0x0000
    41000c2c:	5810                	.insn	2, 0x5810
    41000c2e:	4101                	.insn	2, 0x4101
    41000c30:	0000                	.insn	2, 0x0000
    41000c32:	0000                	.insn	2, 0x0000
    41000c34:	5160                	.insn	2, 0x5160
    41000c36:	4101                	.insn	2, 0x4101
    41000c38:	0000                	.insn	2, 0x0000
    41000c3a:	0000                	.insn	2, 0x0000
    41000c3c:	5160                	.insn	2, 0x5160
    41000c3e:	4101                	.insn	2, 0x4101
    41000c40:	0000                	.insn	2, 0x0000
    41000c42:	0000                	.insn	2, 0x0000
    41000c44:	58e4                	.insn	2, 0x58e4
    41000c46:	4101                	.insn	2, 0x4101
    41000c48:	0000                	.insn	2, 0x0000
    41000c4a:	0000                	.insn	2, 0x0000
    41000c4c:	58e4                	.insn	2, 0x58e4
    41000c4e:	4101                	.insn	2, 0x4101
    41000c50:	0000                	.insn	2, 0x0000
	...

0000000041000c54 <dtest_descriptor_table>:
    41000c54:	0ca4                	.insn	2, 0x0ca4
    41000c56:	4100                	.insn	2, 0x4100
    41000c58:	0000                	.insn	2, 0x0000
    41000c5a:	0000                	.insn	2, 0x0000
    41000c5c:	0cb2                	.insn	2, 0x0cb2
    41000c5e:	4100                	.insn	2, 0x4100
    41000c60:	0000                	.insn	2, 0x0000
    41000c62:	0000                	.insn	2, 0x0000
    41000c64:	0cc0                	.insn	2, 0x0cc0
    41000c66:	4100                	.insn	2, 0x4100
    41000c68:	0000                	.insn	2, 0x0000
    41000c6a:	0000                	.insn	2, 0x0000
    41000c6c:	0cd0                	.insn	2, 0x0cd0
    41000c6e:	4100                	.insn	2, 0x4100
    41000c70:	0000                	.insn	2, 0x0000
    41000c72:	0000                	.insn	2, 0x0000
    41000c74:	0ce0                	.insn	2, 0x0ce0
    41000c76:	4100                	.insn	2, 0x4100
    41000c78:	0000                	.insn	2, 0x0000
    41000c7a:	0000                	.insn	2, 0x0000
    41000c7c:	0cf6                	.insn	2, 0x0cf6
    41000c7e:	4100                	.insn	2, 0x4100
    41000c80:	0000                	.insn	2, 0x0000
    41000c82:	0000                	.insn	2, 0x0000
    41000c84:	0d0c                	.insn	2, 0x0d0c
    41000c86:	4100                	.insn	2, 0x4100
    41000c88:	0000                	.insn	2, 0x0000
    41000c8a:	0000                	.insn	2, 0x0000
    41000c8c:	0d1c                	.insn	2, 0x0d1c
    41000c8e:	4100                	.insn	2, 0x4100
    41000c90:	0000                	.insn	2, 0x0000
    41000c92:	0000                	.insn	2, 0x0000
    41000c94:	0d2c                	.insn	2, 0x0d2c
    41000c96:	4100                	.insn	2, 0x4100
    41000c98:	0000                	.insn	2, 0x0000
    41000c9a:	0000                	.insn	2, 0x0000
    41000c9c:	0d42                	.insn	2, 0x0d42
    41000c9e:	4100                	.insn	2, 0x4100
    41000ca0:	0000                	.insn	2, 0x0000
	...

0000000041000ca4 <dtest_name_0>:
    41000ca4:	5f444953          	.insn	4, 0x5f444953
    41000ca8:	415a                	.insn	2, 0x415a
    41000caa:	3436                	.insn	2, 0x3436
    41000cac:	5352                	.insn	2, 0x5352
    41000cae:	305f 0031       	.insn	6, 0x49530031305f

0000000041000cb2 <dtest_name_1>:
    41000cb2:	5f444953          	.insn	4, 0x5f444953
    41000cb6:	415a                	.insn	2, 0x415a
    41000cb8:	3436                	.insn	2, 0x3436
    41000cba:	5352                	.insn	2, 0x5352
    41000cbc:	305f 0032       	.insn	6, 0x49530032305f

0000000041000cc0 <dtest_name_2>:
    41000cc0:	5f444953          	.insn	4, 0x5f444953
    41000cc4:	415a                	.insn	2, 0x415a
    41000cc6:	3436                	.insn	2, 0x3436
    41000cc8:	5352                	.insn	2, 0x5352
    41000cca:	305f 5f33 0077      	.insn	6, 0x00775f33305f

0000000041000cd0 <dtest_name_3>:
    41000cd0:	5f444953          	.insn	4, 0x5f444953
    41000cd4:	415a                	.insn	2, 0x415a
    41000cd6:	3436                	.insn	2, 0x3436
    41000cd8:	5352                	.insn	2, 0x5352
    41000cda:	305f 5f33 0064      	.insn	6, 0x00645f33305f

0000000041000ce0 <dtest_name_4>:
    41000ce0:	5f444953          	.insn	4, 0x5f444953
    41000ce4:	415a                	.insn	2, 0x415a
    41000ce6:	3436                	.insn	2, 0x3436
    41000ce8:	5352                	.insn	2, 0x5352
    41000cea:	305f 5f33 726c      	.insn	6, 0x726c5f33305f
    41000cf0:	63735f77          	.insn	4, 0x63735f77
    41000cf4:	0064                	.insn	2, 0x0064

0000000041000cf6 <dtest_name_5>:
    41000cf6:	5f444953          	.insn	4, 0x5f444953
    41000cfa:	415a                	.insn	2, 0x415a
    41000cfc:	3436                	.insn	2, 0x3436
    41000cfe:	5352                	.insn	2, 0x5352
    41000d00:	305f 5f33 726c      	.insn	6, 0x726c5f33305f
    41000d06:	5f64                	.insn	2, 0x5f64
    41000d08:	00776373          	csrrsi	x6,0x7,14

0000000041000d0c <dtest_name_6>:
    41000d0c:	5f444953          	.insn	4, 0x5f444953
    41000d10:	415a                	.insn	2, 0x415a
    41000d12:	3436                	.insn	2, 0x3436
    41000d14:	5352                	.insn	2, 0x5352
    41000d16:	305f 5f35 0077      	.insn	6, 0x00775f35305f

0000000041000d1c <dtest_name_7>:
    41000d1c:	5f444953          	.insn	4, 0x5f444953
    41000d20:	415a                	.insn	2, 0x415a
    41000d22:	3436                	.insn	2, 0x3436
    41000d24:	5352                	.insn	2, 0x5352
    41000d26:	305f 5f35 0064      	.insn	6, 0x00645f35305f

0000000041000d2c <dtest_name_8>:
    41000d2c:	5f444953          	.insn	4, 0x5f444953
    41000d30:	415a                	.insn	2, 0x415a
    41000d32:	3436                	.insn	2, 0x3436
    41000d34:	5352                	.insn	2, 0x5352
    41000d36:	305f 5f34 726c      	.insn	6, 0x726c5f34305f
    41000d3c:	63735f77          	.insn	4, 0x63735f77
    41000d40:	0064                	.insn	2, 0x0064

0000000041000d42 <dtest_name_9>:
    41000d42:	5f444953          	.insn	4, 0x5f444953
    41000d46:	415a                	.insn	2, 0x415a
    41000d48:	3436                	.insn	2, 0x3436
    41000d4a:	5352                	.insn	2, 0x5352
    41000d4c:	305f 5f34 726c      	.insn	6, 0x726c5f34305f
    41000d52:	5f64                	.insn	2, 0x5f64
    41000d54:	00776373          	csrrsi	x6,0x7,14

0000000041000d58 <dtest_index_map>:
    41000d58:	ffff                	.insn	2, 0xffff
    41000d5a:	ffff                	.insn	2, 0xffff
    41000d5c:	0001                	.insn	2, 0x0001
    41000d5e:	0000                	.insn	2, 0x0000
    41000d60:	00000007          	vle8.v	v0,(x0),v0.t
    41000d64:	0005                	.insn	2, 0x0005
    41000d66:	0000                	.insn	2, 0x0000
    41000d68:	0005                	.insn	2, 0x0005
    41000d6a:	0000                	.insn	2, 0x0000
    41000d6c:	0000                	.insn	2, 0x0000
    41000d6e:	0000                	.insn	2, 0x0000
    41000d70:	0008                	.insn	2, 0x0008
    41000d72:	0000                	.insn	2, 0x0000
    41000d74:	0001                	.insn	2, 0x0001
    41000d76:	0000                	.insn	2, 0x0000
    41000d78:	0002                	.insn	2, 0x0002
    41000d7a:	0000                	.insn	2, 0x0000
    41000d7c:	0004                	.insn	2, 0x0004
    41000d7e:	0000                	.insn	2, 0x0000
    41000d80:	0005                	.insn	2, 0x0005
    41000d82:	0000                	.insn	2, 0x0000
    41000d84:	0006                	.insn	2, 0x0006
    41000d86:	0000                	.insn	2, 0x0000
    41000d88:	0008                	.insn	2, 0x0008
    41000d8a:	0000                	.insn	2, 0x0000
    41000d8c:	0004                	.insn	2, 0x0004
    41000d8e:	0000                	.insn	2, 0x0000
    41000d90:	0006                	.insn	2, 0x0006
    41000d92:	0000                	.insn	2, 0x0000
    41000d94:	00000003          	lb	x0,0(x0) # 0 <ALL_4KB_PAGES>
    41000d98:	0004                	.insn	2, 0x0004
    41000d9a:	0000                	.insn	2, 0x0000
    41000d9c:	00000007          	vle8.v	v0,(x0),v0.t
    41000da0:	0009                	.insn	2, 0x0009
    41000da2:	0000                	.insn	2, 0x0000
    41000da4:	0002                	.insn	2, 0x0002
    41000da6:	0000                	.insn	2, 0x0000
    41000da8:	0006                	.insn	2, 0x0006
    41000daa:	0000                	.insn	2, 0x0000
    41000dac:	0002                	.insn	2, 0x0002
    41000dae:	0000                	.insn	2, 0x0000
    41000db0:	00000003          	lb	x0,0(x0) # 0 <ALL_4KB_PAGES>
    41000db4:	00000007          	vle8.v	v0,(x0),v0.t
    41000db8:	0001                	.insn	2, 0x0001
    41000dba:	0000                	.insn	2, 0x0000
    41000dbc:	00000003          	lb	x0,0(x0) # 0 <ALL_4KB_PAGES>
    41000dc0:	0008                	.insn	2, 0x0008
	...
    41000dca:	0000                	.insn	2, 0x0000
    41000dcc:	0009                	.insn	2, 0x0009
    41000dce:	0000                	.insn	2, 0x0000
    41000dd0:	0009                	.insn	2, 0x0009
	...

0000000041000dd4 <scheduler__test_setup_ptr>:
    41000dd4:	5150                	.insn	2, 0x5150
    41000dd6:	4101                	.insn	2, 0x4101
    41000dd8:	0000                	.insn	2, 0x0000
	...

0000000041000ddc <scheduler__test_cleanup_ptr>:
    41000ddc:	59d0                	.insn	2, 0x59d0
    41000dde:	4101                	.insn	2, 0x4101
    41000de0:	0000                	.insn	2, 0x0000
	...

Disassembly of section .runtime_s:

0000000041011000 <trap_handler_s__invalid_interrupt>:
    41011000:	1740006f          	j	41011174 <trap_handler_s__test_failed>

0000000041011004 <trap_handler_s__clear_all_interrupts>:
    41011004:	14401073          	csrw	sip,x0
    41011008:	10200073          	sret

000000004101100c <trap_handler_s___CLEAR_SSI>:
    4101100c:	00200293          	li	x5,2
    41011010:	1442b073          	csrc	sip,x5
    41011014:	10200073          	sret

0000000041011018 <trap_handler_s___CLEAR_MSI>:
    41011018:	00800293          	li	x5,8
    4101101c:	1442b073          	csrc	sip,x5
    41011020:	10200073          	sret

0000000041011024 <trap_handler_s___CLEAR_STI>:
    41011024:	02000293          	li	x5,32
    41011028:	1442b073          	csrc	sip,x5
    4101102c:	10200073          	sret

0000000041011030 <trap_handler_s___CLEAR_MTI>:
    41011030:	08000293          	li	x5,128
    41011034:	1442b073          	csrc	sip,x5
    41011038:	10200073          	sret

000000004101103c <trap_handler_s___CLEAR_SEI>:
    4101103c:	20000293          	li	x5,512
    41011040:	1442b073          	csrc	sip,x5
    41011044:	10200073          	sret

0000000041011048 <trap_handler_s___CLEAR_MEI>:
    41011048:	000012b7          	lui	x5,0x1
    4101104c:	8002829b          	addiw	x5,x5,-2048 # 800 <XLEN+0x7c0>
    41011050:	1442b073          	csrc	sip,x5
    41011054:	10200073          	sret

0000000041011058 <trap_handler_s___CLEAR_COI>:
    41011058:	000022b7          	lui	x5,0x2
    4101105c:	1442b073          	csrc	sip,x5
    41011060:	10200073          	sret

0000000041011064 <trap_handler_s__clear_highest_priority_interrupt>:
    41011064:	144022f3          	csrr	x5,sip
    41011068:	40500333          	neg	x6,x5
    4101106c:	0062f2b3          	and	x5,x5,x6
    41011070:	1442b073          	csrc	sip,x5
    41011074:	10200073          	sret

0000000041011078 <trap_handler_s__trap_entry>:
    41011078:	10c0006f          	j	41011184 <trap_handler_s__trap_handler>

000000004101107c <trap_handler_s__interrupt_vector_table>:
    4101107c:	f91ff06f          	j	4101100c <trap_handler_s___CLEAR_SSI>
    41011080:	f81ff06f          	j	41011000 <trap_handler_s__invalid_interrupt>
    41011084:	f95ff06f          	j	41011018 <trap_handler_s___CLEAR_MSI>
    41011088:	f79ff06f          	j	41011000 <trap_handler_s__invalid_interrupt>
    4101108c:	f99ff06f          	j	41011024 <trap_handler_s___CLEAR_STI>
    41011090:	f71ff06f          	j	41011000 <trap_handler_s__invalid_interrupt>
    41011094:	f9dff06f          	j	41011030 <trap_handler_s___CLEAR_MTI>
    41011098:	f69ff06f          	j	41011000 <trap_handler_s__invalid_interrupt>
    4101109c:	fa1ff06f          	j	4101103c <trap_handler_s___CLEAR_SEI>
    410110a0:	f61ff06f          	j	41011000 <trap_handler_s__invalid_interrupt>
    410110a4:	fa5ff06f          	j	41011048 <trap_handler_s___CLEAR_MEI>
    410110a8:	f59ff06f          	j	41011000 <trap_handler_s__invalid_interrupt>
    410110ac:	fadff06f          	j	41011058 <trap_handler_s___CLEAR_COI>
    410110b0:	f51ff06f          	j	41011000 <trap_handler_s__invalid_interrupt>
    410110b4:	f4dff06f          	j	41011000 <trap_handler_s__invalid_interrupt>
    410110b8:	fadff06f          	j	41011064 <trap_handler_s__clear_highest_priority_interrupt>
    410110bc:	fa9ff06f          	j	41011064 <trap_handler_s__clear_highest_priority_interrupt>
    410110c0:	fa5ff06f          	j	41011064 <trap_handler_s__clear_highest_priority_interrupt>
    410110c4:	fa1ff06f          	j	41011064 <trap_handler_s__clear_highest_priority_interrupt>
    410110c8:	f9dff06f          	j	41011064 <trap_handler_s__clear_highest_priority_interrupt>
    410110cc:	f99ff06f          	j	41011064 <trap_handler_s__clear_highest_priority_interrupt>
    410110d0:	f95ff06f          	j	41011064 <trap_handler_s__clear_highest_priority_interrupt>
    410110d4:	f91ff06f          	j	41011064 <trap_handler_s__clear_highest_priority_interrupt>
    410110d8:	f8dff06f          	j	41011064 <trap_handler_s__clear_highest_priority_interrupt>
    410110dc:	f89ff06f          	j	41011064 <trap_handler_s__clear_highest_priority_interrupt>
    410110e0:	f85ff06f          	j	41011064 <trap_handler_s__clear_highest_priority_interrupt>
    410110e4:	f81ff06f          	j	41011064 <trap_handler_s__clear_highest_priority_interrupt>
    410110e8:	f7dff06f          	j	41011064 <trap_handler_s__clear_highest_priority_interrupt>
    410110ec:	f79ff06f          	j	41011064 <trap_handler_s__clear_highest_priority_interrupt>
    410110f0:	f75ff06f          	j	41011064 <trap_handler_s__clear_highest_priority_interrupt>
    410110f4:	f71ff06f          	j	41011064 <trap_handler_s__clear_highest_priority_interrupt>
    410110f8:	f6dff06f          	j	41011064 <trap_handler_s__clear_highest_priority_interrupt>
    410110fc:	f69ff06f          	j	41011064 <trap_handler_s__clear_highest_priority_interrupt>
    41011100:	f65ff06f          	j	41011064 <trap_handler_s__clear_highest_priority_interrupt>
    41011104:	f61ff06f          	j	41011064 <trap_handler_s__clear_highest_priority_interrupt>
    41011108:	f5dff06f          	j	41011064 <trap_handler_s__clear_highest_priority_interrupt>
    4101110c:	f59ff06f          	j	41011064 <trap_handler_s__clear_highest_priority_interrupt>
    41011110:	f55ff06f          	j	41011064 <trap_handler_s__clear_highest_priority_interrupt>
    41011114:	f51ff06f          	j	41011064 <trap_handler_s__clear_highest_priority_interrupt>
    41011118:	f4dff06f          	j	41011064 <trap_handler_s__clear_highest_priority_interrupt>
    4101111c:	f49ff06f          	j	41011064 <trap_handler_s__clear_highest_priority_interrupt>
    41011120:	f45ff06f          	j	41011064 <trap_handler_s__clear_highest_priority_interrupt>
    41011124:	f41ff06f          	j	41011064 <trap_handler_s__clear_highest_priority_interrupt>
    41011128:	f3dff06f          	j	41011064 <trap_handler_s__clear_highest_priority_interrupt>
    4101112c:	f39ff06f          	j	41011064 <trap_handler_s__clear_highest_priority_interrupt>
    41011130:	f35ff06f          	j	41011064 <trap_handler_s__clear_highest_priority_interrupt>
    41011134:	f31ff06f          	j	41011064 <trap_handler_s__clear_highest_priority_interrupt>
    41011138:	f2dff06f          	j	41011064 <trap_handler_s__clear_highest_priority_interrupt>
    4101113c:	f29ff06f          	j	41011064 <trap_handler_s__clear_highest_priority_interrupt>
    41011140:	f25ff06f          	j	41011064 <trap_handler_s__clear_highest_priority_interrupt>
    41011144:	f21ff06f          	j	41011064 <trap_handler_s__clear_highest_priority_interrupt>
    41011148:	f1dff06f          	j	41011064 <trap_handler_s__clear_highest_priority_interrupt>
    4101114c:	f19ff06f          	j	41011064 <trap_handler_s__clear_highest_priority_interrupt>
    41011150:	f15ff06f          	j	41011064 <trap_handler_s__clear_highest_priority_interrupt>
    41011154:	f11ff06f          	j	41011064 <trap_handler_s__clear_highest_priority_interrupt>
    41011158:	f0dff06f          	j	41011064 <trap_handler_s__clear_highest_priority_interrupt>
    4101115c:	f09ff06f          	j	41011064 <trap_handler_s__clear_highest_priority_interrupt>
    41011160:	f05ff06f          	j	41011064 <trap_handler_s__clear_highest_priority_interrupt>
    41011164:	f01ff06f          	j	41011064 <trap_handler_s__clear_highest_priority_interrupt>
    41011168:	efdff06f          	j	41011064 <trap_handler_s__clear_highest_priority_interrupt>
    4101116c:	ef9ff06f          	j	41011064 <trap_handler_s__clear_highest_priority_interrupt>
    41011170:	ef5ff06f          	j	41011064 <trap_handler_s__clear_highest_priority_interrupt>

0000000041011174 <trap_handler_s__test_failed>:
    41011174:	00f00f9b          	addiw	x31,x0,15
    41011178:	01cf9f93          	slli	x31,x31,0x1c
    4101117c:	002f8f93          	addi	x31,x31,2
    41011180:	00000073          	ecall

0000000041011184 <trap_handler_s__trap_handler>:
    41011184:	142022f3          	csrr	x5,scause
    41011188:	fff0031b          	addiw	x6,x0,-1
    4101118c:	03f31313          	slli	x6,x6,0x3f
    41011190:	00537333          	and	x6,x6,x5
    41011194:	02030263          	beqz	x6,410111b8 <trap_handler_s__exception_path>

0000000041011198 <trap_handler_s__interrupt_handler>:
    41011198:	fff0031b          	addiw	x6,x0,-1
    4101119c:	03f31313          	slli	x6,x6,0x3f
    410111a0:	0062c2b3          	xor	x5,x5,x6
    410111a4:	00000317          	auipc	x6,0x0
    410111a8:	ed430313          	addi	x6,x6,-300 # 41011078 <trap_handler_s__trap_entry>
    410111ac:	00229293          	slli	x5,x5,0x2
    410111b0:	005302b3          	add	x5,x6,x5
    410111b4:	00028067          	jr	x5 # 2000 <pma_region_1_size+0x1000>

00000000410111b8 <trap_handler_s__exception_path>:
    410111b8:	14021273          	csrrw	x4,sscratch,x4
    410111bc:	00000297          	auipc	x5,0x0
    410111c0:	0cc28293          	addi	x5,x5,204 # 41011288 <trap_handler_s__trap_panic>
    410111c4:	10529073          	csrw	stvec,x5
    410111c8:	0040006f          	j	410111cc <trap_handler_s__excp_entry>

00000000410111cc <trap_handler_s__excp_entry>:
    410111cc:	14202373          	csrr	x6,scause
    410111d0:	00800293          	li	x5,8
    410111d4:	00534863          	blt	x6,x5,410111e4 <trap_handler_s__check_exception_label>
    410111d8:	00b00293          	li	x5,11
    410111dc:	0062c463          	blt	x5,x6,410111e4 <trap_handler_s__check_exception_label>
    410111e0:	0a80006f          	j	41011288 <trap_handler_s__trap_panic>

00000000410111e4 <trap_handler_s__check_exception_label>:
    410111e4:	04623c23          	sd	x6,88(x4) # 58 <XLEN+0x18>
    410111e8:	141022f3          	csrr	x5,sepc
    410111ec:	02523423          	sd	x5,40(x4) # 28 <SECURE_ACCESS_PROBABILITY+0xa>
    410111f0:	01820283          	lb	x5,24(x4) # 18 <STORE_GUEST_PAGE_FAULT+0x1>
    410111f4:	00029863          	bnez	x5,41011204 <trap_handler_s__check_excp>
    410111f8:	00128293          	addi	x5,x5,1
    410111fc:	00520c23          	sb	x5,24(x4) # 18 <STORE_GUEST_PAGE_FAULT+0x1>
    41011200:	05c0006f          	j	4101125c <trap_handler_s__ecall_from_machine>

0000000041011204 <trap_handler_s__check_excp>:
    41011204:	06823283          	ld	x5,104(x4) # 68 <XLEN+0x28>
    41011208:	06023423          	sd	x0,104(x4) # 68 <XLEN+0x28>
    4101120c:	00028663          	beqz	x5,41011218 <trap_handler_s__skip_mode_check>
    41011210:	00300393          	li	x7,3
    41011214:	f67290e3          	bne	x5,x7,41011174 <trap_handler_s__test_failed>

0000000041011218 <trap_handler_s__skip_mode_check>:
    41011218:	05023283          	ld	x5,80(x4) # 50 <XLEN+0x10>
    4101121c:	04023823          	sd	x0,80(x4) # 50 <XLEN+0x10>
    41011220:	f4531ae3          	bne	x6,x5,41011174 <trap_handler_s__test_failed>
    41011224:	03823283          	ld	x5,56(x4) # 38 <SECURE_ACCESS_PROBABILITY+0x1a>
    41011228:	02023c23          	sd	x0,56(x4) # 38 <SECURE_ACCESS_PROBABILITY+0x1a>
    4101122c:	02029663          	bnez	x5,41011258 <trap_handler_s__skip_nonzero_tval_check>
    41011230:	02023303          	ld	x6,32(x4) # 20 <SECURE_ACCESS_PROBABILITY+0x2>
    41011234:	02023023          	sd	x0,32(x4) # 20 <SECURE_ACCESS_PROBABILITY+0x2>
    41011238:	02823283          	ld	x5,40(x4) # 28 <SECURE_ACCESS_PROBABILITY+0xa>
    4101123c:	02023423          	sd	x0,40(x4) # 28 <SECURE_ACCESS_PROBABILITY+0xa>
    41011240:	f2531ae3          	bne	x6,x5,41011174 <trap_handler_s__test_failed>
    41011244:	04023283          	ld	x5,64(x4) # 40 <XLEN>
    41011248:	04023023          	sd	x0,64(x4) # 40 <XLEN>
    4101124c:	00028663          	beqz	x5,41011258 <trap_handler_s__skip_nonzero_tval_check>

0000000041011250 <trap_handler_s__nonzero_tval_check>:
    41011250:	14302373          	csrr	x6,stval
    41011254:	f25310e3          	bne	x6,x5,41011174 <trap_handler_s__test_failed>

0000000041011258 <trap_handler_s__skip_nonzero_tval_check>:
    41011258:	0040006f          	j	4101125c <trap_handler_s__ecall_from_machine>

000000004101125c <trap_handler_s__ecall_from_machine>:
    4101125c:	03023283          	ld	x5,48(x4) # 30 <SECURE_ACCESS_PROBABILITY+0x12>
    41011260:	02023823          	sd	x0,48(x4) # 30 <SECURE_ACCESS_PROBABILITY+0x12>
    41011264:	07023303          	ld	x6,112(x4) # 70 <XLEN+0x30>
    41011268:	06023823          	sd	x0,112(x4) # 70 <XLEN+0x30>
    4101126c:	00031463          	bnez	x6,41011274 <trap_handler_s__skip_xepc_write>
    41011270:	14129073          	csrw	sepc,x5

0000000041011274 <trap_handler_s__skip_xepc_write>:
    41011274:	00000317          	auipc	x6,0x0
    41011278:	e0430313          	addi	x6,x6,-508 # 41011078 <trap_handler_s__trap_entry>
    4101127c:	10531073          	csrw	stvec,x6
    41011280:	14021273          	csrrw	x4,sscratch,x4
    41011284:	10200073          	sret

0000000041011288 <trap_handler_s__trap_panic>:
    41011288:	00000193          	li	x3,0
    4101128c:	00f00f9b          	addiw	x31,x0,15
    41011290:	01cf9f93          	slli	x31,x31,0x1c
    41011294:	002f8f93          	addi	x31,x31,2
    41011298:	00000073          	ecall

Disassembly of section .code:

0000000041015120 <passed>:
    41015120:	00f00f9b          	addiw	x31,x0,15
    41015124:	01cf9f93          	slli	x31,x31,0x1c
    41015128:	001f8f93          	addi	x31,x31,1
    4101512c:	00000073          	ecall

0000000041015130 <failed>:
    41015130:	00f00f9b          	addiw	x31,x0,15
    41015134:	01cf9f93          	slli	x31,x31,0x1c
    41015138:	002f8f93          	addi	x31,x31,2
    4101513c:	00000073          	ecall

0000000041015140 <end_test>:
    41015140:	00f00f9b          	addiw	x31,x0,15
    41015144:	01cf9f93          	slli	x31,x31,0x1c
    41015148:	003f8f93          	addi	x31,x31,3
    4101514c:	00000073          	ecall

0000000041015150 <test_setup>:
    41015150:	00f00f9b          	addiw	x31,x0,15
    41015154:	01cf9f93          	slli	x31,x31,0x1c
    41015158:	001f8f93          	addi	x31,x31,1
    4101515c:	00000073          	ecall

0000000041015160 <SID_ZA64RS_01>:
    41015160:	001e1137          	lui	x2,0x1e1
    41015164:	000012b7          	lui	x5,0x1
    41015168:	00510133          	add	x2,x2,x5
    4101516c:	ff017113          	andi	x2,x2,-16
    41015170:	40a44237          	lui	x4,0x40a44
    41015174:	00500e13          	li	x28,5
    41015178:	05c23823          	sd	x28,80(x4) # 40a44050 <check_excp_expected_cause>
    4101517c:	00000e17          	auipc	x28,0x0
    41015180:	054e0e13          	addi	x28,x28,84 # 410151d0 <fault_label_0>
    41015184:	03c23023          	sd	x28,32(x4) # 20 <SECURE_ACCESS_PROBABILITY+0x2>
    41015188:	00000e13          	li	x28,0
    4101518c:	05c23023          	sd	x28,64(x4) # 40 <XLEN>
    41015190:	00000e13          	li	x28,0
    41015194:	05c23423          	sd	x28,72(x4) # 48 <XLEN+0x8>
    41015198:	00000e17          	auipc	x28,0x0
    4101519c:	04ce0e13          	addi	x28,x28,76 # 410151e4 <excp_return_label_0>
    410151a0:	03c23823          	sd	x28,48(x4) # 30 <SECURE_ACCESS_PROBABILITY+0x12>
    410151a4:	00000e13          	li	x28,0
    410151a8:	03c23c23          	sd	x28,56(x4) # 38 <SECURE_ACCESS_PROBABILITY+0x1a>
    410151ac:	00000e13          	li	x28,0
    410151b0:	07c23023          	sd	x28,96(x4) # 60 <XLEN+0x20>
    410151b4:	00000e13          	li	x28,0
    410151b8:	07c23423          	sd	x28,104(x4) # 68 <XLEN+0x28>
    410151bc:	00000e13          	li	x28,0
    410151c0:	07c23823          	sd	x28,112(x4) # 70 <XLEN+0x30>
    410151c4:	000043b7          	lui	x7,0x4
    410151c8:	00100493          	li	x9,1
    410151cc:	00938533          	add	x10,x7,x9

00000000410151d0 <fault_label_0>:
    410151d0:	10052a2f          	lr.w	x20,(x10)
    410151d4:	069ce737          	lui	x14,0x69ce
    410151d8:	0087071b          	addiw	x14,x14,8 # 69ce008 <failed_addr>
    410151dc:	00073503          	ld	x10,0(x14)
    410151e0:	00050067          	jr	x10

00000000410151e4 <excp_return_label_0>:
    410151e4:	40a44237          	lui	x4,0x40a44
    410151e8:	00500e13          	li	x28,5
    410151ec:	05c23823          	sd	x28,80(x4) # 40a44050 <check_excp_expected_cause>
    410151f0:	00000e17          	auipc	x28,0x0
    410151f4:	054e0e13          	addi	x28,x28,84 # 41015244 <fault_label_1>
    410151f8:	03c23023          	sd	x28,32(x4) # 20 <SECURE_ACCESS_PROBABILITY+0x2>
    410151fc:	00000e13          	li	x28,0
    41015200:	05c23023          	sd	x28,64(x4) # 40 <XLEN>
    41015204:	00000e13          	li	x28,0
    41015208:	05c23423          	sd	x28,72(x4) # 48 <XLEN+0x8>
    4101520c:	00000e17          	auipc	x28,0x0
    41015210:	04ce0e13          	addi	x28,x28,76 # 41015258 <SID_ZA64RS_01_passed>
    41015214:	03c23823          	sd	x28,48(x4) # 30 <SECURE_ACCESS_PROBABILITY+0x12>
    41015218:	00000e13          	li	x28,0
    4101521c:	03c23c23          	sd	x28,56(x4) # 38 <SECURE_ACCESS_PROBABILITY+0x1a>
    41015220:	00000e13          	li	x28,0
    41015224:	07c23023          	sd	x28,96(x4) # 60 <XLEN+0x20>
    41015228:	00000e13          	li	x28,0
    4101522c:	07c23423          	sd	x28,104(x4) # 68 <XLEN+0x28>
    41015230:	00000e13          	li	x28,0
    41015234:	07c23823          	sd	x28,112(x4) # 70 <XLEN+0x30>
    41015238:	00004537          	lui	x10,0x4
    4101523c:	00100393          	li	x7,1
    41015240:	007509b3          	add	x19,x10,x7

0000000041015244 <fault_label_1>:
    41015244:	1009b92f          	lr.d	x18,(x19)
    41015248:	069ce4b7          	lui	x9,0x69ce
    4101524c:	0084849b          	addiw	x9,x9,8 # 69ce008 <failed_addr>
    41015250:	0004b803          	ld	x16,0(x9)
    41015254:	00080067          	jr	x16

0000000041015258 <SID_ZA64RS_01_passed>:
    41015258:	00f00f9b          	addiw	x31,x0,15
    4101525c:	01cf9f93          	slli	x31,x31,0x1c
    41015260:	001f8f93          	addi	x31,x31,1
    41015264:	00000073          	ecall

0000000041015268 <SID_ZA64RS_02>:
    41015268:	0015c137          	lui	x2,0x15c
    4101526c:	b5d1011b          	addiw	x2,x2,-1187 # 15bb5d <hart_stack_0_end+0x3db5d>
    41015270:	00c11113          	slli	x2,x2,0xc
    41015274:	000012b7          	lui	x5,0x1
    41015278:	00510133          	add	x2,x2,x5
    4101527c:	ff017113          	andi	x2,x2,-16
    41015280:	40a44237          	lui	x4,0x40a44
    41015284:	00700e13          	li	x28,7
    41015288:	05c23823          	sd	x28,80(x4) # 40a44050 <check_excp_expected_cause>
    4101528c:	00000e17          	auipc	x28,0x0
    41015290:	064e0e13          	addi	x28,x28,100 # 410152f0 <fault_label_2>
    41015294:	03c23023          	sd	x28,32(x4) # 20 <SECURE_ACCESS_PROBABILITY+0x2>
    41015298:	00000e13          	li	x28,0
    4101529c:	05c23023          	sd	x28,64(x4) # 40 <XLEN>
    410152a0:	00000e13          	li	x28,0
    410152a4:	05c23423          	sd	x28,72(x4) # 48 <XLEN+0x8>
    410152a8:	00000e17          	auipc	x28,0x0
    410152ac:	05ce0e13          	addi	x28,x28,92 # 41015304 <excp_return_label_2>
    410152b0:	03c23823          	sd	x28,48(x4) # 30 <SECURE_ACCESS_PROBABILITY+0x12>
    410152b4:	00000e13          	li	x28,0
    410152b8:	03c23c23          	sd	x28,56(x4) # 38 <SECURE_ACCESS_PROBABILITY+0x1a>
    410152bc:	00000e13          	li	x28,0
    410152c0:	07c23023          	sd	x28,96(x4) # 60 <XLEN+0x20>
    410152c4:	00000e13          	li	x28,0
    410152c8:	07c23423          	sd	x28,104(x4) # 68 <XLEN+0x28>
    410152cc:	00000e13          	li	x28,0
    410152d0:	07c23823          	sd	x28,112(x4) # 70 <XLEN+0x30>
    410152d4:	35ffec37          	lui	x24,0x35ffe
    410152d8:	00100e13          	li	x28,1
    410152dc:	01cc05b3          	add	x11,x24,x28
    410152e0:	0004ea37          	lui	x20,0x4e
    410152e4:	abba0a1b          	addiw	x20,x20,-1349 # 4dabb <mem7+0x3abb>
    410152e8:	00da1a13          	slli	x20,x20,0xd
    410152ec:	bd4a0a13          	addi	x20,x20,-1068

00000000410152f0 <fault_label_2>:
    410152f0:	1945af2f          	sc.w	x30,x20,(x11)
    410152f4:	069ce9b7          	lui	x19,0x69ce
    410152f8:	0089899b          	addiw	x19,x19,8 # 69ce008 <failed_addr>
    410152fc:	0009b983          	ld	x19,0(x19)
    41015300:	00098067          	jr	x19

0000000041015304 <excp_return_label_2>:
    41015304:	40a44237          	lui	x4,0x40a44
    41015308:	00700e13          	li	x28,7
    4101530c:	05c23823          	sd	x28,80(x4) # 40a44050 <check_excp_expected_cause>
    41015310:	00000e17          	auipc	x28,0x0
    41015314:	05ce0e13          	addi	x28,x28,92 # 4101536c <fault_label_3>
    41015318:	03c23023          	sd	x28,32(x4) # 20 <SECURE_ACCESS_PROBABILITY+0x2>
    4101531c:	00000e13          	li	x28,0
    41015320:	05c23023          	sd	x28,64(x4) # 40 <XLEN>
    41015324:	00000e13          	li	x28,0
    41015328:	05c23423          	sd	x28,72(x4) # 48 <XLEN+0x8>
    4101532c:	00000e17          	auipc	x28,0x0
    41015330:	054e0e13          	addi	x28,x28,84 # 41015380 <SID_ZA64RS_02_passed>
    41015334:	03c23823          	sd	x28,48(x4) # 30 <SECURE_ACCESS_PROBABILITY+0x12>
    41015338:	00000e13          	li	x28,0
    4101533c:	03c23c23          	sd	x28,56(x4) # 38 <SECURE_ACCESS_PROBABILITY+0x1a>
    41015340:	00000e13          	li	x28,0
    41015344:	07c23023          	sd	x28,96(x4) # 60 <XLEN+0x20>
    41015348:	00000e13          	li	x28,0
    4101534c:	07c23423          	sd	x28,104(x4) # 68 <XLEN+0x28>
    41015350:	00000e13          	li	x28,0
    41015354:	07c23823          	sd	x28,112(x4) # 70 <XLEN+0x30>
    41015358:	35ffea37          	lui	x20,0x35ffe
    4101535c:	00100d13          	li	x26,1
    41015360:	01aa0933          	add	x18,x20,x26
    41015364:	0925efb7          	lui	x31,0x925e
    41015368:	477f8f9b          	addiw	x31,x31,1143 # 925e477 <__section_os_data_1+0x288f477>

000000004101536c <fault_label_3>:
    4101536c:	19f93caf          	sc.d	x25,x31,(x18)
    41015370:	069cec37          	lui	x24,0x69ce
    41015374:	008c0c1b          	addiw	x24,x24,8 # 69ce008 <failed_addr>
    41015378:	000c3783          	ld	x15,0(x24)
    4101537c:	00078067          	jr	x15

0000000041015380 <SID_ZA64RS_02_passed>:
    41015380:	00f00f9b          	addiw	x31,x0,15
    41015384:	01cf9f93          	slli	x31,x31,0x1c
    41015388:	001f8f93          	addi	x31,x31,1
    4101538c:	00000073          	ecall

0000000041015390 <SID_ZA64RS_03_w>:
    41015390:	0d92f137          	lui	x2,0xd92f
    41015394:	fa11011b          	addiw	x2,x2,-95 # d92efa1 <__section_os_data_1+0x6f5ffa1>
    41015398:	00f11113          	slli	x2,x2,0xf
    4101539c:	5fd10113          	addi	x2,x2,1533
    410153a0:	00d11113          	slli	x2,x2,0xd
    410153a4:	000012b7          	lui	x5,0x1
    410153a8:	00510133          	add	x2,x2,x5
    410153ac:	ff017113          	andi	x2,x2,-16
    410153b0:	00000313          	li	x6,0
    410153b4:	41217937          	lui	x18,0x41217
    410153b8:	02000b13          	li	x22,32
    410153bc:	016908b3          	add	x17,x18,x22
    410153c0:	1008aaaf          	lr.w	x21,(x17)
    410153c4:	41217c37          	lui	x24,0x41217
    410153c8:	06000e13          	li	x28,96
    410153cc:	01cc0633          	add	x12,x24,x28
    410153d0:	000e7fb7          	lui	x31,0xe7
    410153d4:	b59f8f9b          	addiw	x31,x31,-1191 # e6b59 <mem7+0x9cb59>
    410153d8:	00cf9f93          	slli	x31,x31,0xc
    410153dc:	deaf8f93          	addi	x31,x31,-534
    410153e0:	19f626af          	sc.w	x13,x31,(x12)
    410153e4:	00669a63          	bne	x13,x6,410153f8 <pass_label_0>
    410153e8:	069ce837          	lui	x16,0x69ce
    410153ec:	0088081b          	addiw	x16,x16,8 # 69ce008 <failed_addr>
    410153f0:	00083983          	ld	x19,0(x16)
    410153f4:	00098067          	jr	x19

00000000410153f8 <pass_label_0>:
    410153f8:	412173b7          	lui	x7,0x41217
    410153fc:	02000793          	li	x15,32
    41015400:	00f38eb3          	add	x29,x7,x15
    41015404:	100eaa2f          	lr.w	x20,(x29)
    41015408:	41217737          	lui	x14,0x41217
    4101540c:	02000f93          	li	x31,32
    41015410:	01f706b3          	add	x13,x14,x31
    41015414:	093258b7          	lui	x17,0x9325
    41015418:	6298889b          	addiw	x17,x17,1577 # 9325629 <__section_os_data_1+0x2956629>
    4101541c:	1916a9af          	sc.w	x19,x17,(x13)
    41015420:	00698a63          	beq	x19,x6,41015434 <SID_ZA64RS_03_w_passed>
    41015424:	069cefb7          	lui	x31,0x69ce
    41015428:	008f8f9b          	addiw	x31,x31,8 # 69ce008 <failed_addr>
    4101542c:	000fb783          	ld	x15,0(x31)
    41015430:	00078067          	jr	x15

0000000041015434 <SID_ZA64RS_03_w_passed>:
    41015434:	00f00f9b          	addiw	x31,x0,15
    41015438:	01cf9f93          	slli	x31,x31,0x1c
    4101543c:	001f8f93          	addi	x31,x31,1
    41015440:	00000073          	ecall

0000000041015444 <SID_ZA64RS_03_d>:
    41015444:	02640137          	lui	x2,0x2640
    41015448:	2ef1011b          	addiw	x2,x2,751 # 26402ef <__section_data_1+0x15d92ef>
    4101544c:	00d11113          	slli	x2,x2,0xd
    41015450:	000012b7          	lui	x5,0x1
    41015454:	00510133          	add	x2,x2,x5
    41015458:	ff017113          	andi	x2,x2,-16
    4101545c:	00000a13          	li	x20,0
    41015460:	00e059b7          	lui	x19,0xe05
    41015464:	a319899b          	addiw	x19,x19,-1487 # e04a31 <mem4+0x7ada31>
    41015468:	00c99993          	slli	x19,x19,0xc
    4101546c:	adf98993          	addi	x19,x19,-1313
    41015470:	00c99993          	slli	x19,x19,0xc
    41015474:	02000f93          	li	x31,32
    41015478:	01f98c33          	add	x24,x19,x31
    4101547c:	100c3c2f          	lr.d	x24,(x24)
    41015480:	00e058b7          	lui	x17,0xe05
    41015484:	a318889b          	addiw	x17,x17,-1487 # e04a31 <mem4+0x7ada31>
    41015488:	00c89893          	slli	x17,x17,0xc
    4101548c:	adf88893          	addi	x17,x17,-1313
    41015490:	00c89893          	slli	x17,x17,0xc
    41015494:	06000e13          	li	x28,96
    41015498:	01c88933          	add	x18,x17,x28
    4101549c:	2e8d5ab7          	lui	x21,0x2e8d5
    410154a0:	b8da8a9b          	addiw	x21,x21,-1139 # 2e8d4b8d <__section_os_data_1+0x27f05b8d>
    410154a4:	19593d2f          	sc.d	x26,x21,(x18)
    410154a8:	014d1a63          	bne	x26,x20,410154bc <pass_label_2>
    410154ac:	069ce5b7          	lui	x11,0x69ce
    410154b0:	0085859b          	addiw	x11,x11,8 # 69ce008 <failed_addr>
    410154b4:	0005b583          	ld	x11,0(x11)
    410154b8:	00058067          	jr	x11

00000000410154bc <pass_label_2>:
    410154bc:	00e05cb7          	lui	x25,0xe05
    410154c0:	a31c8c9b          	addiw	x25,x25,-1487 # e04a31 <mem4+0x7ada31>
    410154c4:	00cc9c93          	slli	x25,x25,0xc
    410154c8:	adfc8c93          	addi	x25,x25,-1313
    410154cc:	00cc9c93          	slli	x25,x25,0xc
    410154d0:	02000d13          	li	x26,32
    410154d4:	01ac8cb3          	add	x25,x25,x26
    410154d8:	100cbf2f          	lr.d	x30,(x25)
    410154dc:	00e05ab7          	lui	x21,0xe05
    410154e0:	a31a8a9b          	addiw	x21,x21,-1487 # e04a31 <mem4+0x7ada31>
    410154e4:	00ca9a93          	slli	x21,x21,0xc
    410154e8:	adfa8a93          	addi	x21,x21,-1313
    410154ec:	00ca9a93          	slli	x21,x21,0xc
    410154f0:	02000c13          	li	x24,32
    410154f4:	018a8733          	add	x14,x21,x24
    410154f8:	000ff8b7          	lui	x17,0xff
    410154fc:	c3f8889b          	addiw	x17,x17,-961 # fec3f <mem7+0xb4c3f>
    41015500:	00c89893          	slli	x17,x17,0xc
    41015504:	6b688893          	addi	x17,x17,1718
    41015508:	1917382f          	sc.d	x16,x17,(x14)
    4101550c:	01480a63          	beq	x16,x20,41015520 <SID_ZA64RS_03_d_passed>
    41015510:	069ce937          	lui	x18,0x69ce
    41015514:	0089091b          	addiw	x18,x18,8 # 69ce008 <failed_addr>
    41015518:	00093d03          	ld	x26,0(x18)
    4101551c:	000d0067          	jr	x26

0000000041015520 <SID_ZA64RS_03_d_passed>:
    41015520:	00f00f9b          	addiw	x31,x0,15
    41015524:	01cf9f93          	slli	x31,x31,0x1c
    41015528:	001f8f93          	addi	x31,x31,1
    4101552c:	00000073          	ecall

0000000041015530 <SID_ZA64RS_03_lrw_scd>:
    41015530:	0a86e137          	lui	x2,0xa86e
    41015534:	cad1011b          	addiw	x2,x2,-851 # a86dcad <__section_os_data_1+0x3e9ecad>
    41015538:	00d11113          	slli	x2,x2,0xd
    4101553c:	000012b7          	lui	x5,0x1
    41015540:	00510133          	add	x2,x2,x5
    41015544:	ff017113          	andi	x2,x2,-16
    41015548:	00000f93          	li	x31,0
    4101554c:	006578b7          	lui	x17,0x657
    41015550:	02000e13          	li	x28,32
    41015554:	01c88ab3          	add	x21,x17,x28
    41015558:	100aab2f          	lr.w	x22,(x21)
    4101555c:	00657937          	lui	x18,0x657
    41015560:	06000e93          	li	x29,96
    41015564:	01d90933          	add	x18,x18,x29
    41015568:	00021db7          	lui	x27,0x21
    4101556c:	fc3d8d9b          	addiw	x27,x27,-61 # 20fc3 <mem0+0x1cfc3>
    41015570:	00ed9d93          	slli	x27,x27,0xe
    41015574:	e51d8d93          	addi	x27,x27,-431
    41015578:	19b9392f          	sc.d	x18,x27,(x18)
    4101557c:	01f91a63          	bne	x18,x31,41015590 <pass_label_4>
    41015580:	069cec37          	lui	x24,0x69ce
    41015584:	008c0c1b          	addiw	x24,x24,8 # 69ce008 <failed_addr>
    41015588:	000c3d03          	ld	x26,0(x24)
    4101558c:	000d0067          	jr	x26

0000000041015590 <pass_label_4>:
    41015590:	00657db7          	lui	x27,0x657
    41015594:	02000693          	li	x13,32
    41015598:	00dd89b3          	add	x19,x27,x13
    4101559c:	1009adaf          	lr.w	x27,(x19)
    410155a0:	006575b7          	lui	x11,0x657
    410155a4:	02000c13          	li	x24,32
    410155a8:	01858833          	add	x16,x11,x24
    410155ac:	000d5b37          	lui	x22,0xd5
    410155b0:	dedb0b1b          	addiw	x22,x22,-531 # d4ded <mem7+0x8aded>
    410155b4:	00cb1b13          	slli	x22,x22,0xc
    410155b8:	9f2b0b13          	addi	x22,x22,-1550
    410155bc:	19683baf          	sc.d	x23,x22,(x16)
    410155c0:	01fb8a63          	beq	x23,x31,410155d4 <SID_ZA64RS_03_lrw_scd_passed>
    410155c4:	069cecb7          	lui	x25,0x69ce
    410155c8:	008c8c9b          	addiw	x25,x25,8 # 69ce008 <failed_addr>
    410155cc:	000cbc83          	ld	x25,0(x25)
    410155d0:	000c8067          	jr	x25

00000000410155d4 <SID_ZA64RS_03_lrw_scd_passed>:
    410155d4:	00f00f9b          	addiw	x31,x0,15
    410155d8:	01cf9f93          	slli	x31,x31,0x1c
    410155dc:	001f8f93          	addi	x31,x31,1
    410155e0:	00000073          	ecall

00000000410155e4 <SID_ZA64RS_03_lrd_scw>:
    410155e4:	6cd4d137          	lui	x2,0x6cd4d
    410155e8:	000012b7          	lui	x5,0x1
    410155ec:	00510133          	add	x2,x2,x5
    410155f0:	ff017113          	andi	x2,x2,-16
    410155f4:	00000b13          	li	x22,0
    410155f8:	36200c37          	lui	x24,0x36200
    410155fc:	02000b93          	li	x23,32
    41015600:	017c0cb3          	add	x25,x24,x23
    41015604:	100cbf2f          	lr.d	x30,(x25)
    41015608:	36200eb7          	lui	x29,0x36200
    4101560c:	06000e13          	li	x28,96
    41015610:	01ce89b3          	add	x19,x29,x28
    41015614:	0005a7b7          	lui	x15,0x5a
    41015618:	64f7879b          	addiw	x15,x15,1615 # 5a64f <mem7+0x1064f>
    4101561c:	00d79793          	slli	x15,x15,0xd
    41015620:	75878793          	addi	x15,x15,1880
    41015624:	18f9a9af          	sc.w	x19,x15,(x19)
    41015628:	01699a63          	bne	x19,x22,4101563c <pass_label_6>
    4101562c:	069ce637          	lui	x12,0x69ce
    41015630:	0086061b          	addiw	x12,x12,8 # 69ce008 <failed_addr>
    41015634:	00063f83          	ld	x31,0(x12)
    41015638:	000f8067          	jr	x31

000000004101563c <pass_label_6>:
    4101563c:	36200bb7          	lui	x23,0x36200
    41015640:	02000a13          	li	x20,32
    41015644:	014b8633          	add	x12,x23,x20
    41015648:	100637af          	lr.d	x15,(x12)
    4101564c:	36200437          	lui	x8,0x36200
    41015650:	02000a93          	li	x21,32
    41015654:	01540433          	add	x8,x8,x21
    41015658:	0006a337          	lui	x6,0x6a
    4101565c:	6073031b          	addiw	x6,x6,1543 # 6a607 <mem7+0x20607>
    41015660:	00d31313          	slli	x6,x6,0xd
    41015664:	cab30313          	addi	x6,x6,-853
    41015668:	1864282f          	sc.w	x16,x6,(x8)
    4101566c:	01680a63          	beq	x16,x22,41015680 <SID_ZA64RS_03_lrd_scw_passed>
    41015670:	069ce337          	lui	x6,0x69ce
    41015674:	0083031b          	addiw	x6,x6,8 # 69ce008 <failed_addr>
    41015678:	00033583          	ld	x11,0(x6)
    4101567c:	00058067          	jr	x11 # 657000 <mem4>

0000000041015680 <SID_ZA64RS_03_lrd_scw_passed>:
    41015680:	00f00f9b          	addiw	x31,x0,15
    41015684:	01cf9f93          	slli	x31,x31,0x1c
    41015688:	001f8f93          	addi	x31,x31,1
    4101568c:	00000073          	ecall

0000000041015690 <SID_ZA64RS_05_w>:
    41015690:	0430d137          	lui	x2,0x430d
    41015694:	a0f1011b          	addiw	x2,x2,-1521 # 430ca0f <pma_region_2_size+0x30ca0f>
    41015698:	00f11113          	slli	x2,x2,0xf
    4101569c:	73d10113          	addi	x2,x2,1853
    410156a0:	00e11113          	slli	x2,x2,0xe
    410156a4:	000012b7          	lui	x5,0x1
    410156a8:	00510133          	add	x2,x2,x5
    410156ac:	ff017113          	andi	x2,x2,-16
    410156b0:	00000d13          	li	x26,0
    410156b4:	000563b7          	lui	x7,0x56
    410156b8:	c5d3839b          	addiw	x7,x7,-931 # 55c5d <mem7+0xbc5d>
    410156bc:	00d39393          	slli	x7,x7,0xd
    410156c0:	06000793          	li	x15,96
    410156c4:	00f38db3          	add	x27,x7,x15
    410156c8:	100da72f          	lr.w	x14,(x27)
    410156cc:	000563b7          	lui	x7,0x56
    410156d0:	c5d3839b          	addiw	x7,x7,-931 # 55c5d <mem7+0xbc5d>
    410156d4:	00d39393          	slli	x7,x7,0xd
    410156d8:	02000513          	li	x10,32
    410156dc:	00a38533          	add	x10,x7,x10
    410156e0:	0f0ade37          	lui	x28,0xf0ad
    410156e4:	2abe0e1b          	addiw	x28,x28,683 # f0ad2ab <__section_os_data_1+0x86de2ab>
    410156e8:	19c5262f          	sc.w	x12,x28,(x10)
    410156ec:	01a61a63          	bne	x12,x26,41015700 <pass_label_8>
    410156f0:	069ce9b7          	lui	x19,0x69ce
    410156f4:	0089899b          	addiw	x19,x19,8 # 69ce008 <failed_addr>
    410156f8:	0009b903          	ld	x18,0(x19)
    410156fc:	00090067          	jr	x18 # 657000 <mem4>

0000000041015700 <pass_label_8>:
    41015700:	000568b7          	lui	x17,0x56
    41015704:	c5d8889b          	addiw	x17,x17,-931 # 55c5d <mem7+0xbc5d>
    41015708:	00d89893          	slli	x17,x17,0xd
    4101570c:	06000413          	li	x8,96
    41015710:	00888fb3          	add	x31,x17,x8
    41015714:	100fa8af          	lr.w	x17,(x31)
    41015718:	000568b7          	lui	x17,0x56
    4101571c:	c5d8889b          	addiw	x17,x17,-931 # 55c5d <mem7+0xbc5d>
    41015720:	00d89893          	slli	x17,x17,0xd
    41015724:	06000493          	li	x9,96
    41015728:	009885b3          	add	x11,x17,x9
    4101572c:	0004a7b7          	lui	x15,0x4a
    41015730:	8677879b          	addiw	x15,x15,-1945 # 49867 <pma_region_0_size+0x9867>
    41015734:	00d79793          	slli	x15,x15,0xd
    41015738:	bd678793          	addi	x15,x15,-1066
    4101573c:	18f5adaf          	sc.w	x27,x15,(x11)
    41015740:	01ad8a63          	beq	x27,x26,41015754 <SID_ZA64RS_05_w_passed>
    41015744:	069ceb37          	lui	x22,0x69ce
    41015748:	008b0b1b          	addiw	x22,x22,8 # 69ce008 <failed_addr>
    4101574c:	000b3c83          	ld	x25,0(x22)
    41015750:	000c8067          	jr	x25

0000000041015754 <SID_ZA64RS_05_w_passed>:
    41015754:	00f00f9b          	addiw	x31,x0,15
    41015758:	01cf9f93          	slli	x31,x31,0x1c
    4101575c:	001f8f93          	addi	x31,x31,1
    41015760:	00000073          	ecall

0000000041015764 <SID_ZA64RS_05_d>:
    41015764:	19360137          	lui	x2,0x19360
    41015768:	4b11011b          	addiw	x2,x2,1201 # 193604b1 <__section_os_data_1+0x129914b1>
    4101576c:	00c11113          	slli	x2,x2,0xc
    41015770:	000012b7          	lui	x5,0x1
    41015774:	00510133          	add	x2,x2,x5
    41015778:	ff017113          	andi	x2,x2,-16
    4101577c:	00000413          	li	x8,0
    41015780:	0004a537          	lui	x10,0x4a
    41015784:	06000493          	li	x9,96
    41015788:	00950333          	add	x6,x10,x9
    4101578c:	100335af          	lr.d	x11,(x6)
    41015790:	0004a337          	lui	x6,0x4a
    41015794:	02000393          	li	x7,32
    41015798:	00730bb3          	add	x23,x6,x7
    4101579c:	00056a37          	lui	x20,0x56
    410157a0:	1d3a0a1b          	addiw	x20,x20,467 # 561d3 <mem7+0xc1d3>
    410157a4:	00da1a13          	slli	x20,x20,0xd
    410157a8:	b29a0a13          	addi	x20,x20,-1239
    410157ac:	194bb82f          	sc.d	x16,x20,(x23)
    410157b0:	00881a63          	bne	x16,x8,410157c4 <pass_label_10>
    410157b4:	069ce937          	lui	x18,0x69ce
    410157b8:	0089091b          	addiw	x18,x18,8 # 69ce008 <failed_addr>
    410157bc:	00093803          	ld	x16,0(x18)
    410157c0:	00080067          	jr	x16

00000000410157c4 <pass_label_10>:
    410157c4:	0004a9b7          	lui	x19,0x4a
    410157c8:	06000493          	li	x9,96
    410157cc:	00998833          	add	x16,x19,x9
    410157d0:	1008362f          	lr.d	x12,(x16)
    410157d4:	0004af37          	lui	x30,0x4a
    410157d8:	06000a13          	li	x20,96
    410157dc:	014f0733          	add	x14,x30,x20
    410157e0:	06005d37          	lui	x26,0x6005
    410157e4:	722d0d1b          	addiw	x26,x26,1826 # 6005722 <pma_region_2_size+0x2005722>
    410157e8:	19a73b2f          	sc.d	x22,x26,(x14)
    410157ec:	008b0a63          	beq	x22,x8,41015800 <SID_ZA64RS_05_d_passed>
    410157f0:	069ce7b7          	lui	x15,0x69ce
    410157f4:	0087879b          	addiw	x15,x15,8 # 69ce008 <failed_addr>
    410157f8:	0007b683          	ld	x13,0(x15)
    410157fc:	00068067          	jr	x13

0000000041015800 <SID_ZA64RS_05_d_passed>:
    41015800:	00f00f9b          	addiw	x31,x0,15
    41015804:	01cf9f93          	slli	x31,x31,0x1c
    41015808:	001f8f93          	addi	x31,x31,1
    4101580c:	00000073          	ecall

0000000041015810 <SID_ZA64RS_04_lrw_scd>:
    41015810:	00c7b137          	lui	x2,0xc7b
    41015814:	9511011b          	addiw	x2,x2,-1711 # c7a951 <mem4+0x623951>
    41015818:	00d11113          	slli	x2,x2,0xd
    4101581c:	6fb10113          	addi	x2,x2,1787
    41015820:	00c11113          	slli	x2,x2,0xc
    41015824:	000012b7          	lui	x5,0x1
    41015828:	00510133          	add	x2,x2,x5
    4101582c:	ff017113          	andi	x2,x2,-16
    41015830:	00000c93          	li	x25,0
    41015834:	016bddb7          	lui	x27,0x16bd
    41015838:	87dd8d9b          	addiw	x27,x27,-1923 # 16bc87d <__section_data_1+0x65587d>
    4101583c:	00cd9d93          	slli	x27,x27,0xc
    41015840:	06000f93          	li	x31,96
    41015844:	01fd8db3          	add	x27,x27,x31
    41015848:	100da4af          	lr.w	x9,(x27)
    4101584c:	016bd837          	lui	x16,0x16bd
    41015850:	87d8081b          	addiw	x16,x16,-1923 # 16bc87d <__section_data_1+0x65587d>
    41015854:	00c81813          	slli	x16,x16,0xc
    41015858:	02000913          	li	x18,32
    4101585c:	01280c33          	add	x24,x16,x18
    41015860:	581d9337          	lui	x6,0x581d9
    41015864:	e863031b          	addiw	x6,x6,-378 # 581d8e86 <pma_region_2_end+0x13197e86>
    41015868:	186c39af          	sc.d	x19,x6,(x24)
    4101586c:	01999a63          	bne	x19,x25,41015880 <pass_label_12>
    41015870:	069cee37          	lui	x28,0x69ce
    41015874:	008e0e1b          	addiw	x28,x28,8 # 69ce008 <failed_addr>
    41015878:	000e3d83          	ld	x27,0(x28)
    4101587c:	000d8067          	jr	x27

0000000041015880 <pass_label_12>:
    41015880:	016bddb7          	lui	x27,0x16bd
    41015884:	87dd8d9b          	addiw	x27,x27,-1923 # 16bc87d <__section_data_1+0x65587d>
    41015888:	00cd9d93          	slli	x27,x27,0xc
    4101588c:	06000913          	li	x18,96
    41015890:	012d8db3          	add	x27,x27,x18
    41015894:	100da42f          	lr.w	x8,(x27)
    41015898:	016bda37          	lui	x20,0x16bd
    4101589c:	87da0a1b          	addiw	x20,x20,-1923 # 16bc87d <__section_data_1+0x65587d>
    410158a0:	00ca1a13          	slli	x20,x20,0xc
    410158a4:	06000e93          	li	x29,96
    410158a8:	01da0e33          	add	x28,x20,x29
    410158ac:	000f0a37          	lui	x20,0xf0
    410158b0:	3f3a0a1b          	addiw	x20,x20,1011 # f03f3 <mem7+0xa63f3>
    410158b4:	00ca1a13          	slli	x20,x20,0xc
    410158b8:	d74a0a13          	addi	x20,x20,-652
    410158bc:	194e36af          	sc.d	x13,x20,(x28)
    410158c0:	01968a63          	beq	x13,x25,410158d4 <SID_ZA64RS_04_lrw_scd_passed>
    410158c4:	069cec37          	lui	x24,0x69ce
    410158c8:	008c0c1b          	addiw	x24,x24,8 # 69ce008 <failed_addr>
    410158cc:	000c3a83          	ld	x21,0(x24)
    410158d0:	000a8067          	jr	x21

00000000410158d4 <SID_ZA64RS_04_lrw_scd_passed>:
    410158d4:	00f00f9b          	addiw	x31,x0,15
    410158d8:	01cf9f93          	slli	x31,x31,0x1c
    410158dc:	001f8f93          	addi	x31,x31,1
    410158e0:	00000073          	ecall

00000000410158e4 <SID_ZA64RS_04_lrd_scw>:
    410158e4:	7757d137          	lui	x2,0x7757d
    410158e8:	b611011b          	addiw	x2,x2,-1183 # 7757cb61 <SID_ZA64RS_03_lrd_scw_stack+0xa82fb61>
    410158ec:	00c11113          	slli	x2,x2,0xc
    410158f0:	000012b7          	lui	x5,0x1
    410158f4:	00510133          	add	x2,x2,x5
    410158f8:	ff017113          	andi	x2,x2,-16
    410158fc:	00000d93          	li	x27,0
    41015900:	0b5ea837          	lui	x16,0xb5ea
    41015904:	8118081b          	addiw	x16,x16,-2031 # b5e9811 <__section_os_data_1+0x4c1a811>
    41015908:	00d81813          	slli	x16,x16,0xd
    4101590c:	a7f80813          	addi	x16,x16,-1409
    41015910:	00c81813          	slli	x16,x16,0xc
    41015914:	06000493          	li	x9,96
    41015918:	00980333          	add	x6,x16,x9
    4101591c:	10033baf          	lr.d	x23,(x6)
    41015920:	0b5ea637          	lui	x12,0xb5ea
    41015924:	8116061b          	addiw	x12,x12,-2031 # b5e9811 <__section_os_data_1+0x4c1a811>
    41015928:	00d61613          	slli	x12,x12,0xd
    4101592c:	a7f60613          	addi	x12,x12,-1409
    41015930:	00c61613          	slli	x12,x12,0xc
    41015934:	02000e13          	li	x28,32
    41015938:	01c60fb3          	add	x31,x12,x28
    4101593c:	17ec9b37          	lui	x22,0x17ec9
    41015940:	409b0b1b          	addiw	x22,x22,1033 # 17ec9409 <__section_os_data_1+0x114fa409>
    41015944:	196faeaf          	sc.w	x29,x22,(x31)
    41015948:	01be9a63          	bne	x29,x27,4101595c <pass_label_14>
    4101594c:	069ce837          	lui	x16,0x69ce
    41015950:	0088081b          	addiw	x16,x16,8 # 69ce008 <failed_addr>
    41015954:	00083a03          	ld	x20,0(x16)
    41015958:	000a0067          	jr	x20

000000004101595c <pass_label_14>:
    4101595c:	0b5ea6b7          	lui	x13,0xb5ea
    41015960:	8116869b          	addiw	x13,x13,-2031 # b5e9811 <__section_os_data_1+0x4c1a811>
    41015964:	00d69693          	slli	x13,x13,0xd
    41015968:	a7f68693          	addi	x13,x13,-1409
    4101596c:	00c69693          	slli	x13,x13,0xc
    41015970:	06000c13          	li	x24,96
    41015974:	018689b3          	add	x19,x13,x24
    41015978:	1009baaf          	lr.d	x21,(x19)
    4101597c:	0b5ea837          	lui	x16,0xb5ea
    41015980:	8118081b          	addiw	x16,x16,-2031 # b5e9811 <__section_os_data_1+0x4c1a811>
    41015984:	00d81813          	slli	x16,x16,0xd
    41015988:	a7f80813          	addi	x16,x16,-1409
    4101598c:	00c81813          	slli	x16,x16,0xc
    41015990:	06000b93          	li	x23,96
    41015994:	01780c33          	add	x24,x16,x23
    41015998:	000a93b7          	lui	x7,0xa9
    4101599c:	2c13839b          	addiw	x7,x7,705 # a92c1 <mem7+0x5f2c1>
    410159a0:	00c39393          	slli	x7,x7,0xc
    410159a4:	e7238393          	addi	x7,x7,-398
    410159a8:	187c2baf          	sc.w	x23,x7,(x24)
    410159ac:	01bb8a63          	beq	x23,x27,410159c0 <SID_ZA64RS_04_lrd_scw_passed>
    410159b0:	069cea37          	lui	x20,0x69ce
    410159b4:	008a0a1b          	addiw	x20,x20,8 # 69ce008 <failed_addr>
    410159b8:	000a3783          	ld	x15,0(x20)
    410159bc:	00078067          	jr	x15

00000000410159c0 <SID_ZA64RS_04_lrd_scw_passed>:
    410159c0:	00f00f9b          	addiw	x31,x0,15
    410159c4:	01cf9f93          	slli	x31,x31,0x1c
    410159c8:	001f8f93          	addi	x31,x31,1
    410159cc:	00000073          	ecall

00000000410159d0 <test_cleanup>:
    410159d0:	00f00f9b          	addiw	x31,x0,15
    410159d4:	01cf9f93          	slli	x31,x31,0x1c
    410159d8:	001f8f93          	addi	x31,x31,1
    410159dc:	00000073          	ecall

00000000410159e0 <local_test_failed>:
    410159e0:	00f00f9b          	addiw	x31,x0,15
    410159e4:	01cf9f93          	slli	x31,x31,0x1c
    410159e8:	002f8f93          	addi	x31,x31,2
    410159ec:	00000073          	ecall

Disassembly of section .csr_machine_0:

0000000041215000 <csr_access_mstatus_machine_key_3_set-0x30>:
    41215000:	4296afb7          	lui	x31,0x4296a
    41215004:	0a0f8f9b          	addiw	x31,x31,160 # 4296a0a0 <machine_csr_jump_table_flags_pa>
    41215008:	000fbf83          	ld	x31,0(x31)
    4121500c:	00300293          	li	x5,3
    41215010:	025f8063          	beq	x31,x5,41215030 <csr_access_mstatus_machine_key_3_set>
    41215014:	00100293          	li	x5,1
    41215018:	025f8063          	beq	x31,x5,41215038 <csr_access_mstatus_machine_key_1_clear>
    4121501c:	00600293          	li	x5,6
    41215020:	025f8063          	beq	x31,x5,41215040 <csr_access_mtvec_machine_key_6_set>
    41215024:	00500293          	li	x5,5
    41215028:	025f8063          	beq	x31,x5,41215048 <csr_access_mtvec_machine_key_5_clear>
    4121502c:	0240006f          	j	41215050 <end_machine_label>

0000000041215030 <csr_access_mstatus_machine_key_3_set>:
    41215030:	3003a073          	csrs	mstatus,x7
    41215034:	01c0006f          	j	41215050 <end_machine_label>

0000000041215038 <csr_access_mstatus_machine_key_1_clear>:
    41215038:	3003b073          	csrc	mstatus,x7
    4121503c:	0140006f          	j	41215050 <end_machine_label>

0000000041215040 <csr_access_mtvec_machine_key_6_set>:
    41215040:	3053a073          	csrs	mtvec,x7
    41215044:	00c0006f          	j	41215050 <end_machine_label>

0000000041215048 <csr_access_mtvec_machine_key_5_clear>:
    41215048:	3053b073          	csrc	mtvec,x7
    4121504c:	0040006f          	j	41215050 <end_machine_label>

0000000041215050 <end_machine_label>:
    41215050:	000f0fb7          	lui	x31,0xf0
    41215054:	001f8f9b          	addiw	x31,x31,1 # f0001 <mem7+0xa6001>
    41215058:	00cf9f93          	slli	x31,x31,0xc
    4121505c:	004f8f93          	addi	x31,x31,4
    41215060:	00000073          	ecall

Disassembly of section .csr_super_0:

0000000041216000 <csr_access_sstatus_supervisor_key_4_set-0x30>:
    41216000:	069cefb7          	lui	x31,0x69ce
    41216004:	0a8f8f9b          	addiw	x31,x31,168 # 69ce0a8 <super_csr_jump_table_flags>
    41216008:	000fbf83          	ld	x31,0(x31)
    4121600c:	00400293          	li	x5,4
    41216010:	025f8063          	beq	x31,x5,41216030 <csr_access_sstatus_supervisor_key_4_set>
    41216014:	00200293          	li	x5,2
    41216018:	025f8063          	beq	x31,x5,41216038 <csr_access_sstatus_supervisor_key_2_clear>
    4121601c:	00800293          	li	x5,8
    41216020:	025f8063          	beq	x31,x5,41216040 <csr_access_stvec_supervisor_key_8_set>
    41216024:	00700293          	li	x5,7
    41216028:	025f8063          	beq	x31,x5,41216048 <csr_access_stvec_supervisor_key_7_clear>
    4121602c:	0240006f          	j	41216050 <end_super_label>

0000000041216030 <csr_access_sstatus_supervisor_key_4_set>:
    41216030:	1003a073          	csrs	sstatus,x7
    41216034:	01c0006f          	j	41216050 <end_super_label>

0000000041216038 <csr_access_sstatus_supervisor_key_2_clear>:
    41216038:	1003b073          	csrc	sstatus,x7
    4121603c:	0140006f          	j	41216050 <end_super_label>

0000000041216040 <csr_access_stvec_supervisor_key_8_set>:
    41216040:	1053a073          	csrs	stvec,x7
    41216044:	00c0006f          	j	41216050 <end_super_label>

0000000041216048 <csr_access_stvec_supervisor_key_7_clear>:
    41216048:	1053b073          	csrc	stvec,x7
    4121604c:	0040006f          	j	41216050 <end_super_label>

0000000041216050 <end_super_label>:
    41216050:	000f0fb7          	lui	x31,0xf0
    41216054:	001f8f9b          	addiw	x31,x31,1 # f0001 <mem7+0xa6001>
    41216058:	00cf9f93          	slli	x31,x31,0xc
    4121605c:	004f8f93          	addi	x31,x31,4
    41216060:	00000073          	ecall

Disassembly of section .os_data:

00000000069ce000 <passed_addr_ptr>:
 69ce000:	5120                	.insn	2, 0x5120
 69ce002:	4101                	.insn	2, 0x4101
 69ce004:	0000                	.insn	2, 0x0000
	...

00000000069ce008 <failed_addr_ptr>:
 69ce008:	5130                	.insn	2, 0x5130
 69ce00a:	4101                	.insn	2, 0x4101
 69ce00c:	0000                	.insn	2, 0x0000
	...

00000000069ce010 <end_test_addr_ptr>:
 69ce010:	5140                	.insn	2, 0x5140
 69ce012:	4101                	.insn	2, 0x4101
 69ce014:	0000                	.insn	2, 0x0000
	...

00000000069ce018 <os_passed_addr_ptr>:
 69ce018:	07b0                	.insn	2, 0x07b0
 69ce01a:	4100                	.insn	2, 0x4100
 69ce01c:	0000                	.insn	2, 0x0000
	...

00000000069ce020 <os_failed_addr_ptr>:
 69ce020:	07c0                	.insn	2, 0x07c0
 69ce022:	4100                	.insn	2, 0x4100
 69ce024:	0000                	.insn	2, 0x0000
	...

00000000069ce028 <os_end_test_addr_ptr>:
 69ce028:	07cc                	.insn	2, 0x07cc
 69ce02a:	4100                	.insn	2, 0x4100
 69ce02c:	0000                	.insn	2, 0x0000
	...

00000000069ce030 <rvcp_prefix_str_data>:
 69ce030:	5652                	.insn	2, 0x5652
 69ce032:	203a5043          	fmadd.s	f0,f20,f3,f4,unknown
 69ce036:	6554                	.insn	2, 0x6554
 69ce038:	46207473          	csrrci	x8,0x462,0
 69ce03c:	6c69                	.insn	2, 0x6c69
 69ce03e:	2065                	.insn	2, 0x2065
	...

00000000069ce041 <rvcp_testname_str_data>:
 69ce041:	7074                	.insn	2, 0x7074
 69ce043:	7a5f 3661 7234      	.insn	6, 0x723436617a5f
 69ce049:	00325f73          	csrrwi	x30,fcsr,4

00000000069ce04d <rvcp_passed_str_data>:
 69ce04d:	4150                	.insn	2, 0x4150
 69ce04f:	44455353          	fround.h	f6,f10,unknown
	...

00000000069ce054 <rvcp_failed_str_data>:
 69ce054:	4146                	.insn	2, 0x4146
 69ce056:	4c49                	.insn	2, 0x4c49
 69ce058:	4445                	.insn	2, 0x4445
	...

00000000069ce05b <rvcp_space_str_data>:
 69ce05b:	0020                	.insn	2, 0x0020

00000000069ce05d <rvcp_newline_str_data>:
 69ce05d:	000a                	.insn	2, 0x000a
	...

00000000069ce060 <excp_ignored_count_mem>:
	...

00000000069ce068 <machine_flags_mem>:
	...

00000000069ce070 <user_flags_mem>:
	...

00000000069ce078 <super_flags_mem>:
	...

00000000069ce080 <machine_area_mem>:
	...

00000000069ce088 <user_area_mem>:
	...

00000000069ce090 <super_area_mem>:
	...

00000000069ce098 <zero_data_mem>:
	...

00000000069ce0a0 <machine_csr_jump_table_flags_mem>:
	...

00000000069ce0a8 <super_csr_jump_table_flags_mem>:
	...

00000000069ce0b0 <pte_access_flags_mem>:
	...

00000000069ce0c8 <num_harts_ended_mem>:
	...

00000000069ce0d0 <num_hard_fails_mem>:
	...

Disassembly of section .hart_context:

0000000040a44000 <hart_context_0>:
    40a44000:	e000                	.insn	2, 0xe000
    40a44002:	0011                	.insn	2, 0x0011
	...
    40a44018:	0001                	.insn	2, 0x0001
    40a4401a:	0000                	.insn	2, 0x0000
    40a4401c:	0000                	.insn	2, 0x0000
    40a4401e:	0000                	.insn	2, 0x0000
    40a44020:	ffff                	.insn	2, 0xffff
    40a44022:	ffff                	.insn	2, 0xffff
    40a44024:	ffff                	.insn	2, 0xffff
    40a44026:	ffff                	.insn	2, 0xffff
    40a44028:	ffff                	.insn	2, 0xffff
    40a4402a:	ffff                	.insn	2, 0xffff
    40a4402c:	ffff                	.insn	2, 0xffff
    40a4402e:	ffff                	.insn	2, 0xffff
    40a44030:	ffff                	.insn	2, 0xffff
    40a44032:	ffff                	.insn	2, 0xffff
    40a44034:	ffff                	.insn	2, 0xffff
    40a44036:	ffff                	.insn	2, 0xffff
	...
    40a44050:	00ff 0000 0000 0000 	.insn	10, 0x00ff00000000000000ff
    40a44058:	00ff 
	...
    40a44176:	0000                	.insn	2, 0x0000
    40a44178:	ffff                	.insn	2, 0xffff
    40a4417a:	ffff                	.insn	2, 0xffff
    40a4417c:	ffff                	.insn	2, 0xffff
    40a4417e:	ffff                	.insn	2, 0xffff
	...
    40a44188:	ffff                	.insn	2, 0xffff
    40a4418a:	ffff                	.insn	2, 0xffff
	...

Disassembly of section .hart_stack_0:

000000000011d000 <hart_stack_0>:
	...

Disassembly of section .io_htif:

0000000041040000 <tohost>:
	...

0000000041040040 <fromhost>:
	...

Disassembly of section .mem0:

0000000000004000 <.mem0>:
    4000:	c0de                	.insn	2, 0xc0de
    4002:	c001                	.insn	2, 0xc001
    4004:	0000                	.insn	2, 0x0000
	...

Disassembly of section .mem1:

0000000035ffe000 <.mem1>:
    35ffe000:	c0de                	.insn	2, 0xc0de
    35ffe002:	c001                	.insn	2, 0xc001
    35ffe004:	0000                	.insn	2, 0x0000
	...

Disassembly of section .mem2:

0000000041217000 <.mem2>:
    41217000:	c0de                	.insn	2, 0xc0de
    41217002:	c001                	.insn	2, 0xc001
    41217004:	0000                	.insn	2, 0x0000
	...

Disassembly of section .mem3:

0000e04a30adf000 <.mem3>:
    e04a30adf000:	c0de                	.insn	2, 0xc0de
    e04a30adf002:	c001                	.insn	2, 0xc001
    e04a30adf004:	0000                	.insn	2, 0x0000
	...

Disassembly of section .mem4:

0000000000657000 <.mem4>:
  657000:	c0de                	.insn	2, 0xc0de
  657002:	c001                	.insn	2, 0xc001
  657004:	0000                	.insn	2, 0x0000
	...

Disassembly of section .mem5:

0000000036200000 <.mem5>:
    36200000:	c0de                	.insn	2, 0xc0de
    36200002:	c001                	.insn	2, 0xc001
    36200004:	0000                	.insn	2, 0x0000
	...

Disassembly of section .mem6:

00000000ab8ba000 <.mem6>:
    ab8ba000:	c0de                	.insn	2, 0xc0de
    ab8ba002:	c001                	.insn	2, 0xc001
    ab8ba004:	0000                	.insn	2, 0x0000
	...

Disassembly of section .mem7:

000000000004a000 <.mem7>:
   4a000:	c0de                	.insn	2, 0xc0de
   4a002:	c001                	.insn	2, 0xc001
   4a004:	0000                	.insn	2, 0x0000
	...

Disassembly of section .mem8:

00000016bc87d000 <.mem8>:
  16bc87d000:	c0de                	.insn	2, 0xc0de
  16bc87d002:	c001                	.insn	2, 0xc001
  16bc87d004:	0000                	.insn	2, 0x0000
	...

Disassembly of section .mem9:

0016bd3021a7f000 <.mem9>:
  16bd3021a7f000:	c0de                	.insn	2, 0xc0de
  16bd3021a7f002:	c001                	.insn	2, 0xc001
  16bd3021a7f004:	0000                	.insn	2, 0x0000
	...

Disassembly of section .tp_csr_storage:

00000000001dd000 <.tp_csr_storage>:
  1dd000:	c0de                	.insn	2, 0xc0de
  1dd002:	c001                	.insn	2, 0xc001
  1dd004:	0000                	.insn	2, 0x0000
	...

Disassembly of section .SID_ZA64RS_01_stack:

00000000001e1000 <.SID_ZA64RS_01_stack>:
  1e1000:	c0de                	.insn	2, 0xc0de
  1e1002:	c001                	.insn	2, 0xc001
  1e1004:	0000                	.insn	2, 0x0000
	...

Disassembly of section .SID_ZA64RS_02_stack:

000000015bb5d000 <.SID_ZA64RS_02_stack>:
   15bb5d000:	c0de                	.insn	2, 0xc0de
   15bb5d002:	c001                	.insn	2, 0xc001
   15bb5d004:	0000                	.insn	2, 0x0000
	...

Disassembly of section .SID_ZA64RS_03_w_stack:

00d92efa10bfa000 <.SID_ZA64RS_03_w_stack>:
  d92efa10bfa000:	c0de                	.insn	2, 0xc0de
  d92efa10bfa002:	c001                	.insn	2, 0xc001
  d92efa10bfa004:	0000                	.insn	2, 0x0000
	...

Disassembly of section .SID_ZA64RS_03_d_stack:

0000004c805de000 <.SID_ZA64RS_03_d_stack>:
  4c805de000:	c0de                	.insn	2, 0xc0de
  4c805de002:	c001                	.insn	2, 0xc001
  4c805de004:	0000                	.insn	2, 0x0000
	...

Disassembly of section .SID_ZA64RS_03_lrw_scd_stack:

00000150db95a000 <.SID_ZA64RS_03_lrw_scd_stack>:
 150db95a000:	c0de                	.insn	2, 0xc0de
 150db95a002:	c001                	.insn	2, 0xc001
 150db95a004:	0000                	.insn	2, 0x0000
	...

Disassembly of section .SID_ZA64RS_03_lrd_scw_stack:

000000006cd4d000 <.SID_ZA64RS_03_lrd_scw_stack>:
    6cd4d000:	c0de                	.insn	2, 0xc0de
    6cd4d002:	c001                	.insn	2, 0xc001
    6cd4d004:	0000                	.insn	2, 0x0000
	...

Disassembly of section .SID_ZA64RS_05_w_stack:

00861941e1cf4000 <.SID_ZA64RS_05_w_stack>:
  861941e1cf4000:	c0de                	.insn	2, 0xc0de
  861941e1cf4002:	c001                	.insn	2, 0xc001
  861941e1cf4004:	0000                	.insn	2, 0x0000
	...

Disassembly of section .SID_ZA64RS_05_d_stack:

00000193604b1000 <.SID_ZA64RS_05_d_stack>:
 193604b1000:	c0de                	.insn	2, 0xc0de
 193604b1002:	c001                	.insn	2, 0xc001
 193604b1004:	0000                	.insn	2, 0x0000
	...

Disassembly of section .SID_ZA64RS_04_lrw_scd_stack:

00018f52a26fb000 <.SID_ZA64RS_04_lrw_scd_stack>:
   18f52a26fb000:	c0de                	.insn	2, 0xc0de
   18f52a26fb002:	c001                	.insn	2, 0xc001
   18f52a26fb004:	0000                	.insn	2, 0x0000
	...

Disassembly of section .SID_ZA64RS_04_lrd_scw_stack:

000007757cb61000 <.SID_ZA64RS_04_lrd_scw_stack>:
 7757cb61000:	c0de                	.insn	2, 0xc0de
 7757cb61002:	c001                	.insn	2, 0xc001
 7757cb61004:	0000                	.insn	2, 0x0000
	...

Disassembly of section .__pagetable_map_os_0x00000000444c6000:

00000000444c6000 <__pagetable_map_os_0x00000000444c6000>:
    444c6000:	b801                	.insn	2, 0xb801
    444c6002:	1126                	.insn	2, 0x1126
    444c6004:	0000                	.insn	2, 0x0000
    444c6006:	0000                	.insn	2, 0x0000
    444c6008:	7801                	.insn	2, 0x7801
    444c600a:	000010c3          	fmadd.s	f1,f0,f0,f0,rtz
	...
    444c60ae:	0000                	.insn	2, 0x0000
    444c60b0:	ec01                	.insn	2, 0xec01
    444c60b2:	000010bf 00000000 	.insn	8, 0x10bf
	...
    444c642e:	0000                	.insn	2, 0x0000
    444c6430:	6c01                	.insn	2, 0x6c01
    444c6432:	000010af          	.insn	4, 0x10af
	...
    444c66c6:	0000                	.insn	2, 0x0000
    444c66c8:	f801                	.insn	2, 0xf801
    444c66ca:	113e                	.insn	2, 0x113e
    444c66cc:	0000                	.insn	2, 0x0000
	...

Disassembly of section .__pagetable_map_os_0x00000000449ae000:

00000000449ae000 <__pagetable_map_os_0x00000000449ae000>:
    449ae000:	4401                	.insn	2, 0x4401
    449ae002:	10ae                	.insn	2, 0x10ae
	...
    449ae010:	e001                	.insn	2, 0xe001
    449ae012:	10a5                	.insn	2, 0x10a5
    449ae014:	0000                	.insn	2, 0x0000
    449ae016:	0000                	.insn	2, 0x0000
    449ae018:	2801                	.insn	2, 0x2801
    449ae01a:	10b5                	.insn	2, 0x10b5
	...
    449ae070:	3401                	.insn	2, 0x3401
    449ae072:	10c1                	.insn	2, 0x10c1
	...
    449aee00:	7401                	.insn	2, 0x7401
    449aee02:	00000000113f 	.6byte	0x00000000113f

Disassembly of section .__pagetable_map_os_0x0000000042b91000:

0000000042b91000 <__pagetable_map_os_0x0000000042b91000>:
    42b91000:	4001                	.insn	2, 0x4001
    42b91002:	000010af          	.insn	4, 0x10af
    42b91006:	0000                	.insn	2, 0x0000
    42b91008:	2801                	.insn	2, 0x2801
    42b9100a:	000010bb          	sllw	x1,x0,x0
    42b9100e:	0000                	.insn	2, 0x0000
    42b91010:	f401                	.insn	2, 0xf401
    42b91012:	1140                	.insn	2, 0x1140
	...
    42b91028:	4001                	.insn	2, 0x4001
    42b9102a:	10c1                	.insn	2, 0x10c1
	...
    42b912d0:	e401                	.insn	2, 0xe401
    42b912d2:	113e                	.insn	2, 0x113e
	...
    42b91990:	c001                	.insn	2, 0xc001
    42b91992:	113e                	.insn	2, 0x113e
    42b91994:	0000                	.insn	2, 0x0000
	...

Disassembly of section .__pagetable_map_os_0x0000000042eca000:

0000000042eca000 <__pagetable_map_os_0x0000000042eca000>:
	...
    42eca028:	8c01                	.insn	2, 0x8c01
    42eca02a:	0000113f 00000000 	.insn	8, 0x113f
	...
    42eca03e:	0000                	.insn	2, 0x0000
    42eca040:	7801                	.insn	2, 0x7801
    42eca042:	000010fb          	.insn	4, 0x10fb
    42eca046:	0000                	.insn	2, 0x0000
    42eca048:	ec01                	.insn	2, 0xec01
    42eca04a:	10a5                	.insn	2, 0x10a5
	...
    42eca110:	a001                	.insn	2, 0xa001
    42eca112:	0000113f 00000000 	.insn	8, 0x113f
	...
    42ecab2e:	0000                	.insn	2, 0x0000
    42ecab30:	0001                	.insn	2, 0x0001
    42ecab32:	10c2                	.insn	2, 0x10c2
    42ecab34:	0000                	.insn	2, 0x0000
	...

Disassembly of section .__pagetable_map_os_0x0000000043ede000:

0000000043ede000 <__pagetable_map_os_0x0000000043ede000>:
	...
    43ede080:	40df 1040 0000      	.insn	6, 0x104040df
    43ede086:	0000                	.insn	2, 0x0000
    43ede088:	104044cf          	fnmadd.s	f9,f0,f4,f2,rmm
    43ede08c:	0000                	.insn	2, 0x0000
    43ede08e:	0000                	.insn	2, 0x0000
    43ede090:	104048cf          	fnmadd.s	f17,f0,f4,f2,rmm
    43ede094:	0000                	.insn	2, 0x0000
    43ede096:	0000                	.insn	2, 0x0000
    43ede098:	10404ccf          	fnmadd.s	f25,f0,f4,f2,rmm
    43ede09c:	0000                	.insn	2, 0x0000
    43ede09e:	0000                	.insn	2, 0x0000
    43ede0a0:	104050cf          	fnmadd.s	f1,f0,f4,f2,unknown
    43ede0a4:	0000                	.insn	2, 0x0000
    43ede0a6:	0000                	.insn	2, 0x0000
    43ede0a8:	00df 10d8 0000      	.insn	6, 0x10d800df
    43ede0ae:	0000                	.insn	2, 0x0000
    43ede0b0:	04df 10d8 0000      	.insn	6, 0x10d804df
    43ede0b6:	0000                	.insn	2, 0x0000
    43ede0b8:	08df 10d8 0000      	.insn	6, 0x10d808df
    43ede0be:	0000                	.insn	2, 0x0000
    43ede0c0:	0cdf 10d8 0000      	.insn	6, 0x10d80cdf
    43ede0c6:	0000                	.insn	2, 0x0000
    43ede0c8:	10df 10d8 0000      	.insn	6, 0x10d810df
    43ede0ce:	0000                	.insn	2, 0x0000
    43ede0d0:	14df 10d8 0000      	.insn	6, 0x10d814df
    43ede0d6:	0000                	.insn	2, 0x0000
    43ede0d8:	18df 10d8 0000      	.insn	6, 0x10d818df
    43ede0de:	0000                	.insn	2, 0x0000
    43ede0e0:	1cdf 10d8 0000      	.insn	6, 0x10d81cdf
    43ede0e6:	0000                	.insn	2, 0x0000
    43ede0e8:	20df 10d8 0000      	.insn	6, 0x10d820df
    43ede0ee:	0000                	.insn	2, 0x0000
    43ede0f0:	24df 10d8 0000      	.insn	6, 0x10d824df
    43ede0f6:	0000                	.insn	2, 0x0000
    43ede0f8:	28df 10d8 0000      	.insn	6, 0x10d828df
    43ede0fe:	0000                	.insn	2, 0x0000
    43ede100:	2cdf 10d8 0000      	.insn	6, 0x10d82cdf
    43ede106:	0000                	.insn	2, 0x0000
    43ede108:	30df 10d8 0000      	.insn	6, 0x10d830df
    43ede10e:	0000                	.insn	2, 0x0000
    43ede110:	34df 10d8 0000      	.insn	6, 0x10d834df
    43ede116:	0000                	.insn	2, 0x0000
    43ede118:	38df 10d8 0000      	.insn	6, 0x10d838df
    43ede11e:	0000                	.insn	2, 0x0000
    43ede120:	3cdf 10d8 0000      	.insn	6, 0x10d83cdf
    43ede126:	0000                	.insn	2, 0x0000
    43ede128:	40df 10d8 0000      	.insn	6, 0x10d840df
    43ede12e:	0000                	.insn	2, 0x0000
    43ede130:	44df 10d8 0000      	.insn	6, 0x10d844df
    43ede136:	0000                	.insn	2, 0x0000
    43ede138:	48df 10d8 0000      	.insn	6, 0x10d848df
    43ede13e:	0000                	.insn	2, 0x0000
    43ede140:	4cdf 10d8 0000      	.insn	6, 0x10d84cdf
    43ede146:	0000                	.insn	2, 0x0000
    43ede148:	50df 10d8 0000      	.insn	6, 0x10d850df
    43ede14e:	0000                	.insn	2, 0x0000
    43ede150:	54df 10d8 0000      	.insn	6, 0x10d854df
    43ede156:	0000                	.insn	2, 0x0000
    43ede158:	58df 10d8 0000      	.insn	6, 0x10d858df
    43ede15e:	0000                	.insn	2, 0x0000
    43ede160:	5cdf 10d8 0000      	.insn	6, 0x10d85cdf
    43ede166:	0000                	.insn	2, 0x0000
    43ede168:	60df 10d8 0000      	.insn	6, 0x10d860df
    43ede16e:	0000                	.insn	2, 0x0000
    43ede170:	64df 10d8 0000      	.insn	6, 0x10d864df
    43ede176:	0000                	.insn	2, 0x0000
    43ede178:	68df 10d8 0000      	.insn	6, 0x10d868df
    43ede17e:	0000                	.insn	2, 0x0000
    43ede180:	6cdf 10d8 0000      	.insn	6, 0x10d86cdf
    43ede186:	0000                	.insn	2, 0x0000
    43ede188:	70df 10d8 0000      	.insn	6, 0x10d870df
    43ede18e:	0000                	.insn	2, 0x0000
    43ede190:	74df 10d8 0000      	.insn	6, 0x10d874df
    43ede196:	0000                	.insn	2, 0x0000
    43ede198:	78df 10d8 0000      	.insn	6, 0x10d878df
    43ede19e:	0000                	.insn	2, 0x0000
    43ede1a0:	7cdf 10d8 0000      	.insn	6, 0x10d87cdf
    43ede1a6:	0000                	.insn	2, 0x0000
    43ede1a8:	80df 10d8 0000      	.insn	6, 0x10d880df
    43ede1ae:	0000                	.insn	2, 0x0000
    43ede1b0:	84df 10d8 0000      	.insn	6, 0x10d884df
    43ede1b6:	0000                	.insn	2, 0x0000
    43ede1b8:	88df 10d8 0000      	.insn	6, 0x10d888df
    43ede1be:	0000                	.insn	2, 0x0000
    43ede1c0:	8cdf 10d8 0000      	.insn	6, 0x10d88cdf
    43ede1c6:	0000                	.insn	2, 0x0000
    43ede1c8:	90df 10d8 0000      	.insn	6, 0x10d890df
    43ede1ce:	0000                	.insn	2, 0x0000
    43ede1d0:	94df 10d8 0000      	.insn	6, 0x10d894df
    43ede1d6:	0000                	.insn	2, 0x0000
    43ede1d8:	98df 10d8 0000      	.insn	6, 0x10d898df
    43ede1de:	0000                	.insn	2, 0x0000
    43ede1e0:	9cdf 10d8 0000      	.insn	6, 0x10d89cdf
    43ede1e6:	0000                	.insn	2, 0x0000
    43ede1e8:	a0df 10d8 0000      	.insn	6, 0x10d8a0df
    43ede1ee:	0000                	.insn	2, 0x0000
    43ede1f0:	a4df 10d8 0000      	.insn	6, 0x10d8a4df
    43ede1f6:	0000                	.insn	2, 0x0000
    43ede1f8:	a8df 10d8 0000      	.insn	6, 0x10d8a8df
    43ede1fe:	0000                	.insn	2, 0x0000
    43ede200:	00df 1041 0000      	.insn	6, 0x104100df
    43ede206:	0000                	.insn	2, 0x0000
    43ede208:	b0df 10d8 0000      	.insn	6, 0x10d8b0df
    43ede20e:	0000                	.insn	2, 0x0000
    43ede210:	b4df 10d8 0000      	.insn	6, 0x10d8b4df
    43ede216:	0000                	.insn	2, 0x0000
    43ede218:	b8df 10d8 0000      	.insn	6, 0x10d8b8df
    43ede21e:	0000                	.insn	2, 0x0000
    43ede220:	bcdf 10d8 0000      	.insn	6, 0x10d8bcdf
    43ede226:	0000                	.insn	2, 0x0000
    43ede228:	c0df 10d8 0000      	.insn	6, 0x10d8c0df
    43ede22e:	0000                	.insn	2, 0x0000
    43ede230:	c4df 10d8 0000      	.insn	6, 0x10d8c4df
    43ede236:	0000                	.insn	2, 0x0000
    43ede238:	c8df 10d8 0000      	.insn	6, 0x10d8c8df
    43ede23e:	0000                	.insn	2, 0x0000
    43ede240:	ccdf 10d8 0000      	.insn	6, 0x10d8ccdf
    43ede246:	0000                	.insn	2, 0x0000
    43ede248:	d0df 10d8 0000      	.insn	6, 0x10d8d0df
    43ede24e:	0000                	.insn	2, 0x0000
    43ede250:	d4df 10d8 0000      	.insn	6, 0x10d8d4df
    43ede256:	0000                	.insn	2, 0x0000
    43ede258:	d8df 10d8 0000      	.insn	6, 0x10d8d8df
    43ede25e:	0000                	.insn	2, 0x0000
    43ede260:	dcdf 10d8 0000      	.insn	6, 0x10d8dcdf
    43ede266:	0000                	.insn	2, 0x0000
    43ede268:	e0df 10d8 0000      	.insn	6, 0x10d8e0df
    43ede26e:	0000                	.insn	2, 0x0000
    43ede270:	e4df 10d8 0000      	.insn	6, 0x10d8e4df
    43ede276:	0000                	.insn	2, 0x0000
    43ede278:	e8df 10d8 0000      	.insn	6, 0x10d8e8df
    43ede27e:	0000                	.insn	2, 0x0000
    43ede280:	ecdf 10d8 0000      	.insn	6, 0x10d8ecdf
    43ede286:	0000                	.insn	2, 0x0000
    43ede288:	f0df 10d8 0000      	.insn	6, 0x10d8f0df
    43ede28e:	0000                	.insn	2, 0x0000
    43ede290:	f4df 10d8 0000      	.insn	6, 0x10d8f4df
    43ede296:	0000                	.insn	2, 0x0000
    43ede298:	f8df 10d8 0000      	.insn	6, 0x10d8f8df
    43ede29e:	0000                	.insn	2, 0x0000
    43ede2a0:	fcdf 10d8 0000      	.insn	6, 0x10d8fcdf
    43ede2a6:	0000                	.insn	2, 0x0000
    43ede2a8:	00df 10d9 0000      	.insn	6, 0x10d900df
    43ede2ae:	0000                	.insn	2, 0x0000
    43ede2b0:	04df 10d9 0000      	.insn	6, 0x10d904df
    43ede2b6:	0000                	.insn	2, 0x0000
    43ede2b8:	08df 10d9 0000      	.insn	6, 0x10d908df
    43ede2be:	0000                	.insn	2, 0x0000
    43ede2c0:	0cdf 10d9 0000      	.insn	6, 0x10d90cdf
    43ede2c6:	0000                	.insn	2, 0x0000
    43ede2c8:	10df 10d9 0000      	.insn	6, 0x10d910df
    43ede2ce:	0000                	.insn	2, 0x0000
    43ede2d0:	14df 10d9 0000      	.insn	6, 0x10d914df
    43ede2d6:	0000                	.insn	2, 0x0000
    43ede2d8:	18df 10d9 0000      	.insn	6, 0x10d918df
    43ede2de:	0000                	.insn	2, 0x0000
    43ede2e0:	1cdf 10d9 0000      	.insn	6, 0x10d91cdf
    43ede2e6:	0000                	.insn	2, 0x0000
    43ede2e8:	20df 10d9 0000      	.insn	6, 0x10d920df
    43ede2ee:	0000                	.insn	2, 0x0000
    43ede2f0:	24df 10d9 0000      	.insn	6, 0x10d924df
    43ede2f6:	0000                	.insn	2, 0x0000
    43ede2f8:	28df 10d9 0000      	.insn	6, 0x10d928df
    43ede2fe:	0000                	.insn	2, 0x0000
    43ede300:	2cdf 10d9 0000      	.insn	6, 0x10d92cdf
    43ede306:	0000                	.insn	2, 0x0000
    43ede308:	30df 10d9 0000      	.insn	6, 0x10d930df
    43ede30e:	0000                	.insn	2, 0x0000
    43ede310:	34df 10d9 0000      	.insn	6, 0x10d934df
    43ede316:	0000                	.insn	2, 0x0000
    43ede318:	38df 10d9 0000      	.insn	6, 0x10d938df
    43ede31e:	0000                	.insn	2, 0x0000
    43ede320:	3cdf 10d9 0000      	.insn	6, 0x10d93cdf
    43ede326:	0000                	.insn	2, 0x0000
    43ede328:	40df 10d9 0000      	.insn	6, 0x10d940df
    43ede32e:	0000                	.insn	2, 0x0000
    43ede330:	44df 10d9 0000      	.insn	6, 0x10d944df
    43ede336:	0000                	.insn	2, 0x0000
    43ede338:	48df 10d9 0000      	.insn	6, 0x10d948df
    43ede33e:	0000                	.insn	2, 0x0000
    43ede340:	4cdf 10d9 0000      	.insn	6, 0x10d94cdf
    43ede346:	0000                	.insn	2, 0x0000
    43ede348:	50df 10d9 0000      	.insn	6, 0x10d950df
    43ede34e:	0000                	.insn	2, 0x0000
    43ede350:	54df 10d9 0000      	.insn	6, 0x10d954df
    43ede356:	0000                	.insn	2, 0x0000
    43ede358:	58df 10d9 0000      	.insn	6, 0x10d958df
    43ede35e:	0000                	.insn	2, 0x0000
    43ede360:	5cdf 10d9 0000      	.insn	6, 0x10d95cdf
    43ede366:	0000                	.insn	2, 0x0000
    43ede368:	60df 10d9 0000      	.insn	6, 0x10d960df
    43ede36e:	0000                	.insn	2, 0x0000
    43ede370:	64df 10d9 0000      	.insn	6, 0x10d964df
    43ede376:	0000                	.insn	2, 0x0000
    43ede378:	68df 10d9 0000      	.insn	6, 0x10d968df
    43ede37e:	0000                	.insn	2, 0x0000
    43ede380:	6cdf 10d9 0000      	.insn	6, 0x10d96cdf
    43ede386:	0000                	.insn	2, 0x0000
    43ede388:	70df 10d9 0000      	.insn	6, 0x10d970df
    43ede38e:	0000                	.insn	2, 0x0000
    43ede390:	74df 10d9 0000      	.insn	6, 0x10d974df
    43ede396:	0000                	.insn	2, 0x0000
    43ede398:	78df 10d9 0000      	.insn	6, 0x10d978df
    43ede39e:	0000                	.insn	2, 0x0000
    43ede3a0:	7cdf 10d9 0000      	.insn	6, 0x10d97cdf
    43ede3a6:	0000                	.insn	2, 0x0000
    43ede3a8:	80df 10d9 0000      	.insn	6, 0x10d980df
    43ede3ae:	0000                	.insn	2, 0x0000
    43ede3b0:	84df 10d9 0000      	.insn	6, 0x10d984df
    43ede3b6:	0000                	.insn	2, 0x0000
    43ede3b8:	88df 10d9 0000      	.insn	6, 0x10d988df
    43ede3be:	0000                	.insn	2, 0x0000
    43ede3c0:	8cdf 10d9 0000      	.insn	6, 0x10d98cdf
    43ede3c6:	0000                	.insn	2, 0x0000
    43ede3c8:	90df 10d9 0000      	.insn	6, 0x10d990df
    43ede3ce:	0000                	.insn	2, 0x0000
    43ede3d0:	94df 10d9 0000      	.insn	6, 0x10d994df
    43ede3d6:	0000                	.insn	2, 0x0000
    43ede3d8:	98df 10d9 0000      	.insn	6, 0x10d998df
    43ede3de:	0000                	.insn	2, 0x0000
    43ede3e0:	9cdf 10d9 0000      	.insn	6, 0x10d99cdf
    43ede3e6:	0000                	.insn	2, 0x0000
    43ede3e8:	a0df 10d9 0000      	.insn	6, 0x10d9a0df
    43ede3ee:	0000                	.insn	2, 0x0000
    43ede3f0:	a4df 10d9 0000      	.insn	6, 0x10d9a4df
    43ede3f6:	0000                	.insn	2, 0x0000
    43ede3f8:	a8df 10d9 0000      	.insn	6, 0x10d9a8df
    43ede3fe:	0000                	.insn	2, 0x0000
    43ede400:	acdf 10d9 0000      	.insn	6, 0x10d9acdf
    43ede406:	0000                	.insn	2, 0x0000
    43ede408:	b0df 10d9 0000      	.insn	6, 0x10d9b0df
    43ede40e:	0000                	.insn	2, 0x0000
    43ede410:	b4df 10d9 0000      	.insn	6, 0x10d9b4df
    43ede416:	0000                	.insn	2, 0x0000
    43ede418:	b8df 10d9 0000      	.insn	6, 0x10d9b8df
    43ede41e:	0000                	.insn	2, 0x0000
    43ede420:	bcdf 10d9 0000      	.insn	6, 0x10d9bcdf
    43ede426:	0000                	.insn	2, 0x0000
    43ede428:	c0df 10d9 0000      	.insn	6, 0x10d9c0df
    43ede42e:	0000                	.insn	2, 0x0000
    43ede430:	c4df 10d9 0000      	.insn	6, 0x10d9c4df
    43ede436:	0000                	.insn	2, 0x0000
    43ede438:	c8df 10d9 0000      	.insn	6, 0x10d9c8df
    43ede43e:	0000                	.insn	2, 0x0000
    43ede440:	ccdf 10d9 0000      	.insn	6, 0x10d9ccdf
    43ede446:	0000                	.insn	2, 0x0000
    43ede448:	d0df 10d9 0000      	.insn	6, 0x10d9d0df
    43ede44e:	0000                	.insn	2, 0x0000
    43ede450:	d4df 10d9 0000      	.insn	6, 0x10d9d4df
    43ede456:	0000                	.insn	2, 0x0000
    43ede458:	d8df 10d9 0000      	.insn	6, 0x10d9d8df
    43ede45e:	0000                	.insn	2, 0x0000
    43ede460:	dcdf 10d9 0000      	.insn	6, 0x10d9dcdf
    43ede466:	0000                	.insn	2, 0x0000
    43ede468:	e0df 10d9 0000      	.insn	6, 0x10d9e0df
    43ede46e:	0000                	.insn	2, 0x0000
    43ede470:	e4df 10d9 0000      	.insn	6, 0x10d9e4df
    43ede476:	0000                	.insn	2, 0x0000
    43ede478:	e8df 10d9 0000      	.insn	6, 0x10d9e8df
    43ede47e:	0000                	.insn	2, 0x0000
    43ede480:	ecdf 10d9 0000      	.insn	6, 0x10d9ecdf
    43ede486:	0000                	.insn	2, 0x0000
    43ede488:	f0df 10d9 0000      	.insn	6, 0x10d9f0df
    43ede48e:	0000                	.insn	2, 0x0000
    43ede490:	f4df 10d9 0000      	.insn	6, 0x10d9f4df
    43ede496:	0000                	.insn	2, 0x0000
    43ede498:	f8df 10d9 0000      	.insn	6, 0x10d9f8df
    43ede49e:	0000                	.insn	2, 0x0000
    43ede4a0:	fcdf 10d9 0000      	.insn	6, 0x10d9fcdf
    43ede4a6:	0000                	.insn	2, 0x0000
    43ede4a8:	10da00cf          	fnmadd.s	f1,f20,f13,f2,rne
    43ede4ac:	0000                	.insn	2, 0x0000
    43ede4ae:	0000                	.insn	2, 0x0000
    43ede4b0:	10da04cf          	fnmadd.s	f9,f20,f13,f2,rne
    43ede4b4:	0000                	.insn	2, 0x0000
    43ede4b6:	0000                	.insn	2, 0x0000
    43ede4b8:	10da08cf          	fnmadd.s	f17,f20,f13,f2,rne
    43ede4bc:	0000                	.insn	2, 0x0000
    43ede4be:	0000                	.insn	2, 0x0000
    43ede4c0:	10da0ccf          	fnmadd.s	f25,f20,f13,f2,rne
    43ede4c4:	0000                	.insn	2, 0x0000
    43ede4c6:	0000                	.insn	2, 0x0000
    43ede4c8:	10da10cf          	fnmadd.s	f1,f20,f13,f2,rtz
    43ede4cc:	0000                	.insn	2, 0x0000
    43ede4ce:	0000                	.insn	2, 0x0000
    43ede4d0:	10da14cf          	fnmadd.s	f9,f20,f13,f2,rtz
    43ede4d4:	0000                	.insn	2, 0x0000
    43ede4d6:	0000                	.insn	2, 0x0000
    43ede4d8:	10da18cf          	fnmadd.s	f17,f20,f13,f2,rtz
    43ede4dc:	0000                	.insn	2, 0x0000
    43ede4de:	0000                	.insn	2, 0x0000
    43ede4e0:	10da1ccf          	fnmadd.s	f25,f20,f13,f2,rtz
    43ede4e4:	0000                	.insn	2, 0x0000
    43ede4e6:	0000                	.insn	2, 0x0000
    43ede4e8:	10da20cf          	fnmadd.s	f1,f20,f13,f2,rdn
    43ede4ec:	0000                	.insn	2, 0x0000
    43ede4ee:	0000                	.insn	2, 0x0000
    43ede4f0:	10da24cf          	fnmadd.s	f9,f20,f13,f2,rdn
    43ede4f4:	0000                	.insn	2, 0x0000
    43ede4f6:	0000                	.insn	2, 0x0000
    43ede4f8:	10da28cf          	fnmadd.s	f17,f20,f13,f2,rdn
    43ede4fc:	0000                	.insn	2, 0x0000
    43ede4fe:	0000                	.insn	2, 0x0000
    43ede500:	10da2ccf          	fnmadd.s	f25,f20,f13,f2,rdn
    43ede504:	0000                	.insn	2, 0x0000
    43ede506:	0000                	.insn	2, 0x0000
    43ede508:	10da30cf          	fnmadd.s	f1,f20,f13,f2,rup
    43ede50c:	0000                	.insn	2, 0x0000
    43ede50e:	0000                	.insn	2, 0x0000
    43ede510:	10da34cf          	fnmadd.s	f9,f20,f13,f2,rup
    43ede514:	0000                	.insn	2, 0x0000
    43ede516:	0000                	.insn	2, 0x0000
    43ede518:	10da38cf          	fnmadd.s	f17,f20,f13,f2,rup
    43ede51c:	0000                	.insn	2, 0x0000
    43ede51e:	0000                	.insn	2, 0x0000
    43ede520:	10da3ccf          	fnmadd.s	f25,f20,f13,f2,rup
    43ede524:	0000                	.insn	2, 0x0000
    43ede526:	0000                	.insn	2, 0x0000
    43ede528:	10da40cf          	fnmadd.s	f1,f20,f13,f2,rmm
    43ede52c:	0000                	.insn	2, 0x0000
    43ede52e:	0000                	.insn	2, 0x0000
    43ede530:	10da44cf          	fnmadd.s	f9,f20,f13,f2,rmm
    43ede534:	0000                	.insn	2, 0x0000
    43ede536:	0000                	.insn	2, 0x0000
    43ede538:	10da48cf          	fnmadd.s	f17,f20,f13,f2,rmm
    43ede53c:	0000                	.insn	2, 0x0000
    43ede53e:	0000                	.insn	2, 0x0000
    43ede540:	10da4ccf          	fnmadd.s	f25,f20,f13,f2,rmm
    43ede544:	0000                	.insn	2, 0x0000
    43ede546:	0000                	.insn	2, 0x0000
    43ede548:	10da50cf          	fnmadd.s	f1,f20,f13,f2,unknown
    43ede54c:	0000                	.insn	2, 0x0000
    43ede54e:	0000                	.insn	2, 0x0000
    43ede550:	10da54cf          	fnmadd.s	f9,f20,f13,f2,unknown
    43ede554:	0000                	.insn	2, 0x0000
    43ede556:	0000                	.insn	2, 0x0000
    43ede558:	10da58cf          	fnmadd.s	f17,f20,f13,f2,unknown
    43ede55c:	0000                	.insn	2, 0x0000
    43ede55e:	0000                	.insn	2, 0x0000
    43ede560:	10da5ccf          	fnmadd.s	f25,f20,f13,f2,unknown
    43ede564:	0000                	.insn	2, 0x0000
    43ede566:	0000                	.insn	2, 0x0000
    43ede568:	10da60cf          	fnmadd.s	f1,f20,f13,f2,unknown
    43ede56c:	0000                	.insn	2, 0x0000
    43ede56e:	0000                	.insn	2, 0x0000
    43ede570:	10da64cf          	fnmadd.s	f9,f20,f13,f2,unknown
    43ede574:	0000                	.insn	2, 0x0000
    43ede576:	0000                	.insn	2, 0x0000
    43ede578:	10da68cf          	fnmadd.s	f17,f20,f13,f2,unknown
    43ede57c:	0000                	.insn	2, 0x0000
    43ede57e:	0000                	.insn	2, 0x0000
    43ede580:	10da6ccf          	fnmadd.s	f25,f20,f13,f2,unknown
    43ede584:	0000                	.insn	2, 0x0000
    43ede586:	0000                	.insn	2, 0x0000
    43ede588:	10da70cf          	fnmadd.s	f1,f20,f13,f2
    43ede58c:	0000                	.insn	2, 0x0000
    43ede58e:	0000                	.insn	2, 0x0000
    43ede590:	10da74cf          	fnmadd.s	f9,f20,f13,f2
    43ede594:	0000                	.insn	2, 0x0000
    43ede596:	0000                	.insn	2, 0x0000
    43ede598:	10da78cf          	fnmadd.s	f17,f20,f13,f2
    43ede59c:	0000                	.insn	2, 0x0000
    43ede59e:	0000                	.insn	2, 0x0000
    43ede5a0:	10da7ccf          	fnmadd.s	f25,f20,f13,f2
    43ede5a4:	0000                	.insn	2, 0x0000
    43ede5a6:	0000                	.insn	2, 0x0000
    43ede5a8:	10da80cf          	fnmadd.s	f1,f21,f13,f2,rne
    43ede5ac:	0000                	.insn	2, 0x0000
    43ede5ae:	0000                	.insn	2, 0x0000
    43ede5b0:	10da84cf          	fnmadd.s	f9,f21,f13,f2,rne
    43ede5b4:	0000                	.insn	2, 0x0000
    43ede5b6:	0000                	.insn	2, 0x0000
    43ede5b8:	10da88cf          	fnmadd.s	f17,f21,f13,f2,rne
    43ede5bc:	0000                	.insn	2, 0x0000
    43ede5be:	0000                	.insn	2, 0x0000
    43ede5c0:	10da8ccf          	fnmadd.s	f25,f21,f13,f2,rne
    43ede5c4:	0000                	.insn	2, 0x0000
    43ede5c6:	0000                	.insn	2, 0x0000
    43ede5c8:	10da90cf          	fnmadd.s	f1,f21,f13,f2,rtz
    43ede5cc:	0000                	.insn	2, 0x0000
    43ede5ce:	0000                	.insn	2, 0x0000
    43ede5d0:	10da94cf          	fnmadd.s	f9,f21,f13,f2,rtz
    43ede5d4:	0000                	.insn	2, 0x0000
    43ede5d6:	0000                	.insn	2, 0x0000
    43ede5d8:	10da98cf          	fnmadd.s	f17,f21,f13,f2,rtz
    43ede5dc:	0000                	.insn	2, 0x0000
    43ede5de:	0000                	.insn	2, 0x0000
    43ede5e0:	10da9ccf          	fnmadd.s	f25,f21,f13,f2,rtz
    43ede5e4:	0000                	.insn	2, 0x0000
    43ede5e6:	0000                	.insn	2, 0x0000
    43ede5e8:	10daa0cf          	fnmadd.s	f1,f21,f13,f2,rdn
    43ede5ec:	0000                	.insn	2, 0x0000
    43ede5ee:	0000                	.insn	2, 0x0000
    43ede5f0:	10daa4cf          	fnmadd.s	f9,f21,f13,f2,rdn
    43ede5f4:	0000                	.insn	2, 0x0000
    43ede5f6:	0000                	.insn	2, 0x0000
    43ede5f8:	10daa8cf          	fnmadd.s	f17,f21,f13,f2,rdn
    43ede5fc:	0000                	.insn	2, 0x0000
    43ede5fe:	0000                	.insn	2, 0x0000
    43ede600:	10daaccf          	fnmadd.s	f25,f21,f13,f2,rdn
    43ede604:	0000                	.insn	2, 0x0000
    43ede606:	0000                	.insn	2, 0x0000
    43ede608:	10dab0cf          	fnmadd.s	f1,f21,f13,f2,rup
    43ede60c:	0000                	.insn	2, 0x0000
    43ede60e:	0000                	.insn	2, 0x0000
    43ede610:	10dab4cf          	fnmadd.s	f9,f21,f13,f2,rup
    43ede614:	0000                	.insn	2, 0x0000
    43ede616:	0000                	.insn	2, 0x0000
    43ede618:	10dab8cf          	fnmadd.s	f17,f21,f13,f2,rup
    43ede61c:	0000                	.insn	2, 0x0000
    43ede61e:	0000                	.insn	2, 0x0000
    43ede620:	10dabccf          	fnmadd.s	f25,f21,f13,f2,rup
    43ede624:	0000                	.insn	2, 0x0000
    43ede626:	0000                	.insn	2, 0x0000
    43ede628:	10dac0cf          	fnmadd.s	f1,f21,f13,f2,rmm
    43ede62c:	0000                	.insn	2, 0x0000
    43ede62e:	0000                	.insn	2, 0x0000
    43ede630:	10dac4cf          	fnmadd.s	f9,f21,f13,f2,rmm
    43ede634:	0000                	.insn	2, 0x0000
    43ede636:	0000                	.insn	2, 0x0000
    43ede638:	10dac8cf          	fnmadd.s	f17,f21,f13,f2,rmm
    43ede63c:	0000                	.insn	2, 0x0000
    43ede63e:	0000                	.insn	2, 0x0000
    43ede640:	10dacccf          	fnmadd.s	f25,f21,f13,f2,rmm
    43ede644:	0000                	.insn	2, 0x0000
    43ede646:	0000                	.insn	2, 0x0000
    43ede648:	10dad0cf          	fnmadd.s	f1,f21,f13,f2,unknown
    43ede64c:	0000                	.insn	2, 0x0000
    43ede64e:	0000                	.insn	2, 0x0000
    43ede650:	10dad4cf          	fnmadd.s	f9,f21,f13,f2,unknown
    43ede654:	0000                	.insn	2, 0x0000
    43ede656:	0000                	.insn	2, 0x0000
    43ede658:	10dad8cf          	fnmadd.s	f17,f21,f13,f2,unknown
    43ede65c:	0000                	.insn	2, 0x0000
    43ede65e:	0000                	.insn	2, 0x0000
    43ede660:	10dadccf          	fnmadd.s	f25,f21,f13,f2,unknown
    43ede664:	0000                	.insn	2, 0x0000
    43ede666:	0000                	.insn	2, 0x0000
    43ede668:	10dae0cf          	fnmadd.s	f1,f21,f13,f2,unknown
    43ede66c:	0000                	.insn	2, 0x0000
    43ede66e:	0000                	.insn	2, 0x0000
    43ede670:	10dae4cf          	fnmadd.s	f9,f21,f13,f2,unknown
    43ede674:	0000                	.insn	2, 0x0000
    43ede676:	0000                	.insn	2, 0x0000
    43ede678:	10dae8cf          	fnmadd.s	f17,f21,f13,f2,unknown
    43ede67c:	0000                	.insn	2, 0x0000
    43ede67e:	0000                	.insn	2, 0x0000
    43ede680:	10daeccf          	fnmadd.s	f25,f21,f13,f2,unknown
    43ede684:	0000                	.insn	2, 0x0000
    43ede686:	0000                	.insn	2, 0x0000
    43ede688:	10daf0cf          	fnmadd.s	f1,f21,f13,f2
    43ede68c:	0000                	.insn	2, 0x0000
    43ede68e:	0000                	.insn	2, 0x0000
    43ede690:	10daf4cf          	fnmadd.s	f9,f21,f13,f2
    43ede694:	0000                	.insn	2, 0x0000
    43ede696:	0000                	.insn	2, 0x0000
    43ede698:	10daf8cf          	fnmadd.s	f17,f21,f13,f2
    43ede69c:	0000                	.insn	2, 0x0000
    43ede69e:	0000                	.insn	2, 0x0000
    43ede6a0:	10dafccf          	fnmadd.s	f25,f21,f13,f2
    43ede6a4:	0000                	.insn	2, 0x0000
    43ede6a6:	0000                	.insn	2, 0x0000
    43ede6a8:	10db00cf          	fnmadd.s	f1,f22,f13,f2,rne
    43ede6ac:	0000                	.insn	2, 0x0000
    43ede6ae:	0000                	.insn	2, 0x0000
    43ede6b0:	10db04cf          	fnmadd.s	f9,f22,f13,f2,rne
    43ede6b4:	0000                	.insn	2, 0x0000
    43ede6b6:	0000                	.insn	2, 0x0000
    43ede6b8:	10db08cf          	fnmadd.s	f17,f22,f13,f2,rne
    43ede6bc:	0000                	.insn	2, 0x0000
    43ede6be:	0000                	.insn	2, 0x0000
    43ede6c0:	10db0ccf          	fnmadd.s	f25,f22,f13,f2,rne
    43ede6c4:	0000                	.insn	2, 0x0000
    43ede6c6:	0000                	.insn	2, 0x0000
    43ede6c8:	10db10cf          	fnmadd.s	f1,f22,f13,f2,rtz
    43ede6cc:	0000                	.insn	2, 0x0000
    43ede6ce:	0000                	.insn	2, 0x0000
    43ede6d0:	10db14cf          	fnmadd.s	f9,f22,f13,f2,rtz
    43ede6d4:	0000                	.insn	2, 0x0000
    43ede6d6:	0000                	.insn	2, 0x0000
    43ede6d8:	10db18cf          	fnmadd.s	f17,f22,f13,f2,rtz
    43ede6dc:	0000                	.insn	2, 0x0000
    43ede6de:	0000                	.insn	2, 0x0000
    43ede6e0:	10db1ccf          	fnmadd.s	f25,f22,f13,f2,rtz
    43ede6e4:	0000                	.insn	2, 0x0000
    43ede6e6:	0000                	.insn	2, 0x0000
    43ede6e8:	10db20cf          	fnmadd.s	f1,f22,f13,f2,rdn
    43ede6ec:	0000                	.insn	2, 0x0000
    43ede6ee:	0000                	.insn	2, 0x0000
    43ede6f0:	10db24cf          	fnmadd.s	f9,f22,f13,f2,rdn
    43ede6f4:	0000                	.insn	2, 0x0000
    43ede6f6:	0000                	.insn	2, 0x0000
    43ede6f8:	10db28cf          	fnmadd.s	f17,f22,f13,f2,rdn
    43ede6fc:	0000                	.insn	2, 0x0000
    43ede6fe:	0000                	.insn	2, 0x0000
    43ede700:	10db2ccf          	fnmadd.s	f25,f22,f13,f2,rdn
    43ede704:	0000                	.insn	2, 0x0000
    43ede706:	0000                	.insn	2, 0x0000
    43ede708:	10db30cf          	fnmadd.s	f1,f22,f13,f2,rup
    43ede70c:	0000                	.insn	2, 0x0000
    43ede70e:	0000                	.insn	2, 0x0000
    43ede710:	10db34cf          	fnmadd.s	f9,f22,f13,f2,rup
    43ede714:	0000                	.insn	2, 0x0000
    43ede716:	0000                	.insn	2, 0x0000
    43ede718:	10db38cf          	fnmadd.s	f17,f22,f13,f2,rup
    43ede71c:	0000                	.insn	2, 0x0000
    43ede71e:	0000                	.insn	2, 0x0000
    43ede720:	10db3ccf          	fnmadd.s	f25,f22,f13,f2,rup
    43ede724:	0000                	.insn	2, 0x0000
    43ede726:	0000                	.insn	2, 0x0000
    43ede728:	10db40cf          	fnmadd.s	f1,f22,f13,f2,rmm
    43ede72c:	0000                	.insn	2, 0x0000
    43ede72e:	0000                	.insn	2, 0x0000
    43ede730:	10db44cf          	fnmadd.s	f9,f22,f13,f2,rmm
    43ede734:	0000                	.insn	2, 0x0000
    43ede736:	0000                	.insn	2, 0x0000
    43ede738:	10db48cf          	fnmadd.s	f17,f22,f13,f2,rmm
    43ede73c:	0000                	.insn	2, 0x0000
    43ede73e:	0000                	.insn	2, 0x0000
    43ede740:	10db4ccf          	fnmadd.s	f25,f22,f13,f2,rmm
    43ede744:	0000                	.insn	2, 0x0000
    43ede746:	0000                	.insn	2, 0x0000
    43ede748:	10db50cf          	fnmadd.s	f1,f22,f13,f2,unknown
    43ede74c:	0000                	.insn	2, 0x0000
    43ede74e:	0000                	.insn	2, 0x0000
    43ede750:	10db54cf          	fnmadd.s	f9,f22,f13,f2,unknown
    43ede754:	0000                	.insn	2, 0x0000
    43ede756:	0000                	.insn	2, 0x0000
    43ede758:	10db58cf          	fnmadd.s	f17,f22,f13,f2,unknown
    43ede75c:	0000                	.insn	2, 0x0000
    43ede75e:	0000                	.insn	2, 0x0000
    43ede760:	10db5ccf          	fnmadd.s	f25,f22,f13,f2,unknown
    43ede764:	0000                	.insn	2, 0x0000
    43ede766:	0000                	.insn	2, 0x0000
    43ede768:	10db60cf          	fnmadd.s	f1,f22,f13,f2,unknown
    43ede76c:	0000                	.insn	2, 0x0000
    43ede76e:	0000                	.insn	2, 0x0000
    43ede770:	10db64cf          	fnmadd.s	f9,f22,f13,f2,unknown
    43ede774:	0000                	.insn	2, 0x0000
    43ede776:	0000                	.insn	2, 0x0000
    43ede778:	10db68cf          	fnmadd.s	f17,f22,f13,f2,unknown
    43ede77c:	0000                	.insn	2, 0x0000
    43ede77e:	0000                	.insn	2, 0x0000
    43ede780:	10db6ccf          	fnmadd.s	f25,f22,f13,f2,unknown
    43ede784:	0000                	.insn	2, 0x0000
    43ede786:	0000                	.insn	2, 0x0000
    43ede788:	10db70cf          	fnmadd.s	f1,f22,f13,f2
    43ede78c:	0000                	.insn	2, 0x0000
    43ede78e:	0000                	.insn	2, 0x0000
    43ede790:	10db74cf          	fnmadd.s	f9,f22,f13,f2
    43ede794:	0000                	.insn	2, 0x0000
    43ede796:	0000                	.insn	2, 0x0000
    43ede798:	10db78cf          	fnmadd.s	f17,f22,f13,f2
    43ede79c:	0000                	.insn	2, 0x0000
    43ede79e:	0000                	.insn	2, 0x0000
    43ede7a0:	10db7ccf          	fnmadd.s	f25,f22,f13,f2
    43ede7a4:	0000                	.insn	2, 0x0000
    43ede7a6:	0000                	.insn	2, 0x0000
    43ede7a8:	10db80cf          	fnmadd.s	f1,f23,f13,f2,rne
    43ede7ac:	0000                	.insn	2, 0x0000
    43ede7ae:	0000                	.insn	2, 0x0000
    43ede7b0:	10db84cf          	fnmadd.s	f9,f23,f13,f2,rne
    43ede7b4:	0000                	.insn	2, 0x0000
    43ede7b6:	0000                	.insn	2, 0x0000
    43ede7b8:	10db88cf          	fnmadd.s	f17,f23,f13,f2,rne
    43ede7bc:	0000                	.insn	2, 0x0000
    43ede7be:	0000                	.insn	2, 0x0000
    43ede7c0:	10db8ccf          	fnmadd.s	f25,f23,f13,f2,rne
    43ede7c4:	0000                	.insn	2, 0x0000
    43ede7c6:	0000                	.insn	2, 0x0000
    43ede7c8:	10db90cf          	fnmadd.s	f1,f23,f13,f2,rtz
    43ede7cc:	0000                	.insn	2, 0x0000
    43ede7ce:	0000                	.insn	2, 0x0000
    43ede7d0:	10db94cf          	fnmadd.s	f9,f23,f13,f2,rtz
    43ede7d4:	0000                	.insn	2, 0x0000
    43ede7d6:	0000                	.insn	2, 0x0000
    43ede7d8:	10db98cf          	fnmadd.s	f17,f23,f13,f2,rtz
    43ede7dc:	0000                	.insn	2, 0x0000
    43ede7de:	0000                	.insn	2, 0x0000
    43ede7e0:	10db9ccf          	fnmadd.s	f25,f23,f13,f2,rtz
    43ede7e4:	0000                	.insn	2, 0x0000
    43ede7e6:	0000                	.insn	2, 0x0000
    43ede7e8:	10dba0cf          	fnmadd.s	f1,f23,f13,f2,rdn
    43ede7ec:	0000                	.insn	2, 0x0000
    43ede7ee:	0000                	.insn	2, 0x0000
    43ede7f0:	10dba4cf          	fnmadd.s	f9,f23,f13,f2,rdn
    43ede7f4:	0000                	.insn	2, 0x0000
    43ede7f6:	0000                	.insn	2, 0x0000
    43ede7f8:	10dba8cf          	fnmadd.s	f17,f23,f13,f2,rdn
    43ede7fc:	0000                	.insn	2, 0x0000
    43ede7fe:	0000                	.insn	2, 0x0000
    43ede800:	10dbaccf          	fnmadd.s	f25,f23,f13,f2,rdn
    43ede804:	0000                	.insn	2, 0x0000
    43ede806:	0000                	.insn	2, 0x0000
    43ede808:	10dbb0cf          	fnmadd.s	f1,f23,f13,f2,rup
    43ede80c:	0000                	.insn	2, 0x0000
    43ede80e:	0000                	.insn	2, 0x0000
    43ede810:	10dbb4cf          	fnmadd.s	f9,f23,f13,f2,rup
    43ede814:	0000                	.insn	2, 0x0000
    43ede816:	0000                	.insn	2, 0x0000
    43ede818:	10dbb8cf          	fnmadd.s	f17,f23,f13,f2,rup
    43ede81c:	0000                	.insn	2, 0x0000
    43ede81e:	0000                	.insn	2, 0x0000
    43ede820:	10dbbccf          	fnmadd.s	f25,f23,f13,f2,rup
    43ede824:	0000                	.insn	2, 0x0000
    43ede826:	0000                	.insn	2, 0x0000
    43ede828:	10dbc0cf          	fnmadd.s	f1,f23,f13,f2,rmm
    43ede82c:	0000                	.insn	2, 0x0000
    43ede82e:	0000                	.insn	2, 0x0000
    43ede830:	10dbc4cf          	fnmadd.s	f9,f23,f13,f2,rmm
    43ede834:	0000                	.insn	2, 0x0000
    43ede836:	0000                	.insn	2, 0x0000
    43ede838:	10dbc8cf          	fnmadd.s	f17,f23,f13,f2,rmm
    43ede83c:	0000                	.insn	2, 0x0000
    43ede83e:	0000                	.insn	2, 0x0000
    43ede840:	10dbcccf          	fnmadd.s	f25,f23,f13,f2,rmm
    43ede844:	0000                	.insn	2, 0x0000
    43ede846:	0000                	.insn	2, 0x0000
    43ede848:	10dbd0cf          	fnmadd.s	f1,f23,f13,f2,unknown
    43ede84c:	0000                	.insn	2, 0x0000
    43ede84e:	0000                	.insn	2, 0x0000
    43ede850:	10dbd4cf          	fnmadd.s	f9,f23,f13,f2,unknown
    43ede854:	0000                	.insn	2, 0x0000
    43ede856:	0000                	.insn	2, 0x0000
    43ede858:	10dbd8cf          	fnmadd.s	f17,f23,f13,f2,unknown
    43ede85c:	0000                	.insn	2, 0x0000
    43ede85e:	0000                	.insn	2, 0x0000
    43ede860:	10dbdccf          	fnmadd.s	f25,f23,f13,f2,unknown
    43ede864:	0000                	.insn	2, 0x0000
    43ede866:	0000                	.insn	2, 0x0000
    43ede868:	10dbe0cf          	fnmadd.s	f1,f23,f13,f2,unknown
    43ede86c:	0000                	.insn	2, 0x0000
    43ede86e:	0000                	.insn	2, 0x0000
    43ede870:	10dbe4cf          	fnmadd.s	f9,f23,f13,f2,unknown
    43ede874:	0000                	.insn	2, 0x0000
    43ede876:	0000                	.insn	2, 0x0000
    43ede878:	10dbe8cf          	fnmadd.s	f17,f23,f13,f2,unknown
    43ede87c:	0000                	.insn	2, 0x0000
    43ede87e:	0000                	.insn	2, 0x0000
    43ede880:	10dbeccf          	fnmadd.s	f25,f23,f13,f2,unknown
    43ede884:	0000                	.insn	2, 0x0000
    43ede886:	0000                	.insn	2, 0x0000
    43ede888:	10dbf0cf          	fnmadd.s	f1,f23,f13,f2
    43ede88c:	0000                	.insn	2, 0x0000
    43ede88e:	0000                	.insn	2, 0x0000
    43ede890:	10dbf4cf          	fnmadd.s	f9,f23,f13,f2
    43ede894:	0000                	.insn	2, 0x0000
    43ede896:	0000                	.insn	2, 0x0000
    43ede898:	10dbf8cf          	fnmadd.s	f17,f23,f13,f2
    43ede89c:	0000                	.insn	2, 0x0000
    43ede89e:	0000                	.insn	2, 0x0000
    43ede8a0:	10dbfccf          	fnmadd.s	f25,f23,f13,f2
    43ede8a4:	0000                	.insn	2, 0x0000
    43ede8a6:	0000                	.insn	2, 0x0000
    43ede8a8:	00df 10dc 0000      	.insn	6, 0x10dc00df
    43ede8ae:	0000                	.insn	2, 0x0000
    43ede8b0:	04df 10dc 0000      	.insn	6, 0x10dc04df
    43ede8b6:	0000                	.insn	2, 0x0000
    43ede8b8:	08df 10dc 0000      	.insn	6, 0x10dc08df
    43ede8be:	0000                	.insn	2, 0x0000
    43ede8c0:	0cdf 10dc 0000      	.insn	6, 0x10dc0cdf
    43ede8c6:	0000                	.insn	2, 0x0000
    43ede8c8:	10df 10dc 0000      	.insn	6, 0x10dc10df
    43ede8ce:	0000                	.insn	2, 0x0000
    43ede8d0:	14df 10dc 0000      	.insn	6, 0x10dc14df
    43ede8d6:	0000                	.insn	2, 0x0000
    43ede8d8:	18df 10dc 0000      	.insn	6, 0x10dc18df
    43ede8de:	0000                	.insn	2, 0x0000
    43ede8e0:	1cdf 10dc 0000      	.insn	6, 0x10dc1cdf
    43ede8e6:	0000                	.insn	2, 0x0000
    43ede8e8:	20df 10dc 0000      	.insn	6, 0x10dc20df
    43ede8ee:	0000                	.insn	2, 0x0000
    43ede8f0:	24df 10dc 0000      	.insn	6, 0x10dc24df
    43ede8f6:	0000                	.insn	2, 0x0000
    43ede8f8:	28df 10dc 0000      	.insn	6, 0x10dc28df
    43ede8fe:	0000                	.insn	2, 0x0000
    43ede900:	2cdf 10dc 0000      	.insn	6, 0x10dc2cdf
    43ede906:	0000                	.insn	2, 0x0000
    43ede908:	30df 10dc 0000      	.insn	6, 0x10dc30df
    43ede90e:	0000                	.insn	2, 0x0000
    43ede910:	34df 10dc 0000      	.insn	6, 0x10dc34df
    43ede916:	0000                	.insn	2, 0x0000
    43ede918:	38df 10dc 0000      	.insn	6, 0x10dc38df
    43ede91e:	0000                	.insn	2, 0x0000
    43ede920:	3cdf 10dc 0000      	.insn	6, 0x10dc3cdf
    43ede926:	0000                	.insn	2, 0x0000
    43ede928:	40df 10dc 0000      	.insn	6, 0x10dc40df
    43ede92e:	0000                	.insn	2, 0x0000
    43ede930:	44df 10dc 0000      	.insn	6, 0x10dc44df
    43ede936:	0000                	.insn	2, 0x0000
    43ede938:	48df 10dc 0000      	.insn	6, 0x10dc48df
    43ede93e:	0000                	.insn	2, 0x0000
    43ede940:	4cdf 10dc 0000      	.insn	6, 0x10dc4cdf
    43ede946:	0000                	.insn	2, 0x0000
    43ede948:	50df 10dc 0000      	.insn	6, 0x10dc50df
    43ede94e:	0000                	.insn	2, 0x0000
    43ede950:	54df 10dc 0000      	.insn	6, 0x10dc54df
    43ede956:	0000                	.insn	2, 0x0000
    43ede958:	58df 10dc 0000      	.insn	6, 0x10dc58df
    43ede95e:	0000                	.insn	2, 0x0000
    43ede960:	5cdf 10dc 0000      	.insn	6, 0x10dc5cdf
    43ede966:	0000                	.insn	2, 0x0000
    43ede968:	60df 10dc 0000      	.insn	6, 0x10dc60df
    43ede96e:	0000                	.insn	2, 0x0000
    43ede970:	64df 10dc 0000      	.insn	6, 0x10dc64df
    43ede976:	0000                	.insn	2, 0x0000
    43ede978:	68df 10dc 0000      	.insn	6, 0x10dc68df
    43ede97e:	0000                	.insn	2, 0x0000
    43ede980:	6cdf 10dc 0000      	.insn	6, 0x10dc6cdf
    43ede986:	0000                	.insn	2, 0x0000
    43ede988:	70df 10dc 0000      	.insn	6, 0x10dc70df
    43ede98e:	0000                	.insn	2, 0x0000
    43ede990:	74df 10dc 0000      	.insn	6, 0x10dc74df
    43ede996:	0000                	.insn	2, 0x0000
    43ede998:	78df 10dc 0000      	.insn	6, 0x10dc78df
    43ede99e:	0000                	.insn	2, 0x0000
    43ede9a0:	7cdf 10dc 0000      	.insn	6, 0x10dc7cdf
    43ede9a6:	0000                	.insn	2, 0x0000
    43ede9a8:	80df 10dc 0000      	.insn	6, 0x10dc80df
    43ede9ae:	0000                	.insn	2, 0x0000
    43ede9b0:	84df 10dc 0000      	.insn	6, 0x10dc84df
    43ede9b6:	0000                	.insn	2, 0x0000
    43ede9b8:	88df 10dc 0000      	.insn	6, 0x10dc88df
    43ede9be:	0000                	.insn	2, 0x0000
    43ede9c0:	8cdf 10dc 0000      	.insn	6, 0x10dc8cdf
    43ede9c6:	0000                	.insn	2, 0x0000
    43ede9c8:	90df 10dc 0000      	.insn	6, 0x10dc90df
    43ede9ce:	0000                	.insn	2, 0x0000
    43ede9d0:	94df 10dc 0000      	.insn	6, 0x10dc94df
    43ede9d6:	0000                	.insn	2, 0x0000
    43ede9d8:	98df 10dc 0000      	.insn	6, 0x10dc98df
    43ede9de:	0000                	.insn	2, 0x0000
    43ede9e0:	9cdf 10dc 0000      	.insn	6, 0x10dc9cdf
    43ede9e6:	0000                	.insn	2, 0x0000
    43ede9e8:	a0df 10dc 0000      	.insn	6, 0x10dca0df
    43ede9ee:	0000                	.insn	2, 0x0000
    43ede9f0:	a4df 10dc 0000      	.insn	6, 0x10dca4df
    43ede9f6:	0000                	.insn	2, 0x0000
    43ede9f8:	a8df 10dc 0000      	.insn	6, 0x10dca8df
    43ede9fe:	0000                	.insn	2, 0x0000
    43edea00:	acdf 10dc 0000      	.insn	6, 0x10dcacdf
    43edea06:	0000                	.insn	2, 0x0000
    43edea08:	b0df 10dc 0000      	.insn	6, 0x10dcb0df
    43edea0e:	0000                	.insn	2, 0x0000
    43edea10:	b4df 10dc 0000      	.insn	6, 0x10dcb4df
    43edea16:	0000                	.insn	2, 0x0000
    43edea18:	b8df 10dc 0000      	.insn	6, 0x10dcb8df
    43edea1e:	0000                	.insn	2, 0x0000
    43edea20:	bcdf 10dc 0000      	.insn	6, 0x10dcbcdf
    43edea26:	0000                	.insn	2, 0x0000
    43edea28:	c0df 10dc 0000      	.insn	6, 0x10dcc0df
    43edea2e:	0000                	.insn	2, 0x0000
    43edea30:	c4df 10dc 0000      	.insn	6, 0x10dcc4df
    43edea36:	0000                	.insn	2, 0x0000
    43edea38:	c8df 10dc 0000      	.insn	6, 0x10dcc8df
    43edea3e:	0000                	.insn	2, 0x0000
    43edea40:	ccdf 10dc 0000      	.insn	6, 0x10dcccdf
    43edea46:	0000                	.insn	2, 0x0000
    43edea48:	d0df 10dc 0000      	.insn	6, 0x10dcd0df
    43edea4e:	0000                	.insn	2, 0x0000
    43edea50:	d4df 10dc 0000      	.insn	6, 0x10dcd4df
    43edea56:	0000                	.insn	2, 0x0000
    43edea58:	d8df 10dc 0000      	.insn	6, 0x10dcd8df
    43edea5e:	0000                	.insn	2, 0x0000
    43edea60:	dcdf 10dc 0000      	.insn	6, 0x10dcdcdf
    43edea66:	0000                	.insn	2, 0x0000
    43edea68:	e0df 10dc 0000      	.insn	6, 0x10dce0df
    43edea6e:	0000                	.insn	2, 0x0000
    43edea70:	e4df 10dc 0000      	.insn	6, 0x10dce4df
    43edea76:	0000                	.insn	2, 0x0000
    43edea78:	e8df 10dc 0000      	.insn	6, 0x10dce8df
    43edea7e:	0000                	.insn	2, 0x0000
    43edea80:	ecdf 10dc 0000      	.insn	6, 0x10dcecdf
    43edea86:	0000                	.insn	2, 0x0000
    43edea88:	f0df 10dc 0000      	.insn	6, 0x10dcf0df
    43edea8e:	0000                	.insn	2, 0x0000
    43edea90:	f4df 10dc 0000      	.insn	6, 0x10dcf4df
    43edea96:	0000                	.insn	2, 0x0000
    43edea98:	f8df 10dc 0000      	.insn	6, 0x10dcf8df
    43edea9e:	0000                	.insn	2, 0x0000
    43edeaa0:	fcdf 10dc 0000      	.insn	6, 0x10dcfcdf
    43edeaa6:	0000                	.insn	2, 0x0000
    43edeaa8:	00df 10dd 0000      	.insn	6, 0x10dd00df
    43edeaae:	0000                	.insn	2, 0x0000
    43edeab0:	04df 10dd 0000      	.insn	6, 0x10dd04df
    43edeab6:	0000                	.insn	2, 0x0000
    43edeab8:	08df 10dd 0000      	.insn	6, 0x10dd08df
    43edeabe:	0000                	.insn	2, 0x0000
    43edeac0:	0cdf 10dd 0000      	.insn	6, 0x10dd0cdf
    43edeac6:	0000                	.insn	2, 0x0000
    43edeac8:	10df 10dd 0000      	.insn	6, 0x10dd10df
    43edeace:	0000                	.insn	2, 0x0000
    43edead0:	14df 10dd 0000      	.insn	6, 0x10dd14df
    43edead6:	0000                	.insn	2, 0x0000
    43edead8:	18df 10dd 0000      	.insn	6, 0x10dd18df
    43edeade:	0000                	.insn	2, 0x0000
    43edeae0:	1cdf 10dd 0000      	.insn	6, 0x10dd1cdf
    43edeae6:	0000                	.insn	2, 0x0000
    43edeae8:	20df 10dd 0000      	.insn	6, 0x10dd20df
    43edeaee:	0000                	.insn	2, 0x0000
    43edeaf0:	24df 10dd 0000      	.insn	6, 0x10dd24df
    43edeaf6:	0000                	.insn	2, 0x0000
    43edeaf8:	28df 10dd 0000      	.insn	6, 0x10dd28df
    43edeafe:	0000                	.insn	2, 0x0000
    43edeb00:	2cdf 10dd 0000      	.insn	6, 0x10dd2cdf
    43edeb06:	0000                	.insn	2, 0x0000
    43edeb08:	30df 10dd 0000      	.insn	6, 0x10dd30df
    43edeb0e:	0000                	.insn	2, 0x0000
    43edeb10:	34df 10dd 0000      	.insn	6, 0x10dd34df
    43edeb16:	0000                	.insn	2, 0x0000
    43edeb18:	38df 10dd 0000      	.insn	6, 0x10dd38df
    43edeb1e:	0000                	.insn	2, 0x0000
    43edeb20:	3cdf 10dd 0000      	.insn	6, 0x10dd3cdf
    43edeb26:	0000                	.insn	2, 0x0000
    43edeb28:	40df 10dd 0000      	.insn	6, 0x10dd40df
    43edeb2e:	0000                	.insn	2, 0x0000
    43edeb30:	44df 10dd 0000      	.insn	6, 0x10dd44df
    43edeb36:	0000                	.insn	2, 0x0000
    43edeb38:	48df 10dd 0000      	.insn	6, 0x10dd48df
    43edeb3e:	0000                	.insn	2, 0x0000
    43edeb40:	4cdf 10dd 0000      	.insn	6, 0x10dd4cdf
    43edeb46:	0000                	.insn	2, 0x0000
    43edeb48:	50df 10dd 0000      	.insn	6, 0x10dd50df
    43edeb4e:	0000                	.insn	2, 0x0000
    43edeb50:	54df 10dd 0000      	.insn	6, 0x10dd54df
    43edeb56:	0000                	.insn	2, 0x0000
    43edeb58:	58df 10dd 0000      	.insn	6, 0x10dd58df
    43edeb5e:	0000                	.insn	2, 0x0000
    43edeb60:	5cdf 10dd 0000      	.insn	6, 0x10dd5cdf
    43edeb66:	0000                	.insn	2, 0x0000
    43edeb68:	60df 10dd 0000      	.insn	6, 0x10dd60df
    43edeb6e:	0000                	.insn	2, 0x0000
    43edeb70:	64df 10dd 0000      	.insn	6, 0x10dd64df
    43edeb76:	0000                	.insn	2, 0x0000
    43edeb78:	68df 10dd 0000      	.insn	6, 0x10dd68df
    43edeb7e:	0000                	.insn	2, 0x0000
    43edeb80:	6cdf 10dd 0000      	.insn	6, 0x10dd6cdf
    43edeb86:	0000                	.insn	2, 0x0000
    43edeb88:	70df 10dd 0000      	.insn	6, 0x10dd70df
    43edeb8e:	0000                	.insn	2, 0x0000
    43edeb90:	74df 10dd 0000      	.insn	6, 0x10dd74df
    43edeb96:	0000                	.insn	2, 0x0000
    43edeb98:	78df 10dd 0000      	.insn	6, 0x10dd78df
    43edeb9e:	0000                	.insn	2, 0x0000
    43edeba0:	7cdf 10dd 0000      	.insn	6, 0x10dd7cdf
    43edeba6:	0000                	.insn	2, 0x0000
    43edeba8:	80df 10dd 0000      	.insn	6, 0x10dd80df
    43edebae:	0000                	.insn	2, 0x0000
    43edebb0:	84df 10dd 0000      	.insn	6, 0x10dd84df
    43edebb6:	0000                	.insn	2, 0x0000
    43edebb8:	88df 10dd 0000      	.insn	6, 0x10dd88df
    43edebbe:	0000                	.insn	2, 0x0000
    43edebc0:	8cdf 10dd 0000      	.insn	6, 0x10dd8cdf
    43edebc6:	0000                	.insn	2, 0x0000
    43edebc8:	90df 10dd 0000      	.insn	6, 0x10dd90df
    43edebce:	0000                	.insn	2, 0x0000
    43edebd0:	94df 10dd 0000      	.insn	6, 0x10dd94df
    43edebd6:	0000                	.insn	2, 0x0000
    43edebd8:	98df 10dd 0000      	.insn	6, 0x10dd98df
    43edebde:	0000                	.insn	2, 0x0000
    43edebe0:	9cdf 10dd 0000      	.insn	6, 0x10dd9cdf
    43edebe6:	0000                	.insn	2, 0x0000
    43edebe8:	a0df 10dd 0000      	.insn	6, 0x10dda0df
    43edebee:	0000                	.insn	2, 0x0000
    43edebf0:	a4df 10dd 0000      	.insn	6, 0x10dda4df
    43edebf6:	0000                	.insn	2, 0x0000
    43edebf8:	a8df 10dd 0000      	.insn	6, 0x10dda8df
    43edebfe:	0000                	.insn	2, 0x0000
    43edec00:	acdf 10dd 0000      	.insn	6, 0x10ddacdf
    43edec06:	0000                	.insn	2, 0x0000
    43edec08:	b0df 10dd 0000      	.insn	6, 0x10ddb0df
    43edec0e:	0000                	.insn	2, 0x0000
    43edec10:	b4df 10dd 0000      	.insn	6, 0x10ddb4df
    43edec16:	0000                	.insn	2, 0x0000
    43edec18:	b8df 10dd 0000      	.insn	6, 0x10ddb8df
    43edec1e:	0000                	.insn	2, 0x0000
    43edec20:	bcdf 10dd 0000      	.insn	6, 0x10ddbcdf
    43edec26:	0000                	.insn	2, 0x0000
    43edec28:	c0df 10dd 0000      	.insn	6, 0x10ddc0df
    43edec2e:	0000                	.insn	2, 0x0000
    43edec30:	c4df 10dd 0000      	.insn	6, 0x10ddc4df
    43edec36:	0000                	.insn	2, 0x0000
    43edec38:	c8df 10dd 0000      	.insn	6, 0x10ddc8df
    43edec3e:	0000                	.insn	2, 0x0000
    43edec40:	ccdf 10dd 0000      	.insn	6, 0x10ddccdf
    43edec46:	0000                	.insn	2, 0x0000
    43edec48:	d0df 10dd 0000      	.insn	6, 0x10ddd0df
    43edec4e:	0000                	.insn	2, 0x0000
    43edec50:	d4df 10dd 0000      	.insn	6, 0x10ddd4df
    43edec56:	0000                	.insn	2, 0x0000
    43edec58:	d8df 10dd 0000      	.insn	6, 0x10ddd8df
    43edec5e:	0000                	.insn	2, 0x0000
    43edec60:	dcdf 10dd 0000      	.insn	6, 0x10dddcdf
    43edec66:	0000                	.insn	2, 0x0000
    43edec68:	e0df 10dd 0000      	.insn	6, 0x10dde0df
    43edec6e:	0000                	.insn	2, 0x0000
    43edec70:	e4df 10dd 0000      	.insn	6, 0x10dde4df
    43edec76:	0000                	.insn	2, 0x0000
    43edec78:	e8df 10dd 0000      	.insn	6, 0x10dde8df
    43edec7e:	0000                	.insn	2, 0x0000
    43edec80:	ecdf 10dd 0000      	.insn	6, 0x10ddecdf
    43edec86:	0000                	.insn	2, 0x0000
    43edec88:	f0df 10dd 0000      	.insn	6, 0x10ddf0df
    43edec8e:	0000                	.insn	2, 0x0000
    43edec90:	f4df 10dd 0000      	.insn	6, 0x10ddf4df
    43edec96:	0000                	.insn	2, 0x0000
    43edec98:	f8df 10dd 0000      	.insn	6, 0x10ddf8df
    43edec9e:	0000                	.insn	2, 0x0000
    43edeca0:	fcdf 10dd 0000      	.insn	6, 0x10ddfcdf
	...

Disassembly of section .__pagetable_map_os_0x000000004297b000:

000000004297b000 <__pagetable_map_os_0x000000004297b000>:
	...
    4297b0b0:	10e004cf          	fnmadd.s	f9,f0,f14,f2,rne
    4297b0b4:	0000                	.insn	2, 0x0000
    4297b0b6:	0000                	.insn	2, 0x0000
    4297b0b8:	90df 10af 0000      	.insn	6, 0x10af90df
	...

Disassembly of section .__pagetable_map_os_0x0000000044fe3000:

0000000044fe3000 <__pagetable_map_os_0x0000000044fe3000>:
	...
    44fe3220:	70df 10c2 0000      	.insn	6, 0x10c270df
	...

Disassembly of section .__pagetable_map_os_0x0000000044fe8000:

0000000044fe8000 <__pagetable_map_os_0x0000000044fe8000>:
	...
    44fe8630:	18df 1113 0000      	.insn	6, 0x111318df
	...

Disassembly of section .__pagetable_map_os_0x0000000043080000:

0000000043080000 <__pagetable_map_os_0x0000000043080000>:
	...
    43080a68:	113fb8d7          	.insn	4, 0x113fb8d7
    43080a6c:	0000                	.insn	2, 0x0000
	...

Disassembly of section .__pagetable_map_os_0x0000000042bd0000:

0000000042bd0000 <__pagetable_map_os_0x0000000042bd0000>:
    42bd0000:	6c01                	.insn	2, 0x6c01
    42bd0002:	1140                	.insn	2, 0x1140
	...
    42bd0018:	0401                	.insn	2, 0x0401
    42bd001a:	00001093          	slli	x1,x0,0x0
	...
    42bd003e:	0000                	.insn	2, 0x0000
    42bd0040:	1401                	.insn	2, 0x1401
    42bd0042:	10c2                	.insn	2, 0x10c2
	...
    42bd01a0:	1c01                	.insn	2, 0x1c01
    42bd01a2:	1140                	.insn	2, 0x1140
	...
    42bd0d78:	e801                	.insn	2, 0xe801
    42bd0d7a:	000010bf 00000000 	.insn	8, 0x10bf
    42bd0d82:	0000                	.insn	2, 0x0000
    42bd0d84:	0000                	.insn	2, 0x0000
    42bd0d86:	0000                	.insn	2, 0x0000
    42bd0d88:	f001                	.insn	2, 0xf001
    42bd0d8a:	0000000010bf 	.6byte	0x0000000010bf

Disassembly of section .__pagetable_map_os_0x0000000043085000:

0000000043085000 <__pagetable_map_os_0x0000000043085000>:
	...
    43085330:	20df 10bb 0000      	.insn	6, 0x10bb20df
    43085336:	0000                	.insn	2, 0x0000
    43085338:	24df 10bb 0000      	.insn	6, 0x10bb24df
	...

Disassembly of section .__pagetable_map_os_0x0000000045007000:

0000000045007000 <__pagetable_map_os_0x0000000045007000>:
	...
    45007e70:	a8df 10a5 0000      	.insn	6, 0x10a5a8df
    45007e76:	0000                	.insn	2, 0x0000
    45007e78:	acdf 10a5 0000      	.insn	6, 0x10a5acdf
	...

Disassembly of section .__pagetable_map_os_0x000000004501b000:

000000004501b000 <__pagetable_map_os_0x000000004501b000>:
	...
    4501b020:	dcdf 10bf 0000      	.insn	6, 0x10bfdcdf
	...
    4501b24e:	0000                	.insn	2, 0x0000
    4501b250:	10df 113f 0000      	.insn	6, 0x113f10df
	...
    4501b8e6:	0000                	.insn	2, 0x0000
    4501b8e8:	b4df 1126 0000      	.insn	6, 0x1126b4df
	...
    4501bee6:	0000                	.insn	2, 0x0000
    4501bee8:	10c08cd7          	vminu.vv	v25,v12,v1,v0.t
	...
    4501bf08:	10b3dcd7          	vfmin.vf	v25,v11,f7,v0.t
    4501bf0c:	0000                	.insn	2, 0x0000
	...

Disassembly of section .__pagetable_map_os_0x0000000042ffa000:

0000000042ffa000 <__pagetable_map_os_0x0000000042ffa000>:
	...
    42ffaff0:	fcdf 10d7 0000      	.insn	6, 0x10d7fcdf
	...

Disassembly of section .__pagetable_map_os_0x00000000424c1000:

00000000424c1000 <__pagetable_map_os_0x00000000424c1000>:
	...
    424c12b8:	1cdf 10c1 0000      	.insn	6, 0x10c11cdf
	...

Disassembly of section .__pagetable_map_os_0x0000000042ffc000:

0000000042ffc000 <__pagetable_map_os_0x0000000042ffc000>:
    42ffc000:	d8df 10b6 0000      	.insn	6, 0x10b6d8df
	...

Disassembly of section .__pagetable_map_os_0x000000004503d000:

000000004503d000 <__pagetable_map_os_0x000000004503d000>:
	...
    4503dae0:	e001                	.insn	2, 0xe001
    4503dae2:	113e                	.insn	2, 0x113e
    4503dae4:	0000                	.insn	2, 0x0000
	...

Disassembly of section .__pagetable_map_os_0x0000000044fb8000:

0000000044fb8000 <__pagetable_map_os_0x0000000044fb8000>:
	...
    44fb85d0:	d0df 113b 0000      	.insn	6, 0x113bd0df
	...

Disassembly of section .__pagetable_map_os_0x0000000044fb9000:

0000000044fb9000 <__pagetable_map_os_0x0000000044fb9000>:
	...
    44fb9f20:	3c01                	.insn	2, 0x3c01
    44fb9f22:	10c1                	.insn	2, 0x10c1
    44fb9f24:	0000                	.insn	2, 0x0000
	...

Disassembly of section .__pagetable_map_os_0x000000004304f000:

000000004304f000 <__pagetable_map_os_0x000000004304f000>:
	...
    4304f3e8:	60df 10a7 0000      	.insn	6, 0x10a760df
	...

Disassembly of section .__pagetable_map_os_0x0000000043050000:

0000000043050000 <__pagetable_map_os_0x0000000043050000>:
	...
    430506e8:	8401                	.insn	2, 0x8401
    430506ea:	00000000113f 	.6byte	0x00000000113f

Disassembly of section .__pagetable_map_os_0x0000000044fe1000:

0000000044fe1000 <__pagetable_map_os_0x0000000044fe1000>:
	...
    44fe1ae8:	111d00d7          	vminu.vv	v1,v17,v26,v0.t
    44fe1aec:	0000                	.insn	2, 0x0000
	...

Disassembly of section .__pagetable_map_os_0x0000000044fb0000:

0000000044fb0000 <__pagetable_map_os_0x0000000044fb0000>:
	...
    44fb0010:	b801                	.insn	2, 0xb801
    44fb0012:	10a5                	.insn	2, 0x10a5
    44fb0014:	0000                	.insn	2, 0x0000
	...

Disassembly of section .__pagetable_map_os_0x000000004296e000:

000000004296e000 <__pagetable_map_os_0x000000004296e000>:
	...
    4296eef0:	10bd84d7          	vminu.vv	v9,v11,v27,v0.t
    4296eef4:	0000                	.insn	2, 0x0000
	...

Disassembly of section .__pagetable_map_os_0x0000000044fdd000:

0000000044fdd000 <__pagetable_map_os_0x0000000044fdd000>:
	...
    44fdd940:	f001                	.insn	2, 0xf001
    44fdd942:	113e                	.insn	2, 0x113e
    44fdd944:	0000                	.insn	2, 0x0000
	...

Disassembly of section .__pagetable_map_os_0x0000000044fbc000:

0000000044fbc000 <__pagetable_map_os_0x0000000044fbc000>:
	...
    44fbcc28:	d401                	.insn	2, 0xd401
    44fbcc2a:	10c1                	.insn	2, 0x10c1
    44fbcc2c:	0000                	.insn	2, 0x0000
	...

Disassembly of section .__pagetable_map_os_0x0000000043075000:

0000000043075000 <__pagetable_map_os_0x0000000043075000>:
	...
    430756f8:	dcdf 113e 0000      	.insn	6, 0x113edcdf
	...

Disassembly of section .__pagetable_map_os_0x0000000042978000:

0000000042978000 <__pagetable_map_os_0x0000000042978000>:
	...
    42978a18:	0801                	.insn	2, 0x0801
    42978a1a:	00000000113f 	.6byte	0x00000000113f

Disassembly of section .__pagetable_map_os_0x0000000044fc2000:

0000000044fc2000 <__pagetable_map_os_0x0000000044fc2000>:
	...
    44fc26e0:	c801                	.insn	2, 0xc801
    44fc26e2:	113e                	.insn	2, 0x113e
    44fc26e4:	0000                	.insn	2, 0x0000
	...

Disassembly of section .__pagetable_map_os_0x0000000044fb2000:

0000000044fb2000 <__pagetable_map_os_0x0000000044fb2000>:
	...
    44fb2ad0:	10bc98d7          	vfmin.vv	v17,v11,v25,v0.t
    44fb2ad4:	0000                	.insn	2, 0x0000
	...

Disassembly of section .__pagetable_map_os_0x0000000042d4a000:

0000000042d4a000 <__pagetable_map_os_0x0000000042d4a000>:
	...
    42d4a268:	4401                	.insn	2, 0x4401
    42d4a26a:	10c1                	.insn	2, 0x10c1
    42d4a26c:	0000                	.insn	2, 0x0000
	...

Disassembly of section .__pagetable_map_os_0x0000000043051000:

0000000043051000 <__pagetable_map_os_0x0000000043051000>:
	...
    43051810:	b001                	.insn	2, 0xb001
    43051812:	10a5                	.insn	2, 0x10a5
    43051814:	0000                	.insn	2, 0x0000
	...

Disassembly of section .__pagetable_map_os_0x000000004296c000:

000000004296c000 <__pagetable_map_os_0x000000004296c000>:
	...
    4296c588:	113eecd7          	.insn	4, 0x113eecd7
    4296c58c:	0000                	.insn	2, 0x0000
	...

Disassembly of section .__pagetable_map_os_0x000000004304d000:

000000004304d000 <__pagetable_map_os_0x000000004304d000>:
	...
    4304dea8:	bc01                	.insn	2, 0xbc01
    4304deaa:	10a5                	.insn	2, 0x10a5
    4304deac:	0000                	.insn	2, 0x0000
	...

Disassembly of section .__pagetable_map_os_0x000000004296f000:

000000004296f000 <__pagetable_map_os_0x000000004296f000>:
	...
    4296ff28:	fc01                	.insn	2, 0xfc01
    4296ff2a:	10c0                	.insn	2, 0x10c0
    4296ff2c:	0000                	.insn	2, 0x0000
	...

Disassembly of section .__pagetable_map_os_0x000000004303f000:

000000004303f000 <__pagetable_map_os_0x000000004303f000>:
	...
    4303fb08:	10a75cd7          	vfmin.vf	v25,v10,f14,v0.t
    4303fb0c:	0000                	.insn	2, 0x0000
	...

Disassembly of section .__pagetable_map_os_0x0000000042ffb000:

0000000042ffb000 <__pagetable_map_os_0x0000000042ffb000>:
	...
    42ffbbd0:	e801                	.insn	2, 0xe801
    42ffbbd2:	113e                	.insn	2, 0x113e
    42ffbbd4:	0000                	.insn	2, 0x0000
	...

Disassembly of section .__pagetable_map_os_0x0000000044fba000:

0000000044fba000 <__pagetable_map_os_0x0000000044fba000>:
	...
    44fba600:	c001                	.insn	2, 0xc001
    44fba602:	10a5                	.insn	2, 0x10a5
    44fba604:	0000                	.insn	2, 0x0000
	...

Disassembly of section .__pagetable_map_os_0x0000000042970000:

0000000042970000 <__pagetable_map_os_0x0000000042970000>:
	...
    42970868:	9c01                	.insn	2, 0x9c01
    4297086a:	1118                	.insn	2, 0x1118
    4297086c:	0000                	.insn	2, 0x0000
	...

Disassembly of section .__pagetable_map_os_0x0000000044627000:

0000000044627000 <__pagetable_map_os_0x0000000044627000>:
	...
    446273f8:	0cdf 10c0 0000      	.insn	6, 0x10c00cdf
	...

Disassembly of section .__pagetable_map_os_0x0000000044fbe000:

0000000044fbe000 <__pagetable_map_os_0x0000000044fbe000>:
	...
    44fbe2e8:	b401                	.insn	2, 0xb401
    44fbe2ea:	0000000010bf 	.6byte	0x0000000010bf

Disassembly of section .__pagetable_map_os_0x0000000042fed000:

0000000042fed000 <__pagetable_map_os_0x0000000042fed000>:
	...
    42fedf40:	9001                	.insn	2, 0x9001
    42fedf42:	00000000113f 	.6byte	0x00000000113f

Disassembly of section .__pagetable_map_os_0x0000000044fe4000:

0000000044fe4000 <__pagetable_map_os_0x0000000044fe4000>:
	...
    44fe4428:	e801                	.insn	2, 0xe801
    44fe442a:	10a5                	.insn	2, 0x10a5
    44fe442c:	0000                	.insn	2, 0x0000
	...

Disassembly of section .__pagetable_map_os_0x000000004297a000:

000000004297a000 <__pagetable_map_os_0x000000004297a000>:
	...
    4297afd0:	114080d7          	vminu.vv	v1,v20,v1,v0.t
    4297afd4:	0000                	.insn	2, 0x0000
	...

Disassembly of section .__pagetable_map_os_0x0000000042bdb000:

0000000042bdb000 <__pagetable_map_os_0x0000000042bdb000>:
	...
    42bdb190:	e401                	.insn	2, 0xe401
    42bdb192:	10a5                	.insn	2, 0x10a5
    42bdb194:	0000                	.insn	2, 0x0000
	...

Disassembly of section .__pagetable_map_os_0x0000000042979000:

0000000042979000 <__pagetable_map_os_0x0000000042979000>:
	...
    42979838:	d801                	.insn	2, 0xd801
    4297983a:	10bc                	.insn	2, 0x10bc
    4297983c:	0000                	.insn	2, 0x0000
	...

Disassembly of section .__pagetable_map_os_0x0000000042f36000:

0000000042f36000 <__pagetable_map_os_0x0000000042f36000>:
	...
    42f36870:	ec01                	.insn	2, 0xec01
    42f36872:	10f8                	.insn	2, 0x10f8
    42f36874:	0000                	.insn	2, 0x0000
	...

Disassembly of section .__pagetable_map_os_0x0000000043e3b000:

0000000043e3b000 <__pagetable_map_os_0x0000000043e3b000>:
	...
    43e3b7a0:	113e04d7          	vminu.vv	v9,v19,v28,v0.t
    43e3b7a4:	0000                	.insn	2, 0x0000
	...

Disassembly of section .__pagetable_map_os_0x00000000430de000:

00000000430de000 <__pagetable_map_os_0x00000000430de000>:
	...
    430de8f0:	f401                	.insn	2, 0xf401
    430de8f2:	113e                	.insn	2, 0x113e
    430de8f4:	0000                	.insn	2, 0x0000
	...

Disassembly of section .__pagetable_map_os_0x0000000044fbd000:

0000000044fbd000 <__pagetable_map_os_0x0000000044fbd000>:
	...
    44fbda50:	7001                	.insn	2, 0x7001
    44fbda52:	10b4                	.insn	2, 0x10b4
    44fbda54:	0000                	.insn	2, 0x0000
	...

Disassembly of section .__pagetable_map_os_0x0000000042d1c000:

0000000042d1c000 <__pagetable_map_os_0x0000000042d1c000>:
	...
    42d1c898:	e401                	.insn	2, 0xe401
    42d1c89a:	10f9                	.insn	2, 0x10f9
    42d1c89c:	0000                	.insn	2, 0x0000
	...

Disassembly of section .__pagetable_map_os_0x0000000043e79000:

0000000043e79000 <__pagetable_map_os_0x0000000043e79000>:
	...
    43e797d8:	1140d8d7          	vfmin.vf	v17,v20,f1,v0.t
    43e797dc:	0000                	.insn	2, 0x0000
	...
