
/home/abdullah/RiescueC/riescue/10x_R/paging/testsuite/paging/user_sv48/tp_paging_1:     file format elf64-littleriscv


Disassembly of section .runtime:

0000000041000000 <_start>:
    41000000:	00000093          	li	x1,0
    41000004:	00000113          	li	x2,0
    41000008:	00000193          	li	x3,0
    4100000c:	00000213          	li	x4,0
    41000010:	00000293          	li	x5,0
    41000014:	00000313          	li	x6,0
    41000018:	00000393          	li	x7,0
    4100001c:	00000413          	li	x8,0
    41000020:	00000493          	li	x9,0
    41000024:	00000513          	li	x10,0
    41000028:	00000593          	li	x11,0
    4100002c:	00000613          	li	x12,0
    41000030:	00000693          	li	x13,0
    41000034:	00000713          	li	x14,0
    41000038:	00000793          	li	x15,0
    4100003c:	00000813          	li	x16,0
    41000040:	00000893          	li	x17,0
    41000044:	00000913          	li	x18,0
    41000048:	00000993          	li	x19,0
    4100004c:	00000a13          	li	x20,0
    41000050:	00000a93          	li	x21,0
    41000054:	00000b13          	li	x22,0
    41000058:	00000b93          	li	x23,0
    4100005c:	00000c13          	li	x24,0
    41000060:	00000c93          	li	x25,0
    41000064:	00000d13          	li	x26,0
    41000068:	00000d93          	li	x27,0
    4100006c:	00000e13          	li	x28,0
    41000070:	00000e93          	li	x29,0
    41000074:	00000f13          	li	x30,0
    41000078:	00000f93          	li	x31,0

000000004100007c <loader__load_panic_address>:
    4100007c:	00001297          	auipc	x5,0x1
    41000080:	9e828293          	addi	x5,x5,-1560 # 41000a64 <eot__failed>
    41000084:	30529073          	csrw	mtvec,x5

0000000041000088 <loader__initialize_runtime>:
    41000088:	00000293          	li	x5,0
    4100008c:	3012a2f3          	csrrs	x5,misa,x5

0000000041000090 <loader__set_mstatus>:
    41000090:	000402b7          	lui	x5,0x40
    41000094:	00a2829b          	addiw	x5,x5,10 # 4000a <pma_region_0_size+0xa>
    41000098:	3002a2f3          	csrrs	x5,mstatus,x5
    4100009c:	436c1237          	lui	x4,0x436c1
    410000a0:	34021073          	csrw	mscratch,x4

00000000410000a4 <loader__setup_menvcfg>:
    410000a4:	00000297          	auipc	x5,0x0
    410000a8:	4a828293          	addi	x5,x5,1192 # 4100054c <trap_handler_m__trap_entry>
    410000ac:	30529073          	csrw	mtvec,x5

00000000410000b0 <loader__enable_paging>:
    410000b0:	fffc80b7          	lui	x1,0xfffc8
    410000b4:	0e50809b          	addiw	x1,x1,229 # fffffffffffc80e5 <mem9+0xffff817ffffc80e5>
    410000b8:	02109093          	slli	x1,x1,0x21
    410000bc:	04108093          	addi	x1,x1,65
    410000c0:	00c09093          	slli	x1,x1,0xc
    410000c4:	3a608093          	addi	x1,x1,934
    410000c8:	18009073          	csrw	satp,x1

00000000410000cc <loader__done>:
    410000cc:	1c10006f          	j	41000a8c <scheduler__init>

00000000410000d0 <loader__panic>:
    410000d0:	1950006f          	j	41000a64 <eot__failed>

00000000410000d4 <syscalls__syscall_check_schedule_next_test>:
    410000d4:	00f0029b          	addiw	x5,x0,15
    410000d8:	01c29293          	slli	x5,x5,0x1c
    410000dc:	00128293          	addi	x5,x5,1
    410000e0:	01f29a63          	bne	x5,x31,410000f4 <syscalls__syscall_check_fail_test>
    410000e4:	00000317          	auipc	x6,0x0
    410000e8:	46830313          	addi	x6,x6,1128 # 4100054c <trap_handler_m__trap_entry>
    410000ec:	30531073          	csrw	mtvec,x6
    410000f0:	6a00006f          	j	41000790 <enter_scheduler>

00000000410000f4 <syscalls__syscall_check_fail_test>:
    410000f4:	00f0029b          	addiw	x5,x0,15
    410000f8:	01c29293          	slli	x5,x5,0x1c
    410000fc:	00228293          	addi	x5,x5,2
    41000100:	01f29a63          	bne	x5,x31,41000114 <syscalls__syscall_check_end_test_without_failure>
    41000104:	00000317          	auipc	x6,0x0
    41000108:	44830313          	addi	x6,x6,1096 # 4100054c <trap_handler_m__trap_entry>
    4100010c:	30531073          	csrw	mtvec,x6
    41000110:	6b00006f          	j	410007c0 <test_failed>

0000000041000114 <syscalls__syscall_check_end_test_without_failure>:
    41000114:	00f0029b          	addiw	x5,x0,15
    41000118:	01c29293          	slli	x5,x5,0x1c
    4100011c:	00328293          	addi	x5,x5,3
    41000120:	01f29a63          	bne	x5,x31,41000134 <syscalls__syscall_check_switch_machine_mode>
    41000124:	00000317          	auipc	x6,0x0
    41000128:	42830313          	addi	x6,x6,1064 # 4100054c <trap_handler_m__trap_entry>
    4100012c:	30531073          	csrw	mtvec,x6
    41000130:	69c0006f          	j	410007cc <os_end_test>

0000000041000134 <syscalls__syscall_check_switch_machine_mode>:
    41000134:	000f02b7          	lui	x5,0xf0
    41000138:	0012829b          	addiw	x5,x5,1 # f0001 <mem13+0x2d001>
    4100013c:	00c29293          	slli	x5,x5,0xc
    41000140:	00128293          	addi	x5,x5,1
    41000144:	0a5f8463          	beq	x31,x5,410001ec <syscalls__os_fn_f0001001>

0000000041000148 <syscalls__syscall_check_switch_super_mode>:
    41000148:	000f02b7          	lui	x5,0xf0
    4100014c:	0012829b          	addiw	x5,x5,1 # f0001 <mem13+0x2d001>
    41000150:	00c29293          	slli	x5,x5,0xc
    41000154:	00228293          	addi	x5,x5,2
    41000158:	0c5f8063          	beq	x31,x5,41000218 <syscalls__os_fn_f0001002>

000000004100015c <syscalls__syscall_check_switch_user_mode>:
    4100015c:	000f02b7          	lui	x5,0xf0
    41000160:	0012829b          	addiw	x5,x5,1 # f0001 <mem13+0x2d001>
    41000164:	00c29293          	slli	x5,x5,0xc
    41000168:	00328293          	addi	x5,x5,3
    4100016c:	0c5f8e63          	beq	x31,x5,41000248 <syscalls__os_fn_f0001003>

0000000041000170 <syscalls__syscall_check_switch_test_mode>:
    41000170:	000f02b7          	lui	x5,0xf0
    41000174:	0012829b          	addiw	x5,x5,1 # f0001 <mem13+0x2d001>
    41000178:	00c29293          	slli	x5,x5,0xc
    4100017c:	00428293          	addi	x5,x5,4
    41000180:	0c5f8863          	beq	x31,x5,41000250 <syscalls__os_fn_f0001004>

0000000041000184 <syscalls__syscall_machine_csr_rw>:
    41000184:	000f02b7          	lui	x5,0xf0
    41000188:	0012829b          	addiw	x5,x5,1 # f0001 <mem13+0x2d001>
    4100018c:	00c29293          	slli	x5,x5,0xc
    41000190:	00528293          	addi	x5,x5,5
    41000194:	0e5f8263          	beq	x31,x5,41000278 <syscalls__os_fn_f0001005>

0000000041000198 <syscalls__syscall_supervisor_csr_rw>:
    41000198:	000f02b7          	lui	x5,0xf0
    4100019c:	0012829b          	addiw	x5,x5,1 # f0001 <mem13+0x2d001>
    410001a0:	00c29293          	slli	x5,x5,0xc
    410001a4:	00628293          	addi	x5,x5,6
    410001a8:	0e5f8e63          	beq	x31,x5,410002a4 <syscalls__os_fn_f0001006>

00000000410001ac <syscalls__syscall_machine_pte_read>:
    410001ac:	000f02b7          	lui	x5,0xf0
    410001b0:	0012829b          	addiw	x5,x5,1 # f0001 <mem13+0x2d001>
    410001b4:	00c29293          	slli	x5,x5,0xc
    410001b8:	00728293          	addi	x5,x5,7
    410001bc:	105f8c63          	beq	x31,x5,410002d4 <syscalls__os_fn_f0001007>

00000000410001c0 <syscalls__syscall_machine_pte_write>:
    410001c0:	000f02b7          	lui	x5,0xf0
    410001c4:	0012829b          	addiw	x5,x5,1 # f0001 <mem13+0x2d001>
    410001c8:	00c29293          	slli	x5,x5,0xc
    410001cc:	00828293          	addi	x5,x5,8
    410001d0:	1e5f8863          	beq	x31,x5,410003c0 <syscalls__os_fn_f0001008>

00000000410001d4 <syscalls__syscall_check_get_hart_context>:
    410001d4:	000782b7          	lui	x5,0x78
    410001d8:	0012829b          	addiw	x5,x5,1 # 78001 <mem18+0x1>
    410001dc:	00d29293          	slli	x5,x5,0xd
    410001e0:	00128293          	addi	x5,x5,1
    410001e4:	2c5f8463          	beq	x31,x5,410004ac <syscalls__os_get_hart_context>
    410001e8:	4c00006f          	j	410006a8 <trap_handler_m__check_exception_label>

00000000410001ec <syscalls__os_fn_f0001001>:
    410001ec:	000022b7          	lui	x5,0x2
    410001f0:	8002829b          	addiw	x5,x5,-2048 # 1800 <pma_region_1_size+0x800>
    410001f4:	3002b073          	csrc	mstatus,x5
    410001f8:	000022b7          	lui	x5,0x2
    410001fc:	8002829b          	addiw	x5,x5,-2048 # 1800 <pma_region_1_size+0x800>
    41000200:	3002a073          	csrs	mstatus,x5
    41000204:	0010029b          	addiw	x5,x0,1
    41000208:	02729293          	slli	x5,x5,0x27
    4100020c:	3002b073          	csrc	mstatus,x5
    41000210:	413092b7          	lui	x5,0x41309
    41000214:	2a80006f          	j	410004bc <syscalls__ret_from_os_fn>

0000000041000218 <syscalls__os_fn_f0001002>:
    41000218:	000022b7          	lui	x5,0x2
    4100021c:	8002829b          	addiw	x5,x5,-2048 # 1800 <pma_region_1_size+0x800>
    41000220:	3002b073          	csrc	mstatus,x5
    41000224:	000012b7          	lui	x5,0x1
    41000228:	8002829b          	addiw	x5,x5,-2048 # 800 <XLEN+0x7c0>
    4100022c:	3002a073          	csrs	mstatus,x5
    41000230:	0010029b          	addiw	x5,x0,1
    41000234:	02729293          	slli	x5,x5,0x27
    41000238:	3002b073          	csrc	mstatus,x5
    4100023c:	12000073          	sfence.vma
    41000240:	412092b7          	lui	x5,0x41209
    41000244:	2780006f          	j	410004bc <syscalls__ret_from_os_fn>

0000000041000248 <syscalls__os_fn_f0001003>:
    41000248:	412892b7          	lui	x5,0x41289
    4100024c:	2700006f          	j	410004bc <syscalls__ret_from_os_fn>

0000000041000250 <syscalls__os_fn_f0001004>:
    41000250:	000022b7          	lui	x5,0x2
    41000254:	8002829b          	addiw	x5,x5,-2048 # 1800 <pma_region_1_size+0x800>
    41000258:	3002b073          	csrc	mstatus,x5
    4100025c:	00000293          	li	x5,0
    41000260:	3002a073          	csrs	mstatus,x5
    41000264:	0010029b          	addiw	x5,x0,1
    41000268:	02729293          	slli	x5,x5,0x27
    4100026c:	3002b073          	csrc	mstatus,x5
    41000270:	17823283          	ld	x5,376(x4) # 436c1178 <__section_hart_context+0x178>
    41000274:	2480006f          	j	410004bc <syscalls__ret_from_os_fn>

0000000041000278 <syscalls__os_fn_f0001005>:
    41000278:	000022b7          	lui	x5,0x2
    4100027c:	8002829b          	addiw	x5,x5,-2048 # 1800 <pma_region_1_size+0x800>
    41000280:	3002b073          	csrc	mstatus,x5
    41000284:	000022b7          	lui	x5,0x2
    41000288:	8002829b          	addiw	x5,x5,-2048 # 1800 <pma_region_1_size+0x800>
    4100028c:	3002a073          	csrs	mstatus,x5
    41000290:	0010029b          	addiw	x5,x0,1
    41000294:	02729293          	slli	x5,x5,0x27
    41000298:	3002b073          	csrc	mstatus,x5
    4100029c:	413892b7          	lui	x5,0x41389
    410002a0:	21c0006f          	j	410004bc <syscalls__ret_from_os_fn>

00000000410002a4 <syscalls__os_fn_f0001006>:
    410002a4:	000022b7          	lui	x5,0x2
    410002a8:	8002829b          	addiw	x5,x5,-2048 # 1800 <pma_region_1_size+0x800>
    410002ac:	3002b073          	csrc	mstatus,x5
    410002b0:	000012b7          	lui	x5,0x1
    410002b4:	8002829b          	addiw	x5,x5,-2048 # 800 <XLEN+0x7c0>
    410002b8:	3002a073          	csrs	mstatus,x5
    410002bc:	0010029b          	addiw	x5,x0,1
    410002c0:	02729293          	slli	x5,x5,0x27
    410002c4:	3002b073          	csrc	mstatus,x5
    410002c8:	12000073          	sfence.vma
    410002cc:	4138a2b7          	lui	x5,0x4138a
    410002d0:	1ec0006f          	j	410004bc <syscalls__ret_from_os_fn>

00000000410002d4 <syscalls__os_fn_f0001007>:
    410002d4:	415fcfb7          	lui	x31,0x415fc
    410002d8:	0b0f8f9b          	addiw	x31,x31,176 # 415fc0b0 <pte_access_flags_pa>
    410002dc:	000fbf83          	ld	x31,0(x31)
    410002e0:	415fc2b7          	lui	x5,0x415fc
    410002e4:	0b82829b          	addiw	x5,x5,184 # 415fc0b8 <pte_access_flags_pa+0x8>
    410002e8:	0002b283          	ld	x5,0(x5)
    410002ec:	415fce37          	lui	x28,0x415fc
    410002f0:	0c0e0e1b          	addiw	x28,x28,192 # 415fc0c0 <pte_access_flags_pa+0x10>
    410002f4:	000e3e03          	ld	x28,0(x28)

00000000410002f8 <syscalls__pte_walk_check_glevel_without_gstage_read>:
    410002f8:	fff00f93          	li	x31,-1
    410002fc:	0dfe1063          	bne	x28,x31,410003bc <syscalls__pte_walk_fail_read>
    41000300:	18002373          	csrr	x6,satp
    41000304:	03c35e93          	srli	x29,x6,0x3c
    41000308:	01431313          	slli	x6,x6,0x14
    4100030c:	01435313          	srli	x6,x6,0x14
    41000310:	00c31313          	slli	x6,x6,0xc
    41000314:	ff8e8e93          	addi	x29,x29,-8
    41000318:	003e9f13          	slli	x30,x29,0x3
    4100031c:	01df0eb3          	add	x29,x30,x29
    41000320:	01ee8e93          	addi	x29,x29,30
    41000324:	00000f13          	li	x30,0

0000000041000328 <syscalls__pte_walk_loop_read>:
    41000328:	415fcfb7          	lui	x31,0x415fc
    4100032c:	0b0f8f9b          	addiw	x31,x31,176 # 415fc0b0 <pte_access_flags_pa>
    41000330:	000fbf83          	ld	x31,0(x31)
    41000334:	01dfdfb3          	srl	x31,x31,x29
    41000338:	1fffff93          	andi	x31,x31,511
    4100033c:	003f9f93          	slli	x31,x31,0x3
    41000340:	01f30333          	add	x6,x6,x31
    41000344:	005f0e63          	beq	x30,x5,41000360 <syscalls__pte_walk_done_read>
    41000348:	00033f83          	ld	x31,0(x6)
    4100034c:	00afdf93          	srli	x31,x31,0xa
    41000350:	00cf9313          	slli	x6,x31,0xc
    41000354:	001f0f13          	addi	x30,x30,1
    41000358:	ff7e8e93          	addi	x29,x29,-9
    4100035c:	fcdff06f          	j	41000328 <syscalls__pte_walk_loop_read>

0000000041000360 <syscalls__pte_walk_done_read>:
    41000360:	fff00f93          	li	x31,-1
    41000364:	05fe0263          	beq	x28,x31,410003a8 <syscalls__pte_walk_final_read>

0000000041000368 <syscalls__pte_walk_gstage_read>:
    41000368:	415fcfb7          	lui	x31,0x415fc
    4100036c:	0b0f8f9b          	addiw	x31,x31,176 # 415fc0b0 <pte_access_flags_pa>
    41000370:	006fb023          	sd	x6,0(x31)
    41000374:	000e0293          	mv	x5,x28
    41000378:	fff00e13          	li	x28,-1
    4100037c:	68002373          	csrr	x6,hgatp
    41000380:	03c35e93          	srli	x29,x6,0x3c
    41000384:	01431313          	slli	x6,x6,0x14
    41000388:	01435313          	srli	x6,x6,0x14
    4100038c:	00c31313          	slli	x6,x6,0xc
    41000390:	ff8e8e93          	addi	x29,x29,-8
    41000394:	003e9f13          	slli	x30,x29,0x3
    41000398:	01df0eb3          	add	x29,x30,x29
    4100039c:	01ee8e93          	addi	x29,x29,30
    410003a0:	00000f13          	li	x30,0
    410003a4:	f85ff06f          	j	41000328 <syscalls__pte_walk_loop_read>

00000000410003a8 <syscalls__pte_walk_final_read>:
    410003a8:	00033383          	ld	x7,0(x6)
    410003ac:	341022f3          	csrr	x5,mepc
    410003b0:	00428293          	addi	x5,x5,4
    410003b4:	16523c23          	sd	x5,376(x4) # 178 <XLEN+0x138>
    410003b8:	e99ff06f          	j	41000250 <syscalls__os_fn_f0001004>

00000000410003bc <syscalls__pte_walk_fail_read>:
    410003bc:	4040006f          	j	410007c0 <test_failed>

00000000410003c0 <syscalls__os_fn_f0001008>:
    410003c0:	415fcfb7          	lui	x31,0x415fc
    410003c4:	0b0f8f9b          	addiw	x31,x31,176 # 415fc0b0 <pte_access_flags_pa>
    410003c8:	000fbf83          	ld	x31,0(x31)
    410003cc:	415fc2b7          	lui	x5,0x415fc
    410003d0:	0b82829b          	addiw	x5,x5,184 # 415fc0b8 <pte_access_flags_pa+0x8>
    410003d4:	0002b283          	ld	x5,0(x5)
    410003d8:	415fce37          	lui	x28,0x415fc
    410003dc:	0c0e0e1b          	addiw	x28,x28,192 # 415fc0c0 <pte_access_flags_pa+0x10>
    410003e0:	000e3e03          	ld	x28,0(x28)

00000000410003e4 <syscalls__pte_walk_check_glevel_without_gstage_write>:
    410003e4:	fff00f93          	li	x31,-1
    410003e8:	0dfe1063          	bne	x28,x31,410004a8 <syscalls__pte_walk_fail_write>
    410003ec:	18002373          	csrr	x6,satp
    410003f0:	03c35e93          	srli	x29,x6,0x3c
    410003f4:	01431313          	slli	x6,x6,0x14
    410003f8:	01435313          	srli	x6,x6,0x14
    410003fc:	00c31313          	slli	x6,x6,0xc
    41000400:	ff8e8e93          	addi	x29,x29,-8
    41000404:	003e9f13          	slli	x30,x29,0x3
    41000408:	01df0eb3          	add	x29,x30,x29
    4100040c:	01ee8e93          	addi	x29,x29,30
    41000410:	00000f13          	li	x30,0

0000000041000414 <syscalls__pte_walk_loop_write>:
    41000414:	415fcfb7          	lui	x31,0x415fc
    41000418:	0b0f8f9b          	addiw	x31,x31,176 # 415fc0b0 <pte_access_flags_pa>
    4100041c:	000fbf83          	ld	x31,0(x31)
    41000420:	01dfdfb3          	srl	x31,x31,x29
    41000424:	1fffff93          	andi	x31,x31,511
    41000428:	003f9f93          	slli	x31,x31,0x3
    4100042c:	01f30333          	add	x6,x6,x31
    41000430:	005f0e63          	beq	x30,x5,4100044c <syscalls__pte_walk_done_write>
    41000434:	00033f83          	ld	x31,0(x6)
    41000438:	00afdf93          	srli	x31,x31,0xa
    4100043c:	00cf9313          	slli	x6,x31,0xc
    41000440:	001f0f13          	addi	x30,x30,1
    41000444:	ff7e8e93          	addi	x29,x29,-9
    41000448:	fcdff06f          	j	41000414 <syscalls__pte_walk_loop_write>

000000004100044c <syscalls__pte_walk_done_write>:
    4100044c:	fff00f93          	li	x31,-1
    41000450:	05fe0263          	beq	x28,x31,41000494 <syscalls__pte_walk_final_write>

0000000041000454 <syscalls__pte_walk_gstage_write>:
    41000454:	415fcfb7          	lui	x31,0x415fc
    41000458:	0b0f8f9b          	addiw	x31,x31,176 # 415fc0b0 <pte_access_flags_pa>
    4100045c:	006fb023          	sd	x6,0(x31)
    41000460:	000e0293          	mv	x5,x28
    41000464:	fff00e13          	li	x28,-1
    41000468:	68002373          	csrr	x6,hgatp
    4100046c:	03c35e93          	srli	x29,x6,0x3c
    41000470:	01431313          	slli	x6,x6,0x14
    41000474:	01435313          	srli	x6,x6,0x14
    41000478:	00c31313          	slli	x6,x6,0xc
    4100047c:	ff8e8e93          	addi	x29,x29,-8
    41000480:	003e9f13          	slli	x30,x29,0x3
    41000484:	01df0eb3          	add	x29,x30,x29
    41000488:	01ee8e93          	addi	x29,x29,30
    4100048c:	00000f13          	li	x30,0
    41000490:	f85ff06f          	j	41000414 <syscalls__pte_walk_loop_write>

0000000041000494 <syscalls__pte_walk_final_write>:
    41000494:	00733023          	sd	x7,0(x6)
    41000498:	341022f3          	csrr	x5,mepc
    4100049c:	00428293          	addi	x5,x5,4
    410004a0:	16523c23          	sd	x5,376(x4) # 178 <XLEN+0x138>
    410004a4:	dadff06f          	j	41000250 <syscalls__os_fn_f0001004>

00000000410004a8 <syscalls__pte_walk_fail_write>:
    410004a8:	3180006f          	j	410007c0 <test_failed>

00000000410004ac <syscalls__os_get_hart_context>:
    410004ac:	14002573          	csrr	x10,sscratch
    410004b0:	341022f3          	csrr	x5,mepc
    410004b4:	00428293          	addi	x5,x5,4
    410004b8:	0040006f          	j	410004bc <syscalls__ret_from_os_fn>

00000000410004bc <syscalls__ret_from_os_fn>:
    410004bc:	34102373          	csrr	x6,mepc
    410004c0:	00430313          	addi	x6,x6,4
    410004c4:	16623c23          	sd	x6,376(x4) # 178 <XLEN+0x138>
    410004c8:	34129073          	csrw	mepc,x5
    410004cc:	fff00f93          	li	x31,-1
    410004d0:	2a40006f          	j	41000774 <trap_handler_m__skip_xepc_write>

00000000410004d4 <trap_handler_m__invalid_interrupt>:
    410004d4:	2ec0006f          	j	410007c0 <test_failed>

00000000410004d8 <trap_handler_m__clear_all_interrupts>:
    410004d8:	34401073          	csrw	mip,x0
    410004dc:	30200073          	mret

00000000410004e0 <trap_handler_m___CLEAR_SSI>:
    410004e0:	00200293          	li	x5,2
    410004e4:	3442b073          	csrc	mip,x5
    410004e8:	30200073          	mret

00000000410004ec <trap_handler_m___CLEAR_MSI>:
    410004ec:	00800293          	li	x5,8
    410004f0:	3442b073          	csrc	mip,x5
    410004f4:	30200073          	mret

00000000410004f8 <trap_handler_m___CLEAR_STI>:
    410004f8:	02000293          	li	x5,32
    410004fc:	3442b073          	csrc	mip,x5
    41000500:	30200073          	mret

0000000041000504 <trap_handler_m___CLEAR_MTI>:
    41000504:	08000293          	li	x5,128
    41000508:	3442b073          	csrc	mip,x5
    4100050c:	30200073          	mret

0000000041000510 <trap_handler_m___CLEAR_SEI>:
    41000510:	20000293          	li	x5,512
    41000514:	3442b073          	csrc	mip,x5
    41000518:	30200073          	mret

000000004100051c <trap_handler_m___CLEAR_MEI>:
    4100051c:	000012b7          	lui	x5,0x1
    41000520:	8002829b          	addiw	x5,x5,-2048 # 800 <XLEN+0x7c0>
    41000524:	3442b073          	csrc	mip,x5
    41000528:	30200073          	mret

000000004100052c <trap_handler_m___CLEAR_COI>:
    4100052c:	000022b7          	lui	x5,0x2
    41000530:	3442b073          	csrc	mip,x5
    41000534:	30200073          	mret

0000000041000538 <trap_handler_m__clear_highest_priority_interrupt>:
    41000538:	344022f3          	csrr	x5,mip
    4100053c:	40500333          	neg	x6,x5
    41000540:	0062f2b3          	and	x5,x5,x6
    41000544:	3442b073          	csrc	mip,x5
    41000548:	30200073          	mret

000000004100054c <trap_handler_m__trap_entry>:
    4100054c:	0fc0006f          	j	41000648 <trap_handler_m__trap_handler>

0000000041000550 <trap_handler_m__interrupt_vector_table>:
    41000550:	f91ff06f          	j	410004e0 <trap_handler_m___CLEAR_SSI>
    41000554:	f81ff06f          	j	410004d4 <trap_handler_m__invalid_interrupt>
    41000558:	f95ff06f          	j	410004ec <trap_handler_m___CLEAR_MSI>
    4100055c:	f79ff06f          	j	410004d4 <trap_handler_m__invalid_interrupt>
    41000560:	f99ff06f          	j	410004f8 <trap_handler_m___CLEAR_STI>
    41000564:	f71ff06f          	j	410004d4 <trap_handler_m__invalid_interrupt>
    41000568:	f9dff06f          	j	41000504 <trap_handler_m___CLEAR_MTI>
    4100056c:	f69ff06f          	j	410004d4 <trap_handler_m__invalid_interrupt>
    41000570:	fa1ff06f          	j	41000510 <trap_handler_m___CLEAR_SEI>
    41000574:	f61ff06f          	j	410004d4 <trap_handler_m__invalid_interrupt>
    41000578:	fa5ff06f          	j	4100051c <trap_handler_m___CLEAR_MEI>
    4100057c:	f59ff06f          	j	410004d4 <trap_handler_m__invalid_interrupt>
    41000580:	fadff06f          	j	4100052c <trap_handler_m___CLEAR_COI>
    41000584:	f51ff06f          	j	410004d4 <trap_handler_m__invalid_interrupt>
    41000588:	f4dff06f          	j	410004d4 <trap_handler_m__invalid_interrupt>
    4100058c:	fadff06f          	j	41000538 <trap_handler_m__clear_highest_priority_interrupt>
    41000590:	fa9ff06f          	j	41000538 <trap_handler_m__clear_highest_priority_interrupt>
    41000594:	fa5ff06f          	j	41000538 <trap_handler_m__clear_highest_priority_interrupt>
    41000598:	fa1ff06f          	j	41000538 <trap_handler_m__clear_highest_priority_interrupt>
    4100059c:	f9dff06f          	j	41000538 <trap_handler_m__clear_highest_priority_interrupt>
    410005a0:	f99ff06f          	j	41000538 <trap_handler_m__clear_highest_priority_interrupt>
    410005a4:	f95ff06f          	j	41000538 <trap_handler_m__clear_highest_priority_interrupt>
    410005a8:	f91ff06f          	j	41000538 <trap_handler_m__clear_highest_priority_interrupt>
    410005ac:	f8dff06f          	j	41000538 <trap_handler_m__clear_highest_priority_interrupt>
    410005b0:	f89ff06f          	j	41000538 <trap_handler_m__clear_highest_priority_interrupt>
    410005b4:	f85ff06f          	j	41000538 <trap_handler_m__clear_highest_priority_interrupt>
    410005b8:	f81ff06f          	j	41000538 <trap_handler_m__clear_highest_priority_interrupt>
    410005bc:	f7dff06f          	j	41000538 <trap_handler_m__clear_highest_priority_interrupt>
    410005c0:	f79ff06f          	j	41000538 <trap_handler_m__clear_highest_priority_interrupt>
    410005c4:	f75ff06f          	j	41000538 <trap_handler_m__clear_highest_priority_interrupt>
    410005c8:	f71ff06f          	j	41000538 <trap_handler_m__clear_highest_priority_interrupt>
    410005cc:	f6dff06f          	j	41000538 <trap_handler_m__clear_highest_priority_interrupt>
    410005d0:	f69ff06f          	j	41000538 <trap_handler_m__clear_highest_priority_interrupt>
    410005d4:	f65ff06f          	j	41000538 <trap_handler_m__clear_highest_priority_interrupt>
    410005d8:	f61ff06f          	j	41000538 <trap_handler_m__clear_highest_priority_interrupt>
    410005dc:	f5dff06f          	j	41000538 <trap_handler_m__clear_highest_priority_interrupt>
    410005e0:	f59ff06f          	j	41000538 <trap_handler_m__clear_highest_priority_interrupt>
    410005e4:	f55ff06f          	j	41000538 <trap_handler_m__clear_highest_priority_interrupt>
    410005e8:	f51ff06f          	j	41000538 <trap_handler_m__clear_highest_priority_interrupt>
    410005ec:	f4dff06f          	j	41000538 <trap_handler_m__clear_highest_priority_interrupt>
    410005f0:	f49ff06f          	j	41000538 <trap_handler_m__clear_highest_priority_interrupt>
    410005f4:	f45ff06f          	j	41000538 <trap_handler_m__clear_highest_priority_interrupt>
    410005f8:	f41ff06f          	j	41000538 <trap_handler_m__clear_highest_priority_interrupt>
    410005fc:	f3dff06f          	j	41000538 <trap_handler_m__clear_highest_priority_interrupt>
    41000600:	f39ff06f          	j	41000538 <trap_handler_m__clear_highest_priority_interrupt>
    41000604:	f35ff06f          	j	41000538 <trap_handler_m__clear_highest_priority_interrupt>
    41000608:	f31ff06f          	j	41000538 <trap_handler_m__clear_highest_priority_interrupt>
    4100060c:	f2dff06f          	j	41000538 <trap_handler_m__clear_highest_priority_interrupt>
    41000610:	f29ff06f          	j	41000538 <trap_handler_m__clear_highest_priority_interrupt>
    41000614:	f25ff06f          	j	41000538 <trap_handler_m__clear_highest_priority_interrupt>
    41000618:	f21ff06f          	j	41000538 <trap_handler_m__clear_highest_priority_interrupt>
    4100061c:	f1dff06f          	j	41000538 <trap_handler_m__clear_highest_priority_interrupt>
    41000620:	f19ff06f          	j	41000538 <trap_handler_m__clear_highest_priority_interrupt>
    41000624:	f15ff06f          	j	41000538 <trap_handler_m__clear_highest_priority_interrupt>
    41000628:	f11ff06f          	j	41000538 <trap_handler_m__clear_highest_priority_interrupt>
    4100062c:	f0dff06f          	j	41000538 <trap_handler_m__clear_highest_priority_interrupt>
    41000630:	f09ff06f          	j	41000538 <trap_handler_m__clear_highest_priority_interrupt>
    41000634:	f05ff06f          	j	41000538 <trap_handler_m__clear_highest_priority_interrupt>
    41000638:	f01ff06f          	j	41000538 <trap_handler_m__clear_highest_priority_interrupt>
    4100063c:	efdff06f          	j	41000538 <trap_handler_m__clear_highest_priority_interrupt>
    41000640:	ef9ff06f          	j	41000538 <trap_handler_m__clear_highest_priority_interrupt>
    41000644:	ef5ff06f          	j	41000538 <trap_handler_m__clear_highest_priority_interrupt>

0000000041000648 <trap_handler_m__trap_handler>:
    41000648:	342022f3          	csrr	x5,mcause
    4100064c:	fff0031b          	addiw	x6,x0,-1
    41000650:	03f31313          	slli	x6,x6,0x3f
    41000654:	00537333          	and	x6,x6,x5
    41000658:	02030263          	beqz	x6,4100067c <trap_handler_m__exception_path>

000000004100065c <trap_handler_m__interrupt_handler>:
    4100065c:	fff0031b          	addiw	x6,x0,-1
    41000660:	03f31313          	slli	x6,x6,0x3f
    41000664:	0062c2b3          	xor	x5,x5,x6
    41000668:	00000317          	auipc	x6,0x0
    4100066c:	ee430313          	addi	x6,x6,-284 # 4100054c <trap_handler_m__trap_entry>
    41000670:	00229293          	slli	x5,x5,0x2
    41000674:	005302b3          	add	x5,x6,x5
    41000678:	00028067          	jr	x5 # 2000 <hart_context>

000000004100067c <trap_handler_m__exception_path>:
    4100067c:	34021273          	csrrw	x4,mscratch,x4
    41000680:	00000297          	auipc	x5,0x0
    41000684:	10828293          	addi	x5,x5,264 # 41000788 <trap_handler_m__trap_panic>
    41000688:	30529073          	csrw	mtvec,x5
    4100068c:	0040006f          	j	41000690 <trap_handler_m__excp_entry>

0000000041000690 <trap_handler_m__excp_entry>:
    41000690:	34202373          	csrr	x6,mcause
    41000694:	00800293          	li	x5,8
    41000698:	00534863          	blt	x6,x5,410006a8 <trap_handler_m__check_exception_label>
    4100069c:	00b00293          	li	x5,11
    410006a0:	0062c463          	blt	x5,x6,410006a8 <trap_handler_m__check_exception_label>
    410006a4:	a31ff06f          	j	410000d4 <syscalls__syscall_check_schedule_next_test>

00000000410006a8 <trap_handler_m__check_exception_label>:
    410006a8:	04623c23          	sd	x6,88(x4) # 58 <XLEN+0x18>
    410006ac:	341022f3          	csrr	x5,mepc
    410006b0:	02523423          	sd	x5,40(x4) # 28 <SECURE_ACCESS_PROBABILITY+0xa>
    410006b4:	01820283          	lb	x5,24(x4) # 18 <STORE_GUEST_PAGE_FAULT+0x1>
    410006b8:	00029863          	bnez	x5,410006c8 <trap_handler_m__check_excp>
    410006bc:	00128293          	addi	x5,x5,1
    410006c0:	00520c23          	sb	x5,24(x4) # 18 <STORE_GUEST_PAGE_FAULT+0x1>
    410006c4:	0980006f          	j	4100075c <trap_handler_m__ecall_from_machine>

00000000410006c8 <trap_handler_m__check_excp>:
    410006c8:	06823283          	ld	x5,104(x4) # 68 <XLEN+0x28>
    410006cc:	06023423          	sd	x0,104(x4) # 68 <XLEN+0x28>
    410006d0:	00028663          	beqz	x5,410006dc <trap_handler_m__skip_mode_check>
    410006d4:	00100393          	li	x7,1
    410006d8:	0e729463          	bne	x5,x7,410007c0 <test_failed>

00000000410006dc <trap_handler_m__skip_mode_check>:
    410006dc:	05023283          	ld	x5,80(x4) # 50 <XLEN+0x10>
    410006e0:	04023823          	sd	x0,80(x4) # 50 <XLEN+0x10>
    410006e4:	0c531e63          	bne	x6,x5,410007c0 <test_failed>
    410006e8:	03823283          	ld	x5,56(x4) # 38 <SECURE_ACCESS_PROBABILITY+0x1a>
    410006ec:	02023c23          	sd	x0,56(x4) # 38 <SECURE_ACCESS_PROBABILITY+0x1a>
    410006f0:	06029463          	bnez	x5,41000758 <trap_handler_m__skip_gva_check>
    410006f4:	02023303          	ld	x6,32(x4) # 20 <SECURE_ACCESS_PROBABILITY+0x2>
    410006f8:	02023023          	sd	x0,32(x4) # 20 <SECURE_ACCESS_PROBABILITY+0x2>
    410006fc:	02823283          	ld	x5,40(x4) # 28 <SECURE_ACCESS_PROBABILITY+0xa>
    41000700:	02023423          	sd	x0,40(x4) # 28 <SECURE_ACCESS_PROBABILITY+0xa>
    41000704:	0a531e63          	bne	x6,x5,410007c0 <test_failed>
    41000708:	04023283          	ld	x5,64(x4) # 40 <XLEN>
    4100070c:	04023023          	sd	x0,64(x4) # 40 <XLEN>
    41000710:	00028663          	beqz	x5,4100071c <trap_handler_m__skip_nonzero_tval_check>

0000000041000714 <trap_handler_m__nonzero_tval_check>:
    41000714:	34302373          	csrr	x6,mtval
    41000718:	0a531463          	bne	x6,x5,410007c0 <test_failed>

000000004100071c <trap_handler_m__skip_nonzero_tval_check>:
    4100071c:	04823283          	ld	x5,72(x4) # 48 <XLEN+0x8>
    41000720:	04023423          	sd	x0,72(x4) # 48 <XLEN+0x8>
    41000724:	00028663          	beqz	x5,41000730 <trap_handler_m__skip_nonzero_htval_check>

0000000041000728 <trap_handler_m__nonzero_htval_check>:
    41000728:	34b02373          	csrr	x6,0x34b
    4100072c:	08531a63          	bne	x6,x5,410007c0 <test_failed>

0000000041000730 <trap_handler_m__skip_nonzero_htval_check>:
    41000730:	06023283          	ld	x5,96(x4) # 60 <XLEN+0x20>
    41000734:	06023023          	sd	x0,96(x4) # 60 <XLEN+0x20>
    41000738:	02028063          	beqz	x5,41000758 <trap_handler_m__skip_gva_check>

000000004100073c <trap_handler_m__gva_check>:
    4100073c:	30002373          	csrr	x6,mstatus
    41000740:	02635313          	srli	x6,x6,0x26
    41000744:	00137313          	andi	x6,x6,1
    41000748:	06030c63          	beqz	x6,410007c0 <test_failed>
    4100074c:	0010031b          	addiw	x6,x0,1
    41000750:	02631313          	slli	x6,x6,0x26
    41000754:	30033073          	csrc	mstatus,x6

0000000041000758 <trap_handler_m__skip_gva_check>:
    41000758:	0040006f          	j	4100075c <trap_handler_m__ecall_from_machine>

000000004100075c <trap_handler_m__ecall_from_machine>:
    4100075c:	03023283          	ld	x5,48(x4) # 30 <SECURE_ACCESS_PROBABILITY+0x12>
    41000760:	02023823          	sd	x0,48(x4) # 30 <SECURE_ACCESS_PROBABILITY+0x12>
    41000764:	07023303          	ld	x6,112(x4) # 70 <XLEN+0x30>
    41000768:	06023823          	sd	x0,112(x4) # 70 <XLEN+0x30>
    4100076c:	00031463          	bnez	x6,41000774 <trap_handler_m__skip_xepc_write>
    41000770:	34129073          	csrw	mepc,x5

0000000041000774 <trap_handler_m__skip_xepc_write>:
    41000774:	00000317          	auipc	x6,0x0
    41000778:	dd830313          	addi	x6,x6,-552 # 4100054c <trap_handler_m__trap_entry>
    4100077c:	30531073          	csrw	mtvec,x6
    41000780:	34021273          	csrrw	x4,mscratch,x4
    41000784:	30200073          	mret

0000000041000788 <trap_handler_m__trap_panic>:
    41000788:	00000193          	li	x3,0
    4100078c:	2b40006f          	j	41000a40 <eot__end_test>

0000000041000790 <enter_scheduler>:
    41000790:	0002f337          	lui	x6,0x2f
    41000794:	ab73031b          	addiw	x6,x6,-1353 # 2eab7 <mem2+0x19ab7>
    41000798:	00e31313          	slli	x6,x6,0xe
    4100079c:	0de30313          	addi	x6,x6,222
    410007a0:	02628063          	beq	x5,x6,410007c0 <test_failed>
    410007a4:	00000513          	li	x10,0
    410007a8:	030000ef          	jal	410007d8 <rvcp_print_test_result>
    410007ac:	3180006f          	j	41000ac4 <scheduler__dispatch>

00000000410007b0 <test_passed>:
    410007b0:	34021273          	csrrw	x4,mscratch,x4
    410007b4:	00000513          	li	x10,0
    410007b8:	020000ef          	jal	410007d8 <rvcp_print_test_result>
    410007bc:	3080006f          	j	41000ac4 <scheduler__dispatch>

00000000410007c0 <test_failed>:
    410007c0:	34021273          	csrrw	x4,mscratch,x4
    410007c4:	00300193          	li	x3,3
    410007c8:	2780006f          	j	41000a40 <eot__end_test>

00000000410007cc <os_end_test>:
    410007cc:	34021273          	csrrw	x4,mscratch,x4
    410007d0:	00100193          	li	x3,1
    410007d4:	26c0006f          	j	41000a40 <eot__end_test>

00000000410007d8 <rvcp_print_test_result>:
    410007d8:	00050e13          	mv	x28,x10
    410007dc:	18823283          	ld	x5,392(x4) # 188 <XLEN+0x148>
    410007e0:	0010031b          	addiw	x6,x0,1
    410007e4:	02031313          	slli	x6,x6,0x20
    410007e8:	ffe30313          	addi	x6,x6,-2
    410007ec:	1c628063          	beq	x5,x6,410009ac <rvcp_print_test_result+0x1d4>
    410007f0:	0010031b          	addiw	x6,x0,1
    410007f4:	02031313          	slli	x6,x6,0x20
    410007f8:	fff30313          	addi	x6,x6,-1
    410007fc:	1a628863          	beq	x5,x6,410009ac <rvcp_print_test_result+0x1d4>
    41000800:	1a02c663          	bltz	x5,410009ac <rvcp_print_test_result+0x1d4>
    41000804:	00000317          	auipc	x6,0x0
    41000808:	3f830313          	addi	x6,x6,1016 # 41000bfc <dtest_descriptor_table>
    4100080c:	00329393          	slli	x7,x5,0x3
    41000810:	00730333          	add	x6,x6,x7
    41000814:	00033e83          	ld	x29,0(x6)
    41000818:	415fcf37          	lui	x30,0x415fc
    4100081c:	030f0f1b          	addiw	x30,x30,48 # 415fc030 <rvcp_prefix_str_pa>
    41000820:	000f4283          	lbu	x5,0(x30)
    41000824:	02028663          	beqz	x5,41000850 <rvcp_print_test_result+0x78>
    41000828:	1010031b          	addiw	x6,x0,257
    4100082c:	03031313          	slli	x6,x6,0x30
    41000830:	005362b3          	or	x5,x6,x5
    41000834:	0003f317          	auipc	x6,0x3f
    41000838:	7cc30313          	addi	x6,x6,1996 # 41040000 <tohost>
    4100083c:	00033383          	ld	x7,0(x6)
    41000840:	fe039ee3          	bnez	x7,4100083c <rvcp_print_test_result+0x64>
    41000844:	00533023          	sd	x5,0(x6)
    41000848:	001f0f13          	addi	x30,x30,1
    4100084c:	fd5ff06f          	j	41000820 <rvcp_print_test_result+0x48>
    41000850:	415fcf37          	lui	x30,0x415fc
    41000854:	041f0f1b          	addiw	x30,x30,65 # 415fc041 <rvcp_testname_str_pa>
    41000858:	000f4283          	lbu	x5,0(x30)
    4100085c:	02028663          	beqz	x5,41000888 <rvcp_print_test_result+0xb0>
    41000860:	1010031b          	addiw	x6,x0,257
    41000864:	03031313          	slli	x6,x6,0x30
    41000868:	005362b3          	or	x5,x6,x5
    4100086c:	0003f317          	auipc	x6,0x3f
    41000870:	79430313          	addi	x6,x6,1940 # 41040000 <tohost>
    41000874:	00033383          	ld	x7,0(x6)
    41000878:	fe039ee3          	bnez	x7,41000874 <rvcp_print_test_result+0x9c>
    4100087c:	00533023          	sd	x5,0(x6)
    41000880:	001f0f13          	addi	x30,x30,1
    41000884:	fd5ff06f          	j	41000858 <rvcp_print_test_result+0x80>
    41000888:	415fcf37          	lui	x30,0x415fc
    4100088c:	05bf0f1b          	addiw	x30,x30,91 # 415fc05b <rvcp_space_str_pa>
    41000890:	000f4283          	lbu	x5,0(x30)
    41000894:	02028663          	beqz	x5,410008c0 <rvcp_print_test_result+0xe8>
    41000898:	1010031b          	addiw	x6,x0,257
    4100089c:	03031313          	slli	x6,x6,0x30
    410008a0:	005362b3          	or	x5,x6,x5
    410008a4:	0003f317          	auipc	x6,0x3f
    410008a8:	75c30313          	addi	x6,x6,1884 # 41040000 <tohost>
    410008ac:	00033383          	ld	x7,0(x6)
    410008b0:	fe039ee3          	bnez	x7,410008ac <rvcp_print_test_result+0xd4>
    410008b4:	00533023          	sd	x5,0(x6)
    410008b8:	001f0f13          	addi	x30,x30,1
    410008bc:	fd5ff06f          	j	41000890 <rvcp_print_test_result+0xb8>
    410008c0:	000e8f13          	mv	x30,x29
    410008c4:	000f4283          	lbu	x5,0(x30)
    410008c8:	02028663          	beqz	x5,410008f4 <rvcp_print_test_result+0x11c>
    410008cc:	1010031b          	addiw	x6,x0,257
    410008d0:	03031313          	slli	x6,x6,0x30
    410008d4:	005362b3          	or	x5,x6,x5
    410008d8:	0003f317          	auipc	x6,0x3f
    410008dc:	72830313          	addi	x6,x6,1832 # 41040000 <tohost>
    410008e0:	00033383          	ld	x7,0(x6)
    410008e4:	fe039ee3          	bnez	x7,410008e0 <rvcp_print_test_result+0x108>
    410008e8:	00533023          	sd	x5,0(x6)
    410008ec:	001f0f13          	addi	x30,x30,1
    410008f0:	fd5ff06f          	j	410008c4 <rvcp_print_test_result+0xec>
    410008f4:	415fcf37          	lui	x30,0x415fc
    410008f8:	05bf0f1b          	addiw	x30,x30,91 # 415fc05b <rvcp_space_str_pa>
    410008fc:	000f4283          	lbu	x5,0(x30)
    41000900:	02028663          	beqz	x5,4100092c <rvcp_print_test_result+0x154>
    41000904:	1010031b          	addiw	x6,x0,257
    41000908:	03031313          	slli	x6,x6,0x30
    4100090c:	005362b3          	or	x5,x6,x5
    41000910:	0003f317          	auipc	x6,0x3f
    41000914:	6f030313          	addi	x6,x6,1776 # 41040000 <tohost>
    41000918:	00033383          	ld	x7,0(x6)
    4100091c:	fe039ee3          	bnez	x7,41000918 <rvcp_print_test_result+0x140>
    41000920:	00533023          	sd	x5,0(x6)
    41000924:	001f0f13          	addi	x30,x30,1
    41000928:	fd5ff06f          	j	410008fc <rvcp_print_test_result+0x124>
    4100092c:	000e1863          	bnez	x28,4100093c <rvcp_print_test_result+0x164>
    41000930:	415fcf37          	lui	x30,0x415fc
    41000934:	04df0f1b          	addiw	x30,x30,77 # 415fc04d <rvcp_passed_str_pa>
    41000938:	00c0006f          	j	41000944 <rvcp_print_test_result+0x16c>
    4100093c:	415fcf37          	lui	x30,0x415fc
    41000940:	054f0f1b          	addiw	x30,x30,84 # 415fc054 <rvcp_failed_str_pa>
    41000944:	000f4283          	lbu	x5,0(x30)
    41000948:	02028663          	beqz	x5,41000974 <rvcp_print_test_result+0x19c>
    4100094c:	1010031b          	addiw	x6,x0,257
    41000950:	03031313          	slli	x6,x6,0x30
    41000954:	005362b3          	or	x5,x6,x5
    41000958:	0003f317          	auipc	x6,0x3f
    4100095c:	6a830313          	addi	x6,x6,1704 # 41040000 <tohost>
    41000960:	00033383          	ld	x7,0(x6)
    41000964:	fe039ee3          	bnez	x7,41000960 <rvcp_print_test_result+0x188>
    41000968:	00533023          	sd	x5,0(x6)
    4100096c:	001f0f13          	addi	x30,x30,1
    41000970:	fd5ff06f          	j	41000944 <rvcp_print_test_result+0x16c>
    41000974:	415fcf37          	lui	x30,0x415fc
    41000978:	05df0f1b          	addiw	x30,x30,93 # 415fc05d <rvcp_newline_str_pa>
    4100097c:	000f4283          	lbu	x5,0(x30)
    41000980:	02028663          	beqz	x5,410009ac <rvcp_print_test_result+0x1d4>
    41000984:	1010031b          	addiw	x6,x0,257
    41000988:	03031313          	slli	x6,x6,0x30
    4100098c:	005362b3          	or	x5,x6,x5
    41000990:	0003f317          	auipc	x6,0x3f
    41000994:	67030313          	addi	x6,x6,1648 # 41040000 <tohost>
    41000998:	00033383          	ld	x7,0(x6)
    4100099c:	fe039ee3          	bnez	x7,41000998 <rvcp_print_test_result+0x1c0>
    410009a0:	00533023          	sd	x5,0(x6)
    410009a4:	001f0f13          	addi	x30,x30,1
    410009a8:	fd5ff06f          	j	4100097c <rvcp_print_test_result+0x1a4>
    410009ac:	00008067          	ret

00000000410009b0 <os_rng_orig>:
    410009b0:	f14023f3          	csrr	x7,mhartid
    410009b4:	00068313          	mv	x6,x13
    410009b8:	026383b3          	mul	x7,x7,x6
    410009bc:	00058313          	mv	x6,x11
    410009c0:	00730333          	add	x6,x6,x7
    410009c4:	00033283          	ld	x5,0(x6)
    410009c8:	01529313          	slli	x6,x5,0x15
    410009cc:	0062c2b3          	xor	x5,x5,x6
    410009d0:	0232d313          	srli	x6,x5,0x23
    410009d4:	0062c2b3          	xor	x5,x5,x6
    410009d8:	00429313          	slli	x6,x5,0x4
    410009dc:	0062c2b3          	xor	x5,x5,x6
    410009e0:	00058313          	mv	x6,x11
    410009e4:	00730333          	add	x6,x6,x7
    410009e8:	00533023          	sd	x5,0(x6)
    410009ec:	00060313          	mv	x6,x12
    410009f0:	0262f2b3          	remu	x5,x5,x6
    410009f4:	00028513          	mv	x10,x5
    410009f8:	00008067          	ret
    410009fc:	02a00513          	li	x10,42
    41000a00:	001965b7          	lui	x11,0x196
    41000a04:	60d5859b          	addiw	x11,x11,1549 # 19660d <mem11__pt_level1+0x7f60d>
    41000a08:	3c6ef637          	lui	x12,0x3c6ef
    41000a0c:	35f6061b          	addiw	x12,x12,863 # 3c6ef35f <mem22__pt_level1+0x22eda35f>
    41000a10:	02200693          	li	x13,34
    41000a14:	02b50533          	mul	x10,x10,x11
    41000a18:	00c50533          	add	x10,x10,x12
    41000a1c:	02d56533          	rem	x10,x10,x13
    41000a20:	00b00593          	li	x11,11
    41000a24:	02b56533          	rem	x10,x10,x11
    41000a28:	00008067          	ret
    41000a2c:	0000                	.insn	2, 0x0000
	...

0000000041000a30 <tohost_mutex>:
	...

0000000041000a38 <tohost_addr_mem>:
    41000a38:	0000                	.insn	2, 0x0000
    41000a3a:	4104                	.insn	2, 0x4104
    41000a3c:	0000                	.insn	2, 0x0000
	...

0000000041000a40 <eot__end_test>:
    41000a40:	00100293          	li	x5,1
    41000a44:	00328463          	beq	x5,x3,41000a4c <eot__passed>
    41000a48:	01c0006f          	j	41000a64 <eot__failed>

0000000041000a4c <eot__passed>:
    41000a4c:	0ff0000f          	fence
    41000a50:	00000297          	auipc	x5,0x0
    41000a54:	fe82b283          	ld	x5,-24(x5) # 41000a38 <tohost_addr_mem>
    41000a58:	00100313          	li	x6,1
    41000a5c:	0062a023          	sw	x6,0(x5)
    41000a60:	0240006f          	j	41000a84 <eot__halt>

0000000041000a64 <eot__failed>:
    41000a64:	00100513          	li	x10,1
    41000a68:	d71ff0ef          	jal	410007d8 <rvcp_print_test_result>
    41000a6c:	0ff0000f          	fence
    41000a70:	00000297          	auipc	x5,0x0
    41000a74:	fc82b283          	ld	x5,-56(x5) # 41000a38 <tohost_addr_mem>
    41000a78:	00300313          	li	x6,3
    41000a7c:	0062a023          	sw	x6,0(x5)
    41000a80:	0040006f          	j	41000a84 <eot__halt>

0000000041000a84 <eot__halt>:
    41000a84:	10500073          	wfi
    41000a88:	ffdff06f          	j	41000a84 <eot__halt>

0000000041000a8c <scheduler__init>:
    41000a8c:	00000297          	auipc	x5,0x0
    41000a90:	0bc28293          	addi	x5,x5,188 # 41000b48 <scheduler__panic>
    41000a94:	305292f3          	csrrw	x5,mtvec,x5
    41000a98:	18523023          	sd	x5,384(x4) # 180 <XLEN+0x140>
    41000a9c:	01400293          	li	x5,20
    41000aa0:	18523823          	sd	x5,400(x4) # 190 <XLEN+0x150>
    41000aa4:	0010029b          	addiw	x5,x0,1
    41000aa8:	02029293          	slli	x5,x5,0x20
    41000aac:	ffe28293          	addi	x5,x5,-2
    41000ab0:	18523423          	sd	x5,392(x4) # 188 <XLEN+0x148>
    41000ab4:	00000317          	auipc	x6,0x0
    41000ab8:	50830313          	addi	x6,x6,1288 # 41000fbc <scheduler__test_setup_ptr>
    41000abc:	00033303          	ld	x6,0(x6)
    41000ac0:	0600006f          	j	41000b20 <scheduler__execute_test>

0000000041000ac4 <scheduler__dispatch>:
    41000ac4:	00000297          	auipc	x5,0x0
    41000ac8:	08428293          	addi	x5,x5,132 # 41000b48 <scheduler__panic>
    41000acc:	305292f3          	csrrw	x5,mtvec,x5
    41000ad0:	18523023          	sd	x5,384(x4) # 180 <XLEN+0x140>

0000000041000ad4 <scheduler__csr_read_randomization>:
    41000ad4:	f13022f3          	csrr	x5,mimpid
    41000ad8:	302022f3          	csrr	x5,medeleg
    41000adc:	305022f3          	csrr	x5,mtvec
    41000ae0:	10a022f3          	csrr	x5,0x10a

0000000041000ae4 <scheduler__load_num_runs>:
    41000ae4:	19023303          	ld	x6,400(x4) # 190 <XLEN+0x150>
    41000ae8:	04030c63          	beqz	x6,41000b40 <scheduler__finished>

0000000041000aec <scheduler__decrement_num_runs>:
    41000aec:	fff30393          	addi	x7,x6,-1
    41000af0:	18723823          	sd	x7,400(x4) # 190 <XLEN+0x150>
    41000af4:	00000e17          	auipc	x28,0x0
    41000af8:	478e0e13          	addi	x28,x28,1144 # 41000f6c <dtest_index_map>
    41000afc:	00239e93          	slli	x29,x7,0x2
    41000b00:	01de0e33          	add	x28,x28,x29
    41000b04:	000e2e03          	lw	x28,0(x28)
    41000b08:	19c23423          	sd	x28,392(x4) # 188 <XLEN+0x148>

0000000041000b0c <scheduler__calc_test_pointer>:
    41000b0c:	00339293          	slli	x5,x7,0x3

0000000041000b10 <scheduler__load_test_addr>:
    41000b10:	00000317          	auipc	x6,0x0
    41000b14:	04c30313          	addi	x6,x6,76 # 41000b5c <os_test_sequence>
    41000b18:	006282b3          	add	x5,x5,x6
    41000b1c:	0002b303          	ld	x6,0(x5)

0000000041000b20 <scheduler__execute_test>:
    41000b20:	18023283          	ld	x5,384(x4) # 180 <XLEN+0x140>
    41000b24:	30529073          	csrw	mtvec,x5
    41000b28:	34021273          	csrrw	x4,mscratch,x4
    41000b2c:	00000213          	li	x4,0
    41000b30:	14131073          	csrw	sepc,x6
    41000b34:	10000293          	li	x5,256
    41000b38:	1002b073          	csrc	sstatus,x5
    41000b3c:	10200073          	sret

0000000041000b40 <scheduler__finished>:
    41000b40:	00100193          	li	x3,1
    41000b44:	efdff06f          	j	41000a40 <eot__end_test>

0000000041000b48 <scheduler__panic>:
    41000b48:	00000193          	li	x3,0
    41000b4c:	ef5ff06f          	j	41000a40 <eot__end_test>
    41000b50:	0000                	.insn	2, 0x0000
	...

0000000041000b54 <num_runs>:
    41000b54:	0014                	.insn	2, 0x0014
    41000b56:	0000                	.insn	2, 0x0000
    41000b58:	0000                	.insn	2, 0x0000
	...

0000000041000b5c <os_test_sequence>:
    41000b5c:	6568                	.insn	2, 0x6568
    41000b5e:	4101                	.insn	2, 0x4101
    41000b60:	0000                	.insn	2, 0x0000
    41000b62:	0000                	.insn	2, 0x0000
    41000b64:	5d18                	.insn	2, 0x5d18
    41000b66:	4101                	.insn	2, 0x4101
    41000b68:	0000                	.insn	2, 0x0000
    41000b6a:	0000                	.insn	2, 0x0000
    41000b6c:	5518                	.insn	2, 0x5518
    41000b6e:	4101                	.insn	2, 0x4101
    41000b70:	0000                	.insn	2, 0x0000
    41000b72:	0000                	.insn	2, 0x0000
    41000b74:	6488                	.insn	2, 0x6488
    41000b76:	4101                	.insn	2, 0x4101
    41000b78:	0000                	.insn	2, 0x0000
    41000b7a:	0000                	.insn	2, 0x0000
    41000b7c:	6530                	.insn	2, 0x6530
    41000b7e:	4101                	.insn	2, 0x4101
    41000b80:	0000                	.insn	2, 0x0000
    41000b82:	0000                	.insn	2, 0x0000
    41000b84:	5a6c                	.insn	2, 0x5a6c
    41000b86:	4101                	.insn	2, 0x4101
    41000b88:	0000                	.insn	2, 0x0000
    41000b8a:	0000                	.insn	2, 0x0000
    41000b8c:	5110                	.insn	2, 0x5110
    41000b8e:	4101                	.insn	2, 0x4101
    41000b90:	0000                	.insn	2, 0x0000
    41000b92:	0000                	.insn	2, 0x0000
    41000b94:	62cc                	.insn	2, 0x62cc
    41000b96:	4101                	.insn	2, 0x4101
    41000b98:	0000                	.insn	2, 0x0000
    41000b9a:	0000                	.insn	2, 0x0000
    41000b9c:	51a0                	.insn	2, 0x51a0
    41000b9e:	4101                	.insn	2, 0x4101
    41000ba0:	0000                	.insn	2, 0x0000
    41000ba2:	0000                	.insn	2, 0x0000
    41000ba4:	61cc                	.insn	2, 0x61cc
    41000ba6:	4101                	.insn	2, 0x4101
    41000ba8:	0000                	.insn	2, 0x0000
    41000baa:	0000                	.insn	2, 0x0000
    41000bac:	565c                	.insn	2, 0x565c
    41000bae:	4101                	.insn	2, 0x4101
    41000bb0:	0000                	.insn	2, 0x0000
    41000bb2:	0000                	.insn	2, 0x0000
    41000bb4:	5bd8                	.insn	2, 0x5bd8
    41000bb6:	4101                	.insn	2, 0x4101
    41000bb8:	0000                	.insn	2, 0x0000
    41000bba:	0000                	.insn	2, 0x0000
    41000bbc:	5fa4                	.insn	2, 0x5fa4
    41000bbe:	4101                	.insn	2, 0x4101
    41000bc0:	0000                	.insn	2, 0x0000
    41000bc2:	0000                	.insn	2, 0x0000
    41000bc4:	608c                	.insn	2, 0x608c
    41000bc6:	4101                	.insn	2, 0x4101
    41000bc8:	0000                	.insn	2, 0x0000
    41000bca:	0000                	.insn	2, 0x0000
    41000bcc:	5e88                	.insn	2, 0x5e88
    41000bce:	4101                	.insn	2, 0x4101
    41000bd0:	0000                	.insn	2, 0x0000
    41000bd2:	0000                	.insn	2, 0x0000
    41000bd4:	57d4                	.insn	2, 0x57d4
    41000bd6:	4101                	.insn	2, 0x4101
    41000bd8:	0000                	.insn	2, 0x0000
    41000bda:	0000                	.insn	2, 0x0000
    41000bdc:	527c                	.insn	2, 0x527c
    41000bde:	4101                	.insn	2, 0x4101
    41000be0:	0000                	.insn	2, 0x0000
    41000be2:	0000                	.insn	2, 0x0000
    41000be4:	584c                	.insn	2, 0x584c
    41000be6:	4101                	.insn	2, 0x4101
    41000be8:	0000                	.insn	2, 0x0000
    41000bea:	0000                	.insn	2, 0x0000
    41000bec:	51e4                	.insn	2, 0x51e4
    41000bee:	4101                	.insn	2, 0x4101
    41000bf0:	0000                	.insn	2, 0x0000
    41000bf2:	0000                	.insn	2, 0x0000
    41000bf4:	531c                	.insn	2, 0x531c
    41000bf6:	4101                	.insn	2, 0x4101
    41000bf8:	0000                	.insn	2, 0x0000
	...

0000000041000bfc <dtest_descriptor_table>:
    41000bfc:	0c94                	.insn	2, 0x0c94
    41000bfe:	4100                	.insn	2, 0x4100
    41000c00:	0000                	.insn	2, 0x0000
    41000c02:	0000                	.insn	2, 0x0000
    41000c04:	0cc1                	.insn	2, 0x0cc1
    41000c06:	4100                	.insn	2, 0x4100
    41000c08:	0000                	.insn	2, 0x0000
    41000c0a:	0000                	.insn	2, 0x0000
    41000c0c:	41000ce7          	jalr	x25,1040(x0) # 410 <XLEN+0x3d0>
    41000c10:	0000                	.insn	2, 0x0000
    41000c12:	0000                	.insn	2, 0x0000
    41000c14:	0d10                	.insn	2, 0x0d10
    41000c16:	4100                	.insn	2, 0x4100
    41000c18:	0000                	.insn	2, 0x0000
    41000c1a:	0000                	.insn	2, 0x0000
    41000c1c:	0d36                	.insn	2, 0x0d36
    41000c1e:	4100                	.insn	2, 0x4100
    41000c20:	0000                	.insn	2, 0x0000
    41000c22:	0000                	.insn	2, 0x0000
    41000c24:	0d5e                	.insn	2, 0x0d5e
    41000c26:	4100                	.insn	2, 0x4100
    41000c28:	0000                	.insn	2, 0x0000
    41000c2a:	0000                	.insn	2, 0x0000
    41000c2c:	0d88                	.insn	2, 0x0d88
    41000c2e:	4100                	.insn	2, 0x4100
    41000c30:	0000                	.insn	2, 0x0000
    41000c32:	0000                	.insn	2, 0x0000
    41000c34:	41000daf          	.insn	4, 0x41000daf
    41000c38:	0000                	.insn	2, 0x0000
    41000c3a:	0000                	.insn	2, 0x0000
    41000c3c:	0dd6                	.insn	2, 0x0dd6
    41000c3e:	4100                	.insn	2, 0x4100
    41000c40:	0000                	.insn	2, 0x0000
    41000c42:	0000                	.insn	2, 0x0000
    41000c44:	0df4                	.insn	2, 0x0df4
    41000c46:	4100                	.insn	2, 0x4100
    41000c48:	0000                	.insn	2, 0x0000
    41000c4a:	0000                	.insn	2, 0x0000
    41000c4c:	0e16                	.insn	2, 0x0e16
    41000c4e:	4100                	.insn	2, 0x4100
    41000c50:	0000                	.insn	2, 0x0000
    41000c52:	0000                	.insn	2, 0x0000
    41000c54:	41000e37          	lui	x28,0x41000
    41000c58:	0000                	.insn	2, 0x0000
    41000c5a:	0000                	.insn	2, 0x0000
    41000c5c:	0e59                	.insn	2, 0x0e59
    41000c5e:	4100                	.insn	2, 0x4100
    41000c60:	0000                	.insn	2, 0x0000
    41000c62:	0000                	.insn	2, 0x0000
    41000c64:	0e7e                	.insn	2, 0x0e7e
    41000c66:	4100                	.insn	2, 0x4100
    41000c68:	0000                	.insn	2, 0x0000
    41000c6a:	0000                	.insn	2, 0x0000
    41000c6c:	41000ea3          	sb	x16,1053(x0) # 41d <XLEN+0x3dd>
    41000c70:	0000                	.insn	2, 0x0000
    41000c72:	0000                	.insn	2, 0x0000
    41000c74:	0ec8                	.insn	2, 0x0ec8
    41000c76:	4100                	.insn	2, 0x4100
    41000c78:	0000                	.insn	2, 0x0000
    41000c7a:	0000                	.insn	2, 0x0000
    41000c7c:	41000eeb          	.insn	4, 0x41000eeb
    41000c80:	0000                	.insn	2, 0x0000
    41000c82:	0000                	.insn	2, 0x0000
    41000c84:	0f10                	.insn	2, 0x0f10
    41000c86:	4100                	.insn	2, 0x4100
    41000c88:	0000                	.insn	2, 0x0000
    41000c8a:	0000                	.insn	2, 0x0000
    41000c8c:	0f40                	.insn	2, 0x0f40
    41000c8e:	4100                	.insn	2, 0x4100
    41000c90:	0000                	.insn	2, 0x0000
	...

0000000041000c94 <dtest_name_0>:
    41000c94:	5f444953          	.insn	4, 0x5f444953
    41000c98:	4250                	.insn	2, 0x4250
    41000c9a:	4d56                	.insn	2, 0x4d56
    41000c9c:	30305f53          	.insn	4, 0x30305f53
    41000ca0:	5f31                	.insn	2, 0x5f31
    41000ca2:	7470                	.insn	2, 0x7470
    41000ca4:	6f6e5f77          	.insn	4, 0x6f6e5f77
    41000ca8:	665f 7561 746c      	.insn	6, 0x746c7561665f
    41000cae:	6c615f73          	csrrwi	x30,0x6c6,2
    41000cb2:	5f6c                	.insn	2, 0x5f6c
    41000cb4:	6361                	.insn	2, 0x6361
    41000cb6:	73736563          	bltu	x6,x23,410013e0 <__section__runtime_1+0x3e0>
    41000cba:	745f 7079 7365      	.insn	6, 0x73657079745f
	...

0000000041000cc1 <dtest_name_1>:
    41000cc1:	5f444953          	.insn	4, 0x5f444953
    41000cc5:	4250                	.insn	2, 0x4250
    41000cc7:	4d56                	.insn	2, 0x4d56
    41000cc9:	30305f53          	.insn	4, 0x30305f53
    41000ccd:	74705f33          	.insn	4, 0x74705f33
    41000cd1:	6c615f77          	.insn	4, 0x6c615f77
    41000cd5:	5f6c                	.insn	2, 0x5f6c
    41000cd7:	7270                	.insn	2, 0x7270
    41000cd9:	7669                	.insn	2, 0x7669
    41000cdb:	6c69                	.insn	2, 0x6c69
    41000cdd:	6765                	.insn	2, 0x6765
    41000cdf:	5f65                	.insn	2, 0x5f65
    41000ce1:	6f6d                	.insn	2, 0x6f6d
    41000ce3:	6564                	.insn	2, 0x6564
    41000ce5:	          	.insn	4, 0x49530073

0000000041000ce7 <dtest_name_2>:
    41000ce7:	5f444953          	.insn	4, 0x5f444953
    41000ceb:	4250                	.insn	2, 0x4250
    41000ced:	4d56                	.insn	2, 0x4d56
    41000cef:	30305f53          	.insn	4, 0x30305f53
    41000cf3:	5f36                	.insn	2, 0x5f36
    41000cf5:	7470                	.insn	2, 0x7470
    41000cf7:	61705f77          	.insn	4, 0x61705f77
    41000cfb:	625f6567          	.insn	4, 0x625f6567
    41000cff:	646e756f          	jal	x10,410e8345 <__section__code_211+0x345>
    41000d03:	7261                	.insn	2, 0x7261
    41000d05:	5f79                	.insn	2, 0x5f79
    41000d07:	736f7263          	bgeu	x30,x22,4100142b <__section__runtime_1+0x42b>
    41000d0b:	676e6973          	csrrsi	x18,0x676,28
	...

0000000041000d10 <dtest_name_3>:
    41000d10:	5f444953          	.insn	4, 0x5f444953
    41000d14:	4250                	.insn	2, 0x4250
    41000d16:	4d56                	.insn	2, 0x4d56
    41000d18:	30305f53          	.insn	4, 0x30305f53
    41000d1c:	5f38                	.insn	2, 0x5f38
    41000d1e:	6176                	.insn	2, 0x6176
    41000d20:	735f 6769 5f6e      	.insn	6, 0x5f6e6769735f
    41000d26:	7865                	.insn	2, 0x7865
    41000d28:	6574                	.insn	2, 0x6574
    41000d2a:	736e                	.insn	2, 0x736e
    41000d2c:	6f69                	.insn	2, 0x6f69
    41000d2e:	5f6e                	.insn	2, 0x5f6e
    41000d30:	6166                	.insn	2, 0x6166
    41000d32:	6c75                	.insn	2, 0x6c75
    41000d34:	0074                	.insn	2, 0x0074

0000000041000d36 <dtest_name_4>:
    41000d36:	5f444953          	.insn	4, 0x5f444953
    41000d3a:	4250                	.insn	2, 0x4250
    41000d3c:	4d56                	.insn	2, 0x4d56
    41000d3e:	30305f53          	.insn	4, 0x30305f53
    41000d42:	5f39                	.insn	2, 0x5f39
    41000d44:	65707573          	csrrci	x10,hviprio2h,0
    41000d48:	7072                	.insn	2, 0x7072
    41000d4a:	6761                	.insn	2, 0x6761
    41000d4c:	5f65                	.insn	2, 0x5f65
    41000d4e:	6c61                	.insn	2, 0x6c61
    41000d50:	6769                	.insn	2, 0x6769
    41000d52:	6d6e                	.insn	2, 0x6d6e
    41000d54:	6e65                	.insn	2, 0x6e65
    41000d56:	5f74                	.insn	2, 0x5f74
    41000d58:	6166                	.insn	2, 0x6166
    41000d5a:	6c75                	.insn	2, 0x6c75
    41000d5c:	0074                	.insn	2, 0x0074

0000000041000d5e <dtest_name_5>:
    41000d5e:	5f444953          	.insn	4, 0x5f444953
    41000d62:	4250                	.insn	2, 0x4250
    41000d64:	4d56                	.insn	2, 0x4d56
    41000d66:	31305f53          	.insn	4, 0x31305f53
    41000d6a:	5f31                	.insn	2, 0x5f31
    41000d6c:	7470                	.insn	2, 0x7470
    41000d6e:	61665f77          	.insn	4, 0x61665f77
    41000d72:	6c75                	.insn	2, 0x6c75
    41000d74:	5f74                	.insn	2, 0x5f74
    41000d76:	6f62                	.insn	2, 0x6f62
    41000d78:	6e75                	.insn	2, 0x6e75
    41000d7a:	6164                	.insn	2, 0x6164
    41000d7c:	7972                	.insn	2, 0x7972
    41000d7e:	635f 6f72 7373      	.insn	6, 0x73736f72635f
    41000d84:	6e69                	.insn	2, 0x6e69
    41000d86:	          	jr	1173(x6)

0000000041000d88 <dtest_name_6>:
    41000d88:	5f444953          	.insn	4, 0x5f444953
    41000d8c:	4250                	.insn	2, 0x4250
    41000d8e:	4d56                	.insn	2, 0x4d56
    41000d90:	31305f53          	.insn	4, 0x31305f53
    41000d94:	5f32                	.insn	2, 0x5f32
    41000d96:	7470                	.insn	2, 0x7470
    41000d98:	61665f77          	.insn	4, 0x61665f77
    41000d9c:	6c75                	.insn	2, 0x6c75
    41000d9e:	5f74                	.insn	2, 0x5f74
    41000da0:	7270                	.insn	2, 0x7270
    41000da2:	6f69                	.insn	2, 0x6f69
    41000da4:	6972                	.insn	2, 0x6972
    41000da6:	6974                	.insn	2, 0x6974
    41000da8:	617a                	.insn	2, 0x617a
    41000daa:	6974                	.insn	2, 0x6974
    41000dac:	          	jal	x28,410072dc <__section__runtime_7+0x2dc>

0000000041000daf <dtest_name_7>:
    41000daf:	5f444953          	.insn	4, 0x5f444953
    41000db3:	4250                	.insn	2, 0x4250
    41000db5:	4d56                	.insn	2, 0x4d56
    41000db7:	31305f53          	.insn	4, 0x31305f53
    41000dbb:	74705f33          	.insn	4, 0x74705f33
    41000dbf:	65705f77          	.insn	4, 0x65705f77
    41000dc3:	6d72                	.insn	2, 0x6d72
    41000dc5:	7369                	.insn	2, 0x7369
    41000dc7:	6e6f6973          	csrrsi	x18,0x6e6,30
    41000dcb:	655f 636e 646f      	.insn	6, 0x646f636e655f
    41000dd1:	6e69                	.insn	2, 0x6e69
    41000dd3:	          	.insn	4, 0x53007367

0000000041000dd6 <dtest_name_8>:
    41000dd6:	5f444953          	.insn	4, 0x5f444953
    41000dda:	4250                	.insn	2, 0x4250
    41000ddc:	4d56                	.insn	2, 0x4d56
    41000dde:	31305f53          	.insn	4, 0x31305f53
    41000de2:	5f34                	.insn	2, 0x5f34
    41000de4:	736d                	.insn	2, 0x736d
    41000de6:	6174                	.insn	2, 0x6174
    41000de8:	7574                	.insn	2, 0x7574
    41000dea:	75735f73          	csrrwi	x30,0x757,6
    41000dee:	5f6d                	.insn	2, 0x5f6d
    41000df0:	786d                	.insn	2, 0x786d
    41000df2:	0072                	.insn	2, 0x0072

0000000041000df4 <dtest_name_9>:
    41000df4:	5f444953          	.insn	4, 0x5f444953
    41000df8:	4250                	.insn	2, 0x4250
    41000dfa:	4d56                	.insn	2, 0x4d56
    41000dfc:	31305f53          	.insn	4, 0x31305f53
    41000e00:	5f35                	.insn	2, 0x5f35
    41000e02:	626f6c67          	.insn	4, 0x626f6c67
    41000e06:	6c61                	.insn	2, 0x6c61
    41000e08:	625f 7469 685f      	.insn	6, 0x685f7469625f
    41000e0e:	756f6e6f          	jal	x28,410f7564 <__section__code_226+0x564>
    41000e12:	6572                	.insn	2, 0x6572
    41000e14:	0064                	.insn	2, 0x0064

0000000041000e16 <dtest_name_10>:
    41000e16:	5f444953          	.insn	4, 0x5f444953
    41000e1a:	4250                	.insn	2, 0x4250
    41000e1c:	4d56                	.insn	2, 0x4d56
    41000e1e:	31305f53          	.insn	4, 0x31305f53
    41000e22:	6c675f37          	lui	x30,0x6c675
    41000e26:	6c61626f          	jal	x4,410174ec <__section__code_2+0x4ec>
    41000e2a:	615f 5f74 6f6e      	.insn	6, 0x6f6e5f74615f
    41000e30:	5f6e                	.insn	2, 0x5f6e
    41000e32:	656c                	.insn	2, 0x656c
    41000e34:	6661                	.insn	2, 0x6661
	...

0000000041000e37 <dtest_name_11>:
    41000e37:	5f444953          	.insn	4, 0x5f444953
    41000e3b:	4250                	.insn	2, 0x4250
    41000e3d:	4d56                	.insn	2, 0x4d56
    41000e3f:	31305f53          	.insn	4, 0x31305f53
    41000e43:	5f38                	.insn	2, 0x5f38
    41000e45:	7372                	.insn	2, 0x7372
    41000e47:	69665f77          	.insn	4, 0x69665f77
    41000e4b:	6c65                	.insn	2, 0x6c65
    41000e4d:	7364                	.insn	2, 0x7364
    41000e4f:	775f 6972 6174      	.insn	6, 0x61746972775f
    41000e55:	6c62                	.insn	2, 0x6c62
    41000e57:	0065                	.insn	2, 0x0065

0000000041000e59 <dtest_name_12>:
    41000e59:	5f444953          	.insn	4, 0x5f444953
    41000e5d:	4250                	.insn	2, 0x4250
    41000e5f:	4d56                	.insn	2, 0x4d56
    41000e61:	32305f53          	.insn	4, 0x32305f53
    41000e65:	5f31                	.insn	2, 0x5f31
    41000e67:	70746173          	csrrsi	x2,0x707,8
    41000e6b:	765f 6c61 6469      	.insn	6, 0x64696c61765f
    41000e71:	745f 5f6f 6572      	.insn	6, 0x65725f6f745f
    41000e77:	76726573          	csrrsi	x10,0x767,4
    41000e7b:	6465                	.insn	2, 0x6465
	...

0000000041000e7e <dtest_name_13>:
    41000e7e:	5f444953          	.insn	4, 0x5f444953
    41000e82:	4250                	.insn	2, 0x4250
    41000e84:	4d56                	.insn	2, 0x4d56
    41000e86:	32305f53          	.insn	4, 0x32305f53
    41000e8a:	5f32                	.insn	2, 0x5f32
    41000e8c:	70746173          	csrrsi	x2,0x707,8
    41000e90:	635f 7273 615f      	.insn	6, 0x615f7273635f
    41000e96:	73656363          	bltu	x10,x22,410015bc <__section__runtime_1+0x5bc>
    41000e9a:	69626973          	csrrsi	x18,0x696,4
    41000e9e:	696c                	.insn	2, 0x696c
    41000ea0:	7974                	.insn	2, 0x7974
	...

0000000041000ea3 <dtest_name_14>:
    41000ea3:	5f444953          	.insn	4, 0x5f444953
    41000ea7:	4250                	.insn	2, 0x4250
    41000ea9:	4d56                	.insn	2, 0x4d56
    41000eab:	32305f53          	.insn	4, 0x32305f53
    41000eaf:	61735f33          	ror	x30,x6,x23
    41000eb3:	7074                	.insn	2, 0x7074
    41000eb5:	615f 6973 6c64      	.insn	6, 0x6c646973615f
    41000ebb:	6e65                	.insn	2, 0x6e65
    41000ebd:	645f 7369 6f63      	.insn	6, 0x6f637369645f
    41000ec3:	6576                	.insn	2, 0x6576
    41000ec5:	7972                	.insn	2, 0x7972
	...

0000000041000ec8 <dtest_name_15>:
    41000ec8:	5f444953          	.insn	4, 0x5f444953
    41000ecc:	4250                	.insn	2, 0x4250
    41000ece:	4d56                	.insn	2, 0x4d56
    41000ed0:	32305f53          	.insn	4, 0x32305f53
    41000ed4:	61735f37          	lui	x30,0x61735
    41000ed8:	7074                	.insn	2, 0x7074
    41000eda:	755f 6573 5f72      	.insn	6, 0x5f726573755f
    41000ee0:	6f6d                	.insn	2, 0x6f6d
    41000ee2:	6564                	.insn	2, 0x6564
    41000ee4:	665f 7561 746c      	.insn	6, 0x746c7561665f
	...

0000000041000eeb <dtest_name_16>:
    41000eeb:	5f444953          	.insn	4, 0x5f444953
    41000eef:	4250                	.insn	2, 0x4250
    41000ef1:	4d56                	.insn	2, 0x4d56
    41000ef3:	34305f53          	.insn	4, 0x34305f53
    41000ef7:	5f30                	.insn	2, 0x5f30
    41000ef9:	746e6f63          	bltu	x28,x6,41001657 <__section__runtime_1+0x657>
    41000efd:	7865                	.insn	2, 0x7865
    41000eff:	5f74                	.insn	2, 0x5f74
    41000f01:	6174                	.insn	2, 0x6174
    41000f03:	6c62                	.insn	2, 0x6c62
    41000f05:	5f65                	.insn	2, 0x5f65
    41000f07:	7265766f          	jal	x12,4105862d <__section__code_67+0x62d>
    41000f0b:	6c66                	.insn	2, 0x6c66
    41000f0d:	          	jal	x14,4100843d <__section__runtime_8+0x43d>

0000000041000f10 <dtest_name_17>:
    41000f10:	5f444953          	.insn	4, 0x5f444953
    41000f14:	4250                	.insn	2, 0x4250
    41000f16:	4d56                	.insn	2, 0x4d56
    41000f18:	34305f53          	.insn	4, 0x34305f53
    41000f1c:	5f32                	.insn	2, 0x5f32
    41000f1e:	6f6e6163          	bltu	x28,x22,41001600 <__section__runtime_1+0x600>
    41000f22:	696e                	.insn	2, 0x696e
    41000f24:	5f6c6163          	bltu	x24,x22,41001506 <__section__runtime_1+0x506>
    41000f28:	6f62                	.insn	2, 0x6f62
    41000f2a:	6e75                	.insn	2, 0x6e75
    41000f2c:	6164                	.insn	2, 0x6164
    41000f2e:	7972                	.insn	2, 0x7972
    41000f30:	635f 6f72 7373      	.insn	6, 0x73736f72635f
    41000f36:	6e69                	.insn	2, 0x6e69
    41000f38:	61665f67          	.insn	4, 0x61665f67
    41000f3c:	6c75                	.insn	2, 0x6c75
    41000f3e:	0074                	.insn	2, 0x0074

0000000041000f40 <dtest_name_18>:
    41000f40:	5f444953          	.insn	4, 0x5f444953
    41000f44:	4250                	.insn	2, 0x4250
    41000f46:	4d56                	.insn	2, 0x4d56
    41000f48:	34305f53          	.insn	4, 0x34305f53
    41000f4c:	65665f33          	.insn	4, 0x65665f33
    41000f50:	6374                	.insn	2, 0x6374
    41000f52:	5f68                	.insn	2, 0x5f68
    41000f54:	646e6977          	.insn	4, 0x646e6977
    41000f58:	735f776f          	jal	x14,410f8e8c <__section__code_227+0xe8c>
    41000f5c:	6970                	.insn	2, 0x6970
    41000f5e:	6c6c                	.insn	2, 0x6c6c
    41000f60:	705f 6761 5f65      	.insn	6, 0x5f656761705f
    41000f66:	736f7263          	bgeu	x30,x22,4100168a <__section__runtime_1+0x68a>
    41000f6a:	          	.insn	4, 0xffff0073

0000000041000f6c <dtest_index_map>:
    41000f6c:	ffff                	.insn	2, 0xffff
    41000f6e:	ffff                	.insn	2, 0xffff
    41000f70:	0000000b          	.insn	4, 0x000b
    41000f74:	0005                	.insn	2, 0x0005
    41000f76:	0000                	.insn	2, 0x0000
    41000f78:	0011                	.insn	2, 0x0011
    41000f7a:	0000                	.insn	2, 0x0000
    41000f7c:	0012                	.insn	2, 0x0012
    41000f7e:	0000                	.insn	2, 0x0000
    41000f80:	0009                	.insn	2, 0x0009
    41000f82:	0000                	.insn	2, 0x0000
    41000f84:	0000                	.insn	2, 0x0000
    41000f86:	0000                	.insn	2, 0x0000
    41000f88:	0010                	.insn	2, 0x0010
    41000f8a:	0000                	.insn	2, 0x0000
    41000f8c:	0001                	.insn	2, 0x0001
    41000f8e:	0000                	.insn	2, 0x0000
    41000f90:	0000000f          	fence	unknown,unknown
    41000f94:	0006                	.insn	2, 0x0006
    41000f96:	0000                	.insn	2, 0x0000
    41000f98:	000a                	.insn	2, 0x000a
    41000f9a:	0000                	.insn	2, 0x0000
    41000f9c:	000d                	.insn	2, 0x000d
    41000f9e:	0000                	.insn	2, 0x0000
    41000fa0:	000e                	.insn	2, 0x000e
    41000fa2:	0000                	.insn	2, 0x0000
    41000fa4:	000c                	.insn	2, 0x000c
    41000fa6:	0000                	.insn	2, 0x0000
    41000fa8:	00000007          	vle8.v	v0,(x0),v0.t
    41000fac:	00000003          	lb	x0,0(x0) # 0 <ALL_4KB_PAGES>
    41000fb0:	0008                	.insn	2, 0x0008
    41000fb2:	0000                	.insn	2, 0x0000
    41000fb4:	0002                	.insn	2, 0x0002
    41000fb6:	0000                	.insn	2, 0x0000
    41000fb8:	0004                	.insn	2, 0x0004
	...

0000000041000fbc <scheduler__test_setup_ptr>:
    41000fbc:	5100                	.insn	2, 0x5100
    41000fbe:	4101                	.insn	2, 0x4101
    41000fc0:	0000                	.insn	2, 0x0000
	...

0000000041000fc4 <scheduler__test_cleanup_ptr>:
    41000fc4:	6568                	.insn	2, 0x6568
    41000fc6:	4101                	.insn	2, 0x4101
    41000fc8:	0000                	.insn	2, 0x0000
	...

Disassembly of section .runtime_s:

0000000041011000 <trap_handler_s__invalid_interrupt>:
    41011000:	1740006f          	j	41011174 <trap_handler_s__test_failed>

0000000041011004 <trap_handler_s__clear_all_interrupts>:
    41011004:	14401073          	csrw	sip,x0
    41011008:	10200073          	sret

000000004101100c <trap_handler_s___CLEAR_SSI>:
    4101100c:	00200293          	li	x5,2
    41011010:	1442b073          	csrc	sip,x5
    41011014:	10200073          	sret

0000000041011018 <trap_handler_s___CLEAR_MSI>:
    41011018:	00800293          	li	x5,8
    4101101c:	1442b073          	csrc	sip,x5
    41011020:	10200073          	sret

0000000041011024 <trap_handler_s___CLEAR_STI>:
    41011024:	02000293          	li	x5,32
    41011028:	1442b073          	csrc	sip,x5
    4101102c:	10200073          	sret

0000000041011030 <trap_handler_s___CLEAR_MTI>:
    41011030:	08000293          	li	x5,128
    41011034:	1442b073          	csrc	sip,x5
    41011038:	10200073          	sret

000000004101103c <trap_handler_s___CLEAR_SEI>:
    4101103c:	20000293          	li	x5,512
    41011040:	1442b073          	csrc	sip,x5
    41011044:	10200073          	sret

0000000041011048 <trap_handler_s___CLEAR_MEI>:
    41011048:	000012b7          	lui	x5,0x1
    4101104c:	8002829b          	addiw	x5,x5,-2048 # 800 <XLEN+0x7c0>
    41011050:	1442b073          	csrc	sip,x5
    41011054:	10200073          	sret

0000000041011058 <trap_handler_s___CLEAR_COI>:
    41011058:	000022b7          	lui	x5,0x2
    4101105c:	1442b073          	csrc	sip,x5
    41011060:	10200073          	sret

0000000041011064 <trap_handler_s__clear_highest_priority_interrupt>:
    41011064:	144022f3          	csrr	x5,sip
    41011068:	40500333          	neg	x6,x5
    4101106c:	0062f2b3          	and	x5,x5,x6
    41011070:	1442b073          	csrc	sip,x5
    41011074:	10200073          	sret

0000000041011078 <trap_handler_s__trap_entry>:
    41011078:	10c0006f          	j	41011184 <trap_handler_s__trap_handler>

000000004101107c <trap_handler_s__interrupt_vector_table>:
    4101107c:	f91ff06f          	j	4101100c <trap_handler_s___CLEAR_SSI>
    41011080:	f81ff06f          	j	41011000 <trap_handler_s__invalid_interrupt>
    41011084:	f95ff06f          	j	41011018 <trap_handler_s___CLEAR_MSI>
    41011088:	f79ff06f          	j	41011000 <trap_handler_s__invalid_interrupt>
    4101108c:	f99ff06f          	j	41011024 <trap_handler_s___CLEAR_STI>
    41011090:	f71ff06f          	j	41011000 <trap_handler_s__invalid_interrupt>
    41011094:	f9dff06f          	j	41011030 <trap_handler_s___CLEAR_MTI>
    41011098:	f69ff06f          	j	41011000 <trap_handler_s__invalid_interrupt>
    4101109c:	fa1ff06f          	j	4101103c <trap_handler_s___CLEAR_SEI>
    410110a0:	f61ff06f          	j	41011000 <trap_handler_s__invalid_interrupt>
    410110a4:	fa5ff06f          	j	41011048 <trap_handler_s___CLEAR_MEI>
    410110a8:	f59ff06f          	j	41011000 <trap_handler_s__invalid_interrupt>
    410110ac:	fadff06f          	j	41011058 <trap_handler_s___CLEAR_COI>
    410110b0:	f51ff06f          	j	41011000 <trap_handler_s__invalid_interrupt>
    410110b4:	f4dff06f          	j	41011000 <trap_handler_s__invalid_interrupt>
    410110b8:	fadff06f          	j	41011064 <trap_handler_s__clear_highest_priority_interrupt>
    410110bc:	fa9ff06f          	j	41011064 <trap_handler_s__clear_highest_priority_interrupt>
    410110c0:	fa5ff06f          	j	41011064 <trap_handler_s__clear_highest_priority_interrupt>
    410110c4:	fa1ff06f          	j	41011064 <trap_handler_s__clear_highest_priority_interrupt>
    410110c8:	f9dff06f          	j	41011064 <trap_handler_s__clear_highest_priority_interrupt>
    410110cc:	f99ff06f          	j	41011064 <trap_handler_s__clear_highest_priority_interrupt>
    410110d0:	f95ff06f          	j	41011064 <trap_handler_s__clear_highest_priority_interrupt>
    410110d4:	f91ff06f          	j	41011064 <trap_handler_s__clear_highest_priority_interrupt>
    410110d8:	f8dff06f          	j	41011064 <trap_handler_s__clear_highest_priority_interrupt>
    410110dc:	f89ff06f          	j	41011064 <trap_handler_s__clear_highest_priority_interrupt>
    410110e0:	f85ff06f          	j	41011064 <trap_handler_s__clear_highest_priority_interrupt>
    410110e4:	f81ff06f          	j	41011064 <trap_handler_s__clear_highest_priority_interrupt>
    410110e8:	f7dff06f          	j	41011064 <trap_handler_s__clear_highest_priority_interrupt>
    410110ec:	f79ff06f          	j	41011064 <trap_handler_s__clear_highest_priority_interrupt>
    410110f0:	f75ff06f          	j	41011064 <trap_handler_s__clear_highest_priority_interrupt>
    410110f4:	f71ff06f          	j	41011064 <trap_handler_s__clear_highest_priority_interrupt>
    410110f8:	f6dff06f          	j	41011064 <trap_handler_s__clear_highest_priority_interrupt>
    410110fc:	f69ff06f          	j	41011064 <trap_handler_s__clear_highest_priority_interrupt>
    41011100:	f65ff06f          	j	41011064 <trap_handler_s__clear_highest_priority_interrupt>
    41011104:	f61ff06f          	j	41011064 <trap_handler_s__clear_highest_priority_interrupt>
    41011108:	f5dff06f          	j	41011064 <trap_handler_s__clear_highest_priority_interrupt>
    4101110c:	f59ff06f          	j	41011064 <trap_handler_s__clear_highest_priority_interrupt>
    41011110:	f55ff06f          	j	41011064 <trap_handler_s__clear_highest_priority_interrupt>
    41011114:	f51ff06f          	j	41011064 <trap_handler_s__clear_highest_priority_interrupt>
    41011118:	f4dff06f          	j	41011064 <trap_handler_s__clear_highest_priority_interrupt>
    4101111c:	f49ff06f          	j	41011064 <trap_handler_s__clear_highest_priority_interrupt>
    41011120:	f45ff06f          	j	41011064 <trap_handler_s__clear_highest_priority_interrupt>
    41011124:	f41ff06f          	j	41011064 <trap_handler_s__clear_highest_priority_interrupt>
    41011128:	f3dff06f          	j	41011064 <trap_handler_s__clear_highest_priority_interrupt>
    4101112c:	f39ff06f          	j	41011064 <trap_handler_s__clear_highest_priority_interrupt>
    41011130:	f35ff06f          	j	41011064 <trap_handler_s__clear_highest_priority_interrupt>
    41011134:	f31ff06f          	j	41011064 <trap_handler_s__clear_highest_priority_interrupt>
    41011138:	f2dff06f          	j	41011064 <trap_handler_s__clear_highest_priority_interrupt>
    4101113c:	f29ff06f          	j	41011064 <trap_handler_s__clear_highest_priority_interrupt>
    41011140:	f25ff06f          	j	41011064 <trap_handler_s__clear_highest_priority_interrupt>
    41011144:	f21ff06f          	j	41011064 <trap_handler_s__clear_highest_priority_interrupt>
    41011148:	f1dff06f          	j	41011064 <trap_handler_s__clear_highest_priority_interrupt>
    4101114c:	f19ff06f          	j	41011064 <trap_handler_s__clear_highest_priority_interrupt>
    41011150:	f15ff06f          	j	41011064 <trap_handler_s__clear_highest_priority_interrupt>
    41011154:	f11ff06f          	j	41011064 <trap_handler_s__clear_highest_priority_interrupt>
    41011158:	f0dff06f          	j	41011064 <trap_handler_s__clear_highest_priority_interrupt>
    4101115c:	f09ff06f          	j	41011064 <trap_handler_s__clear_highest_priority_interrupt>
    41011160:	f05ff06f          	j	41011064 <trap_handler_s__clear_highest_priority_interrupt>
    41011164:	f01ff06f          	j	41011064 <trap_handler_s__clear_highest_priority_interrupt>
    41011168:	efdff06f          	j	41011064 <trap_handler_s__clear_highest_priority_interrupt>
    4101116c:	ef9ff06f          	j	41011064 <trap_handler_s__clear_highest_priority_interrupt>
    41011170:	ef5ff06f          	j	41011064 <trap_handler_s__clear_highest_priority_interrupt>

0000000041011174 <trap_handler_s__test_failed>:
    41011174:	00f00f9b          	addiw	x31,x0,15
    41011178:	01cf9f93          	slli	x31,x31,0x1c
    4101117c:	002f8f93          	addi	x31,x31,2
    41011180:	00000073          	ecall

0000000041011184 <trap_handler_s__trap_handler>:
    41011184:	142022f3          	csrr	x5,scause
    41011188:	fff0031b          	addiw	x6,x0,-1
    4101118c:	03f31313          	slli	x6,x6,0x3f
    41011190:	00537333          	and	x6,x6,x5
    41011194:	02030263          	beqz	x6,410111b8 <trap_handler_s__exception_path>

0000000041011198 <trap_handler_s__interrupt_handler>:
    41011198:	fff0031b          	addiw	x6,x0,-1
    4101119c:	03f31313          	slli	x6,x6,0x3f
    410111a0:	0062c2b3          	xor	x5,x5,x6
    410111a4:	00000317          	auipc	x6,0x0
    410111a8:	ed430313          	addi	x6,x6,-300 # 41011078 <trap_handler_s__trap_entry>
    410111ac:	00229293          	slli	x5,x5,0x2
    410111b0:	005302b3          	add	x5,x6,x5
    410111b4:	00028067          	jr	x5 # 2000 <hart_context>

00000000410111b8 <trap_handler_s__exception_path>:
    410111b8:	14021273          	csrrw	x4,sscratch,x4
    410111bc:	00000297          	auipc	x5,0x0
    410111c0:	0cc28293          	addi	x5,x5,204 # 41011288 <trap_handler_s__trap_panic>
    410111c4:	10529073          	csrw	stvec,x5
    410111c8:	0040006f          	j	410111cc <trap_handler_s__excp_entry>

00000000410111cc <trap_handler_s__excp_entry>:
    410111cc:	14202373          	csrr	x6,scause
    410111d0:	00800293          	li	x5,8
    410111d4:	00534863          	blt	x6,x5,410111e4 <trap_handler_s__check_exception_label>
    410111d8:	00b00293          	li	x5,11
    410111dc:	0062c463          	blt	x5,x6,410111e4 <trap_handler_s__check_exception_label>
    410111e0:	0a80006f          	j	41011288 <trap_handler_s__trap_panic>

00000000410111e4 <trap_handler_s__check_exception_label>:
    410111e4:	04623c23          	sd	x6,88(x4) # 58 <XLEN+0x18>
    410111e8:	141022f3          	csrr	x5,sepc
    410111ec:	02523423          	sd	x5,40(x4) # 28 <SECURE_ACCESS_PROBABILITY+0xa>
    410111f0:	01820283          	lb	x5,24(x4) # 18 <STORE_GUEST_PAGE_FAULT+0x1>
    410111f4:	00029863          	bnez	x5,41011204 <trap_handler_s__check_excp>
    410111f8:	00128293          	addi	x5,x5,1
    410111fc:	00520c23          	sb	x5,24(x4) # 18 <STORE_GUEST_PAGE_FAULT+0x1>
    41011200:	05c0006f          	j	4101125c <trap_handler_s__ecall_from_machine>

0000000041011204 <trap_handler_s__check_excp>:
    41011204:	06823283          	ld	x5,104(x4) # 68 <XLEN+0x28>
    41011208:	06023423          	sd	x0,104(x4) # 68 <XLEN+0x28>
    4101120c:	00028663          	beqz	x5,41011218 <trap_handler_s__skip_mode_check>
    41011210:	00300393          	li	x7,3
    41011214:	f67290e3          	bne	x5,x7,41011174 <trap_handler_s__test_failed>

0000000041011218 <trap_handler_s__skip_mode_check>:
    41011218:	05023283          	ld	x5,80(x4) # 50 <XLEN+0x10>
    4101121c:	04023823          	sd	x0,80(x4) # 50 <XLEN+0x10>
    41011220:	f4531ae3          	bne	x6,x5,41011174 <trap_handler_s__test_failed>
    41011224:	03823283          	ld	x5,56(x4) # 38 <SECURE_ACCESS_PROBABILITY+0x1a>
    41011228:	02023c23          	sd	x0,56(x4) # 38 <SECURE_ACCESS_PROBABILITY+0x1a>
    4101122c:	02029663          	bnez	x5,41011258 <trap_handler_s__skip_nonzero_tval_check>
    41011230:	02023303          	ld	x6,32(x4) # 20 <SECURE_ACCESS_PROBABILITY+0x2>
    41011234:	02023023          	sd	x0,32(x4) # 20 <SECURE_ACCESS_PROBABILITY+0x2>
    41011238:	02823283          	ld	x5,40(x4) # 28 <SECURE_ACCESS_PROBABILITY+0xa>
    4101123c:	02023423          	sd	x0,40(x4) # 28 <SECURE_ACCESS_PROBABILITY+0xa>
    41011240:	f2531ae3          	bne	x6,x5,41011174 <trap_handler_s__test_failed>
    41011244:	04023283          	ld	x5,64(x4) # 40 <XLEN>
    41011248:	04023023          	sd	x0,64(x4) # 40 <XLEN>
    4101124c:	00028663          	beqz	x5,41011258 <trap_handler_s__skip_nonzero_tval_check>

0000000041011250 <trap_handler_s__nonzero_tval_check>:
    41011250:	14302373          	csrr	x6,stval
    41011254:	f25310e3          	bne	x6,x5,41011174 <trap_handler_s__test_failed>

0000000041011258 <trap_handler_s__skip_nonzero_tval_check>:
    41011258:	0040006f          	j	4101125c <trap_handler_s__ecall_from_machine>

000000004101125c <trap_handler_s__ecall_from_machine>:
    4101125c:	03023283          	ld	x5,48(x4) # 30 <SECURE_ACCESS_PROBABILITY+0x12>
    41011260:	02023823          	sd	x0,48(x4) # 30 <SECURE_ACCESS_PROBABILITY+0x12>
    41011264:	07023303          	ld	x6,112(x4) # 70 <XLEN+0x30>
    41011268:	06023823          	sd	x0,112(x4) # 70 <XLEN+0x30>
    4101126c:	00031463          	bnez	x6,41011274 <trap_handler_s__skip_xepc_write>
    41011270:	14129073          	csrw	sepc,x5

0000000041011274 <trap_handler_s__skip_xepc_write>:
    41011274:	00000317          	auipc	x6,0x0
    41011278:	e0430313          	addi	x6,x6,-508 # 41011078 <trap_handler_s__trap_entry>
    4101127c:	10531073          	csrw	stvec,x6
    41011280:	14021273          	csrrw	x4,sscratch,x4
    41011284:	10200073          	sret

0000000041011288 <trap_handler_s__trap_panic>:
    41011288:	00000193          	li	x3,0
    4101128c:	00f00f9b          	addiw	x31,x0,15
    41011290:	01cf9f93          	slli	x31,x31,0x1c
    41011294:	002f8f93          	addi	x31,x31,2
    41011298:	00000073          	ecall

Disassembly of section .code:

00000000410150d0 <passed>:
    410150d0:	00f00f9b          	addiw	x31,x0,15
    410150d4:	01cf9f93          	slli	x31,x31,0x1c
    410150d8:	001f8f93          	addi	x31,x31,1
    410150dc:	00000073          	ecall

00000000410150e0 <failed>:
    410150e0:	00f00f9b          	addiw	x31,x0,15
    410150e4:	01cf9f93          	slli	x31,x31,0x1c
    410150e8:	002f8f93          	addi	x31,x31,2
    410150ec:	00000073          	ecall

00000000410150f0 <end_test>:
    410150f0:	00f00f9b          	addiw	x31,x0,15
    410150f4:	01cf9f93          	slli	x31,x31,0x1c
    410150f8:	003f8f93          	addi	x31,x31,3
    410150fc:	00000073          	ecall

0000000041015100 <test_setup>:
    41015100:	00f00f9b          	addiw	x31,x0,15
    41015104:	01cf9f93          	slli	x31,x31,0x1c
    41015108:	001f8f93          	addi	x31,x31,1
    4101510c:	00000073          	ecall

0000000041015110 <SID_PBVMS_001_ptw_no_faults_all_access_types>:
    41015110:	03972137          	lui	x2,0x3972
    41015114:	000012b7          	lui	x5,0x1
    41015118:	00510133          	add	x2,x2,x5
    4101511c:	ff017113          	andi	x2,x2,-16
    41015120:	0003b3b7          	lui	x7,0x3b
    41015124:	2af3839b          	addiw	x7,x7,687 # 3b2af <mem9__pt_level3+0xac7>
    41015128:	00f39393          	slli	x7,x7,0xf
    4101512c:	b6338393          	addi	x7,x7,-1181
    41015130:	00c39393          	slli	x7,x7,0xc
    41015134:	0003a807          	flw	f16,0(x7)
    41015138:	0003b737          	lui	x14,0x3b
    4101513c:	2af7071b          	addiw	x14,x14,687 # 3b2af <mem9__pt_level3+0xac7>
    41015140:	00f71713          	slli	x14,x14,0xf
    41015144:	b6370713          	addi	x14,x14,-1181
    41015148:	00c71713          	slli	x14,x14,0xc
    4101514c:	0004bfb7          	lui	x31,0x4b
    41015150:	647f8f9b          	addiw	x31,x31,1607 # 4b647 <pma_region_0_size+0xb647>
    41015154:	00df9f93          	slli	x31,x31,0xd
    41015158:	a1cf8f93          	addi	x31,x31,-1508
    4101515c:	01f72023          	sw	x31,0(x14)
    41015160:	0003bfb7          	lui	x31,0x3b
    41015164:	2aff8f9b          	addiw	x31,x31,687 # 3b2af <mem9__pt_level3+0xac7>
    41015168:	00ff9f93          	slli	x31,x31,0xf
    4101516c:	b63f8f93          	addi	x31,x31,-1181
    41015170:	00cf9f93          	slli	x31,x31,0xc
    41015174:	00000a13          	li	x20,0
    41015178:	014f8b33          	add	x22,x31,x20
    4101517c:	000b23af          	amoadd.w	x7,x0,(x22)
    41015180:	575a6637          	lui	x12,0x575a6
    41015184:	3276061b          	addiw	x12,x12,807 # 575a6327 <SID_PBVMS_018_rsw_fields_writable_stack+0x10de9327>
    41015188:	00f61613          	slli	x12,x12,0xf
    4101518c:	000600e7          	jalr	x12

0000000041015190 <SID_PBVMS_001_ptw_no_faults_all_access_types_passed>:
    41015190:	00f00f9b          	addiw	x31,x0,15
    41015194:	01cf9f93          	slli	x31,x31,0x1c
    41015198:	001f8f93          	addi	x31,x31,1
    4101519c:	00000073          	ecall

00000000410151a0 <SID_PBVMS_003_ptw_all_privilege_modes>:
    410151a0:	005d5137          	lui	x2,0x5d5
    410151a4:	000012b7          	lui	x5,0x1
    410151a8:	00510133          	add	x2,x2,x5
    410151ac:	ff017113          	andi	x2,x2,-16
    410151b0:	00015437          	lui	x8,0x15
    410151b4:	00042a83          	lw	x21,0(x8) # 15000 <mem2>
    410151b8:	00015eb7          	lui	x29,0x15
    410151bc:	00038c37          	lui	x24,0x38
    410151c0:	7ebc0c1b          	addiw	x24,x24,2027 # 387eb <code_mem24+0x67eb>
    410151c4:	00ec1c13          	slli	x24,x24,0xe
    410151c8:	9dac0c13          	addi	x24,x24,-1574
    410151cc:	d03c7253          	fcvt.s.lu	f4,x24
    410151d0:	004eb027          	fsd	f4,0(x29) # 15000 <mem2>

00000000410151d4 <SID_PBVMS_003_ptw_all_privilege_modes_passed>:
    410151d4:	00f00f9b          	addiw	x31,x0,15
    410151d8:	01cf9f93          	slli	x31,x31,0x1c
    410151dc:	001f8f93          	addi	x31,x31,1
    410151e0:	00000073          	ecall

00000000410151e4 <SID_PBVMS_006_ptw_page_boundary_crossing>:
    410151e4:	03f11137          	lui	x2,0x3f11
    410151e8:	000012b7          	lui	x5,0x1
    410151ec:	00510133          	add	x2,x2,x5
    410151f0:	ff017113          	andi	x2,x2,-16
    410151f4:	00c928b7          	lui	x17,0xc92
    410151f8:	3a98889b          	addiw	x17,x17,937 # c923a9 <SID_PBVMS_014_mstatus_sum_mxr_stack+0x4083a9>
    410151fc:	01589893          	slli	x17,x17,0x15
    41015200:	00001b37          	lui	x22,0x1
    41015204:	ff8b0b1b          	addiw	x22,x22,-8 # ff8 <XLEN+0xfb8>
    41015208:	01688fb3          	add	x31,x17,x22
    4101520c:	000fb303          	ld	x6,0(x31)
    41015210:	00c92c37          	lui	x24,0xc92
    41015214:	3a9c0c1b          	addiw	x24,x24,937 # c923a9 <SID_PBVMS_014_mstatus_sum_mxr_stack+0x4083a9>
    41015218:	015c1c13          	slli	x24,x24,0x15
    4101521c:	00001437          	lui	x8,0x1
    41015220:	ff84041b          	addiw	x8,x8,-8 # ff8 <XLEN+0xfb8>
    41015224:	008c0933          	add	x18,x24,x8
    41015228:	000d7337          	lui	x6,0xd7
    4101522c:	0713031b          	addiw	x6,x6,113 # d7071 <mem13+0x14071>
    41015230:	00c31313          	slli	x6,x6,0xc
    41015234:	08130313          	addi	x6,x6,129
    41015238:	d0037e53          	fcvt.s.w	f28,x6
    4101523c:	01c93027          	fsd	f28,0(x18)
    41015240:	00c928b7          	lui	x17,0xc92
    41015244:	3a98889b          	addiw	x17,x17,937 # c923a9 <SID_PBVMS_014_mstatus_sum_mxr_stack+0x4083a9>
    41015248:	01589893          	slli	x17,x17,0x15
    4101524c:	00001f37          	lui	x30,0x1
    41015250:	ff8f0f1b          	addiw	x30,x30,-8 # ff8 <XLEN+0xfb8>
    41015254:	01e88b33          	add	x22,x17,x30
    41015258:	00001bb7          	lui	x23,0x1
    4101525c:	ff8b8b9b          	addiw	x23,x23,-8 # ff8 <XLEN+0xfb8>
    41015260:	017b332f          	amoadd.d	x6,x23,(x22)
    41015264:	3f7136b7          	lui	x13,0x3f713
    41015268:	000680e7          	jalr	x13 # 3f713000 <code_mem4>

000000004101526c <SID_PBVMS_006_ptw_page_boundary_crossing_passed>:
    4101526c:	00f00f9b          	addiw	x31,x0,15
    41015270:	01cf9f93          	slli	x31,x31,0x1c
    41015274:	001f8f93          	addi	x31,x31,1
    41015278:	00000073          	ecall

000000004101527c <SID_PBVMS_008_va_sign_extension_fault>:
    4101527c:	07e56137          	lui	x2,0x7e56
    41015280:	5ab1011b          	addiw	x2,x2,1451 # 7e565ab <pma_region_2_size+0x3e565ab>
    41015284:	00d11113          	slli	x2,x2,0xd
    41015288:	000012b7          	lui	x5,0x1
    4101528c:	00510133          	add	x2,x2,x5
    41015290:	ff017113          	andi	x2,x2,-16
    41015294:	00002237          	lui	x4,0x2
    41015298:	00d00e13          	li	x28,13
    4101529c:	05c23823          	sd	x28,80(x4) # 2050 <check_excp_expected_cause>
    410152a0:	00000e17          	auipc	x28,0x0
    410152a4:	058e0e13          	addi	x28,x28,88 # 410152f8 <fault_label_0>
    410152a8:	03c23023          	sd	x28,32(x4) # 20 <SECURE_ACCESS_PROBABILITY+0x2>
    410152ac:	00000e13          	li	x28,0
    410152b0:	05c23023          	sd	x28,64(x4) # 40 <XLEN>
    410152b4:	00000e13          	li	x28,0
    410152b8:	05c23423          	sd	x28,72(x4) # 48 <XLEN+0x8>
    410152bc:	00000e17          	auipc	x28,0x0
    410152c0:	050e0e13          	addi	x28,x28,80 # 4101530c <SID_PBVMS_008_va_sign_extension_fault_passed>
    410152c4:	03c23823          	sd	x28,48(x4) # 30 <SECURE_ACCESS_PROBABILITY+0x12>
    410152c8:	00000e13          	li	x28,0
    410152cc:	03c23c23          	sd	x28,56(x4) # 38 <SECURE_ACCESS_PROBABILITY+0x1a>
    410152d0:	00000e13          	li	x28,0
    410152d4:	07c23023          	sd	x28,96(x4) # 60 <XLEN+0x20>
    410152d8:	00000e13          	li	x28,0
    410152dc:	07c23423          	sd	x28,104(x4) # 68 <XLEN+0x28>
    410152e0:	00000e13          	li	x28,0
    410152e4:	07c23823          	sd	x28,112(x4) # 70 <XLEN+0x30>
    410152e8:	00010b37          	lui	x22,0x10
    410152ec:	fff0069b          	addiw	x13,x0,-1
    410152f0:	03f69693          	slli	x13,x13,0x3f
    410152f4:	00db0333          	add	x6,x22,x13

00000000410152f8 <fault_label_0>:
    410152f8:	00033683          	ld	x13,0(x6)
    410152fc:	594f0737          	lui	x14,0x594f0
    41015300:	0087071b          	addiw	x14,x14,8 # 594f0008 <failed_addr>
    41015304:	00073d83          	ld	x27,0(x14)
    41015308:	000d8067          	jr	x27

000000004101530c <SID_PBVMS_008_va_sign_extension_fault_passed>:
    4101530c:	00f00f9b          	addiw	x31,x0,15
    41015310:	01cf9f93          	slli	x31,x31,0x1c
    41015314:	001f8f93          	addi	x31,x31,1
    41015318:	00000073          	ecall

000000004101531c <SID_PBVMS_009_superpage_alignment_fault>:
    4101531c:	000c1137          	lui	x2,0xc1
    41015320:	000012b7          	lui	x5,0x1
    41015324:	00510133          	add	x2,x2,x5
    41015328:	ff017113          	andi	x2,x2,-16
    4101532c:	594f0fb7          	lui	x31,0x594f0
    41015330:	0b0f8f9b          	addiw	x31,x31,176 # 594f00b0 <pte_access_flags>
    41015334:	00d0029b          	addiw	x5,x0,13
    41015338:	02729293          	slli	x5,x5,0x27
    4101533c:	005fb023          	sd	x5,0(x31)
    41015340:	00200293          	li	x5,2
    41015344:	005fb423          	sd	x5,8(x31)
    41015348:	fff00293          	li	x5,-1
    4101534c:	005fb823          	sd	x5,16(x31)
    41015350:	000f0fb7          	lui	x31,0xf0
    41015354:	001f8f9b          	addiw	x31,x31,1 # f0001 <mem13+0x2d001>
    41015358:	00cf9f93          	slli	x31,x31,0xc
    4101535c:	007f8f93          	addi	x31,x31,7
    41015360:	00000073          	ecall
    41015364:	40000b93          	li	x23,1024
    41015368:	0173e933          	or	x18,x7,x23
    4101536c:	00090393          	mv	x7,x18
    41015370:	594f0fb7          	lui	x31,0x594f0
    41015374:	0b0f8f9b          	addiw	x31,x31,176 # 594f00b0 <pte_access_flags>
    41015378:	00d0029b          	addiw	x5,x0,13
    4101537c:	02729293          	slli	x5,x5,0x27
    41015380:	005fb023          	sd	x5,0(x31)
    41015384:	00200293          	li	x5,2
    41015388:	005fb423          	sd	x5,8(x31)
    4101538c:	fff00293          	li	x5,-1
    41015390:	005fb823          	sd	x5,16(x31)
    41015394:	000f0fb7          	lui	x31,0xf0
    41015398:	001f8f9b          	addiw	x31,x31,1 # f0001 <mem13+0x2d001>
    4101539c:	00cf9f93          	slli	x31,x31,0xc
    410153a0:	008f8f93          	addi	x31,x31,8
    410153a4:	00000073          	ecall
    410153a8:	00002237          	lui	x4,0x2
    410153ac:	00d00e13          	li	x28,13
    410153b0:	05c23823          	sd	x28,80(x4) # 2050 <check_excp_expected_cause>
    410153b4:	00000e17          	auipc	x28,0x0
    410153b8:	050e0e13          	addi	x28,x28,80 # 41015404 <fault_label_1>
    410153bc:	03c23023          	sd	x28,32(x4) # 20 <SECURE_ACCESS_PROBABILITY+0x2>
    410153c0:	00000e13          	li	x28,0
    410153c4:	05c23023          	sd	x28,64(x4) # 40 <XLEN>
    410153c8:	00000e13          	li	x28,0
    410153cc:	05c23423          	sd	x28,72(x4) # 48 <XLEN+0x8>
    410153d0:	00000e17          	auipc	x28,0x0
    410153d4:	048e0e13          	addi	x28,x28,72 # 41015418 <excp_return_label_1>
    410153d8:	03c23823          	sd	x28,48(x4) # 30 <SECURE_ACCESS_PROBABILITY+0x12>
    410153dc:	00000e13          	li	x28,0
    410153e0:	03c23c23          	sd	x28,56(x4) # 38 <SECURE_ACCESS_PROBABILITY+0x1a>
    410153e4:	00000e13          	li	x28,0
    410153e8:	07c23023          	sd	x28,96(x4) # 60 <XLEN+0x20>
    410153ec:	00000e13          	li	x28,0
    410153f0:	07c23423          	sd	x28,104(x4) # 68 <XLEN+0x28>
    410153f4:	00000e13          	li	x28,0
    410153f8:	07c23823          	sd	x28,112(x4) # 70 <XLEN+0x30>
    410153fc:	00d00d9b          	addiw	x27,x0,13
    41015400:	027d9d93          	slli	x27,x27,0x27

0000000041015404 <fault_label_1>:
    41015404:	000da607          	flw	f12,0(x27)
    41015408:	594f0b37          	lui	x22,0x594f0
    4101540c:	008b0b1b          	addiw	x22,x22,8 # 594f0008 <failed_addr>
    41015410:	000b3783          	ld	x15,0(x22)
    41015414:	00078067          	jr	x15

0000000041015418 <excp_return_label_1>:
    41015418:	00002237          	lui	x4,0x2
    4101541c:	00f00e13          	li	x28,15
    41015420:	05c23823          	sd	x28,80(x4) # 2050 <check_excp_expected_cause>
    41015424:	00000e17          	auipc	x28,0x0
    41015428:	058e0e13          	addi	x28,x28,88 # 4101547c <fault_label_2>
    4101542c:	03c23023          	sd	x28,32(x4) # 20 <SECURE_ACCESS_PROBABILITY+0x2>
    41015430:	00000e13          	li	x28,0
    41015434:	05c23023          	sd	x28,64(x4) # 40 <XLEN>
    41015438:	00000e13          	li	x28,0
    4101543c:	05c23423          	sd	x28,72(x4) # 48 <XLEN+0x8>
    41015440:	00000e17          	auipc	x28,0x0
    41015444:	050e0e13          	addi	x28,x28,80 # 41015490 <excp_return_label_2>
    41015448:	03c23823          	sd	x28,48(x4) # 30 <SECURE_ACCESS_PROBABILITY+0x12>
    4101544c:	00000e13          	li	x28,0
    41015450:	03c23c23          	sd	x28,56(x4) # 38 <SECURE_ACCESS_PROBABILITY+0x1a>
    41015454:	00000e13          	li	x28,0
    41015458:	07c23023          	sd	x28,96(x4) # 60 <XLEN+0x20>
    4101545c:	00000e13          	li	x28,0
    41015460:	07c23423          	sd	x28,104(x4) # 68 <XLEN+0x28>
    41015464:	00000e13          	li	x28,0
    41015468:	07c23823          	sd	x28,112(x4) # 70 <XLEN+0x30>
    4101546c:	00d0091b          	addiw	x18,x0,13
    41015470:	02791913          	slli	x18,x18,0x27
    41015474:	678a6eb7          	lui	x29,0x678a6
    41015478:	aa6e8e9b          	addiw	x29,x29,-1370 # 678a5aa6 <__section_os_data_1+0xe3b4aa6>

000000004101547c <fault_label_2>:
    4101547c:	01d93023          	sd	x29,0(x18)
    41015480:	594f0bb7          	lui	x23,0x594f0
    41015484:	008b8b9b          	addiw	x23,x23,8 # 594f0008 <failed_addr>
    41015488:	000bb903          	ld	x18,0(x23)
    4101548c:	00090067          	jr	x18

0000000041015490 <excp_return_label_2>:
    41015490:	00002237          	lui	x4,0x2
    41015494:	00f00e13          	li	x28,15
    41015498:	05c23823          	sd	x28,80(x4) # 2050 <check_excp_expected_cause>
    4101549c:	00000e17          	auipc	x28,0x0
    410154a0:	058e0e13          	addi	x28,x28,88 # 410154f4 <fault_label_3>
    410154a4:	03c23023          	sd	x28,32(x4) # 20 <SECURE_ACCESS_PROBABILITY+0x2>
    410154a8:	00000e13          	li	x28,0
    410154ac:	05c23023          	sd	x28,64(x4) # 40 <XLEN>
    410154b0:	00000e13          	li	x28,0
    410154b4:	05c23423          	sd	x28,72(x4) # 48 <XLEN+0x8>
    410154b8:	00000e17          	auipc	x28,0x0
    410154bc:	050e0e13          	addi	x28,x28,80 # 41015508 <SID_PBVMS_009_superpage_alignment_fault_passed>
    410154c0:	03c23823          	sd	x28,48(x4) # 30 <SECURE_ACCESS_PROBABILITY+0x12>
    410154c4:	00000e13          	li	x28,0
    410154c8:	03c23c23          	sd	x28,56(x4) # 38 <SECURE_ACCESS_PROBABILITY+0x1a>
    410154cc:	00000e13          	li	x28,0
    410154d0:	07c23023          	sd	x28,96(x4) # 60 <XLEN+0x20>
    410154d4:	00000e13          	li	x28,0
    410154d8:	07c23423          	sd	x28,104(x4) # 68 <XLEN+0x28>
    410154dc:	00000e13          	li	x28,0
    410154e0:	07c23823          	sd	x28,112(x4) # 70 <XLEN+0x30>
    410154e4:	00d0031b          	addiw	x6,x0,13
    410154e8:	02731313          	slli	x6,x6,0x27
    410154ec:	00000c13          	li	x24,0
    410154f0:	01830c33          	add	x24,x6,x24

00000000410154f4 <fault_label_3>:
    410154f4:	000c292f          	amoadd.w	x18,x0,(x24)
    410154f8:	594f0fb7          	lui	x31,0x594f0
    410154fc:	008f8f9b          	addiw	x31,x31,8 # 594f0008 <failed_addr>
    41015500:	000fbf83          	ld	x31,0(x31)
    41015504:	000f8067          	jr	x31

0000000041015508 <SID_PBVMS_009_superpage_alignment_fault_passed>:
    41015508:	00f00f9b          	addiw	x31,x0,15
    4101550c:	01cf9f93          	slli	x31,x31,0x1c
    41015510:	001f8f93          	addi	x31,x31,1
    41015514:	00000073          	ecall

0000000041015518 <SID_PBVMS_011_ptw_fault_boundary_crossing>:
    41015518:	00033137          	lui	x2,0x33
    4101551c:	9731011b          	addiw	x2,x2,-1677 # 32973 <code_mem24+0x973>
    41015520:	00e11113          	slli	x2,x2,0xe
    41015524:	000012b7          	lui	x5,0x1
    41015528:	00510133          	add	x2,x2,x5
    4101552c:	ff017113          	andi	x2,x2,-16
    41015530:	37d0039b          	addiw	x7,x0,893
    41015534:	01839393          	slli	x7,x7,0x18
    41015538:	0003bb03          	ld	x22,0(x7)
    4101553c:	00002237          	lui	x4,0x2
    41015540:	00d00e13          	li	x28,13
    41015544:	05c23823          	sd	x28,80(x4) # 2050 <check_excp_expected_cause>
    41015548:	00000e17          	auipc	x28,0x0
    4101554c:	060e0e13          	addi	x28,x28,96 # 410155a8 <fault_label_4>
    41015550:	03c23023          	sd	x28,32(x4) # 20 <SECURE_ACCESS_PROBABILITY+0x2>
    41015554:	00000e13          	li	x28,0
    41015558:	05c23023          	sd	x28,64(x4) # 40 <XLEN>
    4101555c:	00000e13          	li	x28,0
    41015560:	05c23423          	sd	x28,72(x4) # 48 <XLEN+0x8>
    41015564:	00000e17          	auipc	x28,0x0
    41015568:	058e0e13          	addi	x28,x28,88 # 410155bc <excp_return_label_4>
    4101556c:	03c23823          	sd	x28,48(x4) # 30 <SECURE_ACCESS_PROBABILITY+0x12>
    41015570:	00000e13          	li	x28,0
    41015574:	03c23c23          	sd	x28,56(x4) # 38 <SECURE_ACCESS_PROBABILITY+0x1a>
    41015578:	00000e13          	li	x28,0
    4101557c:	07c23023          	sd	x28,96(x4) # 60 <XLEN+0x20>
    41015580:	00000e13          	li	x28,0
    41015584:	07c23423          	sd	x28,104(x4) # 68 <XLEN+0x28>
    41015588:	00000e13          	li	x28,0
    4101558c:	07c23823          	sd	x28,112(x4) # 70 <XLEN+0x30>
    41015590:	00002937          	lui	x18,0x2
    41015594:	d259091b          	addiw	x18,x18,-731 # 1d25 <pma_region_1_size+0xd25>
    41015598:	01791913          	slli	x18,x18,0x17
    4101559c:	00001db7          	lui	x27,0x1
    410155a0:	ffad8d9b          	addiw	x27,x27,-6 # ffa <XLEN+0xfba>
    410155a4:	01b90d33          	add	x26,x18,x27

00000000410155a8 <fault_label_4>:
    410155a8:	000d3683          	ld	x13,0(x26)
    410155ac:	594f0e37          	lui	x28,0x594f0
    410155b0:	008e0e1b          	addiw	x28,x28,8 # 594f0008 <failed_addr>
    410155b4:	000e3b83          	ld	x23,0(x28)
    410155b8:	000b8067          	jr	x23

00000000410155bc <excp_return_label_4>:
    410155bc:	00002237          	lui	x4,0x2
    410155c0:	00f00e13          	li	x28,15
    410155c4:	05c23823          	sd	x28,80(x4) # 2050 <check_excp_expected_cause>
    410155c8:	00000e17          	auipc	x28,0x0
    410155cc:	070e0e13          	addi	x28,x28,112 # 41015638 <fault_label_5>
    410155d0:	03c23023          	sd	x28,32(x4) # 20 <SECURE_ACCESS_PROBABILITY+0x2>
    410155d4:	00000e13          	li	x28,0
    410155d8:	05c23023          	sd	x28,64(x4) # 40 <XLEN>
    410155dc:	00000e13          	li	x28,0
    410155e0:	05c23423          	sd	x28,72(x4) # 48 <XLEN+0x8>
    410155e4:	00000e17          	auipc	x28,0x0
    410155e8:	068e0e13          	addi	x28,x28,104 # 4101564c <SID_PBVMS_011_ptw_fault_boundary_crossing_passed>
    410155ec:	03c23823          	sd	x28,48(x4) # 30 <SECURE_ACCESS_PROBABILITY+0x12>
    410155f0:	00000e13          	li	x28,0
    410155f4:	03c23c23          	sd	x28,56(x4) # 38 <SECURE_ACCESS_PROBABILITY+0x1a>
    410155f8:	00000e13          	li	x28,0
    410155fc:	07c23023          	sd	x28,96(x4) # 60 <XLEN+0x20>
    41015600:	00000e13          	li	x28,0
    41015604:	07c23423          	sd	x28,104(x4) # 68 <XLEN+0x28>
    41015608:	00000e13          	li	x28,0
    4101560c:	07c23823          	sd	x28,112(x4) # 70 <XLEN+0x30>
    41015610:	00002eb7          	lui	x29,0x2
    41015614:	d25e8e9b          	addiw	x29,x29,-731 # 1d25 <pma_region_1_size+0xd25>
    41015618:	017e9e93          	slli	x29,x29,0x17
    4101561c:	00001a37          	lui	x20,0x1
    41015620:	ffaa0a1b          	addiw	x20,x20,-6 # ffa <XLEN+0xfba>
    41015624:	014e8cb3          	add	x25,x29,x20
    41015628:	000f3ab7          	lui	x21,0xf3
    4101562c:	20da8a9b          	addiw	x21,x21,525 # f320d <mem13+0x3020d>
    41015630:	00ca9a93          	slli	x21,x21,0xc
    41015634:	d5aa8a93          	addi	x21,x21,-678

0000000041015638 <fault_label_5>:
    41015638:	015ca023          	sw	x21,0(x25)
    4101563c:	594f0337          	lui	x6,0x594f0
    41015640:	0083031b          	addiw	x6,x6,8 # 594f0008 <failed_addr>
    41015644:	00033d03          	ld	x26,0(x6)
    41015648:	000d0067          	jr	x26

000000004101564c <SID_PBVMS_011_ptw_fault_boundary_crossing_passed>:
    4101564c:	00f00f9b          	addiw	x31,x0,15
    41015650:	01cf9f93          	slli	x31,x31,0x1c
    41015654:	001f8f93          	addi	x31,x31,1
    41015658:	00000073          	ecall

000000004101565c <SID_PBVMS_012_ptw_fault_prioritization>:
    4101565c:	00f56137          	lui	x2,0xf56
    41015660:	64d1011b          	addiw	x2,x2,1613 # f5664d <SID_PBVMS_014_mstatus_sum_mxr_stack+0x6cc64d>
    41015664:	00d11113          	slli	x2,x2,0xd
    41015668:	000012b7          	lui	x5,0x1
    4101566c:	00510133          	add	x2,x2,x5
    41015670:	ff017113          	andi	x2,x2,-16
    41015674:	00002237          	lui	x4,0x2
    41015678:	00d00e13          	li	x28,13
    4101567c:	05c23823          	sd	x28,80(x4) # 2050 <check_excp_expected_cause>
    41015680:	00000e17          	auipc	x28,0x0
    41015684:	050e0e13          	addi	x28,x28,80 # 410156d0 <fault_label_6>
    41015688:	03c23023          	sd	x28,32(x4) # 20 <SECURE_ACCESS_PROBABILITY+0x2>
    4101568c:	00000e13          	li	x28,0
    41015690:	05c23023          	sd	x28,64(x4) # 40 <XLEN>
    41015694:	00000e13          	li	x28,0
    41015698:	05c23423          	sd	x28,72(x4) # 48 <XLEN+0x8>
    4101569c:	00000e17          	auipc	x28,0x0
    410156a0:	048e0e13          	addi	x28,x28,72 # 410156e4 <excp_return_label_6>
    410156a4:	03c23823          	sd	x28,48(x4) # 30 <SECURE_ACCESS_PROBABILITY+0x12>
    410156a8:	00000e13          	li	x28,0
    410156ac:	03c23c23          	sd	x28,56(x4) # 38 <SECURE_ACCESS_PROBABILITY+0x1a>
    410156b0:	00000e13          	li	x28,0
    410156b4:	07c23023          	sd	x28,96(x4) # 60 <XLEN+0x20>
    410156b8:	00000e13          	li	x28,0
    410156bc:	07c23423          	sd	x28,104(x4) # 68 <XLEN+0x28>
    410156c0:	00000e13          	li	x28,0
    410156c4:	07c23823          	sd	x28,112(x4) # 70 <XLEN+0x30>
    410156c8:	0fd00c9b          	addiw	x25,x0,253
    410156cc:	027c9c93          	slli	x25,x25,0x27

00000000410156d0 <fault_label_6>:
    410156d0:	000ca087          	flw	f1,0(x25)
    410156d4:	594f0cb7          	lui	x25,0x594f0
    410156d8:	008c8c9b          	addiw	x25,x25,8 # 594f0008 <failed_addr>
    410156dc:	000cb683          	ld	x13,0(x25)
    410156e0:	00068067          	jr	x13

00000000410156e4 <excp_return_label_6>:
    410156e4:	00002237          	lui	x4,0x2
    410156e8:	00d00e13          	li	x28,13
    410156ec:	05c23823          	sd	x28,80(x4) # 2050 <check_excp_expected_cause>
    410156f0:	00000e17          	auipc	x28,0x0
    410156f4:	050e0e13          	addi	x28,x28,80 # 41015740 <fault_label_7>
    410156f8:	03c23023          	sd	x28,32(x4) # 20 <SECURE_ACCESS_PROBABILITY+0x2>
    410156fc:	00000e13          	li	x28,0
    41015700:	05c23023          	sd	x28,64(x4) # 40 <XLEN>
    41015704:	00000e13          	li	x28,0
    41015708:	05c23423          	sd	x28,72(x4) # 48 <XLEN+0x8>
    4101570c:	00000e17          	auipc	x28,0x0
    41015710:	048e0e13          	addi	x28,x28,72 # 41015754 <excp_return_label_7>
    41015714:	03c23823          	sd	x28,48(x4) # 30 <SECURE_ACCESS_PROBABILITY+0x12>
    41015718:	00000e13          	li	x28,0
    4101571c:	03c23c23          	sd	x28,56(x4) # 38 <SECURE_ACCESS_PROBABILITY+0x1a>
    41015720:	00000e13          	li	x28,0
    41015724:	07c23023          	sd	x28,96(x4) # 60 <XLEN+0x20>
    41015728:	00000e13          	li	x28,0
    4101572c:	07c23423          	sd	x28,104(x4) # 68 <XLEN+0x28>
    41015730:	00000e13          	li	x28,0
    41015734:	07c23823          	sd	x28,112(x4) # 70 <XLEN+0x30>
    41015738:	01100e1b          	addiw	x28,x0,17
    4101573c:	028e1e13          	slli	x28,x28,0x28

0000000041015740 <fault_label_7>:
    41015740:	000e2583          	lw	x11,0(x28)
    41015744:	594f0d37          	lui	x26,0x594f0
    41015748:	008d0d1b          	addiw	x26,x26,8 # 594f0008 <failed_addr>
    4101574c:	000d3e83          	ld	x29,0(x26)
    41015750:	000e8067          	jr	x29

0000000041015754 <excp_return_label_7>:
    41015754:	00002237          	lui	x4,0x2
    41015758:	00d00e13          	li	x28,13
    4101575c:	05c23823          	sd	x28,80(x4) # 2050 <check_excp_expected_cause>
    41015760:	00000e17          	auipc	x28,0x0
    41015764:	050e0e13          	addi	x28,x28,80 # 410157b0 <fault_label_8>
    41015768:	03c23023          	sd	x28,32(x4) # 20 <SECURE_ACCESS_PROBABILITY+0x2>
    4101576c:	00000e13          	li	x28,0
    41015770:	05c23023          	sd	x28,64(x4) # 40 <XLEN>
    41015774:	00000e13          	li	x28,0
    41015778:	05c23423          	sd	x28,72(x4) # 48 <XLEN+0x8>
    4101577c:	00000e17          	auipc	x28,0x0
    41015780:	048e0e13          	addi	x28,x28,72 # 410157c4 <SID_PBVMS_012_ptw_fault_prioritization_passed>
    41015784:	03c23823          	sd	x28,48(x4) # 30 <SECURE_ACCESS_PROBABILITY+0x12>
    41015788:	00000e13          	li	x28,0
    4101578c:	03c23c23          	sd	x28,56(x4) # 38 <SECURE_ACCESS_PROBABILITY+0x1a>
    41015790:	00000e13          	li	x28,0
    41015794:	07c23023          	sd	x28,96(x4) # 60 <XLEN+0x20>
    41015798:	00000e13          	li	x28,0
    4101579c:	07c23423          	sd	x28,104(x4) # 68 <XLEN+0x28>
    410157a0:	00000e13          	li	x28,0
    410157a4:	07c23823          	sd	x28,112(x4) # 70 <XLEN+0x30>
    410157a8:	0010061b          	addiw	x12,x0,1
    410157ac:	02861613          	slli	x12,x12,0x28

00000000410157b0 <fault_label_8>:
    410157b0:	00063e87          	fld	f29,0(x12)
    410157b4:	594f0437          	lui	x8,0x594f0
    410157b8:	0084041b          	addiw	x8,x8,8 # 594f0008 <failed_addr>
    410157bc:	00043403          	ld	x8,0(x8)
    410157c0:	00040067          	jr	x8

00000000410157c4 <SID_PBVMS_012_ptw_fault_prioritization_passed>:
    410157c4:	00f00f9b          	addiw	x31,x0,15
    410157c8:	01cf9f93          	slli	x31,x31,0x1c
    410157cc:	001f8f93          	addi	x31,x31,1
    410157d0:	00000073          	ecall

00000000410157d4 <SID_PBVMS_013_ptw_permission_encodings>:
    410157d4:	2c000137          	lui	x2,0x2c000
    410157d8:	fff1011b          	addiw	x2,x2,-1 # 2bffffff <mem22__pt_level1+0x127eafff>
    410157dc:	00d11113          	slli	x2,x2,0xd
    410157e0:	000012b7          	lui	x5,0x1
    410157e4:	00510133          	add	x2,x2,x5
    410157e8:	ff017113          	andi	x2,x2,-16
    410157ec:	016d4f37          	lui	x30,0x16d4
    410157f0:	000f2c87          	flw	f25,0(x30) # 16d4000 <mem12>
    410157f4:	000c3737          	lui	x14,0xc3
    410157f8:	00075683          	lhu	x13,0(x14) # c3000 <mem13>
    410157fc:	000c3837          	lui	x16,0xc3
    41015800:	73f7c4b7          	lui	x9,0x73f7c
    41015804:	a914849b          	addiw	x9,x9,-1391 # 73f7ba91 <__section_os_data_1+0x1aa8aa91>
    41015808:	00980023          	sb	x9,0(x16) # c3000 <mem13>
    4101580c:	0000a4b7          	lui	x9,0xa
    41015810:	0004ce83          	lbu	x29,0(x9) # a000 <mem15>
    41015814:	03c98637          	lui	x12,0x3c98
    41015818:	8dd6061b          	addiw	x12,x12,-1827 # 3c978dd <SID_PBVMS_001_ptw_no_faults_all_access_types_stack+0x3258dd>
    4101581c:	00f61613          	slli	x12,x12,0xf
    41015820:	000600e7          	jalr	x12
    41015824:	01f14b37          	lui	x22,0x1f14
    41015828:	000b4a03          	lbu	x20,0(x22) # 1f14000 <mem17>
    4101582c:	01f14437          	lui	x8,0x1f14
    41015830:	03ba38b7          	lui	x17,0x3ba3
    41015834:	3de8889b          	addiw	x17,x17,990 # 3ba33de <SID_PBVMS_001_ptw_no_faults_all_access_types_stack+0x2313de>
    41015838:	01140023          	sb	x17,0(x8) # 1f14000 <mem17>

000000004101583c <SID_PBVMS_013_ptw_permission_encodings_passed>:
    4101583c:	00f00f9b          	addiw	x31,x0,15
    41015840:	01cf9f93          	slli	x31,x31,0x1c
    41015844:	001f8f93          	addi	x31,x31,1
    41015848:	00000073          	ecall

000000004101584c <SID_PBVMS_014_mstatus_sum_mxr>:
    4101584c:	06acb137          	lui	x2,0x6acb
    41015850:	25f1011b          	addiw	x2,x2,607 # 6acb25f <pma_region_2_size+0x2acb25f>
    41015854:	00d11113          	slli	x2,x2,0xd
    41015858:	594f0fb7          	lui	x31,0x594f0
    4101585c:	0a0f8f9b          	addiw	x31,x31,160 # 594f00a0 <machine_csr_jump_table_flags>
    41015860:	00100f13          	li	x30,1
    41015864:	01efb023          	sd	x30,0(x31)
    41015868:	000f0fb7          	lui	x31,0xf0
    4101586c:	001f8f9b          	addiw	x31,x31,1 # f0001 <mem13+0x2d001>
    41015870:	00cf9f93          	slli	x31,x31,0xc
    41015874:	005f8f93          	addi	x31,x31,5
    41015878:	00000073          	ecall
    4101587c:	00713023          	sd	x7,0(x2)
    41015880:	0088a137          	lui	x2,0x88a
    41015884:	000012b7          	lui	x5,0x1
    41015888:	00510133          	add	x2,x2,x5
    4101588c:	ff017113          	andi	x2,x2,-16
    41015890:	000803b7          	lui	x7,0x80
    41015894:	594f0fb7          	lui	x31,0x594f0
    41015898:	0a0f8f9b          	addiw	x31,x31,160 # 594f00a0 <machine_csr_jump_table_flags>
    4101589c:	00200f13          	li	x30,2
    410158a0:	01efb023          	sd	x30,0(x31)
    410158a4:	000f0fb7          	lui	x31,0xf0
    410158a8:	001f8f9b          	addiw	x31,x31,1 # f0001 <mem13+0x2d001>
    410158ac:	00cf9f93          	slli	x31,x31,0xc
    410158b0:	005f8f93          	addi	x31,x31,5
    410158b4:	00000073          	ecall
    410158b8:	00078e37          	lui	x28,0x78
    410158bc:	000e3783          	ld	x15,0(x28) # 78000 <mem18>
    410158c0:	000803b7          	lui	x7,0x80
    410158c4:	594f0fb7          	lui	x31,0x594f0
    410158c8:	0a0f8f9b          	addiw	x31,x31,160 # 594f00a0 <machine_csr_jump_table_flags>
    410158cc:	00300f13          	li	x30,3
    410158d0:	01efb023          	sd	x30,0(x31)
    410158d4:	000f0fb7          	lui	x31,0xf0
    410158d8:	001f8f9b          	addiw	x31,x31,1 # f0001 <mem13+0x2d001>
    410158dc:	00cf9f93          	slli	x31,x31,0xc
    410158e0:	005f8f93          	addi	x31,x31,5
    410158e4:	00000073          	ecall
    410158e8:	00002237          	lui	x4,0x2
    410158ec:	00d00e13          	li	x28,13
    410158f0:	05c23823          	sd	x28,80(x4) # 2050 <check_excp_expected_cause>
    410158f4:	00000e17          	auipc	x28,0x0
    410158f8:	04ce0e13          	addi	x28,x28,76 # 41015940 <fault_label_9>
    410158fc:	03c23023          	sd	x28,32(x4) # 20 <SECURE_ACCESS_PROBABILITY+0x2>
    41015900:	00000e13          	li	x28,0
    41015904:	05c23023          	sd	x28,64(x4) # 40 <XLEN>
    41015908:	00000e13          	li	x28,0
    4101590c:	05c23423          	sd	x28,72(x4) # 48 <XLEN+0x8>
    41015910:	00000e17          	auipc	x28,0x0
    41015914:	044e0e13          	addi	x28,x28,68 # 41015954 <excp_return_label_9>
    41015918:	03c23823          	sd	x28,48(x4) # 30 <SECURE_ACCESS_PROBABILITY+0x12>
    4101591c:	00000e13          	li	x28,0
    41015920:	03c23c23          	sd	x28,56(x4) # 38 <SECURE_ACCESS_PROBABILITY+0x1a>
    41015924:	00000e13          	li	x28,0
    41015928:	07c23023          	sd	x28,96(x4) # 60 <XLEN+0x20>
    4101592c:	00000e13          	li	x28,0
    41015930:	07c23423          	sd	x28,104(x4) # 68 <XLEN+0x28>
    41015934:	00000e13          	li	x28,0
    41015938:	07c23823          	sd	x28,112(x4) # 70 <XLEN+0x30>
    4101593c:	00078eb7          	lui	x29,0x78

0000000041015940 <fault_label_9>:
    41015940:	000ede03          	lhu	x28,0(x29) # 78000 <mem18>
    41015944:	594f08b7          	lui	x17,0x594f0
    41015948:	0088889b          	addiw	x17,x17,8 # 594f0008 <failed_addr>
    4101594c:	0008bb83          	ld	x23,0(x17)
    41015950:	000b8067          	jr	x23

0000000041015954 <excp_return_label_9>:
    41015954:	000403b7          	lui	x7,0x40
    41015958:	594f0fb7          	lui	x31,0x594f0
    4101595c:	0a0f8f9b          	addiw	x31,x31,160 # 594f00a0 <machine_csr_jump_table_flags>
    41015960:	00200f13          	li	x30,2
    41015964:	01efb023          	sd	x30,0(x31)
    41015968:	000f0fb7          	lui	x31,0xf0
    4101596c:	001f8f9b          	addiw	x31,x31,1 # f0001 <mem13+0x2d001>
    41015970:	00cf9f93          	slli	x31,x31,0xc
    41015974:	005f8f93          	addi	x31,x31,5
    41015978:	00000073          	ecall
    4101597c:	03c38e37          	lui	x28,0x3c38
    41015980:	431e0e1b          	addiw	x28,x28,1073 # 3c38431 <SID_PBVMS_001_ptw_no_faults_all_access_types_stack+0x2c6431>
    41015984:	00de1e13          	slli	x28,x28,0xd
    41015988:	000e2587          	flw	f11,0(x28)
    4101598c:	000403b7          	lui	x7,0x40
    41015990:	594f0fb7          	lui	x31,0x594f0
    41015994:	0a0f8f9b          	addiw	x31,x31,160 # 594f00a0 <machine_csr_jump_table_flags>
    41015998:	00300f13          	li	x30,3
    4101599c:	01efb023          	sd	x30,0(x31)
    410159a0:	000f0fb7          	lui	x31,0xf0
    410159a4:	001f8f9b          	addiw	x31,x31,1 # f0001 <mem13+0x2d001>
    410159a8:	00cf9f93          	slli	x31,x31,0xc
    410159ac:	005f8f93          	addi	x31,x31,5
    410159b0:	00000073          	ecall
    410159b4:	00002237          	lui	x4,0x2
    410159b8:	00d00e13          	li	x28,13
    410159bc:	05c23823          	sd	x28,80(x4) # 2050 <check_excp_expected_cause>
    410159c0:	00000e17          	auipc	x28,0x0
    410159c4:	054e0e13          	addi	x28,x28,84 # 41015a14 <fault_label_10>
    410159c8:	03c23023          	sd	x28,32(x4) # 20 <SECURE_ACCESS_PROBABILITY+0x2>
    410159cc:	00000e13          	li	x28,0
    410159d0:	05c23023          	sd	x28,64(x4) # 40 <XLEN>
    410159d4:	00000e13          	li	x28,0
    410159d8:	05c23423          	sd	x28,72(x4) # 48 <XLEN+0x8>
    410159dc:	00000e17          	auipc	x28,0x0
    410159e0:	04ce0e13          	addi	x28,x28,76 # 41015a28 <excp_return_label_10>
    410159e4:	03c23823          	sd	x28,48(x4) # 30 <SECURE_ACCESS_PROBABILITY+0x12>
    410159e8:	00000e13          	li	x28,0
    410159ec:	03c23c23          	sd	x28,56(x4) # 38 <SECURE_ACCESS_PROBABILITY+0x1a>
    410159f0:	00000e13          	li	x28,0
    410159f4:	07c23023          	sd	x28,96(x4) # 60 <XLEN+0x20>
    410159f8:	00000e13          	li	x28,0
    410159fc:	07c23423          	sd	x28,104(x4) # 68 <XLEN+0x28>
    41015a00:	00000e13          	li	x28,0
    41015a04:	07c23823          	sd	x28,112(x4) # 70 <XLEN+0x30>
    41015a08:	03c38cb7          	lui	x25,0x3c38
    41015a0c:	431c8c9b          	addiw	x25,x25,1073 # 3c38431 <SID_PBVMS_001_ptw_no_faults_all_access_types_stack+0x2c6431>
    41015a10:	00dc9c93          	slli	x25,x25,0xd

0000000041015a14 <fault_label_10>:
    41015a14:	000cbd03          	ld	x26,0(x25)
    41015a18:	594f0537          	lui	x10,0x594f0
    41015a1c:	0085051b          	addiw	x10,x10,8 # 594f0008 <failed_addr>
    41015a20:	00053303          	ld	x6,0(x10)
    41015a24:	00030067          	jr	x6

0000000041015a28 <excp_return_label_10>:
    41015a28:	06acb137          	lui	x2,0x6acb
    41015a2c:	25f1011b          	addiw	x2,x2,607 # 6acb25f <pma_region_2_size+0x2acb25f>
    41015a30:	00d11113          	slli	x2,x2,0xd
    41015a34:	00013383          	ld	x7,0(x2)
    41015a38:	594f0fb7          	lui	x31,0x594f0
    41015a3c:	0a0f8f9b          	addiw	x31,x31,160 # 594f00a0 <machine_csr_jump_table_flags>
    41015a40:	00600f13          	li	x30,6
    41015a44:	01efb023          	sd	x30,0(x31)
    41015a48:	000f0fb7          	lui	x31,0xf0
    41015a4c:	001f8f9b          	addiw	x31,x31,1 # f0001 <mem13+0x2d001>
    41015a50:	00cf9f93          	slli	x31,x31,0xc
    41015a54:	005f8f93          	addi	x31,x31,5
    41015a58:	00000073          	ecall

0000000041015a5c <SID_PBVMS_014_mstatus_sum_mxr_passed>:
    41015a5c:	00f00f9b          	addiw	x31,x0,15
    41015a60:	01cf9f93          	slli	x31,x31,0x1c
    41015a64:	001f8f93          	addi	x31,x31,1
    41015a68:	00000073          	ecall

0000000041015a6c <SID_PBVMS_015_global_bit_honoured>:
    41015a6c:	06acb137          	lui	x2,0x6acb
    41015a70:	25f1011b          	addiw	x2,x2,607 # 6acb25f <pma_region_2_size+0x2acb25f>
    41015a74:	00d11113          	slli	x2,x2,0xd
    41015a78:	594f0fb7          	lui	x31,0x594f0
    41015a7c:	0a0f8f9b          	addiw	x31,x31,160 # 594f00a0 <machine_csr_jump_table_flags>
    41015a80:	00700f13          	li	x30,7
    41015a84:	01efb023          	sd	x30,0(x31)
    41015a88:	000f0fb7          	lui	x31,0xf0
    41015a8c:	001f8f9b          	addiw	x31,x31,1 # f0001 <mem13+0x2d001>
    41015a90:	00cf9f93          	slli	x31,x31,0xc
    41015a94:	005f8f93          	addi	x31,x31,5
    41015a98:	00000073          	ecall
    41015a9c:	00713023          	sd	x7,0(x2)
    41015aa0:	0b7a2137          	lui	x2,0xb7a2
    41015aa4:	000012b7          	lui	x5,0x1
    41015aa8:	00510133          	add	x2,x2,x5
    41015aac:	ff017113          	andi	x2,x2,-16
    41015ab0:	594f0fb7          	lui	x31,0x594f0
    41015ab4:	0a8f8f9b          	addiw	x31,x31,168 # 594f00a8 <super_csr_jump_table_flags>
    41015ab8:	00800f13          	li	x30,8
    41015abc:	01efb023          	sd	x30,0(x31)
    41015ac0:	000f0fb7          	lui	x31,0xf0
    41015ac4:	001f8f9b          	addiw	x31,x31,1 # f0001 <mem13+0x2d001>
    41015ac8:	00cf9f93          	slli	x31,x31,0xc
    41015acc:	006f8f93          	addi	x31,x31,6
    41015ad0:	00000073          	ecall
    41015ad4:	00038393          	mv	x7,x7
    41015ad8:	00038713          	mv	x14,x7
    41015adc:	00f0039b          	addiw	x7,x0,15
    41015ae0:	02c39393          	slli	x7,x7,0x2c
    41015ae4:	594f0fb7          	lui	x31,0x594f0
    41015ae8:	0a8f8f9b          	addiw	x31,x31,168 # 594f00a8 <super_csr_jump_table_flags>
    41015aec:	00900f13          	li	x30,9
    41015af0:	01efb023          	sd	x30,0(x31)
    41015af4:	000f0fb7          	lui	x31,0xf0
    41015af8:	001f8f9b          	addiw	x31,x31,1 # f0001 <mem13+0x2d001>
    41015afc:	00cf9f93          	slli	x31,x31,0xc
    41015b00:	006f8f93          	addi	x31,x31,6
    41015b04:	00000073          	ecall
    41015b08:	0651d837          	lui	x16,0x651d
    41015b0c:	cf18081b          	addiw	x16,x16,-783 # 651ccf1 <pma_region_2_size+0x251ccf1>
    41015b10:	00c81813          	slli	x16,x16,0xc
    41015b14:	6bc15537          	lui	x10,0x6bc15
    41015b18:	3885051b          	addiw	x10,x10,904 # 6bc15388 <__section_os_data_1+0x12724388>
    41015b1c:	00a81023          	sh	x10,0(x16)
    41015b20:	00f0039b          	addiw	x7,x0,15
    41015b24:	02c39393          	slli	x7,x7,0x2c
    41015b28:	594f0fb7          	lui	x31,0x594f0
    41015b2c:	0a8f8f9b          	addiw	x31,x31,168 # 594f00a8 <super_csr_jump_table_flags>
    41015b30:	00a00f13          	li	x30,10
    41015b34:	01efb023          	sd	x30,0(x31)
    41015b38:	000f0fb7          	lui	x31,0xf0
    41015b3c:	001f8f9b          	addiw	x31,x31,1 # f0001 <mem13+0x2d001>
    41015b40:	00cf9f93          	slli	x31,x31,0xc
    41015b44:	006f8f93          	addi	x31,x31,6
    41015b48:	00000073          	ecall
    41015b4c:	0651d937          	lui	x18,0x651d
    41015b50:	cf19091b          	addiw	x18,x18,-783 # 651ccf1 <pma_region_2_size+0x251ccf1>
    41015b54:	00c91913          	slli	x18,x18,0xc
    41015b58:	00096383          	lwu	x7,0(x18)
    41015b5c:	00070393          	mv	x7,x14
    41015b60:	594f0fb7          	lui	x31,0x594f0
    41015b64:	0a8f8f9b          	addiw	x31,x31,168 # 594f00a8 <super_csr_jump_table_flags>
    41015b68:	00b00f13          	li	x30,11
    41015b6c:	01efb023          	sd	x30,0(x31)
    41015b70:	000f0fb7          	lui	x31,0xf0
    41015b74:	001f8f9b          	addiw	x31,x31,1 # f0001 <mem13+0x2d001>
    41015b78:	00cf9f93          	slli	x31,x31,0xc
    41015b7c:	006f8f93          	addi	x31,x31,6
    41015b80:	00000073          	ecall
    41015b84:	0651ddb7          	lui	x27,0x651d
    41015b88:	cf1d8d9b          	addiw	x27,x27,-783 # 651ccf1 <pma_region_2_size+0x251ccf1>
    41015b8c:	00cd9d93          	slli	x27,x27,0xc
    41015b90:	000da783          	lw	x15,0(x27)
    41015b94:	06acb137          	lui	x2,0x6acb
    41015b98:	25f1011b          	addiw	x2,x2,607 # 6acb25f <pma_region_2_size+0x2acb25f>
    41015b9c:	00d11113          	slli	x2,x2,0xd
    41015ba0:	00013383          	ld	x7,0(x2)
    41015ba4:	594f0fb7          	lui	x31,0x594f0
    41015ba8:	0a0f8f9b          	addiw	x31,x31,160 # 594f00a0 <machine_csr_jump_table_flags>
    41015bac:	00c00f13          	li	x30,12
    41015bb0:	01efb023          	sd	x30,0(x31)
    41015bb4:	000f0fb7          	lui	x31,0xf0
    41015bb8:	001f8f9b          	addiw	x31,x31,1 # f0001 <mem13+0x2d001>
    41015bbc:	00cf9f93          	slli	x31,x31,0xc
    41015bc0:	005f8f93          	addi	x31,x31,5
    41015bc4:	00000073          	ecall

0000000041015bc8 <SID_PBVMS_015_global_bit_honoured_passed>:
    41015bc8:	00f00f9b          	addiw	x31,x0,15
    41015bcc:	01cf9f93          	slli	x31,x31,0x1c
    41015bd0:	001f8f93          	addi	x31,x31,1
    41015bd4:	00000073          	ecall

0000000041015bd8 <SID_PBVMS_017_global_at_non_leaf>:
    41015bd8:	06acb137          	lui	x2,0x6acb
    41015bdc:	25f1011b          	addiw	x2,x2,607 # 6acb25f <pma_region_2_size+0x2acb25f>
    41015be0:	00d11113          	slli	x2,x2,0xd
    41015be4:	594f0fb7          	lui	x31,0x594f0
    41015be8:	0a0f8f9b          	addiw	x31,x31,160 # 594f00a0 <machine_csr_jump_table_flags>
    41015bec:	00700f13          	li	x30,7
    41015bf0:	01efb023          	sd	x30,0(x31)
    41015bf4:	000f0fb7          	lui	x31,0xf0
    41015bf8:	001f8f9b          	addiw	x31,x31,1 # f0001 <mem13+0x2d001>
    41015bfc:	00cf9f93          	slli	x31,x31,0xc
    41015c00:	005f8f93          	addi	x31,x31,5
    41015c04:	00000073          	ecall
    41015c08:	00713023          	sd	x7,0(x2)
    41015c0c:	0103d137          	lui	x2,0x103d
    41015c10:	000012b7          	lui	x5,0x1
    41015c14:	00510133          	add	x2,x2,x5
    41015c18:	ff017113          	andi	x2,x2,-16
    41015c1c:	594f0fb7          	lui	x31,0x594f0
    41015c20:	0b0f8f9b          	addiw	x31,x31,176 # 594f00b0 <pte_access_flags>
    41015c24:	00b0029b          	addiw	x5,x0,11
    41015c28:	02729293          	slli	x5,x5,0x27
    41015c2c:	005fb023          	sd	x5,0(x31)
    41015c30:	00100293          	li	x5,1
    41015c34:	005fb423          	sd	x5,8(x31)
    41015c38:	fff00293          	li	x5,-1
    41015c3c:	005fb823          	sd	x5,16(x31)
    41015c40:	000f0fb7          	lui	x31,0xf0
    41015c44:	001f8f9b          	addiw	x31,x31,1 # f0001 <mem13+0x2d001>
    41015c48:	00cf9f93          	slli	x31,x31,0xc
    41015c4c:	007f8f93          	addi	x31,x31,7
    41015c50:	00000073          	ecall
    41015c54:	00038393          	mv	x7,x7
    41015c58:	594f0fb7          	lui	x31,0x594f0
    41015c5c:	0b0f8f9b          	addiw	x31,x31,176 # 594f00b0 <pte_access_flags>
    41015c60:	00b0029b          	addiw	x5,x0,11
    41015c64:	02729293          	slli	x5,x5,0x27
    41015c68:	005fb023          	sd	x5,0(x31)
    41015c6c:	00100293          	li	x5,1
    41015c70:	005fb423          	sd	x5,8(x31)
    41015c74:	fff00293          	li	x5,-1
    41015c78:	005fb823          	sd	x5,16(x31)
    41015c7c:	000f0fb7          	lui	x31,0xf0
    41015c80:	001f8f9b          	addiw	x31,x31,1 # f0001 <mem13+0x2d001>
    41015c84:	00cf9f93          	slli	x31,x31,0xc
    41015c88:	008f8f93          	addi	x31,x31,8
    41015c8c:	00000073          	ecall
    41015c90:	00b0071b          	addiw	x14,x0,11
    41015c94:	02771713          	slli	x14,x14,0x27
    41015c98:	00076303          	lwu	x6,0(x14)
    41015c9c:	0ff0039b          	addiw	x7,x0,255
    41015ca0:	02c39393          	slli	x7,x7,0x2c
    41015ca4:	594f0fb7          	lui	x31,0x594f0
    41015ca8:	0a8f8f9b          	addiw	x31,x31,168 # 594f00a8 <super_csr_jump_table_flags>
    41015cac:	00900f13          	li	x30,9
    41015cb0:	01efb023          	sd	x30,0(x31)
    41015cb4:	000f0fb7          	lui	x31,0xf0
    41015cb8:	001f8f9b          	addiw	x31,x31,1 # f0001 <mem13+0x2d001>
    41015cbc:	00cf9f93          	slli	x31,x31,0xc
    41015cc0:	006f8f93          	addi	x31,x31,6
    41015cc4:	00000073          	ecall
    41015cc8:	00b00a9b          	addiw	x21,x0,11
    41015ccc:	027a9a93          	slli	x21,x21,0x27
    41015cd0:	000a8603          	lb	x12,0(x21)
    41015cd4:	06acb137          	lui	x2,0x6acb
    41015cd8:	25f1011b          	addiw	x2,x2,607 # 6acb25f <pma_region_2_size+0x2acb25f>
    41015cdc:	00d11113          	slli	x2,x2,0xd
    41015ce0:	00013383          	ld	x7,0(x2)
    41015ce4:	594f0fb7          	lui	x31,0x594f0
    41015ce8:	0a0f8f9b          	addiw	x31,x31,160 # 594f00a0 <machine_csr_jump_table_flags>
    41015cec:	00c00f13          	li	x30,12
    41015cf0:	01efb023          	sd	x30,0(x31)
    41015cf4:	000f0fb7          	lui	x31,0xf0
    41015cf8:	001f8f9b          	addiw	x31,x31,1 # f0001 <mem13+0x2d001>
    41015cfc:	00cf9f93          	slli	x31,x31,0xc
    41015d00:	005f8f93          	addi	x31,x31,5
    41015d04:	00000073          	ecall

0000000041015d08 <SID_PBVMS_017_global_at_non_leaf_passed>:
    41015d08:	00f00f9b          	addiw	x31,x0,15
    41015d0c:	01cf9f93          	slli	x31,x31,0x1c
    41015d10:	001f8f93          	addi	x31,x31,1
    41015d14:	00000073          	ecall

0000000041015d18 <SID_PBVMS_018_rsw_fields_writable>:
    41015d18:	467bd137          	lui	x2,0x467bd
    41015d1c:	000012b7          	lui	x5,0x1
    41015d20:	00510133          	add	x2,x2,x5
    41015d24:	ff017113          	andi	x2,x2,-16
    41015d28:	594f0fb7          	lui	x31,0x594f0
    41015d2c:	0b0f8f9b          	addiw	x31,x31,176 # 594f00b0 <pte_access_flags>
    41015d30:	0010029b          	addiw	x5,x0,1
    41015d34:	02b29293          	slli	x5,x5,0x2b
    41015d38:	005fb023          	sd	x5,0(x31)
    41015d3c:	00300293          	li	x5,3
    41015d40:	005fb423          	sd	x5,8(x31)
    41015d44:	fff00293          	li	x5,-1
    41015d48:	005fb823          	sd	x5,16(x31)
    41015d4c:	000f0fb7          	lui	x31,0xf0
    41015d50:	001f8f9b          	addiw	x31,x31,1 # f0001 <mem13+0x2d001>
    41015d54:	00cf9f93          	slli	x31,x31,0xc
    41015d58:	007f8f93          	addi	x31,x31,7
    41015d5c:	00000073          	ecall
    41015d60:	30000693          	li	x13,768
    41015d64:	00d3eb33          	or	x22,x7,x13
    41015d68:	000b0393          	mv	x7,x22
    41015d6c:	594f0fb7          	lui	x31,0x594f0
    41015d70:	0b0f8f9b          	addiw	x31,x31,176 # 594f00b0 <pte_access_flags>
    41015d74:	0010029b          	addiw	x5,x0,1
    41015d78:	02b29293          	slli	x5,x5,0x2b
    41015d7c:	005fb023          	sd	x5,0(x31)
    41015d80:	00300293          	li	x5,3
    41015d84:	005fb423          	sd	x5,8(x31)
    41015d88:	fff00293          	li	x5,-1
    41015d8c:	005fb823          	sd	x5,16(x31)
    41015d90:	000f0fb7          	lui	x31,0xf0
    41015d94:	001f8f9b          	addiw	x31,x31,1 # f0001 <mem13+0x2d001>
    41015d98:	00cf9f93          	slli	x31,x31,0xc
    41015d9c:	008f8f93          	addi	x31,x31,8
    41015da0:	00000073          	ecall
    41015da4:	594f0fb7          	lui	x31,0x594f0
    41015da8:	0b0f8f9b          	addiw	x31,x31,176 # 594f00b0 <pte_access_flags>
    41015dac:	0010029b          	addiw	x5,x0,1
    41015db0:	02b29293          	slli	x5,x5,0x2b
    41015db4:	005fb023          	sd	x5,0(x31)
    41015db8:	00300293          	li	x5,3
    41015dbc:	005fb423          	sd	x5,8(x31)
    41015dc0:	fff00293          	li	x5,-1
    41015dc4:	005fb823          	sd	x5,16(x31)
    41015dc8:	000f0fb7          	lui	x31,0xf0
    41015dcc:	001f8f9b          	addiw	x31,x31,1 # f0001 <mem13+0x2d001>
    41015dd0:	00cf9f93          	slli	x31,x31,0xc
    41015dd4:	007f8f93          	addi	x31,x31,7
    41015dd8:	00000073          	ecall
    41015ddc:	00d3ffb3          	and	x31,x7,x13
    41015de0:	00df8a63          	beq	x31,x13,41015df4 <pass_label_0>
    41015de4:	594f0cb7          	lui	x25,0x594f0
    41015de8:	008c8c9b          	addiw	x25,x25,8 # 594f0008 <failed_addr>
    41015dec:	000cbb03          	ld	x22,0(x25)
    41015df0:	000b0067          	jr	x22

0000000041015df4 <pass_label_0>:
    41015df4:	594f0fb7          	lui	x31,0x594f0
    41015df8:	0b0f8f9b          	addiw	x31,x31,176 # 594f00b0 <pte_access_flags>
    41015dfc:	0010029b          	addiw	x5,x0,1
    41015e00:	02b29293          	slli	x5,x5,0x2b
    41015e04:	005fb023          	sd	x5,0(x31)
    41015e08:	00100293          	li	x5,1
    41015e0c:	005fb423          	sd	x5,8(x31)
    41015e10:	fff00293          	li	x5,-1
    41015e14:	005fb823          	sd	x5,16(x31)
    41015e18:	000f0fb7          	lui	x31,0xf0
    41015e1c:	001f8f9b          	addiw	x31,x31,1 # f0001 <mem13+0x2d001>
    41015e20:	00cf9f93          	slli	x31,x31,0xc
    41015e24:	007f8f93          	addi	x31,x31,7
    41015e28:	00000073          	ecall
    41015e2c:	00d3eab3          	or	x21,x7,x13
    41015e30:	000a8393          	mv	x7,x21
    41015e34:	594f0fb7          	lui	x31,0x594f0
    41015e38:	0b0f8f9b          	addiw	x31,x31,176 # 594f00b0 <pte_access_flags>
    41015e3c:	0010029b          	addiw	x5,x0,1
    41015e40:	02b29293          	slli	x5,x5,0x2b
    41015e44:	005fb023          	sd	x5,0(x31)
    41015e48:	00100293          	li	x5,1
    41015e4c:	005fb423          	sd	x5,8(x31)
    41015e50:	fff00293          	li	x5,-1
    41015e54:	005fb823          	sd	x5,16(x31)
    41015e58:	000f0fb7          	lui	x31,0xf0
    41015e5c:	001f8f9b          	addiw	x31,x31,1 # f0001 <mem13+0x2d001>
    41015e60:	00cf9f93          	slli	x31,x31,0xc
    41015e64:	008f8f93          	addi	x31,x31,8
    41015e68:	00000073          	ecall
    41015e6c:	00100e1b          	addiw	x28,x0,1
    41015e70:	02be1e13          	slli	x28,x28,0x2b
    41015e74:	000e0783          	lb	x15,0(x28)

0000000041015e78 <SID_PBVMS_018_rsw_fields_writable_passed>:
    41015e78:	00f00f9b          	addiw	x31,x0,15
    41015e7c:	01cf9f93          	slli	x31,x31,0x1c
    41015e80:	001f8f93          	addi	x31,x31,1
    41015e84:	00000073          	ecall

0000000041015e88 <SID_PBVMS_021_satp_valid_to_reserved>:
    41015e88:	06acb137          	lui	x2,0x6acb
    41015e8c:	25f1011b          	addiw	x2,x2,607 # 6acb25f <pma_region_2_size+0x2acb25f>
    41015e90:	00d11113          	slli	x2,x2,0xd
    41015e94:	594f0fb7          	lui	x31,0x594f0
    41015e98:	0a0f8f9b          	addiw	x31,x31,160 # 594f00a0 <machine_csr_jump_table_flags>
    41015e9c:	00700f13          	li	x30,7
    41015ea0:	01efb023          	sd	x30,0(x31)
    41015ea4:	000f0fb7          	lui	x31,0xf0
    41015ea8:	001f8f9b          	addiw	x31,x31,1 # f0001 <mem13+0x2d001>
    41015eac:	00cf9f93          	slli	x31,x31,0xc
    41015eb0:	005f8f93          	addi	x31,x31,5
    41015eb4:	00000073          	ecall
    41015eb8:	00713023          	sd	x7,0(x2)
    41015ebc:	3f78e137          	lui	x2,0x3f78e
    41015ec0:	000012b7          	lui	x5,0x1
    41015ec4:	00510133          	add	x2,x2,x5
    41015ec8:	ff017113          	andi	x2,x2,-16
    41015ecc:	594f0fb7          	lui	x31,0x594f0
    41015ed0:	0a8f8f9b          	addiw	x31,x31,168 # 594f00a8 <super_csr_jump_table_flags>
    41015ed4:	00800f13          	li	x30,8
    41015ed8:	01efb023          	sd	x30,0(x31)
    41015edc:	000f0fb7          	lui	x31,0xf0
    41015ee0:	001f8f9b          	addiw	x31,x31,1 # f0001 <mem13+0x2d001>
    41015ee4:	00cf9f93          	slli	x31,x31,0xc
    41015ee8:	006f8f93          	addi	x31,x31,6
    41015eec:	00000073          	ecall
    41015ef0:	00038e13          	mv	x28,x7
    41015ef4:	00100f1b          	addiw	x30,x0,1
    41015ef8:	03df1f13          	slli	x30,x30,0x3d
    41015efc:	000f0393          	mv	x7,x30
    41015f00:	594f0fb7          	lui	x31,0x594f0
    41015f04:	0a8f8f9b          	addiw	x31,x31,168 # 594f00a8 <super_csr_jump_table_flags>
    41015f08:	00b00f13          	li	x30,11
    41015f0c:	01efb023          	sd	x30,0(x31)
    41015f10:	000f0fb7          	lui	x31,0xf0
    41015f14:	001f8f9b          	addiw	x31,x31,1 # f0001 <mem13+0x2d001>
    41015f18:	00cf9f93          	slli	x31,x31,0xc
    41015f1c:	006f8f93          	addi	x31,x31,6
    41015f20:	00000073          	ecall
    41015f24:	594f0fb7          	lui	x31,0x594f0
    41015f28:	0a8f8f9b          	addiw	x31,x31,168 # 594f00a8 <super_csr_jump_table_flags>
    41015f2c:	00800f13          	li	x30,8
    41015f30:	01efb023          	sd	x30,0(x31)
    41015f34:	000f0fb7          	lui	x31,0xf0
    41015f38:	001f8f9b          	addiw	x31,x31,1 # f0001 <mem13+0x2d001>
    41015f3c:	00cf9f93          	slli	x31,x31,0xc
    41015f40:	006f8f93          	addi	x31,x31,6
    41015f44:	00000073          	ecall
    41015f48:	00038b93          	mv	x23,x7
    41015f4c:	017e0a63          	beq	x28,x23,41015f60 <pass_label_1>
    41015f50:	594f0ab7          	lui	x21,0x594f0
    41015f54:	008a8a9b          	addiw	x21,x21,8 # 594f0008 <failed_addr>
    41015f58:	000ab703          	ld	x14,0(x21)
    41015f5c:	00070067          	jr	x14

0000000041015f60 <pass_label_1>:
    41015f60:	06acb137          	lui	x2,0x6acb
    41015f64:	25f1011b          	addiw	x2,x2,607 # 6acb25f <pma_region_2_size+0x2acb25f>
    41015f68:	00d11113          	slli	x2,x2,0xd
    41015f6c:	00013383          	ld	x7,0(x2)
    41015f70:	594f0fb7          	lui	x31,0x594f0
    41015f74:	0a0f8f9b          	addiw	x31,x31,160 # 594f00a0 <machine_csr_jump_table_flags>
    41015f78:	00c00f13          	li	x30,12
    41015f7c:	01efb023          	sd	x30,0(x31)
    41015f80:	000f0fb7          	lui	x31,0xf0
    41015f84:	001f8f9b          	addiw	x31,x31,1 # f0001 <mem13+0x2d001>
    41015f88:	00cf9f93          	slli	x31,x31,0xc
    41015f8c:	005f8f93          	addi	x31,x31,5
    41015f90:	00000073          	ecall

0000000041015f94 <SID_PBVMS_021_satp_valid_to_reserved_passed>:
    41015f94:	00f00f9b          	addiw	x31,x0,15
    41015f98:	01cf9f93          	slli	x31,x31,0x1c
    41015f9c:	001f8f93          	addi	x31,x31,1
    41015fa0:	00000073          	ecall

0000000041015fa4 <SID_PBVMS_022_satp_csr_accessibility>:
    41015fa4:	06acb137          	lui	x2,0x6acb
    41015fa8:	25f1011b          	addiw	x2,x2,607 # 6acb25f <pma_region_2_size+0x2acb25f>
    41015fac:	00d11113          	slli	x2,x2,0xd
    41015fb0:	594f0fb7          	lui	x31,0x594f0
    41015fb4:	0a0f8f9b          	addiw	x31,x31,160 # 594f00a0 <machine_csr_jump_table_flags>
    41015fb8:	00700f13          	li	x30,7
    41015fbc:	01efb023          	sd	x30,0(x31)
    41015fc0:	000f0fb7          	lui	x31,0xf0
    41015fc4:	001f8f9b          	addiw	x31,x31,1 # f0001 <mem13+0x2d001>
    41015fc8:	00cf9f93          	slli	x31,x31,0xc
    41015fcc:	005f8f93          	addi	x31,x31,5
    41015fd0:	00000073          	ecall
    41015fd4:	00713023          	sd	x7,0(x2)
    41015fd8:	000b2137          	lui	x2,0xb2
    41015fdc:	c291011b          	addiw	x2,x2,-983 # b1c29 <mem18+0x39c29>
    41015fe0:	00c11113          	slli	x2,x2,0xc
    41015fe4:	4cf10113          	addi	x2,x2,1231
    41015fe8:	00c11113          	slli	x2,x2,0xc
    41015fec:	000012b7          	lui	x5,0x1
    41015ff0:	00510133          	add	x2,x2,x5
    41015ff4:	ff017113          	andi	x2,x2,-16
    41015ff8:	594f0fb7          	lui	x31,0x594f0
    41015ffc:	0a8f8f9b          	addiw	x31,x31,168 # 594f00a8 <super_csr_jump_table_flags>
    41016000:	00800f13          	li	x30,8
    41016004:	01efb023          	sd	x30,0(x31)
    41016008:	000f0fb7          	lui	x31,0xf0
    4101600c:	001f8f9b          	addiw	x31,x31,1 # f0001 <mem13+0x2d001>
    41016010:	00cf9f93          	slli	x31,x31,0xc
    41016014:	006f8f93          	addi	x31,x31,6
    41016018:	00000073          	ecall
    4101601c:	00038b93          	mv	x23,x7
    41016020:	000b8393          	mv	x7,x23
    41016024:	594f0fb7          	lui	x31,0x594f0
    41016028:	0a8f8f9b          	addiw	x31,x31,168 # 594f00a8 <super_csr_jump_table_flags>
    4101602c:	00b00f13          	li	x30,11
    41016030:	01efb023          	sd	x30,0(x31)
    41016034:	000f0fb7          	lui	x31,0xf0
    41016038:	001f8f9b          	addiw	x31,x31,1 # f0001 <mem13+0x2d001>
    4101603c:	00cf9f93          	slli	x31,x31,0xc
    41016040:	006f8f93          	addi	x31,x31,6
    41016044:	00000073          	ecall
    41016048:	06acb137          	lui	x2,0x6acb
    4101604c:	25f1011b          	addiw	x2,x2,607 # 6acb25f <pma_region_2_size+0x2acb25f>
    41016050:	00d11113          	slli	x2,x2,0xd
    41016054:	00013383          	ld	x7,0(x2)
    41016058:	594f0fb7          	lui	x31,0x594f0
    4101605c:	0a0f8f9b          	addiw	x31,x31,160 # 594f00a0 <machine_csr_jump_table_flags>
    41016060:	00c00f13          	li	x30,12
    41016064:	01efb023          	sd	x30,0(x31)
    41016068:	000f0fb7          	lui	x31,0xf0
    4101606c:	001f8f9b          	addiw	x31,x31,1 # f0001 <mem13+0x2d001>
    41016070:	00cf9f93          	slli	x31,x31,0xc
    41016074:	005f8f93          	addi	x31,x31,5
    41016078:	00000073          	ecall

000000004101607c <SID_PBVMS_022_satp_csr_accessibility_passed>:
    4101607c:	00f00f9b          	addiw	x31,x0,15
    41016080:	01cf9f93          	slli	x31,x31,0x1c
    41016084:	001f8f93          	addi	x31,x31,1
    41016088:	00000073          	ecall

000000004101608c <SID_PBVMS_023_satp_asidlen_discovery>:
    4101608c:	06acb137          	lui	x2,0x6acb
    41016090:	25f1011b          	addiw	x2,x2,607 # 6acb25f <pma_region_2_size+0x2acb25f>
    41016094:	00d11113          	slli	x2,x2,0xd
    41016098:	594f0fb7          	lui	x31,0x594f0
    4101609c:	0a0f8f9b          	addiw	x31,x31,160 # 594f00a0 <machine_csr_jump_table_flags>
    410160a0:	00700f13          	li	x30,7
    410160a4:	01efb023          	sd	x30,0(x31)
    410160a8:	000f0fb7          	lui	x31,0xf0
    410160ac:	001f8f9b          	addiw	x31,x31,1 # f0001 <mem13+0x2d001>
    410160b0:	00cf9f93          	slli	x31,x31,0xc
    410160b4:	005f8f93          	addi	x31,x31,5
    410160b8:	00000073          	ecall
    410160bc:	00713023          	sd	x7,0(x2)
    410160c0:	0b9bd137          	lui	x2,0xb9bd
    410160c4:	1591011b          	addiw	x2,x2,345 # b9bd159 <SID_PBVMS_015_global_bit_honoured_stack+0x21b159>
    410160c8:	00c11113          	slli	x2,x2,0xc
    410160cc:	000012b7          	lui	x5,0x1
    410160d0:	00510133          	add	x2,x2,x5
    410160d4:	ff017113          	andi	x2,x2,-16
    410160d8:	594f0fb7          	lui	x31,0x594f0
    410160dc:	0a8f8f9b          	addiw	x31,x31,168 # 594f00a8 <super_csr_jump_table_flags>
    410160e0:	00800f13          	li	x30,8
    410160e4:	01efb023          	sd	x30,0(x31)
    410160e8:	000f0fb7          	lui	x31,0xf0
    410160ec:	001f8f9b          	addiw	x31,x31,1 # f0001 <mem13+0x2d001>
    410160f0:	00cf9f93          	slli	x31,x31,0xc
    410160f4:	006f8f93          	addi	x31,x31,6
    410160f8:	00000073          	ecall
    410160fc:	00038d93          	mv	x27,x7
    41016100:	00010337          	lui	x6,0x10
    41016104:	fff3031b          	addiw	x6,x6,-1 # ffff <mem10__pt_level2+0x3fff>
    41016108:	02c31313          	slli	x6,x6,0x2c
    4101610c:	006dea33          	or	x20,x27,x6
    41016110:	000a0393          	mv	x7,x20
    41016114:	594f0fb7          	lui	x31,0x594f0
    41016118:	0a8f8f9b          	addiw	x31,x31,168 # 594f00a8 <super_csr_jump_table_flags>
    4101611c:	00b00f13          	li	x30,11
    41016120:	01efb023          	sd	x30,0(x31)
    41016124:	000f0fb7          	lui	x31,0xf0
    41016128:	001f8f9b          	addiw	x31,x31,1 # f0001 <mem13+0x2d001>
    4101612c:	00cf9f93          	slli	x31,x31,0xc
    41016130:	006f8f93          	addi	x31,x31,6
    41016134:	00000073          	ecall
    41016138:	594f0fb7          	lui	x31,0x594f0
    4101613c:	0a8f8f9b          	addiw	x31,x31,168 # 594f00a8 <super_csr_jump_table_flags>
    41016140:	00800f13          	li	x30,8
    41016144:	01efb023          	sd	x30,0(x31)
    41016148:	000f0fb7          	lui	x31,0xf0
    4101614c:	001f8f9b          	addiw	x31,x31,1 # f0001 <mem13+0x2d001>
    41016150:	00cf9f93          	slli	x31,x31,0xc
    41016154:	006f8f93          	addi	x31,x31,6
    41016158:	00000073          	ecall
    4101615c:	00038f93          	mv	x31,x7
    41016160:	02c00e13          	li	x28,44
    41016164:	01cfde33          	srl	x28,x31,x28
    41016168:	00010937          	lui	x18,0x10
    4101616c:	fff9091b          	addiw	x18,x18,-1 # ffff <mem10__pt_level2+0x3fff>
    41016170:	012e7a33          	and	x20,x28,x18
    41016174:	012a0a63          	beq	x20,x18,41016188 <pass_label_2>
    41016178:	594f0337          	lui	x6,0x594f0
    4101617c:	0083031b          	addiw	x6,x6,8 # 594f0008 <failed_addr>
    41016180:	00033b83          	ld	x23,0(x6)
    41016184:	000b8067          	jr	x23

0000000041016188 <pass_label_2>:
    41016188:	06acb137          	lui	x2,0x6acb
    4101618c:	25f1011b          	addiw	x2,x2,607 # 6acb25f <pma_region_2_size+0x2acb25f>
    41016190:	00d11113          	slli	x2,x2,0xd
    41016194:	00013383          	ld	x7,0(x2)
    41016198:	594f0fb7          	lui	x31,0x594f0
    4101619c:	0a0f8f9b          	addiw	x31,x31,160 # 594f00a0 <machine_csr_jump_table_flags>
    410161a0:	00c00f13          	li	x30,12
    410161a4:	01efb023          	sd	x30,0(x31)
    410161a8:	000f0fb7          	lui	x31,0xf0
    410161ac:	001f8f9b          	addiw	x31,x31,1 # f0001 <mem13+0x2d001>
    410161b0:	00cf9f93          	slli	x31,x31,0xc
    410161b4:	005f8f93          	addi	x31,x31,5
    410161b8:	00000073          	ecall

00000000410161bc <SID_PBVMS_023_satp_asidlen_discovery_passed>:
    410161bc:	00f00f9b          	addiw	x31,x0,15
    410161c0:	01cf9f93          	slli	x31,x31,0x1c
    410161c4:	001f8f93          	addi	x31,x31,1
    410161c8:	00000073          	ecall

00000000410161cc <SID_PBVMS_027_satp_user_mode_fault>:
    410161cc:	002e0137          	lui	x2,0x2e0
    410161d0:	7ef1011b          	addiw	x2,x2,2031 # 2e07ef <mem9__pt_level1+0xe37ef>
    410161d4:	00f11113          	slli	x2,x2,0xf
    410161d8:	000012b7          	lui	x5,0x1
    410161dc:	00510133          	add	x2,x2,x5
    410161e0:	ff017113          	andi	x2,x2,-16
    410161e4:	00002237          	lui	x4,0x2
    410161e8:	00200e13          	li	x28,2
    410161ec:	05c23823          	sd	x28,80(x4) # 2050 <check_excp_expected_cause>
    410161f0:	00000e17          	auipc	x28,0x0
    410161f4:	048e0e13          	addi	x28,x28,72 # 41016238 <fault_label_11>
    410161f8:	03c23023          	sd	x28,32(x4) # 20 <SECURE_ACCESS_PROBABILITY+0x2>
    410161fc:	00000e13          	li	x28,0
    41016200:	05c23023          	sd	x28,64(x4) # 40 <XLEN>
    41016204:	00000e13          	li	x28,0
    41016208:	05c23423          	sd	x28,72(x4) # 48 <XLEN+0x8>
    4101620c:	00000e17          	auipc	x28,0x0
    41016210:	044e0e13          	addi	x28,x28,68 # 41016250 <excp_return_label_11>
    41016214:	03c23823          	sd	x28,48(x4) # 30 <SECURE_ACCESS_PROBABILITY+0x12>
    41016218:	00000e13          	li	x28,0
    4101621c:	03c23c23          	sd	x28,56(x4) # 38 <SECURE_ACCESS_PROBABILITY+0x1a>
    41016220:	00000e13          	li	x28,0
    41016224:	07c23023          	sd	x28,96(x4) # 60 <XLEN+0x20>
    41016228:	00000e13          	li	x28,0
    4101622c:	07c23423          	sd	x28,104(x4) # 68 <XLEN+0x28>
    41016230:	00000e13          	li	x28,0
    41016234:	07c23823          	sd	x28,112(x4) # 70 <XLEN+0x30>

0000000041016238 <fault_label_11>:
    41016238:	180023f3          	csrr	x7,satp
    4101623c:	00038413          	mv	x8,x7
    41016240:	594f0fb7          	lui	x31,0x594f0
    41016244:	008f8f9b          	addiw	x31,x31,8 # 594f0008 <failed_addr>
    41016248:	000fb883          	ld	x17,0(x31)
    4101624c:	00088067          	jr	x17

0000000041016250 <excp_return_label_11>:
    41016250:	00002237          	lui	x4,0x2
    41016254:	00200e13          	li	x28,2
    41016258:	05c23823          	sd	x28,80(x4) # 2050 <check_excp_expected_cause>
    4101625c:	00000e17          	auipc	x28,0x0
    41016260:	04ce0e13          	addi	x28,x28,76 # 410162a8 <fault_label_12>
    41016264:	03c23023          	sd	x28,32(x4) # 20 <SECURE_ACCESS_PROBABILITY+0x2>
    41016268:	00000e13          	li	x28,0
    4101626c:	05c23023          	sd	x28,64(x4) # 40 <XLEN>
    41016270:	00000e13          	li	x28,0
    41016274:	05c23423          	sd	x28,72(x4) # 48 <XLEN+0x8>
    41016278:	00000e17          	auipc	x28,0x0
    4101627c:	044e0e13          	addi	x28,x28,68 # 410162bc <SID_PBVMS_027_satp_user_mode_fault_passed>
    41016280:	03c23823          	sd	x28,48(x4) # 30 <SECURE_ACCESS_PROBABILITY+0x12>
    41016284:	00000e13          	li	x28,0
    41016288:	03c23c23          	sd	x28,56(x4) # 38 <SECURE_ACCESS_PROBABILITY+0x1a>
    4101628c:	00000e13          	li	x28,0
    41016290:	07c23023          	sd	x28,96(x4) # 60 <XLEN+0x20>
    41016294:	00000e13          	li	x28,0
    41016298:	07c23423          	sd	x28,104(x4) # 68 <XLEN+0x28>
    4101629c:	00000e13          	li	x28,0
    410162a0:	07c23823          	sd	x28,112(x4) # 70 <XLEN+0x30>
    410162a4:	00000393          	li	x7,0

00000000410162a8 <fault_label_12>:
    410162a8:	180393f3          	csrrw	x7,satp,x7
    410162ac:	594f0637          	lui	x12,0x594f0
    410162b0:	0086061b          	addiw	x12,x12,8 # 594f0008 <failed_addr>
    410162b4:	00063783          	ld	x15,0(x12)
    410162b8:	00078067          	jr	x15

00000000410162bc <SID_PBVMS_027_satp_user_mode_fault_passed>:
    410162bc:	00f00f9b          	addiw	x31,x0,15
    410162c0:	01cf9f93          	slli	x31,x31,0x1c
    410162c4:	001f8f93          	addi	x31,x31,1
    410162c8:	00000073          	ecall

00000000410162cc <SID_PBVMS_040_context_table_overflow>:
    410162cc:	06acb137          	lui	x2,0x6acb
    410162d0:	25f1011b          	addiw	x2,x2,607 # 6acb25f <pma_region_2_size+0x2acb25f>
    410162d4:	00d11113          	slli	x2,x2,0xd
    410162d8:	594f0fb7          	lui	x31,0x594f0
    410162dc:	0a0f8f9b          	addiw	x31,x31,160 # 594f00a0 <machine_csr_jump_table_flags>
    410162e0:	00700f13          	li	x30,7
    410162e4:	01efb023          	sd	x30,0(x31)
    410162e8:	000f0fb7          	lui	x31,0xf0
    410162ec:	001f8f9b          	addiw	x31,x31,1 # f0001 <mem13+0x2d001>
    410162f0:	00cf9f93          	slli	x31,x31,0xc
    410162f4:	005f8f93          	addi	x31,x31,5
    410162f8:	00000073          	ecall
    410162fc:	00713023          	sd	x7,0(x2)
    41016300:	00024137          	lui	x2,0x24
    41016304:	9791011b          	addiw	x2,x2,-1671 # 23979 <mem2+0xe979>
    41016308:	00e11113          	slli	x2,x2,0xe
    4101630c:	000012b7          	lui	x5,0x1
    41016310:	00510133          	add	x2,x2,x5
    41016314:	ff017113          	andi	x2,x2,-16
    41016318:	0010039b          	addiw	x7,x0,1
    4101631c:	02c39393          	slli	x7,x7,0x2c
    41016320:	594f0fb7          	lui	x31,0x594f0
    41016324:	0a8f8f9b          	addiw	x31,x31,168 # 594f00a8 <super_csr_jump_table_flags>
    41016328:	00900f13          	li	x30,9
    4101632c:	01efb023          	sd	x30,0(x31)
    41016330:	000f0fb7          	lui	x31,0xf0
    41016334:	001f8f9b          	addiw	x31,x31,1 # f0001 <mem13+0x2d001>
    41016338:	00cf9f93          	slli	x31,x31,0xc
    4101633c:	006f8f93          	addi	x31,x31,6
    41016340:	00000073          	ecall
    41016344:	00797837          	lui	x16,0x797
    41016348:	00080f83          	lb	x31,0(x16) # 797000 <mem23>
    4101634c:	00032637          	lui	x12,0x32
    41016350:	000600e7          	jalr	x12 # 32000 <code_mem24>
    41016354:	0010039b          	addiw	x7,x0,1
    41016358:	02d39393          	slli	x7,x7,0x2d
    4101635c:	594f0fb7          	lui	x31,0x594f0
    41016360:	0a8f8f9b          	addiw	x31,x31,168 # 594f00a8 <super_csr_jump_table_flags>
    41016364:	00900f13          	li	x30,9
    41016368:	01efb023          	sd	x30,0(x31)
    4101636c:	000f0fb7          	lui	x31,0xf0
    41016370:	001f8f9b          	addiw	x31,x31,1 # f0001 <mem13+0x2d001>
    41016374:	00cf9f93          	slli	x31,x31,0xc
    41016378:	006f8f93          	addi	x31,x31,6
    4101637c:	00000073          	ecall
    41016380:	00797b37          	lui	x22,0x797
    41016384:	000b5e03          	lhu	x28,0(x22) # 797000 <mem23>
    41016388:	000328b7          	lui	x17,0x32
    4101638c:	000880e7          	jalr	x17 # 32000 <code_mem24>
    41016390:	0030039b          	addiw	x7,x0,3
    41016394:	02c39393          	slli	x7,x7,0x2c
    41016398:	594f0fb7          	lui	x31,0x594f0
    4101639c:	0a8f8f9b          	addiw	x31,x31,168 # 594f00a8 <super_csr_jump_table_flags>
    410163a0:	00900f13          	li	x30,9
    410163a4:	01efb023          	sd	x30,0(x31)
    410163a8:	000f0fb7          	lui	x31,0xf0
    410163ac:	001f8f9b          	addiw	x31,x31,1 # f0001 <mem13+0x2d001>
    410163b0:	00cf9f93          	slli	x31,x31,0xc
    410163b4:	006f8f93          	addi	x31,x31,6
    410163b8:	00000073          	ecall
    410163bc:	007975b7          	lui	x11,0x797
    410163c0:	0005c303          	lbu	x6,0(x11) # 797000 <mem23>
    410163c4:	00032837          	lui	x16,0x32
    410163c8:	000800e7          	jalr	x16 # 32000 <code_mem24>
    410163cc:	0010039b          	addiw	x7,x0,1
    410163d0:	02e39393          	slli	x7,x7,0x2e
    410163d4:	594f0fb7          	lui	x31,0x594f0
    410163d8:	0a8f8f9b          	addiw	x31,x31,168 # 594f00a8 <super_csr_jump_table_flags>
    410163dc:	00900f13          	li	x30,9
    410163e0:	01efb023          	sd	x30,0(x31)
    410163e4:	000f0fb7          	lui	x31,0xf0
    410163e8:	001f8f9b          	addiw	x31,x31,1 # f0001 <mem13+0x2d001>
    410163ec:	00cf9f93          	slli	x31,x31,0xc
    410163f0:	006f8f93          	addi	x31,x31,6
    410163f4:	00000073          	ecall
    410163f8:	007974b7          	lui	x9,0x797
    410163fc:	0004cb03          	lbu	x22,0(x9) # 797000 <mem23>
    41016400:	000329b7          	lui	x19,0x32
    41016404:	000980e7          	jalr	x19 # 32000 <code_mem24>
    41016408:	0010039b          	addiw	x7,x0,1
    4101640c:	02c39393          	slli	x7,x7,0x2c
    41016410:	594f0fb7          	lui	x31,0x594f0
    41016414:	0a8f8f9b          	addiw	x31,x31,168 # 594f00a8 <super_csr_jump_table_flags>
    41016418:	00900f13          	li	x30,9
    4101641c:	01efb023          	sd	x30,0(x31)
    41016420:	000f0fb7          	lui	x31,0xf0
    41016424:	001f8f9b          	addiw	x31,x31,1 # f0001 <mem13+0x2d001>
    41016428:	00cf9f93          	slli	x31,x31,0xc
    4101642c:	006f8f93          	addi	x31,x31,6
    41016430:	00000073          	ecall
    41016434:	007978b7          	lui	x17,0x797
    41016438:	0008df03          	lhu	x30,0(x17) # 797000 <mem23>
    4101643c:	00032937          	lui	x18,0x32
    41016440:	000900e7          	jalr	x18 # 32000 <code_mem24>
    41016444:	06acb137          	lui	x2,0x6acb
    41016448:	25f1011b          	addiw	x2,x2,607 # 6acb25f <pma_region_2_size+0x2acb25f>
    4101644c:	00d11113          	slli	x2,x2,0xd
    41016450:	00013383          	ld	x7,0(x2)
    41016454:	594f0fb7          	lui	x31,0x594f0
    41016458:	0a0f8f9b          	addiw	x31,x31,160 # 594f00a0 <machine_csr_jump_table_flags>
    4101645c:	00c00f13          	li	x30,12
    41016460:	01efb023          	sd	x30,0(x31)
    41016464:	000f0fb7          	lui	x31,0xf0
    41016468:	001f8f9b          	addiw	x31,x31,1 # f0001 <mem13+0x2d001>
    4101646c:	00cf9f93          	slli	x31,x31,0xc
    41016470:	005f8f93          	addi	x31,x31,5
    41016474:	00000073          	ecall

0000000041016478 <SID_PBVMS_040_context_table_overflow_passed>:
    41016478:	00f00f9b          	addiw	x31,x0,15
    4101647c:	01cf9f93          	slli	x31,x31,0x1c
    41016480:	001f8f93          	addi	x31,x31,1
    41016484:	00000073          	ecall

0000000041016488 <SID_PBVMS_042_canonical_boundary_crossing_fault>:
    41016488:	0451a137          	lui	x2,0x451a
    4101648c:	b9d1011b          	addiw	x2,x2,-1123 # 4519b9d <pma_region_2_size+0x519b9d>
    41016490:	01111113          	slli	x2,x2,0x11
    41016494:	000012b7          	lui	x5,0x1
    41016498:	00510133          	add	x2,x2,x5
    4101649c:	ff017113          	andi	x2,x2,-16
    410164a0:	00002237          	lui	x4,0x2
    410164a4:	00d00e13          	li	x28,13
    410164a8:	05c23823          	sd	x28,80(x4) # 2050 <check_excp_expected_cause>
    410164ac:	00000e17          	auipc	x28,0x0
    410164b0:	060e0e13          	addi	x28,x28,96 # 4101650c <fault_label_13>
    410164b4:	03c23023          	sd	x28,32(x4) # 20 <SECURE_ACCESS_PROBABILITY+0x2>
    410164b8:	00000e13          	li	x28,0
    410164bc:	05c23023          	sd	x28,64(x4) # 40 <XLEN>
    410164c0:	00000e13          	li	x28,0
    410164c4:	05c23423          	sd	x28,72(x4) # 48 <XLEN+0x8>
    410164c8:	00000e17          	auipc	x28,0x0
    410164cc:	058e0e13          	addi	x28,x28,88 # 41016520 <SID_PBVMS_042_canonical_boundary_crossing_fault_passed>
    410164d0:	03c23823          	sd	x28,48(x4) # 30 <SECURE_ACCESS_PROBABILITY+0x12>
    410164d4:	00000e13          	li	x28,0
    410164d8:	03c23c23          	sd	x28,56(x4) # 38 <SECURE_ACCESS_PROBABILITY+0x1a>
    410164dc:	00000e13          	li	x28,0
    410164e0:	07c23023          	sd	x28,96(x4) # 60 <XLEN+0x20>
    410164e4:	00000e13          	li	x28,0
    410164e8:	07c23423          	sd	x28,104(x4) # 68 <XLEN+0x28>
    410164ec:	00000e13          	li	x28,0
    410164f0:	07c23823          	sd	x28,112(x4) # 70 <XLEN+0x30>
    410164f4:	0f2cb3b7          	lui	x7,0xf2cb
    410164f8:	83f3839b          	addiw	x7,x7,-1985 # f2ca83f <SID_PBVMS_015_global_bit_honoured_stack+0x3b2883f>
    410164fc:	00d39393          	slli	x7,x7,0xd
    41016500:	fff0099b          	addiw	x19,x0,-1
    41016504:	03f99993          	slli	x19,x19,0x3f
    41016508:	013386b3          	add	x13,x7,x19

000000004101650c <fault_label_13>:
    4101650c:	0006a607          	flw	f12,0(x13)
    41016510:	594f0537          	lui	x10,0x594f0
    41016514:	0085051b          	addiw	x10,x10,8 # 594f0008 <failed_addr>
    41016518:	00053783          	ld	x15,0(x10)
    4101651c:	00078067          	jr	x15

0000000041016520 <SID_PBVMS_042_canonical_boundary_crossing_fault_passed>:
    41016520:	00f00f9b          	addiw	x31,x0,15
    41016524:	01cf9f93          	slli	x31,x31,0x1c
    41016528:	001f8f93          	addi	x31,x31,1
    4101652c:	00000073          	ecall

0000000041016530 <SID_PBVMS_043_fetch_window_spill_page_cross>:
    41016530:	00888137          	lui	x2,0x888
    41016534:	6db1011b          	addiw	x2,x2,1755 # 8886db <mem11__pt_level3+0x6e6cb>
    41016538:	00c11113          	slli	x2,x2,0xc
    4101653c:	000012b7          	lui	x5,0x1
    41016540:	00510133          	add	x2,x2,x5
    41016544:	ff017113          	andi	x2,x2,-16
    41016548:	3f768c37          	lui	x24,0x3f768
    4101654c:	3a1c0c1b          	addiw	x24,x24,929 # 3f7683a1 <code_mem4+0x553a1>
    41016550:	00cc1c13          	slli	x24,x24,0xc
    41016554:	000c00e7          	jalr	x24

0000000041016558 <SID_PBVMS_043_fetch_window_spill_page_cross_passed>:
    41016558:	00f00f9b          	addiw	x31,x0,15
    4101655c:	01cf9f93          	slli	x31,x31,0x1c
    41016560:	001f8f93          	addi	x31,x31,1
    41016564:	00000073          	ecall

0000000041016568 <test_cleanup>:
    41016568:	00f00f9b          	addiw	x31,x0,15
    4101656c:	01cf9f93          	slli	x31,x31,0x1c
    41016570:	001f8f93          	addi	x31,x31,1
    41016574:	00000073          	ecall

0000000041016578 <local_test_failed>:
    41016578:	00f00f9b          	addiw	x31,x0,15
    4101657c:	01cf9f93          	slli	x31,x31,0x1c
    41016580:	002f8f93          	addi	x31,x31,2
    41016584:	00000073          	ecall

Disassembly of section .csr_machine_0:

0000000041389000 <csr_access_mstatus_machine_key_6_write-0x50>:
    41389000:	415fcfb7          	lui	x31,0x415fc
    41389004:	0a0f8f9b          	addiw	x31,x31,160 # 415fc0a0 <machine_csr_jump_table_flags_pa>
    41389008:	000fbf83          	ld	x31,0(x31)
    4138900c:	00600293          	li	x5,6
    41389010:	045f8063          	beq	x31,x5,41389050 <csr_access_mstatus_machine_key_6_write>
    41389014:	00100293          	li	x5,1
    41389018:	045f8063          	beq	x31,x5,41389058 <csr_access_mstatus_machine_key_1_read>
    4138901c:	00200293          	li	x5,2
    41389020:	045f8063          	beq	x31,x5,41389060 <csr_access_mstatus_machine_key_2_set>
    41389024:	00300293          	li	x5,3
    41389028:	045f8063          	beq	x31,x5,41389068 <csr_access_mstatus_machine_key_3_clear>
    4138902c:	00c00293          	li	x5,12
    41389030:	045f8063          	beq	x31,x5,41389070 <csr_access_satp_supervisor_key_12_write>
    41389034:	00700293          	li	x5,7
    41389038:	045f8063          	beq	x31,x5,41389078 <csr_access_satp_supervisor_key_7_read>
    4138903c:	01000293          	li	x5,16
    41389040:	045f8063          	beq	x31,x5,41389080 <csr_access_mtvec_machine_key_16_set>
    41389044:	00f00293          	li	x5,15
    41389048:	045f8063          	beq	x31,x5,41389088 <csr_access_mtvec_machine_key_15_clear>
    4138904c:	0440006f          	j	41389090 <end_machine_label>

0000000041389050 <csr_access_mstatus_machine_key_6_write>:
    41389050:	30039073          	csrw	mstatus,x7
    41389054:	03c0006f          	j	41389090 <end_machine_label>

0000000041389058 <csr_access_mstatus_machine_key_1_read>:
    41389058:	300023f3          	csrr	x7,mstatus
    4138905c:	0340006f          	j	41389090 <end_machine_label>

0000000041389060 <csr_access_mstatus_machine_key_2_set>:
    41389060:	3003a073          	csrs	mstatus,x7
    41389064:	02c0006f          	j	41389090 <end_machine_label>

0000000041389068 <csr_access_mstatus_machine_key_3_clear>:
    41389068:	3003b073          	csrc	mstatus,x7
    4138906c:	0240006f          	j	41389090 <end_machine_label>

0000000041389070 <csr_access_satp_supervisor_key_12_write>:
    41389070:	18039073          	csrw	satp,x7
    41389074:	01c0006f          	j	41389090 <end_machine_label>

0000000041389078 <csr_access_satp_supervisor_key_7_read>:
    41389078:	180023f3          	csrr	x7,satp
    4138907c:	0140006f          	j	41389090 <end_machine_label>

0000000041389080 <csr_access_mtvec_machine_key_16_set>:
    41389080:	3053a073          	csrs	mtvec,x7
    41389084:	00c0006f          	j	41389090 <end_machine_label>

0000000041389088 <csr_access_mtvec_machine_key_15_clear>:
    41389088:	3053b073          	csrc	mtvec,x7
    4138908c:	0040006f          	j	41389090 <end_machine_label>

0000000041389090 <end_machine_label>:
    41389090:	000f0fb7          	lui	x31,0xf0
    41389094:	001f8f9b          	addiw	x31,x31,1 # f0001 <mem13+0x2d001>
    41389098:	00cf9f93          	slli	x31,x31,0xc
    4138909c:	004f8f93          	addi	x31,x31,4
    413890a0:	00000073          	ecall

Disassembly of section .csr_super_0:

000000004138a000 <csr_access_satp_supervisor_key_11_write-0x50>:
    4138a000:	594f0fb7          	lui	x31,0x594f0
    4138a004:	0a8f8f9b          	addiw	x31,x31,168 # 594f00a8 <super_csr_jump_table_flags>
    4138a008:	000fbf83          	ld	x31,0(x31)
    4138a00c:	00800293          	li	x5,8
    4138a010:	045f8463          	beq	x31,x5,4138a058 <csr_access_satp_supervisor_key_8_read>
    4138a014:	00b00293          	li	x5,11
    4138a018:	025f8c63          	beq	x31,x5,4138a050 <csr_access_satp_supervisor_key_11_write>
    4138a01c:	00900293          	li	x5,9
    4138a020:	045f8063          	beq	x31,x5,4138a060 <csr_access_satp_supervisor_key_9_set>
    4138a024:	00a00293          	li	x5,10
    4138a028:	045f8063          	beq	x31,x5,4138a068 <csr_access_satp_supervisor_key_10_clear>
    4138a02c:	00e00293          	li	x5,14
    4138a030:	045f8063          	beq	x31,x5,4138a070 <csr_access_sstatus_supervisor_key_14_set>
    4138a034:	00d00293          	li	x5,13
    4138a038:	045f8063          	beq	x31,x5,4138a078 <csr_access_sstatus_supervisor_key_13_clear>
    4138a03c:	01200293          	li	x5,18
    4138a040:	045f8063          	beq	x31,x5,4138a080 <csr_access_stvec_supervisor_key_18_set>
    4138a044:	01100293          	li	x5,17
    4138a048:	045f8063          	beq	x31,x5,4138a088 <csr_access_stvec_supervisor_key_17_clear>
    4138a04c:	0440006f          	j	4138a090 <end_super_label>

000000004138a050 <csr_access_satp_supervisor_key_11_write>:
    4138a050:	18039073          	csrw	satp,x7
    4138a054:	03c0006f          	j	4138a090 <end_super_label>

000000004138a058 <csr_access_satp_supervisor_key_8_read>:
    4138a058:	180023f3          	csrr	x7,satp
    4138a05c:	0340006f          	j	4138a090 <end_super_label>

000000004138a060 <csr_access_satp_supervisor_key_9_set>:
    4138a060:	1803a073          	csrs	satp,x7
    4138a064:	02c0006f          	j	4138a090 <end_super_label>

000000004138a068 <csr_access_satp_supervisor_key_10_clear>:
    4138a068:	1803b073          	csrc	satp,x7
    4138a06c:	0240006f          	j	4138a090 <end_super_label>

000000004138a070 <csr_access_sstatus_supervisor_key_14_set>:
    4138a070:	1003a073          	csrs	sstatus,x7
    4138a074:	01c0006f          	j	4138a090 <end_super_label>

000000004138a078 <csr_access_sstatus_supervisor_key_13_clear>:
    4138a078:	1003b073          	csrc	sstatus,x7
    4138a07c:	0140006f          	j	4138a090 <end_super_label>

000000004138a080 <csr_access_stvec_supervisor_key_18_set>:
    4138a080:	1053a073          	csrs	stvec,x7
    4138a084:	00c0006f          	j	4138a090 <end_super_label>

000000004138a088 <csr_access_stvec_supervisor_key_17_clear>:
    4138a088:	1053b073          	csrc	stvec,x7
    4138a08c:	0040006f          	j	4138a090 <end_super_label>

000000004138a090 <end_super_label>:
    4138a090:	000f0fb7          	lui	x31,0xf0
    4138a094:	001f8f9b          	addiw	x31,x31,1 # f0001 <mem13+0x2d001>
    4138a098:	00cf9f93          	slli	x31,x31,0xc
    4138a09c:	004f8f93          	addi	x31,x31,4
    4138a0a0:	00000073          	ecall

Disassembly of section .os_data:

00000000594f0000 <passed_addr_ptr>:
    594f0000:	50d0                	.insn	2, 0x50d0
    594f0002:	4101                	.insn	2, 0x4101
    594f0004:	0000                	.insn	2, 0x0000
	...

00000000594f0008 <failed_addr_ptr>:
    594f0008:	50e0                	.insn	2, 0x50e0
    594f000a:	4101                	.insn	2, 0x4101
    594f000c:	0000                	.insn	2, 0x0000
	...

00000000594f0010 <end_test_addr_ptr>:
    594f0010:	50f0                	.insn	2, 0x50f0
    594f0012:	4101                	.insn	2, 0x4101
    594f0014:	0000                	.insn	2, 0x0000
	...

00000000594f0018 <os_passed_addr_ptr>:
    594f0018:	07b0                	.insn	2, 0x07b0
    594f001a:	4100                	.insn	2, 0x4100
    594f001c:	0000                	.insn	2, 0x0000
	...

00000000594f0020 <os_failed_addr_ptr>:
    594f0020:	07c0                	.insn	2, 0x07c0
    594f0022:	4100                	.insn	2, 0x4100
    594f0024:	0000                	.insn	2, 0x0000
	...

00000000594f0028 <os_end_test_addr_ptr>:
    594f0028:	07cc                	.insn	2, 0x07cc
    594f002a:	4100                	.insn	2, 0x4100
    594f002c:	0000                	.insn	2, 0x0000
	...

00000000594f0030 <rvcp_prefix_str_data>:
    594f0030:	5652                	.insn	2, 0x5652
    594f0032:	203a5043          	fmadd.s	f0,f20,f3,f4,unknown
    594f0036:	6554                	.insn	2, 0x6554
    594f0038:	46207473          	csrrci	x8,0x462,0
    594f003c:	6c69                	.insn	2, 0x6c69
    594f003e:	2065                	.insn	2, 0x2065
	...

00000000594f0041 <rvcp_testname_str_data>:
    594f0041:	7074                	.insn	2, 0x7074
    594f0043:	705f 6761 6e69      	.insn	6, 0x6e696761705f
    594f0049:	00315f67          	.insn	4, 0x00315f67

00000000594f004d <rvcp_passed_str_data>:
    594f004d:	4150                	.insn	2, 0x4150
    594f004f:	44455353          	fround.h	f6,f10,unknown
	...

00000000594f0054 <rvcp_failed_str_data>:
    594f0054:	4146                	.insn	2, 0x4146
    594f0056:	4c49                	.insn	2, 0x4c49
    594f0058:	4445                	.insn	2, 0x4445
	...

00000000594f005b <rvcp_space_str_data>:
    594f005b:	0020                	.insn	2, 0x0020

00000000594f005d <rvcp_newline_str_data>:
    594f005d:	000a                	.insn	2, 0x000a
	...

00000000594f0060 <excp_ignored_count_mem>:
	...

00000000594f0068 <machine_flags_mem>:
	...

00000000594f0070 <user_flags_mem>:
	...

00000000594f0078 <super_flags_mem>:
	...

00000000594f0080 <machine_area_mem>:
	...

00000000594f0088 <user_area_mem>:
	...

00000000594f0090 <super_area_mem>:
	...

00000000594f0098 <zero_data_mem>:
	...

00000000594f00a0 <machine_csr_jump_table_flags_mem>:
	...

00000000594f00a8 <super_csr_jump_table_flags_mem>:
	...

00000000594f00b0 <pte_access_flags_mem>:
	...

00000000594f00c8 <num_harts_ended_mem>:
	...

00000000594f00d0 <num_hard_fails_mem>:
	...

Disassembly of section .hart_context:

0000000000002000 <hart_context_0>:
    2000:	6000                	.insn	2, 0x6000
	...
    2016:	0000                	.insn	2, 0x0000
    2018:	0001                	.insn	2, 0x0001
    201a:	0000                	.insn	2, 0x0000
    201c:	0000                	.insn	2, 0x0000
    201e:	0000                	.insn	2, 0x0000
    2020:	ffff                	.insn	2, 0xffff
    2022:	ffff                	.insn	2, 0xffff
    2024:	ffff                	.insn	2, 0xffff
    2026:	ffff                	.insn	2, 0xffff
    2028:	ffff                	.insn	2, 0xffff
    202a:	ffff                	.insn	2, 0xffff
    202c:	ffff                	.insn	2, 0xffff
    202e:	ffff                	.insn	2, 0xffff
    2030:	ffff                	.insn	2, 0xffff
    2032:	ffff                	.insn	2, 0xffff
    2034:	ffff                	.insn	2, 0xffff
    2036:	ffff                	.insn	2, 0xffff
	...
    2050:	00ff 0000 0000 0000 	.insn	10, 0x00ff00000000000000ff
    2058:	00ff 
	...
    2176:	0000                	.insn	2, 0x0000
    2178:	ffff                	.insn	2, 0xffff
    217a:	ffff                	.insn	2, 0xffff
    217c:	ffff                	.insn	2, 0xffff
    217e:	ffff                	.insn	2, 0xffff
	...
    2188:	ffff                	.insn	2, 0xffff
    218a:	ffff                	.insn	2, 0xffff
	...

Disassembly of section .hart_stack_0:

0000000000005000 <hart_stack_0>:
	...

Disassembly of section .io_htif:

0000000041040000 <tohost>:
	...

0000000041040040 <fromhost>:
	...

Disassembly of section .code_mem1:

00002bad31938000 <.code_mem1>:
    2bad31938000:	0020da17          	auipc	x20,0x20d
    2bad31938004:	7ed4db37          	lui	x22,0x7ed4d
    2bad31938008:	57eb0b1b          	addiw	x22,x22,1406 # 7ed4d57e <__section_os_data_1+0x2585c57e>
    2bad3193800c:	000c3e37          	lui	x28,0xc3
    2bad31938010:	ce7e0e1b          	addiw	x28,x28,-793 # c2ce7 <SID_PBVMS_009_superpage_alignment_fault_stack+0x1ce7>
    2bad31938014:	00ce1e13          	slli	x28,x28,0xc
    2bad31938018:	f47e0e13          	addi	x28,x28,-185
    2bad3193801c:	41cb093b          	subw	x18,x22,x28
    2bad31938020:	00008067          	ret

Disassembly of section .code_mem4:

000000003f713000 <.code_mem4>:
    3f713000:	000d6eb7          	lui	x29,0xd6
    3f713004:	f4be8e9b          	addiw	x29,x29,-181 # d5f4b <mem13+0x12f4b>
    3f713008:	00ce9e93          	slli	x29,x29,0xc
    3f71300c:	3b5e8e93          	addi	x29,x29,949
    3f713010:	63ca86b7          	lui	x13,0x63ca8
    3f713014:	2906869b          	addiw	x13,x13,656 # 63ca8290 <__section_os_data_1+0xa7b7290>
    3f713018:	02de9cb3          	mulh	x25,x29,x13
    3f71301c:	6ec9d4b7          	lui	x9,0x6ec9d
    3f713020:	2894849b          	addiw	x9,x9,649 # 6ec9d289 <__section_os_data_1+0x157ac289>
    3f713024:	0009c937          	lui	x18,0x9c
    3f713028:	8119091b          	addiw	x18,x18,-2031 # 9b811 <mem18+0x23811>
    3f71302c:	00c91913          	slli	x18,x18,0xc
    3f713030:	e7990913          	addi	x18,x18,-391
    3f713034:	41248333          	sub	x6,x9,x18
    3f713038:	000c33b7          	lui	x7,0xc3
    3f71303c:	24d3839b          	addiw	x7,x7,589 # c324d <mem13+0x24d>
    3f713040:	00c39393          	slli	x7,x7,0xc
    3f713044:	98838393          	addi	x7,x7,-1656
    3f713048:	000c4437          	lui	x8,0xc4
    3f71304c:	6474041b          	addiw	x8,x8,1607 # c4647 <mem13+0x1647>
    3f713050:	00c41413          	slli	x8,x8,0xc
    3f713054:	15c40413          	addi	x8,x8,348
    3f713058:	d013fad3          	fcvt.s.wu	f21,x7
    3f71305c:	d0247953          	fcvt.s.l	f18,x8
    3f713060:	012af0d3          	fadd.s	f1,f21,f18
    3f713064:	008a0c37          	lui	x24,0x8a0
    3f713068:	5a9c0c1b          	addiw	x24,x24,1449 # 8a05a9 <SID_PBVMS_014_mstatus_sum_mxr_stack+0x165a9>
    3f71306c:	728c0913          	addi	x18,x24,1832
    3f713070:	00008067          	ret

Disassembly of section .code_mem16:

000001e4bc6e8000 <.code_mem16>:
 1e4bc6e8000:	000f8eb7          	lui	x29,0xf8
 1e4bc6e8004:	131e8e9b          	addiw	x29,x29,305 # f8131 <mem13+0x35131>
 1e4bc6e8008:	00ce9e93          	slli	x29,x29,0xc
 1e4bc6e800c:	c45e8e93          	addi	x29,x29,-955
 1e4bc6e8010:	6c0fd337          	lui	x6,0x6c0fd
 1e4bc6e8014:	4f83031b          	addiw	x6,x6,1272 # 6c0fd4f8 <__section_os_data_1+0x12c0c4f8>
 1e4bc6e8018:	026e9bb3          	mulh	x23,x29,x6
 1e4bc6e801c:	00008067          	ret

Disassembly of section .code_mem24:

0000000000032000 <.code_mem24>:
   32000:	000c4ab7          	lui	x21,0xc4
   32004:	81fa8a9b          	addiw	x21,x21,-2017 # c381f <mem13+0x81f>
   32008:	00ca9a93          	slli	x21,x21,0xc
   3200c:	892a8a93          	addi	x21,x21,-1902
   32010:	70196c37          	lui	x24,0x70196
   32014:	6a3c0c1b          	addiw	x24,x24,1699 # 701966a3 <__section_os_data_1+0x16ca56a3>
   32018:	038aa6b3          	mulhsu	x13,x21,x24
   3201c:	00008067          	ret

Disassembly of section .code_mem27:

000003f7683a1000 <.code_mem27>:
 3f7683a1000:	000f44b7          	lui	x9,0xf4
 3f7683a1004:	c654849b          	addiw	x9,x9,-923 # f3c65 <mem13+0x30c65>
 3f7683a1008:	00c49493          	slli	x9,x9,0xc
 3f7683a100c:	afa48493          	addi	x9,x9,-1286
 3f7683a1010:	4a2f2f37          	lui	x30,0x4a2f2
 3f7683a1014:	0adf0f1b          	addiw	x30,x30,173 # 4a2f20ad <SID_PBVMS_018_rsw_fields_writable_stack+0x3b350ad>
 3f7683a1018:	0be4b8b3          	clmulh	x17,x9,x30
 3f7683a101c:	000ed4b7          	lui	x9,0xed
 3f7683a1020:	2f94849b          	addiw	x9,x9,761 # ed2f9 <mem13+0x2a2f9>
 3f7683a1024:	00c49493          	slli	x9,x9,0xc
 3f7683a1028:	9dc48493          	addi	x9,x9,-1572
 3f7683a102c:	05806fb7          	lui	x31,0x5806
 3f7683a1030:	978f8f9b          	addiw	x31,x31,-1672 # 5805978 <pma_region_2_size+0x1805978>
 3f7683a1034:	03f4ac33          	mulhsu	x24,x9,x31
 3f7683a1038:	6a8acab7          	lui	x21,0x6a8ac
 3f7683a103c:	4bda8a9b          	addiw	x21,x21,1213 # 6a8ac4bd <__section_os_data_1+0x113bb4bd>
 3f7683a1040:	0001bd37          	lui	x26,0x1b
 3f7683a1044:	cd7d0d1b          	addiw	x26,x26,-809 # 1acd7 <mem2+0x5cd7>
 3f7683a1048:	00fd1d13          	slli	x26,x26,0xf
 3f7683a104c:	2a1d0d13          	addi	x26,x26,673
 3f7683a1050:	03aaa4b3          	mulhsu	x9,x21,x26
 3f7683a1054:	000eb6b7          	lui	x13,0xeb
 3f7683a1058:	90b6869b          	addiw	x13,x13,-1781 # ea90b <mem13+0x2790b>
 3f7683a105c:	00c69693          	slli	x13,x13,0xc
 3f7683a1060:	8f368693          	addi	x13,x13,-1805
 3f7683a1064:	0008e937          	lui	x18,0x8e
 3f7683a1068:	73d9091b          	addiw	x18,x18,1853 # 8e73d <mem18+0x1673d>
 3f7683a106c:	00c91913          	slli	x18,x18,0xc
 3f7683a1070:	a4a90913          	addi	x18,x18,-1462
 3f7683a1074:	000ec9b7          	lui	x19,0xec
 3f7683a1078:	1499899b          	addiw	x19,x19,329 # ec149 <mem13+0x29149>
 3f7683a107c:	00c99993          	slli	x19,x19,0xc
 3f7683a1080:	cb798993          	addi	x19,x19,-841
 3f7683a1084:	d236f9d3          	fcvt.d.lu	f19,x13
 3f7683a1088:	d2090f53          	fcvt.d.w	f30,x18
 3f7683a108c:	d029f853          	fcvt.s.l	f16,x19
 3f7683a1090:	83e9ffcb          	fnmsub.d	f31,f19,f30,f16
 3f7683a1094:	00008067          	ret

Disassembly of section .mem0:

00001d9577b63000 <.mem0>:
    1d9577b63000:	c0de                	.insn	2, 0xc0de
    1d9577b63002:	c001                	.insn	2, 0xc001
    1d9577b63004:	0000                	.insn	2, 0x0000
	...

Disassembly of section .mem2:

0000000000015000 <.mem2>:
   15000:	c0de                	.insn	2, 0xc0de
   15002:	c001                	.insn	2, 0xc001
   15004:	0000                	.insn	2, 0x0000
	...

Disassembly of section .mem3:

0000192475200000 <.mem3>:
    192475200000:	c0de                	.insn	2, 0xc0de
    192475200002:	c001                	.insn	2, 0xc001
    192475200004:	0000                	.insn	2, 0x0000
	...

Disassembly of section .mem5:

0000000000010000 <.mem5>:
   10000:	c0de                	.insn	2, 0xc0de
   10002:	c001                	.insn	2, 0xc001
   10004:	0000                	.insn	2, 0x0000
	...

Disassembly of section .mem6:

0000068000000000 <.mem6>:
 68000000000:	c0de                	.insn	2, 0xc0de
 68000000002:	c001                	.insn	2, 0xc001
 68000000004:	0000                	.insn	2, 0x0000
	...

Disassembly of section .mem7:

000000037d000000 <.mem7>:
   37d000000:	c0de                	.insn	2, 0xc0de
   37d000002:	c001                	.insn	2, 0xc001
   37d000004:	0000                	.insn	2, 0x0000
	...

Disassembly of section .mem8:

0000000e92800000 <.mem8>:
   e92800000:	c0de                	.insn	2, 0xc0de
   e92800002:	c001                	.insn	2, 0xc001
   e92800004:	0000                	.insn	2, 0x0000
	...

Disassembly of section .mem9:

00007e8000000000 <.mem9>:
    7e8000000000:	c0de                	.insn	2, 0xc0de
    7e8000000002:	c001                	.insn	2, 0xc001
    7e8000000004:	0000                	.insn	2, 0x0000
	...

Disassembly of section .mem10:

0000110000000000 <.mem10>:
    110000000000:	c0de                	.insn	2, 0xc0de
    110000000002:	c001                	.insn	2, 0xc001
    110000000004:	0000                	.insn	2, 0x0000
	...

Disassembly of section .mem11:

0000010000000000 <.mem11>:
 10000000000:	c0de                	.insn	2, 0xc0de
 10000000002:	c001                	.insn	2, 0xc001
 10000000004:	0000                	.insn	2, 0x0000
	...

Disassembly of section .mem12:

00000000016d4000 <.mem12>:
 16d4000:	c0de                	.insn	2, 0xc0de
 16d4002:	c001                	.insn	2, 0xc001
 16d4004:	0000                	.insn	2, 0x0000
	...

Disassembly of section .mem13:

00000000000c3000 <.mem13>:
   c3000:	c0de                	.insn	2, 0xc0de
   c3002:	c001                	.insn	2, 0xc001
   c3004:	0000                	.insn	2, 0x0000
	...

Disassembly of section .mem14:

000003c60092c000 <.mem14>:
 3c60092c000:	c0de                	.insn	2, 0xc0de
 3c60092c002:	c001                	.insn	2, 0xc001
 3c60092c004:	0000                	.insn	2, 0x0000
	...

Disassembly of section .mem15:

000000000000a000 <.mem15>:
    a000:	c0de                	.insn	2, 0xc0de
    a002:	c001                	.insn	2, 0xc001
    a004:	0000                	.insn	2, 0x0000
	...

Disassembly of section .mem17:

0000000001f14000 <.mem17>:
 1f14000:	c0de                	.insn	2, 0xc0de
 1f14002:	c001                	.insn	2, 0xc001
 1f14004:	0000                	.insn	2, 0x0000
	...

Disassembly of section .mem18:

0000000000078000 <.mem18>:
   78000:	c0de                	.insn	2, 0xc0de
   78002:	c001                	.insn	2, 0xc001
   78004:	0000                	.insn	2, 0x0000
	...

Disassembly of section .mem19:

0000007870862000 <.mem19>:
  7870862000:	c0de                	.insn	2, 0xc0de
  7870862002:	c001                	.insn	2, 0xc001
  7870862004:	0000                	.insn	2, 0x0000
	...

Disassembly of section .mem20:

000000651ccf1000 <.mem20>:
  651ccf1000:	c0de                	.insn	2, 0xc0de
  651ccf1002:	c001                	.insn	2, 0xc001
  651ccf1004:	0000                	.insn	2, 0x0000
	...

Disassembly of section .mem21:

0000058000000000 <.mem21>:
 58000000000:	c0de                	.insn	2, 0xc0de
 58000000002:	c001                	.insn	2, 0xc001
 58000000004:	0000                	.insn	2, 0x0000
	...

Disassembly of section .mem22:

0000080000000000 <.mem22>:
 80000000000:	c0de                	.insn	2, 0xc0de
 80000000002:	c001                	.insn	2, 0xc001
 80000000004:	0000                	.insn	2, 0x0000
	...

Disassembly of section .mem23:

0000000000797000 <.mem23>:
  797000:	c0de                	.insn	2, 0xc0de
  797002:	c001                	.insn	2, 0xc001
  797004:	0000                	.insn	2, 0x0000
	...

Disassembly of section .mem25:

000001e59507e000 <.mem25>:
 1e59507e000:	c0de                	.insn	2, 0xc0de
 1e59507e002:	c001                	.insn	2, 0xc001
 1e59507e004:	0000                	.insn	2, 0x0000
	...

Disassembly of section .mem26:

0000000040e00000 <.mem26>:
    40e00000:	c0de                	.insn	2, 0xc0de
    40e00002:	c001                	.insn	2, 0xc001
    40e00004:	0000                	.insn	2, 0x0000
	...

Disassembly of section .tp_csr_storage:

000000d5964be000 <.tp_csr_storage>:
  d5964be000:	c0de                	.insn	2, 0xc0de
  d5964be002:	c001                	.insn	2, 0xc001
  d5964be004:	0000                	.insn	2, 0x0000
	...

Disassembly of section .SID_PBVMS_001_ptw_no_faults_all_access_types_stack:

0000000003972000 <.SID_PBVMS_001_ptw_no_faults_all_access_types_stack>:
 3972000:	c0de                	.insn	2, 0xc0de
 3972002:	c001                	.insn	2, 0xc001
 3972004:	0000                	.insn	2, 0x0000
	...

Disassembly of section .SID_PBVMS_003_ptw_all_privilege_modes_stack:

00000000005d5000 <.SID_PBVMS_003_ptw_all_privilege_modes_stack>:
  5d5000:	c0de                	.insn	2, 0xc0de
  5d5002:	c001                	.insn	2, 0xc001
  5d5004:	0000                	.insn	2, 0x0000
	...

Disassembly of section .SID_PBVMS_006_ptw_page_boundary_crossing_stack:

0000000003f11000 <.SID_PBVMS_006_ptw_page_boundary_crossing_stack>:
 3f11000:	c0de                	.insn	2, 0xc0de
 3f11002:	c001                	.insn	2, 0xc001
 3f11004:	0000                	.insn	2, 0x0000
	...

Disassembly of section .SID_PBVMS_008_va_sign_extension_fault_stack:

000000fcacb56000 <.SID_PBVMS_008_va_sign_extension_fault_stack>:
  fcacb56000:	c0de                	.insn	2, 0xc0de
  fcacb56002:	c001                	.insn	2, 0xc001
  fcacb56004:	0000                	.insn	2, 0x0000
	...

Disassembly of section .SID_PBVMS_009_superpage_alignment_fault_stack:

00000000000c1000 <.SID_PBVMS_009_superpage_alignment_fault_stack>:
   c1000:	c0de                	.insn	2, 0xc0de
   c1002:	c001                	.insn	2, 0xc001
   c1004:	0000                	.insn	2, 0x0000
	...

Disassembly of section .SID_PBVMS_011_ptw_fault_boundary_crossing_stack:

00000000ca5cc000 <.SID_PBVMS_011_ptw_fault_boundary_crossing_stack>:
    ca5cc000:	c0de                	.insn	2, 0xc0de
    ca5cc002:	c001                	.insn	2, 0xc001
    ca5cc004:	0000                	.insn	2, 0x0000
	...

Disassembly of section .SID_PBVMS_012_ptw_fault_prioritization_stack:

0000001eacc9a000 <.SID_PBVMS_012_ptw_fault_prioritization_stack>:
  1eacc9a000:	c0de                	.insn	2, 0xc0de
  1eacc9a002:	c001                	.insn	2, 0xc001
  1eacc9a004:	0000                	.insn	2, 0x0000
	...

Disassembly of section .SID_PBVMS_013_ptw_permission_encodings_stack:

0000057fffffe000 <.SID_PBVMS_013_ptw_permission_encodings_stack>:
 57fffffe000:	c0de                	.insn	2, 0xc0de
 57fffffe002:	c001                	.insn	2, 0xc001
 57fffffe004:	0000                	.insn	2, 0x0000
	...

Disassembly of section .SID_PBVMS_014_mstatus_sum_mxr_stack:

000000000088a000 <.SID_PBVMS_014_mstatus_sum_mxr_stack>:
  88a000:	c0de                	.insn	2, 0xc0de
  88a002:	c001                	.insn	2, 0xc001
  88a004:	0000                	.insn	2, 0x0000
	...

Disassembly of section .SID_PBVMS_015_global_bit_honoured_stack:

000000000b7a2000 <.SID_PBVMS_015_global_bit_honoured_stack>:
 b7a2000:	c0de                	.insn	2, 0xc0de
 b7a2002:	c001                	.insn	2, 0xc001
 b7a2004:	0000                	.insn	2, 0x0000
	...

Disassembly of section .SID_PBVMS_017_global_at_non_leaf_stack:

000000000103d000 <.SID_PBVMS_017_global_at_non_leaf_stack>:
 103d000:	c0de                	.insn	2, 0xc0de
 103d002:	c001                	.insn	2, 0xc001
 103d004:	0000                	.insn	2, 0x0000
	...

Disassembly of section .SID_PBVMS_018_rsw_fields_writable_stack:

00000000467bd000 <.SID_PBVMS_018_rsw_fields_writable_stack>:
    467bd000:	c0de                	.insn	2, 0xc0de
    467bd002:	c001                	.insn	2, 0xc001
    467bd004:	0000                	.insn	2, 0x0000
	...

Disassembly of section .SID_PBVMS_021_satp_valid_to_reserved_stack:

000000003f78e000 <.SID_PBVMS_021_satp_valid_to_reserved_stack>:
    3f78e000:	c0de                	.insn	2, 0xc0de
    3f78e002:	c001                	.insn	2, 0xc001
    3f78e004:	0000                	.insn	2, 0x0000
	...

Disassembly of section .SID_PBVMS_022_satp_csr_accessibility_stack:

00000b1c294cf000 <.SID_PBVMS_022_satp_csr_accessibility_stack>:
 b1c294cf000:	c0de                	.insn	2, 0xc0de
 b1c294cf002:	c001                	.insn	2, 0xc001
 b1c294cf004:	0000                	.insn	2, 0x0000
	...

Disassembly of section .SID_PBVMS_023_satp_asidlen_discovery_stack:

000000b9bd159000 <.SID_PBVMS_023_satp_asidlen_discovery_stack>:
  b9bd159000:	c0de                	.insn	2, 0xc0de
  b9bd159002:	c001                	.insn	2, 0xc001
  b9bd159004:	0000                	.insn	2, 0x0000
	...

Disassembly of section .SID_PBVMS_027_satp_user_mode_fault_stack:

0000001703f78000 <.SID_PBVMS_027_satp_user_mode_fault_stack>:
  1703f78000:	c0de                	.insn	2, 0xc0de
  1703f78002:	c001                	.insn	2, 0xc001
  1703f78004:	0000                	.insn	2, 0x0000
	...

Disassembly of section .SID_PBVMS_040_context_table_overflow_stack:

000000008e5e4000 <.SID_PBVMS_040_context_table_overflow_stack>:
    8e5e4000:	c0de                	.insn	2, 0xc0de
    8e5e4002:	c001                	.insn	2, 0xc001
    8e5e4004:	0000                	.insn	2, 0x0000
	...

Disassembly of section .SID_PBVMS_042_canonical_boundary_crossing_fault_stack:

000008a3373a0000 <.SID_PBVMS_042_canonical_boundary_crossing_fault_stack>:
 8a3373a0000:	c0de                	.insn	2, 0xc0de
 8a3373a0002:	c001                	.insn	2, 0xc001
 8a3373a0004:	0000                	.insn	2, 0x0000
	...

Disassembly of section .SID_PBVMS_043_fetch_window_spill_page_cross_stack:

00000008886db000 <.SID_PBVMS_043_fetch_window_spill_page_cross_stack>:
   8886db000:	c0de                	.insn	2, 0xc0de
   8886db002:	c001                	.insn	2, 0xc001
   8886db004:	0000                	.insn	2, 0x0000
	...

Disassembly of section .__pagetable_map_os_0x00000000413a6000:

00000000413a6000 <__pagetable_map_os_0x00000000413a6000>:
    413a6000:	9801                	.insn	2, 0x9801
    413a6002:	00001057          	vfadd.vv	v0,v0,v0,v0.t
    413a6006:	0000                	.insn	2, 0x0000
    413a6008:	7001                	.insn	2, 0x7001
    413a600a:	106e                	.insn	2, 0x106e
    413a600c:	0000                	.insn	2, 0x0000
    413a600e:	0000                	.insn	2, 0x0000
    413a6010:	8801                	.insn	2, 0x8801
    413a6012:	00001057          	vfadd.vv	v0,v0,v0,v0.t
    413a6016:	0000                	.insn	2, 0x0000
    413a6018:	a801                	.insn	2, 0xa801
    413a601a:	00001057          	vfadd.vv	v0,v0,v0,v0.t
	...
    413a6036:	0000                	.insn	2, 0x0000
    413a6038:	3401                	.insn	2, 0x3401
    413a603a:	0000106f          	j	413a703a <mem9__pt_level3__phys+0x852>
	...
    413a604e:	0000                	.insn	2, 0x0000
    413a6050:	1401                	.insn	2, 0x1401
    413a6052:	000010db          	.insn	4, 0x10db
    413a6056:	0000                	.insn	2, 0x0000
    413a6058:	4401                	.insn	2, 0x4401
    413a605a:	104e                	.insn	2, 0x104e
	...
    413a6068:	fc01                	.insn	2, 0xfc01
    413a606a:	00001057          	vfadd.vv	v0,v0,v0,v0.t
	...
    413a607e:	0000                	.insn	2, 0x0000
    413a6080:	3401                	.insn	2, 0x3401
    413a6082:	1055                	.insn	2, 0x1055
    413a6084:	0000                	.insn	2, 0x0000
    413a6086:	0000                	.insn	2, 0x0000
    413a6088:	b401                	.insn	2, 0xb401
    413a608a:	00001057          	vfadd.vv	v0,v0,v0,v0.t
	...
    413a60ae:	0000                	.insn	2, 0x0000
    413a60b0:	c401                	.insn	2, 0xc401
    413a60b2:	1072                	.insn	2, 0x1072
	...
    413a6110:	7001                	.insn	2, 0x7001
    413a6112:	0000106f          	j	413a7112 <mem9__pt_level3__phys+0x92a>
	...
    413a618e:	0000                	.insn	2, 0x0000
    413a6190:	8c01                	.insn	2, 0x8c01
    413a6192:	106e                	.insn	2, 0x106e
	...
    413a61d8:	c801                	.insn	2, 0xc801
    413a61da:	000010e7          	.insn	4, 0x10e7
	...
    413a62b6:	0000                	.insn	2, 0x0000
    413a62b8:	0801                	.insn	2, 0x0801
    413a62ba:	10df 0000 0000      	.insn	6, 0x10df
	...
    413a67e8:	e401                	.insn	2, 0xe401
    413a67ea:	109f 0000 0000      	.insn	6, 0x109f

Disassembly of section .__pagetable_map_os_0x00000000415e6000:

00000000415e6000 <__pagetable_map_os_0x00000000415e6000>:
    415e6000:	b801                	.insn	2, 0xb801
    415e6002:	0000106f          	j	415e7002 <__pagetable_map_os_0x00000000415e7000+0x2>
    415e6006:	0000                	.insn	2, 0x0000
    415e6008:	6c01                	.insn	2, 0x6c01
    415e600a:	104e                	.insn	2, 0x104e
    415e600c:	0000                	.insn	2, 0x0000
    415e600e:	0000                	.insn	2, 0x0000
    415e6010:	f801                	.insn	2, 0xf801
    415e6012:	104e                	.insn	2, 0x104e
    415e6014:	0000                	.insn	2, 0x0000
    415e6016:	0000                	.insn	2, 0x0000
    415e6018:	ac01                	.insn	2, 0xac01
    415e601a:	10d8                	.insn	2, 0x10d8
    415e601c:	0000                	.insn	2, 0x0000
    415e601e:	0000                	.insn	2, 0x0000
    415e6020:	6401                	.insn	2, 0x6401
    415e6022:	109d                	.insn	2, 0x109d
	...
    415e6068:	ec01                	.insn	2, 0xec01
    415e606a:	109d                	.insn	2, 0x109d
	...
    415e60a8:	8001                	.insn	2, 0x8001
    415e60aa:	106e                	.insn	2, 0x106e
	...
    415e60b8:	1801                	.insn	2, 0x1801
    415e60ba:	10f8                	.insn	2, 0x10f8
	...
    415e60c8:	e801                	.insn	2, 0xe801
    415e60ca:	10e2                	.insn	2, 0x10e2
	...
    415e6108:	c401                	.insn	2, 0xc401
    415e610a:	0000106f          	j	415e710a <__pagetable_map_os_0x00000000415e7000+0x10a>
    415e610e:	0000                	.insn	2, 0x0000
    415e6110:	d401                	.insn	2, 0xd401
    415e6112:	10d6                	.insn	2, 0x10d6
	...
    415e61d0:	7c01                	.insn	2, 0x7c01
    415e61d2:	106e                	.insn	2, 0x106e
	...
    415e62e0:	8801                	.insn	2, 0x8801
    415e62e2:	10b9                	.insn	2, 0x10b9
	...
    415e63d0:	c401                	.insn	2, 0xc401
    415e63d2:	109f 0000 0000      	.insn	6, 0x109f
	...
    415e6ca0:	d801                	.insn	2, 0xd801
    415e6ca2:	109d                	.insn	2, 0x109d
	...
    415e6f08:	c001                	.insn	2, 0xc001
    415e6f0a:	00001057          	vfadd.vv	v0,v0,v0,v0.t
	...

Disassembly of section .__pagetable_map_os_0x000000004139b000:

000000004139b000 <__pagetable_map_os_0x000000004139b000>:
	...
    4139b018:	c801                	.insn	2, 0xc801
    4139b01a:	109f 0000 0000      	.insn	6, 0x109f
	...
    4139b038:	109000db          	.insn	4, 0x109000db
    4139b03c:	0000                	.insn	2, 0x0000
    4139b03e:	0000                	.insn	2, 0x0000
    4139b040:	d001                	.insn	2, 0xd001
    4139b042:	109d                	.insn	2, 0x109d
    4139b044:	0000                	.insn	2, 0x0000
    4139b046:	0000                	.insn	2, 0x0000
    4139b048:	a001                	.insn	2, 0xa001
    4139b04a:	00001107          	flh	f2,0(x0) # 0 <ALL_4KB_PAGES>
	...
    4139b196:	0000                	.insn	2, 0x0000
    4139b198:	bc01                	.insn	2, 0xbc01
    4139b19a:	000010e7          	.insn	4, 0x10e7
	...
    4139b63e:	0000                	.insn	2, 0x0000
    4139b640:	ec01                	.insn	2, 0xec01
    4139b642:	00001057          	vfadd.vv	v0,v0,v0,v0.t
	...
    4139b64e:	0000                	.insn	2, 0x0000
    4139b650:	9c01                	.insn	2, 0x9c01
    4139b652:	00001057          	vfadd.vv	v0,v0,v0,v0.t
	...

Disassembly of section .__pagetable_map_os_0x0000000042774000:

0000000042774000 <__pagetable_map_os_0x0000000042774000>:
	...
    42774080:	40df 1040 0000      	.insn	6, 0x104040df
    42774086:	0000                	.insn	2, 0x0000
    42774088:	104044cf          	fnmadd.s	f9,f0,f4,f2,rmm
    4277408c:	0000                	.insn	2, 0x0000
    4277408e:	0000                	.insn	2, 0x0000
    42774090:	104048cf          	fnmadd.s	f17,f0,f4,f2,rmm
    42774094:	0000                	.insn	2, 0x0000
    42774096:	0000                	.insn	2, 0x0000
    42774098:	10404ccf          	fnmadd.s	f25,f0,f4,f2,rmm
    4277409c:	0000                	.insn	2, 0x0000
    4277409e:	0000                	.insn	2, 0x0000
    427740a0:	104050cf          	fnmadd.s	f1,f0,f4,f2,unknown
    427740a4:	0000                	.insn	2, 0x0000
    427740a6:	0000                	.insn	2, 0x0000
    427740a8:	00df 1060 0000      	.insn	6, 0x106000df
    427740ae:	0000                	.insn	2, 0x0000
    427740b0:	04df 1060 0000      	.insn	6, 0x106004df
    427740b6:	0000                	.insn	2, 0x0000
    427740b8:	08df 1060 0000      	.insn	6, 0x106008df
    427740be:	0000                	.insn	2, 0x0000
    427740c0:	0cdf 1060 0000      	.insn	6, 0x10600cdf
    427740c6:	0000                	.insn	2, 0x0000
    427740c8:	10df 1060 0000      	.insn	6, 0x106010df
    427740ce:	0000                	.insn	2, 0x0000
    427740d0:	14df 1060 0000      	.insn	6, 0x106014df
    427740d6:	0000                	.insn	2, 0x0000
    427740d8:	18df 1060 0000      	.insn	6, 0x106018df
    427740de:	0000                	.insn	2, 0x0000
    427740e0:	1cdf 1060 0000      	.insn	6, 0x10601cdf
    427740e6:	0000                	.insn	2, 0x0000
    427740e8:	20df 1060 0000      	.insn	6, 0x106020df
    427740ee:	0000                	.insn	2, 0x0000
    427740f0:	24df 1060 0000      	.insn	6, 0x106024df
    427740f6:	0000                	.insn	2, 0x0000
    427740f8:	28df 1060 0000      	.insn	6, 0x106028df
    427740fe:	0000                	.insn	2, 0x0000
    42774100:	2cdf 1060 0000      	.insn	6, 0x10602cdf
    42774106:	0000                	.insn	2, 0x0000
    42774108:	30df 1060 0000      	.insn	6, 0x106030df
    4277410e:	0000                	.insn	2, 0x0000
    42774110:	34df 1060 0000      	.insn	6, 0x106034df
    42774116:	0000                	.insn	2, 0x0000
    42774118:	38df 1060 0000      	.insn	6, 0x106038df
    4277411e:	0000                	.insn	2, 0x0000
    42774120:	3cdf 1060 0000      	.insn	6, 0x10603cdf
    42774126:	0000                	.insn	2, 0x0000
    42774128:	40df 1060 0000      	.insn	6, 0x106040df
    4277412e:	0000                	.insn	2, 0x0000
    42774130:	44df 1060 0000      	.insn	6, 0x106044df
    42774136:	0000                	.insn	2, 0x0000
    42774138:	48df 1060 0000      	.insn	6, 0x106048df
    4277413e:	0000                	.insn	2, 0x0000
    42774140:	4cdf 1060 0000      	.insn	6, 0x10604cdf
    42774146:	0000                	.insn	2, 0x0000
    42774148:	50df 1060 0000      	.insn	6, 0x106050df
    4277414e:	0000                	.insn	2, 0x0000
    42774150:	54df 1060 0000      	.insn	6, 0x106054df
    42774156:	0000                	.insn	2, 0x0000
    42774158:	58df 1060 0000      	.insn	6, 0x106058df
    4277415e:	0000                	.insn	2, 0x0000
    42774160:	5cdf 1060 0000      	.insn	6, 0x10605cdf
    42774166:	0000                	.insn	2, 0x0000
    42774168:	60df 1060 0000      	.insn	6, 0x106060df
    4277416e:	0000                	.insn	2, 0x0000
    42774170:	64df 1060 0000      	.insn	6, 0x106064df
    42774176:	0000                	.insn	2, 0x0000
    42774178:	68df 1060 0000      	.insn	6, 0x106068df
    4277417e:	0000                	.insn	2, 0x0000
    42774180:	6cdf 1060 0000      	.insn	6, 0x10606cdf
    42774186:	0000                	.insn	2, 0x0000
    42774188:	70df 1060 0000      	.insn	6, 0x106070df
    4277418e:	0000                	.insn	2, 0x0000
    42774190:	74df 1060 0000      	.insn	6, 0x106074df
    42774196:	0000                	.insn	2, 0x0000
    42774198:	78df 1060 0000      	.insn	6, 0x106078df
    4277419e:	0000                	.insn	2, 0x0000
    427741a0:	7cdf 1060 0000      	.insn	6, 0x10607cdf
    427741a6:	0000                	.insn	2, 0x0000
    427741a8:	80df 1060 0000      	.insn	6, 0x106080df
    427741ae:	0000                	.insn	2, 0x0000
    427741b0:	84df 1060 0000      	.insn	6, 0x106084df
    427741b6:	0000                	.insn	2, 0x0000
    427741b8:	88df 1060 0000      	.insn	6, 0x106088df
    427741be:	0000                	.insn	2, 0x0000
    427741c0:	8cdf 1060 0000      	.insn	6, 0x10608cdf
    427741c6:	0000                	.insn	2, 0x0000
    427741c8:	90df 1060 0000      	.insn	6, 0x106090df
    427741ce:	0000                	.insn	2, 0x0000
    427741d0:	94df 1060 0000      	.insn	6, 0x106094df
    427741d6:	0000                	.insn	2, 0x0000
    427741d8:	98df 1060 0000      	.insn	6, 0x106098df
    427741de:	0000                	.insn	2, 0x0000
    427741e0:	9cdf 1060 0000      	.insn	6, 0x10609cdf
    427741e6:	0000                	.insn	2, 0x0000
    427741e8:	a0df 1060 0000      	.insn	6, 0x1060a0df
    427741ee:	0000                	.insn	2, 0x0000
    427741f0:	a4df 1060 0000      	.insn	6, 0x1060a4df
    427741f6:	0000                	.insn	2, 0x0000
    427741f8:	a8df 1060 0000      	.insn	6, 0x1060a8df
    427741fe:	0000                	.insn	2, 0x0000
    42774200:	00df 1041 0000      	.insn	6, 0x104100df
    42774206:	0000                	.insn	2, 0x0000
    42774208:	b0df 1060 0000      	.insn	6, 0x1060b0df
    4277420e:	0000                	.insn	2, 0x0000
    42774210:	b4df 1060 0000      	.insn	6, 0x1060b4df
    42774216:	0000                	.insn	2, 0x0000
    42774218:	b8df 1060 0000      	.insn	6, 0x1060b8df
    4277421e:	0000                	.insn	2, 0x0000
    42774220:	bcdf 1060 0000      	.insn	6, 0x1060bcdf
    42774226:	0000                	.insn	2, 0x0000
    42774228:	c0df 1060 0000      	.insn	6, 0x1060c0df
    4277422e:	0000                	.insn	2, 0x0000
    42774230:	c4df 1060 0000      	.insn	6, 0x1060c4df
    42774236:	0000                	.insn	2, 0x0000
    42774238:	c8df 1060 0000      	.insn	6, 0x1060c8df
    4277423e:	0000                	.insn	2, 0x0000
    42774240:	ccdf 1060 0000      	.insn	6, 0x1060ccdf
    42774246:	0000                	.insn	2, 0x0000
    42774248:	d0df 1060 0000      	.insn	6, 0x1060d0df
    4277424e:	0000                	.insn	2, 0x0000
    42774250:	d4df 1060 0000      	.insn	6, 0x1060d4df
    42774256:	0000                	.insn	2, 0x0000
    42774258:	d8df 1060 0000      	.insn	6, 0x1060d8df
    4277425e:	0000                	.insn	2, 0x0000
    42774260:	dcdf 1060 0000      	.insn	6, 0x1060dcdf
    42774266:	0000                	.insn	2, 0x0000
    42774268:	e0df 1060 0000      	.insn	6, 0x1060e0df
    4277426e:	0000                	.insn	2, 0x0000
    42774270:	e4df 1060 0000      	.insn	6, 0x1060e4df
    42774276:	0000                	.insn	2, 0x0000
    42774278:	e8df 1060 0000      	.insn	6, 0x1060e8df
    4277427e:	0000                	.insn	2, 0x0000
    42774280:	ecdf 1060 0000      	.insn	6, 0x1060ecdf
    42774286:	0000                	.insn	2, 0x0000
    42774288:	f0df 1060 0000      	.insn	6, 0x1060f0df
    4277428e:	0000                	.insn	2, 0x0000
    42774290:	f4df 1060 0000      	.insn	6, 0x1060f4df
    42774296:	0000                	.insn	2, 0x0000
    42774298:	f8df 1060 0000      	.insn	6, 0x1060f8df
    4277429e:	0000                	.insn	2, 0x0000
    427742a0:	fcdf 1060 0000      	.insn	6, 0x1060fcdf
    427742a6:	0000                	.insn	2, 0x0000
    427742a8:	00df 1061 0000      	.insn	6, 0x106100df
    427742ae:	0000                	.insn	2, 0x0000
    427742b0:	04df 1061 0000      	.insn	6, 0x106104df
    427742b6:	0000                	.insn	2, 0x0000
    427742b8:	08df 1061 0000      	.insn	6, 0x106108df
    427742be:	0000                	.insn	2, 0x0000
    427742c0:	0cdf 1061 0000      	.insn	6, 0x10610cdf
    427742c6:	0000                	.insn	2, 0x0000
    427742c8:	10df 1061 0000      	.insn	6, 0x106110df
    427742ce:	0000                	.insn	2, 0x0000
    427742d0:	14df 1061 0000      	.insn	6, 0x106114df
    427742d6:	0000                	.insn	2, 0x0000
    427742d8:	18df 1061 0000      	.insn	6, 0x106118df
    427742de:	0000                	.insn	2, 0x0000
    427742e0:	1cdf 1061 0000      	.insn	6, 0x10611cdf
    427742e6:	0000                	.insn	2, 0x0000
    427742e8:	20df 1061 0000      	.insn	6, 0x106120df
    427742ee:	0000                	.insn	2, 0x0000
    427742f0:	24df 1061 0000      	.insn	6, 0x106124df
    427742f6:	0000                	.insn	2, 0x0000
    427742f8:	28df 1061 0000      	.insn	6, 0x106128df
    427742fe:	0000                	.insn	2, 0x0000
    42774300:	2cdf 1061 0000      	.insn	6, 0x10612cdf
    42774306:	0000                	.insn	2, 0x0000
    42774308:	30df 1061 0000      	.insn	6, 0x106130df
    4277430e:	0000                	.insn	2, 0x0000
    42774310:	34df 1061 0000      	.insn	6, 0x106134df
    42774316:	0000                	.insn	2, 0x0000
    42774318:	38df 1061 0000      	.insn	6, 0x106138df
    4277431e:	0000                	.insn	2, 0x0000
    42774320:	3cdf 1061 0000      	.insn	6, 0x10613cdf
    42774326:	0000                	.insn	2, 0x0000
    42774328:	40df 1061 0000      	.insn	6, 0x106140df
    4277432e:	0000                	.insn	2, 0x0000
    42774330:	44df 1061 0000      	.insn	6, 0x106144df
    42774336:	0000                	.insn	2, 0x0000
    42774338:	48df 1061 0000      	.insn	6, 0x106148df
    4277433e:	0000                	.insn	2, 0x0000
    42774340:	4cdf 1061 0000      	.insn	6, 0x10614cdf
    42774346:	0000                	.insn	2, 0x0000
    42774348:	50df 1061 0000      	.insn	6, 0x106150df
    4277434e:	0000                	.insn	2, 0x0000
    42774350:	54df 1061 0000      	.insn	6, 0x106154df
    42774356:	0000                	.insn	2, 0x0000
    42774358:	58df 1061 0000      	.insn	6, 0x106158df
    4277435e:	0000                	.insn	2, 0x0000
    42774360:	5cdf 1061 0000      	.insn	6, 0x10615cdf
    42774366:	0000                	.insn	2, 0x0000
    42774368:	60df 1061 0000      	.insn	6, 0x106160df
    4277436e:	0000                	.insn	2, 0x0000
    42774370:	64df 1061 0000      	.insn	6, 0x106164df
    42774376:	0000                	.insn	2, 0x0000
    42774378:	68df 1061 0000      	.insn	6, 0x106168df
    4277437e:	0000                	.insn	2, 0x0000
    42774380:	6cdf 1061 0000      	.insn	6, 0x10616cdf
    42774386:	0000                	.insn	2, 0x0000
    42774388:	70df 1061 0000      	.insn	6, 0x106170df
    4277438e:	0000                	.insn	2, 0x0000
    42774390:	74df 1061 0000      	.insn	6, 0x106174df
    42774396:	0000                	.insn	2, 0x0000
    42774398:	78df 1061 0000      	.insn	6, 0x106178df
    4277439e:	0000                	.insn	2, 0x0000
    427743a0:	7cdf 1061 0000      	.insn	6, 0x10617cdf
    427743a6:	0000                	.insn	2, 0x0000
    427743a8:	80df 1061 0000      	.insn	6, 0x106180df
    427743ae:	0000                	.insn	2, 0x0000
    427743b0:	84df 1061 0000      	.insn	6, 0x106184df
    427743b6:	0000                	.insn	2, 0x0000
    427743b8:	88df 1061 0000      	.insn	6, 0x106188df
    427743be:	0000                	.insn	2, 0x0000
    427743c0:	8cdf 1061 0000      	.insn	6, 0x10618cdf
    427743c6:	0000                	.insn	2, 0x0000
    427743c8:	90df 1061 0000      	.insn	6, 0x106190df
    427743ce:	0000                	.insn	2, 0x0000
    427743d0:	94df 1061 0000      	.insn	6, 0x106194df
    427743d6:	0000                	.insn	2, 0x0000
    427743d8:	98df 1061 0000      	.insn	6, 0x106198df
    427743de:	0000                	.insn	2, 0x0000
    427743e0:	9cdf 1061 0000      	.insn	6, 0x10619cdf
    427743e6:	0000                	.insn	2, 0x0000
    427743e8:	a0df 1061 0000      	.insn	6, 0x1061a0df
    427743ee:	0000                	.insn	2, 0x0000
    427743f0:	a4df 1061 0000      	.insn	6, 0x1061a4df
    427743f6:	0000                	.insn	2, 0x0000
    427743f8:	a8df 1061 0000      	.insn	6, 0x1061a8df
    427743fe:	0000                	.insn	2, 0x0000
    42774400:	acdf 1061 0000      	.insn	6, 0x1061acdf
    42774406:	0000                	.insn	2, 0x0000
    42774408:	b0df 1061 0000      	.insn	6, 0x1061b0df
    4277440e:	0000                	.insn	2, 0x0000
    42774410:	b4df 1061 0000      	.insn	6, 0x1061b4df
    42774416:	0000                	.insn	2, 0x0000
    42774418:	b8df 1061 0000      	.insn	6, 0x1061b8df
    4277441e:	0000                	.insn	2, 0x0000
    42774420:	bcdf 1061 0000      	.insn	6, 0x1061bcdf
    42774426:	0000                	.insn	2, 0x0000
    42774428:	c0df 1061 0000      	.insn	6, 0x1061c0df
    4277442e:	0000                	.insn	2, 0x0000
    42774430:	c4df 1061 0000      	.insn	6, 0x1061c4df
    42774436:	0000                	.insn	2, 0x0000
    42774438:	c8df 1061 0000      	.insn	6, 0x1061c8df
    4277443e:	0000                	.insn	2, 0x0000
    42774440:	ccdf 1061 0000      	.insn	6, 0x1061ccdf
    42774446:	0000                	.insn	2, 0x0000
    42774448:	d0df 1061 0000      	.insn	6, 0x1061d0df
    4277444e:	0000                	.insn	2, 0x0000
    42774450:	d4df 1061 0000      	.insn	6, 0x1061d4df
    42774456:	0000                	.insn	2, 0x0000
    42774458:	d8df 1061 0000      	.insn	6, 0x1061d8df
    4277445e:	0000                	.insn	2, 0x0000
    42774460:	dcdf 1061 0000      	.insn	6, 0x1061dcdf
    42774466:	0000                	.insn	2, 0x0000
    42774468:	e0df 1061 0000      	.insn	6, 0x1061e0df
    4277446e:	0000                	.insn	2, 0x0000
    42774470:	e4df 1061 0000      	.insn	6, 0x1061e4df
    42774476:	0000                	.insn	2, 0x0000
    42774478:	e8df 1061 0000      	.insn	6, 0x1061e8df
    4277447e:	0000                	.insn	2, 0x0000
    42774480:	ecdf 1061 0000      	.insn	6, 0x1061ecdf
    42774486:	0000                	.insn	2, 0x0000
    42774488:	f0df 1061 0000      	.insn	6, 0x1061f0df
    4277448e:	0000                	.insn	2, 0x0000
    42774490:	f4df 1061 0000      	.insn	6, 0x1061f4df
    42774496:	0000                	.insn	2, 0x0000
    42774498:	f8df 1061 0000      	.insn	6, 0x1061f8df
    4277449e:	0000                	.insn	2, 0x0000
    427744a0:	fcdf 1061 0000      	.insn	6, 0x1061fcdf
    427744a6:	0000                	.insn	2, 0x0000
    427744a8:	00df 1062 0000      	.insn	6, 0x106200df
    427744ae:	0000                	.insn	2, 0x0000
    427744b0:	04df 1062 0000      	.insn	6, 0x106204df
    427744b6:	0000                	.insn	2, 0x0000
    427744b8:	08df 1062 0000      	.insn	6, 0x106208df
    427744be:	0000                	.insn	2, 0x0000
    427744c0:	0cdf 1062 0000      	.insn	6, 0x10620cdf
    427744c6:	0000                	.insn	2, 0x0000
    427744c8:	10df 1062 0000      	.insn	6, 0x106210df
    427744ce:	0000                	.insn	2, 0x0000
    427744d0:	14df 1062 0000      	.insn	6, 0x106214df
    427744d6:	0000                	.insn	2, 0x0000
    427744d8:	18df 1062 0000      	.insn	6, 0x106218df
    427744de:	0000                	.insn	2, 0x0000
    427744e0:	1cdf 1062 0000      	.insn	6, 0x10621cdf
    427744e6:	0000                	.insn	2, 0x0000
    427744e8:	20df 1062 0000      	.insn	6, 0x106220df
    427744ee:	0000                	.insn	2, 0x0000
    427744f0:	24df 1062 0000      	.insn	6, 0x106224df
    427744f6:	0000                	.insn	2, 0x0000
    427744f8:	28df 1062 0000      	.insn	6, 0x106228df
    427744fe:	0000                	.insn	2, 0x0000
    42774500:	2cdf 1062 0000      	.insn	6, 0x10622cdf
    42774506:	0000                	.insn	2, 0x0000
    42774508:	30df 1062 0000      	.insn	6, 0x106230df
    4277450e:	0000                	.insn	2, 0x0000
    42774510:	34df 1062 0000      	.insn	6, 0x106234df
    42774516:	0000                	.insn	2, 0x0000
    42774518:	38df 1062 0000      	.insn	6, 0x106238df
    4277451e:	0000                	.insn	2, 0x0000
    42774520:	3cdf 1062 0000      	.insn	6, 0x10623cdf
    42774526:	0000                	.insn	2, 0x0000
    42774528:	40df 1062 0000      	.insn	6, 0x106240df
    4277452e:	0000                	.insn	2, 0x0000
    42774530:	44df 1062 0000      	.insn	6, 0x106244df
    42774536:	0000                	.insn	2, 0x0000
    42774538:	48df 1062 0000      	.insn	6, 0x106248df
    4277453e:	0000                	.insn	2, 0x0000
    42774540:	4cdf 1062 0000      	.insn	6, 0x10624cdf
    42774546:	0000                	.insn	2, 0x0000
    42774548:	50df 1062 0000      	.insn	6, 0x106250df
    4277454e:	0000                	.insn	2, 0x0000
    42774550:	54df 1062 0000      	.insn	6, 0x106254df
    42774556:	0000                	.insn	2, 0x0000
    42774558:	58df 1062 0000      	.insn	6, 0x106258df
    4277455e:	0000                	.insn	2, 0x0000
    42774560:	5cdf 1062 0000      	.insn	6, 0x10625cdf
    42774566:	0000                	.insn	2, 0x0000
    42774568:	60df 1062 0000      	.insn	6, 0x106260df
    4277456e:	0000                	.insn	2, 0x0000
    42774570:	64df 1062 0000      	.insn	6, 0x106264df
    42774576:	0000                	.insn	2, 0x0000
    42774578:	68df 1062 0000      	.insn	6, 0x106268df
    4277457e:	0000                	.insn	2, 0x0000
    42774580:	6cdf 1062 0000      	.insn	6, 0x10626cdf
    42774586:	0000                	.insn	2, 0x0000
    42774588:	70df 1062 0000      	.insn	6, 0x106270df
    4277458e:	0000                	.insn	2, 0x0000
    42774590:	74df 1062 0000      	.insn	6, 0x106274df
    42774596:	0000                	.insn	2, 0x0000
    42774598:	78df 1062 0000      	.insn	6, 0x106278df
    4277459e:	0000                	.insn	2, 0x0000
    427745a0:	7cdf 1062 0000      	.insn	6, 0x10627cdf
    427745a6:	0000                	.insn	2, 0x0000
    427745a8:	80df 1062 0000      	.insn	6, 0x106280df
    427745ae:	0000                	.insn	2, 0x0000
    427745b0:	84df 1062 0000      	.insn	6, 0x106284df
    427745b6:	0000                	.insn	2, 0x0000
    427745b8:	88df 1062 0000      	.insn	6, 0x106288df
    427745be:	0000                	.insn	2, 0x0000
    427745c0:	8cdf 1062 0000      	.insn	6, 0x10628cdf
    427745c6:	0000                	.insn	2, 0x0000
    427745c8:	90df 1062 0000      	.insn	6, 0x106290df
    427745ce:	0000                	.insn	2, 0x0000
    427745d0:	94df 1062 0000      	.insn	6, 0x106294df
    427745d6:	0000                	.insn	2, 0x0000
    427745d8:	98df 1062 0000      	.insn	6, 0x106298df
    427745de:	0000                	.insn	2, 0x0000
    427745e0:	9cdf 1062 0000      	.insn	6, 0x10629cdf
    427745e6:	0000                	.insn	2, 0x0000
    427745e8:	a0df 1062 0000      	.insn	6, 0x1062a0df
    427745ee:	0000                	.insn	2, 0x0000
    427745f0:	a4df 1062 0000      	.insn	6, 0x1062a4df
    427745f6:	0000                	.insn	2, 0x0000
    427745f8:	a8df 1062 0000      	.insn	6, 0x1062a8df
    427745fe:	0000                	.insn	2, 0x0000
    42774600:	acdf 1062 0000      	.insn	6, 0x1062acdf
    42774606:	0000                	.insn	2, 0x0000
    42774608:	b0df 1062 0000      	.insn	6, 0x1062b0df
    4277460e:	0000                	.insn	2, 0x0000
    42774610:	b4df 1062 0000      	.insn	6, 0x1062b4df
    42774616:	0000                	.insn	2, 0x0000
    42774618:	b8df 1062 0000      	.insn	6, 0x1062b8df
    4277461e:	0000                	.insn	2, 0x0000
    42774620:	bcdf 1062 0000      	.insn	6, 0x1062bcdf
    42774626:	0000                	.insn	2, 0x0000
    42774628:	c0df 1062 0000      	.insn	6, 0x1062c0df
    4277462e:	0000                	.insn	2, 0x0000
    42774630:	c4df 1062 0000      	.insn	6, 0x1062c4df
    42774636:	0000                	.insn	2, 0x0000
    42774638:	c8df 1062 0000      	.insn	6, 0x1062c8df
    4277463e:	0000                	.insn	2, 0x0000
    42774640:	ccdf 1062 0000      	.insn	6, 0x1062ccdf
    42774646:	0000                	.insn	2, 0x0000
    42774648:	d0df 1062 0000      	.insn	6, 0x1062d0df
    4277464e:	0000                	.insn	2, 0x0000
    42774650:	d4df 1062 0000      	.insn	6, 0x1062d4df
    42774656:	0000                	.insn	2, 0x0000
    42774658:	d8df 1062 0000      	.insn	6, 0x1062d8df
    4277465e:	0000                	.insn	2, 0x0000
    42774660:	dcdf 1062 0000      	.insn	6, 0x1062dcdf
    42774666:	0000                	.insn	2, 0x0000
    42774668:	e0df 1062 0000      	.insn	6, 0x1062e0df
    4277466e:	0000                	.insn	2, 0x0000
    42774670:	e4df 1062 0000      	.insn	6, 0x1062e4df
    42774676:	0000                	.insn	2, 0x0000
    42774678:	e8df 1062 0000      	.insn	6, 0x1062e8df
    4277467e:	0000                	.insn	2, 0x0000
    42774680:	ecdf 1062 0000      	.insn	6, 0x1062ecdf
    42774686:	0000                	.insn	2, 0x0000
    42774688:	f0df 1062 0000      	.insn	6, 0x1062f0df
    4277468e:	0000                	.insn	2, 0x0000
    42774690:	f4df 1062 0000      	.insn	6, 0x1062f4df
    42774696:	0000                	.insn	2, 0x0000
    42774698:	f8df 1062 0000      	.insn	6, 0x1062f8df
    4277469e:	0000                	.insn	2, 0x0000
    427746a0:	fcdf 1062 0000      	.insn	6, 0x1062fcdf
    427746a6:	0000                	.insn	2, 0x0000
    427746a8:	00df 1063 0000      	.insn	6, 0x106300df
    427746ae:	0000                	.insn	2, 0x0000
    427746b0:	04df 1063 0000      	.insn	6, 0x106304df
    427746b6:	0000                	.insn	2, 0x0000
    427746b8:	08df 1063 0000      	.insn	6, 0x106308df
    427746be:	0000                	.insn	2, 0x0000
    427746c0:	0cdf 1063 0000      	.insn	6, 0x10630cdf
    427746c6:	0000                	.insn	2, 0x0000
    427746c8:	10df 1063 0000      	.insn	6, 0x106310df
    427746ce:	0000                	.insn	2, 0x0000
    427746d0:	14df 1063 0000      	.insn	6, 0x106314df
    427746d6:	0000                	.insn	2, 0x0000
    427746d8:	18df 1063 0000      	.insn	6, 0x106318df
    427746de:	0000                	.insn	2, 0x0000
    427746e0:	1cdf 1063 0000      	.insn	6, 0x10631cdf
    427746e6:	0000                	.insn	2, 0x0000
    427746e8:	20df 1063 0000      	.insn	6, 0x106320df
    427746ee:	0000                	.insn	2, 0x0000
    427746f0:	24df 1063 0000      	.insn	6, 0x106324df
    427746f6:	0000                	.insn	2, 0x0000
    427746f8:	28df 1063 0000      	.insn	6, 0x106328df
    427746fe:	0000                	.insn	2, 0x0000
    42774700:	2cdf 1063 0000      	.insn	6, 0x10632cdf
    42774706:	0000                	.insn	2, 0x0000
    42774708:	30df 1063 0000      	.insn	6, 0x106330df
    4277470e:	0000                	.insn	2, 0x0000
    42774710:	34df 1063 0000      	.insn	6, 0x106334df
    42774716:	0000                	.insn	2, 0x0000
    42774718:	38df 1063 0000      	.insn	6, 0x106338df
    4277471e:	0000                	.insn	2, 0x0000
    42774720:	3cdf 1063 0000      	.insn	6, 0x10633cdf
    42774726:	0000                	.insn	2, 0x0000
    42774728:	40df 1063 0000      	.insn	6, 0x106340df
    4277472e:	0000                	.insn	2, 0x0000
    42774730:	44df 1063 0000      	.insn	6, 0x106344df
    42774736:	0000                	.insn	2, 0x0000
    42774738:	48df 1063 0000      	.insn	6, 0x106348df
    4277473e:	0000                	.insn	2, 0x0000
    42774740:	4cdf 1063 0000      	.insn	6, 0x10634cdf
    42774746:	0000                	.insn	2, 0x0000
    42774748:	50df 1063 0000      	.insn	6, 0x106350df
    4277474e:	0000                	.insn	2, 0x0000
    42774750:	54df 1063 0000      	.insn	6, 0x106354df
    42774756:	0000                	.insn	2, 0x0000
    42774758:	58df 1063 0000      	.insn	6, 0x106358df
    4277475e:	0000                	.insn	2, 0x0000
    42774760:	5cdf 1063 0000      	.insn	6, 0x10635cdf
    42774766:	0000                	.insn	2, 0x0000
    42774768:	60df 1063 0000      	.insn	6, 0x106360df
    4277476e:	0000                	.insn	2, 0x0000
    42774770:	64df 1063 0000      	.insn	6, 0x106364df
    42774776:	0000                	.insn	2, 0x0000
    42774778:	68df 1063 0000      	.insn	6, 0x106368df
    4277477e:	0000                	.insn	2, 0x0000
    42774780:	6cdf 1063 0000      	.insn	6, 0x10636cdf
    42774786:	0000                	.insn	2, 0x0000
    42774788:	70df 1063 0000      	.insn	6, 0x106370df
    4277478e:	0000                	.insn	2, 0x0000
    42774790:	74df 1063 0000      	.insn	6, 0x106374df
    42774796:	0000                	.insn	2, 0x0000
    42774798:	78df 1063 0000      	.insn	6, 0x106378df
    4277479e:	0000                	.insn	2, 0x0000
    427747a0:	7cdf 1063 0000      	.insn	6, 0x10637cdf
    427747a6:	0000                	.insn	2, 0x0000
    427747a8:	80df 1063 0000      	.insn	6, 0x106380df
    427747ae:	0000                	.insn	2, 0x0000
    427747b0:	84df 1063 0000      	.insn	6, 0x106384df
    427747b6:	0000                	.insn	2, 0x0000
    427747b8:	88df 1063 0000      	.insn	6, 0x106388df
    427747be:	0000                	.insn	2, 0x0000
    427747c0:	8cdf 1063 0000      	.insn	6, 0x10638cdf
    427747c6:	0000                	.insn	2, 0x0000
    427747c8:	90df 1063 0000      	.insn	6, 0x106390df
    427747ce:	0000                	.insn	2, 0x0000
    427747d0:	94df 1063 0000      	.insn	6, 0x106394df
    427747d6:	0000                	.insn	2, 0x0000
    427747d8:	98df 1063 0000      	.insn	6, 0x106398df
    427747de:	0000                	.insn	2, 0x0000
    427747e0:	9cdf 1063 0000      	.insn	6, 0x10639cdf
    427747e6:	0000                	.insn	2, 0x0000
    427747e8:	a0df 1063 0000      	.insn	6, 0x1063a0df
    427747ee:	0000                	.insn	2, 0x0000
    427747f0:	a4df 1063 0000      	.insn	6, 0x1063a4df
    427747f6:	0000                	.insn	2, 0x0000
    427747f8:	a8df 1063 0000      	.insn	6, 0x1063a8df
    427747fe:	0000                	.insn	2, 0x0000
    42774800:	acdf 1063 0000      	.insn	6, 0x1063acdf
    42774806:	0000                	.insn	2, 0x0000
    42774808:	b0df 1063 0000      	.insn	6, 0x1063b0df
    4277480e:	0000                	.insn	2, 0x0000
    42774810:	b4df 1063 0000      	.insn	6, 0x1063b4df
    42774816:	0000                	.insn	2, 0x0000
    42774818:	b8df 1063 0000      	.insn	6, 0x1063b8df
    4277481e:	0000                	.insn	2, 0x0000
    42774820:	bcdf 1063 0000      	.insn	6, 0x1063bcdf
    42774826:	0000                	.insn	2, 0x0000
    42774828:	c0df 1063 0000      	.insn	6, 0x1063c0df
    4277482e:	0000                	.insn	2, 0x0000
    42774830:	c4df 1063 0000      	.insn	6, 0x1063c4df
    42774836:	0000                	.insn	2, 0x0000
    42774838:	c8df 1063 0000      	.insn	6, 0x1063c8df
    4277483e:	0000                	.insn	2, 0x0000
    42774840:	ccdf 1063 0000      	.insn	6, 0x1063ccdf
    42774846:	0000                	.insn	2, 0x0000
    42774848:	d0df 1063 0000      	.insn	6, 0x1063d0df
    4277484e:	0000                	.insn	2, 0x0000
    42774850:	d4df 1063 0000      	.insn	6, 0x1063d4df
    42774856:	0000                	.insn	2, 0x0000
    42774858:	d8df 1063 0000      	.insn	6, 0x1063d8df
    4277485e:	0000                	.insn	2, 0x0000
    42774860:	dcdf 1063 0000      	.insn	6, 0x1063dcdf
    42774866:	0000                	.insn	2, 0x0000
    42774868:	e0df 1063 0000      	.insn	6, 0x1063e0df
    4277486e:	0000                	.insn	2, 0x0000
    42774870:	e4df 1063 0000      	.insn	6, 0x1063e4df
    42774876:	0000                	.insn	2, 0x0000
    42774878:	e8df 1063 0000      	.insn	6, 0x1063e8df
    4277487e:	0000                	.insn	2, 0x0000
    42774880:	ecdf 1063 0000      	.insn	6, 0x1063ecdf
    42774886:	0000                	.insn	2, 0x0000
    42774888:	f0df 1063 0000      	.insn	6, 0x1063f0df
    4277488e:	0000                	.insn	2, 0x0000
    42774890:	f4df 1063 0000      	.insn	6, 0x1063f4df
    42774896:	0000                	.insn	2, 0x0000
    42774898:	f8df 1063 0000      	.insn	6, 0x1063f8df
    4277489e:	0000                	.insn	2, 0x0000
    427748a0:	fcdf 1063 0000      	.insn	6, 0x1063fcdf
    427748a6:	0000                	.insn	2, 0x0000
    427748a8:	00df 1064 0000      	.insn	6, 0x106400df
    427748ae:	0000                	.insn	2, 0x0000
    427748b0:	04df 1064 0000      	.insn	6, 0x106404df
    427748b6:	0000                	.insn	2, 0x0000
    427748b8:	08df 1064 0000      	.insn	6, 0x106408df
    427748be:	0000                	.insn	2, 0x0000
    427748c0:	0cdf 1064 0000      	.insn	6, 0x10640cdf
    427748c6:	0000                	.insn	2, 0x0000
    427748c8:	10df 1064 0000      	.insn	6, 0x106410df
    427748ce:	0000                	.insn	2, 0x0000
    427748d0:	14df 1064 0000      	.insn	6, 0x106414df
    427748d6:	0000                	.insn	2, 0x0000
    427748d8:	18df 1064 0000      	.insn	6, 0x106418df
    427748de:	0000                	.insn	2, 0x0000
    427748e0:	1cdf 1064 0000      	.insn	6, 0x10641cdf
    427748e6:	0000                	.insn	2, 0x0000
    427748e8:	20df 1064 0000      	.insn	6, 0x106420df
    427748ee:	0000                	.insn	2, 0x0000
    427748f0:	24df 1064 0000      	.insn	6, 0x106424df
    427748f6:	0000                	.insn	2, 0x0000
    427748f8:	28df 1064 0000      	.insn	6, 0x106428df
    427748fe:	0000                	.insn	2, 0x0000
    42774900:	2cdf 1064 0000      	.insn	6, 0x10642cdf
    42774906:	0000                	.insn	2, 0x0000
    42774908:	30df 1064 0000      	.insn	6, 0x106430df
    4277490e:	0000                	.insn	2, 0x0000
    42774910:	34df 1064 0000      	.insn	6, 0x106434df
    42774916:	0000                	.insn	2, 0x0000
    42774918:	38df 1064 0000      	.insn	6, 0x106438df
    4277491e:	0000                	.insn	2, 0x0000
    42774920:	3cdf 1064 0000      	.insn	6, 0x10643cdf
    42774926:	0000                	.insn	2, 0x0000
    42774928:	40df 1064 0000      	.insn	6, 0x106440df
    4277492e:	0000                	.insn	2, 0x0000
    42774930:	44df 1064 0000      	.insn	6, 0x106444df
    42774936:	0000                	.insn	2, 0x0000
    42774938:	48df 1064 0000      	.insn	6, 0x106448df
    4277493e:	0000                	.insn	2, 0x0000
    42774940:	4cdf 1064 0000      	.insn	6, 0x10644cdf
    42774946:	0000                	.insn	2, 0x0000
    42774948:	50df 1064 0000      	.insn	6, 0x106450df
    4277494e:	0000                	.insn	2, 0x0000
    42774950:	54df 1064 0000      	.insn	6, 0x106454df
    42774956:	0000                	.insn	2, 0x0000
    42774958:	58df 1064 0000      	.insn	6, 0x106458df
    4277495e:	0000                	.insn	2, 0x0000
    42774960:	5cdf 1064 0000      	.insn	6, 0x10645cdf
    42774966:	0000                	.insn	2, 0x0000
    42774968:	60df 1064 0000      	.insn	6, 0x106460df
    4277496e:	0000                	.insn	2, 0x0000
    42774970:	64df 1064 0000      	.insn	6, 0x106464df
    42774976:	0000                	.insn	2, 0x0000
    42774978:	68df 1064 0000      	.insn	6, 0x106468df
    4277497e:	0000                	.insn	2, 0x0000
    42774980:	6cdf 1064 0000      	.insn	6, 0x10646cdf
    42774986:	0000                	.insn	2, 0x0000
    42774988:	70df 1064 0000      	.insn	6, 0x106470df
    4277498e:	0000                	.insn	2, 0x0000
    42774990:	74df 1064 0000      	.insn	6, 0x106474df
    42774996:	0000                	.insn	2, 0x0000
    42774998:	78df 1064 0000      	.insn	6, 0x106478df
    4277499e:	0000                	.insn	2, 0x0000
    427749a0:	7cdf 1064 0000      	.insn	6, 0x10647cdf
    427749a6:	0000                	.insn	2, 0x0000
    427749a8:	80df 1064 0000      	.insn	6, 0x106480df
    427749ae:	0000                	.insn	2, 0x0000
    427749b0:	84df 1064 0000      	.insn	6, 0x106484df
    427749b6:	0000                	.insn	2, 0x0000
    427749b8:	88df 1064 0000      	.insn	6, 0x106488df
    427749be:	0000                	.insn	2, 0x0000
    427749c0:	8cdf 1064 0000      	.insn	6, 0x10648cdf
    427749c6:	0000                	.insn	2, 0x0000
    427749c8:	90df 1064 0000      	.insn	6, 0x106490df
    427749ce:	0000                	.insn	2, 0x0000
    427749d0:	94df 1064 0000      	.insn	6, 0x106494df
    427749d6:	0000                	.insn	2, 0x0000
    427749d8:	98df 1064 0000      	.insn	6, 0x106498df
    427749de:	0000                	.insn	2, 0x0000
    427749e0:	9cdf 1064 0000      	.insn	6, 0x10649cdf
    427749e6:	0000                	.insn	2, 0x0000
    427749e8:	a0df 1064 0000      	.insn	6, 0x1064a0df
    427749ee:	0000                	.insn	2, 0x0000
    427749f0:	a4df 1064 0000      	.insn	6, 0x1064a4df
    427749f6:	0000                	.insn	2, 0x0000
    427749f8:	a8df 1064 0000      	.insn	6, 0x1064a8df
    427749fe:	0000                	.insn	2, 0x0000
    42774a00:	acdf 1064 0000      	.insn	6, 0x1064acdf
    42774a06:	0000                	.insn	2, 0x0000
    42774a08:	b0df 1064 0000      	.insn	6, 0x1064b0df
    42774a0e:	0000                	.insn	2, 0x0000
    42774a10:	b4df 1064 0000      	.insn	6, 0x1064b4df
    42774a16:	0000                	.insn	2, 0x0000
    42774a18:	b8df 1064 0000      	.insn	6, 0x1064b8df
    42774a1e:	0000                	.insn	2, 0x0000
    42774a20:	bcdf 1064 0000      	.insn	6, 0x1064bcdf
    42774a26:	0000                	.insn	2, 0x0000
    42774a28:	c0df 1064 0000      	.insn	6, 0x1064c0df
    42774a2e:	0000                	.insn	2, 0x0000
    42774a30:	c4df 1064 0000      	.insn	6, 0x1064c4df
    42774a36:	0000                	.insn	2, 0x0000
    42774a38:	c8df 1064 0000      	.insn	6, 0x1064c8df
    42774a3e:	0000                	.insn	2, 0x0000
    42774a40:	ccdf 1064 0000      	.insn	6, 0x1064ccdf
    42774a46:	0000                	.insn	2, 0x0000
    42774a48:	d0df 1064 0000      	.insn	6, 0x1064d0df
    42774a4e:	0000                	.insn	2, 0x0000
    42774a50:	d4df 1064 0000      	.insn	6, 0x1064d4df
    42774a56:	0000                	.insn	2, 0x0000
    42774a58:	d8df 1064 0000      	.insn	6, 0x1064d8df
    42774a5e:	0000                	.insn	2, 0x0000
    42774a60:	dcdf 1064 0000      	.insn	6, 0x1064dcdf
    42774a66:	0000                	.insn	2, 0x0000
    42774a68:	e0df 1064 0000      	.insn	6, 0x1064e0df
    42774a6e:	0000                	.insn	2, 0x0000
    42774a70:	e4df 1064 0000      	.insn	6, 0x1064e4df
    42774a76:	0000                	.insn	2, 0x0000
    42774a78:	e8df 1064 0000      	.insn	6, 0x1064e8df
    42774a7e:	0000                	.insn	2, 0x0000
    42774a80:	ecdf 1064 0000      	.insn	6, 0x1064ecdf
    42774a86:	0000                	.insn	2, 0x0000
    42774a88:	f0df 1064 0000      	.insn	6, 0x1064f0df
    42774a8e:	0000                	.insn	2, 0x0000
    42774a90:	f4df 1064 0000      	.insn	6, 0x1064f4df
    42774a96:	0000                	.insn	2, 0x0000
    42774a98:	f8df 1064 0000      	.insn	6, 0x1064f8df
    42774a9e:	0000                	.insn	2, 0x0000
    42774aa0:	fcdf 1064 0000      	.insn	6, 0x1064fcdf
    42774aa6:	0000                	.insn	2, 0x0000
    42774aa8:	00df 1065 0000      	.insn	6, 0x106500df
    42774aae:	0000                	.insn	2, 0x0000
    42774ab0:	04df 1065 0000      	.insn	6, 0x106504df
    42774ab6:	0000                	.insn	2, 0x0000
    42774ab8:	08df 1065 0000      	.insn	6, 0x106508df
    42774abe:	0000                	.insn	2, 0x0000
    42774ac0:	0cdf 1065 0000      	.insn	6, 0x10650cdf
    42774ac6:	0000                	.insn	2, 0x0000
    42774ac8:	10df 1065 0000      	.insn	6, 0x106510df
    42774ace:	0000                	.insn	2, 0x0000
    42774ad0:	14df 1065 0000      	.insn	6, 0x106514df
    42774ad6:	0000                	.insn	2, 0x0000
    42774ad8:	18df 1065 0000      	.insn	6, 0x106518df
    42774ade:	0000                	.insn	2, 0x0000
    42774ae0:	1cdf 1065 0000      	.insn	6, 0x10651cdf
    42774ae6:	0000                	.insn	2, 0x0000
    42774ae8:	20df 1065 0000      	.insn	6, 0x106520df
    42774aee:	0000                	.insn	2, 0x0000
    42774af0:	24df 1065 0000      	.insn	6, 0x106524df
    42774af6:	0000                	.insn	2, 0x0000
    42774af8:	28df 1065 0000      	.insn	6, 0x106528df
    42774afe:	0000                	.insn	2, 0x0000
    42774b00:	2cdf 1065 0000      	.insn	6, 0x10652cdf
    42774b06:	0000                	.insn	2, 0x0000
    42774b08:	30df 1065 0000      	.insn	6, 0x106530df
    42774b0e:	0000                	.insn	2, 0x0000
    42774b10:	34df 1065 0000      	.insn	6, 0x106534df
    42774b16:	0000                	.insn	2, 0x0000
    42774b18:	38df 1065 0000      	.insn	6, 0x106538df
    42774b1e:	0000                	.insn	2, 0x0000
    42774b20:	3cdf 1065 0000      	.insn	6, 0x10653cdf
    42774b26:	0000                	.insn	2, 0x0000
    42774b28:	40df 1065 0000      	.insn	6, 0x106540df
    42774b2e:	0000                	.insn	2, 0x0000
    42774b30:	44df 1065 0000      	.insn	6, 0x106544df
    42774b36:	0000                	.insn	2, 0x0000
    42774b38:	48df 1065 0000      	.insn	6, 0x106548df
    42774b3e:	0000                	.insn	2, 0x0000
    42774b40:	4cdf 1065 0000      	.insn	6, 0x10654cdf
    42774b46:	0000                	.insn	2, 0x0000
    42774b48:	50df 1065 0000      	.insn	6, 0x106550df
    42774b4e:	0000                	.insn	2, 0x0000
    42774b50:	54df 1065 0000      	.insn	6, 0x106554df
    42774b56:	0000                	.insn	2, 0x0000
    42774b58:	58df 1065 0000      	.insn	6, 0x106558df
    42774b5e:	0000                	.insn	2, 0x0000
    42774b60:	5cdf 1065 0000      	.insn	6, 0x10655cdf
    42774b66:	0000                	.insn	2, 0x0000
    42774b68:	60df 1065 0000      	.insn	6, 0x106560df
    42774b6e:	0000                	.insn	2, 0x0000
    42774b70:	64df 1065 0000      	.insn	6, 0x106564df
    42774b76:	0000                	.insn	2, 0x0000
    42774b78:	68df 1065 0000      	.insn	6, 0x106568df
    42774b7e:	0000                	.insn	2, 0x0000
    42774b80:	6cdf 1065 0000      	.insn	6, 0x10656cdf
    42774b86:	0000                	.insn	2, 0x0000
    42774b88:	70df 1065 0000      	.insn	6, 0x106570df
    42774b8e:	0000                	.insn	2, 0x0000
    42774b90:	74df 1065 0000      	.insn	6, 0x106574df
    42774b96:	0000                	.insn	2, 0x0000
    42774b98:	78df 1065 0000      	.insn	6, 0x106578df
    42774b9e:	0000                	.insn	2, 0x0000
    42774ba0:	7cdf 1065 0000      	.insn	6, 0x10657cdf
    42774ba6:	0000                	.insn	2, 0x0000
    42774ba8:	80df 1065 0000      	.insn	6, 0x106580df
    42774bae:	0000                	.insn	2, 0x0000
    42774bb0:	84df 1065 0000      	.insn	6, 0x106584df
    42774bb6:	0000                	.insn	2, 0x0000
    42774bb8:	88df 1065 0000      	.insn	6, 0x106588df
    42774bbe:	0000                	.insn	2, 0x0000
    42774bc0:	8cdf 1065 0000      	.insn	6, 0x10658cdf
    42774bc6:	0000                	.insn	2, 0x0000
    42774bc8:	90df 1065 0000      	.insn	6, 0x106590df
    42774bce:	0000                	.insn	2, 0x0000
    42774bd0:	94df 1065 0000      	.insn	6, 0x106594df
    42774bd6:	0000                	.insn	2, 0x0000
    42774bd8:	98df 1065 0000      	.insn	6, 0x106598df
    42774bde:	0000                	.insn	2, 0x0000
    42774be0:	9cdf 1065 0000      	.insn	6, 0x10659cdf
    42774be6:	0000                	.insn	2, 0x0000
    42774be8:	a0df 1065 0000      	.insn	6, 0x1065a0df
    42774bee:	0000                	.insn	2, 0x0000
    42774bf0:	a4df 1065 0000      	.insn	6, 0x1065a4df
    42774bf6:	0000                	.insn	2, 0x0000
    42774bf8:	a8df 1065 0000      	.insn	6, 0x1065a8df
    42774bfe:	0000                	.insn	2, 0x0000
    42774c00:	acdf 1065 0000      	.insn	6, 0x1065acdf
    42774c06:	0000                	.insn	2, 0x0000
    42774c08:	b0df 1065 0000      	.insn	6, 0x1065b0df
    42774c0e:	0000                	.insn	2, 0x0000
    42774c10:	b4df 1065 0000      	.insn	6, 0x1065b4df
    42774c16:	0000                	.insn	2, 0x0000
    42774c18:	b8df 1065 0000      	.insn	6, 0x1065b8df
    42774c1e:	0000                	.insn	2, 0x0000
    42774c20:	bcdf 1065 0000      	.insn	6, 0x1065bcdf
    42774c26:	0000                	.insn	2, 0x0000
    42774c28:	c0df 1065 0000      	.insn	6, 0x1065c0df
    42774c2e:	0000                	.insn	2, 0x0000
    42774c30:	c4df 1065 0000      	.insn	6, 0x1065c4df
    42774c36:	0000                	.insn	2, 0x0000
    42774c38:	c8df 1065 0000      	.insn	6, 0x1065c8df
    42774c3e:	0000                	.insn	2, 0x0000
    42774c40:	ccdf 1065 0000      	.insn	6, 0x1065ccdf
    42774c46:	0000                	.insn	2, 0x0000
    42774c48:	d0df 1065 0000      	.insn	6, 0x1065d0df
    42774c4e:	0000                	.insn	2, 0x0000
    42774c50:	d4df 1065 0000      	.insn	6, 0x1065d4df
    42774c56:	0000                	.insn	2, 0x0000
    42774c58:	d8df 1065 0000      	.insn	6, 0x1065d8df
    42774c5e:	0000                	.insn	2, 0x0000
    42774c60:	dcdf 1065 0000      	.insn	6, 0x1065dcdf
    42774c66:	0000                	.insn	2, 0x0000
    42774c68:	e0df 1065 0000      	.insn	6, 0x1065e0df
    42774c6e:	0000                	.insn	2, 0x0000
    42774c70:	e4df 1065 0000      	.insn	6, 0x1065e4df
    42774c76:	0000                	.insn	2, 0x0000
    42774c78:	e8df 1065 0000      	.insn	6, 0x1065e8df
    42774c7e:	0000                	.insn	2, 0x0000
    42774c80:	ecdf 1065 0000      	.insn	6, 0x1065ecdf
    42774c86:	0000                	.insn	2, 0x0000
    42774c88:	f0df 1065 0000      	.insn	6, 0x1065f0df
    42774c8e:	0000                	.insn	2, 0x0000
    42774c90:	f4df 1065 0000      	.insn	6, 0x1065f4df
    42774c96:	0000                	.insn	2, 0x0000
    42774c98:	f8df 1065 0000      	.insn	6, 0x1065f8df
    42774c9e:	0000                	.insn	2, 0x0000
    42774ca0:	fcdf 1065 0000      	.insn	6, 0x1065fcdf
    42774ca6:	0000                	.insn	2, 0x0000
    42774ca8:	00df 1066 0000      	.insn	6, 0x106600df
    42774cae:	0000                	.insn	2, 0x0000
    42774cb0:	04df 1066 0000      	.insn	6, 0x106604df
    42774cb6:	0000                	.insn	2, 0x0000
    42774cb8:	08df 1066 0000      	.insn	6, 0x106608df
    42774cbe:	0000                	.insn	2, 0x0000
    42774cc0:	0cdf 1066 0000      	.insn	6, 0x10660cdf
    42774cc6:	0000                	.insn	2, 0x0000
    42774cc8:	10df 1066 0000      	.insn	6, 0x106610df
    42774cce:	0000                	.insn	2, 0x0000
    42774cd0:	14df 1066 0000      	.insn	6, 0x106614df
    42774cd6:	0000                	.insn	2, 0x0000
    42774cd8:	18df 1066 0000      	.insn	6, 0x106618df
    42774cde:	0000                	.insn	2, 0x0000
    42774ce0:	1cdf 1066 0000      	.insn	6, 0x10661cdf
    42774ce6:	0000                	.insn	2, 0x0000
    42774ce8:	20df 1066 0000      	.insn	6, 0x106620df
    42774cee:	0000                	.insn	2, 0x0000
    42774cf0:	24df 1066 0000      	.insn	6, 0x106624df
    42774cf6:	0000                	.insn	2, 0x0000
    42774cf8:	28df 1066 0000      	.insn	6, 0x106628df
    42774cfe:	0000                	.insn	2, 0x0000
    42774d00:	2cdf 1066 0000      	.insn	6, 0x10662cdf
    42774d06:	0000                	.insn	2, 0x0000
    42774d08:	30df 1066 0000      	.insn	6, 0x106630df
    42774d0e:	0000                	.insn	2, 0x0000
    42774d10:	34df 1066 0000      	.insn	6, 0x106634df
    42774d16:	0000                	.insn	2, 0x0000
    42774d18:	38df 1066 0000      	.insn	6, 0x106638df
    42774d1e:	0000                	.insn	2, 0x0000
    42774d20:	3cdf 1066 0000      	.insn	6, 0x10663cdf
    42774d26:	0000                	.insn	2, 0x0000
    42774d28:	40df 1066 0000      	.insn	6, 0x106640df
    42774d2e:	0000                	.insn	2, 0x0000
    42774d30:	44df 1066 0000      	.insn	6, 0x106644df
    42774d36:	0000                	.insn	2, 0x0000
    42774d38:	48df 1066 0000      	.insn	6, 0x106648df
    42774d3e:	0000                	.insn	2, 0x0000
    42774d40:	4cdf 1066 0000      	.insn	6, 0x10664cdf
    42774d46:	0000                	.insn	2, 0x0000
    42774d48:	50df 1066 0000      	.insn	6, 0x106650df
    42774d4e:	0000                	.insn	2, 0x0000
    42774d50:	54df 1066 0000      	.insn	6, 0x106654df
    42774d56:	0000                	.insn	2, 0x0000
    42774d58:	58df 1066 0000      	.insn	6, 0x106658df
    42774d5e:	0000                	.insn	2, 0x0000
    42774d60:	5cdf 1066 0000      	.insn	6, 0x10665cdf
    42774d66:	0000                	.insn	2, 0x0000
    42774d68:	60df 1066 0000      	.insn	6, 0x106660df
    42774d6e:	0000                	.insn	2, 0x0000
    42774d70:	64df 1066 0000      	.insn	6, 0x106664df
    42774d76:	0000                	.insn	2, 0x0000
    42774d78:	68df 1066 0000      	.insn	6, 0x106668df
    42774d7e:	0000                	.insn	2, 0x0000
    42774d80:	6cdf 1066 0000      	.insn	6, 0x10666cdf
    42774d86:	0000                	.insn	2, 0x0000
    42774d88:	70df 1066 0000      	.insn	6, 0x106670df
    42774d8e:	0000                	.insn	2, 0x0000
    42774d90:	74df 1066 0000      	.insn	6, 0x106674df
    42774d96:	0000                	.insn	2, 0x0000
    42774d98:	78df 1066 0000      	.insn	6, 0x106678df
    42774d9e:	0000                	.insn	2, 0x0000
    42774da0:	7cdf 1066 0000      	.insn	6, 0x10667cdf
    42774da6:	0000                	.insn	2, 0x0000
    42774da8:	80df 1066 0000      	.insn	6, 0x106680df
    42774dae:	0000                	.insn	2, 0x0000
    42774db0:	84df 1066 0000      	.insn	6, 0x106684df
    42774db6:	0000                	.insn	2, 0x0000
    42774db8:	88df 1066 0000      	.insn	6, 0x106688df
    42774dbe:	0000                	.insn	2, 0x0000
    42774dc0:	8cdf 1066 0000      	.insn	6, 0x10668cdf
    42774dc6:	0000                	.insn	2, 0x0000
    42774dc8:	90df 1066 0000      	.insn	6, 0x106690df
    42774dce:	0000                	.insn	2, 0x0000
    42774dd0:	94df 1066 0000      	.insn	6, 0x106694df
    42774dd6:	0000                	.insn	2, 0x0000
    42774dd8:	98df 1066 0000      	.insn	6, 0x106698df
    42774dde:	0000                	.insn	2, 0x0000
    42774de0:	9cdf 1066 0000      	.insn	6, 0x10669cdf
    42774de6:	0000                	.insn	2, 0x0000
    42774de8:	a0df 1066 0000      	.insn	6, 0x1066a0df
    42774dee:	0000                	.insn	2, 0x0000
    42774df0:	a4df 1066 0000      	.insn	6, 0x1066a4df
    42774df6:	0000                	.insn	2, 0x0000
    42774df8:	a8df 1066 0000      	.insn	6, 0x1066a8df
    42774dfe:	0000                	.insn	2, 0x0000
    42774e00:	acdf 1066 0000      	.insn	6, 0x1066acdf
    42774e06:	0000                	.insn	2, 0x0000
    42774e08:	b0df 1066 0000      	.insn	6, 0x1066b0df
    42774e0e:	0000                	.insn	2, 0x0000
    42774e10:	b4df 1066 0000      	.insn	6, 0x1066b4df
    42774e16:	0000                	.insn	2, 0x0000
    42774e18:	b8df 1066 0000      	.insn	6, 0x1066b8df
    42774e1e:	0000                	.insn	2, 0x0000
    42774e20:	bcdf 1066 0000      	.insn	6, 0x1066bcdf
    42774e26:	0000                	.insn	2, 0x0000
    42774e28:	c0df 1066 0000      	.insn	6, 0x1066c0df
    42774e2e:	0000                	.insn	2, 0x0000
    42774e30:	c4df 1066 0000      	.insn	6, 0x1066c4df
    42774e36:	0000                	.insn	2, 0x0000
    42774e38:	c8df 1066 0000      	.insn	6, 0x1066c8df
    42774e3e:	0000                	.insn	2, 0x0000
    42774e40:	ccdf 1066 0000      	.insn	6, 0x1066ccdf
    42774e46:	0000                	.insn	2, 0x0000
    42774e48:	d0df 1066 0000      	.insn	6, 0x1066d0df
    42774e4e:	0000                	.insn	2, 0x0000
    42774e50:	d4df 1066 0000      	.insn	6, 0x1066d4df
    42774e56:	0000                	.insn	2, 0x0000
    42774e58:	d8df 1066 0000      	.insn	6, 0x1066d8df
    42774e5e:	0000                	.insn	2, 0x0000
    42774e60:	dcdf 1066 0000      	.insn	6, 0x1066dcdf
    42774e66:	0000                	.insn	2, 0x0000
    42774e68:	e0df 1066 0000      	.insn	6, 0x1066e0df
    42774e6e:	0000                	.insn	2, 0x0000
    42774e70:	e4df 1066 0000      	.insn	6, 0x1066e4df
    42774e76:	0000                	.insn	2, 0x0000
    42774e78:	e8df 1066 0000      	.insn	6, 0x1066e8df
    42774e7e:	0000                	.insn	2, 0x0000
    42774e80:	ecdf 1066 0000      	.insn	6, 0x1066ecdf
    42774e86:	0000                	.insn	2, 0x0000
    42774e88:	f0df 1066 0000      	.insn	6, 0x1066f0df
    42774e8e:	0000                	.insn	2, 0x0000
    42774e90:	f4df 1066 0000      	.insn	6, 0x1066f4df
    42774e96:	0000                	.insn	2, 0x0000
    42774e98:	f8df 1066 0000      	.insn	6, 0x1066f8df
    42774e9e:	0000                	.insn	2, 0x0000
    42774ea0:	fcdf 1066 0000      	.insn	6, 0x1066fcdf
    42774ea6:	0000                	.insn	2, 0x0000
    42774ea8:	00df 1067 0000      	.insn	6, 0x106700df
    42774eae:	0000                	.insn	2, 0x0000
    42774eb0:	04df 1067 0000      	.insn	6, 0x106704df
    42774eb6:	0000                	.insn	2, 0x0000
    42774eb8:	08df 1067 0000      	.insn	6, 0x106708df
    42774ebe:	0000                	.insn	2, 0x0000
    42774ec0:	0cdf 1067 0000      	.insn	6, 0x10670cdf
    42774ec6:	0000                	.insn	2, 0x0000
    42774ec8:	10df 1067 0000      	.insn	6, 0x106710df
    42774ece:	0000                	.insn	2, 0x0000
    42774ed0:	14df 1067 0000      	.insn	6, 0x106714df
    42774ed6:	0000                	.insn	2, 0x0000
    42774ed8:	18df 1067 0000      	.insn	6, 0x106718df
    42774ede:	0000                	.insn	2, 0x0000
    42774ee0:	1cdf 1067 0000      	.insn	6, 0x10671cdf
    42774ee6:	0000                	.insn	2, 0x0000
    42774ee8:	20df 1067 0000      	.insn	6, 0x106720df
    42774eee:	0000                	.insn	2, 0x0000
    42774ef0:	24df 1067 0000      	.insn	6, 0x106724df
    42774ef6:	0000                	.insn	2, 0x0000
    42774ef8:	28df 1067 0000      	.insn	6, 0x106728df
    42774efe:	0000                	.insn	2, 0x0000
    42774f00:	2cdf 1067 0000      	.insn	6, 0x10672cdf
    42774f06:	0000                	.insn	2, 0x0000
    42774f08:	30df 1067 0000      	.insn	6, 0x106730df
    42774f0e:	0000                	.insn	2, 0x0000
    42774f10:	34df 1067 0000      	.insn	6, 0x106734df
    42774f16:	0000                	.insn	2, 0x0000
    42774f18:	38df 1067 0000      	.insn	6, 0x106738df
    42774f1e:	0000                	.insn	2, 0x0000
    42774f20:	3cdf 1067 0000      	.insn	6, 0x10673cdf
    42774f26:	0000                	.insn	2, 0x0000
    42774f28:	40df 1067 0000      	.insn	6, 0x106740df
    42774f2e:	0000                	.insn	2, 0x0000
    42774f30:	44df 1067 0000      	.insn	6, 0x106744df
    42774f36:	0000                	.insn	2, 0x0000
    42774f38:	48df 1067 0000      	.insn	6, 0x106748df
    42774f3e:	0000                	.insn	2, 0x0000
    42774f40:	4cdf 1067 0000      	.insn	6, 0x10674cdf
    42774f46:	0000                	.insn	2, 0x0000
    42774f48:	50df 1067 0000      	.insn	6, 0x106750df
    42774f4e:	0000                	.insn	2, 0x0000
    42774f50:	54df 1067 0000      	.insn	6, 0x106754df
    42774f56:	0000                	.insn	2, 0x0000
    42774f58:	58df 1067 0000      	.insn	6, 0x106758df
    42774f5e:	0000                	.insn	2, 0x0000
    42774f60:	5cdf 1067 0000      	.insn	6, 0x10675cdf
    42774f66:	0000                	.insn	2, 0x0000
    42774f68:	60df 1067 0000      	.insn	6, 0x106760df
    42774f6e:	0000                	.insn	2, 0x0000
    42774f70:	64df 1067 0000      	.insn	6, 0x106764df
    42774f76:	0000                	.insn	2, 0x0000
    42774f78:	68df 1067 0000      	.insn	6, 0x106768df
    42774f7e:	0000                	.insn	2, 0x0000
    42774f80:	6cdf 1067 0000      	.insn	6, 0x10676cdf
    42774f86:	0000                	.insn	2, 0x0000
    42774f88:	70df 1067 0000      	.insn	6, 0x106770df
    42774f8e:	0000                	.insn	2, 0x0000
    42774f90:	74df 1067 0000      	.insn	6, 0x106774df
    42774f96:	0000                	.insn	2, 0x0000
    42774f98:	78df 1067 0000      	.insn	6, 0x106778df
    42774f9e:	0000                	.insn	2, 0x0000
    42774fa0:	7cdf 1067 0000      	.insn	6, 0x10677cdf
    42774fa6:	0000                	.insn	2, 0x0000
    42774fa8:	80df 1067 0000      	.insn	6, 0x106780df
    42774fae:	0000                	.insn	2, 0x0000
    42774fb0:	84df 1067 0000      	.insn	6, 0x106784df
    42774fb6:	0000                	.insn	2, 0x0000
    42774fb8:	88df 1067 0000      	.insn	6, 0x106788df
    42774fbe:	0000                	.insn	2, 0x0000
    42774fc0:	8cdf 1067 0000      	.insn	6, 0x10678cdf
    42774fc6:	0000                	.insn	2, 0x0000
    42774fc8:	90df 1067 0000      	.insn	6, 0x106790df
    42774fce:	0000                	.insn	2, 0x0000
    42774fd0:	94df 1067 0000      	.insn	6, 0x106794df
    42774fd6:	0000                	.insn	2, 0x0000
    42774fd8:	98df 1067 0000      	.insn	6, 0x106798df
    42774fde:	0000                	.insn	2, 0x0000
    42774fe0:	9cdf 1067 0000      	.insn	6, 0x10679cdf
    42774fe6:	0000                	.insn	2, 0x0000
    42774fe8:	a0df 1067 0000      	.insn	6, 0x1067a0df
    42774fee:	0000                	.insn	2, 0x0000
    42774ff0:	a4df 1067 0000      	.insn	6, 0x1067a4df
    42774ff6:	0000                	.insn	2, 0x0000
    42774ff8:	a8df 1067 0000      	.insn	6, 0x1067a8df
	...

Disassembly of section .__pagetable_map_os_0x00000000441e8000:

00000000441e8000 <__pagetable_map_os_0x00000000441e8000>:
    441e8000:	acdf 1067 0000      	.insn	6, 0x1067acdf
    441e8006:	0000                	.insn	2, 0x0000
    441e8008:	b0df 1067 0000      	.insn	6, 0x1067b0df
    441e800e:	0000                	.insn	2, 0x0000
    441e8010:	b4df 1067 0000      	.insn	6, 0x1067b4df
    441e8016:	0000                	.insn	2, 0x0000
    441e8018:	b8df 1067 0000      	.insn	6, 0x1067b8df
    441e801e:	0000                	.insn	2, 0x0000
    441e8020:	bcdf 1067 0000      	.insn	6, 0x1067bcdf
    441e8026:	0000                	.insn	2, 0x0000
    441e8028:	c0df 1067 0000      	.insn	6, 0x1067c0df
    441e802e:	0000                	.insn	2, 0x0000
    441e8030:	c4df 1067 0000      	.insn	6, 0x1067c4df
    441e8036:	0000                	.insn	2, 0x0000
    441e8038:	c8df 1067 0000      	.insn	6, 0x1067c8df
    441e803e:	0000                	.insn	2, 0x0000
    441e8040:	ccdf 1067 0000      	.insn	6, 0x1067ccdf
    441e8046:	0000                	.insn	2, 0x0000
    441e8048:	1067d0cf          	fnmadd.s	f1,f15,f6,f2,unknown
    441e804c:	0000                	.insn	2, 0x0000
    441e804e:	0000                	.insn	2, 0x0000
    441e8050:	1067d4cf          	fnmadd.s	f9,f15,f6,f2,unknown
    441e8054:	0000                	.insn	2, 0x0000
    441e8056:	0000                	.insn	2, 0x0000
    441e8058:	1067d8cf          	fnmadd.s	f17,f15,f6,f2,unknown
    441e805c:	0000                	.insn	2, 0x0000
    441e805e:	0000                	.insn	2, 0x0000
    441e8060:	1067dccf          	fnmadd.s	f25,f15,f6,f2,unknown
    441e8064:	0000                	.insn	2, 0x0000
    441e8066:	0000                	.insn	2, 0x0000
    441e8068:	1067e0cf          	fnmadd.s	f1,f15,f6,f2,unknown
    441e806c:	0000                	.insn	2, 0x0000
    441e806e:	0000                	.insn	2, 0x0000
    441e8070:	1067e4cf          	fnmadd.s	f9,f15,f6,f2,unknown
    441e8074:	0000                	.insn	2, 0x0000
    441e8076:	0000                	.insn	2, 0x0000
    441e8078:	1067e8cf          	fnmadd.s	f17,f15,f6,f2,unknown
    441e807c:	0000                	.insn	2, 0x0000
    441e807e:	0000                	.insn	2, 0x0000
    441e8080:	1067eccf          	fnmadd.s	f25,f15,f6,f2,unknown
    441e8084:	0000                	.insn	2, 0x0000
    441e8086:	0000                	.insn	2, 0x0000
    441e8088:	1067f0cf          	fnmadd.s	f1,f15,f6,f2
    441e808c:	0000                	.insn	2, 0x0000
    441e808e:	0000                	.insn	2, 0x0000
    441e8090:	1067f4cf          	fnmadd.s	f9,f15,f6,f2
    441e8094:	0000                	.insn	2, 0x0000
    441e8096:	0000                	.insn	2, 0x0000
    441e8098:	1067f8cf          	fnmadd.s	f17,f15,f6,f2
    441e809c:	0000                	.insn	2, 0x0000
    441e809e:	0000                	.insn	2, 0x0000
    441e80a0:	1067fccf          	fnmadd.s	f25,f15,f6,f2
    441e80a4:	0000                	.insn	2, 0x0000
    441e80a6:	0000                	.insn	2, 0x0000
    441e80a8:	106800cf          	fnmadd.s	f1,f16,f6,f2,rne
    441e80ac:	0000                	.insn	2, 0x0000
    441e80ae:	0000                	.insn	2, 0x0000
    441e80b0:	106804cf          	fnmadd.s	f9,f16,f6,f2,rne
    441e80b4:	0000                	.insn	2, 0x0000
    441e80b6:	0000                	.insn	2, 0x0000
    441e80b8:	106808cf          	fnmadd.s	f17,f16,f6,f2,rne
    441e80bc:	0000                	.insn	2, 0x0000
    441e80be:	0000                	.insn	2, 0x0000
    441e80c0:	10680ccf          	fnmadd.s	f25,f16,f6,f2,rne
    441e80c4:	0000                	.insn	2, 0x0000
    441e80c6:	0000                	.insn	2, 0x0000
    441e80c8:	106810cf          	fnmadd.s	f1,f16,f6,f2,rtz
    441e80cc:	0000                	.insn	2, 0x0000
    441e80ce:	0000                	.insn	2, 0x0000
    441e80d0:	106814cf          	fnmadd.s	f9,f16,f6,f2,rtz
    441e80d4:	0000                	.insn	2, 0x0000
    441e80d6:	0000                	.insn	2, 0x0000
    441e80d8:	106818cf          	fnmadd.s	f17,f16,f6,f2,rtz
    441e80dc:	0000                	.insn	2, 0x0000
    441e80de:	0000                	.insn	2, 0x0000
    441e80e0:	10681ccf          	fnmadd.s	f25,f16,f6,f2,rtz
    441e80e4:	0000                	.insn	2, 0x0000
