
/home/abdullah/RiescueC/riescue/10x_R/zicond/testsuite/zicond/user_sv57/tp_zicond_2:     file format elf64-littleriscv


Disassembly of section .runtime:

0000000041000000 <_start>:
    41000000:	00000093          	li	x1,0
    41000004:	00000113          	li	x2,0
    41000008:	00000193          	li	x3,0
    4100000c:	00000213          	li	x4,0
    41000010:	00000293          	li	x5,0
    41000014:	00000313          	li	x6,0
    41000018:	00000393          	li	x7,0
    4100001c:	00000413          	li	x8,0
    41000020:	00000493          	li	x9,0
    41000024:	00000513          	li	x10,0
    41000028:	00000593          	li	x11,0
    4100002c:	00000613          	li	x12,0
    41000030:	00000693          	li	x13,0
    41000034:	00000713          	li	x14,0
    41000038:	00000793          	li	x15,0
    4100003c:	00000813          	li	x16,0
    41000040:	00000893          	li	x17,0
    41000044:	00000913          	li	x18,0
    41000048:	00000993          	li	x19,0
    4100004c:	00000a13          	li	x20,0
    41000050:	00000a93          	li	x21,0
    41000054:	00000b13          	li	x22,0
    41000058:	00000b93          	li	x23,0
    4100005c:	00000c13          	li	x24,0
    41000060:	00000c93          	li	x25,0
    41000064:	00000d13          	li	x26,0
    41000068:	00000d93          	li	x27,0
    4100006c:	00000e13          	li	x28,0
    41000070:	00000e93          	li	x29,0
    41000074:	00000f13          	li	x30,0
    41000078:	00000f93          	li	x31,0

000000004100007c <loader__load_panic_address>:
    4100007c:	00001297          	auipc	x5,0x1
    41000080:	9e828293          	addi	x5,x5,-1560 # 41000a64 <eot__failed>
    41000084:	30529073          	csrw	mtvec,x5

0000000041000088 <loader__initialize_runtime>:
    41000088:	00000293          	li	x5,0
    4100008c:	3012a2f3          	csrrs	x5,misa,x5

0000000041000090 <loader__set_mstatus>:
    41000090:	000402b7          	lui	x5,0x40
    41000094:	00a2829b          	addiw	x5,x5,10 # 4000a <pma_region_0_size+0xa>
    41000098:	3002a2f3          	csrrs	x5,mstatus,x5
    4100009c:	44623237          	lui	x4,0x44623
    410000a0:	34021073          	csrw	mscratch,x4

00000000410000a4 <loader__setup_menvcfg>:
    410000a4:	00000297          	auipc	x5,0x0
    410000a8:	4a828293          	addi	x5,x5,1192 # 4100054c <trap_handler_m__trap_entry>
    410000ac:	30529073          	csrw	mtvec,x5

00000000410000b0 <loader__enable_paging>:
    410000b0:	fffa00b7          	lui	x1,0xfffa0
    410000b4:	0970809b          	addiw	x1,x1,151 # fffffffffffa0097 <SID_EXCEP_01_EQZ_RS1_Z_stack+0xff5890dbaf524097>
    410000b8:	02009093          	slli	x1,x1,0x20
    410000bc:	04508093          	addi	x1,x1,69
    410000c0:	00c09093          	slli	x1,x1,0xc
    410000c4:	e8808093          	addi	x1,x1,-376
    410000c8:	18009073          	csrw	satp,x1

00000000410000cc <loader__done>:
    410000cc:	1c10006f          	j	41000a8c <scheduler__init>

00000000410000d0 <loader__panic>:
    410000d0:	1950006f          	j	41000a64 <eot__failed>

00000000410000d4 <syscalls__syscall_check_schedule_next_test>:
    410000d4:	00f0029b          	addiw	x5,x0,15
    410000d8:	01c29293          	slli	x5,x5,0x1c
    410000dc:	00128293          	addi	x5,x5,1
    410000e0:	01f29a63          	bne	x5,x31,410000f4 <syscalls__syscall_check_fail_test>
    410000e4:	00000317          	auipc	x6,0x0
    410000e8:	46830313          	addi	x6,x6,1128 # 4100054c <trap_handler_m__trap_entry>
    410000ec:	30531073          	csrw	mtvec,x6
    410000f0:	6a00006f          	j	41000790 <enter_scheduler>

00000000410000f4 <syscalls__syscall_check_fail_test>:
    410000f4:	00f0029b          	addiw	x5,x0,15
    410000f8:	01c29293          	slli	x5,x5,0x1c
    410000fc:	00228293          	addi	x5,x5,2
    41000100:	01f29a63          	bne	x5,x31,41000114 <syscalls__syscall_check_end_test_without_failure>
    41000104:	00000317          	auipc	x6,0x0
    41000108:	44830313          	addi	x6,x6,1096 # 4100054c <trap_handler_m__trap_entry>
    4100010c:	30531073          	csrw	mtvec,x6
    41000110:	6b00006f          	j	410007c0 <test_failed>

0000000041000114 <syscalls__syscall_check_end_test_without_failure>:
    41000114:	00f0029b          	addiw	x5,x0,15
    41000118:	01c29293          	slli	x5,x5,0x1c
    4100011c:	00328293          	addi	x5,x5,3
    41000120:	01f29a63          	bne	x5,x31,41000134 <syscalls__syscall_check_switch_machine_mode>
    41000124:	00000317          	auipc	x6,0x0
    41000128:	42830313          	addi	x6,x6,1064 # 4100054c <trap_handler_m__trap_entry>
    4100012c:	30531073          	csrw	mtvec,x6
    41000130:	69c0006f          	j	410007cc <os_end_test>

0000000041000134 <syscalls__syscall_check_switch_machine_mode>:
    41000134:	000f02b7          	lui	x5,0xf0
    41000138:	0012829b          	addiw	x5,x5,1 # f0001 <SID_EXCEP_04_EQZ_PASSING_ADD_stack+0x98001>
    4100013c:	00c29293          	slli	x5,x5,0xc
    41000140:	00128293          	addi	x5,x5,1
    41000144:	0a5f8463          	beq	x31,x5,410001ec <syscalls__os_fn_f0001001>

0000000041000148 <syscalls__syscall_check_switch_super_mode>:
    41000148:	000f02b7          	lui	x5,0xf0
    4100014c:	0012829b          	addiw	x5,x5,1 # f0001 <SID_EXCEP_04_EQZ_PASSING_ADD_stack+0x98001>
    41000150:	00c29293          	slli	x5,x5,0xc
    41000154:	00228293          	addi	x5,x5,2
    41000158:	0c5f8063          	beq	x31,x5,41000218 <syscalls__os_fn_f0001002>

000000004100015c <syscalls__syscall_check_switch_user_mode>:
    4100015c:	000f02b7          	lui	x5,0xf0
    41000160:	0012829b          	addiw	x5,x5,1 # f0001 <SID_EXCEP_04_EQZ_PASSING_ADD_stack+0x98001>
    41000164:	00c29293          	slli	x5,x5,0xc
    41000168:	00328293          	addi	x5,x5,3
    4100016c:	0c5f8e63          	beq	x31,x5,41000248 <syscalls__os_fn_f0001003>

0000000041000170 <syscalls__syscall_check_switch_test_mode>:
    41000170:	000f02b7          	lui	x5,0xf0
    41000174:	0012829b          	addiw	x5,x5,1 # f0001 <SID_EXCEP_04_EQZ_PASSING_ADD_stack+0x98001>
    41000178:	00c29293          	slli	x5,x5,0xc
    4100017c:	00428293          	addi	x5,x5,4
    41000180:	0c5f8863          	beq	x31,x5,41000250 <syscalls__os_fn_f0001004>

0000000041000184 <syscalls__syscall_machine_csr_rw>:
    41000184:	000f02b7          	lui	x5,0xf0
    41000188:	0012829b          	addiw	x5,x5,1 # f0001 <SID_EXCEP_04_EQZ_PASSING_ADD_stack+0x98001>
    4100018c:	00c29293          	slli	x5,x5,0xc
    41000190:	00528293          	addi	x5,x5,5
    41000194:	0e5f8263          	beq	x31,x5,41000278 <syscalls__os_fn_f0001005>

0000000041000198 <syscalls__syscall_supervisor_csr_rw>:
    41000198:	000f02b7          	lui	x5,0xf0
    4100019c:	0012829b          	addiw	x5,x5,1 # f0001 <SID_EXCEP_04_EQZ_PASSING_ADD_stack+0x98001>
    410001a0:	00c29293          	slli	x5,x5,0xc
    410001a4:	00628293          	addi	x5,x5,6
    410001a8:	0e5f8e63          	beq	x31,x5,410002a4 <syscalls__os_fn_f0001006>

00000000410001ac <syscalls__syscall_machine_pte_read>:
    410001ac:	000f02b7          	lui	x5,0xf0
    410001b0:	0012829b          	addiw	x5,x5,1 # f0001 <SID_EXCEP_04_EQZ_PASSING_ADD_stack+0x98001>
    410001b4:	00c29293          	slli	x5,x5,0xc
    410001b8:	00728293          	addi	x5,x5,7
    410001bc:	105f8c63          	beq	x31,x5,410002d4 <syscalls__os_fn_f0001007>

00000000410001c0 <syscalls__syscall_machine_pte_write>:
    410001c0:	000f02b7          	lui	x5,0xf0
    410001c4:	0012829b          	addiw	x5,x5,1 # f0001 <SID_EXCEP_04_EQZ_PASSING_ADD_stack+0x98001>
    410001c8:	00c29293          	slli	x5,x5,0xc
    410001cc:	00828293          	addi	x5,x5,8
    410001d0:	1e5f8863          	beq	x31,x5,410003c0 <syscalls__os_fn_f0001008>

00000000410001d4 <syscalls__syscall_check_get_hart_context>:
    410001d4:	000782b7          	lui	x5,0x78
    410001d8:	0012829b          	addiw	x5,x5,1 # 78001 <SID_EXCEP_04_EQZ_PASSING_ADD_stack+0x20001>
    410001dc:	00d29293          	slli	x5,x5,0xd
    410001e0:	00128293          	addi	x5,x5,1
    410001e4:	2c5f8463          	beq	x31,x5,410004ac <syscalls__os_get_hart_context>
    410001e8:	4c00006f          	j	410006a8 <trap_handler_m__check_exception_label>

00000000410001ec <syscalls__os_fn_f0001001>:
    410001ec:	000022b7          	lui	x5,0x2
    410001f0:	8002829b          	addiw	x5,x5,-2048 # 1800 <pma_region_1_size+0x800>
    410001f4:	3002b073          	csrc	mstatus,x5
    410001f8:	000022b7          	lui	x5,0x2
    410001fc:	8002829b          	addiw	x5,x5,-2048 # 1800 <pma_region_1_size+0x800>
    41000200:	3002a073          	csrs	mstatus,x5
    41000204:	0010029b          	addiw	x5,x0,1
    41000208:	02729293          	slli	x5,x5,0x27
    4100020c:	3002b073          	csrc	mstatus,x5
    41000210:	411952b7          	lui	x5,0x41195
    41000214:	2a80006f          	j	410004bc <syscalls__ret_from_os_fn>

0000000041000218 <syscalls__os_fn_f0001002>:
    41000218:	000022b7          	lui	x5,0x2
    4100021c:	8002829b          	addiw	x5,x5,-2048 # 1800 <pma_region_1_size+0x800>
    41000220:	3002b073          	csrc	mstatus,x5
    41000224:	000012b7          	lui	x5,0x1
    41000228:	8002829b          	addiw	x5,x5,-2048 # 800 <XLEN+0x7c0>
    4100022c:	3002a073          	csrs	mstatus,x5
    41000230:	0010029b          	addiw	x5,x0,1
    41000234:	02729293          	slli	x5,x5,0x27
    41000238:	3002b073          	csrc	mstatus,x5
    4100023c:	12000073          	sfence.vma
    41000240:	410952b7          	lui	x5,0x41095
    41000244:	2780006f          	j	410004bc <syscalls__ret_from_os_fn>

0000000041000248 <syscalls__os_fn_f0001003>:
    41000248:	411152b7          	lui	x5,0x41115
    4100024c:	2700006f          	j	410004bc <syscalls__ret_from_os_fn>

0000000041000250 <syscalls__os_fn_f0001004>:
    41000250:	000022b7          	lui	x5,0x2
    41000254:	8002829b          	addiw	x5,x5,-2048 # 1800 <pma_region_1_size+0x800>
    41000258:	3002b073          	csrc	mstatus,x5
    4100025c:	00000293          	li	x5,0
    41000260:	3002a073          	csrs	mstatus,x5
    41000264:	0010029b          	addiw	x5,x0,1
    41000268:	02729293          	slli	x5,x5,0x27
    4100026c:	3002b073          	csrc	mstatus,x5
    41000270:	17823283          	ld	x5,376(x4) # 44623178 <__section_hart_context+0x178>
    41000274:	2480006f          	j	410004bc <syscalls__ret_from_os_fn>

0000000041000278 <syscalls__os_fn_f0001005>:
    41000278:	000022b7          	lui	x5,0x2
    4100027c:	8002829b          	addiw	x5,x5,-2048 # 1800 <pma_region_1_size+0x800>
    41000280:	3002b073          	csrc	mstatus,x5
    41000284:	000022b7          	lui	x5,0x2
    41000288:	8002829b          	addiw	x5,x5,-2048 # 1800 <pma_region_1_size+0x800>
    4100028c:	3002a073          	csrs	mstatus,x5
    41000290:	0010029b          	addiw	x5,x0,1
    41000294:	02729293          	slli	x5,x5,0x27
    41000298:	3002b073          	csrc	mstatus,x5
    4100029c:	412152b7          	lui	x5,0x41215
    410002a0:	21c0006f          	j	410004bc <syscalls__ret_from_os_fn>

00000000410002a4 <syscalls__os_fn_f0001006>:
    410002a4:	000022b7          	lui	x5,0x2
    410002a8:	8002829b          	addiw	x5,x5,-2048 # 1800 <pma_region_1_size+0x800>
    410002ac:	3002b073          	csrc	mstatus,x5
    410002b0:	000012b7          	lui	x5,0x1
    410002b4:	8002829b          	addiw	x5,x5,-2048 # 800 <XLEN+0x7c0>
    410002b8:	3002a073          	csrs	mstatus,x5
    410002bc:	0010029b          	addiw	x5,x0,1
    410002c0:	02729293          	slli	x5,x5,0x27
    410002c4:	3002b073          	csrc	mstatus,x5
    410002c8:	12000073          	sfence.vma
    410002cc:	412162b7          	lui	x5,0x41216
    410002d0:	1ec0006f          	j	410004bc <syscalls__ret_from_os_fn>

00000000410002d4 <syscalls__os_fn_f0001007>:
    410002d4:	44288fb7          	lui	x31,0x44288
    410002d8:	0b0f8f9b          	addiw	x31,x31,176 # 442880b0 <pte_access_flags_pa>
    410002dc:	000fbf83          	ld	x31,0(x31)
    410002e0:	442882b7          	lui	x5,0x44288
    410002e4:	0b82829b          	addiw	x5,x5,184 # 442880b8 <pte_access_flags_pa+0x8>
    410002e8:	0002b283          	ld	x5,0(x5)
    410002ec:	44288e37          	lui	x28,0x44288
    410002f0:	0c0e0e1b          	addiw	x28,x28,192 # 442880c0 <pte_access_flags_pa+0x10>
    410002f4:	000e3e03          	ld	x28,0(x28)

00000000410002f8 <syscalls__pte_walk_check_glevel_without_gstage_read>:
    410002f8:	fff00f93          	li	x31,-1
    410002fc:	0dfe1063          	bne	x28,x31,410003bc <syscalls__pte_walk_fail_read>
    41000300:	18002373          	csrr	x6,satp
    41000304:	03c35e93          	srli	x29,x6,0x3c
    41000308:	01431313          	slli	x6,x6,0x14
    4100030c:	01435313          	srli	x6,x6,0x14
    41000310:	00c31313          	slli	x6,x6,0xc
    41000314:	ff8e8e93          	addi	x29,x29,-8
    41000318:	003e9f13          	slli	x30,x29,0x3
    4100031c:	01df0eb3          	add	x29,x30,x29
    41000320:	01ee8e93          	addi	x29,x29,30
    41000324:	00000f13          	li	x30,0

0000000041000328 <syscalls__pte_walk_loop_read>:
    41000328:	44288fb7          	lui	x31,0x44288
    4100032c:	0b0f8f9b          	addiw	x31,x31,176 # 442880b0 <pte_access_flags_pa>
    41000330:	000fbf83          	ld	x31,0(x31)
    41000334:	01dfdfb3          	srl	x31,x31,x29
    41000338:	1fffff93          	andi	x31,x31,511
    4100033c:	003f9f93          	slli	x31,x31,0x3
    41000340:	01f30333          	add	x6,x6,x31
    41000344:	005f0e63          	beq	x30,x5,41000360 <syscalls__pte_walk_done_read>
    41000348:	00033f83          	ld	x31,0(x6)
    4100034c:	00afdf93          	srli	x31,x31,0xa
    41000350:	00cf9313          	slli	x6,x31,0xc
    41000354:	001f0f13          	addi	x30,x30,1
    41000358:	ff7e8e93          	addi	x29,x29,-9
    4100035c:	fcdff06f          	j	41000328 <syscalls__pte_walk_loop_read>

0000000041000360 <syscalls__pte_walk_done_read>:
    41000360:	fff00f93          	li	x31,-1
    41000364:	05fe0263          	beq	x28,x31,410003a8 <syscalls__pte_walk_final_read>

0000000041000368 <syscalls__pte_walk_gstage_read>:
    41000368:	44288fb7          	lui	x31,0x44288
    4100036c:	0b0f8f9b          	addiw	x31,x31,176 # 442880b0 <pte_access_flags_pa>
    41000370:	006fb023          	sd	x6,0(x31)
    41000374:	000e0293          	mv	x5,x28
    41000378:	fff00e13          	li	x28,-1
    4100037c:	68002373          	csrr	x6,hgatp
    41000380:	03c35e93          	srli	x29,x6,0x3c
    41000384:	01431313          	slli	x6,x6,0x14
    41000388:	01435313          	srli	x6,x6,0x14
    4100038c:	00c31313          	slli	x6,x6,0xc
    41000390:	ff8e8e93          	addi	x29,x29,-8
    41000394:	003e9f13          	slli	x30,x29,0x3
    41000398:	01df0eb3          	add	x29,x30,x29
    4100039c:	01ee8e93          	addi	x29,x29,30
    410003a0:	00000f13          	li	x30,0
    410003a4:	f85ff06f          	j	41000328 <syscalls__pte_walk_loop_read>

00000000410003a8 <syscalls__pte_walk_final_read>:
    410003a8:	00033383          	ld	x7,0(x6)
    410003ac:	341022f3          	csrr	x5,mepc
    410003b0:	00428293          	addi	x5,x5,4
    410003b4:	16523c23          	sd	x5,376(x4) # 178 <XLEN+0x138>
    410003b8:	e99ff06f          	j	41000250 <syscalls__os_fn_f0001004>

00000000410003bc <syscalls__pte_walk_fail_read>:
    410003bc:	4040006f          	j	410007c0 <test_failed>

00000000410003c0 <syscalls__os_fn_f0001008>:
    410003c0:	44288fb7          	lui	x31,0x44288
    410003c4:	0b0f8f9b          	addiw	x31,x31,176 # 442880b0 <pte_access_flags_pa>
    410003c8:	000fbf83          	ld	x31,0(x31)
    410003cc:	442882b7          	lui	x5,0x44288
    410003d0:	0b82829b          	addiw	x5,x5,184 # 442880b8 <pte_access_flags_pa+0x8>
    410003d4:	0002b283          	ld	x5,0(x5)
    410003d8:	44288e37          	lui	x28,0x44288
    410003dc:	0c0e0e1b          	addiw	x28,x28,192 # 442880c0 <pte_access_flags_pa+0x10>
    410003e0:	000e3e03          	ld	x28,0(x28)

00000000410003e4 <syscalls__pte_walk_check_glevel_without_gstage_write>:
    410003e4:	fff00f93          	li	x31,-1
    410003e8:	0dfe1063          	bne	x28,x31,410004a8 <syscalls__pte_walk_fail_write>
    410003ec:	18002373          	csrr	x6,satp
    410003f0:	03c35e93          	srli	x29,x6,0x3c
    410003f4:	01431313          	slli	x6,x6,0x14
    410003f8:	01435313          	srli	x6,x6,0x14
    410003fc:	00c31313          	slli	x6,x6,0xc
    41000400:	ff8e8e93          	addi	x29,x29,-8
    41000404:	003e9f13          	slli	x30,x29,0x3
    41000408:	01df0eb3          	add	x29,x30,x29
    4100040c:	01ee8e93          	addi	x29,x29,30
    41000410:	00000f13          	li	x30,0

0000000041000414 <syscalls__pte_walk_loop_write>:
    41000414:	44288fb7          	lui	x31,0x44288
    41000418:	0b0f8f9b          	addiw	x31,x31,176 # 442880b0 <pte_access_flags_pa>
    4100041c:	000fbf83          	ld	x31,0(x31)
    41000420:	01dfdfb3          	srl	x31,x31,x29
    41000424:	1fffff93          	andi	x31,x31,511
    41000428:	003f9f93          	slli	x31,x31,0x3
    4100042c:	01f30333          	add	x6,x6,x31
    41000430:	005f0e63          	beq	x30,x5,4100044c <syscalls__pte_walk_done_write>
    41000434:	00033f83          	ld	x31,0(x6)
    41000438:	00afdf93          	srli	x31,x31,0xa
    4100043c:	00cf9313          	slli	x6,x31,0xc
    41000440:	001f0f13          	addi	x30,x30,1
    41000444:	ff7e8e93          	addi	x29,x29,-9
    41000448:	fcdff06f          	j	41000414 <syscalls__pte_walk_loop_write>

000000004100044c <syscalls__pte_walk_done_write>:
    4100044c:	fff00f93          	li	x31,-1
    41000450:	05fe0263          	beq	x28,x31,41000494 <syscalls__pte_walk_final_write>

0000000041000454 <syscalls__pte_walk_gstage_write>:
    41000454:	44288fb7          	lui	x31,0x44288
    41000458:	0b0f8f9b          	addiw	x31,x31,176 # 442880b0 <pte_access_flags_pa>
    4100045c:	006fb023          	sd	x6,0(x31)
    41000460:	000e0293          	mv	x5,x28
    41000464:	fff00e13          	li	x28,-1
    41000468:	68002373          	csrr	x6,hgatp
    4100046c:	03c35e93          	srli	x29,x6,0x3c
    41000470:	01431313          	slli	x6,x6,0x14
    41000474:	01435313          	srli	x6,x6,0x14
    41000478:	00c31313          	slli	x6,x6,0xc
    4100047c:	ff8e8e93          	addi	x29,x29,-8
    41000480:	003e9f13          	slli	x30,x29,0x3
    41000484:	01df0eb3          	add	x29,x30,x29
    41000488:	01ee8e93          	addi	x29,x29,30
    4100048c:	00000f13          	li	x30,0
    41000490:	f85ff06f          	j	41000414 <syscalls__pte_walk_loop_write>

0000000041000494 <syscalls__pte_walk_final_write>:
    41000494:	00733023          	sd	x7,0(x6)
    41000498:	341022f3          	csrr	x5,mepc
    4100049c:	00428293          	addi	x5,x5,4
    410004a0:	16523c23          	sd	x5,376(x4) # 178 <XLEN+0x138>
    410004a4:	dadff06f          	j	41000250 <syscalls__os_fn_f0001004>

00000000410004a8 <syscalls__pte_walk_fail_write>:
    410004a8:	3180006f          	j	410007c0 <test_failed>

00000000410004ac <syscalls__os_get_hart_context>:
    410004ac:	14002573          	csrr	x10,sscratch
    410004b0:	341022f3          	csrr	x5,mepc
    410004b4:	00428293          	addi	x5,x5,4
    410004b8:	0040006f          	j	410004bc <syscalls__ret_from_os_fn>

00000000410004bc <syscalls__ret_from_os_fn>:
    410004bc:	34102373          	csrr	x6,mepc
    410004c0:	00430313          	addi	x6,x6,4
    410004c4:	16623c23          	sd	x6,376(x4) # 178 <XLEN+0x138>
    410004c8:	34129073          	csrw	mepc,x5
    410004cc:	fff00f93          	li	x31,-1
    410004d0:	2a40006f          	j	41000774 <trap_handler_m__skip_xepc_write>

00000000410004d4 <trap_handler_m__invalid_interrupt>:
    410004d4:	2ec0006f          	j	410007c0 <test_failed>

00000000410004d8 <trap_handler_m__clear_all_interrupts>:
    410004d8:	34401073          	csrw	mip,x0
    410004dc:	30200073          	mret

00000000410004e0 <trap_handler_m___CLEAR_SSI>:
    410004e0:	00200293          	li	x5,2
    410004e4:	3442b073          	csrc	mip,x5
    410004e8:	30200073          	mret

00000000410004ec <trap_handler_m___CLEAR_MSI>:
    410004ec:	00800293          	li	x5,8
    410004f0:	3442b073          	csrc	mip,x5
    410004f4:	30200073          	mret

00000000410004f8 <trap_handler_m___CLEAR_STI>:
    410004f8:	02000293          	li	x5,32
    410004fc:	3442b073          	csrc	mip,x5
    41000500:	30200073          	mret

0000000041000504 <trap_handler_m___CLEAR_MTI>:
    41000504:	08000293          	li	x5,128
    41000508:	3442b073          	csrc	mip,x5
    4100050c:	30200073          	mret

0000000041000510 <trap_handler_m___CLEAR_SEI>:
    41000510:	20000293          	li	x5,512
    41000514:	3442b073          	csrc	mip,x5
    41000518:	30200073          	mret

000000004100051c <trap_handler_m___CLEAR_MEI>:
    4100051c:	000012b7          	lui	x5,0x1
    41000520:	8002829b          	addiw	x5,x5,-2048 # 800 <XLEN+0x7c0>
    41000524:	3442b073          	csrc	mip,x5
    41000528:	30200073          	mret

000000004100052c <trap_handler_m___CLEAR_COI>:
    4100052c:	000022b7          	lui	x5,0x2
    41000530:	3442b073          	csrc	mip,x5
    41000534:	30200073          	mret

0000000041000538 <trap_handler_m__clear_highest_priority_interrupt>:
    41000538:	344022f3          	csrr	x5,mip
    4100053c:	40500333          	neg	x6,x5
    41000540:	0062f2b3          	and	x5,x5,x6
    41000544:	3442b073          	csrc	mip,x5
    41000548:	30200073          	mret

000000004100054c <trap_handler_m__trap_entry>:
    4100054c:	0fc0006f          	j	41000648 <trap_handler_m__trap_handler>

0000000041000550 <trap_handler_m__interrupt_vector_table>:
    41000550:	f91ff06f          	j	410004e0 <trap_handler_m___CLEAR_SSI>
    41000554:	f81ff06f          	j	410004d4 <trap_handler_m__invalid_interrupt>
    41000558:	f95ff06f          	j	410004ec <trap_handler_m___CLEAR_MSI>
    4100055c:	f79ff06f          	j	410004d4 <trap_handler_m__invalid_interrupt>
    41000560:	f99ff06f          	j	410004f8 <trap_handler_m___CLEAR_STI>
    41000564:	f71ff06f          	j	410004d4 <trap_handler_m__invalid_interrupt>
    41000568:	f9dff06f          	j	41000504 <trap_handler_m___CLEAR_MTI>
    4100056c:	f69ff06f          	j	410004d4 <trap_handler_m__invalid_interrupt>
    41000570:	fa1ff06f          	j	41000510 <trap_handler_m___CLEAR_SEI>
    41000574:	f61ff06f          	j	410004d4 <trap_handler_m__invalid_interrupt>
    41000578:	fa5ff06f          	j	4100051c <trap_handler_m___CLEAR_MEI>
    4100057c:	f59ff06f          	j	410004d4 <trap_handler_m__invalid_interrupt>
    41000580:	fadff06f          	j	4100052c <trap_handler_m___CLEAR_COI>
    41000584:	f51ff06f          	j	410004d4 <trap_handler_m__invalid_interrupt>
    41000588:	f4dff06f          	j	410004d4 <trap_handler_m__invalid_interrupt>
    4100058c:	fadff06f          	j	41000538 <trap_handler_m__clear_highest_priority_interrupt>
    41000590:	fa9ff06f          	j	41000538 <trap_handler_m__clear_highest_priority_interrupt>
    41000594:	fa5ff06f          	j	41000538 <trap_handler_m__clear_highest_priority_interrupt>
    41000598:	fa1ff06f          	j	41000538 <trap_handler_m__clear_highest_priority_interrupt>
    4100059c:	f9dff06f          	j	41000538 <trap_handler_m__clear_highest_priority_interrupt>
    410005a0:	f99ff06f          	j	41000538 <trap_handler_m__clear_highest_priority_interrupt>
    410005a4:	f95ff06f          	j	41000538 <trap_handler_m__clear_highest_priority_interrupt>
    410005a8:	f91ff06f          	j	41000538 <trap_handler_m__clear_highest_priority_interrupt>
    410005ac:	f8dff06f          	j	41000538 <trap_handler_m__clear_highest_priority_interrupt>
    410005b0:	f89ff06f          	j	41000538 <trap_handler_m__clear_highest_priority_interrupt>
    410005b4:	f85ff06f          	j	41000538 <trap_handler_m__clear_highest_priority_interrupt>
    410005b8:	f81ff06f          	j	41000538 <trap_handler_m__clear_highest_priority_interrupt>
    410005bc:	f7dff06f          	j	41000538 <trap_handler_m__clear_highest_priority_interrupt>
    410005c0:	f79ff06f          	j	41000538 <trap_handler_m__clear_highest_priority_interrupt>
    410005c4:	f75ff06f          	j	41000538 <trap_handler_m__clear_highest_priority_interrupt>
    410005c8:	f71ff06f          	j	41000538 <trap_handler_m__clear_highest_priority_interrupt>
    410005cc:	f6dff06f          	j	41000538 <trap_handler_m__clear_highest_priority_interrupt>
    410005d0:	f69ff06f          	j	41000538 <trap_handler_m__clear_highest_priority_interrupt>
    410005d4:	f65ff06f          	j	41000538 <trap_handler_m__clear_highest_priority_interrupt>
    410005d8:	f61ff06f          	j	41000538 <trap_handler_m__clear_highest_priority_interrupt>
    410005dc:	f5dff06f          	j	41000538 <trap_handler_m__clear_highest_priority_interrupt>
    410005e0:	f59ff06f          	j	41000538 <trap_handler_m__clear_highest_priority_interrupt>
    410005e4:	f55ff06f          	j	41000538 <trap_handler_m__clear_highest_priority_interrupt>
    410005e8:	f51ff06f          	j	41000538 <trap_handler_m__clear_highest_priority_interrupt>
    410005ec:	f4dff06f          	j	41000538 <trap_handler_m__clear_highest_priority_interrupt>
    410005f0:	f49ff06f          	j	41000538 <trap_handler_m__clear_highest_priority_interrupt>
    410005f4:	f45ff06f          	j	41000538 <trap_handler_m__clear_highest_priority_interrupt>
    410005f8:	f41ff06f          	j	41000538 <trap_handler_m__clear_highest_priority_interrupt>
    410005fc:	f3dff06f          	j	41000538 <trap_handler_m__clear_highest_priority_interrupt>
    41000600:	f39ff06f          	j	41000538 <trap_handler_m__clear_highest_priority_interrupt>
    41000604:	f35ff06f          	j	41000538 <trap_handler_m__clear_highest_priority_interrupt>
    41000608:	f31ff06f          	j	41000538 <trap_handler_m__clear_highest_priority_interrupt>
    4100060c:	f2dff06f          	j	41000538 <trap_handler_m__clear_highest_priority_interrupt>
    41000610:	f29ff06f          	j	41000538 <trap_handler_m__clear_highest_priority_interrupt>
    41000614:	f25ff06f          	j	41000538 <trap_handler_m__clear_highest_priority_interrupt>
    41000618:	f21ff06f          	j	41000538 <trap_handler_m__clear_highest_priority_interrupt>
    4100061c:	f1dff06f          	j	41000538 <trap_handler_m__clear_highest_priority_interrupt>
    41000620:	f19ff06f          	j	41000538 <trap_handler_m__clear_highest_priority_interrupt>
    41000624:	f15ff06f          	j	41000538 <trap_handler_m__clear_highest_priority_interrupt>
    41000628:	f11ff06f          	j	41000538 <trap_handler_m__clear_highest_priority_interrupt>
    4100062c:	f0dff06f          	j	41000538 <trap_handler_m__clear_highest_priority_interrupt>
    41000630:	f09ff06f          	j	41000538 <trap_handler_m__clear_highest_priority_interrupt>
    41000634:	f05ff06f          	j	41000538 <trap_handler_m__clear_highest_priority_interrupt>
    41000638:	f01ff06f          	j	41000538 <trap_handler_m__clear_highest_priority_interrupt>
    4100063c:	efdff06f          	j	41000538 <trap_handler_m__clear_highest_priority_interrupt>
    41000640:	ef9ff06f          	j	41000538 <trap_handler_m__clear_highest_priority_interrupt>
    41000644:	ef5ff06f          	j	41000538 <trap_handler_m__clear_highest_priority_interrupt>

0000000041000648 <trap_handler_m__trap_handler>:
    41000648:	342022f3          	csrr	x5,mcause
    4100064c:	fff0031b          	addiw	x6,x0,-1
    41000650:	03f31313          	slli	x6,x6,0x3f
    41000654:	00537333          	and	x6,x6,x5
    41000658:	02030263          	beqz	x6,4100067c <trap_handler_m__exception_path>

000000004100065c <trap_handler_m__interrupt_handler>:
    4100065c:	fff0031b          	addiw	x6,x0,-1
    41000660:	03f31313          	slli	x6,x6,0x3f
    41000664:	0062c2b3          	xor	x5,x5,x6
    41000668:	00000317          	auipc	x6,0x0
    4100066c:	ee430313          	addi	x6,x6,-284 # 4100054c <trap_handler_m__trap_entry>
    41000670:	00229293          	slli	x5,x5,0x2
    41000674:	005302b3          	add	x5,x6,x5
    41000678:	00028067          	jr	x5 # 2000 <SID_EXCEP_01_NEZ_RS1_NZ_stack>

000000004100067c <trap_handler_m__exception_path>:
    4100067c:	34021273          	csrrw	x4,mscratch,x4
    41000680:	00000297          	auipc	x5,0x0
    41000684:	10828293          	addi	x5,x5,264 # 41000788 <trap_handler_m__trap_panic>
    41000688:	30529073          	csrw	mtvec,x5
    4100068c:	0040006f          	j	41000690 <trap_handler_m__excp_entry>

0000000041000690 <trap_handler_m__excp_entry>:
    41000690:	34202373          	csrr	x6,mcause
    41000694:	00800293          	li	x5,8
    41000698:	00534863          	blt	x6,x5,410006a8 <trap_handler_m__check_exception_label>
    4100069c:	00b00293          	li	x5,11
    410006a0:	0062c463          	blt	x5,x6,410006a8 <trap_handler_m__check_exception_label>
    410006a4:	a31ff06f          	j	410000d4 <syscalls__syscall_check_schedule_next_test>

00000000410006a8 <trap_handler_m__check_exception_label>:
    410006a8:	04623c23          	sd	x6,88(x4) # 58 <XLEN+0x18>
    410006ac:	341022f3          	csrr	x5,mepc
    410006b0:	02523423          	sd	x5,40(x4) # 28 <SECURE_ACCESS_PROBABILITY+0xa>
    410006b4:	01820283          	lb	x5,24(x4) # 18 <STORE_GUEST_PAGE_FAULT+0x1>
    410006b8:	00029863          	bnez	x5,410006c8 <trap_handler_m__check_excp>
    410006bc:	00128293          	addi	x5,x5,1
    410006c0:	00520c23          	sb	x5,24(x4) # 18 <STORE_GUEST_PAGE_FAULT+0x1>
    410006c4:	0980006f          	j	4100075c <trap_handler_m__ecall_from_machine>

00000000410006c8 <trap_handler_m__check_excp>:
    410006c8:	06823283          	ld	x5,104(x4) # 68 <XLEN+0x28>
    410006cc:	06023423          	sd	x0,104(x4) # 68 <XLEN+0x28>
    410006d0:	00028663          	beqz	x5,410006dc <trap_handler_m__skip_mode_check>
    410006d4:	00100393          	li	x7,1
    410006d8:	0e729463          	bne	x5,x7,410007c0 <test_failed>

00000000410006dc <trap_handler_m__skip_mode_check>:
    410006dc:	05023283          	ld	x5,80(x4) # 50 <XLEN+0x10>
    410006e0:	04023823          	sd	x0,80(x4) # 50 <XLEN+0x10>
    410006e4:	0c531e63          	bne	x6,x5,410007c0 <test_failed>
    410006e8:	03823283          	ld	x5,56(x4) # 38 <SECURE_ACCESS_PROBABILITY+0x1a>
    410006ec:	02023c23          	sd	x0,56(x4) # 38 <SECURE_ACCESS_PROBABILITY+0x1a>
    410006f0:	06029463          	bnez	x5,41000758 <trap_handler_m__skip_gva_check>
    410006f4:	02023303          	ld	x6,32(x4) # 20 <SECURE_ACCESS_PROBABILITY+0x2>
    410006f8:	02023023          	sd	x0,32(x4) # 20 <SECURE_ACCESS_PROBABILITY+0x2>
    410006fc:	02823283          	ld	x5,40(x4) # 28 <SECURE_ACCESS_PROBABILITY+0xa>
    41000700:	02023423          	sd	x0,40(x4) # 28 <SECURE_ACCESS_PROBABILITY+0xa>
    41000704:	0a531e63          	bne	x6,x5,410007c0 <test_failed>
    41000708:	04023283          	ld	x5,64(x4) # 40 <XLEN>
    4100070c:	04023023          	sd	x0,64(x4) # 40 <XLEN>
    41000710:	00028663          	beqz	x5,4100071c <trap_handler_m__skip_nonzero_tval_check>

0000000041000714 <trap_handler_m__nonzero_tval_check>:
    41000714:	34302373          	csrr	x6,mtval
    41000718:	0a531463          	bne	x6,x5,410007c0 <test_failed>

000000004100071c <trap_handler_m__skip_nonzero_tval_check>:
    4100071c:	04823283          	ld	x5,72(x4) # 48 <XLEN+0x8>
    41000720:	04023423          	sd	x0,72(x4) # 48 <XLEN+0x8>
    41000724:	00028663          	beqz	x5,41000730 <trap_handler_m__skip_nonzero_htval_check>

0000000041000728 <trap_handler_m__nonzero_htval_check>:
    41000728:	34b02373          	csrr	x6,0x34b
    4100072c:	08531a63          	bne	x6,x5,410007c0 <test_failed>

0000000041000730 <trap_handler_m__skip_nonzero_htval_check>:
    41000730:	06023283          	ld	x5,96(x4) # 60 <XLEN+0x20>
    41000734:	06023023          	sd	x0,96(x4) # 60 <XLEN+0x20>
    41000738:	02028063          	beqz	x5,41000758 <trap_handler_m__skip_gva_check>

000000004100073c <trap_handler_m__gva_check>:
    4100073c:	30002373          	csrr	x6,mstatus
    41000740:	02635313          	srli	x6,x6,0x26
    41000744:	00137313          	andi	x6,x6,1
    41000748:	06030c63          	beqz	x6,410007c0 <test_failed>
    4100074c:	0010031b          	addiw	x6,x0,1
    41000750:	02631313          	slli	x6,x6,0x26
    41000754:	30033073          	csrc	mstatus,x6

0000000041000758 <trap_handler_m__skip_gva_check>:
    41000758:	0040006f          	j	4100075c <trap_handler_m__ecall_from_machine>

000000004100075c <trap_handler_m__ecall_from_machine>:
    4100075c:	03023283          	ld	x5,48(x4) # 30 <SECURE_ACCESS_PROBABILITY+0x12>
    41000760:	02023823          	sd	x0,48(x4) # 30 <SECURE_ACCESS_PROBABILITY+0x12>
    41000764:	07023303          	ld	x6,112(x4) # 70 <XLEN+0x30>
    41000768:	06023823          	sd	x0,112(x4) # 70 <XLEN+0x30>
    4100076c:	00031463          	bnez	x6,41000774 <trap_handler_m__skip_xepc_write>
    41000770:	34129073          	csrw	mepc,x5

0000000041000774 <trap_handler_m__skip_xepc_write>:
    41000774:	00000317          	auipc	x6,0x0
    41000778:	dd830313          	addi	x6,x6,-552 # 4100054c <trap_handler_m__trap_entry>
    4100077c:	30531073          	csrw	mtvec,x6
    41000780:	34021273          	csrrw	x4,mscratch,x4
    41000784:	30200073          	mret

0000000041000788 <trap_handler_m__trap_panic>:
    41000788:	00000193          	li	x3,0
    4100078c:	2b40006f          	j	41000a40 <eot__end_test>

0000000041000790 <enter_scheduler>:
    41000790:	0002f337          	lui	x6,0x2f
    41000794:	ab73031b          	addiw	x6,x6,-1353 # 2eab7 <SID_EXCEP_04_EQZ_FAILING_XOR_stack+0xbab7>
    41000798:	00e31313          	slli	x6,x6,0xe
    4100079c:	0de30313          	addi	x6,x6,222
    410007a0:	02628063          	beq	x5,x6,410007c0 <test_failed>
    410007a4:	00000513          	li	x10,0
    410007a8:	030000ef          	jal	410007d8 <rvcp_print_test_result>
    410007ac:	3180006f          	j	41000ac4 <scheduler__dispatch>

00000000410007b0 <test_passed>:
    410007b0:	34021273          	csrrw	x4,mscratch,x4
    410007b4:	00000513          	li	x10,0
    410007b8:	020000ef          	jal	410007d8 <rvcp_print_test_result>
    410007bc:	3080006f          	j	41000ac4 <scheduler__dispatch>

00000000410007c0 <test_failed>:
    410007c0:	34021273          	csrrw	x4,mscratch,x4
    410007c4:	00300193          	li	x3,3
    410007c8:	2780006f          	j	41000a40 <eot__end_test>

00000000410007cc <os_end_test>:
    410007cc:	34021273          	csrrw	x4,mscratch,x4
    410007d0:	00100193          	li	x3,1
    410007d4:	26c0006f          	j	41000a40 <eot__end_test>

00000000410007d8 <rvcp_print_test_result>:
    410007d8:	00050e13          	mv	x28,x10
    410007dc:	18823283          	ld	x5,392(x4) # 188 <XLEN+0x148>
    410007e0:	0010031b          	addiw	x6,x0,1
    410007e4:	02031313          	slli	x6,x6,0x20
    410007e8:	ffe30313          	addi	x6,x6,-2
    410007ec:	1c628063          	beq	x5,x6,410009ac <rvcp_print_test_result+0x1d4>
    410007f0:	0010031b          	addiw	x6,x0,1
    410007f4:	02031313          	slli	x6,x6,0x20
    410007f8:	fff30313          	addi	x6,x6,-1
    410007fc:	1a628863          	beq	x5,x6,410009ac <rvcp_print_test_result+0x1d4>
    41000800:	1a02c663          	bltz	x5,410009ac <rvcp_print_test_result+0x1d4>
    41000804:	00000317          	auipc	x6,0x0
    41000808:	5f030313          	addi	x6,x6,1520 # 41000df4 <dtest_descriptor_table>
    4100080c:	00329393          	slli	x7,x5,0x3
    41000810:	00730333          	add	x6,x6,x7
    41000814:	00033e83          	ld	x29,0(x6)
    41000818:	44288f37          	lui	x30,0x44288
    4100081c:	030f0f1b          	addiw	x30,x30,48 # 44288030 <rvcp_prefix_str_pa>
    41000820:	000f4283          	lbu	x5,0(x30)
    41000824:	02028663          	beqz	x5,41000850 <rvcp_print_test_result+0x78>
    41000828:	1010031b          	addiw	x6,x0,257
    4100082c:	03031313          	slli	x6,x6,0x30
    41000830:	005362b3          	or	x5,x6,x5
    41000834:	0003f317          	auipc	x6,0x3f
    41000838:	7cc30313          	addi	x6,x6,1996 # 41040000 <tohost>
    4100083c:	00033383          	ld	x7,0(x6)
    41000840:	fe039ee3          	bnez	x7,4100083c <rvcp_print_test_result+0x64>
    41000844:	00533023          	sd	x5,0(x6)
    41000848:	001f0f13          	addi	x30,x30,1
    4100084c:	fd5ff06f          	j	41000820 <rvcp_print_test_result+0x48>
    41000850:	44288f37          	lui	x30,0x44288
    41000854:	041f0f1b          	addiw	x30,x30,65 # 44288041 <rvcp_testname_str_pa>
    41000858:	000f4283          	lbu	x5,0(x30)
    4100085c:	02028663          	beqz	x5,41000888 <rvcp_print_test_result+0xb0>
    41000860:	1010031b          	addiw	x6,x0,257
    41000864:	03031313          	slli	x6,x6,0x30
    41000868:	005362b3          	or	x5,x6,x5
    4100086c:	0003f317          	auipc	x6,0x3f
    41000870:	79430313          	addi	x6,x6,1940 # 41040000 <tohost>
    41000874:	00033383          	ld	x7,0(x6)
    41000878:	fe039ee3          	bnez	x7,41000874 <rvcp_print_test_result+0x9c>
    4100087c:	00533023          	sd	x5,0(x6)
    41000880:	001f0f13          	addi	x30,x30,1
    41000884:	fd5ff06f          	j	41000858 <rvcp_print_test_result+0x80>
    41000888:	44288f37          	lui	x30,0x44288
    4100088c:	05bf0f1b          	addiw	x30,x30,91 # 4428805b <rvcp_space_str_pa>
    41000890:	000f4283          	lbu	x5,0(x30)
    41000894:	02028663          	beqz	x5,410008c0 <rvcp_print_test_result+0xe8>
    41000898:	1010031b          	addiw	x6,x0,257
    4100089c:	03031313          	slli	x6,x6,0x30
    410008a0:	005362b3          	or	x5,x6,x5
    410008a4:	0003f317          	auipc	x6,0x3f
    410008a8:	75c30313          	addi	x6,x6,1884 # 41040000 <tohost>
    410008ac:	00033383          	ld	x7,0(x6)
    410008b0:	fe039ee3          	bnez	x7,410008ac <rvcp_print_test_result+0xd4>
    410008b4:	00533023          	sd	x5,0(x6)
    410008b8:	001f0f13          	addi	x30,x30,1
    410008bc:	fd5ff06f          	j	41000890 <rvcp_print_test_result+0xb8>
    410008c0:	000e8f13          	mv	x30,x29
    410008c4:	000f4283          	lbu	x5,0(x30)
    410008c8:	02028663          	beqz	x5,410008f4 <rvcp_print_test_result+0x11c>
    410008cc:	1010031b          	addiw	x6,x0,257
    410008d0:	03031313          	slli	x6,x6,0x30
    410008d4:	005362b3          	or	x5,x6,x5
    410008d8:	0003f317          	auipc	x6,0x3f
    410008dc:	72830313          	addi	x6,x6,1832 # 41040000 <tohost>
    410008e0:	00033383          	ld	x7,0(x6)
    410008e4:	fe039ee3          	bnez	x7,410008e0 <rvcp_print_test_result+0x108>
    410008e8:	00533023          	sd	x5,0(x6)
    410008ec:	001f0f13          	addi	x30,x30,1
    410008f0:	fd5ff06f          	j	410008c4 <rvcp_print_test_result+0xec>
    410008f4:	44288f37          	lui	x30,0x44288
    410008f8:	05bf0f1b          	addiw	x30,x30,91 # 4428805b <rvcp_space_str_pa>
    410008fc:	000f4283          	lbu	x5,0(x30)
    41000900:	02028663          	beqz	x5,4100092c <rvcp_print_test_result+0x154>
    41000904:	1010031b          	addiw	x6,x0,257
    41000908:	03031313          	slli	x6,x6,0x30
    4100090c:	005362b3          	or	x5,x6,x5
    41000910:	0003f317          	auipc	x6,0x3f
    41000914:	6f030313          	addi	x6,x6,1776 # 41040000 <tohost>
    41000918:	00033383          	ld	x7,0(x6)
    4100091c:	fe039ee3          	bnez	x7,41000918 <rvcp_print_test_result+0x140>
    41000920:	00533023          	sd	x5,0(x6)
    41000924:	001f0f13          	addi	x30,x30,1
    41000928:	fd5ff06f          	j	410008fc <rvcp_print_test_result+0x124>
    4100092c:	000e1863          	bnez	x28,4100093c <rvcp_print_test_result+0x164>
    41000930:	44288f37          	lui	x30,0x44288
    41000934:	04df0f1b          	addiw	x30,x30,77 # 4428804d <rvcp_passed_str_pa>
    41000938:	00c0006f          	j	41000944 <rvcp_print_test_result+0x16c>
    4100093c:	44288f37          	lui	x30,0x44288
    41000940:	054f0f1b          	addiw	x30,x30,84 # 44288054 <rvcp_failed_str_pa>
    41000944:	000f4283          	lbu	x5,0(x30)
    41000948:	02028663          	beqz	x5,41000974 <rvcp_print_test_result+0x19c>
    4100094c:	1010031b          	addiw	x6,x0,257
    41000950:	03031313          	slli	x6,x6,0x30
    41000954:	005362b3          	or	x5,x6,x5
    41000958:	0003f317          	auipc	x6,0x3f
    4100095c:	6a830313          	addi	x6,x6,1704 # 41040000 <tohost>
    41000960:	00033383          	ld	x7,0(x6)
    41000964:	fe039ee3          	bnez	x7,41000960 <rvcp_print_test_result+0x188>
    41000968:	00533023          	sd	x5,0(x6)
    4100096c:	001f0f13          	addi	x30,x30,1
    41000970:	fd5ff06f          	j	41000944 <rvcp_print_test_result+0x16c>
    41000974:	44288f37          	lui	x30,0x44288
    41000978:	05df0f1b          	addiw	x30,x30,93 # 4428805d <rvcp_newline_str_pa>
    4100097c:	000f4283          	lbu	x5,0(x30)
    41000980:	02028663          	beqz	x5,410009ac <rvcp_print_test_result+0x1d4>
    41000984:	1010031b          	addiw	x6,x0,257
    41000988:	03031313          	slli	x6,x6,0x30
    4100098c:	005362b3          	or	x5,x6,x5
    41000990:	0003f317          	auipc	x6,0x3f
    41000994:	67030313          	addi	x6,x6,1648 # 41040000 <tohost>
    41000998:	00033383          	ld	x7,0(x6)
    4100099c:	fe039ee3          	bnez	x7,41000998 <rvcp_print_test_result+0x1c0>
    410009a0:	00533023          	sd	x5,0(x6)
    410009a4:	001f0f13          	addi	x30,x30,1
    410009a8:	fd5ff06f          	j	4100097c <rvcp_print_test_result+0x1a4>
    410009ac:	00008067          	ret

00000000410009b0 <os_rng_orig>:
    410009b0:	f14023f3          	csrr	x7,mhartid
    410009b4:	00068313          	mv	x6,x13
    410009b8:	026383b3          	mul	x7,x7,x6
    410009bc:	00058313          	mv	x6,x11
    410009c0:	00730333          	add	x6,x6,x7
    410009c4:	00033283          	ld	x5,0(x6)
    410009c8:	01529313          	slli	x6,x5,0x15
    410009cc:	0062c2b3          	xor	x5,x5,x6
    410009d0:	0232d313          	srli	x6,x5,0x23
    410009d4:	0062c2b3          	xor	x5,x5,x6
    410009d8:	00429313          	slli	x6,x5,0x4
    410009dc:	0062c2b3          	xor	x5,x5,x6
    410009e0:	00058313          	mv	x6,x11
    410009e4:	00730333          	add	x6,x6,x7
    410009e8:	00533023          	sd	x5,0(x6)
    410009ec:	00060313          	mv	x6,x12
    410009f0:	0262f2b3          	remu	x5,x5,x6
    410009f4:	00028513          	mv	x10,x5
    410009f8:	00008067          	ret
    410009fc:	02a00513          	li	x10,42
    41000a00:	001965b7          	lui	x11,0x196
    41000a04:	60d5859b          	addiw	x11,x11,1549 # 19660d <SID_EXCEP_04_EQZ_PASSING_ADD_stack+0x13e60d>
    41000a08:	3c6ef637          	lui	x12,0x3c6ef
    41000a0c:	35f6061b          	addiw	x12,x12,863 # 3c6ef35f <hart_stack_0_end+0x187fa35f>
    41000a10:	02200693          	li	x13,34
    41000a14:	02b50533          	mul	x10,x10,x11
    41000a18:	00c50533          	add	x10,x10,x12
    41000a1c:	02d56533          	rem	x10,x10,x13
    41000a20:	00b00593          	li	x11,11
    41000a24:	02b56533          	rem	x10,x10,x11
    41000a28:	00008067          	ret
    41000a2c:	0000                	.insn	2, 0x0000
	...

0000000041000a30 <tohost_mutex>:
	...

0000000041000a38 <tohost_addr_mem>:
    41000a38:	0000                	.insn	2, 0x0000
    41000a3a:	4104                	.insn	2, 0x4104
    41000a3c:	0000                	.insn	2, 0x0000
	...

0000000041000a40 <eot__end_test>:
    41000a40:	00100293          	li	x5,1
    41000a44:	00328463          	beq	x5,x3,41000a4c <eot__passed>
    41000a48:	01c0006f          	j	41000a64 <eot__failed>

0000000041000a4c <eot__passed>:
    41000a4c:	0ff0000f          	fence
    41000a50:	00000297          	auipc	x5,0x0
    41000a54:	fe82b283          	ld	x5,-24(x5) # 41000a38 <tohost_addr_mem>
    41000a58:	00100313          	li	x6,1
    41000a5c:	0062a023          	sw	x6,0(x5)
    41000a60:	0240006f          	j	41000a84 <eot__halt>

0000000041000a64 <eot__failed>:
    41000a64:	00100513          	li	x10,1
    41000a68:	d71ff0ef          	jal	410007d8 <rvcp_print_test_result>
    41000a6c:	0ff0000f          	fence
    41000a70:	00000297          	auipc	x5,0x0
    41000a74:	fc82b283          	ld	x5,-56(x5) # 41000a38 <tohost_addr_mem>
    41000a78:	00300313          	li	x6,3
    41000a7c:	0062a023          	sw	x6,0(x5)
    41000a80:	0040006f          	j	41000a84 <eot__halt>

0000000041000a84 <eot__halt>:
    41000a84:	10500073          	wfi
    41000a88:	ffdff06f          	j	41000a84 <eot__halt>

0000000041000a8c <scheduler__init>:
    41000a8c:	00000297          	auipc	x5,0x0
    41000a90:	0dc28293          	addi	x5,x5,220 # 41000b68 <scheduler__panic>
    41000a94:	305292f3          	csrrw	x5,mtvec,x5
    41000a98:	18523023          	sd	x5,384(x4) # 180 <XLEN+0x140>
    41000a9c:	04f00293          	li	x5,79
    41000aa0:	18523823          	sd	x5,400(x4) # 190 <XLEN+0x150>
    41000aa4:	0010029b          	addiw	x5,x0,1
    41000aa8:	02029293          	slli	x5,x5,0x20
    41000aac:	ffe28293          	addi	x5,x5,-2
    41000ab0:	18523423          	sd	x5,392(x4) # 188 <XLEN+0x148>
    41000ab4:	00001317          	auipc	x6,0x1
    41000ab8:	81830313          	addi	x6,x6,-2024 # 410012cc <scheduler__test_setup_ptr>
    41000abc:	00033303          	ld	x6,0(x6)
    41000ac0:	0800006f          	j	41000b40 <scheduler__execute_test>

0000000041000ac4 <scheduler__dispatch>:
    41000ac4:	00000297          	auipc	x5,0x0
    41000ac8:	0a428293          	addi	x5,x5,164 # 41000b68 <scheduler__panic>
    41000acc:	305292f3          	csrrw	x5,mtvec,x5
    41000ad0:	18523023          	sd	x5,384(x4) # 180 <XLEN+0x140>

0000000041000ad4 <scheduler__csr_read_randomization>:
    41000ad4:	f12022f3          	csrr	x5,marchid
    41000ad8:	f14022f3          	csrr	x5,mhartid
    41000adc:	f11022f3          	csrr	x5,mvendorid
    41000ae0:	302022f3          	csrr	x5,medeleg
    41000ae4:	340022f3          	csrr	x5,mscratch
    41000ae8:	105022f3          	csrr	x5,stvec
    41000aec:	106022f3          	csrr	x5,scounteren
    41000af0:	b02022f3          	csrr	x5,minstret
    41000af4:	104022f3          	csrr	x5,sie
    41000af8:	140022f3          	csrr	x5,sscratch
    41000afc:	f15022f3          	csrr	x5,0xf15
    41000b00:	b02022f3          	csrr	x5,minstret

0000000041000b04 <scheduler__load_num_runs>:
    41000b04:	19023303          	ld	x6,400(x4) # 190 <XLEN+0x150>
    41000b08:	04030c63          	beqz	x6,41000b60 <scheduler__finished>

0000000041000b0c <scheduler__decrement_num_runs>:
    41000b0c:	fff30393          	addi	x7,x6,-1
    41000b10:	18723823          	sd	x7,400(x4) # 190 <XLEN+0x150>
    41000b14:	00000e17          	auipc	x28,0x0
    41000b18:	678e0e13          	addi	x28,x28,1656 # 4100118c <dtest_index_map>
    41000b1c:	00239e93          	slli	x29,x7,0x2
    41000b20:	01de0e33          	add	x28,x28,x29
    41000b24:	000e2e03          	lw	x28,0(x28)
    41000b28:	19c23423          	sd	x28,392(x4) # 188 <XLEN+0x148>

0000000041000b2c <scheduler__calc_test_pointer>:
    41000b2c:	00339293          	slli	x5,x7,0x3

0000000041000b30 <scheduler__load_test_addr>:
    41000b30:	00000317          	auipc	x6,0x0
    41000b34:	04c30313          	addi	x6,x6,76 # 41000b7c <os_test_sequence>
    41000b38:	006282b3          	add	x5,x5,x6
    41000b3c:	0002b303          	ld	x6,0(x5)

0000000041000b40 <scheduler__execute_test>:
    41000b40:	18023283          	ld	x5,384(x4) # 180 <XLEN+0x140>
    41000b44:	30529073          	csrw	mtvec,x5
    41000b48:	34021273          	csrrw	x4,mscratch,x4
    41000b4c:	00000213          	li	x4,0
    41000b50:	14131073          	csrw	sepc,x6
    41000b54:	10000293          	li	x5,256
    41000b58:	1002b073          	csrc	sstatus,x5
    41000b5c:	10200073          	sret

0000000041000b60 <scheduler__finished>:
    41000b60:	00100193          	li	x3,1
    41000b64:	eddff06f          	j	41000a40 <eot__end_test>

0000000041000b68 <scheduler__panic>:
    41000b68:	00000193          	li	x3,0
    41000b6c:	ed5ff06f          	j	41000a40 <eot__end_test>
    41000b70:	0000                	.insn	2, 0x0000
	...

0000000041000b74 <num_runs>:
    41000b74:	0000004f          	fnmadd.s	f0,f0,f0,f0,rne
    41000b78:	0000                	.insn	2, 0x0000
	...

0000000041000b7c <os_test_sequence>:
    41000b7c:	5aa0                	.insn	2, 0x5aa0
    41000b7e:	4101                	.insn	2, 0x4101
    41000b80:	0000                	.insn	2, 0x0000
    41000b82:	0000                	.insn	2, 0x0000
    41000b84:	5130                	.insn	2, 0x5130
    41000b86:	4101                	.insn	2, 0x4101
    41000b88:	0000                	.insn	2, 0x0000
    41000b8a:	0000                	.insn	2, 0x0000
    41000b8c:	5180                	.insn	2, 0x5180
    41000b8e:	4101                	.insn	2, 0x4101
    41000b90:	0000                	.insn	2, 0x0000
    41000b92:	0000                	.insn	2, 0x0000
    41000b94:	596c                	.insn	2, 0x596c
    41000b96:	4101                	.insn	2, 0x4101
    41000b98:	0000                	.insn	2, 0x0000
    41000b9a:	0000                	.insn	2, 0x0000
    41000b9c:	51dc                	.insn	2, 0x51dc
    41000b9e:	4101                	.insn	2, 0x4101
    41000ba0:	0000                	.insn	2, 0x0000
    41000ba2:	0000                	.insn	2, 0x0000
    41000ba4:	580c                	.insn	2, 0x580c
    41000ba6:	4101                	.insn	2, 0x4101
    41000ba8:	0000                	.insn	2, 0x0000
    41000baa:	0000                	.insn	2, 0x0000
    41000bac:	5694                	.insn	2, 0x5694
    41000bae:	4101                	.insn	2, 0x4101
    41000bb0:	0000                	.insn	2, 0x0000
    41000bb2:	0000                	.insn	2, 0x0000
    41000bb4:	59c8                	.insn	2, 0x59c8
    41000bb6:	4101                	.insn	2, 0x4101
    41000bb8:	0000                	.insn	2, 0x0000
    41000bba:	0000                	.insn	2, 0x0000
    41000bbc:	5754                	.insn	2, 0x5754
    41000bbe:	4101                	.insn	2, 0x4101
    41000bc0:	0000                	.insn	2, 0x0000
    41000bc2:	0000                	.insn	2, 0x0000
    41000bc4:	5400                	.insn	2, 0x5400
    41000bc6:	4101                	.insn	2, 0x4101
    41000bc8:	0000                	.insn	2, 0x0000
    41000bca:	0000                	.insn	2, 0x0000
    41000bcc:	5860                	.insn	2, 0x5860
    41000bce:	4101                	.insn	2, 0x4101
    41000bd0:	0000                	.insn	2, 0x0000
    41000bd2:	0000                	.insn	2, 0x0000
    41000bd4:	5238                	.insn	2, 0x5238
    41000bd6:	4101                	.insn	2, 0x4101
    41000bd8:	0000                	.insn	2, 0x0000
    41000bda:	0000                	.insn	2, 0x0000
    41000bdc:	580c                	.insn	2, 0x580c
    41000bde:	4101                	.insn	2, 0x4101
    41000be0:	0000                	.insn	2, 0x0000
    41000be2:	0000                	.insn	2, 0x0000
    41000be4:	5290                	.insn	2, 0x5290
    41000be6:	4101                	.insn	2, 0x4101
    41000be8:	0000                	.insn	2, 0x0000
    41000bea:	0000                	.insn	2, 0x0000
    41000bec:	5358                	.insn	2, 0x5358
    41000bee:	4101                	.insn	2, 0x4101
    41000bf0:	0000                	.insn	2, 0x0000
    41000bf2:	0000                	.insn	2, 0x0000
    41000bf4:	5918                	.insn	2, 0x5918
    41000bf6:	4101                	.insn	2, 0x4101
    41000bf8:	0000                	.insn	2, 0x0000
    41000bfa:	0000                	.insn	2, 0x0000
    41000bfc:	54b0                	.insn	2, 0x54b0
    41000bfe:	4101                	.insn	2, 0x4101
    41000c00:	0000                	.insn	2, 0x0000
    41000c02:	0000                	.insn	2, 0x0000
    41000c04:	5358                	.insn	2, 0x5358
    41000c06:	4101                	.insn	2, 0x4101
    41000c08:	0000                	.insn	2, 0x0000
    41000c0a:	0000                	.insn	2, 0x0000
    41000c0c:	55cc                	.insn	2, 0x55cc
    41000c0e:	4101                	.insn	2, 0x4101
    41000c10:	0000                	.insn	2, 0x0000
    41000c12:	0000                	.insn	2, 0x0000
    41000c14:	58bc                	.insn	2, 0x58bc
    41000c16:	4101                	.insn	2, 0x4101
    41000c18:	0000                	.insn	2, 0x0000
    41000c1a:	0000                	.insn	2, 0x0000
    41000c1c:	5a2c                	.insn	2, 0x5a2c
    41000c1e:	4101                	.insn	2, 0x4101
    41000c20:	0000                	.insn	2, 0x0000
    41000c22:	0000                	.insn	2, 0x0000
    41000c24:	52f0                	.insn	2, 0x52f0
    41000c26:	4101                	.insn	2, 0x4101
    41000c28:	0000                	.insn	2, 0x0000
    41000c2a:	0000                	.insn	2, 0x0000
    41000c2c:	5630                	.insn	2, 0x5630
    41000c2e:	4101                	.insn	2, 0x4101
    41000c30:	0000                	.insn	2, 0x0000
    41000c32:	0000                	.insn	2, 0x0000
    41000c34:	550c                	.insn	2, 0x550c
    41000c36:	4101                	.insn	2, 0x4101
    41000c38:	0000                	.insn	2, 0x0000
    41000c3a:	0000                	.insn	2, 0x0000
    41000c3c:	5570                	.insn	2, 0x5570
    41000c3e:	4101                	.insn	2, 0x4101
    41000c40:	0000                	.insn	2, 0x0000
    41000c42:	0000                	.insn	2, 0x0000
    41000c44:	54b0                	.insn	2, 0x54b0
    41000c46:	4101                	.insn	2, 0x4101
    41000c48:	0000                	.insn	2, 0x0000
    41000c4a:	0000                	.insn	2, 0x0000
    41000c4c:	5290                	.insn	2, 0x5290
    41000c4e:	4101                	.insn	2, 0x4101
    41000c50:	0000                	.insn	2, 0x0000
    41000c52:	0000                	.insn	2, 0x0000
    41000c54:	5754                	.insn	2, 0x5754
    41000c56:	4101                	.insn	2, 0x4101
    41000c58:	0000                	.insn	2, 0x0000
    41000c5a:	0000                	.insn	2, 0x0000
    41000c5c:	5180                	.insn	2, 0x5180
    41000c5e:	4101                	.insn	2, 0x4101
    41000c60:	0000                	.insn	2, 0x0000
    41000c62:	0000                	.insn	2, 0x0000
    41000c64:	59c8                	.insn	2, 0x59c8
    41000c66:	4101                	.insn	2, 0x4101
    41000c68:	0000                	.insn	2, 0x0000
    41000c6a:	0000                	.insn	2, 0x0000
    41000c6c:	5754                	.insn	2, 0x5754
    41000c6e:	4101                	.insn	2, 0x4101
    41000c70:	0000                	.insn	2, 0x0000
    41000c72:	0000                	.insn	2, 0x0000
    41000c74:	5570                	.insn	2, 0x5570
    41000c76:	4101                	.insn	2, 0x4101
    41000c78:	0000                	.insn	2, 0x0000
    41000c7a:	0000                	.insn	2, 0x0000
    41000c7c:	53b4                	.insn	2, 0x53b4
    41000c7e:	4101                	.insn	2, 0x4101
    41000c80:	0000                	.insn	2, 0x0000
    41000c82:	0000                	.insn	2, 0x0000
    41000c84:	5570                	.insn	2, 0x5570
    41000c86:	4101                	.insn	2, 0x4101
    41000c88:	0000                	.insn	2, 0x0000
    41000c8a:	0000                	.insn	2, 0x0000
    41000c8c:	5400                	.insn	2, 0x5400
    41000c8e:	4101                	.insn	2, 0x4101
    41000c90:	0000                	.insn	2, 0x0000
    41000c92:	0000                	.insn	2, 0x0000
    41000c94:	5454                	.insn	2, 0x5454
    41000c96:	4101                	.insn	2, 0x4101
    41000c98:	0000                	.insn	2, 0x0000
    41000c9a:	0000                	.insn	2, 0x0000
    41000c9c:	5630                	.insn	2, 0x5630
    41000c9e:	4101                	.insn	2, 0x4101
    41000ca0:	0000                	.insn	2, 0x0000
    41000ca2:	0000                	.insn	2, 0x0000
    41000ca4:	5700                	.insn	2, 0x5700
    41000ca6:	4101                	.insn	2, 0x4101
    41000ca8:	0000                	.insn	2, 0x0000
    41000caa:	0000                	.insn	2, 0x0000
    41000cac:	59c8                	.insn	2, 0x59c8
    41000cae:	4101                	.insn	2, 0x4101
    41000cb0:	0000                	.insn	2, 0x0000
    41000cb2:	0000                	.insn	2, 0x0000
    41000cb4:	58bc                	.insn	2, 0x58bc
    41000cb6:	4101                	.insn	2, 0x4101
    41000cb8:	0000                	.insn	2, 0x0000
    41000cba:	0000                	.insn	2, 0x0000
    41000cbc:	55cc                	.insn	2, 0x55cc
    41000cbe:	4101                	.insn	2, 0x4101
    41000cc0:	0000                	.insn	2, 0x0000
    41000cc2:	0000                	.insn	2, 0x0000
    41000cc4:	5860                	.insn	2, 0x5860
    41000cc6:	4101                	.insn	2, 0x4101
    41000cc8:	0000                	.insn	2, 0x0000
    41000cca:	0000                	.insn	2, 0x0000
    41000ccc:	51dc                	.insn	2, 0x51dc
    41000cce:	4101                	.insn	2, 0x4101
    41000cd0:	0000                	.insn	2, 0x0000
    41000cd2:	0000                	.insn	2, 0x0000
    41000cd4:	5630                	.insn	2, 0x5630
    41000cd6:	4101                	.insn	2, 0x4101
    41000cd8:	0000                	.insn	2, 0x0000
    41000cda:	0000                	.insn	2, 0x0000
    41000cdc:	57b0                	.insn	2, 0x57b0
    41000cde:	4101                	.insn	2, 0x4101
    41000ce0:	0000                	.insn	2, 0x0000
    41000ce2:	0000                	.insn	2, 0x0000
    41000ce4:	5700                	.insn	2, 0x5700
    41000ce6:	4101                	.insn	2, 0x4101
    41000ce8:	0000                	.insn	2, 0x0000
    41000cea:	0000                	.insn	2, 0x0000
    41000cec:	5860                	.insn	2, 0x5860
    41000cee:	4101                	.insn	2, 0x4101
    41000cf0:	0000                	.insn	2, 0x0000
    41000cf2:	0000                	.insn	2, 0x0000
    41000cf4:	5290                	.insn	2, 0x5290
    41000cf6:	4101                	.insn	2, 0x4101
    41000cf8:	0000                	.insn	2, 0x0000
    41000cfa:	0000                	.insn	2, 0x0000
    41000cfc:	52f0                	.insn	2, 0x52f0
    41000cfe:	4101                	.insn	2, 0x4101
    41000d00:	0000                	.insn	2, 0x0000
    41000d02:	0000                	.insn	2, 0x0000
    41000d04:	5a2c                	.insn	2, 0x5a2c
    41000d06:	4101                	.insn	2, 0x4101
    41000d08:	0000                	.insn	2, 0x0000
    41000d0a:	0000                	.insn	2, 0x0000
    41000d0c:	550c                	.insn	2, 0x550c
    41000d0e:	4101                	.insn	2, 0x4101
    41000d10:	0000                	.insn	2, 0x0000
    41000d12:	0000                	.insn	2, 0x0000
    41000d14:	5a2c                	.insn	2, 0x5a2c
    41000d16:	4101                	.insn	2, 0x4101
    41000d18:	0000                	.insn	2, 0x0000
    41000d1a:	0000                	.insn	2, 0x0000
    41000d1c:	550c                	.insn	2, 0x550c
    41000d1e:	4101                	.insn	2, 0x4101
    41000d20:	0000                	.insn	2, 0x0000
    41000d22:	0000                	.insn	2, 0x0000
    41000d24:	596c                	.insn	2, 0x596c
    41000d26:	4101                	.insn	2, 0x4101
    41000d28:	0000                	.insn	2, 0x0000
    41000d2a:	0000                	.insn	2, 0x0000
    41000d2c:	5400                	.insn	2, 0x5400
    41000d2e:	4101                	.insn	2, 0x4101
    41000d30:	0000                	.insn	2, 0x0000
    41000d32:	0000                	.insn	2, 0x0000
    41000d34:	5918                	.insn	2, 0x5918
    41000d36:	4101                	.insn	2, 0x4101
    41000d38:	0000                	.insn	2, 0x0000
    41000d3a:	0000                	.insn	2, 0x0000
    41000d3c:	5454                	.insn	2, 0x5454
    41000d3e:	4101                	.insn	2, 0x4101
    41000d40:	0000                	.insn	2, 0x0000
    41000d42:	0000                	.insn	2, 0x0000
    41000d44:	53b4                	.insn	2, 0x53b4
    41000d46:	4101                	.insn	2, 0x4101
    41000d48:	0000                	.insn	2, 0x0000
    41000d4a:	0000                	.insn	2, 0x0000
    41000d4c:	5130                	.insn	2, 0x5130
    41000d4e:	4101                	.insn	2, 0x4101
    41000d50:	0000                	.insn	2, 0x0000
    41000d52:	0000                	.insn	2, 0x0000
    41000d54:	5918                	.insn	2, 0x5918
    41000d56:	4101                	.insn	2, 0x4101
    41000d58:	0000                	.insn	2, 0x0000
    41000d5a:	0000                	.insn	2, 0x0000
    41000d5c:	5130                	.insn	2, 0x5130
    41000d5e:	4101                	.insn	2, 0x4101
    41000d60:	0000                	.insn	2, 0x0000
    41000d62:	0000                	.insn	2, 0x0000
    41000d64:	580c                	.insn	2, 0x580c
    41000d66:	4101                	.insn	2, 0x4101
    41000d68:	0000                	.insn	2, 0x0000
    41000d6a:	0000                	.insn	2, 0x0000
    41000d6c:	52f0                	.insn	2, 0x52f0
    41000d6e:	4101                	.insn	2, 0x4101
    41000d70:	0000                	.insn	2, 0x0000
    41000d72:	0000                	.insn	2, 0x0000
    41000d74:	596c                	.insn	2, 0x596c
    41000d76:	4101                	.insn	2, 0x4101
    41000d78:	0000                	.insn	2, 0x0000
    41000d7a:	0000                	.insn	2, 0x0000
    41000d7c:	57b0                	.insn	2, 0x57b0
    41000d7e:	4101                	.insn	2, 0x4101
    41000d80:	0000                	.insn	2, 0x0000
    41000d82:	0000                	.insn	2, 0x0000
    41000d84:	5694                	.insn	2, 0x5694
    41000d86:	4101                	.insn	2, 0x4101
    41000d88:	0000                	.insn	2, 0x0000
    41000d8a:	0000                	.insn	2, 0x0000
    41000d8c:	58bc                	.insn	2, 0x58bc
    41000d8e:	4101                	.insn	2, 0x4101
    41000d90:	0000                	.insn	2, 0x0000
    41000d92:	0000                	.insn	2, 0x0000
    41000d94:	5700                	.insn	2, 0x5700
    41000d96:	4101                	.insn	2, 0x4101
    41000d98:	0000                	.insn	2, 0x0000
    41000d9a:	0000                	.insn	2, 0x0000
    41000d9c:	57b0                	.insn	2, 0x57b0
    41000d9e:	4101                	.insn	2, 0x4101
    41000da0:	0000                	.insn	2, 0x0000
    41000da2:	0000                	.insn	2, 0x0000
    41000da4:	5358                	.insn	2, 0x5358
    41000da6:	4101                	.insn	2, 0x4101
    41000da8:	0000                	.insn	2, 0x0000
    41000daa:	0000                	.insn	2, 0x0000
    41000dac:	5180                	.insn	2, 0x5180
    41000dae:	4101                	.insn	2, 0x4101
    41000db0:	0000                	.insn	2, 0x0000
    41000db2:	0000                	.insn	2, 0x0000
    41000db4:	5454                	.insn	2, 0x5454
    41000db6:	4101                	.insn	2, 0x4101
    41000db8:	0000                	.insn	2, 0x0000
    41000dba:	0000                	.insn	2, 0x0000
    41000dbc:	54b0                	.insn	2, 0x54b0
    41000dbe:	4101                	.insn	2, 0x4101
    41000dc0:	0000                	.insn	2, 0x0000
    41000dc2:	0000                	.insn	2, 0x0000
    41000dc4:	55cc                	.insn	2, 0x55cc
    41000dc6:	4101                	.insn	2, 0x4101
    41000dc8:	0000                	.insn	2, 0x0000
    41000dca:	0000                	.insn	2, 0x0000
    41000dcc:	53b4                	.insn	2, 0x53b4
    41000dce:	4101                	.insn	2, 0x4101
    41000dd0:	0000                	.insn	2, 0x0000
    41000dd2:	0000                	.insn	2, 0x0000
    41000dd4:	5694                	.insn	2, 0x5694
    41000dd6:	4101                	.insn	2, 0x4101
    41000dd8:	0000                	.insn	2, 0x0000
    41000dda:	0000                	.insn	2, 0x0000
    41000ddc:	5238                	.insn	2, 0x5238
    41000dde:	4101                	.insn	2, 0x4101
    41000de0:	0000                	.insn	2, 0x0000
    41000de2:	0000                	.insn	2, 0x0000
    41000de4:	5238                	.insn	2, 0x5238
    41000de6:	4101                	.insn	2, 0x4101
    41000de8:	0000                	.insn	2, 0x0000
    41000dea:	0000                	.insn	2, 0x0000
    41000dec:	51dc                	.insn	2, 0x51dc
    41000dee:	4101                	.insn	2, 0x4101
    41000df0:	0000                	.insn	2, 0x0000
	...

0000000041000df4 <dtest_descriptor_table>:
    41000df4:	0ec4                	.insn	2, 0x0ec4
    41000df6:	4100                	.insn	2, 0x4100
    41000df8:	0000                	.insn	2, 0x0000
    41000dfa:	0000                	.insn	2, 0x0000
    41000dfc:	0edc                	.insn	2, 0x0edc
    41000dfe:	4100                	.insn	2, 0x4100
    41000e00:	0000                	.insn	2, 0x0000
    41000e02:	0000                	.insn	2, 0x0000
    41000e04:	41000ef3          	.insn	4, 0x41000ef3
    41000e08:	0000                	.insn	2, 0x0000
    41000e0a:	0000                	.insn	2, 0x0000
    41000e0c:	41000f0b          	.insn	4, 0x41000f0b
    41000e10:	0000                	.insn	2, 0x0000
    41000e12:	0000                	.insn	2, 0x0000
    41000e14:	0f22                	.insn	2, 0x0f22
    41000e16:	4100                	.insn	2, 0x4100
    41000e18:	0000                	.insn	2, 0x0000
    41000e1a:	0000                	.insn	2, 0x0000
    41000e1c:	0f3a                	.insn	2, 0x0f3a
    41000e1e:	4100                	.insn	2, 0x4100
    41000e20:	0000                	.insn	2, 0x0000
    41000e22:	0000                	.insn	2, 0x0000
    41000e24:	0f51                	.insn	2, 0x0f51
    41000e26:	4100                	.insn	2, 0x4100
    41000e28:	0000                	.insn	2, 0x0000
    41000e2a:	0000                	.insn	2, 0x0000
    41000e2c:	0f68                	.insn	2, 0x0f68
    41000e2e:	4100                	.insn	2, 0x4100
    41000e30:	0000                	.insn	2, 0x0000
    41000e32:	0000                	.insn	2, 0x0000
    41000e34:	0f80                	.insn	2, 0x0f80
    41000e36:	4100                	.insn	2, 0x4100
    41000e38:	0000                	.insn	2, 0x0000
    41000e3a:	0000                	.insn	2, 0x0000
    41000e3c:	0f9d                	.insn	2, 0x0f9d
    41000e3e:	4100                	.insn	2, 0x4100
    41000e40:	0000                	.insn	2, 0x0000
    41000e42:	0000                	.insn	2, 0x0000
    41000e44:	0fba                	.insn	2, 0x0fba
    41000e46:	4100                	.insn	2, 0x4100
    41000e48:	0000                	.insn	2, 0x0000
    41000e4a:	0000                	.insn	2, 0x0000
    41000e4c:	41000fd7          	vadc.vvm	v31,v16,v0,v0
    41000e50:	0000                	.insn	2, 0x0000
    41000e52:	0000                	.insn	2, 0x0000
    41000e54:	0ff4                	.insn	2, 0x0ff4
    41000e56:	4100                	.insn	2, 0x4100
    41000e58:	0000                	.insn	2, 0x0000
    41000e5a:	0000                	.insn	2, 0x0000
    41000e5c:	1011                	.insn	2, 0x1011
    41000e5e:	4100                	.insn	2, 0x4100
    41000e60:	0000                	.insn	2, 0x0000
    41000e62:	0000                	.insn	2, 0x0000
    41000e64:	102e                	.insn	2, 0x102e
    41000e66:	4100                	.insn	2, 0x4100
    41000e68:	0000                	.insn	2, 0x0000
    41000e6a:	0000                	.insn	2, 0x0000
    41000e6c:	4100104b          	fnmsub.s	f0,f0,f16,f8,rtz
    41000e70:	0000                	.insn	2, 0x0000
    41000e72:	0000                	.insn	2, 0x0000
    41000e74:	1068                	.insn	2, 0x1068
    41000e76:	4100                	.insn	2, 0x4100
    41000e78:	0000                	.insn	2, 0x0000
    41000e7a:	0000                	.insn	2, 0x0000
    41000e7c:	1085                	.insn	2, 0x1085
    41000e7e:	4100                	.insn	2, 0x4100
    41000e80:	0000                	.insn	2, 0x0000
    41000e82:	0000                	.insn	2, 0x0000
    41000e84:	10a2                	.insn	2, 0x10a2
    41000e86:	4100                	.insn	2, 0x4100
    41000e88:	0000                	.insn	2, 0x0000
    41000e8a:	0000                	.insn	2, 0x0000
    41000e8c:	410010bf 00000000 	.insn	8, 0x410010bf
    41000e94:	10dc                	.insn	2, 0x10dc
    41000e96:	4100                	.insn	2, 0x4100
    41000e98:	0000                	.insn	2, 0x0000
    41000e9a:	0000                	.insn	2, 0x0000
    41000e9c:	10f9                	.insn	2, 0x10f9
    41000e9e:	4100                	.insn	2, 0x4100
    41000ea0:	0000                	.insn	2, 0x0000
    41000ea2:	0000                	.insn	2, 0x0000
    41000ea4:	1116                	.insn	2, 0x1116
    41000ea6:	4100                	.insn	2, 0x4100
    41000ea8:	0000                	.insn	2, 0x0000
    41000eaa:	0000                	.insn	2, 0x0000
    41000eac:	41001133          	.insn	4, 0x41001133
    41000eb0:	0000                	.insn	2, 0x0000
    41000eb2:	0000                	.insn	2, 0x0000
    41000eb4:	1150                	.insn	2, 0x1150
    41000eb6:	4100                	.insn	2, 0x4100
    41000eb8:	0000                	.insn	2, 0x0000
    41000eba:	0000                	.insn	2, 0x0000
    41000ebc:	116e                	.insn	2, 0x116e
    41000ebe:	4100                	.insn	2, 0x4100
    41000ec0:	0000                	.insn	2, 0x0000
	...

0000000041000ec4 <dtest_name_0>:
    41000ec4:	5f444953          	.insn	4, 0x5f444953
    41000ec8:	5845                	.insn	2, 0x5845
    41000eca:	5f504543          	.insn	4, 0x5f504543
    41000ece:	3130                	.insn	2, 0x3130
    41000ed0:	455f 5a51 525f      	.insn	6, 0x525f5a51455f
    41000ed6:	4e5f3153          	.insn	4, 0x4e5f3153
    41000eda:	005a                	.insn	2, 0x005a

0000000041000edc <dtest_name_1>:
    41000edc:	5f444953          	.insn	4, 0x5f444953
    41000ee0:	5845                	.insn	2, 0x5845
    41000ee2:	5f504543          	.insn	4, 0x5f504543
    41000ee6:	3130                	.insn	2, 0x3130
    41000ee8:	455f 5a51 525f      	.insn	6, 0x525f5a51455f
    41000eee:	5a5f3153          	.insn	4, 0x5a5f3153
	...

0000000041000ef3 <dtest_name_2>:
    41000ef3:	5f444953          	.insn	4, 0x5f444953
    41000ef7:	5845                	.insn	2, 0x5845
    41000ef9:	5f504543          	.insn	4, 0x5f504543
    41000efd:	3130                	.insn	2, 0x3130
    41000eff:	4e5f 5a45 525f      	.insn	6, 0x525f5a454e5f
    41000f05:	4e5f3153          	.insn	4, 0x4e5f3153
    41000f09:	005a                	.insn	2, 0x005a

0000000041000f0b <dtest_name_3>:
    41000f0b:	5f444953          	.insn	4, 0x5f444953
    41000f0f:	5845                	.insn	2, 0x5845
    41000f11:	5f504543          	.insn	4, 0x5f504543
    41000f15:	3130                	.insn	2, 0x3130
    41000f17:	4e5f 5a45 525f      	.insn	6, 0x525f5a454e5f
    41000f1d:	5a5f3153          	.insn	4, 0x5a5f3153
	...

0000000041000f22 <dtest_name_4>:
    41000f22:	5f444953          	.insn	4, 0x5f444953
    41000f26:	5845                	.insn	2, 0x5845
    41000f28:	5f504543          	.insn	4, 0x5f504543
    41000f2c:	3230                	.insn	2, 0x3230
    41000f2e:	455f 5a51 525f      	.insn	6, 0x525f5a51455f
    41000f34:	4e5f3153          	.insn	4, 0x4e5f3153
    41000f38:	005a                	.insn	2, 0x005a

0000000041000f3a <dtest_name_5>:
    41000f3a:	5f444953          	.insn	4, 0x5f444953
    41000f3e:	5845                	.insn	2, 0x5845
    41000f40:	5f504543          	.insn	4, 0x5f504543
    41000f44:	3230                	.insn	2, 0x3230
    41000f46:	455f 5a51 525f      	.insn	6, 0x525f5a51455f
    41000f4c:	5a5f3153          	.insn	4, 0x5a5f3153
	...

0000000041000f51 <dtest_name_6>:
    41000f51:	5f444953          	.insn	4, 0x5f444953
    41000f55:	5845                	.insn	2, 0x5845
    41000f57:	5f504543          	.insn	4, 0x5f504543
    41000f5b:	3230                	.insn	2, 0x3230
    41000f5d:	4e5f 5a45 525f      	.insn	6, 0x525f5a454e5f
    41000f63:	5a5f3153          	.insn	4, 0x5a5f3153
	...

0000000041000f68 <dtest_name_7>:
    41000f68:	5f444953          	.insn	4, 0x5f444953
    41000f6c:	5845                	.insn	2, 0x5845
    41000f6e:	5f504543          	.insn	4, 0x5f504543
    41000f72:	3230                	.insn	2, 0x3230
    41000f74:	4e5f 5a45 525f      	.insn	6, 0x525f5a454e5f
    41000f7a:	4e5f3153          	.insn	4, 0x4e5f3153
    41000f7e:	005a                	.insn	2, 0x005a

0000000041000f80 <dtest_name_8>:
    41000f80:	5f444953          	.insn	4, 0x5f444953
    41000f84:	5845                	.insn	2, 0x5845
    41000f86:	5f504543          	.insn	4, 0x5f504543
    41000f8a:	3430                	.insn	2, 0x3430
    41000f8c:	455f 5a51 505f      	.insn	6, 0x505f5a51455f
    41000f92:	5341                	.insn	2, 0x5341
    41000f94:	474e4953          	.insn	4, 0x474e4953
    41000f98:	415f 4444       	.insn	6, 0x53004444415f

0000000041000f9d <dtest_name_9>:
    41000f9d:	5f444953          	.insn	4, 0x5f444953
    41000fa1:	5845                	.insn	2, 0x5845
    41000fa3:	5f504543          	.insn	4, 0x5f504543
    41000fa7:	3430                	.insn	2, 0x3430
    41000fa9:	455f 5a51 465f      	.insn	6, 0x465f5a51455f
    41000faf:	4941                	.insn	2, 0x4941
    41000fb1:	494c                	.insn	2, 0x494c
    41000fb3:	474e                	.insn	2, 0x474e
    41000fb5:	415f 4444       	.insn	6, 0x53004444415f

0000000041000fba <dtest_name_10>:
    41000fba:	5f444953          	.insn	4, 0x5f444953
    41000fbe:	5845                	.insn	2, 0x5845
    41000fc0:	5f504543          	.insn	4, 0x5f504543
    41000fc4:	3430                	.insn	2, 0x3430
    41000fc6:	4e5f 5a45 505f      	.insn	6, 0x505f5a454e5f
    41000fcc:	5341                	.insn	2, 0x5341
    41000fce:	474e4953          	.insn	4, 0x474e4953
    41000fd2:	535f 4255       	.insn	6, 0x53004255535f

0000000041000fd7 <dtest_name_11>:
    41000fd7:	5f444953          	.insn	4, 0x5f444953
    41000fdb:	5845                	.insn	2, 0x5845
    41000fdd:	5f504543          	.insn	4, 0x5f504543
    41000fe1:	3430                	.insn	2, 0x3430
    41000fe3:	4e5f 5a45 465f      	.insn	6, 0x465f5a454e5f
    41000fe9:	4941                	.insn	2, 0x4941
    41000feb:	494c                	.insn	2, 0x494c
    41000fed:	474e                	.insn	2, 0x474e
    41000fef:	535f 4255       	.insn	6, 0x53004255535f

0000000041000ff4 <dtest_name_12>:
    41000ff4:	5f444953          	.insn	4, 0x5f444953
    41000ff8:	5845                	.insn	2, 0x5845
    41000ffa:	5f504543          	.insn	4, 0x5f504543
    41000ffe:	3430                	.insn	2, 0x3430
    41001000:	455f 5a51 505f      	.insn	6, 0x505f5a51455f
    41001006:	5341                	.insn	2, 0x5341
    41001008:	474e4953          	.insn	4, 0x474e4953
    4100100c:	535f 4255       	.insn	6, 0x53004255535f

0000000041001011 <dtest_name_13>:
    41001011:	5f444953          	.insn	4, 0x5f444953
    41001015:	5845                	.insn	2, 0x5845
    41001017:	5f504543          	.insn	4, 0x5f504543
    4100101b:	3430                	.insn	2, 0x3430
    4100101d:	455f 5a51 465f      	.insn	6, 0x465f5a51455f
    41001023:	4941                	.insn	2, 0x4941
    41001025:	494c                	.insn	2, 0x494c
    41001027:	474e                	.insn	2, 0x474e
    41001029:	535f 4255       	.insn	6, 0x53004255535f

000000004100102e <dtest_name_14>:
    4100102e:	5f444953          	.insn	4, 0x5f444953
    41001032:	5845                	.insn	2, 0x5845
    41001034:	5f504543          	.insn	4, 0x5f504543
    41001038:	3430                	.insn	2, 0x3430
    4100103a:	4e5f 5a45 505f      	.insn	6, 0x505f5a454e5f
    41001040:	5341                	.insn	2, 0x5341
    41001042:	474e4953          	.insn	4, 0x474e4953
    41001046:	415f 4444       	.insn	6, 0x53004444415f

000000004100104b <dtest_name_15>:
    4100104b:	5f444953          	.insn	4, 0x5f444953
    4100104f:	5845                	.insn	2, 0x5845
    41001051:	5f504543          	.insn	4, 0x5f504543
    41001055:	3430                	.insn	2, 0x3430
    41001057:	4e5f 5a45 465f      	.insn	6, 0x465f5a454e5f
    4100105d:	4941                	.insn	2, 0x4941
    4100105f:	494c                	.insn	2, 0x494c
    41001061:	474e                	.insn	2, 0x474e
    41001063:	415f 4444       	.insn	6, 0x53004444415f

0000000041001068 <dtest_name_16>:
    41001068:	5f444953          	.insn	4, 0x5f444953
    4100106c:	5845                	.insn	2, 0x5845
    4100106e:	5f504543          	.insn	4, 0x5f504543
    41001072:	3430                	.insn	2, 0x3430
    41001074:	455f 5a51 505f      	.insn	6, 0x505f5a51455f
    4100107a:	5341                	.insn	2, 0x5341
    4100107c:	474e4953          	.insn	4, 0x474e4953
    41001080:	415f 444e       	.insn	6, 0x5300444e415f

0000000041001085 <dtest_name_17>:
    41001085:	5f444953          	.insn	4, 0x5f444953
    41001089:	5845                	.insn	2, 0x5845
    4100108b:	5f504543          	.insn	4, 0x5f504543
    4100108f:	3430                	.insn	2, 0x3430
    41001091:	455f 5a51 465f      	.insn	6, 0x465f5a51455f
    41001097:	4941                	.insn	2, 0x4941
    41001099:	494c                	.insn	2, 0x494c
    4100109b:	474e                	.insn	2, 0x474e
    4100109d:	415f 444e       	.insn	6, 0x5300444e415f

00000000410010a2 <dtest_name_18>:
    410010a2:	5f444953          	.insn	4, 0x5f444953
    410010a6:	5845                	.insn	2, 0x5845
    410010a8:	5f504543          	.insn	4, 0x5f504543
    410010ac:	3430                	.insn	2, 0x3430
    410010ae:	455f 5a51 505f      	.insn	6, 0x505f5a51455f
    410010b4:	5341                	.insn	2, 0x5341
    410010b6:	474e4953          	.insn	4, 0x474e4953
    410010ba:	585f 524f       	.insn	6, 0x5300524f585f

00000000410010bf <dtest_name_19>:
    410010bf:	5f444953          	.insn	4, 0x5f444953
    410010c3:	5845                	.insn	2, 0x5845
    410010c5:	5f504543          	.insn	4, 0x5f504543
    410010c9:	3430                	.insn	2, 0x3430
    410010cb:	455f 5a51 465f      	.insn	6, 0x465f5a51455f
    410010d1:	4941                	.insn	2, 0x4941
    410010d3:	494c                	.insn	2, 0x494c
    410010d5:	474e                	.insn	2, 0x474e
    410010d7:	585f 524f       	.insn	6, 0x5300524f585f

00000000410010dc <dtest_name_20>:
    410010dc:	5f444953          	.insn	4, 0x5f444953
    410010e0:	5845                	.insn	2, 0x5845
    410010e2:	5f504543          	.insn	4, 0x5f504543
    410010e6:	3430                	.insn	2, 0x3430
    410010e8:	4e5f 5a45 505f      	.insn	6, 0x505f5a454e5f
    410010ee:	5341                	.insn	2, 0x5341
    410010f0:	474e4953          	.insn	4, 0x474e4953
    410010f4:	415f 444e       	.insn	6, 0x5300444e415f

00000000410010f9 <dtest_name_21>:
    410010f9:	5f444953          	.insn	4, 0x5f444953
    410010fd:	5845                	.insn	2, 0x5845
    410010ff:	5f504543          	.insn	4, 0x5f504543
    41001103:	3430                	.insn	2, 0x3430
    41001105:	4e5f 5a45 465f      	.insn	6, 0x465f5a454e5f
    4100110b:	4941                	.insn	2, 0x4941
    4100110d:	494c                	.insn	2, 0x494c
    4100110f:	474e                	.insn	2, 0x474e
    41001111:	415f 444e       	.insn	6, 0x5300444e415f

0000000041001116 <dtest_name_22>:
    41001116:	5f444953          	.insn	4, 0x5f444953
    4100111a:	5845                	.insn	2, 0x5845
    4100111c:	5f504543          	.insn	4, 0x5f504543
    41001120:	3430                	.insn	2, 0x3430
    41001122:	4e5f 5a45 505f      	.insn	6, 0x505f5a454e5f
    41001128:	5341                	.insn	2, 0x5341
    4100112a:	474e4953          	.insn	4, 0x474e4953
    4100112e:	585f 524f       	.insn	6, 0x5300524f585f

0000000041001133 <dtest_name_23>:
    41001133:	5f444953          	.insn	4, 0x5f444953
    41001137:	5845                	.insn	2, 0x5845
    41001139:	5f504543          	.insn	4, 0x5f504543
    4100113d:	3430                	.insn	2, 0x3430
    4100113f:	4e5f 5a45 465f      	.insn	6, 0x465f5a454e5f
    41001145:	4941                	.insn	2, 0x4941
    41001147:	494c                	.insn	2, 0x494c
    41001149:	474e                	.insn	2, 0x474e
    4100114b:	585f 524f       	.insn	6, 0x5300524f585f

0000000041001150 <dtest_name_24>:
    41001150:	5f444953          	.insn	4, 0x5f444953
    41001154:	5845                	.insn	2, 0x5845
    41001156:	5f504543          	.insn	4, 0x5f504543
    4100115a:	3430                	.insn	2, 0x3430
    4100115c:	325f 315f 4d5f      	.insn	6, 0x4d5f315f325f
    41001162:	5855                	.insn	2, 0x5855
    41001164:	535f 4c45 4345      	.insn	6, 0x43454c45535f
    4100116a:	5f54                	.insn	2, 0x5f54
    4100116c:	0030                	.insn	2, 0x0030

000000004100116e <dtest_name_25>:
    4100116e:	5f444953          	.insn	4, 0x5f444953
    41001172:	5845                	.insn	2, 0x5845
    41001174:	5f504543          	.insn	4, 0x5f504543
    41001178:	3430                	.insn	2, 0x3430
    4100117a:	325f 315f 4d5f      	.insn	6, 0x4d5f315f325f
    41001180:	5855                	.insn	2, 0x5855
    41001182:	535f 4c45 4345      	.insn	6, 0x43454c45535f
    41001188:	5f54                	.insn	2, 0x5f54
    4100118a:	0031                	.insn	2, 0x0031

000000004100118c <dtest_index_map>:
    4100118c:	ffff                	.insn	2, 0xffff
    4100118e:	ffff                	.insn	2, 0xffff
    41001190:	0000                	.insn	2, 0x0000
    41001192:	0000                	.insn	2, 0x0000
    41001194:	0001                	.insn	2, 0x0001
    41001196:	0000                	.insn	2, 0x0000
    41001198:	00000017          	auipc	x0,0x0
    4100119c:	0002                	.insn	2, 0x0002
    4100119e:	0000                	.insn	2, 0x0000
    410011a0:	00000013          	nop
    410011a4:	0000000f          	fence	unknown,unknown
    410011a8:	0018                	.insn	2, 0x0018
    410011aa:	0000                	.insn	2, 0x0000
    410011ac:	0011                	.insn	2, 0x0011
    410011ae:	0000                	.insn	2, 0x0000
    410011b0:	0008                	.insn	2, 0x0008
    410011b2:	0000                	.insn	2, 0x0000
    410011b4:	0014                	.insn	2, 0x0014
    410011b6:	0000                	.insn	2, 0x0000
    410011b8:	00000003          	lb	x0,0(x0) # 0 <ALL_4KB_PAGES>
    410011bc:	00000013          	nop
    410011c0:	0004                	.insn	2, 0x0004
    410011c2:	0000                	.insn	2, 0x0000
    410011c4:	0006                	.insn	2, 0x0006
    410011c6:	0000                	.insn	2, 0x0000
    410011c8:	0016                	.insn	2, 0x0016
    410011ca:	0000                	.insn	2, 0x0000
    410011cc:	000a                	.insn	2, 0x000a
    410011ce:	0000                	.insn	2, 0x0000
    410011d0:	0006                	.insn	2, 0x0006
    410011d2:	0000                	.insn	2, 0x0000
    410011d4:	000d                	.insn	2, 0x000d
    410011d6:	0000                	.insn	2, 0x0000
    410011d8:	0015                	.insn	2, 0x0015
    410011da:	0000                	.insn	2, 0x0000
    410011dc:	0019                	.insn	2, 0x0019
    410011de:	0000                	.insn	2, 0x0000
    410011e0:	0005                	.insn	2, 0x0005
    410011e2:	0000                	.insn	2, 0x0000
    410011e4:	000e                	.insn	2, 0x000e
    410011e6:	0000                	.insn	2, 0x0000
    410011e8:	0000000b          	.insn	4, 0x000b
    410011ec:	000c                	.insn	2, 0x000c
    410011ee:	0000                	.insn	2, 0x0000
    410011f0:	000a                	.insn	2, 0x000a
    410011f2:	0000                	.insn	2, 0x0000
    410011f4:	0004                	.insn	2, 0x0004
    410011f6:	0000                	.insn	2, 0x0000
    410011f8:	0011                	.insn	2, 0x0011
    410011fa:	0000                	.insn	2, 0x0000
    410011fc:	0001                	.insn	2, 0x0001
    410011fe:	0000                	.insn	2, 0x0000
    41001200:	0018                	.insn	2, 0x0018
    41001202:	0000                	.insn	2, 0x0000
    41001204:	0011                	.insn	2, 0x0011
    41001206:	0000                	.insn	2, 0x0000
    41001208:	000c                	.insn	2, 0x000c
    4100120a:	0000                	.insn	2, 0x0000
    4100120c:	00000007          	vle8.v	v0,(x0),v0.t
    41001210:	000c                	.insn	2, 0x000c
    41001212:	0000                	.insn	2, 0x0000
    41001214:	0008                	.insn	2, 0x0008
    41001216:	0000                	.insn	2, 0x0000
    41001218:	0009                	.insn	2, 0x0009
    4100121a:	0000                	.insn	2, 0x0000
    4100121c:	000e                	.insn	2, 0x000e
    4100121e:	0000                	.insn	2, 0x0000
    41001220:	0010                	.insn	2, 0x0010
    41001222:	0000                	.insn	2, 0x0000
    41001224:	0018                	.insn	2, 0x0018
    41001226:	0000                	.insn	2, 0x0000
    41001228:	0015                	.insn	2, 0x0015
    4100122a:	0000                	.insn	2, 0x0000
    4100122c:	000d                	.insn	2, 0x000d
    4100122e:	0000                	.insn	2, 0x0000
    41001230:	0014                	.insn	2, 0x0014
    41001232:	0000                	.insn	2, 0x0000
    41001234:	0002                	.insn	2, 0x0002
    41001236:	0000                	.insn	2, 0x0000
    41001238:	000e                	.insn	2, 0x000e
    4100123a:	0000                	.insn	2, 0x0000
    4100123c:	0012                	.insn	2, 0x0012
    4100123e:	0000                	.insn	2, 0x0000
    41001240:	0010                	.insn	2, 0x0010
    41001242:	0000                	.insn	2, 0x0000
    41001244:	0014                	.insn	2, 0x0014
    41001246:	0000                	.insn	2, 0x0000
    41001248:	0004                	.insn	2, 0x0004
    4100124a:	0000                	.insn	2, 0x0000
    4100124c:	0005                	.insn	2, 0x0005
    4100124e:	0000                	.insn	2, 0x0000
    41001250:	0019                	.insn	2, 0x0019
    41001252:	0000                	.insn	2, 0x0000
    41001254:	0000000b          	.insn	4, 0x000b
    41001258:	0019                	.insn	2, 0x0019
    4100125a:	0000                	.insn	2, 0x0000
    4100125c:	0000000b          	.insn	4, 0x000b
    41001260:	00000017          	auipc	x0,0x0
    41001264:	0008                	.insn	2, 0x0008
    41001266:	0000                	.insn	2, 0x0000
    41001268:	0016                	.insn	2, 0x0016
    4100126a:	0000                	.insn	2, 0x0000
    4100126c:	0009                	.insn	2, 0x0009
    4100126e:	0000                	.insn	2, 0x0000
    41001270:	00000007          	vle8.v	v0,(x0),v0.t
    41001274:	0000                	.insn	2, 0x0000
    41001276:	0000                	.insn	2, 0x0000
    41001278:	0016                	.insn	2, 0x0016
    4100127a:	0000                	.insn	2, 0x0000
    4100127c:	0000                	.insn	2, 0x0000
    4100127e:	0000                	.insn	2, 0x0000
    41001280:	00000013          	nop
    41001284:	0005                	.insn	2, 0x0005
    41001286:	0000                	.insn	2, 0x0000
    41001288:	00000017          	auipc	x0,0x0
    4100128c:	0012                	.insn	2, 0x0012
    4100128e:	0000                	.insn	2, 0x0000
    41001290:	0000000f          	fence	unknown,unknown
    41001294:	0015                	.insn	2, 0x0015
    41001296:	0000                	.insn	2, 0x0000
    41001298:	0010                	.insn	2, 0x0010
    4100129a:	0000                	.insn	2, 0x0000
    4100129c:	0012                	.insn	2, 0x0012
    4100129e:	0000                	.insn	2, 0x0000
    410012a0:	0006                	.insn	2, 0x0006
    410012a2:	0000                	.insn	2, 0x0000
    410012a4:	0001                	.insn	2, 0x0001
    410012a6:	0000                	.insn	2, 0x0000
    410012a8:	0009                	.insn	2, 0x0009
    410012aa:	0000                	.insn	2, 0x0000
    410012ac:	000a                	.insn	2, 0x000a
    410012ae:	0000                	.insn	2, 0x0000
    410012b0:	000d                	.insn	2, 0x000d
    410012b2:	0000                	.insn	2, 0x0000
    410012b4:	00000007          	vle8.v	v0,(x0),v0.t
    410012b8:	0000000f          	fence	unknown,unknown
    410012bc:	00000003          	lb	x0,0(x0) # 0 <ALL_4KB_PAGES>
    410012c0:	00000003          	lb	x0,0(x0) # 0 <ALL_4KB_PAGES>
    410012c4:	0002                	.insn	2, 0x0002
    410012c6:	0000                	.insn	2, 0x0000
    410012c8:	0000                	.insn	2, 0x0000
	...

00000000410012cc <scheduler__test_setup_ptr>:
    410012cc:	5120                	.insn	2, 0x5120
    410012ce:	4101                	.insn	2, 0x4101
    410012d0:	0000                	.insn	2, 0x0000
	...

00000000410012d4 <scheduler__test_cleanup_ptr>:
    410012d4:	5aa0                	.insn	2, 0x5aa0
    410012d6:	4101                	.insn	2, 0x4101
    410012d8:	0000                	.insn	2, 0x0000
	...

Disassembly of section .runtime_s:

0000000041011000 <trap_handler_s__invalid_interrupt>:
    41011000:	1740006f          	j	41011174 <trap_handler_s__test_failed>

0000000041011004 <trap_handler_s__clear_all_interrupts>:
    41011004:	14401073          	csrw	sip,x0
    41011008:	10200073          	sret

000000004101100c <trap_handler_s___CLEAR_SSI>:
    4101100c:	00200293          	li	x5,2
    41011010:	1442b073          	csrc	sip,x5
    41011014:	10200073          	sret

0000000041011018 <trap_handler_s___CLEAR_MSI>:
    41011018:	00800293          	li	x5,8
    4101101c:	1442b073          	csrc	sip,x5
    41011020:	10200073          	sret

0000000041011024 <trap_handler_s___CLEAR_STI>:
    41011024:	02000293          	li	x5,32
    41011028:	1442b073          	csrc	sip,x5
    4101102c:	10200073          	sret

0000000041011030 <trap_handler_s___CLEAR_MTI>:
    41011030:	08000293          	li	x5,128
    41011034:	1442b073          	csrc	sip,x5
    41011038:	10200073          	sret

000000004101103c <trap_handler_s___CLEAR_SEI>:
    4101103c:	20000293          	li	x5,512
    41011040:	1442b073          	csrc	sip,x5
    41011044:	10200073          	sret

0000000041011048 <trap_handler_s___CLEAR_MEI>:
    41011048:	000012b7          	lui	x5,0x1
    4101104c:	8002829b          	addiw	x5,x5,-2048 # 800 <XLEN+0x7c0>
    41011050:	1442b073          	csrc	sip,x5
    41011054:	10200073          	sret

0000000041011058 <trap_handler_s___CLEAR_COI>:
    41011058:	000022b7          	lui	x5,0x2
    4101105c:	1442b073          	csrc	sip,x5
    41011060:	10200073          	sret

0000000041011064 <trap_handler_s__clear_highest_priority_interrupt>:
    41011064:	144022f3          	csrr	x5,sip
    41011068:	40500333          	neg	x6,x5
    4101106c:	0062f2b3          	and	x5,x5,x6
    41011070:	1442b073          	csrc	sip,x5
    41011074:	10200073          	sret

0000000041011078 <trap_handler_s__trap_entry>:
    41011078:	10c0006f          	j	41011184 <trap_handler_s__trap_handler>

000000004101107c <trap_handler_s__interrupt_vector_table>:
    4101107c:	f91ff06f          	j	4101100c <trap_handler_s___CLEAR_SSI>
    41011080:	f81ff06f          	j	41011000 <trap_handler_s__invalid_interrupt>
    41011084:	f95ff06f          	j	41011018 <trap_handler_s___CLEAR_MSI>
    41011088:	f79ff06f          	j	41011000 <trap_handler_s__invalid_interrupt>
    4101108c:	f99ff06f          	j	41011024 <trap_handler_s___CLEAR_STI>
    41011090:	f71ff06f          	j	41011000 <trap_handler_s__invalid_interrupt>
    41011094:	f9dff06f          	j	41011030 <trap_handler_s___CLEAR_MTI>
    41011098:	f69ff06f          	j	41011000 <trap_handler_s__invalid_interrupt>
    4101109c:	fa1ff06f          	j	4101103c <trap_handler_s___CLEAR_SEI>
    410110a0:	f61ff06f          	j	41011000 <trap_handler_s__invalid_interrupt>
    410110a4:	fa5ff06f          	j	41011048 <trap_handler_s___CLEAR_MEI>
    410110a8:	f59ff06f          	j	41011000 <trap_handler_s__invalid_interrupt>
    410110ac:	fadff06f          	j	41011058 <trap_handler_s___CLEAR_COI>
    410110b0:	f51ff06f          	j	41011000 <trap_handler_s__invalid_interrupt>
    410110b4:	f4dff06f          	j	41011000 <trap_handler_s__invalid_interrupt>
    410110b8:	fadff06f          	j	41011064 <trap_handler_s__clear_highest_priority_interrupt>
    410110bc:	fa9ff06f          	j	41011064 <trap_handler_s__clear_highest_priority_interrupt>
    410110c0:	fa5ff06f          	j	41011064 <trap_handler_s__clear_highest_priority_interrupt>
    410110c4:	fa1ff06f          	j	41011064 <trap_handler_s__clear_highest_priority_interrupt>
    410110c8:	f9dff06f          	j	41011064 <trap_handler_s__clear_highest_priority_interrupt>
    410110cc:	f99ff06f          	j	41011064 <trap_handler_s__clear_highest_priority_interrupt>
    410110d0:	f95ff06f          	j	41011064 <trap_handler_s__clear_highest_priority_interrupt>
    410110d4:	f91ff06f          	j	41011064 <trap_handler_s__clear_highest_priority_interrupt>
    410110d8:	f8dff06f          	j	41011064 <trap_handler_s__clear_highest_priority_interrupt>
    410110dc:	f89ff06f          	j	41011064 <trap_handler_s__clear_highest_priority_interrupt>
    410110e0:	f85ff06f          	j	41011064 <trap_handler_s__clear_highest_priority_interrupt>
    410110e4:	f81ff06f          	j	41011064 <trap_handler_s__clear_highest_priority_interrupt>
    410110e8:	f7dff06f          	j	41011064 <trap_handler_s__clear_highest_priority_interrupt>
    410110ec:	f79ff06f          	j	41011064 <trap_handler_s__clear_highest_priority_interrupt>
    410110f0:	f75ff06f          	j	41011064 <trap_handler_s__clear_highest_priority_interrupt>
    410110f4:	f71ff06f          	j	41011064 <trap_handler_s__clear_highest_priority_interrupt>
    410110f8:	f6dff06f          	j	41011064 <trap_handler_s__clear_highest_priority_interrupt>
    410110fc:	f69ff06f          	j	41011064 <trap_handler_s__clear_highest_priority_interrupt>
    41011100:	f65ff06f          	j	41011064 <trap_handler_s__clear_highest_priority_interrupt>
    41011104:	f61ff06f          	j	41011064 <trap_handler_s__clear_highest_priority_interrupt>
    41011108:	f5dff06f          	j	41011064 <trap_handler_s__clear_highest_priority_interrupt>
    4101110c:	f59ff06f          	j	41011064 <trap_handler_s__clear_highest_priority_interrupt>
    41011110:	f55ff06f          	j	41011064 <trap_handler_s__clear_highest_priority_interrupt>
    41011114:	f51ff06f          	j	41011064 <trap_handler_s__clear_highest_priority_interrupt>
    41011118:	f4dff06f          	j	41011064 <trap_handler_s__clear_highest_priority_interrupt>
    4101111c:	f49ff06f          	j	41011064 <trap_handler_s__clear_highest_priority_interrupt>
    41011120:	f45ff06f          	j	41011064 <trap_handler_s__clear_highest_priority_interrupt>
    41011124:	f41ff06f          	j	41011064 <trap_handler_s__clear_highest_priority_interrupt>
    41011128:	f3dff06f          	j	41011064 <trap_handler_s__clear_highest_priority_interrupt>
    4101112c:	f39ff06f          	j	41011064 <trap_handler_s__clear_highest_priority_interrupt>
    41011130:	f35ff06f          	j	41011064 <trap_handler_s__clear_highest_priority_interrupt>
    41011134:	f31ff06f          	j	41011064 <trap_handler_s__clear_highest_priority_interrupt>
    41011138:	f2dff06f          	j	41011064 <trap_handler_s__clear_highest_priority_interrupt>
    4101113c:	f29ff06f          	j	41011064 <trap_handler_s__clear_highest_priority_interrupt>
    41011140:	f25ff06f          	j	41011064 <trap_handler_s__clear_highest_priority_interrupt>
    41011144:	f21ff06f          	j	41011064 <trap_handler_s__clear_highest_priority_interrupt>
    41011148:	f1dff06f          	j	41011064 <trap_handler_s__clear_highest_priority_interrupt>
    4101114c:	f19ff06f          	j	41011064 <trap_handler_s__clear_highest_priority_interrupt>
    41011150:	f15ff06f          	j	41011064 <trap_handler_s__clear_highest_priority_interrupt>
    41011154:	f11ff06f          	j	41011064 <trap_handler_s__clear_highest_priority_interrupt>
    41011158:	f0dff06f          	j	41011064 <trap_handler_s__clear_highest_priority_interrupt>
    4101115c:	f09ff06f          	j	41011064 <trap_handler_s__clear_highest_priority_interrupt>
    41011160:	f05ff06f          	j	41011064 <trap_handler_s__clear_highest_priority_interrupt>
    41011164:	f01ff06f          	j	41011064 <trap_handler_s__clear_highest_priority_interrupt>
    41011168:	efdff06f          	j	41011064 <trap_handler_s__clear_highest_priority_interrupt>
    4101116c:	ef9ff06f          	j	41011064 <trap_handler_s__clear_highest_priority_interrupt>
    41011170:	ef5ff06f          	j	41011064 <trap_handler_s__clear_highest_priority_interrupt>

0000000041011174 <trap_handler_s__test_failed>:
    41011174:	00f00f9b          	addiw	x31,x0,15
    41011178:	01cf9f93          	slli	x31,x31,0x1c
    4101117c:	002f8f93          	addi	x31,x31,2
    41011180:	00000073          	ecall

0000000041011184 <trap_handler_s__trap_handler>:
    41011184:	142022f3          	csrr	x5,scause
    41011188:	fff0031b          	addiw	x6,x0,-1
    4101118c:	03f31313          	slli	x6,x6,0x3f
    41011190:	00537333          	and	x6,x6,x5
    41011194:	02030263          	beqz	x6,410111b8 <trap_handler_s__exception_path>

0000000041011198 <trap_handler_s__interrupt_handler>:
    41011198:	fff0031b          	addiw	x6,x0,-1
    4101119c:	03f31313          	slli	x6,x6,0x3f
    410111a0:	0062c2b3          	xor	x5,x5,x6
    410111a4:	00000317          	auipc	x6,0x0
    410111a8:	ed430313          	addi	x6,x6,-300 # 41011078 <trap_handler_s__trap_entry>
    410111ac:	00229293          	slli	x5,x5,0x2
    410111b0:	005302b3          	add	x5,x6,x5
    410111b4:	00028067          	jr	x5 # 2000 <SID_EXCEP_01_NEZ_RS1_NZ_stack>

00000000410111b8 <trap_handler_s__exception_path>:
    410111b8:	14021273          	csrrw	x4,sscratch,x4
    410111bc:	00000297          	auipc	x5,0x0
    410111c0:	0cc28293          	addi	x5,x5,204 # 41011288 <trap_handler_s__trap_panic>
    410111c4:	10529073          	csrw	stvec,x5
    410111c8:	0040006f          	j	410111cc <trap_handler_s__excp_entry>

00000000410111cc <trap_handler_s__excp_entry>:
    410111cc:	14202373          	csrr	x6,scause
    410111d0:	00800293          	li	x5,8
    410111d4:	00534863          	blt	x6,x5,410111e4 <trap_handler_s__check_exception_label>
    410111d8:	00b00293          	li	x5,11
    410111dc:	0062c463          	blt	x5,x6,410111e4 <trap_handler_s__check_exception_label>
    410111e0:	0a80006f          	j	41011288 <trap_handler_s__trap_panic>

00000000410111e4 <trap_handler_s__check_exception_label>:
    410111e4:	04623c23          	sd	x6,88(x4) # 58 <XLEN+0x18>
    410111e8:	141022f3          	csrr	x5,sepc
    410111ec:	02523423          	sd	x5,40(x4) # 28 <SECURE_ACCESS_PROBABILITY+0xa>
    410111f0:	01820283          	lb	x5,24(x4) # 18 <STORE_GUEST_PAGE_FAULT+0x1>
    410111f4:	00029863          	bnez	x5,41011204 <trap_handler_s__check_excp>
    410111f8:	00128293          	addi	x5,x5,1
    410111fc:	00520c23          	sb	x5,24(x4) # 18 <STORE_GUEST_PAGE_FAULT+0x1>
    41011200:	05c0006f          	j	4101125c <trap_handler_s__ecall_from_machine>

0000000041011204 <trap_handler_s__check_excp>:
    41011204:	06823283          	ld	x5,104(x4) # 68 <XLEN+0x28>
    41011208:	06023423          	sd	x0,104(x4) # 68 <XLEN+0x28>
    4101120c:	00028663          	beqz	x5,41011218 <trap_handler_s__skip_mode_check>
    41011210:	00300393          	li	x7,3
    41011214:	f67290e3          	bne	x5,x7,41011174 <trap_handler_s__test_failed>

0000000041011218 <trap_handler_s__skip_mode_check>:
    41011218:	05023283          	ld	x5,80(x4) # 50 <XLEN+0x10>
    4101121c:	04023823          	sd	x0,80(x4) # 50 <XLEN+0x10>
    41011220:	f4531ae3          	bne	x6,x5,41011174 <trap_handler_s__test_failed>
    41011224:	03823283          	ld	x5,56(x4) # 38 <SECURE_ACCESS_PROBABILITY+0x1a>
    41011228:	02023c23          	sd	x0,56(x4) # 38 <SECURE_ACCESS_PROBABILITY+0x1a>
    4101122c:	02029663          	bnez	x5,41011258 <trap_handler_s__skip_nonzero_tval_check>
    41011230:	02023303          	ld	x6,32(x4) # 20 <SECURE_ACCESS_PROBABILITY+0x2>
    41011234:	02023023          	sd	x0,32(x4) # 20 <SECURE_ACCESS_PROBABILITY+0x2>
    41011238:	02823283          	ld	x5,40(x4) # 28 <SECURE_ACCESS_PROBABILITY+0xa>
    4101123c:	02023423          	sd	x0,40(x4) # 28 <SECURE_ACCESS_PROBABILITY+0xa>
    41011240:	f2531ae3          	bne	x6,x5,41011174 <trap_handler_s__test_failed>
    41011244:	04023283          	ld	x5,64(x4) # 40 <XLEN>
    41011248:	04023023          	sd	x0,64(x4) # 40 <XLEN>
    4101124c:	00028663          	beqz	x5,41011258 <trap_handler_s__skip_nonzero_tval_check>

0000000041011250 <trap_handler_s__nonzero_tval_check>:
    41011250:	14302373          	csrr	x6,stval
    41011254:	f25310e3          	bne	x6,x5,41011174 <trap_handler_s__test_failed>

0000000041011258 <trap_handler_s__skip_nonzero_tval_check>:
    41011258:	0040006f          	j	4101125c <trap_handler_s__ecall_from_machine>

000000004101125c <trap_handler_s__ecall_from_machine>:
    4101125c:	03023283          	ld	x5,48(x4) # 30 <SECURE_ACCESS_PROBABILITY+0x12>
    41011260:	02023823          	sd	x0,48(x4) # 30 <SECURE_ACCESS_PROBABILITY+0x12>
    41011264:	07023303          	ld	x6,112(x4) # 70 <XLEN+0x30>
    41011268:	06023823          	sd	x0,112(x4) # 70 <XLEN+0x30>
    4101126c:	00031463          	bnez	x6,41011274 <trap_handler_s__skip_xepc_write>
    41011270:	14129073          	csrw	sepc,x5

0000000041011274 <trap_handler_s__skip_xepc_write>:
    41011274:	00000317          	auipc	x6,0x0
    41011278:	e0430313          	addi	x6,x6,-508 # 41011078 <trap_handler_s__trap_entry>
    4101127c:	10531073          	csrw	stvec,x6
    41011280:	14021273          	csrrw	x4,sscratch,x4
    41011284:	10200073          	sret

0000000041011288 <trap_handler_s__trap_panic>:
    41011288:	00000193          	li	x3,0
    4101128c:	00f00f9b          	addiw	x31,x0,15
    41011290:	01cf9f93          	slli	x31,x31,0x1c
    41011294:	002f8f93          	addi	x31,x31,2
    41011298:	00000073          	ecall

Disassembly of section .code:

00000000410150f0 <passed>:
    410150f0:	00f00f9b          	addiw	x31,x0,15
    410150f4:	01cf9f93          	slli	x31,x31,0x1c
    410150f8:	001f8f93          	addi	x31,x31,1
    410150fc:	00000073          	ecall

0000000041015100 <failed>:
    41015100:	00f00f9b          	addiw	x31,x0,15
    41015104:	01cf9f93          	slli	x31,x31,0x1c
    41015108:	002f8f93          	addi	x31,x31,2
    4101510c:	00000073          	ecall

0000000041015110 <end_test>:
    41015110:	00f00f9b          	addiw	x31,x0,15
    41015114:	01cf9f93          	slli	x31,x31,0x1c
    41015118:	003f8f93          	addi	x31,x31,3
    4101511c:	00000073          	ecall

0000000041015120 <test_setup>:
    41015120:	00f00f9b          	addiw	x31,x0,15
    41015124:	01cf9f93          	slli	x31,x31,0x1c
    41015128:	001f8f93          	addi	x31,x31,1
    4101512c:	00000073          	ecall

0000000041015130 <SID_EXCEP_01_EQZ_RS1_NZ>:
    41015130:	00673137          	lui	x2,0x673
    41015134:	000012b7          	lui	x5,0x1
    41015138:	00510133          	add	x2,x2,x5
    4101513c:	ff017113          	andi	x2,x2,-16
    41015140:	00000393          	li	x7,0
    41015144:	00c104b7          	lui	x9,0xc10
    41015148:	fee4849b          	addiw	x9,x9,-18 # c0ffee <SID_EXCEP_01_EQZ_RS1_NZ_stack+0x59cfee>
    4101514c:	0e74d533          	czero.eqz	x10,x9,x7
    41015150:	00000a13          	li	x20,0
    41015154:	01450e63          	beq	x10,x20,41015170 <SID_EXCEP_01_EQZ_RS1_NZ_passed>
    41015158:	002e8737          	lui	x14,0x2e8
    4101515c:	22b7071b          	addiw	x14,x14,555 # 2e822b <SID_EXCEP_04_EQZ_PASSING_AND_stack+0x9b22b>
    41015160:	00e71713          	slli	x14,x14,0xe
    41015164:	00870713          	addi	x14,x14,8
    41015168:	00073503          	ld	x10,0(x14)
    4101516c:	00050067          	jr	x10

0000000041015170 <SID_EXCEP_01_EQZ_RS1_NZ_passed>:
    41015170:	00f00f9b          	addiw	x31,x0,15
    41015174:	01cf9f93          	slli	x31,x31,0x1c
    41015178:	001f8f93          	addi	x31,x31,1
    4101517c:	00000073          	ecall

0000000041015180 <SID_EXCEP_01_EQZ_RS1_Z>:
    41015180:	0a76f137          	lui	x2,0xa76f
    41015184:	2451011b          	addiw	x2,x2,581 # a76f245 <SID_EXCEP_04_NEZ_PASSING_XOR_stack+0x2873245>
    41015188:	00e11113          	slli	x2,x2,0xe
    4101518c:	29f10113          	addi	x2,x2,671
    41015190:	00e11113          	slli	x2,x2,0xe
    41015194:	000012b7          	lui	x5,0x1
    41015198:	00510133          	add	x2,x2,x5
    4101519c:	ff017113          	andi	x2,x2,-16
    410151a0:	00000f93          	li	x31,0
    410151a4:	00000d93          	li	x27,0
    410151a8:	0ffdd7b3          	czero.eqz	x15,x27,x31
    410151ac:	00000713          	li	x14,0
    410151b0:	00e78e63          	beq	x15,x14,410151cc <SID_EXCEP_01_EQZ_RS1_Z_passed>
    410151b4:	002e8e37          	lui	x28,0x2e8
    410151b8:	22be0e1b          	addiw	x28,x28,555 # 2e822b <SID_EXCEP_04_EQZ_PASSING_AND_stack+0x9b22b>
    410151bc:	00ee1e13          	slli	x28,x28,0xe
    410151c0:	008e0e13          	addi	x28,x28,8
    410151c4:	000e3603          	ld	x12,0(x28)
    410151c8:	00060067          	jr	x12

00000000410151cc <SID_EXCEP_01_EQZ_RS1_Z_passed>:
    410151cc:	00f00f9b          	addiw	x31,x0,15
    410151d0:	01cf9f93          	slli	x31,x31,0x1c
    410151d4:	001f8f93          	addi	x31,x31,1
    410151d8:	00000073          	ecall

00000000410151dc <SID_EXCEP_01_NEZ_RS1_NZ>:
    410151dc:	00002137          	lui	x2,0x2
    410151e0:	000012b7          	lui	x5,0x1
    410151e4:	00510133          	add	x2,x2,x5
    410151e8:	ff017113          	andi	x2,x2,-16
    410151ec:	00038cb7          	lui	x25,0x38
    410151f0:	ab7c8c9b          	addiw	x25,x25,-1353 # 37ab7 <SID_EXCEP_02_NEZ_RS1_NZ_stack+0x7ab7>
    410151f4:	00ec9c93          	slli	x25,x25,0xe
    410151f8:	eefc8c93          	addi	x25,x25,-273
    410151fc:	00c103b7          	lui	x7,0xc10
    41015200:	fee3839b          	addiw	x7,x7,-18 # c0ffee <SID_EXCEP_01_EQZ_RS1_NZ_stack+0x59cfee>
    41015204:	0f93fd33          	czero.nez	x26,x7,x25
    41015208:	00000f13          	li	x30,0
    4101520c:	01ed0e63          	beq	x26,x30,41015228 <SID_EXCEP_01_NEZ_RS1_NZ_passed>
    41015210:	002e8637          	lui	x12,0x2e8
    41015214:	22b6061b          	addiw	x12,x12,555 # 2e822b <SID_EXCEP_04_EQZ_PASSING_AND_stack+0x9b22b>
    41015218:	00e61613          	slli	x12,x12,0xe
    4101521c:	00860613          	addi	x12,x12,8
    41015220:	00063a83          	ld	x21,0(x12)
    41015224:	000a8067          	jr	x21

0000000041015228 <SID_EXCEP_01_NEZ_RS1_NZ_passed>:
    41015228:	00f00f9b          	addiw	x31,x0,15
    4101522c:	01cf9f93          	slli	x31,x31,0x1c
    41015230:	001f8f93          	addi	x31,x31,1
    41015234:	00000073          	ecall

0000000041015238 <SID_EXCEP_01_NEZ_RS1_Z>:
    41015238:	0fd94137          	lui	x2,0xfd94
    4101523c:	000012b7          	lui	x5,0x1
    41015240:	00510133          	add	x2,x2,x5
    41015244:	ff017113          	andi	x2,x2,-16
    41015248:	00038d37          	lui	x26,0x38
    4101524c:	ab7d0d1b          	addiw	x26,x26,-1353 # 37ab7 <SID_EXCEP_02_NEZ_RS1_NZ_stack+0x7ab7>
    41015250:	00ed1d13          	slli	x26,x26,0xe
    41015254:	eefd0d13          	addi	x26,x26,-273
    41015258:	00000913          	li	x18,0
    4101525c:	0fa97933          	czero.nez	x18,x18,x26
    41015260:	00000f93          	li	x31,0
    41015264:	01f90e63          	beq	x18,x31,41015280 <SID_EXCEP_01_NEZ_RS1_Z_passed>
    41015268:	002e8bb7          	lui	x23,0x2e8
    4101526c:	22bb8b9b          	addiw	x23,x23,555 # 2e822b <SID_EXCEP_04_EQZ_PASSING_AND_stack+0x9b22b>
    41015270:	00eb9b93          	slli	x23,x23,0xe
    41015274:	008b8b93          	addi	x23,x23,8
    41015278:	000bb883          	ld	x17,0(x23)
    4101527c:	00088067          	jr	x17

0000000041015280 <SID_EXCEP_01_NEZ_RS1_Z_passed>:
    41015280:	00f00f9b          	addiw	x31,x0,15
    41015284:	01cf9f93          	slli	x31,x31,0x1c
    41015288:	001f8f93          	addi	x31,x31,1
    4101528c:	00000073          	ecall

0000000041015290 <SID_EXCEP_02_EQZ_RS1_NZ>:
    41015290:	0044d137          	lui	x2,0x44d
    41015294:	000012b7          	lui	x5,0x1
    41015298:	00510133          	add	x2,x2,x5
    4101529c:	ff017113          	andi	x2,x2,-16
    410152a0:	00038bb7          	lui	x23,0x38
    410152a4:	ab7b8b9b          	addiw	x23,x23,-1353 # 37ab7 <SID_EXCEP_02_NEZ_RS1_NZ_stack+0x7ab7>
    410152a8:	00eb9b93          	slli	x23,x23,0xe
    410152ac:	eefb8b93          	addi	x23,x23,-273
    410152b0:	00c10a37          	lui	x20,0xc10
    410152b4:	feea0a1b          	addiw	x20,x20,-18 # c0ffee <SID_EXCEP_01_EQZ_RS1_NZ_stack+0x59cfee>
    410152b8:	0f7a5c33          	czero.eqz	x24,x20,x23
    410152bc:	00c10737          	lui	x14,0xc10
    410152c0:	fee7071b          	addiw	x14,x14,-18 # c0ffee <SID_EXCEP_01_EQZ_RS1_NZ_stack+0x59cfee>
    410152c4:	00ec0e63          	beq	x24,x14,410152e0 <SID_EXCEP_02_EQZ_RS1_NZ_passed>
    410152c8:	002e83b7          	lui	x7,0x2e8
    410152cc:	22b3839b          	addiw	x7,x7,555 # 2e822b <SID_EXCEP_04_EQZ_PASSING_AND_stack+0x9b22b>
    410152d0:	00e39393          	slli	x7,x7,0xe
    410152d4:	00838393          	addi	x7,x7,8
    410152d8:	0003b303          	ld	x6,0(x7)
    410152dc:	00030067          	jr	x6

00000000410152e0 <SID_EXCEP_02_EQZ_RS1_NZ_passed>:
    410152e0:	00f00f9b          	addiw	x31,x0,15
    410152e4:	01cf9f93          	slli	x31,x31,0x1c
    410152e8:	001f8f93          	addi	x31,x31,1
    410152ec:	00000073          	ecall

00000000410152f0 <SID_EXCEP_02_EQZ_RS1_Z>:
    410152f0:	008c3137          	lui	x2,0x8c3
    410152f4:	72f1011b          	addiw	x2,x2,1839 # 8c372f <SID_EXCEP_01_EQZ_RS1_NZ_stack+0x25072f>
    410152f8:	01111113          	slli	x2,x2,0x11
    410152fc:	ef710113          	addi	x2,x2,-265
    41015300:	00f11113          	slli	x2,x2,0xf
    41015304:	000012b7          	lui	x5,0x1
    41015308:	00510133          	add	x2,x2,x5
    4101530c:	ff017113          	andi	x2,x2,-16
    41015310:	000388b7          	lui	x17,0x38
    41015314:	ab78889b          	addiw	x17,x17,-1353 # 37ab7 <SID_EXCEP_02_NEZ_RS1_NZ_stack+0x7ab7>
    41015318:	00e89893          	slli	x17,x17,0xe
    4101531c:	eef88893          	addi	x17,x17,-273
    41015320:	00000a93          	li	x21,0
    41015324:	0f1ad833          	czero.eqz	x16,x21,x17
    41015328:	00000a13          	li	x20,0
    4101532c:	01480e63          	beq	x16,x20,41015348 <SID_EXCEP_02_EQZ_RS1_Z_passed>
    41015330:	002e8bb7          	lui	x23,0x2e8
    41015334:	22bb8b9b          	addiw	x23,x23,555 # 2e822b <SID_EXCEP_04_EQZ_PASSING_AND_stack+0x9b22b>
    41015338:	00eb9b93          	slli	x23,x23,0xe
    4101533c:	008b8b93          	addi	x23,x23,8
    41015340:	000bbd83          	ld	x27,0(x23)
    41015344:	000d8067          	jr	x27

0000000041015348 <SID_EXCEP_02_EQZ_RS1_Z_passed>:
    41015348:	00f00f9b          	addiw	x31,x0,15
    4101534c:	01cf9f93          	slli	x31,x31,0x1c
    41015350:	001f8f93          	addi	x31,x31,1
    41015354:	00000073          	ecall

0000000041015358 <SID_EXCEP_02_NEZ_RS1_Z>:
    41015358:	10c4d137          	lui	x2,0x10c4d
    4101535c:	0131011b          	addiw	x2,x2,19 # 10c4d013 <SID_EXCEP_01_NEZ_RS1_Z_stack+0xeb9013>
    41015360:	00e11113          	slli	x2,x2,0xe
    41015364:	000012b7          	lui	x5,0x1
    41015368:	00510133          	add	x2,x2,x5
    4101536c:	ff017113          	andi	x2,x2,-16
    41015370:	00000593          	li	x11,0
    41015374:	00c10c37          	lui	x24,0xc10
    41015378:	feec0c1b          	addiw	x24,x24,-18 # c0ffee <SID_EXCEP_01_EQZ_RS1_NZ_stack+0x59cfee>
    4101537c:	0ebc7633          	czero.nez	x12,x24,x11
    41015380:	00c107b7          	lui	x15,0xc10
    41015384:	fee7879b          	addiw	x15,x15,-18 # c0ffee <SID_EXCEP_01_EQZ_RS1_NZ_stack+0x59cfee>
    41015388:	00f60e63          	beq	x12,x15,410153a4 <SID_EXCEP_02_NEZ_RS1_Z_passed>
    4101538c:	002e8837          	lui	x16,0x2e8
    41015390:	22b8081b          	addiw	x16,x16,555 # 2e822b <SID_EXCEP_04_EQZ_PASSING_AND_stack+0x9b22b>
    41015394:	00e81813          	slli	x16,x16,0xe
    41015398:	00880813          	addi	x16,x16,8
    4101539c:	00083303          	ld	x6,0(x16)
    410153a0:	00030067          	jr	x6

00000000410153a4 <SID_EXCEP_02_NEZ_RS1_Z_passed>:
    410153a4:	00f00f9b          	addiw	x31,x0,15
    410153a8:	01cf9f93          	slli	x31,x31,0x1c
    410153ac:	001f8f93          	addi	x31,x31,1
    410153b0:	00000073          	ecall

00000000410153b4 <SID_EXCEP_02_NEZ_RS1_NZ>:
    410153b4:	00030137          	lui	x2,0x30
    410153b8:	000012b7          	lui	x5,0x1
    410153bc:	00510133          	add	x2,x2,x5
    410153c0:	ff017113          	andi	x2,x2,-16
    410153c4:	00000593          	li	x11,0
    410153c8:	00000893          	li	x17,0
    410153cc:	0eb8f633          	czero.nez	x12,x17,x11
    410153d0:	00000513          	li	x10,0
    410153d4:	00a60e63          	beq	x12,x10,410153f0 <SID_EXCEP_02_NEZ_RS1_NZ_passed>
    410153d8:	002e8d37          	lui	x26,0x2e8
    410153dc:	22bd0d1b          	addiw	x26,x26,555 # 2e822b <SID_EXCEP_04_EQZ_PASSING_AND_stack+0x9b22b>
    410153e0:	00ed1d13          	slli	x26,x26,0xe
    410153e4:	008d0d13          	addi	x26,x26,8
    410153e8:	000d3d83          	ld	x27,0(x26)
    410153ec:	000d8067          	jr	x27

00000000410153f0 <SID_EXCEP_02_NEZ_RS1_NZ_passed>:
    410153f0:	00f00f9b          	addiw	x31,x0,15
    410153f4:	01cf9f93          	slli	x31,x31,0x1c
    410153f8:	001f8f93          	addi	x31,x31,1
    410153fc:	00000073          	ecall

0000000041015400 <SID_EXCEP_04_EQZ_PASSING_ADD>:
    41015400:	00058137          	lui	x2,0x58
    41015404:	000012b7          	lui	x5,0x1
    41015408:	00510133          	add	x2,x2,x5
    4101540c:	ff017113          	andi	x2,x2,-16
    41015410:	00a00893          	li	x17,10
    41015414:	00300b93          	li	x23,3
    41015418:	00000e93          	li	x29,0
    4101541c:	01788cb3          	add	x25,x17,x23
    41015420:	0fdcd5b3          	czero.eqz	x11,x25,x29
    41015424:	00000b13          	li	x22,0
    41015428:	01658e63          	beq	x11,x22,41015444 <SID_EXCEP_04_EQZ_PASSING_ADD_passed>
    4101542c:	002e8b37          	lui	x22,0x2e8
    41015430:	22bb0b1b          	addiw	x22,x22,555 # 2e822b <SID_EXCEP_04_EQZ_PASSING_AND_stack+0x9b22b>
    41015434:	00eb1b13          	slli	x22,x22,0xe
    41015438:	008b0b13          	addi	x22,x22,8
    4101543c:	000b3a83          	ld	x21,0(x22)
    41015440:	000a8067          	jr	x21

0000000041015444 <SID_EXCEP_04_EQZ_PASSING_ADD_passed>:
    41015444:	00f00f9b          	addiw	x31,x0,15
    41015448:	01cf9f93          	slli	x31,x31,0x1c
    4101544c:	001f8f93          	addi	x31,x31,1
    41015450:	00000073          	ecall

0000000041015454 <SID_EXCEP_04_EQZ_FAILING_ADD>:
    41015454:	03a10137          	lui	x2,0x3a10
    41015458:	2e31011b          	addiw	x2,x2,739 # 3a102e3 <SID_EXCEP_01_EQZ_RS1_NZ_stack+0x339d2e3>
    4101545c:	00c11113          	slli	x2,x2,0xc
    41015460:	000012b7          	lui	x5,0x1
    41015464:	00510133          	add	x2,x2,x5
    41015468:	ff017113          	andi	x2,x2,-16
    4101546c:	00a00e93          	li	x29,10
    41015470:	00300b13          	li	x22,3
    41015474:	00100893          	li	x17,1
    41015478:	016e8d33          	add	x26,x29,x22
    4101547c:	0f1d5933          	czero.eqz	x18,x26,x17
    41015480:	00d00993          	li	x19,13
    41015484:	01390e63          	beq	x18,x19,410154a0 <SID_EXCEP_04_EQZ_FAILING_ADD_passed>
    41015488:	002e8c37          	lui	x24,0x2e8
    4101548c:	22bc0c1b          	addiw	x24,x24,555 # 2e822b <SID_EXCEP_04_EQZ_PASSING_AND_stack+0x9b22b>
    41015490:	00ec1c13          	slli	x24,x24,0xe
    41015494:	008c0c13          	addi	x24,x24,8
    41015498:	000c3583          	ld	x11,0(x24)
    4101549c:	00058067          	jr	x11

00000000410154a0 <SID_EXCEP_04_EQZ_FAILING_ADD_passed>:
    410154a0:	00f00f9b          	addiw	x31,x0,15
    410154a4:	01cf9f93          	slli	x31,x31,0x1c
    410154a8:	001f8f93          	addi	x31,x31,1
    410154ac:	00000073          	ecall

00000000410154b0 <SID_EXCEP_04_NEZ_PASSING_SUB>:
    410154b0:	26f4b137          	lui	x2,0x26f4b
    410154b4:	27d1011b          	addiw	x2,x2,637 # 26f4b27d <hart_stack_0_end+0x305627d>
    410154b8:	00d11113          	slli	x2,x2,0xd
    410154bc:	000012b7          	lui	x5,0x1
    410154c0:	00510133          	add	x2,x2,x5
    410154c4:	ff017113          	andi	x2,x2,-16
    410154c8:	00a00f13          	li	x30,10
    410154cc:	00300913          	li	x18,3
    410154d0:	00100e93          	li	x29,1
    410154d4:	412f0f33          	sub	x30,x30,x18
    410154d8:	0fdf7ab3          	czero.nez	x21,x30,x29
    410154dc:	00000e13          	li	x28,0
    410154e0:	01ca8e63          	beq	x21,x28,410154fc <SID_EXCEP_04_NEZ_PASSING_SUB_passed>
    410154e4:	002e8c37          	lui	x24,0x2e8
    410154e8:	22bc0c1b          	addiw	x24,x24,555 # 2e822b <SID_EXCEP_04_EQZ_PASSING_AND_stack+0x9b22b>
    410154ec:	00ec1c13          	slli	x24,x24,0xe
    410154f0:	008c0c13          	addi	x24,x24,8
    410154f4:	000c3683          	ld	x13,0(x24)
    410154f8:	00068067          	jr	x13

00000000410154fc <SID_EXCEP_04_NEZ_PASSING_SUB_passed>:
    410154fc:	00f00f9b          	addiw	x31,x0,15
    41015500:	01cf9f93          	slli	x31,x31,0x1c
    41015504:	001f8f93          	addi	x31,x31,1
    41015508:	00000073          	ecall

000000004101550c <SID_EXCEP_04_NEZ_FAILING_SUB>:
    4101550c:	0012c137          	lui	x2,0x12c
    41015510:	beb1011b          	addiw	x2,x2,-1045 # 12bbeb <SID_EXCEP_04_EQZ_PASSING_ADD_stack+0xd3beb>
    41015514:	00c11113          	slli	x2,x2,0xc
    41015518:	51710113          	addi	x2,x2,1303
    4101551c:	01311113          	slli	x2,x2,0x13
    41015520:	000012b7          	lui	x5,0x1
    41015524:	00510133          	add	x2,x2,x5
    41015528:	ff017113          	andi	x2,x2,-16
    4101552c:	00a00a93          	li	x21,10
    41015530:	00300713          	li	x14,3
    41015534:	00000b93          	li	x23,0
    41015538:	40ea8cb3          	sub	x25,x21,x14
    4101553c:	0f7cfd33          	czero.nez	x26,x25,x23
    41015540:	00700913          	li	x18,7
    41015544:	012d0e63          	beq	x26,x18,41015560 <SID_EXCEP_04_NEZ_FAILING_SUB_passed>
    41015548:	002e8737          	lui	x14,0x2e8
    4101554c:	22b7071b          	addiw	x14,x14,555 # 2e822b <SID_EXCEP_04_EQZ_PASSING_AND_stack+0x9b22b>
    41015550:	00e71713          	slli	x14,x14,0xe
    41015554:	00870713          	addi	x14,x14,8
    41015558:	00073c03          	ld	x24,0(x14)
    4101555c:	000c0067          	jr	x24

0000000041015560 <SID_EXCEP_04_NEZ_FAILING_SUB_passed>:
    41015560:	00f00f9b          	addiw	x31,x0,15
    41015564:	01cf9f93          	slli	x31,x31,0x1c
    41015568:	001f8f93          	addi	x31,x31,1
    4101556c:	00000073          	ecall

0000000041015570 <SID_EXCEP_04_EQZ_PASSING_SUB>:
    41015570:	01882137          	lui	x2,0x1882
    41015574:	e051011b          	addiw	x2,x2,-507 # 1881e05 <SID_EXCEP_01_EQZ_RS1_NZ_stack+0x120ee05>
    41015578:	00c11113          	slli	x2,x2,0xc
    4101557c:	000012b7          	lui	x5,0x1
    41015580:	00510133          	add	x2,x2,x5
    41015584:	ff017113          	andi	x2,x2,-16
    41015588:	00a00a13          	li	x20,10
    4101558c:	00300893          	li	x17,3
    41015590:	00000d13          	li	x26,0
    41015594:	411a0a33          	sub	x20,x20,x17
    41015598:	0faa5cb3          	czero.eqz	x25,x20,x26
    4101559c:	00000d13          	li	x26,0
    410155a0:	01ac8e63          	beq	x25,x26,410155bc <SID_EXCEP_04_EQZ_PASSING_SUB_passed>
    410155a4:	002e8b37          	lui	x22,0x2e8
    410155a8:	22bb0b1b          	addiw	x22,x22,555 # 2e822b <SID_EXCEP_04_EQZ_PASSING_AND_stack+0x9b22b>
    410155ac:	00eb1b13          	slli	x22,x22,0xe
    410155b0:	008b0b13          	addi	x22,x22,8
    410155b4:	000b3c03          	ld	x24,0(x22)
    410155b8:	000c0067          	jr	x24

00000000410155bc <SID_EXCEP_04_EQZ_PASSING_SUB_passed>:
    410155bc:	00f00f9b          	addiw	x31,x0,15
    410155c0:	01cf9f93          	slli	x31,x31,0x1c
    410155c4:	001f8f93          	addi	x31,x31,1
    410155c8:	00000073          	ecall

00000000410155cc <SID_EXCEP_04_EQZ_FAILING_SUB>:
    410155cc:	00115137          	lui	x2,0x115
    410155d0:	6811011b          	addiw	x2,x2,1665 # 115681 <SID_EXCEP_04_EQZ_PASSING_ADD_stack+0xbd681>
    410155d4:	00c11113          	slli	x2,x2,0xc
    410155d8:	70f10113          	addi	x2,x2,1807
    410155dc:	00d11113          	slli	x2,x2,0xd
    410155e0:	000012b7          	lui	x5,0x1
    410155e4:	00510133          	add	x2,x2,x5
    410155e8:	ff017113          	andi	x2,x2,-16
    410155ec:	00a00d93          	li	x27,10
    410155f0:	00300693          	li	x13,3
    410155f4:	00100893          	li	x17,1
    410155f8:	40dd8fb3          	sub	x31,x27,x13
    410155fc:	0f1fd5b3          	czero.eqz	x11,x31,x17
    41015600:	00700e93          	li	x29,7
    41015604:	01d58e63          	beq	x11,x29,41015620 <SID_EXCEP_04_EQZ_FAILING_SUB_passed>
    41015608:	002e8837          	lui	x16,0x2e8
    4101560c:	22b8081b          	addiw	x16,x16,555 # 2e822b <SID_EXCEP_04_EQZ_PASSING_AND_stack+0x9b22b>
    41015610:	00e81813          	slli	x16,x16,0xe
    41015614:	00880813          	addi	x16,x16,8
    41015618:	00083e83          	ld	x29,0(x16)
    4101561c:	000e8067          	jr	x29

0000000041015620 <SID_EXCEP_04_EQZ_FAILING_SUB_passed>:
    41015620:	00f00f9b          	addiw	x31,x0,15
    41015624:	01cf9f93          	slli	x31,x31,0x1c
    41015628:	001f8f93          	addi	x31,x31,1
    4101562c:	00000073          	ecall

0000000041015630 <SID_EXCEP_04_NEZ_PASSING_ADD>:
    41015630:	29315137          	lui	x2,0x29315
    41015634:	99b1011b          	addiw	x2,x2,-1637 # 2931499b <hart_stack_0_end+0x541f99b>
    41015638:	00c11113          	slli	x2,x2,0xc
    4101563c:	76910113          	addi	x2,x2,1897
    41015640:	00d11113          	slli	x2,x2,0xd
    41015644:	000012b7          	lui	x5,0x1
    41015648:	00510133          	add	x2,x2,x5
    4101564c:	ff017113          	andi	x2,x2,-16
    41015650:	00a00a93          	li	x21,10
    41015654:	00300793          	li	x15,3
    41015658:	00100813          	li	x16,1
    4101565c:	00fa8fb3          	add	x31,x21,x15
    41015660:	0f0ffcb3          	czero.nez	x25,x31,x16
    41015664:	00000d93          	li	x27,0
    41015668:	01bc8e63          	beq	x25,x27,41015684 <SID_EXCEP_04_NEZ_PASSING_ADD_passed>
    4101566c:	002e8d37          	lui	x26,0x2e8
    41015670:	22bd0d1b          	addiw	x26,x26,555 # 2e822b <SID_EXCEP_04_EQZ_PASSING_AND_stack+0x9b22b>
    41015674:	00ed1d13          	slli	x26,x26,0xe
    41015678:	008d0d13          	addi	x26,x26,8
    4101567c:	000d3e03          	ld	x28,0(x26)
    41015680:	000e0067          	jr	x28

0000000041015684 <SID_EXCEP_04_NEZ_PASSING_ADD_passed>:
    41015684:	00f00f9b          	addiw	x31,x0,15
    41015688:	01cf9f93          	slli	x31,x31,0x1c
    4101568c:	001f8f93          	addi	x31,x31,1
    41015690:	00000073          	ecall

0000000041015694 <SID_EXCEP_04_NEZ_FAILING_ADD>:
    41015694:	00023137          	lui	x2,0x23
    41015698:	83b1011b          	addiw	x2,x2,-1989 # 2283b <SID_EXCEP_04_2_1_MUX_SELECT_0_stack+0x1a83b>
    4101569c:	00e11113          	slli	x2,x2,0xe
    410156a0:	8f910113          	addi	x2,x2,-1799
    410156a4:	00c11113          	slli	x2,x2,0xc
    410156a8:	77d10113          	addi	x2,x2,1917
    410156ac:	00c11113          	slli	x2,x2,0xc
    410156b0:	000012b7          	lui	x5,0x1
    410156b4:	00510133          	add	x2,x2,x5
    410156b8:	ff017113          	andi	x2,x2,-16
    410156bc:	00a00d13          	li	x26,10
    410156c0:	00300c93          	li	x25,3
    410156c4:	00000c13          	li	x24,0
    410156c8:	019d09b3          	add	x19,x26,x25
    410156cc:	0f89f7b3          	czero.nez	x15,x19,x24
    410156d0:	00d00c13          	li	x24,13
    410156d4:	01878e63          	beq	x15,x24,410156f0 <SID_EXCEP_04_NEZ_FAILING_ADD_passed>
    410156d8:	002e8637          	lui	x12,0x2e8
    410156dc:	22b6061b          	addiw	x12,x12,555 # 2e822b <SID_EXCEP_04_EQZ_PASSING_AND_stack+0x9b22b>
    410156e0:	00e61613          	slli	x12,x12,0xe
    410156e4:	00860613          	addi	x12,x12,8
    410156e8:	00063d83          	ld	x27,0(x12)
    410156ec:	000d8067          	jr	x27

00000000410156f0 <SID_EXCEP_04_NEZ_FAILING_ADD_passed>:
    410156f0:	00f00f9b          	addiw	x31,x0,15
    410156f4:	01cf9f93          	slli	x31,x31,0x1c
    410156f8:	001f8f93          	addi	x31,x31,1
    410156fc:	00000073          	ecall

0000000041015700 <SID_EXCEP_04_EQZ_PASSING_AND>:
    41015700:	0024d137          	lui	x2,0x24d
    41015704:	000012b7          	lui	x5,0x1
    41015708:	00510133          	add	x2,x2,x5
    4101570c:	ff017113          	andi	x2,x2,-16
    41015710:	0f000b13          	li	x22,240
    41015714:	0aa00893          	li	x17,170
    41015718:	00000e93          	li	x29,0
    4101571c:	011b7db3          	and	x27,x22,x17
    41015720:	0fddd433          	czero.eqz	x8,x27,x29
    41015724:	00000913          	li	x18,0
    41015728:	01240e63          	beq	x8,x18,41015744 <SID_EXCEP_04_EQZ_PASSING_AND_passed>
    4101572c:	002e8db7          	lui	x27,0x2e8
    41015730:	22bd8d9b          	addiw	x27,x27,555 # 2e822b <SID_EXCEP_04_EQZ_PASSING_AND_stack+0x9b22b>
    41015734:	00ed9d93          	slli	x27,x27,0xe
    41015738:	008d8d93          	addi	x27,x27,8
    4101573c:	000db303          	ld	x6,0(x27)
    41015740:	00030067          	jr	x6

0000000041015744 <SID_EXCEP_04_EQZ_PASSING_AND_passed>:
    41015744:	00f00f9b          	addiw	x31,x0,15
    41015748:	01cf9f93          	slli	x31,x31,0x1c
    4101574c:	001f8f93          	addi	x31,x31,1
    41015750:	00000073          	ecall

0000000041015754 <SID_EXCEP_04_EQZ_FAILING_AND>:
    41015754:	0424a137          	lui	x2,0x424a
    41015758:	25d1011b          	addiw	x2,x2,605 # 424a25d <pma_region_2_size+0x24a25d>
    4101575c:	00c11113          	slli	x2,x2,0xc
    41015760:	000012b7          	lui	x5,0x1
    41015764:	00510133          	add	x2,x2,x5
    41015768:	ff017113          	andi	x2,x2,-16
    4101576c:	0f000613          	li	x12,240
    41015770:	0aa00f13          	li	x30,170
    41015774:	00100493          	li	x9,1
    41015778:	01e673b3          	and	x7,x12,x30
    4101577c:	0e93ddb3          	czero.eqz	x27,x7,x9
    41015780:	0a000f93          	li	x31,160
    41015784:	01fd8e63          	beq	x27,x31,410157a0 <SID_EXCEP_04_EQZ_FAILING_AND_passed>
    41015788:	002e8437          	lui	x8,0x2e8
    4101578c:	22b4041b          	addiw	x8,x8,555 # 2e822b <SID_EXCEP_04_EQZ_PASSING_AND_stack+0x9b22b>
    41015790:	00e41413          	slli	x8,x8,0xe
    41015794:	00840413          	addi	x8,x8,8
    41015798:	00043903          	ld	x18,0(x8)
    4101579c:	00090067          	jr	x18

00000000410157a0 <SID_EXCEP_04_EQZ_FAILING_AND_passed>:
    410157a0:	00f00f9b          	addiw	x31,x0,15
    410157a4:	01cf9f93          	slli	x31,x31,0x1c
    410157a8:	001f8f93          	addi	x31,x31,1
    410157ac:	00000073          	ecall

00000000410157b0 <SID_EXCEP_04_EQZ_PASSING_XOR>:
    410157b0:	01344137          	lui	x2,0x1344
    410157b4:	3791011b          	addiw	x2,x2,889 # 1344379 <SID_EXCEP_01_EQZ_RS1_NZ_stack+0xcd1379>
    410157b8:	00c11113          	slli	x2,x2,0xc
    410157bc:	000012b7          	lui	x5,0x1
    410157c0:	00510133          	add	x2,x2,x5
    410157c4:	ff017113          	andi	x2,x2,-16
    410157c8:	0f000c13          	li	x24,240
    410157cc:	0aa00693          	li	x13,170
    410157d0:	00000e93          	li	x29,0
    410157d4:	00dc44b3          	xor	x9,x24,x13
    410157d8:	0fd4deb3          	czero.eqz	x29,x9,x29
    410157dc:	00000c93          	li	x25,0
    410157e0:	019e8e63          	beq	x29,x25,410157fc <SID_EXCEP_04_EQZ_PASSING_XOR_passed>
    410157e4:	002e85b7          	lui	x11,0x2e8
    410157e8:	22b5859b          	addiw	x11,x11,555 # 2e822b <SID_EXCEP_04_EQZ_PASSING_AND_stack+0x9b22b>
    410157ec:	00e59593          	slli	x11,x11,0xe
    410157f0:	00858593          	addi	x11,x11,8
    410157f4:	0005b883          	ld	x17,0(x11)
    410157f8:	00088067          	jr	x17

00000000410157fc <SID_EXCEP_04_EQZ_PASSING_XOR_passed>:
    410157fc:	00f00f9b          	addiw	x31,x0,15
    41015800:	01cf9f93          	slli	x31,x31,0x1c
    41015804:	001f8f93          	addi	x31,x31,1
    41015808:	00000073          	ecall

000000004101580c <SID_EXCEP_04_EQZ_FAILING_XOR>:
    4101580c:	00023137          	lui	x2,0x23
    41015810:	000012b7          	lui	x5,0x1
    41015814:	00510133          	add	x2,x2,x5
    41015818:	ff017113          	andi	x2,x2,-16
    4101581c:	0f000693          	li	x13,240
    41015820:	0aa00613          	li	x12,170
    41015824:	00100393          	li	x7,1
    41015828:	00c6cb33          	xor	x22,x13,x12
    4101582c:	0e7b56b3          	czero.eqz	x13,x22,x7
    41015830:	05a00b13          	li	x22,90
    41015834:	01668e63          	beq	x13,x22,41015850 <SID_EXCEP_04_EQZ_FAILING_XOR_passed>
    41015838:	002e8437          	lui	x8,0x2e8
    4101583c:	22b4041b          	addiw	x8,x8,555 # 2e822b <SID_EXCEP_04_EQZ_PASSING_AND_stack+0x9b22b>
    41015840:	00e41413          	slli	x8,x8,0xe
    41015844:	00840413          	addi	x8,x8,8
    41015848:	00043483          	ld	x9,0(x8)
    4101584c:	00048067          	jr	x9

0000000041015850 <SID_EXCEP_04_EQZ_FAILING_XOR_passed>:
    41015850:	00f00f9b          	addiw	x31,x0,15
    41015854:	01cf9f93          	slli	x31,x31,0x1c
    41015858:	001f8f93          	addi	x31,x31,1
    4101585c:	00000073          	ecall

0000000041015860 <SID_EXCEP_04_NEZ_PASSING_AND>:
    41015860:	03a94137          	lui	x2,0x3a94
    41015864:	4551011b          	addiw	x2,x2,1109 # 3a94455 <SID_EXCEP_01_EQZ_RS1_NZ_stack+0x3421455>
    41015868:	00c11113          	slli	x2,x2,0xc
    4101586c:	000012b7          	lui	x5,0x1
    41015870:	00510133          	add	x2,x2,x5
    41015874:	ff017113          	andi	x2,x2,-16
    41015878:	0f000893          	li	x17,240
    4101587c:	0aa00913          	li	x18,170
    41015880:	00100593          	li	x11,1
    41015884:	0128f733          	and	x14,x17,x18
    41015888:	0eb77fb3          	czero.nez	x31,x14,x11
    4101588c:	00000313          	li	x6,0
    41015890:	006f8e63          	beq	x31,x6,410158ac <SID_EXCEP_04_NEZ_PASSING_AND_passed>
    41015894:	002e84b7          	lui	x9,0x2e8
    41015898:	22b4849b          	addiw	x9,x9,555 # 2e822b <SID_EXCEP_04_EQZ_PASSING_AND_stack+0x9b22b>
    4101589c:	00e49493          	slli	x9,x9,0xe
    410158a0:	00848493          	addi	x9,x9,8
    410158a4:	0004b603          	ld	x12,0(x9)
    410158a8:	00060067          	jr	x12

00000000410158ac <SID_EXCEP_04_NEZ_PASSING_AND_passed>:
    410158ac:	00f00f9b          	addiw	x31,x0,15
    410158b0:	01cf9f93          	slli	x31,x31,0x1c
    410158b4:	001f8f93          	addi	x31,x31,1
    410158b8:	00000073          	ecall

00000000410158bc <SID_EXCEP_04_NEZ_FAILING_AND>:
    410158bc:	01202137          	lui	x2,0x1202
    410158c0:	caf1011b          	addiw	x2,x2,-849 # 1201caf <SID_EXCEP_01_EQZ_RS1_NZ_stack+0xb8ecaf>
    410158c4:	00e11113          	slli	x2,x2,0xe
    410158c8:	000012b7          	lui	x5,0x1
    410158cc:	00510133          	add	x2,x2,x5
    410158d0:	ff017113          	andi	x2,x2,-16
    410158d4:	0f000413          	li	x8,240
    410158d8:	0aa00313          	li	x6,170
    410158dc:	00000493          	li	x9,0
    410158e0:	00647433          	and	x8,x8,x6
    410158e4:	0e9473b3          	czero.nez	x7,x8,x9
    410158e8:	0a000a93          	li	x21,160
    410158ec:	01538e63          	beq	x7,x21,41015908 <SID_EXCEP_04_NEZ_FAILING_AND_passed>
    410158f0:	002e8937          	lui	x18,0x2e8
    410158f4:	22b9091b          	addiw	x18,x18,555 # 2e822b <SID_EXCEP_04_EQZ_PASSING_AND_stack+0x9b22b>
    410158f8:	00e91913          	slli	x18,x18,0xe
    410158fc:	00890913          	addi	x18,x18,8
    41015900:	00093703          	ld	x14,0(x18)
    41015904:	00070067          	jr	x14

0000000041015908 <SID_EXCEP_04_NEZ_FAILING_AND_passed>:
    41015908:	00f00f9b          	addiw	x31,x0,15
    4101590c:	01cf9f93          	slli	x31,x31,0x1c
    41015910:	001f8f93          	addi	x31,x31,1
    41015914:	00000073          	ecall

0000000041015918 <SID_EXCEP_04_NEZ_PASSING_XOR>:
    41015918:	07efc137          	lui	x2,0x7efc
    4101591c:	000012b7          	lui	x5,0x1
    41015920:	00510133          	add	x2,x2,x5
    41015924:	ff017113          	andi	x2,x2,-16
    41015928:	0f000593          	li	x11,240
    4101592c:	0aa00f13          	li	x30,170
    41015930:	00100613          	li	x12,1
    41015934:	01e5cc33          	xor	x24,x11,x30
    41015938:	0ecc75b3          	czero.nez	x11,x24,x12
    4101593c:	00000313          	li	x6,0
    41015940:	00658e63          	beq	x11,x6,4101595c <SID_EXCEP_04_NEZ_PASSING_XOR_passed>
    41015944:	002e8ab7          	lui	x21,0x2e8
    41015948:	22ba8a9b          	addiw	x21,x21,555 # 2e822b <SID_EXCEP_04_EQZ_PASSING_AND_stack+0x9b22b>
    4101594c:	00ea9a93          	slli	x21,x21,0xe
    41015950:	008a8a93          	addi	x21,x21,8
    41015954:	000abe83          	ld	x29,0(x21)
    41015958:	000e8067          	jr	x29

000000004101595c <SID_EXCEP_04_NEZ_PASSING_XOR_passed>:
    4101595c:	00f00f9b          	addiw	x31,x0,15
    41015960:	01cf9f93          	slli	x31,x31,0x1c
    41015964:	001f8f93          	addi	x31,x31,1
    41015968:	00000073          	ecall

000000004101596c <SID_EXCEP_04_NEZ_FAILING_XOR>:
    4101596c:	20c2b137          	lui	x2,0x20c2b
    41015970:	90b1011b          	addiw	x2,x2,-1781 # 20c2a90b <SID_EXCEP_01_NEZ_RS1_Z_stack+0x10e9690b>
    41015974:	00d11113          	slli	x2,x2,0xd
    41015978:	000012b7          	lui	x5,0x1
    4101597c:	00510133          	add	x2,x2,x5
    41015980:	ff017113          	andi	x2,x2,-16
    41015984:	0f000393          	li	x7,240
    41015988:	0aa00713          	li	x14,170
    4101598c:	00000593          	li	x11,0
    41015990:	00e3c433          	xor	x8,x7,x14
    41015994:	0eb47333          	czero.nez	x6,x8,x11
    41015998:	05a00b13          	li	x22,90
    4101599c:	01630e63          	beq	x6,x22,410159b8 <SID_EXCEP_04_NEZ_FAILING_XOR_passed>
    410159a0:	002e8fb7          	lui	x31,0x2e8
    410159a4:	22bf8f9b          	addiw	x31,x31,555 # 2e822b <SID_EXCEP_04_EQZ_PASSING_AND_stack+0x9b22b>
    410159a8:	00ef9f93          	slli	x31,x31,0xe
    410159ac:	008f8f93          	addi	x31,x31,8
    410159b0:	000fb703          	ld	x14,0(x31)
    410159b4:	00070067          	jr	x14

00000000410159b8 <SID_EXCEP_04_NEZ_FAILING_XOR_passed>:
    410159b8:	00f00f9b          	addiw	x31,x0,15
    410159bc:	01cf9f93          	slli	x31,x31,0x1c
    410159c0:	001f8f93          	addi	x31,x31,1
    410159c4:	00000073          	ecall

00000000410159c8 <SID_EXCEP_04_2_1_MUX_SELECT_0>:
    410159c8:	00008137          	lui	x2,0x8
    410159cc:	000012b7          	lui	x5,0x1
    410159d0:	00510133          	add	x2,x2,x5
    410159d4:	ff017113          	andi	x2,x2,-16
    410159d8:	0000eeb7          	lui	x29,0xe
    410159dc:	eade8e9b          	addiw	x29,x29,-339 # dead <SID_EXCEP_04_2_1_MUX_SELECT_0_stack+0x5ead>
    410159e0:	0000cf37          	lui	x30,0xc
    410159e4:	eeff0f1b          	addiw	x30,x30,-273 # beef <SID_EXCEP_04_2_1_MUX_SELECT_0_stack+0x3eef>
    410159e8:	00000493          	li	x9,0
    410159ec:	0e9ef833          	czero.nez	x16,x29,x9
    410159f0:	0e9f5933          	czero.eqz	x18,x30,x9
    410159f4:	01286c33          	or	x24,x16,x18
    410159f8:	0000e337          	lui	x6,0xe
    410159fc:	ead3031b          	addiw	x6,x6,-339 # dead <SID_EXCEP_04_2_1_MUX_SELECT_0_stack+0x5ead>
    41015a00:	006c0e63          	beq	x24,x6,41015a1c <SID_EXCEP_04_2_1_MUX_SELECT_0_passed>
    41015a04:	002e89b7          	lui	x19,0x2e8
    41015a08:	22b9899b          	addiw	x19,x19,555 # 2e822b <SID_EXCEP_04_EQZ_PASSING_AND_stack+0x9b22b>
    41015a0c:	00e99993          	slli	x19,x19,0xe
    41015a10:	00898993          	addi	x19,x19,8
    41015a14:	0009bd03          	ld	x26,0(x19)
    41015a18:	000d0067          	jr	x26

0000000041015a1c <SID_EXCEP_04_2_1_MUX_SELECT_0_passed>:
    41015a1c:	00f00f9b          	addiw	x31,x0,15
    41015a20:	01cf9f93          	slli	x31,x31,0x1c
    41015a24:	001f8f93          	addi	x31,x31,1
    41015a28:	00000073          	ecall

0000000041015a2c <SID_EXCEP_04_2_1_MUX_SELECT_1>:
    41015a2c:	01ba6137          	lui	x2,0x1ba6
    41015a30:	bbd1011b          	addiw	x2,x2,-1091 # 1ba5bbd <SID_EXCEP_01_EQZ_RS1_NZ_stack+0x1532bbd>
    41015a34:	01011113          	slli	x2,x2,0x10
    41015a38:	b2710113          	addi	x2,x2,-1241
    41015a3c:	00c11113          	slli	x2,x2,0xc
    41015a40:	000012b7          	lui	x5,0x1
    41015a44:	00510133          	add	x2,x2,x5
    41015a48:	ff017113          	andi	x2,x2,-16
    41015a4c:	0000ebb7          	lui	x23,0xe
    41015a50:	eadb8b9b          	addiw	x23,x23,-339 # dead <SID_EXCEP_04_2_1_MUX_SELECT_0_stack+0x5ead>
    41015a54:	0000cfb7          	lui	x31,0xc
    41015a58:	eeff8f9b          	addiw	x31,x31,-273 # beef <SID_EXCEP_04_2_1_MUX_SELECT_0_stack+0x3eef>
    41015a5c:	00100d13          	li	x26,1
    41015a60:	0fabfbb3          	czero.nez	x23,x23,x26
    41015a64:	0fafd3b3          	czero.eqz	x7,x31,x26
    41015a68:	007be7b3          	or	x15,x23,x7
    41015a6c:	0000c3b7          	lui	x7,0xc
    41015a70:	eef3839b          	addiw	x7,x7,-273 # beef <SID_EXCEP_04_2_1_MUX_SELECT_0_stack+0x3eef>
    41015a74:	00778e63          	beq	x15,x7,41015a90 <SID_EXCEP_04_2_1_MUX_SELECT_1_passed>
    41015a78:	002e8a37          	lui	x20,0x2e8
    41015a7c:	22ba0a1b          	addiw	x20,x20,555 # 2e822b <SID_EXCEP_04_EQZ_PASSING_AND_stack+0x9b22b>
    41015a80:	00ea1a13          	slli	x20,x20,0xe
    41015a84:	008a0a13          	addi	x20,x20,8
    41015a88:	000a3f03          	ld	x30,0(x20)
    41015a8c:	000f0067          	jr	x30

0000000041015a90 <SID_EXCEP_04_2_1_MUX_SELECT_1_passed>:
    41015a90:	00f00f9b          	addiw	x31,x0,15
    41015a94:	01cf9f93          	slli	x31,x31,0x1c
    41015a98:	001f8f93          	addi	x31,x31,1
    41015a9c:	00000073          	ecall

0000000041015aa0 <test_cleanup>:
    41015aa0:	00f00f9b          	addiw	x31,x0,15
    41015aa4:	01cf9f93          	slli	x31,x31,0x1c
    41015aa8:	001f8f93          	addi	x31,x31,1
    41015aac:	00000073          	ecall

0000000041015ab0 <local_test_failed>:
    41015ab0:	00f00f9b          	addiw	x31,x0,15
    41015ab4:	01cf9f93          	slli	x31,x31,0x1c
    41015ab8:	002f8f93          	addi	x31,x31,2
    41015abc:	00000073          	ecall

Disassembly of section .csr_machine_0:

0000000041215000 <csr_access_mstatus_machine_key_3_set-0x30>:
    41215000:	44288fb7          	lui	x31,0x44288
    41215004:	0a0f8f9b          	addiw	x31,x31,160 # 442880a0 <machine_csr_jump_table_flags_pa>
    41215008:	000fbf83          	ld	x31,0(x31)
    4121500c:	00300293          	li	x5,3
    41215010:	025f8063          	beq	x31,x5,41215030 <csr_access_mstatus_machine_key_3_set>
    41215014:	00100293          	li	x5,1
    41215018:	025f8063          	beq	x31,x5,41215038 <csr_access_mstatus_machine_key_1_clear>
    4121501c:	00600293          	li	x5,6
    41215020:	025f8063          	beq	x31,x5,41215040 <csr_access_mtvec_machine_key_6_set>
    41215024:	00500293          	li	x5,5
    41215028:	025f8063          	beq	x31,x5,41215048 <csr_access_mtvec_machine_key_5_clear>
    4121502c:	0240006f          	j	41215050 <end_machine_label>

0000000041215030 <csr_access_mstatus_machine_key_3_set>:
    41215030:	3003a073          	csrs	mstatus,x7
    41215034:	01c0006f          	j	41215050 <end_machine_label>

0000000041215038 <csr_access_mstatus_machine_key_1_clear>:
    41215038:	3003b073          	csrc	mstatus,x7
    4121503c:	0140006f          	j	41215050 <end_machine_label>

0000000041215040 <csr_access_mtvec_machine_key_6_set>:
    41215040:	3053a073          	csrs	mtvec,x7
    41215044:	00c0006f          	j	41215050 <end_machine_label>

0000000041215048 <csr_access_mtvec_machine_key_5_clear>:
    41215048:	3053b073          	csrc	mtvec,x7
    4121504c:	0040006f          	j	41215050 <end_machine_label>

0000000041215050 <end_machine_label>:
    41215050:	000f0fb7          	lui	x31,0xf0
    41215054:	001f8f9b          	addiw	x31,x31,1 # f0001 <SID_EXCEP_04_EQZ_PASSING_ADD_stack+0x98001>
    41215058:	00cf9f93          	slli	x31,x31,0xc
    4121505c:	004f8f93          	addi	x31,x31,4
    41215060:	00000073          	ecall

Disassembly of section .csr_super_0:

0000000041216000 <csr_access_sstatus_supervisor_key_4_set-0x38>:
    41216000:	002e8fb7          	lui	x31,0x2e8
    41216004:	22bf8f9b          	addiw	x31,x31,555 # 2e822b <SID_EXCEP_04_EQZ_PASSING_AND_stack+0x9b22b>
    41216008:	00ef9f93          	slli	x31,x31,0xe
    4121600c:	0a8f8f93          	addi	x31,x31,168
    41216010:	000fbf83          	ld	x31,0(x31)
    41216014:	00400293          	li	x5,4
    41216018:	025f8063          	beq	x31,x5,41216038 <csr_access_sstatus_supervisor_key_4_set>
    4121601c:	00200293          	li	x5,2
    41216020:	025f8063          	beq	x31,x5,41216040 <csr_access_sstatus_supervisor_key_2_clear>
    41216024:	00800293          	li	x5,8
    41216028:	025f8063          	beq	x31,x5,41216048 <csr_access_stvec_supervisor_key_8_set>
    4121602c:	00700293          	li	x5,7
    41216030:	025f8063          	beq	x31,x5,41216050 <csr_access_stvec_supervisor_key_7_clear>
    41216034:	0240006f          	j	41216058 <end_super_label>

0000000041216038 <csr_access_sstatus_supervisor_key_4_set>:
    41216038:	1003a073          	csrs	sstatus,x7
    4121603c:	01c0006f          	j	41216058 <end_super_label>

0000000041216040 <csr_access_sstatus_supervisor_key_2_clear>:
    41216040:	1003b073          	csrc	sstatus,x7
    41216044:	0140006f          	j	41216058 <end_super_label>

0000000041216048 <csr_access_stvec_supervisor_key_8_set>:
    41216048:	1053a073          	csrs	stvec,x7
    4121604c:	00c0006f          	j	41216058 <end_super_label>

0000000041216050 <csr_access_stvec_supervisor_key_7_clear>:
    41216050:	1053b073          	csrc	stvec,x7
    41216054:	0040006f          	j	41216058 <end_super_label>

0000000041216058 <end_super_label>:
    41216058:	000f0fb7          	lui	x31,0xf0
    4121605c:	001f8f9b          	addiw	x31,x31,1 # f0001 <SID_EXCEP_04_EQZ_PASSING_ADD_stack+0x98001>
    41216060:	00cf9f93          	slli	x31,x31,0xc
    41216064:	004f8f93          	addi	x31,x31,4
    41216068:	00000073          	ecall

Disassembly of section .os_data:

0000000ba08ac000 <passed_addr_ptr>:
   ba08ac000:	50f0                	.insn	2, 0x50f0
   ba08ac002:	4101                	.insn	2, 0x4101
   ba08ac004:	0000                	.insn	2, 0x0000
	...

0000000ba08ac008 <failed_addr_ptr>:
   ba08ac008:	5100                	.insn	2, 0x5100
   ba08ac00a:	4101                	.insn	2, 0x4101
   ba08ac00c:	0000                	.insn	2, 0x0000
	...

0000000ba08ac010 <end_test_addr_ptr>:
   ba08ac010:	5110                	.insn	2, 0x5110
   ba08ac012:	4101                	.insn	2, 0x4101
   ba08ac014:	0000                	.insn	2, 0x0000
	...

0000000ba08ac018 <os_passed_addr_ptr>:
   ba08ac018:	07b0                	.insn	2, 0x07b0
   ba08ac01a:	4100                	.insn	2, 0x4100
   ba08ac01c:	0000                	.insn	2, 0x0000
	...

0000000ba08ac020 <os_failed_addr_ptr>:
   ba08ac020:	07c0                	.insn	2, 0x07c0
   ba08ac022:	4100                	.insn	2, 0x4100
   ba08ac024:	0000                	.insn	2, 0x0000
	...

0000000ba08ac028 <os_end_test_addr_ptr>:
   ba08ac028:	07cc                	.insn	2, 0x07cc
   ba08ac02a:	4100                	.insn	2, 0x4100
   ba08ac02c:	0000                	.insn	2, 0x0000
	...

0000000ba08ac030 <rvcp_prefix_str_data>:
   ba08ac030:	5652                	.insn	2, 0x5652
   ba08ac032:	203a5043          	fmadd.s	f0,f20,f3,f4,unknown
   ba08ac036:	6554                	.insn	2, 0x6554
   ba08ac038:	46207473          	csrrci	x8,0x462,0
   ba08ac03c:	6c69                	.insn	2, 0x6c69
   ba08ac03e:	2065                	.insn	2, 0x2065
	...

0000000ba08ac041 <rvcp_testname_str_data>:
   ba08ac041:	7074                	.insn	2, 0x7074
   ba08ac043:	7a5f 6369 6e6f      	.insn	6, 0x6e6f63697a5f
   ba08ac049:	5f64                	.insn	2, 0x5f64
   ba08ac04b:	0032                	.insn	2, 0x0032

0000000ba08ac04d <rvcp_passed_str_data>:
   ba08ac04d:	4150                	.insn	2, 0x4150
   ba08ac04f:	44455353          	fround.h	f6,f10,unknown
	...

0000000ba08ac054 <rvcp_failed_str_data>:
   ba08ac054:	4146                	.insn	2, 0x4146
   ba08ac056:	4c49                	.insn	2, 0x4c49
   ba08ac058:	4445                	.insn	2, 0x4445
	...

0000000ba08ac05b <rvcp_space_str_data>:
   ba08ac05b:	0020                	.insn	2, 0x0020

0000000ba08ac05d <rvcp_newline_str_data>:
   ba08ac05d:	000a                	.insn	2, 0x000a
	...

0000000ba08ac060 <excp_ignored_count_mem>:
	...

0000000ba08ac068 <machine_flags_mem>:
	...

0000000ba08ac070 <user_flags_mem>:
	...

0000000ba08ac078 <super_flags_mem>:
	...

0000000ba08ac080 <machine_area_mem>:
	...

0000000ba08ac088 <user_area_mem>:
	...

0000000ba08ac090 <super_area_mem>:
	...

0000000ba08ac098 <zero_data_mem>:
	...

0000000ba08ac0a0 <machine_csr_jump_table_flags_mem>:
	...

0000000ba08ac0a8 <super_csr_jump_table_flags_mem>:
	...

0000000ba08ac0b0 <pte_access_flags_mem>:
	...

0000000ba08ac0c8 <num_harts_ended_mem>:
	...

0000000ba08ac0d0 <num_hard_fails_mem>:
	...

Disassembly of section .hart_context:

000016b031f3d000 <hart_context_0>:
    16b031f3d000:	5000                	.insn	2, 0x5000
    16b031f3d002:	000023ef          	jal	x7,16b031f3f002 <current_test_index+0x1e7a>
	...
    16b031f3d016:	0000                	.insn	2, 0x0000
    16b031f3d018:	0001                	.insn	2, 0x0001
    16b031f3d01a:	0000                	.insn	2, 0x0000
    16b031f3d01c:	0000                	.insn	2, 0x0000
    16b031f3d01e:	0000                	.insn	2, 0x0000
    16b031f3d020:	ffff                	.insn	2, 0xffff
    16b031f3d022:	ffff                	.insn	2, 0xffff
    16b031f3d024:	ffff                	.insn	2, 0xffff
    16b031f3d026:	ffff                	.insn	2, 0xffff
    16b031f3d028:	ffff                	.insn	2, 0xffff
    16b031f3d02a:	ffff                	.insn	2, 0xffff
    16b031f3d02c:	ffff                	.insn	2, 0xffff
    16b031f3d02e:	ffff                	.insn	2, 0xffff
    16b031f3d030:	ffff                	.insn	2, 0xffff
    16b031f3d032:	ffff                	.insn	2, 0xffff
    16b031f3d034:	ffff                	.insn	2, 0xffff
    16b031f3d036:	ffff                	.insn	2, 0xffff
	...
    16b031f3d050:	00ff 0000 0000 0000 	.insn	10, 0x00ff00000000000000ff
    16b031f3d058:	00ff 
	...
    16b031f3d176:	0000                	.insn	2, 0x0000
    16b031f3d178:	ffff                	.insn	2, 0xffff
    16b031f3d17a:	ffff                	.insn	2, 0xffff
    16b031f3d17c:	ffff                	.insn	2, 0xffff
    16b031f3d17e:	ffff                	.insn	2, 0xffff
	...
    16b031f3d188:	ffff                	.insn	2, 0xffff
    16b031f3d18a:	ffff                	.insn	2, 0xffff
	...

Disassembly of section .hart_stack_0:

0000000023ef4000 <hart_stack_0>:
	...

Disassembly of section .io_htif:

0000000041040000 <tohost>:
	...

0000000041040040 <fromhost>:
	...

Disassembly of section .tp_csr_storage:

0000000000005000 <.tp_csr_storage>:
    5000:	c0de                	.insn	2, 0xc0de
    5002:	c001                	.insn	2, 0xc001
    5004:	0000                	.insn	2, 0x0000
	...

Disassembly of section .SID_EXCEP_01_EQZ_RS1_NZ_stack:

0000000000673000 <.SID_EXCEP_01_EQZ_RS1_NZ_stack>:
  673000:	c0de                	.insn	2, 0xc0de
  673002:	c001                	.insn	2, 0xc001
  673004:	0000                	.insn	2, 0x0000
	...

Disassembly of section .SID_EXCEP_01_EQZ_RS1_Z_stack:

00a76f2450a7c000 <.SID_EXCEP_01_EQZ_RS1_Z_stack>:
  a76f2450a7c000:	c0de                	.insn	2, 0xc0de
  a76f2450a7c002:	c001                	.insn	2, 0xc001
  a76f2450a7c004:	0000                	.insn	2, 0x0000
	...

Disassembly of section .SID_EXCEP_01_NEZ_RS1_NZ_stack:

0000000000002000 <.SID_EXCEP_01_NEZ_RS1_NZ_stack>:
    2000:	c0de                	.insn	2, 0xc0de
    2002:	c001                	.insn	2, 0xc001
    2004:	0000                	.insn	2, 0x0000
	...

Disassembly of section .SID_EXCEP_01_NEZ_RS1_Z_stack:

000000000fd94000 <.SID_EXCEP_01_NEZ_RS1_Z_stack>:
 fd94000:	c0de                	.insn	2, 0xc0de
 fd94002:	c001                	.insn	2, 0xc001
 fd94004:	0000                	.insn	2, 0x0000
	...

Disassembly of section .SID_EXCEP_02_EQZ_RS1_NZ_stack:

000000000044d000 <.SID_EXCEP_02_EQZ_RS1_NZ_stack>:
  44d000:	c0de                	.insn	2, 0xc0de
  44d002:	c001                	.insn	2, 0xc001
  44d004:	0000                	.insn	2, 0x0000
	...

Disassembly of section .SID_EXCEP_02_EQZ_RS1_Z_stack:

008c372eff7b8000 <.SID_EXCEP_02_EQZ_RS1_Z_stack>:
  8c372eff7b8000:	c0de                	.insn	2, 0xc0de
  8c372eff7b8002:	c001                	.insn	2, 0xc001
  8c372eff7b8004:	0000                	.insn	2, 0x0000
	...

Disassembly of section .SID_EXCEP_02_NEZ_RS1_Z_stack:

000004313404c000 <.SID_EXCEP_02_NEZ_RS1_Z_stack>:
 4313404c000:	c0de                	.insn	2, 0xc0de
 4313404c002:	c001                	.insn	2, 0xc001
 4313404c004:	0000                	.insn	2, 0x0000
	...

Disassembly of section .SID_EXCEP_02_NEZ_RS1_NZ_stack:

0000000000030000 <.SID_EXCEP_02_NEZ_RS1_NZ_stack>:
   30000:	c0de                	.insn	2, 0xc0de
   30002:	c001                	.insn	2, 0xc001
   30004:	0000                	.insn	2, 0x0000
	...

Disassembly of section .SID_EXCEP_04_EQZ_PASSING_ADD_stack:

0000000000058000 <.SID_EXCEP_04_EQZ_PASSING_ADD_stack>:
   58000:	c0de                	.insn	2, 0xc0de
   58002:	c001                	.insn	2, 0xc001
   58004:	0000                	.insn	2, 0x0000
	...

Disassembly of section .SID_EXCEP_04_EQZ_FAILING_ADD_stack:

0000003a102e3000 <.SID_EXCEP_04_EQZ_FAILING_ADD_stack>:
  3a102e3000:	c0de                	.insn	2, 0xc0de
  3a102e3002:	c001                	.insn	2, 0xc001
  3a102e3004:	0000                	.insn	2, 0x0000
	...

Disassembly of section .SID_EXCEP_04_NEZ_PASSING_SUB_stack:

000004de964fa000 <.SID_EXCEP_04_NEZ_PASSING_SUB_stack>:
 4de964fa000:	c0de                	.insn	2, 0xc0de
 4de964fa002:	c001                	.insn	2, 0xc001
 4de964fa004:	0000                	.insn	2, 0x0000
	...

Disassembly of section .SID_EXCEP_04_NEZ_FAILING_SUB_stack:

00095df5a8b80000 <.SID_EXCEP_04_NEZ_FAILING_SUB_stack>:
   95df5a8b80000:	c0de                	.insn	2, 0xc0de
   95df5a8b80002:	c001                	.insn	2, 0xc001
   95df5a8b80004:	0000                	.insn	2, 0x0000
	...

Disassembly of section .SID_EXCEP_04_EQZ_PASSING_SUB_stack:

0000001881e05000 <.SID_EXCEP_04_EQZ_PASSING_SUB_stack>:
  1881e05000:	c0de                	.insn	2, 0xc0de
  1881e05002:	c001                	.insn	2, 0xc001
  1881e05004:	0000                	.insn	2, 0x0000
	...

Disassembly of section .SID_EXCEP_04_EQZ_FAILING_SUB_stack:

000022ad02e1e000 <.SID_EXCEP_04_EQZ_FAILING_SUB_stack>:
    22ad02e1e000:	c0de                	.insn	2, 0xc0de
    22ad02e1e002:	c001                	.insn	2, 0xc001
    22ad02e1e004:	0000                	.insn	2, 0x0000
	...

Disassembly of section .SID_EXCEP_04_NEZ_PASSING_ADD_stack:

0052629336ed2000 <.SID_EXCEP_04_NEZ_PASSING_ADD_stack>:
  52629336ed2000:	c0de                	.insn	2, 0xc0de
  52629336ed2002:	c001                	.insn	2, 0xc001
  52629336ed2004:	0000                	.insn	2, 0x0000
	...

Disassembly of section .SID_EXCEP_04_NEZ_FAILING_ADD_stack:

008a0eb8f977d000 <.SID_EXCEP_04_NEZ_FAILING_ADD_stack>:
  8a0eb8f977d000:	c0de                	.insn	2, 0xc0de
  8a0eb8f977d002:	c001                	.insn	2, 0xc001
  8a0eb8f977d004:	0000                	.insn	2, 0x0000
	...

Disassembly of section .SID_EXCEP_04_EQZ_PASSING_AND_stack:

000000000024d000 <.SID_EXCEP_04_EQZ_PASSING_AND_stack>:
  24d000:	c0de                	.insn	2, 0xc0de
  24d002:	c001                	.insn	2, 0xc001
  24d004:	0000                	.insn	2, 0x0000
	...

Disassembly of section .SID_EXCEP_04_EQZ_FAILING_AND_stack:

000000424a25d000 <.SID_EXCEP_04_EQZ_FAILING_AND_stack>:
  424a25d000:	c0de                	.insn	2, 0xc0de
  424a25d002:	c001                	.insn	2, 0xc001
  424a25d004:	0000                	.insn	2, 0x0000
	...

Disassembly of section .SID_EXCEP_04_EQZ_PASSING_XOR_stack:

0000001344379000 <.SID_EXCEP_04_EQZ_PASSING_XOR_stack>:
  1344379000:	c0de                	.insn	2, 0xc0de
  1344379002:	c001                	.insn	2, 0xc001
  1344379004:	0000                	.insn	2, 0x0000
	...

Disassembly of section .SID_EXCEP_04_EQZ_FAILING_XOR_stack:

0000000000023000 <.SID_EXCEP_04_EQZ_FAILING_XOR_stack>:
   23000:	c0de                	.insn	2, 0xc0de
   23002:	c001                	.insn	2, 0xc001
   23004:	0000                	.insn	2, 0x0000
	...

Disassembly of section .SID_EXCEP_04_NEZ_PASSING_AND_stack:

0000003a94455000 <.SID_EXCEP_04_NEZ_PASSING_AND_stack>:
  3a94455000:	c0de                	.insn	2, 0xc0de
  3a94455002:	c001                	.insn	2, 0xc001
  3a94455004:	0000                	.insn	2, 0x0000
	...

Disassembly of section .SID_EXCEP_04_NEZ_FAILING_AND_stack:

00000048072bc000 <.SID_EXCEP_04_NEZ_FAILING_AND_stack>:
  48072bc000:	c0de                	.insn	2, 0xc0de
  48072bc002:	c001                	.insn	2, 0xc001
  48072bc004:	0000                	.insn	2, 0x0000
	...

Disassembly of section .SID_EXCEP_04_NEZ_PASSING_XOR_stack:

0000000007efc000 <.SID_EXCEP_04_NEZ_PASSING_XOR_stack>:
 7efc000:	c0de                	.insn	2, 0xc0de
 7efc002:	c001                	.insn	2, 0xc001
 7efc004:	0000                	.insn	2, 0x0000
	...

Disassembly of section .SID_EXCEP_04_NEZ_FAILING_XOR_stack:

0000041855216000 <.SID_EXCEP_04_NEZ_FAILING_XOR_stack>:
 41855216000:	c0de                	.insn	2, 0xc0de
 41855216002:	c001                	.insn	2, 0xc001
 41855216004:	0000                	.insn	2, 0x0000
	...

Disassembly of section .SID_EXCEP_04_2_1_MUX_SELECT_0_stack:

0000000000008000 <.SID_EXCEP_04_2_1_MUX_SELECT_0_stack>:
    8000:	c0de                	.insn	2, 0xc0de
    8002:	c001                	.insn	2, 0xc001
    8004:	0000                	.insn	2, 0x0000
	...

Disassembly of section .SID_EXCEP_04_2_1_MUX_SELECT_1_stack:

001ba5bbcfb27000 <.SID_EXCEP_04_2_1_MUX_SELECT_1_stack>:
  1ba5bbcfb27000:	c0de                	.insn	2, 0xc0de
  1ba5bbcfb27002:	c001                	.insn	2, 0xc001
  1ba5bbcfb27004:	0000                	.insn	2, 0x0000
	...

Disassembly of section .__pagetable_map_os_0x0000000044e88000:

0000000044e88000 <__pagetable_map_os_0x0000000044e88000>:
    44e88000:	e001                	.insn	2, 0xe001
    44e88002:	10f2                	.insn	2, 0x10f2
	...
    44e88048:	a001                	.insn	2, 0xa001
    44e8804a:	113c                	.insn	2, 0x113c
	...
    44e880d8:	7001                	.insn	2, 0x7001
    44e880da:	113c                	.insn	2, 0x113c
	...
    44e88290:	1001                	.insn	2, 0x1001
    44e88292:	0000112b          	.insn	4, 0x112b
	...
    44e8844e:	0000                	.insn	2, 0x0000
    44e88450:	0001                	.insn	2, 0x0001
    44e88452:	1096                	.insn	2, 0x1096
	...
    44e88460:	4c01                	.insn	2, 0x4c01
    44e88462:	00001067          	.insn	4, 0x1067
	...
    44e88536:	0000                	.insn	2, 0x0000
    44e88538:	f801                	.insn	2, 0xf801
    44e8853a:	112d                	.insn	2, 0x112d
    44e8853c:	0000                	.insn	2, 0x0000
	...

Disassembly of section .__pagetable_map_os_0x0000000043cb8000:

0000000043cb8000 <__pagetable_map_os_0x0000000043cb8000>:
    43cb8000:	2401                	.insn	2, 0x2401
    43cb8002:	113c                	.insn	2, 0x113c
	...
    43cb8040:	1001                	.insn	2, 0x1001
    43cb8042:	10f2                	.insn	2, 0x10f2
    43cb8044:	0000                	.insn	2, 0x0000
    43cb8046:	0000                	.insn	2, 0x0000
    43cb8048:	4c01                	.insn	2, 0x4c01
    43cb804a:	10f1                	.insn	2, 0x10f1
	...
    43cb8168:	6001                	.insn	2, 0x6001
    43cb816a:	110d                	.insn	2, 0x110d
	...
    43cb8228:	8801                	.insn	2, 0x8801
    43cb822a:	111f 0000 0000      	.insn	6, 0x111f

Disassembly of section .__pagetable_map_os_0x0000000044f09000:

0000000044f09000 <__pagetable_map_os_0x0000000044f09000>:
    44f09000:	4001                	.insn	2, 0x4001
    44f09002:	1076                	.insn	2, 0x1076
    44f09004:	0000                	.insn	2, 0x0000
    44f09006:	0000                	.insn	2, 0x0000
    44f09008:	4801                	.insn	2, 0x4801
    44f0900a:	00001093          	slli	x1,x0,0x0
	...
    44f0916e:	0000                	.insn	2, 0x0000
    44f09170:	5001                	.insn	2, 0x5001
    44f09172:	1128                	.insn	2, 0x1128
	...
    44f09268:	8401                	.insn	2, 0x8401
    44f0926a:	106d                	.insn	2, 0x106d
	...
    44f09310:	0001                	.insn	2, 0x0001
    44f09312:	10f2                	.insn	2, 0x10f2
	...
    44f09740:	0001                	.insn	2, 0x0001
    44f09742:	110d                	.insn	2, 0x110d
	...
    44f09750:	9c01                	.insn	2, 0x9c01
    44f09752:	113c                	.insn	2, 0x113c
	...
    44f09848:	b001                	.insn	2, 0xb001
    44f0984a:	112a                	.insn	2, 0x112a
	...
    44f09900:	6401                	.insn	2, 0x6401
    44f09902:	113c                	.insn	2, 0x113c
    44f09904:	0000                	.insn	2, 0x0000
	...

Disassembly of section .__pagetable_map_os_0x00000000424d2000:

00000000424d2000 <__pagetable_map_os_0x00000000424d2000>:
	...
    424d2040:	1401                	.insn	2, 0x1401
    424d2042:	00001077          	.insn	4, 0x1077
    424d2046:	0000                	.insn	2, 0x0000
    424d2048:	e801                	.insn	2, 0xe801
    424d204a:	1071                	.insn	2, 0x1071
	...
    424d2138:	9801                	.insn	2, 0x9801
    424d213a:	113c                	.insn	2, 0x113c
    424d213c:	0000                	.insn	2, 0x0000
	...

Disassembly of section .__pagetable_map_os_0x0000000041dc5000:

0000000041dc5000 <__pagetable_map_os_0x0000000041dc5000>:
	...
    41dc5080:	40df 1040 0000      	.insn	6, 0x104040df
    41dc5086:	0000                	.insn	2, 0x0000
    41dc5088:	104044cf          	fnmadd.s	f9,f0,f4,f2,rmm
    41dc508c:	0000                	.insn	2, 0x0000
    41dc508e:	0000                	.insn	2, 0x0000
    41dc5090:	104048cf          	fnmadd.s	f17,f0,f4,f2,rmm
    41dc5094:	0000                	.insn	2, 0x0000
    41dc5096:	0000                	.insn	2, 0x0000
    41dc5098:	10404ccf          	fnmadd.s	f25,f0,f4,f2,rmm
    41dc509c:	0000                	.insn	2, 0x0000
    41dc509e:	0000                	.insn	2, 0x0000
    41dc50a0:	104050cf          	fnmadd.s	f1,f0,f4,f2,unknown
    41dc50a4:	0000                	.insn	2, 0x0000
    41dc50a6:	0000                	.insn	2, 0x0000
    41dc50a8:	00df 1110 0000      	.insn	6, 0x111000df
    41dc50ae:	0000                	.insn	2, 0x0000
    41dc50b0:	04df 1110 0000      	.insn	6, 0x111004df
    41dc50b6:	0000                	.insn	2, 0x0000
    41dc50b8:	08df 1110 0000      	.insn	6, 0x111008df
    41dc50be:	0000                	.insn	2, 0x0000
    41dc50c0:	0cdf 1110 0000      	.insn	6, 0x11100cdf
    41dc50c6:	0000                	.insn	2, 0x0000
    41dc50c8:	10df 1110 0000      	.insn	6, 0x111010df
    41dc50ce:	0000                	.insn	2, 0x0000
    41dc50d0:	14df 1110 0000      	.insn	6, 0x111014df
    41dc50d6:	0000                	.insn	2, 0x0000
    41dc50d8:	18df 1110 0000      	.insn	6, 0x111018df
    41dc50de:	0000                	.insn	2, 0x0000
    41dc50e0:	1cdf 1110 0000      	.insn	6, 0x11101cdf
    41dc50e6:	0000                	.insn	2, 0x0000
    41dc50e8:	20df 1110 0000      	.insn	6, 0x111020df
    41dc50ee:	0000                	.insn	2, 0x0000
    41dc50f0:	24df 1110 0000      	.insn	6, 0x111024df
    41dc50f6:	0000                	.insn	2, 0x0000
    41dc50f8:	28df 1110 0000      	.insn	6, 0x111028df
    41dc50fe:	0000                	.insn	2, 0x0000
    41dc5100:	2cdf 1110 0000      	.insn	6, 0x11102cdf
    41dc5106:	0000                	.insn	2, 0x0000
    41dc5108:	30df 1110 0000      	.insn	6, 0x111030df
    41dc510e:	0000                	.insn	2, 0x0000
    41dc5110:	34df 1110 0000      	.insn	6, 0x111034df
    41dc5116:	0000                	.insn	2, 0x0000
    41dc5118:	38df 1110 0000      	.insn	6, 0x111038df
    41dc511e:	0000                	.insn	2, 0x0000
    41dc5120:	3cdf 1110 0000      	.insn	6, 0x11103cdf
    41dc5126:	0000                	.insn	2, 0x0000
    41dc5128:	40df 1110 0000      	.insn	6, 0x111040df
    41dc512e:	0000                	.insn	2, 0x0000
    41dc5130:	44df 1110 0000      	.insn	6, 0x111044df
    41dc5136:	0000                	.insn	2, 0x0000
    41dc5138:	48df 1110 0000      	.insn	6, 0x111048df
    41dc513e:	0000                	.insn	2, 0x0000
    41dc5140:	4cdf 1110 0000      	.insn	6, 0x11104cdf
    41dc5146:	0000                	.insn	2, 0x0000
    41dc5148:	50df 1110 0000      	.insn	6, 0x111050df
    41dc514e:	0000                	.insn	2, 0x0000
    41dc5150:	54df 1110 0000      	.insn	6, 0x111054df
    41dc5156:	0000                	.insn	2, 0x0000
    41dc5158:	58df 1110 0000      	.insn	6, 0x111058df
    41dc515e:	0000                	.insn	2, 0x0000
    41dc5160:	5cdf 1110 0000      	.insn	6, 0x11105cdf
    41dc5166:	0000                	.insn	2, 0x0000
    41dc5168:	60df 1110 0000      	.insn	6, 0x111060df
    41dc516e:	0000                	.insn	2, 0x0000
    41dc5170:	64df 1110 0000      	.insn	6, 0x111064df
    41dc5176:	0000                	.insn	2, 0x0000
    41dc5178:	68df 1110 0000      	.insn	6, 0x111068df
    41dc517e:	0000                	.insn	2, 0x0000
    41dc5180:	6cdf 1110 0000      	.insn	6, 0x11106cdf
    41dc5186:	0000                	.insn	2, 0x0000
    41dc5188:	70df 1110 0000      	.insn	6, 0x111070df
    41dc518e:	0000                	.insn	2, 0x0000
    41dc5190:	74df 1110 0000      	.insn	6, 0x111074df
    41dc5196:	0000                	.insn	2, 0x0000
    41dc5198:	78df 1110 0000      	.insn	6, 0x111078df
    41dc519e:	0000                	.insn	2, 0x0000
    41dc51a0:	7cdf 1110 0000      	.insn	6, 0x11107cdf
    41dc51a6:	0000                	.insn	2, 0x0000
    41dc51a8:	80df 1110 0000      	.insn	6, 0x111080df
    41dc51ae:	0000                	.insn	2, 0x0000
    41dc51b0:	84df 1110 0000      	.insn	6, 0x111084df
    41dc51b6:	0000                	.insn	2, 0x0000
    41dc51b8:	88df 1110 0000      	.insn	6, 0x111088df
    41dc51be:	0000                	.insn	2, 0x0000
    41dc51c0:	8cdf 1110 0000      	.insn	6, 0x11108cdf
    41dc51c6:	0000                	.insn	2, 0x0000
    41dc51c8:	90df 1110 0000      	.insn	6, 0x111090df
    41dc51ce:	0000                	.insn	2, 0x0000
    41dc51d0:	94df 1110 0000      	.insn	6, 0x111094df
    41dc51d6:	0000                	.insn	2, 0x0000
    41dc51d8:	98df 1110 0000      	.insn	6, 0x111098df
    41dc51de:	0000                	.insn	2, 0x0000
    41dc51e0:	9cdf 1110 0000      	.insn	6, 0x11109cdf
    41dc51e6:	0000                	.insn	2, 0x0000
    41dc51e8:	a0df 1110 0000      	.insn	6, 0x1110a0df
    41dc51ee:	0000                	.insn	2, 0x0000
    41dc51f0:	a4df 1110 0000      	.insn	6, 0x1110a4df
    41dc51f6:	0000                	.insn	2, 0x0000
    41dc51f8:	a8df 1110 0000      	.insn	6, 0x1110a8df
    41dc51fe:	0000                	.insn	2, 0x0000
    41dc5200:	00df 1041 0000      	.insn	6, 0x104100df
    41dc5206:	0000                	.insn	2, 0x0000
    41dc5208:	b0df 1110 0000      	.insn	6, 0x1110b0df
    41dc520e:	0000                	.insn	2, 0x0000
    41dc5210:	b4df 1110 0000      	.insn	6, 0x1110b4df
    41dc5216:	0000                	.insn	2, 0x0000
    41dc5218:	b8df 1110 0000      	.insn	6, 0x1110b8df
    41dc521e:	0000                	.insn	2, 0x0000
    41dc5220:	bcdf 1110 0000      	.insn	6, 0x1110bcdf
    41dc5226:	0000                	.insn	2, 0x0000
    41dc5228:	c0df 1110 0000      	.insn	6, 0x1110c0df
    41dc522e:	0000                	.insn	2, 0x0000
    41dc5230:	c4df 1110 0000      	.insn	6, 0x1110c4df
    41dc5236:	0000                	.insn	2, 0x0000
    41dc5238:	c8df 1110 0000      	.insn	6, 0x1110c8df
    41dc523e:	0000                	.insn	2, 0x0000
    41dc5240:	ccdf 1110 0000      	.insn	6, 0x1110ccdf
    41dc5246:	0000                	.insn	2, 0x0000
    41dc5248:	d0df 1110 0000      	.insn	6, 0x1110d0df
    41dc524e:	0000                	.insn	2, 0x0000
    41dc5250:	d4df 1110 0000      	.insn	6, 0x1110d4df
    41dc5256:	0000                	.insn	2, 0x0000
    41dc5258:	d8df 1110 0000      	.insn	6, 0x1110d8df
    41dc525e:	0000                	.insn	2, 0x0000
    41dc5260:	dcdf 1110 0000      	.insn	6, 0x1110dcdf
    41dc5266:	0000                	.insn	2, 0x0000
    41dc5268:	e0df 1110 0000      	.insn	6, 0x1110e0df
    41dc526e:	0000                	.insn	2, 0x0000
    41dc5270:	e4df 1110 0000      	.insn	6, 0x1110e4df
    41dc5276:	0000                	.insn	2, 0x0000
    41dc5278:	e8df 1110 0000      	.insn	6, 0x1110e8df
    41dc527e:	0000                	.insn	2, 0x0000
    41dc5280:	ecdf 1110 0000      	.insn	6, 0x1110ecdf
    41dc5286:	0000                	.insn	2, 0x0000
    41dc5288:	f0df 1110 0000      	.insn	6, 0x1110f0df
    41dc528e:	0000                	.insn	2, 0x0000
    41dc5290:	f4df 1110 0000      	.insn	6, 0x1110f4df
    41dc5296:	0000                	.insn	2, 0x0000
    41dc5298:	f8df 1110 0000      	.insn	6, 0x1110f8df
    41dc529e:	0000                	.insn	2, 0x0000
    41dc52a0:	fcdf 1110 0000      	.insn	6, 0x1110fcdf
    41dc52a6:	0000                	.insn	2, 0x0000
    41dc52a8:	00df 1111 0000      	.insn	6, 0x111100df
    41dc52ae:	0000                	.insn	2, 0x0000
    41dc52b0:	04df 1111 0000      	.insn	6, 0x111104df
    41dc52b6:	0000                	.insn	2, 0x0000
    41dc52b8:	08df 1111 0000      	.insn	6, 0x111108df
    41dc52be:	0000                	.insn	2, 0x0000
    41dc52c0:	0cdf 1111 0000      	.insn	6, 0x11110cdf
    41dc52c6:	0000                	.insn	2, 0x0000
    41dc52c8:	10df 1111 0000      	.insn	6, 0x111110df
    41dc52ce:	0000                	.insn	2, 0x0000
    41dc52d0:	14df 1111 0000      	.insn	6, 0x111114df
    41dc52d6:	0000                	.insn	2, 0x0000
    41dc52d8:	18df 1111 0000      	.insn	6, 0x111118df
    41dc52de:	0000                	.insn	2, 0x0000
    41dc52e0:	1cdf 1111 0000      	.insn	6, 0x11111cdf
    41dc52e6:	0000                	.insn	2, 0x0000
    41dc52e8:	20df 1111 0000      	.insn	6, 0x111120df
    41dc52ee:	0000                	.insn	2, 0x0000
    41dc52f0:	24df 1111 0000      	.insn	6, 0x111124df
    41dc52f6:	0000                	.insn	2, 0x0000
    41dc52f8:	28df 1111 0000      	.insn	6, 0x111128df
    41dc52fe:	0000                	.insn	2, 0x0000
    41dc5300:	2cdf 1111 0000      	.insn	6, 0x11112cdf
    41dc5306:	0000                	.insn	2, 0x0000
    41dc5308:	30df 1111 0000      	.insn	6, 0x111130df
    41dc530e:	0000                	.insn	2, 0x0000
    41dc5310:	34df 1111 0000      	.insn	6, 0x111134df
    41dc5316:	0000                	.insn	2, 0x0000
    41dc5318:	38df 1111 0000      	.insn	6, 0x111138df
    41dc531e:	0000                	.insn	2, 0x0000
    41dc5320:	3cdf 1111 0000      	.insn	6, 0x11113cdf
    41dc5326:	0000                	.insn	2, 0x0000
    41dc5328:	40df 1111 0000      	.insn	6, 0x111140df
    41dc532e:	0000                	.insn	2, 0x0000
    41dc5330:	44df 1111 0000      	.insn	6, 0x111144df
    41dc5336:	0000                	.insn	2, 0x0000
    41dc5338:	48df 1111 0000      	.insn	6, 0x111148df
    41dc533e:	0000                	.insn	2, 0x0000
    41dc5340:	4cdf 1111 0000      	.insn	6, 0x11114cdf
    41dc5346:	0000                	.insn	2, 0x0000
    41dc5348:	50df 1111 0000      	.insn	6, 0x111150df
    41dc534e:	0000                	.insn	2, 0x0000
    41dc5350:	54df 1111 0000      	.insn	6, 0x111154df
    41dc5356:	0000                	.insn	2, 0x0000
    41dc5358:	58df 1111 0000      	.insn	6, 0x111158df
    41dc535e:	0000                	.insn	2, 0x0000
    41dc5360:	5cdf 1111 0000      	.insn	6, 0x11115cdf
    41dc5366:	0000                	.insn	2, 0x0000
    41dc5368:	60df 1111 0000      	.insn	6, 0x111160df
    41dc536e:	0000                	.insn	2, 0x0000
    41dc5370:	64df 1111 0000      	.insn	6, 0x111164df
    41dc5376:	0000                	.insn	2, 0x0000
    41dc5378:	68df 1111 0000      	.insn	6, 0x111168df
    41dc537e:	0000                	.insn	2, 0x0000
    41dc5380:	6cdf 1111 0000      	.insn	6, 0x11116cdf
    41dc5386:	0000                	.insn	2, 0x0000
    41dc5388:	70df 1111 0000      	.insn	6, 0x111170df
    41dc538e:	0000                	.insn	2, 0x0000
    41dc5390:	74df 1111 0000      	.insn	6, 0x111174df
    41dc5396:	0000                	.insn	2, 0x0000
    41dc5398:	78df 1111 0000      	.insn	6, 0x111178df
    41dc539e:	0000                	.insn	2, 0x0000
    41dc53a0:	7cdf 1111 0000      	.insn	6, 0x11117cdf
    41dc53a6:	0000                	.insn	2, 0x0000
    41dc53a8:	80df 1111 0000      	.insn	6, 0x111180df
    41dc53ae:	0000                	.insn	2, 0x0000
    41dc53b0:	84df 1111 0000      	.insn	6, 0x111184df
    41dc53b6:	0000                	.insn	2, 0x0000
    41dc53b8:	88df 1111 0000      	.insn	6, 0x111188df
    41dc53be:	0000                	.insn	2, 0x0000
    41dc53c0:	8cdf 1111 0000      	.insn	6, 0x11118cdf
    41dc53c6:	0000                	.insn	2, 0x0000
    41dc53c8:	90df 1111 0000      	.insn	6, 0x111190df
    41dc53ce:	0000                	.insn	2, 0x0000
    41dc53d0:	94df 1111 0000      	.insn	6, 0x111194df
    41dc53d6:	0000                	.insn	2, 0x0000
    41dc53d8:	98df 1111 0000      	.insn	6, 0x111198df
    41dc53de:	0000                	.insn	2, 0x0000
    41dc53e0:	9cdf 1111 0000      	.insn	6, 0x11119cdf
    41dc53e6:	0000                	.insn	2, 0x0000
    41dc53e8:	a0df 1111 0000      	.insn	6, 0x1111a0df
    41dc53ee:	0000                	.insn	2, 0x0000
    41dc53f0:	a4df 1111 0000      	.insn	6, 0x1111a4df
    41dc53f6:	0000                	.insn	2, 0x0000
    41dc53f8:	a8df 1111 0000      	.insn	6, 0x1111a8df
    41dc53fe:	0000                	.insn	2, 0x0000
    41dc5400:	acdf 1111 0000      	.insn	6, 0x1111acdf
    41dc5406:	0000                	.insn	2, 0x0000
    41dc5408:	b0df 1111 0000      	.insn	6, 0x1111b0df
    41dc540e:	0000                	.insn	2, 0x0000
    41dc5410:	b4df 1111 0000      	.insn	6, 0x1111b4df
    41dc5416:	0000                	.insn	2, 0x0000
    41dc5418:	b8df 1111 0000      	.insn	6, 0x1111b8df
    41dc541e:	0000                	.insn	2, 0x0000
    41dc5420:	bcdf 1111 0000      	.insn	6, 0x1111bcdf
    41dc5426:	0000                	.insn	2, 0x0000
    41dc5428:	c0df 1111 0000      	.insn	6, 0x1111c0df
    41dc542e:	0000                	.insn	2, 0x0000
    41dc5430:	c4df 1111 0000      	.insn	6, 0x1111c4df
    41dc5436:	0000                	.insn	2, 0x0000
    41dc5438:	c8df 1111 0000      	.insn	6, 0x1111c8df
    41dc543e:	0000                	.insn	2, 0x0000
    41dc5440:	ccdf 1111 0000      	.insn	6, 0x1111ccdf
    41dc5446:	0000                	.insn	2, 0x0000
    41dc5448:	d0df 1111 0000      	.insn	6, 0x1111d0df
    41dc544e:	0000                	.insn	2, 0x0000
    41dc5450:	d4df 1111 0000      	.insn	6, 0x1111d4df
    41dc5456:	0000                	.insn	2, 0x0000
    41dc5458:	d8df 1111 0000      	.insn	6, 0x1111d8df
    41dc545e:	0000                	.insn	2, 0x0000
    41dc5460:	dcdf 1111 0000      	.insn	6, 0x1111dcdf
    41dc5466:	0000                	.insn	2, 0x0000
    41dc5468:	e0df 1111 0000      	.insn	6, 0x1111e0df
    41dc546e:	0000                	.insn	2, 0x0000
    41dc5470:	e4df 1111 0000      	.insn	6, 0x1111e4df
    41dc5476:	0000                	.insn	2, 0x0000
    41dc5478:	e8df 1111 0000      	.insn	6, 0x1111e8df
    41dc547e:	0000                	.insn	2, 0x0000
    41dc5480:	ecdf 1111 0000      	.insn	6, 0x1111ecdf
    41dc5486:	0000                	.insn	2, 0x0000
    41dc5488:	f0df 1111 0000      	.insn	6, 0x1111f0df
    41dc548e:	0000                	.insn	2, 0x0000
    41dc5490:	f4df 1111 0000      	.insn	6, 0x1111f4df
    41dc5496:	0000                	.insn	2, 0x0000
    41dc5498:	f8df 1111 0000      	.insn	6, 0x1111f8df
    41dc549e:	0000                	.insn	2, 0x0000
    41dc54a0:	fcdf 1111 0000      	.insn	6, 0x1111fcdf
    41dc54a6:	0000                	.insn	2, 0x0000
    41dc54a8:	111200cf          	fnmadd.s	f1,f4,f17,f2,rne
    41dc54ac:	0000                	.insn	2, 0x0000
    41dc54ae:	0000                	.insn	2, 0x0000
    41dc54b0:	111204cf          	fnmadd.s	f9,f4,f17,f2,rne
    41dc54b4:	0000                	.insn	2, 0x0000
    41dc54b6:	0000                	.insn	2, 0x0000
    41dc54b8:	111208cf          	fnmadd.s	f17,f4,f17,f2,rne
    41dc54bc:	0000                	.insn	2, 0x0000
    41dc54be:	0000                	.insn	2, 0x0000
    41dc54c0:	11120ccf          	fnmadd.s	f25,f4,f17,f2,rne
    41dc54c4:	0000                	.insn	2, 0x0000
    41dc54c6:	0000                	.insn	2, 0x0000
    41dc54c8:	111210cf          	fnmadd.s	f1,f4,f17,f2,rtz
    41dc54cc:	0000                	.insn	2, 0x0000
    41dc54ce:	0000                	.insn	2, 0x0000
    41dc54d0:	111214cf          	fnmadd.s	f9,f4,f17,f2,rtz
    41dc54d4:	0000                	.insn	2, 0x0000
    41dc54d6:	0000                	.insn	2, 0x0000
    41dc54d8:	111218cf          	fnmadd.s	f17,f4,f17,f2,rtz
    41dc54dc:	0000                	.insn	2, 0x0000
    41dc54de:	0000                	.insn	2, 0x0000
    41dc54e0:	11121ccf          	fnmadd.s	f25,f4,f17,f2,rtz
    41dc54e4:	0000                	.insn	2, 0x0000
    41dc54e6:	0000                	.insn	2, 0x0000
    41dc54e8:	111220cf          	fnmadd.s	f1,f4,f17,f2,rdn
    41dc54ec:	0000                	.insn	2, 0x0000
    41dc54ee:	0000                	.insn	2, 0x0000
    41dc54f0:	111224cf          	fnmadd.s	f9,f4,f17,f2,rdn
    41dc54f4:	0000                	.insn	2, 0x0000
    41dc54f6:	0000                	.insn	2, 0x0000
    41dc54f8:	111228cf          	fnmadd.s	f17,f4,f17,f2,rdn
    41dc54fc:	0000                	.insn	2, 0x0000
    41dc54fe:	0000                	.insn	2, 0x0000
    41dc5500:	11122ccf          	fnmadd.s	f25,f4,f17,f2,rdn
    41dc5504:	0000                	.insn	2, 0x0000
    41dc5506:	0000                	.insn	2, 0x0000
    41dc5508:	111230cf          	fnmadd.s	f1,f4,f17,f2,rup
    41dc550c:	0000                	.insn	2, 0x0000
    41dc550e:	0000                	.insn	2, 0x0000
    41dc5510:	111234cf          	fnmadd.s	f9,f4,f17,f2,rup
    41dc5514:	0000                	.insn	2, 0x0000
    41dc5516:	0000                	.insn	2, 0x0000
    41dc5518:	111238cf          	fnmadd.s	f17,f4,f17,f2,rup
    41dc551c:	0000                	.insn	2, 0x0000
    41dc551e:	0000                	.insn	2, 0x0000
    41dc5520:	11123ccf          	fnmadd.s	f25,f4,f17,f2,rup
    41dc5524:	0000                	.insn	2, 0x0000
    41dc5526:	0000                	.insn	2, 0x0000
    41dc5528:	111240cf          	fnmadd.s	f1,f4,f17,f2,rmm
    41dc552c:	0000                	.insn	2, 0x0000
    41dc552e:	0000                	.insn	2, 0x0000
    41dc5530:	111244cf          	fnmadd.s	f9,f4,f17,f2,rmm
    41dc5534:	0000                	.insn	2, 0x0000
    41dc5536:	0000                	.insn	2, 0x0000
    41dc5538:	111248cf          	fnmadd.s	f17,f4,f17,f2,rmm
    41dc553c:	0000                	.insn	2, 0x0000
    41dc553e:	0000                	.insn	2, 0x0000
    41dc5540:	11124ccf          	fnmadd.s	f25,f4,f17,f2,rmm
    41dc5544:	0000                	.insn	2, 0x0000
    41dc5546:	0000                	.insn	2, 0x0000
    41dc5548:	111250cf          	fnmadd.s	f1,f4,f17,f2,unknown
    41dc554c:	0000                	.insn	2, 0x0000
    41dc554e:	0000                	.insn	2, 0x0000
    41dc5550:	111254cf          	fnmadd.s	f9,f4,f17,f2,unknown
    41dc5554:	0000                	.insn	2, 0x0000
    41dc5556:	0000                	.insn	2, 0x0000
    41dc5558:	111258cf          	fnmadd.s	f17,f4,f17,f2,unknown
    41dc555c:	0000                	.insn	2, 0x0000
    41dc555e:	0000                	.insn	2, 0x0000
    41dc5560:	11125ccf          	fnmadd.s	f25,f4,f17,f2,unknown
    41dc5564:	0000                	.insn	2, 0x0000
    41dc5566:	0000                	.insn	2, 0x0000
    41dc5568:	111260cf          	fnmadd.s	f1,f4,f17,f2,unknown
    41dc556c:	0000                	.insn	2, 0x0000
    41dc556e:	0000                	.insn	2, 0x0000
    41dc5570:	111264cf          	fnmadd.s	f9,f4,f17,f2,unknown
    41dc5574:	0000                	.insn	2, 0x0000
    41dc5576:	0000                	.insn	2, 0x0000
    41dc5578:	111268cf          	fnmadd.s	f17,f4,f17,f2,unknown
    41dc557c:	0000                	.insn	2, 0x0000
    41dc557e:	0000                	.insn	2, 0x0000
    41dc5580:	11126ccf          	fnmadd.s	f25,f4,f17,f2,unknown
    41dc5584:	0000                	.insn	2, 0x0000
    41dc5586:	0000                	.insn	2, 0x0000
    41dc5588:	111270cf          	fnmadd.s	f1,f4,f17,f2
    41dc558c:	0000                	.insn	2, 0x0000
    41dc558e:	0000                	.insn	2, 0x0000
    41dc5590:	111274cf          	fnmadd.s	f9,f4,f17,f2
    41dc5594:	0000                	.insn	2, 0x0000
    41dc5596:	0000                	.insn	2, 0x0000
    41dc5598:	111278cf          	fnmadd.s	f17,f4,f17,f2
    41dc559c:	0000                	.insn	2, 0x0000
    41dc559e:	0000                	.insn	2, 0x0000
    41dc55a0:	11127ccf          	fnmadd.s	f25,f4,f17,f2
    41dc55a4:	0000                	.insn	2, 0x0000
    41dc55a6:	0000                	.insn	2, 0x0000
    41dc55a8:	111280cf          	fnmadd.s	f1,f5,f17,f2,rne
    41dc55ac:	0000                	.insn	2, 0x0000
    41dc55ae:	0000                	.insn	2, 0x0000
    41dc55b0:	111284cf          	fnmadd.s	f9,f5,f17,f2,rne
    41dc55b4:	0000                	.insn	2, 0x0000
    41dc55b6:	0000                	.insn	2, 0x0000
    41dc55b8:	111288cf          	fnmadd.s	f17,f5,f17,f2,rne
    41dc55bc:	0000                	.insn	2, 0x0000
    41dc55be:	0000                	.insn	2, 0x0000
    41dc55c0:	11128ccf          	fnmadd.s	f25,f5,f17,f2,rne
    41dc55c4:	0000                	.insn	2, 0x0000
    41dc55c6:	0000                	.insn	2, 0x0000
    41dc55c8:	111290cf          	fnmadd.s	f1,f5,f17,f2,rtz
    41dc55cc:	0000                	.insn	2, 0x0000
    41dc55ce:	0000                	.insn	2, 0x0000
    41dc55d0:	111294cf          	fnmadd.s	f9,f5,f17,f2,rtz
    41dc55d4:	0000                	.insn	2, 0x0000
    41dc55d6:	0000                	.insn	2, 0x0000
    41dc55d8:	111298cf          	fnmadd.s	f17,f5,f17,f2,rtz
    41dc55dc:	0000                	.insn	2, 0x0000
    41dc55de:	0000                	.insn	2, 0x0000
    41dc55e0:	11129ccf          	fnmadd.s	f25,f5,f17,f2,rtz
    41dc55e4:	0000                	.insn	2, 0x0000
    41dc55e6:	0000                	.insn	2, 0x0000
    41dc55e8:	1112a0cf          	fnmadd.s	f1,f5,f17,f2,rdn
    41dc55ec:	0000                	.insn	2, 0x0000
    41dc55ee:	0000                	.insn	2, 0x0000
    41dc55f0:	1112a4cf          	fnmadd.s	f9,f5,f17,f2,rdn
    41dc55f4:	0000                	.insn	2, 0x0000
    41dc55f6:	0000                	.insn	2, 0x0000
    41dc55f8:	1112a8cf          	fnmadd.s	f17,f5,f17,f2,rdn
    41dc55fc:	0000                	.insn	2, 0x0000
    41dc55fe:	0000                	.insn	2, 0x0000
    41dc5600:	1112accf          	fnmadd.s	f25,f5,f17,f2,rdn
    41dc5604:	0000                	.insn	2, 0x0000
    41dc5606:	0000                	.insn	2, 0x0000
    41dc5608:	1112b0cf          	fnmadd.s	f1,f5,f17,f2,rup
    41dc560c:	0000                	.insn	2, 0x0000
    41dc560e:	0000                	.insn	2, 0x0000
    41dc5610:	1112b4cf          	fnmadd.s	f9,f5,f17,f2,rup
    41dc5614:	0000                	.insn	2, 0x0000
    41dc5616:	0000                	.insn	2, 0x0000
    41dc5618:	1112b8cf          	fnmadd.s	f17,f5,f17,f2,rup
    41dc561c:	0000                	.insn	2, 0x0000
    41dc561e:	0000                	.insn	2, 0x0000
    41dc5620:	1112bccf          	fnmadd.s	f25,f5,f17,f2,rup
    41dc5624:	0000                	.insn	2, 0x0000
    41dc5626:	0000                	.insn	2, 0x0000
    41dc5628:	1112c0cf          	fnmadd.s	f1,f5,f17,f2,rmm
    41dc562c:	0000                	.insn	2, 0x0000
    41dc562e:	0000                	.insn	2, 0x0000
    41dc5630:	1112c4cf          	fnmadd.s	f9,f5,f17,f2,rmm
    41dc5634:	0000                	.insn	2, 0x0000
    41dc5636:	0000                	.insn	2, 0x0000
    41dc5638:	1112c8cf          	fnmadd.s	f17,f5,f17,f2,rmm
    41dc563c:	0000                	.insn	2, 0x0000
    41dc563e:	0000                	.insn	2, 0x0000
    41dc5640:	1112cccf          	fnmadd.s	f25,f5,f17,f2,rmm
    41dc5644:	0000                	.insn	2, 0x0000
    41dc5646:	0000                	.insn	2, 0x0000
    41dc5648:	1112d0cf          	fnmadd.s	f1,f5,f17,f2,unknown
    41dc564c:	0000                	.insn	2, 0x0000
    41dc564e:	0000                	.insn	2, 0x0000
    41dc5650:	1112d4cf          	fnmadd.s	f9,f5,f17,f2,unknown
    41dc5654:	0000                	.insn	2, 0x0000
    41dc5656:	0000                	.insn	2, 0x0000
    41dc5658:	1112d8cf          	fnmadd.s	f17,f5,f17,f2,unknown
    41dc565c:	0000                	.insn	2, 0x0000
    41dc565e:	0000                	.insn	2, 0x0000
    41dc5660:	1112dccf          	fnmadd.s	f25,f5,f17,f2,unknown
    41dc5664:	0000                	.insn	2, 0x0000
    41dc5666:	0000                	.insn	2, 0x0000
    41dc5668:	1112e0cf          	fnmadd.s	f1,f5,f17,f2,unknown
    41dc566c:	0000                	.insn	2, 0x0000
    41dc566e:	0000                	.insn	2, 0x0000
    41dc5670:	1112e4cf          	fnmadd.s	f9,f5,f17,f2,unknown
    41dc5674:	0000                	.insn	2, 0x0000
    41dc5676:	0000                	.insn	2, 0x0000
    41dc5678:	1112e8cf          	fnmadd.s	f17,f5,f17,f2,unknown
    41dc567c:	0000                	.insn	2, 0x0000
    41dc567e:	0000                	.insn	2, 0x0000
    41dc5680:	1112eccf          	fnmadd.s	f25,f5,f17,f2,unknown
    41dc5684:	0000                	.insn	2, 0x0000
    41dc5686:	0000                	.insn	2, 0x0000
    41dc5688:	1112f0cf          	fnmadd.s	f1,f5,f17,f2
    41dc568c:	0000                	.insn	2, 0x0000
    41dc568e:	0000                	.insn	2, 0x0000
    41dc5690:	1112f4cf          	fnmadd.s	f9,f5,f17,f2
    41dc5694:	0000                	.insn	2, 0x0000
    41dc5696:	0000                	.insn	2, 0x0000
    41dc5698:	1112f8cf          	fnmadd.s	f17,f5,f17,f2
    41dc569c:	0000                	.insn	2, 0x0000
    41dc569e:	0000                	.insn	2, 0x0000
    41dc56a0:	1112fccf          	fnmadd.s	f25,f5,f17,f2
    41dc56a4:	0000                	.insn	2, 0x0000
    41dc56a6:	0000                	.insn	2, 0x0000
    41dc56a8:	111300cf          	fnmadd.s	f1,f6,f17,f2,rne
    41dc56ac:	0000                	.insn	2, 0x0000
    41dc56ae:	0000                	.insn	2, 0x0000
    41dc56b0:	111304cf          	fnmadd.s	f9,f6,f17,f2,rne
    41dc56b4:	0000                	.insn	2, 0x0000
    41dc56b6:	0000                	.insn	2, 0x0000
    41dc56b8:	111308cf          	fnmadd.s	f17,f6,f17,f2,rne
    41dc56bc:	0000                	.insn	2, 0x0000
    41dc56be:	0000                	.insn	2, 0x0000
    41dc56c0:	11130ccf          	fnmadd.s	f25,f6,f17,f2,rne
    41dc56c4:	0000                	.insn	2, 0x0000
    41dc56c6:	0000                	.insn	2, 0x0000
    41dc56c8:	111310cf          	fnmadd.s	f1,f6,f17,f2,rtz
    41dc56cc:	0000                	.insn	2, 0x0000
    41dc56ce:	0000                	.insn	2, 0x0000
    41dc56d0:	111314cf          	fnmadd.s	f9,f6,f17,f2,rtz
    41dc56d4:	0000                	.insn	2, 0x0000
    41dc56d6:	0000                	.insn	2, 0x0000
    41dc56d8:	111318cf          	fnmadd.s	f17,f6,f17,f2,rtz
    41dc56dc:	0000                	.insn	2, 0x0000
    41dc56de:	0000                	.insn	2, 0x0000
    41dc56e0:	11131ccf          	fnmadd.s	f25,f6,f17,f2,rtz
    41dc56e4:	0000                	.insn	2, 0x0000
    41dc56e6:	0000                	.insn	2, 0x0000
    41dc56e8:	111320cf          	fnmadd.s	f1,f6,f17,f2,rdn
    41dc56ec:	0000                	.insn	2, 0x0000
    41dc56ee:	0000                	.insn	2, 0x0000
    41dc56f0:	111324cf          	fnmadd.s	f9,f6,f17,f2,rdn
    41dc56f4:	0000                	.insn	2, 0x0000
    41dc56f6:	0000                	.insn	2, 0x0000
    41dc56f8:	111328cf          	fnmadd.s	f17,f6,f17,f2,rdn
    41dc56fc:	0000                	.insn	2, 0x0000
    41dc56fe:	0000                	.insn	2, 0x0000
    41dc5700:	11132ccf          	fnmadd.s	f25,f6,f17,f2,rdn
    41dc5704:	0000                	.insn	2, 0x0000
    41dc5706:	0000                	.insn	2, 0x0000
    41dc5708:	111330cf          	fnmadd.s	f1,f6,f17,f2,rup
    41dc570c:	0000                	.insn	2, 0x0000
    41dc570e:	0000                	.insn	2, 0x0000
    41dc5710:	111334cf          	fnmadd.s	f9,f6,f17,f2,rup
    41dc5714:	0000                	.insn	2, 0x0000
    41dc5716:	0000                	.insn	2, 0x0000
    41dc5718:	111338cf          	fnmadd.s	f17,f6,f17,f2,rup
    41dc571c:	0000                	.insn	2, 0x0000
    41dc571e:	0000                	.insn	2, 0x0000
    41dc5720:	11133ccf          	fnmadd.s	f25,f6,f17,f2,rup
    41dc5724:	0000                	.insn	2, 0x0000
    41dc5726:	0000                	.insn	2, 0x0000
    41dc5728:	111340cf          	fnmadd.s	f1,f6,f17,f2,rmm
    41dc572c:	0000                	.insn	2, 0x0000
    41dc572e:	0000                	.insn	2, 0x0000
    41dc5730:	111344cf          	fnmadd.s	f9,f6,f17,f2,rmm
    41dc5734:	0000                	.insn	2, 0x0000
    41dc5736:	0000                	.insn	2, 0x0000
    41dc5738:	111348cf          	fnmadd.s	f17,f6,f17,f2,rmm
    41dc573c:	0000                	.insn	2, 0x0000
    41dc573e:	0000                	.insn	2, 0x0000
    41dc5740:	11134ccf          	fnmadd.s	f25,f6,f17,f2,rmm
    41dc5744:	0000                	.insn	2, 0x0000
    41dc5746:	0000                	.insn	2, 0x0000
    41dc5748:	111350cf          	fnmadd.s	f1,f6,f17,f2,unknown
    41dc574c:	0000                	.insn	2, 0x0000
    41dc574e:	0000                	.insn	2, 0x0000
    41dc5750:	111354cf          	fnmadd.s	f9,f6,f17,f2,unknown
    41dc5754:	0000                	.insn	2, 0x0000
    41dc5756:	0000                	.insn	2, 0x0000
    41dc5758:	111358cf          	fnmadd.s	f17,f6,f17,f2,unknown
    41dc575c:	0000                	.insn	2, 0x0000
    41dc575e:	0000                	.insn	2, 0x0000
    41dc5760:	11135ccf          	fnmadd.s	f25,f6,f17,f2,unknown
    41dc5764:	0000                	.insn	2, 0x0000
    41dc5766:	0000                	.insn	2, 0x0000
    41dc5768:	111360cf          	fnmadd.s	f1,f6,f17,f2,unknown
    41dc576c:	0000                	.insn	2, 0x0000
    41dc576e:	0000                	.insn	2, 0x0000
    41dc5770:	111364cf          	fnmadd.s	f9,f6,f17,f2,unknown
    41dc5774:	0000                	.insn	2, 0x0000
    41dc5776:	0000                	.insn	2, 0x0000
    41dc5778:	111368cf          	fnmadd.s	f17,f6,f17,f2,unknown
    41dc577c:	0000                	.insn	2, 0x0000
    41dc577e:	0000                	.insn	2, 0x0000
    41dc5780:	11136ccf          	fnmadd.s	f25,f6,f17,f2,unknown
    41dc5784:	0000                	.insn	2, 0x0000
    41dc5786:	0000                	.insn	2, 0x0000
    41dc5788:	111370cf          	fnmadd.s	f1,f6,f17,f2
    41dc578c:	0000                	.insn	2, 0x0000
    41dc578e:	0000                	.insn	2, 0x0000
    41dc5790:	111374cf          	fnmadd.s	f9,f6,f17,f2
    41dc5794:	0000                	.insn	2, 0x0000
    41dc5796:	0000                	.insn	2, 0x0000
    41dc5798:	111378cf          	fnmadd.s	f17,f6,f17,f2
    41dc579c:	0000                	.insn	2, 0x0000
    41dc579e:	0000                	.insn	2, 0x0000
    41dc57a0:	11137ccf          	fnmadd.s	f25,f6,f17,f2
    41dc57a4:	0000                	.insn	2, 0x0000
    41dc57a6:	0000                	.insn	2, 0x0000
    41dc57a8:	111380cf          	fnmadd.s	f1,f7,f17,f2,rne
    41dc57ac:	0000                	.insn	2, 0x0000
    41dc57ae:	0000                	.insn	2, 0x0000
    41dc57b0:	111384cf          	fnmadd.s	f9,f7,f17,f2,rne
    41dc57b4:	0000                	.insn	2, 0x0000
    41dc57b6:	0000                	.insn	2, 0x0000
    41dc57b8:	111388cf          	fnmadd.s	f17,f7,f17,f2,rne
    41dc57bc:	0000                	.insn	2, 0x0000
    41dc57be:	0000                	.insn	2, 0x0000
    41dc57c0:	11138ccf          	fnmadd.s	f25,f7,f17,f2,rne
    41dc57c4:	0000                	.insn	2, 0x0000
    41dc57c6:	0000                	.insn	2, 0x0000
    41dc57c8:	111390cf          	fnmadd.s	f1,f7,f17,f2,rtz
    41dc57cc:	0000                	.insn	2, 0x0000
    41dc57ce:	0000                	.insn	2, 0x0000
    41dc57d0:	111394cf          	fnmadd.s	f9,f7,f17,f2,rtz
    41dc57d4:	0000                	.insn	2, 0x0000
    41dc57d6:	0000                	.insn	2, 0x0000
    41dc57d8:	111398cf          	fnmadd.s	f17,f7,f17,f2,rtz
    41dc57dc:	0000                	.insn	2, 0x0000
    41dc57de:	0000                	.insn	2, 0x0000
    41dc57e0:	11139ccf          	fnmadd.s	f25,f7,f17,f2,rtz
    41dc57e4:	0000                	.insn	2, 0x0000
    41dc57e6:	0000                	.insn	2, 0x0000
    41dc57e8:	1113a0cf          	fnmadd.s	f1,f7,f17,f2,rdn
    41dc57ec:	0000                	.insn	2, 0x0000
    41dc57ee:	0000                	.insn	2, 0x0000
    41dc57f0:	1113a4cf          	fnmadd.s	f9,f7,f17,f2,rdn
    41dc57f4:	0000                	.insn	2, 0x0000
    41dc57f6:	0000                	.insn	2, 0x0000
    41dc57f8:	1113a8cf          	fnmadd.s	f17,f7,f17,f2,rdn
    41dc57fc:	0000                	.insn	2, 0x0000
    41dc57fe:	0000                	.insn	2, 0x0000
    41dc5800:	1113accf          	fnmadd.s	f25,f7,f17,f2,rdn
    41dc5804:	0000                	.insn	2, 0x0000
    41dc5806:	0000                	.insn	2, 0x0000
    41dc5808:	1113b0cf          	fnmadd.s	f1,f7,f17,f2,rup
    41dc580c:	0000                	.insn	2, 0x0000
    41dc580e:	0000                	.insn	2, 0x0000
    41dc5810:	1113b4cf          	fnmadd.s	f9,f7,f17,f2,rup
    41dc5814:	0000                	.insn	2, 0x0000
    41dc5816:	0000                	.insn	2, 0x0000
    41dc5818:	1113b8cf          	fnmadd.s	f17,f7,f17,f2,rup
    41dc581c:	0000                	.insn	2, 0x0000
    41dc581e:	0000                	.insn	2, 0x0000
    41dc5820:	1113bccf          	fnmadd.s	f25,f7,f17,f2,rup
    41dc5824:	0000                	.insn	2, 0x0000
    41dc5826:	0000                	.insn	2, 0x0000
    41dc5828:	1113c0cf          	fnmadd.s	f1,f7,f17,f2,rmm
    41dc582c:	0000                	.insn	2, 0x0000
    41dc582e:	0000                	.insn	2, 0x0000
    41dc5830:	1113c4cf          	fnmadd.s	f9,f7,f17,f2,rmm
    41dc5834:	0000                	.insn	2, 0x0000
    41dc5836:	0000                	.insn	2, 0x0000
    41dc5838:	1113c8cf          	fnmadd.s	f17,f7,f17,f2,rmm
    41dc583c:	0000                	.insn	2, 0x0000
    41dc583e:	0000                	.insn	2, 0x0000
    41dc5840:	1113cccf          	fnmadd.s	f25,f7,f17,f2,rmm
    41dc5844:	0000                	.insn	2, 0x0000
    41dc5846:	0000                	.insn	2, 0x0000
    41dc5848:	1113d0cf          	fnmadd.s	f1,f7,f17,f2,unknown
    41dc584c:	0000                	.insn	2, 0x0000
    41dc584e:	0000                	.insn	2, 0x0000
    41dc5850:	1113d4cf          	fnmadd.s	f9,f7,f17,f2,unknown
    41dc5854:	0000                	.insn	2, 0x0000
    41dc5856:	0000                	.insn	2, 0x0000
    41dc5858:	1113d8cf          	fnmadd.s	f17,f7,f17,f2,unknown
    41dc585c:	0000                	.insn	2, 0x0000
    41dc585e:	0000                	.insn	2, 0x0000
    41dc5860:	1113dccf          	fnmadd.s	f25,f7,f17,f2,unknown
    41dc5864:	0000                	.insn	2, 0x0000
    41dc5866:	0000                	.insn	2, 0x0000
    41dc5868:	1113e0cf          	fnmadd.s	f1,f7,f17,f2,unknown
    41dc586c:	0000                	.insn	2, 0x0000
    41dc586e:	0000                	.insn	2, 0x0000
    41dc5870:	1113e4cf          	fnmadd.s	f9,f7,f17,f2,unknown
    41dc5874:	0000                	.insn	2, 0x0000
    41dc5876:	0000                	.insn	2, 0x0000
    41dc5878:	1113e8cf          	fnmadd.s	f17,f7,f17,f2,unknown
    41dc587c:	0000                	.insn	2, 0x0000
    41dc587e:	0000                	.insn	2, 0x0000
    41dc5880:	1113eccf          	fnmadd.s	f25,f7,f17,f2,unknown
    41dc5884:	0000                	.insn	2, 0x0000
    41dc5886:	0000                	.insn	2, 0x0000
    41dc5888:	1113f0cf          	fnmadd.s	f1,f7,f17,f2
    41dc588c:	0000                	.insn	2, 0x0000
    41dc588e:	0000                	.insn	2, 0x0000
    41dc5890:	1113f4cf          	fnmadd.s	f9,f7,f17,f2
    41dc5894:	0000                	.insn	2, 0x0000
    41dc5896:	0000                	.insn	2, 0x0000
    41dc5898:	1113f8cf          	fnmadd.s	f17,f7,f17,f2
    41dc589c:	0000                	.insn	2, 0x0000
    41dc589e:	0000                	.insn	2, 0x0000
    41dc58a0:	1113fccf          	fnmadd.s	f25,f7,f17,f2
    41dc58a4:	0000                	.insn	2, 0x0000
    41dc58a6:	0000                	.insn	2, 0x0000
    41dc58a8:	00df 1114 0000      	.insn	6, 0x111400df
    41dc58ae:	0000                	.insn	2, 0x0000
    41dc58b0:	04df 1114 0000      	.insn	6, 0x111404df
    41dc58b6:	0000                	.insn	2, 0x0000
    41dc58b8:	08df 1114 0000      	.insn	6, 0x111408df
    41dc58be:	0000                	.insn	2, 0x0000
    41dc58c0:	0cdf 1114 0000      	.insn	6, 0x11140cdf
    41dc58c6:	0000                	.insn	2, 0x0000
    41dc58c8:	10df 1114 0000      	.insn	6, 0x111410df
    41dc58ce:	0000                	.insn	2, 0x0000
    41dc58d0:	14df 1114 0000      	.insn	6, 0x111414df
    41dc58d6:	0000                	.insn	2, 0x0000
    41dc58d8:	18df 1114 0000      	.insn	6, 0x111418df
    41dc58de:	0000                	.insn	2, 0x0000
    41dc58e0:	1cdf 1114 0000      	.insn	6, 0x11141cdf
    41dc58e6:	0000                	.insn	2, 0x0000
    41dc58e8:	20df 1114 0000      	.insn	6, 0x111420df
    41dc58ee:	0000                	.insn	2, 0x0000
    41dc58f0:	24df 1114 0000      	.insn	6, 0x111424df
    41dc58f6:	0000                	.insn	2, 0x0000
    41dc58f8:	28df 1114 0000      	.insn	6, 0x111428df
    41dc58fe:	0000                	.insn	2, 0x0000
    41dc5900:	2cdf 1114 0000      	.insn	6, 0x11142cdf
    41dc5906:	0000                	.insn	2, 0x0000
    41dc5908:	30df 1114 0000      	.insn	6, 0x111430df
    41dc590e:	0000                	.insn	2, 0x0000
    41dc5910:	34df 1114 0000      	.insn	6, 0x111434df
    41dc5916:	0000                	.insn	2, 0x0000
    41dc5918:	38df 1114 0000      	.insn	6, 0x111438df
    41dc591e:	0000                	.insn	2, 0x0000
    41dc5920:	3cdf 1114 0000      	.insn	6, 0x11143cdf
    41dc5926:	0000                	.insn	2, 0x0000
    41dc5928:	40df 1114 0000      	.insn	6, 0x111440df
    41dc592e:	0000                	.insn	2, 0x0000
    41dc5930:	44df 1114 0000      	.insn	6, 0x111444df
    41dc5936:	0000                	.insn	2, 0x0000
    41dc5938:	48df 1114 0000      	.insn	6, 0x111448df
    41dc593e:	0000                	.insn	2, 0x0000
    41dc5940:	4cdf 1114 0000      	.insn	6, 0x11144cdf
    41dc5946:	0000                	.insn	2, 0x0000
    41dc5948:	50df 1114 0000      	.insn	6, 0x111450df
    41dc594e:	0000                	.insn	2, 0x0000
    41dc5950:	54df 1114 0000      	.insn	6, 0x111454df
    41dc5956:	0000                	.insn	2, 0x0000
    41dc5958:	58df 1114 0000      	.insn	6, 0x111458df
    41dc595e:	0000                	.insn	2, 0x0000
    41dc5960:	5cdf 1114 0000      	.insn	6, 0x11145cdf
    41dc5966:	0000                	.insn	2, 0x0000
    41dc5968:	60df 1114 0000      	.insn	6, 0x111460df
    41dc596e:	0000                	.insn	2, 0x0000
    41dc5970:	64df 1114 0000      	.insn	6, 0x111464df
    41dc5976:	0000                	.insn	2, 0x0000
    41dc5978:	68df 1114 0000      	.insn	6, 0x111468df
    41dc597e:	0000                	.insn	2, 0x0000
    41dc5980:	6cdf 1114 0000      	.insn	6, 0x11146cdf
    41dc5986:	0000                	.insn	2, 0x0000
    41dc5988:	70df 1114 0000      	.insn	6, 0x111470df
    41dc598e:	0000                	.insn	2, 0x0000
    41dc5990:	74df 1114 0000      	.insn	6, 0x111474df
    41dc5996:	0000                	.insn	2, 0x0000
    41dc5998:	78df 1114 0000      	.insn	6, 0x111478df
    41dc599e:	0000                	.insn	2, 0x0000
    41dc59a0:	7cdf 1114 0000      	.insn	6, 0x11147cdf
    41dc59a6:	0000                	.insn	2, 0x0000
    41dc59a8:	80df 1114 0000      	.insn	6, 0x111480df
    41dc59ae:	0000                	.insn	2, 0x0000
    41dc59b0:	84df 1114 0000      	.insn	6, 0x111484df
    41dc59b6:	0000                	.insn	2, 0x0000
    41dc59b8:	88df 1114 0000      	.insn	6, 0x111488df
    41dc59be:	0000                	.insn	2, 0x0000
    41dc59c0:	8cdf 1114 0000      	.insn	6, 0x11148cdf
    41dc59c6:	0000                	.insn	2, 0x0000
    41dc59c8:	90df 1114 0000      	.insn	6, 0x111490df
    41dc59ce:	0000                	.insn	2, 0x0000
    41dc59d0:	94df 1114 0000      	.insn	6, 0x111494df
    41dc59d6:	0000                	.insn	2, 0x0000
    41dc59d8:	98df 1114 0000      	.insn	6, 0x111498df
    41dc59de:	0000                	.insn	2, 0x0000
    41dc59e0:	9cdf 1114 0000      	.insn	6, 0x11149cdf
    41dc59e6:	0000                	.insn	2, 0x0000
    41dc59e8:	a0df 1114 0000      	.insn	6, 0x1114a0df
    41dc59ee:	0000                	.insn	2, 0x0000
    41dc59f0:	a4df 1114 0000      	.insn	6, 0x1114a4df
    41dc59f6:	0000                	.insn	2, 0x0000
    41dc59f8:	a8df 1114 0000      	.insn	6, 0x1114a8df
    41dc59fe:	0000                	.insn	2, 0x0000
    41dc5a00:	acdf 1114 0000      	.insn	6, 0x1114acdf
    41dc5a06:	0000                	.insn	2, 0x0000
    41dc5a08:	b0df 1114 0000      	.insn	6, 0x1114b0df
    41dc5a0e:	0000                	.insn	2, 0x0000
    41dc5a10:	b4df 1114 0000      	.insn	6, 0x1114b4df
    41dc5a16:	0000                	.insn	2, 0x0000
    41dc5a18:	b8df 1114 0000      	.insn	6, 0x1114b8df
    41dc5a1e:	0000                	.insn	2, 0x0000
    41dc5a20:	bcdf 1114 0000      	.insn	6, 0x1114bcdf
    41dc5a26:	0000                	.insn	2, 0x0000
    41dc5a28:	c0df 1114 0000      	.insn	6, 0x1114c0df
    41dc5a2e:	0000                	.insn	2, 0x0000
    41dc5a30:	c4df 1114 0000      	.insn	6, 0x1114c4df
    41dc5a36:	0000                	.insn	2, 0x0000
    41dc5a38:	c8df 1114 0000      	.insn	6, 0x1114c8df
    41dc5a3e:	0000                	.insn	2, 0x0000
    41dc5a40:	ccdf 1114 0000      	.insn	6, 0x1114ccdf
    41dc5a46:	0000                	.insn	2, 0x0000
    41dc5a48:	d0df 1114 0000      	.insn	6, 0x1114d0df
    41dc5a4e:	0000                	.insn	2, 0x0000
    41dc5a50:	d4df 1114 0000      	.insn	6, 0x1114d4df
    41dc5a56:	0000                	.insn	2, 0x0000
    41dc5a58:	d8df 1114 0000      	.insn	6, 0x1114d8df
    41dc5a5e:	0000                	.insn	2, 0x0000
    41dc5a60:	dcdf 1114 0000      	.insn	6, 0x1114dcdf
    41dc5a66:	0000                	.insn	2, 0x0000
    41dc5a68:	e0df 1114 0000      	.insn	6, 0x1114e0df
    41dc5a6e:	0000                	.insn	2, 0x0000
    41dc5a70:	e4df 1114 0000      	.insn	6, 0x1114e4df
    41dc5a76:	0000                	.insn	2, 0x0000
    41dc5a78:	e8df 1114 0000      	.insn	6, 0x1114e8df
    41dc5a7e:	0000                	.insn	2, 0x0000
    41dc5a80:	ecdf 1114 0000      	.insn	6, 0x1114ecdf
    41dc5a86:	0000                	.insn	2, 0x0000
    41dc5a88:	f0df 1114 0000      	.insn	6, 0x1114f0df
    41dc5a8e:	0000                	.insn	2, 0x0000
    41dc5a90:	f4df 1114 0000      	.insn	6, 0x1114f4df
    41dc5a96:	0000                	.insn	2, 0x0000
    41dc5a98:	f8df 1114 0000      	.insn	6, 0x1114f8df
    41dc5a9e:	0000                	.insn	2, 0x0000
    41dc5aa0:	fcdf 1114 0000      	.insn	6, 0x1114fcdf
    41dc5aa6:	0000                	.insn	2, 0x0000
    41dc5aa8:	00df 1115 0000      	.insn	6, 0x111500df
    41dc5aae:	0000                	.insn	2, 0x0000
    41dc5ab0:	04df 1115 0000      	.insn	6, 0x111504df
    41dc5ab6:	0000                	.insn	2, 0x0000
    41dc5ab8:	08df 1115 0000      	.insn	6, 0x111508df
    41dc5abe:	0000                	.insn	2, 0x0000
    41dc5ac0:	0cdf 1115 0000      	.insn	6, 0x11150cdf
    41dc5ac6:	0000                	.insn	2, 0x0000
    41dc5ac8:	10df 1115 0000      	.insn	6, 0x111510df
    41dc5ace:	0000                	.insn	2, 0x0000
    41dc5ad0:	14df 1115 0000      	.insn	6, 0x111514df
    41dc5ad6:	0000                	.insn	2, 0x0000
    41dc5ad8:	18df 1115 0000      	.insn	6, 0x111518df
    41dc5ade:	0000                	.insn	2, 0x0000
    41dc5ae0:	1cdf 1115 0000      	.insn	6, 0x11151cdf
    41dc5ae6:	0000                	.insn	2, 0x0000
    41dc5ae8:	20df 1115 0000      	.insn	6, 0x111520df
    41dc5aee:	0000                	.insn	2, 0x0000
    41dc5af0:	24df 1115 0000      	.insn	6, 0x111524df
    41dc5af6:	0000                	.insn	2, 0x0000
    41dc5af8:	28df 1115 0000      	.insn	6, 0x111528df
    41dc5afe:	0000                	.insn	2, 0x0000
    41dc5b00:	2cdf 1115 0000      	.insn	6, 0x11152cdf
    41dc5b06:	0000                	.insn	2, 0x0000
    41dc5b08:	30df 1115 0000      	.insn	6, 0x111530df
    41dc5b0e:	0000                	.insn	2, 0x0000
    41dc5b10:	34df 1115 0000      	.insn	6, 0x111534df
    41dc5b16:	0000                	.insn	2, 0x0000
    41dc5b18:	38df 1115 0000      	.insn	6, 0x111538df
    41dc5b1e:	0000                	.insn	2, 0x0000
    41dc5b20:	3cdf 1115 0000      	.insn	6, 0x11153cdf
    41dc5b26:	0000                	.insn	2, 0x0000
    41dc5b28:	40df 1115 0000      	.insn	6, 0x111540df
    41dc5b2e:	0000                	.insn	2, 0x0000
    41dc5b30:	44df 1115 0000      	.insn	6, 0x111544df
    41dc5b36:	0000                	.insn	2, 0x0000
    41dc5b38:	48df 1115 0000      	.insn	6, 0x111548df
    41dc5b3e:	0000                	.insn	2, 0x0000
    41dc5b40:	4cdf 1115 0000      	.insn	6, 0x11154cdf
    41dc5b46:	0000                	.insn	2, 0x0000
    41dc5b48:	50df 1115 0000      	.insn	6, 0x111550df
    41dc5b4e:	0000                	.insn	2, 0x0000
    41dc5b50:	54df 1115 0000      	.insn	6, 0x111554df
    41dc5b56:	0000                	.insn	2, 0x0000
    41dc5b58:	58df 1115 0000      	.insn	6, 0x111558df
    41dc5b5e:	0000                	.insn	2, 0x0000
    41dc5b60:	5cdf 1115 0000      	.insn	6, 0x11155cdf
    41dc5b66:	0000                	.insn	2, 0x0000
    41dc5b68:	60df 1115 0000      	.insn	6, 0x111560df
    41dc5b6e:	0000                	.insn	2, 0x0000
    41dc5b70:	64df 1115 0000      	.insn	6, 0x111564df
    41dc5b76:	0000                	.insn	2, 0x0000
    41dc5b78:	68df 1115 0000      	.insn	6, 0x111568df
    41dc5b7e:	0000                	.insn	2, 0x0000
    41dc5b80:	6cdf 1115 0000      	.insn	6, 0x11156cdf
    41dc5b86:	0000                	.insn	2, 0x0000
    41dc5b88:	70df 1115 0000      	.insn	6, 0x111570df
    41dc5b8e:	0000                	.insn	2, 0x0000
    41dc5b90:	74df 1115 0000      	.insn	6, 0x111574df
    41dc5b96:	0000                	.insn	2, 0x0000
    41dc5b98:	78df 1115 0000      	.insn	6, 0x111578df
    41dc5b9e:	0000                	.insn	2, 0x0000
    41dc5ba0:	7cdf 1115 0000      	.insn	6, 0x11157cdf
    41dc5ba6:	0000                	.insn	2, 0x0000
    41dc5ba8:	80df 1115 0000      	.insn	6, 0x111580df
    41dc5bae:	0000                	.insn	2, 0x0000
    41dc5bb0:	84df 1115 0000      	.insn	6, 0x111584df
    41dc5bb6:	0000                	.insn	2, 0x0000
    41dc5bb8:	88df 1115 0000      	.insn	6, 0x111588df
    41dc5bbe:	0000                	.insn	2, 0x0000
    41dc5bc0:	8cdf 1115 0000      	.insn	6, 0x11158cdf
    41dc5bc6:	0000                	.insn	2, 0x0000
    41dc5bc8:	90df 1115 0000      	.insn	6, 0x111590df
    41dc5bce:	0000                	.insn	2, 0x0000
    41dc5bd0:	94df 1115 0000      	.insn	6, 0x111594df
    41dc5bd6:	0000                	.insn	2, 0x0000
    41dc5bd8:	98df 1115 0000      	.insn	6, 0x111598df
    41dc5bde:	0000                	.insn	2, 0x0000
    41dc5be0:	9cdf 1115 0000      	.insn	6, 0x11159cdf
    41dc5be6:	0000                	.insn	2, 0x0000
    41dc5be8:	a0df 1115 0000      	.insn	6, 0x1115a0df
    41dc5bee:	0000                	.insn	2, 0x0000
    41dc5bf0:	a4df 1115 0000      	.insn	6, 0x1115a4df
    41dc5bf6:	0000                	.insn	2, 0x0000
    41dc5bf8:	a8df 1115 0000      	.insn	6, 0x1115a8df
    41dc5bfe:	0000                	.insn	2, 0x0000
    41dc5c00:	acdf 1115 0000      	.insn	6, 0x1115acdf
    41dc5c06:	0000                	.insn	2, 0x0000
    41dc5c08:	b0df 1115 0000      	.insn	6, 0x1115b0df
    41dc5c0e:	0000                	.insn	2, 0x0000
    41dc5c10:	b4df 1115 0000      	.insn	6, 0x1115b4df
    41dc5c16:	0000                	.insn	2, 0x0000
    41dc5c18:	b8df 1115 0000      	.insn	6, 0x1115b8df
    41dc5c1e:	0000                	.insn	2, 0x0000
    41dc5c20:	bcdf 1115 0000      	.insn	6, 0x1115bcdf
    41dc5c26:	0000                	.insn	2, 0x0000
    41dc5c28:	c0df 1115 0000      	.insn	6, 0x1115c0df
    41dc5c2e:	0000                	.insn	2, 0x0000
    41dc5c30:	c4df 1115 0000      	.insn	6, 0x1115c4df
    41dc5c36:	0000                	.insn	2, 0x0000
    41dc5c38:	c8df 1115 0000      	.insn	6, 0x1115c8df
    41dc5c3e:	0000                	.insn	2, 0x0000
    41dc5c40:	ccdf 1115 0000      	.insn	6, 0x1115ccdf
    41dc5c46:	0000                	.insn	2, 0x0000
    41dc5c48:	d0df 1115 0000      	.insn	6, 0x1115d0df
    41dc5c4e:	0000                	.insn	2, 0x0000
    41dc5c50:	d4df 1115 0000      	.insn	6, 0x1115d4df
    41dc5c56:	0000                	.insn	2, 0x0000
    41dc5c58:	d8df 1115 0000      	.insn	6, 0x1115d8df
    41dc5c5e:	0000                	.insn	2, 0x0000
    41dc5c60:	dcdf 1115 0000      	.insn	6, 0x1115dcdf
    41dc5c66:	0000                	.insn	2, 0x0000
    41dc5c68:	e0df 1115 0000      	.insn	6, 0x1115e0df
    41dc5c6e:	0000                	.insn	2, 0x0000
    41dc5c70:	e4df 1115 0000      	.insn	6, 0x1115e4df
    41dc5c76:	0000                	.insn	2, 0x0000
    41dc5c78:	e8df 1115 0000      	.insn	6, 0x1115e8df
    41dc5c7e:	0000                	.insn	2, 0x0000
    41dc5c80:	ecdf 1115 0000      	.insn	6, 0x1115ecdf
    41dc5c86:	0000                	.insn	2, 0x0000
    41dc5c88:	f0df 1115 0000      	.insn	6, 0x1115f0df
    41dc5c8e:	0000                	.insn	2, 0x0000
    41dc5c90:	f4df 1115 0000      	.insn	6, 0x1115f4df
    41dc5c96:	0000                	.insn	2, 0x0000
    41dc5c98:	f8df 1115 0000      	.insn	6, 0x1115f8df
    41dc5c9e:	0000                	.insn	2, 0x0000
    41dc5ca0:	fcdf 1115 0000      	.insn	6, 0x1115fcdf
	...

Disassembly of section .__pagetable_map_os_0x0000000041c7a000:

0000000041c7a000 <__pagetable_map_os_0x0000000041c7a000>:
	...
    41c7a0b0:	111804cf          	fnmadd.s	f9,f16,f17,f2,rne
    41c7a0b4:	0000                	.insn	2, 0x0000
	...

Disassembly of section .__pagetable_map_os_0x0000000044f26000:

0000000044f26000 <__pagetable_map_os_0x0000000044f26000>:
	...
    44f26440:	20df 113a 0000      	.insn	6, 0x113a20df
	...

Disassembly of section .__pagetable_map_os_0x0000000041d90000:

0000000041d90000 <__pagetable_map_os_0x0000000041d90000>:
    41d90000:	c401                	.insn	2, 0xc401
    41d90002:	0000110f          	.insn	4, 0x110f
    41d90006:	0000                	.insn	2, 0x0000
    41d90008:	d401                	.insn	2, 0xd401
    41d9000a:	0000113b          	sllw	x2,x0,x0
    41d9000e:	0000                	.insn	2, 0x0000
    41d90010:	3401                	.insn	2, 0x3401
    41d90012:	10f2                	.insn	2, 0x10f2
    41d90014:	0000                	.insn	2, 0x0000
    41d90016:	0000                	.insn	2, 0x0000
    41d90018:	d001                	.insn	2, 0xd001
    41d9001a:	00001073          	csrw	ustatus,x0
	...
    41d901f6:	0000                	.insn	2, 0x0000
    41d901f8:	a001                	.insn	2, 0xa001
    41d901fa:	112d                	.insn	2, 0x112d
	...
    41d903f0:	7801                	.insn	2, 0x7801
    41d903f2:	0000113b          	sllw	x2,x0,x0
	...
    41d908f6:	0000                	.insn	2, 0x0000
    41d908f8:	2401                	.insn	2, 0x2401
    41d908fa:	000010ef          	jal	41d918fa <__pagetable_map_os_0x0000000041d90000+0x18fa>
	...

Disassembly of section .__pagetable_map_os_0x0000000043c8d000:

0000000043c8d000 <__pagetable_map_os_0x0000000043c8d000>:
    43c8d000:	a8df 1128 0000      	.insn	6, 0x1128a8df
    43c8d006:	0000                	.insn	2, 0x0000
    43c8d008:	acdf 1128 0000      	.insn	6, 0x1128acdf
	...
    43c8d266:	0000                	.insn	2, 0x0000
    43c8d268:	111808d7          	vminu.vv	v17,v17,v16,v0.t
    43c8d26c:	0000                	.insn	2, 0x0000
	...

Disassembly of section .__pagetable_map_os_0x0000000043bc9000:

0000000043bc9000 <__pagetable_map_os_0x0000000043bc9000>:
	...
    43bc97a0:	dcdf 10e3 0000      	.insn	6, 0x10e3dcdf
	...

Disassembly of section .__pagetable_map_os_0x00000000443f1000:

00000000443f1000 <__pagetable_map_os_0x00000000443f1000>:
	...
    443f1010:	114100d7          	vminu.vv	v1,v20,v2,v0.t
	...
    443f1028:	113c50d7          	vfmin.vf	v1,v19,f24,v0.t
	...
    443f1040:	10ef20d7          	vredminu.vs	v1,v14,v30,v0.t
	...
    443f1118:	113bb8d7          	.insn	4, 0x113bb8d7
	...
    443f1180:	1120e4d7          	.insn	4, 0x1120e4d7
	...
    443f12c0:	113bdcd7          	vfmin.vf	v25,v19,f23,v0.t
    443f12c4:	0000                	.insn	2, 0x0000
	...

Disassembly of section .__pagetable_map_os_0x0000000041cf4000:

0000000041cf4000 <__pagetable_map_os_0x0000000041cf4000>:
	...
    41cf4398:	1140fcd7          	vsetvli	x25,x1,276
    41cf439c:	0000                	.insn	2, 0x0000
	...

Disassembly of section .__pagetable_map_os_0x0000000044ede000:

0000000044ede000 <__pagetable_map_os_0x0000000044ede000>:
	...
    44edeca0:	113bb4d7          	.insn	4, 0x113bb4d7
    44edeca4:	0000                	.insn	2, 0x0000
	...

Disassembly of section .__pagetable_map_os_0x0000000044ef5000:

0000000044ef5000 <__pagetable_map_os_0x0000000044ef5000>:
	...
    44ef5268:	113c54d7          	vfmin.vf	v9,v19,f24,v0.t
    44ef526c:	0000                	.insn	2, 0x0000
	...

Disassembly of section .__pagetable_map_os_0x0000000044b68000:

0000000044b68000 <__pagetable_map_os_0x0000000044b68000>:
	...
    44b687e0:	113c5cd7          	vfmin.vf	v25,v19,f24,v0.t
    44b687e4:	0000                	.insn	2, 0x0000
	...

Disassembly of section .__pagetable_map_os_0x0000000044a14000:

0000000044a14000 <__pagetable_map_os_0x0000000044a14000>:
	...
    44a14820:	2001                	.insn	2, 0x2001
    44a14822:	10f2                	.insn	2, 0x10f2
    44a14824:	0000                	.insn	2, 0x0000
	...

Disassembly of section .__pagetable_map_os_0x0000000043c88000:

0000000043c88000 <__pagetable_map_os_0x0000000043c88000>:
	...
    43c88560:	20df 110a 0000      	.insn	6, 0x110a20df
    43c88566:	0000                	.insn	2, 0x0000
    43c88568:	24df 110a 0000      	.insn	6, 0x110a24df
	...

Disassembly of section .__pagetable_map_os_0x0000000044340000:

0000000044340000 <__pagetable_map_os_0x0000000044340000>:
	...
    44340408:	ac01                	.insn	2, 0xac01
    4434040a:	000010ef          	jal	4434140a <__pagetable_map_os_0x0000000044340000+0x140a>
	...

Disassembly of section .__pagetable_map_os_0x0000000043beb000:

0000000043beb000 <__pagetable_map_os_0x0000000043beb000>:
	...
    43beb718:	113a30d7          	.insn	4, 0x113a30d7
    43beb71c:	0000                	.insn	2, 0x0000
	...

Disassembly of section .__pagetable_map_os_0x0000000043c80000:

0000000043c80000 <__pagetable_map_os_0x0000000043c80000>:
	...
    43c80078:	4001                	.insn	2, 0x4001
    43c8007a:	113d                	.insn	2, 0x113d
    43c8007c:	0000                	.insn	2, 0x0000
	...

Disassembly of section .__pagetable_map_os_0x0000000044f50000:

0000000044f50000 <__pagetable_map_os_0x0000000044f50000>:
	...
    44f50028:	113c60d7          	.insn	4, 0x113c60d7
    44f5002c:	0000                	.insn	2, 0x0000
	...

Disassembly of section .__pagetable_map_os_0x0000000044aac000:

0000000044aac000 <__pagetable_map_os_0x0000000044aac000>:
	...
    44aac288:	0401                	.insn	2, 0x0401
    44aac28a:	10f2                	.insn	2, 0x10f2
    44aac28c:	0000                	.insn	2, 0x0000
	...

Disassembly of section .__pagetable_map_os_0x0000000043c81000:

0000000043c81000 <__pagetable_map_os_0x0000000043c81000>:
	...
    43c812e8:	108e4cd7          	vminu.vx	v25,v8,x28,v0.t
    43c812ec:	0000                	.insn	2, 0x0000
	...

Disassembly of section .__pagetable_map_os_0x0000000041b61000:

0000000041b61000 <__pagetable_map_os_0x0000000041b61000>:
	...
    41b61108:	d801                	.insn	2, 0xd801
    41b6110a:	0000113b          	sllw	x2,x0,x0
	...

Disassembly of section .__pagetable_map_os_0x0000000044ef6000:

0000000044ef6000 <__pagetable_map_os_0x0000000044ef6000>:
	...
    44ef6bc8:	1095fcd7          	vsetvli	x25,x11,265
    44ef6bcc:	0000                	.insn	2, 0x0000
	...

Disassembly of section .__pagetable_map_os_0x0000000044f27000:

0000000044f27000 <__pagetable_map_os_0x0000000044f27000>:
	...
    44f27510:	8401                	.insn	2, 0x8401
    44f27512:	110c                	.insn	2, 0x110c
    44f27514:	0000                	.insn	2, 0x0000
	...

Disassembly of section .__pagetable_map_os_0x0000000044321000:

0000000044321000 <__pagetable_map_os_0x0000000044321000>:
	...
    443212a8:	10e848d7          	vminu.vx	v17,v14,x16,v0.t
    443212ac:	0000                	.insn	2, 0x0000
	...

Disassembly of section .__pagetable_map_os_0x0000000044f19000:

0000000044f19000 <__pagetable_map_os_0x0000000044f19000>:
	...
    44f191c8:	c801                	.insn	2, 0xc801
    44f191ca:	00001073          	csrw	ustatus,x0
	...

Disassembly of section .__pagetable_map_os_0x0000000041cf2000:

0000000041cf2000 <__pagetable_map_os_0x0000000041cf2000>:
	...
    41cf25e0:	110a28d7          	vredminu.vs	v17,v16,v20,v0.t
    41cf25e4:	0000                	.insn	2, 0x0000
	...

Disassembly of section .__pagetable_map_os_0x0000000044358000:

0000000044358000 <__pagetable_map_os_0x0000000044358000>:
	...
    44358600:	0c01                	.insn	2, 0x0c01
    44358602:	10f2                	.insn	2, 0x10f2
    44358604:	0000                	.insn	2, 0x0000
	...

Disassembly of section .__pagetable_map_os_0x0000000043c83000:

0000000043c83000 <__pagetable_map_os_0x0000000043c83000>:
	...
    43c83c78:	5001                	.insn	2, 0x5001
    43c83c7a:	0000110f          	.insn	4, 0x110f
	...

Disassembly of section .__pagetable_map_os_0x00000000443d4000:

00000000443d4000 <__pagetable_map_os_0x00000000443d4000>:
	...
    443d49e8:	8cdf 1118 0000      	.insn	6, 0x11188cdf
	...

Disassembly of section .__pagetable_map_os_0x0000000043c84000:

0000000043c84000 <__pagetable_map_os_0x0000000043c84000>:
	...
    43c84308:	ec01                	.insn	2, 0xec01
    43c8430a:	1095                	.insn	2, 0x1095
	...
    43c84620:	0c01                	.insn	2, 0x0c01
    43c84622:	1118                	.insn	2, 0x1118
    43c84624:	0000                	.insn	2, 0x0000
	...

Disassembly of section .__pagetable_map_os_0x0000000044603000:

0000000044603000 <__pagetable_map_os_0x0000000044603000>:
	...
    44603d00:	c401                	.insn	2, 0xc401
    44603d02:	00001073          	csrw	ustatus,x0
	...

Disassembly of section .__pagetable_map_os_0x0000000041cf1000:

0000000041cf1000 <__pagetable_map_os_0x0000000041cf1000>:
	...
    41cf1260:	10f798d7          	vfmin.vv	v17,v15,v15,v0.t
    41cf1264:	0000                	.insn	2, 0x0000
	...

Disassembly of section .__pagetable_map_os_0x000000004257b000:

000000004257b000 <__pagetable_map_os_0x000000004257b000>:
	...
    4257b548:	c801                	.insn	2, 0xc801
    4257b54a:	10f2                	.insn	2, 0x10f2
    4257b54c:	0000                	.insn	2, 0x0000
	...

Disassembly of section .__pagetable_map_os_0x0000000043cb2000:

0000000043cb2000 <__pagetable_map_os_0x0000000043cb2000>:
	...
    43cb20b0:	10f158d7          	vfmin.vf	v17,v15,f2,v0.t
    43cb20b4:	0000                	.insn	2, 0x0000
	...

Disassembly of section .__pagetable_map_os_0x0000000043c53000:

0000000043c53000 <__pagetable_map_os_0x0000000043c53000>:
	...
    43c53bd0:	fc01                	.insn	2, 0xfc01
    43c53bd2:	0000113b          	sllw	x2,x0,x0
	...

Disassembly of section .__pagetable_map_os_0x0000000044eff000:

0000000044eff000 <__pagetable_map_os_0x0000000044eff000>:
	...
    44eff590:	b401                	.insn	2, 0xb401
    44eff592:	110e                	.insn	2, 0x110e
    44eff594:	0000                	.insn	2, 0x0000
	...

Disassembly of section .__pagetable_map_os_0x00000000443ad000:

00000000443ad000 <__pagetable_map_os_0x00000000443ad000>:
	...
    443ad7d0:	112818d7          	vfmin.vv	v17,v18,v16,v0.t
    443ad7d4:	0000                	.insn	2, 0x0000
	...

Disassembly of section .__pagetable_map_os_0x00000000447e2000:

00000000447e2000 <__pagetable_map_os_0x00000000447e2000>:
	...
    447e25a0:	2801                	.insn	2, 0x2801
    447e25a2:	1118                	.insn	2, 0x1118
    447e25a4:	0000                	.insn	2, 0x0000
	...

Disassembly of section .__pagetable_map_os_0x000000004460a000:

000000004460a000 <__pagetable_map_os_0x000000004460a000>:
	...
    4460a0b8:	f001                	.insn	2, 0xf001
    4460a0ba:	10e6                	.insn	2, 0x10e6
    4460a0bc:	0000                	.insn	2, 0x0000
	...

Disassembly of section .__pagetable_map_os_0x00000000439bc000:

00000000439bc000 <__pagetable_map_os_0x00000000439bc000>:
	...
    439bc0f0:	113c58d7          	vfmin.vf	v17,v19,f24,v0.t
    439bc0f4:	0000                	.insn	2, 0x0000
	...

Disassembly of section .__pagetable_map_os_0x0000000044b7e000:

0000000044b7e000 <__pagetable_map_os_0x0000000044b7e000>:
	...
    44b7e6f0:	a401                	.insn	2, 0xa401
    44b7e6f2:	1121                	.insn	2, 0x1121
    44b7e6f4:	0000                	.insn	2, 0x0000
	...

Disassembly of section .__pagetable_map_os_0x0000000044869000:

0000000044869000 <__pagetable_map_os_0x0000000044869000>:
	...
    44869488:	b801                	.insn	2, 0xb801
    4486948a:	0000110f          	.insn	4, 0x110f
	...

Disassembly of section .__pagetable_map_os_0x00000000443ee000:

00000000443ee000 <__pagetable_map_os_0x00000000443ee000>:
	...
    443ee428:	cc01                	.insn	2, 0xcc01
    443ee42a:	1129                	.insn	2, 0x1129
    443ee42c:	0000                	.insn	2, 0x0000
	...

Disassembly of section .__pagetable_map_os_0x0000000044a73000:

0000000044a73000 <__pagetable_map_os_0x0000000044a73000>:
	...
    44a733e0:	110bc4d7          	vminu.vx	v9,v16,x23,v0.t
    44a733e4:	0000                	.insn	2, 0x0000
	...

Disassembly of section .__pagetable_map_os_0x00000000419d3000:

00000000419d3000 <__pagetable_map_os_0x00000000419d3000>:
	...
    419d3370:	f401                	.insn	2, 0xf401
    419d3372:	10f1                	.insn	2, 0x10f1
    419d3374:	0000                	.insn	2, 0x0000
	...

Disassembly of section .__pagetable_map_os_0x0000000043c7d000:

0000000043c7d000 <__pagetable_map_os_0x0000000043c7d000>:
	...
    43c7d5d8:	2401                	.insn	2, 0x2401
    43c7d5da:	1076                	.insn	2, 0x1076
    43c7d5dc:	0000                	.insn	2, 0x0000
	...

Disassembly of section .__pagetable_map_os_0x0000000041d89000:

0000000041d89000 <__pagetable_map_os_0x0000000041d89000>:
	...
    41d89fd8:	a401                	.insn	2, 0xa401
    41d89fda:	10f2                	.insn	2, 0x10f2
    41d89fdc:	0000                	.insn	2, 0x0000
	...

Disassembly of section .__pagetable_map_os_0x0000000043ca9000:

0000000043ca9000 <__pagetable_map_os_0x0000000043ca9000>:
	...
    43ca9dc0:	113d54d7          	vfmin.vf	v9,v19,f26,v0.t
    43ca9dc4:	0000                	.insn	2, 0x0000
	...

Disassembly of section .__pagetable_map_os_0x0000000044f28000:

0000000044f28000 <__pagetable_map_os_0x0000000044f28000>:
	...
    44f285d8:	4001                	.insn	2, 0x4001
    44f285da:	10f6                	.insn	2, 0x10f6
    44f285dc:	0000                	.insn	2, 0x0000
	...

Disassembly of section .__pagetable_map_os_0x0000000043d90000:

0000000043d90000 <__pagetable_map_os_0x0000000043d90000>:
	...
    43d90eb0:	1801                	.insn	2, 0x1801
    43d90eb2:	10f2                	.insn	2, 0x10f2
    43d90eb4:	0000                	.insn	2, 0x0000
	...

Disassembly of section .__pagetable_map_os_0x0000000043c86000:

0000000043c86000 <__pagetable_map_os_0x0000000043c86000>:
	...
    43c86a28:	3001                	.insn	2, 0x3001
    43c86a2a:	110e                	.insn	2, 0x110e
    43c86a2c:	0000                	.insn	2, 0x0000
	...

Disassembly of section .__pagetable_map_os_0x000000004438c000:

000000004438c000 <__pagetable_map_os_0x000000004438c000>:
	...
    4438cc00:	111810d7          	vfmin.vv	v1,v17,v16,v0.t
    4438cc04:	0000                	.insn	2, 0x0000
	...

Disassembly of section .__pagetable_map_os_0x0000000044ac4000:

0000000044ac4000 <__pagetable_map_os_0x0000000044ac4000>:
	...
    44ac4628:	f801                	.insn	2, 0xf801
    44ac462a:	1071                	.insn	2, 0x1071
    44ac462c:	0000                	.insn	2, 0x0000
	...

Disassembly of section .__pagetable_map_os_0x0000000041c7e000:

0000000041c7e000 <__pagetable_map_os_0x0000000041c7e000>:
	...
    41c7e260:	c801                	.insn	2, 0xc801
    41c7e262:	10f6                	.insn	2, 0x10f6
    41c7e264:	0000                	.insn	2, 0x0000
	...

Disassembly of section .__pagetable_map_os_0x0000000043db2000:

0000000043db2000 <__pagetable_map_os_0x0000000043db2000>:
	...
    43db2db8:	2801                	.insn	2, 0x2801
    43db2dba:	1076                	.insn	2, 0x1076
    43db2dbc:	0000                	.insn	2, 0x0000
	...

Disassembly of section .__pagetable_map_os_0x0000000041d8a000:

0000000041d8a000 <__pagetable_map_os_0x0000000041d8a000>:
	...
    41d8a690:	1124acd7          	vredminu.vs	v25,v18,v9,v0.t
    41d8a694:	0000                	.insn	2, 0x0000
	...

Disassembly of section .__pagetable_map_os_0x0000000042580000:

0000000042580000 <__pagetable_map_os_0x0000000042580000>:
	...
    425800e8:	8001                	.insn	2, 0x8001
    425800ea:	113d                	.insn	2, 0x113d
    425800ec:	0000                	.insn	2, 0x0000
	...

Disassembly of section .__pagetable_map_os_0x0000000044f60000:

0000000044f60000 <__pagetable_map_os_0x0000000044f60000>:
	...
    44f60718:	cc01                	.insn	2, 0xcc01
    44f6071a:	0000113b          	sllw	x2,x0,x0
	...

Disassembly of section .__pagetable_map_os_0x0000000044ef3000:

0000000044ef3000 <__pagetable_map_os_0x0000000044ef3000>:
	...
    44ef3e58:	bc01                	.insn	2, 0xbc01
    44ef3e5a:	0000110f          	.insn	4, 0x110f
	...

Disassembly of section .__pagetable_map_os_0x00000000443ef000:

00000000443ef000 <__pagetable_map_os_0x00000000443ef000>:
	...
    443efbe8:	1126e8d7          	.insn	4, 0x1126e8d7
    443efbec:	0000                	.insn	2, 0x0000
	...

Disassembly of section .__pagetable_map_os_0x0000000044f1c000:

0000000044f1c000 <__pagetable_map_os_0x0000000044f1c000>:
	...
    44f1ca58:	4401                	.insn	2, 0x4401
    44f1ca5a:	113d                	.insn	2, 0x113d
    44f1ca5c:	0000                	.insn	2, 0x0000
	...

Disassembly of section .__pagetable_map_os_0x0000000044f51000:

0000000044f51000 <__pagetable_map_os_0x0000000044f51000>:
	...
    44f51778:	1401                	.insn	2, 0x1401
    44f5177a:	110d                	.insn	2, 0x110d
    44f5177c:	0000                	.insn	2, 0x0000
	...

Disassembly of section .__pagetable_map_os_0x0000000044345000:

0000000044345000 <__pagetable_map_os_0x0000000044345000>:
	...
    443453e8:	f001                	.insn	2, 0xf001
    443453ea:	1129                	.insn	2, 0x1129
    443453ec:	0000                	.insn	2, 0x0000
	...

Disassembly of section .__pagetable_map_os_0x0000000044a7c000:

0000000044a7c000 <__pagetable_map_os_0x0000000044a7c000>:
	...
    44a7c938:	113c74d7          	vsetvli	x9,x24,275
    44a7c93c:	0000                	.insn	2, 0x0000
	...
