
/home/abdullah/RiescueC/riescue/10x_R/zjpm/testsuite/zjpm/user_sv48/tp_zjpm_1:     file format elf64-littleriscv


Disassembly of section .runtime:

0000000080000000 <_start>:
    80000000:	00000093          	li	x1,0
    80000004:	00000113          	li	x2,0
    80000008:	00000193          	li	x3,0
    8000000c:	00000213          	li	x4,0
    80000010:	00000293          	li	x5,0
    80000014:	00000313          	li	x6,0
    80000018:	00000393          	li	x7,0
    8000001c:	00000413          	li	x8,0
    80000020:	00000493          	li	x9,0
    80000024:	00000513          	li	x10,0
    80000028:	00000593          	li	x11,0
    8000002c:	00000613          	li	x12,0
    80000030:	00000693          	li	x13,0
    80000034:	00000713          	li	x14,0
    80000038:	00000793          	li	x15,0
    8000003c:	00000813          	li	x16,0
    80000040:	00000893          	li	x17,0
    80000044:	00000913          	li	x18,0
    80000048:	00000993          	li	x19,0
    8000004c:	00000a13          	li	x20,0
    80000050:	00000a93          	li	x21,0
    80000054:	00000b13          	li	x22,0
    80000058:	00000b93          	li	x23,0
    8000005c:	00000c13          	li	x24,0
    80000060:	00000c93          	li	x25,0
    80000064:	00000d13          	li	x26,0
    80000068:	00000d93          	li	x27,0
    8000006c:	00000e13          	li	x28,0
    80000070:	00000e93          	li	x29,0
    80000074:	00000f13          	li	x30,0
    80000078:	00000f93          	li	x31,0

000000008000007c <loader__load_panic_address>:
    8000007c:	00001297          	auipc	x5,0x1
    80000080:	c3828293          	addi	x5,x5,-968 # 80000cb4 <eot__failed>
    80000084:	30529073          	csrw	mtvec,x5

0000000080000088 <loader__initialize_runtime>:
    80000088:	0010029b          	addiw	x5,x0,1
    8000008c:	03229293          	slli	x5,x5,0x32
    80000090:	20128293          	addi	x5,x5,513
    80000094:	00c29293          	slli	x5,x5,0xc
    80000098:	1ad28293          	addi	x5,x5,429
    8000009c:	3012a2f3          	csrrs	x5,misa,x5

00000000800000a0 <loader__set_mstatus>:
    800000a0:	000422b7          	lui	x5,0x42
    800000a4:	20a2829b          	addiw	x5,x5,522 # 4220a <_all_interrupts+0x3f760>
    800000a8:	3002a2f3          	csrrs	x5,mstatus,x5

00000000800000ac <loader__init_fp_registers>:
    800000ac:	001df2b7          	lui	x5,0x1df
    800000b0:	b8f2829b          	addiw	x5,x5,-1137 # 1deb8f <SID_26_pm_different_tags_same_address_stack+0x3db8f>
    800000b4:	00e29293          	slli	x5,x5,0xe
    800000b8:	09828293          	addi	x5,x5,152
    800000bc:	0002b007          	fld	f0,0(x5)
    800000c0:	0002b087          	fld	f1,0(x5)
    800000c4:	0002b107          	fld	f2,0(x5)
    800000c8:	0002b187          	fld	f3,0(x5)
    800000cc:	0002b207          	fld	f4,0(x5)
    800000d0:	0002b287          	fld	f5,0(x5)
    800000d4:	0002b307          	fld	f6,0(x5)
    800000d8:	0002b387          	fld	f7,0(x5)
    800000dc:	0002b407          	fld	f8,0(x5)
    800000e0:	0002b487          	fld	f9,0(x5)
    800000e4:	0002b507          	fld	f10,0(x5)
    800000e8:	0002b587          	fld	f11,0(x5)
    800000ec:	0002b607          	fld	f12,0(x5)
    800000f0:	0002b687          	fld	f13,0(x5)
    800000f4:	0002b707          	fld	f14,0(x5)
    800000f8:	0002b787          	fld	f15,0(x5)
    800000fc:	0002b807          	fld	f16,0(x5)
    80000100:	0002b887          	fld	f17,0(x5)
    80000104:	0002b907          	fld	f18,0(x5)
    80000108:	0002b987          	fld	f19,0(x5)
    8000010c:	0002ba07          	fld	f20,0(x5)
    80000110:	0002ba87          	fld	f21,0(x5)
    80000114:	0002bb07          	fld	f22,0(x5)
    80000118:	0002bb87          	fld	f23,0(x5)
    8000011c:	0002bc07          	fld	f24,0(x5)
    80000120:	0002bc87          	fld	f25,0(x5)
    80000124:	0002bd07          	fld	f26,0(x5)
    80000128:	0002bd87          	fld	f27,0(x5)
    8000012c:	0002be07          	fld	f28,0(x5)
    80000130:	0002be87          	fld	f29,0(x5)
    80000134:	0002bf07          	fld	f30,0(x5)
    80000138:	0002bf87          	fld	f31,0(x5)

000000008000013c <loader__init_vector_registers>:
    8000013c:	00000213          	li	x4,0
    80000140:	00400293          	li	x5,4
    80000144:	0d800313          	li	x6,216
    80000148:	8062f257          	vsetvl	x4,x5,x6
    8000014c:	5e004057          	vmv.v.x	v0,x0
    80000150:	5e0040d7          	vmv.v.x	v1,x0
    80000154:	5e004157          	vmv.v.x	v2,x0
    80000158:	5e0041d7          	vmv.v.x	v3,x0
    8000015c:	5e004257          	vmv.v.x	v4,x0
    80000160:	5e0042d7          	vmv.v.x	v5,x0
    80000164:	5e004357          	vmv.v.x	v6,x0
    80000168:	5e0043d7          	vmv.v.x	v7,x0
    8000016c:	5e004457          	vmv.v.x	v8,x0
    80000170:	5e0044d7          	vmv.v.x	v9,x0
    80000174:	5e004557          	vmv.v.x	v10,x0
    80000178:	5e0045d7          	vmv.v.x	v11,x0
    8000017c:	5e004657          	vmv.v.x	v12,x0
    80000180:	5e0046d7          	vmv.v.x	v13,x0
    80000184:	5e004757          	vmv.v.x	v14,x0
    80000188:	5e0047d7          	vmv.v.x	v15,x0
    8000018c:	5e004857          	vmv.v.x	v16,x0
    80000190:	5e0048d7          	vmv.v.x	v17,x0
    80000194:	5e004957          	vmv.v.x	v18,x0
    80000198:	5e0049d7          	vmv.v.x	v19,x0
    8000019c:	5e004a57          	vmv.v.x	v20,x0
    800001a0:	5e004ad7          	vmv.v.x	v21,x0
    800001a4:	5e004b57          	vmv.v.x	v22,x0
    800001a8:	5e004bd7          	vmv.v.x	v23,x0
    800001ac:	5e004c57          	vmv.v.x	v24,x0
    800001b0:	5e004cd7          	vmv.v.x	v25,x0
    800001b4:	5e004d57          	vmv.v.x	v26,x0
    800001b8:	5e004dd7          	vmv.v.x	v27,x0
    800001bc:	5e004e57          	vmv.v.x	v28,x0
    800001c0:	5e004ed7          	vmv.v.x	v29,x0
    800001c4:	5e004f57          	vmv.v.x	v30,x0
    800001c8:	5e004fd7          	vmv.v.x	v31,x0
    800001cc:	02d78237          	lui	x4,0x2d78
    800001d0:	2a72021b          	addiw	x4,x4,679 # 2d782a7 <tp_csr_storage+0x1d192a7>
    800001d4:	00c21213          	slli	x4,x4,0xc
    800001d8:	32f20213          	addi	x4,x4,815 # 32f <FS_RANDOMIZATION+0x2cb>
    800001dc:	00e21213          	slli	x4,x4,0xe
    800001e0:	34021073          	csrw	mscratch,x4
    800001e4:	002a4237          	lui	x4,0x2a4
    800001e8:	7a52021b          	addiw	x4,x4,1957 # 2a47a5 <SID_26_pm_different_tags_same_address_stack+0x1037a5>
    800001ec:	00e21213          	slli	x4,x4,0xe
    800001f0:	14021073          	csrw	sscratch,x4
    800001f4:	02d78237          	lui	x4,0x2d78
    800001f8:	2a72021b          	addiw	x4,x4,679 # 2d782a7 <tp_csr_storage+0x1d192a7>
    800001fc:	00c21213          	slli	x4,x4,0xc
    80000200:	32f20213          	addi	x4,x4,815 # 32f <FS_RANDOMIZATION+0x2cb>
    80000204:	00e21213          	slli	x4,x4,0xe

0000000080000208 <loader__setup_medeleg>:
    80000208:	0035c2b7          	lui	x5,0x35c
    8000020c:	f992829b          	addiw	x5,x5,-103 # 35bf99 <SID_26_pm_different_tags_same_address_stack+0x1baf99>
    80000210:	00d29293          	slli	x5,x5,0xd
    80000214:	5b928293          	addi	x5,x5,1465
    80000218:	00d29293          	slli	x5,x5,0xd
    8000021c:	7a728293          	addi	x5,x5,1959
    80000220:	00e29293          	slli	x5,x5,0xe
    80000224:	01628293          	addi	x5,x5,22
    80000228:	30229073          	csrw	medeleg,x5

000000008000022c <loader__setup_mideleg>:
    8000022c:	2a800293          	li	x5,680
    80000230:	30329073          	csrw	mideleg,x5

0000000080000234 <loader__setup_tvec>:
    80000234:	00000297          	auipc	x5,0x0
    80000238:	53428293          	addi	x5,x5,1332 # 80000768 <trap_handler_m__trap_entry>
    8000023c:	30529073          	csrw	mtvec,x5
    80000240:	00011297          	auipc	x5,0x11
    80000244:	e3828293          	addi	x5,x5,-456 # 80011078 <trap_handler_s__trap_entry>
    80000248:	10529073          	csrw	stvec,x5

000000008000024c <loader__enable_paging>:
    8000024c:	fffc80b7          	lui	x1,0xfffc8
    80000250:	0910809b          	addiw	x1,x1,145 # fffffffffffc8091 <SID_28_pm_faults_trap_values_stack+0x3a60fe64091>
    80000254:	01309093          	slli	x1,x1,0x13
    80000258:	00108093          	addi	x1,x1,1
    8000025c:	00c09093          	slli	x1,x1,0xc
    80000260:	1ab08093          	addi	x1,x1,427
    80000264:	00e09093          	slli	x1,x1,0xe
    80000268:	71008093          	addi	x1,x1,1808
    8000026c:	18009073          	csrw	satp,x1

0000000080000270 <loader__done>:
    80000270:	26d0006f          	j	80000cdc <scheduler__init>

0000000080000274 <loader__panic>:
    80000274:	2410006f          	j	80000cb4 <eot__failed>

0000000080000278 <syscalls__syscall_check_schedule_next_test>:
    80000278:	00f0029b          	addiw	x5,x0,15
    8000027c:	01c29293          	slli	x5,x5,0x1c
    80000280:	00128293          	addi	x5,x5,1
    80000284:	01f29a63          	bne	x5,x31,80000298 <syscalls__syscall_check_fail_test>
    80000288:	00000317          	auipc	x6,0x0
    8000028c:	4e030313          	addi	x6,x6,1248 # 80000768 <trap_handler_m__trap_entry>
    80000290:	30531073          	csrw	mtvec,x6
    80000294:	7180006f          	j	800009ac <enter_scheduler>

0000000080000298 <syscalls__syscall_check_fail_test>:
    80000298:	00f0029b          	addiw	x5,x0,15
    8000029c:	01c29293          	slli	x5,x5,0x1c
    800002a0:	00228293          	addi	x5,x5,2
    800002a4:	01f29a63          	bne	x5,x31,800002b8 <syscalls__syscall_check_end_test_without_failure>
    800002a8:	00000317          	auipc	x6,0x0
    800002ac:	4c030313          	addi	x6,x6,1216 # 80000768 <trap_handler_m__trap_entry>
    800002b0:	30531073          	csrw	mtvec,x6
    800002b4:	7280006f          	j	800009dc <test_failed>

00000000800002b8 <syscalls__syscall_check_end_test_without_failure>:
    800002b8:	00f0029b          	addiw	x5,x0,15
    800002bc:	01c29293          	slli	x5,x5,0x1c
    800002c0:	00328293          	addi	x5,x5,3
    800002c4:	01f29a63          	bne	x5,x31,800002d8 <syscalls__syscall_check_switch_machine_mode>
    800002c8:	00000317          	auipc	x6,0x0
    800002cc:	4a030313          	addi	x6,x6,1184 # 80000768 <trap_handler_m__trap_entry>
    800002d0:	30531073          	csrw	mtvec,x6
    800002d4:	7140006f          	j	800009e8 <os_end_test>

00000000800002d8 <syscalls__syscall_check_switch_machine_mode>:
    800002d8:	000f02b7          	lui	x5,0xf0
    800002dc:	0012829b          	addiw	x5,x5,1 # f0001 <__section_data_1+0x6f001>
    800002e0:	00c29293          	slli	x5,x5,0xc
    800002e4:	00128293          	addi	x5,x5,1
    800002e8:	0a5f8463          	beq	x31,x5,80000390 <syscalls__os_fn_f0001001>

00000000800002ec <syscalls__syscall_check_switch_super_mode>:
    800002ec:	000f02b7          	lui	x5,0xf0
    800002f0:	0012829b          	addiw	x5,x5,1 # f0001 <__section_data_1+0x6f001>
    800002f4:	00c29293          	slli	x5,x5,0xc
    800002f8:	00228293          	addi	x5,x5,2
    800002fc:	0c5f8463          	beq	x31,x5,800003c4 <syscalls__os_fn_f0001002>

0000000080000300 <syscalls__syscall_check_switch_user_mode>:
    80000300:	000f02b7          	lui	x5,0xf0
    80000304:	0012829b          	addiw	x5,x5,1 # f0001 <__section_data_1+0x6f001>
    80000308:	00c29293          	slli	x5,x5,0xc
    8000030c:	00328293          	addi	x5,x5,3
    80000310:	0e5f8663          	beq	x31,x5,800003fc <syscalls__os_fn_f0001003>

0000000080000314 <syscalls__syscall_check_switch_test_mode>:
    80000314:	000f02b7          	lui	x5,0xf0
    80000318:	0012829b          	addiw	x5,x5,1 # f0001 <__section_data_1+0x6f001>
    8000031c:	00c29293          	slli	x5,x5,0xc
    80000320:	00428293          	addi	x5,x5,4
    80000324:	0e5f8463          	beq	x31,x5,8000040c <syscalls__os_fn_f0001004>

0000000080000328 <syscalls__syscall_machine_csr_rw>:
    80000328:	000f02b7          	lui	x5,0xf0
    8000032c:	0012829b          	addiw	x5,x5,1 # f0001 <__section_data_1+0x6f001>
    80000330:	00c29293          	slli	x5,x5,0xc
    80000334:	00528293          	addi	x5,x5,5
    80000338:	0e5f8e63          	beq	x31,x5,80000434 <syscalls__os_fn_f0001005>

000000008000033c <syscalls__syscall_supervisor_csr_rw>:
    8000033c:	000f02b7          	lui	x5,0xf0
    80000340:	0012829b          	addiw	x5,x5,1 # f0001 <__section_data_1+0x6f001>
    80000344:	00c29293          	slli	x5,x5,0xc
    80000348:	00628293          	addi	x5,x5,6
    8000034c:	105f8e63          	beq	x31,x5,80000468 <syscalls__os_fn_f0001006>

0000000080000350 <syscalls__syscall_machine_pte_read>:
    80000350:	000f02b7          	lui	x5,0xf0
    80000354:	0012829b          	addiw	x5,x5,1 # f0001 <__section_data_1+0x6f001>
    80000358:	00c29293          	slli	x5,x5,0xc
    8000035c:	00728293          	addi	x5,x5,7
    80000360:	145f8063          	beq	x31,x5,800004a0 <syscalls__os_fn_f0001007>

0000000080000364 <syscalls__syscall_machine_pte_write>:
    80000364:	000f02b7          	lui	x5,0xf0
    80000368:	0012829b          	addiw	x5,x5,1 # f0001 <__section_data_1+0x6f001>
    8000036c:	00c29293          	slli	x5,x5,0xc
    80000370:	00828293          	addi	x5,x5,8
    80000374:	245f8063          	beq	x31,x5,800005b4 <syscalls__os_fn_f0001008>

0000000080000378 <syscalls__syscall_check_get_hart_context>:
    80000378:	000782b7          	lui	x5,0x78
    8000037c:	0012829b          	addiw	x5,x5,1 # 78001 <_all_interrupts+0x75557>
    80000380:	00d29293          	slli	x5,x5,0xd
    80000384:	00128293          	addi	x5,x5,1
    80000388:	345f8063          	beq	x31,x5,800006c8 <syscalls__os_get_hart_context>
    8000038c:	5380006f          	j	800008c4 <trap_handler_m__check_exception_label>

0000000080000390 <syscalls__os_fn_f0001001>:
    80000390:	000022b7          	lui	x5,0x2
    80000394:	8002829b          	addiw	x5,x5,-2048 # 1800 <FS_RANDOMIZATION+0x179c>
    80000398:	3002b073          	csrc	mstatus,x5
    8000039c:	000022b7          	lui	x5,0x2
    800003a0:	8002829b          	addiw	x5,x5,-2048 # 1800 <FS_RANDOMIZATION+0x179c>
    800003a4:	3002a073          	csrs	mstatus,x5
    800003a8:	0010029b          	addiw	x5,x0,1
    800003ac:	02729293          	slli	x5,x5,0x27
    800003b0:	3002b073          	csrc	mstatus,x5
    800003b4:	000802b7          	lui	x5,0x80
    800003b8:	1952829b          	addiw	x5,x5,405 # 80195 <data+0x195>
    800003bc:	00c29293          	slli	x5,x5,0xc
    800003c0:	3180006f          	j	800006d8 <syscalls__ret_from_os_fn>

00000000800003c4 <syscalls__os_fn_f0001002>:
    800003c4:	000022b7          	lui	x5,0x2
    800003c8:	8002829b          	addiw	x5,x5,-2048 # 1800 <FS_RANDOMIZATION+0x179c>
    800003cc:	3002b073          	csrc	mstatus,x5
    800003d0:	000012b7          	lui	x5,0x1
    800003d4:	8002829b          	addiw	x5,x5,-2048 # 800 <FS_RANDOMIZATION+0x79c>
    800003d8:	3002a073          	csrs	mstatus,x5
    800003dc:	0010029b          	addiw	x5,x0,1
    800003e0:	02729293          	slli	x5,x5,0x27
    800003e4:	3002b073          	csrc	mstatus,x5
    800003e8:	12000073          	sfence.vma
    800003ec:	000802b7          	lui	x5,0x80
    800003f0:	0952829b          	addiw	x5,x5,149 # 80095 <data+0x95>
    800003f4:	00c29293          	slli	x5,x5,0xc
    800003f8:	2e00006f          	j	800006d8 <syscalls__ret_from_os_fn>

00000000800003fc <syscalls__os_fn_f0001003>:
    800003fc:	000802b7          	lui	x5,0x80
    80000400:	1152829b          	addiw	x5,x5,277 # 80115 <data+0x115>
    80000404:	00c29293          	slli	x5,x5,0xc
    80000408:	2d00006f          	j	800006d8 <syscalls__ret_from_os_fn>

000000008000040c <syscalls__os_fn_f0001004>:
    8000040c:	000022b7          	lui	x5,0x2
    80000410:	8002829b          	addiw	x5,x5,-2048 # 1800 <FS_RANDOMIZATION+0x179c>
    80000414:	3002b073          	csrc	mstatus,x5
    80000418:	00000293          	li	x5,0
    8000041c:	3002a073          	csrs	mstatus,x5
    80000420:	0010029b          	addiw	x5,x0,1
    80000424:	02729293          	slli	x5,x5,0x27
    80000428:	3002b073          	csrc	mstatus,x5
    8000042c:	17823283          	ld	x5,376(x4) # 178 <FS_RANDOMIZATION+0x114>
    80000430:	2a80006f          	j	800006d8 <syscalls__ret_from_os_fn>

0000000080000434 <syscalls__os_fn_f0001005>:
    80000434:	000022b7          	lui	x5,0x2
    80000438:	8002829b          	addiw	x5,x5,-2048 # 1800 <FS_RANDOMIZATION+0x179c>
    8000043c:	3002b073          	csrc	mstatus,x5
    80000440:	000022b7          	lui	x5,0x2
    80000444:	8002829b          	addiw	x5,x5,-2048 # 1800 <FS_RANDOMIZATION+0x179c>
    80000448:	3002a073          	csrs	mstatus,x5
    8000044c:	0010029b          	addiw	x5,x0,1
    80000450:	02729293          	slli	x5,x5,0x27
    80000454:	3002b073          	csrc	mstatus,x5
    80000458:	000802b7          	lui	x5,0x80
    8000045c:	2152829b          	addiw	x5,x5,533 # 80215 <data+0x215>
    80000460:	00c29293          	slli	x5,x5,0xc
    80000464:	2740006f          	j	800006d8 <syscalls__ret_from_os_fn>

0000000080000468 <syscalls__os_fn_f0001006>:
    80000468:	000022b7          	lui	x5,0x2
    8000046c:	8002829b          	addiw	x5,x5,-2048 # 1800 <FS_RANDOMIZATION+0x179c>
    80000470:	3002b073          	csrc	mstatus,x5
    80000474:	000012b7          	lui	x5,0x1
    80000478:	8002829b          	addiw	x5,x5,-2048 # 800 <FS_RANDOMIZATION+0x79c>
    8000047c:	3002a073          	csrs	mstatus,x5
    80000480:	0010029b          	addiw	x5,x0,1
    80000484:	02729293          	slli	x5,x5,0x27
    80000488:	3002b073          	csrc	mstatus,x5
    8000048c:	12000073          	sfence.vma
    80000490:	000402b7          	lui	x5,0x40
    80000494:	10b2829b          	addiw	x5,x5,267 # 4010b <_all_interrupts+0x3d661>
    80000498:	00d29293          	slli	x5,x5,0xd
    8000049c:	23c0006f          	j	800006d8 <syscalls__ret_from_os_fn>

00000000800004a0 <syscalls__os_fn_f0001007>:
    800004a0:	001dffb7          	lui	x31,0x1df
    800004a4:	b8ff8f9b          	addiw	x31,x31,-1137 # 1deb8f <SID_26_pm_different_tags_same_address_stack+0x3db8f>
    800004a8:	00ef9f93          	slli	x31,x31,0xe
    800004ac:	0b0f8f93          	addi	x31,x31,176
    800004b0:	000fbf83          	ld	x31,0(x31)
    800004b4:	001df2b7          	lui	x5,0x1df
    800004b8:	b8f2829b          	addiw	x5,x5,-1137 # 1deb8f <SID_26_pm_different_tags_same_address_stack+0x3db8f>
    800004bc:	00e29293          	slli	x5,x5,0xe
    800004c0:	0b828293          	addi	x5,x5,184
    800004c4:	0002b283          	ld	x5,0(x5)
    800004c8:	001dfe37          	lui	x28,0x1df
    800004cc:	b8fe0e1b          	addiw	x28,x28,-1137 # 1deb8f <SID_26_pm_different_tags_same_address_stack+0x3db8f>
    800004d0:	00ee1e13          	slli	x28,x28,0xe
    800004d4:	0c0e0e13          	addi	x28,x28,192
    800004d8:	000e3e03          	ld	x28,0(x28)

00000000800004dc <syscalls__pte_walk_check_glevel_without_gstage_read>:
    800004dc:	fff00f93          	li	x31,-1
    800004e0:	0dfe1863          	bne	x28,x31,800005b0 <syscalls__pte_walk_fail_read>
    800004e4:	18002373          	csrr	x6,satp
    800004e8:	03c35e93          	srli	x29,x6,0x3c
    800004ec:	01431313          	slli	x6,x6,0x14
    800004f0:	01435313          	srli	x6,x6,0x14
    800004f4:	00c31313          	slli	x6,x6,0xc
    800004f8:	ff8e8e93          	addi	x29,x29,-8
    800004fc:	003e9f13          	slli	x30,x29,0x3
    80000500:	01df0eb3          	add	x29,x30,x29
    80000504:	01ee8e93          	addi	x29,x29,30
    80000508:	00000f13          	li	x30,0

000000008000050c <syscalls__pte_walk_loop_read>:
    8000050c:	001dffb7          	lui	x31,0x1df
    80000510:	b8ff8f9b          	addiw	x31,x31,-1137 # 1deb8f <SID_26_pm_different_tags_same_address_stack+0x3db8f>
    80000514:	00ef9f93          	slli	x31,x31,0xe
    80000518:	0b0f8f93          	addi	x31,x31,176
    8000051c:	000fbf83          	ld	x31,0(x31)
    80000520:	01dfdfb3          	srl	x31,x31,x29
    80000524:	1fffff93          	andi	x31,x31,511
    80000528:	003f9f93          	slli	x31,x31,0x3
    8000052c:	01f30333          	add	x6,x6,x31
    80000530:	005f0e63          	beq	x30,x5,8000054c <syscalls__pte_walk_done_read>
    80000534:	00033f83          	ld	x31,0(x6)
    80000538:	00afdf93          	srli	x31,x31,0xa
    8000053c:	00cf9313          	slli	x6,x31,0xc
    80000540:	001f0f13          	addi	x30,x30,1
    80000544:	ff7e8e93          	addi	x29,x29,-9
    80000548:	fc5ff06f          	j	8000050c <syscalls__pte_walk_loop_read>

000000008000054c <syscalls__pte_walk_done_read>:
    8000054c:	fff00f93          	li	x31,-1
    80000550:	05fe0663          	beq	x28,x31,8000059c <syscalls__pte_walk_final_read>

0000000080000554 <syscalls__pte_walk_gstage_read>:
    80000554:	001dffb7          	lui	x31,0x1df
    80000558:	b8ff8f9b          	addiw	x31,x31,-1137 # 1deb8f <SID_26_pm_different_tags_same_address_stack+0x3db8f>
    8000055c:	00ef9f93          	slli	x31,x31,0xe
    80000560:	0b0f8f93          	addi	x31,x31,176
    80000564:	006fb023          	sd	x6,0(x31)
    80000568:	000e0293          	mv	x5,x28
    8000056c:	fff00e13          	li	x28,-1
    80000570:	68002373          	csrr	x6,hgatp
    80000574:	03c35e93          	srli	x29,x6,0x3c
    80000578:	01431313          	slli	x6,x6,0x14
    8000057c:	01435313          	srli	x6,x6,0x14
    80000580:	00c31313          	slli	x6,x6,0xc
    80000584:	ff8e8e93          	addi	x29,x29,-8
    80000588:	003e9f13          	slli	x30,x29,0x3
    8000058c:	01df0eb3          	add	x29,x30,x29
    80000590:	01ee8e93          	addi	x29,x29,30
    80000594:	00000f13          	li	x30,0
    80000598:	f75ff06f          	j	8000050c <syscalls__pte_walk_loop_read>

000000008000059c <syscalls__pte_walk_final_read>:
    8000059c:	00033383          	ld	x7,0(x6)
    800005a0:	341022f3          	csrr	x5,mepc
    800005a4:	00428293          	addi	x5,x5,4
    800005a8:	16523c23          	sd	x5,376(x4) # 178 <FS_RANDOMIZATION+0x114>
    800005ac:	e61ff06f          	j	8000040c <syscalls__os_fn_f0001004>

00000000800005b0 <syscalls__pte_walk_fail_read>:
    800005b0:	42c0006f          	j	800009dc <test_failed>

00000000800005b4 <syscalls__os_fn_f0001008>:
    800005b4:	001dffb7          	lui	x31,0x1df
    800005b8:	b8ff8f9b          	addiw	x31,x31,-1137 # 1deb8f <SID_26_pm_different_tags_same_address_stack+0x3db8f>
    800005bc:	00ef9f93          	slli	x31,x31,0xe
    800005c0:	0b0f8f93          	addi	x31,x31,176
    800005c4:	000fbf83          	ld	x31,0(x31)
    800005c8:	001df2b7          	lui	x5,0x1df
    800005cc:	b8f2829b          	addiw	x5,x5,-1137 # 1deb8f <SID_26_pm_different_tags_same_address_stack+0x3db8f>
    800005d0:	00e29293          	slli	x5,x5,0xe
    800005d4:	0b828293          	addi	x5,x5,184
    800005d8:	0002b283          	ld	x5,0(x5)
    800005dc:	001dfe37          	lui	x28,0x1df
    800005e0:	b8fe0e1b          	addiw	x28,x28,-1137 # 1deb8f <SID_26_pm_different_tags_same_address_stack+0x3db8f>
    800005e4:	00ee1e13          	slli	x28,x28,0xe
    800005e8:	0c0e0e13          	addi	x28,x28,192
    800005ec:	000e3e03          	ld	x28,0(x28)

00000000800005f0 <syscalls__pte_walk_check_glevel_without_gstage_write>:
    800005f0:	fff00f93          	li	x31,-1
    800005f4:	0dfe1863          	bne	x28,x31,800006c4 <syscalls__pte_walk_fail_write>
    800005f8:	18002373          	csrr	x6,satp
    800005fc:	03c35e93          	srli	x29,x6,0x3c
    80000600:	01431313          	slli	x6,x6,0x14
    80000604:	01435313          	srli	x6,x6,0x14
    80000608:	00c31313          	slli	x6,x6,0xc
    8000060c:	ff8e8e93          	addi	x29,x29,-8
    80000610:	003e9f13          	slli	x30,x29,0x3
    80000614:	01df0eb3          	add	x29,x30,x29
    80000618:	01ee8e93          	addi	x29,x29,30
    8000061c:	00000f13          	li	x30,0

0000000080000620 <syscalls__pte_walk_loop_write>:
    80000620:	001dffb7          	lui	x31,0x1df
    80000624:	b8ff8f9b          	addiw	x31,x31,-1137 # 1deb8f <SID_26_pm_different_tags_same_address_stack+0x3db8f>
    80000628:	00ef9f93          	slli	x31,x31,0xe
    8000062c:	0b0f8f93          	addi	x31,x31,176
    80000630:	000fbf83          	ld	x31,0(x31)
    80000634:	01dfdfb3          	srl	x31,x31,x29
    80000638:	1fffff93          	andi	x31,x31,511
    8000063c:	003f9f93          	slli	x31,x31,0x3
    80000640:	01f30333          	add	x6,x6,x31
    80000644:	005f0e63          	beq	x30,x5,80000660 <syscalls__pte_walk_done_write>
    80000648:	00033f83          	ld	x31,0(x6)
    8000064c:	00afdf93          	srli	x31,x31,0xa
    80000650:	00cf9313          	slli	x6,x31,0xc
    80000654:	001f0f13          	addi	x30,x30,1
    80000658:	ff7e8e93          	addi	x29,x29,-9
    8000065c:	fc5ff06f          	j	80000620 <syscalls__pte_walk_loop_write>

0000000080000660 <syscalls__pte_walk_done_write>:
    80000660:	fff00f93          	li	x31,-1
    80000664:	05fe0663          	beq	x28,x31,800006b0 <syscalls__pte_walk_final_write>

0000000080000668 <syscalls__pte_walk_gstage_write>:
    80000668:	001dffb7          	lui	x31,0x1df
    8000066c:	b8ff8f9b          	addiw	x31,x31,-1137 # 1deb8f <SID_26_pm_different_tags_same_address_stack+0x3db8f>
    80000670:	00ef9f93          	slli	x31,x31,0xe
    80000674:	0b0f8f93          	addi	x31,x31,176
    80000678:	006fb023          	sd	x6,0(x31)
    8000067c:	000e0293          	mv	x5,x28
    80000680:	fff00e13          	li	x28,-1
    80000684:	68002373          	csrr	x6,hgatp
    80000688:	03c35e93          	srli	x29,x6,0x3c
    8000068c:	01431313          	slli	x6,x6,0x14
    80000690:	01435313          	srli	x6,x6,0x14
    80000694:	00c31313          	slli	x6,x6,0xc
    80000698:	ff8e8e93          	addi	x29,x29,-8
    8000069c:	003e9f13          	slli	x30,x29,0x3
    800006a0:	01df0eb3          	add	x29,x30,x29
    800006a4:	01ee8e93          	addi	x29,x29,30
    800006a8:	00000f13          	li	x30,0
    800006ac:	f75ff06f          	j	80000620 <syscalls__pte_walk_loop_write>

00000000800006b0 <syscalls__pte_walk_final_write>:
    800006b0:	00733023          	sd	x7,0(x6)
    800006b4:	341022f3          	csrr	x5,mepc
    800006b8:	00428293          	addi	x5,x5,4
    800006bc:	16523c23          	sd	x5,376(x4) # 178 <FS_RANDOMIZATION+0x114>
    800006c0:	d4dff06f          	j	8000040c <syscalls__os_fn_f0001004>

00000000800006c4 <syscalls__pte_walk_fail_write>:
    800006c4:	3180006f          	j	800009dc <test_failed>

00000000800006c8 <syscalls__os_get_hart_context>:
    800006c8:	14002573          	csrr	x10,sscratch
    800006cc:	341022f3          	csrr	x5,mepc
    800006d0:	00428293          	addi	x5,x5,4
    800006d4:	0040006f          	j	800006d8 <syscalls__ret_from_os_fn>

00000000800006d8 <syscalls__ret_from_os_fn>:
    800006d8:	34102373          	csrr	x6,mepc
    800006dc:	00430313          	addi	x6,x6,4
    800006e0:	16623c23          	sd	x6,376(x4) # 178 <FS_RANDOMIZATION+0x114>
    800006e4:	34129073          	csrw	mepc,x5
    800006e8:	fff00f93          	li	x31,-1
    800006ec:	2a40006f          	j	80000990 <trap_handler_m__skip_xepc_write>

00000000800006f0 <trap_handler_m__invalid_interrupt>:
    800006f0:	2ec0006f          	j	800009dc <test_failed>

00000000800006f4 <trap_handler_m__clear_all_interrupts>:
    800006f4:	34401073          	csrw	mip,x0
    800006f8:	30200073          	mret

00000000800006fc <trap_handler_m___CLEAR_SSI>:
    800006fc:	00200293          	li	x5,2
    80000700:	3442b073          	csrc	mip,x5
    80000704:	30200073          	mret

0000000080000708 <trap_handler_m___CLEAR_MSI>:
    80000708:	00800293          	li	x5,8
    8000070c:	3442b073          	csrc	mip,x5
    80000710:	30200073          	mret

0000000080000714 <trap_handler_m___CLEAR_STI>:
    80000714:	02000293          	li	x5,32
    80000718:	3442b073          	csrc	mip,x5
    8000071c:	30200073          	mret

0000000080000720 <trap_handler_m___CLEAR_MTI>:
    80000720:	08000293          	li	x5,128
    80000724:	3442b073          	csrc	mip,x5
    80000728:	30200073          	mret

000000008000072c <trap_handler_m___CLEAR_SEI>:
    8000072c:	20000293          	li	x5,512
    80000730:	3442b073          	csrc	mip,x5
    80000734:	30200073          	mret

0000000080000738 <trap_handler_m___CLEAR_MEI>:
    80000738:	000012b7          	lui	x5,0x1
    8000073c:	8002829b          	addiw	x5,x5,-2048 # 800 <FS_RANDOMIZATION+0x79c>
    80000740:	3442b073          	csrc	mip,x5
    80000744:	30200073          	mret

0000000080000748 <trap_handler_m___CLEAR_COI>:
    80000748:	000022b7          	lui	x5,0x2
    8000074c:	3442b073          	csrc	mip,x5
    80000750:	30200073          	mret

0000000080000754 <trap_handler_m__clear_highest_priority_interrupt>:
    80000754:	344022f3          	csrr	x5,mip
    80000758:	40500333          	neg	x6,x5
    8000075c:	0062f2b3          	and	x5,x5,x6
    80000760:	3442b073          	csrc	mip,x5
    80000764:	30200073          	mret

0000000080000768 <trap_handler_m__trap_entry>:
    80000768:	0fc0006f          	j	80000864 <trap_handler_m__trap_handler>

000000008000076c <trap_handler_m__interrupt_vector_table>:
    8000076c:	f91ff06f          	j	800006fc <trap_handler_m___CLEAR_SSI>
    80000770:	f81ff06f          	j	800006f0 <trap_handler_m__invalid_interrupt>
    80000774:	f95ff06f          	j	80000708 <trap_handler_m___CLEAR_MSI>
    80000778:	f79ff06f          	j	800006f0 <trap_handler_m__invalid_interrupt>
    8000077c:	f99ff06f          	j	80000714 <trap_handler_m___CLEAR_STI>
    80000780:	f71ff06f          	j	800006f0 <trap_handler_m__invalid_interrupt>
    80000784:	f9dff06f          	j	80000720 <trap_handler_m___CLEAR_MTI>
    80000788:	f69ff06f          	j	800006f0 <trap_handler_m__invalid_interrupt>
    8000078c:	fa1ff06f          	j	8000072c <trap_handler_m___CLEAR_SEI>
    80000790:	f61ff06f          	j	800006f0 <trap_handler_m__invalid_interrupt>
    80000794:	fa5ff06f          	j	80000738 <trap_handler_m___CLEAR_MEI>
    80000798:	f59ff06f          	j	800006f0 <trap_handler_m__invalid_interrupt>
    8000079c:	fadff06f          	j	80000748 <trap_handler_m___CLEAR_COI>
    800007a0:	f51ff06f          	j	800006f0 <trap_handler_m__invalid_interrupt>
    800007a4:	f4dff06f          	j	800006f0 <trap_handler_m__invalid_interrupt>
    800007a8:	fadff06f          	j	80000754 <trap_handler_m__clear_highest_priority_interrupt>
    800007ac:	fa9ff06f          	j	80000754 <trap_handler_m__clear_highest_priority_interrupt>
    800007b0:	fa5ff06f          	j	80000754 <trap_handler_m__clear_highest_priority_interrupt>
    800007b4:	fa1ff06f          	j	80000754 <trap_handler_m__clear_highest_priority_interrupt>
    800007b8:	f9dff06f          	j	80000754 <trap_handler_m__clear_highest_priority_interrupt>
    800007bc:	f99ff06f          	j	80000754 <trap_handler_m__clear_highest_priority_interrupt>
    800007c0:	f95ff06f          	j	80000754 <trap_handler_m__clear_highest_priority_interrupt>
    800007c4:	f91ff06f          	j	80000754 <trap_handler_m__clear_highest_priority_interrupt>
    800007c8:	f8dff06f          	j	80000754 <trap_handler_m__clear_highest_priority_interrupt>
    800007cc:	f89ff06f          	j	80000754 <trap_handler_m__clear_highest_priority_interrupt>
    800007d0:	f85ff06f          	j	80000754 <trap_handler_m__clear_highest_priority_interrupt>
    800007d4:	f81ff06f          	j	80000754 <trap_handler_m__clear_highest_priority_interrupt>
    800007d8:	f7dff06f          	j	80000754 <trap_handler_m__clear_highest_priority_interrupt>
    800007dc:	f79ff06f          	j	80000754 <trap_handler_m__clear_highest_priority_interrupt>
    800007e0:	f75ff06f          	j	80000754 <trap_handler_m__clear_highest_priority_interrupt>
    800007e4:	f71ff06f          	j	80000754 <trap_handler_m__clear_highest_priority_interrupt>
    800007e8:	f6dff06f          	j	80000754 <trap_handler_m__clear_highest_priority_interrupt>
    800007ec:	f69ff06f          	j	80000754 <trap_handler_m__clear_highest_priority_interrupt>
    800007f0:	f65ff06f          	j	80000754 <trap_handler_m__clear_highest_priority_interrupt>
    800007f4:	f61ff06f          	j	80000754 <trap_handler_m__clear_highest_priority_interrupt>
    800007f8:	f5dff06f          	j	80000754 <trap_handler_m__clear_highest_priority_interrupt>
    800007fc:	f59ff06f          	j	80000754 <trap_handler_m__clear_highest_priority_interrupt>
    80000800:	f55ff06f          	j	80000754 <trap_handler_m__clear_highest_priority_interrupt>
    80000804:	f51ff06f          	j	80000754 <trap_handler_m__clear_highest_priority_interrupt>
    80000808:	f4dff06f          	j	80000754 <trap_handler_m__clear_highest_priority_interrupt>
    8000080c:	f49ff06f          	j	80000754 <trap_handler_m__clear_highest_priority_interrupt>
    80000810:	f45ff06f          	j	80000754 <trap_handler_m__clear_highest_priority_interrupt>
    80000814:	f41ff06f          	j	80000754 <trap_handler_m__clear_highest_priority_interrupt>
    80000818:	f3dff06f          	j	80000754 <trap_handler_m__clear_highest_priority_interrupt>
    8000081c:	f39ff06f          	j	80000754 <trap_handler_m__clear_highest_priority_interrupt>
    80000820:	f35ff06f          	j	80000754 <trap_handler_m__clear_highest_priority_interrupt>
    80000824:	f31ff06f          	j	80000754 <trap_handler_m__clear_highest_priority_interrupt>
    80000828:	f2dff06f          	j	80000754 <trap_handler_m__clear_highest_priority_interrupt>
    8000082c:	f29ff06f          	j	80000754 <trap_handler_m__clear_highest_priority_interrupt>
    80000830:	f25ff06f          	j	80000754 <trap_handler_m__clear_highest_priority_interrupt>
    80000834:	f21ff06f          	j	80000754 <trap_handler_m__clear_highest_priority_interrupt>
    80000838:	f1dff06f          	j	80000754 <trap_handler_m__clear_highest_priority_interrupt>
    8000083c:	f19ff06f          	j	80000754 <trap_handler_m__clear_highest_priority_interrupt>
    80000840:	f15ff06f          	j	80000754 <trap_handler_m__clear_highest_priority_interrupt>
    80000844:	f11ff06f          	j	80000754 <trap_handler_m__clear_highest_priority_interrupt>
    80000848:	f0dff06f          	j	80000754 <trap_handler_m__clear_highest_priority_interrupt>
    8000084c:	f09ff06f          	j	80000754 <trap_handler_m__clear_highest_priority_interrupt>
    80000850:	f05ff06f          	j	80000754 <trap_handler_m__clear_highest_priority_interrupt>
    80000854:	f01ff06f          	j	80000754 <trap_handler_m__clear_highest_priority_interrupt>
    80000858:	efdff06f          	j	80000754 <trap_handler_m__clear_highest_priority_interrupt>
    8000085c:	ef9ff06f          	j	80000754 <trap_handler_m__clear_highest_priority_interrupt>
    80000860:	ef5ff06f          	j	80000754 <trap_handler_m__clear_highest_priority_interrupt>

0000000080000864 <trap_handler_m__trap_handler>:
    80000864:	342022f3          	csrr	x5,mcause
    80000868:	fff0031b          	addiw	x6,x0,-1
    8000086c:	03f31313          	slli	x6,x6,0x3f
    80000870:	00537333          	and	x6,x6,x5
    80000874:	02030263          	beqz	x6,80000898 <trap_handler_m__exception_path>

0000000080000878 <trap_handler_m__interrupt_handler>:
    80000878:	fff0031b          	addiw	x6,x0,-1
    8000087c:	03f31313          	slli	x6,x6,0x3f
    80000880:	0062c2b3          	xor	x5,x5,x6
    80000884:	00000317          	auipc	x6,0x0
    80000888:	ee430313          	addi	x6,x6,-284 # 80000768 <trap_handler_m__trap_entry>
    8000088c:	00229293          	slli	x5,x5,0x2
    80000890:	005302b3          	add	x5,x6,x5
    80000894:	00028067          	jr	x5 # 2000 <FS_RANDOMIZATION+0x1f9c>

0000000080000898 <trap_handler_m__exception_path>:
    80000898:	34021273          	csrrw	x4,mscratch,x4
    8000089c:	00000297          	auipc	x5,0x0
    800008a0:	10828293          	addi	x5,x5,264 # 800009a4 <trap_handler_m__trap_panic>
    800008a4:	30529073          	csrw	mtvec,x5
    800008a8:	0040006f          	j	800008ac <trap_handler_m__excp_entry>

00000000800008ac <trap_handler_m__excp_entry>:
    800008ac:	34202373          	csrr	x6,mcause
    800008b0:	00800293          	li	x5,8
    800008b4:	00534863          	blt	x6,x5,800008c4 <trap_handler_m__check_exception_label>
    800008b8:	00b00293          	li	x5,11
    800008bc:	0062c463          	blt	x5,x6,800008c4 <trap_handler_m__check_exception_label>
    800008c0:	9b9ff06f          	j	80000278 <syscalls__syscall_check_schedule_next_test>

00000000800008c4 <trap_handler_m__check_exception_label>:
    800008c4:	04623c23          	sd	x6,88(x4) # 58 <XLEN+0x18>
    800008c8:	341022f3          	csrr	x5,mepc
    800008cc:	02523423          	sd	x5,40(x4) # 28 <SECURE_ACCESS_PROBABILITY+0xa>
    800008d0:	01820283          	lb	x5,24(x4) # 18 <STORE_GUEST_PAGE_FAULT+0x1>
    800008d4:	00029863          	bnez	x5,800008e4 <trap_handler_m__check_excp>
    800008d8:	00128293          	addi	x5,x5,1
    800008dc:	00520c23          	sb	x5,24(x4) # 18 <STORE_GUEST_PAGE_FAULT+0x1>
    800008e0:	0980006f          	j	80000978 <trap_handler_m__ecall_from_machine>

00000000800008e4 <trap_handler_m__check_excp>:
    800008e4:	06820293          	addi	x5,x4,104 # 68 <FS_RANDOMIZATION+0x4>
    800008e8:	0802b2af          	amoswap.d	x5,x0,(x5)
    800008ec:	00028663          	beqz	x5,800008f8 <trap_handler_m__skip_mode_check>
    800008f0:	00100393          	li	x7,1
    800008f4:	0e729463          	bne	x5,x7,800009dc <test_failed>

00000000800008f8 <trap_handler_m__skip_mode_check>:
    800008f8:	05020293          	addi	x5,x4,80 # 50 <XLEN+0x10>
    800008fc:	0802b2af          	amoswap.d	x5,x0,(x5)
    80000900:	0c531e63          	bne	x6,x5,800009dc <test_failed>
    80000904:	03820293          	addi	x5,x4,56 # 38 <SECURE_ACCESS_PROBABILITY+0x1a>
    80000908:	0802b2af          	amoswap.d	x5,x0,(x5)
    8000090c:	06029463          	bnez	x5,80000974 <trap_handler_m__skip_gva_check>
    80000910:	02020313          	addi	x6,x4,32 # 20 <SECURE_ACCESS_PROBABILITY+0x2>
    80000914:	0803332f          	amoswap.d	x6,x0,(x6)
    80000918:	02820293          	addi	x5,x4,40 # 28 <SECURE_ACCESS_PROBABILITY+0xa>
    8000091c:	0802b2af          	amoswap.d	x5,x0,(x5)
    80000920:	0a531e63          	bne	x6,x5,800009dc <test_failed>
    80000924:	04020293          	addi	x5,x4,64 # 40 <XLEN>
    80000928:	0802b2af          	amoswap.d	x5,x0,(x5)
    8000092c:	00028663          	beqz	x5,80000938 <trap_handler_m__skip_nonzero_tval_check>

0000000080000930 <trap_handler_m__nonzero_tval_check>:
    80000930:	34302373          	csrr	x6,mtval
    80000934:	0a531463          	bne	x6,x5,800009dc <test_failed>

0000000080000938 <trap_handler_m__skip_nonzero_tval_check>:
    80000938:	04820293          	addi	x5,x4,72 # 48 <XLEN+0x8>
    8000093c:	0802b2af          	amoswap.d	x5,x0,(x5)
    80000940:	00028663          	beqz	x5,8000094c <trap_handler_m__skip_nonzero_htval_check>

0000000080000944 <trap_handler_m__nonzero_htval_check>:
    80000944:	34b02373          	csrr	x6,0x34b
    80000948:	08531a63          	bne	x6,x5,800009dc <test_failed>

000000008000094c <trap_handler_m__skip_nonzero_htval_check>:
    8000094c:	06020293          	addi	x5,x4,96 # 60 <XLEN+0x20>
    80000950:	0802b2af          	amoswap.d	x5,x0,(x5)
    80000954:	02028063          	beqz	x5,80000974 <trap_handler_m__skip_gva_check>

0000000080000958 <trap_handler_m__gva_check>:
    80000958:	30002373          	csrr	x6,mstatus
    8000095c:	02635313          	srli	x6,x6,0x26
    80000960:	00137313          	andi	x6,x6,1
    80000964:	06030c63          	beqz	x6,800009dc <test_failed>
    80000968:	0010031b          	addiw	x6,x0,1
    8000096c:	02631313          	slli	x6,x6,0x26
    80000970:	30033073          	csrc	mstatus,x6

0000000080000974 <trap_handler_m__skip_gva_check>:
    80000974:	0040006f          	j	80000978 <trap_handler_m__ecall_from_machine>

0000000080000978 <trap_handler_m__ecall_from_machine>:
    80000978:	03020293          	addi	x5,x4,48 # 30 <SECURE_ACCESS_PROBABILITY+0x12>
    8000097c:	0802b2af          	amoswap.d	x5,x0,(x5)
    80000980:	07020313          	addi	x6,x4,112 # 70 <FS_RANDOMIZATION+0xc>
    80000984:	0803332f          	amoswap.d	x6,x0,(x6)
    80000988:	00031463          	bnez	x6,80000990 <trap_handler_m__skip_xepc_write>
    8000098c:	34129073          	csrw	mepc,x5

0000000080000990 <trap_handler_m__skip_xepc_write>:
    80000990:	00000317          	auipc	x6,0x0
    80000994:	dd830313          	addi	x6,x6,-552 # 80000768 <trap_handler_m__trap_entry>
    80000998:	30531073          	csrw	mtvec,x6
    8000099c:	34021273          	csrrw	x4,mscratch,x4
    800009a0:	30200073          	mret

00000000800009a4 <trap_handler_m__trap_panic>:
    800009a4:	00000193          	li	x3,0
    800009a8:	2e80006f          	j	80000c90 <eot__end_test>

00000000800009ac <enter_scheduler>:
    800009ac:	0002f337          	lui	x6,0x2f
    800009b0:	ab73031b          	addiw	x6,x6,-1353 # 2eab7 <_all_interrupts+0x2c00d>
    800009b4:	00e31313          	slli	x6,x6,0xe
    800009b8:	0de30313          	addi	x6,x6,222
    800009bc:	02628063          	beq	x5,x6,800009dc <test_failed>
    800009c0:	00000513          	li	x10,0
    800009c4:	030000ef          	jal	800009f4 <rvcp_print_test_result>
    800009c8:	34c0006f          	j	80000d14 <scheduler__dispatch>

00000000800009cc <test_passed>:
    800009cc:	34021273          	csrrw	x4,mscratch,x4
    800009d0:	00000513          	li	x10,0
    800009d4:	020000ef          	jal	800009f4 <rvcp_print_test_result>
    800009d8:	33c0006f          	j	80000d14 <scheduler__dispatch>

00000000800009dc <test_failed>:
    800009dc:	34021273          	csrrw	x4,mscratch,x4
    800009e0:	00300193          	li	x3,3
    800009e4:	2ac0006f          	j	80000c90 <eot__end_test>

00000000800009e8 <os_end_test>:
    800009e8:	34021273          	csrrw	x4,mscratch,x4
    800009ec:	00100193          	li	x3,1
    800009f0:	2a00006f          	j	80000c90 <eot__end_test>

00000000800009f4 <rvcp_print_test_result>:
    800009f4:	00050e13          	mv	x28,x10
    800009f8:	19823283          	ld	x5,408(x4) # 198 <FS_RANDOMIZATION+0x134>
    800009fc:	0010031b          	addiw	x6,x0,1
    80000a00:	02031313          	slli	x6,x6,0x20
    80000a04:	ffe30313          	addi	x6,x6,-2
    80000a08:	1e628c63          	beq	x5,x6,80000c00 <rvcp_print_test_result+0x20c>
    80000a0c:	0010031b          	addiw	x6,x0,1
    80000a10:	02031313          	slli	x6,x6,0x20
    80000a14:	fff30313          	addi	x6,x6,-1
    80000a18:	1e628463          	beq	x5,x6,80000c00 <rvcp_print_test_result+0x20c>
    80000a1c:	1e02c263          	bltz	x5,80000c00 <rvcp_print_test_result+0x20c>
    80000a20:	00000317          	auipc	x6,0x0
    80000a24:	4d430313          	addi	x6,x6,1236 # 80000ef4 <dtest_descriptor_table>
    80000a28:	00329393          	slli	x7,x5,0x3
    80000a2c:	00730333          	add	x6,x6,x7
    80000a30:	00033e83          	ld	x29,0(x6)
    80000a34:	001dff37          	lui	x30,0x1df
    80000a38:	b8ff0f1b          	addiw	x30,x30,-1137 # 1deb8f <SID_26_pm_different_tags_same_address_stack+0x3db8f>
    80000a3c:	00ef1f13          	slli	x30,x30,0xe
    80000a40:	030f0f13          	addi	x30,x30,48
    80000a44:	000f4283          	lbu	x5,0(x30)
    80000a48:	02028663          	beqz	x5,80000a74 <rvcp_print_test_result+0x80>
    80000a4c:	1010031b          	addiw	x6,x0,257
    80000a50:	03031313          	slli	x6,x6,0x30
    80000a54:	005362b3          	or	x5,x6,x5
    80000a58:	effff317          	auipc	x6,0xeffff
    80000a5c:	5a830313          	addi	x6,x6,1448 # 70000000 <tohost>
    80000a60:	00033383          	ld	x7,0(x6)
    80000a64:	fe039ee3          	bnez	x7,80000a60 <rvcp_print_test_result+0x6c>
    80000a68:	00533023          	sd	x5,0(x6)
    80000a6c:	001f0f13          	addi	x30,x30,1
    80000a70:	fd5ff06f          	j	80000a44 <rvcp_print_test_result+0x50>
    80000a74:	001dff37          	lui	x30,0x1df
    80000a78:	b8ff0f1b          	addiw	x30,x30,-1137 # 1deb8f <SID_26_pm_different_tags_same_address_stack+0x3db8f>
    80000a7c:	00ef1f13          	slli	x30,x30,0xe
    80000a80:	041f0f13          	addi	x30,x30,65
    80000a84:	000f4283          	lbu	x5,0(x30)
    80000a88:	02028663          	beqz	x5,80000ab4 <rvcp_print_test_result+0xc0>
    80000a8c:	1010031b          	addiw	x6,x0,257
    80000a90:	03031313          	slli	x6,x6,0x30
    80000a94:	005362b3          	or	x5,x6,x5
    80000a98:	effff317          	auipc	x6,0xeffff
    80000a9c:	56830313          	addi	x6,x6,1384 # 70000000 <tohost>
    80000aa0:	00033383          	ld	x7,0(x6)
    80000aa4:	fe039ee3          	bnez	x7,80000aa0 <rvcp_print_test_result+0xac>
    80000aa8:	00533023          	sd	x5,0(x6)
    80000aac:	001f0f13          	addi	x30,x30,1
    80000ab0:	fd5ff06f          	j	80000a84 <rvcp_print_test_result+0x90>
    80000ab4:	001dff37          	lui	x30,0x1df
    80000ab8:	b8ff0f1b          	addiw	x30,x30,-1137 # 1deb8f <SID_26_pm_different_tags_same_address_stack+0x3db8f>
    80000abc:	00ef1f13          	slli	x30,x30,0xe
    80000ac0:	059f0f13          	addi	x30,x30,89
    80000ac4:	000f4283          	lbu	x5,0(x30)
    80000ac8:	02028663          	beqz	x5,80000af4 <rvcp_print_test_result+0x100>
    80000acc:	1010031b          	addiw	x6,x0,257
    80000ad0:	03031313          	slli	x6,x6,0x30
    80000ad4:	005362b3          	or	x5,x6,x5
    80000ad8:	effff317          	auipc	x6,0xeffff
    80000adc:	52830313          	addi	x6,x6,1320 # 70000000 <tohost>
    80000ae0:	00033383          	ld	x7,0(x6)
    80000ae4:	fe039ee3          	bnez	x7,80000ae0 <rvcp_print_test_result+0xec>
    80000ae8:	00533023          	sd	x5,0(x6)
    80000aec:	001f0f13          	addi	x30,x30,1
    80000af0:	fd5ff06f          	j	80000ac4 <rvcp_print_test_result+0xd0>
    80000af4:	000e8f13          	mv	x30,x29
    80000af8:	000f4283          	lbu	x5,0(x30)
    80000afc:	02028663          	beqz	x5,80000b28 <rvcp_print_test_result+0x134>
    80000b00:	1010031b          	addiw	x6,x0,257
    80000b04:	03031313          	slli	x6,x6,0x30
    80000b08:	005362b3          	or	x5,x6,x5
    80000b0c:	effff317          	auipc	x6,0xeffff
    80000b10:	4f430313          	addi	x6,x6,1268 # 70000000 <tohost>
    80000b14:	00033383          	ld	x7,0(x6)
    80000b18:	fe039ee3          	bnez	x7,80000b14 <rvcp_print_test_result+0x120>
    80000b1c:	00533023          	sd	x5,0(x6)
    80000b20:	001f0f13          	addi	x30,x30,1
    80000b24:	fd5ff06f          	j	80000af8 <rvcp_print_test_result+0x104>
    80000b28:	001dff37          	lui	x30,0x1df
    80000b2c:	b8ff0f1b          	addiw	x30,x30,-1137 # 1deb8f <SID_26_pm_different_tags_same_address_stack+0x3db8f>
    80000b30:	00ef1f13          	slli	x30,x30,0xe
    80000b34:	059f0f13          	addi	x30,x30,89
    80000b38:	000f4283          	lbu	x5,0(x30)
    80000b3c:	02028663          	beqz	x5,80000b68 <rvcp_print_test_result+0x174>
    80000b40:	1010031b          	addiw	x6,x0,257
    80000b44:	03031313          	slli	x6,x6,0x30
    80000b48:	005362b3          	or	x5,x6,x5
    80000b4c:	effff317          	auipc	x6,0xeffff
    80000b50:	4b430313          	addi	x6,x6,1204 # 70000000 <tohost>
    80000b54:	00033383          	ld	x7,0(x6)
    80000b58:	fe039ee3          	bnez	x7,80000b54 <rvcp_print_test_result+0x160>
    80000b5c:	00533023          	sd	x5,0(x6)
    80000b60:	001f0f13          	addi	x30,x30,1
    80000b64:	fd5ff06f          	j	80000b38 <rvcp_print_test_result+0x144>
    80000b68:	000e1c63          	bnez	x28,80000b80 <rvcp_print_test_result+0x18c>
    80000b6c:	001dff37          	lui	x30,0x1df
    80000b70:	b8ff0f1b          	addiw	x30,x30,-1137 # 1deb8f <SID_26_pm_different_tags_same_address_stack+0x3db8f>
    80000b74:	00ef1f13          	slli	x30,x30,0xe
    80000b78:	04bf0f13          	addi	x30,x30,75
    80000b7c:	0140006f          	j	80000b90 <rvcp_print_test_result+0x19c>
    80000b80:	001dff37          	lui	x30,0x1df
    80000b84:	b8ff0f1b          	addiw	x30,x30,-1137 # 1deb8f <SID_26_pm_different_tags_same_address_stack+0x3db8f>
    80000b88:	00ef1f13          	slli	x30,x30,0xe
    80000b8c:	052f0f13          	addi	x30,x30,82
    80000b90:	000f4283          	lbu	x5,0(x30)
    80000b94:	02028663          	beqz	x5,80000bc0 <rvcp_print_test_result+0x1cc>
    80000b98:	1010031b          	addiw	x6,x0,257
    80000b9c:	03031313          	slli	x6,x6,0x30
    80000ba0:	005362b3          	or	x5,x6,x5
    80000ba4:	effff317          	auipc	x6,0xeffff
    80000ba8:	45c30313          	addi	x6,x6,1116 # 70000000 <tohost>
    80000bac:	00033383          	ld	x7,0(x6)
    80000bb0:	fe039ee3          	bnez	x7,80000bac <rvcp_print_test_result+0x1b8>
    80000bb4:	00533023          	sd	x5,0(x6)
    80000bb8:	001f0f13          	addi	x30,x30,1
    80000bbc:	fd5ff06f          	j	80000b90 <rvcp_print_test_result+0x19c>
    80000bc0:	001dff37          	lui	x30,0x1df
    80000bc4:	b8ff0f1b          	addiw	x30,x30,-1137 # 1deb8f <SID_26_pm_different_tags_same_address_stack+0x3db8f>
    80000bc8:	00ef1f13          	slli	x30,x30,0xe
    80000bcc:	05bf0f13          	addi	x30,x30,91
    80000bd0:	000f4283          	lbu	x5,0(x30)
    80000bd4:	02028663          	beqz	x5,80000c00 <rvcp_print_test_result+0x20c>
    80000bd8:	1010031b          	addiw	x6,x0,257
    80000bdc:	03031313          	slli	x6,x6,0x30
    80000be0:	005362b3          	or	x5,x6,x5
    80000be4:	effff317          	auipc	x6,0xeffff
    80000be8:	41c30313          	addi	x6,x6,1052 # 70000000 <tohost>
    80000bec:	00033383          	ld	x7,0(x6)
    80000bf0:	fe039ee3          	bnez	x7,80000bec <rvcp_print_test_result+0x1f8>
    80000bf4:	00533023          	sd	x5,0(x6)
    80000bf8:	001f0f13          	addi	x30,x30,1
    80000bfc:	fd5ff06f          	j	80000bd0 <rvcp_print_test_result+0x1dc>
    80000c00:	00008067          	ret

0000000080000c04 <os_rng_orig>:
    80000c04:	f14023f3          	csrr	x7,mhartid
    80000c08:	00068313          	mv	x6,x13
    80000c0c:	026383b3          	mul	x7,x7,x6
    80000c10:	00058313          	mv	x6,x11
    80000c14:	00730333          	add	x6,x6,x7
    80000c18:	00033283          	ld	x5,0(x6)
    80000c1c:	01529313          	slli	x6,x5,0x15
    80000c20:	0062c2b3          	xor	x5,x5,x6
    80000c24:	0232d313          	srli	x6,x5,0x23
    80000c28:	0062c2b3          	xor	x5,x5,x6
    80000c2c:	00429313          	slli	x6,x5,0x4
    80000c30:	0062c2b3          	xor	x5,x5,x6
    80000c34:	00058313          	mv	x6,x11
    80000c38:	00730333          	add	x6,x6,x7
    80000c3c:	00533023          	sd	x5,0(x6)
    80000c40:	00060313          	mv	x6,x12
    80000c44:	0262f2b3          	remu	x5,x5,x6
    80000c48:	00028513          	mv	x10,x5
    80000c4c:	00008067          	ret
    80000c50:	02a00513          	li	x10,42
    80000c54:	001965b7          	lui	x11,0x196
    80000c58:	60d5859b          	addiw	x11,x11,1549 # 19660d <__section_data_1+0x11560d>
    80000c5c:	3c6ef637          	lui	x12,0x3c6ef
    80000c60:	35f6061b          	addiw	x12,x12,863 # 3c6ef35f <saplic_255+0x1bdf035f>
    80000c64:	02200693          	li	x13,34
    80000c68:	02b50533          	mul	x10,x10,x11
    80000c6c:	00c50533          	add	x10,x10,x12
    80000c70:	02d56533          	rem	x10,x10,x13
    80000c74:	00b00593          	li	x11,11
    80000c78:	02b56533          	rem	x10,x10,x11
    80000c7c:	00008067          	ret

0000000080000c80 <tohost_mutex>:
	...

0000000080000c88 <tohost_addr_mem>:
    80000c88:	0000                	.insn	2, 0x0000
    80000c8a:	7000                	.insn	2, 0x7000
    80000c8c:	0000                	.insn	2, 0x0000
	...

0000000080000c90 <eot__end_test>:
    80000c90:	00100293          	li	x5,1
    80000c94:	00328463          	beq	x5,x3,80000c9c <eot__passed>
    80000c98:	01c0006f          	j	80000cb4 <eot__failed>

0000000080000c9c <eot__passed>:
    80000c9c:	0ff0000f          	fence
    80000ca0:	00000297          	auipc	x5,0x0
    80000ca4:	fe82b283          	ld	x5,-24(x5) # 80000c88 <tohost_addr_mem>
    80000ca8:	00100313          	li	x6,1
    80000cac:	0062a023          	sw	x6,0(x5)
    80000cb0:	0240006f          	j	80000cd4 <eot__halt>

0000000080000cb4 <eot__failed>:
    80000cb4:	00100513          	li	x10,1
    80000cb8:	d3dff0ef          	jal	800009f4 <rvcp_print_test_result>
    80000cbc:	0ff0000f          	fence
    80000cc0:	00000297          	auipc	x5,0x0
    80000cc4:	fc82b283          	ld	x5,-56(x5) # 80000c88 <tohost_addr_mem>
    80000cc8:	00300313          	li	x6,3
    80000ccc:	0062a023          	sw	x6,0(x5)
    80000cd0:	0040006f          	j	80000cd4 <eot__halt>

0000000080000cd4 <eot__halt>:
    80000cd4:	10500073          	wfi
    80000cd8:	ffdff06f          	j	80000cd4 <eot__halt>

0000000080000cdc <scheduler__init>:
    80000cdc:	00000297          	auipc	x5,0x0
    80000ce0:	14028293          	addi	x5,x5,320 # 80000e1c <scheduler__panic>
    80000ce4:	305292f3          	csrrw	x5,mtvec,x5
    80000ce8:	18523023          	sd	x5,384(x4) # 180 <FS_RANDOMIZATION+0x11c>
    80000cec:	01600293          	li	x5,22
    80000cf0:	1a523023          	sd	x5,416(x4) # 1a0 <FS_RANDOMIZATION+0x13c>
    80000cf4:	0010029b          	addiw	x5,x0,1
    80000cf8:	02029293          	slli	x5,x5,0x20
    80000cfc:	ffe28293          	addi	x5,x5,-2
    80000d00:	18523c23          	sd	x5,408(x4) # 198 <FS_RANDOMIZATION+0x134>
    80000d04:	00000317          	auipc	x6,0x0
    80000d08:	35030313          	addi	x6,x6,848 # 80001054 <scheduler__test_setup_ptr>
    80000d0c:	00033303          	ld	x6,0(x6)
    80000d10:	0e40006f          	j	80000df4 <scheduler__execute_test>

0000000080000d14 <scheduler__dispatch>:
    80000d14:	00000297          	auipc	x5,0x0
    80000d18:	10828293          	addi	x5,x5,264 # 80000e1c <scheduler__panic>
    80000d1c:	305292f3          	csrrw	x5,mtvec,x5
    80000d20:	18523023          	sd	x5,384(x4) # 180 <FS_RANDOMIZATION+0x11c>

0000000080000d24 <scheduler__csr_read_randomization>:
    80000d24:	00000e17          	auipc	x28,0x0
    80000d28:	1b8e0e13          	addi	x28,x28,440 # 80000edc <fs_rr_table>
    80000d2c:	18823e83          	ld	x29,392(x4) # 188 <FS_RANDOMIZATION+0x124>
    80000d30:	002e9f13          	slli	x30,x29,0x2
    80000d34:	01ee0f33          	add	x30,x28,x30
    80000d38:	000f2f03          	lw	x30,0(x30)
    80000d3c:	00df1f13          	slli	x30,x30,0xd
    80000d40:	00006e37          	lui	x28,0x6
    80000d44:	100e3073          	csrc	sstatus,x28
    80000d48:	100f2073          	csrs	sstatus,x30
    80000d4c:	001e8e93          	addi	x29,x29,1
    80000d50:	00300e13          	li	x28,3
    80000d54:	01cec463          	blt	x29,x28,80000d5c <scheduler__csr_read_randomization+0x38>
    80000d58:	00000e93          	li	x29,0
    80000d5c:	19d23423          	sd	x29,392(x4) # 188 <FS_RANDOMIZATION+0x124>
    80000d60:	00000e17          	auipc	x28,0x0
    80000d64:	188e0e13          	addi	x28,x28,392 # 80000ee8 <vs_rr_table>
    80000d68:	19023e83          	ld	x29,400(x4) # 190 <FS_RANDOMIZATION+0x12c>
    80000d6c:	002e9f13          	slli	x30,x29,0x2
    80000d70:	01ee0f33          	add	x30,x28,x30
    80000d74:	000f2f03          	lw	x30,0(x30)
    80000d78:	009f1f13          	slli	x30,x30,0x9
    80000d7c:	60000e13          	li	x28,1536
    80000d80:	100e3073          	csrc	sstatus,x28
    80000d84:	100f2073          	csrs	sstatus,x30
    80000d88:	001e8e93          	addi	x29,x29,1
    80000d8c:	00300e13          	li	x28,3
    80000d90:	01cec463          	blt	x29,x28,80000d98 <scheduler__csr_read_randomization+0x74>
    80000d94:	00000e93          	li	x29,0
    80000d98:	19d23823          	sd	x29,400(x4) # 190 <FS_RANDOMIZATION+0x12c>
    80000d9c:	10a022f3          	csrr	x5,0x10a
    80000da0:	344022f3          	csrr	x5,mip
    80000da4:	143022f3          	csrr	x5,stval
    80000da8:	105022f3          	csrr	x5,stvec
    80000dac:	105022f3          	csrr	x5,stvec
    80000db0:	30a022f3          	csrr	x5,0x30a
    80000db4:	302022f3          	csrr	x5,medeleg

0000000080000db8 <scheduler__load_num_runs>:
    80000db8:	1a023303          	ld	x6,416(x4) # 1a0 <FS_RANDOMIZATION+0x13c>
    80000dbc:	04030c63          	beqz	x6,80000e14 <scheduler__finished>

0000000080000dc0 <scheduler__decrement_num_runs>:
    80000dc0:	fff30393          	addi	x7,x6,-1
    80000dc4:	1a723023          	sd	x7,416(x4) # 1a0 <FS_RANDOMIZATION+0x13c>
    80000dc8:	00000e17          	auipc	x28,0x0
    80000dcc:	230e0e13          	addi	x28,x28,560 # 80000ff8 <dtest_index_map>
    80000dd0:	00239e93          	slli	x29,x7,0x2
    80000dd4:	01de0e33          	add	x28,x28,x29
    80000dd8:	000e2e03          	lw	x28,0(x28)
    80000ddc:	19c23c23          	sd	x28,408(x4) # 198 <FS_RANDOMIZATION+0x134>

0000000080000de0 <scheduler__calc_test_pointer>:
    80000de0:	00339293          	slli	x5,x7,0x3

0000000080000de4 <scheduler__load_test_addr>:
    80000de4:	00000317          	auipc	x6,0x0
    80000de8:	04830313          	addi	x6,x6,72 # 80000e2c <os_test_sequence>
    80000dec:	006282b3          	add	x5,x5,x6
    80000df0:	0002b303          	ld	x6,0(x5)

0000000080000df4 <scheduler__execute_test>:
    80000df4:	18023283          	ld	x5,384(x4) # 180 <FS_RANDOMIZATION+0x11c>
    80000df8:	30529073          	csrw	mtvec,x5
    80000dfc:	34021273          	csrrw	x4,mscratch,x4
    80000e00:	00000213          	li	x4,0
    80000e04:	14131073          	csrw	sepc,x6
    80000e08:	10000293          	li	x5,256
    80000e0c:	1002b073          	csrc	sstatus,x5
    80000e10:	10200073          	sret

0000000080000e14 <scheduler__finished>:
    80000e14:	00100193          	li	x3,1
    80000e18:	e79ff06f          	j	80000c90 <eot__end_test>

0000000080000e1c <scheduler__panic>:
    80000e1c:	00000193          	li	x3,0
    80000e20:	e71ff06f          	j	80000c90 <eot__end_test>

0000000080000e24 <num_runs>:
    80000e24:	0016                	.insn	2, 0x0016
    80000e26:	0000                	.insn	2, 0x0000
    80000e28:	0000                	.insn	2, 0x0000
	...

0000000080000e2c <os_test_sequence>:
    80000e2c:	56c0                	.insn	2, 0x56c0
    80000e2e:	8001                	.insn	2, 0x8001
    80000e30:	0000                	.insn	2, 0x0000
    80000e32:	0000                	.insn	2, 0x0000
    80000e34:	55ac                	.insn	2, 0x55ac
    80000e36:	8001                	.insn	2, 0x8001
    80000e38:	0000                	.insn	2, 0x0000
    80000e3a:	0000                	.insn	2, 0x0000
    80000e3c:	54f0                	.insn	2, 0x54f0
    80000e3e:	8001                	.insn	2, 0x8001
    80000e40:	0000                	.insn	2, 0x0000
    80000e42:	0000                	.insn	2, 0x0000
    80000e44:	55ac                	.insn	2, 0x55ac
    80000e46:	8001                	.insn	2, 0x8001
    80000e48:	0000                	.insn	2, 0x0000
    80000e4a:	0000                	.insn	2, 0x0000
    80000e4c:	5368                	.insn	2, 0x5368
    80000e4e:	8001                	.insn	2, 0x8001
    80000e50:	0000                	.insn	2, 0x0000
    80000e52:	0000                	.insn	2, 0x0000
    80000e54:	51c4                	.insn	2, 0x51c4
    80000e56:	8001                	.insn	2, 0x8001
    80000e58:	0000                	.insn	2, 0x0000
    80000e5a:	0000                	.insn	2, 0x0000
    80000e5c:	5368                	.insn	2, 0x5368
    80000e5e:	8001                	.insn	2, 0x8001
    80000e60:	0000                	.insn	2, 0x0000
    80000e62:	0000                	.insn	2, 0x0000
    80000e64:	5090                	.insn	2, 0x5090
    80000e66:	8001                	.insn	2, 0x8001
    80000e68:	0000                	.insn	2, 0x0000
    80000e6a:	0000                	.insn	2, 0x0000
    80000e6c:	5414                	.insn	2, 0x5414
    80000e6e:	8001                	.insn	2, 0x8001
    80000e70:	0000                	.insn	2, 0x0000
    80000e72:	0000                	.insn	2, 0x0000
    80000e74:	5090                	.insn	2, 0x5090
    80000e76:	8001                	.insn	2, 0x8001
    80000e78:	0000                	.insn	2, 0x0000
    80000e7a:	0000                	.insn	2, 0x0000
    80000e7c:	54f0                	.insn	2, 0x54f0
    80000e7e:	8001                	.insn	2, 0x8001
    80000e80:	0000                	.insn	2, 0x0000
    80000e82:	0000                	.insn	2, 0x0000
    80000e84:	52b4                	.insn	2, 0x52b4
    80000e86:	8001                	.insn	2, 0x8001
    80000e88:	0000                	.insn	2, 0x0000
    80000e8a:	0000                	.insn	2, 0x0000
    80000e8c:	5368                	.insn	2, 0x5368
    80000e8e:	8001                	.insn	2, 0x8001
    80000e90:	0000                	.insn	2, 0x0000
    80000e92:	0000                	.insn	2, 0x0000
    80000e94:	5414                	.insn	2, 0x5414
    80000e96:	8001                	.insn	2, 0x8001
    80000e98:	0000                	.insn	2, 0x0000
    80000e9a:	0000                	.insn	2, 0x0000
    80000e9c:	52b4                	.insn	2, 0x52b4
    80000e9e:	8001                	.insn	2, 0x8001
    80000ea0:	0000                	.insn	2, 0x0000
    80000ea2:	0000                	.insn	2, 0x0000
    80000ea4:	5414                	.insn	2, 0x5414
    80000ea6:	8001                	.insn	2, 0x8001
    80000ea8:	0000                	.insn	2, 0x0000
    80000eaa:	0000                	.insn	2, 0x0000
    80000eac:	54f0                	.insn	2, 0x54f0
    80000eae:	8001                	.insn	2, 0x8001
    80000eb0:	0000                	.insn	2, 0x0000
    80000eb2:	0000                	.insn	2, 0x0000
    80000eb4:	51c4                	.insn	2, 0x51c4
    80000eb6:	8001                	.insn	2, 0x8001
    80000eb8:	0000                	.insn	2, 0x0000
    80000eba:	0000                	.insn	2, 0x0000
    80000ebc:	52b4                	.insn	2, 0x52b4
    80000ebe:	8001                	.insn	2, 0x8001
    80000ec0:	0000                	.insn	2, 0x0000
    80000ec2:	0000                	.insn	2, 0x0000
    80000ec4:	5090                	.insn	2, 0x5090
    80000ec6:	8001                	.insn	2, 0x8001
    80000ec8:	0000                	.insn	2, 0x0000
    80000eca:	0000                	.insn	2, 0x0000
    80000ecc:	55ac                	.insn	2, 0x55ac
    80000ece:	8001                	.insn	2, 0x8001
    80000ed0:	0000                	.insn	2, 0x0000
    80000ed2:	0000                	.insn	2, 0x0000
    80000ed4:	51c4                	.insn	2, 0x51c4
    80000ed6:	8001                	.insn	2, 0x8001
    80000ed8:	0000                	.insn	2, 0x0000
	...

0000000080000edc <fs_rr_table>:
    80000edc:	0001                	.insn	2, 0x0001
    80000ede:	0000                	.insn	2, 0x0000
    80000ee0:	0002                	.insn	2, 0x0002
    80000ee2:	0000                	.insn	2, 0x0000
    80000ee4:	00000003          	lb	x0,0(x0) # 0 <ALL_4KB_PAGES>

0000000080000ee8 <vs_rr_table>:
    80000ee8:	0001                	.insn	2, 0x0001
    80000eea:	0000                	.insn	2, 0x0000
    80000eec:	0002                	.insn	2, 0x0002
    80000eee:	0000                	.insn	2, 0x0000
    80000ef0:	00000003          	lb	x0,0(x0) # 0 <ALL_4KB_PAGES>

0000000080000ef4 <dtest_descriptor_table>:
    80000ef4:	0f2c                	.insn	2, 0x0f2c
    80000ef6:	8000                	.insn	2, 0x8000
    80000ef8:	0000                	.insn	2, 0x0000
    80000efa:	0000                	.insn	2, 0x0000
    80000efc:	0f49                	.insn	2, 0x0f49
    80000efe:	8000                	.insn	2, 0x8000
    80000f00:	0000                	.insn	2, 0x0000
    80000f02:	0000                	.insn	2, 0x0000
    80000f04:	0f65                	.insn	2, 0x0f65
    80000f06:	8000                	.insn	2, 0x8000
    80000f08:	0000                	.insn	2, 0x0000
    80000f0a:	0000                	.insn	2, 0x0000
    80000f0c:	0f7f 8000 0000 0000 	.insn	10, 0x0f9b0000000080000f7f
    80000f14:	0f9b 
    80000f16:	8000                	.insn	2, 0x8000
    80000f18:	0000                	.insn	2, 0x0000
    80000f1a:	0000                	.insn	2, 0x0000
    80000f1c:	0fc1                	.insn	2, 0x0fc1
    80000f1e:	8000                	.insn	2, 0x8000
    80000f20:	0000                	.insn	2, 0x0000
    80000f22:	0000                	.insn	2, 0x0000
    80000f24:	80000fdb          	.insn	4, 0x80000fdb
    80000f28:	0000                	.insn	2, 0x0000
	...

0000000080000f2c <dtest_name_0>:
    80000f2c:	5f444953          	.insn	4, 0x5f444953
    80000f30:	3530                	.insn	2, 0x3530
    80000f32:	705f 5f6d 6964      	.insn	6, 0x69645f6d705f
    80000f38:	6c626173          	csrrsi	x2,0x6c6,4
    80000f3c:	6465                	.insn	2, 0x6465
    80000f3e:	755f 765f 5f75      	.insn	6, 0x5f75765f755f
    80000f44:	6f6d                	.insn	2, 0x6f6d
    80000f46:	6564                	.insn	2, 0x6564
	...

0000000080000f49 <dtest_name_1>:
    80000f49:	5f444953          	.insn	4, 0x5f444953
    80000f4d:	3331                	.insn	2, 0x3331
    80000f4f:	705f 5f6d 6e65      	.insn	6, 0x6e655f6d705f
    80000f55:	6261                	.insn	2, 0x6261
    80000f57:	656c                	.insn	2, 0x656c
    80000f59:	5f64                	.insn	2, 0x5f64
    80000f5b:	5f75                	.insn	2, 0x5f75
    80000f5d:	7576                	.insn	2, 0x7576
    80000f5f:	6d5f 646f 0065      	.insn	6, 0x0065646f6d5f

0000000080000f65 <dtest_name_2>:
    80000f65:	5f444953          	.insn	4, 0x5f444953
    80000f69:	3432                	.insn	2, 0x3432
    80000f6b:	705f 5f6d 6e69      	.insn	6, 0x6e695f6d705f
    80000f71:	75727473          	csrrci	x8,0x757,4
    80000f75:	6f697463          	bgeu	x18,x22,8000165d <scheduler__test_cleanup_ptr+0x601>
    80000f79:	5f6e                	.insn	2, 0x5f6e
    80000f7b:	00746573          	csrrsi	x10,0x7,8

0000000080000f7f <dtest_name_3>:
    80000f7f:	5f444953          	.insn	4, 0x5f444953
    80000f83:	3532                	.insn	2, 0x3532
    80000f85:	705f 5f6d 696d      	.insn	6, 0x696d5f6d705f
    80000f8b:	696c6173          	csrrsi	x2,0x696,24
    80000f8f:	64656e67          	.insn	4, 0x64656e67
    80000f93:	615f 6363 7365      	.insn	6, 0x73656363615f
    80000f99:	          	.insn	4, 0x49530073

0000000080000f9b <dtest_name_4>:
    80000f9b:	5f444953          	.insn	4, 0x5f444953
    80000f9f:	3632                	.insn	2, 0x3632
    80000fa1:	705f 5f6d 6964      	.insn	6, 0x69645f6d705f
    80000fa7:	6666                	.insn	2, 0x6666
    80000fa9:	7265                	.insn	2, 0x7265
    80000fab:	6e65                	.insn	2, 0x6e65
    80000fad:	5f74                	.insn	2, 0x5f74
    80000faf:	6174                	.insn	2, 0x6174
    80000fb1:	735f7367          	.insn	4, 0x735f7367
    80000fb5:	6d61                	.insn	2, 0x6d61
    80000fb7:	5f65                	.insn	2, 0x5f65
    80000fb9:	6461                	.insn	2, 0x6461
    80000fbb:	7264                	.insn	2, 0x7264
    80000fbd:	7365                	.insn	2, 0x7365
    80000fbf:	          	.insn	4, 0x49530073

0000000080000fc1 <dtest_name_5>:
    80000fc1:	5f444953          	.insn	4, 0x5f444953
    80000fc5:	3732                	.insn	2, 0x3732
    80000fc7:	705f 5f6d 6d69      	.insn	6, 0x6d695f6d705f
    80000fcd:	6c70                	.insn	2, 0x6c70
    80000fcf:	6369                	.insn	2, 0x6369
    80000fd1:	7469                	.insn	2, 0x7469
    80000fd3:	615f 6363 7365      	.insn	6, 0x73656363615f
    80000fd9:	          	.insn	4, 0x49530073

0000000080000fdb <dtest_name_6>:
    80000fdb:	5f444953          	.insn	4, 0x5f444953
    80000fdf:	3832                	.insn	2, 0x3832
    80000fe1:	705f 5f6d 6166      	.insn	6, 0x61665f6d705f
    80000fe7:	6c75                	.insn	2, 0x6c75
    80000fe9:	7374                	.insn	2, 0x7374
    80000feb:	745f 6172 5f70      	.insn	6, 0x5f706172745f
    80000ff1:	6176                	.insn	2, 0x6176
    80000ff3:	756c                	.insn	2, 0x756c
    80000ff5:	7365                	.insn	2, 0x7365
	...

0000000080000ff8 <dtest_index_map>:
    80000ff8:	ffff                	.insn	2, 0xffff
    80000ffa:	ffff                	.insn	2, 0xffff
    80000ffc:	0006                	.insn	2, 0x0006
    80000ffe:	0000                	.insn	2, 0x0000
    80001000:	0005                	.insn	2, 0x0005
    80001002:	0000                	.insn	2, 0x0000
    80001004:	0006                	.insn	2, 0x0006
    80001006:	0000                	.insn	2, 0x0000
    80001008:	00000003          	lb	x0,0(x0) # 0 <ALL_4KB_PAGES>
    8000100c:	0001                	.insn	2, 0x0001
    8000100e:	0000                	.insn	2, 0x0000
    80001010:	00000003          	lb	x0,0(x0) # 0 <ALL_4KB_PAGES>
    80001014:	0000                	.insn	2, 0x0000
    80001016:	0000                	.insn	2, 0x0000
    80001018:	0004                	.insn	2, 0x0004
    8000101a:	0000                	.insn	2, 0x0000
    8000101c:	0000                	.insn	2, 0x0000
    8000101e:	0000                	.insn	2, 0x0000
    80001020:	0005                	.insn	2, 0x0005
    80001022:	0000                	.insn	2, 0x0000
    80001024:	0002                	.insn	2, 0x0002
    80001026:	0000                	.insn	2, 0x0000
    80001028:	00000003          	lb	x0,0(x0) # 0 <ALL_4KB_PAGES>
    8000102c:	0004                	.insn	2, 0x0004
    8000102e:	0000                	.insn	2, 0x0000
    80001030:	0002                	.insn	2, 0x0002
    80001032:	0000                	.insn	2, 0x0000
    80001034:	0004                	.insn	2, 0x0004
    80001036:	0000                	.insn	2, 0x0000
    80001038:	0005                	.insn	2, 0x0005
    8000103a:	0000                	.insn	2, 0x0000
    8000103c:	0001                	.insn	2, 0x0001
    8000103e:	0000                	.insn	2, 0x0000
    80001040:	0002                	.insn	2, 0x0002
    80001042:	0000                	.insn	2, 0x0000
    80001044:	0000                	.insn	2, 0x0000
    80001046:	0000                	.insn	2, 0x0000
    80001048:	0006                	.insn	2, 0x0006
    8000104a:	0000                	.insn	2, 0x0000
    8000104c:	0001                	.insn	2, 0x0001
    8000104e:	0000                	.insn	2, 0x0000
    80001050:	0000                	.insn	2, 0x0000
	...

0000000080001054 <scheduler__test_setup_ptr>:
    80001054:	5080                	.insn	2, 0x5080
    80001056:	8001                	.insn	2, 0x8001
    80001058:	0000                	.insn	2, 0x0000
	...

000000008000105c <scheduler__test_cleanup_ptr>:
    8000105c:	56c0                	.insn	2, 0x56c0
    8000105e:	8001                	.insn	2, 0x8001
    80001060:	0000                	.insn	2, 0x0000
	...

Disassembly of section .runtime_s:

0000000080011000 <trap_handler_s__invalid_interrupt>:
    80011000:	1740006f          	j	80011174 <trap_handler_s__test_failed>

0000000080011004 <trap_handler_s__clear_all_interrupts>:
    80011004:	14401073          	csrw	sip,x0
    80011008:	10200073          	sret

000000008001100c <trap_handler_s___CLEAR_SSI>:
    8001100c:	00200293          	li	x5,2
    80011010:	1442b073          	csrc	sip,x5
    80011014:	10200073          	sret

0000000080011018 <trap_handler_s___CLEAR_MSI>:
    80011018:	00800293          	li	x5,8
    8001101c:	1442b073          	csrc	sip,x5
    80011020:	10200073          	sret

0000000080011024 <trap_handler_s___CLEAR_STI>:
    80011024:	02000293          	li	x5,32
    80011028:	1442b073          	csrc	sip,x5
    8001102c:	10200073          	sret

0000000080011030 <trap_handler_s___CLEAR_MTI>:
    80011030:	08000293          	li	x5,128
    80011034:	1442b073          	csrc	sip,x5
    80011038:	10200073          	sret

000000008001103c <trap_handler_s___CLEAR_SEI>:
    8001103c:	20000293          	li	x5,512
    80011040:	1442b073          	csrc	sip,x5
    80011044:	10200073          	sret

0000000080011048 <trap_handler_s___CLEAR_MEI>:
    80011048:	000012b7          	lui	x5,0x1
    8001104c:	8002829b          	addiw	x5,x5,-2048 # 800 <FS_RANDOMIZATION+0x79c>
    80011050:	1442b073          	csrc	sip,x5
    80011054:	10200073          	sret

0000000080011058 <trap_handler_s___CLEAR_COI>:
    80011058:	000022b7          	lui	x5,0x2
    8001105c:	1442b073          	csrc	sip,x5
    80011060:	10200073          	sret

0000000080011064 <trap_handler_s__clear_highest_priority_interrupt>:
    80011064:	144022f3          	csrr	x5,sip
    80011068:	40500333          	neg	x6,x5
    8001106c:	0062f2b3          	and	x5,x5,x6
    80011070:	1442b073          	csrc	sip,x5
    80011074:	10200073          	sret

0000000080011078 <trap_handler_s__trap_entry>:
    80011078:	10c0006f          	j	80011184 <trap_handler_s__trap_handler>

000000008001107c <trap_handler_s__interrupt_vector_table>:
    8001107c:	f91ff06f          	j	8001100c <trap_handler_s___CLEAR_SSI>
    80011080:	f81ff06f          	j	80011000 <trap_handler_s__invalid_interrupt>
    80011084:	f95ff06f          	j	80011018 <trap_handler_s___CLEAR_MSI>
    80011088:	f79ff06f          	j	80011000 <trap_handler_s__invalid_interrupt>
    8001108c:	f99ff06f          	j	80011024 <trap_handler_s___CLEAR_STI>
    80011090:	f71ff06f          	j	80011000 <trap_handler_s__invalid_interrupt>
    80011094:	f9dff06f          	j	80011030 <trap_handler_s___CLEAR_MTI>
    80011098:	f69ff06f          	j	80011000 <trap_handler_s__invalid_interrupt>
    8001109c:	fa1ff06f          	j	8001103c <trap_handler_s___CLEAR_SEI>
    800110a0:	f61ff06f          	j	80011000 <trap_handler_s__invalid_interrupt>
    800110a4:	fa5ff06f          	j	80011048 <trap_handler_s___CLEAR_MEI>
    800110a8:	f59ff06f          	j	80011000 <trap_handler_s__invalid_interrupt>
    800110ac:	fadff06f          	j	80011058 <trap_handler_s___CLEAR_COI>
    800110b0:	f51ff06f          	j	80011000 <trap_handler_s__invalid_interrupt>
    800110b4:	f4dff06f          	j	80011000 <trap_handler_s__invalid_interrupt>
    800110b8:	fadff06f          	j	80011064 <trap_handler_s__clear_highest_priority_interrupt>
    800110bc:	fa9ff06f          	j	80011064 <trap_handler_s__clear_highest_priority_interrupt>
    800110c0:	fa5ff06f          	j	80011064 <trap_handler_s__clear_highest_priority_interrupt>
    800110c4:	fa1ff06f          	j	80011064 <trap_handler_s__clear_highest_priority_interrupt>
    800110c8:	f9dff06f          	j	80011064 <trap_handler_s__clear_highest_priority_interrupt>
    800110cc:	f99ff06f          	j	80011064 <trap_handler_s__clear_highest_priority_interrupt>
    800110d0:	f95ff06f          	j	80011064 <trap_handler_s__clear_highest_priority_interrupt>
    800110d4:	f91ff06f          	j	80011064 <trap_handler_s__clear_highest_priority_interrupt>
    800110d8:	f8dff06f          	j	80011064 <trap_handler_s__clear_highest_priority_interrupt>
    800110dc:	f89ff06f          	j	80011064 <trap_handler_s__clear_highest_priority_interrupt>
    800110e0:	f85ff06f          	j	80011064 <trap_handler_s__clear_highest_priority_interrupt>
    800110e4:	f81ff06f          	j	80011064 <trap_handler_s__clear_highest_priority_interrupt>
    800110e8:	f7dff06f          	j	80011064 <trap_handler_s__clear_highest_priority_interrupt>
    800110ec:	f79ff06f          	j	80011064 <trap_handler_s__clear_highest_priority_interrupt>
    800110f0:	f75ff06f          	j	80011064 <trap_handler_s__clear_highest_priority_interrupt>
    800110f4:	f71ff06f          	j	80011064 <trap_handler_s__clear_highest_priority_interrupt>
    800110f8:	f6dff06f          	j	80011064 <trap_handler_s__clear_highest_priority_interrupt>
    800110fc:	f69ff06f          	j	80011064 <trap_handler_s__clear_highest_priority_interrupt>
    80011100:	f65ff06f          	j	80011064 <trap_handler_s__clear_highest_priority_interrupt>
    80011104:	f61ff06f          	j	80011064 <trap_handler_s__clear_highest_priority_interrupt>
    80011108:	f5dff06f          	j	80011064 <trap_handler_s__clear_highest_priority_interrupt>
    8001110c:	f59ff06f          	j	80011064 <trap_handler_s__clear_highest_priority_interrupt>
    80011110:	f55ff06f          	j	80011064 <trap_handler_s__clear_highest_priority_interrupt>
    80011114:	f51ff06f          	j	80011064 <trap_handler_s__clear_highest_priority_interrupt>
    80011118:	f4dff06f          	j	80011064 <trap_handler_s__clear_highest_priority_interrupt>
    8001111c:	f49ff06f          	j	80011064 <trap_handler_s__clear_highest_priority_interrupt>
    80011120:	f45ff06f          	j	80011064 <trap_handler_s__clear_highest_priority_interrupt>
    80011124:	f41ff06f          	j	80011064 <trap_handler_s__clear_highest_priority_interrupt>
    80011128:	f3dff06f          	j	80011064 <trap_handler_s__clear_highest_priority_interrupt>
    8001112c:	f39ff06f          	j	80011064 <trap_handler_s__clear_highest_priority_interrupt>
    80011130:	f35ff06f          	j	80011064 <trap_handler_s__clear_highest_priority_interrupt>
    80011134:	f31ff06f          	j	80011064 <trap_handler_s__clear_highest_priority_interrupt>
    80011138:	f2dff06f          	j	80011064 <trap_handler_s__clear_highest_priority_interrupt>
    8001113c:	f29ff06f          	j	80011064 <trap_handler_s__clear_highest_priority_interrupt>
    80011140:	f25ff06f          	j	80011064 <trap_handler_s__clear_highest_priority_interrupt>
    80011144:	f21ff06f          	j	80011064 <trap_handler_s__clear_highest_priority_interrupt>
    80011148:	f1dff06f          	j	80011064 <trap_handler_s__clear_highest_priority_interrupt>
    8001114c:	f19ff06f          	j	80011064 <trap_handler_s__clear_highest_priority_interrupt>
    80011150:	f15ff06f          	j	80011064 <trap_handler_s__clear_highest_priority_interrupt>
    80011154:	f11ff06f          	j	80011064 <trap_handler_s__clear_highest_priority_interrupt>
    80011158:	f0dff06f          	j	80011064 <trap_handler_s__clear_highest_priority_interrupt>
    8001115c:	f09ff06f          	j	80011064 <trap_handler_s__clear_highest_priority_interrupt>
    80011160:	f05ff06f          	j	80011064 <trap_handler_s__clear_highest_priority_interrupt>
    80011164:	f01ff06f          	j	80011064 <trap_handler_s__clear_highest_priority_interrupt>
    80011168:	efdff06f          	j	80011064 <trap_handler_s__clear_highest_priority_interrupt>
    8001116c:	ef9ff06f          	j	80011064 <trap_handler_s__clear_highest_priority_interrupt>
    80011170:	ef5ff06f          	j	80011064 <trap_handler_s__clear_highest_priority_interrupt>

0000000080011174 <trap_handler_s__test_failed>:
    80011174:	00f00f9b          	addiw	x31,x0,15
    80011178:	01cf9f93          	slli	x31,x31,0x1c
    8001117c:	002f8f93          	addi	x31,x31,2
    80011180:	00000073          	ecall

0000000080011184 <trap_handler_s__trap_handler>:
    80011184:	142022f3          	csrr	x5,scause
    80011188:	fff0031b          	addiw	x6,x0,-1
    8001118c:	03f31313          	slli	x6,x6,0x3f
    80011190:	00537333          	and	x6,x6,x5
    80011194:	02030263          	beqz	x6,800111b8 <trap_handler_s__exception_path>

0000000080011198 <trap_handler_s__interrupt_handler>:
    80011198:	fff0031b          	addiw	x6,x0,-1
    8001119c:	03f31313          	slli	x6,x6,0x3f
    800111a0:	0062c2b3          	xor	x5,x5,x6
    800111a4:	00000317          	auipc	x6,0x0
    800111a8:	ed430313          	addi	x6,x6,-300 # 80011078 <trap_handler_s__trap_entry>
    800111ac:	00229293          	slli	x5,x5,0x2
    800111b0:	005302b3          	add	x5,x6,x5
    800111b4:	00028067          	jr	x5 # 2000 <FS_RANDOMIZATION+0x1f9c>

00000000800111b8 <trap_handler_s__exception_path>:
    800111b8:	14021273          	csrrw	x4,sscratch,x4
    800111bc:	00000297          	auipc	x5,0x0
    800111c0:	0cc28293          	addi	x5,x5,204 # 80011288 <trap_handler_s__trap_panic>
    800111c4:	10529073          	csrw	stvec,x5
    800111c8:	0040006f          	j	800111cc <trap_handler_s__excp_entry>

00000000800111cc <trap_handler_s__excp_entry>:
    800111cc:	14202373          	csrr	x6,scause
    800111d0:	00800293          	li	x5,8
    800111d4:	00534863          	blt	x6,x5,800111e4 <trap_handler_s__check_exception_label>
    800111d8:	00b00293          	li	x5,11
    800111dc:	0062c463          	blt	x5,x6,800111e4 <trap_handler_s__check_exception_label>
    800111e0:	0a80006f          	j	80011288 <trap_handler_s__trap_panic>

00000000800111e4 <trap_handler_s__check_exception_label>:
    800111e4:	04623c23          	sd	x6,88(x4) # 58 <XLEN+0x18>
    800111e8:	141022f3          	csrr	x5,sepc
    800111ec:	02523423          	sd	x5,40(x4) # 28 <SECURE_ACCESS_PROBABILITY+0xa>
    800111f0:	01820283          	lb	x5,24(x4) # 18 <STORE_GUEST_PAGE_FAULT+0x1>
    800111f4:	00029863          	bnez	x5,80011204 <trap_handler_s__check_excp>
    800111f8:	00128293          	addi	x5,x5,1
    800111fc:	00520c23          	sb	x5,24(x4) # 18 <STORE_GUEST_PAGE_FAULT+0x1>
    80011200:	05c0006f          	j	8001125c <trap_handler_s__ecall_from_machine>

0000000080011204 <trap_handler_s__check_excp>:
    80011204:	06820293          	addi	x5,x4,104 # 68 <FS_RANDOMIZATION+0x4>
    80011208:	0802b2af          	amoswap.d	x5,x0,(x5)
    8001120c:	00028663          	beqz	x5,80011218 <trap_handler_s__skip_mode_check>
    80011210:	00300393          	li	x7,3
    80011214:	f67290e3          	bne	x5,x7,80011174 <trap_handler_s__test_failed>

0000000080011218 <trap_handler_s__skip_mode_check>:
    80011218:	05020293          	addi	x5,x4,80 # 50 <XLEN+0x10>
    8001121c:	0802b2af          	amoswap.d	x5,x0,(x5)
    80011220:	f4531ae3          	bne	x6,x5,80011174 <trap_handler_s__test_failed>
    80011224:	03820293          	addi	x5,x4,56 # 38 <SECURE_ACCESS_PROBABILITY+0x1a>
    80011228:	0802b2af          	amoswap.d	x5,x0,(x5)
    8001122c:	02029663          	bnez	x5,80011258 <trap_handler_s__skip_nonzero_tval_check>
    80011230:	02020313          	addi	x6,x4,32 # 20 <SECURE_ACCESS_PROBABILITY+0x2>
    80011234:	0803332f          	amoswap.d	x6,x0,(x6)
    80011238:	02820293          	addi	x5,x4,40 # 28 <SECURE_ACCESS_PROBABILITY+0xa>
    8001123c:	0802b2af          	amoswap.d	x5,x0,(x5)
    80011240:	f2531ae3          	bne	x6,x5,80011174 <trap_handler_s__test_failed>
    80011244:	04020293          	addi	x5,x4,64 # 40 <XLEN>
    80011248:	0802b2af          	amoswap.d	x5,x0,(x5)
    8001124c:	00028663          	beqz	x5,80011258 <trap_handler_s__skip_nonzero_tval_check>

0000000080011250 <trap_handler_s__nonzero_tval_check>:
    80011250:	14302373          	csrr	x6,stval
    80011254:	f25310e3          	bne	x6,x5,80011174 <trap_handler_s__test_failed>

0000000080011258 <trap_handler_s__skip_nonzero_tval_check>:
    80011258:	0040006f          	j	8001125c <trap_handler_s__ecall_from_machine>

000000008001125c <trap_handler_s__ecall_from_machine>:
    8001125c:	03020293          	addi	x5,x4,48 # 30 <SECURE_ACCESS_PROBABILITY+0x12>
    80011260:	0802b2af          	amoswap.d	x5,x0,(x5)
    80011264:	07020313          	addi	x6,x4,112 # 70 <FS_RANDOMIZATION+0xc>
    80011268:	0803332f          	amoswap.d	x6,x0,(x6)
    8001126c:	00031463          	bnez	x6,80011274 <trap_handler_s__skip_xepc_write>
    80011270:	14129073          	csrw	sepc,x5

0000000080011274 <trap_handler_s__skip_xepc_write>:
    80011274:	00000317          	auipc	x6,0x0
    80011278:	e0430313          	addi	x6,x6,-508 # 80011078 <trap_handler_s__trap_entry>
    8001127c:	10531073          	csrw	stvec,x6
    80011280:	14021273          	csrrw	x4,sscratch,x4
    80011284:	10200073          	sret

0000000080011288 <trap_handler_s__trap_panic>:
    80011288:	00000193          	li	x3,0
    8001128c:	00f00f9b          	addiw	x31,x0,15
    80011290:	01cf9f93          	slli	x31,x31,0x1c
    80011294:	002f8f93          	addi	x31,x31,2
    80011298:	00000073          	ecall

Disassembly of section .code:

0000000080015050 <passed>:
    80015050:	00f00f9b          	addiw	x31,x0,15
    80015054:	01cf9f93          	slli	x31,x31,0x1c
    80015058:	001f8f93          	addi	x31,x31,1
    8001505c:	00000073          	ecall

0000000080015060 <failed>:
    80015060:	00f00f9b          	addiw	x31,x0,15
    80015064:	01cf9f93          	slli	x31,x31,0x1c
    80015068:	002f8f93          	addi	x31,x31,2
    8001506c:	00000073          	ecall

0000000080015070 <end_test>:
    80015070:	00f00f9b          	addiw	x31,x0,15
    80015074:	01cf9f93          	slli	x31,x31,0x1c
    80015078:	003f8f93          	addi	x31,x31,3
    8001507c:	00000073          	ecall

0000000080015080 <test_setup>:
    80015080:	00f00f9b          	addiw	x31,x0,15
    80015084:	01cf9f93          	slli	x31,x31,0x1c
    80015088:	001f8f93          	addi	x31,x31,1
    8001508c:	00000073          	ecall

0000000080015090 <SID_05_pm_disabled_u_vu_mode>:
    80015090:	0105f137          	lui	x2,0x105f
    80015094:	0382efb7          	lui	x31,0x382e
    80015098:	0a0f8f9b          	addiw	x31,x31,160 # 382e0a0 <machine_csr_jump_table_flags>
    8001509c:	00100f13          	li	x30,1
    800150a0:	01efb023          	sd	x30,0(x31)
    800150a4:	000f0fb7          	lui	x31,0xf0
    800150a8:	001f8f9b          	addiw	x31,x31,1 # f0001 <__section_data_1+0x6f001>
    800150ac:	00cf9f93          	slli	x31,x31,0xc
    800150b0:	005f8f93          	addi	x31,x31,5
    800150b4:	00000073          	ecall
    800150b8:	00713023          	sd	x7,0(x2) # 105f000 <tp_csr_storage>
    800150bc:	00931137          	lui	x2,0x931
    800150c0:	1851011b          	addiw	x2,x2,389 # 931185 <SID_26_pm_different_tags_same_address_stack+0x790185>
    800150c4:	00e11113          	slli	x2,x2,0xe
    800150c8:	000012b7          	lui	x5,0x1
    800150cc:	00510133          	add	x2,x2,x5
    800150d0:	ff017113          	andi	x2,x2,-16
    800150d4:	0030039b          	addiw	x7,x0,3
    800150d8:	02039393          	slli	x7,x7,0x20
    800150dc:	10a3b3f3          	csrrc	x7,0x10a,x7
    800150e0:	00038b37          	lui	x22,0x38
    800150e4:	ab7b0b1b          	addiw	x22,x22,-1353 # 37ab7 <_all_interrupts+0x3500d>
    800150e8:	00eb1b13          	slli	x22,x22,0xe
    800150ec:	eefb0b13          	addi	x22,x22,-273
    800150f0:	03d7ce37          	lui	x28,0x3d7c
    800150f4:	b5fe0e1b          	addiw	x28,x28,-1185 # 3d7bb5f <__section_os_data_1+0x54cb5f>
    800150f8:	00fe1e13          	slli	x28,x28,0xf
    800150fc:	016e2023          	sw	x22,0(x28)
    80015100:	03d7c9b7          	lui	x19,0x3d7c
    80015104:	b5f9899b          	addiw	x19,x19,-1185 # 3d7bb5f <__section_os_data_1+0x54cb5f>
    80015108:	00f99993          	slli	x19,x19,0xf
    8001510c:	fff0069b          	addiw	x13,x0,-1
    80015110:	03969693          	slli	x13,x13,0x39
    80015114:	00d9c5b3          	xor	x11,x19,x13
    80015118:	002a4237          	lui	x4,0x2a4
    8001511c:	7a52021b          	addiw	x4,x4,1957 # 2a47a5 <SID_26_pm_different_tags_same_address_stack+0x1037a5>
    80015120:	00e21213          	slli	x4,x4,0xe
    80015124:	00d00e13          	li	x28,13
    80015128:	05c23823          	sd	x28,80(x4) # 50 <XLEN+0x10>
    8001512c:	00000e17          	auipc	x28,0x0
    80015130:	048e0e13          	addi	x28,x28,72 # 80015174 <fault_label_0>
    80015134:	03c23023          	sd	x28,32(x4) # 20 <SECURE_ACCESS_PROBABILITY+0x2>
    80015138:	00000e13          	li	x28,0
    8001513c:	05c23023          	sd	x28,64(x4) # 40 <XLEN>
    80015140:	00000e13          	li	x28,0
    80015144:	05c23423          	sd	x28,72(x4) # 48 <XLEN+0x8>
    80015148:	00000e17          	auipc	x28,0x0
    8001514c:	040e0e13          	addi	x28,x28,64 # 80015188 <excp_return_label_0>
    80015150:	03c23823          	sd	x28,48(x4) # 30 <SECURE_ACCESS_PROBABILITY+0x12>
    80015154:	00000e13          	li	x28,0
    80015158:	03c23c23          	sd	x28,56(x4) # 38 <SECURE_ACCESS_PROBABILITY+0x1a>
    8001515c:	00000e13          	li	x28,0
    80015160:	07c23023          	sd	x28,96(x4) # 60 <XLEN+0x20>
    80015164:	00000e13          	li	x28,0
    80015168:	07c23423          	sd	x28,104(x4) # 68 <FS_RANDOMIZATION+0x4>
    8001516c:	00000e13          	li	x28,0
    80015170:	07c23823          	sd	x28,112(x4) # 70 <FS_RANDOMIZATION+0xc>

0000000080015174 <fault_label_0>:
    80015174:	0005b807          	fld	f16,0(x11)
    80015178:	0382e337          	lui	x6,0x382e
    8001517c:	0083031b          	addiw	x6,x6,8 # 382e008 <failed_addr>
    80015180:	00033c03          	ld	x24,0(x6)
    80015184:	000c0067          	jr	x24

0000000080015188 <excp_return_label_0>:
    80015188:	0105f137          	lui	x2,0x105f
    8001518c:	00013383          	ld	x7,0(x2) # 105f000 <tp_csr_storage>
    80015190:	0382efb7          	lui	x31,0x382e
    80015194:	0a0f8f9b          	addiw	x31,x31,160 # 382e0a0 <machine_csr_jump_table_flags>
    80015198:	00300f13          	li	x30,3
    8001519c:	01efb023          	sd	x30,0(x31)
    800151a0:	000f0fb7          	lui	x31,0xf0
    800151a4:	001f8f9b          	addiw	x31,x31,1 # f0001 <__section_data_1+0x6f001>
    800151a8:	00cf9f93          	slli	x31,x31,0xc
    800151ac:	005f8f93          	addi	x31,x31,5
    800151b0:	00000073          	ecall

00000000800151b4 <SID_05_pm_disabled_u_vu_mode_passed>:
    800151b4:	00f00f9b          	addiw	x31,x0,15
    800151b8:	01cf9f93          	slli	x31,x31,0x1c
    800151bc:	001f8f93          	addi	x31,x31,1
    800151c0:	00000073          	ecall

00000000800151c4 <SID_13_pm_enabled_u_vu_mode>:
    800151c4:	0105f137          	lui	x2,0x105f
    800151c8:	0382efb7          	lui	x31,0x382e
    800151cc:	0a0f8f9b          	addiw	x31,x31,160 # 382e0a0 <machine_csr_jump_table_flags>
    800151d0:	00100f13          	li	x30,1
    800151d4:	01efb023          	sd	x30,0(x31)
    800151d8:	000f0fb7          	lui	x31,0xf0
    800151dc:	001f8f9b          	addiw	x31,x31,1 # f0001 <__section_data_1+0x6f001>
    800151e0:	00cf9f93          	slli	x31,x31,0xc
    800151e4:	005f8f93          	addi	x31,x31,5
    800151e8:	00000073          	ecall
    800151ec:	00713023          	sd	x7,0(x2) # 105f000 <tp_csr_storage>
    800151f0:	00754137          	lui	x2,0x754
    800151f4:	c611011b          	addiw	x2,x2,-927 # 753c61 <SID_26_pm_different_tags_same_address_stack+0x5b2c61>
    800151f8:	00d11113          	slli	x2,x2,0xd
    800151fc:	000012b7          	lui	x5,0x1
    80015200:	00510133          	add	x2,x2,x5
    80015204:	ff017113          	andi	x2,x2,-16
    80015208:	0010039b          	addiw	x7,x0,1
    8001520c:	02139393          	slli	x7,x7,0x21
    80015210:	10a3a3f3          	csrrs	x7,0x10a,x7
    80015214:	000acf37          	lui	x30,0xac
    80015218:	cd1f0f1b          	addiw	x30,x30,-815 # abcd1 <__section_data_1+0x2acd1>
    8001521c:	00cf1f13          	slli	x30,x30,0xc
    80015220:	234f0f13          	addi	x30,x30,564
    80015224:	07da8737          	lui	x14,0x7da8
    80015228:	1d37071b          	addiw	x14,x14,467 # 7da81d3 <mem3+0x15d41d3>
    8001522c:	00d71713          	slli	x14,x14,0xd
    80015230:	01e72023          	sw	x30,0(x14)
    80015234:	07da8d37          	lui	x26,0x7da8
    80015238:	1d3d0d1b          	addiw	x26,x26,467 # 7da81d3 <mem3+0x15d41d3>
    8001523c:	00dd1d13          	slli	x26,x26,0xd
    80015240:	fff0051b          	addiw	x10,x0,-1
    80015244:	03951513          	slli	x10,x10,0x39
    80015248:	00ad49b3          	xor	x19,x26,x10
    8001524c:	0009b303          	ld	x6,0(x19)
    80015250:	00033437          	lui	x8,0x33
    80015254:	bfb4041b          	addiw	x8,x8,-1029 # 32bfb <_all_interrupts+0x30151>
    80015258:	00e41413          	slli	x8,x8,0xe
    8001525c:	abe40413          	addi	x8,x8,-1346
    80015260:	d02470d3          	fcvt.s.l	f1,x8
    80015264:	0019a027          	fsw	f1,0(x19)
    80015268:	07da8737          	lui	x14,0x7da8
    8001526c:	1d37071b          	addiw	x14,x14,467 # 7da81d3 <mem3+0x15d41d3>
    80015270:	00d71713          	slli	x14,x14,0xd
    80015274:	00073987          	fld	f19,0(x14)
    80015278:	0105f137          	lui	x2,0x105f
    8001527c:	00013383          	ld	x7,0(x2) # 105f000 <tp_csr_storage>
    80015280:	0382efb7          	lui	x31,0x382e
    80015284:	0a0f8f9b          	addiw	x31,x31,160 # 382e0a0 <machine_csr_jump_table_flags>
    80015288:	00300f13          	li	x30,3
    8001528c:	01efb023          	sd	x30,0(x31)
    80015290:	000f0fb7          	lui	x31,0xf0
    80015294:	001f8f9b          	addiw	x31,x31,1 # f0001 <__section_data_1+0x6f001>
    80015298:	00cf9f93          	slli	x31,x31,0xc
    8001529c:	005f8f93          	addi	x31,x31,5
    800152a0:	00000073          	ecall

00000000800152a4 <SID_13_pm_enabled_u_vu_mode_passed>:
    800152a4:	00f00f9b          	addiw	x31,x0,15
    800152a8:	01cf9f93          	slli	x31,x31,0x1c
    800152ac:	001f8f93          	addi	x31,x31,1
    800152b0:	00000073          	ecall

00000000800152b4 <SID_24_pm_instruction_set>:
    800152b4:	0105f137          	lui	x2,0x105f
    800152b8:	0382efb7          	lui	x31,0x382e
    800152bc:	0a0f8f9b          	addiw	x31,x31,160 # 382e0a0 <machine_csr_jump_table_flags>
    800152c0:	00100f13          	li	x30,1
    800152c4:	01efb023          	sd	x30,0(x31)
    800152c8:	000f0fb7          	lui	x31,0xf0
    800152cc:	001f8f9b          	addiw	x31,x31,1 # f0001 <__section_data_1+0x6f001>
    800152d0:	00cf9f93          	slli	x31,x31,0xc
    800152d4:	005f8f93          	addi	x31,x31,5
    800152d8:	00000073          	ecall
    800152dc:	00713023          	sd	x7,0(x2) # 105f000 <tp_csr_storage>
    800152e0:	01b3b137          	lui	x2,0x1b3b
    800152e4:	2671011b          	addiw	x2,x2,615 # 1b3b267 <tp_csr_storage+0xadc267>
    800152e8:	00d11113          	slli	x2,x2,0xd
    800152ec:	000012b7          	lui	x5,0x1
    800152f0:	00510133          	add	x2,x2,x5
    800152f4:	ff017113          	andi	x2,x2,-16
    800152f8:	0010039b          	addiw	x7,x0,1
    800152fc:	02139393          	slli	x7,x7,0x21
    80015300:	10a3a3f3          	csrrs	x7,0x10a,x7
    80015304:	11223e37          	lui	x28,0x11223
    80015308:	344e0e1b          	addiw	x28,x28,836 # 11223344 <maplic_255+0x924344>
    8001530c:	1ebde6b7          	lui	x13,0x1ebde
    80015310:	b096869b          	addiw	x13,x13,-1271 # 1ebddb09 <maplic_255+0xe2deb09>
    80015314:	00c69693          	slli	x13,x13,0xc
    80015318:	01c68023          	sb	x28,0(x13)
    8001531c:	1ebdeab7          	lui	x21,0x1ebde
    80015320:	b09a8a9b          	addiw	x21,x21,-1271 # 1ebddb09 <maplic_255+0xe2deb09>
    80015324:	00ca9a93          	slli	x21,x21,0xc
    80015328:	000abc07          	fld	f24,0(x21)
    8001532c:	0105f137          	lui	x2,0x105f
    80015330:	00013383          	ld	x7,0(x2) # 105f000 <tp_csr_storage>
    80015334:	0382efb7          	lui	x31,0x382e
    80015338:	0a0f8f9b          	addiw	x31,x31,160 # 382e0a0 <machine_csr_jump_table_flags>
    8001533c:	00300f13          	li	x30,3
    80015340:	01efb023          	sd	x30,0(x31)
    80015344:	000f0fb7          	lui	x31,0xf0
    80015348:	001f8f9b          	addiw	x31,x31,1 # f0001 <__section_data_1+0x6f001>
    8001534c:	00cf9f93          	slli	x31,x31,0xc
    80015350:	005f8f93          	addi	x31,x31,5
    80015354:	00000073          	ecall

0000000080015358 <SID_24_pm_instruction_set_passed>:
    80015358:	00f00f9b          	addiw	x31,x0,15
    8001535c:	01cf9f93          	slli	x31,x31,0x1c
    80015360:	001f8f93          	addi	x31,x31,1
    80015364:	00000073          	ecall

0000000080015368 <SID_25_pm_misaligned_access>:
    80015368:	0105f137          	lui	x2,0x105f
    8001536c:	0382efb7          	lui	x31,0x382e
    80015370:	0a0f8f9b          	addiw	x31,x31,160 # 382e0a0 <machine_csr_jump_table_flags>
    80015374:	00100f13          	li	x30,1
    80015378:	01efb023          	sd	x30,0(x31)
    8001537c:	000f0fb7          	lui	x31,0xf0
    80015380:	001f8f9b          	addiw	x31,x31,1 # f0001 <__section_data_1+0x6f001>
    80015384:	00cf9f93          	slli	x31,x31,0xc
    80015388:	005f8f93          	addi	x31,x31,5
    8001538c:	00000073          	ecall
    80015390:	00713023          	sd	x7,0(x2) # 105f000 <tp_csr_storage>
    80015394:	000f6137          	lui	x2,0xf6
    80015398:	0d91011b          	addiw	x2,x2,217 # f60d9 <__section_data_1+0x750d9>
    8001539c:	00c11113          	slli	x2,x2,0xc
    800153a0:	39910113          	addi	x2,x2,921
    800153a4:	00f11113          	slli	x2,x2,0xf
    800153a8:	000012b7          	lui	x5,0x1
    800153ac:	00510133          	add	x2,x2,x5
    800153b0:	ff017113          	andi	x2,x2,-16
    800153b4:	0030039b          	addiw	x7,x0,3
    800153b8:	02039393          	slli	x7,x7,0x20
    800153bc:	10a3a3f3          	csrrs	x7,0x10a,x7
    800153c0:	55667fb7          	lui	x31,0x55667
    800153c4:	788f8f9b          	addiw	x31,x31,1928 # 55667788 <saplic_255+0x34d68788>
    800153c8:	067d4ab7          	lui	x21,0x67d4
    800153cc:	01fa8023          	sb	x31,0(x21) # 67d4000 <mem3>
    800153d0:	067d4bb7          	lui	x23,0x67d4
    800153d4:	000bbd03          	ld	x26,0(x23) # 67d4000 <mem3>
    800153d8:	0105f137          	lui	x2,0x105f
    800153dc:	00013383          	ld	x7,0(x2) # 105f000 <tp_csr_storage>
    800153e0:	0382efb7          	lui	x31,0x382e
    800153e4:	0a0f8f9b          	addiw	x31,x31,160 # 382e0a0 <machine_csr_jump_table_flags>
    800153e8:	00300f13          	li	x30,3
    800153ec:	01efb023          	sd	x30,0(x31)
    800153f0:	000f0fb7          	lui	x31,0xf0
    800153f4:	001f8f9b          	addiw	x31,x31,1 # f0001 <__section_data_1+0x6f001>
    800153f8:	00cf9f93          	slli	x31,x31,0xc
    800153fc:	005f8f93          	addi	x31,x31,5
    80015400:	00000073          	ecall

0000000080015404 <SID_25_pm_misaligned_access_passed>:
    80015404:	00f00f9b          	addiw	x31,x0,15
    80015408:	01cf9f93          	slli	x31,x31,0x1c
    8001540c:	001f8f93          	addi	x31,x31,1
    80015410:	00000073          	ecall

0000000080015414 <SID_26_pm_different_tags_same_address>:
    80015414:	0105f137          	lui	x2,0x105f
    80015418:	0382efb7          	lui	x31,0x382e
    8001541c:	0a0f8f9b          	addiw	x31,x31,160 # 382e0a0 <machine_csr_jump_table_flags>
    80015420:	00100f13          	li	x30,1
    80015424:	01efb023          	sd	x30,0(x31)
    80015428:	000f0fb7          	lui	x31,0xf0
    8001542c:	001f8f9b          	addiw	x31,x31,1 # f0001 <__section_data_1+0x6f001>
    80015430:	00cf9f93          	slli	x31,x31,0xc
    80015434:	005f8f93          	addi	x31,x31,5
    80015438:	00000073          	ecall
    8001543c:	00713023          	sd	x7,0(x2) # 105f000 <tp_csr_storage>
    80015440:	001a1137          	lui	x2,0x1a1
    80015444:	000012b7          	lui	x5,0x1
    80015448:	00510133          	add	x2,x2,x5
    8001544c:	ff017113          	andi	x2,x2,-16
    80015450:	0030039b          	addiw	x7,x0,3
    80015454:	02039393          	slli	x7,x7,0x20
    80015458:	10a3a3f3          	csrrs	x7,0x10a,x7
    8001545c:	11111e37          	lui	x28,0x11111
    80015460:	111e0e1b          	addiw	x28,x28,273 # 11111111 <maplic_255+0x812111>
    80015464:	000ff737          	lui	x14,0xff
    80015468:	ef17071b          	addiw	x14,x14,-271 # feef1 <__section_data_1+0x7def1>
    8001546c:	00c71713          	slli	x14,x14,0xc
    80015470:	01b70713          	addi	x14,x14,27
    80015474:	00c71713          	slli	x14,x14,0xc
    80015478:	01c73023          	sd	x28,0(x14)
    8001547c:	22222e37          	lui	x28,0x22222
    80015480:	222e0e1b          	addiw	x28,x28,546 # 22222222 <saplic_255+0x1923222>
    80015484:	000ffb37          	lui	x22,0xff
    80015488:	ef1b0b1b          	addiw	x22,x22,-271 # feef1 <__section_data_1+0x7def1>
    8001548c:	00cb1b13          	slli	x22,x22,0xc
    80015490:	01bb0b13          	addi	x22,x22,27
    80015494:	00cb1b13          	slli	x22,x22,0xc
    80015498:	01cb1023          	sh	x28,0(x22)
    8001549c:	000ff8b7          	lui	x17,0xff
    800154a0:	ef18889b          	addiw	x17,x17,-271 # feef1 <__section_data_1+0x7def1>
    800154a4:	00c89893          	slli	x17,x17,0xc
    800154a8:	01b88893          	addi	x17,x17,27
    800154ac:	00c89893          	slli	x17,x17,0xc
    800154b0:	0008b303          	ld	x6,0(x17)
    800154b4:	0105f137          	lui	x2,0x105f
    800154b8:	00013383          	ld	x7,0(x2) # 105f000 <tp_csr_storage>
    800154bc:	0382efb7          	lui	x31,0x382e
    800154c0:	0a0f8f9b          	addiw	x31,x31,160 # 382e0a0 <machine_csr_jump_table_flags>
    800154c4:	00300f13          	li	x30,3
    800154c8:	01efb023          	sd	x30,0(x31)
    800154cc:	000f0fb7          	lui	x31,0xf0
    800154d0:	001f8f9b          	addiw	x31,x31,1 # f0001 <__section_data_1+0x6f001>
    800154d4:	00cf9f93          	slli	x31,x31,0xc
    800154d8:	005f8f93          	addi	x31,x31,5
    800154dc:	00000073          	ecall

00000000800154e0 <SID_26_pm_different_tags_same_address_passed>:
    800154e0:	00f00f9b          	addiw	x31,x0,15
    800154e4:	01cf9f93          	slli	x31,x31,0x1c
    800154e8:	001f8f93          	addi	x31,x31,1
    800154ec:	00000073          	ecall

00000000800154f0 <SID_27_pm_implicit_access>:
    800154f0:	0105f137          	lui	x2,0x105f
    800154f4:	0382efb7          	lui	x31,0x382e
    800154f8:	0a0f8f9b          	addiw	x31,x31,160 # 382e0a0 <machine_csr_jump_table_flags>
    800154fc:	00100f13          	li	x30,1
    80015500:	01efb023          	sd	x30,0(x31)
    80015504:	000f0fb7          	lui	x31,0xf0
    80015508:	001f8f9b          	addiw	x31,x31,1 # f0001 <__section_data_1+0x6f001>
    8001550c:	00cf9f93          	slli	x31,x31,0xc
    80015510:	005f8f93          	addi	x31,x31,5
    80015514:	00000073          	ecall
    80015518:	00713023          	sd	x7,0(x2) # 105f000 <tp_csr_storage>
    8001551c:	01be8137          	lui	x2,0x1be8
    80015520:	57d1011b          	addiw	x2,x2,1405 # 1be857d <tp_csr_storage+0xb8957d>
    80015524:	00f11113          	slli	x2,x2,0xf
    80015528:	000012b7          	lui	x5,0x1
    8001552c:	00510133          	add	x2,x2,x5
    80015530:	ff017113          	andi	x2,x2,-16
    80015534:	0010039b          	addiw	x7,x0,1
    80015538:	02139393          	slli	x7,x7,0x21
    8001553c:	10a3a3f3          	csrrs	x7,0x10a,x7
    80015540:	00040637          	lui	x12,0x40
    80015544:	bb76061b          	addiw	x12,x12,-1097 # 3fbb7 <_all_interrupts+0x3d10d>
    80015548:	00e61613          	slli	x12,x12,0xe
    8001554c:	0de60613          	addi	x12,x12,222
    80015550:	0019fe37          	lui	x28,0x19f
    80015554:	00ce2023          	sw	x12,0(x28) # 19f000 <mem5>
    80015558:	0019f3b7          	lui	x7,0x19f
    8001555c:	0003b883          	ld	x17,0(x7) # 19f000 <mem5>
    80015560:	00746537          	lui	x10,0x746
    80015564:	fd75051b          	addiw	x10,x10,-41 # 745fd7 <SID_26_pm_different_tags_same_address_stack+0x5a4fd7>
    80015568:	00c51513          	slli	x10,x10,0xc
    8001556c:	000500e7          	jalr	x10
    80015570:	0105f137          	lui	x2,0x105f
    80015574:	00013383          	ld	x7,0(x2) # 105f000 <tp_csr_storage>
    80015578:	0382efb7          	lui	x31,0x382e
    8001557c:	0a0f8f9b          	addiw	x31,x31,160 # 382e0a0 <machine_csr_jump_table_flags>
    80015580:	00300f13          	li	x30,3
    80015584:	01efb023          	sd	x30,0(x31)
    80015588:	000f0fb7          	lui	x31,0xf0
    8001558c:	001f8f9b          	addiw	x31,x31,1 # f0001 <__section_data_1+0x6f001>
    80015590:	00cf9f93          	slli	x31,x31,0xc
    80015594:	005f8f93          	addi	x31,x31,5
    80015598:	00000073          	ecall

000000008001559c <SID_27_pm_implicit_access_passed>:
    8001559c:	00f00f9b          	addiw	x31,x0,15
    800155a0:	01cf9f93          	slli	x31,x31,0x1c
    800155a4:	001f8f93          	addi	x31,x31,1
    800155a8:	00000073          	ecall

00000000800155ac <SID_28_pm_faults_trap_values>:
    800155ac:	0105f137          	lui	x2,0x105f
    800155b0:	0382efb7          	lui	x31,0x382e
    800155b4:	0a0f8f9b          	addiw	x31,x31,160 # 382e0a0 <machine_csr_jump_table_flags>
    800155b8:	00100f13          	li	x30,1
    800155bc:	01efb023          	sd	x30,0(x31)
    800155c0:	000f0fb7          	lui	x31,0xf0
    800155c4:	001f8f9b          	addiw	x31,x31,1 # f0001 <__section_data_1+0x6f001>
    800155c8:	00cf9f93          	slli	x31,x31,0xc
    800155cc:	005f8f93          	addi	x31,x31,5
    800155d0:	00000073          	ecall
    800155d4:	00713023          	sd	x7,0(x2) # 105f000 <tp_csr_storage>
    800155d8:	f167c137          	lui	x2,0xf167c
    800155dc:	0591011b          	addiw	x2,x2,89 # fffffffff167c059 <SID_28_pm_faults_trap_values_stack+0x3a601518059>
    800155e0:	00e11113          	slli	x2,x2,0xe
    800155e4:	000012b7          	lui	x5,0x1
    800155e8:	00510133          	add	x2,x2,x5
    800155ec:	ff017113          	andi	x2,x2,-16
    800155f0:	0010039b          	addiw	x7,x0,1
    800155f4:	02139393          	slli	x7,x7,0x21
    800155f8:	10a3a3f3          	csrrs	x7,0x10a,x7
    800155fc:	0badffb7          	lui	x31,0xbadf
    80015600:	00df8f9b          	addiw	x31,x31,13 # badf00d <mem3+0x530b00d>
    80015604:	002a4237          	lui	x4,0x2a4
    80015608:	7a52021b          	addiw	x4,x4,1957 # 2a47a5 <SID_26_pm_different_tags_same_address_stack+0x1037a5>
    8001560c:	00e21213          	slli	x4,x4,0xe
    80015610:	00f00e13          	li	x28,15
    80015614:	05c23823          	sd	x28,80(x4) # 50 <XLEN+0x10>
    80015618:	00000e17          	auipc	x28,0x0
    8001561c:	058e0e13          	addi	x28,x28,88 # 80015670 <fault_label_1>
    80015620:	03c23023          	sd	x28,32(x4) # 20 <SECURE_ACCESS_PROBABILITY+0x2>
    80015624:	00000e13          	li	x28,0
    80015628:	05c23023          	sd	x28,64(x4) # 40 <XLEN>
    8001562c:	00000e13          	li	x28,0
    80015630:	05c23423          	sd	x28,72(x4) # 48 <XLEN+0x8>
    80015634:	00000e17          	auipc	x28,0x0
    80015638:	050e0e13          	addi	x28,x28,80 # 80015684 <excp_return_label_1>
    8001563c:	03c23823          	sd	x28,48(x4) # 30 <SECURE_ACCESS_PROBABILITY+0x12>
    80015640:	00000e13          	li	x28,0
    80015644:	03c23c23          	sd	x28,56(x4) # 38 <SECURE_ACCESS_PROBABILITY+0x1a>
    80015648:	00000e13          	li	x28,0
    8001564c:	07c23023          	sd	x28,96(x4) # 60 <XLEN+0x20>
    80015650:	00000e13          	li	x28,0
    80015654:	07c23423          	sd	x28,104(x4) # 68 <FS_RANDOMIZATION+0x4>
    80015658:	00000e13          	li	x28,0
    8001565c:	07c23823          	sd	x28,112(x4) # 70 <FS_RANDOMIZATION+0xc>
    80015660:	02c90bb7          	lui	x23,0x2c90
    80015664:	d81b8b9b          	addiw	x23,x23,-639 # 2c8fd81 <tp_csr_storage+0x1c30d81>
    80015668:	00cb9b93          	slli	x23,x23,0xc
    8001566c:	d03fff53          	fcvt.s.lu	f30,x31

0000000080015670 <fault_label_1>:
    80015670:	01eba027          	fsw	f30,0(x23)
    80015674:	0382ea37          	lui	x20,0x382e
    80015678:	008a0a1b          	addiw	x20,x20,8 # 382e008 <failed_addr>
    8001567c:	000a3c83          	ld	x25,0(x20)
    80015680:	000c8067          	jr	x25

0000000080015684 <excp_return_label_1>:
    80015684:	0105f137          	lui	x2,0x105f
    80015688:	00013383          	ld	x7,0(x2) # 105f000 <tp_csr_storage>
    8001568c:	0382efb7          	lui	x31,0x382e
    80015690:	0a0f8f9b          	addiw	x31,x31,160 # 382e0a0 <machine_csr_jump_table_flags>
    80015694:	00300f13          	li	x30,3
    80015698:	01efb023          	sd	x30,0(x31)
    8001569c:	000f0fb7          	lui	x31,0xf0
    800156a0:	001f8f9b          	addiw	x31,x31,1 # f0001 <__section_data_1+0x6f001>
    800156a4:	00cf9f93          	slli	x31,x31,0xc
    800156a8:	005f8f93          	addi	x31,x31,5
    800156ac:	00000073          	ecall

00000000800156b0 <SID_28_pm_faults_trap_values_passed>:
    800156b0:	00f00f9b          	addiw	x31,x0,15
    800156b4:	01cf9f93          	slli	x31,x31,0x1c
    800156b8:	001f8f93          	addi	x31,x31,1
    800156bc:	00000073          	ecall

00000000800156c0 <test_cleanup>:
    800156c0:	00f00f9b          	addiw	x31,x0,15
    800156c4:	01cf9f93          	slli	x31,x31,0x1c
    800156c8:	001f8f93          	addi	x31,x31,1
    800156cc:	00000073          	ecall

00000000800156d0 <local_test_failed>:
    800156d0:	00f00f9b          	addiw	x31,x0,15
    800156d4:	01cf9f93          	slli	x31,x31,0x1c
    800156d8:	002f8f93          	addi	x31,x31,2
    800156dc:	00000073          	ecall

Disassembly of section .csr_machine_0:

0000000080215000 <csr_access_senvcfg_supervisor_key_3_write-0x48>:
    80215000:	001dffb7          	lui	x31,0x1df
    80215004:	b8ff8f9b          	addiw	x31,x31,-1137 # 1deb8f <SID_26_pm_different_tags_same_address_stack+0x3db8f>
    80215008:	00ef9f93          	slli	x31,x31,0xe
    8021500c:	0a0f8f93          	addi	x31,x31,160
    80215010:	000fbf83          	ld	x31,0(x31)
    80215014:	00300293          	li	x5,3
    80215018:	025f8863          	beq	x31,x5,80215048 <csr_access_senvcfg_supervisor_key_3_write>
    8021501c:	00100293          	li	x5,1
    80215020:	025f8863          	beq	x31,x5,80215050 <csr_access_senvcfg_supervisor_key_1_read>
    80215024:	00800293          	li	x5,8
    80215028:	025f8863          	beq	x31,x5,80215058 <csr_access_mstatus_machine_key_8_set>
    8021502c:	00600293          	li	x5,6
    80215030:	025f8863          	beq	x31,x5,80215060 <csr_access_mstatus_machine_key_6_clear>
    80215034:	00b00293          	li	x5,11
    80215038:	025f8863          	beq	x31,x5,80215068 <csr_access_mtvec_machine_key_11_set>
    8021503c:	00a00293          	li	x5,10
    80215040:	025f8863          	beq	x31,x5,80215070 <csr_access_mtvec_machine_key_10_clear>
    80215044:	0340006f          	j	80215078 <end_machine_label>

0000000080215048 <csr_access_senvcfg_supervisor_key_3_write>:
    80215048:	10a39073          	csrw	0x10a,x7
    8021504c:	02c0006f          	j	80215078 <end_machine_label>

0000000080215050 <csr_access_senvcfg_supervisor_key_1_read>:
    80215050:	10a023f3          	csrr	x7,0x10a
    80215054:	0240006f          	j	80215078 <end_machine_label>

0000000080215058 <csr_access_mstatus_machine_key_8_set>:
    80215058:	3003a073          	csrs	mstatus,x7
    8021505c:	01c0006f          	j	80215078 <end_machine_label>

0000000080215060 <csr_access_mstatus_machine_key_6_clear>:
    80215060:	3003b073          	csrc	mstatus,x7
    80215064:	0140006f          	j	80215078 <end_machine_label>

0000000080215068 <csr_access_mtvec_machine_key_11_set>:
    80215068:	3053a073          	csrs	mtvec,x7
    8021506c:	00c0006f          	j	80215078 <end_machine_label>

0000000080215070 <csr_access_mtvec_machine_key_10_clear>:
    80215070:	3053b073          	csrc	mtvec,x7
    80215074:	0040006f          	j	80215078 <end_machine_label>

0000000080215078 <end_machine_label>:
    80215078:	000f0fb7          	lui	x31,0xf0
    8021507c:	001f8f9b          	addiw	x31,x31,1 # f0001 <__section_data_1+0x6f001>
    80215080:	00cf9f93          	slli	x31,x31,0xc
    80215084:	004f8f93          	addi	x31,x31,4
    80215088:	00000073          	ecall

Disassembly of section .csr_super_0:

0000000080216000 <csr_access_senvcfg_supervisor_key_5_set-0x40>:
    80216000:	0382efb7          	lui	x31,0x382e
    80216004:	0a8f8f9b          	addiw	x31,x31,168 # 382e0a8 <super_csr_jump_table_flags>
    80216008:	000fbf83          	ld	x31,0(x31)
    8021600c:	00500293          	li	x5,5
    80216010:	025f8863          	beq	x31,x5,80216040 <csr_access_senvcfg_supervisor_key_5_set>
    80216014:	00200293          	li	x5,2
    80216018:	025f8863          	beq	x31,x5,80216048 <csr_access_senvcfg_supervisor_key_2_clear>
    8021601c:	00900293          	li	x5,9
    80216020:	025f8863          	beq	x31,x5,80216050 <csr_access_sstatus_supervisor_key_9_set>
    80216024:	00700293          	li	x5,7
    80216028:	025f8863          	beq	x31,x5,80216058 <csr_access_sstatus_supervisor_key_7_clear>
    8021602c:	00d00293          	li	x5,13
    80216030:	025f8863          	beq	x31,x5,80216060 <csr_access_stvec_supervisor_key_13_set>
    80216034:	00c00293          	li	x5,12
    80216038:	025f8863          	beq	x31,x5,80216068 <csr_access_stvec_supervisor_key_12_clear>
    8021603c:	0340006f          	j	80216070 <end_super_label>

0000000080216040 <csr_access_senvcfg_supervisor_key_5_set>:
    80216040:	10a3a073          	csrs	0x10a,x7
    80216044:	02c0006f          	j	80216070 <end_super_label>

0000000080216048 <csr_access_senvcfg_supervisor_key_2_clear>:
    80216048:	10a3b073          	csrc	0x10a,x7
    8021604c:	0240006f          	j	80216070 <end_super_label>

0000000080216050 <csr_access_sstatus_supervisor_key_9_set>:
    80216050:	1003a073          	csrs	sstatus,x7
    80216054:	01c0006f          	j	80216070 <end_super_label>

0000000080216058 <csr_access_sstatus_supervisor_key_7_clear>:
    80216058:	1003b073          	csrc	sstatus,x7
    8021605c:	0140006f          	j	80216070 <end_super_label>

0000000080216060 <csr_access_stvec_supervisor_key_13_set>:
    80216060:	1053a073          	csrs	stvec,x7
    80216064:	00c0006f          	j	80216070 <end_super_label>

0000000080216068 <csr_access_stvec_supervisor_key_12_clear>:
    80216068:	1053b073          	csrc	stvec,x7
    8021606c:	0040006f          	j	80216070 <end_super_label>

0000000080216070 <end_super_label>:
    80216070:	000f0fb7          	lui	x31,0xf0
    80216074:	001f8f9b          	addiw	x31,x31,1 # f0001 <__section_data_1+0x6f001>
    80216078:	00cf9f93          	slli	x31,x31,0xc
    8021607c:	004f8f93          	addi	x31,x31,4
    80216080:	00000073          	ecall

Disassembly of section .os_data:

000000000382e000 <passed_addr_ptr>:
 382e000:	5050                	.insn	2, 0x5050
 382e002:	8001                	.insn	2, 0x8001
 382e004:	0000                	.insn	2, 0x0000
	...

000000000382e008 <failed_addr_ptr>:
 382e008:	5060                	.insn	2, 0x5060
 382e00a:	8001                	.insn	2, 0x8001
 382e00c:	0000                	.insn	2, 0x0000
	...

000000000382e010 <end_test_addr_ptr>:
 382e010:	5070                	.insn	2, 0x5070
 382e012:	8001                	.insn	2, 0x8001
 382e014:	0000                	.insn	2, 0x0000
	...

000000000382e018 <os_passed_addr_ptr>:
 382e018:	09cc                	.insn	2, 0x09cc
 382e01a:	8000                	.insn	2, 0x8000
 382e01c:	0000                	.insn	2, 0x0000
	...

000000000382e020 <os_failed_addr_ptr>:
 382e020:	09dc                	.insn	2, 0x09dc
 382e022:	8000                	.insn	2, 0x8000
 382e024:	0000                	.insn	2, 0x0000
	...

000000000382e028 <os_end_test_addr_ptr>:
 382e028:	09e8                	.insn	2, 0x09e8
 382e02a:	8000                	.insn	2, 0x8000
 382e02c:	0000                	.insn	2, 0x0000
	...

000000000382e030 <rvcp_prefix_str_data>:
 382e030:	5652                	.insn	2, 0x5652
 382e032:	203a5043          	fmadd.s	f0,f20,f3,f4,unknown
 382e036:	6554                	.insn	2, 0x6554
 382e038:	46207473          	csrrci	x8,0x462,0
 382e03c:	6c69                	.insn	2, 0x6c69
 382e03e:	2065                	.insn	2, 0x2065
	...

000000000382e041 <rvcp_testname_str_data>:
 382e041:	7074                	.insn	2, 0x7074
 382e043:	7a5f 706a 5f6d      	.insn	6, 0x5f6d706a7a5f
 382e049:	0031                	.insn	2, 0x0031

000000000382e04b <rvcp_passed_str_data>:
 382e04b:	4150                	.insn	2, 0x4150
 382e04d:	44455353          	fround.h	f6,f10,unknown
	...

000000000382e052 <rvcp_failed_str_data>:
 382e052:	4146                	.insn	2, 0x4146
 382e054:	4c49                	.insn	2, 0x4c49
 382e056:	4445                	.insn	2, 0x4445
	...

000000000382e059 <rvcp_space_str_data>:
 382e059:	0020                	.insn	2, 0x0020

000000000382e05b <rvcp_newline_str_data>:
 382e05b:	000a                	.insn	2, 0x000a
 382e05d:	0000                	.insn	2, 0x0000
	...

000000000382e060 <excp_ignored_count_mem>:
	...

000000000382e068 <machine_flags_mem>:
	...

000000000382e070 <user_flags_mem>:
	...

000000000382e078 <super_flags_mem>:
	...

000000000382e080 <machine_area_mem>:
	...

000000000382e088 <user_area_mem>:
	...

000000000382e090 <super_area_mem>:
	...

000000000382e098 <zero_data_mem>:
	...

000000000382e0a0 <machine_csr_jump_table_flags_mem>:
	...

000000000382e0a8 <super_csr_jump_table_flags_mem>:
	...

000000000382e0b0 <pte_access_flags_mem>:
	...

000000000382e0c8 <num_harts_ended_mem>:
	...

000000000382e0d0 <num_hard_fails_mem>:
	...

Disassembly of section .hart_context:

0000000a91e94000 <hart_context_0>:
   a91e94000:	9000                	.insn	2, 0x9000
   a91e94002:	7a52                	.insn	2, 0x7a52
   a91e94004:	0fe5                	.insn	2, 0x0fe5
	...
   a91e94016:	0000                	.insn	2, 0x0000
   a91e94018:	0001                	.insn	2, 0x0001
   a91e9401a:	0000                	.insn	2, 0x0000
   a91e9401c:	0000                	.insn	2, 0x0000
   a91e9401e:	0000                	.insn	2, 0x0000
   a91e94020:	ffff                	.insn	2, 0xffff
   a91e94022:	ffff                	.insn	2, 0xffff
   a91e94024:	ffff                	.insn	2, 0xffff
   a91e94026:	ffff                	.insn	2, 0xffff
   a91e94028:	ffff                	.insn	2, 0xffff
   a91e9402a:	ffff                	.insn	2, 0xffff
   a91e9402c:	ffff                	.insn	2, 0xffff
   a91e9402e:	ffff                	.insn	2, 0xffff
   a91e94030:	ffff                	.insn	2, 0xffff
   a91e94032:	ffff                	.insn	2, 0xffff
   a91e94034:	ffff                	.insn	2, 0xffff
   a91e94036:	ffff                	.insn	2, 0xffff
	...
   a91e94050:	00ff 0000 0000 0000 	.insn	10, 0x00ff00000000000000ff
   a91e94058:	00ff 
	...
   a91e94176:	0000                	.insn	2, 0x0000
   a91e94178:	ffff                	.insn	2, 0xffff
   a91e9417a:	ffff                	.insn	2, 0xffff
   a91e9417c:	ffff                	.insn	2, 0xffff
   a91e9417e:	ffff                	.insn	2, 0xffff
	...
   a91e94198:	ffff                	.insn	2, 0xffff
   a91e9419a:	ffff                	.insn	2, 0xffff
	...

Disassembly of section .hart_stack_0:

00000fe57a528000 <hart_stack_0>:
	...

Disassembly of section .io_htif:

0000000070000000 <tohost>:
	...

0000000070000040 <fromhost>:
	...

Disassembly of section .code_mem6:

0000000745fd7000 <.code_mem6>:
   745fd7000:	0020d497          	auipc	x9,0x20d
   745fd7004:	00008067          	ret

Disassembly of section .mem0:

000001ebddaf8000 <.mem0>:
 1ebddaf8000:	c0de                	.insn	2, 0xc0de
 1ebddaf8002:	c001                	.insn	2, 0xc001
 1ebddaf8004:	0000                	.insn	2, 0x0000
	...

Disassembly of section .mem1:

000000fb503a6000 <.mem1>:
  fb503a6000:	c0de                	.insn	2, 0xc0de
  fb503a6002:	c001                	.insn	2, 0xc001
  fb503a6004:	0000                	.insn	2, 0x0000
	...

Disassembly of section .mem2:

000001ebddb09000 <.mem2>:
 1ebddb09000:	c0de                	.insn	2, 0xc0de
 1ebddb09002:	c001                	.insn	2, 0xc001
 1ebddb09004:	0000                	.insn	2, 0x0000
	...

Disassembly of section .mem3:

00000000067d4000 <.mem3>:
 67d4000:	c0de                	.insn	2, 0xc0de
 67d4002:	c001                	.insn	2, 0xc001
 67d4004:	0000                	.insn	2, 0x0000
	...

Disassembly of section .mem4:

00000feef101b000 <.mem4>:
 feef101b000:	c0de                	.insn	2, 0xc0de
 feef101b002:	c001                	.insn	2, 0xc001
 feef101b004:	0000                	.insn	2, 0x0000
	...

Disassembly of section .mem5:

000000000019f000 <.mem5>:
  19f000:	c0de                	.insn	2, 0xc0de
  19f002:	c001                	.insn	2, 0xc001
  19f004:	0000                	.insn	2, 0x0000
	...

Disassembly of section .mem7:

0000002c8fd81000 <.mem7>:
  2c8fd81000:	c0de                	.insn	2, 0xc0de
  2c8fd81002:	c001                	.insn	2, 0xc001
  2c8fd81004:	0000                	.insn	2, 0x0000
	...

Disassembly of section .tp_csr_storage:

000000000105f000 <.tp_csr_storage>:
 105f000:	c0de                	.insn	2, 0xc0de
 105f002:	c001                	.insn	2, 0xc001
 105f004:	0000                	.insn	2, 0x0000
	...

Disassembly of section .SID_05_pm_disabled_u_vu_mode_stack:

00000024c4614000 <.SID_05_pm_disabled_u_vu_mode_stack>:
  24c4614000:	c0de                	.insn	2, 0xc0de
  24c4614002:	c001                	.insn	2, 0xc001
  24c4614004:	0000                	.insn	2, 0x0000
	...

Disassembly of section .SID_13_pm_enabled_u_vu_mode_stack:

0000000ea78c2000 <.SID_13_pm_enabled_u_vu_mode_stack>:
   ea78c2000:	c0de                	.insn	2, 0xc0de
   ea78c2002:	c001                	.insn	2, 0xc001
   ea78c2004:	0000                	.insn	2, 0x0000
	...

Disassembly of section .SID_24_pm_instruction_set_stack:

00000036764ce000 <.SID_24_pm_instruction_set_stack>:
  36764ce000:	c0de                	.insn	2, 0xc0de
  36764ce002:	c001                	.insn	2, 0xc001
  36764ce004:	0000                	.insn	2, 0x0000
	...

Disassembly of section .SID_25_pm_misaligned_access_stack:

00007b06c9cc8000 <.SID_25_pm_misaligned_access_stack>:
    7b06c9cc8000:	c0de                	.insn	2, 0xc0de
    7b06c9cc8002:	c001                	.insn	2, 0xc001
    7b06c9cc8004:	0000                	.insn	2, 0x0000
	...

Disassembly of section .SID_26_pm_different_tags_same_address_stack:

00000000001a1000 <.SID_26_pm_different_tags_same_address_stack>:
  1a1000:	c0de                	.insn	2, 0xc0de
  1a1002:	c001                	.insn	2, 0xc001
  1a1004:	0000                	.insn	2, 0x0000
	...

Disassembly of section .SID_27_pm_implicit_access_stack:

000000df42be8000 <.SID_27_pm_implicit_access_stack>:
  df42be8000:	c0de                	.insn	2, 0xc0de
  df42be8002:	c001                	.insn	2, 0xc001
  df42be8004:	0000                	.insn	2, 0x0000
	...

Disassembly of section .SID_28_pm_faults_trap_values_stack:

fffffc59f0164000 <.SID_28_pm_faults_trap_values_stack>:
fffffc59f0164000:	c0de                	.insn	2, 0xc0de
fffffc59f0164002:	c001                	.insn	2, 0xc001
fffffc59f0164004:	0000                	.insn	2, 0x0000
	...

Disassembly of section .__pagetable_map_os_0x00000046ac710000:

00000046ac710000 <__pagetable_map_os_0x00000046ac710000>:
  46ac710000:	1801                	.insn	2, 0x1801
  46ac710002:	2f52                	.insn	2, 0x2f52
  46ac710004:	03b5                	.insn	2, 0x03b5
  46ac710006:	0000                	.insn	2, 0x0000
  46ac710008:	9401                	.insn	2, 0x9401
  46ac71000a:	001d10af          	.insn	4, 0x001d10af
	...
  46ac710016:	0000                	.insn	2, 0x0000
  46ac710018:	a001                	.insn	2, 0xa001
  46ac71001a:	36d2                	.insn	2, 0x36d2
  46ac71001c:	00004167          	.insn	4, 0x4167
	...
  46ac7100f8:	8001                	.insn	2, 0x8001
  46ac7100fa:	cf92                	.insn	2, 0xcf92
  46ac7100fc:	02cd                	.insn	2, 0x02cd
	...
  46ac7107ae:	0000                	.insn	2, 0x0000
  46ac7107b0:	6c01                	.insn	2, 0x6c01
  46ac7107b2:	21b5                	.insn	2, 0x21b5
  46ac7107b4:	0000000f          	fence	unknown,unknown
	...
  46ac710fc0:	bc01                	.insn	2, 0xbc01
  46ac710fc2:	a010                	.insn	2, 0xa010
  46ac710fc4:	00000007          	vle8.v	v0,(x0),v0.t

Disassembly of section .__pagetable_map_os_0x00000ed4bd486000:

00000ed4bd486000 <__pagetable_map_os_0x00000ed4bd486000>:
 ed4bd486000:	0401                	.insn	2, 0x0401
 ed4bd486002:	0007fec3          	fmadd.s	f29,f15,f0,f0
 ed4bd486006:	0000                	.insn	2, 0x0000
 ed4bd486008:	8801                	.insn	2, 0x8801
 ed4bd48600a:	3ae0                	.insn	2, 0x3ae0
 ed4bd48600c:	0000                	.insn	2, 0x0000
 ed4bd48600e:	0000                	.insn	2, 0x0000
 ed4bd486010:	2c01                	.insn	2, 0x2c01
 ed4bd486012:	00a23e8b          	.insn	4, 0x00a23e8b
	...
 ed4bd4860e6:	0000                	.insn	2, 0x0000
 ed4bd4860e8:	f401                	.insn	2, 0xf401
 ed4bd4860ea:	28ad                	.insn	2, 0x28ad
 ed4bd4860ec:	0006                	.insn	2, 0x0006
	...
 ed4bd48614e:	0000                	.insn	2, 0x0000
 ed4bd486150:	0401                	.insn	2, 0x0401
 ed4bd486152:	1efd438f          	.insn	4, 0x1efd438f
	...
 ed4bd4861ce:	0000                	.insn	2, 0x0000
 ed4bd4861d0:	f401                	.insn	2, 0xf401
 ed4bd4861d2:	34ddc4db          	.insn	4, 0x34ddc4db
	...
 ed4bd486496:	0000                	.insn	2, 0x0000
 ed4bd486498:	0401                	.insn	2, 0x0401
 ed4bd48649a:	0e88                	.insn	2, 0x0e88
 ed4bd48649c:	4afd                	.insn	2, 0x4afd
 ed4bd48649e:	0001                	.insn	2, 0x0001
	...
 ed4bd486590:	7401                	.insn	2, 0x7401
 ed4bd486592:	0044e05b          	.insn	4, 0x0044e05b
	...
 ed4bd4866c6:	0000                	.insn	2, 0x0000
 ed4bd4866c8:	6401                	.insn	2, 0x6401
 ed4bd4866ca:	0093eb97          	auipc	x23,0x93e
	...
 ed4bd4868ce:	0000                	.insn	2, 0x0000
 ed4bd4868d0:	4001                	.insn	2, 0x4001
 ed4bd4868d2:	3e9f 0000 0000      	.insn	6, 0x3e9f

Disassembly of section .__pagetable_map_os_0x00000288fa2cb000:

00000288fa2cb000 <__pagetable_map_os_0x00000288fa2cb000>:
 288fa2cb000:	8c01                	.insn	2, 0x8c01
 288fa2cb002:	6220                	.insn	2, 0x6220
 288fa2cb004:	0000                	.insn	2, 0x0000
 288fa2cb006:	0000                	.insn	2, 0x0000
 288fa2cb008:	1c01                	.insn	2, 0x1c01
 288fa2cb00a:	0aa3ecdb          	.insn	4, 0x0aa3ecdb
	...

Disassembly of section .__pagetable_map_os_0x0000000188823000:

0000000188823000 <__pagetable_map_os_0x0000000188823000>:
	...
   188823080:	40df 2000 0000      	.insn	6, 0x200040df
   188823086:	0000                	.insn	2, 0x0000
   188823088:	200044cf          	fnmadd.s	f9,f0,f0,f4,rmm
   18882308c:	0000                	.insn	2, 0x0000
   18882308e:	0000                	.insn	2, 0x0000
   188823090:	200048cf          	fnmadd.s	f17,f0,f0,f4,rmm
   188823094:	0000                	.insn	2, 0x0000
   188823096:	0000                	.insn	2, 0x0000
   188823098:	20004ccf          	fnmadd.s	f25,f0,f0,f4,rmm
   18882309c:	0000                	.insn	2, 0x0000
   18882309e:	0000                	.insn	2, 0x0000
   1888230a0:	200050cf          	fnmadd.s	f1,f0,f0,f4,unknown
   1888230a4:	0000                	.insn	2, 0x0000
   1888230a6:	0000                	.insn	2, 0x0000
   1888230a8:	00df 0b28 0007      	.insn	6, 0x00070b2800df
   1888230ae:	0000                	.insn	2, 0x0000
   1888230b0:	04df 0b28 0007      	.insn	6, 0x00070b2804df
   1888230b6:	0000                	.insn	2, 0x0000
   1888230b8:	08df 0b28 0007      	.insn	6, 0x00070b2808df
   1888230be:	0000                	.insn	2, 0x0000
   1888230c0:	0cdf 0b28 0007      	.insn	6, 0x00070b280cdf
   1888230c6:	0000                	.insn	2, 0x0000
   1888230c8:	10df 0b28 0007      	.insn	6, 0x00070b2810df
   1888230ce:	0000                	.insn	2, 0x0000
   1888230d0:	14df 0b28 0007      	.insn	6, 0x00070b2814df
   1888230d6:	0000                	.insn	2, 0x0000
   1888230d8:	18df 0b28 0007      	.insn	6, 0x00070b2818df
   1888230de:	0000                	.insn	2, 0x0000
   1888230e0:	1cdf 0b28 0007      	.insn	6, 0x00070b281cdf
   1888230e6:	0000                	.insn	2, 0x0000
   1888230e8:	20df 0b28 0007      	.insn	6, 0x00070b2820df
   1888230ee:	0000                	.insn	2, 0x0000
   1888230f0:	24df 0b28 0007      	.insn	6, 0x00070b2824df
   1888230f6:	0000                	.insn	2, 0x0000
   1888230f8:	28df 0b28 0007      	.insn	6, 0x00070b2828df
   1888230fe:	0000                	.insn	2, 0x0000
   188823100:	2cdf 0b28 0007      	.insn	6, 0x00070b282cdf
   188823106:	0000                	.insn	2, 0x0000
   188823108:	30df 0b28 0007      	.insn	6, 0x00070b2830df
   18882310e:	0000                	.insn	2, 0x0000
   188823110:	34df 0b28 0007      	.insn	6, 0x00070b2834df
   188823116:	0000                	.insn	2, 0x0000
   188823118:	38df 0b28 0007      	.insn	6, 0x00070b2838df
   18882311e:	0000                	.insn	2, 0x0000
   188823120:	3cdf 0b28 0007      	.insn	6, 0x00070b283cdf
   188823126:	0000                	.insn	2, 0x0000
   188823128:	40df 0b28 0007      	.insn	6, 0x00070b2840df
   18882312e:	0000                	.insn	2, 0x0000
   188823130:	44df 0b28 0007      	.insn	6, 0x00070b2844df
   188823136:	0000                	.insn	2, 0x0000
   188823138:	48df 0b28 0007      	.insn	6, 0x00070b2848df
   18882313e:	0000                	.insn	2, 0x0000
   188823140:	4cdf 0b28 0007      	.insn	6, 0x00070b284cdf
   188823146:	0000                	.insn	2, 0x0000
   188823148:	50df 0b28 0007      	.insn	6, 0x00070b2850df
   18882314e:	0000                	.insn	2, 0x0000
   188823150:	54df 0b28 0007      	.insn	6, 0x00070b2854df
   188823156:	0000                	.insn	2, 0x0000
   188823158:	58df 0b28 0007      	.insn	6, 0x00070b2858df
   18882315e:	0000                	.insn	2, 0x0000
   188823160:	5cdf 0b28 0007      	.insn	6, 0x00070b285cdf
   188823166:	0000                	.insn	2, 0x0000
   188823168:	60df 0b28 0007      	.insn	6, 0x00070b2860df
   18882316e:	0000                	.insn	2, 0x0000
   188823170:	64df 0b28 0007      	.insn	6, 0x00070b2864df
   188823176:	0000                	.insn	2, 0x0000
   188823178:	68df 0b28 0007      	.insn	6, 0x00070b2868df
   18882317e:	0000                	.insn	2, 0x0000
   188823180:	6cdf 0b28 0007      	.insn	6, 0x00070b286cdf
   188823186:	0000                	.insn	2, 0x0000
   188823188:	70df 0b28 0007      	.insn	6, 0x00070b2870df
   18882318e:	0000                	.insn	2, 0x0000
   188823190:	74df 0b28 0007      	.insn	6, 0x00070b2874df
   188823196:	0000                	.insn	2, 0x0000
   188823198:	78df 0b28 0007      	.insn	6, 0x00070b2878df
   18882319e:	0000                	.insn	2, 0x0000
   1888231a0:	7cdf 0b28 0007      	.insn	6, 0x00070b287cdf
   1888231a6:	0000                	.insn	2, 0x0000
   1888231a8:	80df 0b28 0007      	.insn	6, 0x00070b2880df
   1888231ae:	0000                	.insn	2, 0x0000
   1888231b0:	84df 0b28 0007      	.insn	6, 0x00070b2884df
   1888231b6:	0000                	.insn	2, 0x0000
   1888231b8:	88df 0b28 0007      	.insn	6, 0x00070b2888df
   1888231be:	0000                	.insn	2, 0x0000
   1888231c0:	8cdf 0b28 0007      	.insn	6, 0x00070b288cdf
   1888231c6:	0000                	.insn	2, 0x0000
   1888231c8:	90df 0b28 0007      	.insn	6, 0x00070b2890df
   1888231ce:	0000                	.insn	2, 0x0000
   1888231d0:	94df 0b28 0007      	.insn	6, 0x00070b2894df
   1888231d6:	0000                	.insn	2, 0x0000
   1888231d8:	98df 0b28 0007      	.insn	6, 0x00070b2898df
   1888231de:	0000                	.insn	2, 0x0000
   1888231e0:	9cdf 0b28 0007      	.insn	6, 0x00070b289cdf
   1888231e6:	0000                	.insn	2, 0x0000
   1888231e8:	a0df 0b28 0007      	.insn	6, 0x00070b28a0df
   1888231ee:	0000                	.insn	2, 0x0000
   1888231f0:	a4df 0b28 0007      	.insn	6, 0x00070b28a4df
   1888231f6:	0000                	.insn	2, 0x0000
   1888231f8:	a8df 0b28 0007      	.insn	6, 0x00070b28a8df
   1888231fe:	0000                	.insn	2, 0x0000
   188823200:	acdf 0b28 0007      	.insn	6, 0x00070b28acdf
   188823206:	0000                	.insn	2, 0x0000
   188823208:	b0df 0b28 0007      	.insn	6, 0x00070b28b0df
   18882320e:	0000                	.insn	2, 0x0000
   188823210:	b4df 0b28 0007      	.insn	6, 0x00070b28b4df
   188823216:	0000                	.insn	2, 0x0000
   188823218:	b8df 0b28 0007      	.insn	6, 0x00070b28b8df
   18882321e:	0000                	.insn	2, 0x0000
   188823220:	bcdf 0b28 0007      	.insn	6, 0x00070b28bcdf
   188823226:	0000                	.insn	2, 0x0000
   188823228:	c0df 0b28 0007      	.insn	6, 0x00070b28c0df
   18882322e:	0000                	.insn	2, 0x0000
   188823230:	c4df 0b28 0007      	.insn	6, 0x00070b28c4df
   188823236:	0000                	.insn	2, 0x0000
   188823238:	c8df 0b28 0007      	.insn	6, 0x00070b28c8df
   18882323e:	0000                	.insn	2, 0x0000
   188823240:	ccdf 0b28 0007      	.insn	6, 0x00070b28ccdf
   188823246:	0000                	.insn	2, 0x0000
   188823248:	d0df 0b28 0007      	.insn	6, 0x00070b28d0df
   18882324e:	0000                	.insn	2, 0x0000
   188823250:	d4df 0b28 0007      	.insn	6, 0x00070b28d4df
   188823256:	0000                	.insn	2, 0x0000
   188823258:	d8df 0b28 0007      	.insn	6, 0x00070b28d8df
   18882325e:	0000                	.insn	2, 0x0000
   188823260:	dcdf 0b28 0007      	.insn	6, 0x00070b28dcdf
   188823266:	0000                	.insn	2, 0x0000
   188823268:	e0df 0b28 0007      	.insn	6, 0x00070b28e0df
   18882326e:	0000                	.insn	2, 0x0000
   188823270:	e4df 0b28 0007      	.insn	6, 0x00070b28e4df
   188823276:	0000                	.insn	2, 0x0000
   188823278:	e8df 0b28 0007      	.insn	6, 0x00070b28e8df
   18882327e:	0000                	.insn	2, 0x0000
   188823280:	ecdf 0b28 0007      	.insn	6, 0x00070b28ecdf
   188823286:	0000                	.insn	2, 0x0000
   188823288:	f0df 0b28 0007      	.insn	6, 0x00070b28f0df
   18882328e:	0000                	.insn	2, 0x0000
   188823290:	f4df 0b28 0007      	.insn	6, 0x00070b28f4df
   188823296:	0000                	.insn	2, 0x0000
   188823298:	f8df 0b28 0007      	.insn	6, 0x00070b28f8df
   18882329e:	0000                	.insn	2, 0x0000
   1888232a0:	fcdf 0b28 0007      	.insn	6, 0x00070b28fcdf
   1888232a6:	0000                	.insn	2, 0x0000
   1888232a8:	00df 0b29 0007      	.insn	6, 0x00070b2900df
   1888232ae:	0000                	.insn	2, 0x0000
   1888232b0:	04df 0b29 0007      	.insn	6, 0x00070b2904df
   1888232b6:	0000                	.insn	2, 0x0000
   1888232b8:	08df 0b29 0007      	.insn	6, 0x00070b2908df
   1888232be:	0000                	.insn	2, 0x0000
   1888232c0:	0cdf 0b29 0007      	.insn	6, 0x00070b290cdf
   1888232c6:	0000                	.insn	2, 0x0000
   1888232c8:	10df 0b29 0007      	.insn	6, 0x00070b2910df
   1888232ce:	0000                	.insn	2, 0x0000
   1888232d0:	14df 0b29 0007      	.insn	6, 0x00070b2914df
   1888232d6:	0000                	.insn	2, 0x0000
   1888232d8:	18df 0b29 0007      	.insn	6, 0x00070b2918df
   1888232de:	0000                	.insn	2, 0x0000
   1888232e0:	1cdf 0b29 0007      	.insn	6, 0x00070b291cdf
   1888232e6:	0000                	.insn	2, 0x0000
   1888232e8:	20df 0b29 0007      	.insn	6, 0x00070b2920df
   1888232ee:	0000                	.insn	2, 0x0000
   1888232f0:	24df 0b29 0007      	.insn	6, 0x00070b2924df
   1888232f6:	0000                	.insn	2, 0x0000
   1888232f8:	28df 0b29 0007      	.insn	6, 0x00070b2928df
   1888232fe:	0000                	.insn	2, 0x0000
   188823300:	2cdf 0b29 0007      	.insn	6, 0x00070b292cdf
   188823306:	0000                	.insn	2, 0x0000
   188823308:	30df 0b29 0007      	.insn	6, 0x00070b2930df
   18882330e:	0000                	.insn	2, 0x0000
   188823310:	34df 0b29 0007      	.insn	6, 0x00070b2934df
   188823316:	0000                	.insn	2, 0x0000
   188823318:	38df 0b29 0007      	.insn	6, 0x00070b2938df
   18882331e:	0000                	.insn	2, 0x0000
   188823320:	3cdf 0b29 0007      	.insn	6, 0x00070b293cdf
   188823326:	0000                	.insn	2, 0x0000
   188823328:	40df 0b29 0007      	.insn	6, 0x00070b2940df
   18882332e:	0000                	.insn	2, 0x0000
   188823330:	44df 0b29 0007      	.insn	6, 0x00070b2944df
   188823336:	0000                	.insn	2, 0x0000
   188823338:	48df 0b29 0007      	.insn	6, 0x00070b2948df
   18882333e:	0000                	.insn	2, 0x0000
   188823340:	4cdf 0b29 0007      	.insn	6, 0x00070b294cdf
   188823346:	0000                	.insn	2, 0x0000
   188823348:	50df 0b29 0007      	.insn	6, 0x00070b2950df
   18882334e:	0000                	.insn	2, 0x0000
   188823350:	54df 0b29 0007      	.insn	6, 0x00070b2954df
   188823356:	0000                	.insn	2, 0x0000
   188823358:	58df 0b29 0007      	.insn	6, 0x00070b2958df
   18882335e:	0000                	.insn	2, 0x0000
   188823360:	5cdf 0b29 0007      	.insn	6, 0x00070b295cdf
   188823366:	0000                	.insn	2, 0x0000
   188823368:	60df 0b29 0007      	.insn	6, 0x00070b2960df
   18882336e:	0000                	.insn	2, 0x0000
   188823370:	64df 0b29 0007      	.insn	6, 0x00070b2964df
   188823376:	0000                	.insn	2, 0x0000
   188823378:	68df 0b29 0007      	.insn	6, 0x00070b2968df
   18882337e:	0000                	.insn	2, 0x0000
   188823380:	6cdf 0b29 0007      	.insn	6, 0x00070b296cdf
   188823386:	0000                	.insn	2, 0x0000
   188823388:	70df 0b29 0007      	.insn	6, 0x00070b2970df
   18882338e:	0000                	.insn	2, 0x0000
   188823390:	74df 0b29 0007      	.insn	6, 0x00070b2974df
   188823396:	0000                	.insn	2, 0x0000
   188823398:	78df 0b29 0007      	.insn	6, 0x00070b2978df
   18882339e:	0000                	.insn	2, 0x0000
   1888233a0:	7cdf 0b29 0007      	.insn	6, 0x00070b297cdf
   1888233a6:	0000                	.insn	2, 0x0000
   1888233a8:	80df 0b29 0007      	.insn	6, 0x00070b2980df
   1888233ae:	0000                	.insn	2, 0x0000
   1888233b0:	84df 0b29 0007      	.insn	6, 0x00070b2984df
   1888233b6:	0000                	.insn	2, 0x0000
   1888233b8:	88df 0b29 0007      	.insn	6, 0x00070b2988df
   1888233be:	0000                	.insn	2, 0x0000
   1888233c0:	8cdf 0b29 0007      	.insn	6, 0x00070b298cdf
   1888233c6:	0000                	.insn	2, 0x0000
   1888233c8:	90df 0b29 0007      	.insn	6, 0x00070b2990df
   1888233ce:	0000                	.insn	2, 0x0000
   1888233d0:	94df 0b29 0007      	.insn	6, 0x00070b2994df
   1888233d6:	0000                	.insn	2, 0x0000
   1888233d8:	98df 0b29 0007      	.insn	6, 0x00070b2998df
   1888233de:	0000                	.insn	2, 0x0000
   1888233e0:	9cdf 0b29 0007      	.insn	6, 0x00070b299cdf
   1888233e6:	0000                	.insn	2, 0x0000
   1888233e8:	a0df 0b29 0007      	.insn	6, 0x00070b29a0df
   1888233ee:	0000                	.insn	2, 0x0000
   1888233f0:	a4df 0b29 0007      	.insn	6, 0x00070b29a4df
   1888233f6:	0000                	.insn	2, 0x0000
   1888233f8:	a8df 0b29 0007      	.insn	6, 0x00070b29a8df
   1888233fe:	0000                	.insn	2, 0x0000
   188823400:	acdf 0b29 0007      	.insn	6, 0x00070b29acdf
   188823406:	0000                	.insn	2, 0x0000
   188823408:	b0df 0b29 0007      	.insn	6, 0x00070b29b0df
   18882340e:	0000                	.insn	2, 0x0000
   188823410:	b4df 0b29 0007      	.insn	6, 0x00070b29b4df
   188823416:	0000                	.insn	2, 0x0000
   188823418:	b8df 0b29 0007      	.insn	6, 0x00070b29b8df
   18882341e:	0000                	.insn	2, 0x0000
   188823420:	bcdf 0b29 0007      	.insn	6, 0x00070b29bcdf
   188823426:	0000                	.insn	2, 0x0000
   188823428:	c0df 0b29 0007      	.insn	6, 0x00070b29c0df
   18882342e:	0000                	.insn	2, 0x0000
   188823430:	c4df 0b29 0007      	.insn	6, 0x00070b29c4df
   188823436:	0000                	.insn	2, 0x0000
   188823438:	c8df 0b29 0007      	.insn	6, 0x00070b29c8df
   18882343e:	0000                	.insn	2, 0x0000
   188823440:	ccdf 0b29 0007      	.insn	6, 0x00070b29ccdf
   188823446:	0000                	.insn	2, 0x0000
   188823448:	d0df 0b29 0007      	.insn	6, 0x00070b29d0df
   18882344e:	0000                	.insn	2, 0x0000
   188823450:	d4df 0b29 0007      	.insn	6, 0x00070b29d4df
   188823456:	0000                	.insn	2, 0x0000
   188823458:	d8df 0b29 0007      	.insn	6, 0x00070b29d8df
   18882345e:	0000                	.insn	2, 0x0000
   188823460:	dcdf 0b29 0007      	.insn	6, 0x00070b29dcdf
   188823466:	0000                	.insn	2, 0x0000
   188823468:	e0df 0b29 0007      	.insn	6, 0x00070b29e0df
   18882346e:	0000                	.insn	2, 0x0000
   188823470:	e4df 0b29 0007      	.insn	6, 0x00070b29e4df
   188823476:	0000                	.insn	2, 0x0000
   188823478:	e8df 0b29 0007      	.insn	6, 0x00070b29e8df
   18882347e:	0000                	.insn	2, 0x0000
   188823480:	ecdf 0b29 0007      	.insn	6, 0x00070b29ecdf
   188823486:	0000                	.insn	2, 0x0000
   188823488:	f0df 0b29 0007      	.insn	6, 0x00070b29f0df
   18882348e:	0000                	.insn	2, 0x0000
   188823490:	f4df 0b29 0007      	.insn	6, 0x00070b29f4df
   188823496:	0000                	.insn	2, 0x0000
   188823498:	f8df 0b29 0007      	.insn	6, 0x00070b29f8df
   18882349e:	0000                	.insn	2, 0x0000
   1888234a0:	fcdf 0b29 0007      	.insn	6, 0x00070b29fcdf
   1888234a6:	0000                	.insn	2, 0x0000
   1888234a8:	0b2a00cf          	fnmadd.d	f1,f20,f18,f1,rne
   1888234ac:	00000007          	vle8.v	v0,(x0),v0.t
   1888234b0:	0b2a04cf          	fnmadd.d	f9,f20,f18,f1,rne
   1888234b4:	00000007          	vle8.v	v0,(x0),v0.t
   1888234b8:	0b2a08cf          	fnmadd.d	f17,f20,f18,f1,rne
   1888234bc:	00000007          	vle8.v	v0,(x0),v0.t
   1888234c0:	0b2a0ccf          	fnmadd.d	f25,f20,f18,f1,rne
   1888234c4:	00000007          	vle8.v	v0,(x0),v0.t
   1888234c8:	0b2a10cf          	fnmadd.d	f1,f20,f18,f1,rtz
   1888234cc:	00000007          	vle8.v	v0,(x0),v0.t
   1888234d0:	0b2a14cf          	fnmadd.d	f9,f20,f18,f1,rtz
   1888234d4:	00000007          	vle8.v	v0,(x0),v0.t
   1888234d8:	0b2a18cf          	fnmadd.d	f17,f20,f18,f1,rtz
   1888234dc:	00000007          	vle8.v	v0,(x0),v0.t
   1888234e0:	0b2a1ccf          	fnmadd.d	f25,f20,f18,f1,rtz
   1888234e4:	00000007          	vle8.v	v0,(x0),v0.t
   1888234e8:	0b2a20cf          	fnmadd.d	f1,f20,f18,f1,rdn
   1888234ec:	00000007          	vle8.v	v0,(x0),v0.t
   1888234f0:	0b2a24cf          	fnmadd.d	f9,f20,f18,f1,rdn
   1888234f4:	00000007          	vle8.v	v0,(x0),v0.t
   1888234f8:	0b2a28cf          	fnmadd.d	f17,f20,f18,f1,rdn
   1888234fc:	00000007          	vle8.v	v0,(x0),v0.t
   188823500:	0b2a2ccf          	fnmadd.d	f25,f20,f18,f1,rdn
   188823504:	00000007          	vle8.v	v0,(x0),v0.t
   188823508:	0b2a30cf          	fnmadd.d	f1,f20,f18,f1,rup
   18882350c:	00000007          	vle8.v	v0,(x0),v0.t
   188823510:	0b2a34cf          	fnmadd.d	f9,f20,f18,f1,rup
   188823514:	00000007          	vle8.v	v0,(x0),v0.t
   188823518:	0b2a38cf          	fnmadd.d	f17,f20,f18,f1,rup
   18882351c:	00000007          	vle8.v	v0,(x0),v0.t
   188823520:	0b2a3ccf          	fnmadd.d	f25,f20,f18,f1,rup
   188823524:	00000007          	vle8.v	v0,(x0),v0.t
   188823528:	0b2a40cf          	fnmadd.d	f1,f20,f18,f1,rmm
   18882352c:	00000007          	vle8.v	v0,(x0),v0.t
   188823530:	0b2a44cf          	fnmadd.d	f9,f20,f18,f1,rmm
   188823534:	00000007          	vle8.v	v0,(x0),v0.t
   188823538:	0b2a48cf          	fnmadd.d	f17,f20,f18,f1,rmm
   18882353c:	00000007          	vle8.v	v0,(x0),v0.t
   188823540:	0b2a4ccf          	fnmadd.d	f25,f20,f18,f1,rmm
   188823544:	00000007          	vle8.v	v0,(x0),v0.t
   188823548:	0b2a50cf          	fnmadd.d	f1,f20,f18,f1,unknown
   18882354c:	00000007          	vle8.v	v0,(x0),v0.t
   188823550:	0b2a54cf          	fnmadd.d	f9,f20,f18,f1,unknown
   188823554:	00000007          	vle8.v	v0,(x0),v0.t
   188823558:	0b2a58cf          	fnmadd.d	f17,f20,f18,f1,unknown
   18882355c:	00000007          	vle8.v	v0,(x0),v0.t
   188823560:	0b2a5ccf          	fnmadd.d	f25,f20,f18,f1,unknown
   188823564:	00000007          	vle8.v	v0,(x0),v0.t
   188823568:	0b2a60cf          	fnmadd.d	f1,f20,f18,f1,unknown
   18882356c:	00000007          	vle8.v	v0,(x0),v0.t
   188823570:	0b2a64cf          	fnmadd.d	f9,f20,f18,f1,unknown
   188823574:	00000007          	vle8.v	v0,(x0),v0.t
   188823578:	0b2a68cf          	fnmadd.d	f17,f20,f18,f1,unknown
   18882357c:	00000007          	vle8.v	v0,(x0),v0.t
   188823580:	0b2a6ccf          	fnmadd.d	f25,f20,f18,f1,unknown
   188823584:	00000007          	vle8.v	v0,(x0),v0.t
   188823588:	0b2a70cf          	fnmadd.d	f1,f20,f18,f1
   18882358c:	00000007          	vle8.v	v0,(x0),v0.t
   188823590:	0b2a74cf          	fnmadd.d	f9,f20,f18,f1
   188823594:	00000007          	vle8.v	v0,(x0),v0.t
   188823598:	0b2a78cf          	fnmadd.d	f17,f20,f18,f1
   18882359c:	00000007          	vle8.v	v0,(x0),v0.t
   1888235a0:	0b2a7ccf          	fnmadd.d	f25,f20,f18,f1
   1888235a4:	00000007          	vle8.v	v0,(x0),v0.t
   1888235a8:	0b2a80cf          	fnmadd.d	f1,f21,f18,f1,rne
   1888235ac:	00000007          	vle8.v	v0,(x0),v0.t
   1888235b0:	0b2a84cf          	fnmadd.d	f9,f21,f18,f1,rne
   1888235b4:	00000007          	vle8.v	v0,(x0),v0.t
   1888235b8:	0b2a88cf          	fnmadd.d	f17,f21,f18,f1,rne
   1888235bc:	00000007          	vle8.v	v0,(x0),v0.t
   1888235c0:	0b2a8ccf          	fnmadd.d	f25,f21,f18,f1,rne
   1888235c4:	00000007          	vle8.v	v0,(x0),v0.t
   1888235c8:	0b2a90cf          	fnmadd.d	f1,f21,f18,f1,rtz
   1888235cc:	00000007          	vle8.v	v0,(x0),v0.t
   1888235d0:	0b2a94cf          	fnmadd.d	f9,f21,f18,f1,rtz
   1888235d4:	00000007          	vle8.v	v0,(x0),v0.t
   1888235d8:	0b2a98cf          	fnmadd.d	f17,f21,f18,f1,rtz
   1888235dc:	00000007          	vle8.v	v0,(x0),v0.t
   1888235e0:	0b2a9ccf          	fnmadd.d	f25,f21,f18,f1,rtz
   1888235e4:	00000007          	vle8.v	v0,(x0),v0.t
   1888235e8:	0b2aa0cf          	fnmadd.d	f1,f21,f18,f1,rdn
   1888235ec:	00000007          	vle8.v	v0,(x0),v0.t
   1888235f0:	0b2aa4cf          	fnmadd.d	f9,f21,f18,f1,rdn
   1888235f4:	00000007          	vle8.v	v0,(x0),v0.t
   1888235f8:	0b2aa8cf          	fnmadd.d	f17,f21,f18,f1,rdn
   1888235fc:	00000007          	vle8.v	v0,(x0),v0.t
   188823600:	0b2aaccf          	fnmadd.d	f25,f21,f18,f1,rdn
   188823604:	00000007          	vle8.v	v0,(x0),v0.t
   188823608:	0b2ab0cf          	fnmadd.d	f1,f21,f18,f1,rup
   18882360c:	00000007          	vle8.v	v0,(x0),v0.t
   188823610:	0b2ab4cf          	fnmadd.d	f9,f21,f18,f1,rup
   188823614:	00000007          	vle8.v	v0,(x0),v0.t
   188823618:	0b2ab8cf          	fnmadd.d	f17,f21,f18,f1,rup
   18882361c:	00000007          	vle8.v	v0,(x0),v0.t
   188823620:	0b2abccf          	fnmadd.d	f25,f21,f18,f1,rup
   188823624:	00000007          	vle8.v	v0,(x0),v0.t
   188823628:	0b2ac0cf          	fnmadd.d	f1,f21,f18,f1,rmm
   18882362c:	00000007          	vle8.v	v0,(x0),v0.t
   188823630:	0b2ac4cf          	fnmadd.d	f9,f21,f18,f1,rmm
   188823634:	00000007          	vle8.v	v0,(x0),v0.t
   188823638:	0b2ac8cf          	fnmadd.d	f17,f21,f18,f1,rmm
   18882363c:	00000007          	vle8.v	v0,(x0),v0.t
   188823640:	0b2acccf          	fnmadd.d	f25,f21,f18,f1,rmm
   188823644:	00000007          	vle8.v	v0,(x0),v0.t
   188823648:	0b2ad0cf          	fnmadd.d	f1,f21,f18,f1,unknown
   18882364c:	00000007          	vle8.v	v0,(x0),v0.t
   188823650:	0b2ad4cf          	fnmadd.d	f9,f21,f18,f1,unknown
   188823654:	00000007          	vle8.v	v0,(x0),v0.t
   188823658:	0b2ad8cf          	fnmadd.d	f17,f21,f18,f1,unknown
   18882365c:	00000007          	vle8.v	v0,(x0),v0.t
   188823660:	0b2adccf          	fnmadd.d	f25,f21,f18,f1,unknown
   188823664:	00000007          	vle8.v	v0,(x0),v0.t
   188823668:	0b2ae0cf          	fnmadd.d	f1,f21,f18,f1,unknown
   18882366c:	00000007          	vle8.v	v0,(x0),v0.t
   188823670:	0b2ae4cf          	fnmadd.d	f9,f21,f18,f1,unknown
   188823674:	00000007          	vle8.v	v0,(x0),v0.t
   188823678:	0b2ae8cf          	fnmadd.d	f17,f21,f18,f1,unknown
   18882367c:	00000007          	vle8.v	v0,(x0),v0.t
   188823680:	0b2aeccf          	fnmadd.d	f25,f21,f18,f1,unknown
   188823684:	00000007          	vle8.v	v0,(x0),v0.t
   188823688:	0b2af0cf          	fnmadd.d	f1,f21,f18,f1
   18882368c:	00000007          	vle8.v	v0,(x0),v0.t
   188823690:	0b2af4cf          	fnmadd.d	f9,f21,f18,f1
   188823694:	00000007          	vle8.v	v0,(x0),v0.t
   188823698:	0b2af8cf          	fnmadd.d	f17,f21,f18,f1
   18882369c:	00000007          	vle8.v	v0,(x0),v0.t
   1888236a0:	0b2afccf          	fnmadd.d	f25,f21,f18,f1
   1888236a4:	00000007          	vle8.v	v0,(x0),v0.t
   1888236a8:	0b2b00cf          	fnmadd.d	f1,f22,f18,f1,rne
   1888236ac:	00000007          	vle8.v	v0,(x0),v0.t
   1888236b0:	0b2b04cf          	fnmadd.d	f9,f22,f18,f1,rne
   1888236b4:	00000007          	vle8.v	v0,(x0),v0.t
   1888236b8:	0b2b08cf          	fnmadd.d	f17,f22,f18,f1,rne
   1888236bc:	00000007          	vle8.v	v0,(x0),v0.t
   1888236c0:	0b2b0ccf          	fnmadd.d	f25,f22,f18,f1,rne
   1888236c4:	00000007          	vle8.v	v0,(x0),v0.t
   1888236c8:	0b2b10cf          	fnmadd.d	f1,f22,f18,f1,rtz
   1888236cc:	00000007          	vle8.v	v0,(x0),v0.t
   1888236d0:	0b2b14cf          	fnmadd.d	f9,f22,f18,f1,rtz
   1888236d4:	00000007          	vle8.v	v0,(x0),v0.t
   1888236d8:	0b2b18cf          	fnmadd.d	f17,f22,f18,f1,rtz
   1888236dc:	00000007          	vle8.v	v0,(x0),v0.t
   1888236e0:	0b2b1ccf          	fnmadd.d	f25,f22,f18,f1,rtz
   1888236e4:	00000007          	vle8.v	v0,(x0),v0.t
   1888236e8:	0b2b20cf          	fnmadd.d	f1,f22,f18,f1,rdn
   1888236ec:	00000007          	vle8.v	v0,(x0),v0.t
   1888236f0:	0b2b24cf          	fnmadd.d	f9,f22,f18,f1,rdn
   1888236f4:	00000007          	vle8.v	v0,(x0),v0.t
   1888236f8:	0b2b28cf          	fnmadd.d	f17,f22,f18,f1,rdn
   1888236fc:	00000007          	vle8.v	v0,(x0),v0.t
   188823700:	0b2b2ccf          	fnmadd.d	f25,f22,f18,f1,rdn
   188823704:	00000007          	vle8.v	v0,(x0),v0.t
   188823708:	0b2b30cf          	fnmadd.d	f1,f22,f18,f1,rup
   18882370c:	00000007          	vle8.v	v0,(x0),v0.t
   188823710:	0b2b34cf          	fnmadd.d	f9,f22,f18,f1,rup
   188823714:	00000007          	vle8.v	v0,(x0),v0.t
   188823718:	0b2b38cf          	fnmadd.d	f17,f22,f18,f1,rup
   18882371c:	00000007          	vle8.v	v0,(x0),v0.t
   188823720:	0b2b3ccf          	fnmadd.d	f25,f22,f18,f1,rup
   188823724:	00000007          	vle8.v	v0,(x0),v0.t
   188823728:	0b2b40cf          	fnmadd.d	f1,f22,f18,f1,rmm
   18882372c:	00000007          	vle8.v	v0,(x0),v0.t
   188823730:	0b2b44cf          	fnmadd.d	f9,f22,f18,f1,rmm
   188823734:	00000007          	vle8.v	v0,(x0),v0.t
   188823738:	0b2b48cf          	fnmadd.d	f17,f22,f18,f1,rmm
   18882373c:	00000007          	vle8.v	v0,(x0),v0.t
   188823740:	0b2b4ccf          	fnmadd.d	f25,f22,f18,f1,rmm
   188823744:	00000007          	vle8.v	v0,(x0),v0.t
   188823748:	0b2b50cf          	fnmadd.d	f1,f22,f18,f1,unknown
   18882374c:	00000007          	vle8.v	v0,(x0),v0.t
   188823750:	0b2b54cf          	fnmadd.d	f9,f22,f18,f1,unknown
   188823754:	00000007          	vle8.v	v0,(x0),v0.t
   188823758:	0b2b58cf          	fnmadd.d	f17,f22,f18,f1,unknown
   18882375c:	00000007          	vle8.v	v0,(x0),v0.t
   188823760:	0b2b5ccf          	fnmadd.d	f25,f22,f18,f1,unknown
   188823764:	00000007          	vle8.v	v0,(x0),v0.t
   188823768:	0b2b60cf          	fnmadd.d	f1,f22,f18,f1,unknown
   18882376c:	00000007          	vle8.v	v0,(x0),v0.t
   188823770:	0b2b64cf          	fnmadd.d	f9,f22,f18,f1,unknown
   188823774:	00000007          	vle8.v	v0,(x0),v0.t
   188823778:	0b2b68cf          	fnmadd.d	f17,f22,f18,f1,unknown
   18882377c:	00000007          	vle8.v	v0,(x0),v0.t
   188823780:	0b2b6ccf          	fnmadd.d	f25,f22,f18,f1,unknown
   188823784:	00000007          	vle8.v	v0,(x0),v0.t
   188823788:	0b2b70cf          	fnmadd.d	f1,f22,f18,f1
   18882378c:	00000007          	vle8.v	v0,(x0),v0.t
   188823790:	0b2b74cf          	fnmadd.d	f9,f22,f18,f1
   188823794:	00000007          	vle8.v	v0,(x0),v0.t
   188823798:	0b2b78cf          	fnmadd.d	f17,f22,f18,f1
   18882379c:	00000007          	vle8.v	v0,(x0),v0.t
   1888237a0:	0b2b7ccf          	fnmadd.d	f25,f22,f18,f1
   1888237a4:	00000007          	vle8.v	v0,(x0),v0.t
   1888237a8:	0b2b80cf          	fnmadd.d	f1,f23,f18,f1,rne
   1888237ac:	00000007          	vle8.v	v0,(x0),v0.t
   1888237b0:	0b2b84cf          	fnmadd.d	f9,f23,f18,f1,rne
   1888237b4:	00000007          	vle8.v	v0,(x0),v0.t
   1888237b8:	0b2b88cf          	fnmadd.d	f17,f23,f18,f1,rne
   1888237bc:	00000007          	vle8.v	v0,(x0),v0.t
   1888237c0:	0b2b8ccf          	fnmadd.d	f25,f23,f18,f1,rne
   1888237c4:	00000007          	vle8.v	v0,(x0),v0.t
   1888237c8:	0b2b90cf          	fnmadd.d	f1,f23,f18,f1,rtz
   1888237cc:	00000007          	vle8.v	v0,(x0),v0.t
   1888237d0:	0b2b94cf          	fnmadd.d	f9,f23,f18,f1,rtz
   1888237d4:	00000007          	vle8.v	v0,(x0),v0.t
   1888237d8:	0b2b98cf          	fnmadd.d	f17,f23,f18,f1,rtz
   1888237dc:	00000007          	vle8.v	v0,(x0),v0.t
   1888237e0:	0b2b9ccf          	fnmadd.d	f25,f23,f18,f1,rtz
   1888237e4:	00000007          	vle8.v	v0,(x0),v0.t
   1888237e8:	0b2ba0cf          	fnmadd.d	f1,f23,f18,f1,rdn
   1888237ec:	00000007          	vle8.v	v0,(x0),v0.t
   1888237f0:	0b2ba4cf          	fnmadd.d	f9,f23,f18,f1,rdn
   1888237f4:	00000007          	vle8.v	v0,(x0),v0.t
   1888237f8:	0b2ba8cf          	fnmadd.d	f17,f23,f18,f1,rdn
   1888237fc:	00000007          	vle8.v	v0,(x0),v0.t
   188823800:	0b2baccf          	fnmadd.d	f25,f23,f18,f1,rdn
   188823804:	00000007          	vle8.v	v0,(x0),v0.t
   188823808:	0b2bb0cf          	fnmadd.d	f1,f23,f18,f1,rup
   18882380c:	00000007          	vle8.v	v0,(x0),v0.t
   188823810:	0b2bb4cf          	fnmadd.d	f9,f23,f18,f1,rup
   188823814:	00000007          	vle8.v	v0,(x0),v0.t
   188823818:	0b2bb8cf          	fnmadd.d	f17,f23,f18,f1,rup
   18882381c:	00000007          	vle8.v	v0,(x0),v0.t
   188823820:	0b2bbccf          	fnmadd.d	f25,f23,f18,f1,rup
   188823824:	00000007          	vle8.v	v0,(x0),v0.t
   188823828:	0b2bc0cf          	fnmadd.d	f1,f23,f18,f1,rmm
   18882382c:	00000007          	vle8.v	v0,(x0),v0.t
   188823830:	0b2bc4cf          	fnmadd.d	f9,f23,f18,f1,rmm
   188823834:	00000007          	vle8.v	v0,(x0),v0.t
   188823838:	0b2bc8cf          	fnmadd.d	f17,f23,f18,f1,rmm
   18882383c:	00000007          	vle8.v	v0,(x0),v0.t
   188823840:	0b2bcccf          	fnmadd.d	f25,f23,f18,f1,rmm
   188823844:	00000007          	vle8.v	v0,(x0),v0.t
   188823848:	0b2bd0cf          	fnmadd.d	f1,f23,f18,f1,unknown
   18882384c:	00000007          	vle8.v	v0,(x0),v0.t
   188823850:	0b2bd4cf          	fnmadd.d	f9,f23,f18,f1,unknown
   188823854:	00000007          	vle8.v	v0,(x0),v0.t
   188823858:	0b2bd8cf          	fnmadd.d	f17,f23,f18,f1,unknown
   18882385c:	00000007          	vle8.v	v0,(x0),v0.t
   188823860:	0b2bdccf          	fnmadd.d	f25,f23,f18,f1,unknown
   188823864:	00000007          	vle8.v	v0,(x0),v0.t
   188823868:	0b2be0cf          	fnmadd.d	f1,f23,f18,f1,unknown
   18882386c:	00000007          	vle8.v	v0,(x0),v0.t
   188823870:	0b2be4cf          	fnmadd.d	f9,f23,f18,f1,unknown
   188823874:	00000007          	vle8.v	v0,(x0),v0.t
   188823878:	0b2be8cf          	fnmadd.d	f17,f23,f18,f1,unknown
   18882387c:	00000007          	vle8.v	v0,(x0),v0.t
   188823880:	0b2beccf          	fnmadd.d	f25,f23,f18,f1,unknown
   188823884:	00000007          	vle8.v	v0,(x0),v0.t
   188823888:	0b2bf0cf          	fnmadd.d	f1,f23,f18,f1
   18882388c:	00000007          	vle8.v	v0,(x0),v0.t
   188823890:	0b2bf4cf          	fnmadd.d	f9,f23,f18,f1
   188823894:	00000007          	vle8.v	v0,(x0),v0.t
   188823898:	0b2bf8cf          	fnmadd.d	f17,f23,f18,f1
   18882389c:	00000007          	vle8.v	v0,(x0),v0.t
   1888238a0:	0b2bfccf          	fnmadd.d	f25,f23,f18,f1
   1888238a4:	00000007          	vle8.v	v0,(x0),v0.t
   1888238a8:	00df 0b2c 0007      	.insn	6, 0x00070b2c00df
   1888238ae:	0000                	.insn	2, 0x0000
   1888238b0:	04df 0b2c 0007      	.insn	6, 0x00070b2c04df
   1888238b6:	0000                	.insn	2, 0x0000
   1888238b8:	08df 0b2c 0007      	.insn	6, 0x00070b2c08df
   1888238be:	0000                	.insn	2, 0x0000
   1888238c0:	0cdf 0b2c 0007      	.insn	6, 0x00070b2c0cdf
   1888238c6:	0000                	.insn	2, 0x0000
   1888238c8:	10df 0b2c 0007      	.insn	6, 0x00070b2c10df
   1888238ce:	0000                	.insn	2, 0x0000
   1888238d0:	14df 0b2c 0007      	.insn	6, 0x00070b2c14df
   1888238d6:	0000                	.insn	2, 0x0000
   1888238d8:	18df 0b2c 0007      	.insn	6, 0x00070b2c18df
   1888238de:	0000                	.insn	2, 0x0000
   1888238e0:	1cdf 0b2c 0007      	.insn	6, 0x00070b2c1cdf
   1888238e6:	0000                	.insn	2, 0x0000
   1888238e8:	20df 0b2c 0007      	.insn	6, 0x00070b2c20df
   1888238ee:	0000                	.insn	2, 0x0000
   1888238f0:	24df 0b2c 0007      	.insn	6, 0x00070b2c24df
   1888238f6:	0000                	.insn	2, 0x0000
   1888238f8:	28df 0b2c 0007      	.insn	6, 0x00070b2c28df
   1888238fe:	0000                	.insn	2, 0x0000
   188823900:	2cdf 0b2c 0007      	.insn	6, 0x00070b2c2cdf
   188823906:	0000                	.insn	2, 0x0000
   188823908:	30df 0b2c 0007      	.insn	6, 0x00070b2c30df
   18882390e:	0000                	.insn	2, 0x0000
   188823910:	34df 0b2c 0007      	.insn	6, 0x00070b2c34df
   188823916:	0000                	.insn	2, 0x0000
   188823918:	38df 0b2c 0007      	.insn	6, 0x00070b2c38df
   18882391e:	0000                	.insn	2, 0x0000
   188823920:	3cdf 0b2c 0007      	.insn	6, 0x00070b2c3cdf
   188823926:	0000                	.insn	2, 0x0000
   188823928:	40df 0b2c 0007      	.insn	6, 0x00070b2c40df
   18882392e:	0000                	.insn	2, 0x0000
   188823930:	44df 0b2c 0007      	.insn	6, 0x00070b2c44df
   188823936:	0000                	.insn	2, 0x0000
   188823938:	48df 0b2c 0007      	.insn	6, 0x00070b2c48df
   18882393e:	0000                	.insn	2, 0x0000
   188823940:	4cdf 0b2c 0007      	.insn	6, 0x00070b2c4cdf
   188823946:	0000                	.insn	2, 0x0000
   188823948:	50df 0b2c 0007      	.insn	6, 0x00070b2c50df
   18882394e:	0000                	.insn	2, 0x0000
   188823950:	54df 0b2c 0007      	.insn	6, 0x00070b2c54df
   188823956:	0000                	.insn	2, 0x0000
   188823958:	58df 0b2c 0007      	.insn	6, 0x00070b2c58df
   18882395e:	0000                	.insn	2, 0x0000
   188823960:	5cdf 0b2c 0007      	.insn	6, 0x00070b2c5cdf
   188823966:	0000                	.insn	2, 0x0000
   188823968:	60df 0b2c 0007      	.insn	6, 0x00070b2c60df
   18882396e:	0000                	.insn	2, 0x0000
   188823970:	64df 0b2c 0007      	.insn	6, 0x00070b2c64df
   188823976:	0000                	.insn	2, 0x0000
   188823978:	68df 0b2c 0007      	.insn	6, 0x00070b2c68df
   18882397e:	0000                	.insn	2, 0x0000
   188823980:	6cdf 0b2c 0007      	.insn	6, 0x00070b2c6cdf
   188823986:	0000                	.insn	2, 0x0000
   188823988:	70df 0b2c 0007      	.insn	6, 0x00070b2c70df
   18882398e:	0000                	.insn	2, 0x0000
   188823990:	74df 0b2c 0007      	.insn	6, 0x00070b2c74df
   188823996:	0000                	.insn	2, 0x0000
   188823998:	78df 0b2c 0007      	.insn	6, 0x00070b2c78df
   18882399e:	0000                	.insn	2, 0x0000
   1888239a0:	7cdf 0b2c 0007      	.insn	6, 0x00070b2c7cdf
   1888239a6:	0000                	.insn	2, 0x0000
   1888239a8:	80df 0b2c 0007      	.insn	6, 0x00070b2c80df
   1888239ae:	0000                	.insn	2, 0x0000
   1888239b0:	84df 0b2c 0007      	.insn	6, 0x00070b2c84df
   1888239b6:	0000                	.insn	2, 0x0000
   1888239b8:	88df 0b2c 0007      	.insn	6, 0x00070b2c88df
   1888239be:	0000                	.insn	2, 0x0000
   1888239c0:	8cdf 0b2c 0007      	.insn	6, 0x00070b2c8cdf
   1888239c6:	0000                	.insn	2, 0x0000
   1888239c8:	90df 0b2c 0007      	.insn	6, 0x00070b2c90df
   1888239ce:	0000                	.insn	2, 0x0000
   1888239d0:	94df 0b2c 0007      	.insn	6, 0x00070b2c94df
   1888239d6:	0000                	.insn	2, 0x0000
   1888239d8:	98df 0b2c 0007      	.insn	6, 0x00070b2c98df
   1888239de:	0000                	.insn	2, 0x0000
   1888239e0:	9cdf 0b2c 0007      	.insn	6, 0x00070b2c9cdf
   1888239e6:	0000                	.insn	2, 0x0000
   1888239e8:	a0df 0b2c 0007      	.insn	6, 0x00070b2ca0df
   1888239ee:	0000                	.insn	2, 0x0000
   1888239f0:	a4df 0b2c 0007      	.insn	6, 0x00070b2ca4df
   1888239f6:	0000                	.insn	2, 0x0000
   1888239f8:	a8df 0b2c 0007      	.insn	6, 0x00070b2ca8df
   1888239fe:	0000                	.insn	2, 0x0000
   188823a00:	acdf 0b2c 0007      	.insn	6, 0x00070b2cacdf
   188823a06:	0000                	.insn	2, 0x0000
   188823a08:	b0df 0b2c 0007      	.insn	6, 0x00070b2cb0df
   188823a0e:	0000                	.insn	2, 0x0000
   188823a10:	b4df 0b2c 0007      	.insn	6, 0x00070b2cb4df
   188823a16:	0000                	.insn	2, 0x0000
   188823a18:	b8df 0b2c 0007      	.insn	6, 0x00070b2cb8df
   188823a1e:	0000                	.insn	2, 0x0000
   188823a20:	bcdf 0b2c 0007      	.insn	6, 0x00070b2cbcdf
   188823a26:	0000                	.insn	2, 0x0000
   188823a28:	c0df 0b2c 0007      	.insn	6, 0x00070b2cc0df
   188823a2e:	0000                	.insn	2, 0x0000
   188823a30:	c4df 0b2c 0007      	.insn	6, 0x00070b2cc4df
   188823a36:	0000                	.insn	2, 0x0000
   188823a38:	c8df 0b2c 0007      	.insn	6, 0x00070b2cc8df
   188823a3e:	0000                	.insn	2, 0x0000
   188823a40:	ccdf 0b2c 0007      	.insn	6, 0x00070b2cccdf
   188823a46:	0000                	.insn	2, 0x0000
   188823a48:	d0df 0b2c 0007      	.insn	6, 0x00070b2cd0df
   188823a4e:	0000                	.insn	2, 0x0000
   188823a50:	d4df 0b2c 0007      	.insn	6, 0x00070b2cd4df
   188823a56:	0000                	.insn	2, 0x0000
   188823a58:	d8df 0b2c 0007      	.insn	6, 0x00070b2cd8df
   188823a5e:	0000                	.insn	2, 0x0000
   188823a60:	dcdf 0b2c 0007      	.insn	6, 0x00070b2cdcdf
   188823a66:	0000                	.insn	2, 0x0000
   188823a68:	e0df 0b2c 0007      	.insn	6, 0x00070b2ce0df
   188823a6e:	0000                	.insn	2, 0x0000
   188823a70:	e4df 0b2c 0007      	.insn	6, 0x00070b2ce4df
   188823a76:	0000                	.insn	2, 0x0000
   188823a78:	e8df 0b2c 0007      	.insn	6, 0x00070b2ce8df
   188823a7e:	0000                	.insn	2, 0x0000
   188823a80:	ecdf 0b2c 0007      	.insn	6, 0x00070b2cecdf
   188823a86:	0000                	.insn	2, 0x0000
   188823a88:	f0df 0b2c 0007      	.insn	6, 0x00070b2cf0df
   188823a8e:	0000                	.insn	2, 0x0000
   188823a90:	f4df 0b2c 0007      	.insn	6, 0x00070b2cf4df
   188823a96:	0000                	.insn	2, 0x0000
   188823a98:	f8df 0b2c 0007      	.insn	6, 0x00070b2cf8df
   188823a9e:	0000                	.insn	2, 0x0000
   188823aa0:	fcdf 0b2c 0007      	.insn	6, 0x00070b2cfcdf
   188823aa6:	0000                	.insn	2, 0x0000
   188823aa8:	00df 0b2d 0007      	.insn	6, 0x00070b2d00df
   188823aae:	0000                	.insn	2, 0x0000
   188823ab0:	04df 0b2d 0007      	.insn	6, 0x00070b2d04df
   188823ab6:	0000                	.insn	2, 0x0000
   188823ab8:	08df 0b2d 0007      	.insn	6, 0x00070b2d08df
   188823abe:	0000                	.insn	2, 0x0000
   188823ac0:	0cdf 0b2d 0007      	.insn	6, 0x00070b2d0cdf
   188823ac6:	0000                	.insn	2, 0x0000
   188823ac8:	10df 0b2d 0007      	.insn	6, 0x00070b2d10df
   188823ace:	0000                	.insn	2, 0x0000
   188823ad0:	14df 0b2d 0007      	.insn	6, 0x00070b2d14df
   188823ad6:	0000                	.insn	2, 0x0000
   188823ad8:	18df 0b2d 0007      	.insn	6, 0x00070b2d18df
   188823ade:	0000                	.insn	2, 0x0000
   188823ae0:	1cdf 0b2d 0007      	.insn	6, 0x00070b2d1cdf
   188823ae6:	0000                	.insn	2, 0x0000
   188823ae8:	20df 0b2d 0007      	.insn	6, 0x00070b2d20df
   188823aee:	0000                	.insn	2, 0x0000
   188823af0:	24df 0b2d 0007      	.insn	6, 0x00070b2d24df
   188823af6:	0000                	.insn	2, 0x0000
   188823af8:	28df 0b2d 0007      	.insn	6, 0x00070b2d28df
   188823afe:	0000                	.insn	2, 0x0000
   188823b00:	2cdf 0b2d 0007      	.insn	6, 0x00070b2d2cdf
   188823b06:	0000                	.insn	2, 0x0000
   188823b08:	30df 0b2d 0007      	.insn	6, 0x00070b2d30df
   188823b0e:	0000                	.insn	2, 0x0000
   188823b10:	34df 0b2d 0007      	.insn	6, 0x00070b2d34df
   188823b16:	0000                	.insn	2, 0x0000
   188823b18:	38df 0b2d 0007      	.insn	6, 0x00070b2d38df
   188823b1e:	0000                	.insn	2, 0x0000
   188823b20:	3cdf 0b2d 0007      	.insn	6, 0x00070b2d3cdf
   188823b26:	0000                	.insn	2, 0x0000
   188823b28:	40df 0b2d 0007      	.insn	6, 0x00070b2d40df
   188823b2e:	0000                	.insn	2, 0x0000
   188823b30:	44df 0b2d 0007      	.insn	6, 0x00070b2d44df
   188823b36:	0000                	.insn	2, 0x0000
   188823b38:	48df 0b2d 0007      	.insn	6, 0x00070b2d48df
   188823b3e:	0000                	.insn	2, 0x0000
   188823b40:	4cdf 0b2d 0007      	.insn	6, 0x00070b2d4cdf
   188823b46:	0000                	.insn	2, 0x0000
   188823b48:	50df 0b2d 0007      	.insn	6, 0x00070b2d50df
   188823b4e:	0000                	.insn	2, 0x0000
   188823b50:	54df 0b2d 0007      	.insn	6, 0x00070b2d54df
   188823b56:	0000                	.insn	2, 0x0000
   188823b58:	58df 0b2d 0007      	.insn	6, 0x00070b2d58df
   188823b5e:	0000                	.insn	2, 0x0000
   188823b60:	5cdf 0b2d 0007      	.insn	6, 0x00070b2d5cdf
   188823b66:	0000                	.insn	2, 0x0000
   188823b68:	60df 0b2d 0007      	.insn	6, 0x00070b2d60df
   188823b6e:	0000                	.insn	2, 0x0000
   188823b70:	64df 0b2d 0007      	.insn	6, 0x00070b2d64df
   188823b76:	0000                	.insn	2, 0x0000
   188823b78:	68df 0b2d 0007      	.insn	6, 0x00070b2d68df
   188823b7e:	0000                	.insn	2, 0x0000
   188823b80:	6cdf 0b2d 0007      	.insn	6, 0x00070b2d6cdf
   188823b86:	0000                	.insn	2, 0x0000
   188823b88:	70df 0b2d 0007      	.insn	6, 0x00070b2d70df
   188823b8e:	0000                	.insn	2, 0x0000
   188823b90:	74df 0b2d 0007      	.insn	6, 0x00070b2d74df
   188823b96:	0000                	.insn	2, 0x0000
   188823b98:	78df 0b2d 0007      	.insn	6, 0x00070b2d78df
   188823b9e:	0000                	.insn	2, 0x0000
   188823ba0:	7cdf 0b2d 0007      	.insn	6, 0x00070b2d7cdf
   188823ba6:	0000                	.insn	2, 0x0000
   188823ba8:	80df 0b2d 0007      	.insn	6, 0x00070b2d80df
   188823bae:	0000                	.insn	2, 0x0000
   188823bb0:	84df 0b2d 0007      	.insn	6, 0x00070b2d84df
   188823bb6:	0000                	.insn	2, 0x0000
   188823bb8:	88df 0b2d 0007      	.insn	6, 0x00070b2d88df
   188823bbe:	0000                	.insn	2, 0x0000
   188823bc0:	8cdf 0b2d 0007      	.insn	6, 0x00070b2d8cdf
   188823bc6:	0000                	.insn	2, 0x0000
   188823bc8:	90df 0b2d 0007      	.insn	6, 0x00070b2d90df
   188823bce:	0000                	.insn	2, 0x0000
   188823bd0:	94df 0b2d 0007      	.insn	6, 0x00070b2d94df
   188823bd6:	0000                	.insn	2, 0x0000
   188823bd8:	98df 0b2d 0007      	.insn	6, 0x00070b2d98df
   188823bde:	0000                	.insn	2, 0x0000
   188823be0:	9cdf 0b2d 0007      	.insn	6, 0x00070b2d9cdf
   188823be6:	0000                	.insn	2, 0x0000
   188823be8:	a0df 0b2d 0007      	.insn	6, 0x00070b2da0df
   188823bee:	0000                	.insn	2, 0x0000
   188823bf0:	a4df 0b2d 0007      	.insn	6, 0x00070b2da4df
   188823bf6:	0000                	.insn	2, 0x0000
   188823bf8:	a8df 0b2d 0007      	.insn	6, 0x00070b2da8df
   188823bfe:	0000                	.insn	2, 0x0000
   188823c00:	acdf 0b2d 0007      	.insn	6, 0x00070b2dacdf
   188823c06:	0000                	.insn	2, 0x0000
   188823c08:	b0df 0b2d 0007      	.insn	6, 0x00070b2db0df
   188823c0e:	0000                	.insn	2, 0x0000
   188823c10:	b4df 0b2d 0007      	.insn	6, 0x00070b2db4df
   188823c16:	0000                	.insn	2, 0x0000
   188823c18:	b8df 0b2d 0007      	.insn	6, 0x00070b2db8df
   188823c1e:	0000                	.insn	2, 0x0000
   188823c20:	bcdf 0b2d 0007      	.insn	6, 0x00070b2dbcdf
   188823c26:	0000                	.insn	2, 0x0000
   188823c28:	c0df 0b2d 0007      	.insn	6, 0x00070b2dc0df
   188823c2e:	0000                	.insn	2, 0x0000
   188823c30:	c4df 0b2d 0007      	.insn	6, 0x00070b2dc4df
   188823c36:	0000                	.insn	2, 0x0000
   188823c38:	c8df 0b2d 0007      	.insn	6, 0x00070b2dc8df
   188823c3e:	0000                	.insn	2, 0x0000
   188823c40:	ccdf 0b2d 0007      	.insn	6, 0x00070b2dccdf
   188823c46:	0000                	.insn	2, 0x0000
   188823c48:	d0df 0b2d 0007      	.insn	6, 0x00070b2dd0df
   188823c4e:	0000                	.insn	2, 0x0000
   188823c50:	d4df 0b2d 0007      	.insn	6, 0x00070b2dd4df
   188823c56:	0000                	.insn	2, 0x0000
   188823c58:	d8df 0b2d 0007      	.insn	6, 0x00070b2dd8df
   188823c5e:	0000                	.insn	2, 0x0000
   188823c60:	dcdf 0b2d 0007      	.insn	6, 0x00070b2ddcdf
   188823c66:	0000                	.insn	2, 0x0000
   188823c68:	e0df 0b2d 0007      	.insn	6, 0x00070b2de0df
   188823c6e:	0000                	.insn	2, 0x0000
   188823c70:	e4df 0b2d 0007      	.insn	6, 0x00070b2de4df
   188823c76:	0000                	.insn	2, 0x0000
   188823c78:	e8df 0b2d 0007      	.insn	6, 0x00070b2de8df
   188823c7e:	0000                	.insn	2, 0x0000
   188823c80:	ecdf 0b2d 0007      	.insn	6, 0x00070b2decdf
   188823c86:	0000                	.insn	2, 0x0000
   188823c88:	f0df 0b2d 0007      	.insn	6, 0x00070b2df0df
   188823c8e:	0000                	.insn	2, 0x0000
   188823c90:	f4df 0b2d 0007      	.insn	6, 0x00070b2df4df
   188823c96:	0000                	.insn	2, 0x0000
   188823c98:	f8df 0b2d 0007      	.insn	6, 0x00070b2df8df
   188823c9e:	0000                	.insn	2, 0x0000
   188823ca0:	fcdf 0b2d 0007      	.insn	6, 0x00070b2dfcdf
	...

Disassembly of section .__pagetable_map_os_0x00002a8fb36c7000:

00002a8fb36c7000 <__pagetable_map_os_0x00002a8fb36c7000>:
	...
    2a8fb36c70b0:	0b3004cf          	fnmadd.d	f9,f0,f19,f1,rne
    2a8fb36c70b4:	00000007          	vle8.v	v0,(x0),v0.t

Disassembly of section .__pagetable_map_os_0x0000001ffb0c1000:

0000001ffb0c1000 <__pagetable_map_os_0x0000001ffb0c1000>:
  1ffb0c1000:	c001                	.insn	2, 0xc001
  1ffb0c1002:	0035                	.insn	2, 0x0035
  1ffb0c1004:	1201                	.insn	2, 0x1201
	...
  1ffb0c103e:	0000                	.insn	2, 0x0000
  1ffb0c1040:	8401                	.insn	2, 0x8401
  1ffb0c1042:	4cd8                	.insn	2, 0x4cd8
  1ffb0c1044:	000000ef          	jal	1ffb0c1044 <__pagetable_map_os_0x0000001ffb0c1000+0x44>
	...
  1ffb0c10e0:	e401                	.insn	2, 0xe401
  1ffb0c10e2:	8a62                	.insn	2, 0x8a62
  1ffb0c10e4:	db62                	.insn	2, 0xdb62
	...
  1ffb0c1196:	0000                	.insn	2, 0x0000
  1ffb0c1198:	bc01                	.insn	2, 0xbc01
  1ffb0c119a:	e2f9                	.insn	2, 0xe2f9
  1ffb0c119c:	85f5                	.insn	2, 0x85f5
	...
  1ffb0c141e:	0000                	.insn	2, 0x0000
  1ffb0c1420:	7401                	.insn	2, 0x7401
  1ffb0c1422:	000f7c7b          	.insn	4, 0x000f7c7b
	...
  1ffb0c181e:	0000                	.insn	2, 0x0000
  1ffb0c1820:	9c01                	.insn	2, 0x9c01
  1ffb0c1822:	cb61                	.insn	2, 0xcb61
  1ffb0c1824:	0714                	.insn	2, 0x0714
	...

Disassembly of section .__pagetable_map_os_0x0000480400d70000:

0000480400d70000 <__pagetable_map_os_0x0000480400d70000>:
	...
    480400d70400:	c8df 34f7 3e24      	.insn	6, 0x3e2434f7c8df
    480400d70406:	0001                	.insn	2, 0x0001
    480400d70408:	ccdf 34f7 3e24      	.insn	6, 0x3e2434f7ccdf
    480400d7040e:	0001                	.insn	2, 0x0001
	...
    480400d70cf8:	4cdf fc44 0010      	.insn	6, 0x0010fc444cdf
	...
    480400d70d06:	0000                	.insn	2, 0x0000
    480400d70d08:	7aef2cd7          	vmnor.mm	v25,v14,v30
    480400d70d0c:	3052                	.insn	2, 0x3052
	...

Disassembly of section .__pagetable_map_os_0x00036d8a298b9000:

00036d8a298b9000 <__pagetable_map_os_0x00036d8a298b9000>:
	...
   36d8a298b9170:	f0df deb8 0001      	.insn	6, 0x0001deb8f0df
   36d8a298b9176:	0000                	.insn	2, 0x0000
   36d8a298b9178:	f4df deb8 0001      	.insn	6, 0x0001deb8f4df
	...

Disassembly of section .__pagetable_map_os_0x0000003df1edd000:

0000003df1edd000 <__pagetable_map_os_0x0000003df1edd000>:
  3df1edd000:	00df 0420 0000      	.insn	6, 0x042000df
  3df1edd006:	0000                	.insn	2, 0x0000
  3df1edd008:	04df 0420 0000      	.insn	6, 0x042004df
  3df1edd00e:	0000                	.insn	2, 0x0000
  3df1edd010:	08df 0420 0000      	.insn	6, 0x042008df
  3df1edd016:	0000                	.insn	2, 0x0000
  3df1edd018:	0cdf 0420 0000      	.insn	6, 0x04200cdf
  3df1edd01e:	0000                	.insn	2, 0x0000
  3df1edd020:	10df 0420 0000      	.insn	6, 0x042010df
  3df1edd026:	0000                	.insn	2, 0x0000
  3df1edd028:	14df 0420 0000      	.insn	6, 0x042014df
  3df1edd02e:	0000                	.insn	2, 0x0000
  3df1edd030:	18df 0420 0000      	.insn	6, 0x042018df
  3df1edd036:	0000                	.insn	2, 0x0000
  3df1edd038:	1cdf 0420 0000      	.insn	6, 0x04201cdf
  3df1edd03e:	0000                	.insn	2, 0x0000
  3df1edd040:	20df 0420 0000      	.insn	6, 0x042020df
  3df1edd046:	0000                	.insn	2, 0x0000
  3df1edd048:	24df 0420 0000      	.insn	6, 0x042024df
  3df1edd04e:	0000                	.insn	2, 0x0000
  3df1edd050:	28df 0420 0000      	.insn	6, 0x042028df
  3df1edd056:	0000                	.insn	2, 0x0000
  3df1edd058:	2cdf 0420 0000      	.insn	6, 0x04202cdf
  3df1edd05e:	0000                	.insn	2, 0x0000
  3df1edd060:	30df 0420 0000      	.insn	6, 0x042030df
  3df1edd066:	0000                	.insn	2, 0x0000
  3df1edd068:	34df 0420 0000      	.insn	6, 0x042034df
  3df1edd06e:	0000                	.insn	2, 0x0000
  3df1edd070:	38df 0420 0000      	.insn	6, 0x042038df
  3df1edd076:	0000                	.insn	2, 0x0000
  3df1edd078:	3cdf 0420 0000      	.insn	6, 0x04203cdf
  3df1edd07e:	0000                	.insn	2, 0x0000
  3df1edd080:	40df 0420 0000      	.insn	6, 0x042040df
  3df1edd086:	0000                	.insn	2, 0x0000
  3df1edd088:	44df 0420 0000      	.insn	6, 0x042044df
  3df1edd08e:	0000                	.insn	2, 0x0000
  3df1edd090:	48df 0420 0000      	.insn	6, 0x042048df
  3df1edd096:	0000                	.insn	2, 0x0000
  3df1edd098:	4cdf 0420 0000      	.insn	6, 0x04204cdf
  3df1edd09e:	0000                	.insn	2, 0x0000
  3df1edd0a0:	50df 0420 0000      	.insn	6, 0x042050df
  3df1edd0a6:	0000                	.insn	2, 0x0000
  3df1edd0a8:	54df 0420 0000      	.insn	6, 0x042054df
  3df1edd0ae:	0000                	.insn	2, 0x0000
  3df1edd0b0:	58df 0420 0000      	.insn	6, 0x042058df
  3df1edd0b6:	0000                	.insn	2, 0x0000
  3df1edd0b8:	5cdf 0420 0000      	.insn	6, 0x04205cdf
  3df1edd0be:	0000                	.insn	2, 0x0000
  3df1edd0c0:	60df 0420 0000      	.insn	6, 0x042060df
  3df1edd0c6:	0000                	.insn	2, 0x0000
  3df1edd0c8:	64df 0420 0000      	.insn	6, 0x042064df
  3df1edd0ce:	0000                	.insn	2, 0x0000
  3df1edd0d0:	68df 0420 0000      	.insn	6, 0x042068df
  3df1edd0d6:	0000                	.insn	2, 0x0000
  3df1edd0d8:	6cdf 0420 0000      	.insn	6, 0x04206cdf
  3df1edd0de:	0000                	.insn	2, 0x0000
  3df1edd0e0:	70df 0420 0000      	.insn	6, 0x042070df
  3df1edd0e6:	0000                	.insn	2, 0x0000
  3df1edd0e8:	74df 0420 0000      	.insn	6, 0x042074df
  3df1edd0ee:	0000                	.insn	2, 0x0000
  3df1edd0f0:	78df 0420 0000      	.insn	6, 0x042078df
  3df1edd0f6:	0000                	.insn	2, 0x0000
  3df1edd0f8:	7cdf 0420 0000      	.insn	6, 0x04207cdf
  3df1edd0fe:	0000                	.insn	2, 0x0000
  3df1edd100:	80df 0420 0000      	.insn	6, 0x042080df
  3df1edd106:	0000                	.insn	2, 0x0000
  3df1edd108:	84df 0420 0000      	.insn	6, 0x042084df
  3df1edd10e:	0000                	.insn	2, 0x0000
  3df1edd110:	88df 0420 0000      	.insn	6, 0x042088df
  3df1edd116:	0000                	.insn	2, 0x0000
  3df1edd118:	8cdf 0420 0000      	.insn	6, 0x04208cdf
  3df1edd11e:	0000                	.insn	2, 0x0000
  3df1edd120:	90df 0420 0000      	.insn	6, 0x042090df
  3df1edd126:	0000                	.insn	2, 0x0000
  3df1edd128:	94df 0420 0000      	.insn	6, 0x042094df
  3df1edd12e:	0000                	.insn	2, 0x0000
  3df1edd130:	98df 0420 0000      	.insn	6, 0x042098df
  3df1edd136:	0000                	.insn	2, 0x0000
  3df1edd138:	9cdf 0420 0000      	.insn	6, 0x04209cdf
  3df1edd13e:	0000                	.insn	2, 0x0000
  3df1edd140:	a0df 0420 0000      	.insn	6, 0x0420a0df
  3df1edd146:	0000                	.insn	2, 0x0000
  3df1edd148:	a4df 0420 0000      	.insn	6, 0x0420a4df
  3df1edd14e:	0000                	.insn	2, 0x0000
  3df1edd150:	a8df 0420 0000      	.insn	6, 0x0420a8df
  3df1edd156:	0000                	.insn	2, 0x0000
  3df1edd158:	acdf 0420 0000      	.insn	6, 0x0420acdf
  3df1edd15e:	0000                	.insn	2, 0x0000
  3df1edd160:	b0df 0420 0000      	.insn	6, 0x0420b0df
  3df1edd166:	0000                	.insn	2, 0x0000
  3df1edd168:	b4df 0420 0000      	.insn	6, 0x0420b4df
  3df1edd16e:	0000                	.insn	2, 0x0000
  3df1edd170:	b8df 0420 0000      	.insn	6, 0x0420b8df
  3df1edd176:	0000                	.insn	2, 0x0000
  3df1edd178:	bcdf 0420 0000      	.insn	6, 0x0420bcdf
  3df1edd17e:	0000                	.insn	2, 0x0000
  3df1edd180:	c0df 0420 0000      	.insn	6, 0x0420c0df
  3df1edd186:	0000                	.insn	2, 0x0000
  3df1edd188:	c4df 0420 0000      	.insn	6, 0x0420c4df
  3df1edd18e:	0000                	.insn	2, 0x0000
  3df1edd190:	c8df 0420 0000      	.insn	6, 0x0420c8df
  3df1edd196:	0000                	.insn	2, 0x0000
  3df1edd198:	ccdf 0420 0000      	.insn	6, 0x0420ccdf
  3df1edd19e:	0000                	.insn	2, 0x0000
  3df1edd1a0:	d0df 0420 0000      	.insn	6, 0x0420d0df
  3df1edd1a6:	0000                	.insn	2, 0x0000
  3df1edd1a8:	d4df 0420 0000      	.insn	6, 0x0420d4df
  3df1edd1ae:	0000                	.insn	2, 0x0000
  3df1edd1b0:	d8df 0420 0000      	.insn	6, 0x0420d8df
  3df1edd1b6:	0000                	.insn	2, 0x0000
  3df1edd1b8:	dcdf 0420 0000      	.insn	6, 0x0420dcdf
  3df1edd1be:	0000                	.insn	2, 0x0000
  3df1edd1c0:	e0df 0420 0000      	.insn	6, 0x0420e0df
  3df1edd1c6:	0000                	.insn	2, 0x0000
  3df1edd1c8:	e4df 0420 0000      	.insn	6, 0x0420e4df
  3df1edd1ce:	0000                	.insn	2, 0x0000
  3df1edd1d0:	e8df 0420 0000      	.insn	6, 0x0420e8df
  3df1edd1d6:	0000                	.insn	2, 0x0000
  3df1edd1d8:	ecdf 0420 0000      	.insn	6, 0x0420ecdf
  3df1edd1de:	0000                	.insn	2, 0x0000
  3df1edd1e0:	f0df 0420 0000      	.insn	6, 0x0420f0df
  3df1edd1e6:	0000                	.insn	2, 0x0000
  3df1edd1e8:	f4df 0420 0000      	.insn	6, 0x0420f4df
  3df1edd1ee:	0000                	.insn	2, 0x0000
  3df1edd1f0:	f8df 0420 0000      	.insn	6, 0x0420f8df
  3df1edd1f6:	0000                	.insn	2, 0x0000
  3df1edd1f8:	fcdf 0420 0000      	.insn	6, 0x0420fcdf
  3df1edd1fe:	0000                	.insn	2, 0x0000
  3df1edd200:	00df 0421 0000      	.insn	6, 0x042100df
  3df1edd206:	0000                	.insn	2, 0x0000
  3df1edd208:	04df 0421 0000      	.insn	6, 0x042104df
  3df1edd20e:	0000                	.insn	2, 0x0000
  3df1edd210:	08df 0421 0000      	.insn	6, 0x042108df
  3df1edd216:	0000                	.insn	2, 0x0000
  3df1edd218:	0cdf 0421 0000      	.insn	6, 0x04210cdf
  3df1edd21e:	0000                	.insn	2, 0x0000
  3df1edd220:	10df 0421 0000      	.insn	6, 0x042110df
  3df1edd226:	0000                	.insn	2, 0x0000
  3df1edd228:	14df 0421 0000      	.insn	6, 0x042114df
  3df1edd22e:	0000                	.insn	2, 0x0000
  3df1edd230:	18df 0421 0000      	.insn	6, 0x042118df
  3df1edd236:	0000                	.insn	2, 0x0000
  3df1edd238:	1cdf 0421 0000      	.insn	6, 0x04211cdf
  3df1edd23e:	0000                	.insn	2, 0x0000
  3df1edd240:	20df 0421 0000      	.insn	6, 0x042120df
  3df1edd246:	0000                	.insn	2, 0x0000
  3df1edd248:	24df 0421 0000      	.insn	6, 0x042124df
  3df1edd24e:	0000                	.insn	2, 0x0000
  3df1edd250:	28df 0421 0000      	.insn	6, 0x042128df
  3df1edd256:	0000                	.insn	2, 0x0000
  3df1edd258:	2cdf 0421 0000      	.insn	6, 0x04212cdf
  3df1edd25e:	0000                	.insn	2, 0x0000
  3df1edd260:	30df 0421 0000      	.insn	6, 0x042130df
  3df1edd266:	0000                	.insn	2, 0x0000
  3df1edd268:	34df 0421 0000      	.insn	6, 0x042134df
  3df1edd26e:	0000                	.insn	2, 0x0000
  3df1edd270:	38df 0421 0000      	.insn	6, 0x042138df
  3df1edd276:	0000                	.insn	2, 0x0000
  3df1edd278:	3cdf 0421 0000      	.insn	6, 0x04213cdf
  3df1edd27e:	0000                	.insn	2, 0x0000
  3df1edd280:	40df 0421 0000      	.insn	6, 0x042140df
  3df1edd286:	0000                	.insn	2, 0x0000
  3df1edd288:	44df 0421 0000      	.insn	6, 0x042144df
  3df1edd28e:	0000                	.insn	2, 0x0000
  3df1edd290:	48df 0421 0000      	.insn	6, 0x042148df
  3df1edd296:	0000                	.insn	2, 0x0000
  3df1edd298:	4cdf 0421 0000      	.insn	6, 0x04214cdf
  3df1edd29e:	0000                	.insn	2, 0x0000
  3df1edd2a0:	50df 0421 0000      	.insn	6, 0x042150df
  3df1edd2a6:	0000                	.insn	2, 0x0000
  3df1edd2a8:	54df 0421 0000      	.insn	6, 0x042154df
  3df1edd2ae:	0000                	.insn	2, 0x0000
  3df1edd2b0:	58df 0421 0000      	.insn	6, 0x042158df
  3df1edd2b6:	0000                	.insn	2, 0x0000
  3df1edd2b8:	5cdf 0421 0000      	.insn	6, 0x04215cdf
  3df1edd2be:	0000                	.insn	2, 0x0000
  3df1edd2c0:	60df 0421 0000      	.insn	6, 0x042160df
  3df1edd2c6:	0000                	.insn	2, 0x0000
  3df1edd2c8:	64df 0421 0000      	.insn	6, 0x042164df
  3df1edd2ce:	0000                	.insn	2, 0x0000
  3df1edd2d0:	68df 0421 0000      	.insn	6, 0x042168df
  3df1edd2d6:	0000                	.insn	2, 0x0000
  3df1edd2d8:	6cdf 0421 0000      	.insn	6, 0x04216cdf
  3df1edd2de:	0000                	.insn	2, 0x0000
  3df1edd2e0:	70df 0421 0000      	.insn	6, 0x042170df
  3df1edd2e6:	0000                	.insn	2, 0x0000
  3df1edd2e8:	74df 0421 0000      	.insn	6, 0x042174df
  3df1edd2ee:	0000                	.insn	2, 0x0000
  3df1edd2f0:	78df 0421 0000      	.insn	6, 0x042178df
  3df1edd2f6:	0000                	.insn	2, 0x0000
  3df1edd2f8:	7cdf 0421 0000      	.insn	6, 0x04217cdf
  3df1edd2fe:	0000                	.insn	2, 0x0000
  3df1edd300:	80df 0421 0000      	.insn	6, 0x042180df
  3df1edd306:	0000                	.insn	2, 0x0000
  3df1edd308:	84df 0421 0000      	.insn	6, 0x042184df
  3df1edd30e:	0000                	.insn	2, 0x0000
  3df1edd310:	88df 0421 0000      	.insn	6, 0x042188df
  3df1edd316:	0000                	.insn	2, 0x0000
  3df1edd318:	8cdf 0421 0000      	.insn	6, 0x04218cdf
  3df1edd31e:	0000                	.insn	2, 0x0000
  3df1edd320:	90df 0421 0000      	.insn	6, 0x042190df
  3df1edd326:	0000                	.insn	2, 0x0000
  3df1edd328:	94df 0421 0000      	.insn	6, 0x042194df
  3df1edd32e:	0000                	.insn	2, 0x0000
  3df1edd330:	98df 0421 0000      	.insn	6, 0x042198df
  3df1edd336:	0000                	.insn	2, 0x0000
  3df1edd338:	9cdf 0421 0000      	.insn	6, 0x04219cdf
  3df1edd33e:	0000                	.insn	2, 0x0000
  3df1edd340:	a0df 0421 0000      	.insn	6, 0x0421a0df
  3df1edd346:	0000                	.insn	2, 0x0000
  3df1edd348:	a4df 0421 0000      	.insn	6, 0x0421a4df
  3df1edd34e:	0000                	.insn	2, 0x0000
  3df1edd350:	a8df 0421 0000      	.insn	6, 0x0421a8df
  3df1edd356:	0000                	.insn	2, 0x0000
  3df1edd358:	acdf 0421 0000      	.insn	6, 0x0421acdf
  3df1edd35e:	0000                	.insn	2, 0x0000
  3df1edd360:	b0df 0421 0000      	.insn	6, 0x0421b0df
  3df1edd366:	0000                	.insn	2, 0x0000
  3df1edd368:	b4df 0421 0000      	.insn	6, 0x0421b4df
  3df1edd36e:	0000                	.insn	2, 0x0000
  3df1edd370:	b8df 0421 0000      	.insn	6, 0x0421b8df
  3df1edd376:	0000                	.insn	2, 0x0000
  3df1edd378:	bcdf 0421 0000      	.insn	6, 0x0421bcdf
  3df1edd37e:	0000                	.insn	2, 0x0000
  3df1edd380:	c0df 0421 0000      	.insn	6, 0x0421c0df
  3df1edd386:	0000                	.insn	2, 0x0000
  3df1edd388:	c4df 0421 0000      	.insn	6, 0x0421c4df
  3df1edd38e:	0000                	.insn	2, 0x0000
  3df1edd390:	c8df 0421 0000      	.insn	6, 0x0421c8df
  3df1edd396:	0000                	.insn	2, 0x0000
  3df1edd398:	ccdf 0421 0000      	.insn	6, 0x0421ccdf
  3df1edd39e:	0000                	.insn	2, 0x0000
  3df1edd3a0:	d0df 0421 0000      	.insn	6, 0x0421d0df
  3df1edd3a6:	0000                	.insn	2, 0x0000
  3df1edd3a8:	d4df 0421 0000      	.insn	6, 0x0421d4df
  3df1edd3ae:	0000                	.insn	2, 0x0000
  3df1edd3b0:	d8df 0421 0000      	.insn	6, 0x0421d8df
  3df1edd3b6:	0000                	.insn	2, 0x0000
  3df1edd3b8:	dcdf 0421 0000      	.insn	6, 0x0421dcdf
  3df1edd3be:	0000                	.insn	2, 0x0000
  3df1edd3c0:	e0df 0421 0000      	.insn	6, 0x0421e0df
  3df1edd3c6:	0000                	.insn	2, 0x0000
  3df1edd3c8:	e4df 0421 0000      	.insn	6, 0x0421e4df
  3df1edd3ce:	0000                	.insn	2, 0x0000
  3df1edd3d0:	e8df 0421 0000      	.insn	6, 0x0421e8df
  3df1edd3d6:	0000                	.insn	2, 0x0000
  3df1edd3d8:	ecdf 0421 0000      	.insn	6, 0x0421ecdf
  3df1edd3de:	0000                	.insn	2, 0x0000
  3df1edd3e0:	f0df 0421 0000      	.insn	6, 0x0421f0df
  3df1edd3e6:	0000                	.insn	2, 0x0000
  3df1edd3e8:	f4df 0421 0000      	.insn	6, 0x0421f4df
  3df1edd3ee:	0000                	.insn	2, 0x0000
  3df1edd3f0:	f8df 0421 0000      	.insn	6, 0x0421f8df
  3df1edd3f6:	0000                	.insn	2, 0x0000
  3df1edd3f8:	fcdf 0421 0000      	.insn	6, 0x0421fcdf
  3df1edd3fe:	0000                	.insn	2, 0x0000
  3df1edd400:	00df 0422 0000      	.insn	6, 0x042200df
  3df1edd406:	0000                	.insn	2, 0x0000
  3df1edd408:	04df 0422 0000      	.insn	6, 0x042204df
  3df1edd40e:	0000                	.insn	2, 0x0000
  3df1edd410:	08df 0422 0000      	.insn	6, 0x042208df
  3df1edd416:	0000                	.insn	2, 0x0000
  3df1edd418:	0cdf 0422 0000      	.insn	6, 0x04220cdf
  3df1edd41e:	0000                	.insn	2, 0x0000
  3df1edd420:	10df 0422 0000      	.insn	6, 0x042210df
  3df1edd426:	0000                	.insn	2, 0x0000
  3df1edd428:	14df 0422 0000      	.insn	6, 0x042214df
  3df1edd42e:	0000                	.insn	2, 0x0000
  3df1edd430:	18df 0422 0000      	.insn	6, 0x042218df
  3df1edd436:	0000                	.insn	2, 0x0000
  3df1edd438:	1cdf 0422 0000      	.insn	6, 0x04221cdf
  3df1edd43e:	0000                	.insn	2, 0x0000
  3df1edd440:	20df 0422 0000      	.insn	6, 0x042220df
  3df1edd446:	0000                	.insn	2, 0x0000
  3df1edd448:	24df 0422 0000      	.insn	6, 0x042224df
  3df1edd44e:	0000                	.insn	2, 0x0000
  3df1edd450:	28df 0422 0000      	.insn	6, 0x042228df
  3df1edd456:	0000                	.insn	2, 0x0000
  3df1edd458:	2cdf 0422 0000      	.insn	6, 0x04222cdf
  3df1edd45e:	0000                	.insn	2, 0x0000
  3df1edd460:	30df 0422 0000      	.insn	6, 0x042230df
  3df1edd466:	0000                	.insn	2, 0x0000
  3df1edd468:	34df 0422 0000      	.insn	6, 0x042234df
  3df1edd46e:	0000                	.insn	2, 0x0000
  3df1edd470:	38df 0422 0000      	.insn	6, 0x042238df
  3df1edd476:	0000                	.insn	2, 0x0000
  3df1edd478:	3cdf 0422 0000      	.insn	6, 0x04223cdf
  3df1edd47e:	0000                	.insn	2, 0x0000
  3df1edd480:	40df 0422 0000      	.insn	6, 0x042240df
  3df1edd486:	0000                	.insn	2, 0x0000
  3df1edd488:	44df 0422 0000      	.insn	6, 0x042244df
  3df1edd48e:	0000                	.insn	2, 0x0000
  3df1edd490:	48df 0422 0000      	.insn	6, 0x042248df
  3df1edd496:	0000                	.insn	2, 0x0000
  3df1edd498:	4cdf 0422 0000      	.insn	6, 0x04224cdf
  3df1edd49e:	0000                	.insn	2, 0x0000
  3df1edd4a0:	50df 0422 0000      	.insn	6, 0x042250df
  3df1edd4a6:	0000                	.insn	2, 0x0000
  3df1edd4a8:	54df 0422 0000      	.insn	6, 0x042254df
  3df1edd4ae:	0000                	.insn	2, 0x0000
  3df1edd4b0:	58df 0422 0000      	.insn	6, 0x042258df
  3df1edd4b6:	0000                	.insn	2, 0x0000
  3df1edd4b8:	5cdf 0422 0000      	.insn	6, 0x04225cdf
  3df1edd4be:	0000                	.insn	2, 0x0000
  3df1edd4c0:	60df 0422 0000      	.insn	6, 0x042260df
  3df1edd4c6:	0000                	.insn	2, 0x0000
  3df1edd4c8:	64df 0422 0000      	.insn	6, 0x042264df
  3df1edd4ce:	0000                	.insn	2, 0x0000
  3df1edd4d0:	68df 0422 0000      	.insn	6, 0x042268df
  3df1edd4d6:	0000                	.insn	2, 0x0000
  3df1edd4d8:	6cdf 0422 0000      	.insn	6, 0x04226cdf
  3df1edd4de:	0000                	.insn	2, 0x0000
  3df1edd4e0:	70df 0422 0000      	.insn	6, 0x042270df
  3df1edd4e6:	0000                	.insn	2, 0x0000
  3df1edd4e8:	74df 0422 0000      	.insn	6, 0x042274df
  3df1edd4ee:	0000                	.insn	2, 0x0000
  3df1edd4f0:	78df 0422 0000      	.insn	6, 0x042278df
  3df1edd4f6:	0000                	.insn	2, 0x0000
  3df1edd4f8:	7cdf 0422 0000      	.insn	6, 0x04227cdf
  3df1edd4fe:	0000                	.insn	2, 0x0000
  3df1edd500:	80df 0422 0000      	.insn	6, 0x042280df
  3df1edd506:	0000                	.insn	2, 0x0000
  3df1edd508:	84df 0422 0000      	.insn	6, 0x042284df
  3df1edd50e:	0000                	.insn	2, 0x0000
  3df1edd510:	88df 0422 0000      	.insn	6, 0x042288df
  3df1edd516:	0000                	.insn	2, 0x0000
  3df1edd518:	8cdf 0422 0000      	.insn	6, 0x04228cdf
  3df1edd51e:	0000                	.insn	2, 0x0000
  3df1edd520:	90df 0422 0000      	.insn	6, 0x042290df
  3df1edd526:	0000                	.insn	2, 0x0000
  3df1edd528:	94df 0422 0000      	.insn	6, 0x042294df
  3df1edd52e:	0000                	.insn	2, 0x0000
  3df1edd530:	98df 0422 0000      	.insn	6, 0x042298df
  3df1edd536:	0000                	.insn	2, 0x0000
  3df1edd538:	9cdf 0422 0000      	.insn	6, 0x04229cdf
  3df1edd53e:	0000                	.insn	2, 0x0000
  3df1edd540:	a0df 0422 0000      	.insn	6, 0x0422a0df
  3df1edd546:	0000                	.insn	2, 0x0000
  3df1edd548:	a4df 0422 0000      	.insn	6, 0x0422a4df
  3df1edd54e:	0000                	.insn	2, 0x0000
  3df1edd550:	a8df 0422 0000      	.insn	6, 0x0422a8df
  3df1edd556:	0000                	.insn	2, 0x0000
  3df1edd558:	acdf 0422 0000      	.insn	6, 0x0422acdf
  3df1edd55e:	0000                	.insn	2, 0x0000
  3df1edd560:	b0df 0422 0000      	.insn	6, 0x0422b0df
  3df1edd566:	0000                	.insn	2, 0x0000
  3df1edd568:	b4df 0422 0000      	.insn	6, 0x0422b4df
  3df1edd56e:	0000                	.insn	2, 0x0000
  3df1edd570:	b8df 0422 0000      	.insn	6, 0x0422b8df
  3df1edd576:	0000                	.insn	2, 0x0000
  3df1edd578:	bcdf 0422 0000      	.insn	6, 0x0422bcdf
  3df1edd57e:	0000                	.insn	2, 0x0000
  3df1edd580:	c0df 0422 0000      	.insn	6, 0x0422c0df
  3df1edd586:	0000                	.insn	2, 0x0000
  3df1edd588:	c4df 0422 0000      	.insn	6, 0x0422c4df
  3df1edd58e:	0000                	.insn	2, 0x0000
  3df1edd590:	c8df 0422 0000      	.insn	6, 0x0422c8df
  3df1edd596:	0000                	.insn	2, 0x0000
  3df1edd598:	ccdf 0422 0000      	.insn	6, 0x0422ccdf
  3df1edd59e:	0000                	.insn	2, 0x0000
  3df1edd5a0:	d0df 0422 0000      	.insn	6, 0x0422d0df
  3df1edd5a6:	0000                	.insn	2, 0x0000
  3df1edd5a8:	d4df 0422 0000      	.insn	6, 0x0422d4df
  3df1edd5ae:	0000                	.insn	2, 0x0000
  3df1edd5b0:	d8df 0422 0000      	.insn	6, 0x0422d8df
  3df1edd5b6:	0000                	.insn	2, 0x0000
  3df1edd5b8:	dcdf 0422 0000      	.insn	6, 0x0422dcdf
  3df1edd5be:	0000                	.insn	2, 0x0000
  3df1edd5c0:	e0df 0422 0000      	.insn	6, 0x0422e0df
  3df1edd5c6:	0000                	.insn	2, 0x0000
  3df1edd5c8:	e4df 0422 0000      	.insn	6, 0x0422e4df
  3df1edd5ce:	0000                	.insn	2, 0x0000
  3df1edd5d0:	e8df 0422 0000      	.insn	6, 0x0422e8df
  3df1edd5d6:	0000                	.insn	2, 0x0000
  3df1edd5d8:	ecdf 0422 0000      	.insn	6, 0x0422ecdf
  3df1edd5de:	0000                	.insn	2, 0x0000
  3df1edd5e0:	f0df 0422 0000      	.insn	6, 0x0422f0df
  3df1edd5e6:	0000                	.insn	2, 0x0000
  3df1edd5e8:	f4df 0422 0000      	.insn	6, 0x0422f4df
  3df1edd5ee:	0000                	.insn	2, 0x0000
  3df1edd5f0:	f8df 0422 0000      	.insn	6, 0x0422f8df
  3df1edd5f6:	0000                	.insn	2, 0x0000
  3df1edd5f8:	fcdf 0422 0000      	.insn	6, 0x0422fcdf
  3df1edd5fe:	0000                	.insn	2, 0x0000
  3df1edd600:	00df 0423 0000      	.insn	6, 0x042300df
  3df1edd606:	0000                	.insn	2, 0x0000
  3df1edd608:	04df 0423 0000      	.insn	6, 0x042304df
  3df1edd60e:	0000                	.insn	2, 0x0000
  3df1edd610:	08df 0423 0000      	.insn	6, 0x042308df
  3df1edd616:	0000                	.insn	2, 0x0000
  3df1edd618:	0cdf 0423 0000      	.insn	6, 0x04230cdf
  3df1edd61e:	0000                	.insn	2, 0x0000
  3df1edd620:	10df 0423 0000      	.insn	6, 0x042310df
  3df1edd626:	0000                	.insn	2, 0x0000
  3df1edd628:	14df 0423 0000      	.insn	6, 0x042314df
  3df1edd62e:	0000                	.insn	2, 0x0000
  3df1edd630:	18df 0423 0000      	.insn	6, 0x042318df
  3df1edd636:	0000                	.insn	2, 0x0000
  3df1edd638:	1cdf 0423 0000      	.insn	6, 0x04231cdf
  3df1edd63e:	0000                	.insn	2, 0x0000
  3df1edd640:	20df 0423 0000      	.insn	6, 0x042320df
  3df1edd646:	0000                	.insn	2, 0x0000
  3df1edd648:	24df 0423 0000      	.insn	6, 0x042324df
  3df1edd64e:	0000                	.insn	2, 0x0000
  3df1edd650:	28df 0423 0000      	.insn	6, 0x042328df
  3df1edd656:	0000                	.insn	2, 0x0000
  3df1edd658:	2cdf 0423 0000      	.insn	6, 0x04232cdf
  3df1edd65e:	0000                	.insn	2, 0x0000
  3df1edd660:	30df 0423 0000      	.insn	6, 0x042330df
  3df1edd666:	0000                	.insn	2, 0x0000
  3df1edd668:	34df 0423 0000      	.insn	6, 0x042334df
  3df1edd66e:	0000                	.insn	2, 0x0000
  3df1edd670:	38df 0423 0000      	.insn	6, 0x042338df
  3df1edd676:	0000                	.insn	2, 0x0000
  3df1edd678:	3cdf 0423 0000      	.insn	6, 0x04233cdf
  3df1edd67e:	0000                	.insn	2, 0x0000
  3df1edd680:	40df 0423 0000      	.insn	6, 0x042340df
  3df1edd686:	0000                	.insn	2, 0x0000
  3df1edd688:	44df 0423 0000      	.insn	6, 0x042344df
  3df1edd68e:	0000                	.insn	2, 0x0000
  3df1edd690:	48df 0423 0000      	.insn	6, 0x042348df
  3df1edd696:	0000                	.insn	2, 0x0000
  3df1edd698:	4cdf 0423 0000      	.insn	6, 0x04234cdf
  3df1edd69e:	0000                	.insn	2, 0x0000
  3df1edd6a0:	50df 0423 0000      	.insn	6, 0x042350df
  3df1edd6a6:	0000                	.insn	2, 0x0000
  3df1edd6a8:	54df 0423 0000      	.insn	6, 0x042354df
  3df1edd6ae:	0000                	.insn	2, 0x0000
  3df1edd6b0:	58df 0423 0000      	.insn	6, 0x042358df
  3df1edd6b6:	0000                	.insn	2, 0x0000
  3df1edd6b8:	5cdf 0423 0000      	.insn	6, 0x04235cdf
  3df1edd6be:	0000                	.insn	2, 0x0000
  3df1edd6c0:	60df 0423 0000      	.insn	6, 0x042360df
  3df1edd6c6:	0000                	.insn	2, 0x0000
  3df1edd6c8:	64df 0423 0000      	.insn	6, 0x042364df
  3df1edd6ce:	0000                	.insn	2, 0x0000
  3df1edd6d0:	68df 0423 0000      	.insn	6, 0x042368df
  3df1edd6d6:	0000                	.insn	2, 0x0000
  3df1edd6d8:	6cdf 0423 0000      	.insn	6, 0x04236cdf
  3df1edd6de:	0000                	.insn	2, 0x0000
  3df1edd6e0:	70df 0423 0000      	.insn	6, 0x042370df
  3df1edd6e6:	0000                	.insn	2, 0x0000
  3df1edd6e8:	74df 0423 0000      	.insn	6, 0x042374df
  3df1edd6ee:	0000                	.insn	2, 0x0000
  3df1edd6f0:	78df 0423 0000      	.insn	6, 0x042378df
  3df1edd6f6:	0000                	.insn	2, 0x0000
  3df1edd6f8:	7cdf 0423 0000      	.insn	6, 0x04237cdf
  3df1edd6fe:	0000                	.insn	2, 0x0000
  3df1edd700:	80df 0423 0000      	.insn	6, 0x042380df
  3df1edd706:	0000                	.insn	2, 0x0000
  3df1edd708:	84df 0423 0000      	.insn	6, 0x042384df
  3df1edd70e:	0000                	.insn	2, 0x0000
  3df1edd710:	88df 0423 0000      	.insn	6, 0x042388df
  3df1edd716:	0000                	.insn	2, 0x0000
  3df1edd718:	8cdf 0423 0000      	.insn	6, 0x04238cdf
  3df1edd71e:	0000                	.insn	2, 0x0000
  3df1edd720:	90df 0423 0000      	.insn	6, 0x042390df
  3df1edd726:	0000                	.insn	2, 0x0000
  3df1edd728:	94df 0423 0000      	.insn	6, 0x042394df
  3df1edd72e:	0000                	.insn	2, 0x0000
  3df1edd730:	98df 0423 0000      	.insn	6, 0x042398df
  3df1edd736:	0000                	.insn	2, 0x0000
  3df1edd738:	9cdf 0423 0000      	.insn	6, 0x04239cdf
  3df1edd73e:	0000                	.insn	2, 0x0000
  3df1edd740:	a0df 0423 0000      	.insn	6, 0x0423a0df
  3df1edd746:	0000                	.insn	2, 0x0000
  3df1edd748:	a4df 0423 0000      	.insn	6, 0x0423a4df
  3df1edd74e:	0000                	.insn	2, 0x0000
  3df1edd750:	a8df 0423 0000      	.insn	6, 0x0423a8df
  3df1edd756:	0000                	.insn	2, 0x0000
  3df1edd758:	acdf 0423 0000      	.insn	6, 0x0423acdf
  3df1edd75e:	0000                	.insn	2, 0x0000
  3df1edd760:	b0df 0423 0000      	.insn	6, 0x0423b0df
  3df1edd766:	0000                	.insn	2, 0x0000
  3df1edd768:	b4df 0423 0000      	.insn	6, 0x0423b4df
  3df1edd76e:	0000                	.insn	2, 0x0000
  3df1edd770:	b8df 0423 0000      	.insn	6, 0x0423b8df
  3df1edd776:	0000                	.insn	2, 0x0000
  3df1edd778:	bcdf 0423 0000      	.insn	6, 0x0423bcdf
  3df1edd77e:	0000                	.insn	2, 0x0000
  3df1edd780:	c0df 0423 0000      	.insn	6, 0x0423c0df
  3df1edd786:	0000                	.insn	2, 0x0000
  3df1edd788:	c4df 0423 0000      	.insn	6, 0x0423c4df
  3df1edd78e:	0000                	.insn	2, 0x0000
  3df1edd790:	c8df 0423 0000      	.insn	6, 0x0423c8df
  3df1edd796:	0000                	.insn	2, 0x0000
  3df1edd798:	ccdf 0423 0000      	.insn	6, 0x0423ccdf
  3df1edd79e:	0000                	.insn	2, 0x0000
  3df1edd7a0:	d0df 0423 0000      	.insn	6, 0x0423d0df
  3df1edd7a6:	0000                	.insn	2, 0x0000
  3df1edd7a8:	d4df 0423 0000      	.insn	6, 0x0423d4df
  3df1edd7ae:	0000                	.insn	2, 0x0000
  3df1edd7b0:	d8df 0423 0000      	.insn	6, 0x0423d8df
  3df1edd7b6:	0000                	.insn	2, 0x0000
  3df1edd7b8:	dcdf 0423 0000      	.insn	6, 0x0423dcdf
  3df1edd7be:	0000                	.insn	2, 0x0000
  3df1edd7c0:	e0df 0423 0000      	.insn	6, 0x0423e0df
  3df1edd7c6:	0000                	.insn	2, 0x0000
  3df1edd7c8:	e4df 0423 0000      	.insn	6, 0x0423e4df
  3df1edd7ce:	0000                	.insn	2, 0x0000
  3df1edd7d0:	e8df 0423 0000      	.insn	6, 0x0423e8df
  3df1edd7d6:	0000                	.insn	2, 0x0000
  3df1edd7d8:	ecdf 0423 0000      	.insn	6, 0x0423ecdf
  3df1edd7de:	0000                	.insn	2, 0x0000
  3df1edd7e0:	f0df 0423 0000      	.insn	6, 0x0423f0df
  3df1edd7e6:	0000                	.insn	2, 0x0000
  3df1edd7e8:	f4df 0423 0000      	.insn	6, 0x0423f4df
  3df1edd7ee:	0000                	.insn	2, 0x0000
  3df1edd7f0:	f8df 0423 0000      	.insn	6, 0x0423f8df
  3df1edd7f6:	0000                	.insn	2, 0x0000
  3df1edd7f8:	fcdf 0423 0000      	.insn	6, 0x0423fcdf
	...

Disassembly of section .__pagetable_map_os_0x00001c532d867000:

00001c532d867000 <__pagetable_map_os_0x00001c532d867000>:
    1c532d867000:	00df 0820 0000      	.insn	6, 0x082000df
    1c532d867006:	0000                	.insn	2, 0x0000
    1c532d867008:	04df 0820 0000      	.insn	6, 0x082004df
    1c532d86700e:	0000                	.insn	2, 0x0000
    1c532d867010:	08df 0820 0000      	.insn	6, 0x082008df
    1c532d867016:	0000                	.insn	2, 0x0000
    1c532d867018:	0cdf 0820 0000      	.insn	6, 0x08200cdf
    1c532d86701e:	0000                	.insn	2, 0x0000
    1c532d867020:	10df 0820 0000      	.insn	6, 0x082010df
    1c532d867026:	0000                	.insn	2, 0x0000
    1c532d867028:	14df 0820 0000      	.insn	6, 0x082014df
    1c532d86702e:	0000                	.insn	2, 0x0000
    1c532d867030:	18df 0820 0000      	.insn	6, 0x082018df
    1c532d867036:	0000                	.insn	2, 0x0000
    1c532d867038:	1cdf 0820 0000      	.insn	6, 0x08201cdf
    1c532d86703e:	0000                	.insn	2, 0x0000
    1c532d867040:	20df 0820 0000      	.insn	6, 0x082020df
    1c532d867046:	0000                	.insn	2, 0x0000
    1c532d867048:	24df 0820 0000      	.insn	6, 0x082024df
    1c532d86704e:	0000                	.insn	2, 0x0000
    1c532d867050:	28df 0820 0000      	.insn	6, 0x082028df
    1c532d867056:	0000                	.insn	2, 0x0000
    1c532d867058:	2cdf 0820 0000      	.insn	6, 0x08202cdf
    1c532d86705e:	0000                	.insn	2, 0x0000
    1c532d867060:	30df 0820 0000      	.insn	6, 0x082030df
    1c532d867066:	0000                	.insn	2, 0x0000
    1c532d867068:	34df 0820 0000      	.insn	6, 0x082034df
    1c532d86706e:	0000                	.insn	2, 0x0000
    1c532d867070:	38df 0820 0000      	.insn	6, 0x082038df
    1c532d867076:	0000                	.insn	2, 0x0000
    1c532d867078:	3cdf 0820 0000      	.insn	6, 0x08203cdf
    1c532d86707e:	0000                	.insn	2, 0x0000
    1c532d867080:	40df 0820 0000      	.insn	6, 0x082040df
    1c532d867086:	0000                	.insn	2, 0x0000
    1c532d867088:	44df 0820 0000      	.insn	6, 0x082044df
    1c532d86708e:	0000                	.insn	2, 0x0000
    1c532d867090:	48df 0820 0000      	.insn	6, 0x082048df
    1c532d867096:	0000                	.insn	2, 0x0000
    1c532d867098:	4cdf 0820 0000      	.insn	6, 0x08204cdf
    1c532d86709e:	0000                	.insn	2, 0x0000
    1c532d8670a0:	50df 0820 0000      	.insn	6, 0x082050df
    1c532d8670a6:	0000                	.insn	2, 0x0000
    1c532d8670a8:	54df 0820 0000      	.insn	6, 0x082054df
    1c532d8670ae:	0000                	.insn	2, 0x0000
    1c532d8670b0:	58df 0820 0000      	.insn	6, 0x082058df
    1c532d8670b6:	0000                	.insn	2, 0x0000
    1c532d8670b8:	5cdf 0820 0000      	.insn	6, 0x08205cdf
    1c532d8670be:	0000                	.insn	2, 0x0000
    1c532d8670c0:	60df 0820 0000      	.insn	6, 0x082060df
    1c532d8670c6:	0000                	.insn	2, 0x0000
    1c532d8670c8:	64df 0820 0000      	.insn	6, 0x082064df
    1c532d8670ce:	0000                	.insn	2, 0x0000
    1c532d8670d0:	68df 0820 0000      	.insn	6, 0x082068df
    1c532d8670d6:	0000                	.insn	2, 0x0000
    1c532d8670d8:	6cdf 0820 0000      	.insn	6, 0x08206cdf
    1c532d8670de:	0000                	.insn	2, 0x0000
    1c532d8670e0:	70df 0820 0000      	.insn	6, 0x082070df
    1c532d8670e6:	0000                	.insn	2, 0x0000
    1c532d8670e8:	74df 0820 0000      	.insn	6, 0x082074df
    1c532d8670ee:	0000                	.insn	2, 0x0000
    1c532d8670f0:	78df 0820 0000      	.insn	6, 0x082078df
    1c532d8670f6:	0000                	.insn	2, 0x0000
    1c532d8670f8:	7cdf 0820 0000      	.insn	6, 0x08207cdf
    1c532d8670fe:	0000                	.insn	2, 0x0000
    1c532d867100:	80df 0820 0000      	.insn	6, 0x082080df
    1c532d867106:	0000                	.insn	2, 0x0000
    1c532d867108:	84df 0820 0000      	.insn	6, 0x082084df
    1c532d86710e:	0000                	.insn	2, 0x0000
    1c532d867110:	88df 0820 0000      	.insn	6, 0x082088df
    1c532d867116:	0000                	.insn	2, 0x0000
    1c532d867118:	8cdf 0820 0000      	.insn	6, 0x08208cdf
    1c532d86711e:	0000                	.insn	2, 0x0000
    1c532d867120:	90df 0820 0000      	.insn	6, 0x082090df
    1c532d867126:	0000                	.insn	2, 0x0000
    1c532d867128:	94df 0820 0000      	.insn	6, 0x082094df
    1c532d86712e:	0000                	.insn	2, 0x0000
    1c532d867130:	98df 0820 0000      	.insn	6, 0x082098df
    1c532d867136:	0000                	.insn	2, 0x0000
    1c532d867138:	9cdf 0820 0000      	.insn	6, 0x08209cdf
    1c532d86713e:	0000                	.insn	2, 0x0000
    1c532d867140:	a0df 0820 0000      	.insn	6, 0x0820a0df
    1c532d867146:	0000                	.insn	2, 0x0000
    1c532d867148:	a4df 0820 0000      	.insn	6, 0x0820a4df
    1c532d86714e:	0000                	.insn	2, 0x0000
    1c532d867150:	a8df 0820 0000      	.insn	6, 0x0820a8df
    1c532d867156:	0000                	.insn	2, 0x0000
    1c532d867158:	acdf 0820 0000      	.insn	6, 0x0820acdf
    1c532d86715e:	0000                	.insn	2, 0x0000
    1c532d867160:	b0df 0820 0000      	.insn	6, 0x0820b0df
    1c532d867166:	0000                	.insn	2, 0x0000
    1c532d867168:	b4df 0820 0000      	.insn	6, 0x0820b4df
    1c532d86716e:	0000                	.insn	2, 0x0000
    1c532d867170:	b8df 0820 0000      	.insn	6, 0x0820b8df
    1c532d867176:	0000                	.insn	2, 0x0000
    1c532d867178:	bcdf 0820 0000      	.insn	6, 0x0820bcdf
    1c532d86717e:	0000                	.insn	2, 0x0000
    1c532d867180:	c0df 0820 0000      	.insn	6, 0x0820c0df
    1c532d867186:	0000                	.insn	2, 0x0000
    1c532d867188:	c4df 0820 0000      	.insn	6, 0x0820c4df
    1c532d86718e:	0000                	.insn	2, 0x0000
    1c532d867190:	c8df 0820 0000      	.insn	6, 0x0820c8df
    1c532d867196:	0000                	.insn	2, 0x0000
    1c532d867198:	ccdf 0820 0000      	.insn	6, 0x0820ccdf
    1c532d86719e:	0000                	.insn	2, 0x0000
    1c532d8671a0:	d0df 0820 0000      	.insn	6, 0x0820d0df
    1c532d8671a6:	0000                	.insn	2, 0x0000
    1c532d8671a8:	d4df 0820 0000      	.insn	6, 0x0820d4df
    1c532d8671ae:	0000                	.insn	2, 0x0000
    1c532d8671b0:	d8df 0820 0000      	.insn	6, 0x0820d8df
    1c532d8671b6:	0000                	.insn	2, 0x0000
    1c532d8671b8:	dcdf 0820 0000      	.insn	6, 0x0820dcdf
    1c532d8671be:	0000                	.insn	2, 0x0000
    1c532d8671c0:	e0df 0820 0000      	.insn	6, 0x0820e0df
    1c532d8671c6:	0000                	.insn	2, 0x0000
    1c532d8671c8:	e4df 0820 0000      	.insn	6, 0x0820e4df
    1c532d8671ce:	0000                	.insn	2, 0x0000
    1c532d8671d0:	e8df 0820 0000      	.insn	6, 0x0820e8df
    1c532d8671d6:	0000                	.insn	2, 0x0000
    1c532d8671d8:	ecdf 0820 0000      	.insn	6, 0x0820ecdf
    1c532d8671de:	0000                	.insn	2, 0x0000
    1c532d8671e0:	f0df 0820 0000      	.insn	6, 0x0820f0df
    1c532d8671e6:	0000                	.insn	2, 0x0000
    1c532d8671e8:	f4df 0820 0000      	.insn	6, 0x0820f4df
    1c532d8671ee:	0000                	.insn	2, 0x0000
    1c532d8671f0:	f8df 0820 0000      	.insn	6, 0x0820f8df
    1c532d8671f6:	0000                	.insn	2, 0x0000
    1c532d8671f8:	fcdf 0820 0000      	.insn	6, 0x0820fcdf
    1c532d8671fe:	0000                	.insn	2, 0x0000
    1c532d867200:	00df 0821 0000      	.insn	6, 0x082100df
    1c532d867206:	0000                	.insn	2, 0x0000
    1c532d867208:	04df 0821 0000      	.insn	6, 0x082104df
    1c532d86720e:	0000                	.insn	2, 0x0000
    1c532d867210:	08df 0821 0000      	.insn	6, 0x082108df
    1c532d867216:	0000                	.insn	2, 0x0000
    1c532d867218:	0cdf 0821 0000      	.insn	6, 0x08210cdf
    1c532d86721e:	0000                	.insn	2, 0x0000
    1c532d867220:	10df 0821 0000      	.insn	6, 0x082110df
    1c532d867226:	0000                	.insn	2, 0x0000
    1c532d867228:	14df 0821 0000      	.insn	6, 0x082114df
    1c532d86722e:	0000                	.insn	2, 0x0000
    1c532d867230:	18df 0821 0000      	.insn	6, 0x082118df
    1c532d867236:	0000                	.insn	2, 0x0000
    1c532d867238:	1cdf 0821 0000      	.insn	6, 0x08211cdf
    1c532d86723e:	0000                	.insn	2, 0x0000
    1c532d867240:	20df 0821 0000      	.insn	6, 0x082120df
    1c532d867246:	0000                	.insn	2, 0x0000
    1c532d867248:	24df 0821 0000      	.insn	6, 0x082124df
    1c532d86724e:	0000                	.insn	2, 0x0000
    1c532d867250:	28df 0821 0000      	.insn	6, 0x082128df
    1c532d867256:	0000                	.insn	2, 0x0000
    1c532d867258:	2cdf 0821 0000      	.insn	6, 0x08212cdf
    1c532d86725e:	0000                	.insn	2, 0x0000
    1c532d867260:	30df 0821 0000      	.insn	6, 0x082130df
    1c532d867266:	0000                	.insn	2, 0x0000
    1c532d867268:	34df 0821 0000      	.insn	6, 0x082134df
    1c532d86726e:	0000                	.insn	2, 0x0000
    1c532d867270:	38df 0821 0000      	.insn	6, 0x082138df
    1c532d867276:	0000                	.insn	2, 0x0000
    1c532d867278:	3cdf 0821 0000      	.insn	6, 0x08213cdf
    1c532d86727e:	0000                	.insn	2, 0x0000
    1c532d867280:	40df 0821 0000      	.insn	6, 0x082140df
    1c532d867286:	0000                	.insn	2, 0x0000
    1c532d867288:	44df 0821 0000      	.insn	6, 0x082144df
    1c532d86728e:	0000                	.insn	2, 0x0000
    1c532d867290:	48df 0821 0000      	.insn	6, 0x082148df
    1c532d867296:	0000                	.insn	2, 0x0000
    1c532d867298:	4cdf 0821 0000      	.insn	6, 0x08214cdf
    1c532d86729e:	0000                	.insn	2, 0x0000
    1c532d8672a0:	50df 0821 0000      	.insn	6, 0x082150df
    1c532d8672a6:	0000                	.insn	2, 0x0000
    1c532d8672a8:	54df 0821 0000      	.insn	6, 0x082154df
    1c532d8672ae:	0000                	.insn	2, 0x0000
    1c532d8672b0:	58df 0821 0000      	.insn	6, 0x082158df
    1c532d8672b6:	0000                	.insn	2, 0x0000
    1c532d8672b8:	5cdf 0821 0000      	.insn	6, 0x08215cdf
    1c532d8672be:	0000                	.insn	2, 0x0000
    1c532d8672c0:	60df 0821 0000      	.insn	6, 0x082160df
    1c532d8672c6:	0000                	.insn	2, 0x0000
    1c532d8672c8:	64df 0821 0000      	.insn	6, 0x082164df
    1c532d8672ce:	0000                	.insn	2, 0x0000
    1c532d8672d0:	68df 0821 0000      	.insn	6, 0x082168df
    1c532d8672d6:	0000                	.insn	2, 0x0000
    1c532d8672d8:	6cdf 0821 0000      	.insn	6, 0x08216cdf
    1c532d8672de:	0000                	.insn	2, 0x0000
    1c532d8672e0:	70df 0821 0000      	.insn	6, 0x082170df
    1c532d8672e6:	0000                	.insn	2, 0x0000
    1c532d8672e8:	74df 0821 0000      	.insn	6, 0x082174df
    1c532d8672ee:	0000                	.insn	2, 0x0000
    1c532d8672f0:	78df 0821 0000      	.insn	6, 0x082178df
    1c532d8672f6:	0000                	.insn	2, 0x0000
    1c532d8672f8:	7cdf 0821 0000      	.insn	6, 0x08217cdf
    1c532d8672fe:	0000                	.insn	2, 0x0000
    1c532d867300:	80df 0821 0000      	.insn	6, 0x082180df
    1c532d867306:	0000                	.insn	2, 0x0000
    1c532d867308:	84df 0821 0000      	.insn	6, 0x082184df
    1c532d86730e:	0000                	.insn	2, 0x0000
    1c532d867310:	88df 0821 0000      	.insn	6, 0x082188df
    1c532d867316:	0000                	.insn	2, 0x0000
    1c532d867318:	8cdf 0821 0000      	.insn	6, 0x08218cdf
    1c532d86731e:	0000                	.insn	2, 0x0000
    1c532d867320:	90df 0821 0000      	.insn	6, 0x082190df
    1c532d867326:	0000                	.insn	2, 0x0000
    1c532d867328:	94df 0821 0000      	.insn	6, 0x082194df
    1c532d86732e:	0000                	.insn	2, 0x0000
    1c532d867330:	98df 0821 0000      	.insn	6, 0x082198df
    1c532d867336:	0000                	.insn	2, 0x0000
    1c532d867338:	9cdf 0821 0000      	.insn	6, 0x08219cdf
    1c532d86733e:	0000                	.insn	2, 0x0000
    1c532d867340:	a0df 0821 0000      	.insn	6, 0x0821a0df
    1c532d867346:	0000                	.insn	2, 0x0000
    1c532d867348:	a4df 0821 0000      	.insn	6, 0x0821a4df
    1c532d86734e:	0000                	.insn	2, 0x0000
    1c532d867350:	a8df 0821 0000      	.insn	6, 0x0821a8df
    1c532d867356:	0000                	.insn	2, 0x0000
    1c532d867358:	acdf 0821 0000      	.insn	6, 0x0821acdf
    1c532d86735e:	0000                	.insn	2, 0x0000
    1c532d867360:	b0df 0821 0000      	.insn	6, 0x0821b0df
    1c532d867366:	0000                	.insn	2, 0x0000
    1c532d867368:	b4df 0821 0000      	.insn	6, 0x0821b4df
    1c532d86736e:	0000                	.insn	2, 0x0000
    1c532d867370:	b8df 0821 0000      	.insn	6, 0x0821b8df
    1c532d867376:	0000                	.insn	2, 0x0000
    1c532d867378:	bcdf 0821 0000      	.insn	6, 0x0821bcdf
    1c532d86737e:	0000                	.insn	2, 0x0000
    1c532d867380:	c0df 0821 0000      	.insn	6, 0x0821c0df
    1c532d867386:	0000                	.insn	2, 0x0000
    1c532d867388:	c4df 0821 0000      	.insn	6, 0x0821c4df
    1c532d86738e:	0000                	.insn	2, 0x0000
    1c532d867390:	c8df 0821 0000      	.insn	6, 0x0821c8df
    1c532d867396:	0000                	.insn	2, 0x0000
    1c532d867398:	ccdf 0821 0000      	.insn	6, 0x0821ccdf
    1c532d86739e:	0000                	.insn	2, 0x0000
    1c532d8673a0:	d0df 0821 0000      	.insn	6, 0x0821d0df
    1c532d8673a6:	0000                	.insn	2, 0x0000
    1c532d8673a8:	d4df 0821 0000      	.insn	6, 0x0821d4df
    1c532d8673ae:	0000                	.insn	2, 0x0000
    1c532d8673b0:	d8df 0821 0000      	.insn	6, 0x0821d8df
    1c532d8673b6:	0000                	.insn	2, 0x0000
    1c532d8673b8:	dcdf 0821 0000      	.insn	6, 0x0821dcdf
    1c532d8673be:	0000                	.insn	2, 0x0000
    1c532d8673c0:	e0df 0821 0000      	.insn	6, 0x0821e0df
    1c532d8673c6:	0000                	.insn	2, 0x0000
    1c532d8673c8:	e4df 0821 0000      	.insn	6, 0x0821e4df
    1c532d8673ce:	0000                	.insn	2, 0x0000
    1c532d8673d0:	e8df 0821 0000      	.insn	6, 0x0821e8df
    1c532d8673d6:	0000                	.insn	2, 0x0000
    1c532d8673d8:	ecdf 0821 0000      	.insn	6, 0x0821ecdf
    1c532d8673de:	0000                	.insn	2, 0x0000
    1c532d8673e0:	f0df 0821 0000      	.insn	6, 0x0821f0df
    1c532d8673e6:	0000                	.insn	2, 0x0000
    1c532d8673e8:	f4df 0821 0000      	.insn	6, 0x0821f4df
    1c532d8673ee:	0000                	.insn	2, 0x0000
    1c532d8673f0:	f8df 0821 0000      	.insn	6, 0x0821f8df
    1c532d8673f6:	0000                	.insn	2, 0x0000
    1c532d8673f8:	fcdf 0821 0000      	.insn	6, 0x0821fcdf
    1c532d8673fe:	0000                	.insn	2, 0x0000
    1c532d867400:	00df 0822 0000      	.insn	6, 0x082200df
    1c532d867406:	0000                	.insn	2, 0x0000
    1c532d867408:	04df 0822 0000      	.insn	6, 0x082204df
    1c532d86740e:	0000                	.insn	2, 0x0000
    1c532d867410:	08df 0822 0000      	.insn	6, 0x082208df
    1c532d867416:	0000                	.insn	2, 0x0000
    1c532d867418:	0cdf 0822 0000      	.insn	6, 0x08220cdf
    1c532d86741e:	0000                	.insn	2, 0x0000
    1c532d867420:	10df 0822 0000      	.insn	6, 0x082210df
    1c532d867426:	0000                	.insn	2, 0x0000
    1c532d867428:	14df 0822 0000      	.insn	6, 0x082214df
    1c532d86742e:	0000                	.insn	2, 0x0000
    1c532d867430:	18df 0822 0000      	.insn	6, 0x082218df
    1c532d867436:	0000                	.insn	2, 0x0000
    1c532d867438:	1cdf 0822 0000      	.insn	6, 0x08221cdf
    1c532d86743e:	0000                	.insn	2, 0x0000
    1c532d867440:	20df 0822 0000      	.insn	6, 0x082220df
    1c532d867446:	0000                	.insn	2, 0x0000
    1c532d867448:	24df 0822 0000      	.insn	6, 0x082224df
    1c532d86744e:	0000                	.insn	2, 0x0000
    1c532d867450:	28df 0822 0000      	.insn	6, 0x082228df
    1c532d867456:	0000                	.insn	2, 0x0000
    1c532d867458:	2cdf 0822 0000      	.insn	6, 0x08222cdf
    1c532d86745e:	0000                	.insn	2, 0x0000
    1c532d867460:	30df 0822 0000      	.insn	6, 0x082230df
    1c532d867466:	0000                	.insn	2, 0x0000
    1c532d867468:	34df 0822 0000      	.insn	6, 0x082234df
    1c532d86746e:	0000                	.insn	2, 0x0000
    1c532d867470:	38df 0822 0000      	.insn	6, 0x082238df
    1c532d867476:	0000                	.insn	2, 0x0000
    1c532d867478:	3cdf 0822 0000      	.insn	6, 0x08223cdf
    1c532d86747e:	0000                	.insn	2, 0x0000
    1c532d867480:	40df 0822 0000      	.insn	6, 0x082240df
    1c532d867486:	0000                	.insn	2, 0x0000
    1c532d867488:	44df 0822 0000      	.insn	6, 0x082244df
    1c532d86748e:	0000                	.insn	2, 0x0000
    1c532d867490:	48df 0822 0000      	.insn	6, 0x082248df
    1c532d867496:	0000                	.insn	2, 0x0000
    1c532d867498:	4cdf 0822 0000      	.insn	6, 0x08224cdf
    1c532d86749e:	0000                	.insn	2, 0x0000
    1c532d8674a0:	50df 0822 0000      	.insn	6, 0x082250df
    1c532d8674a6:	0000                	.insn	2, 0x0000
    1c532d8674a8:	54df 0822 0000      	.insn	6, 0x082254df
    1c532d8674ae:	0000                	.insn	2, 0x0000
    1c532d8674b0:	58df 0822 0000      	.insn	6, 0x082258df
    1c532d8674b6:	0000                	.insn	2, 0x0000
    1c532d8674b8:	5cdf 0822 0000      	.insn	6, 0x08225cdf
    1c532d8674be:	0000                	.insn	2, 0x0000
    1c532d8674c0:	60df 0822 0000      	.insn	6, 0x082260df
    1c532d8674c6:	0000                	.insn	2, 0x0000
    1c532d8674c8:	64df 0822 0000      	.insn	6, 0x082264df
    1c532d8674ce:	0000                	.insn	2, 0x0000
    1c532d8674d0:	68df 0822 0000      	.insn	6, 0x082268df
    1c532d8674d6:	0000                	.insn	2, 0x0000
    1c532d8674d8:	6cdf 0822 0000      	.insn	6, 0x08226cdf
    1c532d8674de:	0000                	.insn	2, 0x0000
    1c532d8674e0:	70df 0822 0000      	.insn	6, 0x082270df
    1c532d8674e6:	0000                	.insn	2, 0x0000
    1c532d8674e8:	74df 0822 0000      	.insn	6, 0x082274df
    1c532d8674ee:	0000                	.insn	2, 0x0000
    1c532d8674f0:	78df 0822 0000      	.insn	6, 0x082278df
    1c532d8674f6:	0000                	.insn	2, 0x0000
    1c532d8674f8:	7cdf 0822 0000      	.insn	6, 0x08227cdf
    1c532d8674fe:	0000                	.insn	2, 0x0000
    1c532d867500:	80df 0822 0000      	.insn	6, 0x082280df
    1c532d867506:	0000                	.insn	2, 0x0000
    1c532d867508:	84df 0822 0000      	.insn	6, 0x082284df
    1c532d86750e:	0000                	.insn	2, 0x0000
    1c532d867510:	88df 0822 0000      	.insn	6, 0x082288df
    1c532d867516:	0000                	.insn	2, 0x0000
    1c532d867518:	8cdf 0822 0000      	.insn	6, 0x08228cdf
    1c532d86751e:	0000                	.insn	2, 0x0000
    1c532d867520:	90df 0822 0000      	.insn	6, 0x082290df
    1c532d867526:	0000                	.insn	2, 0x0000
    1c532d867528:	94df 0822 0000      	.insn	6, 0x082294df
    1c532d86752e:	0000                	.insn	2, 0x0000
    1c532d867530:	98df 0822 0000      	.insn	6, 0x082298df
    1c532d867536:	0000                	.insn	2, 0x0000
    1c532d867538:	9cdf 0822 0000      	.insn	6, 0x08229cdf
    1c532d86753e:	0000                	.insn	2, 0x0000
    1c532d867540:	a0df 0822 0000      	.insn	6, 0x0822a0df
    1c532d867546:	0000                	.insn	2, 0x0000
    1c532d867548:	a4df 0822 0000      	.insn	6, 0x0822a4df
    1c532d86754e:	0000                	.insn	2, 0x0000
    1c532d867550:	a8df 0822 0000      	.insn	6, 0x0822a8df
    1c532d867556:	0000                	.insn	2, 0x0000
    1c532d867558:	acdf 0822 0000      	.insn	6, 0x0822acdf
    1c532d86755e:	0000                	.insn	2, 0x0000
    1c532d867560:	b0df 0822 0000      	.insn	6, 0x0822b0df
    1c532d867566:	0000                	.insn	2, 0x0000
    1c532d867568:	b4df 0822 0000      	.insn	6, 0x0822b4df
    1c532d86756e:	0000                	.insn	2, 0x0000
    1c532d867570:	b8df 0822 0000      	.insn	6, 0x0822b8df
    1c532d867576:	0000                	.insn	2, 0x0000
    1c532d867578:	bcdf 0822 0000      	.insn	6, 0x0822bcdf
    1c532d86757e:	0000                	.insn	2, 0x0000
    1c532d867580:	c0df 0822 0000      	.insn	6, 0x0822c0df
    1c532d867586:	0000                	.insn	2, 0x0000
    1c532d867588:	c4df 0822 0000      	.insn	6, 0x0822c4df
    1c532d86758e:	0000                	.insn	2, 0x0000
    1c532d867590:	c8df 0822 0000      	.insn	6, 0x0822c8df
    1c532d867596:	0000                	.insn	2, 0x0000
    1c532d867598:	ccdf 0822 0000      	.insn	6, 0x0822ccdf
    1c532d86759e:	0000                	.insn	2, 0x0000
    1c532d8675a0:	d0df 0822 0000      	.insn	6, 0x0822d0df
    1c532d8675a6:	0000                	.insn	2, 0x0000
    1c532d8675a8:	d4df 0822 0000      	.insn	6, 0x0822d4df
    1c532d8675ae:	0000                	.insn	2, 0x0000
    1c532d8675b0:	d8df 0822 0000      	.insn	6, 0x0822d8df
    1c532d8675b6:	0000                	.insn	2, 0x0000
    1c532d8675b8:	dcdf 0822 0000      	.insn	6, 0x0822dcdf
    1c532d8675be:	0000                	.insn	2, 0x0000
    1c532d8675c0:	e0df 0822 0000      	.insn	6, 0x0822e0df
    1c532d8675c6:	0000                	.insn	2, 0x0000
    1c532d8675c8:	e4df 0822 0000      	.insn	6, 0x0822e4df
    1c532d8675ce:	0000                	.insn	2, 0x0000
    1c532d8675d0:	e8df 0822 0000      	.insn	6, 0x0822e8df
    1c532d8675d6:	0000                	.insn	2, 0x0000
    1c532d8675d8:	ecdf 0822 0000      	.insn	6, 0x0822ecdf
    1c532d8675de:	0000                	.insn	2, 0x0000
    1c532d8675e0:	f0df 0822 0000      	.insn	6, 0x0822f0df
    1c532d8675e6:	0000                	.insn	2, 0x0000
    1c532d8675e8:	f4df 0822 0000      	.insn	6, 0x0822f4df
    1c532d8675ee:	0000                	.insn	2, 0x0000
    1c532d8675f0:	f8df 0822 0000      	.insn	6, 0x0822f8df
    1c532d8675f6:	0000                	.insn	2, 0x0000
    1c532d8675f8:	fcdf 0822 0000      	.insn	6, 0x0822fcdf
    1c532d8675fe:	0000                	.insn	2, 0x0000
    1c532d867600:	00df 0823 0000      	.insn	6, 0x082300df
    1c532d867606:	0000                	.insn	2, 0x0000
    1c532d867608:	04df 0823 0000      	.insn	6, 0x082304df
    1c532d86760e:	0000                	.insn	2, 0x0000
    1c532d867610:	08df 0823 0000      	.insn	6, 0x082308df
    1c532d867616:	0000                	.insn	2, 0x0000
    1c532d867618:	0cdf 0823 0000      	.insn	6, 0x08230cdf
    1c532d86761e:	0000                	.insn	2, 0x0000
    1c532d867620:	10df 0823 0000      	.insn	6, 0x082310df
    1c532d867626:	0000                	.insn	2, 0x0000
    1c532d867628:	14df 0823 0000      	.insn	6, 0x082314df
    1c532d86762e:	0000                	.insn	2, 0x0000
    1c532d867630:	18df 0823 0000      	.insn	6, 0x082318df
    1c532d867636:	0000                	.insn	2, 0x0000
    1c532d867638:	1cdf 0823 0000      	.insn	6, 0x08231cdf
    1c532d86763e:	0000                	.insn	2, 0x0000
    1c532d867640:	20df 0823 0000      	.insn	6, 0x082320df
    1c532d867646:	0000                	.insn	2, 0x0000
    1c532d867648:	24df 0823 0000      	.insn	6, 0x082324df
    1c532d86764e:	0000                	.insn	2, 0x0000
    1c532d867650:	28df 0823 0000      	.insn	6, 0x082328df
    1c532d867656:	0000                	.insn	2, 0x0000
    1c532d867658:	2cdf 0823 0000      	.insn	6, 0x08232cdf
    1c532d86765e:	0000                	.insn	2, 0x0000
    1c532d867660:	30df 0823 0000      	.insn	6, 0x082330df
    1c532d867666:	0000                	.insn	2, 0x0000
    1c532d867668:	34df 0823 0000      	.insn	6, 0x082334df
    1c532d86766e:	0000                	.insn	2, 0x0000
    1c532d867670:	38df 0823 0000      	.insn	6, 0x082338df
    1c532d867676:	0000                	.insn	2, 0x0000
    1c532d867678:	3cdf 0823 0000      	.insn	6, 0x08233cdf
    1c532d86767e:	0000                	.insn	2, 0x0000
    1c532d867680:	40df 0823 0000      	.insn	6, 0x082340df
    1c532d867686:	0000                	.insn	2, 0x0000
    1c532d867688:	44df 0823 0000      	.insn	6, 0x082344df
    1c532d86768e:	0000                	.insn	2, 0x0000
    1c532d867690:	48df 0823 0000      	.insn	6, 0x082348df
    1c532d867696:	0000                	.insn	2, 0x0000
    1c532d867698:	4cdf 0823 0000      	.insn	6, 0x08234cdf
    1c532d86769e:	0000                	.insn	2, 0x0000
    1c532d8676a0:	50df 0823 0000      	.insn	6, 0x082350df
    1c532d8676a6:	0000                	.insn	2, 0x0000
    1c532d8676a8:	54df 0823 0000      	.insn	6, 0x082354df
    1c532d8676ae:	0000                	.insn	2, 0x0000
    1c532d8676b0:	58df 0823 0000      	.insn	6, 0x082358df
    1c532d8676b6:	0000                	.insn	2, 0x0000
    1c532d8676b8:	5cdf 0823 0000      	.insn	6, 0x08235cdf
    1c532d8676be:	0000                	.insn	2, 0x0000
    1c532d8676c0:	60df 0823 0000      	.insn	6, 0x082360df
    1c532d8676c6:	0000                	.insn	2, 0x0000
    1c532d8676c8:	64df 0823 0000      	.insn	6, 0x082364df
    1c532d8676ce:	0000                	.insn	2, 0x0000
    1c532d8676d0:	68df 0823 0000      	.insn	6, 0x082368df
    1c532d8676d6:	0000                	.insn	2, 0x0000
    1c532d8676d8:	6cdf 0823 0000      	.insn	6, 0x08236cdf
    1c532d8676de:	0000                	.insn	2, 0x0000
    1c532d8676e0:	70df 0823 0000      	.insn	6, 0x082370df
    1c532d8676e6:	0000                	.insn	2, 0x0000
    1c532d8676e8:	74df 0823 0000      	.insn	6, 0x082374df
    1c532d8676ee:	0000                	.insn	2, 0x0000
    1c532d8676f0:	78df 0823 0000      	.insn	6, 0x082378df
    1c532d8676f6:	0000                	.insn	2, 0x0000
    1c532d8676f8:	7cdf 0823 0000      	.insn	6, 0x08237cdf
    1c532d8676fe:	0000                	.insn	2, 0x0000
    1c532d867700:	80df 0823 0000      	.insn	6, 0x082380df
    1c532d867706:	0000                	.insn	2, 0x0000
    1c532d867708:	84df 0823 0000      	.insn	6, 0x082384df
    1c532d86770e:	0000                	.insn	2, 0x0000
    1c532d867710:	88df 0823 0000      	.insn	6, 0x082388df
    1c532d867716:	0000                	.insn	2, 0x0000
    1c532d867718:	8cdf 0823 0000      	.insn	6, 0x08238cdf
    1c532d86771e:	0000                	.insn	2, 0x0000
    1c532d867720:	90df 0823 0000      	.insn	6, 0x082390df
    1c532d867726:	0000                	.insn	2, 0x0000
    1c532d867728:	94df 0823 0000      	.insn	6, 0x082394df
    1c532d86772e:	0000                	.insn	2, 0x0000
    1c532d867730:	98df 0823 0000      	.insn	6, 0x082398df
    1c532d867736:	0000                	.insn	2, 0x0000
    1c532d867738:	9cdf 0823 0000      	.insn	6, 0x08239cdf
    1c532d86773e:	0000                	.insn	2, 0x0000
    1c532d867740:	a0df 0823 0000      	.insn	6, 0x0823a0df
    1c532d867746:	0000                	.insn	2, 0x0000
    1c532d867748:	a4df 0823 0000      	.insn	6, 0x0823a4df
    1c532d86774e:	0000                	.insn	2, 0x0000
    1c532d867750:	a8df 0823 0000      	.insn	6, 0x0823a8df
    1c532d867756:	0000                	.insn	2, 0x0000
    1c532d867758:	acdf 0823 0000      	.insn	6, 0x0823acdf
    1c532d86775e:	0000                	.insn	2, 0x0000
    1c532d867760:	b0df 0823 0000      	.insn	6, 0x0823b0df
    1c532d867766:	0000                	.insn	2, 0x0000
    1c532d867768:	b4df 0823 0000      	.insn	6, 0x0823b4df
    1c532d86776e:	0000                	.insn	2, 0x0000
    1c532d867770:	b8df 0823 0000      	.insn	6, 0x0823b8df
    1c532d867776:	0000                	.insn	2, 0x0000
    1c532d867778:	bcdf 0823 0000      	.insn	6, 0x0823bcdf
    1c532d86777e:	0000                	.insn	2, 0x0000
    1c532d867780:	c0df 0823 0000      	.insn	6, 0x0823c0df
    1c532d867786:	0000                	.insn	2, 0x0000
    1c532d867788:	c4df 0823 0000      	.insn	6, 0x0823c4df
    1c532d86778e:	0000                	.insn	2, 0x0000
    1c532d867790:	c8df 0823 0000      	.insn	6, 0x0823c8df
    1c532d867796:	0000                	.insn	2, 0x0000
    1c532d867798:	ccdf 0823 0000      	.insn	6, 0x0823ccdf
    1c532d86779e:	0000                	.insn	2, 0x0000
    1c532d8677a0:	d0df 0823 0000      	.insn	6, 0x0823d0df
    1c532d8677a6:	0000                	.insn	2, 0x0000
    1c532d8677a8:	d4df 0823 0000      	.insn	6, 0x0823d4df
    1c532d8677ae:	0000                	.insn	2, 0x0000
    1c532d8677b0:	d8df 0823 0000      	.insn	6, 0x0823d8df
    1c532d8677b6:	0000                	.insn	2, 0x0000
    1c532d8677b8:	dcdf 0823 0000      	.insn	6, 0x0823dcdf
    1c532d8677be:	0000                	.insn	2, 0x0000
    1c532d8677c0:	e0df 0823 0000      	.insn	6, 0x0823e0df
    1c532d8677c6:	0000                	.insn	2, 0x0000
    1c532d8677c8:	e4df 0823 0000      	.insn	6, 0x0823e4df
    1c532d8677ce:	0000                	.insn	2, 0x0000
    1c532d8677d0:	e8df 0823 0000      	.insn	6, 0x0823e8df
    1c532d8677d6:	0000                	.insn	2, 0x0000
    1c532d8677d8:	ecdf 0823 0000      	.insn	6, 0x0823ecdf
    1c532d8677de:	0000                	.insn	2, 0x0000
    1c532d8677e0:	f0df 0823 0000      	.insn	6, 0x0823f0df
    1c532d8677e6:	0000                	.insn	2, 0x0000
    1c532d8677e8:	f4df 0823 0000      	.insn	6, 0x0823f4df
    1c532d8677ee:	0000                	.insn	2, 0x0000
    1c532d8677f0:	f8df 0823 0000      	.insn	6, 0x0823f8df
    1c532d8677f6:	0000                	.insn	2, 0x0000
    1c532d8677f8:	fcdf 0823 0000      	.insn	6, 0x0823fcdf
	...

Disassembly of section .__pagetable_map_os_0x000217d78be6f000:

000217d78be6f000 <__pagetable_map_os_0x000217d78be6f000>:
	...
   217d78be6fea0:	622088d7          	vmseq.vv	v17,v2,v1
   217d78be6fea4:	0000                	.insn	2, 0x0000
	...

Disassembly of section .__pagetable_map_os_0x000003bd33621000:

000003bd33621000 <__pagetable_map_os_0x000003bd33621000>:
	...
 3bd336212f8:	335744d7          	vrgather.vx	v9,v21,x14
 3bd336212fc:	6536                	.insn	2, 0x6536
	...

Disassembly of section .__pagetable_map_os_0x00007bf50e3c1000:

00007bf50e3c1000 <__pagetable_map_os_0x00007bf50e3c1000>:
	...
    7bf50e3c1478:	6401                	.insn	2, 0x6401
    7bf50e3c147a:	a6e4                	.insn	2, 0xa6e4
    7bf50e3c147c:	0104                	.insn	2, 0x0104
	...

Disassembly of section .__pagetable_map_os_0x000004129b919000:

000004129b919000 <__pagetable_map_os_0x000004129b919000>:
	...
 4129b9194a0:	f0df a732 d782      	.insn	6, 0xd782a732f0df
 4129b9194a6:	0002                	.insn	2, 0x0002

Disassembly of section .__pagetable_map_os_0x00000000eb822000:

00000000eb822000 <__pagetable_map_os_0x00000000eb822000>:
	...
    eb822c00:	d001                	.insn	2, 0xd001
    eb822c02:	6be8                	.insn	2, 0x6be8
    eb822c04:	3ea1                	.insn	2, 0x3ea1
	...

Disassembly of section .__pagetable_map_os_0x0000fa85afa34000:

0000fa85afa34000 <__pagetable_map_os_0x0000fa85afa34000>:
    fa85afa34000:	00df 1c00 0000      	.insn	6, 0x1c0000df
	...

Disassembly of section .__pagetable_map_os_0x00000000fa7d0000:

00000000fa7d0000 <__pagetable_map_os_0x00000000fa7d0000>:
	...
    fa7d0b18:	ec01                	.insn	2, 0xec01
    fa7d0b1a:	3d24                	.insn	2, 0x3d24
    fa7d0b1c:	10ec                	.insn	2, 0x10ec
	...

Disassembly of section .__pagetable_map_os_0x000043b0f493b000:

000043b0f493b000 <__pagetable_map_os_0x000043b0f493b000>:
	...
    43b0f493b880:	40df ab1c 0011      	.insn	6, 0x0011ab1c40df
	...

Disassembly of section .__pagetable_map_os_0x00000018a2b7d000:

00000018a2b7d000 <__pagetable_map_os_0x00000018a2b7d000>:
	...
  18a2b7d178:	8801                	.insn	2, 0x8801
  18a2b7d17a:	4cd8                	.insn	2, 0x4cd8
  18a2b7d17c:	000000ef          	jal	18a2b7d17c <__pagetable_map_os_0x00000018a2b7d000+0x17c>

Disassembly of section .__pagetable_map_os_0x000003bd33622000:

000003bd33622000 <__pagetable_map_os_0x000003bd33622000>:
	...
 3bd33622eb8:	d0df 34f7 3e24      	.insn	6, 0x3e2434f7d0df
 3bd33622ebe:	0001                	.insn	2, 0x0001

Disassembly of section .__pagetable_map_os_0x00000113816dd000:

00000113816dd000 <__pagetable_map_os_0x00000113816dd000>:
	...
 113816dd3f0:	4c01                	.insn	2, 0x4c01
 113816dd3f2:	9fd2                	.insn	2, 0x9fd2
 113816dd3f4:	4160                	.insn	2, 0x4160
	...

Disassembly of section .__pagetable_map_os_0x000105827f493000:

000105827f493000 <__pagetable_map_os_0x000105827f493000>:
	...
   105827f493c08:	335748d3          	.insn	4, 0x335748d3
   105827f493c0c:	6536                	.insn	2, 0x6536
	...

Disassembly of section .__pagetable_map_os_0x00052bf43a201000:

00052bf43a201000 <__pagetable_map_os_0x00052bf43a201000>:
	...
   52bf43a201118:	6001                	.insn	2, 0x6001
   52bf43a20111a:	00004837          	lui	x16,0x4
	...

Disassembly of section .__pagetable_map_os_0x0000000120dd8000:

0000000120dd8000 <__pagetable_map_os_0x0000000120dd8000>:
	...
   120dd80a0:	ad808cd7          	vssra.vv	v25,v24,v1,v0.t
   120dd80a4:	00000007          	vle8.v	v0,(x0),v0.t

Disassembly of section .__pagetable_map_os_0x0000d377136fd000:

0000d377136fd000 <__pagetable_map_os_0x0000d377136fd000>:
	...
    d377136fd9e0:	bc01                	.insn	2, 0xbc01
    d377136fd9e2:	000725a7          	fsw	f0,11(x14)
	...

Disassembly of section .__pagetable_map_os_0x0000001c969ef000:

0000001c969ef000 <__pagetable_map_os_0x0000001c969ef000>:
	...
  1c969ef610:	347adcd7          	.insn	4, 0x347adcd7
  1c969ef614:	0048                	.insn	2, 0x0048
	...

Disassembly of section .__pagetable_map_os_0x0000024fae5d9000:

0000024fae5d9000 <__pagetable_map_os_0x0000024fae5d9000>:
	...
 24fae5d9d90:	e001                	.insn	2, 0xe001
 24fae5d9d92:	a6d9                	.insn	2, 0xa6d9
 24fae5d9d94:	0002c32f          	.insn	4, 0x0002c32f

Disassembly of section .__pagetable_map_os_0x000b0cbe9b678000:

000b0cbe9b678000 <__pagetable_map_os_0x000b0cbe9b678000>:
	...
   b0cbe9b678670:	067decd7          	.insn	4, 0x067decd7
   b0cbe9b678674:	e46e                	.insn	2, 0xe46e
   b0cbe9b678676:	0002                	.insn	2, 0x0002

Disassembly of section .__pagetable_map_os_0x00000b373e4a0000:

00000b373e4a0000 <__pagetable_map_os_0x00000b373e4a0000>:
	...
 b373e4a0ca8:	e401                	.insn	2, 0xe401
 b373e4a0caa:	e359                	.insn	2, 0xe359
 b373e4a0cac:	000009db          	.insn	4, 0x09db
	...
 b373e4a0dd8:	3401                	.insn	2, 0x3401
 b373e4a0dda:	4399                	.insn	2, 0x4399
 b373e4a0ddc:	011d                	.insn	2, 0x011d
	...

Disassembly of section .__pagetable_map_os_0x0000276f8d679000:

0000276f8d679000 <__pagetable_map_os_0x0000276f8d679000>:
	...
    276f8d679e90:	d001                	.insn	2, 0xd001
    276f8d679e92:	f150                	.insn	2, 0xf150
    276f8d679e94:	00000277          	.insn	4, 0x0277

Disassembly of section .__pagetable_map_os_0x000009dfc5434000:

000009dfc5434000 <__pagetable_map_os_0x000009dfc5434000>:
	...
 9dfc5434940:	20df bae3 1e69      	.insn	6, 0x1e69bae320df
	...

Disassembly of section .__pagetable_map_os_0x000004750e64d000:

000004750e64d000 <__pagetable_map_os_0x000004750e64d000>:
	...
 4750e64dc40:	4801                	.insn	2, 0x4801
 4750e64dc42:	9fd2                	.insn	2, 0x9fd2
 4750e64dc44:	4160                	.insn	2, 0x4160
	...

Disassembly of section .__pagetable_map_os_0x000105827f492000:

000105827f492000 <__pagetable_map_os_0x000105827f492000>:
	...
   105827f4920d8:	2f8e5cd7          	.insn	4, 0x2f8e5cd7
   105827f4920dc:	00000647          	fmsub.s	f12,f0,f0,f0,rne

Disassembly of section .__pagetable_map_os_0x0001059cdb4a8000:

0001059cdb4a8000 <__pagetable_map_os_0x0001059cdb4a8000>:
	...
   1059cdb4a8d78:	5c01                	.insn	2, 0x5c01
   1059cdb4a8d7a:	c5a0                	.insn	2, 0xc5a0
   1059cdb4a8d7c:	00000063          	beqz	x0,1059cdb4a8d7c <__pagetable_map_os_0x0001059cdb4a8000+0xd7c>

Disassembly of section .__pagetable_map_os_0x0000018f16817000:

0000018f16817000 <__pagetable_map_os_0x0000018f16817000>:
	...
 18f16817768:	e001                	.insn	2, 0xe001
 18f1681776a:	5a82                	.insn	2, 0x5a82
 18f1681776c:	0002                	.insn	2, 0x0002
	...

Disassembly of section .__pagetable_map_os_0x000000096a0b8000:

000000096a0b8000 <__pagetable_map_os_0x000000096a0b8000>:
	...
   96a0b87c0:	785058d7          	.insn	4, 0x785058d7
   96a0b87c4:	00000127          	vse8.v	v2,(x0),v0.t
	...
   96a0b8848:	2f8e58d7          	.insn	4, 0x2f8e58d7
   96a0b884c:	00000647          	fmsub.s	f12,f0,f0,f0,rne

Disassembly of section .__pagetable_map_os_0x0000007442be5000:

0000007442be5000 <__pagetable_map_os_0x0000007442be5000>:
	...
  7442be5be8:	2401                	.insn	2, 0x2401
  7442be5bea:	6495                	.insn	2, 0x6495
  7442be5bec:	01de                	.insn	2, 0x01de
	...
  7442be5f66:	0000                	.insn	2, 0x0000
  7442be5f68:	f801                	.insn	2, 0xf801
  7442be5f6a:	deb8                	.insn	2, 0xdeb8
  7442be5f6c:	0001                	.insn	2, 0x0001
	...

Disassembly of section .__pagetable_map_os_0x000000077ae3e000:

000000077ae3e000 <__pagetable_map_os_0x000000077ae3e000>:
	...
   77ae3e408:	1001                	.insn	2, 0x1001
   77ae3e40a:	37f6                	.insn	2, 0x37f6
   77ae3e40c:	0011                	.insn	2, 0x0011
	...

Disassembly of section .__pagetable_map_os_0x00000044dfd84000:

00000044dfd84000 <__pagetable_map_os_0x00000044dfd84000>:
	...
  44dfd84d30:	7eed00d7          	.insn	4, 0x7eed00d7
  44dfd84d34:	0000                	.insn	2, 0x0000
	...

Disassembly of section .__pagetable_map_os_0x0000077992549000:

0000077992549000 <__pagetable_map_os_0x0000077992549000>:
	...
 779925490a8:	7001                	.insn	2, 0x7001
 779925490aa:	000f7c7b          	.insn	4, 0x000f7c7b
	...

Disassembly of section .__pagetable_map_os_0x0000003df1edc000:

0000003df1edc000 <__pagetable_map_os_0x0000003df1edc000>:
	...
  3df1edcf40:	3e8a58d7          	vfslide1down.vf	v17,v8,f20
  3df1edcf44:	6cf2                	.insn	2, 0x6cf2
  3df1edcf46:	0003                	.short	0x0003

Disassembly of section .__pagetable_map_os_0x0000003c86d5b000:

0000003c86d5b000 <__pagetable_map_os_0x0000003c86d5b000>:
	...
  3c86d5b0d8:	4c01                	.insn	2, 0x4c01
  3c86d5b0da:	09c9                	.insn	2, 0x09c9
  3c86d5b0dc:	7252                	.insn	2, 0x7252
	...

Disassembly of section .__pagetable_map_os_0x0001c94827253000:

0001c94827253000 <__pagetable_map_os_0x0001c94827253000>:
	...
   1c94827253270:	8001                	.insn	2, 0x8001
   1c94827253272:	c58d                	.insn	2, 0xc58d
   1c94827253274:	00000107          	vle8.v	v2,(x0),v0.t

Disassembly of section .__pagetable_map_os_0x0000041f16360000:

0000041f16360000 <__pagetable_map_os_0x0000041f16360000>:
	...
 41f16360640:	0e6900d7          	.insn	4, 0x0e6900d7
 41f16360644:	9c4e                	.insn	2, 0x9c4e
	...

Disassembly of section .__pagetable_map_os_0x0000001e8042f000:

0000001e8042f000 <__pagetable_map_os_0x0000001e8042f000>:
	...
  1e8042fb38:	c401                	.insn	2, 0xc401
  1e8042fb3a:	9bb1                	.insn	2, 0x9bb1
  1e8042fb3c:	0012                	.insn	2, 0x0012
	...

Disassembly of section .__pagetable_map_os_0x0000004a6ec71000:

0000004a6ec71000 <__pagetable_map_os_0x0000004a6ec71000>:
	...
  4a6ec71c00:	a001                	.insn	2, 0xa001
  4a6ec71c02:	33b115af          	.insn	4, 0x33b115af
	...

Disassembly of section .__pagetable_map_os_0x0000cec456be8000:

0000cec456be8000 <__pagetable_map_os_0x0000cec456be8000>:
	...
    cec456be8b20:	06d2ecd7          	.insn	4, 0x06d2ecd7
    cec456be8b24:	0066                	.insn	2, 0x0066
	...
