
/home/abdullah/RiescueC/riescue/10x_R/zjpm/testsuite/zjpm/user_sv48/tp_zjpm_2:     file format elf64-littleriscv


Disassembly of section .runtime:

0000000080000000 <_start>:
    80000000:	00000093          	li	x1,0
    80000004:	00000113          	li	x2,0
    80000008:	00000193          	li	x3,0
    8000000c:	00000213          	li	x4,0
    80000010:	00000293          	li	x5,0
    80000014:	00000313          	li	x6,0
    80000018:	00000393          	li	x7,0
    8000001c:	00000413          	li	x8,0
    80000020:	00000493          	li	x9,0
    80000024:	00000513          	li	x10,0
    80000028:	00000593          	li	x11,0
    8000002c:	00000613          	li	x12,0
    80000030:	00000693          	li	x13,0
    80000034:	00000713          	li	x14,0
    80000038:	00000793          	li	x15,0
    8000003c:	00000813          	li	x16,0
    80000040:	00000893          	li	x17,0
    80000044:	00000913          	li	x18,0
    80000048:	00000993          	li	x19,0
    8000004c:	00000a13          	li	x20,0
    80000050:	00000a93          	li	x21,0
    80000054:	00000b13          	li	x22,0
    80000058:	00000b93          	li	x23,0
    8000005c:	00000c13          	li	x24,0
    80000060:	00000c93          	li	x25,0
    80000064:	00000d13          	li	x26,0
    80000068:	00000d93          	li	x27,0
    8000006c:	00000e13          	li	x28,0
    80000070:	00000e93          	li	x29,0
    80000074:	00000f13          	li	x30,0
    80000078:	00000f93          	li	x31,0

000000008000007c <loader__load_panic_address>:
    8000007c:	00001297          	auipc	x5,0x1
    80000080:	cc028293          	addi	x5,x5,-832 # 80000d3c <eot__failed>
    80000084:	30529073          	csrw	mtvec,x5

0000000080000088 <loader__initialize_runtime>:
    80000088:	0010029b          	addiw	x5,x0,1
    8000008c:	03229293          	slli	x5,x5,0x32
    80000090:	20128293          	addi	x5,x5,513
    80000094:	00c29293          	slli	x5,x5,0xc
    80000098:	1ad28293          	addi	x5,x5,429
    8000009c:	3012a2f3          	csrrs	x5,misa,x5

00000000800000a0 <loader__set_mstatus>:
    800000a0:	000422b7          	lui	x5,0x42
    800000a4:	20a2829b          	addiw	x5,x5,522 # 4220a <_all_interrupts+0x3f760>
    800000a8:	3002a2f3          	csrrs	x5,mstatus,x5

00000000800000ac <loader__init_fp_registers>:
    800000ac:	000412b7          	lui	x5,0x41
    800000b0:	5a72829b          	addiw	x5,x5,1447 # 415a7 <_all_interrupts+0x3eafd>
    800000b4:	01229293          	slli	x5,x5,0x12
    800000b8:	0bf28293          	addi	x5,x5,191
    800000bc:	00e29293          	slli	x5,x5,0xe
    800000c0:	09828293          	addi	x5,x5,152
    800000c4:	0002b007          	fld	f0,0(x5)
    800000c8:	0002b087          	fld	f1,0(x5)
    800000cc:	0002b107          	fld	f2,0(x5)
    800000d0:	0002b187          	fld	f3,0(x5)
    800000d4:	0002b207          	fld	f4,0(x5)
    800000d8:	0002b287          	fld	f5,0(x5)
    800000dc:	0002b307          	fld	f6,0(x5)
    800000e0:	0002b387          	fld	f7,0(x5)
    800000e4:	0002b407          	fld	f8,0(x5)
    800000e8:	0002b487          	fld	f9,0(x5)
    800000ec:	0002b507          	fld	f10,0(x5)
    800000f0:	0002b587          	fld	f11,0(x5)
    800000f4:	0002b607          	fld	f12,0(x5)
    800000f8:	0002b687          	fld	f13,0(x5)
    800000fc:	0002b707          	fld	f14,0(x5)
    80000100:	0002b787          	fld	f15,0(x5)
    80000104:	0002b807          	fld	f16,0(x5)
    80000108:	0002b887          	fld	f17,0(x5)
    8000010c:	0002b907          	fld	f18,0(x5)
    80000110:	0002b987          	fld	f19,0(x5)
    80000114:	0002ba07          	fld	f20,0(x5)
    80000118:	0002ba87          	fld	f21,0(x5)
    8000011c:	0002bb07          	fld	f22,0(x5)
    80000120:	0002bb87          	fld	f23,0(x5)
    80000124:	0002bc07          	fld	f24,0(x5)
    80000128:	0002bc87          	fld	f25,0(x5)
    8000012c:	0002bd07          	fld	f26,0(x5)
    80000130:	0002bd87          	fld	f27,0(x5)
    80000134:	0002be07          	fld	f28,0(x5)
    80000138:	0002be87          	fld	f29,0(x5)
    8000013c:	0002bf07          	fld	f30,0(x5)
    80000140:	0002bf87          	fld	f31,0(x5)

0000000080000144 <loader__init_vector_registers>:
    80000144:	00000213          	li	x4,0
    80000148:	00400293          	li	x5,4
    8000014c:	0d800313          	li	x6,216
    80000150:	8062f257          	vsetvl	x4,x5,x6
    80000154:	5e004057          	vmv.v.x	v0,x0
    80000158:	5e0040d7          	vmv.v.x	v1,x0
    8000015c:	5e004157          	vmv.v.x	v2,x0
    80000160:	5e0041d7          	vmv.v.x	v3,x0
    80000164:	5e004257          	vmv.v.x	v4,x0
    80000168:	5e0042d7          	vmv.v.x	v5,x0
    8000016c:	5e004357          	vmv.v.x	v6,x0
    80000170:	5e0043d7          	vmv.v.x	v7,x0
    80000174:	5e004457          	vmv.v.x	v8,x0
    80000178:	5e0044d7          	vmv.v.x	v9,x0
    8000017c:	5e004557          	vmv.v.x	v10,x0
    80000180:	5e0045d7          	vmv.v.x	v11,x0
    80000184:	5e004657          	vmv.v.x	v12,x0
    80000188:	5e0046d7          	vmv.v.x	v13,x0
    8000018c:	5e004757          	vmv.v.x	v14,x0
    80000190:	5e0047d7          	vmv.v.x	v15,x0
    80000194:	5e004857          	vmv.v.x	v16,x0
    80000198:	5e0048d7          	vmv.v.x	v17,x0
    8000019c:	5e004957          	vmv.v.x	v18,x0
    800001a0:	5e0049d7          	vmv.v.x	v19,x0
    800001a4:	5e004a57          	vmv.v.x	v20,x0
    800001a8:	5e004ad7          	vmv.v.x	v21,x0
    800001ac:	5e004b57          	vmv.v.x	v22,x0
    800001b0:	5e004bd7          	vmv.v.x	v23,x0
    800001b4:	5e004c57          	vmv.v.x	v24,x0
    800001b8:	5e004cd7          	vmv.v.x	v25,x0
    800001bc:	5e004d57          	vmv.v.x	v26,x0
    800001c0:	5e004dd7          	vmv.v.x	v27,x0
    800001c4:	5e004e57          	vmv.v.x	v28,x0
    800001c8:	5e004ed7          	vmv.v.x	v29,x0
    800001cc:	5e004f57          	vmv.v.x	v30,x0
    800001d0:	5e004fd7          	vmv.v.x	v31,x0
    800001d4:	00fac237          	lui	x4,0xfac
    800001d8:	0832021b          	addiw	x4,x4,131 # fac083 <mem1+0xa36083>
    800001dc:	00c21213          	slli	x4,x4,0xc
    800001e0:	b2320213          	addi	x4,x4,-1245 # fffffffffffffb23 <MISA_BITS+0xbfffffffffdfe976>
    800001e4:	00c21213          	slli	x4,x4,0xc
    800001e8:	34021073          	csrw	mscratch,x4
    800001ec:	42195237          	lui	x4,0x42195
    800001f0:	14021073          	csrw	sscratch,x4
    800001f4:	00fac237          	lui	x4,0xfac
    800001f8:	0832021b          	addiw	x4,x4,131 # fac083 <mem1+0xa36083>
    800001fc:	00c21213          	slli	x4,x4,0xc
    80000200:	b2320213          	addi	x4,x4,-1245 # fffffffffffffb23 <MISA_BITS+0xbfffffffffdfe976>
    80000204:	00c21213          	slli	x4,x4,0xc

0000000080000208 <loader__setup_medeleg>:
    80000208:	009262b7          	lui	x5,0x926
    8000020c:	e472829b          	addiw	x5,x5,-441 # 925e47 <mem1+0x3afe47>
    80000210:	00c29293          	slli	x5,x5,0xc
    80000214:	49b28293          	addi	x5,x5,1179
    80000218:	00c29293          	slli	x5,x5,0xc
    8000021c:	57528293          	addi	x5,x5,1397
    80000220:	00c29293          	slli	x5,x5,0xc
    80000224:	0d128293          	addi	x5,x5,209
    80000228:	30229073          	csrw	medeleg,x5

000000008000022c <loader__setup_mideleg>:
    8000022c:	28000293          	li	x5,640
    80000230:	30329073          	csrw	mideleg,x5

0000000080000234 <loader__setup_tvec>:
    80000234:	00000297          	auipc	x5,0x0
    80000238:	58428293          	addi	x5,x5,1412 # 800007b8 <trap_handler_m__trap_entry>
    8000023c:	30529073          	csrw	mtvec,x5
    80000240:	00011297          	auipc	x5,0x11
    80000244:	e3828293          	addi	x5,x5,-456 # 80011078 <trap_handler_s__trap_entry>
    80000248:	10529073          	csrw	stvec,x5

000000008000024c <loader__enable_paging>:
    8000024c:	fe4000b7          	lui	x1,0xfe400
    80000250:	0830809b          	addiw	x1,x1,131 # fffffffffe400083 <MISA_BITS+0xbffffffffe1feed6>
    80000254:	00c09093          	slli	x1,x1,0xc
    80000258:	70708093          	addi	x1,x1,1799
    8000025c:	00c09093          	slli	x1,x1,0xc
    80000260:	87108093          	addi	x1,x1,-1935
    80000264:	00e09093          	slli	x1,x1,0xe
    80000268:	f4208093          	addi	x1,x1,-190
    8000026c:	18009073          	csrw	satp,x1

0000000080000270 <loader__done>:
    80000270:	2f50006f          	j	80000d64 <scheduler__init>

0000000080000274 <loader__panic>:
    80000274:	2c90006f          	j	80000d3c <eot__failed>

0000000080000278 <syscalls__syscall_check_schedule_next_test>:
    80000278:	00f0029b          	addiw	x5,x0,15
    8000027c:	01c29293          	slli	x5,x5,0x1c
    80000280:	00128293          	addi	x5,x5,1
    80000284:	01f29a63          	bne	x5,x31,80000298 <syscalls__syscall_check_fail_test>
    80000288:	00000317          	auipc	x6,0x0
    8000028c:	53030313          	addi	x6,x6,1328 # 800007b8 <trap_handler_m__trap_entry>
    80000290:	30531073          	csrw	mtvec,x6
    80000294:	7680006f          	j	800009fc <enter_scheduler>

0000000080000298 <syscalls__syscall_check_fail_test>:
    80000298:	00f0029b          	addiw	x5,x0,15
    8000029c:	01c29293          	slli	x5,x5,0x1c
    800002a0:	00228293          	addi	x5,x5,2
    800002a4:	01f29a63          	bne	x5,x31,800002b8 <syscalls__syscall_check_end_test_without_failure>
    800002a8:	00000317          	auipc	x6,0x0
    800002ac:	51030313          	addi	x6,x6,1296 # 800007b8 <trap_handler_m__trap_entry>
    800002b0:	30531073          	csrw	mtvec,x6
    800002b4:	7780006f          	j	80000a2c <test_failed>

00000000800002b8 <syscalls__syscall_check_end_test_without_failure>:
    800002b8:	00f0029b          	addiw	x5,x0,15
    800002bc:	01c29293          	slli	x5,x5,0x1c
    800002c0:	00328293          	addi	x5,x5,3
    800002c4:	01f29a63          	bne	x5,x31,800002d8 <syscalls__syscall_check_switch_machine_mode>
    800002c8:	00000317          	auipc	x6,0x0
    800002cc:	4f030313          	addi	x6,x6,1264 # 800007b8 <trap_handler_m__trap_entry>
    800002d0:	30531073          	csrw	mtvec,x6
    800002d4:	7640006f          	j	80000a38 <os_end_test>

00000000800002d8 <syscalls__syscall_check_switch_machine_mode>:
    800002d8:	000f02b7          	lui	x5,0xf0
    800002dc:	0012829b          	addiw	x5,x5,1 # f0001 <mem7+0x6c001>
    800002e0:	00c29293          	slli	x5,x5,0xc
    800002e4:	00128293          	addi	x5,x5,1
    800002e8:	0a5f8463          	beq	x31,x5,80000390 <syscalls__os_fn_f0001001>

00000000800002ec <syscalls__syscall_check_switch_super_mode>:
    800002ec:	000f02b7          	lui	x5,0xf0
    800002f0:	0012829b          	addiw	x5,x5,1 # f0001 <mem7+0x6c001>
    800002f4:	00c29293          	slli	x5,x5,0xc
    800002f8:	00228293          	addi	x5,x5,2
    800002fc:	0c5f8463          	beq	x31,x5,800003c4 <syscalls__os_fn_f0001002>

0000000080000300 <syscalls__syscall_check_switch_user_mode>:
    80000300:	000f02b7          	lui	x5,0xf0
    80000304:	0012829b          	addiw	x5,x5,1 # f0001 <mem7+0x6c001>
    80000308:	00c29293          	slli	x5,x5,0xc
    8000030c:	00328293          	addi	x5,x5,3
    80000310:	0e5f8663          	beq	x31,x5,800003fc <syscalls__os_fn_f0001003>

0000000080000314 <syscalls__syscall_check_switch_test_mode>:
    80000314:	000f02b7          	lui	x5,0xf0
    80000318:	0012829b          	addiw	x5,x5,1 # f0001 <mem7+0x6c001>
    8000031c:	00c29293          	slli	x5,x5,0xc
    80000320:	00428293          	addi	x5,x5,4
    80000324:	0e5f8463          	beq	x31,x5,8000040c <syscalls__os_fn_f0001004>

0000000080000328 <syscalls__syscall_machine_csr_rw>:
    80000328:	000f02b7          	lui	x5,0xf0
    8000032c:	0012829b          	addiw	x5,x5,1 # f0001 <mem7+0x6c001>
    80000330:	00c29293          	slli	x5,x5,0xc
    80000334:	00528293          	addi	x5,x5,5
    80000338:	0e5f8e63          	beq	x31,x5,80000434 <syscalls__os_fn_f0001005>

000000008000033c <syscalls__syscall_supervisor_csr_rw>:
    8000033c:	000f02b7          	lui	x5,0xf0
    80000340:	0012829b          	addiw	x5,x5,1 # f0001 <mem7+0x6c001>
    80000344:	00c29293          	slli	x5,x5,0xc
    80000348:	00628293          	addi	x5,x5,6
    8000034c:	105f8e63          	beq	x31,x5,80000468 <syscalls__os_fn_f0001006>

0000000080000350 <syscalls__syscall_machine_pte_read>:
    80000350:	000f02b7          	lui	x5,0xf0
    80000354:	0012829b          	addiw	x5,x5,1 # f0001 <mem7+0x6c001>
    80000358:	00c29293          	slli	x5,x5,0xc
    8000035c:	00728293          	addi	x5,x5,7
    80000360:	145f8063          	beq	x31,x5,800004a0 <syscalls__os_fn_f0001007>

0000000080000364 <syscalls__syscall_machine_pte_write>:
    80000364:	000f02b7          	lui	x5,0xf0
    80000368:	0012829b          	addiw	x5,x5,1 # f0001 <mem7+0x6c001>
    8000036c:	00c29293          	slli	x5,x5,0xc
    80000370:	00828293          	addi	x5,x5,8
    80000374:	265f8463          	beq	x31,x5,800005dc <syscalls__os_fn_f0001008>

0000000080000378 <syscalls__syscall_check_get_hart_context>:
    80000378:	000782b7          	lui	x5,0x78
    8000037c:	0012829b          	addiw	x5,x5,1 # 78001 <_all_interrupts+0x75557>
    80000380:	00d29293          	slli	x5,x5,0xd
    80000384:	00128293          	addi	x5,x5,1
    80000388:	385f8863          	beq	x31,x5,80000718 <syscalls__os_get_hart_context>
    8000038c:	5880006f          	j	80000914 <trap_handler_m__check_exception_label>

0000000080000390 <syscalls__os_fn_f0001001>:
    80000390:	000022b7          	lui	x5,0x2
    80000394:	8002829b          	addiw	x5,x5,-2048 # 1800 <FS_RANDOMIZATION+0x179c>
    80000398:	3002b073          	csrc	mstatus,x5
    8000039c:	000022b7          	lui	x5,0x2
    800003a0:	8002829b          	addiw	x5,x5,-2048 # 1800 <FS_RANDOMIZATION+0x179c>
    800003a4:	3002a073          	csrs	mstatus,x5
    800003a8:	0010029b          	addiw	x5,x0,1
    800003ac:	02729293          	slli	x5,x5,0x27
    800003b0:	3002b073          	csrc	mstatus,x5
    800003b4:	000802b7          	lui	x5,0x80
    800003b8:	1952829b          	addiw	x5,x5,405 # 80195 <_all_interrupts+0x7d6eb>
    800003bc:	00c29293          	slli	x5,x5,0xc
    800003c0:	3680006f          	j	80000728 <syscalls__ret_from_os_fn>

00000000800003c4 <syscalls__os_fn_f0001002>:
    800003c4:	000022b7          	lui	x5,0x2
    800003c8:	8002829b          	addiw	x5,x5,-2048 # 1800 <FS_RANDOMIZATION+0x179c>
    800003cc:	3002b073          	csrc	mstatus,x5
    800003d0:	000012b7          	lui	x5,0x1
    800003d4:	8002829b          	addiw	x5,x5,-2048 # 800 <FS_RANDOMIZATION+0x79c>
    800003d8:	3002a073          	csrs	mstatus,x5
    800003dc:	0010029b          	addiw	x5,x0,1
    800003e0:	02729293          	slli	x5,x5,0x27
    800003e4:	3002b073          	csrc	mstatus,x5
    800003e8:	12000073          	sfence.vma
    800003ec:	000802b7          	lui	x5,0x80
    800003f0:	0952829b          	addiw	x5,x5,149 # 80095 <_all_interrupts+0x7d5eb>
    800003f4:	00c29293          	slli	x5,x5,0xc
    800003f8:	3300006f          	j	80000728 <syscalls__ret_from_os_fn>

00000000800003fc <syscalls__os_fn_f0001003>:
    800003fc:	000802b7          	lui	x5,0x80
    80000400:	1152829b          	addiw	x5,x5,277 # 80115 <_all_interrupts+0x7d66b>
    80000404:	00c29293          	slli	x5,x5,0xc
    80000408:	3200006f          	j	80000728 <syscalls__ret_from_os_fn>

000000008000040c <syscalls__os_fn_f0001004>:
    8000040c:	000022b7          	lui	x5,0x2
    80000410:	8002829b          	addiw	x5,x5,-2048 # 1800 <FS_RANDOMIZATION+0x179c>
    80000414:	3002b073          	csrc	mstatus,x5
    80000418:	00000293          	li	x5,0
    8000041c:	3002a073          	csrs	mstatus,x5
    80000420:	0010029b          	addiw	x5,x0,1
    80000424:	02729293          	slli	x5,x5,0x27
    80000428:	3002b073          	csrc	mstatus,x5
    8000042c:	17823283          	ld	x5,376(x4) # 178 <FS_RANDOMIZATION+0x114>
    80000430:	2f80006f          	j	80000728 <syscalls__ret_from_os_fn>

0000000080000434 <syscalls__os_fn_f0001005>:
    80000434:	000022b7          	lui	x5,0x2
    80000438:	8002829b          	addiw	x5,x5,-2048 # 1800 <FS_RANDOMIZATION+0x179c>
    8000043c:	3002b073          	csrc	mstatus,x5
    80000440:	000022b7          	lui	x5,0x2
    80000444:	8002829b          	addiw	x5,x5,-2048 # 1800 <FS_RANDOMIZATION+0x179c>
    80000448:	3002a073          	csrs	mstatus,x5
    8000044c:	0010029b          	addiw	x5,x0,1
    80000450:	02729293          	slli	x5,x5,0x27
    80000454:	3002b073          	csrc	mstatus,x5
    80000458:	000802b7          	lui	x5,0x80
    8000045c:	2152829b          	addiw	x5,x5,533 # 80215 <_all_interrupts+0x7d76b>
    80000460:	00c29293          	slli	x5,x5,0xc
    80000464:	2c40006f          	j	80000728 <syscalls__ret_from_os_fn>

0000000080000468 <syscalls__os_fn_f0001006>:
    80000468:	000022b7          	lui	x5,0x2
    8000046c:	8002829b          	addiw	x5,x5,-2048 # 1800 <FS_RANDOMIZATION+0x179c>
    80000470:	3002b073          	csrc	mstatus,x5
    80000474:	000012b7          	lui	x5,0x1
    80000478:	8002829b          	addiw	x5,x5,-2048 # 800 <FS_RANDOMIZATION+0x79c>
    8000047c:	3002a073          	csrs	mstatus,x5
    80000480:	0010029b          	addiw	x5,x0,1
    80000484:	02729293          	slli	x5,x5,0x27
    80000488:	3002b073          	csrc	mstatus,x5
    8000048c:	12000073          	sfence.vma
    80000490:	000402b7          	lui	x5,0x40
    80000494:	10b2829b          	addiw	x5,x5,267 # 4010b <_all_interrupts+0x3d661>
    80000498:	00d29293          	slli	x5,x5,0xd
    8000049c:	28c0006f          	j	80000728 <syscalls__ret_from_os_fn>

00000000800004a0 <syscalls__os_fn_f0001007>:
    800004a0:	00041fb7          	lui	x31,0x41
    800004a4:	5a7f8f9b          	addiw	x31,x31,1447 # 415a7 <_all_interrupts+0x3eafd>
    800004a8:	012f9f93          	slli	x31,x31,0x12
    800004ac:	0bff8f93          	addi	x31,x31,191
    800004b0:	00ef9f93          	slli	x31,x31,0xe
    800004b4:	0b0f8f93          	addi	x31,x31,176
    800004b8:	000fbf83          	ld	x31,0(x31)
    800004bc:	000412b7          	lui	x5,0x41
    800004c0:	5a72829b          	addiw	x5,x5,1447 # 415a7 <_all_interrupts+0x3eafd>
    800004c4:	01229293          	slli	x5,x5,0x12
    800004c8:	0bf28293          	addi	x5,x5,191
    800004cc:	00e29293          	slli	x5,x5,0xe
    800004d0:	0b828293          	addi	x5,x5,184
    800004d4:	0002b283          	ld	x5,0(x5)
    800004d8:	00041e37          	lui	x28,0x41
    800004dc:	5a7e0e1b          	addiw	x28,x28,1447 # 415a7 <_all_interrupts+0x3eafd>
    800004e0:	012e1e13          	slli	x28,x28,0x12
    800004e4:	0bfe0e13          	addi	x28,x28,191
    800004e8:	00ee1e13          	slli	x28,x28,0xe
    800004ec:	0c0e0e13          	addi	x28,x28,192
    800004f0:	000e3e03          	ld	x28,0(x28)

00000000800004f4 <syscalls__pte_walk_check_glevel_without_gstage_read>:
    800004f4:	fff00f93          	li	x31,-1
    800004f8:	0ffe1063          	bne	x28,x31,800005d8 <syscalls__pte_walk_fail_read>
    800004fc:	18002373          	csrr	x6,satp
    80000500:	03c35e93          	srli	x29,x6,0x3c
    80000504:	01431313          	slli	x6,x6,0x14
    80000508:	01435313          	srli	x6,x6,0x14
    8000050c:	00c31313          	slli	x6,x6,0xc
    80000510:	ff8e8e93          	addi	x29,x29,-8
    80000514:	003e9f13          	slli	x30,x29,0x3
    80000518:	01df0eb3          	add	x29,x30,x29
    8000051c:	01ee8e93          	addi	x29,x29,30
    80000520:	00000f13          	li	x30,0

0000000080000524 <syscalls__pte_walk_loop_read>:
    80000524:	00041fb7          	lui	x31,0x41
    80000528:	5a7f8f9b          	addiw	x31,x31,1447 # 415a7 <_all_interrupts+0x3eafd>
    8000052c:	012f9f93          	slli	x31,x31,0x12
    80000530:	0bff8f93          	addi	x31,x31,191
    80000534:	00ef9f93          	slli	x31,x31,0xe
    80000538:	0b0f8f93          	addi	x31,x31,176
    8000053c:	000fbf83          	ld	x31,0(x31)
    80000540:	01dfdfb3          	srl	x31,x31,x29
    80000544:	1fffff93          	andi	x31,x31,511
    80000548:	003f9f93          	slli	x31,x31,0x3
    8000054c:	01f30333          	add	x6,x6,x31
    80000550:	005f0e63          	beq	x30,x5,8000056c <syscalls__pte_walk_done_read>
    80000554:	00033f83          	ld	x31,0(x6)
    80000558:	00afdf93          	srli	x31,x31,0xa
    8000055c:	00cf9313          	slli	x6,x31,0xc
    80000560:	001f0f13          	addi	x30,x30,1
    80000564:	ff7e8e93          	addi	x29,x29,-9
    80000568:	fbdff06f          	j	80000524 <syscalls__pte_walk_loop_read>

000000008000056c <syscalls__pte_walk_done_read>:
    8000056c:	fff00f93          	li	x31,-1
    80000570:	05fe0a63          	beq	x28,x31,800005c4 <syscalls__pte_walk_final_read>

0000000080000574 <syscalls__pte_walk_gstage_read>:
    80000574:	00041fb7          	lui	x31,0x41
    80000578:	5a7f8f9b          	addiw	x31,x31,1447 # 415a7 <_all_interrupts+0x3eafd>
    8000057c:	012f9f93          	slli	x31,x31,0x12
    80000580:	0bff8f93          	addi	x31,x31,191
    80000584:	00ef9f93          	slli	x31,x31,0xe
    80000588:	0b0f8f93          	addi	x31,x31,176
    8000058c:	006fb023          	sd	x6,0(x31)
    80000590:	000e0293          	mv	x5,x28
    80000594:	fff00e13          	li	x28,-1
    80000598:	68002373          	csrr	x6,hgatp
    8000059c:	03c35e93          	srli	x29,x6,0x3c
    800005a0:	01431313          	slli	x6,x6,0x14
    800005a4:	01435313          	srli	x6,x6,0x14
    800005a8:	00c31313          	slli	x6,x6,0xc
    800005ac:	ff8e8e93          	addi	x29,x29,-8
    800005b0:	003e9f13          	slli	x30,x29,0x3
    800005b4:	01df0eb3          	add	x29,x30,x29
    800005b8:	01ee8e93          	addi	x29,x29,30
    800005bc:	00000f13          	li	x30,0
    800005c0:	f65ff06f          	j	80000524 <syscalls__pte_walk_loop_read>

00000000800005c4 <syscalls__pte_walk_final_read>:
    800005c4:	00033383          	ld	x7,0(x6)
    800005c8:	341022f3          	csrr	x5,mepc
    800005cc:	00428293          	addi	x5,x5,4
    800005d0:	16523c23          	sd	x5,376(x4) # 178 <FS_RANDOMIZATION+0x114>
    800005d4:	e39ff06f          	j	8000040c <syscalls__os_fn_f0001004>

00000000800005d8 <syscalls__pte_walk_fail_read>:
    800005d8:	4540006f          	j	80000a2c <test_failed>

00000000800005dc <syscalls__os_fn_f0001008>:
    800005dc:	00041fb7          	lui	x31,0x41
    800005e0:	5a7f8f9b          	addiw	x31,x31,1447 # 415a7 <_all_interrupts+0x3eafd>
    800005e4:	012f9f93          	slli	x31,x31,0x12
    800005e8:	0bff8f93          	addi	x31,x31,191
    800005ec:	00ef9f93          	slli	x31,x31,0xe
    800005f0:	0b0f8f93          	addi	x31,x31,176
    800005f4:	000fbf83          	ld	x31,0(x31)
    800005f8:	000412b7          	lui	x5,0x41
    800005fc:	5a72829b          	addiw	x5,x5,1447 # 415a7 <_all_interrupts+0x3eafd>
    80000600:	01229293          	slli	x5,x5,0x12
    80000604:	0bf28293          	addi	x5,x5,191
    80000608:	00e29293          	slli	x5,x5,0xe
    8000060c:	0b828293          	addi	x5,x5,184
    80000610:	0002b283          	ld	x5,0(x5)
    80000614:	00041e37          	lui	x28,0x41
    80000618:	5a7e0e1b          	addiw	x28,x28,1447 # 415a7 <_all_interrupts+0x3eafd>
    8000061c:	012e1e13          	slli	x28,x28,0x12
    80000620:	0bfe0e13          	addi	x28,x28,191
    80000624:	00ee1e13          	slli	x28,x28,0xe
    80000628:	0c0e0e13          	addi	x28,x28,192
    8000062c:	000e3e03          	ld	x28,0(x28)

0000000080000630 <syscalls__pte_walk_check_glevel_without_gstage_write>:
    80000630:	fff00f93          	li	x31,-1
    80000634:	0ffe1063          	bne	x28,x31,80000714 <syscalls__pte_walk_fail_write>
    80000638:	18002373          	csrr	x6,satp
    8000063c:	03c35e93          	srli	x29,x6,0x3c
    80000640:	01431313          	slli	x6,x6,0x14
    80000644:	01435313          	srli	x6,x6,0x14
    80000648:	00c31313          	slli	x6,x6,0xc
    8000064c:	ff8e8e93          	addi	x29,x29,-8
    80000650:	003e9f13          	slli	x30,x29,0x3
    80000654:	01df0eb3          	add	x29,x30,x29
    80000658:	01ee8e93          	addi	x29,x29,30
    8000065c:	00000f13          	li	x30,0

0000000080000660 <syscalls__pte_walk_loop_write>:
    80000660:	00041fb7          	lui	x31,0x41
    80000664:	5a7f8f9b          	addiw	x31,x31,1447 # 415a7 <_all_interrupts+0x3eafd>
    80000668:	012f9f93          	slli	x31,x31,0x12
    8000066c:	0bff8f93          	addi	x31,x31,191
    80000670:	00ef9f93          	slli	x31,x31,0xe
    80000674:	0b0f8f93          	addi	x31,x31,176
    80000678:	000fbf83          	ld	x31,0(x31)
    8000067c:	01dfdfb3          	srl	x31,x31,x29
    80000680:	1fffff93          	andi	x31,x31,511
    80000684:	003f9f93          	slli	x31,x31,0x3
    80000688:	01f30333          	add	x6,x6,x31
    8000068c:	005f0e63          	beq	x30,x5,800006a8 <syscalls__pte_walk_done_write>
    80000690:	00033f83          	ld	x31,0(x6)
    80000694:	00afdf93          	srli	x31,x31,0xa
    80000698:	00cf9313          	slli	x6,x31,0xc
    8000069c:	001f0f13          	addi	x30,x30,1
    800006a0:	ff7e8e93          	addi	x29,x29,-9
    800006a4:	fbdff06f          	j	80000660 <syscalls__pte_walk_loop_write>

00000000800006a8 <syscalls__pte_walk_done_write>:
    800006a8:	fff00f93          	li	x31,-1
    800006ac:	05fe0a63          	beq	x28,x31,80000700 <syscalls__pte_walk_final_write>

00000000800006b0 <syscalls__pte_walk_gstage_write>:
    800006b0:	00041fb7          	lui	x31,0x41
    800006b4:	5a7f8f9b          	addiw	x31,x31,1447 # 415a7 <_all_interrupts+0x3eafd>
    800006b8:	012f9f93          	slli	x31,x31,0x12
    800006bc:	0bff8f93          	addi	x31,x31,191
    800006c0:	00ef9f93          	slli	x31,x31,0xe
    800006c4:	0b0f8f93          	addi	x31,x31,176
    800006c8:	006fb023          	sd	x6,0(x31)
    800006cc:	000e0293          	mv	x5,x28
    800006d0:	fff00e13          	li	x28,-1
    800006d4:	68002373          	csrr	x6,hgatp
    800006d8:	03c35e93          	srli	x29,x6,0x3c
    800006dc:	01431313          	slli	x6,x6,0x14
    800006e0:	01435313          	srli	x6,x6,0x14
    800006e4:	00c31313          	slli	x6,x6,0xc
    800006e8:	ff8e8e93          	addi	x29,x29,-8
    800006ec:	003e9f13          	slli	x30,x29,0x3
    800006f0:	01df0eb3          	add	x29,x30,x29
    800006f4:	01ee8e93          	addi	x29,x29,30
    800006f8:	00000f13          	li	x30,0
    800006fc:	f65ff06f          	j	80000660 <syscalls__pte_walk_loop_write>

0000000080000700 <syscalls__pte_walk_final_write>:
    80000700:	00733023          	sd	x7,0(x6)
    80000704:	341022f3          	csrr	x5,mepc
    80000708:	00428293          	addi	x5,x5,4
    8000070c:	16523c23          	sd	x5,376(x4) # 178 <FS_RANDOMIZATION+0x114>
    80000710:	cfdff06f          	j	8000040c <syscalls__os_fn_f0001004>

0000000080000714 <syscalls__pte_walk_fail_write>:
    80000714:	3180006f          	j	80000a2c <test_failed>

0000000080000718 <syscalls__os_get_hart_context>:
    80000718:	14002573          	csrr	x10,sscratch
    8000071c:	341022f3          	csrr	x5,mepc
    80000720:	00428293          	addi	x5,x5,4
    80000724:	0040006f          	j	80000728 <syscalls__ret_from_os_fn>

0000000080000728 <syscalls__ret_from_os_fn>:
    80000728:	34102373          	csrr	x6,mepc
    8000072c:	00430313          	addi	x6,x6,4
    80000730:	16623c23          	sd	x6,376(x4) # 178 <FS_RANDOMIZATION+0x114>
    80000734:	34129073          	csrw	mepc,x5
    80000738:	fff00f93          	li	x31,-1
    8000073c:	2a40006f          	j	800009e0 <trap_handler_m__skip_xepc_write>

0000000080000740 <trap_handler_m__invalid_interrupt>:
    80000740:	2ec0006f          	j	80000a2c <test_failed>

0000000080000744 <trap_handler_m__clear_all_interrupts>:
    80000744:	34401073          	csrw	mip,x0
    80000748:	30200073          	mret

000000008000074c <trap_handler_m___CLEAR_SSI>:
    8000074c:	00200293          	li	x5,2
    80000750:	3442b073          	csrc	mip,x5
    80000754:	30200073          	mret

0000000080000758 <trap_handler_m___CLEAR_MSI>:
    80000758:	00800293          	li	x5,8
    8000075c:	3442b073          	csrc	mip,x5
    80000760:	30200073          	mret

0000000080000764 <trap_handler_m___CLEAR_STI>:
    80000764:	02000293          	li	x5,32
    80000768:	3442b073          	csrc	mip,x5
    8000076c:	30200073          	mret

0000000080000770 <trap_handler_m___CLEAR_MTI>:
    80000770:	08000293          	li	x5,128
    80000774:	3442b073          	csrc	mip,x5
    80000778:	30200073          	mret

000000008000077c <trap_handler_m___CLEAR_SEI>:
    8000077c:	20000293          	li	x5,512
    80000780:	3442b073          	csrc	mip,x5
    80000784:	30200073          	mret

0000000080000788 <trap_handler_m___CLEAR_MEI>:
    80000788:	000012b7          	lui	x5,0x1
    8000078c:	8002829b          	addiw	x5,x5,-2048 # 800 <FS_RANDOMIZATION+0x79c>
    80000790:	3442b073          	csrc	mip,x5
    80000794:	30200073          	mret

0000000080000798 <trap_handler_m___CLEAR_COI>:
    80000798:	000022b7          	lui	x5,0x2
    8000079c:	3442b073          	csrc	mip,x5
    800007a0:	30200073          	mret

00000000800007a4 <trap_handler_m__clear_highest_priority_interrupt>:
    800007a4:	344022f3          	csrr	x5,mip
    800007a8:	40500333          	neg	x6,x5
    800007ac:	0062f2b3          	and	x5,x5,x6
    800007b0:	3442b073          	csrc	mip,x5
    800007b4:	30200073          	mret

00000000800007b8 <trap_handler_m__trap_entry>:
    800007b8:	0fc0006f          	j	800008b4 <trap_handler_m__trap_handler>

00000000800007bc <trap_handler_m__interrupt_vector_table>:
    800007bc:	f91ff06f          	j	8000074c <trap_handler_m___CLEAR_SSI>
    800007c0:	f81ff06f          	j	80000740 <trap_handler_m__invalid_interrupt>
    800007c4:	f95ff06f          	j	80000758 <trap_handler_m___CLEAR_MSI>
    800007c8:	f79ff06f          	j	80000740 <trap_handler_m__invalid_interrupt>
    800007cc:	f99ff06f          	j	80000764 <trap_handler_m___CLEAR_STI>
    800007d0:	f71ff06f          	j	80000740 <trap_handler_m__invalid_interrupt>
    800007d4:	f9dff06f          	j	80000770 <trap_handler_m___CLEAR_MTI>
    800007d8:	f69ff06f          	j	80000740 <trap_handler_m__invalid_interrupt>
    800007dc:	fa1ff06f          	j	8000077c <trap_handler_m___CLEAR_SEI>
    800007e0:	f61ff06f          	j	80000740 <trap_handler_m__invalid_interrupt>
    800007e4:	fa5ff06f          	j	80000788 <trap_handler_m___CLEAR_MEI>
    800007e8:	f59ff06f          	j	80000740 <trap_handler_m__invalid_interrupt>
    800007ec:	fadff06f          	j	80000798 <trap_handler_m___CLEAR_COI>
    800007f0:	f51ff06f          	j	80000740 <trap_handler_m__invalid_interrupt>
    800007f4:	f4dff06f          	j	80000740 <trap_handler_m__invalid_interrupt>
    800007f8:	fadff06f          	j	800007a4 <trap_handler_m__clear_highest_priority_interrupt>
    800007fc:	fa9ff06f          	j	800007a4 <trap_handler_m__clear_highest_priority_interrupt>
    80000800:	fa5ff06f          	j	800007a4 <trap_handler_m__clear_highest_priority_interrupt>
    80000804:	fa1ff06f          	j	800007a4 <trap_handler_m__clear_highest_priority_interrupt>
    80000808:	f9dff06f          	j	800007a4 <trap_handler_m__clear_highest_priority_interrupt>
    8000080c:	f99ff06f          	j	800007a4 <trap_handler_m__clear_highest_priority_interrupt>
    80000810:	f95ff06f          	j	800007a4 <trap_handler_m__clear_highest_priority_interrupt>
    80000814:	f91ff06f          	j	800007a4 <trap_handler_m__clear_highest_priority_interrupt>
    80000818:	f8dff06f          	j	800007a4 <trap_handler_m__clear_highest_priority_interrupt>
    8000081c:	f89ff06f          	j	800007a4 <trap_handler_m__clear_highest_priority_interrupt>
    80000820:	f85ff06f          	j	800007a4 <trap_handler_m__clear_highest_priority_interrupt>
    80000824:	f81ff06f          	j	800007a4 <trap_handler_m__clear_highest_priority_interrupt>
    80000828:	f7dff06f          	j	800007a4 <trap_handler_m__clear_highest_priority_interrupt>
    8000082c:	f79ff06f          	j	800007a4 <trap_handler_m__clear_highest_priority_interrupt>
    80000830:	f75ff06f          	j	800007a4 <trap_handler_m__clear_highest_priority_interrupt>
    80000834:	f71ff06f          	j	800007a4 <trap_handler_m__clear_highest_priority_interrupt>
    80000838:	f6dff06f          	j	800007a4 <trap_handler_m__clear_highest_priority_interrupt>
    8000083c:	f69ff06f          	j	800007a4 <trap_handler_m__clear_highest_priority_interrupt>
    80000840:	f65ff06f          	j	800007a4 <trap_handler_m__clear_highest_priority_interrupt>
    80000844:	f61ff06f          	j	800007a4 <trap_handler_m__clear_highest_priority_interrupt>
    80000848:	f5dff06f          	j	800007a4 <trap_handler_m__clear_highest_priority_interrupt>
    8000084c:	f59ff06f          	j	800007a4 <trap_handler_m__clear_highest_priority_interrupt>
    80000850:	f55ff06f          	j	800007a4 <trap_handler_m__clear_highest_priority_interrupt>
    80000854:	f51ff06f          	j	800007a4 <trap_handler_m__clear_highest_priority_interrupt>
    80000858:	f4dff06f          	j	800007a4 <trap_handler_m__clear_highest_priority_interrupt>
    8000085c:	f49ff06f          	j	800007a4 <trap_handler_m__clear_highest_priority_interrupt>
    80000860:	f45ff06f          	j	800007a4 <trap_handler_m__clear_highest_priority_interrupt>
    80000864:	f41ff06f          	j	800007a4 <trap_handler_m__clear_highest_priority_interrupt>
    80000868:	f3dff06f          	j	800007a4 <trap_handler_m__clear_highest_priority_interrupt>
    8000086c:	f39ff06f          	j	800007a4 <trap_handler_m__clear_highest_priority_interrupt>
    80000870:	f35ff06f          	j	800007a4 <trap_handler_m__clear_highest_priority_interrupt>
    80000874:	f31ff06f          	j	800007a4 <trap_handler_m__clear_highest_priority_interrupt>
    80000878:	f2dff06f          	j	800007a4 <trap_handler_m__clear_highest_priority_interrupt>
    8000087c:	f29ff06f          	j	800007a4 <trap_handler_m__clear_highest_priority_interrupt>
    80000880:	f25ff06f          	j	800007a4 <trap_handler_m__clear_highest_priority_interrupt>
    80000884:	f21ff06f          	j	800007a4 <trap_handler_m__clear_highest_priority_interrupt>
    80000888:	f1dff06f          	j	800007a4 <trap_handler_m__clear_highest_priority_interrupt>
    8000088c:	f19ff06f          	j	800007a4 <trap_handler_m__clear_highest_priority_interrupt>
    80000890:	f15ff06f          	j	800007a4 <trap_handler_m__clear_highest_priority_interrupt>
    80000894:	f11ff06f          	j	800007a4 <trap_handler_m__clear_highest_priority_interrupt>
    80000898:	f0dff06f          	j	800007a4 <trap_handler_m__clear_highest_priority_interrupt>
    8000089c:	f09ff06f          	j	800007a4 <trap_handler_m__clear_highest_priority_interrupt>
    800008a0:	f05ff06f          	j	800007a4 <trap_handler_m__clear_highest_priority_interrupt>
    800008a4:	f01ff06f          	j	800007a4 <trap_handler_m__clear_highest_priority_interrupt>
    800008a8:	efdff06f          	j	800007a4 <trap_handler_m__clear_highest_priority_interrupt>
    800008ac:	ef9ff06f          	j	800007a4 <trap_handler_m__clear_highest_priority_interrupt>
    800008b0:	ef5ff06f          	j	800007a4 <trap_handler_m__clear_highest_priority_interrupt>

00000000800008b4 <trap_handler_m__trap_handler>:
    800008b4:	342022f3          	csrr	x5,mcause
    800008b8:	fff0031b          	addiw	x6,x0,-1
    800008bc:	03f31313          	slli	x6,x6,0x3f
    800008c0:	00537333          	and	x6,x6,x5
    800008c4:	02030263          	beqz	x6,800008e8 <trap_handler_m__exception_path>

00000000800008c8 <trap_handler_m__interrupt_handler>:
    800008c8:	fff0031b          	addiw	x6,x0,-1
    800008cc:	03f31313          	slli	x6,x6,0x3f
    800008d0:	0062c2b3          	xor	x5,x5,x6
    800008d4:	00000317          	auipc	x6,0x0
    800008d8:	ee430313          	addi	x6,x6,-284 # 800007b8 <trap_handler_m__trap_entry>
    800008dc:	00229293          	slli	x5,x5,0x2
    800008e0:	005302b3          	add	x5,x6,x5
    800008e4:	00028067          	jr	x5 # 2000 <FS_RANDOMIZATION+0x1f9c>

00000000800008e8 <trap_handler_m__exception_path>:
    800008e8:	34021273          	csrrw	x4,mscratch,x4
    800008ec:	00000297          	auipc	x5,0x0
    800008f0:	10828293          	addi	x5,x5,264 # 800009f4 <trap_handler_m__trap_panic>
    800008f4:	30529073          	csrw	mtvec,x5
    800008f8:	0040006f          	j	800008fc <trap_handler_m__excp_entry>

00000000800008fc <trap_handler_m__excp_entry>:
    800008fc:	34202373          	csrr	x6,mcause
    80000900:	00800293          	li	x5,8
    80000904:	00534863          	blt	x6,x5,80000914 <trap_handler_m__check_exception_label>
    80000908:	00b00293          	li	x5,11
    8000090c:	0062c463          	blt	x5,x6,80000914 <trap_handler_m__check_exception_label>
    80000910:	969ff06f          	j	80000278 <syscalls__syscall_check_schedule_next_test>

0000000080000914 <trap_handler_m__check_exception_label>:
    80000914:	04623c23          	sd	x6,88(x4) # 58 <XLEN+0x18>
    80000918:	341022f3          	csrr	x5,mepc
    8000091c:	02523423          	sd	x5,40(x4) # 28 <SECURE_ACCESS_PROBABILITY+0xa>
    80000920:	01820283          	lb	x5,24(x4) # 18 <STORE_GUEST_PAGE_FAULT+0x1>
    80000924:	00029863          	bnez	x5,80000934 <trap_handler_m__check_excp>
    80000928:	00128293          	addi	x5,x5,1
    8000092c:	00520c23          	sb	x5,24(x4) # 18 <STORE_GUEST_PAGE_FAULT+0x1>
    80000930:	0980006f          	j	800009c8 <trap_handler_m__ecall_from_machine>

0000000080000934 <trap_handler_m__check_excp>:
    80000934:	06820293          	addi	x5,x4,104 # 68 <FS_RANDOMIZATION+0x4>
    80000938:	0802b2af          	amoswap.d	x5,x0,(x5)
    8000093c:	00028663          	beqz	x5,80000948 <trap_handler_m__skip_mode_check>
    80000940:	00100393          	li	x7,1
    80000944:	0e729463          	bne	x5,x7,80000a2c <test_failed>

0000000080000948 <trap_handler_m__skip_mode_check>:
    80000948:	05020293          	addi	x5,x4,80 # 50 <XLEN+0x10>
    8000094c:	0802b2af          	amoswap.d	x5,x0,(x5)
    80000950:	0c531e63          	bne	x6,x5,80000a2c <test_failed>
    80000954:	03820293          	addi	x5,x4,56 # 38 <SECURE_ACCESS_PROBABILITY+0x1a>
    80000958:	0802b2af          	amoswap.d	x5,x0,(x5)
    8000095c:	06029463          	bnez	x5,800009c4 <trap_handler_m__skip_gva_check>
    80000960:	02020313          	addi	x6,x4,32 # 20 <SECURE_ACCESS_PROBABILITY+0x2>
    80000964:	0803332f          	amoswap.d	x6,x0,(x6)
    80000968:	02820293          	addi	x5,x4,40 # 28 <SECURE_ACCESS_PROBABILITY+0xa>
    8000096c:	0802b2af          	amoswap.d	x5,x0,(x5)
    80000970:	0a531e63          	bne	x6,x5,80000a2c <test_failed>
    80000974:	04020293          	addi	x5,x4,64 # 40 <XLEN>
    80000978:	0802b2af          	amoswap.d	x5,x0,(x5)
    8000097c:	00028663          	beqz	x5,80000988 <trap_handler_m__skip_nonzero_tval_check>

0000000080000980 <trap_handler_m__nonzero_tval_check>:
    80000980:	34302373          	csrr	x6,mtval
    80000984:	0a531463          	bne	x6,x5,80000a2c <test_failed>

0000000080000988 <trap_handler_m__skip_nonzero_tval_check>:
    80000988:	04820293          	addi	x5,x4,72 # 48 <XLEN+0x8>
    8000098c:	0802b2af          	amoswap.d	x5,x0,(x5)
    80000990:	00028663          	beqz	x5,8000099c <trap_handler_m__skip_nonzero_htval_check>

0000000080000994 <trap_handler_m__nonzero_htval_check>:
    80000994:	34b02373          	csrr	x6,0x34b
    80000998:	08531a63          	bne	x6,x5,80000a2c <test_failed>

000000008000099c <trap_handler_m__skip_nonzero_htval_check>:
    8000099c:	06020293          	addi	x5,x4,96 # 60 <XLEN+0x20>
    800009a0:	0802b2af          	amoswap.d	x5,x0,(x5)
    800009a4:	02028063          	beqz	x5,800009c4 <trap_handler_m__skip_gva_check>

00000000800009a8 <trap_handler_m__gva_check>:
    800009a8:	30002373          	csrr	x6,mstatus
    800009ac:	02635313          	srli	x6,x6,0x26
    800009b0:	00137313          	andi	x6,x6,1
    800009b4:	06030c63          	beqz	x6,80000a2c <test_failed>
    800009b8:	0010031b          	addiw	x6,x0,1
    800009bc:	02631313          	slli	x6,x6,0x26
    800009c0:	30033073          	csrc	mstatus,x6

00000000800009c4 <trap_handler_m__skip_gva_check>:
    800009c4:	0040006f          	j	800009c8 <trap_handler_m__ecall_from_machine>

00000000800009c8 <trap_handler_m__ecall_from_machine>:
    800009c8:	03020293          	addi	x5,x4,48 # 30 <SECURE_ACCESS_PROBABILITY+0x12>
    800009cc:	0802b2af          	amoswap.d	x5,x0,(x5)
    800009d0:	07020313          	addi	x6,x4,112 # 70 <FS_RANDOMIZATION+0xc>
    800009d4:	0803332f          	amoswap.d	x6,x0,(x6)
    800009d8:	00031463          	bnez	x6,800009e0 <trap_handler_m__skip_xepc_write>
    800009dc:	34129073          	csrw	mepc,x5

00000000800009e0 <trap_handler_m__skip_xepc_write>:
    800009e0:	00000317          	auipc	x6,0x0
    800009e4:	dd830313          	addi	x6,x6,-552 # 800007b8 <trap_handler_m__trap_entry>
    800009e8:	30531073          	csrw	mtvec,x6
    800009ec:	34021273          	csrrw	x4,mscratch,x4
    800009f0:	30200073          	mret

00000000800009f4 <trap_handler_m__trap_panic>:
    800009f4:	00000193          	li	x3,0
    800009f8:	3200006f          	j	80000d18 <eot__end_test>

00000000800009fc <enter_scheduler>:
    800009fc:	0002f337          	lui	x6,0x2f
    80000a00:	ab73031b          	addiw	x6,x6,-1353 # 2eab7 <_all_interrupts+0x2c00d>
    80000a04:	00e31313          	slli	x6,x6,0xe
    80000a08:	0de30313          	addi	x6,x6,222
    80000a0c:	02628063          	beq	x5,x6,80000a2c <test_failed>
    80000a10:	00000513          	li	x10,0
    80000a14:	030000ef          	jal	80000a44 <rvcp_print_test_result>
    80000a18:	3840006f          	j	80000d9c <scheduler__dispatch>

0000000080000a1c <test_passed>:
    80000a1c:	34021273          	csrrw	x4,mscratch,x4
    80000a20:	00000513          	li	x10,0
    80000a24:	020000ef          	jal	80000a44 <rvcp_print_test_result>
    80000a28:	3740006f          	j	80000d9c <scheduler__dispatch>

0000000080000a2c <test_failed>:
    80000a2c:	34021273          	csrrw	x4,mscratch,x4
    80000a30:	00300193          	li	x3,3
    80000a34:	2e40006f          	j	80000d18 <eot__end_test>

0000000080000a38 <os_end_test>:
    80000a38:	34021273          	csrrw	x4,mscratch,x4
    80000a3c:	00100193          	li	x3,1
    80000a40:	2d80006f          	j	80000d18 <eot__end_test>

0000000080000a44 <rvcp_print_test_result>:
    80000a44:	00050e13          	mv	x28,x10
    80000a48:	19823283          	ld	x5,408(x4) # 198 <FS_RANDOMIZATION+0x134>
    80000a4c:	0010031b          	addiw	x6,x0,1
    80000a50:	02031313          	slli	x6,x6,0x20
    80000a54:	ffe30313          	addi	x6,x6,-2
    80000a58:	22628863          	beq	x5,x6,80000c88 <rvcp_print_test_result+0x244>
    80000a5c:	0010031b          	addiw	x6,x0,1
    80000a60:	02031313          	slli	x6,x6,0x20
    80000a64:	fff30313          	addi	x6,x6,-1
    80000a68:	22628063          	beq	x5,x6,80000c88 <rvcp_print_test_result+0x244>
    80000a6c:	2002ce63          	bltz	x5,80000c88 <rvcp_print_test_result+0x244>
    80000a70:	00000317          	auipc	x6,0x0
    80000a74:	51430313          	addi	x6,x6,1300 # 80000f84 <dtest_descriptor_table>
    80000a78:	00329393          	slli	x7,x5,0x3
    80000a7c:	00730333          	add	x6,x6,x7
    80000a80:	00033e83          	ld	x29,0(x6)
    80000a84:	00041f37          	lui	x30,0x41
    80000a88:	5a7f0f1b          	addiw	x30,x30,1447 # 415a7 <_all_interrupts+0x3eafd>
    80000a8c:	012f1f13          	slli	x30,x30,0x12
    80000a90:	0bff0f13          	addi	x30,x30,191
    80000a94:	00ef1f13          	slli	x30,x30,0xe
    80000a98:	030f0f13          	addi	x30,x30,48
    80000a9c:	000f4283          	lbu	x5,0(x30)
    80000aa0:	02028663          	beqz	x5,80000acc <rvcp_print_test_result+0x88>
    80000aa4:	1010031b          	addiw	x6,x0,257
    80000aa8:	03031313          	slli	x6,x6,0x30
    80000aac:	005362b3          	or	x5,x6,x5
    80000ab0:	effff317          	auipc	x6,0xeffff
    80000ab4:	55030313          	addi	x6,x6,1360 # 70000000 <tohost>
    80000ab8:	00033383          	ld	x7,0(x6)
    80000abc:	fe039ee3          	bnez	x7,80000ab8 <rvcp_print_test_result+0x74>
    80000ac0:	00533023          	sd	x5,0(x6)
    80000ac4:	001f0f13          	addi	x30,x30,1
    80000ac8:	fd5ff06f          	j	80000a9c <rvcp_print_test_result+0x58>
    80000acc:	00041f37          	lui	x30,0x41
    80000ad0:	5a7f0f1b          	addiw	x30,x30,1447 # 415a7 <_all_interrupts+0x3eafd>
    80000ad4:	012f1f13          	slli	x30,x30,0x12
    80000ad8:	0bff0f13          	addi	x30,x30,191
    80000adc:	00ef1f13          	slli	x30,x30,0xe
    80000ae0:	041f0f13          	addi	x30,x30,65
    80000ae4:	000f4283          	lbu	x5,0(x30)
    80000ae8:	02028663          	beqz	x5,80000b14 <rvcp_print_test_result+0xd0>
    80000aec:	1010031b          	addiw	x6,x0,257
    80000af0:	03031313          	slli	x6,x6,0x30
    80000af4:	005362b3          	or	x5,x6,x5
    80000af8:	effff317          	auipc	x6,0xeffff
    80000afc:	50830313          	addi	x6,x6,1288 # 70000000 <tohost>
    80000b00:	00033383          	ld	x7,0(x6)
    80000b04:	fe039ee3          	bnez	x7,80000b00 <rvcp_print_test_result+0xbc>
    80000b08:	00533023          	sd	x5,0(x6)
    80000b0c:	001f0f13          	addi	x30,x30,1
    80000b10:	fd5ff06f          	j	80000ae4 <rvcp_print_test_result+0xa0>
    80000b14:	00041f37          	lui	x30,0x41
    80000b18:	5a7f0f1b          	addiw	x30,x30,1447 # 415a7 <_all_interrupts+0x3eafd>
    80000b1c:	012f1f13          	slli	x30,x30,0x12
    80000b20:	0bff0f13          	addi	x30,x30,191
    80000b24:	00ef1f13          	slli	x30,x30,0xe
    80000b28:	059f0f13          	addi	x30,x30,89
    80000b2c:	000f4283          	lbu	x5,0(x30)
    80000b30:	02028663          	beqz	x5,80000b5c <rvcp_print_test_result+0x118>
    80000b34:	1010031b          	addiw	x6,x0,257
    80000b38:	03031313          	slli	x6,x6,0x30
    80000b3c:	005362b3          	or	x5,x6,x5
    80000b40:	effff317          	auipc	x6,0xeffff
    80000b44:	4c030313          	addi	x6,x6,1216 # 70000000 <tohost>
    80000b48:	00033383          	ld	x7,0(x6)
    80000b4c:	fe039ee3          	bnez	x7,80000b48 <rvcp_print_test_result+0x104>
    80000b50:	00533023          	sd	x5,0(x6)
    80000b54:	001f0f13          	addi	x30,x30,1
    80000b58:	fd5ff06f          	j	80000b2c <rvcp_print_test_result+0xe8>
    80000b5c:	000e8f13          	mv	x30,x29
    80000b60:	000f4283          	lbu	x5,0(x30)
    80000b64:	02028663          	beqz	x5,80000b90 <rvcp_print_test_result+0x14c>
    80000b68:	1010031b          	addiw	x6,x0,257
    80000b6c:	03031313          	slli	x6,x6,0x30
    80000b70:	005362b3          	or	x5,x6,x5
    80000b74:	effff317          	auipc	x6,0xeffff
    80000b78:	48c30313          	addi	x6,x6,1164 # 70000000 <tohost>
    80000b7c:	00033383          	ld	x7,0(x6)
    80000b80:	fe039ee3          	bnez	x7,80000b7c <rvcp_print_test_result+0x138>
    80000b84:	00533023          	sd	x5,0(x6)
    80000b88:	001f0f13          	addi	x30,x30,1
    80000b8c:	fd5ff06f          	j	80000b60 <rvcp_print_test_result+0x11c>
    80000b90:	00041f37          	lui	x30,0x41
    80000b94:	5a7f0f1b          	addiw	x30,x30,1447 # 415a7 <_all_interrupts+0x3eafd>
    80000b98:	012f1f13          	slli	x30,x30,0x12
    80000b9c:	0bff0f13          	addi	x30,x30,191
    80000ba0:	00ef1f13          	slli	x30,x30,0xe
    80000ba4:	059f0f13          	addi	x30,x30,89
    80000ba8:	000f4283          	lbu	x5,0(x30)
    80000bac:	02028663          	beqz	x5,80000bd8 <rvcp_print_test_result+0x194>
    80000bb0:	1010031b          	addiw	x6,x0,257
    80000bb4:	03031313          	slli	x6,x6,0x30
    80000bb8:	005362b3          	or	x5,x6,x5
    80000bbc:	effff317          	auipc	x6,0xeffff
    80000bc0:	44430313          	addi	x6,x6,1092 # 70000000 <tohost>
    80000bc4:	00033383          	ld	x7,0(x6)
    80000bc8:	fe039ee3          	bnez	x7,80000bc4 <rvcp_print_test_result+0x180>
    80000bcc:	00533023          	sd	x5,0(x6)
    80000bd0:	001f0f13          	addi	x30,x30,1
    80000bd4:	fd5ff06f          	j	80000ba8 <rvcp_print_test_result+0x164>
    80000bd8:	020e1063          	bnez	x28,80000bf8 <rvcp_print_test_result+0x1b4>
    80000bdc:	00041f37          	lui	x30,0x41
    80000be0:	5a7f0f1b          	addiw	x30,x30,1447 # 415a7 <_all_interrupts+0x3eafd>
    80000be4:	012f1f13          	slli	x30,x30,0x12
    80000be8:	0bff0f13          	addi	x30,x30,191
    80000bec:	00ef1f13          	slli	x30,x30,0xe
    80000bf0:	04bf0f13          	addi	x30,x30,75
    80000bf4:	01c0006f          	j	80000c10 <rvcp_print_test_result+0x1cc>
    80000bf8:	00041f37          	lui	x30,0x41
    80000bfc:	5a7f0f1b          	addiw	x30,x30,1447 # 415a7 <_all_interrupts+0x3eafd>
    80000c00:	012f1f13          	slli	x30,x30,0x12
    80000c04:	0bff0f13          	addi	x30,x30,191
    80000c08:	00ef1f13          	slli	x30,x30,0xe
    80000c0c:	052f0f13          	addi	x30,x30,82
    80000c10:	000f4283          	lbu	x5,0(x30)
    80000c14:	02028663          	beqz	x5,80000c40 <rvcp_print_test_result+0x1fc>
    80000c18:	1010031b          	addiw	x6,x0,257
    80000c1c:	03031313          	slli	x6,x6,0x30
    80000c20:	005362b3          	or	x5,x6,x5
    80000c24:	effff317          	auipc	x6,0xeffff
    80000c28:	3dc30313          	addi	x6,x6,988 # 70000000 <tohost>
    80000c2c:	00033383          	ld	x7,0(x6)
    80000c30:	fe039ee3          	bnez	x7,80000c2c <rvcp_print_test_result+0x1e8>
    80000c34:	00533023          	sd	x5,0(x6)
    80000c38:	001f0f13          	addi	x30,x30,1
    80000c3c:	fd5ff06f          	j	80000c10 <rvcp_print_test_result+0x1cc>
    80000c40:	00041f37          	lui	x30,0x41
    80000c44:	5a7f0f1b          	addiw	x30,x30,1447 # 415a7 <_all_interrupts+0x3eafd>
    80000c48:	012f1f13          	slli	x30,x30,0x12
    80000c4c:	0bff0f13          	addi	x30,x30,191
    80000c50:	00ef1f13          	slli	x30,x30,0xe
    80000c54:	05bf0f13          	addi	x30,x30,91
    80000c58:	000f4283          	lbu	x5,0(x30)
    80000c5c:	02028663          	beqz	x5,80000c88 <rvcp_print_test_result+0x244>
    80000c60:	1010031b          	addiw	x6,x0,257
    80000c64:	03031313          	slli	x6,x6,0x30
    80000c68:	005362b3          	or	x5,x6,x5
    80000c6c:	effff317          	auipc	x6,0xeffff
    80000c70:	39430313          	addi	x6,x6,916 # 70000000 <tohost>
    80000c74:	00033383          	ld	x7,0(x6)
    80000c78:	fe039ee3          	bnez	x7,80000c74 <rvcp_print_test_result+0x230>
    80000c7c:	00533023          	sd	x5,0(x6)
    80000c80:	001f0f13          	addi	x30,x30,1
    80000c84:	fd5ff06f          	j	80000c58 <rvcp_print_test_result+0x214>
    80000c88:	00008067          	ret

0000000080000c8c <os_rng_orig>:
    80000c8c:	f14023f3          	csrr	x7,mhartid
    80000c90:	00068313          	mv	x6,x13
    80000c94:	026383b3          	mul	x7,x7,x6
    80000c98:	00058313          	mv	x6,x11
    80000c9c:	00730333          	add	x6,x6,x7
    80000ca0:	00033283          	ld	x5,0(x6)
    80000ca4:	01529313          	slli	x6,x5,0x15
    80000ca8:	0062c2b3          	xor	x5,x5,x6
    80000cac:	0232d313          	srli	x6,x5,0x23
    80000cb0:	0062c2b3          	xor	x5,x5,x6
    80000cb4:	00429313          	slli	x6,x5,0x4
    80000cb8:	0062c2b3          	xor	x5,x5,x6
    80000cbc:	00058313          	mv	x6,x11
    80000cc0:	00730333          	add	x6,x6,x7
    80000cc4:	00533023          	sd	x5,0(x6)
    80000cc8:	00060313          	mv	x6,x12
    80000ccc:	0262f2b3          	remu	x5,x5,x6
    80000cd0:	00028513          	mv	x10,x5
    80000cd4:	00008067          	ret
    80000cd8:	02a00513          	li	x10,42
    80000cdc:	001965b7          	lui	x11,0x196
    80000ce0:	60d5859b          	addiw	x11,x11,1549 # 19660d <mem7+0x11260d>
    80000ce4:	3c6ef637          	lui	x12,0x3c6ef
    80000ce8:	35f6061b          	addiw	x12,x12,863 # 3c6ef35f <saplic_255+0x1bdf035f>
    80000cec:	02200693          	li	x13,34
    80000cf0:	02b50533          	mul	x10,x10,x11
    80000cf4:	00c50533          	add	x10,x10,x12
    80000cf8:	02d56533          	rem	x10,x10,x13
    80000cfc:	00b00593          	li	x11,11
    80000d00:	02b56533          	rem	x10,x10,x11
    80000d04:	00008067          	ret

0000000080000d08 <tohost_mutex>:
	...

0000000080000d10 <tohost_addr_mem>:
    80000d10:	0000                	.insn	2, 0x0000
    80000d12:	7000                	.insn	2, 0x7000
    80000d14:	0000                	.insn	2, 0x0000
	...

0000000080000d18 <eot__end_test>:
    80000d18:	00100293          	li	x5,1
    80000d1c:	00328463          	beq	x5,x3,80000d24 <eot__passed>
    80000d20:	01c0006f          	j	80000d3c <eot__failed>

0000000080000d24 <eot__passed>:
    80000d24:	0ff0000f          	fence
    80000d28:	00000297          	auipc	x5,0x0
    80000d2c:	fe82b283          	ld	x5,-24(x5) # 80000d10 <tohost_addr_mem>
    80000d30:	00100313          	li	x6,1
    80000d34:	0062a023          	sw	x6,0(x5)
    80000d38:	0240006f          	j	80000d5c <eot__halt>

0000000080000d3c <eot__failed>:
    80000d3c:	00100513          	li	x10,1
    80000d40:	d05ff0ef          	jal	80000a44 <rvcp_print_test_result>
    80000d44:	0ff0000f          	fence
    80000d48:	00000297          	auipc	x5,0x0
    80000d4c:	fc82b283          	ld	x5,-56(x5) # 80000d10 <tohost_addr_mem>
    80000d50:	00300313          	li	x6,3
    80000d54:	0062a023          	sw	x6,0(x5)
    80000d58:	0040006f          	j	80000d5c <eot__halt>

0000000080000d5c <eot__halt>:
    80000d5c:	10500073          	wfi
    80000d60:	ffdff06f          	j	80000d5c <eot__halt>

0000000080000d64 <scheduler__init>:
    80000d64:	00000297          	auipc	x5,0x0
    80000d68:	14828293          	addi	x5,x5,328 # 80000eac <scheduler__panic>
    80000d6c:	305292f3          	csrrw	x5,mtvec,x5
    80000d70:	18523023          	sd	x5,384(x4) # 180 <FS_RANDOMIZATION+0x11c>
    80000d74:	01600293          	li	x5,22
    80000d78:	1a523023          	sd	x5,416(x4) # 1a0 <FS_RANDOMIZATION+0x13c>
    80000d7c:	0010029b          	addiw	x5,x0,1
    80000d80:	02029293          	slli	x5,x5,0x20
    80000d84:	ffe28293          	addi	x5,x5,-2
    80000d88:	18523c23          	sd	x5,408(x4) # 198 <FS_RANDOMIZATION+0x134>
    80000d8c:	00000317          	auipc	x6,0x0
    80000d90:	35830313          	addi	x6,x6,856 # 800010e4 <scheduler__test_setup_ptr>
    80000d94:	00033303          	ld	x6,0(x6)
    80000d98:	0ec0006f          	j	80000e84 <scheduler__execute_test>

0000000080000d9c <scheduler__dispatch>:
    80000d9c:	00000297          	auipc	x5,0x0
    80000da0:	11028293          	addi	x5,x5,272 # 80000eac <scheduler__panic>
    80000da4:	305292f3          	csrrw	x5,mtvec,x5
    80000da8:	18523023          	sd	x5,384(x4) # 180 <FS_RANDOMIZATION+0x11c>

0000000080000dac <scheduler__csr_read_randomization>:
    80000dac:	00000e17          	auipc	x28,0x0
    80000db0:	1c0e0e13          	addi	x28,x28,448 # 80000f6c <fs_rr_table>
    80000db4:	18823e83          	ld	x29,392(x4) # 188 <FS_RANDOMIZATION+0x124>
    80000db8:	002e9f13          	slli	x30,x29,0x2
    80000dbc:	01ee0f33          	add	x30,x28,x30
    80000dc0:	000f2f03          	lw	x30,0(x30)
    80000dc4:	00df1f13          	slli	x30,x30,0xd
    80000dc8:	00006e37          	lui	x28,0x6
    80000dcc:	100e3073          	csrc	sstatus,x28
    80000dd0:	100f2073          	csrs	sstatus,x30
    80000dd4:	001e8e93          	addi	x29,x29,1
    80000dd8:	00300e13          	li	x28,3
    80000ddc:	01cec463          	blt	x29,x28,80000de4 <scheduler__csr_read_randomization+0x38>
    80000de0:	00000e93          	li	x29,0
    80000de4:	19d23423          	sd	x29,392(x4) # 188 <FS_RANDOMIZATION+0x124>
    80000de8:	00000e17          	auipc	x28,0x0
    80000dec:	190e0e13          	addi	x28,x28,400 # 80000f78 <vs_rr_table>
    80000df0:	19023e83          	ld	x29,400(x4) # 190 <FS_RANDOMIZATION+0x12c>
    80000df4:	002e9f13          	slli	x30,x29,0x2
    80000df8:	01ee0f33          	add	x30,x28,x30
    80000dfc:	000f2f03          	lw	x30,0(x30)
    80000e00:	009f1f13          	slli	x30,x30,0x9
    80000e04:	60000e13          	li	x28,1536
    80000e08:	100e3073          	csrc	sstatus,x28
    80000e0c:	100f2073          	csrs	sstatus,x30
    80000e10:	001e8e93          	addi	x29,x29,1
    80000e14:	00300e13          	li	x28,3
    80000e18:	01cec463          	blt	x29,x28,80000e20 <scheduler__csr_read_randomization+0x74>
    80000e1c:	00000e93          	li	x29,0
    80000e20:	19d23823          	sd	x29,400(x4) # 190 <FS_RANDOMIZATION+0x12c>
    80000e24:	141022f3          	csrr	x5,sepc
    80000e28:	343022f3          	csrr	x5,mtval
    80000e2c:	142022f3          	csrr	x5,scause
    80000e30:	f12022f3          	csrr	x5,marchid
    80000e34:	f14022f3          	csrr	x5,mhartid
    80000e38:	f12022f3          	csrr	x5,marchid
    80000e3c:	343022f3          	csrr	x5,mtval
    80000e40:	105022f3          	csrr	x5,stvec
    80000e44:	302022f3          	csrr	x5,medeleg

0000000080000e48 <scheduler__load_num_runs>:
    80000e48:	1a023303          	ld	x6,416(x4) # 1a0 <FS_RANDOMIZATION+0x13c>
    80000e4c:	04030c63          	beqz	x6,80000ea4 <scheduler__finished>

0000000080000e50 <scheduler__decrement_num_runs>:
    80000e50:	fff30393          	addi	x7,x6,-1
    80000e54:	1a723023          	sd	x7,416(x4) # 1a0 <FS_RANDOMIZATION+0x13c>
    80000e58:	00000e17          	auipc	x28,0x0
    80000e5c:	230e0e13          	addi	x28,x28,560 # 80001088 <dtest_index_map>
    80000e60:	00239e93          	slli	x29,x7,0x2
    80000e64:	01de0e33          	add	x28,x28,x29
    80000e68:	000e2e03          	lw	x28,0(x28)
    80000e6c:	19c23c23          	sd	x28,408(x4) # 198 <FS_RANDOMIZATION+0x134>

0000000080000e70 <scheduler__calc_test_pointer>:
    80000e70:	00339293          	slli	x5,x7,0x3

0000000080000e74 <scheduler__load_test_addr>:
    80000e74:	00000317          	auipc	x6,0x0
    80000e78:	04830313          	addi	x6,x6,72 # 80000ebc <os_test_sequence>
    80000e7c:	006282b3          	add	x5,x5,x6
    80000e80:	0002b303          	ld	x6,0(x5)

0000000080000e84 <scheduler__execute_test>:
    80000e84:	18023283          	ld	x5,384(x4) # 180 <FS_RANDOMIZATION+0x11c>
    80000e88:	30529073          	csrw	mtvec,x5
    80000e8c:	34021273          	csrrw	x4,mscratch,x4
    80000e90:	00000213          	li	x4,0
    80000e94:	14131073          	csrw	sepc,x6
    80000e98:	10000293          	li	x5,256
    80000e9c:	1002b073          	csrc	sstatus,x5
    80000ea0:	10200073          	sret

0000000080000ea4 <scheduler__finished>:
    80000ea4:	00100193          	li	x3,1
    80000ea8:	e71ff06f          	j	80000d18 <eot__end_test>

0000000080000eac <scheduler__panic>:
    80000eac:	00000193          	li	x3,0
    80000eb0:	e69ff06f          	j	80000d18 <eot__end_test>

0000000080000eb4 <num_runs>:
    80000eb4:	0016                	.insn	2, 0x0016
    80000eb6:	0000                	.insn	2, 0x0000
    80000eb8:	0000                	.insn	2, 0x0000
	...

0000000080000ebc <os_test_sequence>:
    80000ebc:	57bc                	.insn	2, 0x57bc
    80000ebe:	8001                	.insn	2, 0x8001
    80000ec0:	0000                	.insn	2, 0x0000
    80000ec2:	0000                	.insn	2, 0x0000
    80000ec4:	5408                	.insn	2, 0x5408
    80000ec6:	8001                	.insn	2, 0x8001
    80000ec8:	0000                	.insn	2, 0x0000
    80000eca:	0000                	.insn	2, 0x0000
    80000ecc:	5694                	.insn	2, 0x5694
    80000ece:	8001                	.insn	2, 0x8001
    80000ed0:	0000                	.insn	2, 0x0000
    80000ed2:	0000                	.insn	2, 0x0000
    80000ed4:	5320                	.insn	2, 0x5320
    80000ed6:	8001                	.insn	2, 0x8001
    80000ed8:	0000                	.insn	2, 0x0000
    80000eda:	0000                	.insn	2, 0x0000
    80000edc:	5320                	.insn	2, 0x5320
    80000ede:	8001                	.insn	2, 0x8001
    80000ee0:	0000                	.insn	2, 0x0000
    80000ee2:	0000                	.insn	2, 0x0000
    80000ee4:	54cc                	.insn	2, 0x54cc
    80000ee6:	8001                	.insn	2, 0x8001
    80000ee8:	0000                	.insn	2, 0x0000
    80000eea:	0000                	.insn	2, 0x0000
    80000eec:	54cc                	.insn	2, 0x54cc
    80000eee:	8001                	.insn	2, 0x8001
    80000ef0:	0000                	.insn	2, 0x0000
    80000ef2:	0000                	.insn	2, 0x0000
    80000ef4:	55b0                	.insn	2, 0x55b0
    80000ef6:	8001                	.insn	2, 0x8001
    80000ef8:	0000                	.insn	2, 0x0000
    80000efa:	0000                	.insn	2, 0x0000
    80000efc:	5320                	.insn	2, 0x5320
    80000efe:	8001                	.insn	2, 0x8001
    80000f00:	0000                	.insn	2, 0x0000
    80000f02:	0000                	.insn	2, 0x0000
    80000f04:	5694                	.insn	2, 0x5694
    80000f06:	8001                	.insn	2, 0x8001
    80000f08:	0000                	.insn	2, 0x0000
    80000f0a:	0000                	.insn	2, 0x0000
    80000f0c:	55b0                	.insn	2, 0x55b0
    80000f0e:	8001                	.insn	2, 0x8001
    80000f10:	0000                	.insn	2, 0x0000
    80000f12:	0000                	.insn	2, 0x0000
    80000f14:	50d0                	.insn	2, 0x50d0
    80000f16:	8001                	.insn	2, 0x8001
    80000f18:	0000                	.insn	2, 0x0000
    80000f1a:	0000                	.insn	2, 0x0000
    80000f1c:	54cc                	.insn	2, 0x54cc
    80000f1e:	8001                	.insn	2, 0x8001
    80000f20:	0000                	.insn	2, 0x0000
    80000f22:	0000                	.insn	2, 0x0000
    80000f24:	5230                	.insn	2, 0x5230
    80000f26:	8001                	.insn	2, 0x8001
    80000f28:	0000                	.insn	2, 0x0000
    80000f2a:	0000                	.insn	2, 0x0000
    80000f2c:	55b0                	.insn	2, 0x55b0
    80000f2e:	8001                	.insn	2, 0x8001
    80000f30:	0000                	.insn	2, 0x0000
    80000f32:	0000                	.insn	2, 0x0000
    80000f34:	5230                	.insn	2, 0x5230
    80000f36:	8001                	.insn	2, 0x8001
    80000f38:	0000                	.insn	2, 0x0000
    80000f3a:	0000                	.insn	2, 0x0000
    80000f3c:	5408                	.insn	2, 0x5408
    80000f3e:	8001                	.insn	2, 0x8001
    80000f40:	0000                	.insn	2, 0x0000
    80000f42:	0000                	.insn	2, 0x0000
    80000f44:	5230                	.insn	2, 0x5230
    80000f46:	8001                	.insn	2, 0x8001
    80000f48:	0000                	.insn	2, 0x0000
    80000f4a:	0000                	.insn	2, 0x0000
    80000f4c:	5408                	.insn	2, 0x5408
    80000f4e:	8001                	.insn	2, 0x8001
    80000f50:	0000                	.insn	2, 0x0000
    80000f52:	0000                	.insn	2, 0x0000
    80000f54:	5694                	.insn	2, 0x5694
    80000f56:	8001                	.insn	2, 0x8001
    80000f58:	0000                	.insn	2, 0x0000
    80000f5a:	0000                	.insn	2, 0x0000
    80000f5c:	50d0                	.insn	2, 0x50d0
    80000f5e:	8001                	.insn	2, 0x8001
    80000f60:	0000                	.insn	2, 0x0000
    80000f62:	0000                	.insn	2, 0x0000
    80000f64:	50d0                	.insn	2, 0x50d0
    80000f66:	8001                	.insn	2, 0x8001
    80000f68:	0000                	.insn	2, 0x0000
	...

0000000080000f6c <fs_rr_table>:
    80000f6c:	0001                	.insn	2, 0x0001
    80000f6e:	0000                	.insn	2, 0x0000
    80000f70:	0002                	.insn	2, 0x0002
    80000f72:	0000                	.insn	2, 0x0000
    80000f74:	00000003          	lb	x0,0(x0) # 0 <ALL_4KB_PAGES>

0000000080000f78 <vs_rr_table>:
    80000f78:	0001                	.insn	2, 0x0001
    80000f7a:	0000                	.insn	2, 0x0000
    80000f7c:	0002                	.insn	2, 0x0002
    80000f7e:	0000                	.insn	2, 0x0000
    80000f80:	00000003          	lb	x0,0(x0) # 0 <ALL_4KB_PAGES>

0000000080000f84 <dtest_descriptor_table>:
    80000f84:	0fbc                	.insn	2, 0x0fbc
    80000f86:	8000                	.insn	2, 0x8000
    80000f88:	0000                	.insn	2, 0x0000
    80000f8a:	0000                	.insn	2, 0x0000
    80000f8c:	0fd9                	.insn	2, 0x0fd9
    80000f8e:	8000                	.insn	2, 0x8000
    80000f90:	0000                	.insn	2, 0x0000
    80000f92:	0000                	.insn	2, 0x0000
    80000f94:	0ff5                	.insn	2, 0x0ff5
    80000f96:	8000                	.insn	2, 0x8000
    80000f98:	0000                	.insn	2, 0x0000
    80000f9a:	0000                	.insn	2, 0x0000
    80000f9c:	8000100f          	.insn	4, 0x8000100f
    80000fa0:	0000                	.insn	2, 0x0000
    80000fa2:	0000                	.insn	2, 0x0000
    80000fa4:	8000102b          	.insn	4, 0x8000102b
    80000fa8:	0000                	.insn	2, 0x0000
    80000faa:	0000                	.insn	2, 0x0000
    80000fac:	1051                	.insn	2, 0x1051
    80000fae:	8000                	.insn	2, 0x8000
    80000fb0:	0000                	.insn	2, 0x0000
    80000fb2:	0000                	.insn	2, 0x0000
    80000fb4:	8000106b          	.insn	4, 0x8000106b
    80000fb8:	0000                	.insn	2, 0x0000
	...

0000000080000fbc <dtest_name_0>:
    80000fbc:	5f444953          	.insn	4, 0x5f444953
    80000fc0:	3530                	.insn	2, 0x3530
    80000fc2:	705f 5f6d 6964      	.insn	6, 0x69645f6d705f
    80000fc8:	6c626173          	csrrsi	x2,0x6c6,4
    80000fcc:	6465                	.insn	2, 0x6465
    80000fce:	755f 765f 5f75      	.insn	6, 0x5f75765f755f
    80000fd4:	6f6d                	.insn	2, 0x6f6d
    80000fd6:	6564                	.insn	2, 0x6564
	...

0000000080000fd9 <dtest_name_1>:
    80000fd9:	5f444953          	.insn	4, 0x5f444953
    80000fdd:	3331                	.insn	2, 0x3331
    80000fdf:	705f 5f6d 6e65      	.insn	6, 0x6e655f6d705f
    80000fe5:	6261                	.insn	2, 0x6261
    80000fe7:	656c                	.insn	2, 0x656c
    80000fe9:	5f64                	.insn	2, 0x5f64
    80000feb:	5f75                	.insn	2, 0x5f75
    80000fed:	7576                	.insn	2, 0x7576
    80000fef:	6d5f 646f 0065      	.insn	6, 0x0065646f6d5f

0000000080000ff5 <dtest_name_2>:
    80000ff5:	5f444953          	.insn	4, 0x5f444953
    80000ff9:	3432                	.insn	2, 0x3432
    80000ffb:	705f 5f6d 6e69      	.insn	6, 0x6e695f6d705f
    80001001:	75727473          	csrrci	x8,0x757,4
    80001005:	6f697463          	bgeu	x18,x22,800016ed <scheduler__test_cleanup_ptr+0x601>
    80001009:	5f6e                	.insn	2, 0x5f6e
    8000100b:	00746573          	csrrsi	x10,0x7,8

000000008000100f <dtest_name_3>:
    8000100f:	5f444953          	.insn	4, 0x5f444953
    80001013:	3532                	.insn	2, 0x3532
    80001015:	705f 5f6d 696d      	.insn	6, 0x696d5f6d705f
    8000101b:	696c6173          	csrrsi	x2,0x696,24
    8000101f:	64656e67          	.insn	4, 0x64656e67
    80001023:	615f 6363 7365      	.insn	6, 0x73656363615f
    80001029:	          	.insn	4, 0x49530073

000000008000102b <dtest_name_4>:
    8000102b:	5f444953          	.insn	4, 0x5f444953
    8000102f:	3632                	.insn	2, 0x3632
    80001031:	705f 5f6d 6964      	.insn	6, 0x69645f6d705f
    80001037:	6666                	.insn	2, 0x6666
    80001039:	7265                	.insn	2, 0x7265
    8000103b:	6e65                	.insn	2, 0x6e65
    8000103d:	5f74                	.insn	2, 0x5f74
    8000103f:	6174                	.insn	2, 0x6174
    80001041:	735f7367          	.insn	4, 0x735f7367
    80001045:	6d61                	.insn	2, 0x6d61
    80001047:	5f65                	.insn	2, 0x5f65
    80001049:	6461                	.insn	2, 0x6461
    8000104b:	7264                	.insn	2, 0x7264
    8000104d:	7365                	.insn	2, 0x7365
    8000104f:	          	.insn	4, 0x49530073

0000000080001051 <dtest_name_5>:
    80001051:	5f444953          	.insn	4, 0x5f444953
    80001055:	3732                	.insn	2, 0x3732
    80001057:	705f 5f6d 6d69      	.insn	6, 0x6d695f6d705f
    8000105d:	6c70                	.insn	2, 0x6c70
    8000105f:	6369                	.insn	2, 0x6369
    80001061:	7469                	.insn	2, 0x7469
    80001063:	615f 6363 7365      	.insn	6, 0x73656363615f
    80001069:	          	.insn	4, 0x49530073

000000008000106b <dtest_name_6>:
    8000106b:	5f444953          	.insn	4, 0x5f444953
    8000106f:	3832                	.insn	2, 0x3832
    80001071:	705f 5f6d 6166      	.insn	6, 0x61665f6d705f
    80001077:	6c75                	.insn	2, 0x6c75
    80001079:	7374                	.insn	2, 0x7374
    8000107b:	745f 6172 5f70      	.insn	6, 0x5f706172745f
    80001081:	6176                	.insn	2, 0x6176
    80001083:	756c                	.insn	2, 0x756c
    80001085:	7365                	.insn	2, 0x7365
	...

0000000080001088 <dtest_index_map>:
    80001088:	ffff                	.insn	2, 0xffff
    8000108a:	ffff                	.insn	2, 0xffff
    8000108c:	00000003          	lb	x0,0(x0) # 0 <ALL_4KB_PAGES>
    80001090:	0006                	.insn	2, 0x0006
    80001092:	0000                	.insn	2, 0x0000
    80001094:	0002                	.insn	2, 0x0002
    80001096:	0000                	.insn	2, 0x0000
    80001098:	0002                	.insn	2, 0x0002
    8000109a:	0000                	.insn	2, 0x0000
    8000109c:	0004                	.insn	2, 0x0004
    8000109e:	0000                	.insn	2, 0x0000
    800010a0:	0004                	.insn	2, 0x0004
    800010a2:	0000                	.insn	2, 0x0000
    800010a4:	0005                	.insn	2, 0x0005
    800010a6:	0000                	.insn	2, 0x0000
    800010a8:	0002                	.insn	2, 0x0002
    800010aa:	0000                	.insn	2, 0x0000
    800010ac:	0006                	.insn	2, 0x0006
    800010ae:	0000                	.insn	2, 0x0000
    800010b0:	0005                	.insn	2, 0x0005
    800010b2:	0000                	.insn	2, 0x0000
    800010b4:	0000                	.insn	2, 0x0000
    800010b6:	0000                	.insn	2, 0x0000
    800010b8:	0004                	.insn	2, 0x0004
    800010ba:	0000                	.insn	2, 0x0000
    800010bc:	0001                	.insn	2, 0x0001
    800010be:	0000                	.insn	2, 0x0000
    800010c0:	0005                	.insn	2, 0x0005
    800010c2:	0000                	.insn	2, 0x0000
    800010c4:	0001                	.insn	2, 0x0001
    800010c6:	0000                	.insn	2, 0x0000
    800010c8:	00000003          	lb	x0,0(x0) # 0 <ALL_4KB_PAGES>
    800010cc:	0001                	.insn	2, 0x0001
    800010ce:	0000                	.insn	2, 0x0000
    800010d0:	00000003          	lb	x0,0(x0) # 0 <ALL_4KB_PAGES>
    800010d4:	0006                	.insn	2, 0x0006
	...

00000000800010e4 <scheduler__test_setup_ptr>:
    800010e4:	50c0                	.insn	2, 0x50c0
    800010e6:	8001                	.insn	2, 0x8001
    800010e8:	0000                	.insn	2, 0x0000
	...

00000000800010ec <scheduler__test_cleanup_ptr>:
    800010ec:	57bc                	.insn	2, 0x57bc
    800010ee:	8001                	.insn	2, 0x8001
    800010f0:	0000                	.insn	2, 0x0000
	...

Disassembly of section .runtime_s:

0000000080011000 <trap_handler_s__invalid_interrupt>:
    80011000:	1740006f          	j	80011174 <trap_handler_s__test_failed>

0000000080011004 <trap_handler_s__clear_all_interrupts>:
    80011004:	14401073          	csrw	sip,x0
    80011008:	10200073          	sret

000000008001100c <trap_handler_s___CLEAR_SSI>:
    8001100c:	00200293          	li	x5,2
    80011010:	1442b073          	csrc	sip,x5
    80011014:	10200073          	sret

0000000080011018 <trap_handler_s___CLEAR_MSI>:
    80011018:	00800293          	li	x5,8
    8001101c:	1442b073          	csrc	sip,x5
    80011020:	10200073          	sret

0000000080011024 <trap_handler_s___CLEAR_STI>:
    80011024:	02000293          	li	x5,32
    80011028:	1442b073          	csrc	sip,x5
    8001102c:	10200073          	sret

0000000080011030 <trap_handler_s___CLEAR_MTI>:
    80011030:	08000293          	li	x5,128
    80011034:	1442b073          	csrc	sip,x5
    80011038:	10200073          	sret

000000008001103c <trap_handler_s___CLEAR_SEI>:
    8001103c:	20000293          	li	x5,512
    80011040:	1442b073          	csrc	sip,x5
    80011044:	10200073          	sret

0000000080011048 <trap_handler_s___CLEAR_MEI>:
    80011048:	000012b7          	lui	x5,0x1
    8001104c:	8002829b          	addiw	x5,x5,-2048 # 800 <FS_RANDOMIZATION+0x79c>
    80011050:	1442b073          	csrc	sip,x5
    80011054:	10200073          	sret

0000000080011058 <trap_handler_s___CLEAR_COI>:
    80011058:	000022b7          	lui	x5,0x2
    8001105c:	1442b073          	csrc	sip,x5
    80011060:	10200073          	sret

0000000080011064 <trap_handler_s__clear_highest_priority_interrupt>:
    80011064:	144022f3          	csrr	x5,sip
    80011068:	40500333          	neg	x6,x5
    8001106c:	0062f2b3          	and	x5,x5,x6
    80011070:	1442b073          	csrc	sip,x5
    80011074:	10200073          	sret

0000000080011078 <trap_handler_s__trap_entry>:
    80011078:	10c0006f          	j	80011184 <trap_handler_s__trap_handler>

000000008001107c <trap_handler_s__interrupt_vector_table>:
    8001107c:	f91ff06f          	j	8001100c <trap_handler_s___CLEAR_SSI>
    80011080:	f81ff06f          	j	80011000 <trap_handler_s__invalid_interrupt>
    80011084:	f95ff06f          	j	80011018 <trap_handler_s___CLEAR_MSI>
    80011088:	f79ff06f          	j	80011000 <trap_handler_s__invalid_interrupt>
    8001108c:	f99ff06f          	j	80011024 <trap_handler_s___CLEAR_STI>
    80011090:	f71ff06f          	j	80011000 <trap_handler_s__invalid_interrupt>
    80011094:	f9dff06f          	j	80011030 <trap_handler_s___CLEAR_MTI>
    80011098:	f69ff06f          	j	80011000 <trap_handler_s__invalid_interrupt>
    8001109c:	fa1ff06f          	j	8001103c <trap_handler_s___CLEAR_SEI>
    800110a0:	f61ff06f          	j	80011000 <trap_handler_s__invalid_interrupt>
    800110a4:	fa5ff06f          	j	80011048 <trap_handler_s___CLEAR_MEI>
    800110a8:	f59ff06f          	j	80011000 <trap_handler_s__invalid_interrupt>
    800110ac:	fadff06f          	j	80011058 <trap_handler_s___CLEAR_COI>
    800110b0:	f51ff06f          	j	80011000 <trap_handler_s__invalid_interrupt>
    800110b4:	f4dff06f          	j	80011000 <trap_handler_s__invalid_interrupt>
    800110b8:	fadff06f          	j	80011064 <trap_handler_s__clear_highest_priority_interrupt>
    800110bc:	fa9ff06f          	j	80011064 <trap_handler_s__clear_highest_priority_interrupt>
    800110c0:	fa5ff06f          	j	80011064 <trap_handler_s__clear_highest_priority_interrupt>
    800110c4:	fa1ff06f          	j	80011064 <trap_handler_s__clear_highest_priority_interrupt>
    800110c8:	f9dff06f          	j	80011064 <trap_handler_s__clear_highest_priority_interrupt>
    800110cc:	f99ff06f          	j	80011064 <trap_handler_s__clear_highest_priority_interrupt>
    800110d0:	f95ff06f          	j	80011064 <trap_handler_s__clear_highest_priority_interrupt>
    800110d4:	f91ff06f          	j	80011064 <trap_handler_s__clear_highest_priority_interrupt>
    800110d8:	f8dff06f          	j	80011064 <trap_handler_s__clear_highest_priority_interrupt>
    800110dc:	f89ff06f          	j	80011064 <trap_handler_s__clear_highest_priority_interrupt>
    800110e0:	f85ff06f          	j	80011064 <trap_handler_s__clear_highest_priority_interrupt>
    800110e4:	f81ff06f          	j	80011064 <trap_handler_s__clear_highest_priority_interrupt>
    800110e8:	f7dff06f          	j	80011064 <trap_handler_s__clear_highest_priority_interrupt>
    800110ec:	f79ff06f          	j	80011064 <trap_handler_s__clear_highest_priority_interrupt>
    800110f0:	f75ff06f          	j	80011064 <trap_handler_s__clear_highest_priority_interrupt>
    800110f4:	f71ff06f          	j	80011064 <trap_handler_s__clear_highest_priority_interrupt>
    800110f8:	f6dff06f          	j	80011064 <trap_handler_s__clear_highest_priority_interrupt>
    800110fc:	f69ff06f          	j	80011064 <trap_handler_s__clear_highest_priority_interrupt>
    80011100:	f65ff06f          	j	80011064 <trap_handler_s__clear_highest_priority_interrupt>
    80011104:	f61ff06f          	j	80011064 <trap_handler_s__clear_highest_priority_interrupt>
    80011108:	f5dff06f          	j	80011064 <trap_handler_s__clear_highest_priority_interrupt>
    8001110c:	f59ff06f          	j	80011064 <trap_handler_s__clear_highest_priority_interrupt>
    80011110:	f55ff06f          	j	80011064 <trap_handler_s__clear_highest_priority_interrupt>
    80011114:	f51ff06f          	j	80011064 <trap_handler_s__clear_highest_priority_interrupt>
    80011118:	f4dff06f          	j	80011064 <trap_handler_s__clear_highest_priority_interrupt>
    8001111c:	f49ff06f          	j	80011064 <trap_handler_s__clear_highest_priority_interrupt>
    80011120:	f45ff06f          	j	80011064 <trap_handler_s__clear_highest_priority_interrupt>
    80011124:	f41ff06f          	j	80011064 <trap_handler_s__clear_highest_priority_interrupt>
    80011128:	f3dff06f          	j	80011064 <trap_handler_s__clear_highest_priority_interrupt>
    8001112c:	f39ff06f          	j	80011064 <trap_handler_s__clear_highest_priority_interrupt>
    80011130:	f35ff06f          	j	80011064 <trap_handler_s__clear_highest_priority_interrupt>
    80011134:	f31ff06f          	j	80011064 <trap_handler_s__clear_highest_priority_interrupt>
    80011138:	f2dff06f          	j	80011064 <trap_handler_s__clear_highest_priority_interrupt>
    8001113c:	f29ff06f          	j	80011064 <trap_handler_s__clear_highest_priority_interrupt>
    80011140:	f25ff06f          	j	80011064 <trap_handler_s__clear_highest_priority_interrupt>
    80011144:	f21ff06f          	j	80011064 <trap_handler_s__clear_highest_priority_interrupt>
    80011148:	f1dff06f          	j	80011064 <trap_handler_s__clear_highest_priority_interrupt>
    8001114c:	f19ff06f          	j	80011064 <trap_handler_s__clear_highest_priority_interrupt>
    80011150:	f15ff06f          	j	80011064 <trap_handler_s__clear_highest_priority_interrupt>
    80011154:	f11ff06f          	j	80011064 <trap_handler_s__clear_highest_priority_interrupt>
    80011158:	f0dff06f          	j	80011064 <trap_handler_s__clear_highest_priority_interrupt>
    8001115c:	f09ff06f          	j	80011064 <trap_handler_s__clear_highest_priority_interrupt>
    80011160:	f05ff06f          	j	80011064 <trap_handler_s__clear_highest_priority_interrupt>
    80011164:	f01ff06f          	j	80011064 <trap_handler_s__clear_highest_priority_interrupt>
    80011168:	efdff06f          	j	80011064 <trap_handler_s__clear_highest_priority_interrupt>
    8001116c:	ef9ff06f          	j	80011064 <trap_handler_s__clear_highest_priority_interrupt>
    80011170:	ef5ff06f          	j	80011064 <trap_handler_s__clear_highest_priority_interrupt>

0000000080011174 <trap_handler_s__test_failed>:
    80011174:	00f00f9b          	addiw	x31,x0,15
    80011178:	01cf9f93          	slli	x31,x31,0x1c
    8001117c:	002f8f93          	addi	x31,x31,2
    80011180:	00000073          	ecall

0000000080011184 <trap_handler_s__trap_handler>:
    80011184:	142022f3          	csrr	x5,scause
    80011188:	fff0031b          	addiw	x6,x0,-1
    8001118c:	03f31313          	slli	x6,x6,0x3f
    80011190:	00537333          	and	x6,x6,x5
    80011194:	02030263          	beqz	x6,800111b8 <trap_handler_s__exception_path>

0000000080011198 <trap_handler_s__interrupt_handler>:
    80011198:	fff0031b          	addiw	x6,x0,-1
    8001119c:	03f31313          	slli	x6,x6,0x3f
    800111a0:	0062c2b3          	xor	x5,x5,x6
    800111a4:	00000317          	auipc	x6,0x0
    800111a8:	ed430313          	addi	x6,x6,-300 # 80011078 <trap_handler_s__trap_entry>
    800111ac:	00229293          	slli	x5,x5,0x2
    800111b0:	005302b3          	add	x5,x6,x5
    800111b4:	00028067          	jr	x5 # 2000 <FS_RANDOMIZATION+0x1f9c>

00000000800111b8 <trap_handler_s__exception_path>:
    800111b8:	14021273          	csrrw	x4,sscratch,x4
    800111bc:	00000297          	auipc	x5,0x0
    800111c0:	0cc28293          	addi	x5,x5,204 # 80011288 <trap_handler_s__trap_panic>
    800111c4:	10529073          	csrw	stvec,x5
    800111c8:	0040006f          	j	800111cc <trap_handler_s__excp_entry>

00000000800111cc <trap_handler_s__excp_entry>:
    800111cc:	14202373          	csrr	x6,scause
    800111d0:	00800293          	li	x5,8
    800111d4:	00534863          	blt	x6,x5,800111e4 <trap_handler_s__check_exception_label>
    800111d8:	00b00293          	li	x5,11
    800111dc:	0062c463          	blt	x5,x6,800111e4 <trap_handler_s__check_exception_label>
    800111e0:	0a80006f          	j	80011288 <trap_handler_s__trap_panic>

00000000800111e4 <trap_handler_s__check_exception_label>:
    800111e4:	04623c23          	sd	x6,88(x4) # 58 <XLEN+0x18>
    800111e8:	141022f3          	csrr	x5,sepc
    800111ec:	02523423          	sd	x5,40(x4) # 28 <SECURE_ACCESS_PROBABILITY+0xa>
    800111f0:	01820283          	lb	x5,24(x4) # 18 <STORE_GUEST_PAGE_FAULT+0x1>
    800111f4:	00029863          	bnez	x5,80011204 <trap_handler_s__check_excp>
    800111f8:	00128293          	addi	x5,x5,1
    800111fc:	00520c23          	sb	x5,24(x4) # 18 <STORE_GUEST_PAGE_FAULT+0x1>
    80011200:	05c0006f          	j	8001125c <trap_handler_s__ecall_from_machine>

0000000080011204 <trap_handler_s__check_excp>:
    80011204:	06820293          	addi	x5,x4,104 # 68 <FS_RANDOMIZATION+0x4>
    80011208:	0802b2af          	amoswap.d	x5,x0,(x5)
    8001120c:	00028663          	beqz	x5,80011218 <trap_handler_s__skip_mode_check>
    80011210:	00300393          	li	x7,3
    80011214:	f67290e3          	bne	x5,x7,80011174 <trap_handler_s__test_failed>

0000000080011218 <trap_handler_s__skip_mode_check>:
    80011218:	05020293          	addi	x5,x4,80 # 50 <XLEN+0x10>
    8001121c:	0802b2af          	amoswap.d	x5,x0,(x5)
    80011220:	f4531ae3          	bne	x6,x5,80011174 <trap_handler_s__test_failed>
    80011224:	03820293          	addi	x5,x4,56 # 38 <SECURE_ACCESS_PROBABILITY+0x1a>
    80011228:	0802b2af          	amoswap.d	x5,x0,(x5)
    8001122c:	02029663          	bnez	x5,80011258 <trap_handler_s__skip_nonzero_tval_check>
    80011230:	02020313          	addi	x6,x4,32 # 20 <SECURE_ACCESS_PROBABILITY+0x2>
    80011234:	0803332f          	amoswap.d	x6,x0,(x6)
    80011238:	02820293          	addi	x5,x4,40 # 28 <SECURE_ACCESS_PROBABILITY+0xa>
    8001123c:	0802b2af          	amoswap.d	x5,x0,(x5)
    80011240:	f2531ae3          	bne	x6,x5,80011174 <trap_handler_s__test_failed>
    80011244:	04020293          	addi	x5,x4,64 # 40 <XLEN>
    80011248:	0802b2af          	amoswap.d	x5,x0,(x5)
    8001124c:	00028663          	beqz	x5,80011258 <trap_handler_s__skip_nonzero_tval_check>

0000000080011250 <trap_handler_s__nonzero_tval_check>:
    80011250:	14302373          	csrr	x6,stval
    80011254:	f25310e3          	bne	x6,x5,80011174 <trap_handler_s__test_failed>

0000000080011258 <trap_handler_s__skip_nonzero_tval_check>:
    80011258:	0040006f          	j	8001125c <trap_handler_s__ecall_from_machine>

000000008001125c <trap_handler_s__ecall_from_machine>:
    8001125c:	03020293          	addi	x5,x4,48 # 30 <SECURE_ACCESS_PROBABILITY+0x12>
    80011260:	0802b2af          	amoswap.d	x5,x0,(x5)
    80011264:	07020313          	addi	x6,x4,112 # 70 <FS_RANDOMIZATION+0xc>
    80011268:	0803332f          	amoswap.d	x6,x0,(x6)
    8001126c:	00031463          	bnez	x6,80011274 <trap_handler_s__skip_xepc_write>
    80011270:	14129073          	csrw	sepc,x5

0000000080011274 <trap_handler_s__skip_xepc_write>:
    80011274:	00000317          	auipc	x6,0x0
    80011278:	e0430313          	addi	x6,x6,-508 # 80011078 <trap_handler_s__trap_entry>
    8001127c:	10531073          	csrw	stvec,x6
    80011280:	14021273          	csrrw	x4,sscratch,x4
    80011284:	10200073          	sret

0000000080011288 <trap_handler_s__trap_panic>:
    80011288:	00000193          	li	x3,0
    8001128c:	00f00f9b          	addiw	x31,x0,15
    80011290:	01cf9f93          	slli	x31,x31,0x1c
    80011294:	002f8f93          	addi	x31,x31,2
    80011298:	00000073          	ecall

Disassembly of section .code:

0000000080015090 <passed>:
    80015090:	00f00f9b          	addiw	x31,x0,15
    80015094:	01cf9f93          	slli	x31,x31,0x1c
    80015098:	001f8f93          	addi	x31,x31,1
    8001509c:	00000073          	ecall

00000000800150a0 <failed>:
    800150a0:	00f00f9b          	addiw	x31,x0,15
    800150a4:	01cf9f93          	slli	x31,x31,0x1c
    800150a8:	002f8f93          	addi	x31,x31,2
    800150ac:	00000073          	ecall

00000000800150b0 <end_test>:
    800150b0:	00f00f9b          	addiw	x31,x0,15
    800150b4:	01cf9f93          	slli	x31,x31,0x1c
    800150b8:	003f8f93          	addi	x31,x31,3
    800150bc:	00000073          	ecall

00000000800150c0 <test_setup>:
    800150c0:	00f00f9b          	addiw	x31,x0,15
    800150c4:	01cf9f93          	slli	x31,x31,0x1c
    800150c8:	001f8f93          	addi	x31,x31,1
    800150cc:	00000073          	ecall

00000000800150d0 <SID_05_pm_disabled_u_vu_mode>:
    800150d0:	00cec137          	lui	x2,0xcec
    800150d4:	d791011b          	addiw	x2,x2,-647 # cebd79 <mem1+0x775d79>
    800150d8:	00c11113          	slli	x2,x2,0xc
    800150dc:	0bc84fb7          	lui	x31,0xbc84
    800150e0:	09ff8f9b          	addiw	x31,x31,159 # bc8409f <hart_stack_0_end+0x226909f>
    800150e4:	00df9f93          	slli	x31,x31,0xd
    800150e8:	0a0f8f93          	addi	x31,x31,160
    800150ec:	00100f13          	li	x30,1
    800150f0:	01efb023          	sd	x30,0(x31)
    800150f4:	000f0fb7          	lui	x31,0xf0
    800150f8:	001f8f9b          	addiw	x31,x31,1 # f0001 <mem7+0x6c001>
    800150fc:	00cf9f93          	slli	x31,x31,0xc
    80015100:	005f8f93          	addi	x31,x31,5
    80015104:	00000073          	ecall
    80015108:	00713023          	sd	x7,0(x2)
    8001510c:	000cb137          	lui	x2,0xcb
    80015110:	af51011b          	addiw	x2,x2,-1291 # caaf5 <mem7+0x46af5>
    80015114:	00d11113          	slli	x2,x2,0xd
    80015118:	19110113          	addi	x2,x2,401
    8001511c:	00c11113          	slli	x2,x2,0xc
    80015120:	000012b7          	lui	x5,0x1
    80015124:	00510133          	add	x2,x2,x5
    80015128:	ff017113          	andi	x2,x2,-16
    8001512c:	0030039b          	addiw	x7,x0,3
    80015130:	02039393          	slli	x7,x7,0x20
    80015134:	10a3b3f3          	csrrc	x7,0x10a,x7
    80015138:	00038d37          	lui	x26,0x38
    8001513c:	ab7d0d1b          	addiw	x26,x26,-1353 # 37ab7 <_all_interrupts+0x3500d>
    80015140:	00ed1d13          	slli	x26,x26,0xe
    80015144:	eefd0d13          	addi	x26,x26,-273
    80015148:	019156b7          	lui	x13,0x1915
    8001514c:	29b6869b          	addiw	x13,x13,667 # 191529b <mem1+0x139f29b>
    80015150:	00e69693          	slli	x13,x13,0xe
    80015154:	d02d7a53          	fcvt.s.l	f20,x26
    80015158:	0146a027          	fsw	f20,0(x13)
    8001515c:	01915437          	lui	x8,0x1915
    80015160:	29b4041b          	addiw	x8,x8,667 # 191529b <mem1+0x139f29b>
    80015164:	00e41413          	slli	x8,x8,0xe
    80015168:	fff00e1b          	addiw	x28,x0,-1
    8001516c:	039e1e13          	slli	x28,x28,0x39
    80015170:	01c446b3          	xor	x13,x8,x28
    80015174:	42195237          	lui	x4,0x42195
    80015178:	00d00e13          	li	x28,13
    8001517c:	05c23823          	sd	x28,80(x4) # 42195050 <check_excp_expected_cause>
    80015180:	00000e17          	auipc	x28,0x0
    80015184:	048e0e13          	addi	x28,x28,72 # 800151c8 <fault_label_0>
    80015188:	03c23023          	sd	x28,32(x4) # 20 <SECURE_ACCESS_PROBABILITY+0x2>
    8001518c:	00000e13          	li	x28,0
    80015190:	05c23023          	sd	x28,64(x4) # 40 <XLEN>
    80015194:	00000e13          	li	x28,0
    80015198:	05c23423          	sd	x28,72(x4) # 48 <XLEN+0x8>
    8001519c:	00000e17          	auipc	x28,0x0
    800151a0:	048e0e13          	addi	x28,x28,72 # 800151e4 <excp_return_label_0>
    800151a4:	03c23823          	sd	x28,48(x4) # 30 <SECURE_ACCESS_PROBABILITY+0x12>
    800151a8:	00000e13          	li	x28,0
    800151ac:	03c23c23          	sd	x28,56(x4) # 38 <SECURE_ACCESS_PROBABILITY+0x1a>
    800151b0:	00000e13          	li	x28,0
    800151b4:	07c23023          	sd	x28,96(x4) # 60 <XLEN+0x20>
    800151b8:	00000e13          	li	x28,0
    800151bc:	07c23423          	sd	x28,104(x4) # 68 <FS_RANDOMIZATION+0x4>
    800151c0:	00000e13          	li	x28,0
    800151c4:	07c23823          	sd	x28,112(x4) # 70 <FS_RANDOMIZATION+0xc>

00000000800151c8 <fault_label_0>:
    800151c8:	0006b307          	fld	f6,0(x13)
    800151cc:	0bc84b37          	lui	x22,0xbc84
    800151d0:	09fb0b1b          	addiw	x22,x22,159 # bc8409f <hart_stack_0_end+0x226909f>
    800151d4:	00db1b13          	slli	x22,x22,0xd
    800151d8:	008b0b13          	addi	x22,x22,8
    800151dc:	000b3383          	ld	x7,0(x22)
    800151e0:	00038067          	jr	x7

00000000800151e4 <excp_return_label_0>:
    800151e4:	00cec137          	lui	x2,0xcec
    800151e8:	d791011b          	addiw	x2,x2,-647 # cebd79 <mem1+0x775d79>
    800151ec:	00c11113          	slli	x2,x2,0xc
    800151f0:	00013383          	ld	x7,0(x2)
    800151f4:	0bc84fb7          	lui	x31,0xbc84
    800151f8:	09ff8f9b          	addiw	x31,x31,159 # bc8409f <hart_stack_0_end+0x226909f>
    800151fc:	00df9f93          	slli	x31,x31,0xd
    80015200:	0a0f8f93          	addi	x31,x31,160
    80015204:	00300f13          	li	x30,3
    80015208:	01efb023          	sd	x30,0(x31)
    8001520c:	000f0fb7          	lui	x31,0xf0
    80015210:	001f8f9b          	addiw	x31,x31,1 # f0001 <mem7+0x6c001>
    80015214:	00cf9f93          	slli	x31,x31,0xc
    80015218:	005f8f93          	addi	x31,x31,5
    8001521c:	00000073          	ecall

0000000080015220 <SID_05_pm_disabled_u_vu_mode_passed>:
    80015220:	00f00f9b          	addiw	x31,x0,15
    80015224:	01cf9f93          	slli	x31,x31,0x1c
    80015228:	001f8f93          	addi	x31,x31,1
    8001522c:	00000073          	ecall

0000000080015230 <SID_13_pm_enabled_u_vu_mode>:
    80015230:	00cec137          	lui	x2,0xcec
    80015234:	d791011b          	addiw	x2,x2,-647 # cebd79 <mem1+0x775d79>
    80015238:	00c11113          	slli	x2,x2,0xc
    8001523c:	0bc84fb7          	lui	x31,0xbc84
    80015240:	09ff8f9b          	addiw	x31,x31,159 # bc8409f <hart_stack_0_end+0x226909f>
    80015244:	00df9f93          	slli	x31,x31,0xd
    80015248:	0a0f8f93          	addi	x31,x31,160
    8001524c:	00100f13          	li	x30,1
    80015250:	01efb023          	sd	x30,0(x31)
    80015254:	000f0fb7          	lui	x31,0xf0
    80015258:	001f8f9b          	addiw	x31,x31,1 # f0001 <mem7+0x6c001>
    8001525c:	00cf9f93          	slli	x31,x31,0xc
    80015260:	005f8f93          	addi	x31,x31,5
    80015264:	00000073          	ecall
    80015268:	00713023          	sd	x7,0(x2)
    8001526c:	00477137          	lui	x2,0x477
    80015270:	000012b7          	lui	x5,0x1
    80015274:	00510133          	add	x2,x2,x5
    80015278:	ff017113          	andi	x2,x2,-16
    8001527c:	0010039b          	addiw	x7,x0,1
    80015280:	02139393          	slli	x7,x7,0x21
    80015284:	10a3a3f3          	csrrs	x7,0x10a,x7
    80015288:	000ac437          	lui	x8,0xac
    8001528c:	cd14041b          	addiw	x8,x8,-815 # abcd1 <mem7+0x27cd1>
    80015290:	00c41413          	slli	x8,x8,0xc
    80015294:	23440413          	addi	x8,x8,564
    80015298:	00576337          	lui	x6,0x576
    8001529c:	00832023          	sw	x8,0(x6) # 576000 <mem1>
    800152a0:	00576a37          	lui	x20,0x576
    800152a4:	fff00c1b          	addiw	x24,x0,-1
    800152a8:	039c1c13          	slli	x24,x24,0x39
    800152ac:	018a49b3          	xor	x19,x20,x24
    800152b0:	0009bf07          	fld	f30,0(x19)
    800152b4:	00033bb7          	lui	x23,0x33
    800152b8:	bfbb8b9b          	addiw	x23,x23,-1029 # 32bfb <_all_interrupts+0x30151>
    800152bc:	00eb9b93          	slli	x23,x23,0xe
    800152c0:	abeb8b93          	addi	x23,x23,-1346
    800152c4:	d02bf753          	fcvt.s.l	f14,x23
    800152c8:	00e9b027          	fsd	f14,0(x19)
    800152cc:	00576eb7          	lui	x29,0x576
    800152d0:	000eb307          	fld	f6,0(x29) # 576000 <mem1>
    800152d4:	00cec137          	lui	x2,0xcec
    800152d8:	d791011b          	addiw	x2,x2,-647 # cebd79 <mem1+0x775d79>
    800152dc:	00c11113          	slli	x2,x2,0xc
    800152e0:	00013383          	ld	x7,0(x2)
    800152e4:	0bc84fb7          	lui	x31,0xbc84
    800152e8:	09ff8f9b          	addiw	x31,x31,159 # bc8409f <hart_stack_0_end+0x226909f>
    800152ec:	00df9f93          	slli	x31,x31,0xd
    800152f0:	0a0f8f93          	addi	x31,x31,160
    800152f4:	00300f13          	li	x30,3
    800152f8:	01efb023          	sd	x30,0(x31)
    800152fc:	000f0fb7          	lui	x31,0xf0
    80015300:	001f8f9b          	addiw	x31,x31,1 # f0001 <mem7+0x6c001>
    80015304:	00cf9f93          	slli	x31,x31,0xc
    80015308:	005f8f93          	addi	x31,x31,5
    8001530c:	00000073          	ecall

0000000080015310 <SID_13_pm_enabled_u_vu_mode_passed>:
    80015310:	00f00f9b          	addiw	x31,x0,15
    80015314:	01cf9f93          	slli	x31,x31,0x1c
    80015318:	001f8f93          	addi	x31,x31,1
    8001531c:	00000073          	ecall

0000000080015320 <SID_24_pm_instruction_set>:
    80015320:	00cec137          	lui	x2,0xcec
    80015324:	d791011b          	addiw	x2,x2,-647 # cebd79 <mem1+0x775d79>
    80015328:	00c11113          	slli	x2,x2,0xc
    8001532c:	0bc84fb7          	lui	x31,0xbc84
    80015330:	09ff8f9b          	addiw	x31,x31,159 # bc8409f <hart_stack_0_end+0x226909f>
    80015334:	00df9f93          	slli	x31,x31,0xd
    80015338:	0a0f8f93          	addi	x31,x31,160
    8001533c:	00100f13          	li	x30,1
    80015340:	01efb023          	sd	x30,0(x31)
    80015344:	000f0fb7          	lui	x31,0xf0
    80015348:	001f8f9b          	addiw	x31,x31,1 # f0001 <mem7+0x6c001>
    8001534c:	00cf9f93          	slli	x31,x31,0xc
    80015350:	005f8f93          	addi	x31,x31,5
    80015354:	00000073          	ecall
    80015358:	00713023          	sd	x7,0(x2)
    8001535c:	007ae137          	lui	x2,0x7ae
    80015360:	8471011b          	addiw	x2,x2,-1977 # 7ad847 <mem1+0x237847>
    80015364:	00c11113          	slli	x2,x2,0xc
    80015368:	000012b7          	lui	x5,0x1
    8001536c:	00510133          	add	x2,x2,x5
    80015370:	ff017113          	andi	x2,x2,-16
    80015374:	0010039b          	addiw	x7,x0,1
    80015378:	02139393          	slli	x7,x7,0x21
    8001537c:	10a3a3f3          	csrrs	x7,0x10a,x7
    80015380:	11223737          	lui	x14,0x11223
    80015384:	3447071b          	addiw	x14,x14,836 # 11223344 <maplic_255+0x924344>
    80015388:	000bb337          	lui	x6,0xbb
    8001538c:	0413031b          	addiw	x6,x6,65 # bb041 <mem7+0x37041>
    80015390:	00d31313          	slli	x6,x6,0xd
    80015394:	19b30313          	addi	x6,x6,411
    80015398:	00c31313          	slli	x6,x6,0xc
    8001539c:	d2170353          	fcvt.d.wu	f6,x14
    800153a0:	00633027          	fsd	f6,0(x6)
    800153a4:	000bb9b7          	lui	x19,0xbb
    800153a8:	0419899b          	addiw	x19,x19,65 # bb041 <mem7+0x37041>
    800153ac:	00d99993          	slli	x19,x19,0xd
    800153b0:	19b98993          	addi	x19,x19,411
    800153b4:	00c99993          	slli	x19,x19,0xc
    800153b8:	0009b683          	ld	x13,0(x19)
    800153bc:	00cec137          	lui	x2,0xcec
    800153c0:	d791011b          	addiw	x2,x2,-647 # cebd79 <mem1+0x775d79>
    800153c4:	00c11113          	slli	x2,x2,0xc
    800153c8:	00013383          	ld	x7,0(x2)
    800153cc:	0bc84fb7          	lui	x31,0xbc84
    800153d0:	09ff8f9b          	addiw	x31,x31,159 # bc8409f <hart_stack_0_end+0x226909f>
    800153d4:	00df9f93          	slli	x31,x31,0xd
    800153d8:	0a0f8f93          	addi	x31,x31,160
    800153dc:	00300f13          	li	x30,3
    800153e0:	01efb023          	sd	x30,0(x31)
    800153e4:	000f0fb7          	lui	x31,0xf0
    800153e8:	001f8f9b          	addiw	x31,x31,1 # f0001 <mem7+0x6c001>
    800153ec:	00cf9f93          	slli	x31,x31,0xc
    800153f0:	005f8f93          	addi	x31,x31,5
    800153f4:	00000073          	ecall

00000000800153f8 <SID_24_pm_instruction_set_passed>:
    800153f8:	00f00f9b          	addiw	x31,x0,15
    800153fc:	01cf9f93          	slli	x31,x31,0x1c
    80015400:	001f8f93          	addi	x31,x31,1
    80015404:	00000073          	ecall

0000000080015408 <SID_25_pm_misaligned_access>:
    80015408:	00cec137          	lui	x2,0xcec
    8001540c:	d791011b          	addiw	x2,x2,-647 # cebd79 <mem1+0x775d79>
    80015410:	00c11113          	slli	x2,x2,0xc
    80015414:	0bc84fb7          	lui	x31,0xbc84
    80015418:	09ff8f9b          	addiw	x31,x31,159 # bc8409f <hart_stack_0_end+0x226909f>
    8001541c:	00df9f93          	slli	x31,x31,0xd
    80015420:	0a0f8f93          	addi	x31,x31,160
    80015424:	00100f13          	li	x30,1
    80015428:	01efb023          	sd	x30,0(x31)
    8001542c:	000f0fb7          	lui	x31,0xf0
    80015430:	001f8f9b          	addiw	x31,x31,1 # f0001 <mem7+0x6c001>
    80015434:	00cf9f93          	slli	x31,x31,0xc
    80015438:	005f8f93          	addi	x31,x31,5
    8001543c:	00000073          	ecall
    80015440:	00713023          	sd	x7,0(x2)
    80015444:	0048f137          	lui	x2,0x48f
    80015448:	5351011b          	addiw	x2,x2,1333 # 48f535 <SID_13_pm_enabled_u_vu_mode_stack+0x18535>
    8001544c:	00f11113          	slli	x2,x2,0xf
    80015450:	000012b7          	lui	x5,0x1
    80015454:	00510133          	add	x2,x2,x5
    80015458:	ff017113          	andi	x2,x2,-16
    8001545c:	0030039b          	addiw	x7,x0,3
    80015460:	02039393          	slli	x7,x7,0x20
    80015464:	10a3a3f3          	csrrs	x7,0x10a,x7
    80015468:	55667bb7          	lui	x23,0x55667
    8001546c:	788b8b9b          	addiw	x23,x23,1928 # 55667788 <current_test_index+0x134d25f0>
    80015470:	01e0ceb7          	lui	x29,0x1e0c
    80015474:	017eb023          	sd	x23,0(x29) # 1e0c000 <mem3>
    80015478:	01e0ccb7          	lui	x25,0x1e0c
    8001547c:	000cb307          	fld	f6,0(x25) # 1e0c000 <mem3>
    80015480:	00cec137          	lui	x2,0xcec
    80015484:	d791011b          	addiw	x2,x2,-647 # cebd79 <mem1+0x775d79>
    80015488:	00c11113          	slli	x2,x2,0xc
    8001548c:	00013383          	ld	x7,0(x2)
    80015490:	0bc84fb7          	lui	x31,0xbc84
    80015494:	09ff8f9b          	addiw	x31,x31,159 # bc8409f <hart_stack_0_end+0x226909f>
    80015498:	00df9f93          	slli	x31,x31,0xd
    8001549c:	0a0f8f93          	addi	x31,x31,160
    800154a0:	00300f13          	li	x30,3
    800154a4:	01efb023          	sd	x30,0(x31)
    800154a8:	000f0fb7          	lui	x31,0xf0
    800154ac:	001f8f9b          	addiw	x31,x31,1 # f0001 <mem7+0x6c001>
    800154b0:	00cf9f93          	slli	x31,x31,0xc
    800154b4:	005f8f93          	addi	x31,x31,5
    800154b8:	00000073          	ecall

00000000800154bc <SID_25_pm_misaligned_access_passed>:
    800154bc:	00f00f9b          	addiw	x31,x0,15
    800154c0:	01cf9f93          	slli	x31,x31,0x1c
    800154c4:	001f8f93          	addi	x31,x31,1
    800154c8:	00000073          	ecall

00000000800154cc <SID_26_pm_different_tags_same_address>:
    800154cc:	00cec137          	lui	x2,0xcec
    800154d0:	d791011b          	addiw	x2,x2,-647 # cebd79 <mem1+0x775d79>
    800154d4:	00c11113          	slli	x2,x2,0xc
    800154d8:	0bc84fb7          	lui	x31,0xbc84
    800154dc:	09ff8f9b          	addiw	x31,x31,159 # bc8409f <hart_stack_0_end+0x226909f>
    800154e0:	00df9f93          	slli	x31,x31,0xd
    800154e4:	0a0f8f93          	addi	x31,x31,160
    800154e8:	00100f13          	li	x30,1
    800154ec:	01efb023          	sd	x30,0(x31)
    800154f0:	000f0fb7          	lui	x31,0xf0
    800154f4:	001f8f9b          	addiw	x31,x31,1 # f0001 <mem7+0x6c001>
    800154f8:	00cf9f93          	slli	x31,x31,0xc
    800154fc:	005f8f93          	addi	x31,x31,5
    80015500:	00000073          	ecall
    80015504:	00713023          	sd	x7,0(x2)
    80015508:	001b4137          	lui	x2,0x1b4
    8001550c:	000012b7          	lui	x5,0x1
    80015510:	00510133          	add	x2,x2,x5
    80015514:	ff017113          	andi	x2,x2,-16
    80015518:	0030039b          	addiw	x7,x0,3
    8001551c:	02039393          	slli	x7,x7,0x20
    80015520:	10a3a3f3          	csrrs	x7,0x10a,x7
    80015524:	111113b7          	lui	x7,0x11111
    80015528:	1113839b          	addiw	x7,x7,273 # 11111111 <maplic_255+0x812111>
    8001552c:	02e97cb7          	lui	x25,0x2e97
    80015530:	495c8c9b          	addiw	x25,x25,1173 # 2e97495 <SID_27_pm_implicit_access_stack+0x1087495>
    80015534:	00dc9c93          	slli	x25,x25,0xd
    80015538:	007ca023          	sw	x7,0(x25)
    8001553c:	22222937          	lui	x18,0x22222
    80015540:	2229091b          	addiw	x18,x18,546 # 22222222 <saplic_255+0x1923222>
    80015544:	02e979b7          	lui	x19,0x2e97
    80015548:	4959899b          	addiw	x19,x19,1173 # 2e97495 <SID_27_pm_implicit_access_stack+0x1087495>
    8001554c:	00d99993          	slli	x19,x19,0xd
    80015550:	0129a023          	sw	x18,0(x19)
    80015554:	02e97bb7          	lui	x23,0x2e97
    80015558:	495b8b9b          	addiw	x23,x23,1173 # 2e97495 <SID_27_pm_implicit_access_stack+0x1087495>
    8001555c:	00db9b93          	slli	x23,x23,0xd
    80015560:	000bb307          	fld	f6,0(x23)
    80015564:	00cec137          	lui	x2,0xcec
    80015568:	d791011b          	addiw	x2,x2,-647 # cebd79 <mem1+0x775d79>
    8001556c:	00c11113          	slli	x2,x2,0xc
    80015570:	00013383          	ld	x7,0(x2)
    80015574:	0bc84fb7          	lui	x31,0xbc84
    80015578:	09ff8f9b          	addiw	x31,x31,159 # bc8409f <hart_stack_0_end+0x226909f>
    8001557c:	00df9f93          	slli	x31,x31,0xd
    80015580:	0a0f8f93          	addi	x31,x31,160
    80015584:	00300f13          	li	x30,3
    80015588:	01efb023          	sd	x30,0(x31)
    8001558c:	000f0fb7          	lui	x31,0xf0
    80015590:	001f8f9b          	addiw	x31,x31,1 # f0001 <mem7+0x6c001>
    80015594:	00cf9f93          	slli	x31,x31,0xc
    80015598:	005f8f93          	addi	x31,x31,5
    8001559c:	00000073          	ecall

00000000800155a0 <SID_26_pm_different_tags_same_address_passed>:
    800155a0:	00f00f9b          	addiw	x31,x0,15
    800155a4:	01cf9f93          	slli	x31,x31,0x1c
    800155a8:	001f8f93          	addi	x31,x31,1
    800155ac:	00000073          	ecall

00000000800155b0 <SID_27_pm_implicit_access>:
    800155b0:	00cec137          	lui	x2,0xcec
    800155b4:	d791011b          	addiw	x2,x2,-647 # cebd79 <mem1+0x775d79>
    800155b8:	00c11113          	slli	x2,x2,0xc
    800155bc:	0bc84fb7          	lui	x31,0xbc84
    800155c0:	09ff8f9b          	addiw	x31,x31,159 # bc8409f <hart_stack_0_end+0x226909f>
    800155c4:	00df9f93          	slli	x31,x31,0xd
    800155c8:	0a0f8f93          	addi	x31,x31,160
    800155cc:	00100f13          	li	x30,1
    800155d0:	01efb023          	sd	x30,0(x31)
    800155d4:	000f0fb7          	lui	x31,0xf0
    800155d8:	001f8f9b          	addiw	x31,x31,1 # f0001 <mem7+0x6c001>
    800155dc:	00cf9f93          	slli	x31,x31,0xc
    800155e0:	005f8f93          	addi	x31,x31,5
    800155e4:	00000073          	ecall
    800155e8:	00713023          	sd	x7,0(x2)
    800155ec:	01e10137          	lui	x2,0x1e10
    800155f0:	000012b7          	lui	x5,0x1
    800155f4:	00510133          	add	x2,x2,x5
    800155f8:	ff017113          	andi	x2,x2,-16
    800155fc:	0010039b          	addiw	x7,x0,1
    80015600:	02139393          	slli	x7,x7,0x21
    80015604:	10a3a3f3          	csrrs	x7,0x10a,x7
    80015608:	00040db7          	lui	x27,0x40
    8001560c:	bb7d8d9b          	addiw	x27,x27,-1097 # 3fbb7 <_all_interrupts+0x3d10d>
    80015610:	00ed9d93          	slli	x27,x27,0xe
    80015614:	0ded8d93          	addi	x27,x27,222
    80015618:	0123dbb7          	lui	x23,0x123d
    8001561c:	4d3b8b9b          	addiw	x23,x23,1235 # 123d4d3 <mem1+0xcc74d3>
    80015620:	00db9b93          	slli	x23,x23,0xd
    80015624:	01bba023          	sw	x27,0(x23)
    80015628:	0123d737          	lui	x14,0x123d
    8001562c:	4d37071b          	addiw	x14,x14,1235 # 123d4d3 <mem1+0xcc74d3>
    80015630:	00d71713          	slli	x14,x14,0xd
    80015634:	00073807          	fld	f16,0(x14)
    80015638:	059de837          	lui	x16,0x59de
    8001563c:	d018081b          	addiw	x16,x16,-767 # 59ddd01 <SID_27_pm_implicit_access_stack+0x3bcdd01>
    80015640:	00c81813          	slli	x16,x16,0xc
    80015644:	000800e7          	jalr	x16
    80015648:	00cec137          	lui	x2,0xcec
    8001564c:	d791011b          	addiw	x2,x2,-647 # cebd79 <mem1+0x775d79>
    80015650:	00c11113          	slli	x2,x2,0xc
    80015654:	00013383          	ld	x7,0(x2)
    80015658:	0bc84fb7          	lui	x31,0xbc84
    8001565c:	09ff8f9b          	addiw	x31,x31,159 # bc8409f <hart_stack_0_end+0x226909f>
    80015660:	00df9f93          	slli	x31,x31,0xd
    80015664:	0a0f8f93          	addi	x31,x31,160
    80015668:	00300f13          	li	x30,3
    8001566c:	01efb023          	sd	x30,0(x31)
    80015670:	000f0fb7          	lui	x31,0xf0
    80015674:	001f8f9b          	addiw	x31,x31,1 # f0001 <mem7+0x6c001>
    80015678:	00cf9f93          	slli	x31,x31,0xc
    8001567c:	005f8f93          	addi	x31,x31,5
    80015680:	00000073          	ecall

0000000080015684 <SID_27_pm_implicit_access_passed>:
    80015684:	00f00f9b          	addiw	x31,x0,15
    80015688:	01cf9f93          	slli	x31,x31,0x1c
    8001568c:	001f8f93          	addi	x31,x31,1
    80015690:	00000073          	ecall

0000000080015694 <SID_28_pm_faults_trap_values>:
    80015694:	00cec137          	lui	x2,0xcec
    80015698:	d791011b          	addiw	x2,x2,-647 # cebd79 <mem1+0x775d79>
    8001569c:	00c11113          	slli	x2,x2,0xc
    800156a0:	0bc84fb7          	lui	x31,0xbc84
    800156a4:	09ff8f9b          	addiw	x31,x31,159 # bc8409f <hart_stack_0_end+0x226909f>
    800156a8:	00df9f93          	slli	x31,x31,0xd
    800156ac:	0a0f8f93          	addi	x31,x31,160
    800156b0:	00100f13          	li	x30,1
    800156b4:	01efb023          	sd	x30,0(x31)
    800156b8:	000f0fb7          	lui	x31,0xf0
    800156bc:	001f8f9b          	addiw	x31,x31,1 # f0001 <mem7+0x6c001>
    800156c0:	00cf9f93          	slli	x31,x31,0xc
    800156c4:	005f8f93          	addi	x31,x31,5
    800156c8:	00000073          	ecall
    800156cc:	00713023          	sd	x7,0(x2)
    800156d0:	000da137          	lui	x2,0xda
    800156d4:	1db1011b          	addiw	x2,x2,475 # da1db <mem7+0x561db>
    800156d8:	00c11113          	slli	x2,x2,0xc
    800156dc:	000012b7          	lui	x5,0x1
    800156e0:	00510133          	add	x2,x2,x5
    800156e4:	ff017113          	andi	x2,x2,-16
    800156e8:	0010039b          	addiw	x7,x0,1
    800156ec:	02139393          	slli	x7,x7,0x21
    800156f0:	10a3a3f3          	csrrs	x7,0x10a,x7
    800156f4:	0badfc37          	lui	x24,0xbadf
    800156f8:	00dc0c1b          	addiw	x24,x24,13 # badf00d <hart_stack_0_end+0x20c400d>
    800156fc:	42195237          	lui	x4,0x42195
    80015700:	00f00e13          	li	x28,15
    80015704:	05c23823          	sd	x28,80(x4) # 42195050 <check_excp_expected_cause>
    80015708:	00000e17          	auipc	x28,0x0
    8001570c:	04ce0e13          	addi	x28,x28,76 # 80015754 <fault_label_1>
    80015710:	03c23023          	sd	x28,32(x4) # 20 <SECURE_ACCESS_PROBABILITY+0x2>
    80015714:	00000e13          	li	x28,0
    80015718:	05c23023          	sd	x28,64(x4) # 40 <XLEN>
    8001571c:	00000e13          	li	x28,0
    80015720:	05c23423          	sd	x28,72(x4) # 48 <XLEN+0x8>
    80015724:	00000e17          	auipc	x28,0x0
    80015728:	04ce0e13          	addi	x28,x28,76 # 80015770 <excp_return_label_1>
    8001572c:	03c23823          	sd	x28,48(x4) # 30 <SECURE_ACCESS_PROBABILITY+0x12>
    80015730:	00000e13          	li	x28,0
    80015734:	03c23c23          	sd	x28,56(x4) # 38 <SECURE_ACCESS_PROBABILITY+0x1a>
    80015738:	00000e13          	li	x28,0
    8001573c:	07c23023          	sd	x28,96(x4) # 60 <XLEN+0x20>
    80015740:	00000e13          	li	x28,0
    80015744:	07c23423          	sd	x28,104(x4) # 68 <FS_RANDOMIZATION+0x4>
    80015748:	00000e13          	li	x28,0
    8001574c:	07c23823          	sd	x28,112(x4) # 70 <FS_RANDOMIZATION+0xc>
    80015750:	00084bb7          	lui	x23,0x84

0000000080015754 <fault_label_1>:
    80015754:	018ba023          	sw	x24,0(x23) # 84000 <mem7>
    80015758:	0bc84bb7          	lui	x23,0xbc84
    8001575c:	09fb8b9b          	addiw	x23,x23,159 # bc8409f <hart_stack_0_end+0x226909f>
    80015760:	00db9b93          	slli	x23,x23,0xd
    80015764:	008b8b93          	addi	x23,x23,8
    80015768:	000bb903          	ld	x18,0(x23)
    8001576c:	00090067          	jr	x18

0000000080015770 <excp_return_label_1>:
    80015770:	00cec137          	lui	x2,0xcec
    80015774:	d791011b          	addiw	x2,x2,-647 # cebd79 <mem1+0x775d79>
    80015778:	00c11113          	slli	x2,x2,0xc
    8001577c:	00013383          	ld	x7,0(x2)
    80015780:	0bc84fb7          	lui	x31,0xbc84
    80015784:	09ff8f9b          	addiw	x31,x31,159 # bc8409f <hart_stack_0_end+0x226909f>
    80015788:	00df9f93          	slli	x31,x31,0xd
    8001578c:	0a0f8f93          	addi	x31,x31,160
    80015790:	00300f13          	li	x30,3
    80015794:	01efb023          	sd	x30,0(x31)
    80015798:	000f0fb7          	lui	x31,0xf0
    8001579c:	001f8f9b          	addiw	x31,x31,1 # f0001 <mem7+0x6c001>
    800157a0:	00cf9f93          	slli	x31,x31,0xc
    800157a4:	005f8f93          	addi	x31,x31,5
    800157a8:	00000073          	ecall

00000000800157ac <SID_28_pm_faults_trap_values_passed>:
    800157ac:	00f00f9b          	addiw	x31,x0,15
    800157b0:	01cf9f93          	slli	x31,x31,0x1c
    800157b4:	001f8f93          	addi	x31,x31,1
    800157b8:	00000073          	ecall

00000000800157bc <test_cleanup>:
    800157bc:	00f00f9b          	addiw	x31,x0,15
    800157c0:	01cf9f93          	slli	x31,x31,0x1c
    800157c4:	001f8f93          	addi	x31,x31,1
    800157c8:	00000073          	ecall

00000000800157cc <local_test_failed>:
    800157cc:	00f00f9b          	addiw	x31,x0,15
    800157d0:	01cf9f93          	slli	x31,x31,0x1c
    800157d4:	002f8f93          	addi	x31,x31,2
    800157d8:	00000073          	ecall

Disassembly of section .csr_machine_0:

0000000080215000 <csr_access_senvcfg_supervisor_key_3_write-0x50>:
    80215000:	00041fb7          	lui	x31,0x41
    80215004:	5a7f8f9b          	addiw	x31,x31,1447 # 415a7 <_all_interrupts+0x3eafd>
    80215008:	012f9f93          	slli	x31,x31,0x12
    8021500c:	0bff8f93          	addi	x31,x31,191
    80215010:	00ef9f93          	slli	x31,x31,0xe
    80215014:	0a0f8f93          	addi	x31,x31,160
    80215018:	000fbf83          	ld	x31,0(x31)
    8021501c:	00300293          	li	x5,3
    80215020:	025f8863          	beq	x31,x5,80215050 <csr_access_senvcfg_supervisor_key_3_write>
    80215024:	00100293          	li	x5,1
    80215028:	025f8863          	beq	x31,x5,80215058 <csr_access_senvcfg_supervisor_key_1_read>
    8021502c:	00800293          	li	x5,8
    80215030:	025f8863          	beq	x31,x5,80215060 <csr_access_mstatus_machine_key_8_set>
    80215034:	00600293          	li	x5,6
    80215038:	025f8863          	beq	x31,x5,80215068 <csr_access_mstatus_machine_key_6_clear>
    8021503c:	00b00293          	li	x5,11
    80215040:	025f8863          	beq	x31,x5,80215070 <csr_access_mtvec_machine_key_11_set>
    80215044:	00a00293          	li	x5,10
    80215048:	025f8863          	beq	x31,x5,80215078 <csr_access_mtvec_machine_key_10_clear>
    8021504c:	0340006f          	j	80215080 <end_machine_label>

0000000080215050 <csr_access_senvcfg_supervisor_key_3_write>:
    80215050:	10a39073          	csrw	0x10a,x7
    80215054:	02c0006f          	j	80215080 <end_machine_label>

0000000080215058 <csr_access_senvcfg_supervisor_key_1_read>:
    80215058:	10a023f3          	csrr	x7,0x10a
    8021505c:	0240006f          	j	80215080 <end_machine_label>

0000000080215060 <csr_access_mstatus_machine_key_8_set>:
    80215060:	3003a073          	csrs	mstatus,x7
    80215064:	01c0006f          	j	80215080 <end_machine_label>

0000000080215068 <csr_access_mstatus_machine_key_6_clear>:
    80215068:	3003b073          	csrc	mstatus,x7
    8021506c:	0140006f          	j	80215080 <end_machine_label>

0000000080215070 <csr_access_mtvec_machine_key_11_set>:
    80215070:	3053a073          	csrs	mtvec,x7
    80215074:	00c0006f          	j	80215080 <end_machine_label>

0000000080215078 <csr_access_mtvec_machine_key_10_clear>:
    80215078:	3053b073          	csrc	mtvec,x7
    8021507c:	0040006f          	j	80215080 <end_machine_label>

0000000080215080 <end_machine_label>:
    80215080:	000f0fb7          	lui	x31,0xf0
    80215084:	001f8f9b          	addiw	x31,x31,1 # f0001 <mem7+0x6c001>
    80215088:	00cf9f93          	slli	x31,x31,0xc
    8021508c:	004f8f93          	addi	x31,x31,4
    80215090:	00000073          	ecall

Disassembly of section .csr_super_0:

0000000080216000 <csr_access_senvcfg_supervisor_key_5_set-0x48>:
    80216000:	0bc84fb7          	lui	x31,0xbc84
    80216004:	09ff8f9b          	addiw	x31,x31,159 # bc8409f <hart_stack_0_end+0x226909f>
    80216008:	00df9f93          	slli	x31,x31,0xd
    8021600c:	0a8f8f93          	addi	x31,x31,168
    80216010:	000fbf83          	ld	x31,0(x31)
    80216014:	00500293          	li	x5,5
    80216018:	025f8863          	beq	x31,x5,80216048 <csr_access_senvcfg_supervisor_key_5_set>
    8021601c:	00200293          	li	x5,2
    80216020:	025f8863          	beq	x31,x5,80216050 <csr_access_senvcfg_supervisor_key_2_clear>
    80216024:	00900293          	li	x5,9
    80216028:	025f8863          	beq	x31,x5,80216058 <csr_access_sstatus_supervisor_key_9_set>
    8021602c:	00700293          	li	x5,7
    80216030:	025f8863          	beq	x31,x5,80216060 <csr_access_sstatus_supervisor_key_7_clear>
    80216034:	00d00293          	li	x5,13
    80216038:	025f8863          	beq	x31,x5,80216068 <csr_access_stvec_supervisor_key_13_set>
    8021603c:	00c00293          	li	x5,12
    80216040:	025f8863          	beq	x31,x5,80216070 <csr_access_stvec_supervisor_key_12_clear>
    80216044:	0340006f          	j	80216078 <end_super_label>

0000000080216048 <csr_access_senvcfg_supervisor_key_5_set>:
    80216048:	10a3a073          	csrs	0x10a,x7
    8021604c:	02c0006f          	j	80216078 <end_super_label>

0000000080216050 <csr_access_senvcfg_supervisor_key_2_clear>:
    80216050:	10a3b073          	csrc	0x10a,x7
    80216054:	0240006f          	j	80216078 <end_super_label>

0000000080216058 <csr_access_sstatus_supervisor_key_9_set>:
    80216058:	1003a073          	csrs	sstatus,x7
    8021605c:	01c0006f          	j	80216078 <end_super_label>

0000000080216060 <csr_access_sstatus_supervisor_key_7_clear>:
    80216060:	1003b073          	csrc	sstatus,x7
    80216064:	0140006f          	j	80216078 <end_super_label>

0000000080216068 <csr_access_stvec_supervisor_key_13_set>:
    80216068:	1053a073          	csrs	stvec,x7
    8021606c:	00c0006f          	j	80216078 <end_super_label>

0000000080216070 <csr_access_stvec_supervisor_key_12_clear>:
    80216070:	1053b073          	csrc	stvec,x7
    80216074:	0040006f          	j	80216078 <end_super_label>

0000000080216078 <end_super_label>:
    80216078:	000f0fb7          	lui	x31,0xf0
    8021607c:	001f8f9b          	addiw	x31,x31,1 # f0001 <mem7+0x6c001>
    80216080:	00cf9f93          	slli	x31,x31,0xc
    80216084:	004f8f93          	addi	x31,x31,4
    80216088:	00000073          	ecall

Disassembly of section .os_data:

000001790813e000 <passed_addr_ptr>:
 1790813e000:	5090                	.insn	2, 0x5090
 1790813e002:	8001                	.insn	2, 0x8001
 1790813e004:	0000                	.insn	2, 0x0000
	...

000001790813e008 <failed_addr_ptr>:
 1790813e008:	50a0                	.insn	2, 0x50a0
 1790813e00a:	8001                	.insn	2, 0x8001
 1790813e00c:	0000                	.insn	2, 0x0000
	...

000001790813e010 <end_test_addr_ptr>:
 1790813e010:	50b0                	.insn	2, 0x50b0
 1790813e012:	8001                	.insn	2, 0x8001
 1790813e014:	0000                	.insn	2, 0x0000
	...

000001790813e018 <os_passed_addr_ptr>:
 1790813e018:	0a1c                	.insn	2, 0x0a1c
 1790813e01a:	8000                	.insn	2, 0x8000
 1790813e01c:	0000                	.insn	2, 0x0000
	...

000001790813e020 <os_failed_addr_ptr>:
 1790813e020:	0a2c                	.insn	2, 0x0a2c
 1790813e022:	8000                	.insn	2, 0x8000
 1790813e024:	0000                	.insn	2, 0x0000
	...

000001790813e028 <os_end_test_addr_ptr>:
 1790813e028:	0a38                	.insn	2, 0x0a38
 1790813e02a:	8000                	.insn	2, 0x8000
 1790813e02c:	0000                	.insn	2, 0x0000
	...

000001790813e030 <rvcp_prefix_str_data>:
 1790813e030:	5652                	.insn	2, 0x5652
 1790813e032:	203a5043          	fmadd.s	f0,f20,f3,f4,unknown
 1790813e036:	6554                	.insn	2, 0x6554
 1790813e038:	46207473          	csrrci	x8,0x462,0
 1790813e03c:	6c69                	.insn	2, 0x6c69
 1790813e03e:	2065                	.insn	2, 0x2065
	...

000001790813e041 <rvcp_testname_str_data>:
 1790813e041:	7074                	.insn	2, 0x7074
 1790813e043:	7a5f 706a 5f6d      	.insn	6, 0x5f6d706a7a5f
 1790813e049:	0032                	.insn	2, 0x0032

000001790813e04b <rvcp_passed_str_data>:
 1790813e04b:	4150                	.insn	2, 0x4150
 1790813e04d:	44455353          	fround.h	f6,f10,unknown
	...

000001790813e052 <rvcp_failed_str_data>:
 1790813e052:	4146                	.insn	2, 0x4146
 1790813e054:	4c49                	.insn	2, 0x4c49
 1790813e056:	4445                	.insn	2, 0x4445
	...

000001790813e059 <rvcp_space_str_data>:
 1790813e059:	0020                	.insn	2, 0x0020

000001790813e05b <rvcp_newline_str_data>:
 1790813e05b:	000a                	.insn	2, 0x000a
 1790813e05d:	0000                	.insn	2, 0x0000
	...

000001790813e060 <excp_ignored_count_mem>:
	...

000001790813e068 <machine_flags_mem>:
	...

000001790813e070 <user_flags_mem>:
	...

000001790813e078 <super_flags_mem>:
	...

000001790813e080 <machine_area_mem>:
	...

000001790813e088 <user_area_mem>:
	...

000001790813e090 <super_area_mem>:
	...

000001790813e098 <zero_data_mem>:
	...

000001790813e0a0 <machine_csr_jump_table_flags_mem>:
	...

000001790813e0a8 <super_csr_jump_table_flags_mem>:
	...

000001790813e0b0 <pte_access_flags_mem>:
	...

000001790813e0c8 <num_harts_ended_mem>:
	...

000001790813e0d0 <num_hard_fails_mem>:
	...

Disassembly of section .hart_context:

0000000042195000 <hart_context_0>:
    42195000:	b000                	.insn	2, 0xb000
    42195002:	09a1                	.insn	2, 0x09a1
	...
    42195018:	0001                	.insn	2, 0x0001
    4219501a:	0000                	.insn	2, 0x0000
    4219501c:	0000                	.insn	2, 0x0000
    4219501e:	0000                	.insn	2, 0x0000
    42195020:	ffff                	.insn	2, 0xffff
    42195022:	ffff                	.insn	2, 0xffff
    42195024:	ffff                	.insn	2, 0xffff
    42195026:	ffff                	.insn	2, 0xffff
    42195028:	ffff                	.insn	2, 0xffff
    4219502a:	ffff                	.insn	2, 0xffff
    4219502c:	ffff                	.insn	2, 0xffff
    4219502e:	ffff                	.insn	2, 0xffff
    42195030:	ffff                	.insn	2, 0xffff
    42195032:	ffff                	.insn	2, 0xffff
    42195034:	ffff                	.insn	2, 0xffff
    42195036:	ffff                	.insn	2, 0xffff
	...
    42195050:	00ff 0000 0000 0000 	.insn	10, 0x00ff00000000000000ff
    42195058:	00ff 
	...
    42195176:	0000                	.insn	2, 0x0000
    42195178:	ffff                	.insn	2, 0xffff
    4219517a:	ffff                	.insn	2, 0xffff
    4219517c:	ffff                	.insn	2, 0xffff
    4219517e:	ffff                	.insn	2, 0xffff
	...
    42195198:	ffff                	.insn	2, 0xffff
    4219519a:	ffff                	.insn	2, 0xffff
	...

Disassembly of section .hart_stack_0:

0000000009a1a000 <hart_stack_0>:
	...

Disassembly of section .io_htif:

0000000070000000 <tohost>:
	...

0000000070000040 <fromhost>:
	...

Disassembly of section .code_mem6:

00000059ddd01000 <.code_mem6>:
  59ddd01000:	177228b7          	lui	x17,0x17722
  59ddd01004:	9d68889b          	addiw	x17,x17,-1578 # 177219d6 <maplic_255+0x6e229d6>
  59ddd01008:	15ba35b7          	lui	x11,0x15ba3
  59ddd0100c:	be05859b          	addiw	x11,x11,-1056 # 15ba2be0 <maplic_255+0x52a3be0>
  59ddd01010:	00b88fbb          	addw	x31,x17,x11
  59ddd01014:	00008067          	ret

Disassembly of section .mem0:

0000006454a6c000 <.mem0>:
  6454a6c000:	c0de                	.insn	2, 0xc0de
  6454a6c002:	c001                	.insn	2, 0xc001
  6454a6c004:	0000                	.insn	2, 0x0000
	...

Disassembly of section .mem1:

0000000000576000 <.mem1>:
  576000:	c0de                	.insn	2, 0xc0de
  576002:	c001                	.insn	2, 0xc001
  576004:	0000                	.insn	2, 0x0000
	...

Disassembly of section .mem2:

000017608219b000 <.mem2>:
    17608219b000:	c0de                	.insn	2, 0xc0de
    17608219b002:	c001                	.insn	2, 0xc001
    17608219b004:	0000                	.insn	2, 0x0000
	...

Disassembly of section .mem3:

0000000001e0c000 <.mem3>:
 1e0c000:	c0de                	.insn	2, 0xc0de
 1e0c002:	c001                	.insn	2, 0xc001
 1e0c004:	0000                	.insn	2, 0x0000
	...

Disassembly of section .mem4:

0000005d2e92a000 <.mem4>:
  5d2e92a000:	c0de                	.insn	2, 0xc0de
  5d2e92a002:	c001                	.insn	2, 0xc001
  5d2e92a004:	0000                	.insn	2, 0x0000
	...

Disassembly of section .mem5:

000000247a9a6000 <.mem5>:
  247a9a6000:	c0de                	.insn	2, 0xc0de
  247a9a6002:	c001                	.insn	2, 0xc001
  247a9a6004:	0000                	.insn	2, 0x0000
	...

Disassembly of section .mem7:

0000000000084000 <.mem7>:
   84000:	c0de                	.insn	2, 0xc0de
   84002:	c001                	.insn	2, 0xc001
   84004:	0000                	.insn	2, 0x0000
	...

Disassembly of section .tp_csr_storage:

0000000cebd79000 <.tp_csr_storage>:
   cebd79000:	c0de                	.insn	2, 0xc0de
   cebd79002:	c001                	.insn	2, 0xc001
   cebd79004:	0000                	.insn	2, 0x0000
	...

Disassembly of section .SID_05_pm_disabled_u_vu_mode_stack:

00001955ea191000 <.SID_05_pm_disabled_u_vu_mode_stack>:
    1955ea191000:	c0de                	.insn	2, 0xc0de
    1955ea191002:	c001                	.insn	2, 0xc001
    1955ea191004:	0000                	.insn	2, 0x0000
	...

Disassembly of section .SID_13_pm_enabled_u_vu_mode_stack:

0000000000477000 <.SID_13_pm_enabled_u_vu_mode_stack>:
  477000:	c0de                	.insn	2, 0xc0de
  477002:	c001                	.insn	2, 0xc001
  477004:	0000                	.insn	2, 0x0000
	...

Disassembly of section .SID_24_pm_instruction_set_stack:

00000007ad847000 <.SID_24_pm_instruction_set_stack>:
   7ad847000:	c0de                	.insn	2, 0xc0de
   7ad847002:	c001                	.insn	2, 0xc001
   7ad847004:	0000                	.insn	2, 0x0000
	...

Disassembly of section .SID_25_pm_misaligned_access_stack:

000000247a9a8000 <.SID_25_pm_misaligned_access_stack>:
  247a9a8000:	c0de                	.insn	2, 0xc0de
  247a9a8002:	c001                	.insn	2, 0xc001
  247a9a8004:	0000                	.insn	2, 0x0000
	...

Disassembly of section .SID_26_pm_different_tags_same_address_stack:

00000000001b4000 <.SID_26_pm_different_tags_same_address_stack>:
  1b4000:	c0de                	.insn	2, 0xc0de
  1b4002:	c001                	.insn	2, 0xc001
  1b4004:	0000                	.insn	2, 0x0000
	...

Disassembly of section .SID_27_pm_implicit_access_stack:

0000000001e10000 <.SID_27_pm_implicit_access_stack>:
 1e10000:	c0de                	.insn	2, 0xc0de
 1e10002:	c001                	.insn	2, 0xc001
 1e10004:	0000                	.insn	2, 0x0000
	...

Disassembly of section .SID_28_pm_faults_trap_values_stack:

00000000da1db000 <.SID_28_pm_faults_trap_values_stack>:
    da1db000:	c0de                	.insn	2, 0xc0de
    da1db002:	c001                	.insn	2, 0xc001
    da1db004:	0000                	.insn	2, 0x0000
	...

Disassembly of section .__pagetable_map_os_0x000dc1a1c3f42000:

000dc1a1c3f42000 <__pagetable_map_os_0x000dc1a1c3f42000>:
   dc1a1c3f42000:	c401                	.insn	2, 0xc401
   dc1a1c3f42002:	00085027          	vse16.v	v0,(x16),v0.t
	...
   dc1a1c3f4200e:	0000                	.insn	2, 0x0000
   dc1a1c3f42010:	dc01                	.insn	2, 0xdc01
   dc1a1c3f42012:	73ec                	.insn	2, 0x73ec
   dc1a1c3f42014:	0058                	.insn	2, 0x0058
	...
   dc1a1c3f4216e:	0000                	.insn	2, 0x0000
   dc1a1c3f42170:	5c01                	.insn	2, 0x5c01
   dc1a1c3f42172:	b594                	.insn	2, 0xb594
   dc1a1c3f42174:	02a5                	.insn	2, 0x02a5
	...
   dc1a1c3f4218e:	0000                	.insn	2, 0x0000
   dc1a1c3f42190:	4801                	.insn	2, 0x4801
   dc1a1c3f42192:	2998                	.insn	2, 0x2998
   dc1a1c3f42194:	0081                	.insn	2, 0x0081
	...
   dc1a1c3f42c16:	0000                	.insn	2, 0x0000
   dc1a1c3f42c18:	7401                	.insn	2, 0x7401
   dc1a1c3f42c1a:	924e14c3          	fmadd.d	f9,f28,f4,f18,rtz
	...

Disassembly of section .__pagetable_map_os_0x00000021409f1000:

00000021409f1000 <__pagetable_map_os_0x00000021409f1000>:
  21409f1000:	ec01                	.insn	2, 0xec01
  21409f1002:	c04c                	.insn	2, 0xc04c
  21409f1004:	07ed                	.insn	2, 0x07ed
  21409f1006:	0000                	.insn	2, 0x0000
  21409f1008:	4c01                	.insn	2, 0x4c01
  21409f100a:	ecbc                	.insn	2, 0xecbc
  21409f100c:	0565                	.insn	2, 0x0565
  21409f100e:	0001                	.insn	2, 0x0001
  21409f1010:	c801                	.insn	2, 0xc801
  21409f1012:	e46d                	.insn	2, 0xe46d
  21409f1014:	0000003f db172001 	.insn	8, 0xdb1720010000003f
	...
  21409f10f0:	fc01                	.insn	2, 0xfc01
  21409f10f2:	aae1                	.insn	2, 0xaae1
  21409f10f4:	00000003          	lb	x0,0(x0) # 0 <ALL_4KB_PAGES>
	...
  21409f1198:	6401                	.insn	2, 0x6401
  21409f119a:	00080627          	vse8.v	v12,(x16),v0.t
	...
  21409f1486:	0000                	.insn	2, 0x0000
  21409f1488:	c401                	.insn	2, 0xc401
  21409f148a:	4dc0                	.insn	2, 0x4dc0
  21409f148c:	0012                	.insn	2, 0x0012
	...
  21409f1b36:	0000                	.insn	2, 0x0000
  21409f1b38:	3401                	.insn	2, 0x3401
  21409f1b3a:	bf78                	.insn	2, 0xbf78
	...
  21409f1ba0:	4c01                	.insn	2, 0x4c01
  21409f1ba2:	07ed2443          	.insn	4, 0x07ed2443
	...
  21409f1c86:	0000                	.insn	2, 0x0000
  21409f1c88:	4c01                	.insn	2, 0x4c01
  21409f1c8a:	ebfd                	.insn	2, 0xebfd
  21409f1c8c:	1998                	.insn	2, 0x1998
	...

Disassembly of section .__pagetable_map_os_0x000000ff91b72000:

000000ff91b72000 <__pagetable_map_os_0x000000ff91b72000>:
  ff91b72000:	0001                	.insn	2, 0x0001
  ff91b72002:	c29d                	.insn	2, 0xc29d
  ff91b72004:	005e                	.insn	2, 0x005e
  ff91b72006:	0000                	.insn	2, 0x0000
  ff91b72008:	c401                	.insn	2, 0xc401
  ff91b7200a:	e3bc                	.insn	2, 0xe3bc
  ff91b7200c:	0011                	.insn	2, 0x0011
	...

Disassembly of section .__pagetable_map_os_0x0000017b0a740000:

0000017b0a740000 <__pagetable_map_os_0x0000017b0a740000>:
	...
 17b0a740080:	40df 2000 0000      	.insn	6, 0x200040df
 17b0a740086:	0000                	.insn	2, 0x0000
 17b0a740088:	200044cf          	fnmadd.s	f9,f0,f0,f4,rmm
 17b0a74008c:	0000                	.insn	2, 0x0000
 17b0a74008e:	0000                	.insn	2, 0x0000
 17b0a740090:	200048cf          	fnmadd.s	f17,f0,f0,f4,rmm
 17b0a740094:	0000                	.insn	2, 0x0000
 17b0a740096:	0000                	.insn	2, 0x0000
 17b0a740098:	20004ccf          	fnmadd.s	f25,f0,f0,f4,rmm
 17b0a74009c:	0000                	.insn	2, 0x0000
 17b0a74009e:	0000                	.insn	2, 0x0000
 17b0a7400a0:	200050cf          	fnmadd.s	f1,f0,f0,f4,unknown
 17b0a7400a4:	0000                	.insn	2, 0x0000
 17b0a7400a6:	0000                	.insn	2, 0x0000
 17b0a7400a8:	00df e8d0 0012      	.insn	6, 0x0012e8d000df
 17b0a7400ae:	0000                	.insn	2, 0x0000
 17b0a7400b0:	04df e8d0 0012      	.insn	6, 0x0012e8d004df
 17b0a7400b6:	0000                	.insn	2, 0x0000
 17b0a7400b8:	08df e8d0 0012      	.insn	6, 0x0012e8d008df
 17b0a7400be:	0000                	.insn	2, 0x0000
 17b0a7400c0:	0cdf e8d0 0012      	.insn	6, 0x0012e8d00cdf
 17b0a7400c6:	0000                	.insn	2, 0x0000
 17b0a7400c8:	10df e8d0 0012      	.insn	6, 0x0012e8d010df
 17b0a7400ce:	0000                	.insn	2, 0x0000
 17b0a7400d0:	14df e8d0 0012      	.insn	6, 0x0012e8d014df
 17b0a7400d6:	0000                	.insn	2, 0x0000
 17b0a7400d8:	18df e8d0 0012      	.insn	6, 0x0012e8d018df
 17b0a7400de:	0000                	.insn	2, 0x0000
 17b0a7400e0:	1cdf e8d0 0012      	.insn	6, 0x0012e8d01cdf
 17b0a7400e6:	0000                	.insn	2, 0x0000
 17b0a7400e8:	20df e8d0 0012      	.insn	6, 0x0012e8d020df
 17b0a7400ee:	0000                	.insn	2, 0x0000
 17b0a7400f0:	24df e8d0 0012      	.insn	6, 0x0012e8d024df
 17b0a7400f6:	0000                	.insn	2, 0x0000
 17b0a7400f8:	28df e8d0 0012      	.insn	6, 0x0012e8d028df
 17b0a7400fe:	0000                	.insn	2, 0x0000
 17b0a740100:	2cdf e8d0 0012      	.insn	6, 0x0012e8d02cdf
 17b0a740106:	0000                	.insn	2, 0x0000
 17b0a740108:	30df e8d0 0012      	.insn	6, 0x0012e8d030df
 17b0a74010e:	0000                	.insn	2, 0x0000
 17b0a740110:	34df e8d0 0012      	.insn	6, 0x0012e8d034df
 17b0a740116:	0000                	.insn	2, 0x0000
 17b0a740118:	38df e8d0 0012      	.insn	6, 0x0012e8d038df
 17b0a74011e:	0000                	.insn	2, 0x0000
 17b0a740120:	3cdf e8d0 0012      	.insn	6, 0x0012e8d03cdf
 17b0a740126:	0000                	.insn	2, 0x0000
 17b0a740128:	40df e8d0 0012      	.insn	6, 0x0012e8d040df
 17b0a74012e:	0000                	.insn	2, 0x0000
 17b0a740130:	44df e8d0 0012      	.insn	6, 0x0012e8d044df
 17b0a740136:	0000                	.insn	2, 0x0000
 17b0a740138:	48df e8d0 0012      	.insn	6, 0x0012e8d048df
 17b0a74013e:	0000                	.insn	2, 0x0000
 17b0a740140:	4cdf e8d0 0012      	.insn	6, 0x0012e8d04cdf
 17b0a740146:	0000                	.insn	2, 0x0000
 17b0a740148:	50df e8d0 0012      	.insn	6, 0x0012e8d050df
 17b0a74014e:	0000                	.insn	2, 0x0000
 17b0a740150:	54df e8d0 0012      	.insn	6, 0x0012e8d054df
 17b0a740156:	0000                	.insn	2, 0x0000
 17b0a740158:	58df e8d0 0012      	.insn	6, 0x0012e8d058df
 17b0a74015e:	0000                	.insn	2, 0x0000
 17b0a740160:	5cdf e8d0 0012      	.insn	6, 0x0012e8d05cdf
 17b0a740166:	0000                	.insn	2, 0x0000
 17b0a740168:	60df e8d0 0012      	.insn	6, 0x0012e8d060df
 17b0a74016e:	0000                	.insn	2, 0x0000
 17b0a740170:	64df e8d0 0012      	.insn	6, 0x0012e8d064df
 17b0a740176:	0000                	.insn	2, 0x0000
 17b0a740178:	68df e8d0 0012      	.insn	6, 0x0012e8d068df
 17b0a74017e:	0000                	.insn	2, 0x0000
 17b0a740180:	6cdf e8d0 0012      	.insn	6, 0x0012e8d06cdf
 17b0a740186:	0000                	.insn	2, 0x0000
 17b0a740188:	70df e8d0 0012      	.insn	6, 0x0012e8d070df
 17b0a74018e:	0000                	.insn	2, 0x0000
 17b0a740190:	74df e8d0 0012      	.insn	6, 0x0012e8d074df
 17b0a740196:	0000                	.insn	2, 0x0000
 17b0a740198:	78df e8d0 0012      	.insn	6, 0x0012e8d078df
 17b0a74019e:	0000                	.insn	2, 0x0000
 17b0a7401a0:	7cdf e8d0 0012      	.insn	6, 0x0012e8d07cdf
 17b0a7401a6:	0000                	.insn	2, 0x0000
 17b0a7401a8:	80df e8d0 0012      	.insn	6, 0x0012e8d080df
 17b0a7401ae:	0000                	.insn	2, 0x0000
 17b0a7401b0:	84df e8d0 0012      	.insn	6, 0x0012e8d084df
 17b0a7401b6:	0000                	.insn	2, 0x0000
 17b0a7401b8:	88df e8d0 0012      	.insn	6, 0x0012e8d088df
 17b0a7401be:	0000                	.insn	2, 0x0000
 17b0a7401c0:	8cdf e8d0 0012      	.insn	6, 0x0012e8d08cdf
 17b0a7401c6:	0000                	.insn	2, 0x0000
 17b0a7401c8:	90df e8d0 0012      	.insn	6, 0x0012e8d090df
 17b0a7401ce:	0000                	.insn	2, 0x0000
 17b0a7401d0:	94df e8d0 0012      	.insn	6, 0x0012e8d094df
 17b0a7401d6:	0000                	.insn	2, 0x0000
 17b0a7401d8:	98df e8d0 0012      	.insn	6, 0x0012e8d098df
 17b0a7401de:	0000                	.insn	2, 0x0000
 17b0a7401e0:	9cdf e8d0 0012      	.insn	6, 0x0012e8d09cdf
 17b0a7401e6:	0000                	.insn	2, 0x0000
 17b0a7401e8:	a0df e8d0 0012      	.insn	6, 0x0012e8d0a0df
 17b0a7401ee:	0000                	.insn	2, 0x0000
 17b0a7401f0:	a4df e8d0 0012      	.insn	6, 0x0012e8d0a4df
 17b0a7401f6:	0000                	.insn	2, 0x0000
 17b0a7401f8:	a8df e8d0 0012      	.insn	6, 0x0012e8d0a8df
 17b0a7401fe:	0000                	.insn	2, 0x0000
 17b0a740200:	acdf e8d0 0012      	.insn	6, 0x0012e8d0acdf
 17b0a740206:	0000                	.insn	2, 0x0000
 17b0a740208:	b0df e8d0 0012      	.insn	6, 0x0012e8d0b0df
 17b0a74020e:	0000                	.insn	2, 0x0000
 17b0a740210:	b4df e8d0 0012      	.insn	6, 0x0012e8d0b4df
 17b0a740216:	0000                	.insn	2, 0x0000
 17b0a740218:	b8df e8d0 0012      	.insn	6, 0x0012e8d0b8df
 17b0a74021e:	0000                	.insn	2, 0x0000
 17b0a740220:	bcdf e8d0 0012      	.insn	6, 0x0012e8d0bcdf
 17b0a740226:	0000                	.insn	2, 0x0000
 17b0a740228:	c0df e8d0 0012      	.insn	6, 0x0012e8d0c0df
 17b0a74022e:	0000                	.insn	2, 0x0000
 17b0a740230:	c4df e8d0 0012      	.insn	6, 0x0012e8d0c4df
 17b0a740236:	0000                	.insn	2, 0x0000
 17b0a740238:	c8df e8d0 0012      	.insn	6, 0x0012e8d0c8df
 17b0a74023e:	0000                	.insn	2, 0x0000
 17b0a740240:	ccdf e8d0 0012      	.insn	6, 0x0012e8d0ccdf
 17b0a740246:	0000                	.insn	2, 0x0000
 17b0a740248:	d0df e8d0 0012      	.insn	6, 0x0012e8d0d0df
 17b0a74024e:	0000                	.insn	2, 0x0000
 17b0a740250:	d4df e8d0 0012      	.insn	6, 0x0012e8d0d4df
 17b0a740256:	0000                	.insn	2, 0x0000
 17b0a740258:	d8df e8d0 0012      	.insn	6, 0x0012e8d0d8df
 17b0a74025e:	0000                	.insn	2, 0x0000
 17b0a740260:	dcdf e8d0 0012      	.insn	6, 0x0012e8d0dcdf
 17b0a740266:	0000                	.insn	2, 0x0000
 17b0a740268:	e0df e8d0 0012      	.insn	6, 0x0012e8d0e0df
 17b0a74026e:	0000                	.insn	2, 0x0000
 17b0a740270:	e4df e8d0 0012      	.insn	6, 0x0012e8d0e4df
 17b0a740276:	0000                	.insn	2, 0x0000
 17b0a740278:	e8df e8d0 0012      	.insn	6, 0x0012e8d0e8df
 17b0a74027e:	0000                	.insn	2, 0x0000
 17b0a740280:	ecdf e8d0 0012      	.insn	6, 0x0012e8d0ecdf
 17b0a740286:	0000                	.insn	2, 0x0000
 17b0a740288:	f0df e8d0 0012      	.insn	6, 0x0012e8d0f0df
 17b0a74028e:	0000                	.insn	2, 0x0000
 17b0a740290:	f4df e8d0 0012      	.insn	6, 0x0012e8d0f4df
 17b0a740296:	0000                	.insn	2, 0x0000
 17b0a740298:	f8df e8d0 0012      	.insn	6, 0x0012e8d0f8df
 17b0a74029e:	0000                	.insn	2, 0x0000
 17b0a7402a0:	fcdf e8d0 0012      	.insn	6, 0x0012e8d0fcdf
 17b0a7402a6:	0000                	.insn	2, 0x0000
 17b0a7402a8:	00df e8d1 0012      	.insn	6, 0x0012e8d100df
 17b0a7402ae:	0000                	.insn	2, 0x0000
 17b0a7402b0:	04df e8d1 0012      	.insn	6, 0x0012e8d104df
 17b0a7402b6:	0000                	.insn	2, 0x0000
 17b0a7402b8:	08df e8d1 0012      	.insn	6, 0x0012e8d108df
 17b0a7402be:	0000                	.insn	2, 0x0000
 17b0a7402c0:	0cdf e8d1 0012      	.insn	6, 0x0012e8d10cdf
 17b0a7402c6:	0000                	.insn	2, 0x0000
 17b0a7402c8:	10df e8d1 0012      	.insn	6, 0x0012e8d110df
 17b0a7402ce:	0000                	.insn	2, 0x0000
 17b0a7402d0:	14df e8d1 0012      	.insn	6, 0x0012e8d114df
 17b0a7402d6:	0000                	.insn	2, 0x0000
 17b0a7402d8:	18df e8d1 0012      	.insn	6, 0x0012e8d118df
 17b0a7402de:	0000                	.insn	2, 0x0000
 17b0a7402e0:	1cdf e8d1 0012      	.insn	6, 0x0012e8d11cdf
 17b0a7402e6:	0000                	.insn	2, 0x0000
 17b0a7402e8:	20df e8d1 0012      	.insn	6, 0x0012e8d120df
 17b0a7402ee:	0000                	.insn	2, 0x0000
 17b0a7402f0:	24df e8d1 0012      	.insn	6, 0x0012e8d124df
 17b0a7402f6:	0000                	.insn	2, 0x0000
 17b0a7402f8:	28df e8d1 0012      	.insn	6, 0x0012e8d128df
 17b0a7402fe:	0000                	.insn	2, 0x0000
 17b0a740300:	2cdf e8d1 0012      	.insn	6, 0x0012e8d12cdf
 17b0a740306:	0000                	.insn	2, 0x0000
 17b0a740308:	30df e8d1 0012      	.insn	6, 0x0012e8d130df
 17b0a74030e:	0000                	.insn	2, 0x0000
 17b0a740310:	34df e8d1 0012      	.insn	6, 0x0012e8d134df
 17b0a740316:	0000                	.insn	2, 0x0000
 17b0a740318:	38df e8d1 0012      	.insn	6, 0x0012e8d138df
 17b0a74031e:	0000                	.insn	2, 0x0000
 17b0a740320:	3cdf e8d1 0012      	.insn	6, 0x0012e8d13cdf
 17b0a740326:	0000                	.insn	2, 0x0000
 17b0a740328:	40df e8d1 0012      	.insn	6, 0x0012e8d140df
 17b0a74032e:	0000                	.insn	2, 0x0000
 17b0a740330:	44df e8d1 0012      	.insn	6, 0x0012e8d144df
 17b0a740336:	0000                	.insn	2, 0x0000
 17b0a740338:	48df e8d1 0012      	.insn	6, 0x0012e8d148df
 17b0a74033e:	0000                	.insn	2, 0x0000
 17b0a740340:	4cdf e8d1 0012      	.insn	6, 0x0012e8d14cdf
 17b0a740346:	0000                	.insn	2, 0x0000
 17b0a740348:	50df e8d1 0012      	.insn	6, 0x0012e8d150df
 17b0a74034e:	0000                	.insn	2, 0x0000
 17b0a740350:	54df e8d1 0012      	.insn	6, 0x0012e8d154df
 17b0a740356:	0000                	.insn	2, 0x0000
 17b0a740358:	58df e8d1 0012      	.insn	6, 0x0012e8d158df
 17b0a74035e:	0000                	.insn	2, 0x0000
 17b0a740360:	5cdf e8d1 0012      	.insn	6, 0x0012e8d15cdf
 17b0a740366:	0000                	.insn	2, 0x0000
 17b0a740368:	60df e8d1 0012      	.insn	6, 0x0012e8d160df
 17b0a74036e:	0000                	.insn	2, 0x0000
 17b0a740370:	64df e8d1 0012      	.insn	6, 0x0012e8d164df
 17b0a740376:	0000                	.insn	2, 0x0000
 17b0a740378:	68df e8d1 0012      	.insn	6, 0x0012e8d168df
 17b0a74037e:	0000                	.insn	2, 0x0000
 17b0a740380:	6cdf e8d1 0012      	.insn	6, 0x0012e8d16cdf
 17b0a740386:	0000                	.insn	2, 0x0000
 17b0a740388:	70df e8d1 0012      	.insn	6, 0x0012e8d170df
 17b0a74038e:	0000                	.insn	2, 0x0000
 17b0a740390:	74df e8d1 0012      	.insn	6, 0x0012e8d174df
 17b0a740396:	0000                	.insn	2, 0x0000
 17b0a740398:	78df e8d1 0012      	.insn	6, 0x0012e8d178df
 17b0a74039e:	0000                	.insn	2, 0x0000
 17b0a7403a0:	7cdf e8d1 0012      	.insn	6, 0x0012e8d17cdf
 17b0a7403a6:	0000                	.insn	2, 0x0000
 17b0a7403a8:	80df e8d1 0012      	.insn	6, 0x0012e8d180df
 17b0a7403ae:	0000                	.insn	2, 0x0000
 17b0a7403b0:	84df e8d1 0012      	.insn	6, 0x0012e8d184df
 17b0a7403b6:	0000                	.insn	2, 0x0000
 17b0a7403b8:	88df e8d1 0012      	.insn	6, 0x0012e8d188df
 17b0a7403be:	0000                	.insn	2, 0x0000
 17b0a7403c0:	8cdf e8d1 0012      	.insn	6, 0x0012e8d18cdf
 17b0a7403c6:	0000                	.insn	2, 0x0000
 17b0a7403c8:	90df e8d1 0012      	.insn	6, 0x0012e8d190df
 17b0a7403ce:	0000                	.insn	2, 0x0000
 17b0a7403d0:	94df e8d1 0012      	.insn	6, 0x0012e8d194df
 17b0a7403d6:	0000                	.insn	2, 0x0000
 17b0a7403d8:	98df e8d1 0012      	.insn	6, 0x0012e8d198df
 17b0a7403de:	0000                	.insn	2, 0x0000
 17b0a7403e0:	9cdf e8d1 0012      	.insn	6, 0x0012e8d19cdf
 17b0a7403e6:	0000                	.insn	2, 0x0000
 17b0a7403e8:	a0df e8d1 0012      	.insn	6, 0x0012e8d1a0df
 17b0a7403ee:	0000                	.insn	2, 0x0000
 17b0a7403f0:	a4df e8d1 0012      	.insn	6, 0x0012e8d1a4df
 17b0a7403f6:	0000                	.insn	2, 0x0000
 17b0a7403f8:	a8df e8d1 0012      	.insn	6, 0x0012e8d1a8df
 17b0a7403fe:	0000                	.insn	2, 0x0000
 17b0a740400:	acdf e8d1 0012      	.insn	6, 0x0012e8d1acdf
 17b0a740406:	0000                	.insn	2, 0x0000
 17b0a740408:	b0df e8d1 0012      	.insn	6, 0x0012e8d1b0df
 17b0a74040e:	0000                	.insn	2, 0x0000
 17b0a740410:	b4df e8d1 0012      	.insn	6, 0x0012e8d1b4df
 17b0a740416:	0000                	.insn	2, 0x0000
 17b0a740418:	b8df e8d1 0012      	.insn	6, 0x0012e8d1b8df
 17b0a74041e:	0000                	.insn	2, 0x0000
 17b0a740420:	bcdf e8d1 0012      	.insn	6, 0x0012e8d1bcdf
 17b0a740426:	0000                	.insn	2, 0x0000
 17b0a740428:	c0df e8d1 0012      	.insn	6, 0x0012e8d1c0df
 17b0a74042e:	0000                	.insn	2, 0x0000
 17b0a740430:	c4df e8d1 0012      	.insn	6, 0x0012e8d1c4df
 17b0a740436:	0000                	.insn	2, 0x0000
 17b0a740438:	c8df e8d1 0012      	.insn	6, 0x0012e8d1c8df
 17b0a74043e:	0000                	.insn	2, 0x0000
 17b0a740440:	ccdf e8d1 0012      	.insn	6, 0x0012e8d1ccdf
 17b0a740446:	0000                	.insn	2, 0x0000
 17b0a740448:	d0df e8d1 0012      	.insn	6, 0x0012e8d1d0df
 17b0a74044e:	0000                	.insn	2, 0x0000
 17b0a740450:	d4df e8d1 0012      	.insn	6, 0x0012e8d1d4df
 17b0a740456:	0000                	.insn	2, 0x0000
 17b0a740458:	d8df e8d1 0012      	.insn	6, 0x0012e8d1d8df
 17b0a74045e:	0000                	.insn	2, 0x0000
 17b0a740460:	dcdf e8d1 0012      	.insn	6, 0x0012e8d1dcdf
 17b0a740466:	0000                	.insn	2, 0x0000
 17b0a740468:	e0df e8d1 0012      	.insn	6, 0x0012e8d1e0df
 17b0a74046e:	0000                	.insn	2, 0x0000
 17b0a740470:	e4df e8d1 0012      	.insn	6, 0x0012e8d1e4df
 17b0a740476:	0000                	.insn	2, 0x0000
 17b0a740478:	e8df e8d1 0012      	.insn	6, 0x0012e8d1e8df
 17b0a74047e:	0000                	.insn	2, 0x0000
 17b0a740480:	ecdf e8d1 0012      	.insn	6, 0x0012e8d1ecdf
 17b0a740486:	0000                	.insn	2, 0x0000
 17b0a740488:	f0df e8d1 0012      	.insn	6, 0x0012e8d1f0df
 17b0a74048e:	0000                	.insn	2, 0x0000
 17b0a740490:	f4df e8d1 0012      	.insn	6, 0x0012e8d1f4df
 17b0a740496:	0000                	.insn	2, 0x0000
 17b0a740498:	f8df e8d1 0012      	.insn	6, 0x0012e8d1f8df
 17b0a74049e:	0000                	.insn	2, 0x0000
 17b0a7404a0:	fcdf e8d1 0012      	.insn	6, 0x0012e8d1fcdf
 17b0a7404a6:	0000                	.insn	2, 0x0000
 17b0a7404a8:	e8d200cf          	fnmadd.s	f1,f4,f13,f29,rne
 17b0a7404ac:	0012                	.insn	2, 0x0012
 17b0a7404ae:	0000                	.insn	2, 0x0000
 17b0a7404b0:	e8d204cf          	fnmadd.s	f9,f4,f13,f29,rne
 17b0a7404b4:	0012                	.insn	2, 0x0012
 17b0a7404b6:	0000                	.insn	2, 0x0000
 17b0a7404b8:	e8d208cf          	fnmadd.s	f17,f4,f13,f29,rne
 17b0a7404bc:	0012                	.insn	2, 0x0012
 17b0a7404be:	0000                	.insn	2, 0x0000
 17b0a7404c0:	e8d20ccf          	fnmadd.s	f25,f4,f13,f29,rne
 17b0a7404c4:	0012                	.insn	2, 0x0012
 17b0a7404c6:	0000                	.insn	2, 0x0000
 17b0a7404c8:	e8d210cf          	fnmadd.s	f1,f4,f13,f29,rtz
 17b0a7404cc:	0012                	.insn	2, 0x0012
 17b0a7404ce:	0000                	.insn	2, 0x0000
 17b0a7404d0:	e8d214cf          	fnmadd.s	f9,f4,f13,f29,rtz
 17b0a7404d4:	0012                	.insn	2, 0x0012
 17b0a7404d6:	0000                	.insn	2, 0x0000
 17b0a7404d8:	e8d218cf          	fnmadd.s	f17,f4,f13,f29,rtz
 17b0a7404dc:	0012                	.insn	2, 0x0012
 17b0a7404de:	0000                	.insn	2, 0x0000
 17b0a7404e0:	e8d21ccf          	fnmadd.s	f25,f4,f13,f29,rtz
 17b0a7404e4:	0012                	.insn	2, 0x0012
 17b0a7404e6:	0000                	.insn	2, 0x0000
 17b0a7404e8:	e8d220cf          	fnmadd.s	f1,f4,f13,f29,rdn
 17b0a7404ec:	0012                	.insn	2, 0x0012
 17b0a7404ee:	0000                	.insn	2, 0x0000
 17b0a7404f0:	e8d224cf          	fnmadd.s	f9,f4,f13,f29,rdn
 17b0a7404f4:	0012                	.insn	2, 0x0012
 17b0a7404f6:	0000                	.insn	2, 0x0000
 17b0a7404f8:	e8d228cf          	fnmadd.s	f17,f4,f13,f29,rdn
 17b0a7404fc:	0012                	.insn	2, 0x0012
 17b0a7404fe:	0000                	.insn	2, 0x0000
 17b0a740500:	e8d22ccf          	fnmadd.s	f25,f4,f13,f29,rdn
 17b0a740504:	0012                	.insn	2, 0x0012
 17b0a740506:	0000                	.insn	2, 0x0000
 17b0a740508:	e8d230cf          	fnmadd.s	f1,f4,f13,f29,rup
 17b0a74050c:	0012                	.insn	2, 0x0012
 17b0a74050e:	0000                	.insn	2, 0x0000
 17b0a740510:	e8d234cf          	fnmadd.s	f9,f4,f13,f29,rup
 17b0a740514:	0012                	.insn	2, 0x0012
 17b0a740516:	0000                	.insn	2, 0x0000
 17b0a740518:	e8d238cf          	fnmadd.s	f17,f4,f13,f29,rup
 17b0a74051c:	0012                	.insn	2, 0x0012
 17b0a74051e:	0000                	.insn	2, 0x0000
 17b0a740520:	e8d23ccf          	fnmadd.s	f25,f4,f13,f29,rup
 17b0a740524:	0012                	.insn	2, 0x0012
 17b0a740526:	0000                	.insn	2, 0x0000
 17b0a740528:	e8d240cf          	fnmadd.s	f1,f4,f13,f29,rmm
 17b0a74052c:	0012                	.insn	2, 0x0012
 17b0a74052e:	0000                	.insn	2, 0x0000
 17b0a740530:	e8d244cf          	fnmadd.s	f9,f4,f13,f29,rmm
 17b0a740534:	0012                	.insn	2, 0x0012
 17b0a740536:	0000                	.insn	2, 0x0000
 17b0a740538:	e8d248cf          	fnmadd.s	f17,f4,f13,f29,rmm
 17b0a74053c:	0012                	.insn	2, 0x0012
 17b0a74053e:	0000                	.insn	2, 0x0000
 17b0a740540:	e8d24ccf          	fnmadd.s	f25,f4,f13,f29,rmm
 17b0a740544:	0012                	.insn	2, 0x0012
 17b0a740546:	0000                	.insn	2, 0x0000
 17b0a740548:	e8d250cf          	fnmadd.s	f1,f4,f13,f29,unknown
 17b0a74054c:	0012                	.insn	2, 0x0012
 17b0a74054e:	0000                	.insn	2, 0x0000
 17b0a740550:	e8d254cf          	fnmadd.s	f9,f4,f13,f29,unknown
 17b0a740554:	0012                	.insn	2, 0x0012
 17b0a740556:	0000                	.insn	2, 0x0000
 17b0a740558:	e8d258cf          	fnmadd.s	f17,f4,f13,f29,unknown
 17b0a74055c:	0012                	.insn	2, 0x0012
 17b0a74055e:	0000                	.insn	2, 0x0000
 17b0a740560:	e8d25ccf          	fnmadd.s	f25,f4,f13,f29,unknown
 17b0a740564:	0012                	.insn	2, 0x0012
 17b0a740566:	0000                	.insn	2, 0x0000
 17b0a740568:	e8d260cf          	fnmadd.s	f1,f4,f13,f29,unknown
 17b0a74056c:	0012                	.insn	2, 0x0012
 17b0a74056e:	0000                	.insn	2, 0x0000
 17b0a740570:	e8d264cf          	fnmadd.s	f9,f4,f13,f29,unknown
 17b0a740574:	0012                	.insn	2, 0x0012
 17b0a740576:	0000                	.insn	2, 0x0000
 17b0a740578:	e8d268cf          	fnmadd.s	f17,f4,f13,f29,unknown
 17b0a74057c:	0012                	.insn	2, 0x0012
 17b0a74057e:	0000                	.insn	2, 0x0000
 17b0a740580:	e8d26ccf          	fnmadd.s	f25,f4,f13,f29,unknown
 17b0a740584:	0012                	.insn	2, 0x0012
 17b0a740586:	0000                	.insn	2, 0x0000
 17b0a740588:	e8d270cf          	fnmadd.s	f1,f4,f13,f29
 17b0a74058c:	0012                	.insn	2, 0x0012
 17b0a74058e:	0000                	.insn	2, 0x0000
 17b0a740590:	e8d274cf          	fnmadd.s	f9,f4,f13,f29
 17b0a740594:	0012                	.insn	2, 0x0012
 17b0a740596:	0000                	.insn	2, 0x0000
 17b0a740598:	e8d278cf          	fnmadd.s	f17,f4,f13,f29
 17b0a74059c:	0012                	.insn	2, 0x0012
 17b0a74059e:	0000                	.insn	2, 0x0000
 17b0a7405a0:	e8d27ccf          	fnmadd.s	f25,f4,f13,f29
 17b0a7405a4:	0012                	.insn	2, 0x0012
 17b0a7405a6:	0000                	.insn	2, 0x0000
 17b0a7405a8:	e8d280cf          	fnmadd.s	f1,f5,f13,f29,rne
 17b0a7405ac:	0012                	.insn	2, 0x0012
 17b0a7405ae:	0000                	.insn	2, 0x0000
 17b0a7405b0:	e8d284cf          	fnmadd.s	f9,f5,f13,f29,rne
 17b0a7405b4:	0012                	.insn	2, 0x0012
 17b0a7405b6:	0000                	.insn	2, 0x0000
 17b0a7405b8:	e8d288cf          	fnmadd.s	f17,f5,f13,f29,rne
 17b0a7405bc:	0012                	.insn	2, 0x0012
 17b0a7405be:	0000                	.insn	2, 0x0000
 17b0a7405c0:	e8d28ccf          	fnmadd.s	f25,f5,f13,f29,rne
 17b0a7405c4:	0012                	.insn	2, 0x0012
 17b0a7405c6:	0000                	.insn	2, 0x0000
 17b0a7405c8:	e8d290cf          	fnmadd.s	f1,f5,f13,f29,rtz
 17b0a7405cc:	0012                	.insn	2, 0x0012
 17b0a7405ce:	0000                	.insn	2, 0x0000
 17b0a7405d0:	e8d294cf          	fnmadd.s	f9,f5,f13,f29,rtz
 17b0a7405d4:	0012                	.insn	2, 0x0012
 17b0a7405d6:	0000                	.insn	2, 0x0000
 17b0a7405d8:	e8d298cf          	fnmadd.s	f17,f5,f13,f29,rtz
 17b0a7405dc:	0012                	.insn	2, 0x0012
 17b0a7405de:	0000                	.insn	2, 0x0000
 17b0a7405e0:	e8d29ccf          	fnmadd.s	f25,f5,f13,f29,rtz
 17b0a7405e4:	0012                	.insn	2, 0x0012
 17b0a7405e6:	0000                	.insn	2, 0x0000
 17b0a7405e8:	e8d2a0cf          	fnmadd.s	f1,f5,f13,f29,rdn
 17b0a7405ec:	0012                	.insn	2, 0x0012
 17b0a7405ee:	0000                	.insn	2, 0x0000
 17b0a7405f0:	e8d2a4cf          	fnmadd.s	f9,f5,f13,f29,rdn
 17b0a7405f4:	0012                	.insn	2, 0x0012
 17b0a7405f6:	0000                	.insn	2, 0x0000
 17b0a7405f8:	e8d2a8cf          	fnmadd.s	f17,f5,f13,f29,rdn
 17b0a7405fc:	0012                	.insn	2, 0x0012
 17b0a7405fe:	0000                	.insn	2, 0x0000
 17b0a740600:	e8d2accf          	fnmadd.s	f25,f5,f13,f29,rdn
 17b0a740604:	0012                	.insn	2, 0x0012
 17b0a740606:	0000                	.insn	2, 0x0000
 17b0a740608:	e8d2b0cf          	fnmadd.s	f1,f5,f13,f29,rup
 17b0a74060c:	0012                	.insn	2, 0x0012
 17b0a74060e:	0000                	.insn	2, 0x0000
 17b0a740610:	e8d2b4cf          	fnmadd.s	f9,f5,f13,f29,rup
 17b0a740614:	0012                	.insn	2, 0x0012
 17b0a740616:	0000                	.insn	2, 0x0000
 17b0a740618:	e8d2b8cf          	fnmadd.s	f17,f5,f13,f29,rup
 17b0a74061c:	0012                	.insn	2, 0x0012
 17b0a74061e:	0000                	.insn	2, 0x0000
 17b0a740620:	e8d2bccf          	fnmadd.s	f25,f5,f13,f29,rup
 17b0a740624:	0012                	.insn	2, 0x0012
 17b0a740626:	0000                	.insn	2, 0x0000
 17b0a740628:	e8d2c0cf          	fnmadd.s	f1,f5,f13,f29,rmm
 17b0a74062c:	0012                	.insn	2, 0x0012
 17b0a74062e:	0000                	.insn	2, 0x0000
 17b0a740630:	e8d2c4cf          	fnmadd.s	f9,f5,f13,f29,rmm
 17b0a740634:	0012                	.insn	2, 0x0012
 17b0a740636:	0000                	.insn	2, 0x0000
 17b0a740638:	e8d2c8cf          	fnmadd.s	f17,f5,f13,f29,rmm
 17b0a74063c:	0012                	.insn	2, 0x0012
 17b0a74063e:	0000                	.insn	2, 0x0000
 17b0a740640:	e8d2cccf          	fnmadd.s	f25,f5,f13,f29,rmm
 17b0a740644:	0012                	.insn	2, 0x0012
 17b0a740646:	0000                	.insn	2, 0x0000
 17b0a740648:	e8d2d0cf          	fnmadd.s	f1,f5,f13,f29,unknown
 17b0a74064c:	0012                	.insn	2, 0x0012
 17b0a74064e:	0000                	.insn	2, 0x0000
 17b0a740650:	e8d2d4cf          	fnmadd.s	f9,f5,f13,f29,unknown
 17b0a740654:	0012                	.insn	2, 0x0012
 17b0a740656:	0000                	.insn	2, 0x0000
 17b0a740658:	e8d2d8cf          	fnmadd.s	f17,f5,f13,f29,unknown
 17b0a74065c:	0012                	.insn	2, 0x0012
 17b0a74065e:	0000                	.insn	2, 0x0000
 17b0a740660:	e8d2dccf          	fnmadd.s	f25,f5,f13,f29,unknown
 17b0a740664:	0012                	.insn	2, 0x0012
 17b0a740666:	0000                	.insn	2, 0x0000
 17b0a740668:	e8d2e0cf          	fnmadd.s	f1,f5,f13,f29,unknown
 17b0a74066c:	0012                	.insn	2, 0x0012
 17b0a74066e:	0000                	.insn	2, 0x0000
 17b0a740670:	e8d2e4cf          	fnmadd.s	f9,f5,f13,f29,unknown
 17b0a740674:	0012                	.insn	2, 0x0012
 17b0a740676:	0000                	.insn	2, 0x0000
 17b0a740678:	e8d2e8cf          	fnmadd.s	f17,f5,f13,f29,unknown
 17b0a74067c:	0012                	.insn	2, 0x0012
 17b0a74067e:	0000                	.insn	2, 0x0000
 17b0a740680:	e8d2eccf          	fnmadd.s	f25,f5,f13,f29,unknown
 17b0a740684:	0012                	.insn	2, 0x0012
 17b0a740686:	0000                	.insn	2, 0x0000
 17b0a740688:	e8d2f0cf          	fnmadd.s	f1,f5,f13,f29
 17b0a74068c:	0012                	.insn	2, 0x0012
 17b0a74068e:	0000                	.insn	2, 0x0000
 17b0a740690:	e8d2f4cf          	fnmadd.s	f9,f5,f13,f29
 17b0a740694:	0012                	.insn	2, 0x0012
 17b0a740696:	0000                	.insn	2, 0x0000
 17b0a740698:	e8d2f8cf          	fnmadd.s	f17,f5,f13,f29
 17b0a74069c:	0012                	.insn	2, 0x0012
 17b0a74069e:	0000                	.insn	2, 0x0000
 17b0a7406a0:	e8d2fccf          	fnmadd.s	f25,f5,f13,f29
 17b0a7406a4:	0012                	.insn	2, 0x0012
 17b0a7406a6:	0000                	.insn	2, 0x0000
 17b0a7406a8:	e8d300cf          	fnmadd.s	f1,f6,f13,f29,rne
 17b0a7406ac:	0012                	.insn	2, 0x0012
 17b0a7406ae:	0000                	.insn	2, 0x0000
 17b0a7406b0:	e8d304cf          	fnmadd.s	f9,f6,f13,f29,rne
 17b0a7406b4:	0012                	.insn	2, 0x0012
 17b0a7406b6:	0000                	.insn	2, 0x0000
 17b0a7406b8:	e8d308cf          	fnmadd.s	f17,f6,f13,f29,rne
 17b0a7406bc:	0012                	.insn	2, 0x0012
 17b0a7406be:	0000                	.insn	2, 0x0000
 17b0a7406c0:	e8d30ccf          	fnmadd.s	f25,f6,f13,f29,rne
 17b0a7406c4:	0012                	.insn	2, 0x0012
 17b0a7406c6:	0000                	.insn	2, 0x0000
 17b0a7406c8:	e8d310cf          	fnmadd.s	f1,f6,f13,f29,rtz
 17b0a7406cc:	0012                	.insn	2, 0x0012
 17b0a7406ce:	0000                	.insn	2, 0x0000
 17b0a7406d0:	e8d314cf          	fnmadd.s	f9,f6,f13,f29,rtz
 17b0a7406d4:	0012                	.insn	2, 0x0012
 17b0a7406d6:	0000                	.insn	2, 0x0000
 17b0a7406d8:	e8d318cf          	fnmadd.s	f17,f6,f13,f29,rtz
 17b0a7406dc:	0012                	.insn	2, 0x0012
 17b0a7406de:	0000                	.insn	2, 0x0000
 17b0a7406e0:	e8d31ccf          	fnmadd.s	f25,f6,f13,f29,rtz
 17b0a7406e4:	0012                	.insn	2, 0x0012
 17b0a7406e6:	0000                	.insn	2, 0x0000
 17b0a7406e8:	e8d320cf          	fnmadd.s	f1,f6,f13,f29,rdn
 17b0a7406ec:	0012                	.insn	2, 0x0012
 17b0a7406ee:	0000                	.insn	2, 0x0000
 17b0a7406f0:	e8d324cf          	fnmadd.s	f9,f6,f13,f29,rdn
 17b0a7406f4:	0012                	.insn	2, 0x0012
 17b0a7406f6:	0000                	.insn	2, 0x0000
 17b0a7406f8:	e8d328cf          	fnmadd.s	f17,f6,f13,f29,rdn
 17b0a7406fc:	0012                	.insn	2, 0x0012
 17b0a7406fe:	0000                	.insn	2, 0x0000
 17b0a740700:	e8d32ccf          	fnmadd.s	f25,f6,f13,f29,rdn
 17b0a740704:	0012                	.insn	2, 0x0012
 17b0a740706:	0000                	.insn	2, 0x0000
 17b0a740708:	e8d330cf          	fnmadd.s	f1,f6,f13,f29,rup
 17b0a74070c:	0012                	.insn	2, 0x0012
 17b0a74070e:	0000                	.insn	2, 0x0000
 17b0a740710:	e8d334cf          	fnmadd.s	f9,f6,f13,f29,rup
 17b0a740714:	0012                	.insn	2, 0x0012
 17b0a740716:	0000                	.insn	2, 0x0000
 17b0a740718:	e8d338cf          	fnmadd.s	f17,f6,f13,f29,rup
 17b0a74071c:	0012                	.insn	2, 0x0012
 17b0a74071e:	0000                	.insn	2, 0x0000
 17b0a740720:	e8d33ccf          	fnmadd.s	f25,f6,f13,f29,rup
 17b0a740724:	0012                	.insn	2, 0x0012
 17b0a740726:	0000                	.insn	2, 0x0000
 17b0a740728:	e8d340cf          	fnmadd.s	f1,f6,f13,f29,rmm
 17b0a74072c:	0012                	.insn	2, 0x0012
 17b0a74072e:	0000                	.insn	2, 0x0000
 17b0a740730:	e8d344cf          	fnmadd.s	f9,f6,f13,f29,rmm
 17b0a740734:	0012                	.insn	2, 0x0012
 17b0a740736:	0000                	.insn	2, 0x0000
 17b0a740738:	e8d348cf          	fnmadd.s	f17,f6,f13,f29,rmm
 17b0a74073c:	0012                	.insn	2, 0x0012
 17b0a74073e:	0000                	.insn	2, 0x0000
 17b0a740740:	e8d34ccf          	fnmadd.s	f25,f6,f13,f29,rmm
 17b0a740744:	0012                	.insn	2, 0x0012
 17b0a740746:	0000                	.insn	2, 0x0000
 17b0a740748:	e8d350cf          	fnmadd.s	f1,f6,f13,f29,unknown
 17b0a74074c:	0012                	.insn	2, 0x0012
 17b0a74074e:	0000                	.insn	2, 0x0000
 17b0a740750:	e8d354cf          	fnmadd.s	f9,f6,f13,f29,unknown
 17b0a740754:	0012                	.insn	2, 0x0012
 17b0a740756:	0000                	.insn	2, 0x0000
 17b0a740758:	e8d358cf          	fnmadd.s	f17,f6,f13,f29,unknown
 17b0a74075c:	0012                	.insn	2, 0x0012
 17b0a74075e:	0000                	.insn	2, 0x0000
 17b0a740760:	e8d35ccf          	fnmadd.s	f25,f6,f13,f29,unknown
 17b0a740764:	0012                	.insn	2, 0x0012
 17b0a740766:	0000                	.insn	2, 0x0000
 17b0a740768:	e8d360cf          	fnmadd.s	f1,f6,f13,f29,unknown
 17b0a74076c:	0012                	.insn	2, 0x0012
 17b0a74076e:	0000                	.insn	2, 0x0000
 17b0a740770:	e8d364cf          	fnmadd.s	f9,f6,f13,f29,unknown
 17b0a740774:	0012                	.insn	2, 0x0012
 17b0a740776:	0000                	.insn	2, 0x0000
 17b0a740778:	e8d368cf          	fnmadd.s	f17,f6,f13,f29,unknown
 17b0a74077c:	0012                	.insn	2, 0x0012
 17b0a74077e:	0000                	.insn	2, 0x0000
 17b0a740780:	e8d36ccf          	fnmadd.s	f25,f6,f13,f29,unknown
 17b0a740784:	0012                	.insn	2, 0x0012
 17b0a740786:	0000                	.insn	2, 0x0000
 17b0a740788:	e8d370cf          	fnmadd.s	f1,f6,f13,f29
 17b0a74078c:	0012                	.insn	2, 0x0012
 17b0a74078e:	0000                	.insn	2, 0x0000
 17b0a740790:	e8d374cf          	fnmadd.s	f9,f6,f13,f29
 17b0a740794:	0012                	.insn	2, 0x0012
 17b0a740796:	0000                	.insn	2, 0x0000
 17b0a740798:	e8d378cf          	fnmadd.s	f17,f6,f13,f29
 17b0a74079c:	0012                	.insn	2, 0x0012
 17b0a74079e:	0000                	.insn	2, 0x0000
 17b0a7407a0:	e8d37ccf          	fnmadd.s	f25,f6,f13,f29
 17b0a7407a4:	0012                	.insn	2, 0x0012
 17b0a7407a6:	0000                	.insn	2, 0x0000
 17b0a7407a8:	e8d380cf          	fnmadd.s	f1,f7,f13,f29,rne
 17b0a7407ac:	0012                	.insn	2, 0x0012
 17b0a7407ae:	0000                	.insn	2, 0x0000
 17b0a7407b0:	e8d384cf          	fnmadd.s	f9,f7,f13,f29,rne
 17b0a7407b4:	0012                	.insn	2, 0x0012
 17b0a7407b6:	0000                	.insn	2, 0x0000
 17b0a7407b8:	e8d388cf          	fnmadd.s	f17,f7,f13,f29,rne
 17b0a7407bc:	0012                	.insn	2, 0x0012
 17b0a7407be:	0000                	.insn	2, 0x0000
 17b0a7407c0:	e8d38ccf          	fnmadd.s	f25,f7,f13,f29,rne
 17b0a7407c4:	0012                	.insn	2, 0x0012
 17b0a7407c6:	0000                	.insn	2, 0x0000
 17b0a7407c8:	e8d390cf          	fnmadd.s	f1,f7,f13,f29,rtz
 17b0a7407cc:	0012                	.insn	2, 0x0012
 17b0a7407ce:	0000                	.insn	2, 0x0000
 17b0a7407d0:	e8d394cf          	fnmadd.s	f9,f7,f13,f29,rtz
 17b0a7407d4:	0012                	.insn	2, 0x0012
 17b0a7407d6:	0000                	.insn	2, 0x0000
 17b0a7407d8:	e8d398cf          	fnmadd.s	f17,f7,f13,f29,rtz
 17b0a7407dc:	0012                	.insn	2, 0x0012
 17b0a7407de:	0000                	.insn	2, 0x0000
 17b0a7407e0:	e8d39ccf          	fnmadd.s	f25,f7,f13,f29,rtz
 17b0a7407e4:	0012                	.insn	2, 0x0012
 17b0a7407e6:	0000                	.insn	2, 0x0000
 17b0a7407e8:	e8d3a0cf          	fnmadd.s	f1,f7,f13,f29,rdn
 17b0a7407ec:	0012                	.insn	2, 0x0012
 17b0a7407ee:	0000                	.insn	2, 0x0000
 17b0a7407f0:	e8d3a4cf          	fnmadd.s	f9,f7,f13,f29,rdn
 17b0a7407f4:	0012                	.insn	2, 0x0012
 17b0a7407f6:	0000                	.insn	2, 0x0000
 17b0a7407f8:	e8d3a8cf          	fnmadd.s	f17,f7,f13,f29,rdn
 17b0a7407fc:	0012                	.insn	2, 0x0012
 17b0a7407fe:	0000                	.insn	2, 0x0000
 17b0a740800:	e8d3accf          	fnmadd.s	f25,f7,f13,f29,rdn
 17b0a740804:	0012                	.insn	2, 0x0012
 17b0a740806:	0000                	.insn	2, 0x0000
 17b0a740808:	e8d3b0cf          	fnmadd.s	f1,f7,f13,f29,rup
 17b0a74080c:	0012                	.insn	2, 0x0012
 17b0a74080e:	0000                	.insn	2, 0x0000
 17b0a740810:	e8d3b4cf          	fnmadd.s	f9,f7,f13,f29,rup
 17b0a740814:	0012                	.insn	2, 0x0012
 17b0a740816:	0000                	.insn	2, 0x0000
 17b0a740818:	e8d3b8cf          	fnmadd.s	f17,f7,f13,f29,rup
 17b0a74081c:	0012                	.insn	2, 0x0012
 17b0a74081e:	0000                	.insn	2, 0x0000
 17b0a740820:	e8d3bccf          	fnmadd.s	f25,f7,f13,f29,rup
 17b0a740824:	0012                	.insn	2, 0x0012
 17b0a740826:	0000                	.insn	2, 0x0000
 17b0a740828:	e8d3c0cf          	fnmadd.s	f1,f7,f13,f29,rmm
 17b0a74082c:	0012                	.insn	2, 0x0012
 17b0a74082e:	0000                	.insn	2, 0x0000
 17b0a740830:	e8d3c4cf          	fnmadd.s	f9,f7,f13,f29,rmm
 17b0a740834:	0012                	.insn	2, 0x0012
 17b0a740836:	0000                	.insn	2, 0x0000
 17b0a740838:	e8d3c8cf          	fnmadd.s	f17,f7,f13,f29,rmm
 17b0a74083c:	0012                	.insn	2, 0x0012
 17b0a74083e:	0000                	.insn	2, 0x0000
 17b0a740840:	e8d3cccf          	fnmadd.s	f25,f7,f13,f29,rmm
 17b0a740844:	0012                	.insn	2, 0x0012
 17b0a740846:	0000                	.insn	2, 0x0000
 17b0a740848:	e8d3d0cf          	fnmadd.s	f1,f7,f13,f29,unknown
 17b0a74084c:	0012                	.insn	2, 0x0012
 17b0a74084e:	0000                	.insn	2, 0x0000
 17b0a740850:	e8d3d4cf          	fnmadd.s	f9,f7,f13,f29,unknown
 17b0a740854:	0012                	.insn	2, 0x0012
 17b0a740856:	0000                	.insn	2, 0x0000
 17b0a740858:	e8d3d8cf          	fnmadd.s	f17,f7,f13,f29,unknown
 17b0a74085c:	0012                	.insn	2, 0x0012
 17b0a74085e:	0000                	.insn	2, 0x0000
 17b0a740860:	e8d3dccf          	fnmadd.s	f25,f7,f13,f29,unknown
 17b0a740864:	0012                	.insn	2, 0x0012
 17b0a740866:	0000                	.insn	2, 0x0000
 17b0a740868:	e8d3e0cf          	fnmadd.s	f1,f7,f13,f29,unknown
 17b0a74086c:	0012                	.insn	2, 0x0012
 17b0a74086e:	0000                	.insn	2, 0x0000
 17b0a740870:	e8d3e4cf          	fnmadd.s	f9,f7,f13,f29,unknown
 17b0a740874:	0012                	.insn	2, 0x0012
 17b0a740876:	0000                	.insn	2, 0x0000
 17b0a740878:	e8d3e8cf          	fnmadd.s	f17,f7,f13,f29,unknown
 17b0a74087c:	0012                	.insn	2, 0x0012
 17b0a74087e:	0000                	.insn	2, 0x0000
 17b0a740880:	e8d3eccf          	fnmadd.s	f25,f7,f13,f29,unknown
 17b0a740884:	0012                	.insn	2, 0x0012
 17b0a740886:	0000                	.insn	2, 0x0000
 17b0a740888:	e8d3f0cf          	fnmadd.s	f1,f7,f13,f29
 17b0a74088c:	0012                	.insn	2, 0x0012
 17b0a74088e:	0000                	.insn	2, 0x0000
 17b0a740890:	e8d3f4cf          	fnmadd.s	f9,f7,f13,f29
 17b0a740894:	0012                	.insn	2, 0x0012
 17b0a740896:	0000                	.insn	2, 0x0000
 17b0a740898:	e8d3f8cf          	fnmadd.s	f17,f7,f13,f29
 17b0a74089c:	0012                	.insn	2, 0x0012
 17b0a74089e:	0000                	.insn	2, 0x0000
 17b0a7408a0:	e8d3fccf          	fnmadd.s	f25,f7,f13,f29
 17b0a7408a4:	0012                	.insn	2, 0x0012
 17b0a7408a6:	0000                	.insn	2, 0x0000
 17b0a7408a8:	00df e8d4 0012      	.insn	6, 0x0012e8d400df
 17b0a7408ae:	0000                	.insn	2, 0x0000
 17b0a7408b0:	04df e8d4 0012      	.insn	6, 0x0012e8d404df
 17b0a7408b6:	0000                	.insn	2, 0x0000
 17b0a7408b8:	08df e8d4 0012      	.insn	6, 0x0012e8d408df
 17b0a7408be:	0000                	.insn	2, 0x0000
 17b0a7408c0:	0cdf e8d4 0012      	.insn	6, 0x0012e8d40cdf
 17b0a7408c6:	0000                	.insn	2, 0x0000
 17b0a7408c8:	10df e8d4 0012      	.insn	6, 0x0012e8d410df
 17b0a7408ce:	0000                	.insn	2, 0x0000
 17b0a7408d0:	14df e8d4 0012      	.insn	6, 0x0012e8d414df
 17b0a7408d6:	0000                	.insn	2, 0x0000
 17b0a7408d8:	18df e8d4 0012      	.insn	6, 0x0012e8d418df
 17b0a7408de:	0000                	.insn	2, 0x0000
 17b0a7408e0:	1cdf e8d4 0012      	.insn	6, 0x0012e8d41cdf
 17b0a7408e6:	0000                	.insn	2, 0x0000
 17b0a7408e8:	20df e8d4 0012      	.insn	6, 0x0012e8d420df
 17b0a7408ee:	0000                	.insn	2, 0x0000
 17b0a7408f0:	24df e8d4 0012      	.insn	6, 0x0012e8d424df
 17b0a7408f6:	0000                	.insn	2, 0x0000
 17b0a7408f8:	28df e8d4 0012      	.insn	6, 0x0012e8d428df
 17b0a7408fe:	0000                	.insn	2, 0x0000
 17b0a740900:	2cdf e8d4 0012      	.insn	6, 0x0012e8d42cdf
 17b0a740906:	0000                	.insn	2, 0x0000
 17b0a740908:	30df e8d4 0012      	.insn	6, 0x0012e8d430df
 17b0a74090e:	0000                	.insn	2, 0x0000
 17b0a740910:	34df e8d4 0012      	.insn	6, 0x0012e8d434df
 17b0a740916:	0000                	.insn	2, 0x0000
 17b0a740918:	38df e8d4 0012      	.insn	6, 0x0012e8d438df
 17b0a74091e:	0000                	.insn	2, 0x0000
 17b0a740920:	3cdf e8d4 0012      	.insn	6, 0x0012e8d43cdf
 17b0a740926:	0000                	.insn	2, 0x0000
 17b0a740928:	40df e8d4 0012      	.insn	6, 0x0012e8d440df
 17b0a74092e:	0000                	.insn	2, 0x0000
 17b0a740930:	44df e8d4 0012      	.insn	6, 0x0012e8d444df
 17b0a740936:	0000                	.insn	2, 0x0000
 17b0a740938:	48df e8d4 0012      	.insn	6, 0x0012e8d448df
 17b0a74093e:	0000                	.insn	2, 0x0000
 17b0a740940:	4cdf e8d4 0012      	.insn	6, 0x0012e8d44cdf
 17b0a740946:	0000                	.insn	2, 0x0000
 17b0a740948:	50df e8d4 0012      	.insn	6, 0x0012e8d450df
 17b0a74094e:	0000                	.insn	2, 0x0000
 17b0a740950:	54df e8d4 0012      	.insn	6, 0x0012e8d454df
 17b0a740956:	0000                	.insn	2, 0x0000
 17b0a740958:	58df e8d4 0012      	.insn	6, 0x0012e8d458df
 17b0a74095e:	0000                	.insn	2, 0x0000
 17b0a740960:	5cdf e8d4 0012      	.insn	6, 0x0012e8d45cdf
 17b0a740966:	0000                	.insn	2, 0x0000
 17b0a740968:	60df e8d4 0012      	.insn	6, 0x0012e8d460df
 17b0a74096e:	0000                	.insn	2, 0x0000
 17b0a740970:	64df e8d4 0012      	.insn	6, 0x0012e8d464df
 17b0a740976:	0000                	.insn	2, 0x0000
 17b0a740978:	68df e8d4 0012      	.insn	6, 0x0012e8d468df
 17b0a74097e:	0000                	.insn	2, 0x0000
 17b0a740980:	6cdf e8d4 0012      	.insn	6, 0x0012e8d46cdf
 17b0a740986:	0000                	.insn	2, 0x0000
 17b0a740988:	70df e8d4 0012      	.insn	6, 0x0012e8d470df
 17b0a74098e:	0000                	.insn	2, 0x0000
 17b0a740990:	74df e8d4 0012      	.insn	6, 0x0012e8d474df
 17b0a740996:	0000                	.insn	2, 0x0000
 17b0a740998:	78df e8d4 0012      	.insn	6, 0x0012e8d478df
 17b0a74099e:	0000                	.insn	2, 0x0000
 17b0a7409a0:	7cdf e8d4 0012      	.insn	6, 0x0012e8d47cdf
 17b0a7409a6:	0000                	.insn	2, 0x0000
 17b0a7409a8:	80df e8d4 0012      	.insn	6, 0x0012e8d480df
 17b0a7409ae:	0000                	.insn	2, 0x0000
 17b0a7409b0:	84df e8d4 0012      	.insn	6, 0x0012e8d484df
 17b0a7409b6:	0000                	.insn	2, 0x0000
 17b0a7409b8:	88df e8d4 0012      	.insn	6, 0x0012e8d488df
 17b0a7409be:	0000                	.insn	2, 0x0000
 17b0a7409c0:	8cdf e8d4 0012      	.insn	6, 0x0012e8d48cdf
 17b0a7409c6:	0000                	.insn	2, 0x0000
 17b0a7409c8:	90df e8d4 0012      	.insn	6, 0x0012e8d490df
 17b0a7409ce:	0000                	.insn	2, 0x0000
 17b0a7409d0:	94df e8d4 0012      	.insn	6, 0x0012e8d494df
 17b0a7409d6:	0000                	.insn	2, 0x0000
 17b0a7409d8:	98df e8d4 0012      	.insn	6, 0x0012e8d498df
 17b0a7409de:	0000                	.insn	2, 0x0000
 17b0a7409e0:	9cdf e8d4 0012      	.insn	6, 0x0012e8d49cdf
 17b0a7409e6:	0000                	.insn	2, 0x0000
 17b0a7409e8:	a0df e8d4 0012      	.insn	6, 0x0012e8d4a0df
 17b0a7409ee:	0000                	.insn	2, 0x0000
 17b0a7409f0:	a4df e8d4 0012      	.insn	6, 0x0012e8d4a4df
 17b0a7409f6:	0000                	.insn	2, 0x0000
 17b0a7409f8:	a8df e8d4 0012      	.insn	6, 0x0012e8d4a8df
 17b0a7409fe:	0000                	.insn	2, 0x0000
 17b0a740a00:	acdf e8d4 0012      	.insn	6, 0x0012e8d4acdf
 17b0a740a06:	0000                	.insn	2, 0x0000
 17b0a740a08:	b0df e8d4 0012      	.insn	6, 0x0012e8d4b0df
 17b0a740a0e:	0000                	.insn	2, 0x0000
 17b0a740a10:	b4df e8d4 0012      	.insn	6, 0x0012e8d4b4df
 17b0a740a16:	0000                	.insn	2, 0x0000
 17b0a740a18:	b8df e8d4 0012      	.insn	6, 0x0012e8d4b8df
 17b0a740a1e:	0000                	.insn	2, 0x0000
 17b0a740a20:	bcdf e8d4 0012      	.insn	6, 0x0012e8d4bcdf
 17b0a740a26:	0000                	.insn	2, 0x0000
 17b0a740a28:	c0df e8d4 0012      	.insn	6, 0x0012e8d4c0df
 17b0a740a2e:	0000                	.insn	2, 0x0000
 17b0a740a30:	c4df e8d4 0012      	.insn	6, 0x0012e8d4c4df
 17b0a740a36:	0000                	.insn	2, 0x0000
 17b0a740a38:	c8df e8d4 0012      	.insn	6, 0x0012e8d4c8df
 17b0a740a3e:	0000                	.insn	2, 0x0000
 17b0a740a40:	ccdf e8d4 0012      	.insn	6, 0x0012e8d4ccdf
 17b0a740a46:	0000                	.insn	2, 0x0000
 17b0a740a48:	d0df e8d4 0012      	.insn	6, 0x0012e8d4d0df
 17b0a740a4e:	0000                	.insn	2, 0x0000
 17b0a740a50:	d4df e8d4 0012      	.insn	6, 0x0012e8d4d4df
 17b0a740a56:	0000                	.insn	2, 0x0000
 17b0a740a58:	d8df e8d4 0012      	.insn	6, 0x0012e8d4d8df
 17b0a740a5e:	0000                	.insn	2, 0x0000
 17b0a740a60:	dcdf e8d4 0012      	.insn	6, 0x0012e8d4dcdf
 17b0a740a66:	0000                	.insn	2, 0x0000
 17b0a740a68:	e0df e8d4 0012      	.insn	6, 0x0012e8d4e0df
 17b0a740a6e:	0000                	.insn	2, 0x0000
 17b0a740a70:	e4df e8d4 0012      	.insn	6, 0x0012e8d4e4df
 17b0a740a76:	0000                	.insn	2, 0x0000
 17b0a740a78:	e8df e8d4 0012      	.insn	6, 0x0012e8d4e8df
 17b0a740a7e:	0000                	.insn	2, 0x0000
 17b0a740a80:	ecdf e8d4 0012      	.insn	6, 0x0012e8d4ecdf
 17b0a740a86:	0000                	.insn	2, 0x0000
 17b0a740a88:	f0df e8d4 0012      	.insn	6, 0x0012e8d4f0df
 17b0a740a8e:	0000                	.insn	2, 0x0000
 17b0a740a90:	f4df e8d4 0012      	.insn	6, 0x0012e8d4f4df
 17b0a740a96:	0000                	.insn	2, 0x0000
 17b0a740a98:	f8df e8d4 0012      	.insn	6, 0x0012e8d4f8df
 17b0a740a9e:	0000                	.insn	2, 0x0000
 17b0a740aa0:	fcdf e8d4 0012      	.insn	6, 0x0012e8d4fcdf
 17b0a740aa6:	0000                	.insn	2, 0x0000
 17b0a740aa8:	00df e8d5 0012      	.insn	6, 0x0012e8d500df
 17b0a740aae:	0000                	.insn	2, 0x0000
 17b0a740ab0:	04df e8d5 0012      	.insn	6, 0x0012e8d504df
 17b0a740ab6:	0000                	.insn	2, 0x0000
 17b0a740ab8:	08df e8d5 0012      	.insn	6, 0x0012e8d508df
 17b0a740abe:	0000                	.insn	2, 0x0000
 17b0a740ac0:	0cdf e8d5 0012      	.insn	6, 0x0012e8d50cdf
 17b0a740ac6:	0000                	.insn	2, 0x0000
 17b0a740ac8:	10df e8d5 0012      	.insn	6, 0x0012e8d510df
 17b0a740ace:	0000                	.insn	2, 0x0000
 17b0a740ad0:	14df e8d5 0012      	.insn	6, 0x0012e8d514df
 17b0a740ad6:	0000                	.insn	2, 0x0000
 17b0a740ad8:	18df e8d5 0012      	.insn	6, 0x0012e8d518df
 17b0a740ade:	0000                	.insn	2, 0x0000
 17b0a740ae0:	1cdf e8d5 0012      	.insn	6, 0x0012e8d51cdf
 17b0a740ae6:	0000                	.insn	2, 0x0000
 17b0a740ae8:	20df e8d5 0012      	.insn	6, 0x0012e8d520df
 17b0a740aee:	0000                	.insn	2, 0x0000
 17b0a740af0:	24df e8d5 0012      	.insn	6, 0x0012e8d524df
 17b0a740af6:	0000                	.insn	2, 0x0000
 17b0a740af8:	28df e8d5 0012      	.insn	6, 0x0012e8d528df
 17b0a740afe:	0000                	.insn	2, 0x0000
 17b0a740b00:	2cdf e8d5 0012      	.insn	6, 0x0012e8d52cdf
 17b0a740b06:	0000                	.insn	2, 0x0000
 17b0a740b08:	30df e8d5 0012      	.insn	6, 0x0012e8d530df
 17b0a740b0e:	0000                	.insn	2, 0x0000
 17b0a740b10:	34df e8d5 0012      	.insn	6, 0x0012e8d534df
 17b0a740b16:	0000                	.insn	2, 0x0000
 17b0a740b18:	38df e8d5 0012      	.insn	6, 0x0012e8d538df
 17b0a740b1e:	0000                	.insn	2, 0x0000
 17b0a740b20:	3cdf e8d5 0012      	.insn	6, 0x0012e8d53cdf
 17b0a740b26:	0000                	.insn	2, 0x0000
 17b0a740b28:	40df e8d5 0012      	.insn	6, 0x0012e8d540df
 17b0a740b2e:	0000                	.insn	2, 0x0000
 17b0a740b30:	44df e8d5 0012      	.insn	6, 0x0012e8d544df
 17b0a740b36:	0000                	.insn	2, 0x0000
 17b0a740b38:	48df e8d5 0012      	.insn	6, 0x0012e8d548df
 17b0a740b3e:	0000                	.insn	2, 0x0000
 17b0a740b40:	4cdf e8d5 0012      	.insn	6, 0x0012e8d54cdf
 17b0a740b46:	0000                	.insn	2, 0x0000
 17b0a740b48:	50df e8d5 0012      	.insn	6, 0x0012e8d550df
 17b0a740b4e:	0000                	.insn	2, 0x0000
 17b0a740b50:	54df e8d5 0012      	.insn	6, 0x0012e8d554df
 17b0a740b56:	0000                	.insn	2, 0x0000
 17b0a740b58:	58df e8d5 0012      	.insn	6, 0x0012e8d558df
 17b0a740b5e:	0000                	.insn	2, 0x0000
 17b0a740b60:	5cdf e8d5 0012      	.insn	6, 0x0012e8d55cdf
 17b0a740b66:	0000                	.insn	2, 0x0000
 17b0a740b68:	60df e8d5 0012      	.insn	6, 0x0012e8d560df
 17b0a740b6e:	0000                	.insn	2, 0x0000
 17b0a740b70:	64df e8d5 0012      	.insn	6, 0x0012e8d564df
 17b0a740b76:	0000                	.insn	2, 0x0000
 17b0a740b78:	68df e8d5 0012      	.insn	6, 0x0012e8d568df
 17b0a740b7e:	0000                	.insn	2, 0x0000
 17b0a740b80:	6cdf e8d5 0012      	.insn	6, 0x0012e8d56cdf
 17b0a740b86:	0000                	.insn	2, 0x0000
 17b0a740b88:	70df e8d5 0012      	.insn	6, 0x0012e8d570df
 17b0a740b8e:	0000                	.insn	2, 0x0000
 17b0a740b90:	74df e8d5 0012      	.insn	6, 0x0012e8d574df
 17b0a740b96:	0000                	.insn	2, 0x0000
 17b0a740b98:	78df e8d5 0012      	.insn	6, 0x0012e8d578df
 17b0a740b9e:	0000                	.insn	2, 0x0000
 17b0a740ba0:	7cdf e8d5 0012      	.insn	6, 0x0012e8d57cdf
 17b0a740ba6:	0000                	.insn	2, 0x0000
 17b0a740ba8:	80df e8d5 0012      	.insn	6, 0x0012e8d580df
 17b0a740bae:	0000                	.insn	2, 0x0000
 17b0a740bb0:	84df e8d5 0012      	.insn	6, 0x0012e8d584df
 17b0a740bb6:	0000                	.insn	2, 0x0000
 17b0a740bb8:	88df e8d5 0012      	.insn	6, 0x0012e8d588df
 17b0a740bbe:	0000                	.insn	2, 0x0000
 17b0a740bc0:	8cdf e8d5 0012      	.insn	6, 0x0012e8d58cdf
 17b0a740bc6:	0000                	.insn	2, 0x0000
 17b0a740bc8:	90df e8d5 0012      	.insn	6, 0x0012e8d590df
 17b0a740bce:	0000                	.insn	2, 0x0000
 17b0a740bd0:	94df e8d5 0012      	.insn	6, 0x0012e8d594df
 17b0a740bd6:	0000                	.insn	2, 0x0000
 17b0a740bd8:	98df e8d5 0012      	.insn	6, 0x0012e8d598df
 17b0a740bde:	0000                	.insn	2, 0x0000
 17b0a740be0:	9cdf e8d5 0012      	.insn	6, 0x0012e8d59cdf
 17b0a740be6:	0000                	.insn	2, 0x0000
 17b0a740be8:	a0df e8d5 0012      	.insn	6, 0x0012e8d5a0df
 17b0a740bee:	0000                	.insn	2, 0x0000
 17b0a740bf0:	a4df e8d5 0012      	.insn	6, 0x0012e8d5a4df
 17b0a740bf6:	0000                	.insn	2, 0x0000
 17b0a740bf8:	a8df e8d5 0012      	.insn	6, 0x0012e8d5a8df
 17b0a740bfe:	0000                	.insn	2, 0x0000
 17b0a740c00:	acdf e8d5 0012      	.insn	6, 0x0012e8d5acdf
 17b0a740c06:	0000                	.insn	2, 0x0000
 17b0a740c08:	b0df e8d5 0012      	.insn	6, 0x0012e8d5b0df
 17b0a740c0e:	0000                	.insn	2, 0x0000
 17b0a740c10:	b4df e8d5 0012      	.insn	6, 0x0012e8d5b4df
 17b0a740c16:	0000                	.insn	2, 0x0000
 17b0a740c18:	b8df e8d5 0012      	.insn	6, 0x0012e8d5b8df
 17b0a740c1e:	0000                	.insn	2, 0x0000
 17b0a740c20:	bcdf e8d5 0012      	.insn	6, 0x0012e8d5bcdf
 17b0a740c26:	0000                	.insn	2, 0x0000
 17b0a740c28:	c0df e8d5 0012      	.insn	6, 0x0012e8d5c0df
 17b0a740c2e:	0000                	.insn	2, 0x0000
 17b0a740c30:	c4df e8d5 0012      	.insn	6, 0x0012e8d5c4df
 17b0a740c36:	0000                	.insn	2, 0x0000
 17b0a740c38:	c8df e8d5 0012      	.insn	6, 0x0012e8d5c8df
 17b0a740c3e:	0000                	.insn	2, 0x0000
 17b0a740c40:	ccdf e8d5 0012      	.insn	6, 0x0012e8d5ccdf
 17b0a740c46:	0000                	.insn	2, 0x0000
 17b0a740c48:	d0df e8d5 0012      	.insn	6, 0x0012e8d5d0df
 17b0a740c4e:	0000                	.insn	2, 0x0000
 17b0a740c50:	d4df e8d5 0012      	.insn	6, 0x0012e8d5d4df
 17b0a740c56:	0000                	.insn	2, 0x0000
 17b0a740c58:	d8df e8d5 0012      	.insn	6, 0x0012e8d5d8df
 17b0a740c5e:	0000                	.insn	2, 0x0000
 17b0a740c60:	dcdf e8d5 0012      	.insn	6, 0x0012e8d5dcdf
 17b0a740c66:	0000                	.insn	2, 0x0000
 17b0a740c68:	e0df e8d5 0012      	.insn	6, 0x0012e8d5e0df
 17b0a740c6e:	0000                	.insn	2, 0x0000
 17b0a740c70:	e4df e8d5 0012      	.insn	6, 0x0012e8d5e4df
 17b0a740c76:	0000                	.insn	2, 0x0000
 17b0a740c78:	e8df e8d5 0012      	.insn	6, 0x0012e8d5e8df
 17b0a740c7e:	0000                	.insn	2, 0x0000
 17b0a740c80:	ecdf e8d5 0012      	.insn	6, 0x0012e8d5ecdf
 17b0a740c86:	0000                	.insn	2, 0x0000
 17b0a740c88:	f0df e8d5 0012      	.insn	6, 0x0012e8d5f0df
 17b0a740c8e:	0000                	.insn	2, 0x0000
 17b0a740c90:	f4df e8d5 0012      	.insn	6, 0x0012e8d5f4df
 17b0a740c96:	0000                	.insn	2, 0x0000
 17b0a740c98:	f8df e8d5 0012      	.insn	6, 0x0012e8d5f8df
 17b0a740c9e:	0000                	.insn	2, 0x0000
 17b0a740ca0:	fcdf e8d5 0012      	.insn	6, 0x0012e8d5fcdf
	...

Disassembly of section .__pagetable_map_os_0x000000478ef31000:

000000478ef31000 <__pagetable_map_os_0x000000478ef31000>:
	...
  478ef310b0:	e8d804cf          	fnmadd.s	f9,f16,f13,f29,rne
  478ef310b4:	0012                	.insn	2, 0x0012
	...

Disassembly of section .__pagetable_map_os_0x0000000eab87f000:

0000000eab87f000 <__pagetable_map_os_0x0000000eab87f000>:
	...
   eab87f020:	6c01                	.insn	2, 0x6c01
   eab87f022:	b1f6                	.insn	2, 0xb1f6
   eab87f024:	3105                	.insn	2, 0x3105
	...
   eab87fb5e:	0000                	.insn	2, 0x0000
   eab87fb60:	cc01                	.insn	2, 0xcc01
   eab87fb62:	e46d                	.insn	2, 0xe46d
   eab87fb64:	0000003f          	.word	0x0000003f

Disassembly of section .__pagetable_map_os_0x0000c416c7d9b000:

0000c416c7d9b000 <__pagetable_map_os_0x0000c416c7d9b000>:
	...
    c416c7d9b050:	f8df 3d73 0000      	.insn	6, 0x3d73f8df
    c416c7d9b056:	0000                	.insn	2, 0x0000
    c416c7d9b058:	fcdf 3d73 0000      	.insn	6, 0x3d73fcdf
	...

Disassembly of section .__pagetable_map_os_0x000000ff91b73000:

000000ff91b73000 <__pagetable_map_os_0x000000ff91b73000>:
	...
  ff91b73238:	cef110d7          	vfwredosum.vs	v1,v15,v2
  ff91b7323c:	19e9                	.insn	2, 0x19e9
	...

Disassembly of section .__pagetable_map_os_0x00041597b2f13000:

00041597b2f13000 <__pagetable_map_os_0x00041597b2f13000>:
	...
   41597b2f13080:	2801                	.insn	2, 0x2801
   41597b2f13082:	30ce                	.insn	2, 0x30ce
   41597b2f13084:	0004                	.insn	2, 0x0004
	...
   41597b2f13bfe:	0000                	.insn	2, 0x0000
   41597b2f13c00:	b801                	.insn	2, 0xb801
   41597b2f13c02:	18f0144f          	fnmadd.s	f8,f0,f15,f3,rtz
	...

Disassembly of section .__pagetable_map_os_0x00000010c338a000:

00000010c338a000 <__pagetable_map_os_0x00000010c338a000>:
	...
  10c338aca8:	8cdf 20ac 3eb0      	.insn	6, 0x3eb020ac8cdf
	...

Disassembly of section .__pagetable_map_os_0x000063c0513ee000:

000063c0513ee000 <__pagetable_map_os_0x000063c0513ee000>:
    63c0513ee000:	00df 1c00 0000      	.insn	6, 0x1c0000df
	...

Disassembly of section .__pagetable_map_os_0x00001fb70133b000:

00001fb70133b000 <__pagetable_map_os_0x00001fb70133b000>:
    1fb70133b000:	6401                	.insn	2, 0x6401
    1fb70133b002:	6f2c                	.insn	2, 0x6f2c
    1fb70133b004:	01ce                	.insn	2, 0x01ce
	...
    1fb70133b00e:	0000                	.insn	2, 0x0000
    1fb70133b010:	7c01                	.insn	2, 0x7c01
    1fb70133b012:	0000edb3          	or	x27,x1,x0
	...
    1fb70133b076:	0000                	.insn	2, 0x0000
    1fb70133b078:	2001                	.insn	2, 0x2001
    1fb70133b07a:	0270b9ef          	jal	x19,1fb7013468a0 <__pagetable_map_os_0x00001fb70133b000+0xb8a0>
	...
    1fb70133b266:	0000                	.insn	2, 0x0000
    1fb70133b268:	a001                	.insn	2, 0xa001
    1fb70133b26a:	61e9                	.insn	2, 0x61e9
	...
    1fb70133b420:	1c01                	.insn	2, 0x1c01
    1fb70133b422:	0a90                	.insn	2, 0x0a90
    1fb70133b424:	0008                	.insn	2, 0x0008
	...
    1fb70133b81e:	0000                	.insn	2, 0x0000
    1fb70133b820:	2c01                	.insn	2, 0x2c01
    1fb70133b822:	35b0                	.insn	2, 0x35b0
    1fb70133b824:	b366                	.insn	2, 0xb366
    1fb70133b826:	0003                	.short	0x0003

Disassembly of section .__pagetable_map_os_0x0000000187a68000:

0000000187a68000 <__pagetable_map_os_0x0000000187a68000>:
	...
   187a680d0:	08df 1c08 182f      	.insn	6, 0x182f1c0808df
	...

Disassembly of section .__pagetable_map_os_0x000000202a407000:

000000202a407000 <__pagetable_map_os_0x000000202a407000>:
  202a407000:	00df 0420 0000      	.insn	6, 0x042000df
  202a407006:	0000                	.insn	2, 0x0000
  202a407008:	04df 0420 0000      	.insn	6, 0x042004df
  202a40700e:	0000                	.insn	2, 0x0000
  202a407010:	08df 0420 0000      	.insn	6, 0x042008df
  202a407016:	0000                	.insn	2, 0x0000
  202a407018:	0cdf 0420 0000      	.insn	6, 0x04200cdf
  202a40701e:	0000                	.insn	2, 0x0000
  202a407020:	10df 0420 0000      	.insn	6, 0x042010df
  202a407026:	0000                	.insn	2, 0x0000
  202a407028:	14df 0420 0000      	.insn	6, 0x042014df
  202a40702e:	0000                	.insn	2, 0x0000
  202a407030:	18df 0420 0000      	.insn	6, 0x042018df
  202a407036:	0000                	.insn	2, 0x0000
  202a407038:	1cdf 0420 0000      	.insn	6, 0x04201cdf
  202a40703e:	0000                	.insn	2, 0x0000
  202a407040:	20df 0420 0000      	.insn	6, 0x042020df
  202a407046:	0000                	.insn	2, 0x0000
  202a407048:	24df 0420 0000      	.insn	6, 0x042024df
  202a40704e:	0000                	.insn	2, 0x0000
  202a407050:	28df 0420 0000      	.insn	6, 0x042028df
  202a407056:	0000                	.insn	2, 0x0000
  202a407058:	2cdf 0420 0000      	.insn	6, 0x04202cdf
  202a40705e:	0000                	.insn	2, 0x0000
  202a407060:	30df 0420 0000      	.insn	6, 0x042030df
  202a407066:	0000                	.insn	2, 0x0000
  202a407068:	34df 0420 0000      	.insn	6, 0x042034df
  202a40706e:	0000                	.insn	2, 0x0000
  202a407070:	38df 0420 0000      	.insn	6, 0x042038df
  202a407076:	0000                	.insn	2, 0x0000
  202a407078:	3cdf 0420 0000      	.insn	6, 0x04203cdf
  202a40707e:	0000                	.insn	2, 0x0000
  202a407080:	40df 0420 0000      	.insn	6, 0x042040df
  202a407086:	0000                	.insn	2, 0x0000
  202a407088:	44df 0420 0000      	.insn	6, 0x042044df
  202a40708e:	0000                	.insn	2, 0x0000
  202a407090:	48df 0420 0000      	.insn	6, 0x042048df
  202a407096:	0000                	.insn	2, 0x0000
  202a407098:	4cdf 0420 0000      	.insn	6, 0x04204cdf
  202a40709e:	0000                	.insn	2, 0x0000
  202a4070a0:	50df 0420 0000      	.insn	6, 0x042050df
  202a4070a6:	0000                	.insn	2, 0x0000
  202a4070a8:	54df 0420 0000      	.insn	6, 0x042054df
  202a4070ae:	0000                	.insn	2, 0x0000
  202a4070b0:	58df 0420 0000      	.insn	6, 0x042058df
  202a4070b6:	0000                	.insn	2, 0x0000
  202a4070b8:	5cdf 0420 0000      	.insn	6, 0x04205cdf
  202a4070be:	0000                	.insn	2, 0x0000
  202a4070c0:	60df 0420 0000      	.insn	6, 0x042060df
  202a4070c6:	0000                	.insn	2, 0x0000
  202a4070c8:	64df 0420 0000      	.insn	6, 0x042064df
  202a4070ce:	0000                	.insn	2, 0x0000
  202a4070d0:	68df 0420 0000      	.insn	6, 0x042068df
  202a4070d6:	0000                	.insn	2, 0x0000
  202a4070d8:	6cdf 0420 0000      	.insn	6, 0x04206cdf
  202a4070de:	0000                	.insn	2, 0x0000
  202a4070e0:	70df 0420 0000      	.insn	6, 0x042070df
  202a4070e6:	0000                	.insn	2, 0x0000
  202a4070e8:	74df 0420 0000      	.insn	6, 0x042074df
  202a4070ee:	0000                	.insn	2, 0x0000
  202a4070f0:	78df 0420 0000      	.insn	6, 0x042078df
  202a4070f6:	0000                	.insn	2, 0x0000
  202a4070f8:	7cdf 0420 0000      	.insn	6, 0x04207cdf
  202a4070fe:	0000                	.insn	2, 0x0000
  202a407100:	80df 0420 0000      	.insn	6, 0x042080df
  202a407106:	0000                	.insn	2, 0x0000
  202a407108:	84df 0420 0000      	.insn	6, 0x042084df
  202a40710e:	0000                	.insn	2, 0x0000
  202a407110:	88df 0420 0000      	.insn	6, 0x042088df
  202a407116:	0000                	.insn	2, 0x0000
  202a407118:	8cdf 0420 0000      	.insn	6, 0x04208cdf
  202a40711e:	0000                	.insn	2, 0x0000
  202a407120:	90df 0420 0000      	.insn	6, 0x042090df
  202a407126:	0000                	.insn	2, 0x0000
  202a407128:	94df 0420 0000      	.insn	6, 0x042094df
  202a40712e:	0000                	.insn	2, 0x0000
  202a407130:	98df 0420 0000      	.insn	6, 0x042098df
  202a407136:	0000                	.insn	2, 0x0000
  202a407138:	9cdf 0420 0000      	.insn	6, 0x04209cdf
  202a40713e:	0000                	.insn	2, 0x0000
  202a407140:	a0df 0420 0000      	.insn	6, 0x0420a0df
  202a407146:	0000                	.insn	2, 0x0000
  202a407148:	a4df 0420 0000      	.insn	6, 0x0420a4df
  202a40714e:	0000                	.insn	2, 0x0000
  202a407150:	a8df 0420 0000      	.insn	6, 0x0420a8df
  202a407156:	0000                	.insn	2, 0x0000
  202a407158:	acdf 0420 0000      	.insn	6, 0x0420acdf
  202a40715e:	0000                	.insn	2, 0x0000
  202a407160:	b0df 0420 0000      	.insn	6, 0x0420b0df
  202a407166:	0000                	.insn	2, 0x0000
  202a407168:	b4df 0420 0000      	.insn	6, 0x0420b4df
  202a40716e:	0000                	.insn	2, 0x0000
  202a407170:	b8df 0420 0000      	.insn	6, 0x0420b8df
  202a407176:	0000                	.insn	2, 0x0000
  202a407178:	bcdf 0420 0000      	.insn	6, 0x0420bcdf
  202a40717e:	0000                	.insn	2, 0x0000
  202a407180:	c0df 0420 0000      	.insn	6, 0x0420c0df
  202a407186:	0000                	.insn	2, 0x0000
  202a407188:	c4df 0420 0000      	.insn	6, 0x0420c4df
  202a40718e:	0000                	.insn	2, 0x0000
  202a407190:	c8df 0420 0000      	.insn	6, 0x0420c8df
  202a407196:	0000                	.insn	2, 0x0000
  202a407198:	ccdf 0420 0000      	.insn	6, 0x0420ccdf
  202a40719e:	0000                	.insn	2, 0x0000
  202a4071a0:	d0df 0420 0000      	.insn	6, 0x0420d0df
  202a4071a6:	0000                	.insn	2, 0x0000
  202a4071a8:	d4df 0420 0000      	.insn	6, 0x0420d4df
  202a4071ae:	0000                	.insn	2, 0x0000
  202a4071b0:	d8df 0420 0000      	.insn	6, 0x0420d8df
  202a4071b6:	0000                	.insn	2, 0x0000
  202a4071b8:	dcdf 0420 0000      	.insn	6, 0x0420dcdf
  202a4071be:	0000                	.insn	2, 0x0000
  202a4071c0:	e0df 0420 0000      	.insn	6, 0x0420e0df
  202a4071c6:	0000                	.insn	2, 0x0000
  202a4071c8:	e4df 0420 0000      	.insn	6, 0x0420e4df
  202a4071ce:	0000                	.insn	2, 0x0000
  202a4071d0:	e8df 0420 0000      	.insn	6, 0x0420e8df
  202a4071d6:	0000                	.insn	2, 0x0000
  202a4071d8:	ecdf 0420 0000      	.insn	6, 0x0420ecdf
  202a4071de:	0000                	.insn	2, 0x0000
  202a4071e0:	f0df 0420 0000      	.insn	6, 0x0420f0df
  202a4071e6:	0000                	.insn	2, 0x0000
  202a4071e8:	f4df 0420 0000      	.insn	6, 0x0420f4df
  202a4071ee:	0000                	.insn	2, 0x0000
  202a4071f0:	f8df 0420 0000      	.insn	6, 0x0420f8df
  202a4071f6:	0000                	.insn	2, 0x0000
  202a4071f8:	fcdf 0420 0000      	.insn	6, 0x0420fcdf
  202a4071fe:	0000                	.insn	2, 0x0000
  202a407200:	00df 0421 0000      	.insn	6, 0x042100df
  202a407206:	0000                	.insn	2, 0x0000
  202a407208:	04df 0421 0000      	.insn	6, 0x042104df
  202a40720e:	0000                	.insn	2, 0x0000
  202a407210:	08df 0421 0000      	.insn	6, 0x042108df
  202a407216:	0000                	.insn	2, 0x0000
  202a407218:	0cdf 0421 0000      	.insn	6, 0x04210cdf
  202a40721e:	0000                	.insn	2, 0x0000
  202a407220:	10df 0421 0000      	.insn	6, 0x042110df
  202a407226:	0000                	.insn	2, 0x0000
  202a407228:	14df 0421 0000      	.insn	6, 0x042114df
  202a40722e:	0000                	.insn	2, 0x0000
  202a407230:	18df 0421 0000      	.insn	6, 0x042118df
  202a407236:	0000                	.insn	2, 0x0000
  202a407238:	1cdf 0421 0000      	.insn	6, 0x04211cdf
  202a40723e:	0000                	.insn	2, 0x0000
  202a407240:	20df 0421 0000      	.insn	6, 0x042120df
  202a407246:	0000                	.insn	2, 0x0000
  202a407248:	24df 0421 0000      	.insn	6, 0x042124df
  202a40724e:	0000                	.insn	2, 0x0000
  202a407250:	28df 0421 0000      	.insn	6, 0x042128df
  202a407256:	0000                	.insn	2, 0x0000
  202a407258:	2cdf 0421 0000      	.insn	6, 0x04212cdf
  202a40725e:	0000                	.insn	2, 0x0000
  202a407260:	30df 0421 0000      	.insn	6, 0x042130df
  202a407266:	0000                	.insn	2, 0x0000
  202a407268:	34df 0421 0000      	.insn	6, 0x042134df
  202a40726e:	0000                	.insn	2, 0x0000
  202a407270:	38df 0421 0000      	.insn	6, 0x042138df
  202a407276:	0000                	.insn	2, 0x0000
  202a407278:	3cdf 0421 0000      	.insn	6, 0x04213cdf
  202a40727e:	0000                	.insn	2, 0x0000
  202a407280:	40df 0421 0000      	.insn	6, 0x042140df
  202a407286:	0000                	.insn	2, 0x0000
  202a407288:	44df 0421 0000      	.insn	6, 0x042144df
  202a40728e:	0000                	.insn	2, 0x0000
  202a407290:	48df 0421 0000      	.insn	6, 0x042148df
  202a407296:	0000                	.insn	2, 0x0000
  202a407298:	4cdf 0421 0000      	.insn	6, 0x04214cdf
  202a40729e:	0000                	.insn	2, 0x0000
  202a4072a0:	50df 0421 0000      	.insn	6, 0x042150df
  202a4072a6:	0000                	.insn	2, 0x0000
  202a4072a8:	54df 0421 0000      	.insn	6, 0x042154df
  202a4072ae:	0000                	.insn	2, 0x0000
  202a4072b0:	58df 0421 0000      	.insn	6, 0x042158df
  202a4072b6:	0000                	.insn	2, 0x0000
  202a4072b8:	5cdf 0421 0000      	.insn	6, 0x04215cdf
  202a4072be:	0000                	.insn	2, 0x0000
  202a4072c0:	60df 0421 0000      	.insn	6, 0x042160df
  202a4072c6:	0000                	.insn	2, 0x0000
  202a4072c8:	64df 0421 0000      	.insn	6, 0x042164df
  202a4072ce:	0000                	.insn	2, 0x0000
  202a4072d0:	68df 0421 0000      	.insn	6, 0x042168df
  202a4072d6:	0000                	.insn	2, 0x0000
  202a4072d8:	6cdf 0421 0000      	.insn	6, 0x04216cdf
  202a4072de:	0000                	.insn	2, 0x0000
  202a4072e0:	70df 0421 0000      	.insn	6, 0x042170df
  202a4072e6:	0000                	.insn	2, 0x0000
  202a4072e8:	74df 0421 0000      	.insn	6, 0x042174df
  202a4072ee:	0000                	.insn	2, 0x0000
  202a4072f0:	78df 0421 0000      	.insn	6, 0x042178df
  202a4072f6:	0000                	.insn	2, 0x0000
  202a4072f8:	7cdf 0421 0000      	.insn	6, 0x04217cdf
  202a4072fe:	0000                	.insn	2, 0x0000
  202a407300:	80df 0421 0000      	.insn	6, 0x042180df
  202a407306:	0000                	.insn	2, 0x0000
  202a407308:	84df 0421 0000      	.insn	6, 0x042184df
  202a40730e:	0000                	.insn	2, 0x0000
  202a407310:	88df 0421 0000      	.insn	6, 0x042188df
  202a407316:	0000                	.insn	2, 0x0000
  202a407318:	8cdf 0421 0000      	.insn	6, 0x04218cdf
  202a40731e:	0000                	.insn	2, 0x0000
  202a407320:	90df 0421 0000      	.insn	6, 0x042190df
  202a407326:	0000                	.insn	2, 0x0000
  202a407328:	94df 0421 0000      	.insn	6, 0x042194df
  202a40732e:	0000                	.insn	2, 0x0000
  202a407330:	98df 0421 0000      	.insn	6, 0x042198df
  202a407336:	0000                	.insn	2, 0x0000
  202a407338:	9cdf 0421 0000      	.insn	6, 0x04219cdf
  202a40733e:	0000                	.insn	2, 0x0000
  202a407340:	a0df 0421 0000      	.insn	6, 0x0421a0df
  202a407346:	0000                	.insn	2, 0x0000
  202a407348:	a4df 0421 0000      	.insn	6, 0x0421a4df
  202a40734e:	0000                	.insn	2, 0x0000
  202a407350:	a8df 0421 0000      	.insn	6, 0x0421a8df
  202a407356:	0000                	.insn	2, 0x0000
  202a407358:	acdf 0421 0000      	.insn	6, 0x0421acdf
  202a40735e:	0000                	.insn	2, 0x0000
  202a407360:	b0df 0421 0000      	.insn	6, 0x0421b0df
  202a407366:	0000                	.insn	2, 0x0000
  202a407368:	b4df 0421 0000      	.insn	6, 0x0421b4df
  202a40736e:	0000                	.insn	2, 0x0000
  202a407370:	b8df 0421 0000      	.insn	6, 0x0421b8df
  202a407376:	0000                	.insn	2, 0x0000
  202a407378:	bcdf 0421 0000      	.insn	6, 0x0421bcdf
  202a40737e:	0000                	.insn	2, 0x0000
  202a407380:	c0df 0421 0000      	.insn	6, 0x0421c0df
  202a407386:	0000                	.insn	2, 0x0000
  202a407388:	c4df 0421 0000      	.insn	6, 0x0421c4df
  202a40738e:	0000                	.insn	2, 0x0000
  202a407390:	c8df 0421 0000      	.insn	6, 0x0421c8df
  202a407396:	0000                	.insn	2, 0x0000
  202a407398:	ccdf 0421 0000      	.insn	6, 0x0421ccdf
  202a40739e:	0000                	.insn	2, 0x0000
  202a4073a0:	d0df 0421 0000      	.insn	6, 0x0421d0df
  202a4073a6:	0000                	.insn	2, 0x0000
  202a4073a8:	d4df 0421 0000      	.insn	6, 0x0421d4df
  202a4073ae:	0000                	.insn	2, 0x0000
  202a4073b0:	d8df 0421 0000      	.insn	6, 0x0421d8df
  202a4073b6:	0000                	.insn	2, 0x0000
  202a4073b8:	dcdf 0421 0000      	.insn	6, 0x0421dcdf
  202a4073be:	0000                	.insn	2, 0x0000
  202a4073c0:	e0df 0421 0000      	.insn	6, 0x0421e0df
  202a4073c6:	0000                	.insn	2, 0x0000
  202a4073c8:	e4df 0421 0000      	.insn	6, 0x0421e4df
  202a4073ce:	0000                	.insn	2, 0x0000
  202a4073d0:	e8df 0421 0000      	.insn	6, 0x0421e8df
  202a4073d6:	0000                	.insn	2, 0x0000
  202a4073d8:	ecdf 0421 0000      	.insn	6, 0x0421ecdf
  202a4073de:	0000                	.insn	2, 0x0000
  202a4073e0:	f0df 0421 0000      	.insn	6, 0x0421f0df
  202a4073e6:	0000                	.insn	2, 0x0000
  202a4073e8:	f4df 0421 0000      	.insn	6, 0x0421f4df
  202a4073ee:	0000                	.insn	2, 0x0000
  202a4073f0:	f8df 0421 0000      	.insn	6, 0x0421f8df
  202a4073f6:	0000                	.insn	2, 0x0000
  202a4073f8:	fcdf 0421 0000      	.insn	6, 0x0421fcdf
  202a4073fe:	0000                	.insn	2, 0x0000
  202a407400:	00df 0422 0000      	.insn	6, 0x042200df
  202a407406:	0000                	.insn	2, 0x0000
  202a407408:	04df 0422 0000      	.insn	6, 0x042204df
  202a40740e:	0000                	.insn	2, 0x0000
  202a407410:	08df 0422 0000      	.insn	6, 0x042208df
  202a407416:	0000                	.insn	2, 0x0000
  202a407418:	0cdf 0422 0000      	.insn	6, 0x04220cdf
  202a40741e:	0000                	.insn	2, 0x0000
  202a407420:	10df 0422 0000      	.insn	6, 0x042210df
  202a407426:	0000                	.insn	2, 0x0000
  202a407428:	14df 0422 0000      	.insn	6, 0x042214df
  202a40742e:	0000                	.insn	2, 0x0000
  202a407430:	18df 0422 0000      	.insn	6, 0x042218df
  202a407436:	0000                	.insn	2, 0x0000
  202a407438:	1cdf 0422 0000      	.insn	6, 0x04221cdf
  202a40743e:	0000                	.insn	2, 0x0000
  202a407440:	20df 0422 0000      	.insn	6, 0x042220df
  202a407446:	0000                	.insn	2, 0x0000
  202a407448:	24df 0422 0000      	.insn	6, 0x042224df
  202a40744e:	0000                	.insn	2, 0x0000
  202a407450:	28df 0422 0000      	.insn	6, 0x042228df
  202a407456:	0000                	.insn	2, 0x0000
  202a407458:	2cdf 0422 0000      	.insn	6, 0x04222cdf
  202a40745e:	0000                	.insn	2, 0x0000
  202a407460:	30df 0422 0000      	.insn	6, 0x042230df
  202a407466:	0000                	.insn	2, 0x0000
  202a407468:	34df 0422 0000      	.insn	6, 0x042234df
  202a40746e:	0000                	.insn	2, 0x0000
  202a407470:	38df 0422 0000      	.insn	6, 0x042238df
  202a407476:	0000                	.insn	2, 0x0000
  202a407478:	3cdf 0422 0000      	.insn	6, 0x04223cdf
  202a40747e:	0000                	.insn	2, 0x0000
  202a407480:	40df 0422 0000      	.insn	6, 0x042240df
  202a407486:	0000                	.insn	2, 0x0000
  202a407488:	44df 0422 0000      	.insn	6, 0x042244df
  202a40748e:	0000                	.insn	2, 0x0000
  202a407490:	48df 0422 0000      	.insn	6, 0x042248df
  202a407496:	0000                	.insn	2, 0x0000
  202a407498:	4cdf 0422 0000      	.insn	6, 0x04224cdf
  202a40749e:	0000                	.insn	2, 0x0000
  202a4074a0:	50df 0422 0000      	.insn	6, 0x042250df
  202a4074a6:	0000                	.insn	2, 0x0000
  202a4074a8:	54df 0422 0000      	.insn	6, 0x042254df
  202a4074ae:	0000                	.insn	2, 0x0000
  202a4074b0:	58df 0422 0000      	.insn	6, 0x042258df
  202a4074b6:	0000                	.insn	2, 0x0000
  202a4074b8:	5cdf 0422 0000      	.insn	6, 0x04225cdf
  202a4074be:	0000                	.insn	2, 0x0000
  202a4074c0:	60df 0422 0000      	.insn	6, 0x042260df
  202a4074c6:	0000                	.insn	2, 0x0000
  202a4074c8:	64df 0422 0000      	.insn	6, 0x042264df
  202a4074ce:	0000                	.insn	2, 0x0000
  202a4074d0:	68df 0422 0000      	.insn	6, 0x042268df
  202a4074d6:	0000                	.insn	2, 0x0000
  202a4074d8:	6cdf 0422 0000      	.insn	6, 0x04226cdf
  202a4074de:	0000                	.insn	2, 0x0000
  202a4074e0:	70df 0422 0000      	.insn	6, 0x042270df
  202a4074e6:	0000                	.insn	2, 0x0000
  202a4074e8:	74df 0422 0000      	.insn	6, 0x042274df
  202a4074ee:	0000                	.insn	2, 0x0000
  202a4074f0:	78df 0422 0000      	.insn	6, 0x042278df
  202a4074f6:	0000                	.insn	2, 0x0000
  202a4074f8:	7cdf 0422 0000      	.insn	6, 0x04227cdf
  202a4074fe:	0000                	.insn	2, 0x0000
  202a407500:	80df 0422 0000      	.insn	6, 0x042280df
  202a407506:	0000                	.insn	2, 0x0000
  202a407508:	84df 0422 0000      	.insn	6, 0x042284df
  202a40750e:	0000                	.insn	2, 0x0000
  202a407510:	88df 0422 0000      	.insn	6, 0x042288df
  202a407516:	0000                	.insn	2, 0x0000
  202a407518:	8cdf 0422 0000      	.insn	6, 0x04228cdf
  202a40751e:	0000                	.insn	2, 0x0000
  202a407520:	90df 0422 0000      	.insn	6, 0x042290df
  202a407526:	0000                	.insn	2, 0x0000
  202a407528:	94df 0422 0000      	.insn	6, 0x042294df
  202a40752e:	0000                	.insn	2, 0x0000
  202a407530:	98df 0422 0000      	.insn	6, 0x042298df
  202a407536:	0000                	.insn	2, 0x0000
  202a407538:	9cdf 0422 0000      	.insn	6, 0x04229cdf
  202a40753e:	0000                	.insn	2, 0x0000
  202a407540:	a0df 0422 0000      	.insn	6, 0x0422a0df
  202a407546:	0000                	.insn	2, 0x0000
  202a407548:	a4df 0422 0000      	.insn	6, 0x0422a4df
  202a40754e:	0000                	.insn	2, 0x0000
  202a407550:	a8df 0422 0000      	.insn	6, 0x0422a8df
  202a407556:	0000                	.insn	2, 0x0000
  202a407558:	acdf 0422 0000      	.insn	6, 0x0422acdf
  202a40755e:	0000                	.insn	2, 0x0000
  202a407560:	b0df 0422 0000      	.insn	6, 0x0422b0df
  202a407566:	0000                	.insn	2, 0x0000
  202a407568:	b4df 0422 0000      	.insn	6, 0x0422b4df
  202a40756e:	0000                	.insn	2, 0x0000
  202a407570:	b8df 0422 0000      	.insn	6, 0x0422b8df
  202a407576:	0000                	.insn	2, 0x0000
  202a407578:	bcdf 0422 0000      	.insn	6, 0x0422bcdf
  202a40757e:	0000                	.insn	2, 0x0000
  202a407580:	c0df 0422 0000      	.insn	6, 0x0422c0df
  202a407586:	0000                	.insn	2, 0x0000
  202a407588:	c4df 0422 0000      	.insn	6, 0x0422c4df
  202a40758e:	0000                	.insn	2, 0x0000
  202a407590:	c8df 0422 0000      	.insn	6, 0x0422c8df
  202a407596:	0000                	.insn	2, 0x0000
  202a407598:	ccdf 0422 0000      	.insn	6, 0x0422ccdf
  202a40759e:	0000                	.insn	2, 0x0000
  202a4075a0:	d0df 0422 0000      	.insn	6, 0x0422d0df
  202a4075a6:	0000                	.insn	2, 0x0000
  202a4075a8:	d4df 0422 0000      	.insn	6, 0x0422d4df
  202a4075ae:	0000                	.insn	2, 0x0000
  202a4075b0:	d8df 0422 0000      	.insn	6, 0x0422d8df
  202a4075b6:	0000                	.insn	2, 0x0000
  202a4075b8:	dcdf 0422 0000      	.insn	6, 0x0422dcdf
  202a4075be:	0000                	.insn	2, 0x0000
  202a4075c0:	e0df 0422 0000      	.insn	6, 0x0422e0df
  202a4075c6:	0000                	.insn	2, 0x0000
  202a4075c8:	e4df 0422 0000      	.insn	6, 0x0422e4df
  202a4075ce:	0000                	.insn	2, 0x0000
  202a4075d0:	e8df 0422 0000      	.insn	6, 0x0422e8df
  202a4075d6:	0000                	.insn	2, 0x0000
  202a4075d8:	ecdf 0422 0000      	.insn	6, 0x0422ecdf
  202a4075de:	0000                	.insn	2, 0x0000
  202a4075e0:	f0df 0422 0000      	.insn	6, 0x0422f0df
  202a4075e6:	0000                	.insn	2, 0x0000
  202a4075e8:	f4df 0422 0000      	.insn	6, 0x0422f4df
  202a4075ee:	0000                	.insn	2, 0x0000
  202a4075f0:	f8df 0422 0000      	.insn	6, 0x0422f8df
  202a4075f6:	0000                	.insn	2, 0x0000
  202a4075f8:	fcdf 0422 0000      	.insn	6, 0x0422fcdf
  202a4075fe:	0000                	.insn	2, 0x0000
  202a407600:	00df 0423 0000      	.insn	6, 0x042300df
  202a407606:	0000                	.insn	2, 0x0000
  202a407608:	04df 0423 0000      	.insn	6, 0x042304df
  202a40760e:	0000                	.insn	2, 0x0000
  202a407610:	08df 0423 0000      	.insn	6, 0x042308df
  202a407616:	0000                	.insn	2, 0x0000
  202a407618:	0cdf 0423 0000      	.insn	6, 0x04230cdf
  202a40761e:	0000                	.insn	2, 0x0000
  202a407620:	10df 0423 0000      	.insn	6, 0x042310df
  202a407626:	0000                	.insn	2, 0x0000
  202a407628:	14df 0423 0000      	.insn	6, 0x042314df
  202a40762e:	0000                	.insn	2, 0x0000
  202a407630:	18df 0423 0000      	.insn	6, 0x042318df
  202a407636:	0000                	.insn	2, 0x0000
  202a407638:	1cdf 0423 0000      	.insn	6, 0x04231cdf
  202a40763e:	0000                	.insn	2, 0x0000
  202a407640:	20df 0423 0000      	.insn	6, 0x042320df
  202a407646:	0000                	.insn	2, 0x0000
  202a407648:	24df 0423 0000      	.insn	6, 0x042324df
  202a40764e:	0000                	.insn	2, 0x0000
  202a407650:	28df 0423 0000      	.insn	6, 0x042328df
  202a407656:	0000                	.insn	2, 0x0000
  202a407658:	2cdf 0423 0000      	.insn	6, 0x04232cdf
  202a40765e:	0000                	.insn	2, 0x0000
  202a407660:	30df 0423 0000      	.insn	6, 0x042330df
  202a407666:	0000                	.insn	2, 0x0000
  202a407668:	34df 0423 0000      	.insn	6, 0x042334df
  202a40766e:	0000                	.insn	2, 0x0000
  202a407670:	38df 0423 0000      	.insn	6, 0x042338df
  202a407676:	0000                	.insn	2, 0x0000
  202a407678:	3cdf 0423 0000      	.insn	6, 0x04233cdf
  202a40767e:	0000                	.insn	2, 0x0000
  202a407680:	40df 0423 0000      	.insn	6, 0x042340df
  202a407686:	0000                	.insn	2, 0x0000
  202a407688:	44df 0423 0000      	.insn	6, 0x042344df
  202a40768e:	0000                	.insn	2, 0x0000
  202a407690:	48df 0423 0000      	.insn	6, 0x042348df
  202a407696:	0000                	.insn	2, 0x0000
  202a407698:	4cdf 0423 0000      	.insn	6, 0x04234cdf
  202a40769e:	0000                	.insn	2, 0x0000
  202a4076a0:	50df 0423 0000      	.insn	6, 0x042350df
  202a4076a6:	0000                	.insn	2, 0x0000
  202a4076a8:	54df 0423 0000      	.insn	6, 0x042354df
  202a4076ae:	0000                	.insn	2, 0x0000
  202a4076b0:	58df 0423 0000      	.insn	6, 0x042358df
  202a4076b6:	0000                	.insn	2, 0x0000
  202a4076b8:	5cdf 0423 0000      	.insn	6, 0x04235cdf
  202a4076be:	0000                	.insn	2, 0x0000
  202a4076c0:	60df 0423 0000      	.insn	6, 0x042360df
  202a4076c6:	0000                	.insn	2, 0x0000
  202a4076c8:	64df 0423 0000      	.insn	6, 0x042364df
  202a4076ce:	0000                	.insn	2, 0x0000
  202a4076d0:	68df 0423 0000      	.insn	6, 0x042368df
  202a4076d6:	0000                	.insn	2, 0x0000
  202a4076d8:	6cdf 0423 0000      	.insn	6, 0x04236cdf
  202a4076de:	0000                	.insn	2, 0x0000
  202a4076e0:	70df 0423 0000      	.insn	6, 0x042370df
  202a4076e6:	0000                	.insn	2, 0x0000
  202a4076e8:	74df 0423 0000      	.insn	6, 0x042374df
  202a4076ee:	0000                	.insn	2, 0x0000
  202a4076f0:	78df 0423 0000      	.insn	6, 0x042378df
  202a4076f6:	0000                	.insn	2, 0x0000
  202a4076f8:	7cdf 0423 0000      	.insn	6, 0x04237cdf
  202a4076fe:	0000                	.insn	2, 0x0000
  202a407700:	80df 0423 0000      	.insn	6, 0x042380df
  202a407706:	0000                	.insn	2, 0x0000
  202a407708:	84df 0423 0000      	.insn	6, 0x042384df
  202a40770e:	0000                	.insn	2, 0x0000
  202a407710:	88df 0423 0000      	.insn	6, 0x042388df
  202a407716:	0000                	.insn	2, 0x0000
  202a407718:	8cdf 0423 0000      	.insn	6, 0x04238cdf
  202a40771e:	0000                	.insn	2, 0x0000
  202a407720:	90df 0423 0000      	.insn	6, 0x042390df
  202a407726:	0000                	.insn	2, 0x0000
  202a407728:	94df 0423 0000      	.insn	6, 0x042394df
  202a40772e:	0000                	.insn	2, 0x0000
  202a407730:	98df 0423 0000      	.insn	6, 0x042398df
  202a407736:	0000                	.insn	2, 0x0000
  202a407738:	9cdf 0423 0000      	.insn	6, 0x04239cdf
  202a40773e:	0000                	.insn	2, 0x0000
  202a407740:	a0df 0423 0000      	.insn	6, 0x0423a0df
  202a407746:	0000                	.insn	2, 0x0000
  202a407748:	a4df 0423 0000      	.insn	6, 0x0423a4df
  202a40774e:	0000                	.insn	2, 0x0000
  202a407750:	a8df 0423 0000      	.insn	6, 0x0423a8df
  202a407756:	0000                	.insn	2, 0x0000
  202a407758:	acdf 0423 0000      	.insn	6, 0x0423acdf
  202a40775e:	0000                	.insn	2, 0x0000
  202a407760:	b0df 0423 0000      	.insn	6, 0x0423b0df
  202a407766:	0000                	.insn	2, 0x0000
  202a407768:	b4df 0423 0000      	.insn	6, 0x0423b4df
  202a40776e:	0000                	.insn	2, 0x0000
  202a407770:	b8df 0423 0000      	.insn	6, 0x0423b8df
  202a407776:	0000                	.insn	2, 0x0000
  202a407778:	bcdf 0423 0000      	.insn	6, 0x0423bcdf
  202a40777e:	0000                	.insn	2, 0x0000
  202a407780:	c0df 0423 0000      	.insn	6, 0x0423c0df
  202a407786:	0000                	.insn	2, 0x0000
  202a407788:	c4df 0423 0000      	.insn	6, 0x0423c4df
  202a40778e:	0000                	.insn	2, 0x0000
  202a407790:	c8df 0423 0000      	.insn	6, 0x0423c8df
  202a407796:	0000                	.insn	2, 0x0000
  202a407798:	ccdf 0423 0000      	.insn	6, 0x0423ccdf
  202a40779e:	0000                	.insn	2, 0x0000
  202a4077a0:	d0df 0423 0000      	.insn	6, 0x0423d0df
  202a4077a6:	0000                	.insn	2, 0x0000
  202a4077a8:	d4df 0423 0000      	.insn	6, 0x0423d4df
  202a4077ae:	0000                	.insn	2, 0x0000
  202a4077b0:	d8df 0423 0000      	.insn	6, 0x0423d8df
  202a4077b6:	0000                	.insn	2, 0x0000
  202a4077b8:	dcdf 0423 0000      	.insn	6, 0x0423dcdf
  202a4077be:	0000                	.insn	2, 0x0000
  202a4077c0:	e0df 0423 0000      	.insn	6, 0x0423e0df
  202a4077c6:	0000                	.insn	2, 0x0000
  202a4077c8:	e4df 0423 0000      	.insn	6, 0x0423e4df
  202a4077ce:	0000                	.insn	2, 0x0000
  202a4077d0:	e8df 0423 0000      	.insn	6, 0x0423e8df
  202a4077d6:	0000                	.insn	2, 0x0000
  202a4077d8:	ecdf 0423 0000      	.insn	6, 0x0423ecdf
  202a4077de:	0000                	.insn	2, 0x0000
  202a4077e0:	f0df 0423 0000      	.insn	6, 0x0423f0df
  202a4077e6:	0000                	.insn	2, 0x0000
  202a4077e8:	f4df 0423 0000      	.insn	6, 0x0423f4df
  202a4077ee:	0000                	.insn	2, 0x0000
  202a4077f0:	f8df 0423 0000      	.insn	6, 0x0423f8df
  202a4077f6:	0000                	.insn	2, 0x0000
  202a4077f8:	fcdf 0423 0000      	.insn	6, 0x0423fcdf
	...

Disassembly of section .__pagetable_map_os_0x000ecd98d6c0b000:

000ecd98d6c0b000 <__pagetable_map_os_0x000ecd98d6c0b000>:
   ecd98d6c0b000:	00df 0820 0000      	.insn	6, 0x082000df
   ecd98d6c0b006:	0000                	.insn	2, 0x0000
   ecd98d6c0b008:	04df 0820 0000      	.insn	6, 0x082004df
   ecd98d6c0b00e:	0000                	.insn	2, 0x0000
   ecd98d6c0b010:	08df 0820 0000      	.insn	6, 0x082008df
   ecd98d6c0b016:	0000                	.insn	2, 0x0000
   ecd98d6c0b018:	0cdf 0820 0000      	.insn	6, 0x08200cdf
   ecd98d6c0b01e:	0000                	.insn	2, 0x0000
   ecd98d6c0b020:	10df 0820 0000      	.insn	6, 0x082010df
   ecd98d6c0b026:	0000                	.insn	2, 0x0000
   ecd98d6c0b028:	14df 0820 0000      	.insn	6, 0x082014df
   ecd98d6c0b02e:	0000                	.insn	2, 0x0000
   ecd98d6c0b030:	18df 0820 0000      	.insn	6, 0x082018df
   ecd98d6c0b036:	0000                	.insn	2, 0x0000
   ecd98d6c0b038:	1cdf 0820 0000      	.insn	6, 0x08201cdf
   ecd98d6c0b03e:	0000                	.insn	2, 0x0000
   ecd98d6c0b040:	20df 0820 0000      	.insn	6, 0x082020df
   ecd98d6c0b046:	0000                	.insn	2, 0x0000
   ecd98d6c0b048:	24df 0820 0000      	.insn	6, 0x082024df
   ecd98d6c0b04e:	0000                	.insn	2, 0x0000
   ecd98d6c0b050:	28df 0820 0000      	.insn	6, 0x082028df
   ecd98d6c0b056:	0000                	.insn	2, 0x0000
   ecd98d6c0b058:	2cdf 0820 0000      	.insn	6, 0x08202cdf
   ecd98d6c0b05e:	0000                	.insn	2, 0x0000
   ecd98d6c0b060:	30df 0820 0000      	.insn	6, 0x082030df
   ecd98d6c0b066:	0000                	.insn	2, 0x0000
   ecd98d6c0b068:	34df 0820 0000      	.insn	6, 0x082034df
   ecd98d6c0b06e:	0000                	.insn	2, 0x0000
   ecd98d6c0b070:	38df 0820 0000      	.insn	6, 0x082038df
   ecd98d6c0b076:	0000                	.insn	2, 0x0000
   ecd98d6c0b078:	3cdf 0820 0000      	.insn	6, 0x08203cdf
   ecd98d6c0b07e:	0000                	.insn	2, 0x0000
   ecd98d6c0b080:	40df 0820 0000      	.insn	6, 0x082040df
   ecd98d6c0b086:	0000                	.insn	2, 0x0000
   ecd98d6c0b088:	44df 0820 0000      	.insn	6, 0x082044df
   ecd98d6c0b08e:	0000                	.insn	2, 0x0000
   ecd98d6c0b090:	48df 0820 0000      	.insn	6, 0x082048df
   ecd98d6c0b096:	0000                	.insn	2, 0x0000
   ecd98d6c0b098:	4cdf 0820 0000      	.insn	6, 0x08204cdf
   ecd98d6c0b09e:	0000                	.insn	2, 0x0000
   ecd98d6c0b0a0:	50df 0820 0000      	.insn	6, 0x082050df
   ecd98d6c0b0a6:	0000                	.insn	2, 0x0000
   ecd98d6c0b0a8:	54df 0820 0000      	.insn	6, 0x082054df
   ecd98d6c0b0ae:	0000                	.insn	2, 0x0000
   ecd98d6c0b0b0:	58df 0820 0000      	.insn	6, 0x082058df
   ecd98d6c0b0b6:	0000                	.insn	2, 0x0000
   ecd98d6c0b0b8:	5cdf 0820 0000      	.insn	6, 0x08205cdf
   ecd98d6c0b0be:	0000                	.insn	2, 0x0000
   ecd98d6c0b0c0:	60df 0820 0000      	.insn	6, 0x082060df
   ecd98d6c0b0c6:	0000                	.insn	2, 0x0000
   ecd98d6c0b0c8:	64df 0820 0000      	.insn	6, 0x082064df
   ecd98d6c0b0ce:	0000                	.insn	2, 0x0000
   ecd98d6c0b0d0:	68df 0820 0000      	.insn	6, 0x082068df
   ecd98d6c0b0d6:	0000                	.insn	2, 0x0000
   ecd98d6c0b0d8:	6cdf 0820 0000      	.insn	6, 0x08206cdf
   ecd98d6c0b0de:	0000                	.insn	2, 0x0000
   ecd98d6c0b0e0:	70df 0820 0000      	.insn	6, 0x082070df
   ecd98d6c0b0e6:	0000                	.insn	2, 0x0000
   ecd98d6c0b0e8:	74df 0820 0000      	.insn	6, 0x082074df
   ecd98d6c0b0ee:	0000                	.insn	2, 0x0000
   ecd98d6c0b0f0:	78df 0820 0000      	.insn	6, 0x082078df
   ecd98d6c0b0f6:	0000                	.insn	2, 0x0000
   ecd98d6c0b0f8:	7cdf 0820 0000      	.insn	6, 0x08207cdf
   ecd98d6c0b0fe:	0000                	.insn	2, 0x0000
   ecd98d6c0b100:	80df 0820 0000      	.insn	6, 0x082080df
   ecd98d6c0b106:	0000                	.insn	2, 0x0000
   ecd98d6c0b108:	84df 0820 0000      	.insn	6, 0x082084df
   ecd98d6c0b10e:	0000                	.insn	2, 0x0000
   ecd98d6c0b110:	88df 0820 0000      	.insn	6, 0x082088df
   ecd98d6c0b116:	0000                	.insn	2, 0x0000
   ecd98d6c0b118:	8cdf 0820 0000      	.insn	6, 0x08208cdf
   ecd98d6c0b11e:	0000                	.insn	2, 0x0000
   ecd98d6c0b120:	90df 0820 0000      	.insn	6, 0x082090df
   ecd98d6c0b126:	0000                	.insn	2, 0x0000
   ecd98d6c0b128:	94df 0820 0000      	.insn	6, 0x082094df
   ecd98d6c0b12e:	0000                	.insn	2, 0x0000
   ecd98d6c0b130:	98df 0820 0000      	.insn	6, 0x082098df
   ecd98d6c0b136:	0000                	.insn	2, 0x0000
   ecd98d6c0b138:	9cdf 0820 0000      	.insn	6, 0x08209cdf
   ecd98d6c0b13e:	0000                	.insn	2, 0x0000
   ecd98d6c0b140:	a0df 0820 0000      	.insn	6, 0x0820a0df
   ecd98d6c0b146:	0000                	.insn	2, 0x0000
   ecd98d6c0b148:	a4df 0820 0000      	.insn	6, 0x0820a4df
   ecd98d6c0b14e:	0000                	.insn	2, 0x0000
   ecd98d6c0b150:	a8df 0820 0000      	.insn	6, 0x0820a8df
   ecd98d6c0b156:	0000                	.insn	2, 0x0000
   ecd98d6c0b158:	acdf 0820 0000      	.insn	6, 0x0820acdf
   ecd98d6c0b15e:	0000                	.insn	2, 0x0000
   ecd98d6c0b160:	b0df 0820 0000      	.insn	6, 0x0820b0df
   ecd98d6c0b166:	0000                	.insn	2, 0x0000
   ecd98d6c0b168:	b4df 0820 0000      	.insn	6, 0x0820b4df
   ecd98d6c0b16e:	0000                	.insn	2, 0x0000
   ecd98d6c0b170:	b8df 0820 0000      	.insn	6, 0x0820b8df
   ecd98d6c0b176:	0000                	.insn	2, 0x0000
   ecd98d6c0b178:	bcdf 0820 0000      	.insn	6, 0x0820bcdf
   ecd98d6c0b17e:	0000                	.insn	2, 0x0000
   ecd98d6c0b180:	c0df 0820 0000      	.insn	6, 0x0820c0df
   ecd98d6c0b186:	0000                	.insn	2, 0x0000
   ecd98d6c0b188:	c4df 0820 0000      	.insn	6, 0x0820c4df
   ecd98d6c0b18e:	0000                	.insn	2, 0x0000
   ecd98d6c0b190:	c8df 0820 0000      	.insn	6, 0x0820c8df
   ecd98d6c0b196:	0000                	.insn	2, 0x0000
   ecd98d6c0b198:	ccdf 0820 0000      	.insn	6, 0x0820ccdf
   ecd98d6c0b19e:	0000                	.insn	2, 0x0000
   ecd98d6c0b1a0:	d0df 0820 0000      	.insn	6, 0x0820d0df
   ecd98d6c0b1a6:	0000                	.insn	2, 0x0000
   ecd98d6c0b1a8:	d4df 0820 0000      	.insn	6, 0x0820d4df
   ecd98d6c0b1ae:	0000                	.insn	2, 0x0000
   ecd98d6c0b1b0:	d8df 0820 0000      	.insn	6, 0x0820d8df
   ecd98d6c0b1b6:	0000                	.insn	2, 0x0000
   ecd98d6c0b1b8:	dcdf 0820 0000      	.insn	6, 0x0820dcdf
   ecd98d6c0b1be:	0000                	.insn	2, 0x0000
   ecd98d6c0b1c0:	e0df 0820 0000      	.insn	6, 0x0820e0df
   ecd98d6c0b1c6:	0000                	.insn	2, 0x0000
   ecd98d6c0b1c8:	e4df 0820 0000      	.insn	6, 0x0820e4df
   ecd98d6c0b1ce:	0000                	.insn	2, 0x0000
   ecd98d6c0b1d0:	e8df 0820 0000      	.insn	6, 0x0820e8df
   ecd98d6c0b1d6:	0000                	.insn	2, 0x0000
   ecd98d6c0b1d8:	ecdf 0820 0000      	.insn	6, 0x0820ecdf
   ecd98d6c0b1de:	0000                	.insn	2, 0x0000
   ecd98d6c0b1e0:	f0df 0820 0000      	.insn	6, 0x0820f0df
   ecd98d6c0b1e6:	0000                	.insn	2, 0x0000
   ecd98d6c0b1e8:	f4df 0820 0000      	.insn	6, 0x0820f4df
   ecd98d6c0b1ee:	0000                	.insn	2, 0x0000
   ecd98d6c0b1f0:	f8df 0820 0000      	.insn	6, 0x0820f8df
   ecd98d6c0b1f6:	0000                	.insn	2, 0x0000
   ecd98d6c0b1f8:	fcdf 0820 0000      	.insn	6, 0x0820fcdf
   ecd98d6c0b1fe:	0000                	.insn	2, 0x0000
   ecd98d6c0b200:	00df 0821 0000      	.insn	6, 0x082100df
   ecd98d6c0b206:	0000                	.insn	2, 0x0000
   ecd98d6c0b208:	04df 0821 0000      	.insn	6, 0x082104df
   ecd98d6c0b20e:	0000                	.insn	2, 0x0000
   ecd98d6c0b210:	08df 0821 0000      	.insn	6, 0x082108df
   ecd98d6c0b216:	0000                	.insn	2, 0x0000
   ecd98d6c0b218:	0cdf 0821 0000      	.insn	6, 0x08210cdf
   ecd98d6c0b21e:	0000                	.insn	2, 0x0000
   ecd98d6c0b220:	10df 0821 0000      	.insn	6, 0x082110df
   ecd98d6c0b226:	0000                	.insn	2, 0x0000
   ecd98d6c0b228:	14df 0821 0000      	.insn	6, 0x082114df
   ecd98d6c0b22e:	0000                	.insn	2, 0x0000
   ecd98d6c0b230:	18df 0821 0000      	.insn	6, 0x082118df
   ecd98d6c0b236:	0000                	.insn	2, 0x0000
   ecd98d6c0b238:	1cdf 0821 0000      	.insn	6, 0x08211cdf
   ecd98d6c0b23e:	0000                	.insn	2, 0x0000
   ecd98d6c0b240:	20df 0821 0000      	.insn	6, 0x082120df
   ecd98d6c0b246:	0000                	.insn	2, 0x0000
   ecd98d6c0b248:	24df 0821 0000      	.insn	6, 0x082124df
   ecd98d6c0b24e:	0000                	.insn	2, 0x0000
   ecd98d6c0b250:	28df 0821 0000      	.insn	6, 0x082128df
   ecd98d6c0b256:	0000                	.insn	2, 0x0000
   ecd98d6c0b258:	2cdf 0821 0000      	.insn	6, 0x08212cdf
   ecd98d6c0b25e:	0000                	.insn	2, 0x0000
   ecd98d6c0b260:	30df 0821 0000      	.insn	6, 0x082130df
   ecd98d6c0b266:	0000                	.insn	2, 0x0000
   ecd98d6c0b268:	34df 0821 0000      	.insn	6, 0x082134df
   ecd98d6c0b26e:	0000                	.insn	2, 0x0000
   ecd98d6c0b270:	38df 0821 0000      	.insn	6, 0x082138df
   ecd98d6c0b276:	0000                	.insn	2, 0x0000
   ecd98d6c0b278:	3cdf 0821 0000      	.insn	6, 0x08213cdf
   ecd98d6c0b27e:	0000                	.insn	2, 0x0000
   ecd98d6c0b280:	40df 0821 0000      	.insn	6, 0x082140df
   ecd98d6c0b286:	0000                	.insn	2, 0x0000
   ecd98d6c0b288:	44df 0821 0000      	.insn	6, 0x082144df
   ecd98d6c0b28e:	0000                	.insn	2, 0x0000
   ecd98d6c0b290:	48df 0821 0000      	.insn	6, 0x082148df
   ecd98d6c0b296:	0000                	.insn	2, 0x0000
   ecd98d6c0b298:	4cdf 0821 0000      	.insn	6, 0x08214cdf
   ecd98d6c0b29e:	0000                	.insn	2, 0x0000
   ecd98d6c0b2a0:	50df 0821 0000      	.insn	6, 0x082150df
   ecd98d6c0b2a6:	0000                	.insn	2, 0x0000
   ecd98d6c0b2a8:	54df 0821 0000      	.insn	6, 0x082154df
   ecd98d6c0b2ae:	0000                	.insn	2, 0x0000
   ecd98d6c0b2b0:	58df 0821 0000      	.insn	6, 0x082158df
   ecd98d6c0b2b6:	0000                	.insn	2, 0x0000
   ecd98d6c0b2b8:	5cdf 0821 0000      	.insn	6, 0x08215cdf
   ecd98d6c0b2be:	0000                	.insn	2, 0x0000
   ecd98d6c0b2c0:	60df 0821 0000      	.insn	6, 0x082160df
   ecd98d6c0b2c6:	0000                	.insn	2, 0x0000
   ecd98d6c0b2c8:	64df 0821 0000      	.insn	6, 0x082164df
   ecd98d6c0b2ce:	0000                	.insn	2, 0x0000
   ecd98d6c0b2d0:	68df 0821 0000      	.insn	6, 0x082168df
   ecd98d6c0b2d6:	0000                	.insn	2, 0x0000
   ecd98d6c0b2d8:	6cdf 0821 0000      	.insn	6, 0x08216cdf
   ecd98d6c0b2de:	0000                	.insn	2, 0x0000
   ecd98d6c0b2e0:	70df 0821 0000      	.insn	6, 0x082170df
   ecd98d6c0b2e6:	0000                	.insn	2, 0x0000
   ecd98d6c0b2e8:	74df 0821 0000      	.insn	6, 0x082174df
   ecd98d6c0b2ee:	0000                	.insn	2, 0x0000
   ecd98d6c0b2f0:	78df 0821 0000      	.insn	6, 0x082178df
   ecd98d6c0b2f6:	0000                	.insn	2, 0x0000
   ecd98d6c0b2f8:	7cdf 0821 0000      	.insn	6, 0x08217cdf
   ecd98d6c0b2fe:	0000                	.insn	2, 0x0000
   ecd98d6c0b300:	80df 0821 0000      	.insn	6, 0x082180df
   ecd98d6c0b306:	0000                	.insn	2, 0x0000
   ecd98d6c0b308:	84df 0821 0000      	.insn	6, 0x082184df
   ecd98d6c0b30e:	0000                	.insn	2, 0x0000
   ecd98d6c0b310:	88df 0821 0000      	.insn	6, 0x082188df
   ecd98d6c0b316:	0000                	.insn	2, 0x0000
   ecd98d6c0b318:	8cdf 0821 0000      	.insn	6, 0x08218cdf
   ecd98d6c0b31e:	0000                	.insn	2, 0x0000
   ecd98d6c0b320:	90df 0821 0000      	.insn	6, 0x082190df
   ecd98d6c0b326:	0000                	.insn	2, 0x0000
   ecd98d6c0b328:	94df 0821 0000      	.insn	6, 0x082194df
   ecd98d6c0b32e:	0000                	.insn	2, 0x0000
   ecd98d6c0b330:	98df 0821 0000      	.insn	6, 0x082198df
   ecd98d6c0b336:	0000                	.insn	2, 0x0000
   ecd98d6c0b338:	9cdf 0821 0000      	.insn	6, 0x08219cdf
   ecd98d6c0b33e:	0000                	.insn	2, 0x0000
   ecd98d6c0b340:	a0df 0821 0000      	.insn	6, 0x0821a0df
   ecd98d6c0b346:	0000                	.insn	2, 0x0000
   ecd98d6c0b348:	a4df 0821 0000      	.insn	6, 0x0821a4df
   ecd98d6c0b34e:	0000                	.insn	2, 0x0000
   ecd98d6c0b350:	a8df 0821 0000      	.insn	6, 0x0821a8df
   ecd98d6c0b356:	0000                	.insn	2, 0x0000
   ecd98d6c0b358:	acdf 0821 0000      	.insn	6, 0x0821acdf
   ecd98d6c0b35e:	0000                	.insn	2, 0x0000
   ecd98d6c0b360:	b0df 0821 0000      	.insn	6, 0x0821b0df
   ecd98d6c0b366:	0000                	.insn	2, 0x0000
   ecd98d6c0b368:	b4df 0821 0000      	.insn	6, 0x0821b4df
   ecd98d6c0b36e:	0000                	.insn	2, 0x0000
   ecd98d6c0b370:	b8df 0821 0000      	.insn	6, 0x0821b8df
   ecd98d6c0b376:	0000                	.insn	2, 0x0000
   ecd98d6c0b378:	bcdf 0821 0000      	.insn	6, 0x0821bcdf
   ecd98d6c0b37e:	0000                	.insn	2, 0x0000
   ecd98d6c0b380:	c0df 0821 0000      	.insn	6, 0x0821c0df
   ecd98d6c0b386:	0000                	.insn	2, 0x0000
   ecd98d6c0b388:	c4df 0821 0000      	.insn	6, 0x0821c4df
   ecd98d6c0b38e:	0000                	.insn	2, 0x0000
   ecd98d6c0b390:	c8df 0821 0000      	.insn	6, 0x0821c8df
   ecd98d6c0b396:	0000                	.insn	2, 0x0000
   ecd98d6c0b398:	ccdf 0821 0000      	.insn	6, 0x0821ccdf
   ecd98d6c0b39e:	0000                	.insn	2, 0x0000
   ecd98d6c0b3a0:	d0df 0821 0000      	.insn	6, 0x0821d0df
   ecd98d6c0b3a6:	0000                	.insn	2, 0x0000
   ecd98d6c0b3a8:	d4df 0821 0000      	.insn	6, 0x0821d4df
   ecd98d6c0b3ae:	0000                	.insn	2, 0x0000
   ecd98d6c0b3b0:	d8df 0821 0000      	.insn	6, 0x0821d8df
   ecd98d6c0b3b6:	0000                	.insn	2, 0x0000
   ecd98d6c0b3b8:	dcdf 0821 0000      	.insn	6, 0x0821dcdf
   ecd98d6c0b3be:	0000                	.insn	2, 0x0000
   ecd98d6c0b3c0:	e0df 0821 0000      	.insn	6, 0x0821e0df
   ecd98d6c0b3c6:	0000                	.insn	2, 0x0000
   ecd98d6c0b3c8:	e4df 0821 0000      	.insn	6, 0x0821e4df
   ecd98d6c0b3ce:	0000                	.insn	2, 0x0000
   ecd98d6c0b3d0:	e8df 0821 0000      	.insn	6, 0x0821e8df
   ecd98d6c0b3d6:	0000                	.insn	2, 0x0000
   ecd98d6c0b3d8:	ecdf 0821 0000      	.insn	6, 0x0821ecdf
   ecd98d6c0b3de:	0000                	.insn	2, 0x0000
   ecd98d6c0b3e0:	f0df 0821 0000      	.insn	6, 0x0821f0df
   ecd98d6c0b3e6:	0000                	.insn	2, 0x0000
   ecd98d6c0b3e8:	f4df 0821 0000      	.insn	6, 0x0821f4df
   ecd98d6c0b3ee:	0000                	.insn	2, 0x0000
   ecd98d6c0b3f0:	f8df 0821 0000      	.insn	6, 0x0821f8df
   ecd98d6c0b3f6:	0000                	.insn	2, 0x0000
   ecd98d6c0b3f8:	fcdf 0821 0000      	.insn	6, 0x0821fcdf
   ecd98d6c0b3fe:	0000                	.insn	2, 0x0000
   ecd98d6c0b400:	00df 0822 0000      	.insn	6, 0x082200df
   ecd98d6c0b406:	0000                	.insn	2, 0x0000
   ecd98d6c0b408:	04df 0822 0000      	.insn	6, 0x082204df
   ecd98d6c0b40e:	0000                	.insn	2, 0x0000
   ecd98d6c0b410:	08df 0822 0000      	.insn	6, 0x082208df
   ecd98d6c0b416:	0000                	.insn	2, 0x0000
   ecd98d6c0b418:	0cdf 0822 0000      	.insn	6, 0x08220cdf
   ecd98d6c0b41e:	0000                	.insn	2, 0x0000
   ecd98d6c0b420:	10df 0822 0000      	.insn	6, 0x082210df
   ecd98d6c0b426:	0000                	.insn	2, 0x0000
   ecd98d6c0b428:	14df 0822 0000      	.insn	6, 0x082214df
   ecd98d6c0b42e:	0000                	.insn	2, 0x0000
   ecd98d6c0b430:	18df 0822 0000      	.insn	6, 0x082218df
   ecd98d6c0b436:	0000                	.insn	2, 0x0000
   ecd98d6c0b438:	1cdf 0822 0000      	.insn	6, 0x08221cdf
   ecd98d6c0b43e:	0000                	.insn	2, 0x0000
   ecd98d6c0b440:	20df 0822 0000      	.insn	6, 0x082220df
   ecd98d6c0b446:	0000                	.insn	2, 0x0000
   ecd98d6c0b448:	24df 0822 0000      	.insn	6, 0x082224df
   ecd98d6c0b44e:	0000                	.insn	2, 0x0000
   ecd98d6c0b450:	28df 0822 0000      	.insn	6, 0x082228df
   ecd98d6c0b456:	0000                	.insn	2, 0x0000
   ecd98d6c0b458:	2cdf 0822 0000      	.insn	6, 0x08222cdf
   ecd98d6c0b45e:	0000                	.insn	2, 0x0000
   ecd98d6c0b460:	30df 0822 0000      	.insn	6, 0x082230df
   ecd98d6c0b466:	0000                	.insn	2, 0x0000
   ecd98d6c0b468:	34df 0822 0000      	.insn	6, 0x082234df
   ecd98d6c0b46e:	0000                	.insn	2, 0x0000
   ecd98d6c0b470:	38df 0822 0000      	.insn	6, 0x082238df
   ecd98d6c0b476:	0000                	.insn	2, 0x0000
   ecd98d6c0b478:	3cdf 0822 0000      	.insn	6, 0x08223cdf
   ecd98d6c0b47e:	0000                	.insn	2, 0x0000
   ecd98d6c0b480:	40df 0822 0000      	.insn	6, 0x082240df
   ecd98d6c0b486:	0000                	.insn	2, 0x0000
   ecd98d6c0b488:	44df 0822 0000      	.insn	6, 0x082244df
   ecd98d6c0b48e:	0000                	.insn	2, 0x0000
   ecd98d6c0b490:	48df 0822 0000      	.insn	6, 0x082248df
   ecd98d6c0b496:	0000                	.insn	2, 0x0000
   ecd98d6c0b498:	4cdf 0822 0000      	.insn	6, 0x08224cdf
   ecd98d6c0b49e:	0000                	.insn	2, 0x0000
   ecd98d6c0b4a0:	50df 0822 0000      	.insn	6, 0x082250df
   ecd98d6c0b4a6:	0000                	.insn	2, 0x0000
   ecd98d6c0b4a8:	54df 0822 0000      	.insn	6, 0x082254df
   ecd98d6c0b4ae:	0000                	.insn	2, 0x0000
   ecd98d6c0b4b0:	58df 0822 0000      	.insn	6, 0x082258df
   ecd98d6c0b4b6:	0000                	.insn	2, 0x0000
   ecd98d6c0b4b8:	5cdf 0822 0000      	.insn	6, 0x08225cdf
   ecd98d6c0b4be:	0000                	.insn	2, 0x0000
   ecd98d6c0b4c0:	60df 0822 0000      	.insn	6, 0x082260df
   ecd98d6c0b4c6:	0000                	.insn	2, 0x0000
   ecd98d6c0b4c8:	64df 0822 0000      	.insn	6, 0x082264df
   ecd98d6c0b4ce:	0000                	.insn	2, 0x0000
   ecd98d6c0b4d0:	68df 0822 0000      	.insn	6, 0x082268df
   ecd98d6c0b4d6:	0000                	.insn	2, 0x0000
   ecd98d6c0b4d8:	6cdf 0822 0000      	.insn	6, 0x08226cdf
   ecd98d6c0b4de:	0000                	.insn	2, 0x0000
   ecd98d6c0b4e0:	70df 0822 0000      	.insn	6, 0x082270df
   ecd98d6c0b4e6:	0000                	.insn	2, 0x0000
   ecd98d6c0b4e8:	74df 0822 0000      	.insn	6, 0x082274df
   ecd98d6c0b4ee:	0000                	.insn	2, 0x0000
   ecd98d6c0b4f0:	78df 0822 0000      	.insn	6, 0x082278df
   ecd98d6c0b4f6:	0000                	.insn	2, 0x0000
   ecd98d6c0b4f8:	7cdf 0822 0000      	.insn	6, 0x08227cdf
   ecd98d6c0b4fe:	0000                	.insn	2, 0x0000
   ecd98d6c0b500:	80df 0822 0000      	.insn	6, 0x082280df
   ecd98d6c0b506:	0000                	.insn	2, 0x0000
   ecd98d6c0b508:	84df 0822 0000      	.insn	6, 0x082284df
   ecd98d6c0b50e:	0000                	.insn	2, 0x0000
   ecd98d6c0b510:	88df 0822 0000      	.insn	6, 0x082288df
   ecd98d6c0b516:	0000                	.insn	2, 0x0000
   ecd98d6c0b518:	8cdf 0822 0000      	.insn	6, 0x08228cdf
   ecd98d6c0b51e:	0000                	.insn	2, 0x0000
   ecd98d6c0b520:	90df 0822 0000      	.insn	6, 0x082290df
   ecd98d6c0b526:	0000                	.insn	2, 0x0000
   ecd98d6c0b528:	94df 0822 0000      	.insn	6, 0x082294df
   ecd98d6c0b52e:	0000                	.insn	2, 0x0000
   ecd98d6c0b530:	98df 0822 0000      	.insn	6, 0x082298df
   ecd98d6c0b536:	0000                	.insn	2, 0x0000
   ecd98d6c0b538:	9cdf 0822 0000      	.insn	6, 0x08229cdf
   ecd98d6c0b53e:	0000                	.insn	2, 0x0000
   ecd98d6c0b540:	a0df 0822 0000      	.insn	6, 0x0822a0df
   ecd98d6c0b546:	0000                	.insn	2, 0x0000
   ecd98d6c0b548:	a4df 0822 0000      	.insn	6, 0x0822a4df
   ecd98d6c0b54e:	0000                	.insn	2, 0x0000
   ecd98d6c0b550:	a8df 0822 0000      	.insn	6, 0x0822a8df
   ecd98d6c0b556:	0000                	.insn	2, 0x0000
   ecd98d6c0b558:	acdf 0822 0000      	.insn	6, 0x0822acdf
   ecd98d6c0b55e:	0000                	.insn	2, 0x0000
   ecd98d6c0b560:	b0df 0822 0000      	.insn	6, 0x0822b0df
   ecd98d6c0b566:	0000                	.insn	2, 0x0000
   ecd98d6c0b568:	b4df 0822 0000      	.insn	6, 0x0822b4df
   ecd98d6c0b56e:	0000                	.insn	2, 0x0000
   ecd98d6c0b570:	b8df 0822 0000      	.insn	6, 0x0822b8df
   ecd98d6c0b576:	0000                	.insn	2, 0x0000
   ecd98d6c0b578:	bcdf 0822 0000      	.insn	6, 0x0822bcdf
   ecd98d6c0b57e:	0000                	.insn	2, 0x0000
   ecd98d6c0b580:	c0df 0822 0000      	.insn	6, 0x0822c0df
   ecd98d6c0b586:	0000                	.insn	2, 0x0000
   ecd98d6c0b588:	c4df 0822 0000      	.insn	6, 0x0822c4df
   ecd98d6c0b58e:	0000                	.insn	2, 0x0000
   ecd98d6c0b590:	c8df 0822 0000      	.insn	6, 0x0822c8df
   ecd98d6c0b596:	0000                	.insn	2, 0x0000
   ecd98d6c0b598:	ccdf 0822 0000      	.insn	6, 0x0822ccdf
   ecd98d6c0b59e:	0000                	.insn	2, 0x0000
   ecd98d6c0b5a0:	d0df 0822 0000      	.insn	6, 0x0822d0df
   ecd98d6c0b5a6:	0000                	.insn	2, 0x0000
   ecd98d6c0b5a8:	d4df 0822 0000      	.insn	6, 0x0822d4df
   ecd98d6c0b5ae:	0000                	.insn	2, 0x0000
   ecd98d6c0b5b0:	d8df 0822 0000      	.insn	6, 0x0822d8df
   ecd98d6c0b5b6:	0000                	.insn	2, 0x0000
   ecd98d6c0b5b8:	dcdf 0822 0000      	.insn	6, 0x0822dcdf
   ecd98d6c0b5be:	0000                	.insn	2, 0x0000
   ecd98d6c0b5c0:	e0df 0822 0000      	.insn	6, 0x0822e0df
   ecd98d6c0b5c6:	0000                	.insn	2, 0x0000
   ecd98d6c0b5c8:	e4df 0822 0000      	.insn	6, 0x0822e4df
   ecd98d6c0b5ce:	0000                	.insn	2, 0x0000
   ecd98d6c0b5d0:	e8df 0822 0000      	.insn	6, 0x0822e8df
   ecd98d6c0b5d6:	0000                	.insn	2, 0x0000
   ecd98d6c0b5d8:	ecdf 0822 0000      	.insn	6, 0x0822ecdf
   ecd98d6c0b5de:	0000                	.insn	2, 0x0000
   ecd98d6c0b5e0:	f0df 0822 0000      	.insn	6, 0x0822f0df
   ecd98d6c0b5e6:	0000                	.insn	2, 0x0000
   ecd98d6c0b5e8:	f4df 0822 0000      	.insn	6, 0x0822f4df
   ecd98d6c0b5ee:	0000                	.insn	2, 0x0000
   ecd98d6c0b5f0:	f8df 0822 0000      	.insn	6, 0x0822f8df
   ecd98d6c0b5f6:	0000                	.insn	2, 0x0000
   ecd98d6c0b5f8:	fcdf 0822 0000      	.insn	6, 0x0822fcdf
   ecd98d6c0b5fe:	0000                	.insn	2, 0x0000
   ecd98d6c0b600:	00df 0823 0000      	.insn	6, 0x082300df
   ecd98d6c0b606:	0000                	.insn	2, 0x0000
   ecd98d6c0b608:	04df 0823 0000      	.insn	6, 0x082304df
   ecd98d6c0b60e:	0000                	.insn	2, 0x0000
   ecd98d6c0b610:	08df 0823 0000      	.insn	6, 0x082308df
   ecd98d6c0b616:	0000                	.insn	2, 0x0000
   ecd98d6c0b618:	0cdf 0823 0000      	.insn	6, 0x08230cdf
   ecd98d6c0b61e:	0000                	.insn	2, 0x0000
   ecd98d6c0b620:	10df 0823 0000      	.insn	6, 0x082310df
   ecd98d6c0b626:	0000                	.insn	2, 0x0000
   ecd98d6c0b628:	14df 0823 0000      	.insn	6, 0x082314df
   ecd98d6c0b62e:	0000                	.insn	2, 0x0000
   ecd98d6c0b630:	18df 0823 0000      	.insn	6, 0x082318df
   ecd98d6c0b636:	0000                	.insn	2, 0x0000
   ecd98d6c0b638:	1cdf 0823 0000      	.insn	6, 0x08231cdf
   ecd98d6c0b63e:	0000                	.insn	2, 0x0000
   ecd98d6c0b640:	20df 0823 0000      	.insn	6, 0x082320df
   ecd98d6c0b646:	0000                	.insn	2, 0x0000
   ecd98d6c0b648:	24df 0823 0000      	.insn	6, 0x082324df
   ecd98d6c0b64e:	0000                	.insn	2, 0x0000
   ecd98d6c0b650:	28df 0823 0000      	.insn	6, 0x082328df
   ecd98d6c0b656:	0000                	.insn	2, 0x0000
   ecd98d6c0b658:	2cdf 0823 0000      	.insn	6, 0x08232cdf
   ecd98d6c0b65e:	0000                	.insn	2, 0x0000
   ecd98d6c0b660:	30df 0823 0000      	.insn	6, 0x082330df
   ecd98d6c0b666:	0000                	.insn	2, 0x0000
   ecd98d6c0b668:	34df 0823 0000      	.insn	6, 0x082334df
   ecd98d6c0b66e:	0000                	.insn	2, 0x0000
   ecd98d6c0b670:	38df 0823 0000      	.insn	6, 0x082338df
   ecd98d6c0b676:	0000                	.insn	2, 0x0000
   ecd98d6c0b678:	3cdf 0823 0000      	.insn	6, 0x08233cdf
   ecd98d6c0b67e:	0000                	.insn	2, 0x0000
   ecd98d6c0b680:	40df 0823 0000      	.insn	6, 0x082340df
   ecd98d6c0b686:	0000                	.insn	2, 0x0000
   ecd98d6c0b688:	44df 0823 0000      	.insn	6, 0x082344df
   ecd98d6c0b68e:	0000                	.insn	2, 0x0000
   ecd98d6c0b690:	48df 0823 0000      	.insn	6, 0x082348df
   ecd98d6c0b696:	0000                	.insn	2, 0x0000
   ecd98d6c0b698:	4cdf 0823 0000      	.insn	6, 0x08234cdf
   ecd98d6c0b69e:	0000                	.insn	2, 0x0000
   ecd98d6c0b6a0:	50df 0823 0000      	.insn	6, 0x082350df
   ecd98d6c0b6a6:	0000                	.insn	2, 0x0000
   ecd98d6c0b6a8:	54df 0823 0000      	.insn	6, 0x082354df
   ecd98d6c0b6ae:	0000                	.insn	2, 0x0000
   ecd98d6c0b6b0:	58df 0823 0000      	.insn	6, 0x082358df
   ecd98d6c0b6b6:	0000                	.insn	2, 0x0000
   ecd98d6c0b6b8:	5cdf 0823 0000      	.insn	6, 0x08235cdf
   ecd98d6c0b6be:	0000                	.insn	2, 0x0000
   ecd98d6c0b6c0:	60df 0823 0000      	.insn	6, 0x082360df
   ecd98d6c0b6c6:	0000                	.insn	2, 0x0000
   ecd98d6c0b6c8:	64df 0823 0000      	.insn	6, 0x082364df
   ecd98d6c0b6ce:	0000                	.insn	2, 0x0000
   ecd98d6c0b6d0:	68df 0823 0000      	.insn	6, 0x082368df
   ecd98d6c0b6d6:	0000                	.insn	2, 0x0000
   ecd98d6c0b6d8:	6cdf 0823 0000      	.insn	6, 0x08236cdf
   ecd98d6c0b6de:	0000                	.insn	2, 0x0000
   ecd98d6c0b6e0:	70df 0823 0000      	.insn	6, 0x082370df
   ecd98d6c0b6e6:	0000                	.insn	2, 0x0000
   ecd98d6c0b6e8:	74df 0823 0000      	.insn	6, 0x082374df
   ecd98d6c0b6ee:	0000                	.insn	2, 0x0000
   ecd98d6c0b6f0:	78df 0823 0000      	.insn	6, 0x082378df
   ecd98d6c0b6f6:	0000                	.insn	2, 0x0000
   ecd98d6c0b6f8:	7cdf 0823 0000      	.insn	6, 0x08237cdf
   ecd98d6c0b6fe:	0000                	.insn	2, 0x0000
   ecd98d6c0b700:	80df 0823 0000      	.insn	6, 0x082380df
   ecd98d6c0b706:	0000                	.insn	2, 0x0000
   ecd98d6c0b708:	84df 0823 0000      	.insn	6, 0x082384df
   ecd98d6c0b70e:	0000                	.insn	2, 0x0000
   ecd98d6c0b710:	88df 0823 0000      	.insn	6, 0x082388df
   ecd98d6c0b716:	0000                	.insn	2, 0x0000
   ecd98d6c0b718:	8cdf 0823 0000      	.insn	6, 0x08238cdf
   ecd98d6c0b71e:	0000                	.insn	2, 0x0000
   ecd98d6c0b720:	90df 0823 0000      	.insn	6, 0x082390df
   ecd98d6c0b726:	0000                	.insn	2, 0x0000
   ecd98d6c0b728:	94df 0823 0000      	.insn	6, 0x082394df
   ecd98d6c0b72e:	0000                	.insn	2, 0x0000
   ecd98d6c0b730:	98df 0823 0000      	.insn	6, 0x082398df
   ecd98d6c0b736:	0000                	.insn	2, 0x0000
   ecd98d6c0b738:	9cdf 0823 0000      	.insn	6, 0x08239cdf
   ecd98d6c0b73e:	0000                	.insn	2, 0x0000
   ecd98d6c0b740:	a0df 0823 0000      	.insn	6, 0x0823a0df
   ecd98d6c0b746:	0000                	.insn	2, 0x0000
   ecd98d6c0b748:	a4df 0823 0000      	.insn	6, 0x0823a4df
   ecd98d6c0b74e:	0000                	.insn	2, 0x0000
   ecd98d6c0b750:	a8df 0823 0000      	.insn	6, 0x0823a8df
   ecd98d6c0b756:	0000                	.insn	2, 0x0000
   ecd98d6c0b758:	acdf 0823 0000      	.insn	6, 0x0823acdf
   ecd98d6c0b75e:	0000                	.insn	2, 0x0000
   ecd98d6c0b760:	b0df 0823 0000      	.insn	6, 0x0823b0df
   ecd98d6c0b766:	0000                	.insn	2, 0x0000
   ecd98d6c0b768:	b4df 0823 0000      	.insn	6, 0x0823b4df
   ecd98d6c0b76e:	0000                	.insn	2, 0x0000
   ecd98d6c0b770:	b8df 0823 0000      	.insn	6, 0x0823b8df
   ecd98d6c0b776:	0000                	.insn	2, 0x0000
   ecd98d6c0b778:	bcdf 0823 0000      	.insn	6, 0x0823bcdf
   ecd98d6c0b77e:	0000                	.insn	2, 0x0000
   ecd98d6c0b780:	c0df 0823 0000      	.insn	6, 0x0823c0df
   ecd98d6c0b786:	0000                	.insn	2, 0x0000
   ecd98d6c0b788:	c4df 0823 0000      	.insn	6, 0x0823c4df
   ecd98d6c0b78e:	0000                	.insn	2, 0x0000
   ecd98d6c0b790:	c8df 0823 0000      	.insn	6, 0x0823c8df
   ecd98d6c0b796:	0000                	.insn	2, 0x0000
   ecd98d6c0b798:	ccdf 0823 0000      	.insn	6, 0x0823ccdf
   ecd98d6c0b79e:	0000                	.insn	2, 0x0000
   ecd98d6c0b7a0:	d0df 0823 0000      	.insn	6, 0x0823d0df
   ecd98d6c0b7a6:	0000                	.insn	2, 0x0000
   ecd98d6c0b7a8:	d4df 0823 0000      	.insn	6, 0x0823d4df
   ecd98d6c0b7ae:	0000                	.insn	2, 0x0000
   ecd98d6c0b7b0:	d8df 0823 0000      	.insn	6, 0x0823d8df
   ecd98d6c0b7b6:	0000                	.insn	2, 0x0000
   ecd98d6c0b7b8:	dcdf 0823 0000      	.insn	6, 0x0823dcdf
   ecd98d6c0b7be:	0000                	.insn	2, 0x0000
   ecd98d6c0b7c0:	e0df 0823 0000      	.insn	6, 0x0823e0df
   ecd98d6c0b7c6:	0000                	.insn	2, 0x0000
   ecd98d6c0b7c8:	e4df 0823 0000      	.insn	6, 0x0823e4df
   ecd98d6c0b7ce:	0000                	.insn	2, 0x0000
   ecd98d6c0b7d0:	e8df 0823 0000      	.insn	6, 0x0823e8df
   ecd98d6c0b7d6:	0000                	.insn	2, 0x0000
   ecd98d6c0b7d8:	ecdf 0823 0000      	.insn	6, 0x0823ecdf
   ecd98d6c0b7de:	0000                	.insn	2, 0x0000
   ecd98d6c0b7e0:	f0df 0823 0000      	.insn	6, 0x0823f0df
   ecd98d6c0b7e6:	0000                	.insn	2, 0x0000
   ecd98d6c0b7e8:	f4df 0823 0000      	.insn	6, 0x0823f4df
   ecd98d6c0b7ee:	0000                	.insn	2, 0x0000
   ecd98d6c0b7f0:	f8df 0823 0000      	.insn	6, 0x0823f8df
   ecd98d6c0b7f6:	0000                	.insn	2, 0x0000
   ecd98d6c0b7f8:	fcdf 0823 0000      	.insn	6, 0x0823fcdf
	...

Disassembly of section .__pagetable_map_os_0x00000003b6cdf000:

00000003b6cdf000 <__pagetable_map_os_0x00000003b6cdf000>:
	...
   3b6cdf3b8:	c1b3c8d7          	.insn	4, 0xc1b3c8d7
   3b6cdf3bc:	01c8                	.insn	2, 0x01c8
	...
   3b6cdfbae:	0000                	.insn	2, 0x0000
   3b6cdfbb0:	3db098d7          	.insn	4, 0x3db098d7
   3b6cdfbb4:	0000                	.insn	2, 0x0000
	...

Disassembly of section .__pagetable_map_os_0x000009c2e7bc8000:

000009c2e7bc8000 <__pagetable_map_os_0x000009c2e7bc8000>:
	...
 9c2e7bc8060:	615098d7          	vmfeq.vv	v17,v21,v1,v0.t
 9c2e7bc8064:	0248                	.insn	2, 0x0248
	...
 9c2e7bc807e:	0000                	.insn	2, 0x0000
 9c2e7bc8080:	b2cae0d7          	.insn	4, 0xb2cae0d7
 9c2e7bc8084:	07ec                	.insn	2, 0x07ec
	...

Disassembly of section .__pagetable_map_os_0x00000739bcb19000:

00000739bcb19000 <__pagetable_map_os_0x00000739bcb19000>:
	...
 739bcb19420:	541e94d3          	.insn	4, 0x541e94d3
 739bcb19424:	4a15                	.insn	2, 0x4a15
	...
 739bcb19d9e:	0000                	.insn	2, 0x0000
 739bcb19da0:	3d7624d7          	.insn	4, 0x3d7624d7
 739bcb19da4:	0000                	.insn	2, 0x0000
	...

Disassembly of section .__pagetable_map_os_0x00000002fde0d000:

00000002fde0d000 <__pagetable_map_os_0x00000002fde0d000>:
	...
   2fde0d770:	3801                	.insn	2, 0x3801
   2fde0d772:	9ac1                	.insn	2, 0x9ac1
   2fde0d774:	d65c                	.insn	2, 0xd65c
   2fde0d776:	0001                	.insn	2, 0x0001

Disassembly of section .__pagetable_map_os_0x000759726b04e000:

000759726b04e000 <__pagetable_map_os_0x000759726b04e000>:
	...
   759726b04e808:	d0df 3d29 0017      	.insn	6, 0x00173d29d0df
	...

Disassembly of section .__pagetable_map_os_0x00006663aff53000:

00006663aff53000 <__pagetable_map_os_0x00006663aff53000>:
	...
    6663aff53528:	1c01                	.insn	2, 0x1c01
    6663aff5352a:	1ea1                	.insn	2, 0x1ea1
    6663aff5352c:	0001                	.insn	2, 0x0001
	...

Disassembly of section .__pagetable_map_os_0x000000047a847000:

000000047a847000 <__pagetable_map_os_0x000000047a847000>:
	...
   47a847360:	10c0f4d7          	vsetvli	x9,x1,268
   47a847364:	0001                	.insn	2, 0x0001
	...

Disassembly of section .__pagetable_map_os_0x00001fb4910d3000:

00001fb4910d3000 <__pagetable_map_os_0x00001fb4910d3000>:
	...
    1fb4910d3ba0:	dc01                	.insn	2, 0xdc01
    1fb4910d3ba2:	0974e217          	auipc	x4,0x974e
	...

Disassembly of section .__pagetable_map_os_0x000025d3885f7000:

000025d3885f7000 <__pagetable_map_os_0x000025d3885f7000>:
	...
    25d3885f7950:	9889f8d7          	.insn	4, 0x9889f8d7
    25d3885f7954:	00000003          	lb	x0,0(x0) # 0 <ALL_4KB_PAGES>

Disassembly of section .__pagetable_map_os_0x0000004937031000:

0000004937031000 <__pagetable_map_os_0x0000004937031000>:
	...
  4937031ea0:	1401                	.insn	2, 0x1401
  4937031ea2:	3d84                	.insn	2, 0x3d84
  4937031ea4:	0000                	.insn	2, 0x0000
	...

Disassembly of section .__pagetable_map_os_0x00000000f6105000:

00000000f6105000 <__pagetable_map_os_0x00000000f6105000>:
	...
    f6105d30:	6cdf a12c 003e      	.insn	6, 0x003ea12c6cdf
	...
    f6105d3e:	0000                	.insn	2, 0x0000
    f6105d40:	f2a74cd7          	.insn	4, 0xf2a74cd7
    f6105d44:	db26                	.insn	2, 0xdb26
	...

Disassembly of section .__pagetable_map_os_0x00000020189d9000:

00000020189d9000 <__pagetable_map_os_0x00000020189d9000>:
	...
  20189d9af0:	b401                	.insn	2, 0xb401
  20189d9af2:	45c0                	.insn	2, 0x45c0
  20189d9af4:	0024                	.insn	2, 0x0024
	...

Disassembly of section .__pagetable_map_os_0x000000911702d000:

000000911702d000 <__pagetable_map_os_0x000000911702d000>:
	...
  911702dbc8:	3ab568d7          	vslide1up.vx	v17,v11,x10
  911702dbcc:	78d1                	.insn	2, 0x78d1
  911702dbce:	0003                	.short	0x0003

Disassembly of section .__pagetable_map_os_0x000000036c5c8000:

000000036c5c8000 <__pagetable_map_os_0x000000036c5c8000>:
	...
   36c5c8680:	c801                	.insn	2, 0xc801
   36c5c8682:	0080267b          	.insn	4, 0x0080267b
	...

Disassembly of section .__pagetable_map_os_0x0000020099ef2000:

0000020099ef2000 <__pagetable_map_os_0x0000020099ef2000>:
	...
 20099ef2ed8:	ae4ba8d7          	vnmsub.vv	v17,v23,v4
 20099ef2edc:	0000023f          	.word	0x0000023f

Disassembly of section .__pagetable_map_os_0x00000161cfb37000:

00000161cfb37000 <__pagetable_map_os_0x00000161cfb37000>:
	...
 161cfb37f20:	cc01                	.insn	2, 0xcc01
 161cfb37f22:	0a05                	.insn	2, 0x0a05
 161cfb37f24:	000178e3          	bgeu	x2,x0,161cfb38734 <__pagetable_map_os_0x00000161cfb37000+0x1734>

Disassembly of section .__pagetable_map_os_0x0005e38c28173000:

0005e38c28173000 <__pagetable_map_os_0x0005e38c28173000>:
	...
   5e38c28173200:	3001                	.insn	2, 0x3001
   5e38c28173202:	35b0                	.insn	2, 0x35b0
   5e38c28173204:	b366                	.insn	2, 0xb366
   5e38c28173206:	0003                	.short	0x0003

Disassembly of section .__pagetable_map_os_0x000ecd98d6c0c000:

000ecd98d6c0c000 <__pagetable_map_os_0x000ecd98d6c0c000>:
	...
   ecd98d6c0c9f0:	f0df c00b 0569      	.insn	6, 0x0569c00bf0df
   ecd98d6c0c9f6:	0001                	.insn	2, 0x0001
   ecd98d6c0c9f8:	f4df c00b 0569      	.insn	6, 0x0569c00bf4df
   ecd98d6c0c9fe:	0001                	.insn	2, 0x0001

Disassembly of section .__pagetable_map_os_0x00024938530dd000:

00024938530dd000 <__pagetable_map_os_0x00024938530dd000>:
	...
   24938530dd438:	8401                	.insn	2, 0x8401
   24938530dd43a:	0008012f          	.insn	4, 0x0008012f
	...

Disassembly of section .__pagetable_map_os_0x0000002004be1000:

0000002004be1000 <__pagetable_map_os_0x0000002004be1000>:
	...
  2004be10f8:	2c01                	.insn	2, 0x2c01
  2004be10fa:	226e                	.insn	2, 0x226e
  2004be10fc:	0014                	.insn	2, 0x0014
	...

Disassembly of section .__pagetable_map_os_0x0000005089b8b000:

0000005089b8b000 <__pagetable_map_os_0x0000005089b8b000>:
	...
  5089b8ba10:	08df 70fd 7068      	.insn	6, 0x706870fd08df
  5089b8ba16:	0003                	.short	0x0003

Disassembly of section .__pagetable_map_os_0x00000a96d6517000:

00000a96d6517000 <__pagetable_map_os_0x00000a96d6517000>:
	...
 a96d6517c10:	b401                	.insn	2, 0xb401
 a96d6517c12:	2c86                	.insn	2, 0x2c86
 a96d6517c14:	0004                	.insn	2, 0x0004
	...

Disassembly of section .__pagetable_map_os_0x00000010b21ad000:

00000010b21ad000 <__pagetable_map_os_0x00000010b21ad000>:
	...
  10b21ad080:	c001                	.insn	2, 0xc001
  10b21ad082:	00041cbb          	sllw	x25,x8,x0
	...

Disassembly of section .__pagetable_map_os_0x0000001072ef0000:

0000001072ef0000 <__pagetable_map_os_0x0000001072ef0000>:
	...
  1072ef0cd8:	3da938d7          	vslidedown.vi	v17,v26,18,v0.t
  1072ef0cdc:	0000                	.insn	2, 0x0000
	...

Disassembly of section .__pagetable_map_os_0x00000204a6612000:

00000204a6612000 <__pagetable_map_os_0x00000204a6612000>:
	...
 204a6612ab8:	c001                	.insn	2, 0xc001
 204a6612aba:	2049                	.insn	2, 0x2049
 204a6612abc:	00000003          	lb	x0,0(x0) # 0 <ALL_4KB_PAGES>

Disassembly of section .__pagetable_map_os_0x0000000c81270000:

0000000c81270000 <__pagetable_map_os_0x0000000c81270000>:
	...
   c81270a80:	3001                	.insn	2, 0x3001
   c81270a82:	3c65aa5b          	.insn	4, 0x3c65aa5b
	...

Disassembly of section .__pagetable_map_os_0x0000f196a96cc000:

0000f196a96cc000 <__pagetable_map_os_0x0000f196a96cc000>:
	...
    f196a96ccc88:	d741e0d7          	vwadd.wx	v1,v20,x3
    f196a96ccc8c:	00000013          	nop
