
/home/abdullah/RiescueC/riescue/10x_R/za64rs/testsuite/za64rs/user_sv48/tp_za64rs_1:     file format elf64-littleriscv


Disassembly of section .runtime:

0000000041000000 <_start>:
    41000000:	00000093          	li	x1,0
    41000004:	00000113          	li	x2,0
    41000008:	00000193          	li	x3,0
    4100000c:	00000213          	li	x4,0
    41000010:	00000293          	li	x5,0
    41000014:	00000313          	li	x6,0
    41000018:	00000393          	li	x7,0
    4100001c:	00000413          	li	x8,0
    41000020:	00000493          	li	x9,0
    41000024:	00000513          	li	x10,0
    41000028:	00000593          	li	x11,0
    4100002c:	00000613          	li	x12,0
    41000030:	00000693          	li	x13,0
    41000034:	00000713          	li	x14,0
    41000038:	00000793          	li	x15,0
    4100003c:	00000813          	li	x16,0
    41000040:	00000893          	li	x17,0
    41000044:	00000913          	li	x18,0
    41000048:	00000993          	li	x19,0
    4100004c:	00000a13          	li	x20,0
    41000050:	00000a93          	li	x21,0
    41000054:	00000b13          	li	x22,0
    41000058:	00000b93          	li	x23,0
    4100005c:	00000c13          	li	x24,0
    41000060:	00000c93          	li	x25,0
    41000064:	00000d13          	li	x26,0
    41000068:	00000d93          	li	x27,0
    4100006c:	00000e13          	li	x28,0
    41000070:	00000e93          	li	x29,0
    41000074:	00000f13          	li	x30,0
    41000078:	00000f93          	li	x31,0

000000004100007c <loader__load_panic_address>:
    4100007c:	00001297          	auipc	x5,0x1
    41000080:	9e828293          	addi	x5,x5,-1560 # 41000a64 <eot__failed>
    41000084:	30529073          	csrw	mtvec,x5

0000000041000088 <loader__initialize_runtime>:
    41000088:	00000293          	li	x5,0
    4100008c:	3012a2f3          	csrrs	x5,misa,x5

0000000041000090 <loader__set_mstatus>:
    41000090:	000402b7          	lui	x5,0x40
    41000094:	00a2829b          	addiw	x5,x5,10 # 4000a <pma_region_0_size+0xa>
    41000098:	3002a2f3          	csrrs	x5,mstatus,x5
    4100009c:	43694237          	lui	x4,0x43694
    410000a0:	34021073          	csrw	mscratch,x4

00000000410000a4 <loader__setup_menvcfg>:
    410000a4:	00000297          	auipc	x5,0x0
    410000a8:	4a828293          	addi	x5,x5,1192 # 4100054c <trap_handler_m__trap_entry>
    410000ac:	30529073          	csrw	mtvec,x5

00000000410000b0 <loader__enable_paging>:
    410000b0:	fff900b7          	lui	x1,0xfff90
    410000b4:	1fb0809b          	addiw	x1,x1,507 # fffffffffff901fb <__section_data_1+0xffffa0518b8571fb>
    410000b8:	01e09093          	slli	x1,x1,0x1e
    410000bc:	01108093          	addi	x1,x1,17
    410000c0:	00e09093          	slli	x1,x1,0xe
    410000c4:	69a08093          	addi	x1,x1,1690
    410000c8:	18009073          	csrw	satp,x1

00000000410000cc <loader__done>:
    410000cc:	1c10006f          	j	41000a8c <scheduler__init>

00000000410000d0 <loader__panic>:
    410000d0:	1950006f          	j	41000a64 <eot__failed>

00000000410000d4 <syscalls__syscall_check_schedule_next_test>:
    410000d4:	00f0029b          	addiw	x5,x0,15
    410000d8:	01c29293          	slli	x5,x5,0x1c
    410000dc:	00128293          	addi	x5,x5,1
    410000e0:	01f29a63          	bne	x5,x31,410000f4 <syscalls__syscall_check_fail_test>
    410000e4:	00000317          	auipc	x6,0x0
    410000e8:	46830313          	addi	x6,x6,1128 # 4100054c <trap_handler_m__trap_entry>
    410000ec:	30531073          	csrw	mtvec,x6
    410000f0:	6a00006f          	j	41000790 <enter_scheduler>

00000000410000f4 <syscalls__syscall_check_fail_test>:
    410000f4:	00f0029b          	addiw	x5,x0,15
    410000f8:	01c29293          	slli	x5,x5,0x1c
    410000fc:	00228293          	addi	x5,x5,2
    41000100:	01f29a63          	bne	x5,x31,41000114 <syscalls__syscall_check_end_test_without_failure>
    41000104:	00000317          	auipc	x6,0x0
    41000108:	44830313          	addi	x6,x6,1096 # 4100054c <trap_handler_m__trap_entry>
    4100010c:	30531073          	csrw	mtvec,x6
    41000110:	6b00006f          	j	410007c0 <test_failed>

0000000041000114 <syscalls__syscall_check_end_test_without_failure>:
    41000114:	00f0029b          	addiw	x5,x0,15
    41000118:	01c29293          	slli	x5,x5,0x1c
    4100011c:	00328293          	addi	x5,x5,3
    41000120:	01f29a63          	bne	x5,x31,41000134 <syscalls__syscall_check_switch_machine_mode>
    41000124:	00000317          	auipc	x6,0x0
    41000128:	42830313          	addi	x6,x6,1064 # 4100054c <trap_handler_m__trap_entry>
    4100012c:	30531073          	csrw	mtvec,x6
    41000130:	69c0006f          	j	410007cc <os_end_test>

0000000041000134 <syscalls__syscall_check_switch_machine_mode>:
    41000134:	000f02b7          	lui	x5,0xf0
    41000138:	0012829b          	addiw	x5,x5,1 # f0001 <SID_ZA64RS_03_lrd_scw_stack+0x5f001>
    4100013c:	00c29293          	slli	x5,x5,0xc
    41000140:	00128293          	addi	x5,x5,1
    41000144:	0a5f8463          	beq	x31,x5,410001ec <syscalls__os_fn_f0001001>

0000000041000148 <syscalls__syscall_check_switch_super_mode>:
    41000148:	000f02b7          	lui	x5,0xf0
    4100014c:	0012829b          	addiw	x5,x5,1 # f0001 <SID_ZA64RS_03_lrd_scw_stack+0x5f001>
    41000150:	00c29293          	slli	x5,x5,0xc
    41000154:	00228293          	addi	x5,x5,2
    41000158:	0c5f8063          	beq	x31,x5,41000218 <syscalls__os_fn_f0001002>

000000004100015c <syscalls__syscall_check_switch_user_mode>:
    4100015c:	000f02b7          	lui	x5,0xf0
    41000160:	0012829b          	addiw	x5,x5,1 # f0001 <SID_ZA64RS_03_lrd_scw_stack+0x5f001>
    41000164:	00c29293          	slli	x5,x5,0xc
    41000168:	00328293          	addi	x5,x5,3
    4100016c:	0c5f8e63          	beq	x31,x5,41000248 <syscalls__os_fn_f0001003>

0000000041000170 <syscalls__syscall_check_switch_test_mode>:
    41000170:	000f02b7          	lui	x5,0xf0
    41000174:	0012829b          	addiw	x5,x5,1 # f0001 <SID_ZA64RS_03_lrd_scw_stack+0x5f001>
    41000178:	00c29293          	slli	x5,x5,0xc
    4100017c:	00428293          	addi	x5,x5,4
    41000180:	0c5f8863          	beq	x31,x5,41000250 <syscalls__os_fn_f0001004>

0000000041000184 <syscalls__syscall_machine_csr_rw>:
    41000184:	000f02b7          	lui	x5,0xf0
    41000188:	0012829b          	addiw	x5,x5,1 # f0001 <SID_ZA64RS_03_lrd_scw_stack+0x5f001>
    4100018c:	00c29293          	slli	x5,x5,0xc
    41000190:	00528293          	addi	x5,x5,5
    41000194:	0e5f8263          	beq	x31,x5,41000278 <syscalls__os_fn_f0001005>

0000000041000198 <syscalls__syscall_supervisor_csr_rw>:
    41000198:	000f02b7          	lui	x5,0xf0
    4100019c:	0012829b          	addiw	x5,x5,1 # f0001 <SID_ZA64RS_03_lrd_scw_stack+0x5f001>
    410001a0:	00c29293          	slli	x5,x5,0xc
    410001a4:	00628293          	addi	x5,x5,6
    410001a8:	0e5f8e63          	beq	x31,x5,410002a4 <syscalls__os_fn_f0001006>

00000000410001ac <syscalls__syscall_machine_pte_read>:
    410001ac:	000f02b7          	lui	x5,0xf0
    410001b0:	0012829b          	addiw	x5,x5,1 # f0001 <SID_ZA64RS_03_lrd_scw_stack+0x5f001>
    410001b4:	00c29293          	slli	x5,x5,0xc
    410001b8:	00728293          	addi	x5,x5,7
    410001bc:	105f8c63          	beq	x31,x5,410002d4 <syscalls__os_fn_f0001007>

00000000410001c0 <syscalls__syscall_machine_pte_write>:
    410001c0:	000f02b7          	lui	x5,0xf0
    410001c4:	0012829b          	addiw	x5,x5,1 # f0001 <SID_ZA64RS_03_lrd_scw_stack+0x5f001>
    410001c8:	00c29293          	slli	x5,x5,0xc
    410001cc:	00828293          	addi	x5,x5,8
    410001d0:	1e5f8863          	beq	x31,x5,410003c0 <syscalls__os_fn_f0001008>

00000000410001d4 <syscalls__syscall_check_get_hart_context>:
    410001d4:	000782b7          	lui	x5,0x78
    410001d8:	0012829b          	addiw	x5,x5,1 # 78001 <pma_region_0_size+0x38001>
    410001dc:	00d29293          	slli	x5,x5,0xd
    410001e0:	00128293          	addi	x5,x5,1
    410001e4:	2c5f8463          	beq	x31,x5,410004ac <syscalls__os_get_hart_context>
    410001e8:	4c00006f          	j	410006a8 <trap_handler_m__check_exception_label>

00000000410001ec <syscalls__os_fn_f0001001>:
    410001ec:	000022b7          	lui	x5,0x2
    410001f0:	8002829b          	addiw	x5,x5,-2048 # 1800 <pma_region_1_size+0x800>
    410001f4:	3002b073          	csrc	mstatus,x5
    410001f8:	000022b7          	lui	x5,0x2
    410001fc:	8002829b          	addiw	x5,x5,-2048 # 1800 <pma_region_1_size+0x800>
    41000200:	3002a073          	csrs	mstatus,x5
    41000204:	0010029b          	addiw	x5,x0,1
    41000208:	02729293          	slli	x5,x5,0x27
    4100020c:	3002b073          	csrc	mstatus,x5
    41000210:	411952b7          	lui	x5,0x41195
    41000214:	2a80006f          	j	410004bc <syscalls__ret_from_os_fn>

0000000041000218 <syscalls__os_fn_f0001002>:
    41000218:	000022b7          	lui	x5,0x2
    4100021c:	8002829b          	addiw	x5,x5,-2048 # 1800 <pma_region_1_size+0x800>
    41000220:	3002b073          	csrc	mstatus,x5
    41000224:	000012b7          	lui	x5,0x1
    41000228:	8002829b          	addiw	x5,x5,-2048 # 800 <XLEN+0x7c0>
    4100022c:	3002a073          	csrs	mstatus,x5
    41000230:	0010029b          	addiw	x5,x0,1
    41000234:	02729293          	slli	x5,x5,0x27
    41000238:	3002b073          	csrc	mstatus,x5
    4100023c:	12000073          	sfence.vma
    41000240:	410952b7          	lui	x5,0x41095
    41000244:	2780006f          	j	410004bc <syscalls__ret_from_os_fn>

0000000041000248 <syscalls__os_fn_f0001003>:
    41000248:	411152b7          	lui	x5,0x41115
    4100024c:	2700006f          	j	410004bc <syscalls__ret_from_os_fn>

0000000041000250 <syscalls__os_fn_f0001004>:
    41000250:	000022b7          	lui	x5,0x2
    41000254:	8002829b          	addiw	x5,x5,-2048 # 1800 <pma_region_1_size+0x800>
    41000258:	3002b073          	csrc	mstatus,x5
    4100025c:	00000293          	li	x5,0
    41000260:	3002a073          	csrs	mstatus,x5
    41000264:	0010029b          	addiw	x5,x0,1
    41000268:	02729293          	slli	x5,x5,0x27
    4100026c:	3002b073          	csrc	mstatus,x5
    41000270:	17823283          	ld	x5,376(x4) # 43694178 <__section_hart_context+0x178>
    41000274:	2480006f          	j	410004bc <syscalls__ret_from_os_fn>

0000000041000278 <syscalls__os_fn_f0001005>:
    41000278:	000022b7          	lui	x5,0x2
    4100027c:	8002829b          	addiw	x5,x5,-2048 # 1800 <pma_region_1_size+0x800>
    41000280:	3002b073          	csrc	mstatus,x5
    41000284:	000022b7          	lui	x5,0x2
    41000288:	8002829b          	addiw	x5,x5,-2048 # 1800 <pma_region_1_size+0x800>
    4100028c:	3002a073          	csrs	mstatus,x5
    41000290:	0010029b          	addiw	x5,x0,1
    41000294:	02729293          	slli	x5,x5,0x27
    41000298:	3002b073          	csrc	mstatus,x5
    4100029c:	412152b7          	lui	x5,0x41215
    410002a0:	21c0006f          	j	410004bc <syscalls__ret_from_os_fn>

00000000410002a4 <syscalls__os_fn_f0001006>:
    410002a4:	000022b7          	lui	x5,0x2
    410002a8:	8002829b          	addiw	x5,x5,-2048 # 1800 <pma_region_1_size+0x800>
    410002ac:	3002b073          	csrc	mstatus,x5
    410002b0:	000012b7          	lui	x5,0x1
    410002b4:	8002829b          	addiw	x5,x5,-2048 # 800 <XLEN+0x7c0>
    410002b8:	3002a073          	csrs	mstatus,x5
    410002bc:	0010029b          	addiw	x5,x0,1
    410002c0:	02729293          	slli	x5,x5,0x27
    410002c4:	3002b073          	csrc	mstatus,x5
    410002c8:	12000073          	sfence.vma
    410002cc:	412162b7          	lui	x5,0x41216
    410002d0:	1ec0006f          	j	410004bc <syscalls__ret_from_os_fn>

00000000410002d4 <syscalls__os_fn_f0001007>:
    410002d4:	432cefb7          	lui	x31,0x432ce
    410002d8:	0b0f8f9b          	addiw	x31,x31,176 # 432ce0b0 <pte_access_flags_pa>
    410002dc:	000fbf83          	ld	x31,0(x31)
    410002e0:	432ce2b7          	lui	x5,0x432ce
    410002e4:	0b82829b          	addiw	x5,x5,184 # 432ce0b8 <pte_access_flags_pa+0x8>
    410002e8:	0002b283          	ld	x5,0(x5)
    410002ec:	432cee37          	lui	x28,0x432ce
    410002f0:	0c0e0e1b          	addiw	x28,x28,192 # 432ce0c0 <pte_access_flags_pa+0x10>
    410002f4:	000e3e03          	ld	x28,0(x28)

00000000410002f8 <syscalls__pte_walk_check_glevel_without_gstage_read>:
    410002f8:	fff00f93          	li	x31,-1
    410002fc:	0dfe1063          	bne	x28,x31,410003bc <syscalls__pte_walk_fail_read>
    41000300:	18002373          	csrr	x6,satp
    41000304:	03c35e93          	srli	x29,x6,0x3c
    41000308:	01431313          	slli	x6,x6,0x14
    4100030c:	01435313          	srli	x6,x6,0x14
    41000310:	00c31313          	slli	x6,x6,0xc
    41000314:	ff8e8e93          	addi	x29,x29,-8
    41000318:	003e9f13          	slli	x30,x29,0x3
    4100031c:	01df0eb3          	add	x29,x30,x29
    41000320:	01ee8e93          	addi	x29,x29,30
    41000324:	00000f13          	li	x30,0

0000000041000328 <syscalls__pte_walk_loop_read>:
    41000328:	432cefb7          	lui	x31,0x432ce
    4100032c:	0b0f8f9b          	addiw	x31,x31,176 # 432ce0b0 <pte_access_flags_pa>
    41000330:	000fbf83          	ld	x31,0(x31)
    41000334:	01dfdfb3          	srl	x31,x31,x29
    41000338:	1fffff93          	andi	x31,x31,511
    4100033c:	003f9f93          	slli	x31,x31,0x3
    41000340:	01f30333          	add	x6,x6,x31
    41000344:	005f0e63          	beq	x30,x5,41000360 <syscalls__pte_walk_done_read>
    41000348:	00033f83          	ld	x31,0(x6)
    4100034c:	00afdf93          	srli	x31,x31,0xa
    41000350:	00cf9313          	slli	x6,x31,0xc
    41000354:	001f0f13          	addi	x30,x30,1
    41000358:	ff7e8e93          	addi	x29,x29,-9
    4100035c:	fcdff06f          	j	41000328 <syscalls__pte_walk_loop_read>

0000000041000360 <syscalls__pte_walk_done_read>:
    41000360:	fff00f93          	li	x31,-1
    41000364:	05fe0263          	beq	x28,x31,410003a8 <syscalls__pte_walk_final_read>

0000000041000368 <syscalls__pte_walk_gstage_read>:
    41000368:	432cefb7          	lui	x31,0x432ce
    4100036c:	0b0f8f9b          	addiw	x31,x31,176 # 432ce0b0 <pte_access_flags_pa>
    41000370:	006fb023          	sd	x6,0(x31)
    41000374:	000e0293          	mv	x5,x28
    41000378:	fff00e13          	li	x28,-1
    4100037c:	68002373          	csrr	x6,hgatp
    41000380:	03c35e93          	srli	x29,x6,0x3c
    41000384:	01431313          	slli	x6,x6,0x14
    41000388:	01435313          	srli	x6,x6,0x14
    4100038c:	00c31313          	slli	x6,x6,0xc
    41000390:	ff8e8e93          	addi	x29,x29,-8
    41000394:	003e9f13          	slli	x30,x29,0x3
    41000398:	01df0eb3          	add	x29,x30,x29
    4100039c:	01ee8e93          	addi	x29,x29,30
    410003a0:	00000f13          	li	x30,0
    410003a4:	f85ff06f          	j	41000328 <syscalls__pte_walk_loop_read>

00000000410003a8 <syscalls__pte_walk_final_read>:
    410003a8:	00033383          	ld	x7,0(x6)
    410003ac:	341022f3          	csrr	x5,mepc
    410003b0:	00428293          	addi	x5,x5,4
    410003b4:	16523c23          	sd	x5,376(x4) # 178 <XLEN+0x138>
    410003b8:	e99ff06f          	j	41000250 <syscalls__os_fn_f0001004>

00000000410003bc <syscalls__pte_walk_fail_read>:
    410003bc:	4040006f          	j	410007c0 <test_failed>

00000000410003c0 <syscalls__os_fn_f0001008>:
    410003c0:	432cefb7          	lui	x31,0x432ce
    410003c4:	0b0f8f9b          	addiw	x31,x31,176 # 432ce0b0 <pte_access_flags_pa>
    410003c8:	000fbf83          	ld	x31,0(x31)
    410003cc:	432ce2b7          	lui	x5,0x432ce
    410003d0:	0b82829b          	addiw	x5,x5,184 # 432ce0b8 <pte_access_flags_pa+0x8>
    410003d4:	0002b283          	ld	x5,0(x5)
    410003d8:	432cee37          	lui	x28,0x432ce
    410003dc:	0c0e0e1b          	addiw	x28,x28,192 # 432ce0c0 <pte_access_flags_pa+0x10>
    410003e0:	000e3e03          	ld	x28,0(x28)

00000000410003e4 <syscalls__pte_walk_check_glevel_without_gstage_write>:
    410003e4:	fff00f93          	li	x31,-1
    410003e8:	0dfe1063          	bne	x28,x31,410004a8 <syscalls__pte_walk_fail_write>
    410003ec:	18002373          	csrr	x6,satp
    410003f0:	03c35e93          	srli	x29,x6,0x3c
    410003f4:	01431313          	slli	x6,x6,0x14
    410003f8:	01435313          	srli	x6,x6,0x14
    410003fc:	00c31313          	slli	x6,x6,0xc
    41000400:	ff8e8e93          	addi	x29,x29,-8
    41000404:	003e9f13          	slli	x30,x29,0x3
    41000408:	01df0eb3          	add	x29,x30,x29
    4100040c:	01ee8e93          	addi	x29,x29,30
    41000410:	00000f13          	li	x30,0

0000000041000414 <syscalls__pte_walk_loop_write>:
    41000414:	432cefb7          	lui	x31,0x432ce
    41000418:	0b0f8f9b          	addiw	x31,x31,176 # 432ce0b0 <pte_access_flags_pa>
    4100041c:	000fbf83          	ld	x31,0(x31)
    41000420:	01dfdfb3          	srl	x31,x31,x29
    41000424:	1fffff93          	andi	x31,x31,511
    41000428:	003f9f93          	slli	x31,x31,0x3
    4100042c:	01f30333          	add	x6,x6,x31
    41000430:	005f0e63          	beq	x30,x5,4100044c <syscalls__pte_walk_done_write>
    41000434:	00033f83          	ld	x31,0(x6)
    41000438:	00afdf93          	srli	x31,x31,0xa
    4100043c:	00cf9313          	slli	x6,x31,0xc
    41000440:	001f0f13          	addi	x30,x30,1
    41000444:	ff7e8e93          	addi	x29,x29,-9
    41000448:	fcdff06f          	j	41000414 <syscalls__pte_walk_loop_write>

000000004100044c <syscalls__pte_walk_done_write>:
    4100044c:	fff00f93          	li	x31,-1
    41000450:	05fe0263          	beq	x28,x31,41000494 <syscalls__pte_walk_final_write>

0000000041000454 <syscalls__pte_walk_gstage_write>:
    41000454:	432cefb7          	lui	x31,0x432ce
    41000458:	0b0f8f9b          	addiw	x31,x31,176 # 432ce0b0 <pte_access_flags_pa>
    4100045c:	006fb023          	sd	x6,0(x31)
    41000460:	000e0293          	mv	x5,x28
    41000464:	fff00e13          	li	x28,-1
    41000468:	68002373          	csrr	x6,hgatp
    4100046c:	03c35e93          	srli	x29,x6,0x3c
    41000470:	01431313          	slli	x6,x6,0x14
    41000474:	01435313          	srli	x6,x6,0x14
    41000478:	00c31313          	slli	x6,x6,0xc
    4100047c:	ff8e8e93          	addi	x29,x29,-8
    41000480:	003e9f13          	slli	x30,x29,0x3
    41000484:	01df0eb3          	add	x29,x30,x29
    41000488:	01ee8e93          	addi	x29,x29,30
    4100048c:	00000f13          	li	x30,0
    41000490:	f85ff06f          	j	41000414 <syscalls__pte_walk_loop_write>

0000000041000494 <syscalls__pte_walk_final_write>:
    41000494:	00733023          	sd	x7,0(x6)
    41000498:	341022f3          	csrr	x5,mepc
    4100049c:	00428293          	addi	x5,x5,4
    410004a0:	16523c23          	sd	x5,376(x4) # 178 <XLEN+0x138>
    410004a4:	dadff06f          	j	41000250 <syscalls__os_fn_f0001004>

00000000410004a8 <syscalls__pte_walk_fail_write>:
    410004a8:	3180006f          	j	410007c0 <test_failed>

00000000410004ac <syscalls__os_get_hart_context>:
    410004ac:	14002573          	csrr	x10,sscratch
    410004b0:	341022f3          	csrr	x5,mepc
    410004b4:	00428293          	addi	x5,x5,4
    410004b8:	0040006f          	j	410004bc <syscalls__ret_from_os_fn>

00000000410004bc <syscalls__ret_from_os_fn>:
    410004bc:	34102373          	csrr	x6,mepc
    410004c0:	00430313          	addi	x6,x6,4
    410004c4:	16623c23          	sd	x6,376(x4) # 178 <XLEN+0x138>
    410004c8:	34129073          	csrw	mepc,x5
    410004cc:	fff00f93          	li	x31,-1
    410004d0:	2a40006f          	j	41000774 <trap_handler_m__skip_xepc_write>

00000000410004d4 <trap_handler_m__invalid_interrupt>:
    410004d4:	2ec0006f          	j	410007c0 <test_failed>

00000000410004d8 <trap_handler_m__clear_all_interrupts>:
    410004d8:	34401073          	csrw	mip,x0
    410004dc:	30200073          	mret

00000000410004e0 <trap_handler_m___CLEAR_SSI>:
    410004e0:	00200293          	li	x5,2
    410004e4:	3442b073          	csrc	mip,x5
    410004e8:	30200073          	mret

00000000410004ec <trap_handler_m___CLEAR_MSI>:
    410004ec:	00800293          	li	x5,8
    410004f0:	3442b073          	csrc	mip,x5
    410004f4:	30200073          	mret

00000000410004f8 <trap_handler_m___CLEAR_STI>:
    410004f8:	02000293          	li	x5,32
    410004fc:	3442b073          	csrc	mip,x5
    41000500:	30200073          	mret

0000000041000504 <trap_handler_m___CLEAR_MTI>:
    41000504:	08000293          	li	x5,128
    41000508:	3442b073          	csrc	mip,x5
    4100050c:	30200073          	mret

0000000041000510 <trap_handler_m___CLEAR_SEI>:
    41000510:	20000293          	li	x5,512
    41000514:	3442b073          	csrc	mip,x5
    41000518:	30200073          	mret

000000004100051c <trap_handler_m___CLEAR_MEI>:
    4100051c:	000012b7          	lui	x5,0x1
    41000520:	8002829b          	addiw	x5,x5,-2048 # 800 <XLEN+0x7c0>
    41000524:	3442b073          	csrc	mip,x5
    41000528:	30200073          	mret

000000004100052c <trap_handler_m___CLEAR_COI>:
    4100052c:	000022b7          	lui	x5,0x2
    41000530:	3442b073          	csrc	mip,x5
    41000534:	30200073          	mret

0000000041000538 <trap_handler_m__clear_highest_priority_interrupt>:
    41000538:	344022f3          	csrr	x5,mip
    4100053c:	40500333          	neg	x6,x5
    41000540:	0062f2b3          	and	x5,x5,x6
    41000544:	3442b073          	csrc	mip,x5
    41000548:	30200073          	mret

000000004100054c <trap_handler_m__trap_entry>:
    4100054c:	0fc0006f          	j	41000648 <trap_handler_m__trap_handler>

0000000041000550 <trap_handler_m__interrupt_vector_table>:
    41000550:	f91ff06f          	j	410004e0 <trap_handler_m___CLEAR_SSI>
    41000554:	f81ff06f          	j	410004d4 <trap_handler_m__invalid_interrupt>
    41000558:	f95ff06f          	j	410004ec <trap_handler_m___CLEAR_MSI>
    4100055c:	f79ff06f          	j	410004d4 <trap_handler_m__invalid_interrupt>
    41000560:	f99ff06f          	j	410004f8 <trap_handler_m___CLEAR_STI>
    41000564:	f71ff06f          	j	410004d4 <trap_handler_m__invalid_interrupt>
    41000568:	f9dff06f          	j	41000504 <trap_handler_m___CLEAR_MTI>
    4100056c:	f69ff06f          	j	410004d4 <trap_handler_m__invalid_interrupt>
    41000570:	fa1ff06f          	j	41000510 <trap_handler_m___CLEAR_SEI>
    41000574:	f61ff06f          	j	410004d4 <trap_handler_m__invalid_interrupt>
    41000578:	fa5ff06f          	j	4100051c <trap_handler_m___CLEAR_MEI>
    4100057c:	f59ff06f          	j	410004d4 <trap_handler_m__invalid_interrupt>
    41000580:	fadff06f          	j	4100052c <trap_handler_m___CLEAR_COI>
    41000584:	f51ff06f          	j	410004d4 <trap_handler_m__invalid_interrupt>
    41000588:	f4dff06f          	j	410004d4 <trap_handler_m__invalid_interrupt>
    4100058c:	fadff06f          	j	41000538 <trap_handler_m__clear_highest_priority_interrupt>
    41000590:	fa9ff06f          	j	41000538 <trap_handler_m__clear_highest_priority_interrupt>
    41000594:	fa5ff06f          	j	41000538 <trap_handler_m__clear_highest_priority_interrupt>
    41000598:	fa1ff06f          	j	41000538 <trap_handler_m__clear_highest_priority_interrupt>
    4100059c:	f9dff06f          	j	41000538 <trap_handler_m__clear_highest_priority_interrupt>
    410005a0:	f99ff06f          	j	41000538 <trap_handler_m__clear_highest_priority_interrupt>
    410005a4:	f95ff06f          	j	41000538 <trap_handler_m__clear_highest_priority_interrupt>
    410005a8:	f91ff06f          	j	41000538 <trap_handler_m__clear_highest_priority_interrupt>
    410005ac:	f8dff06f          	j	41000538 <trap_handler_m__clear_highest_priority_interrupt>
    410005b0:	f89ff06f          	j	41000538 <trap_handler_m__clear_highest_priority_interrupt>
    410005b4:	f85ff06f          	j	41000538 <trap_handler_m__clear_highest_priority_interrupt>
    410005b8:	f81ff06f          	j	41000538 <trap_handler_m__clear_highest_priority_interrupt>
    410005bc:	f7dff06f          	j	41000538 <trap_handler_m__clear_highest_priority_interrupt>
    410005c0:	f79ff06f          	j	41000538 <trap_handler_m__clear_highest_priority_interrupt>
    410005c4:	f75ff06f          	j	41000538 <trap_handler_m__clear_highest_priority_interrupt>
    410005c8:	f71ff06f          	j	41000538 <trap_handler_m__clear_highest_priority_interrupt>
    410005cc:	f6dff06f          	j	41000538 <trap_handler_m__clear_highest_priority_interrupt>
    410005d0:	f69ff06f          	j	41000538 <trap_handler_m__clear_highest_priority_interrupt>
    410005d4:	f65ff06f          	j	41000538 <trap_handler_m__clear_highest_priority_interrupt>
    410005d8:	f61ff06f          	j	41000538 <trap_handler_m__clear_highest_priority_interrupt>
    410005dc:	f5dff06f          	j	41000538 <trap_handler_m__clear_highest_priority_interrupt>
    410005e0:	f59ff06f          	j	41000538 <trap_handler_m__clear_highest_priority_interrupt>
    410005e4:	f55ff06f          	j	41000538 <trap_handler_m__clear_highest_priority_interrupt>
    410005e8:	f51ff06f          	j	41000538 <trap_handler_m__clear_highest_priority_interrupt>
    410005ec:	f4dff06f          	j	41000538 <trap_handler_m__clear_highest_priority_interrupt>
    410005f0:	f49ff06f          	j	41000538 <trap_handler_m__clear_highest_priority_interrupt>
    410005f4:	f45ff06f          	j	41000538 <trap_handler_m__clear_highest_priority_interrupt>
    410005f8:	f41ff06f          	j	41000538 <trap_handler_m__clear_highest_priority_interrupt>
    410005fc:	f3dff06f          	j	41000538 <trap_handler_m__clear_highest_priority_interrupt>
    41000600:	f39ff06f          	j	41000538 <trap_handler_m__clear_highest_priority_interrupt>
    41000604:	f35ff06f          	j	41000538 <trap_handler_m__clear_highest_priority_interrupt>
    41000608:	f31ff06f          	j	41000538 <trap_handler_m__clear_highest_priority_interrupt>
    4100060c:	f2dff06f          	j	41000538 <trap_handler_m__clear_highest_priority_interrupt>
    41000610:	f29ff06f          	j	41000538 <trap_handler_m__clear_highest_priority_interrupt>
    41000614:	f25ff06f          	j	41000538 <trap_handler_m__clear_highest_priority_interrupt>
    41000618:	f21ff06f          	j	41000538 <trap_handler_m__clear_highest_priority_interrupt>
    4100061c:	f1dff06f          	j	41000538 <trap_handler_m__clear_highest_priority_interrupt>
    41000620:	f19ff06f          	j	41000538 <trap_handler_m__clear_highest_priority_interrupt>
    41000624:	f15ff06f          	j	41000538 <trap_handler_m__clear_highest_priority_interrupt>
    41000628:	f11ff06f          	j	41000538 <trap_handler_m__clear_highest_priority_interrupt>
    4100062c:	f0dff06f          	j	41000538 <trap_handler_m__clear_highest_priority_interrupt>
    41000630:	f09ff06f          	j	41000538 <trap_handler_m__clear_highest_priority_interrupt>
    41000634:	f05ff06f          	j	41000538 <trap_handler_m__clear_highest_priority_interrupt>
    41000638:	f01ff06f          	j	41000538 <trap_handler_m__clear_highest_priority_interrupt>
    4100063c:	efdff06f          	j	41000538 <trap_handler_m__clear_highest_priority_interrupt>
    41000640:	ef9ff06f          	j	41000538 <trap_handler_m__clear_highest_priority_interrupt>
    41000644:	ef5ff06f          	j	41000538 <trap_handler_m__clear_highest_priority_interrupt>

0000000041000648 <trap_handler_m__trap_handler>:
    41000648:	342022f3          	csrr	x5,mcause
    4100064c:	fff0031b          	addiw	x6,x0,-1
    41000650:	03f31313          	slli	x6,x6,0x3f
    41000654:	00537333          	and	x6,x6,x5
    41000658:	02030263          	beqz	x6,4100067c <trap_handler_m__exception_path>

000000004100065c <trap_handler_m__interrupt_handler>:
    4100065c:	fff0031b          	addiw	x6,x0,-1
    41000660:	03f31313          	slli	x6,x6,0x3f
    41000664:	0062c2b3          	xor	x5,x5,x6
    41000668:	00000317          	auipc	x6,0x0
    4100066c:	ee430313          	addi	x6,x6,-284 # 4100054c <trap_handler_m__trap_entry>
    41000670:	00229293          	slli	x5,x5,0x2
    41000674:	005302b3          	add	x5,x6,x5
    41000678:	00028067          	jr	x5 # 2000 <mem5>

000000004100067c <trap_handler_m__exception_path>:
    4100067c:	34021273          	csrrw	x4,mscratch,x4
    41000680:	00000297          	auipc	x5,0x0
    41000684:	10828293          	addi	x5,x5,264 # 41000788 <trap_handler_m__trap_panic>
    41000688:	30529073          	csrw	mtvec,x5
    4100068c:	0040006f          	j	41000690 <trap_handler_m__excp_entry>

0000000041000690 <trap_handler_m__excp_entry>:
    41000690:	34202373          	csrr	x6,mcause
    41000694:	00800293          	li	x5,8
    41000698:	00534863          	blt	x6,x5,410006a8 <trap_handler_m__check_exception_label>
    4100069c:	00b00293          	li	x5,11
    410006a0:	0062c463          	blt	x5,x6,410006a8 <trap_handler_m__check_exception_label>
    410006a4:	a31ff06f          	j	410000d4 <syscalls__syscall_check_schedule_next_test>

00000000410006a8 <trap_handler_m__check_exception_label>:
    410006a8:	04623c23          	sd	x6,88(x4) # 58 <XLEN+0x18>
    410006ac:	341022f3          	csrr	x5,mepc
    410006b0:	02523423          	sd	x5,40(x4) # 28 <SECURE_ACCESS_PROBABILITY+0xa>
    410006b4:	01820283          	lb	x5,24(x4) # 18 <STORE_GUEST_PAGE_FAULT+0x1>
    410006b8:	00029863          	bnez	x5,410006c8 <trap_handler_m__check_excp>
    410006bc:	00128293          	addi	x5,x5,1
    410006c0:	00520c23          	sb	x5,24(x4) # 18 <STORE_GUEST_PAGE_FAULT+0x1>
    410006c4:	0980006f          	j	4100075c <trap_handler_m__ecall_from_machine>

00000000410006c8 <trap_handler_m__check_excp>:
    410006c8:	06823283          	ld	x5,104(x4) # 68 <XLEN+0x28>
    410006cc:	06023423          	sd	x0,104(x4) # 68 <XLEN+0x28>
    410006d0:	00028663          	beqz	x5,410006dc <trap_handler_m__skip_mode_check>
    410006d4:	00100393          	li	x7,1
    410006d8:	0e729463          	bne	x5,x7,410007c0 <test_failed>

00000000410006dc <trap_handler_m__skip_mode_check>:
    410006dc:	05023283          	ld	x5,80(x4) # 50 <XLEN+0x10>
    410006e0:	04023823          	sd	x0,80(x4) # 50 <XLEN+0x10>
    410006e4:	0c531e63          	bne	x6,x5,410007c0 <test_failed>
    410006e8:	03823283          	ld	x5,56(x4) # 38 <SECURE_ACCESS_PROBABILITY+0x1a>
    410006ec:	02023c23          	sd	x0,56(x4) # 38 <SECURE_ACCESS_PROBABILITY+0x1a>
    410006f0:	06029463          	bnez	x5,41000758 <trap_handler_m__skip_gva_check>
    410006f4:	02023303          	ld	x6,32(x4) # 20 <SECURE_ACCESS_PROBABILITY+0x2>
    410006f8:	02023023          	sd	x0,32(x4) # 20 <SECURE_ACCESS_PROBABILITY+0x2>
    410006fc:	02823283          	ld	x5,40(x4) # 28 <SECURE_ACCESS_PROBABILITY+0xa>
    41000700:	02023423          	sd	x0,40(x4) # 28 <SECURE_ACCESS_PROBABILITY+0xa>
    41000704:	0a531e63          	bne	x6,x5,410007c0 <test_failed>
    41000708:	04023283          	ld	x5,64(x4) # 40 <XLEN>
    4100070c:	04023023          	sd	x0,64(x4) # 40 <XLEN>
    41000710:	00028663          	beqz	x5,4100071c <trap_handler_m__skip_nonzero_tval_check>

0000000041000714 <trap_handler_m__nonzero_tval_check>:
    41000714:	34302373          	csrr	x6,mtval
    41000718:	0a531463          	bne	x6,x5,410007c0 <test_failed>

000000004100071c <trap_handler_m__skip_nonzero_tval_check>:
    4100071c:	04823283          	ld	x5,72(x4) # 48 <XLEN+0x8>
    41000720:	04023423          	sd	x0,72(x4) # 48 <XLEN+0x8>
    41000724:	00028663          	beqz	x5,41000730 <trap_handler_m__skip_nonzero_htval_check>

0000000041000728 <trap_handler_m__nonzero_htval_check>:
    41000728:	34b02373          	csrr	x6,0x34b
    4100072c:	08531a63          	bne	x6,x5,410007c0 <test_failed>

0000000041000730 <trap_handler_m__skip_nonzero_htval_check>:
    41000730:	06023283          	ld	x5,96(x4) # 60 <XLEN+0x20>
    41000734:	06023023          	sd	x0,96(x4) # 60 <XLEN+0x20>
    41000738:	02028063          	beqz	x5,41000758 <trap_handler_m__skip_gva_check>

000000004100073c <trap_handler_m__gva_check>:
    4100073c:	30002373          	csrr	x6,mstatus
    41000740:	02635313          	srli	x6,x6,0x26
    41000744:	00137313          	andi	x6,x6,1
    41000748:	06030c63          	beqz	x6,410007c0 <test_failed>
    4100074c:	0010031b          	addiw	x6,x0,1
    41000750:	02631313          	slli	x6,x6,0x26
    41000754:	30033073          	csrc	mstatus,x6

0000000041000758 <trap_handler_m__skip_gva_check>:
    41000758:	0040006f          	j	4100075c <trap_handler_m__ecall_from_machine>

000000004100075c <trap_handler_m__ecall_from_machine>:
    4100075c:	03023283          	ld	x5,48(x4) # 30 <SECURE_ACCESS_PROBABILITY+0x12>
    41000760:	02023823          	sd	x0,48(x4) # 30 <SECURE_ACCESS_PROBABILITY+0x12>
    41000764:	07023303          	ld	x6,112(x4) # 70 <XLEN+0x30>
    41000768:	06023823          	sd	x0,112(x4) # 70 <XLEN+0x30>
    4100076c:	00031463          	bnez	x6,41000774 <trap_handler_m__skip_xepc_write>
    41000770:	34129073          	csrw	mepc,x5

0000000041000774 <trap_handler_m__skip_xepc_write>:
    41000774:	00000317          	auipc	x6,0x0
    41000778:	dd830313          	addi	x6,x6,-552 # 4100054c <trap_handler_m__trap_entry>
    4100077c:	30531073          	csrw	mtvec,x6
    41000780:	34021273          	csrrw	x4,mscratch,x4
    41000784:	30200073          	mret

0000000041000788 <trap_handler_m__trap_panic>:
    41000788:	00000193          	li	x3,0
    4100078c:	2b40006f          	j	41000a40 <eot__end_test>

0000000041000790 <enter_scheduler>:
    41000790:	0002f337          	lui	x6,0x2f
    41000794:	ab73031b          	addiw	x6,x6,-1353 # 2eab7 <mem3+0x11ab7>
    41000798:	00e31313          	slli	x6,x6,0xe
    4100079c:	0de30313          	addi	x6,x6,222
    410007a0:	02628063          	beq	x5,x6,410007c0 <test_failed>
    410007a4:	00000513          	li	x10,0
    410007a8:	030000ef          	jal	410007d8 <rvcp_print_test_result>
    410007ac:	3180006f          	j	41000ac4 <scheduler__dispatch>

00000000410007b0 <test_passed>:
    410007b0:	34021273          	csrrw	x4,mscratch,x4
    410007b4:	00000513          	li	x10,0
    410007b8:	020000ef          	jal	410007d8 <rvcp_print_test_result>
    410007bc:	3080006f          	j	41000ac4 <scheduler__dispatch>

00000000410007c0 <test_failed>:
    410007c0:	34021273          	csrrw	x4,mscratch,x4
    410007c4:	00300193          	li	x3,3
    410007c8:	2780006f          	j	41000a40 <eot__end_test>

00000000410007cc <os_end_test>:
    410007cc:	34021273          	csrrw	x4,mscratch,x4
    410007d0:	00100193          	li	x3,1
    410007d4:	26c0006f          	j	41000a40 <eot__end_test>

00000000410007d8 <rvcp_print_test_result>:
    410007d8:	00050e13          	mv	x28,x10
    410007dc:	18823283          	ld	x5,392(x4) # 188 <XLEN+0x148>
    410007e0:	0010031b          	addiw	x6,x0,1
    410007e4:	02031313          	slli	x6,x6,0x20
    410007e8:	ffe30313          	addi	x6,x6,-2
    410007ec:	1c628063          	beq	x5,x6,410009ac <rvcp_print_test_result+0x1d4>
    410007f0:	0010031b          	addiw	x6,x0,1
    410007f4:	02031313          	slli	x6,x6,0x20
    410007f8:	fff30313          	addi	x6,x6,-1
    410007fc:	1a628863          	beq	x5,x6,410009ac <rvcp_print_test_result+0x1d4>
    41000800:	1a02c663          	bltz	x5,410009ac <rvcp_print_test_result+0x1d4>
    41000804:	00000317          	auipc	x6,0x0
    41000808:	45830313          	addi	x6,x6,1112 # 41000c5c <dtest_descriptor_table>
    4100080c:	00329393          	slli	x7,x5,0x3
    41000810:	00730333          	add	x6,x6,x7
    41000814:	00033e83          	ld	x29,0(x6)
    41000818:	432cef37          	lui	x30,0x432ce
    4100081c:	030f0f1b          	addiw	x30,x30,48 # 432ce030 <rvcp_prefix_str_pa>
    41000820:	000f4283          	lbu	x5,0(x30)
    41000824:	02028663          	beqz	x5,41000850 <rvcp_print_test_result+0x78>
    41000828:	1010031b          	addiw	x6,x0,257
    4100082c:	03031313          	slli	x6,x6,0x30
    41000830:	005362b3          	or	x5,x6,x5
    41000834:	0003f317          	auipc	x6,0x3f
    41000838:	7cc30313          	addi	x6,x6,1996 # 41040000 <tohost>
    4100083c:	00033383          	ld	x7,0(x6)
    41000840:	fe039ee3          	bnez	x7,4100083c <rvcp_print_test_result+0x64>
    41000844:	00533023          	sd	x5,0(x6)
    41000848:	001f0f13          	addi	x30,x30,1
    4100084c:	fd5ff06f          	j	41000820 <rvcp_print_test_result+0x48>
    41000850:	432cef37          	lui	x30,0x432ce
    41000854:	041f0f1b          	addiw	x30,x30,65 # 432ce041 <rvcp_testname_str_pa>
    41000858:	000f4283          	lbu	x5,0(x30)
    4100085c:	02028663          	beqz	x5,41000888 <rvcp_print_test_result+0xb0>
    41000860:	1010031b          	addiw	x6,x0,257
    41000864:	03031313          	slli	x6,x6,0x30
    41000868:	005362b3          	or	x5,x6,x5
    4100086c:	0003f317          	auipc	x6,0x3f
    41000870:	79430313          	addi	x6,x6,1940 # 41040000 <tohost>
    41000874:	00033383          	ld	x7,0(x6)
    41000878:	fe039ee3          	bnez	x7,41000874 <rvcp_print_test_result+0x9c>
    4100087c:	00533023          	sd	x5,0(x6)
    41000880:	001f0f13          	addi	x30,x30,1
    41000884:	fd5ff06f          	j	41000858 <rvcp_print_test_result+0x80>
    41000888:	432cef37          	lui	x30,0x432ce
    4100088c:	05bf0f1b          	addiw	x30,x30,91 # 432ce05b <rvcp_space_str_pa>
    41000890:	000f4283          	lbu	x5,0(x30)
    41000894:	02028663          	beqz	x5,410008c0 <rvcp_print_test_result+0xe8>
    41000898:	1010031b          	addiw	x6,x0,257
    4100089c:	03031313          	slli	x6,x6,0x30
    410008a0:	005362b3          	or	x5,x6,x5
    410008a4:	0003f317          	auipc	x6,0x3f
    410008a8:	75c30313          	addi	x6,x6,1884 # 41040000 <tohost>
    410008ac:	00033383          	ld	x7,0(x6)
    410008b0:	fe039ee3          	bnez	x7,410008ac <rvcp_print_test_result+0xd4>
    410008b4:	00533023          	sd	x5,0(x6)
    410008b8:	001f0f13          	addi	x30,x30,1
    410008bc:	fd5ff06f          	j	41000890 <rvcp_print_test_result+0xb8>
    410008c0:	000e8f13          	mv	x30,x29
    410008c4:	000f4283          	lbu	x5,0(x30)
    410008c8:	02028663          	beqz	x5,410008f4 <rvcp_print_test_result+0x11c>
    410008cc:	1010031b          	addiw	x6,x0,257
    410008d0:	03031313          	slli	x6,x6,0x30
    410008d4:	005362b3          	or	x5,x6,x5
    410008d8:	0003f317          	auipc	x6,0x3f
    410008dc:	72830313          	addi	x6,x6,1832 # 41040000 <tohost>
    410008e0:	00033383          	ld	x7,0(x6)
    410008e4:	fe039ee3          	bnez	x7,410008e0 <rvcp_print_test_result+0x108>
    410008e8:	00533023          	sd	x5,0(x6)
    410008ec:	001f0f13          	addi	x30,x30,1
    410008f0:	fd5ff06f          	j	410008c4 <rvcp_print_test_result+0xec>
    410008f4:	432cef37          	lui	x30,0x432ce
    410008f8:	05bf0f1b          	addiw	x30,x30,91 # 432ce05b <rvcp_space_str_pa>
    410008fc:	000f4283          	lbu	x5,0(x30)
    41000900:	02028663          	beqz	x5,4100092c <rvcp_print_test_result+0x154>
    41000904:	1010031b          	addiw	x6,x0,257
    41000908:	03031313          	slli	x6,x6,0x30
    4100090c:	005362b3          	or	x5,x6,x5
    41000910:	0003f317          	auipc	x6,0x3f
    41000914:	6f030313          	addi	x6,x6,1776 # 41040000 <tohost>
    41000918:	00033383          	ld	x7,0(x6)
    4100091c:	fe039ee3          	bnez	x7,41000918 <rvcp_print_test_result+0x140>
    41000920:	00533023          	sd	x5,0(x6)
    41000924:	001f0f13          	addi	x30,x30,1
    41000928:	fd5ff06f          	j	410008fc <rvcp_print_test_result+0x124>
    4100092c:	000e1863          	bnez	x28,4100093c <rvcp_print_test_result+0x164>
    41000930:	432cef37          	lui	x30,0x432ce
    41000934:	04df0f1b          	addiw	x30,x30,77 # 432ce04d <rvcp_passed_str_pa>
    41000938:	00c0006f          	j	41000944 <rvcp_print_test_result+0x16c>
    4100093c:	432cef37          	lui	x30,0x432ce
    41000940:	054f0f1b          	addiw	x30,x30,84 # 432ce054 <rvcp_failed_str_pa>
    41000944:	000f4283          	lbu	x5,0(x30)
    41000948:	02028663          	beqz	x5,41000974 <rvcp_print_test_result+0x19c>
    4100094c:	1010031b          	addiw	x6,x0,257
    41000950:	03031313          	slli	x6,x6,0x30
    41000954:	005362b3          	or	x5,x6,x5
    41000958:	0003f317          	auipc	x6,0x3f
    4100095c:	6a830313          	addi	x6,x6,1704 # 41040000 <tohost>
    41000960:	00033383          	ld	x7,0(x6)
    41000964:	fe039ee3          	bnez	x7,41000960 <rvcp_print_test_result+0x188>
    41000968:	00533023          	sd	x5,0(x6)
    4100096c:	001f0f13          	addi	x30,x30,1
    41000970:	fd5ff06f          	j	41000944 <rvcp_print_test_result+0x16c>
    41000974:	432cef37          	lui	x30,0x432ce
    41000978:	05df0f1b          	addiw	x30,x30,93 # 432ce05d <rvcp_newline_str_pa>
    4100097c:	000f4283          	lbu	x5,0(x30)
    41000980:	02028663          	beqz	x5,410009ac <rvcp_print_test_result+0x1d4>
    41000984:	1010031b          	addiw	x6,x0,257
    41000988:	03031313          	slli	x6,x6,0x30
    4100098c:	005362b3          	or	x5,x6,x5
    41000990:	0003f317          	auipc	x6,0x3f
    41000994:	67030313          	addi	x6,x6,1648 # 41040000 <tohost>
    41000998:	00033383          	ld	x7,0(x6)
    4100099c:	fe039ee3          	bnez	x7,41000998 <rvcp_print_test_result+0x1c0>
    410009a0:	00533023          	sd	x5,0(x6)
    410009a4:	001f0f13          	addi	x30,x30,1
    410009a8:	fd5ff06f          	j	4100097c <rvcp_print_test_result+0x1a4>
    410009ac:	00008067          	ret

00000000410009b0 <os_rng_orig>:
    410009b0:	f14023f3          	csrr	x7,mhartid
    410009b4:	00068313          	mv	x6,x13
    410009b8:	026383b3          	mul	x7,x7,x6
    410009bc:	00058313          	mv	x6,x11
    410009c0:	00730333          	add	x6,x6,x7
    410009c4:	00033283          	ld	x5,0(x6)
    410009c8:	01529313          	slli	x6,x5,0x15
    410009cc:	0062c2b3          	xor	x5,x5,x6
    410009d0:	0232d313          	srli	x6,x5,0x23
    410009d4:	0062c2b3          	xor	x5,x5,x6
    410009d8:	00429313          	slli	x6,x5,0x4
    410009dc:	0062c2b3          	xor	x5,x5,x6
    410009e0:	00058313          	mv	x6,x11
    410009e4:	00730333          	add	x6,x6,x7
    410009e8:	00533023          	sd	x5,0(x6)
    410009ec:	00060313          	mv	x6,x12
    410009f0:	0262f2b3          	remu	x5,x5,x6
    410009f4:	00028513          	mv	x10,x5
    410009f8:	00008067          	ret
    410009fc:	02a00513          	li	x10,42
    41000a00:	001965b7          	lui	x11,0x196
    41000a04:	60d5859b          	addiw	x11,x11,1549 # 19660d <SID_ZA64RS_03_lrd_scw_stack+0x10560d>
    41000a08:	3c6ef637          	lui	x12,0x3c6ef
    41000a0c:	35f6061b          	addiw	x12,x12,863 # 3c6ef35f <SID_ZA64RS_02_stack+0x188bd35f>
    41000a10:	02200693          	li	x13,34
    41000a14:	02b50533          	mul	x10,x10,x11
    41000a18:	00c50533          	add	x10,x10,x12
    41000a1c:	02d56533          	rem	x10,x10,x13
    41000a20:	00b00593          	li	x11,11
    41000a24:	02b56533          	rem	x10,x10,x11
    41000a28:	00008067          	ret
    41000a2c:	0000                	.insn	2, 0x0000
	...

0000000041000a30 <tohost_mutex>:
	...

0000000041000a38 <tohost_addr_mem>:
    41000a38:	0000                	.insn	2, 0x0000
    41000a3a:	4104                	.insn	2, 0x4104
    41000a3c:	0000                	.insn	2, 0x0000
	...

0000000041000a40 <eot__end_test>:
    41000a40:	00100293          	li	x5,1
    41000a44:	00328463          	beq	x5,x3,41000a4c <eot__passed>
    41000a48:	01c0006f          	j	41000a64 <eot__failed>

0000000041000a4c <eot__passed>:
    41000a4c:	0ff0000f          	fence
    41000a50:	00000297          	auipc	x5,0x0
    41000a54:	fe82b283          	ld	x5,-24(x5) # 41000a38 <tohost_addr_mem>
    41000a58:	00100313          	li	x6,1
    41000a5c:	0062a023          	sw	x6,0(x5)
    41000a60:	0240006f          	j	41000a84 <eot__halt>

0000000041000a64 <eot__failed>:
    41000a64:	00100513          	li	x10,1
    41000a68:	d71ff0ef          	jal	410007d8 <rvcp_print_test_result>
    41000a6c:	0ff0000f          	fence
    41000a70:	00000297          	auipc	x5,0x0
    41000a74:	fc82b283          	ld	x5,-56(x5) # 41000a38 <tohost_addr_mem>
    41000a78:	00300313          	li	x6,3
    41000a7c:	0062a023          	sw	x6,0(x5)
    41000a80:	0040006f          	j	41000a84 <eot__halt>

0000000041000a84 <eot__halt>:
    41000a84:	10500073          	wfi
    41000a88:	ffdff06f          	j	41000a84 <eot__halt>

0000000041000a8c <scheduler__init>:
    41000a8c:	00000297          	auipc	x5,0x0
    41000a90:	0c828293          	addi	x5,x5,200 # 41000b54 <scheduler__panic>
    41000a94:	305292f3          	csrrw	x5,mtvec,x5
    41000a98:	18523023          	sd	x5,384(x4) # 180 <XLEN+0x140>
    41000a9c:	01f00293          	li	x5,31
    41000aa0:	18523823          	sd	x5,400(x4) # 190 <XLEN+0x150>
    41000aa4:	0010029b          	addiw	x5,x0,1
    41000aa8:	02029293          	slli	x5,x5,0x20
    41000aac:	ffe28293          	addi	x5,x5,-2
    41000ab0:	18523423          	sd	x5,392(x4) # 188 <XLEN+0x148>
    41000ab4:	00000317          	auipc	x6,0x0
    41000ab8:	32830313          	addi	x6,x6,808 # 41000ddc <scheduler__test_setup_ptr>
    41000abc:	00033303          	ld	x6,0(x6)
    41000ac0:	06c0006f          	j	41000b2c <scheduler__execute_test>

0000000041000ac4 <scheduler__dispatch>:
    41000ac4:	00000297          	auipc	x5,0x0
    41000ac8:	09028293          	addi	x5,x5,144 # 41000b54 <scheduler__panic>
    41000acc:	305292f3          	csrrw	x5,mtvec,x5
    41000ad0:	18523023          	sd	x5,384(x4) # 180 <XLEN+0x140>

0000000041000ad4 <scheduler__csr_read_randomization>:
    41000ad4:	143022f3          	csrr	x5,stval
    41000ad8:	141022f3          	csrr	x5,sepc
    41000adc:	104022f3          	csrr	x5,sie
    41000ae0:	304022f3          	csrr	x5,mie
    41000ae4:	105022f3          	csrr	x5,stvec
    41000ae8:	106022f3          	csrr	x5,scounteren
    41000aec:	342022f3          	csrr	x5,mcause

0000000041000af0 <scheduler__load_num_runs>:
    41000af0:	19023303          	ld	x6,400(x4) # 190 <XLEN+0x150>
    41000af4:	04030c63          	beqz	x6,41000b4c <scheduler__finished>

0000000041000af8 <scheduler__decrement_num_runs>:
    41000af8:	fff30393          	addi	x7,x6,-1
    41000afc:	18723823          	sd	x7,400(x4) # 190 <XLEN+0x150>
    41000b00:	00000e17          	auipc	x28,0x0
    41000b04:	260e0e13          	addi	x28,x28,608 # 41000d60 <dtest_index_map>
    41000b08:	00239e93          	slli	x29,x7,0x2
    41000b0c:	01de0e33          	add	x28,x28,x29
    41000b10:	000e2e03          	lw	x28,0(x28)
    41000b14:	19c23423          	sd	x28,392(x4) # 188 <XLEN+0x148>

0000000041000b18 <scheduler__calc_test_pointer>:
    41000b18:	00339293          	slli	x5,x7,0x3

0000000041000b1c <scheduler__load_test_addr>:
    41000b1c:	00000317          	auipc	x6,0x0
    41000b20:	04830313          	addi	x6,x6,72 # 41000b64 <os_test_sequence>
    41000b24:	006282b3          	add	x5,x5,x6
    41000b28:	0002b303          	ld	x6,0(x5)

0000000041000b2c <scheduler__execute_test>:
    41000b2c:	18023283          	ld	x5,384(x4) # 180 <XLEN+0x140>
    41000b30:	30529073          	csrw	mtvec,x5
    41000b34:	34021273          	csrrw	x4,mscratch,x4
    41000b38:	00000213          	li	x4,0
    41000b3c:	14131073          	csrw	sepc,x6
    41000b40:	10000293          	li	x5,256
    41000b44:	1002b073          	csrc	sstatus,x5
    41000b48:	10200073          	sret

0000000041000b4c <scheduler__finished>:
    41000b4c:	00100193          	li	x3,1
    41000b50:	ef1ff06f          	j	41000a40 <eot__end_test>

0000000041000b54 <scheduler__panic>:
    41000b54:	00000193          	li	x3,0
    41000b58:	ee9ff06f          	j	41000a40 <eot__end_test>

0000000041000b5c <num_runs>:
    41000b5c:	001f 0000 0000      	.insn	6, 0x001f
	...

0000000041000b64 <os_test_sequence>:
    41000b64:	5940                	.insn	2, 0x5940
    41000b66:	4101                	.insn	2, 0x4101
    41000b68:	0000                	.insn	2, 0x0000
    41000b6a:	0000                	.insn	2, 0x0000
    41000b6c:	57a8                	.insn	2, 0x57a8
    41000b6e:	4101                	.insn	2, 0x4101
    41000b70:	0000                	.insn	2, 0x0000
    41000b72:	0000                	.insn	2, 0x0000
    41000b74:	5544                	.insn	2, 0x5544
    41000b76:	4101                	.insn	2, 0x4101
    41000b78:	0000                	.insn	2, 0x0000
    41000b7a:	0000                	.insn	2, 0x0000
    41000b7c:	538c                	.insn	2, 0x538c
    41000b7e:	4101                	.insn	2, 0x4101
    41000b80:	0000                	.insn	2, 0x0000
    41000b82:	0000                	.insn	2, 0x0000
    41000b84:	538c                	.insn	2, 0x538c
    41000b86:	4101                	.insn	2, 0x4101
    41000b88:	0000                	.insn	2, 0x0000
    41000b8a:	0000                	.insn	2, 0x0000
    41000b8c:	56f4                	.insn	2, 0x56f4
    41000b8e:	4101                	.insn	2, 0x4101
    41000b90:	0000                	.insn	2, 0x0000
    41000b92:	0000                	.insn	2, 0x0000
    41000b94:	5040                	.insn	2, 0x5040
    41000b96:	4101                	.insn	2, 0x4101
    41000b98:	0000                	.insn	2, 0x0000
    41000b9a:	0000                	.insn	2, 0x0000
    41000b9c:	5170                	.insn	2, 0x5170
    41000b9e:	4101                	.insn	2, 0x4101
    41000ba0:	0000                	.insn	2, 0x0000
    41000ba2:	0000                	.insn	2, 0x0000
    41000ba4:	5884                	.insn	2, 0x5884
    41000ba6:	4101                	.insn	2, 0x4101
    41000ba8:	0000                	.insn	2, 0x0000
    41000baa:	0000                	.insn	2, 0x0000
    41000bac:	52a8                	.insn	2, 0x52a8
    41000bae:	4101                	.insn	2, 0x4101
    41000bb0:	0000                	.insn	2, 0x0000
    41000bb2:	0000                	.insn	2, 0x0000
    41000bb4:	55f8                	.insn	2, 0x55f8
    41000bb6:	4101                	.insn	2, 0x4101
    41000bb8:	0000                	.insn	2, 0x0000
    41000bba:	0000                	.insn	2, 0x0000
    41000bbc:	538c                	.insn	2, 0x538c
    41000bbe:	4101                	.insn	2, 0x4101
    41000bc0:	0000                	.insn	2, 0x0000
    41000bc2:	0000                	.insn	2, 0x0000
    41000bc4:	5884                	.insn	2, 0x5884
    41000bc6:	4101                	.insn	2, 0x4101
    41000bc8:	0000                	.insn	2, 0x0000
    41000bca:	0000                	.insn	2, 0x0000
    41000bcc:	5544                	.insn	2, 0x5544
    41000bce:	4101                	.insn	2, 0x4101
    41000bd0:	0000                	.insn	2, 0x0000
    41000bd2:	0000                	.insn	2, 0x0000
    41000bd4:	5448                	.insn	2, 0x5448
    41000bd6:	4101                	.insn	2, 0x4101
    41000bd8:	0000                	.insn	2, 0x0000
    41000bda:	0000                	.insn	2, 0x0000
    41000bdc:	5040                	.insn	2, 0x5040
    41000bde:	4101                	.insn	2, 0x4101
    41000be0:	0000                	.insn	2, 0x0000
    41000be2:	0000                	.insn	2, 0x0000
    41000be4:	55f8                	.insn	2, 0x55f8
    41000be6:	4101                	.insn	2, 0x4101
    41000be8:	0000                	.insn	2, 0x0000
    41000bea:	0000                	.insn	2, 0x0000
    41000bec:	56f4                	.insn	2, 0x56f4
    41000bee:	4101                	.insn	2, 0x4101
    41000bf0:	0000                	.insn	2, 0x0000
    41000bf2:	0000                	.insn	2, 0x0000
    41000bf4:	52a8                	.insn	2, 0x52a8
    41000bf6:	4101                	.insn	2, 0x4101
    41000bf8:	0000                	.insn	2, 0x0000
    41000bfa:	0000                	.insn	2, 0x0000
    41000bfc:	5448                	.insn	2, 0x5448
    41000bfe:	4101                	.insn	2, 0x4101
    41000c00:	0000                	.insn	2, 0x0000
    41000c02:	0000                	.insn	2, 0x0000
    41000c04:	56f4                	.insn	2, 0x56f4
    41000c06:	4101                	.insn	2, 0x4101
    41000c08:	0000                	.insn	2, 0x0000
    41000c0a:	0000                	.insn	2, 0x0000
    41000c0c:	5448                	.insn	2, 0x5448
    41000c0e:	4101                	.insn	2, 0x4101
    41000c10:	0000                	.insn	2, 0x0000
    41000c12:	0000                	.insn	2, 0x0000
    41000c14:	5544                	.insn	2, 0x5544
    41000c16:	4101                	.insn	2, 0x4101
    41000c18:	0000                	.insn	2, 0x0000
    41000c1a:	0000                	.insn	2, 0x0000
    41000c1c:	5170                	.insn	2, 0x5170
    41000c1e:	4101                	.insn	2, 0x4101
    41000c20:	0000                	.insn	2, 0x0000
    41000c22:	0000                	.insn	2, 0x0000
    41000c24:	52a8                	.insn	2, 0x52a8
    41000c26:	4101                	.insn	2, 0x4101
    41000c28:	0000                	.insn	2, 0x0000
    41000c2a:	0000                	.insn	2, 0x0000
    41000c2c:	5040                	.insn	2, 0x5040
    41000c2e:	4101                	.insn	2, 0x4101
    41000c30:	0000                	.insn	2, 0x0000
    41000c32:	0000                	.insn	2, 0x0000
    41000c34:	57a8                	.insn	2, 0x57a8
    41000c36:	4101                	.insn	2, 0x4101
    41000c38:	0000                	.insn	2, 0x0000
    41000c3a:	0000                	.insn	2, 0x0000
    41000c3c:	57a8                	.insn	2, 0x57a8
    41000c3e:	4101                	.insn	2, 0x4101
    41000c40:	0000                	.insn	2, 0x0000
    41000c42:	0000                	.insn	2, 0x0000
    41000c44:	5884                	.insn	2, 0x5884
    41000c46:	4101                	.insn	2, 0x4101
    41000c48:	0000                	.insn	2, 0x0000
    41000c4a:	0000                	.insn	2, 0x0000
    41000c4c:	55f8                	.insn	2, 0x55f8
    41000c4e:	4101                	.insn	2, 0x4101
    41000c50:	0000                	.insn	2, 0x0000
    41000c52:	0000                	.insn	2, 0x0000
    41000c54:	5170                	.insn	2, 0x5170
    41000c56:	4101                	.insn	2, 0x4101
    41000c58:	0000                	.insn	2, 0x0000
	...

0000000041000c5c <dtest_descriptor_table>:
    41000c5c:	0cac                	.insn	2, 0x0cac
    41000c5e:	4100                	.insn	2, 0x4100
    41000c60:	0000                	.insn	2, 0x0000
    41000c62:	0000                	.insn	2, 0x0000
    41000c64:	0cba                	.insn	2, 0x0cba
    41000c66:	4100                	.insn	2, 0x4100
    41000c68:	0000                	.insn	2, 0x0000
    41000c6a:	0000                	.insn	2, 0x0000
    41000c6c:	0cc8                	.insn	2, 0x0cc8
    41000c6e:	4100                	.insn	2, 0x4100
    41000c70:	0000                	.insn	2, 0x0000
    41000c72:	0000                	.insn	2, 0x0000
    41000c74:	0cd8                	.insn	2, 0x0cd8
    41000c76:	4100                	.insn	2, 0x4100
    41000c78:	0000                	.insn	2, 0x0000
    41000c7a:	0000                	.insn	2, 0x0000
    41000c7c:	0ce8                	.insn	2, 0x0ce8
    41000c7e:	4100                	.insn	2, 0x4100
    41000c80:	0000                	.insn	2, 0x0000
    41000c82:	0000                	.insn	2, 0x0000
    41000c84:	0cfe                	.insn	2, 0x0cfe
    41000c86:	4100                	.insn	2, 0x4100
    41000c88:	0000                	.insn	2, 0x0000
    41000c8a:	0000                	.insn	2, 0x0000
    41000c8c:	0d14                	.insn	2, 0x0d14
    41000c8e:	4100                	.insn	2, 0x4100
    41000c90:	0000                	.insn	2, 0x0000
    41000c92:	0000                	.insn	2, 0x0000
    41000c94:	0d24                	.insn	2, 0x0d24
    41000c96:	4100                	.insn	2, 0x4100
    41000c98:	0000                	.insn	2, 0x0000
    41000c9a:	0000                	.insn	2, 0x0000
    41000c9c:	0d34                	.insn	2, 0x0d34
    41000c9e:	4100                	.insn	2, 0x4100
    41000ca0:	0000                	.insn	2, 0x0000
    41000ca2:	0000                	.insn	2, 0x0000
    41000ca4:	0d4a                	.insn	2, 0x0d4a
    41000ca6:	4100                	.insn	2, 0x4100
    41000ca8:	0000                	.insn	2, 0x0000
	...

0000000041000cac <dtest_name_0>:
    41000cac:	5f444953          	.insn	4, 0x5f444953
    41000cb0:	415a                	.insn	2, 0x415a
    41000cb2:	3436                	.insn	2, 0x3436
    41000cb4:	5352                	.insn	2, 0x5352
    41000cb6:	305f 0031       	.insn	6, 0x49530031305f

0000000041000cba <dtest_name_1>:
    41000cba:	5f444953          	.insn	4, 0x5f444953
    41000cbe:	415a                	.insn	2, 0x415a
    41000cc0:	3436                	.insn	2, 0x3436
    41000cc2:	5352                	.insn	2, 0x5352
    41000cc4:	305f 0032       	.insn	6, 0x49530032305f

0000000041000cc8 <dtest_name_2>:
    41000cc8:	5f444953          	.insn	4, 0x5f444953
    41000ccc:	415a                	.insn	2, 0x415a
    41000cce:	3436                	.insn	2, 0x3436
    41000cd0:	5352                	.insn	2, 0x5352
    41000cd2:	305f 5f33 0077      	.insn	6, 0x00775f33305f

0000000041000cd8 <dtest_name_3>:
    41000cd8:	5f444953          	.insn	4, 0x5f444953
    41000cdc:	415a                	.insn	2, 0x415a
    41000cde:	3436                	.insn	2, 0x3436
    41000ce0:	5352                	.insn	2, 0x5352
    41000ce2:	305f 5f33 0064      	.insn	6, 0x00645f33305f

0000000041000ce8 <dtest_name_4>:
    41000ce8:	5f444953          	.insn	4, 0x5f444953
    41000cec:	415a                	.insn	2, 0x415a
    41000cee:	3436                	.insn	2, 0x3436
    41000cf0:	5352                	.insn	2, 0x5352
    41000cf2:	305f 5f33 726c      	.insn	6, 0x726c5f33305f
    41000cf8:	63735f77          	.insn	4, 0x63735f77
    41000cfc:	0064                	.insn	2, 0x0064

0000000041000cfe <dtest_name_5>:
    41000cfe:	5f444953          	.insn	4, 0x5f444953
    41000d02:	415a                	.insn	2, 0x415a
    41000d04:	3436                	.insn	2, 0x3436
    41000d06:	5352                	.insn	2, 0x5352
    41000d08:	305f 5f33 726c      	.insn	6, 0x726c5f33305f
    41000d0e:	5f64                	.insn	2, 0x5f64
    41000d10:	00776373          	csrrsi	x6,0x7,14

0000000041000d14 <dtest_name_6>:
    41000d14:	5f444953          	.insn	4, 0x5f444953
    41000d18:	415a                	.insn	2, 0x415a
    41000d1a:	3436                	.insn	2, 0x3436
    41000d1c:	5352                	.insn	2, 0x5352
    41000d1e:	305f 5f35 0077      	.insn	6, 0x00775f35305f

0000000041000d24 <dtest_name_7>:
    41000d24:	5f444953          	.insn	4, 0x5f444953
    41000d28:	415a                	.insn	2, 0x415a
    41000d2a:	3436                	.insn	2, 0x3436
    41000d2c:	5352                	.insn	2, 0x5352
    41000d2e:	305f 5f35 0064      	.insn	6, 0x00645f35305f

0000000041000d34 <dtest_name_8>:
    41000d34:	5f444953          	.insn	4, 0x5f444953
    41000d38:	415a                	.insn	2, 0x415a
    41000d3a:	3436                	.insn	2, 0x3436
    41000d3c:	5352                	.insn	2, 0x5352
    41000d3e:	305f 5f34 726c      	.insn	6, 0x726c5f34305f
    41000d44:	63735f77          	.insn	4, 0x63735f77
    41000d48:	0064                	.insn	2, 0x0064

0000000041000d4a <dtest_name_9>:
    41000d4a:	5f444953          	.insn	4, 0x5f444953
    41000d4e:	415a                	.insn	2, 0x415a
    41000d50:	3436                	.insn	2, 0x3436
    41000d52:	5352                	.insn	2, 0x5352
    41000d54:	305f 5f34 726c      	.insn	6, 0x726c5f34305f
    41000d5a:	5f64                	.insn	2, 0x5f64
    41000d5c:	00776373          	csrrsi	x6,0x7,14

0000000041000d60 <dtest_index_map>:
    41000d60:	ffff                	.insn	2, 0xffff
    41000d62:	ffff                	.insn	2, 0xffff
    41000d64:	0008                	.insn	2, 0x0008
    41000d66:	0000                	.insn	2, 0x0000
    41000d68:	0005                	.insn	2, 0x0005
    41000d6a:	0000                	.insn	2, 0x0000
    41000d6c:	00000003          	lb	x0,0(x0) # 0 <ALL_4KB_PAGES>
    41000d70:	00000003          	lb	x0,0(x0) # 0 <ALL_4KB_PAGES>
    41000d74:	00000007          	vle8.v	v0,(x0),v0.t
    41000d78:	0000                	.insn	2, 0x0000
    41000d7a:	0000                	.insn	2, 0x0000
    41000d7c:	0001                	.insn	2, 0x0001
    41000d7e:	0000                	.insn	2, 0x0000
    41000d80:	0009                	.insn	2, 0x0009
    41000d82:	0000                	.insn	2, 0x0000
    41000d84:	0002                	.insn	2, 0x0002
    41000d86:	0000                	.insn	2, 0x0000
    41000d88:	0006                	.insn	2, 0x0006
    41000d8a:	0000                	.insn	2, 0x0000
    41000d8c:	00000003          	lb	x0,0(x0) # 0 <ALL_4KB_PAGES>
    41000d90:	0009                	.insn	2, 0x0009
    41000d92:	0000                	.insn	2, 0x0000
    41000d94:	0005                	.insn	2, 0x0005
    41000d96:	0000                	.insn	2, 0x0000
    41000d98:	0004                	.insn	2, 0x0004
    41000d9a:	0000                	.insn	2, 0x0000
    41000d9c:	0000                	.insn	2, 0x0000
    41000d9e:	0000                	.insn	2, 0x0000
    41000da0:	0006                	.insn	2, 0x0006
    41000da2:	0000                	.insn	2, 0x0000
    41000da4:	00000007          	vle8.v	v0,(x0),v0.t
    41000da8:	0002                	.insn	2, 0x0002
    41000daa:	0000                	.insn	2, 0x0000
    41000dac:	0004                	.insn	2, 0x0004
    41000dae:	0000                	.insn	2, 0x0000
    41000db0:	00000007          	vle8.v	v0,(x0),v0.t
    41000db4:	0004                	.insn	2, 0x0004
    41000db6:	0000                	.insn	2, 0x0000
    41000db8:	0005                	.insn	2, 0x0005
    41000dba:	0000                	.insn	2, 0x0000
    41000dbc:	0001                	.insn	2, 0x0001
    41000dbe:	0000                	.insn	2, 0x0000
    41000dc0:	0002                	.insn	2, 0x0002
    41000dc2:	0000                	.insn	2, 0x0000
    41000dc4:	0000                	.insn	2, 0x0000
    41000dc6:	0000                	.insn	2, 0x0000
    41000dc8:	0008                	.insn	2, 0x0008
    41000dca:	0000                	.insn	2, 0x0000
    41000dcc:	0008                	.insn	2, 0x0008
    41000dce:	0000                	.insn	2, 0x0000
    41000dd0:	0009                	.insn	2, 0x0009
    41000dd2:	0000                	.insn	2, 0x0000
    41000dd4:	0006                	.insn	2, 0x0006
    41000dd6:	0000                	.insn	2, 0x0000
    41000dd8:	0001                	.insn	2, 0x0001
	...

0000000041000ddc <scheduler__test_setup_ptr>:
    41000ddc:	5030                	.insn	2, 0x5030
    41000dde:	4101                	.insn	2, 0x4101
    41000de0:	0000                	.insn	2, 0x0000
	...

0000000041000de4 <scheduler__test_cleanup_ptr>:
    41000de4:	5940                	.insn	2, 0x5940
    41000de6:	4101                	.insn	2, 0x4101
    41000de8:	0000                	.insn	2, 0x0000
	...

Disassembly of section .runtime_s:

0000000041011000 <trap_handler_s__invalid_interrupt>:
    41011000:	1740006f          	j	41011174 <trap_handler_s__test_failed>

0000000041011004 <trap_handler_s__clear_all_interrupts>:
    41011004:	14401073          	csrw	sip,x0
    41011008:	10200073          	sret

000000004101100c <trap_handler_s___CLEAR_SSI>:
    4101100c:	00200293          	li	x5,2
    41011010:	1442b073          	csrc	sip,x5
    41011014:	10200073          	sret

0000000041011018 <trap_handler_s___CLEAR_MSI>:
    41011018:	00800293          	li	x5,8
    4101101c:	1442b073          	csrc	sip,x5
    41011020:	10200073          	sret

0000000041011024 <trap_handler_s___CLEAR_STI>:
    41011024:	02000293          	li	x5,32
    41011028:	1442b073          	csrc	sip,x5
    4101102c:	10200073          	sret

0000000041011030 <trap_handler_s___CLEAR_MTI>:
    41011030:	08000293          	li	x5,128
    41011034:	1442b073          	csrc	sip,x5
    41011038:	10200073          	sret

000000004101103c <trap_handler_s___CLEAR_SEI>:
    4101103c:	20000293          	li	x5,512
    41011040:	1442b073          	csrc	sip,x5
    41011044:	10200073          	sret

0000000041011048 <trap_handler_s___CLEAR_MEI>:
    41011048:	000012b7          	lui	x5,0x1
    4101104c:	8002829b          	addiw	x5,x5,-2048 # 800 <XLEN+0x7c0>
    41011050:	1442b073          	csrc	sip,x5
    41011054:	10200073          	sret

0000000041011058 <trap_handler_s___CLEAR_COI>:
    41011058:	000022b7          	lui	x5,0x2
    4101105c:	1442b073          	csrc	sip,x5
    41011060:	10200073          	sret

0000000041011064 <trap_handler_s__clear_highest_priority_interrupt>:
    41011064:	144022f3          	csrr	x5,sip
    41011068:	40500333          	neg	x6,x5
    4101106c:	0062f2b3          	and	x5,x5,x6
    41011070:	1442b073          	csrc	sip,x5
    41011074:	10200073          	sret

0000000041011078 <trap_handler_s__trap_entry>:
    41011078:	10c0006f          	j	41011184 <trap_handler_s__trap_handler>

000000004101107c <trap_handler_s__interrupt_vector_table>:
    4101107c:	f91ff06f          	j	4101100c <trap_handler_s___CLEAR_SSI>
    41011080:	f81ff06f          	j	41011000 <trap_handler_s__invalid_interrupt>
    41011084:	f95ff06f          	j	41011018 <trap_handler_s___CLEAR_MSI>
    41011088:	f79ff06f          	j	41011000 <trap_handler_s__invalid_interrupt>
    4101108c:	f99ff06f          	j	41011024 <trap_handler_s___CLEAR_STI>
    41011090:	f71ff06f          	j	41011000 <trap_handler_s__invalid_interrupt>
    41011094:	f9dff06f          	j	41011030 <trap_handler_s___CLEAR_MTI>
    41011098:	f69ff06f          	j	41011000 <trap_handler_s__invalid_interrupt>
    4101109c:	fa1ff06f          	j	4101103c <trap_handler_s___CLEAR_SEI>
    410110a0:	f61ff06f          	j	41011000 <trap_handler_s__invalid_interrupt>
    410110a4:	fa5ff06f          	j	41011048 <trap_handler_s___CLEAR_MEI>
    410110a8:	f59ff06f          	j	41011000 <trap_handler_s__invalid_interrupt>
    410110ac:	fadff06f          	j	41011058 <trap_handler_s___CLEAR_COI>
    410110b0:	f51ff06f          	j	41011000 <trap_handler_s__invalid_interrupt>
    410110b4:	f4dff06f          	j	41011000 <trap_handler_s__invalid_interrupt>
    410110b8:	fadff06f          	j	41011064 <trap_handler_s__clear_highest_priority_interrupt>
    410110bc:	fa9ff06f          	j	41011064 <trap_handler_s__clear_highest_priority_interrupt>
    410110c0:	fa5ff06f          	j	41011064 <trap_handler_s__clear_highest_priority_interrupt>
    410110c4:	fa1ff06f          	j	41011064 <trap_handler_s__clear_highest_priority_interrupt>
    410110c8:	f9dff06f          	j	41011064 <trap_handler_s__clear_highest_priority_interrupt>
    410110cc:	f99ff06f          	j	41011064 <trap_handler_s__clear_highest_priority_interrupt>
    410110d0:	f95ff06f          	j	41011064 <trap_handler_s__clear_highest_priority_interrupt>
    410110d4:	f91ff06f          	j	41011064 <trap_handler_s__clear_highest_priority_interrupt>
    410110d8:	f8dff06f          	j	41011064 <trap_handler_s__clear_highest_priority_interrupt>
    410110dc:	f89ff06f          	j	41011064 <trap_handler_s__clear_highest_priority_interrupt>
    410110e0:	f85ff06f          	j	41011064 <trap_handler_s__clear_highest_priority_interrupt>
    410110e4:	f81ff06f          	j	41011064 <trap_handler_s__clear_highest_priority_interrupt>
    410110e8:	f7dff06f          	j	41011064 <trap_handler_s__clear_highest_priority_interrupt>
    410110ec:	f79ff06f          	j	41011064 <trap_handler_s__clear_highest_priority_interrupt>
    410110f0:	f75ff06f          	j	41011064 <trap_handler_s__clear_highest_priority_interrupt>
    410110f4:	f71ff06f          	j	41011064 <trap_handler_s__clear_highest_priority_interrupt>
    410110f8:	f6dff06f          	j	41011064 <trap_handler_s__clear_highest_priority_interrupt>
    410110fc:	f69ff06f          	j	41011064 <trap_handler_s__clear_highest_priority_interrupt>
    41011100:	f65ff06f          	j	41011064 <trap_handler_s__clear_highest_priority_interrupt>
    41011104:	f61ff06f          	j	41011064 <trap_handler_s__clear_highest_priority_interrupt>
    41011108:	f5dff06f          	j	41011064 <trap_handler_s__clear_highest_priority_interrupt>
    4101110c:	f59ff06f          	j	41011064 <trap_handler_s__clear_highest_priority_interrupt>
    41011110:	f55ff06f          	j	41011064 <trap_handler_s__clear_highest_priority_interrupt>
    41011114:	f51ff06f          	j	41011064 <trap_handler_s__clear_highest_priority_interrupt>
    41011118:	f4dff06f          	j	41011064 <trap_handler_s__clear_highest_priority_interrupt>
    4101111c:	f49ff06f          	j	41011064 <trap_handler_s__clear_highest_priority_interrupt>
    41011120:	f45ff06f          	j	41011064 <trap_handler_s__clear_highest_priority_interrupt>
    41011124:	f41ff06f          	j	41011064 <trap_handler_s__clear_highest_priority_interrupt>
    41011128:	f3dff06f          	j	41011064 <trap_handler_s__clear_highest_priority_interrupt>
    4101112c:	f39ff06f          	j	41011064 <trap_handler_s__clear_highest_priority_interrupt>
    41011130:	f35ff06f          	j	41011064 <trap_handler_s__clear_highest_priority_interrupt>
    41011134:	f31ff06f          	j	41011064 <trap_handler_s__clear_highest_priority_interrupt>
    41011138:	f2dff06f          	j	41011064 <trap_handler_s__clear_highest_priority_interrupt>
    4101113c:	f29ff06f          	j	41011064 <trap_handler_s__clear_highest_priority_interrupt>
    41011140:	f25ff06f          	j	41011064 <trap_handler_s__clear_highest_priority_interrupt>
    41011144:	f21ff06f          	j	41011064 <trap_handler_s__clear_highest_priority_interrupt>
    41011148:	f1dff06f          	j	41011064 <trap_handler_s__clear_highest_priority_interrupt>
    4101114c:	f19ff06f          	j	41011064 <trap_handler_s__clear_highest_priority_interrupt>
    41011150:	f15ff06f          	j	41011064 <trap_handler_s__clear_highest_priority_interrupt>
    41011154:	f11ff06f          	j	41011064 <trap_handler_s__clear_highest_priority_interrupt>
    41011158:	f0dff06f          	j	41011064 <trap_handler_s__clear_highest_priority_interrupt>
    4101115c:	f09ff06f          	j	41011064 <trap_handler_s__clear_highest_priority_interrupt>
    41011160:	f05ff06f          	j	41011064 <trap_handler_s__clear_highest_priority_interrupt>
    41011164:	f01ff06f          	j	41011064 <trap_handler_s__clear_highest_priority_interrupt>
    41011168:	efdff06f          	j	41011064 <trap_handler_s__clear_highest_priority_interrupt>
    4101116c:	ef9ff06f          	j	41011064 <trap_handler_s__clear_highest_priority_interrupt>
    41011170:	ef5ff06f          	j	41011064 <trap_handler_s__clear_highest_priority_interrupt>

0000000041011174 <trap_handler_s__test_failed>:
    41011174:	00f00f9b          	addiw	x31,x0,15
    41011178:	01cf9f93          	slli	x31,x31,0x1c
    4101117c:	002f8f93          	addi	x31,x31,2
    41011180:	00000073          	ecall

0000000041011184 <trap_handler_s__trap_handler>:
    41011184:	142022f3          	csrr	x5,scause
    41011188:	fff0031b          	addiw	x6,x0,-1
    4101118c:	03f31313          	slli	x6,x6,0x3f
    41011190:	00537333          	and	x6,x6,x5
    41011194:	02030263          	beqz	x6,410111b8 <trap_handler_s__exception_path>

0000000041011198 <trap_handler_s__interrupt_handler>:
    41011198:	fff0031b          	addiw	x6,x0,-1
    4101119c:	03f31313          	slli	x6,x6,0x3f
    410111a0:	0062c2b3          	xor	x5,x5,x6
    410111a4:	00000317          	auipc	x6,0x0
    410111a8:	ed430313          	addi	x6,x6,-300 # 41011078 <trap_handler_s__trap_entry>
    410111ac:	00229293          	slli	x5,x5,0x2
    410111b0:	005302b3          	add	x5,x6,x5
    410111b4:	00028067          	jr	x5 # 2000 <mem5>

00000000410111b8 <trap_handler_s__exception_path>:
    410111b8:	14021273          	csrrw	x4,sscratch,x4
    410111bc:	00000297          	auipc	x5,0x0
    410111c0:	0cc28293          	addi	x5,x5,204 # 41011288 <trap_handler_s__trap_panic>
    410111c4:	10529073          	csrw	stvec,x5
    410111c8:	0040006f          	j	410111cc <trap_handler_s__excp_entry>

00000000410111cc <trap_handler_s__excp_entry>:
    410111cc:	14202373          	csrr	x6,scause
    410111d0:	00800293          	li	x5,8
    410111d4:	00534863          	blt	x6,x5,410111e4 <trap_handler_s__check_exception_label>
    410111d8:	00b00293          	li	x5,11
    410111dc:	0062c463          	blt	x5,x6,410111e4 <trap_handler_s__check_exception_label>
    410111e0:	0a80006f          	j	41011288 <trap_handler_s__trap_panic>

00000000410111e4 <trap_handler_s__check_exception_label>:
    410111e4:	04623c23          	sd	x6,88(x4) # 58 <XLEN+0x18>
    410111e8:	141022f3          	csrr	x5,sepc
    410111ec:	02523423          	sd	x5,40(x4) # 28 <SECURE_ACCESS_PROBABILITY+0xa>
    410111f0:	01820283          	lb	x5,24(x4) # 18 <STORE_GUEST_PAGE_FAULT+0x1>
    410111f4:	00029863          	bnez	x5,41011204 <trap_handler_s__check_excp>
    410111f8:	00128293          	addi	x5,x5,1
    410111fc:	00520c23          	sb	x5,24(x4) # 18 <STORE_GUEST_PAGE_FAULT+0x1>
    41011200:	05c0006f          	j	4101125c <trap_handler_s__ecall_from_machine>

0000000041011204 <trap_handler_s__check_excp>:
    41011204:	06823283          	ld	x5,104(x4) # 68 <XLEN+0x28>
    41011208:	06023423          	sd	x0,104(x4) # 68 <XLEN+0x28>
    4101120c:	00028663          	beqz	x5,41011218 <trap_handler_s__skip_mode_check>
    41011210:	00300393          	li	x7,3
    41011214:	f67290e3          	bne	x5,x7,41011174 <trap_handler_s__test_failed>

0000000041011218 <trap_handler_s__skip_mode_check>:
    41011218:	05023283          	ld	x5,80(x4) # 50 <XLEN+0x10>
    4101121c:	04023823          	sd	x0,80(x4) # 50 <XLEN+0x10>
    41011220:	f4531ae3          	bne	x6,x5,41011174 <trap_handler_s__test_failed>
    41011224:	03823283          	ld	x5,56(x4) # 38 <SECURE_ACCESS_PROBABILITY+0x1a>
    41011228:	02023c23          	sd	x0,56(x4) # 38 <SECURE_ACCESS_PROBABILITY+0x1a>
    4101122c:	02029663          	bnez	x5,41011258 <trap_handler_s__skip_nonzero_tval_check>
    41011230:	02023303          	ld	x6,32(x4) # 20 <SECURE_ACCESS_PROBABILITY+0x2>
    41011234:	02023023          	sd	x0,32(x4) # 20 <SECURE_ACCESS_PROBABILITY+0x2>
    41011238:	02823283          	ld	x5,40(x4) # 28 <SECURE_ACCESS_PROBABILITY+0xa>
    4101123c:	02023423          	sd	x0,40(x4) # 28 <SECURE_ACCESS_PROBABILITY+0xa>
    41011240:	f2531ae3          	bne	x6,x5,41011174 <trap_handler_s__test_failed>
    41011244:	04023283          	ld	x5,64(x4) # 40 <XLEN>
    41011248:	04023023          	sd	x0,64(x4) # 40 <XLEN>
    4101124c:	00028663          	beqz	x5,41011258 <trap_handler_s__skip_nonzero_tval_check>

0000000041011250 <trap_handler_s__nonzero_tval_check>:
    41011250:	14302373          	csrr	x6,stval
    41011254:	f25310e3          	bne	x6,x5,41011174 <trap_handler_s__test_failed>

0000000041011258 <trap_handler_s__skip_nonzero_tval_check>:
    41011258:	0040006f          	j	4101125c <trap_handler_s__ecall_from_machine>

000000004101125c <trap_handler_s__ecall_from_machine>:
    4101125c:	03023283          	ld	x5,48(x4) # 30 <SECURE_ACCESS_PROBABILITY+0x12>
    41011260:	02023823          	sd	x0,48(x4) # 30 <SECURE_ACCESS_PROBABILITY+0x12>
    41011264:	07023303          	ld	x6,112(x4) # 70 <XLEN+0x30>
    41011268:	06023823          	sd	x0,112(x4) # 70 <XLEN+0x30>
    4101126c:	00031463          	bnez	x6,41011274 <trap_handler_s__skip_xepc_write>
    41011270:	14129073          	csrw	sepc,x5

0000000041011274 <trap_handler_s__skip_xepc_write>:
    41011274:	00000317          	auipc	x6,0x0
    41011278:	e0430313          	addi	x6,x6,-508 # 41011078 <trap_handler_s__trap_entry>
    4101127c:	10531073          	csrw	stvec,x6
    41011280:	14021273          	csrrw	x4,sscratch,x4
    41011284:	10200073          	sret

0000000041011288 <trap_handler_s__trap_panic>:
    41011288:	00000193          	li	x3,0
    4101128c:	00f00f9b          	addiw	x31,x0,15
    41011290:	01cf9f93          	slli	x31,x31,0x1c
    41011294:	002f8f93          	addi	x31,x31,2
    41011298:	00000073          	ecall

Disassembly of section .code:

0000000041015000 <passed>:
    41015000:	00f00f9b          	addiw	x31,x0,15
    41015004:	01cf9f93          	slli	x31,x31,0x1c
    41015008:	001f8f93          	addi	x31,x31,1
    4101500c:	00000073          	ecall

0000000041015010 <failed>:
    41015010:	00f00f9b          	addiw	x31,x0,15
    41015014:	01cf9f93          	slli	x31,x31,0x1c
    41015018:	002f8f93          	addi	x31,x31,2
    4101501c:	00000073          	ecall

0000000041015020 <end_test>:
    41015020:	00f00f9b          	addiw	x31,x0,15
    41015024:	01cf9f93          	slli	x31,x31,0x1c
    41015028:	003f8f93          	addi	x31,x31,3
    4101502c:	00000073          	ecall

0000000041015030 <test_setup>:
    41015030:	00f00f9b          	addiw	x31,x0,15
    41015034:	01cf9f93          	slli	x31,x31,0x1c
    41015038:	001f8f93          	addi	x31,x31,1
    4101503c:	00000073          	ecall

0000000041015040 <SID_ZA64RS_01>:
    41015040:	01f7f137          	lui	x2,0x1f7f
    41015044:	66f1011b          	addiw	x2,x2,1647 # 1f7f66f <mem7+0xa9366f>
    41015048:	00d11113          	slli	x2,x2,0xd
    4101504c:	000012b7          	lui	x5,0x1
    41015050:	00510133          	add	x2,x2,x5
    41015054:	ff017113          	andi	x2,x2,-16
    41015058:	14460237          	lui	x4,0x14460
    4101505c:	56b2021b          	addiw	x4,x4,1387 # 1446056b <mem0+0x836a56b>
    41015060:	00d21213          	slli	x4,x4,0xd
    41015064:	00500e13          	li	x28,5
    41015068:	05c23823          	sd	x28,80(x4) # 50 <XLEN+0x10>
    4101506c:	00000e17          	auipc	x28,0x0
    41015070:	054e0e13          	addi	x28,x28,84 # 410150c0 <fault_label_0>
    41015074:	03c23023          	sd	x28,32(x4) # 20 <SECURE_ACCESS_PROBABILITY+0x2>
    41015078:	00000e13          	li	x28,0
    4101507c:	05c23023          	sd	x28,64(x4) # 40 <XLEN>
    41015080:	00000e13          	li	x28,0
    41015084:	05c23423          	sd	x28,72(x4) # 48 <XLEN+0x8>
    41015088:	00000e17          	auipc	x28,0x0
    4101508c:	054e0e13          	addi	x28,x28,84 # 410150dc <excp_return_label_0>
    41015090:	03c23823          	sd	x28,48(x4) # 30 <SECURE_ACCESS_PROBABILITY+0x12>
    41015094:	00000e13          	li	x28,0
    41015098:	03c23c23          	sd	x28,56(x4) # 38 <SECURE_ACCESS_PROBABILITY+0x1a>
    4101509c:	00000e13          	li	x28,0
    410150a0:	07c23023          	sd	x28,96(x4) # 60 <XLEN+0x20>
    410150a4:	00000e13          	li	x28,0
    410150a8:	07c23423          	sd	x28,104(x4) # 68 <XLEN+0x28>
    410150ac:	00000e13          	li	x28,0
    410150b0:	07c23823          	sd	x28,112(x4) # 70 <XLEN+0x30>
    410150b4:	0c0f6fb7          	lui	x31,0xc0f6
    410150b8:	00100f13          	li	x30,1
    410150bc:	01ef8433          	add	x8,x31,x30

00000000410150c0 <fault_label_0>:
    410150c0:	100427af          	lr.w	x15,(x8)
    410150c4:	0d37a537          	lui	x10,0xd37a
    410150c8:	c715051b          	addiw	x10,x10,-911 # d379c71 <mem0+0x1283c71>
    410150cc:	00d51513          	slli	x10,x10,0xd
    410150d0:	00850513          	addi	x10,x10,8
    410150d4:	00053c03          	ld	x24,0(x10)
    410150d8:	000c0067          	jr	x24

00000000410150dc <excp_return_label_0>:
    410150dc:	14460237          	lui	x4,0x14460
    410150e0:	56b2021b          	addiw	x4,x4,1387 # 1446056b <mem0+0x836a56b>
    410150e4:	00d21213          	slli	x4,x4,0xd
    410150e8:	00500e13          	li	x28,5
    410150ec:	05c23823          	sd	x28,80(x4) # 50 <XLEN+0x10>
    410150f0:	00000e17          	auipc	x28,0x0
    410150f4:	054e0e13          	addi	x28,x28,84 # 41015144 <fault_label_1>
    410150f8:	03c23023          	sd	x28,32(x4) # 20 <SECURE_ACCESS_PROBABILITY+0x2>
    410150fc:	00000e13          	li	x28,0
    41015100:	05c23023          	sd	x28,64(x4) # 40 <XLEN>
    41015104:	00000e13          	li	x28,0
    41015108:	05c23423          	sd	x28,72(x4) # 48 <XLEN+0x8>
    4101510c:	00000e17          	auipc	x28,0x0
    41015110:	054e0e13          	addi	x28,x28,84 # 41015160 <SID_ZA64RS_01_passed>
    41015114:	03c23823          	sd	x28,48(x4) # 30 <SECURE_ACCESS_PROBABILITY+0x12>
    41015118:	00000e13          	li	x28,0
    4101511c:	03c23c23          	sd	x28,56(x4) # 38 <SECURE_ACCESS_PROBABILITY+0x1a>
    41015120:	00000e13          	li	x28,0
    41015124:	07c23023          	sd	x28,96(x4) # 60 <XLEN+0x20>
    41015128:	00000e13          	li	x28,0
    4101512c:	07c23423          	sd	x28,104(x4) # 68 <XLEN+0x28>
    41015130:	00000e13          	li	x28,0
    41015134:	07c23823          	sd	x28,112(x4) # 70 <XLEN+0x30>
    41015138:	0c0f6537          	lui	x10,0xc0f6
    4101513c:	00100b93          	li	x23,1
    41015140:	01750d33          	add	x26,x10,x23

0000000041015144 <fault_label_1>:
    41015144:	100d342f          	lr.d	x8,(x26)
    41015148:	0d37aab7          	lui	x21,0xd37a
    4101514c:	c71a8a9b          	addiw	x21,x21,-911 # d379c71 <mem0+0x1283c71>
    41015150:	00da9a93          	slli	x21,x21,0xd
    41015154:	008a8a93          	addi	x21,x21,8
    41015158:	000aba83          	ld	x21,0(x21)
    4101515c:	000a8067          	jr	x21

0000000041015160 <SID_ZA64RS_01_passed>:
    41015160:	00f00f9b          	addiw	x31,x0,15
    41015164:	01cf9f93          	slli	x31,x31,0x1c
    41015168:	001f8f93          	addi	x31,x31,1 # c0f6001 <mem0+0x1>
    4101516c:	00000073          	ecall

0000000041015170 <SID_ZA64RS_02>:
    41015170:	23e32137          	lui	x2,0x23e32
    41015174:	000012b7          	lui	x5,0x1
    41015178:	00510133          	add	x2,x2,x5
    4101517c:	ff017113          	andi	x2,x2,-16
    41015180:	14460237          	lui	x4,0x14460
    41015184:	56b2021b          	addiw	x4,x4,1387 # 1446056b <mem0+0x836a56b>
    41015188:	00d21213          	slli	x4,x4,0xd
    4101518c:	00700e13          	li	x28,7
    41015190:	05c23823          	sd	x28,80(x4) # 50 <XLEN+0x10>
    41015194:	00000e17          	auipc	x28,0x0
    41015198:	05ce0e13          	addi	x28,x28,92 # 410151f0 <fault_label_2>
    4101519c:	03c23023          	sd	x28,32(x4) # 20 <SECURE_ACCESS_PROBABILITY+0x2>
    410151a0:	00000e13          	li	x28,0
    410151a4:	05c23023          	sd	x28,64(x4) # 40 <XLEN>
    410151a8:	00000e13          	li	x28,0
    410151ac:	05c23423          	sd	x28,72(x4) # 48 <XLEN+0x8>
    410151b0:	00000e17          	auipc	x28,0x0
    410151b4:	05ce0e13          	addi	x28,x28,92 # 4101520c <excp_return_label_2>
    410151b8:	03c23823          	sd	x28,48(x4) # 30 <SECURE_ACCESS_PROBABILITY+0x12>
    410151bc:	00000e13          	li	x28,0
    410151c0:	03c23c23          	sd	x28,56(x4) # 38 <SECURE_ACCESS_PROBABILITY+0x1a>
    410151c4:	00000e13          	li	x28,0
    410151c8:	07c23023          	sd	x28,96(x4) # 60 <XLEN+0x20>
    410151cc:	00000e13          	li	x28,0
    410151d0:	07c23423          	sd	x28,104(x4) # 68 <XLEN+0x28>
    410151d4:	00000e13          	li	x28,0
    410151d8:	07c23823          	sd	x28,112(x4) # 70 <XLEN+0x30>
    410151dc:	1cc52ab7          	lui	x21,0x1cc52
    410151e0:	00100313          	li	x6,1
    410151e4:	006a89b3          	add	x19,x21,x6
    410151e8:	35bfab37          	lui	x22,0x35bfa
    410151ec:	930b0b1b          	addiw	x22,x22,-1744 # 35bf9930 <SID_ZA64RS_02_stack+0x11dc7930>

00000000410151f0 <fault_label_2>:
    410151f0:	1969aeaf          	sc.w	x29,x22,(x19)
    410151f4:	0d37ab37          	lui	x22,0xd37a
    410151f8:	c71b0b1b          	addiw	x22,x22,-911 # d379c71 <mem0+0x1283c71>
    410151fc:	00db1b13          	slli	x22,x22,0xd
    41015200:	008b0b13          	addi	x22,x22,8
    41015204:	000b3e83          	ld	x29,0(x22)
    41015208:	000e8067          	jr	x29

000000004101520c <excp_return_label_2>:
    4101520c:	14460237          	lui	x4,0x14460
    41015210:	56b2021b          	addiw	x4,x4,1387 # 1446056b <mem0+0x836a56b>
    41015214:	00d21213          	slli	x4,x4,0xd
    41015218:	00700e13          	li	x28,7
    4101521c:	05c23823          	sd	x28,80(x4) # 50 <XLEN+0x10>
    41015220:	00000e17          	auipc	x28,0x0
    41015224:	05ce0e13          	addi	x28,x28,92 # 4101527c <fault_label_3>
    41015228:	03c23023          	sd	x28,32(x4) # 20 <SECURE_ACCESS_PROBABILITY+0x2>
    4101522c:	00000e13          	li	x28,0
    41015230:	05c23023          	sd	x28,64(x4) # 40 <XLEN>
    41015234:	00000e13          	li	x28,0
    41015238:	05c23423          	sd	x28,72(x4) # 48 <XLEN+0x8>
    4101523c:	00000e17          	auipc	x28,0x0
    41015240:	05ce0e13          	addi	x28,x28,92 # 41015298 <SID_ZA64RS_02_passed>
    41015244:	03c23823          	sd	x28,48(x4) # 30 <SECURE_ACCESS_PROBABILITY+0x12>
    41015248:	00000e13          	li	x28,0
    4101524c:	03c23c23          	sd	x28,56(x4) # 38 <SECURE_ACCESS_PROBABILITY+0x1a>
    41015250:	00000e13          	li	x28,0
    41015254:	07c23023          	sd	x28,96(x4) # 60 <XLEN+0x20>
    41015258:	00000e13          	li	x28,0
    4101525c:	07c23423          	sd	x28,104(x4) # 68 <XLEN+0x28>
    41015260:	00000e13          	li	x28,0
    41015264:	07c23823          	sd	x28,112(x4) # 70 <XLEN+0x30>
    41015268:	1cc523b7          	lui	x7,0x1cc52
    4101526c:	00100993          	li	x19,1
    41015270:	01338cb3          	add	x25,x7,x19
    41015274:	18073837          	lui	x16,0x18073
    41015278:	e8f8081b          	addiw	x16,x16,-369 # 18072e8f <mem0+0xbf7ce8f>

000000004101527c <fault_label_3>:
    4101527c:	190cb9af          	sc.d	x19,x16,(x25)
    41015280:	0d37a9b7          	lui	x19,0xd37a
    41015284:	c719899b          	addiw	x19,x19,-911 # d379c71 <mem0+0x1283c71>
    41015288:	00d99993          	slli	x19,x19,0xd
    4101528c:	00898993          	addi	x19,x19,8
    41015290:	0009b783          	ld	x15,0(x19)
    41015294:	00078067          	jr	x15

0000000041015298 <SID_ZA64RS_02_passed>:
    41015298:	00f00f9b          	addiw	x31,x0,15
    4101529c:	01cf9f93          	slli	x31,x31,0x1c
    410152a0:	001f8f93          	addi	x31,x31,1
    410152a4:	00000073          	ecall

00000000410152a8 <SID_ZA64RS_03_w>:
    410152a8:	00052137          	lui	x2,0x52
    410152ac:	76d1011b          	addiw	x2,x2,1901 # 5276d <pma_region_0_size+0x1276d>
    410152b0:	00d11113          	slli	x2,x2,0xd
    410152b4:	000012b7          	lui	x5,0x1
    410152b8:	00510133          	add	x2,x2,x5
    410152bc:	ff017113          	andi	x2,x2,-16
    410152c0:	00000493          	li	x9,0
    410152c4:	213318b7          	lui	x17,0x21331
    410152c8:	a818889b          	addiw	x17,x17,-1407 # 21330a81 <mem1+0x46dea81>
    410152cc:	00c89893          	slli	x17,x17,0xc
    410152d0:	02000313          	li	x6,32
    410152d4:	006883b3          	add	x7,x17,x6
    410152d8:	1003a42f          	lr.w	x8,(x7)
    410152dc:	21331fb7          	lui	x31,0x21331
    410152e0:	a81f8f9b          	addiw	x31,x31,-1407 # 21330a81 <mem1+0x46dea81>
    410152e4:	00cf9f93          	slli	x31,x31,0xc
    410152e8:	06000e13          	li	x28,96
    410152ec:	01cf8533          	add	x10,x31,x28
    410152f0:	00097c37          	lui	x24,0x97
    410152f4:	55dc0c1b          	addiw	x24,x24,1373 # 9755d <SID_ZA64RS_03_lrd_scw_stack+0x655d>
    410152f8:	00cc1c13          	slli	x24,x24,0xc
    410152fc:	4c4c0c13          	addi	x24,x24,1220
    41015300:	19852faf          	sc.w	x31,x24,(x10)
    41015304:	009f9e63          	bne	x31,x9,41015320 <pass_label_0>
    41015308:	0d37a937          	lui	x18,0xd37a
    4101530c:	c719091b          	addiw	x18,x18,-911 # d379c71 <mem0+0x1283c71>
    41015310:	00d91913          	slli	x18,x18,0xd
    41015314:	00890913          	addi	x18,x18,8
    41015318:	00093d83          	ld	x27,0(x18)
    4101531c:	000d8067          	jr	x27

0000000041015320 <pass_label_0>:
    41015320:	21331937          	lui	x18,0x21331
    41015324:	a819091b          	addiw	x18,x18,-1407 # 21330a81 <mem1+0x46dea81>
    41015328:	00c91913          	slli	x18,x18,0xc
    4101532c:	02000593          	li	x11,32
    41015330:	00b903b3          	add	x7,x18,x11
    41015334:	1003aaaf          	lr.w	x21,(x7)
    41015338:	21331ab7          	lui	x21,0x21331
    4101533c:	a81a8a9b          	addiw	x21,x21,-1407 # 21330a81 <mem1+0x46dea81>
    41015340:	00ca9a93          	slli	x21,x21,0xc
    41015344:	02000313          	li	x6,32
    41015348:	006a8e33          	add	x28,x21,x6
    4101534c:	0003cfb7          	lui	x31,0x3c
    41015350:	7f5f8f9b          	addiw	x31,x31,2037 # 3c7f5 <mem3+0x1f7f5>
    41015354:	00ef9f93          	slli	x31,x31,0xe
    41015358:	2a5f8f93          	addi	x31,x31,677
    4101535c:	19fe2b2f          	sc.w	x22,x31,(x28)
    41015360:	009b0e63          	beq	x22,x9,4101537c <SID_ZA64RS_03_w_passed>
    41015364:	0d37af37          	lui	x30,0xd37a
    41015368:	c71f0f1b          	addiw	x30,x30,-911 # d379c71 <mem0+0x1283c71>
    4101536c:	00df1f13          	slli	x30,x30,0xd
    41015370:	008f0f13          	addi	x30,x30,8
    41015374:	000f3b83          	ld	x23,0(x30)
    41015378:	000b8067          	jr	x23

000000004101537c <SID_ZA64RS_03_w_passed>:
    4101537c:	00f00f9b          	addiw	x31,x0,15
    41015380:	01cf9f93          	slli	x31,x31,0x1c
    41015384:	001f8f93          	addi	x31,x31,1
    41015388:	00000073          	ecall

000000004101538c <SID_ZA64RS_03_d>:
    4101538c:	240af137          	lui	x2,0x240af
    41015390:	6f51011b          	addiw	x2,x2,1781 # 240af6f5 <SID_ZA64RS_02_stack+0x27d6f5>
    41015394:	00c11113          	slli	x2,x2,0xc
    41015398:	000012b7          	lui	x5,0x1
    4101539c:	00510133          	add	x2,x2,x5
    410153a0:	ff017113          	andi	x2,x2,-16
    410153a4:	00000f13          	li	x30,0
    410153a8:	0001da37          	lui	x20,0x1d
    410153ac:	02000793          	li	x15,32
    410153b0:	00fa0333          	add	x6,x20,x15
    410153b4:	10033b2f          	lr.d	x22,(x6)
    410153b8:	0001ddb7          	lui	x27,0x1d
    410153bc:	06000a13          	li	x20,96
    410153c0:	014d8533          	add	x10,x27,x20
    410153c4:	000ad6b7          	lui	x13,0xad
    410153c8:	45f6869b          	addiw	x13,x13,1119 # ad45f <SID_ZA64RS_03_lrd_scw_stack+0x1c45f>
    410153cc:	00c69693          	slli	x13,x13,0xc
    410153d0:	24068693          	addi	x13,x13,576
    410153d4:	18d53b2f          	sc.d	x22,x13,(x10)
    410153d8:	01eb1e63          	bne	x22,x30,410153f4 <pass_label_2>
    410153dc:	0d37a6b7          	lui	x13,0xd37a
    410153e0:	c716869b          	addiw	x13,x13,-911 # d379c71 <mem0+0x1283c71>
    410153e4:	00d69693          	slli	x13,x13,0xd
    410153e8:	00868693          	addi	x13,x13,8
    410153ec:	0006b983          	ld	x19,0(x13)
    410153f0:	00098067          	jr	x19

00000000410153f4 <pass_label_2>:
    410153f4:	0001d5b7          	lui	x11,0x1d
    410153f8:	02000993          	li	x19,32
    410153fc:	01358c33          	add	x24,x11,x19
    41015400:	100c39af          	lr.d	x19,(x24)
    41015404:	0001d5b7          	lui	x11,0x1d
    41015408:	02000313          	li	x6,32
    4101540c:	00658eb3          	add	x29,x11,x6
    41015410:	38021a37          	lui	x20,0x38021
    41015414:	8aca0a1b          	addiw	x20,x20,-1876 # 380208ac <SID_ZA64RS_02_stack+0x141ee8ac>
    41015418:	194eb5af          	sc.d	x11,x20,(x29)
    4101541c:	01e58e63          	beq	x11,x30,41015438 <SID_ZA64RS_03_d_passed>
    41015420:	0d37a8b7          	lui	x17,0xd37a
    41015424:	c718889b          	addiw	x17,x17,-911 # d379c71 <mem0+0x1283c71>
    41015428:	00d89893          	slli	x17,x17,0xd
    4101542c:	00888893          	addi	x17,x17,8
    41015430:	0008bc83          	ld	x25,0(x17)
    41015434:	000c8067          	jr	x25

0000000041015438 <SID_ZA64RS_03_d_passed>:
    41015438:	00f00f9b          	addiw	x31,x0,15
    4101543c:	01cf9f93          	slli	x31,x31,0x1c
    41015440:	001f8f93          	addi	x31,x31,1
    41015444:	00000073          	ecall

0000000041015448 <SID_ZA64RS_03_lrw_scd>:
    41015448:	12a93137          	lui	x2,0x12a93
    4101544c:	ffd1011b          	addiw	x2,x2,-3 # 12a92ffd <mem0+0x699cffd>
    41015450:	00c11113          	slli	x2,x2,0xc
    41015454:	000012b7          	lui	x5,0x1
    41015458:	00510133          	add	x2,x2,x5
    4101545c:	ff017113          	andi	x2,x2,-16
    41015460:	00000a93          	li	x21,0
    41015464:	0008dbb7          	lui	x23,0x8d
    41015468:	34bb8b9b          	addiw	x23,x23,843 # 8d34b <pma_region_0_size+0x4d34b>
    4101546c:	00cb9b93          	slli	x23,x23,0xc
    41015470:	b6bb8b93          	addi	x23,x23,-1173
    41015474:	00cb9b93          	slli	x23,x23,0xc
    41015478:	02000913          	li	x18,32
    4101547c:	012b8db3          	add	x27,x23,x18
    41015480:	100da3af          	lr.w	x7,(x27)
    41015484:	0008dcb7          	lui	x25,0x8d
    41015488:	34bc8c9b          	addiw	x25,x25,843 # 8d34b <pma_region_0_size+0x4d34b>
    4101548c:	00cc9c93          	slli	x25,x25,0xc
    41015490:	b6bc8c93          	addi	x25,x25,-1173
    41015494:	00cc9c93          	slli	x25,x25,0xc
    41015498:	06000713          	li	x14,96
    4101549c:	00ec8cb3          	add	x25,x25,x14
    410154a0:	48bebb37          	lui	x22,0x48beb
    410154a4:	b16b0b1b          	addiw	x22,x22,-1258 # 48beab16 <pma_region_2_end+0x3ba9b16>
    410154a8:	196cbd2f          	sc.d	x26,x22,(x25)
    410154ac:	015d1e63          	bne	x26,x21,410154c8 <pass_label_4>
    410154b0:	0d37a737          	lui	x14,0xd37a
    410154b4:	c717071b          	addiw	x14,x14,-911 # d379c71 <mem0+0x1283c71>
    410154b8:	00d71713          	slli	x14,x14,0xd
    410154bc:	00870713          	addi	x14,x14,8
    410154c0:	00073603          	ld	x12,0(x14)
    410154c4:	00060067          	jr	x12

00000000410154c8 <pass_label_4>:
    410154c8:	0008dc37          	lui	x24,0x8d
    410154cc:	34bc0c1b          	addiw	x24,x24,843 # 8d34b <pma_region_0_size+0x4d34b>
    410154d0:	00cc1c13          	slli	x24,x24,0xc
    410154d4:	b6bc0c13          	addi	x24,x24,-1173
    410154d8:	00cc1c13          	slli	x24,x24,0xc
    410154dc:	02000d93          	li	x27,32
    410154e0:	01bc0633          	add	x12,x24,x27
    410154e4:	1006262f          	lr.w	x12,(x12)
    410154e8:	0008d737          	lui	x14,0x8d
    410154ec:	34b7071b          	addiw	x14,x14,843 # 8d34b <pma_region_0_size+0x4d34b>
    410154f0:	00c71713          	slli	x14,x14,0xc
    410154f4:	b6b70713          	addi	x14,x14,-1173
    410154f8:	00c71713          	slli	x14,x14,0xc
    410154fc:	02000613          	li	x12,32
    41015500:	00c70e33          	add	x28,x14,x12
    41015504:	000964b7          	lui	x9,0x96
    41015508:	6bb4849b          	addiw	x9,x9,1723 # 966bb <SID_ZA64RS_03_lrd_scw_stack+0x56bb>
    4101550c:	00c49493          	slli	x9,x9,0xc
    41015510:	ea448493          	addi	x9,x9,-348
    41015514:	189e392f          	sc.d	x18,x9,(x28)
    41015518:	01590e63          	beq	x18,x21,41015534 <SID_ZA64RS_03_lrw_scd_passed>
    4101551c:	0d37a637          	lui	x12,0xd37a
    41015520:	c716061b          	addiw	x12,x12,-911 # d379c71 <mem0+0x1283c71>
    41015524:	00d61613          	slli	x12,x12,0xd
    41015528:	00860613          	addi	x12,x12,8
    4101552c:	00063b03          	ld	x22,0(x12)
    41015530:	000b0067          	jr	x22

0000000041015534 <SID_ZA64RS_03_lrw_scd_passed>:
    41015534:	00f00f9b          	addiw	x31,x0,15
    41015538:	01cf9f93          	slli	x31,x31,0x1c
    4101553c:	001f8f93          	addi	x31,x31,1
    41015540:	00000073          	ecall

0000000041015544 <SID_ZA64RS_03_lrd_scw>:
    41015544:	00091137          	lui	x2,0x91
    41015548:	000012b7          	lui	x5,0x1
    4101554c:	00510133          	add	x2,x2,x5
    41015550:	ff017113          	andi	x2,x2,-16
    41015554:	00000593          	li	x11,0
    41015558:	00002bb7          	lui	x23,0x2
    4101555c:	02000993          	li	x19,32
    41015560:	013b8933          	add	x18,x23,x19
    41015564:	10093caf          	lr.d	x25,(x18)
    41015568:	00002937          	lui	x18,0x2
    4101556c:	06000313          	li	x6,96
    41015570:	00690db3          	add	x27,x18,x6
    41015574:	1ba16437          	lui	x8,0x1ba16
    41015578:	2184041b          	addiw	x8,x8,536 # 1ba16218 <mem0+0xf920218>
    4101557c:	188daa2f          	sc.w	x20,x8,(x27)
    41015580:	00ba1e63          	bne	x20,x11,4101559c <pass_label_6>
    41015584:	0d37adb7          	lui	x27,0xd37a
    41015588:	c71d8d9b          	addiw	x27,x27,-911 # d379c71 <mem0+0x1283c71>
    4101558c:	00dd9d93          	slli	x27,x27,0xd
    41015590:	008d8d93          	addi	x27,x27,8
    41015594:	000dbc83          	ld	x25,0(x27)
    41015598:	000c8067          	jr	x25

000000004101559c <pass_label_6>:
    4101559c:	000029b7          	lui	x19,0x2
    410155a0:	02000913          	li	x18,32
    410155a4:	01298d33          	add	x26,x19,x18
    410155a8:	100d3daf          	lr.d	x27,(x26)
    410155ac:	00002737          	lui	x14,0x2
    410155b0:	02000793          	li	x15,32
    410155b4:	00f70433          	add	x8,x14,x15
    410155b8:	00002ab7          	lui	x21,0x2
    410155bc:	8e9a8a9b          	addiw	x21,x21,-1815 # 18e9 <pma_region_1_size+0x8e9>
    410155c0:	013a9a93          	slli	x21,x21,0x13
    410155c4:	3e6a8a93          	addi	x21,x21,998
    410155c8:	195423af          	sc.w	x7,x21,(x8)
    410155cc:	00b38e63          	beq	x7,x11,410155e8 <SID_ZA64RS_03_lrd_scw_passed>
    410155d0:	0d37a5b7          	lui	x11,0xd37a
    410155d4:	c715859b          	addiw	x11,x11,-911 # d379c71 <mem0+0x1283c71>
    410155d8:	00d59593          	slli	x11,x11,0xd
    410155dc:	00858593          	addi	x11,x11,8
    410155e0:	0005bb03          	ld	x22,0(x11)
    410155e4:	000b0067          	jr	x22

00000000410155e8 <SID_ZA64RS_03_lrd_scw_passed>:
    410155e8:	00f00f9b          	addiw	x31,x0,15
    410155ec:	01cf9f93          	slli	x31,x31,0x1c
    410155f0:	001f8f93          	addi	x31,x31,1
    410155f4:	00000073          	ecall

00000000410155f8 <SID_ZA64RS_05_w>:
    410155f8:	03d2e137          	lui	x2,0x3d2e
    410155fc:	000012b7          	lui	x5,0x1
    41015600:	00510133          	add	x2,x2,x5
    41015604:	ff017113          	andi	x2,x2,-16
    41015608:	00000b93          	li	x23,0
    4101560c:	0008d6b7          	lui	x13,0x8d
    41015610:	34b6869b          	addiw	x13,x13,843 # 8d34b <pma_region_0_size+0x4d34b>
    41015614:	00c69693          	slli	x13,x13,0xc
    41015618:	b6968693          	addi	x13,x13,-1175
    4101561c:	00c69693          	slli	x13,x13,0xc
    41015620:	06000993          	li	x19,96
    41015624:	01368cb3          	add	x25,x13,x19
    41015628:	100ca92f          	lr.w	x18,(x25)
    4101562c:	0008deb7          	lui	x29,0x8d
    41015630:	34be8e9b          	addiw	x29,x29,843 # 8d34b <pma_region_0_size+0x4d34b>
    41015634:	00ce9e93          	slli	x29,x29,0xc
    41015638:	b69e8e93          	addi	x29,x29,-1175
    4101563c:	00ce9e93          	slli	x29,x29,0xc
    41015640:	02000a13          	li	x20,32
    41015644:	014e8d33          	add	x26,x29,x20
    41015648:	000457b7          	lui	x15,0x45
    4101564c:	1237879b          	addiw	x15,x15,291 # 45123 <pma_region_0_size+0x5123>
    41015650:	00d79793          	slli	x15,x15,0xd
    41015654:	e6e78793          	addi	x15,x15,-402
    41015658:	18fd2eaf          	sc.w	x29,x15,(x26)
    4101565c:	017e9e63          	bne	x29,x23,41015678 <pass_label_8>
    41015660:	0d37a6b7          	lui	x13,0xd37a
    41015664:	c716869b          	addiw	x13,x13,-911 # d379c71 <mem0+0x1283c71>
    41015668:	00d69693          	slli	x13,x13,0xd
    4101566c:	00868693          	addi	x13,x13,8
    41015670:	0006b903          	ld	x18,0(x13)
    41015674:	00090067          	jr	x18 # 2000 <mem5>

0000000041015678 <pass_label_8>:
    41015678:	0008d6b7          	lui	x13,0x8d
    4101567c:	34b6869b          	addiw	x13,x13,843 # 8d34b <pma_region_0_size+0x4d34b>
    41015680:	00c69693          	slli	x13,x13,0xc
    41015684:	b6968693          	addi	x13,x13,-1175
    41015688:	00c69693          	slli	x13,x13,0xc
    4101568c:	06000313          	li	x6,96
    41015690:	00668db3          	add	x27,x13,x6
    41015694:	100da32f          	lr.w	x6,(x27)
    41015698:	0008dcb7          	lui	x25,0x8d
    4101569c:	34bc8c9b          	addiw	x25,x25,843 # 8d34b <pma_region_0_size+0x4d34b>
    410156a0:	00cc9c93          	slli	x25,x25,0xc
    410156a4:	b69c8c93          	addi	x25,x25,-1175
    410156a8:	00cc9c93          	slli	x25,x25,0xc
    410156ac:	06000593          	li	x11,96
    410156b0:	00bc8d33          	add	x26,x25,x11
    410156b4:	000eceb7          	lui	x29,0xec
    410156b8:	8ade8e9b          	addiw	x29,x29,-1875 # eb8ad <SID_ZA64RS_03_lrd_scw_stack+0x5a8ad>
    410156bc:	00ce9e93          	slli	x29,x29,0xc
    410156c0:	8d1e8e93          	addi	x29,x29,-1839
    410156c4:	19dd282f          	sc.w	x16,x29,(x26)
    410156c8:	01780e63          	beq	x16,x23,410156e4 <SID_ZA64RS_05_w_passed>
    410156cc:	0d37a9b7          	lui	x19,0xd37a
    410156d0:	c719899b          	addiw	x19,x19,-911 # d379c71 <mem0+0x1283c71>
    410156d4:	00d99993          	slli	x19,x19,0xd
    410156d8:	00898993          	addi	x19,x19,8
    410156dc:	0009b403          	ld	x8,0(x19)
    410156e0:	00040067          	jr	x8

00000000410156e4 <SID_ZA64RS_05_w_passed>:
    410156e4:	00f00f9b          	addiw	x31,x0,15
    410156e8:	01cf9f93          	slli	x31,x31,0x1c
    410156ec:	001f8f93          	addi	x31,x31,1
    410156f0:	00000073          	ecall

00000000410156f4 <SID_ZA64RS_05_d>:
    410156f4:	1cc50137          	lui	x2,0x1cc50
    410156f8:	000012b7          	lui	x5,0x1
    410156fc:	00510133          	add	x2,x2,x5
    41015700:	ff017113          	andi	x2,x2,-16
    41015704:	00000893          	li	x17,0
    41015708:	014eccb7          	lui	x25,0x14ec
    4101570c:	06000c13          	li	x24,96
    41015710:	018c8633          	add	x12,x25,x24
    41015714:	10063d2f          	lr.d	x26,(x12)
    41015718:	014ecab7          	lui	x21,0x14ec
    4101571c:	02000d93          	li	x27,32
    41015720:	01ba89b3          	add	x19,x21,x27
    41015724:	7b298bb7          	lui	x23,0x7b298
    41015728:	d0eb8b9b          	addiw	x23,x23,-754 # 7b297d0e <pma_region_2_end+0x36256d0e>
    4101572c:	1979ba2f          	sc.d	x20,x23,(x19)
    41015730:	011a1e63          	bne	x20,x17,4101574c <pass_label_10>
    41015734:	0d37a337          	lui	x6,0xd37a
    41015738:	c713031b          	addiw	x6,x6,-911 # d379c71 <mem0+0x1283c71>
    4101573c:	00d31313          	slli	x6,x6,0xd
    41015740:	00830313          	addi	x6,x6,8
    41015744:	00033603          	ld	x12,0(x6)
    41015748:	00060067          	jr	x12

000000004101574c <pass_label_10>:
    4101574c:	014ecd37          	lui	x26,0x14ec
    41015750:	06000993          	li	x19,96
    41015754:	013d0bb3          	add	x23,x26,x19
    41015758:	100bbb2f          	lr.d	x22,(x23)
    4101575c:	014eccb7          	lui	x25,0x14ec
    41015760:	06000613          	li	x12,96
    41015764:	00cc83b3          	add	x7,x25,x12
    41015768:	0000e837          	lui	x16,0xe
    4101576c:	eb98081b          	addiw	x16,x16,-327 # deb9 <mem9+0x2eb9>
    41015770:	01081813          	slli	x16,x16,0x10
    41015774:	c4f80813          	addi	x16,x16,-945
    41015778:	1903bb2f          	sc.d	x22,x16,(x7)
    4101577c:	011b0e63          	beq	x22,x17,41015798 <SID_ZA64RS_05_d_passed>
    41015780:	0d37a737          	lui	x14,0xd37a
    41015784:	c717071b          	addiw	x14,x14,-911 # d379c71 <mem0+0x1283c71>
    41015788:	00d71713          	slli	x14,x14,0xd
    4101578c:	00870713          	addi	x14,x14,8
    41015790:	00073983          	ld	x19,0(x14)
    41015794:	00098067          	jr	x19

0000000041015798 <SID_ZA64RS_05_d_passed>:
    41015798:	00f00f9b          	addiw	x31,x0,15
    4101579c:	01cf9f93          	slli	x31,x31,0x1c
    410157a0:	001f8f93          	addi	x31,x31,1
    410157a4:	00000073          	ecall

00000000410157a8 <SID_ZA64RS_04_lrw_scd>:
    410157a8:	0053f137          	lui	x2,0x53f
    410157ac:	eb11011b          	addiw	x2,x2,-335 # 53eeb1 <SID_ZA64RS_03_lrd_scw_stack+0x4adeb1>
    410157b0:	00e11113          	slli	x2,x2,0xe
    410157b4:	000012b7          	lui	x5,0x1
    410157b8:	00510133          	add	x2,x2,x5
    410157bc:	ff017113          	andi	x2,x2,-16
    410157c0:	00000413          	li	x8,0
    410157c4:	083fdc37          	lui	x24,0x83fd
    410157c8:	60bc0c1b          	addiw	x24,x24,1547 # 83fd60b <pma_region_2_size+0x43fd60b>
    410157cc:	00cc1c13          	slli	x24,x24,0xc
    410157d0:	06000793          	li	x15,96
    410157d4:	00fc03b3          	add	x7,x24,x15
    410157d8:	1003afaf          	lr.w	x31,(x7)
    410157dc:	083fd537          	lui	x10,0x83fd
    410157e0:	60b5051b          	addiw	x10,x10,1547 # 83fd60b <pma_region_2_size+0x43fd60b>
    410157e4:	00c51513          	slli	x10,x10,0xc
    410157e8:	02000593          	li	x11,32
    410157ec:	00b50333          	add	x6,x10,x11
    410157f0:	00025db7          	lui	x27,0x25
    410157f4:	67dd8d9b          	addiw	x27,x27,1661 # 2567d <mem3+0x867d>
    410157f8:	00ed9d93          	slli	x27,x27,0xe
    410157fc:	a54d8d93          	addi	x27,x27,-1452
    41015800:	19b334af          	sc.d	x9,x27,(x6)
    41015804:	00849e63          	bne	x9,x8,41015820 <pass_label_12>
    41015808:	0d37a4b7          	lui	x9,0xd37a
    4101580c:	c714849b          	addiw	x9,x9,-911 # d379c71 <mem0+0x1283c71>
    41015810:	00d49493          	slli	x9,x9,0xd
    41015814:	00848493          	addi	x9,x9,8
    41015818:	0004b483          	ld	x9,0(x9)
    4101581c:	00048067          	jr	x9

0000000041015820 <pass_label_12>:
    41015820:	083fdab7          	lui	x21,0x83fd
    41015824:	60ba8a9b          	addiw	x21,x21,1547 # 83fd60b <pma_region_2_size+0x43fd60b>
    41015828:	00ca9a93          	slli	x21,x21,0xc
    4101582c:	06000a13          	li	x20,96
    41015830:	014a8bb3          	add	x23,x21,x20
    41015834:	100ba82f          	lr.w	x16,(x23)
    41015838:	083fddb7          	lui	x27,0x83fd
    4101583c:	60bd8d9b          	addiw	x27,x27,1547 # 83fd60b <pma_region_2_size+0x43fd60b>
    41015840:	00cd9d93          	slli	x27,x27,0xc
    41015844:	06000993          	li	x19,96
    41015848:	013d8c33          	add	x24,x27,x19
    4101584c:	2e47eeb7          	lui	x29,0x2e47e
    41015850:	c11e8e9b          	addiw	x29,x29,-1007 # 2e47dc11 <SID_ZA64RS_02_stack+0xa64bc11>
    41015854:	19dc372f          	sc.d	x14,x29,(x24)
    41015858:	00870e63          	beq	x14,x8,41015874 <SID_ZA64RS_04_lrw_scd_passed>
    4101585c:	0d37acb7          	lui	x25,0xd37a
    41015860:	c71c8c9b          	addiw	x25,x25,-911 # d379c71 <mem0+0x1283c71>
    41015864:	00dc9c93          	slli	x25,x25,0xd
    41015868:	008c8c93          	addi	x25,x25,8
    4101586c:	000cbd03          	ld	x26,0(x25)
    41015870:	000d0067          	jr	x26 # 14ec000 <mem7>

0000000041015874 <SID_ZA64RS_04_lrw_scd_passed>:
    41015874:	00f00f9b          	addiw	x31,x0,15
    41015878:	01cf9f93          	slli	x31,x31,0x1c
    4101587c:	001f8f93          	addi	x31,x31,1
    41015880:	00000073          	ecall

0000000041015884 <SID_ZA64RS_04_lrd_scw>:
    41015884:	01f16137          	lui	x2,0x1f16
    41015888:	b9d1011b          	addiw	x2,x2,-1123 # 1f15b9d <mem7+0xa29b9d>
    4101588c:	01011113          	slli	x2,x2,0x10
    41015890:	000012b7          	lui	x5,0x1
    41015894:	00510133          	add	x2,x2,x5
    41015898:	ff017113          	andi	x2,x2,-16
    4101589c:	00000593          	li	x11,0
    410158a0:	0000be37          	lui	x28,0xb
    410158a4:	06000793          	li	x15,96
    410158a8:	00fe0eb3          	add	x29,x28,x15
    410158ac:	100ebe2f          	lr.d	x28,(x29)
    410158b0:	0000b8b7          	lui	x17,0xb
    410158b4:	02000b93          	li	x23,32
    410158b8:	01788e33          	add	x28,x17,x23
    410158bc:	4155d9b7          	lui	x19,0x4155d
    410158c0:	7f29899b          	addiw	x19,x19,2034 # 4155d7f2 <end_super_label+0x34779a>
    410158c4:	193e2d2f          	sc.w	x26,x19,(x28)
    410158c8:	00bd1e63          	bne	x26,x11,410158e4 <pass_label_14>
    410158cc:	0d37adb7          	lui	x27,0xd37a
    410158d0:	c71d8d9b          	addiw	x27,x27,-911 # d379c71 <mem0+0x1283c71>
    410158d4:	00dd9d93          	slli	x27,x27,0xd
    410158d8:	008d8d93          	addi	x27,x27,8
    410158dc:	000db483          	ld	x9,0(x27)
    410158e0:	00048067          	jr	x9

00000000410158e4 <pass_label_14>:
    410158e4:	0000b337          	lui	x6,0xb
    410158e8:	06000a93          	li	x21,96
    410158ec:	01530f33          	add	x30,x6,x21
    410158f0:	100f3c2f          	lr.d	x24,(x30)
    410158f4:	0000beb7          	lui	x29,0xb
    410158f8:	06000813          	li	x16,96
    410158fc:	010e8b33          	add	x22,x29,x16
    41015900:	00044637          	lui	x12,0x44
    41015904:	8136061b          	addiw	x12,x12,-2029 # 43813 <pma_region_0_size+0x3813>
    41015908:	00d61613          	slli	x12,x12,0xd
    4101590c:	6c760613          	addi	x12,x12,1735
    41015910:	18cb2faf          	sc.w	x31,x12,(x22)
    41015914:	00bf8e63          	beq	x31,x11,41015930 <SID_ZA64RS_04_lrd_scw_passed>
    41015918:	0d37a637          	lui	x12,0xd37a
    4101591c:	c716061b          	addiw	x12,x12,-911 # d379c71 <mem0+0x1283c71>
    41015920:	00d61613          	slli	x12,x12,0xd
    41015924:	00860613          	addi	x12,x12,8
    41015928:	00063303          	ld	x6,0(x12)
    4101592c:	00030067          	jr	x6 # b000 <mem9>

0000000041015930 <SID_ZA64RS_04_lrd_scw_passed>:
    41015930:	00f00f9b          	addiw	x31,x0,15
    41015934:	01cf9f93          	slli	x31,x31,0x1c
    41015938:	001f8f93          	addi	x31,x31,1
    4101593c:	00000073          	ecall

0000000041015940 <test_cleanup>:
    41015940:	00f00f9b          	addiw	x31,x0,15
    41015944:	01cf9f93          	slli	x31,x31,0x1c
    41015948:	001f8f93          	addi	x31,x31,1
    4101594c:	00000073          	ecall

0000000041015950 <local_test_failed>:
    41015950:	00f00f9b          	addiw	x31,x0,15
    41015954:	01cf9f93          	slli	x31,x31,0x1c
    41015958:	002f8f93          	addi	x31,x31,2
    4101595c:	00000073          	ecall

Disassembly of section .csr_machine_0:

0000000041215000 <csr_access_mstatus_machine_key_3_set-0x30>:
    41215000:	432cefb7          	lui	x31,0x432ce
    41215004:	0a0f8f9b          	addiw	x31,x31,160 # 432ce0a0 <machine_csr_jump_table_flags_pa>
    41215008:	000fbf83          	ld	x31,0(x31)
    4121500c:	00300293          	li	x5,3
    41215010:	025f8063          	beq	x31,x5,41215030 <csr_access_mstatus_machine_key_3_set>
    41215014:	00100293          	li	x5,1
    41215018:	025f8063          	beq	x31,x5,41215038 <csr_access_mstatus_machine_key_1_clear>
    4121501c:	00600293          	li	x5,6
    41215020:	025f8063          	beq	x31,x5,41215040 <csr_access_mtvec_machine_key_6_set>
    41215024:	00500293          	li	x5,5
    41215028:	025f8063          	beq	x31,x5,41215048 <csr_access_mtvec_machine_key_5_clear>
    4121502c:	0240006f          	j	41215050 <end_machine_label>

0000000041215030 <csr_access_mstatus_machine_key_3_set>:
    41215030:	3003a073          	csrs	mstatus,x7
    41215034:	01c0006f          	j	41215050 <end_machine_label>

0000000041215038 <csr_access_mstatus_machine_key_1_clear>:
    41215038:	3003b073          	csrc	mstatus,x7
    4121503c:	0140006f          	j	41215050 <end_machine_label>

0000000041215040 <csr_access_mtvec_machine_key_6_set>:
    41215040:	3053a073          	csrs	mtvec,x7
    41215044:	00c0006f          	j	41215050 <end_machine_label>

0000000041215048 <csr_access_mtvec_machine_key_5_clear>:
    41215048:	3053b073          	csrc	mtvec,x7
    4121504c:	0040006f          	j	41215050 <end_machine_label>

0000000041215050 <end_machine_label>:
    41215050:	000f0fb7          	lui	x31,0xf0
    41215054:	001f8f9b          	addiw	x31,x31,1 # f0001 <SID_ZA64RS_03_lrd_scw_stack+0x5f001>
    41215058:	00cf9f93          	slli	x31,x31,0xc
    4121505c:	004f8f93          	addi	x31,x31,4
    41215060:	00000073          	ecall

Disassembly of section .csr_super_0:

0000000041216000 <csr_access_sstatus_supervisor_key_4_set-0x38>:
    41216000:	0d37afb7          	lui	x31,0xd37a
    41216004:	c71f8f9b          	addiw	x31,x31,-911 # d379c71 <mem0+0x1283c71>
    41216008:	00df9f93          	slli	x31,x31,0xd
    4121600c:	0a8f8f93          	addi	x31,x31,168
    41216010:	000fbf83          	ld	x31,0(x31)
    41216014:	00400293          	li	x5,4
    41216018:	025f8063          	beq	x31,x5,41216038 <csr_access_sstatus_supervisor_key_4_set>
    4121601c:	00200293          	li	x5,2
    41216020:	025f8063          	beq	x31,x5,41216040 <csr_access_sstatus_supervisor_key_2_clear>
    41216024:	00800293          	li	x5,8
    41216028:	025f8063          	beq	x31,x5,41216048 <csr_access_stvec_supervisor_key_8_set>
    4121602c:	00700293          	li	x5,7
    41216030:	025f8063          	beq	x31,x5,41216050 <csr_access_stvec_supervisor_key_7_clear>
    41216034:	0240006f          	j	41216058 <end_super_label>

0000000041216038 <csr_access_sstatus_supervisor_key_4_set>:
    41216038:	1003a073          	csrs	sstatus,x7
    4121603c:	01c0006f          	j	41216058 <end_super_label>

0000000041216040 <csr_access_sstatus_supervisor_key_2_clear>:
    41216040:	1003b073          	csrc	sstatus,x7
    41216044:	0140006f          	j	41216058 <end_super_label>

0000000041216048 <csr_access_stvec_supervisor_key_8_set>:
    41216048:	1053a073          	csrs	stvec,x7
    4121604c:	00c0006f          	j	41216058 <end_super_label>

0000000041216050 <csr_access_stvec_supervisor_key_7_clear>:
    41216050:	1053b073          	csrc	stvec,x7
    41216054:	0040006f          	j	41216058 <end_super_label>

0000000041216058 <end_super_label>:
    41216058:	000f0fb7          	lui	x31,0xf0
    4121605c:	001f8f9b          	addiw	x31,x31,1 # f0001 <SID_ZA64RS_03_lrd_scw_stack+0x5f001>
    41216060:	00cf9f93          	slli	x31,x31,0xc
    41216064:	004f8f93          	addi	x31,x31,4
    41216068:	00000073          	ecall

Disassembly of section .os_data:

000001a6f38e2000 <passed_addr_ptr>:
 1a6f38e2000:	5000                	.insn	2, 0x5000
 1a6f38e2002:	4101                	.insn	2, 0x4101
 1a6f38e2004:	0000                	.insn	2, 0x0000
	...

000001a6f38e2008 <failed_addr_ptr>:
 1a6f38e2008:	5010                	.insn	2, 0x5010
 1a6f38e200a:	4101                	.insn	2, 0x4101
 1a6f38e200c:	0000                	.insn	2, 0x0000
	...

000001a6f38e2010 <end_test_addr_ptr>:
 1a6f38e2010:	5020                	.insn	2, 0x5020
 1a6f38e2012:	4101                	.insn	2, 0x4101
 1a6f38e2014:	0000                	.insn	2, 0x0000
	...

000001a6f38e2018 <os_passed_addr_ptr>:
 1a6f38e2018:	07b0                	.insn	2, 0x07b0
 1a6f38e201a:	4100                	.insn	2, 0x4100
 1a6f38e201c:	0000                	.insn	2, 0x0000
	...

000001a6f38e2020 <os_failed_addr_ptr>:
 1a6f38e2020:	07c0                	.insn	2, 0x07c0
 1a6f38e2022:	4100                	.insn	2, 0x4100
 1a6f38e2024:	0000                	.insn	2, 0x0000
	...

000001a6f38e2028 <os_end_test_addr_ptr>:
 1a6f38e2028:	07cc                	.insn	2, 0x07cc
 1a6f38e202a:	4100                	.insn	2, 0x4100
 1a6f38e202c:	0000                	.insn	2, 0x0000
	...

000001a6f38e2030 <rvcp_prefix_str_data>:
 1a6f38e2030:	5652                	.insn	2, 0x5652
 1a6f38e2032:	203a5043          	fmadd.s	f0,f20,f3,f4,unknown
 1a6f38e2036:	6554                	.insn	2, 0x6554
 1a6f38e2038:	46207473          	csrrci	x8,0x462,0
 1a6f38e203c:	6c69                	.insn	2, 0x6c69
 1a6f38e203e:	2065                	.insn	2, 0x2065
	...

000001a6f38e2041 <rvcp_testname_str_data>:
 1a6f38e2041:	7074                	.insn	2, 0x7074
 1a6f38e2043:	7a5f 3661 7234      	.insn	6, 0x723436617a5f
 1a6f38e2049:	00315f73          	csrrwi	x30,fcsr,2

000001a6f38e204d <rvcp_passed_str_data>:
 1a6f38e204d:	4150                	.insn	2, 0x4150
 1a6f38e204f:	44455353          	fround.h	f6,f10,unknown
	...

000001a6f38e2054 <rvcp_failed_str_data>:
 1a6f38e2054:	4146                	.insn	2, 0x4146
 1a6f38e2056:	4c49                	.insn	2, 0x4c49
 1a6f38e2058:	4445                	.insn	2, 0x4445
	...

000001a6f38e205b <rvcp_space_str_data>:
 1a6f38e205b:	0020                	.insn	2, 0x0020

000001a6f38e205d <rvcp_newline_str_data>:
 1a6f38e205d:	000a                	.insn	2, 0x000a
	...

000001a6f38e2060 <excp_ignored_count_mem>:
	...

000001a6f38e2068 <machine_flags_mem>:
	...

000001a6f38e2070 <user_flags_mem>:
	...

000001a6f38e2078 <super_flags_mem>:
	...

000001a6f38e2080 <machine_area_mem>:
	...

000001a6f38e2088 <user_area_mem>:
	...

000001a6f38e2090 <super_area_mem>:
	...

000001a6f38e2098 <zero_data_mem>:
	...

000001a6f38e20a0 <machine_csr_jump_table_flags_mem>:
	...

000001a6f38e20a8 <super_csr_jump_table_flags_mem>:
	...

000001a6f38e20b0 <pte_access_flags_mem>:
	...

000001a6f38e20c8 <num_harts_ended_mem>:
	...

000001a6f38e20d0 <num_hard_fails_mem>:
	...

Disassembly of section .hart_context:

00000288c0ad6000 <hart_context_0>:
 288c0ad6000:	f000                	.insn	2, 0xf000
 288c0ad6002:	000de1bb          	.insn	4, 0x000de1bb
	...
 288c0ad6016:	0000                	.insn	2, 0x0000
 288c0ad6018:	0001                	.insn	2, 0x0001
 288c0ad601a:	0000                	.insn	2, 0x0000
 288c0ad601c:	0000                	.insn	2, 0x0000
 288c0ad601e:	0000                	.insn	2, 0x0000
 288c0ad6020:	ffff                	.insn	2, 0xffff
 288c0ad6022:	ffff                	.insn	2, 0xffff
 288c0ad6024:	ffff                	.insn	2, 0xffff
 288c0ad6026:	ffff                	.insn	2, 0xffff
 288c0ad6028:	ffff                	.insn	2, 0xffff
 288c0ad602a:	ffff                	.insn	2, 0xffff
 288c0ad602c:	ffff                	.insn	2, 0xffff
 288c0ad602e:	ffff                	.insn	2, 0xffff
 288c0ad6030:	ffff                	.insn	2, 0xffff
 288c0ad6032:	ffff                	.insn	2, 0xffff
 288c0ad6034:	ffff                	.insn	2, 0xffff
 288c0ad6036:	ffff                	.insn	2, 0xffff
	...
 288c0ad6050:	00ff 0000 0000 0000 	.insn	10, 0x00ff00000000000000ff
 288c0ad6058:	00ff 
	...
 288c0ad6176:	0000                	.insn	2, 0x0000
 288c0ad6178:	ffff                	.insn	2, 0xffff
 288c0ad617a:	ffff                	.insn	2, 0xffff
 288c0ad617c:	ffff                	.insn	2, 0xffff
 288c0ad617e:	ffff                	.insn	2, 0xffff
	...
 288c0ad6188:	ffff                	.insn	2, 0xffff
 288c0ad618a:	ffff                	.insn	2, 0xffff
	...

Disassembly of section .hart_stack_0:

0000000de1bbe000 <hart_stack_0>:
	...

Disassembly of section .io_htif:

0000000041040000 <tohost>:
	...

0000000041040040 <fromhost>:
	...

Disassembly of section .mem0:

000000000c0f6000 <.mem0>:
 c0f6000:	c0de                	.insn	2, 0xc0de
 c0f6002:	c001                	.insn	2, 0xc001
 c0f6004:	0000                	.insn	2, 0x0000
	...

Disassembly of section .mem1:

000000001cc52000 <.mem1>:
    1cc52000:	c0de                	.insn	2, 0xc0de
    1cc52002:	c001                	.insn	2, 0xc001
    1cc52004:	0000                	.insn	2, 0x0000
	...

Disassembly of section .mem2:

0000021330a81000 <.mem2>:
 21330a81000:	c0de                	.insn	2, 0xc0de
 21330a81002:	c001                	.insn	2, 0xc001
 21330a81004:	0000                	.insn	2, 0x0000
	...

Disassembly of section .mem3:

000000000001d000 <.mem3>:
   1d000:	c0de                	.insn	2, 0xc0de
   1d002:	c001                	.insn	2, 0xc001
   1d004:	0000                	.insn	2, 0x0000
	...

Disassembly of section .mem4:

000008d34ab6b000 <.mem4>:
 8d34ab6b000:	c0de                	.insn	2, 0xc0de
 8d34ab6b002:	c001                	.insn	2, 0xc001
 8d34ab6b004:	0000                	.insn	2, 0x0000
	...

Disassembly of section .mem5:

0000000000002000 <.mem5>:
    2000:	c0de                	.insn	2, 0xc0de
    2002:	c001                	.insn	2, 0xc001
    2004:	0000                	.insn	2, 0x0000
	...

Disassembly of section .mem6:

000008d34ab69000 <.mem6>:
 8d34ab69000:	c0de                	.insn	2, 0xc0de
 8d34ab69002:	c001                	.insn	2, 0xc001
 8d34ab69004:	0000                	.insn	2, 0x0000
	...

Disassembly of section .mem7:

00000000014ec000 <.mem7>:
 14ec000:	c0de                	.insn	2, 0xc0de
 14ec002:	c001                	.insn	2, 0xc001
 14ec004:	0000                	.insn	2, 0x0000
	...

Disassembly of section .mem8:

00000083fd60b000 <.mem8>:
  83fd60b000:	c0de                	.insn	2, 0xc0de
  83fd60b002:	c001                	.insn	2, 0xc001
  83fd60b004:	0000                	.insn	2, 0x0000
	...

Disassembly of section .mem9:

000000000000b000 <.mem9>:
    b000:	c0de                	.insn	2, 0xc0de
    b002:	c001                	.insn	2, 0xc001
    b004:	0000                	.insn	2, 0x0000
	...

Disassembly of section .tp_csr_storage:

00001450eb7a8000 <.tp_csr_storage>:
    1450eb7a8000:	c0de                	.insn	2, 0xc0de
    1450eb7a8002:	c001                	.insn	2, 0xc001
    1450eb7a8004:	0000                	.insn	2, 0x0000
	...

Disassembly of section .SID_ZA64RS_01_stack:

0000003efecde000 <.SID_ZA64RS_01_stack>:
  3efecde000:	c0de                	.insn	2, 0xc0de
  3efecde002:	c001                	.insn	2, 0xc001
  3efecde004:	0000                	.insn	2, 0x0000
	...

Disassembly of section .SID_ZA64RS_02_stack:

0000000023e32000 <.SID_ZA64RS_02_stack>:
    23e32000:	c0de                	.insn	2, 0xc0de
    23e32002:	c001                	.insn	2, 0xc001
    23e32004:	0000                	.insn	2, 0x0000
	...

Disassembly of section .SID_ZA64RS_03_w_stack:

00000000a4eda000 <.SID_ZA64RS_03_w_stack>:
    a4eda000:	c0de                	.insn	2, 0xc0de
    a4eda002:	c001                	.insn	2, 0xc001
    a4eda004:	0000                	.insn	2, 0x0000
	...

Disassembly of section .SID_ZA64RS_03_d_stack:

00000240af6f5000 <.SID_ZA64RS_03_d_stack>:
 240af6f5000:	c0de                	.insn	2, 0xc0de
 240af6f5002:	c001                	.insn	2, 0xc001
 240af6f5004:	0000                	.insn	2, 0x0000
	...

Disassembly of section .SID_ZA64RS_03_lrw_scd_stack:

0000012a92ffd000 <.SID_ZA64RS_03_lrw_scd_stack>:
 12a92ffd000:	c0de                	.insn	2, 0xc0de
 12a92ffd002:	c001                	.insn	2, 0xc001
 12a92ffd004:	0000                	.insn	2, 0x0000
	...

Disassembly of section .SID_ZA64RS_03_lrd_scw_stack:

0000000000091000 <.SID_ZA64RS_03_lrd_scw_stack>:
   91000:	c0de                	.insn	2, 0xc0de
   91002:	c001                	.insn	2, 0xc001
   91004:	0000                	.insn	2, 0x0000
	...

Disassembly of section .SID_ZA64RS_05_w_stack:

0000000003d2e000 <.SID_ZA64RS_05_w_stack>:
 3d2e000:	c0de                	.insn	2, 0xc0de
 3d2e002:	c001                	.insn	2, 0xc001
 3d2e004:	0000                	.insn	2, 0x0000
	...

Disassembly of section .SID_ZA64RS_05_d_stack:

000000001cc50000 <.SID_ZA64RS_05_d_stack>:
    1cc50000:	c0de                	.insn	2, 0xc0de
    1cc50002:	c001                	.insn	2, 0xc001
    1cc50004:	0000                	.insn	2, 0x0000
	...

Disassembly of section .SID_ZA64RS_04_lrw_scd_stack:

00000014fbac4000 <.SID_ZA64RS_04_lrw_scd_stack>:
  14fbac4000:	c0de                	.insn	2, 0xc0de
  14fbac4002:	c001                	.insn	2, 0xc001
  14fbac4004:	0000                	.insn	2, 0x0000
	...

Disassembly of section .SID_ZA64RS_04_lrd_scw_stack:

000001f15b9d0000 <.SID_ZA64RS_04_lrd_scw_stack>:
 1f15b9d0000:	c0de                	.insn	2, 0xc0de
 1f15b9d0002:	c001                	.insn	2, 0xc001
 1f15b9d0004:	0000                	.insn	2, 0x0000
	...

Disassembly of section .__pagetable_map_os_0x000000004469a000:

000000004469a000 <__pagetable_map_os_0x000000004469a000>:
    4469a000:	c801                	.insn	2, 0xc801
    4469a002:	111f 0000 0000      	.insn	6, 0x111f
    4469a008:	ac01                	.insn	2, 0xac01
    4469a00a:	10e0                	.insn	2, 0x10e0
    4469a00c:	0000                	.insn	2, 0x0000
    4469a00e:	0000                	.insn	2, 0x0000
    4469a010:	3001                	.insn	2, 0x3001
    4469a012:	10fc                	.insn	2, 0x10fc
    4469a014:	0000                	.insn	2, 0x0000
    4469a016:	0000                	.insn	2, 0x0000
    4469a018:	a001                	.insn	2, 0xa001
    4469a01a:	1136                	.insn	2, 0x1136
    4469a01c:	0000                	.insn	2, 0x0000
    4469a01e:	0000                	.insn	2, 0x0000
    4469a020:	fc01                	.insn	2, 0xfc01
    4469a022:	10e1                	.insn	2, 0x10e1
    4469a024:	0000                	.insn	2, 0x0000
    4469a026:	0000                	.insn	2, 0x0000
    4469a028:	8c01                	.insn	2, 0x8c01
    4469a02a:	000010f3          	csrrw	x1,ustatus,x0
	...
    4469a086:	0000                	.insn	2, 0x0000
    4469a088:	a001                	.insn	2, 0xa001
    4469a08a:	000010f3          	csrrw	x1,ustatus,x0
	...
    4469a13e:	0000                	.insn	2, 0x0000
    4469a140:	6801                	.insn	2, 0x6801
    4469a142:	000010f3          	csrrw	x1,ustatus,x0
	...
    4469a5f6:	0000                	.insn	2, 0x0000
    4469a5f8:	4c01                	.insn	2, 0x4c01
    4469a5fa:	10e1                	.insn	2, 0x10e1
    4469a5fc:	0000                	.insn	2, 0x0000
	...

Disassembly of section .__pagetable_map_os_0x00000000447f2000:

00000000447f2000 <__pagetable_map_os_0x00000000447f2000>:
    447f2000:	e001                	.insn	2, 0xe001
    447f2002:	10d9                	.insn	2, 0x10d9
    447f2004:	0000                	.insn	2, 0x0000
    447f2006:	0000                	.insn	2, 0x0000
    447f2008:	5001                	.insn	2, 0x5001
    447f200a:	000010f3          	csrrw	x1,ustatus,x0
    447f200e:	0000                	.insn	2, 0x0000
    447f2010:	b801                	.insn	2, 0xb801
    447f2012:	1108                	.insn	2, 0x1108
	...
    447f21b8:	9c01                	.insn	2, 0x9c01
    447f21ba:	1136                	.insn	2, 0x1136
	...
    447f2298:	2801                	.insn	2, 0x2801
    447f229a:	10da                	.insn	2, 0x10da
	...
    447f27d8:	3801                	.insn	2, 0x3801
    447f27da:	1121                	.insn	2, 0x1121
    447f27dc:	0000                	.insn	2, 0x0000
	...

Disassembly of section .__pagetable_map_os_0x0000000043cd4000:

0000000043cd4000 <__pagetable_map_os_0x0000000043cd4000>:
	...
    43cd4040:	7801                	.insn	2, 0x7801
    43cd4042:	111a                	.insn	2, 0x111a
    43cd4044:	0000                	.insn	2, 0x0000
    43cd4046:	0000                	.insn	2, 0x0000
    43cd4048:	2801                	.insn	2, 0x2801
    43cd404a:	10e1                	.insn	2, 0x10e1
	...
    43cd4118:	3c01                	.insn	2, 0x3c01
    43cd411a:	000010f3          	csrrw	x1,ustatus,x0
	...

Disassembly of section .__pagetable_map_os_0x000000004469e000:

000000004469e000 <__pagetable_map_os_0x000000004469e000>:
	...
    4469e080:	40df 1040 0000      	.insn	6, 0x104040df
    4469e086:	0000                	.insn	2, 0x0000
    4469e088:	104044cf          	fnmadd.s	f9,f0,f4,f2,rmm
    4469e08c:	0000                	.insn	2, 0x0000
    4469e08e:	0000                	.insn	2, 0x0000
    4469e090:	104048cf          	fnmadd.s	f17,f0,f4,f2,rmm
    4469e094:	0000                	.insn	2, 0x0000
    4469e096:	0000                	.insn	2, 0x0000
    4469e098:	10404ccf          	fnmadd.s	f25,f0,f4,f2,rmm
    4469e09c:	0000                	.insn	2, 0x0000
    4469e09e:	0000                	.insn	2, 0x0000
    4469e0a0:	104050cf          	fnmadd.s	f1,f0,f4,f2,unknown
    4469e0a4:	0000                	.insn	2, 0x0000
    4469e0a6:	0000                	.insn	2, 0x0000
    4469e0a8:	00df 10e8 0000      	.insn	6, 0x10e800df
    4469e0ae:	0000                	.insn	2, 0x0000
    4469e0b0:	04df 10e8 0000      	.insn	6, 0x10e804df
    4469e0b6:	0000                	.insn	2, 0x0000
    4469e0b8:	08df 10e8 0000      	.insn	6, 0x10e808df
    4469e0be:	0000                	.insn	2, 0x0000
    4469e0c0:	0cdf 10e8 0000      	.insn	6, 0x10e80cdf
    4469e0c6:	0000                	.insn	2, 0x0000
    4469e0c8:	10df 10e8 0000      	.insn	6, 0x10e810df
    4469e0ce:	0000                	.insn	2, 0x0000
    4469e0d0:	14df 10e8 0000      	.insn	6, 0x10e814df
    4469e0d6:	0000                	.insn	2, 0x0000
    4469e0d8:	18df 10e8 0000      	.insn	6, 0x10e818df
    4469e0de:	0000                	.insn	2, 0x0000
    4469e0e0:	1cdf 10e8 0000      	.insn	6, 0x10e81cdf
    4469e0e6:	0000                	.insn	2, 0x0000
    4469e0e8:	20df 10e8 0000      	.insn	6, 0x10e820df
    4469e0ee:	0000                	.insn	2, 0x0000
    4469e0f0:	24df 10e8 0000      	.insn	6, 0x10e824df
    4469e0f6:	0000                	.insn	2, 0x0000
    4469e0f8:	28df 10e8 0000      	.insn	6, 0x10e828df
    4469e0fe:	0000                	.insn	2, 0x0000
    4469e100:	2cdf 10e8 0000      	.insn	6, 0x10e82cdf
    4469e106:	0000                	.insn	2, 0x0000
    4469e108:	30df 10e8 0000      	.insn	6, 0x10e830df
    4469e10e:	0000                	.insn	2, 0x0000
    4469e110:	34df 10e8 0000      	.insn	6, 0x10e834df
    4469e116:	0000                	.insn	2, 0x0000
    4469e118:	38df 10e8 0000      	.insn	6, 0x10e838df
    4469e11e:	0000                	.insn	2, 0x0000
    4469e120:	3cdf 10e8 0000      	.insn	6, 0x10e83cdf
    4469e126:	0000                	.insn	2, 0x0000
    4469e128:	40df 10e8 0000      	.insn	6, 0x10e840df
    4469e12e:	0000                	.insn	2, 0x0000
    4469e130:	44df 10e8 0000      	.insn	6, 0x10e844df
    4469e136:	0000                	.insn	2, 0x0000
    4469e138:	48df 10e8 0000      	.insn	6, 0x10e848df
    4469e13e:	0000                	.insn	2, 0x0000
    4469e140:	4cdf 10e8 0000      	.insn	6, 0x10e84cdf
    4469e146:	0000                	.insn	2, 0x0000
    4469e148:	50df 10e8 0000      	.insn	6, 0x10e850df
    4469e14e:	0000                	.insn	2, 0x0000
    4469e150:	54df 10e8 0000      	.insn	6, 0x10e854df
    4469e156:	0000                	.insn	2, 0x0000
    4469e158:	58df 10e8 0000      	.insn	6, 0x10e858df
    4469e15e:	0000                	.insn	2, 0x0000
    4469e160:	5cdf 10e8 0000      	.insn	6, 0x10e85cdf
    4469e166:	0000                	.insn	2, 0x0000
    4469e168:	60df 10e8 0000      	.insn	6, 0x10e860df
    4469e16e:	0000                	.insn	2, 0x0000
    4469e170:	64df 10e8 0000      	.insn	6, 0x10e864df
    4469e176:	0000                	.insn	2, 0x0000
    4469e178:	68df 10e8 0000      	.insn	6, 0x10e868df
    4469e17e:	0000                	.insn	2, 0x0000
    4469e180:	6cdf 10e8 0000      	.insn	6, 0x10e86cdf
    4469e186:	0000                	.insn	2, 0x0000
    4469e188:	70df 10e8 0000      	.insn	6, 0x10e870df
    4469e18e:	0000                	.insn	2, 0x0000
    4469e190:	74df 10e8 0000      	.insn	6, 0x10e874df
    4469e196:	0000                	.insn	2, 0x0000
    4469e198:	78df 10e8 0000      	.insn	6, 0x10e878df
    4469e19e:	0000                	.insn	2, 0x0000
    4469e1a0:	7cdf 10e8 0000      	.insn	6, 0x10e87cdf
    4469e1a6:	0000                	.insn	2, 0x0000
    4469e1a8:	80df 10e8 0000      	.insn	6, 0x10e880df
    4469e1ae:	0000                	.insn	2, 0x0000
    4469e1b0:	84df 10e8 0000      	.insn	6, 0x10e884df
    4469e1b6:	0000                	.insn	2, 0x0000
    4469e1b8:	88df 10e8 0000      	.insn	6, 0x10e888df
    4469e1be:	0000                	.insn	2, 0x0000
    4469e1c0:	8cdf 10e8 0000      	.insn	6, 0x10e88cdf
    4469e1c6:	0000                	.insn	2, 0x0000
    4469e1c8:	90df 10e8 0000      	.insn	6, 0x10e890df
    4469e1ce:	0000                	.insn	2, 0x0000
    4469e1d0:	94df 10e8 0000      	.insn	6, 0x10e894df
    4469e1d6:	0000                	.insn	2, 0x0000
    4469e1d8:	98df 10e8 0000      	.insn	6, 0x10e898df
    4469e1de:	0000                	.insn	2, 0x0000
    4469e1e0:	9cdf 10e8 0000      	.insn	6, 0x10e89cdf
    4469e1e6:	0000                	.insn	2, 0x0000
    4469e1e8:	a0df 10e8 0000      	.insn	6, 0x10e8a0df
    4469e1ee:	0000                	.insn	2, 0x0000
    4469e1f0:	a4df 10e8 0000      	.insn	6, 0x10e8a4df
    4469e1f6:	0000                	.insn	2, 0x0000
    4469e1f8:	a8df 10e8 0000      	.insn	6, 0x10e8a8df
    4469e1fe:	0000                	.insn	2, 0x0000
    4469e200:	00df 1041 0000      	.insn	6, 0x104100df
    4469e206:	0000                	.insn	2, 0x0000
    4469e208:	b0df 10e8 0000      	.insn	6, 0x10e8b0df
    4469e20e:	0000                	.insn	2, 0x0000
    4469e210:	b4df 10e8 0000      	.insn	6, 0x10e8b4df
    4469e216:	0000                	.insn	2, 0x0000
    4469e218:	b8df 10e8 0000      	.insn	6, 0x10e8b8df
    4469e21e:	0000                	.insn	2, 0x0000
    4469e220:	bcdf 10e8 0000      	.insn	6, 0x10e8bcdf
    4469e226:	0000                	.insn	2, 0x0000
    4469e228:	c0df 10e8 0000      	.insn	6, 0x10e8c0df
    4469e22e:	0000                	.insn	2, 0x0000
    4469e230:	c4df 10e8 0000      	.insn	6, 0x10e8c4df
    4469e236:	0000                	.insn	2, 0x0000
    4469e238:	c8df 10e8 0000      	.insn	6, 0x10e8c8df
    4469e23e:	0000                	.insn	2, 0x0000
    4469e240:	ccdf 10e8 0000      	.insn	6, 0x10e8ccdf
    4469e246:	0000                	.insn	2, 0x0000
    4469e248:	d0df 10e8 0000      	.insn	6, 0x10e8d0df
    4469e24e:	0000                	.insn	2, 0x0000
    4469e250:	d4df 10e8 0000      	.insn	6, 0x10e8d4df
    4469e256:	0000                	.insn	2, 0x0000
    4469e258:	d8df 10e8 0000      	.insn	6, 0x10e8d8df
    4469e25e:	0000                	.insn	2, 0x0000
    4469e260:	dcdf 10e8 0000      	.insn	6, 0x10e8dcdf
    4469e266:	0000                	.insn	2, 0x0000
    4469e268:	e0df 10e8 0000      	.insn	6, 0x10e8e0df
    4469e26e:	0000                	.insn	2, 0x0000
    4469e270:	e4df 10e8 0000      	.insn	6, 0x10e8e4df
    4469e276:	0000                	.insn	2, 0x0000
    4469e278:	e8df 10e8 0000      	.insn	6, 0x10e8e8df
    4469e27e:	0000                	.insn	2, 0x0000
    4469e280:	ecdf 10e8 0000      	.insn	6, 0x10e8ecdf
    4469e286:	0000                	.insn	2, 0x0000
    4469e288:	f0df 10e8 0000      	.insn	6, 0x10e8f0df
    4469e28e:	0000                	.insn	2, 0x0000
    4469e290:	f4df 10e8 0000      	.insn	6, 0x10e8f4df
    4469e296:	0000                	.insn	2, 0x0000
    4469e298:	f8df 10e8 0000      	.insn	6, 0x10e8f8df
    4469e29e:	0000                	.insn	2, 0x0000
    4469e2a0:	fcdf 10e8 0000      	.insn	6, 0x10e8fcdf
    4469e2a6:	0000                	.insn	2, 0x0000
    4469e2a8:	00df 10e9 0000      	.insn	6, 0x10e900df
    4469e2ae:	0000                	.insn	2, 0x0000
    4469e2b0:	04df 10e9 0000      	.insn	6, 0x10e904df
    4469e2b6:	0000                	.insn	2, 0x0000
    4469e2b8:	08df 10e9 0000      	.insn	6, 0x10e908df
    4469e2be:	0000                	.insn	2, 0x0000
    4469e2c0:	0cdf 10e9 0000      	.insn	6, 0x10e90cdf
    4469e2c6:	0000                	.insn	2, 0x0000
    4469e2c8:	10df 10e9 0000      	.insn	6, 0x10e910df
    4469e2ce:	0000                	.insn	2, 0x0000
    4469e2d0:	14df 10e9 0000      	.insn	6, 0x10e914df
    4469e2d6:	0000                	.insn	2, 0x0000
    4469e2d8:	18df 10e9 0000      	.insn	6, 0x10e918df
    4469e2de:	0000                	.insn	2, 0x0000
    4469e2e0:	1cdf 10e9 0000      	.insn	6, 0x10e91cdf
    4469e2e6:	0000                	.insn	2, 0x0000
    4469e2e8:	20df 10e9 0000      	.insn	6, 0x10e920df
    4469e2ee:	0000                	.insn	2, 0x0000
    4469e2f0:	24df 10e9 0000      	.insn	6, 0x10e924df
    4469e2f6:	0000                	.insn	2, 0x0000
    4469e2f8:	28df 10e9 0000      	.insn	6, 0x10e928df
    4469e2fe:	0000                	.insn	2, 0x0000
    4469e300:	2cdf 10e9 0000      	.insn	6, 0x10e92cdf
    4469e306:	0000                	.insn	2, 0x0000
    4469e308:	30df 10e9 0000      	.insn	6, 0x10e930df
    4469e30e:	0000                	.insn	2, 0x0000
    4469e310:	34df 10e9 0000      	.insn	6, 0x10e934df
    4469e316:	0000                	.insn	2, 0x0000
    4469e318:	38df 10e9 0000      	.insn	6, 0x10e938df
    4469e31e:	0000                	.insn	2, 0x0000
    4469e320:	3cdf 10e9 0000      	.insn	6, 0x10e93cdf
    4469e326:	0000                	.insn	2, 0x0000
    4469e328:	40df 10e9 0000      	.insn	6, 0x10e940df
    4469e32e:	0000                	.insn	2, 0x0000
    4469e330:	44df 10e9 0000      	.insn	6, 0x10e944df
    4469e336:	0000                	.insn	2, 0x0000
    4469e338:	48df 10e9 0000      	.insn	6, 0x10e948df
    4469e33e:	0000                	.insn	2, 0x0000
    4469e340:	4cdf 10e9 0000      	.insn	6, 0x10e94cdf
    4469e346:	0000                	.insn	2, 0x0000
    4469e348:	50df 10e9 0000      	.insn	6, 0x10e950df
    4469e34e:	0000                	.insn	2, 0x0000
    4469e350:	54df 10e9 0000      	.insn	6, 0x10e954df
    4469e356:	0000                	.insn	2, 0x0000
    4469e358:	58df 10e9 0000      	.insn	6, 0x10e958df
    4469e35e:	0000                	.insn	2, 0x0000
    4469e360:	5cdf 10e9 0000      	.insn	6, 0x10e95cdf
    4469e366:	0000                	.insn	2, 0x0000
    4469e368:	60df 10e9 0000      	.insn	6, 0x10e960df
    4469e36e:	0000                	.insn	2, 0x0000
    4469e370:	64df 10e9 0000      	.insn	6, 0x10e964df
    4469e376:	0000                	.insn	2, 0x0000
    4469e378:	68df 10e9 0000      	.insn	6, 0x10e968df
    4469e37e:	0000                	.insn	2, 0x0000
    4469e380:	6cdf 10e9 0000      	.insn	6, 0x10e96cdf
    4469e386:	0000                	.insn	2, 0x0000
    4469e388:	70df 10e9 0000      	.insn	6, 0x10e970df
    4469e38e:	0000                	.insn	2, 0x0000
    4469e390:	74df 10e9 0000      	.insn	6, 0x10e974df
    4469e396:	0000                	.insn	2, 0x0000
    4469e398:	78df 10e9 0000      	.insn	6, 0x10e978df
    4469e39e:	0000                	.insn	2, 0x0000
    4469e3a0:	7cdf 10e9 0000      	.insn	6, 0x10e97cdf
    4469e3a6:	0000                	.insn	2, 0x0000
    4469e3a8:	80df 10e9 0000      	.insn	6, 0x10e980df
    4469e3ae:	0000                	.insn	2, 0x0000
    4469e3b0:	84df 10e9 0000      	.insn	6, 0x10e984df
    4469e3b6:	0000                	.insn	2, 0x0000
    4469e3b8:	88df 10e9 0000      	.insn	6, 0x10e988df
    4469e3be:	0000                	.insn	2, 0x0000
    4469e3c0:	8cdf 10e9 0000      	.insn	6, 0x10e98cdf
    4469e3c6:	0000                	.insn	2, 0x0000
    4469e3c8:	90df 10e9 0000      	.insn	6, 0x10e990df
    4469e3ce:	0000                	.insn	2, 0x0000
    4469e3d0:	94df 10e9 0000      	.insn	6, 0x10e994df
    4469e3d6:	0000                	.insn	2, 0x0000
    4469e3d8:	98df 10e9 0000      	.insn	6, 0x10e998df
    4469e3de:	0000                	.insn	2, 0x0000
    4469e3e0:	9cdf 10e9 0000      	.insn	6, 0x10e99cdf
    4469e3e6:	0000                	.insn	2, 0x0000
    4469e3e8:	a0df 10e9 0000      	.insn	6, 0x10e9a0df
    4469e3ee:	0000                	.insn	2, 0x0000
    4469e3f0:	a4df 10e9 0000      	.insn	6, 0x10e9a4df
    4469e3f6:	0000                	.insn	2, 0x0000
    4469e3f8:	a8df 10e9 0000      	.insn	6, 0x10e9a8df
    4469e3fe:	0000                	.insn	2, 0x0000
    4469e400:	acdf 10e9 0000      	.insn	6, 0x10e9acdf
    4469e406:	0000                	.insn	2, 0x0000
    4469e408:	b0df 10e9 0000      	.insn	6, 0x10e9b0df
    4469e40e:	0000                	.insn	2, 0x0000
    4469e410:	b4df 10e9 0000      	.insn	6, 0x10e9b4df
    4469e416:	0000                	.insn	2, 0x0000
    4469e418:	b8df 10e9 0000      	.insn	6, 0x10e9b8df
    4469e41e:	0000                	.insn	2, 0x0000
    4469e420:	bcdf 10e9 0000      	.insn	6, 0x10e9bcdf
    4469e426:	0000                	.insn	2, 0x0000
    4469e428:	c0df 10e9 0000      	.insn	6, 0x10e9c0df
    4469e42e:	0000                	.insn	2, 0x0000
    4469e430:	c4df 10e9 0000      	.insn	6, 0x10e9c4df
    4469e436:	0000                	.insn	2, 0x0000
    4469e438:	c8df 10e9 0000      	.insn	6, 0x10e9c8df
    4469e43e:	0000                	.insn	2, 0x0000
    4469e440:	ccdf 10e9 0000      	.insn	6, 0x10e9ccdf
    4469e446:	0000                	.insn	2, 0x0000
    4469e448:	d0df 10e9 0000      	.insn	6, 0x10e9d0df
    4469e44e:	0000                	.insn	2, 0x0000
    4469e450:	d4df 10e9 0000      	.insn	6, 0x10e9d4df
    4469e456:	0000                	.insn	2, 0x0000
    4469e458:	d8df 10e9 0000      	.insn	6, 0x10e9d8df
    4469e45e:	0000                	.insn	2, 0x0000
    4469e460:	dcdf 10e9 0000      	.insn	6, 0x10e9dcdf
    4469e466:	0000                	.insn	2, 0x0000
    4469e468:	e0df 10e9 0000      	.insn	6, 0x10e9e0df
    4469e46e:	0000                	.insn	2, 0x0000
    4469e470:	e4df 10e9 0000      	.insn	6, 0x10e9e4df
    4469e476:	0000                	.insn	2, 0x0000
    4469e478:	e8df 10e9 0000      	.insn	6, 0x10e9e8df
    4469e47e:	0000                	.insn	2, 0x0000
    4469e480:	ecdf 10e9 0000      	.insn	6, 0x10e9ecdf
    4469e486:	0000                	.insn	2, 0x0000
    4469e488:	f0df 10e9 0000      	.insn	6, 0x10e9f0df
    4469e48e:	0000                	.insn	2, 0x0000
    4469e490:	f4df 10e9 0000      	.insn	6, 0x10e9f4df
    4469e496:	0000                	.insn	2, 0x0000
    4469e498:	f8df 10e9 0000      	.insn	6, 0x10e9f8df
    4469e49e:	0000                	.insn	2, 0x0000
    4469e4a0:	fcdf 10e9 0000      	.insn	6, 0x10e9fcdf
    4469e4a6:	0000                	.insn	2, 0x0000
    4469e4a8:	10ea00cf          	fnmadd.s	f1,f20,f14,f2,rne
    4469e4ac:	0000                	.insn	2, 0x0000
    4469e4ae:	0000                	.insn	2, 0x0000
    4469e4b0:	10ea04cf          	fnmadd.s	f9,f20,f14,f2,rne
    4469e4b4:	0000                	.insn	2, 0x0000
    4469e4b6:	0000                	.insn	2, 0x0000
    4469e4b8:	10ea08cf          	fnmadd.s	f17,f20,f14,f2,rne
    4469e4bc:	0000                	.insn	2, 0x0000
    4469e4be:	0000                	.insn	2, 0x0000
    4469e4c0:	10ea0ccf          	fnmadd.s	f25,f20,f14,f2,rne
    4469e4c4:	0000                	.insn	2, 0x0000
    4469e4c6:	0000                	.insn	2, 0x0000
    4469e4c8:	10ea10cf          	fnmadd.s	f1,f20,f14,f2,rtz
    4469e4cc:	0000                	.insn	2, 0x0000
    4469e4ce:	0000                	.insn	2, 0x0000
    4469e4d0:	10ea14cf          	fnmadd.s	f9,f20,f14,f2,rtz
    4469e4d4:	0000                	.insn	2, 0x0000
    4469e4d6:	0000                	.insn	2, 0x0000
    4469e4d8:	10ea18cf          	fnmadd.s	f17,f20,f14,f2,rtz
    4469e4dc:	0000                	.insn	2, 0x0000
    4469e4de:	0000                	.insn	2, 0x0000
    4469e4e0:	10ea1ccf          	fnmadd.s	f25,f20,f14,f2,rtz
    4469e4e4:	0000                	.insn	2, 0x0000
    4469e4e6:	0000                	.insn	2, 0x0000
    4469e4e8:	10ea20cf          	fnmadd.s	f1,f20,f14,f2,rdn
    4469e4ec:	0000                	.insn	2, 0x0000
    4469e4ee:	0000                	.insn	2, 0x0000
    4469e4f0:	10ea24cf          	fnmadd.s	f9,f20,f14,f2,rdn
    4469e4f4:	0000                	.insn	2, 0x0000
    4469e4f6:	0000                	.insn	2, 0x0000
    4469e4f8:	10ea28cf          	fnmadd.s	f17,f20,f14,f2,rdn
    4469e4fc:	0000                	.insn	2, 0x0000
    4469e4fe:	0000                	.insn	2, 0x0000
    4469e500:	10ea2ccf          	fnmadd.s	f25,f20,f14,f2,rdn
    4469e504:	0000                	.insn	2, 0x0000
    4469e506:	0000                	.insn	2, 0x0000
    4469e508:	10ea30cf          	fnmadd.s	f1,f20,f14,f2,rup
    4469e50c:	0000                	.insn	2, 0x0000
    4469e50e:	0000                	.insn	2, 0x0000
    4469e510:	10ea34cf          	fnmadd.s	f9,f20,f14,f2,rup
    4469e514:	0000                	.insn	2, 0x0000
    4469e516:	0000                	.insn	2, 0x0000
    4469e518:	10ea38cf          	fnmadd.s	f17,f20,f14,f2,rup
    4469e51c:	0000                	.insn	2, 0x0000
    4469e51e:	0000                	.insn	2, 0x0000
    4469e520:	10ea3ccf          	fnmadd.s	f25,f20,f14,f2,rup
    4469e524:	0000                	.insn	2, 0x0000
    4469e526:	0000                	.insn	2, 0x0000
    4469e528:	10ea40cf          	fnmadd.s	f1,f20,f14,f2,rmm
    4469e52c:	0000                	.insn	2, 0x0000
    4469e52e:	0000                	.insn	2, 0x0000
    4469e530:	10ea44cf          	fnmadd.s	f9,f20,f14,f2,rmm
    4469e534:	0000                	.insn	2, 0x0000
    4469e536:	0000                	.insn	2, 0x0000
    4469e538:	10ea48cf          	fnmadd.s	f17,f20,f14,f2,rmm
    4469e53c:	0000                	.insn	2, 0x0000
    4469e53e:	0000                	.insn	2, 0x0000
    4469e540:	10ea4ccf          	fnmadd.s	f25,f20,f14,f2,rmm
    4469e544:	0000                	.insn	2, 0x0000
    4469e546:	0000                	.insn	2, 0x0000
    4469e548:	10ea50cf          	fnmadd.s	f1,f20,f14,f2,unknown
    4469e54c:	0000                	.insn	2, 0x0000
    4469e54e:	0000                	.insn	2, 0x0000
    4469e550:	10ea54cf          	fnmadd.s	f9,f20,f14,f2,unknown
    4469e554:	0000                	.insn	2, 0x0000
    4469e556:	0000                	.insn	2, 0x0000
    4469e558:	10ea58cf          	fnmadd.s	f17,f20,f14,f2,unknown
    4469e55c:	0000                	.insn	2, 0x0000
    4469e55e:	0000                	.insn	2, 0x0000
    4469e560:	10ea5ccf          	fnmadd.s	f25,f20,f14,f2,unknown
    4469e564:	0000                	.insn	2, 0x0000
    4469e566:	0000                	.insn	2, 0x0000
    4469e568:	10ea60cf          	fnmadd.s	f1,f20,f14,f2,unknown
    4469e56c:	0000                	.insn	2, 0x0000
    4469e56e:	0000                	.insn	2, 0x0000
    4469e570:	10ea64cf          	fnmadd.s	f9,f20,f14,f2,unknown
    4469e574:	0000                	.insn	2, 0x0000
    4469e576:	0000                	.insn	2, 0x0000
    4469e578:	10ea68cf          	fnmadd.s	f17,f20,f14,f2,unknown
    4469e57c:	0000                	.insn	2, 0x0000
    4469e57e:	0000                	.insn	2, 0x0000
    4469e580:	10ea6ccf          	fnmadd.s	f25,f20,f14,f2,unknown
    4469e584:	0000                	.insn	2, 0x0000
    4469e586:	0000                	.insn	2, 0x0000
    4469e588:	10ea70cf          	fnmadd.s	f1,f20,f14,f2
    4469e58c:	0000                	.insn	2, 0x0000
    4469e58e:	0000                	.insn	2, 0x0000
    4469e590:	10ea74cf          	fnmadd.s	f9,f20,f14,f2
    4469e594:	0000                	.insn	2, 0x0000
    4469e596:	0000                	.insn	2, 0x0000
    4469e598:	10ea78cf          	fnmadd.s	f17,f20,f14,f2
    4469e59c:	0000                	.insn	2, 0x0000
    4469e59e:	0000                	.insn	2, 0x0000
    4469e5a0:	10ea7ccf          	fnmadd.s	f25,f20,f14,f2
    4469e5a4:	0000                	.insn	2, 0x0000
    4469e5a6:	0000                	.insn	2, 0x0000
    4469e5a8:	10ea80cf          	fnmadd.s	f1,f21,f14,f2,rne
    4469e5ac:	0000                	.insn	2, 0x0000
    4469e5ae:	0000                	.insn	2, 0x0000
    4469e5b0:	10ea84cf          	fnmadd.s	f9,f21,f14,f2,rne
    4469e5b4:	0000                	.insn	2, 0x0000
    4469e5b6:	0000                	.insn	2, 0x0000
    4469e5b8:	10ea88cf          	fnmadd.s	f17,f21,f14,f2,rne
    4469e5bc:	0000                	.insn	2, 0x0000
    4469e5be:	0000                	.insn	2, 0x0000
    4469e5c0:	10ea8ccf          	fnmadd.s	f25,f21,f14,f2,rne
    4469e5c4:	0000                	.insn	2, 0x0000
    4469e5c6:	0000                	.insn	2, 0x0000
    4469e5c8:	10ea90cf          	fnmadd.s	f1,f21,f14,f2,rtz
    4469e5cc:	0000                	.insn	2, 0x0000
    4469e5ce:	0000                	.insn	2, 0x0000
    4469e5d0:	10ea94cf          	fnmadd.s	f9,f21,f14,f2,rtz
    4469e5d4:	0000                	.insn	2, 0x0000
    4469e5d6:	0000                	.insn	2, 0x0000
    4469e5d8:	10ea98cf          	fnmadd.s	f17,f21,f14,f2,rtz
    4469e5dc:	0000                	.insn	2, 0x0000
    4469e5de:	0000                	.insn	2, 0x0000
    4469e5e0:	10ea9ccf          	fnmadd.s	f25,f21,f14,f2,rtz
    4469e5e4:	0000                	.insn	2, 0x0000
    4469e5e6:	0000                	.insn	2, 0x0000
    4469e5e8:	10eaa0cf          	fnmadd.s	f1,f21,f14,f2,rdn
    4469e5ec:	0000                	.insn	2, 0x0000
    4469e5ee:	0000                	.insn	2, 0x0000
    4469e5f0:	10eaa4cf          	fnmadd.s	f9,f21,f14,f2,rdn
    4469e5f4:	0000                	.insn	2, 0x0000
    4469e5f6:	0000                	.insn	2, 0x0000
    4469e5f8:	10eaa8cf          	fnmadd.s	f17,f21,f14,f2,rdn
    4469e5fc:	0000                	.insn	2, 0x0000
    4469e5fe:	0000                	.insn	2, 0x0000
    4469e600:	10eaaccf          	fnmadd.s	f25,f21,f14,f2,rdn
    4469e604:	0000                	.insn	2, 0x0000
    4469e606:	0000                	.insn	2, 0x0000
    4469e608:	10eab0cf          	fnmadd.s	f1,f21,f14,f2,rup
    4469e60c:	0000                	.insn	2, 0x0000
    4469e60e:	0000                	.insn	2, 0x0000
    4469e610:	10eab4cf          	fnmadd.s	f9,f21,f14,f2,rup
    4469e614:	0000                	.insn	2, 0x0000
    4469e616:	0000                	.insn	2, 0x0000
    4469e618:	10eab8cf          	fnmadd.s	f17,f21,f14,f2,rup
    4469e61c:	0000                	.insn	2, 0x0000
    4469e61e:	0000                	.insn	2, 0x0000
    4469e620:	10eabccf          	fnmadd.s	f25,f21,f14,f2,rup
    4469e624:	0000                	.insn	2, 0x0000
    4469e626:	0000                	.insn	2, 0x0000
    4469e628:	10eac0cf          	fnmadd.s	f1,f21,f14,f2,rmm
    4469e62c:	0000                	.insn	2, 0x0000
    4469e62e:	0000                	.insn	2, 0x0000
    4469e630:	10eac4cf          	fnmadd.s	f9,f21,f14,f2,rmm
    4469e634:	0000                	.insn	2, 0x0000
    4469e636:	0000                	.insn	2, 0x0000
    4469e638:	10eac8cf          	fnmadd.s	f17,f21,f14,f2,rmm
    4469e63c:	0000                	.insn	2, 0x0000
    4469e63e:	0000                	.insn	2, 0x0000
    4469e640:	10eacccf          	fnmadd.s	f25,f21,f14,f2,rmm
    4469e644:	0000                	.insn	2, 0x0000
    4469e646:	0000                	.insn	2, 0x0000
    4469e648:	10ead0cf          	fnmadd.s	f1,f21,f14,f2,unknown
    4469e64c:	0000                	.insn	2, 0x0000
    4469e64e:	0000                	.insn	2, 0x0000
    4469e650:	10ead4cf          	fnmadd.s	f9,f21,f14,f2,unknown
    4469e654:	0000                	.insn	2, 0x0000
    4469e656:	0000                	.insn	2, 0x0000
    4469e658:	10ead8cf          	fnmadd.s	f17,f21,f14,f2,unknown
    4469e65c:	0000                	.insn	2, 0x0000
    4469e65e:	0000                	.insn	2, 0x0000
    4469e660:	10eadccf          	fnmadd.s	f25,f21,f14,f2,unknown
    4469e664:	0000                	.insn	2, 0x0000
    4469e666:	0000                	.insn	2, 0x0000
    4469e668:	10eae0cf          	fnmadd.s	f1,f21,f14,f2,unknown
    4469e66c:	0000                	.insn	2, 0x0000
    4469e66e:	0000                	.insn	2, 0x0000
    4469e670:	10eae4cf          	fnmadd.s	f9,f21,f14,f2,unknown
    4469e674:	0000                	.insn	2, 0x0000
    4469e676:	0000                	.insn	2, 0x0000
    4469e678:	10eae8cf          	fnmadd.s	f17,f21,f14,f2,unknown
    4469e67c:	0000                	.insn	2, 0x0000
    4469e67e:	0000                	.insn	2, 0x0000
    4469e680:	10eaeccf          	fnmadd.s	f25,f21,f14,f2,unknown
    4469e684:	0000                	.insn	2, 0x0000
    4469e686:	0000                	.insn	2, 0x0000
    4469e688:	10eaf0cf          	fnmadd.s	f1,f21,f14,f2
    4469e68c:	0000                	.insn	2, 0x0000
    4469e68e:	0000                	.insn	2, 0x0000
    4469e690:	10eaf4cf          	fnmadd.s	f9,f21,f14,f2
    4469e694:	0000                	.insn	2, 0x0000
    4469e696:	0000                	.insn	2, 0x0000
    4469e698:	10eaf8cf          	fnmadd.s	f17,f21,f14,f2
    4469e69c:	0000                	.insn	2, 0x0000
    4469e69e:	0000                	.insn	2, 0x0000
    4469e6a0:	10eafccf          	fnmadd.s	f25,f21,f14,f2
    4469e6a4:	0000                	.insn	2, 0x0000
    4469e6a6:	0000                	.insn	2, 0x0000
    4469e6a8:	10eb00cf          	fnmadd.s	f1,f22,f14,f2,rne
    4469e6ac:	0000                	.insn	2, 0x0000
    4469e6ae:	0000                	.insn	2, 0x0000
    4469e6b0:	10eb04cf          	fnmadd.s	f9,f22,f14,f2,rne
    4469e6b4:	0000                	.insn	2, 0x0000
    4469e6b6:	0000                	.insn	2, 0x0000
    4469e6b8:	10eb08cf          	fnmadd.s	f17,f22,f14,f2,rne
    4469e6bc:	0000                	.insn	2, 0x0000
    4469e6be:	0000                	.insn	2, 0x0000
    4469e6c0:	10eb0ccf          	fnmadd.s	f25,f22,f14,f2,rne
    4469e6c4:	0000                	.insn	2, 0x0000
    4469e6c6:	0000                	.insn	2, 0x0000
    4469e6c8:	10eb10cf          	fnmadd.s	f1,f22,f14,f2,rtz
    4469e6cc:	0000                	.insn	2, 0x0000
    4469e6ce:	0000                	.insn	2, 0x0000
    4469e6d0:	10eb14cf          	fnmadd.s	f9,f22,f14,f2,rtz
    4469e6d4:	0000                	.insn	2, 0x0000
    4469e6d6:	0000                	.insn	2, 0x0000
    4469e6d8:	10eb18cf          	fnmadd.s	f17,f22,f14,f2,rtz
    4469e6dc:	0000                	.insn	2, 0x0000
    4469e6de:	0000                	.insn	2, 0x0000
    4469e6e0:	10eb1ccf          	fnmadd.s	f25,f22,f14,f2,rtz
    4469e6e4:	0000                	.insn	2, 0x0000
    4469e6e6:	0000                	.insn	2, 0x0000
    4469e6e8:	10eb20cf          	fnmadd.s	f1,f22,f14,f2,rdn
    4469e6ec:	0000                	.insn	2, 0x0000
    4469e6ee:	0000                	.insn	2, 0x0000
    4469e6f0:	10eb24cf          	fnmadd.s	f9,f22,f14,f2,rdn
    4469e6f4:	0000                	.insn	2, 0x0000
    4469e6f6:	0000                	.insn	2, 0x0000
    4469e6f8:	10eb28cf          	fnmadd.s	f17,f22,f14,f2,rdn
    4469e6fc:	0000                	.insn	2, 0x0000
    4469e6fe:	0000                	.insn	2, 0x0000
    4469e700:	10eb2ccf          	fnmadd.s	f25,f22,f14,f2,rdn
    4469e704:	0000                	.insn	2, 0x0000
    4469e706:	0000                	.insn	2, 0x0000
    4469e708:	10eb30cf          	fnmadd.s	f1,f22,f14,f2,rup
    4469e70c:	0000                	.insn	2, 0x0000
    4469e70e:	0000                	.insn	2, 0x0000
    4469e710:	10eb34cf          	fnmadd.s	f9,f22,f14,f2,rup
    4469e714:	0000                	.insn	2, 0x0000
    4469e716:	0000                	.insn	2, 0x0000
    4469e718:	10eb38cf          	fnmadd.s	f17,f22,f14,f2,rup
    4469e71c:	0000                	.insn	2, 0x0000
    4469e71e:	0000                	.insn	2, 0x0000
    4469e720:	10eb3ccf          	fnmadd.s	f25,f22,f14,f2,rup
    4469e724:	0000                	.insn	2, 0x0000
    4469e726:	0000                	.insn	2, 0x0000
    4469e728:	10eb40cf          	fnmadd.s	f1,f22,f14,f2,rmm
    4469e72c:	0000                	.insn	2, 0x0000
    4469e72e:	0000                	.insn	2, 0x0000
    4469e730:	10eb44cf          	fnmadd.s	f9,f22,f14,f2,rmm
    4469e734:	0000                	.insn	2, 0x0000
    4469e736:	0000                	.insn	2, 0x0000
    4469e738:	10eb48cf          	fnmadd.s	f17,f22,f14,f2,rmm
    4469e73c:	0000                	.insn	2, 0x0000
    4469e73e:	0000                	.insn	2, 0x0000
    4469e740:	10eb4ccf          	fnmadd.s	f25,f22,f14,f2,rmm
    4469e744:	0000                	.insn	2, 0x0000
    4469e746:	0000                	.insn	2, 0x0000
    4469e748:	10eb50cf          	fnmadd.s	f1,f22,f14,f2,unknown
    4469e74c:	0000                	.insn	2, 0x0000
    4469e74e:	0000                	.insn	2, 0x0000
    4469e750:	10eb54cf          	fnmadd.s	f9,f22,f14,f2,unknown
    4469e754:	0000                	.insn	2, 0x0000
    4469e756:	0000                	.insn	2, 0x0000
    4469e758:	10eb58cf          	fnmadd.s	f17,f22,f14,f2,unknown
    4469e75c:	0000                	.insn	2, 0x0000
    4469e75e:	0000                	.insn	2, 0x0000
    4469e760:	10eb5ccf          	fnmadd.s	f25,f22,f14,f2,unknown
    4469e764:	0000                	.insn	2, 0x0000
    4469e766:	0000                	.insn	2, 0x0000
    4469e768:	10eb60cf          	fnmadd.s	f1,f22,f14,f2,unknown
    4469e76c:	0000                	.insn	2, 0x0000
    4469e76e:	0000                	.insn	2, 0x0000
    4469e770:	10eb64cf          	fnmadd.s	f9,f22,f14,f2,unknown
    4469e774:	0000                	.insn	2, 0x0000
    4469e776:	0000                	.insn	2, 0x0000
    4469e778:	10eb68cf          	fnmadd.s	f17,f22,f14,f2,unknown
    4469e77c:	0000                	.insn	2, 0x0000
    4469e77e:	0000                	.insn	2, 0x0000
    4469e780:	10eb6ccf          	fnmadd.s	f25,f22,f14,f2,unknown
    4469e784:	0000                	.insn	2, 0x0000
    4469e786:	0000                	.insn	2, 0x0000
    4469e788:	10eb70cf          	fnmadd.s	f1,f22,f14,f2
    4469e78c:	0000                	.insn	2, 0x0000
    4469e78e:	0000                	.insn	2, 0x0000
    4469e790:	10eb74cf          	fnmadd.s	f9,f22,f14,f2
    4469e794:	0000                	.insn	2, 0x0000
    4469e796:	0000                	.insn	2, 0x0000
    4469e798:	10eb78cf          	fnmadd.s	f17,f22,f14,f2
    4469e79c:	0000                	.insn	2, 0x0000
    4469e79e:	0000                	.insn	2, 0x0000
    4469e7a0:	10eb7ccf          	fnmadd.s	f25,f22,f14,f2
    4469e7a4:	0000                	.insn	2, 0x0000
    4469e7a6:	0000                	.insn	2, 0x0000
    4469e7a8:	10eb80cf          	fnmadd.s	f1,f23,f14,f2,rne
    4469e7ac:	0000                	.insn	2, 0x0000
    4469e7ae:	0000                	.insn	2, 0x0000
    4469e7b0:	10eb84cf          	fnmadd.s	f9,f23,f14,f2,rne
    4469e7b4:	0000                	.insn	2, 0x0000
    4469e7b6:	0000                	.insn	2, 0x0000
    4469e7b8:	10eb88cf          	fnmadd.s	f17,f23,f14,f2,rne
    4469e7bc:	0000                	.insn	2, 0x0000
    4469e7be:	0000                	.insn	2, 0x0000
    4469e7c0:	10eb8ccf          	fnmadd.s	f25,f23,f14,f2,rne
    4469e7c4:	0000                	.insn	2, 0x0000
    4469e7c6:	0000                	.insn	2, 0x0000
    4469e7c8:	10eb90cf          	fnmadd.s	f1,f23,f14,f2,rtz
    4469e7cc:	0000                	.insn	2, 0x0000
    4469e7ce:	0000                	.insn	2, 0x0000
    4469e7d0:	10eb94cf          	fnmadd.s	f9,f23,f14,f2,rtz
    4469e7d4:	0000                	.insn	2, 0x0000
    4469e7d6:	0000                	.insn	2, 0x0000
    4469e7d8:	10eb98cf          	fnmadd.s	f17,f23,f14,f2,rtz
    4469e7dc:	0000                	.insn	2, 0x0000
    4469e7de:	0000                	.insn	2, 0x0000
    4469e7e0:	10eb9ccf          	fnmadd.s	f25,f23,f14,f2,rtz
    4469e7e4:	0000                	.insn	2, 0x0000
    4469e7e6:	0000                	.insn	2, 0x0000
    4469e7e8:	10eba0cf          	fnmadd.s	f1,f23,f14,f2,rdn
    4469e7ec:	0000                	.insn	2, 0x0000
    4469e7ee:	0000                	.insn	2, 0x0000
    4469e7f0:	10eba4cf          	fnmadd.s	f9,f23,f14,f2,rdn
    4469e7f4:	0000                	.insn	2, 0x0000
    4469e7f6:	0000                	.insn	2, 0x0000
    4469e7f8:	10eba8cf          	fnmadd.s	f17,f23,f14,f2,rdn
    4469e7fc:	0000                	.insn	2, 0x0000
    4469e7fe:	0000                	.insn	2, 0x0000
    4469e800:	10ebaccf          	fnmadd.s	f25,f23,f14,f2,rdn
    4469e804:	0000                	.insn	2, 0x0000
    4469e806:	0000                	.insn	2, 0x0000
    4469e808:	10ebb0cf          	fnmadd.s	f1,f23,f14,f2,rup
    4469e80c:	0000                	.insn	2, 0x0000
    4469e80e:	0000                	.insn	2, 0x0000
    4469e810:	10ebb4cf          	fnmadd.s	f9,f23,f14,f2,rup
    4469e814:	0000                	.insn	2, 0x0000
    4469e816:	0000                	.insn	2, 0x0000
    4469e818:	10ebb8cf          	fnmadd.s	f17,f23,f14,f2,rup
    4469e81c:	0000                	.insn	2, 0x0000
    4469e81e:	0000                	.insn	2, 0x0000
    4469e820:	10ebbccf          	fnmadd.s	f25,f23,f14,f2,rup
    4469e824:	0000                	.insn	2, 0x0000
    4469e826:	0000                	.insn	2, 0x0000
    4469e828:	10ebc0cf          	fnmadd.s	f1,f23,f14,f2,rmm
    4469e82c:	0000                	.insn	2, 0x0000
    4469e82e:	0000                	.insn	2, 0x0000
    4469e830:	10ebc4cf          	fnmadd.s	f9,f23,f14,f2,rmm
    4469e834:	0000                	.insn	2, 0x0000
    4469e836:	0000                	.insn	2, 0x0000
    4469e838:	10ebc8cf          	fnmadd.s	f17,f23,f14,f2,rmm
    4469e83c:	0000                	.insn	2, 0x0000
    4469e83e:	0000                	.insn	2, 0x0000
    4469e840:	10ebcccf          	fnmadd.s	f25,f23,f14,f2,rmm
    4469e844:	0000                	.insn	2, 0x0000
    4469e846:	0000                	.insn	2, 0x0000
    4469e848:	10ebd0cf          	fnmadd.s	f1,f23,f14,f2,unknown
    4469e84c:	0000                	.insn	2, 0x0000
    4469e84e:	0000                	.insn	2, 0x0000
    4469e850:	10ebd4cf          	fnmadd.s	f9,f23,f14,f2,unknown
    4469e854:	0000                	.insn	2, 0x0000
    4469e856:	0000                	.insn	2, 0x0000
    4469e858:	10ebd8cf          	fnmadd.s	f17,f23,f14,f2,unknown
    4469e85c:	0000                	.insn	2, 0x0000
    4469e85e:	0000                	.insn	2, 0x0000
    4469e860:	10ebdccf          	fnmadd.s	f25,f23,f14,f2,unknown
    4469e864:	0000                	.insn	2, 0x0000
    4469e866:	0000                	.insn	2, 0x0000
    4469e868:	10ebe0cf          	fnmadd.s	f1,f23,f14,f2,unknown
    4469e86c:	0000                	.insn	2, 0x0000
    4469e86e:	0000                	.insn	2, 0x0000
    4469e870:	10ebe4cf          	fnmadd.s	f9,f23,f14,f2,unknown
    4469e874:	0000                	.insn	2, 0x0000
    4469e876:	0000                	.insn	2, 0x0000
    4469e878:	10ebe8cf          	fnmadd.s	f17,f23,f14,f2,unknown
    4469e87c:	0000                	.insn	2, 0x0000
    4469e87e:	0000                	.insn	2, 0x0000
    4469e880:	10ebeccf          	fnmadd.s	f25,f23,f14,f2,unknown
    4469e884:	0000                	.insn	2, 0x0000
    4469e886:	0000                	.insn	2, 0x0000
    4469e888:	10ebf0cf          	fnmadd.s	f1,f23,f14,f2
    4469e88c:	0000                	.insn	2, 0x0000
    4469e88e:	0000                	.insn	2, 0x0000
    4469e890:	10ebf4cf          	fnmadd.s	f9,f23,f14,f2
    4469e894:	0000                	.insn	2, 0x0000
    4469e896:	0000                	.insn	2, 0x0000
    4469e898:	10ebf8cf          	fnmadd.s	f17,f23,f14,f2
    4469e89c:	0000                	.insn	2, 0x0000
    4469e89e:	0000                	.insn	2, 0x0000
    4469e8a0:	10ebfccf          	fnmadd.s	f25,f23,f14,f2
    4469e8a4:	0000                	.insn	2, 0x0000
    4469e8a6:	0000                	.insn	2, 0x0000
    4469e8a8:	00df 10ec 0000      	.insn	6, 0x10ec00df
    4469e8ae:	0000                	.insn	2, 0x0000
    4469e8b0:	04df 10ec 0000      	.insn	6, 0x10ec04df
    4469e8b6:	0000                	.insn	2, 0x0000
    4469e8b8:	08df 10ec 0000      	.insn	6, 0x10ec08df
    4469e8be:	0000                	.insn	2, 0x0000
    4469e8c0:	0cdf 10ec 0000      	.insn	6, 0x10ec0cdf
    4469e8c6:	0000                	.insn	2, 0x0000
    4469e8c8:	10df 10ec 0000      	.insn	6, 0x10ec10df
    4469e8ce:	0000                	.insn	2, 0x0000
    4469e8d0:	14df 10ec 0000      	.insn	6, 0x10ec14df
    4469e8d6:	0000                	.insn	2, 0x0000
    4469e8d8:	18df 10ec 0000      	.insn	6, 0x10ec18df
    4469e8de:	0000                	.insn	2, 0x0000
    4469e8e0:	1cdf 10ec 0000      	.insn	6, 0x10ec1cdf
    4469e8e6:	0000                	.insn	2, 0x0000
    4469e8e8:	20df 10ec 0000      	.insn	6, 0x10ec20df
    4469e8ee:	0000                	.insn	2, 0x0000
    4469e8f0:	24df 10ec 0000      	.insn	6, 0x10ec24df
    4469e8f6:	0000                	.insn	2, 0x0000
    4469e8f8:	28df 10ec 0000      	.insn	6, 0x10ec28df
    4469e8fe:	0000                	.insn	2, 0x0000
    4469e900:	2cdf 10ec 0000      	.insn	6, 0x10ec2cdf
    4469e906:	0000                	.insn	2, 0x0000
    4469e908:	30df 10ec 0000      	.insn	6, 0x10ec30df
    4469e90e:	0000                	.insn	2, 0x0000
    4469e910:	34df 10ec 0000      	.insn	6, 0x10ec34df
    4469e916:	0000                	.insn	2, 0x0000
    4469e918:	38df 10ec 0000      	.insn	6, 0x10ec38df
    4469e91e:	0000                	.insn	2, 0x0000
    4469e920:	3cdf 10ec 0000      	.insn	6, 0x10ec3cdf
    4469e926:	0000                	.insn	2, 0x0000
    4469e928:	40df 10ec 0000      	.insn	6, 0x10ec40df
    4469e92e:	0000                	.insn	2, 0x0000
    4469e930:	44df 10ec 0000      	.insn	6, 0x10ec44df
    4469e936:	0000                	.insn	2, 0x0000
    4469e938:	48df 10ec 0000      	.insn	6, 0x10ec48df
    4469e93e:	0000                	.insn	2, 0x0000
    4469e940:	4cdf 10ec 0000      	.insn	6, 0x10ec4cdf
    4469e946:	0000                	.insn	2, 0x0000
    4469e948:	50df 10ec 0000      	.insn	6, 0x10ec50df
    4469e94e:	0000                	.insn	2, 0x0000
    4469e950:	54df 10ec 0000      	.insn	6, 0x10ec54df
    4469e956:	0000                	.insn	2, 0x0000
    4469e958:	58df 10ec 0000      	.insn	6, 0x10ec58df
    4469e95e:	0000                	.insn	2, 0x0000
    4469e960:	5cdf 10ec 0000      	.insn	6, 0x10ec5cdf
    4469e966:	0000                	.insn	2, 0x0000
    4469e968:	60df 10ec 0000      	.insn	6, 0x10ec60df
    4469e96e:	0000                	.insn	2, 0x0000
    4469e970:	64df 10ec 0000      	.insn	6, 0x10ec64df
    4469e976:	0000                	.insn	2, 0x0000
    4469e978:	68df 10ec 0000      	.insn	6, 0x10ec68df
    4469e97e:	0000                	.insn	2, 0x0000
    4469e980:	6cdf 10ec 0000      	.insn	6, 0x10ec6cdf
    4469e986:	0000                	.insn	2, 0x0000
    4469e988:	70df 10ec 0000      	.insn	6, 0x10ec70df
    4469e98e:	0000                	.insn	2, 0x0000
    4469e990:	74df 10ec 0000      	.insn	6, 0x10ec74df
    4469e996:	0000                	.insn	2, 0x0000
    4469e998:	78df 10ec 0000      	.insn	6, 0x10ec78df
    4469e99e:	0000                	.insn	2, 0x0000
    4469e9a0:	7cdf 10ec 0000      	.insn	6, 0x10ec7cdf
    4469e9a6:	0000                	.insn	2, 0x0000
    4469e9a8:	80df 10ec 0000      	.insn	6, 0x10ec80df
    4469e9ae:	0000                	.insn	2, 0x0000
    4469e9b0:	84df 10ec 0000      	.insn	6, 0x10ec84df
    4469e9b6:	0000                	.insn	2, 0x0000
    4469e9b8:	88df 10ec 0000      	.insn	6, 0x10ec88df
    4469e9be:	0000                	.insn	2, 0x0000
    4469e9c0:	8cdf 10ec 0000      	.insn	6, 0x10ec8cdf
    4469e9c6:	0000                	.insn	2, 0x0000
    4469e9c8:	90df 10ec 0000      	.insn	6, 0x10ec90df
    4469e9ce:	0000                	.insn	2, 0x0000
    4469e9d0:	94df 10ec 0000      	.insn	6, 0x10ec94df
    4469e9d6:	0000                	.insn	2, 0x0000
    4469e9d8:	98df 10ec 0000      	.insn	6, 0x10ec98df
    4469e9de:	0000                	.insn	2, 0x0000
    4469e9e0:	9cdf 10ec 0000      	.insn	6, 0x10ec9cdf
    4469e9e6:	0000                	.insn	2, 0x0000
    4469e9e8:	a0df 10ec 0000      	.insn	6, 0x10eca0df
    4469e9ee:	0000                	.insn	2, 0x0000
    4469e9f0:	a4df 10ec 0000      	.insn	6, 0x10eca4df
    4469e9f6:	0000                	.insn	2, 0x0000
    4469e9f8:	a8df 10ec 0000      	.insn	6, 0x10eca8df
    4469e9fe:	0000                	.insn	2, 0x0000
    4469ea00:	acdf 10ec 0000      	.insn	6, 0x10ecacdf
    4469ea06:	0000                	.insn	2, 0x0000
    4469ea08:	b0df 10ec 0000      	.insn	6, 0x10ecb0df
    4469ea0e:	0000                	.insn	2, 0x0000
    4469ea10:	b4df 10ec 0000      	.insn	6, 0x10ecb4df
    4469ea16:	0000                	.insn	2, 0x0000
    4469ea18:	b8df 10ec 0000      	.insn	6, 0x10ecb8df
    4469ea1e:	0000                	.insn	2, 0x0000
    4469ea20:	bcdf 10ec 0000      	.insn	6, 0x10ecbcdf
    4469ea26:	0000                	.insn	2, 0x0000
    4469ea28:	c0df 10ec 0000      	.insn	6, 0x10ecc0df
    4469ea2e:	0000                	.insn	2, 0x0000
    4469ea30:	c4df 10ec 0000      	.insn	6, 0x10ecc4df
    4469ea36:	0000                	.insn	2, 0x0000
    4469ea38:	c8df 10ec 0000      	.insn	6, 0x10ecc8df
    4469ea3e:	0000                	.insn	2, 0x0000
    4469ea40:	ccdf 10ec 0000      	.insn	6, 0x10ecccdf
    4469ea46:	0000                	.insn	2, 0x0000
    4469ea48:	d0df 10ec 0000      	.insn	6, 0x10ecd0df
    4469ea4e:	0000                	.insn	2, 0x0000
    4469ea50:	d4df 10ec 0000      	.insn	6, 0x10ecd4df
    4469ea56:	0000                	.insn	2, 0x0000
    4469ea58:	d8df 10ec 0000      	.insn	6, 0x10ecd8df
    4469ea5e:	0000                	.insn	2, 0x0000
    4469ea60:	dcdf 10ec 0000      	.insn	6, 0x10ecdcdf
    4469ea66:	0000                	.insn	2, 0x0000
    4469ea68:	e0df 10ec 0000      	.insn	6, 0x10ece0df
    4469ea6e:	0000                	.insn	2, 0x0000
    4469ea70:	e4df 10ec 0000      	.insn	6, 0x10ece4df
    4469ea76:	0000                	.insn	2, 0x0000
    4469ea78:	e8df 10ec 0000      	.insn	6, 0x10ece8df
    4469ea7e:	0000                	.insn	2, 0x0000
    4469ea80:	ecdf 10ec 0000      	.insn	6, 0x10ececdf
    4469ea86:	0000                	.insn	2, 0x0000
    4469ea88:	f0df 10ec 0000      	.insn	6, 0x10ecf0df
    4469ea8e:	0000                	.insn	2, 0x0000
    4469ea90:	f4df 10ec 0000      	.insn	6, 0x10ecf4df
    4469ea96:	0000                	.insn	2, 0x0000
    4469ea98:	f8df 10ec 0000      	.insn	6, 0x10ecf8df
    4469ea9e:	0000                	.insn	2, 0x0000
    4469eaa0:	fcdf 10ec 0000      	.insn	6, 0x10ecfcdf
    4469eaa6:	0000                	.insn	2, 0x0000
    4469eaa8:	00df 10ed 0000      	.insn	6, 0x10ed00df
    4469eaae:	0000                	.insn	2, 0x0000
    4469eab0:	04df 10ed 0000      	.insn	6, 0x10ed04df
    4469eab6:	0000                	.insn	2, 0x0000
    4469eab8:	08df 10ed 0000      	.insn	6, 0x10ed08df
    4469eabe:	0000                	.insn	2, 0x0000
    4469eac0:	0cdf 10ed 0000      	.insn	6, 0x10ed0cdf
    4469eac6:	0000                	.insn	2, 0x0000
    4469eac8:	10df 10ed 0000      	.insn	6, 0x10ed10df
    4469eace:	0000                	.insn	2, 0x0000
    4469ead0:	14df 10ed 0000      	.insn	6, 0x10ed14df
    4469ead6:	0000                	.insn	2, 0x0000
    4469ead8:	18df 10ed 0000      	.insn	6, 0x10ed18df
    4469eade:	0000                	.insn	2, 0x0000
    4469eae0:	1cdf 10ed 0000      	.insn	6, 0x10ed1cdf
    4469eae6:	0000                	.insn	2, 0x0000
    4469eae8:	20df 10ed 0000      	.insn	6, 0x10ed20df
    4469eaee:	0000                	.insn	2, 0x0000
    4469eaf0:	24df 10ed 0000      	.insn	6, 0x10ed24df
    4469eaf6:	0000                	.insn	2, 0x0000
    4469eaf8:	28df 10ed 0000      	.insn	6, 0x10ed28df
    4469eafe:	0000                	.insn	2, 0x0000
    4469eb00:	2cdf 10ed 0000      	.insn	6, 0x10ed2cdf
    4469eb06:	0000                	.insn	2, 0x0000
    4469eb08:	30df 10ed 0000      	.insn	6, 0x10ed30df
    4469eb0e:	0000                	.insn	2, 0x0000
    4469eb10:	34df 10ed 0000      	.insn	6, 0x10ed34df
    4469eb16:	0000                	.insn	2, 0x0000
    4469eb18:	38df 10ed 0000      	.insn	6, 0x10ed38df
    4469eb1e:	0000                	.insn	2, 0x0000
    4469eb20:	3cdf 10ed 0000      	.insn	6, 0x10ed3cdf
    4469eb26:	0000                	.insn	2, 0x0000
    4469eb28:	40df 10ed 0000      	.insn	6, 0x10ed40df
    4469eb2e:	0000                	.insn	2, 0x0000
    4469eb30:	44df 10ed 0000      	.insn	6, 0x10ed44df
    4469eb36:	0000                	.insn	2, 0x0000
    4469eb38:	48df 10ed 0000      	.insn	6, 0x10ed48df
    4469eb3e:	0000                	.insn	2, 0x0000
    4469eb40:	4cdf 10ed 0000      	.insn	6, 0x10ed4cdf
    4469eb46:	0000                	.insn	2, 0x0000
    4469eb48:	50df 10ed 0000      	.insn	6, 0x10ed50df
    4469eb4e:	0000                	.insn	2, 0x0000
    4469eb50:	54df 10ed 0000      	.insn	6, 0x10ed54df
    4469eb56:	0000                	.insn	2, 0x0000
    4469eb58:	58df 10ed 0000      	.insn	6, 0x10ed58df
    4469eb5e:	0000                	.insn	2, 0x0000
    4469eb60:	5cdf 10ed 0000      	.insn	6, 0x10ed5cdf
    4469eb66:	0000                	.insn	2, 0x0000
    4469eb68:	60df 10ed 0000      	.insn	6, 0x10ed60df
    4469eb6e:	0000                	.insn	2, 0x0000
    4469eb70:	64df 10ed 0000      	.insn	6, 0x10ed64df
    4469eb76:	0000                	.insn	2, 0x0000
    4469eb78:	68df 10ed 0000      	.insn	6, 0x10ed68df
    4469eb7e:	0000                	.insn	2, 0x0000
    4469eb80:	6cdf 10ed 0000      	.insn	6, 0x10ed6cdf
    4469eb86:	0000                	.insn	2, 0x0000
    4469eb88:	70df 10ed 0000      	.insn	6, 0x10ed70df
    4469eb8e:	0000                	.insn	2, 0x0000
    4469eb90:	74df 10ed 0000      	.insn	6, 0x10ed74df
    4469eb96:	0000                	.insn	2, 0x0000
    4469eb98:	78df 10ed 0000      	.insn	6, 0x10ed78df
    4469eb9e:	0000                	.insn	2, 0x0000
    4469eba0:	7cdf 10ed 0000      	.insn	6, 0x10ed7cdf
    4469eba6:	0000                	.insn	2, 0x0000
    4469eba8:	80df 10ed 0000      	.insn	6, 0x10ed80df
    4469ebae:	0000                	.insn	2, 0x0000
    4469ebb0:	84df 10ed 0000      	.insn	6, 0x10ed84df
    4469ebb6:	0000                	.insn	2, 0x0000
    4469ebb8:	88df 10ed 0000      	.insn	6, 0x10ed88df
    4469ebbe:	0000                	.insn	2, 0x0000
    4469ebc0:	8cdf 10ed 0000      	.insn	6, 0x10ed8cdf
    4469ebc6:	0000                	.insn	2, 0x0000
    4469ebc8:	90df 10ed 0000      	.insn	6, 0x10ed90df
    4469ebce:	0000                	.insn	2, 0x0000
    4469ebd0:	94df 10ed 0000      	.insn	6, 0x10ed94df
    4469ebd6:	0000                	.insn	2, 0x0000
    4469ebd8:	98df 10ed 0000      	.insn	6, 0x10ed98df
    4469ebde:	0000                	.insn	2, 0x0000
    4469ebe0:	9cdf 10ed 0000      	.insn	6, 0x10ed9cdf
    4469ebe6:	0000                	.insn	2, 0x0000
    4469ebe8:	a0df 10ed 0000      	.insn	6, 0x10eda0df
    4469ebee:	0000                	.insn	2, 0x0000
    4469ebf0:	a4df 10ed 0000      	.insn	6, 0x10eda4df
    4469ebf6:	0000                	.insn	2, 0x0000
    4469ebf8:	a8df 10ed 0000      	.insn	6, 0x10eda8df
    4469ebfe:	0000                	.insn	2, 0x0000
    4469ec00:	acdf 10ed 0000      	.insn	6, 0x10edacdf
    4469ec06:	0000                	.insn	2, 0x0000
    4469ec08:	b0df 10ed 0000      	.insn	6, 0x10edb0df
    4469ec0e:	0000                	.insn	2, 0x0000
    4469ec10:	b4df 10ed 0000      	.insn	6, 0x10edb4df
    4469ec16:	0000                	.insn	2, 0x0000
    4469ec18:	b8df 10ed 0000      	.insn	6, 0x10edb8df
    4469ec1e:	0000                	.insn	2, 0x0000
    4469ec20:	bcdf 10ed 0000      	.insn	6, 0x10edbcdf
    4469ec26:	0000                	.insn	2, 0x0000
    4469ec28:	c0df 10ed 0000      	.insn	6, 0x10edc0df
    4469ec2e:	0000                	.insn	2, 0x0000
    4469ec30:	c4df 10ed 0000      	.insn	6, 0x10edc4df
    4469ec36:	0000                	.insn	2, 0x0000
    4469ec38:	c8df 10ed 0000      	.insn	6, 0x10edc8df
    4469ec3e:	0000                	.insn	2, 0x0000
    4469ec40:	ccdf 10ed 0000      	.insn	6, 0x10edccdf
    4469ec46:	0000                	.insn	2, 0x0000
    4469ec48:	d0df 10ed 0000      	.insn	6, 0x10edd0df
    4469ec4e:	0000                	.insn	2, 0x0000
    4469ec50:	d4df 10ed 0000      	.insn	6, 0x10edd4df
    4469ec56:	0000                	.insn	2, 0x0000
    4469ec58:	d8df 10ed 0000      	.insn	6, 0x10edd8df
    4469ec5e:	0000                	.insn	2, 0x0000
    4469ec60:	dcdf 10ed 0000      	.insn	6, 0x10eddcdf
    4469ec66:	0000                	.insn	2, 0x0000
    4469ec68:	e0df 10ed 0000      	.insn	6, 0x10ede0df
    4469ec6e:	0000                	.insn	2, 0x0000
    4469ec70:	e4df 10ed 0000      	.insn	6, 0x10ede4df
    4469ec76:	0000                	.insn	2, 0x0000
    4469ec78:	e8df 10ed 0000      	.insn	6, 0x10ede8df
    4469ec7e:	0000                	.insn	2, 0x0000
    4469ec80:	ecdf 10ed 0000      	.insn	6, 0x10edecdf
    4469ec86:	0000                	.insn	2, 0x0000
    4469ec88:	f0df 10ed 0000      	.insn	6, 0x10edf0df
    4469ec8e:	0000                	.insn	2, 0x0000
    4469ec90:	f4df 10ed 0000      	.insn	6, 0x10edf4df
    4469ec96:	0000                	.insn	2, 0x0000
    4469ec98:	f8df 10ed 0000      	.insn	6, 0x10edf8df
    4469ec9e:	0000                	.insn	2, 0x0000
    4469eca0:	fcdf 10ed 0000      	.insn	6, 0x10edfcdf
	...

Disassembly of section .__pagetable_map_os_0x000000004384a000:

000000004384a000 <__pagetable_map_os_0x000000004384a000>:
	...
    4384a0b0:	10f004cf          	fnmadd.s	f9,f0,f15,f2,rne
    4384a0b4:	0000                	.insn	2, 0x0000
	...

Disassembly of section .__pagetable_map_os_0x0000000043ccf000:

0000000043ccf000 <__pagetable_map_os_0x0000000043ccf000>:
	...
    43ccf4d0:	68df 111a 0000      	.insn	6, 0x111a68df
	...

Disassembly of section .__pagetable_map_os_0x0000000044da7000:

0000000044da7000 <__pagetable_map_os_0x0000000044da7000>:
	...
    44da7868:	7401                	.insn	2, 0x7401
    44da786a:	000010f3          	csrrw	x1,ustatus,x0
	...

Disassembly of section .__pagetable_map_os_0x0000000043cdd000:

0000000043cdd000 <__pagetable_map_os_0x0000000043cdd000>:
	...
    43cdddf0:	98df 105f 0000      	.insn	6, 0x105f98df
	...

Disassembly of section .__pagetable_map_os_0x0000000043678000:

0000000043678000 <__pagetable_map_os_0x0000000043678000>:
    43678000:	f401                	.insn	2, 0xf401
    43678002:	10e1                	.insn	2, 0x10e1
	...
    43678050:	5801                	.insn	2, 0x5801
    43678052:	1101                	.insn	2, 0x1101
	...
    436780f0:	8001                	.insn	2, 0x8001
    436780f2:	106e                	.insn	2, 0x106e
	...
    43678300:	5c01                	.insn	2, 0x5c01
    43678302:	000010f3          	csrrw	x1,ustatus,x0
	...
    4367872e:	0000                	.insn	2, 0x0000
    43678730:	5401                	.insn	2, 0x5401
    43678732:	1124                	.insn	2, 0x1124
	...
    436788f8:	4801                	.insn	2, 0x4801
    436788fa:	112c                	.insn	2, 0x112c
    436788fc:	0000                	.insn	2, 0x0000
	...

Disassembly of section .__pagetable_map_os_0x0000000043cd7000:

0000000043cd7000 <__pagetable_map_os_0x0000000043cd7000>:
	...
    43cd77b0:	f4df 106d 0000      	.insn	6, 0x106df4df
	...

Disassembly of section .__pagetable_map_os_0x0000000044915000:

0000000044915000 <__pagetable_map_os_0x0000000044915000>:
	...
    44915280:	10f338d7          	.insn	4, 0x10f338d7
	...
    44915290:	58df 1124 0000      	.insn	6, 0x112458df
	...

Disassembly of section .__pagetable_map_os_0x000000004387d000:

000000004387d000 <__pagetable_map_os_0x000000004387d000>:
	...
    4387d010:	d4df 111f 0000      	.insn	6, 0x111fd4df
	...
    4387d056:	0000                	.insn	2, 0x0000
    4387d058:	a8df 10f1 0000      	.insn	6, 0x10f1a8df
	...
    4387d0e6:	0000                	.insn	2, 0x0000
    4387d0e8:	50df 110d 0000      	.insn	6, 0x110d50df
	...
    4387d486:	0000                	.insn	2, 0x0000
    4387d488:	10f13cd7          	.insn	4, 0x10f13cd7
    4387d48c:	0000                	.insn	2, 0x0000
	...

Disassembly of section .__pagetable_map_os_0x0000000044056000:

0000000044056000 <__pagetable_map_os_0x0000000044056000>:
	...
    44056760:	dcdf 111e 0000      	.insn	6, 0x111edcdf
	...

Disassembly of section .__pagetable_map_os_0x0000000044b12000:

0000000044b12000 <__pagetable_map_os_0x0000000044b12000>:
	...
    44b12190:	10a930d7          	.insn	4, 0x10a930d7
    44b12194:	0000                	.insn	2, 0x0000
	...

Disassembly of section .__pagetable_map_os_0x0000000041ba0000:

0000000041ba0000 <__pagetable_map_os_0x0000000041ba0000>:
	...
    41ba0970:	10e7f4d7          	vsetvli	x9,x15,270
    41ba0974:	0000                	.insn	2, 0x0000
	...

Disassembly of section .__pagetable_map_os_0x000000004484e000:

000000004484e000 <__pagetable_map_os_0x000000004484e000>:
	...
    4484efb0:	dc01                	.insn	2, 0xdc01
    4484efb2:	10e0                	.insn	2, 0x10e0
    4484efb4:	0000                	.insn	2, 0x0000
	...

Disassembly of section .__pagetable_map_os_0x0000000043837000:

0000000043837000 <__pagetable_map_os_0x0000000043837000>:
	...
    438376f0:	111970d7          	vsetvli	x1,x18,273
    438376f4:	0000                	.insn	2, 0x0000
	...

Disassembly of section .__pagetable_map_os_0x000000004422e000:

000000004422e000 <__pagetable_map_os_0x000000004422e000>:
	...
    4422e938:	b801                	.insn	2, 0xb801
    4422e93a:	111f 0000 0000      	.insn	6, 0x111f

Disassembly of section .__pagetable_map_os_0x00000000447ee000:

00000000447ee000 <__pagetable_map_os_0x00000000447ee000>:
	...
    447ee6d0:	111fc0d7          	vminu.vx	v1,v17,x31,v0.t
    447ee6d4:	0000                	.insn	2, 0x0000
	...

Disassembly of section .__pagetable_map_os_0x000000004368a000:

000000004368a000 <__pagetable_map_os_0x000000004368a000>:
	...
    4368aee8:	7401                	.insn	2, 0x7401
    4368aeea:	000010a7          	fsh	f0,1(x0) # 1 <CHECK_EXCP_MODE_MACHINE>
	...

Disassembly of section .__pagetable_map_os_0x00000000429dd000:

00000000429dd000 <__pagetable_map_os_0x00000000429dd000>:
	...
    429dd620:	10f364d7          	.insn	4, 0x10f364d7
    429dd624:	0000                	.insn	2, 0x0000
	...

Disassembly of section .__pagetable_map_os_0x0000000043853000:

0000000043853000 <__pagetable_map_os_0x0000000043853000>:
	...
    438535c8:	3401                	.insn	2, 0x3401
    438535ca:	10a9                	.insn	2, 0x10a9
    438535cc:	0000                	.insn	2, 0x0000
	...

Disassembly of section .__pagetable_map_os_0x0000000042a4d000:

0000000042a4d000 <__pagetable_map_os_0x0000000042a4d000>:
	...
    42a4dd18:	c401                	.insn	2, 0xc401
    42a4dd1a:	111f 0000 0000      	.insn	6, 0x111f

Disassembly of section .__pagetable_map_os_0x00000000447f1000:

00000000447f1000 <__pagetable_map_os_0x00000000447f1000>:
	...
    447f19c0:	f8df 10e7 0000      	.insn	6, 0x10e7f8df
    447f19c6:	0000                	.insn	2, 0x0000
    447f19c8:	fcdf 10e7 0000      	.insn	6, 0x10e7fcdf
	...

Disassembly of section .__pagetable_map_os_0x0000000044da8000:

0000000044da8000 <__pagetable_map_os_0x0000000044da8000>:
	...
    44da84d8:	cc01                	.insn	2, 0xcc01
    44da84da:	111f 0000 0000      	.insn	6, 0x111f
	...
    44da8e28:	1801                	.insn	2, 0x1801
    44da8e2a:	10e1                	.insn	2, 0x10e1
    44da8e2c:	0000                	.insn	2, 0x0000
	...

Disassembly of section .__pagetable_map_os_0x00000000447f3000:

00000000447f3000 <__pagetable_map_os_0x00000000447f3000>:
	...
    447f3ce0:	9001                	.insn	2, 0x9001
    447f3ce2:	10e1                	.insn	2, 0x10e1
    447f3ce4:	0000                	.insn	2, 0x0000
	...

Disassembly of section .__pagetable_map_os_0x0000000043864000:

0000000043864000 <__pagetable_map_os_0x0000000043864000>:
	...
    43864710:	38df 10cb 0000      	.insn	6, 0x10cb38df
    43864716:	0000                	.insn	2, 0x0000
    43864718:	3cdf 10cb 0000      	.insn	6, 0x10cb3cdf
	...

Disassembly of section .__pagetable_map_os_0x0000000043846000:

0000000043846000 <__pagetable_map_os_0x0000000043846000>:
	...
    438466e0:	2001                	.insn	2, 0x2001
    438466e2:	109a                	.insn	2, 0x109a
    438466e4:	0000                	.insn	2, 0x0000
	...

Disassembly of section .__pagetable_map_os_0x0000000042688000:

0000000042688000 <__pagetable_map_os_0x0000000042688000>:
	...
    42688e80:	10d8a0d7          	vredminu.vs	v1,v13,v17,v0.t
    42688e84:	0000                	.insn	2, 0x0000
	...

Disassembly of section .__pagetable_map_os_0x0000000043ce3000:

0000000043ce3000 <__pagetable_map_os_0x0000000043ce3000>:
	...
    43ce3118:	fc01                	.insn	2, 0xfc01
    43ce311a:	10d2                	.insn	2, 0x10d2
    43ce311c:	0000                	.insn	2, 0x0000
	...

Disassembly of section .__pagetable_map_os_0x00000000434bf000:

00000000434bf000 <__pagetable_map_os_0x00000000434bf000>:
	...
    434bf028:	5401                	.insn	2, 0x5401
    434bf02a:	10de                	.insn	2, 0x10de
    434bf02c:	0000                	.insn	2, 0x0000
	...

Disassembly of section .__pagetable_map_os_0x0000000043795000:

0000000043795000 <__pagetable_map_os_0x0000000043795000>:
	...
    437956b0:	50df 10da 0000      	.insn	6, 0x10da50df
	...

Disassembly of section .__pagetable_map_os_0x000000004387f000:

000000004387f000 <__pagetable_map_os_0x000000004387f000>:
	...
    4387f260:	7c01                	.insn	2, 0x7c01
    4387f262:	10d9                	.insn	2, 0x10d9
	...
    4387f810:	e401                	.insn	2, 0xe401
    4387f812:	106c                	.insn	2, 0x106c
    4387f814:	0000                	.insn	2, 0x0000
	...

Disassembly of section .__pagetable_map_os_0x000000004365f000:

000000004365f000 <__pagetable_map_os_0x000000004365f000>:
	...
    4365fc28:	7c01                	.insn	2, 0x7c01
    4365fc2a:	10f1                	.insn	2, 0x10f1
    4365fc2c:	0000                	.insn	2, 0x0000
	...

Disassembly of section .__pagetable_map_os_0x0000000043c5f000:

0000000043c5f000 <__pagetable_map_os_0x0000000043c5f000>:
	...
    43c5f408:	dcdf 106e 0000      	.insn	6, 0x106edcdf
	...

Disassembly of section .__pagetable_map_os_0x0000000041b39000:

0000000041b39000 <__pagetable_map_os_0x0000000041b39000>:
	...
    41b39bd8:	1401                	.insn	2, 0x1401
    41b39bda:	10e1                	.insn	2, 0x10e1
    41b39bdc:	0000                	.insn	2, 0x0000
	...

Disassembly of section .__pagetable_map_os_0x0000000043845000:

0000000043845000 <__pagetable_map_os_0x0000000043845000>:
	...
    438457a8:	10f370d7          	vsetvli	x1,x6,271
    438457ac:	0000                	.insn	2, 0x0000
	...

Disassembly of section .__pagetable_map_os_0x0000000043ce8000:

0000000043ce8000 <__pagetable_map_os_0x0000000043ce8000>:
	...
    43ce8a68:	7801                	.insn	2, 0x7801
    43ce8a6a:	000010f3          	csrrw	x1,ustatus,x0
	...

Disassembly of section .__pagetable_map_os_0x0000000043cde000:

0000000043cde000 <__pagetable_map_os_0x0000000043cde000>:
	...
    43cde2a8:	4401                	.insn	2, 0x4401
    43cde2aa:	000010f3          	csrrw	x1,ustatus,x0
	...

Disassembly of section .__pagetable_map_os_0x0000000043cd1000:

0000000043cd1000 <__pagetable_map_os_0x0000000043cd1000>:
	...
    43cd1b48:	7cdf 10e2 0000      	.insn	6, 0x10e27cdf
	...
    43cd1b56:	0000                	.insn	2, 0x0000
    43cd1b58:	80df 10f3 0000      	.insn	6, 0x10f380df
	...

Disassembly of section .__pagetable_map_os_0x000000004382b000:

000000004382b000 <__pagetable_map_os_0x000000004382b000>:
	...
    4382b078:	1001                	.insn	2, 0x1001
    4382b07a:	106c                	.insn	2, 0x106c
    4382b07c:	0000                	.insn	2, 0x0000
	...

Disassembly of section .__pagetable_map_os_0x0000000041b04000:

0000000041b04000 <__pagetable_map_os_0x0000000041b04000>:
	...
    41b04f58:	8001                	.insn	2, 0x8001
    41b04f5a:	00001123          	sh	x0,2(x0) # 2 <CHECK_EXCP_MODE_HS>
	...

Disassembly of section .__pagetable_map_os_0x00000000448e0000:

00000000448e0000 <__pagetable_map_os_0x00000000448e0000>:
	...
    448e0058:	a4df 1136 0000      	.insn	6, 0x1136a4df
	...

Disassembly of section .__pagetable_map_os_0x0000000043cda000:

0000000043cda000 <__pagetable_map_os_0x0000000043cda000>:
	...
    43cdaa18:	1c01                	.insn	2, 0x1c01
    43cdaa1a:	10da                	.insn	2, 0x10da
    43cdaa1c:	0000                	.insn	2, 0x0000
	...

Disassembly of section .__pagetable_map_os_0x0000000043687000:

0000000043687000 <__pagetable_map_os_0x0000000043687000>:
	...
    43687ad8:	3c01                	.insn	2, 0x3c01
    43687ada:	10da                	.insn	2, 0x10da
    43687adc:	0000                	.insn	2, 0x0000
	...

Disassembly of section .__pagetable_map_os_0x000000004368f000:

000000004368f000 <__pagetable_map_os_0x000000004368f000>:
	...
    4368fd40:	10f3b8d7          	.insn	4, 0x10f3b8d7
    4368fd44:	0000                	.insn	2, 0x0000
	...

Disassembly of section .__pagetable_map_os_0x0000000043f0c000:

0000000043f0c000 <__pagetable_map_os_0x0000000043f0c000>:
	...
    43f0c550:	d801                	.insn	2, 0xd801
    43f0c552:	10e1                	.insn	2, 0x10e1
    43f0c554:	0000                	.insn	2, 0x0000
	...

Disassembly of section .__pagetable_map_os_0x0000000043876000:

0000000043876000 <__pagetable_map_os_0x0000000043876000>:
	...
    438764b8:	3001                	.insn	2, 0x3001
    438764ba:	10d9                	.insn	2, 0x10d9
    438764bc:	0000                	.insn	2, 0x0000
	...

Disassembly of section .__pagetable_map_os_0x000000004364c000:

000000004364c000 <__pagetable_map_os_0x000000004364c000>:
	...
    4364cfe8:	10f1ecd7          	.insn	4, 0x10f1ecd7
    4364cfec:	0000                	.insn	2, 0x0000
	...
