
/home/abdullah/RiescueC/riescue/10x_R/za64rs/testsuite/za64rs/user_sv48/tp_za64rs_2:     file format elf64-littleriscv


Disassembly of section .runtime:

0000000041000000 <_start>:
    41000000:	00000093          	li	x1,0
    41000004:	00000113          	li	x2,0
    41000008:	00000193          	li	x3,0
    4100000c:	00000213          	li	x4,0
    41000010:	00000293          	li	x5,0
    41000014:	00000313          	li	x6,0
    41000018:	00000393          	li	x7,0
    4100001c:	00000413          	li	x8,0
    41000020:	00000493          	li	x9,0
    41000024:	00000513          	li	x10,0
    41000028:	00000593          	li	x11,0
    4100002c:	00000613          	li	x12,0
    41000030:	00000693          	li	x13,0
    41000034:	00000713          	li	x14,0
    41000038:	00000793          	li	x15,0
    4100003c:	00000813          	li	x16,0
    41000040:	00000893          	li	x17,0
    41000044:	00000913          	li	x18,0
    41000048:	00000993          	li	x19,0
    4100004c:	00000a13          	li	x20,0
    41000050:	00000a93          	li	x21,0
    41000054:	00000b13          	li	x22,0
    41000058:	00000b93          	li	x23,0
    4100005c:	00000c13          	li	x24,0
    41000060:	00000c93          	li	x25,0
    41000064:	00000d13          	li	x26,0
    41000068:	00000d93          	li	x27,0
    4100006c:	00000e13          	li	x28,0
    41000070:	00000e93          	li	x29,0
    41000074:	00000f13          	li	x30,0
    41000078:	00000f93          	li	x31,0

000000004100007c <loader__load_panic_address>:
    4100007c:	00001297          	auipc	x5,0x1
    41000080:	9e828293          	addi	x5,x5,-1560 # 41000a64 <eot__failed>
    41000084:	30529073          	csrw	mtvec,x5

0000000041000088 <loader__initialize_runtime>:
    41000088:	00000293          	li	x5,0
    4100008c:	3012a2f3          	csrrs	x5,misa,x5

0000000041000090 <loader__set_mstatus>:
    41000090:	000402b7          	lui	x5,0x40
    41000094:	00a2829b          	addiw	x5,x5,10 # 4000a <pma_region_0_size+0xa>
    41000098:	3002a2f3          	csrrs	x5,mstatus,x5
    4100009c:	44c9d237          	lui	x4,0x44c9d
    410000a0:	34021073          	csrw	mscratch,x4

00000000410000a4 <loader__setup_menvcfg>:
    410000a4:	00000297          	auipc	x5,0x0
    410000a8:	4a828293          	addi	x5,x5,1192 # 4100054c <trap_handler_m__trap_entry>
    410000ac:	30529073          	csrw	mtvec,x5

00000000410000b0 <loader__enable_paging>:
    410000b0:	fff900b7          	lui	x1,0xfff90
    410000b4:	08b0809b          	addiw	x1,x1,139 # fffffffffff9008b <SID_ZA64RS_01_stack+0x44771d35a08b>
    410000b8:	01e09093          	slli	x1,x1,0x1e
    410000bc:	01108093          	addi	x1,x1,17
    410000c0:	00e09093          	slli	x1,x1,0xe
    410000c4:	72208093          	addi	x1,x1,1826
    410000c8:	18009073          	csrw	satp,x1

00000000410000cc <loader__done>:
    410000cc:	1c10006f          	j	41000a8c <scheduler__init>

00000000410000d0 <loader__panic>:
    410000d0:	1950006f          	j	41000a64 <eot__failed>

00000000410000d4 <syscalls__syscall_check_schedule_next_test>:
    410000d4:	00f0029b          	addiw	x5,x0,15
    410000d8:	01c29293          	slli	x5,x5,0x1c
    410000dc:	00128293          	addi	x5,x5,1
    410000e0:	01f29a63          	bne	x5,x31,410000f4 <syscalls__syscall_check_fail_test>
    410000e4:	00000317          	auipc	x6,0x0
    410000e8:	46830313          	addi	x6,x6,1128 # 4100054c <trap_handler_m__trap_entry>
    410000ec:	30531073          	csrw	mtvec,x6
    410000f0:	6a00006f          	j	41000790 <enter_scheduler>

00000000410000f4 <syscalls__syscall_check_fail_test>:
    410000f4:	00f0029b          	addiw	x5,x0,15
    410000f8:	01c29293          	slli	x5,x5,0x1c
    410000fc:	00228293          	addi	x5,x5,2
    41000100:	01f29a63          	bne	x5,x31,41000114 <syscalls__syscall_check_end_test_without_failure>
    41000104:	00000317          	auipc	x6,0x0
    41000108:	44830313          	addi	x6,x6,1096 # 4100054c <trap_handler_m__trap_entry>
    4100010c:	30531073          	csrw	mtvec,x6
    41000110:	6b00006f          	j	410007c0 <test_failed>

0000000041000114 <syscalls__syscall_check_end_test_without_failure>:
    41000114:	00f0029b          	addiw	x5,x0,15
    41000118:	01c29293          	slli	x5,x5,0x1c
    4100011c:	00328293          	addi	x5,x5,3
    41000120:	01f29a63          	bne	x5,x31,41000134 <syscalls__syscall_check_switch_machine_mode>
    41000124:	00000317          	auipc	x6,0x0
    41000128:	42830313          	addi	x6,x6,1064 # 4100054c <trap_handler_m__trap_entry>
    4100012c:	30531073          	csrw	mtvec,x6
    41000130:	69c0006f          	j	410007cc <os_end_test>

0000000041000134 <syscalls__syscall_check_switch_machine_mode>:
    41000134:	000f02b7          	lui	x5,0xf0
    41000138:	0012829b          	addiw	x5,x5,1 # f0001 <SID_ZA64RS_03_lrd_scw_stack+0x67001>
    4100013c:	00c29293          	slli	x5,x5,0xc
    41000140:	00128293          	addi	x5,x5,1
    41000144:	0a5f8463          	beq	x31,x5,410001ec <syscalls__os_fn_f0001001>

0000000041000148 <syscalls__syscall_check_switch_super_mode>:
    41000148:	000f02b7          	lui	x5,0xf0
    4100014c:	0012829b          	addiw	x5,x5,1 # f0001 <SID_ZA64RS_03_lrd_scw_stack+0x67001>
    41000150:	00c29293          	slli	x5,x5,0xc
    41000154:	00228293          	addi	x5,x5,2
    41000158:	0c5f8063          	beq	x31,x5,41000218 <syscalls__os_fn_f0001002>

000000004100015c <syscalls__syscall_check_switch_user_mode>:
    4100015c:	000f02b7          	lui	x5,0xf0
    41000160:	0012829b          	addiw	x5,x5,1 # f0001 <SID_ZA64RS_03_lrd_scw_stack+0x67001>
    41000164:	00c29293          	slli	x5,x5,0xc
    41000168:	00328293          	addi	x5,x5,3
    4100016c:	0c5f8e63          	beq	x31,x5,41000248 <syscalls__os_fn_f0001003>

0000000041000170 <syscalls__syscall_check_switch_test_mode>:
    41000170:	000f02b7          	lui	x5,0xf0
    41000174:	0012829b          	addiw	x5,x5,1 # f0001 <SID_ZA64RS_03_lrd_scw_stack+0x67001>
    41000178:	00c29293          	slli	x5,x5,0xc
    4100017c:	00428293          	addi	x5,x5,4
    41000180:	0c5f8863          	beq	x31,x5,41000250 <syscalls__os_fn_f0001004>

0000000041000184 <syscalls__syscall_machine_csr_rw>:
    41000184:	000f02b7          	lui	x5,0xf0
    41000188:	0012829b          	addiw	x5,x5,1 # f0001 <SID_ZA64RS_03_lrd_scw_stack+0x67001>
    4100018c:	00c29293          	slli	x5,x5,0xc
    41000190:	00528293          	addi	x5,x5,5
    41000194:	0e5f8263          	beq	x31,x5,41000278 <syscalls__os_fn_f0001005>

0000000041000198 <syscalls__syscall_supervisor_csr_rw>:
    41000198:	000f02b7          	lui	x5,0xf0
    4100019c:	0012829b          	addiw	x5,x5,1 # f0001 <SID_ZA64RS_03_lrd_scw_stack+0x67001>
    410001a0:	00c29293          	slli	x5,x5,0xc
    410001a4:	00628293          	addi	x5,x5,6
    410001a8:	0e5f8e63          	beq	x31,x5,410002a4 <syscalls__os_fn_f0001006>

00000000410001ac <syscalls__syscall_machine_pte_read>:
    410001ac:	000f02b7          	lui	x5,0xf0
    410001b0:	0012829b          	addiw	x5,x5,1 # f0001 <SID_ZA64RS_03_lrd_scw_stack+0x67001>
    410001b4:	00c29293          	slli	x5,x5,0xc
    410001b8:	00728293          	addi	x5,x5,7
    410001bc:	105f8c63          	beq	x31,x5,410002d4 <syscalls__os_fn_f0001007>

00000000410001c0 <syscalls__syscall_machine_pte_write>:
    410001c0:	000f02b7          	lui	x5,0xf0
    410001c4:	0012829b          	addiw	x5,x5,1 # f0001 <SID_ZA64RS_03_lrd_scw_stack+0x67001>
    410001c8:	00c29293          	slli	x5,x5,0xc
    410001cc:	00828293          	addi	x5,x5,8
    410001d0:	1e5f8863          	beq	x31,x5,410003c0 <syscalls__os_fn_f0001008>

00000000410001d4 <syscalls__syscall_check_get_hart_context>:
    410001d4:	000782b7          	lui	x5,0x78
    410001d8:	0012829b          	addiw	x5,x5,1 # 78001 <mem0+0x1f001>
    410001dc:	00d29293          	slli	x5,x5,0xd
    410001e0:	00128293          	addi	x5,x5,1
    410001e4:	2c5f8463          	beq	x31,x5,410004ac <syscalls__os_get_hart_context>
    410001e8:	4c00006f          	j	410006a8 <trap_handler_m__check_exception_label>

00000000410001ec <syscalls__os_fn_f0001001>:
    410001ec:	000022b7          	lui	x5,0x2
    410001f0:	8002829b          	addiw	x5,x5,-2048 # 1800 <pma_region_1_size+0x800>
    410001f4:	3002b073          	csrc	mstatus,x5
    410001f8:	000022b7          	lui	x5,0x2
    410001fc:	8002829b          	addiw	x5,x5,-2048 # 1800 <pma_region_1_size+0x800>
    41000200:	3002a073          	csrs	mstatus,x5
    41000204:	0010029b          	addiw	x5,x0,1
    41000208:	02729293          	slli	x5,x5,0x27
    4100020c:	3002b073          	csrc	mstatus,x5
    41000210:	411952b7          	lui	x5,0x41195
    41000214:	2a80006f          	j	410004bc <syscalls__ret_from_os_fn>

0000000041000218 <syscalls__os_fn_f0001002>:
    41000218:	000022b7          	lui	x5,0x2
    4100021c:	8002829b          	addiw	x5,x5,-2048 # 1800 <pma_region_1_size+0x800>
    41000220:	3002b073          	csrc	mstatus,x5
    41000224:	000012b7          	lui	x5,0x1
    41000228:	8002829b          	addiw	x5,x5,-2048 # 800 <XLEN+0x7c0>
    4100022c:	3002a073          	csrs	mstatus,x5
    41000230:	0010029b          	addiw	x5,x0,1
    41000234:	02729293          	slli	x5,x5,0x27
    41000238:	3002b073          	csrc	mstatus,x5
    4100023c:	12000073          	sfence.vma
    41000240:	410952b7          	lui	x5,0x41095
    41000244:	2780006f          	j	410004bc <syscalls__ret_from_os_fn>

0000000041000248 <syscalls__os_fn_f0001003>:
    41000248:	411152b7          	lui	x5,0x41115
    4100024c:	2700006f          	j	410004bc <syscalls__ret_from_os_fn>

0000000041000250 <syscalls__os_fn_f0001004>:
    41000250:	000022b7          	lui	x5,0x2
    41000254:	8002829b          	addiw	x5,x5,-2048 # 1800 <pma_region_1_size+0x800>
    41000258:	3002b073          	csrc	mstatus,x5
    4100025c:	00000293          	li	x5,0
    41000260:	3002a073          	csrs	mstatus,x5
    41000264:	0010029b          	addiw	x5,x0,1
    41000268:	02729293          	slli	x5,x5,0x27
    4100026c:	3002b073          	csrc	mstatus,x5
    41000270:	17823283          	ld	x5,376(x4) # 44c9d178 <__section_hart_context+0x178>
    41000274:	2480006f          	j	410004bc <syscalls__ret_from_os_fn>

0000000041000278 <syscalls__os_fn_f0001005>:
    41000278:	000022b7          	lui	x5,0x2
    4100027c:	8002829b          	addiw	x5,x5,-2048 # 1800 <pma_region_1_size+0x800>
    41000280:	3002b073          	csrc	mstatus,x5
    41000284:	000022b7          	lui	x5,0x2
    41000288:	8002829b          	addiw	x5,x5,-2048 # 1800 <pma_region_1_size+0x800>
    4100028c:	3002a073          	csrs	mstatus,x5
    41000290:	0010029b          	addiw	x5,x0,1
    41000294:	02729293          	slli	x5,x5,0x27
    41000298:	3002b073          	csrc	mstatus,x5
    4100029c:	412152b7          	lui	x5,0x41215
    410002a0:	21c0006f          	j	410004bc <syscalls__ret_from_os_fn>

00000000410002a4 <syscalls__os_fn_f0001006>:
    410002a4:	000022b7          	lui	x5,0x2
    410002a8:	8002829b          	addiw	x5,x5,-2048 # 1800 <pma_region_1_size+0x800>
    410002ac:	3002b073          	csrc	mstatus,x5
    410002b0:	000012b7          	lui	x5,0x1
    410002b4:	8002829b          	addiw	x5,x5,-2048 # 800 <XLEN+0x7c0>
    410002b8:	3002a073          	csrs	mstatus,x5
    410002bc:	0010029b          	addiw	x5,x0,1
    410002c0:	02729293          	slli	x5,x5,0x27
    410002c4:	3002b073          	csrc	mstatus,x5
    410002c8:	12000073          	sfence.vma
    410002cc:	412162b7          	lui	x5,0x41216
    410002d0:	1ec0006f          	j	410004bc <syscalls__ret_from_os_fn>

00000000410002d4 <syscalls__os_fn_f0001007>:
    410002d4:	43802fb7          	lui	x31,0x43802
    410002d8:	0b0f8f9b          	addiw	x31,x31,176 # 438020b0 <pte_access_flags_pa>
    410002dc:	000fbf83          	ld	x31,0(x31)
    410002e0:	438022b7          	lui	x5,0x43802
    410002e4:	0b82829b          	addiw	x5,x5,184 # 438020b8 <pte_access_flags_pa+0x8>
    410002e8:	0002b283          	ld	x5,0(x5)
    410002ec:	43802e37          	lui	x28,0x43802
    410002f0:	0c0e0e1b          	addiw	x28,x28,192 # 438020c0 <pte_access_flags_pa+0x10>
    410002f4:	000e3e03          	ld	x28,0(x28)

00000000410002f8 <syscalls__pte_walk_check_glevel_without_gstage_read>:
    410002f8:	fff00f93          	li	x31,-1
    410002fc:	0dfe1063          	bne	x28,x31,410003bc <syscalls__pte_walk_fail_read>
    41000300:	18002373          	csrr	x6,satp
    41000304:	03c35e93          	srli	x29,x6,0x3c
    41000308:	01431313          	slli	x6,x6,0x14
    4100030c:	01435313          	srli	x6,x6,0x14
    41000310:	00c31313          	slli	x6,x6,0xc
    41000314:	ff8e8e93          	addi	x29,x29,-8
    41000318:	003e9f13          	slli	x30,x29,0x3
    4100031c:	01df0eb3          	add	x29,x30,x29
    41000320:	01ee8e93          	addi	x29,x29,30
    41000324:	00000f13          	li	x30,0

0000000041000328 <syscalls__pte_walk_loop_read>:
    41000328:	43802fb7          	lui	x31,0x43802
    4100032c:	0b0f8f9b          	addiw	x31,x31,176 # 438020b0 <pte_access_flags_pa>
    41000330:	000fbf83          	ld	x31,0(x31)
    41000334:	01dfdfb3          	srl	x31,x31,x29
    41000338:	1fffff93          	andi	x31,x31,511
    4100033c:	003f9f93          	slli	x31,x31,0x3
    41000340:	01f30333          	add	x6,x6,x31
    41000344:	005f0e63          	beq	x30,x5,41000360 <syscalls__pte_walk_done_read>
    41000348:	00033f83          	ld	x31,0(x6)
    4100034c:	00afdf93          	srli	x31,x31,0xa
    41000350:	00cf9313          	slli	x6,x31,0xc
    41000354:	001f0f13          	addi	x30,x30,1
    41000358:	ff7e8e93          	addi	x29,x29,-9
    4100035c:	fcdff06f          	j	41000328 <syscalls__pte_walk_loop_read>

0000000041000360 <syscalls__pte_walk_done_read>:
    41000360:	fff00f93          	li	x31,-1
    41000364:	05fe0263          	beq	x28,x31,410003a8 <syscalls__pte_walk_final_read>

0000000041000368 <syscalls__pte_walk_gstage_read>:
    41000368:	43802fb7          	lui	x31,0x43802
    4100036c:	0b0f8f9b          	addiw	x31,x31,176 # 438020b0 <pte_access_flags_pa>
    41000370:	006fb023          	sd	x6,0(x31)
    41000374:	000e0293          	mv	x5,x28
    41000378:	fff00e13          	li	x28,-1
    4100037c:	68002373          	csrr	x6,hgatp
    41000380:	03c35e93          	srli	x29,x6,0x3c
    41000384:	01431313          	slli	x6,x6,0x14
    41000388:	01435313          	srli	x6,x6,0x14
    4100038c:	00c31313          	slli	x6,x6,0xc
    41000390:	ff8e8e93          	addi	x29,x29,-8
    41000394:	003e9f13          	slli	x30,x29,0x3
    41000398:	01df0eb3          	add	x29,x30,x29
    4100039c:	01ee8e93          	addi	x29,x29,30
    410003a0:	00000f13          	li	x30,0
    410003a4:	f85ff06f          	j	41000328 <syscalls__pte_walk_loop_read>

00000000410003a8 <syscalls__pte_walk_final_read>:
    410003a8:	00033383          	ld	x7,0(x6)
    410003ac:	341022f3          	csrr	x5,mepc
    410003b0:	00428293          	addi	x5,x5,4
    410003b4:	16523c23          	sd	x5,376(x4) # 178 <XLEN+0x138>
    410003b8:	e99ff06f          	j	41000250 <syscalls__os_fn_f0001004>

00000000410003bc <syscalls__pte_walk_fail_read>:
    410003bc:	4040006f          	j	410007c0 <test_failed>

00000000410003c0 <syscalls__os_fn_f0001008>:
    410003c0:	43802fb7          	lui	x31,0x43802
    410003c4:	0b0f8f9b          	addiw	x31,x31,176 # 438020b0 <pte_access_flags_pa>
    410003c8:	000fbf83          	ld	x31,0(x31)
    410003cc:	438022b7          	lui	x5,0x43802
    410003d0:	0b82829b          	addiw	x5,x5,184 # 438020b8 <pte_access_flags_pa+0x8>
    410003d4:	0002b283          	ld	x5,0(x5)
    410003d8:	43802e37          	lui	x28,0x43802
    410003dc:	0c0e0e1b          	addiw	x28,x28,192 # 438020c0 <pte_access_flags_pa+0x10>
    410003e0:	000e3e03          	ld	x28,0(x28)

00000000410003e4 <syscalls__pte_walk_check_glevel_without_gstage_write>:
    410003e4:	fff00f93          	li	x31,-1
    410003e8:	0dfe1063          	bne	x28,x31,410004a8 <syscalls__pte_walk_fail_write>
    410003ec:	18002373          	csrr	x6,satp
    410003f0:	03c35e93          	srli	x29,x6,0x3c
    410003f4:	01431313          	slli	x6,x6,0x14
    410003f8:	01435313          	srli	x6,x6,0x14
    410003fc:	00c31313          	slli	x6,x6,0xc
    41000400:	ff8e8e93          	addi	x29,x29,-8
    41000404:	003e9f13          	slli	x30,x29,0x3
    41000408:	01df0eb3          	add	x29,x30,x29
    4100040c:	01ee8e93          	addi	x29,x29,30
    41000410:	00000f13          	li	x30,0

0000000041000414 <syscalls__pte_walk_loop_write>:
    41000414:	43802fb7          	lui	x31,0x43802
    41000418:	0b0f8f9b          	addiw	x31,x31,176 # 438020b0 <pte_access_flags_pa>
    4100041c:	000fbf83          	ld	x31,0(x31)
    41000420:	01dfdfb3          	srl	x31,x31,x29
    41000424:	1fffff93          	andi	x31,x31,511
    41000428:	003f9f93          	slli	x31,x31,0x3
    4100042c:	01f30333          	add	x6,x6,x31
    41000430:	005f0e63          	beq	x30,x5,4100044c <syscalls__pte_walk_done_write>
    41000434:	00033f83          	ld	x31,0(x6)
    41000438:	00afdf93          	srli	x31,x31,0xa
    4100043c:	00cf9313          	slli	x6,x31,0xc
    41000440:	001f0f13          	addi	x30,x30,1
    41000444:	ff7e8e93          	addi	x29,x29,-9
    41000448:	fcdff06f          	j	41000414 <syscalls__pte_walk_loop_write>

000000004100044c <syscalls__pte_walk_done_write>:
    4100044c:	fff00f93          	li	x31,-1
    41000450:	05fe0263          	beq	x28,x31,41000494 <syscalls__pte_walk_final_write>

0000000041000454 <syscalls__pte_walk_gstage_write>:
    41000454:	43802fb7          	lui	x31,0x43802
    41000458:	0b0f8f9b          	addiw	x31,x31,176 # 438020b0 <pte_access_flags_pa>
    4100045c:	006fb023          	sd	x6,0(x31)
    41000460:	000e0293          	mv	x5,x28
    41000464:	fff00e13          	li	x28,-1
    41000468:	68002373          	csrr	x6,hgatp
    4100046c:	03c35e93          	srli	x29,x6,0x3c
    41000470:	01431313          	slli	x6,x6,0x14
    41000474:	01435313          	srli	x6,x6,0x14
    41000478:	00c31313          	slli	x6,x6,0xc
    4100047c:	ff8e8e93          	addi	x29,x29,-8
    41000480:	003e9f13          	slli	x30,x29,0x3
    41000484:	01df0eb3          	add	x29,x30,x29
    41000488:	01ee8e93          	addi	x29,x29,30
    4100048c:	00000f13          	li	x30,0
    41000490:	f85ff06f          	j	41000414 <syscalls__pte_walk_loop_write>

0000000041000494 <syscalls__pte_walk_final_write>:
    41000494:	00733023          	sd	x7,0(x6)
    41000498:	341022f3          	csrr	x5,mepc
    4100049c:	00428293          	addi	x5,x5,4
    410004a0:	16523c23          	sd	x5,376(x4) # 178 <XLEN+0x138>
    410004a4:	dadff06f          	j	41000250 <syscalls__os_fn_f0001004>

00000000410004a8 <syscalls__pte_walk_fail_write>:
    410004a8:	3180006f          	j	410007c0 <test_failed>

00000000410004ac <syscalls__os_get_hart_context>:
    410004ac:	14002573          	csrr	x10,sscratch
    410004b0:	341022f3          	csrr	x5,mepc
    410004b4:	00428293          	addi	x5,x5,4
    410004b8:	0040006f          	j	410004bc <syscalls__ret_from_os_fn>

00000000410004bc <syscalls__ret_from_os_fn>:
    410004bc:	34102373          	csrr	x6,mepc
    410004c0:	00430313          	addi	x6,x6,4
    410004c4:	16623c23          	sd	x6,376(x4) # 178 <XLEN+0x138>
    410004c8:	34129073          	csrw	mepc,x5
    410004cc:	fff00f93          	li	x31,-1
    410004d0:	2a40006f          	j	41000774 <trap_handler_m__skip_xepc_write>

00000000410004d4 <trap_handler_m__invalid_interrupt>:
    410004d4:	2ec0006f          	j	410007c0 <test_failed>

00000000410004d8 <trap_handler_m__clear_all_interrupts>:
    410004d8:	34401073          	csrw	mip,x0
    410004dc:	30200073          	mret

00000000410004e0 <trap_handler_m___CLEAR_SSI>:
    410004e0:	00200293          	li	x5,2
    410004e4:	3442b073          	csrc	mip,x5
    410004e8:	30200073          	mret

00000000410004ec <trap_handler_m___CLEAR_MSI>:
    410004ec:	00800293          	li	x5,8
    410004f0:	3442b073          	csrc	mip,x5
    410004f4:	30200073          	mret

00000000410004f8 <trap_handler_m___CLEAR_STI>:
    410004f8:	02000293          	li	x5,32
    410004fc:	3442b073          	csrc	mip,x5
    41000500:	30200073          	mret

0000000041000504 <trap_handler_m___CLEAR_MTI>:
    41000504:	08000293          	li	x5,128
    41000508:	3442b073          	csrc	mip,x5
    4100050c:	30200073          	mret

0000000041000510 <trap_handler_m___CLEAR_SEI>:
    41000510:	20000293          	li	x5,512
    41000514:	3442b073          	csrc	mip,x5
    41000518:	30200073          	mret

000000004100051c <trap_handler_m___CLEAR_MEI>:
    4100051c:	000012b7          	lui	x5,0x1
    41000520:	8002829b          	addiw	x5,x5,-2048 # 800 <XLEN+0x7c0>
    41000524:	3442b073          	csrc	mip,x5
    41000528:	30200073          	mret

000000004100052c <trap_handler_m___CLEAR_COI>:
    4100052c:	000022b7          	lui	x5,0x2
    41000530:	3442b073          	csrc	mip,x5
    41000534:	30200073          	mret

0000000041000538 <trap_handler_m__clear_highest_priority_interrupt>:
    41000538:	344022f3          	csrr	x5,mip
    4100053c:	40500333          	neg	x6,x5
    41000540:	0062f2b3          	and	x5,x5,x6
    41000544:	3442b073          	csrc	mip,x5
    41000548:	30200073          	mret

000000004100054c <trap_handler_m__trap_entry>:
    4100054c:	0fc0006f          	j	41000648 <trap_handler_m__trap_handler>

0000000041000550 <trap_handler_m__interrupt_vector_table>:
    41000550:	f91ff06f          	j	410004e0 <trap_handler_m___CLEAR_SSI>
    41000554:	f81ff06f          	j	410004d4 <trap_handler_m__invalid_interrupt>
    41000558:	f95ff06f          	j	410004ec <trap_handler_m___CLEAR_MSI>
    4100055c:	f79ff06f          	j	410004d4 <trap_handler_m__invalid_interrupt>
    41000560:	f99ff06f          	j	410004f8 <trap_handler_m___CLEAR_STI>
    41000564:	f71ff06f          	j	410004d4 <trap_handler_m__invalid_interrupt>
    41000568:	f9dff06f          	j	41000504 <trap_handler_m___CLEAR_MTI>
    4100056c:	f69ff06f          	j	410004d4 <trap_handler_m__invalid_interrupt>
    41000570:	fa1ff06f          	j	41000510 <trap_handler_m___CLEAR_SEI>
    41000574:	f61ff06f          	j	410004d4 <trap_handler_m__invalid_interrupt>
    41000578:	fa5ff06f          	j	4100051c <trap_handler_m___CLEAR_MEI>
    4100057c:	f59ff06f          	j	410004d4 <trap_handler_m__invalid_interrupt>
    41000580:	fadff06f          	j	4100052c <trap_handler_m___CLEAR_COI>
    41000584:	f51ff06f          	j	410004d4 <trap_handler_m__invalid_interrupt>
    41000588:	f4dff06f          	j	410004d4 <trap_handler_m__invalid_interrupt>
    4100058c:	fadff06f          	j	41000538 <trap_handler_m__clear_highest_priority_interrupt>
    41000590:	fa9ff06f          	j	41000538 <trap_handler_m__clear_highest_priority_interrupt>
    41000594:	fa5ff06f          	j	41000538 <trap_handler_m__clear_highest_priority_interrupt>
    41000598:	fa1ff06f          	j	41000538 <trap_handler_m__clear_highest_priority_interrupt>
    4100059c:	f9dff06f          	j	41000538 <trap_handler_m__clear_highest_priority_interrupt>
    410005a0:	f99ff06f          	j	41000538 <trap_handler_m__clear_highest_priority_interrupt>
    410005a4:	f95ff06f          	j	41000538 <trap_handler_m__clear_highest_priority_interrupt>
    410005a8:	f91ff06f          	j	41000538 <trap_handler_m__clear_highest_priority_interrupt>
    410005ac:	f8dff06f          	j	41000538 <trap_handler_m__clear_highest_priority_interrupt>
    410005b0:	f89ff06f          	j	41000538 <trap_handler_m__clear_highest_priority_interrupt>
    410005b4:	f85ff06f          	j	41000538 <trap_handler_m__clear_highest_priority_interrupt>
    410005b8:	f81ff06f          	j	41000538 <trap_handler_m__clear_highest_priority_interrupt>
    410005bc:	f7dff06f          	j	41000538 <trap_handler_m__clear_highest_priority_interrupt>
    410005c0:	f79ff06f          	j	41000538 <trap_handler_m__clear_highest_priority_interrupt>
    410005c4:	f75ff06f          	j	41000538 <trap_handler_m__clear_highest_priority_interrupt>
    410005c8:	f71ff06f          	j	41000538 <trap_handler_m__clear_highest_priority_interrupt>
    410005cc:	f6dff06f          	j	41000538 <trap_handler_m__clear_highest_priority_interrupt>
    410005d0:	f69ff06f          	j	41000538 <trap_handler_m__clear_highest_priority_interrupt>
    410005d4:	f65ff06f          	j	41000538 <trap_handler_m__clear_highest_priority_interrupt>
    410005d8:	f61ff06f          	j	41000538 <trap_handler_m__clear_highest_priority_interrupt>
    410005dc:	f5dff06f          	j	41000538 <trap_handler_m__clear_highest_priority_interrupt>
    410005e0:	f59ff06f          	j	41000538 <trap_handler_m__clear_highest_priority_interrupt>
    410005e4:	f55ff06f          	j	41000538 <trap_handler_m__clear_highest_priority_interrupt>
    410005e8:	f51ff06f          	j	41000538 <trap_handler_m__clear_highest_priority_interrupt>
    410005ec:	f4dff06f          	j	41000538 <trap_handler_m__clear_highest_priority_interrupt>
    410005f0:	f49ff06f          	j	41000538 <trap_handler_m__clear_highest_priority_interrupt>
    410005f4:	f45ff06f          	j	41000538 <trap_handler_m__clear_highest_priority_interrupt>
    410005f8:	f41ff06f          	j	41000538 <trap_handler_m__clear_highest_priority_interrupt>
    410005fc:	f3dff06f          	j	41000538 <trap_handler_m__clear_highest_priority_interrupt>
    41000600:	f39ff06f          	j	41000538 <trap_handler_m__clear_highest_priority_interrupt>
    41000604:	f35ff06f          	j	41000538 <trap_handler_m__clear_highest_priority_interrupt>
    41000608:	f31ff06f          	j	41000538 <trap_handler_m__clear_highest_priority_interrupt>
    4100060c:	f2dff06f          	j	41000538 <trap_handler_m__clear_highest_priority_interrupt>
    41000610:	f29ff06f          	j	41000538 <trap_handler_m__clear_highest_priority_interrupt>
    41000614:	f25ff06f          	j	41000538 <trap_handler_m__clear_highest_priority_interrupt>
    41000618:	f21ff06f          	j	41000538 <trap_handler_m__clear_highest_priority_interrupt>
    4100061c:	f1dff06f          	j	41000538 <trap_handler_m__clear_highest_priority_interrupt>
    41000620:	f19ff06f          	j	41000538 <trap_handler_m__clear_highest_priority_interrupt>
    41000624:	f15ff06f          	j	41000538 <trap_handler_m__clear_highest_priority_interrupt>
    41000628:	f11ff06f          	j	41000538 <trap_handler_m__clear_highest_priority_interrupt>
    4100062c:	f0dff06f          	j	41000538 <trap_handler_m__clear_highest_priority_interrupt>
    41000630:	f09ff06f          	j	41000538 <trap_handler_m__clear_highest_priority_interrupt>
    41000634:	f05ff06f          	j	41000538 <trap_handler_m__clear_highest_priority_interrupt>
    41000638:	f01ff06f          	j	41000538 <trap_handler_m__clear_highest_priority_interrupt>
    4100063c:	efdff06f          	j	41000538 <trap_handler_m__clear_highest_priority_interrupt>
    41000640:	ef9ff06f          	j	41000538 <trap_handler_m__clear_highest_priority_interrupt>
    41000644:	ef5ff06f          	j	41000538 <trap_handler_m__clear_highest_priority_interrupt>

0000000041000648 <trap_handler_m__trap_handler>:
    41000648:	342022f3          	csrr	x5,mcause
    4100064c:	fff0031b          	addiw	x6,x0,-1
    41000650:	03f31313          	slli	x6,x6,0x3f
    41000654:	00537333          	and	x6,x6,x5
    41000658:	02030263          	beqz	x6,4100067c <trap_handler_m__exception_path>

000000004100065c <trap_handler_m__interrupt_handler>:
    4100065c:	fff0031b          	addiw	x6,x0,-1
    41000660:	03f31313          	slli	x6,x6,0x3f
    41000664:	0062c2b3          	xor	x5,x5,x6
    41000668:	00000317          	auipc	x6,0x0
    4100066c:	ee430313          	addi	x6,x6,-284 # 4100054c <trap_handler_m__trap_entry>
    41000670:	00229293          	slli	x5,x5,0x2
    41000674:	005302b3          	add	x5,x6,x5
    41000678:	00028067          	jr	x5 # 2000 <pma_region_1_size+0x1000>

000000004100067c <trap_handler_m__exception_path>:
    4100067c:	34021273          	csrrw	x4,mscratch,x4
    41000680:	00000297          	auipc	x5,0x0
    41000684:	10828293          	addi	x5,x5,264 # 41000788 <trap_handler_m__trap_panic>
    41000688:	30529073          	csrw	mtvec,x5
    4100068c:	0040006f          	j	41000690 <trap_handler_m__excp_entry>

0000000041000690 <trap_handler_m__excp_entry>:
    41000690:	34202373          	csrr	x6,mcause
    41000694:	00800293          	li	x5,8
    41000698:	00534863          	blt	x6,x5,410006a8 <trap_handler_m__check_exception_label>
    4100069c:	00b00293          	li	x5,11
    410006a0:	0062c463          	blt	x5,x6,410006a8 <trap_handler_m__check_exception_label>
    410006a4:	a31ff06f          	j	410000d4 <syscalls__syscall_check_schedule_next_test>

00000000410006a8 <trap_handler_m__check_exception_label>:
    410006a8:	04623c23          	sd	x6,88(x4) # 58 <XLEN+0x18>
    410006ac:	341022f3          	csrr	x5,mepc
    410006b0:	02523423          	sd	x5,40(x4) # 28 <SECURE_ACCESS_PROBABILITY+0xa>
    410006b4:	01820283          	lb	x5,24(x4) # 18 <STORE_GUEST_PAGE_FAULT+0x1>
    410006b8:	00029863          	bnez	x5,410006c8 <trap_handler_m__check_excp>
    410006bc:	00128293          	addi	x5,x5,1
    410006c0:	00520c23          	sb	x5,24(x4) # 18 <STORE_GUEST_PAGE_FAULT+0x1>
    410006c4:	0980006f          	j	4100075c <trap_handler_m__ecall_from_machine>

00000000410006c8 <trap_handler_m__check_excp>:
    410006c8:	06823283          	ld	x5,104(x4) # 68 <XLEN+0x28>
    410006cc:	06023423          	sd	x0,104(x4) # 68 <XLEN+0x28>
    410006d0:	00028663          	beqz	x5,410006dc <trap_handler_m__skip_mode_check>
    410006d4:	00100393          	li	x7,1
    410006d8:	0e729463          	bne	x5,x7,410007c0 <test_failed>

00000000410006dc <trap_handler_m__skip_mode_check>:
    410006dc:	05023283          	ld	x5,80(x4) # 50 <XLEN+0x10>
    410006e0:	04023823          	sd	x0,80(x4) # 50 <XLEN+0x10>
    410006e4:	0c531e63          	bne	x6,x5,410007c0 <test_failed>
    410006e8:	03823283          	ld	x5,56(x4) # 38 <SECURE_ACCESS_PROBABILITY+0x1a>
    410006ec:	02023c23          	sd	x0,56(x4) # 38 <SECURE_ACCESS_PROBABILITY+0x1a>
    410006f0:	06029463          	bnez	x5,41000758 <trap_handler_m__skip_gva_check>
    410006f4:	02023303          	ld	x6,32(x4) # 20 <SECURE_ACCESS_PROBABILITY+0x2>
    410006f8:	02023023          	sd	x0,32(x4) # 20 <SECURE_ACCESS_PROBABILITY+0x2>
    410006fc:	02823283          	ld	x5,40(x4) # 28 <SECURE_ACCESS_PROBABILITY+0xa>
    41000700:	02023423          	sd	x0,40(x4) # 28 <SECURE_ACCESS_PROBABILITY+0xa>
    41000704:	0a531e63          	bne	x6,x5,410007c0 <test_failed>
    41000708:	04023283          	ld	x5,64(x4) # 40 <XLEN>
    4100070c:	04023023          	sd	x0,64(x4) # 40 <XLEN>
    41000710:	00028663          	beqz	x5,4100071c <trap_handler_m__skip_nonzero_tval_check>

0000000041000714 <trap_handler_m__nonzero_tval_check>:
    41000714:	34302373          	csrr	x6,mtval
    41000718:	0a531463          	bne	x6,x5,410007c0 <test_failed>

000000004100071c <trap_handler_m__skip_nonzero_tval_check>:
    4100071c:	04823283          	ld	x5,72(x4) # 48 <XLEN+0x8>
    41000720:	04023423          	sd	x0,72(x4) # 48 <XLEN+0x8>
    41000724:	00028663          	beqz	x5,41000730 <trap_handler_m__skip_nonzero_htval_check>

0000000041000728 <trap_handler_m__nonzero_htval_check>:
    41000728:	34b02373          	csrr	x6,0x34b
    4100072c:	08531a63          	bne	x6,x5,410007c0 <test_failed>

0000000041000730 <trap_handler_m__skip_nonzero_htval_check>:
    41000730:	06023283          	ld	x5,96(x4) # 60 <XLEN+0x20>
    41000734:	06023023          	sd	x0,96(x4) # 60 <XLEN+0x20>
    41000738:	02028063          	beqz	x5,41000758 <trap_handler_m__skip_gva_check>

000000004100073c <trap_handler_m__gva_check>:
    4100073c:	30002373          	csrr	x6,mstatus
    41000740:	02635313          	srli	x6,x6,0x26
    41000744:	00137313          	andi	x6,x6,1
    41000748:	06030c63          	beqz	x6,410007c0 <test_failed>
    4100074c:	0010031b          	addiw	x6,x0,1
    41000750:	02631313          	slli	x6,x6,0x26
    41000754:	30033073          	csrc	mstatus,x6

0000000041000758 <trap_handler_m__skip_gva_check>:
    41000758:	0040006f          	j	4100075c <trap_handler_m__ecall_from_machine>

000000004100075c <trap_handler_m__ecall_from_machine>:
    4100075c:	03023283          	ld	x5,48(x4) # 30 <SECURE_ACCESS_PROBABILITY+0x12>
    41000760:	02023823          	sd	x0,48(x4) # 30 <SECURE_ACCESS_PROBABILITY+0x12>
    41000764:	07023303          	ld	x6,112(x4) # 70 <XLEN+0x30>
    41000768:	06023823          	sd	x0,112(x4) # 70 <XLEN+0x30>
    4100076c:	00031463          	bnez	x6,41000774 <trap_handler_m__skip_xepc_write>
    41000770:	34129073          	csrw	mepc,x5

0000000041000774 <trap_handler_m__skip_xepc_write>:
    41000774:	00000317          	auipc	x6,0x0
    41000778:	dd830313          	addi	x6,x6,-552 # 4100054c <trap_handler_m__trap_entry>
    4100077c:	30531073          	csrw	mtvec,x6
    41000780:	34021273          	csrrw	x4,mscratch,x4
    41000784:	30200073          	mret

0000000041000788 <trap_handler_m__trap_panic>:
    41000788:	00000193          	li	x3,0
    4100078c:	2b40006f          	j	41000a40 <eot__end_test>

0000000041000790 <enter_scheduler>:
    41000790:	0002f337          	lui	x6,0x2f
    41000794:	ab73031b          	addiw	x6,x6,-1353 # 2eab7 <SID_ZA64RS_05_d_stack+0x8ab7>
    41000798:	00e31313          	slli	x6,x6,0xe
    4100079c:	0de30313          	addi	x6,x6,222
    410007a0:	02628063          	beq	x5,x6,410007c0 <test_failed>
    410007a4:	00000513          	li	x10,0
    410007a8:	030000ef          	jal	410007d8 <rvcp_print_test_result>
    410007ac:	3180006f          	j	41000ac4 <scheduler__dispatch>

00000000410007b0 <test_passed>:
    410007b0:	34021273          	csrrw	x4,mscratch,x4
    410007b4:	00000513          	li	x10,0
    410007b8:	020000ef          	jal	410007d8 <rvcp_print_test_result>
    410007bc:	3080006f          	j	41000ac4 <scheduler__dispatch>

00000000410007c0 <test_failed>:
    410007c0:	34021273          	csrrw	x4,mscratch,x4
    410007c4:	00300193          	li	x3,3
    410007c8:	2780006f          	j	41000a40 <eot__end_test>

00000000410007cc <os_end_test>:
    410007cc:	34021273          	csrrw	x4,mscratch,x4
    410007d0:	00100193          	li	x3,1
    410007d4:	26c0006f          	j	41000a40 <eot__end_test>

00000000410007d8 <rvcp_print_test_result>:
    410007d8:	00050e13          	mv	x28,x10
    410007dc:	18823283          	ld	x5,392(x4) # 188 <XLEN+0x148>
    410007e0:	0010031b          	addiw	x6,x0,1
    410007e4:	02031313          	slli	x6,x6,0x20
    410007e8:	ffe30313          	addi	x6,x6,-2
    410007ec:	1c628063          	beq	x5,x6,410009ac <rvcp_print_test_result+0x1d4>
    410007f0:	0010031b          	addiw	x6,x0,1
    410007f4:	02031313          	slli	x6,x6,0x20
    410007f8:	fff30313          	addi	x6,x6,-1
    410007fc:	1a628863          	beq	x5,x6,410009ac <rvcp_print_test_result+0x1d4>
    41000800:	1a02c663          	bltz	x5,410009ac <rvcp_print_test_result+0x1d4>
    41000804:	00000317          	auipc	x6,0x0
    41000808:	45030313          	addi	x6,x6,1104 # 41000c54 <dtest_descriptor_table>
    4100080c:	00329393          	slli	x7,x5,0x3
    41000810:	00730333          	add	x6,x6,x7
    41000814:	00033e83          	ld	x29,0(x6)
    41000818:	43802f37          	lui	x30,0x43802
    4100081c:	030f0f1b          	addiw	x30,x30,48 # 43802030 <rvcp_prefix_str_pa>
    41000820:	000f4283          	lbu	x5,0(x30)
    41000824:	02028663          	beqz	x5,41000850 <rvcp_print_test_result+0x78>
    41000828:	1010031b          	addiw	x6,x0,257
    4100082c:	03031313          	slli	x6,x6,0x30
    41000830:	005362b3          	or	x5,x6,x5
    41000834:	0003f317          	auipc	x6,0x3f
    41000838:	7cc30313          	addi	x6,x6,1996 # 41040000 <tohost>
    4100083c:	00033383          	ld	x7,0(x6)
    41000840:	fe039ee3          	bnez	x7,4100083c <rvcp_print_test_result+0x64>
    41000844:	00533023          	sd	x5,0(x6)
    41000848:	001f0f13          	addi	x30,x30,1
    4100084c:	fd5ff06f          	j	41000820 <rvcp_print_test_result+0x48>
    41000850:	43802f37          	lui	x30,0x43802
    41000854:	041f0f1b          	addiw	x30,x30,65 # 43802041 <rvcp_testname_str_pa>
    41000858:	000f4283          	lbu	x5,0(x30)
    4100085c:	02028663          	beqz	x5,41000888 <rvcp_print_test_result+0xb0>
    41000860:	1010031b          	addiw	x6,x0,257
    41000864:	03031313          	slli	x6,x6,0x30
    41000868:	005362b3          	or	x5,x6,x5
    4100086c:	0003f317          	auipc	x6,0x3f
    41000870:	79430313          	addi	x6,x6,1940 # 41040000 <tohost>
    41000874:	00033383          	ld	x7,0(x6)
    41000878:	fe039ee3          	bnez	x7,41000874 <rvcp_print_test_result+0x9c>
    4100087c:	00533023          	sd	x5,0(x6)
    41000880:	001f0f13          	addi	x30,x30,1
    41000884:	fd5ff06f          	j	41000858 <rvcp_print_test_result+0x80>
    41000888:	43802f37          	lui	x30,0x43802
    4100088c:	05bf0f1b          	addiw	x30,x30,91 # 4380205b <rvcp_space_str_pa>
    41000890:	000f4283          	lbu	x5,0(x30)
    41000894:	02028663          	beqz	x5,410008c0 <rvcp_print_test_result+0xe8>
    41000898:	1010031b          	addiw	x6,x0,257
    4100089c:	03031313          	slli	x6,x6,0x30
    410008a0:	005362b3          	or	x5,x6,x5
    410008a4:	0003f317          	auipc	x6,0x3f
    410008a8:	75c30313          	addi	x6,x6,1884 # 41040000 <tohost>
    410008ac:	00033383          	ld	x7,0(x6)
    410008b0:	fe039ee3          	bnez	x7,410008ac <rvcp_print_test_result+0xd4>
    410008b4:	00533023          	sd	x5,0(x6)
    410008b8:	001f0f13          	addi	x30,x30,1
    410008bc:	fd5ff06f          	j	41000890 <rvcp_print_test_result+0xb8>
    410008c0:	000e8f13          	mv	x30,x29
    410008c4:	000f4283          	lbu	x5,0(x30)
    410008c8:	02028663          	beqz	x5,410008f4 <rvcp_print_test_result+0x11c>
    410008cc:	1010031b          	addiw	x6,x0,257
    410008d0:	03031313          	slli	x6,x6,0x30
    410008d4:	005362b3          	or	x5,x6,x5
    410008d8:	0003f317          	auipc	x6,0x3f
    410008dc:	72830313          	addi	x6,x6,1832 # 41040000 <tohost>
    410008e0:	00033383          	ld	x7,0(x6)
    410008e4:	fe039ee3          	bnez	x7,410008e0 <rvcp_print_test_result+0x108>
    410008e8:	00533023          	sd	x5,0(x6)
    410008ec:	001f0f13          	addi	x30,x30,1
    410008f0:	fd5ff06f          	j	410008c4 <rvcp_print_test_result+0xec>
    410008f4:	43802f37          	lui	x30,0x43802
    410008f8:	05bf0f1b          	addiw	x30,x30,91 # 4380205b <rvcp_space_str_pa>
    410008fc:	000f4283          	lbu	x5,0(x30)
    41000900:	02028663          	beqz	x5,4100092c <rvcp_print_test_result+0x154>
    41000904:	1010031b          	addiw	x6,x0,257
    41000908:	03031313          	slli	x6,x6,0x30
    4100090c:	005362b3          	or	x5,x6,x5
    41000910:	0003f317          	auipc	x6,0x3f
    41000914:	6f030313          	addi	x6,x6,1776 # 41040000 <tohost>
    41000918:	00033383          	ld	x7,0(x6)
    4100091c:	fe039ee3          	bnez	x7,41000918 <rvcp_print_test_result+0x140>
    41000920:	00533023          	sd	x5,0(x6)
    41000924:	001f0f13          	addi	x30,x30,1
    41000928:	fd5ff06f          	j	410008fc <rvcp_print_test_result+0x124>
    4100092c:	000e1863          	bnez	x28,4100093c <rvcp_print_test_result+0x164>
    41000930:	43802f37          	lui	x30,0x43802
    41000934:	04df0f1b          	addiw	x30,x30,77 # 4380204d <rvcp_passed_str_pa>
    41000938:	00c0006f          	j	41000944 <rvcp_print_test_result+0x16c>
    4100093c:	43802f37          	lui	x30,0x43802
    41000940:	054f0f1b          	addiw	x30,x30,84 # 43802054 <rvcp_failed_str_pa>
    41000944:	000f4283          	lbu	x5,0(x30)
    41000948:	02028663          	beqz	x5,41000974 <rvcp_print_test_result+0x19c>
    4100094c:	1010031b          	addiw	x6,x0,257
    41000950:	03031313          	slli	x6,x6,0x30
    41000954:	005362b3          	or	x5,x6,x5
    41000958:	0003f317          	auipc	x6,0x3f
    4100095c:	6a830313          	addi	x6,x6,1704 # 41040000 <tohost>
    41000960:	00033383          	ld	x7,0(x6)
    41000964:	fe039ee3          	bnez	x7,41000960 <rvcp_print_test_result+0x188>
    41000968:	00533023          	sd	x5,0(x6)
    4100096c:	001f0f13          	addi	x30,x30,1
    41000970:	fd5ff06f          	j	41000944 <rvcp_print_test_result+0x16c>
    41000974:	43802f37          	lui	x30,0x43802
    41000978:	05df0f1b          	addiw	x30,x30,93 # 4380205d <rvcp_newline_str_pa>
    4100097c:	000f4283          	lbu	x5,0(x30)
    41000980:	02028663          	beqz	x5,410009ac <rvcp_print_test_result+0x1d4>
    41000984:	1010031b          	addiw	x6,x0,257
    41000988:	03031313          	slli	x6,x6,0x30
    4100098c:	005362b3          	or	x5,x6,x5
    41000990:	0003f317          	auipc	x6,0x3f
    41000994:	67030313          	addi	x6,x6,1648 # 41040000 <tohost>
    41000998:	00033383          	ld	x7,0(x6)
    4100099c:	fe039ee3          	bnez	x7,41000998 <rvcp_print_test_result+0x1c0>
    410009a0:	00533023          	sd	x5,0(x6)
    410009a4:	001f0f13          	addi	x30,x30,1
    410009a8:	fd5ff06f          	j	4100097c <rvcp_print_test_result+0x1a4>
    410009ac:	00008067          	ret

00000000410009b0 <os_rng_orig>:
    410009b0:	f14023f3          	csrr	x7,mhartid
    410009b4:	00068313          	mv	x6,x13
    410009b8:	026383b3          	mul	x7,x7,x6
    410009bc:	00058313          	mv	x6,x11
    410009c0:	00730333          	add	x6,x6,x7
    410009c4:	00033283          	ld	x5,0(x6)
    410009c8:	01529313          	slli	x6,x5,0x15
    410009cc:	0062c2b3          	xor	x5,x5,x6
    410009d0:	0232d313          	srli	x6,x5,0x23
    410009d4:	0062c2b3          	xor	x5,x5,x6
    410009d8:	00429313          	slli	x6,x5,0x4
    410009dc:	0062c2b3          	xor	x5,x5,x6
    410009e0:	00058313          	mv	x6,x11
    410009e4:	00730333          	add	x6,x6,x7
    410009e8:	00533023          	sd	x5,0(x6)
    410009ec:	00060313          	mv	x6,x12
    410009f0:	0262f2b3          	remu	x5,x5,x6
    410009f4:	00028513          	mv	x10,x5
    410009f8:	00008067          	ret
    410009fc:	02a00513          	li	x10,42
    41000a00:	001965b7          	lui	x11,0x196
    41000a04:	60d5859b          	addiw	x11,x11,1549 # 19660d <SID_ZA64RS_03_lrd_scw_stack+0x10d60d>
    41000a08:	3c6ef637          	lui	x12,0x3c6ef
    41000a0c:	35f6061b          	addiw	x12,x12,863 # 3c6ef35f <__section_os_data_1+0x2297635f>
    41000a10:	02200693          	li	x13,34
    41000a14:	02b50533          	mul	x10,x10,x11
    41000a18:	00c50533          	add	x10,x10,x12
    41000a1c:	02d56533          	rem	x10,x10,x13
    41000a20:	00b00593          	li	x11,11
    41000a24:	02b56533          	rem	x10,x10,x11
    41000a28:	00008067          	ret
    41000a2c:	0000                	.insn	2, 0x0000
	...

0000000041000a30 <tohost_mutex>:
	...

0000000041000a38 <tohost_addr_mem>:
    41000a38:	0000                	.insn	2, 0x0000
    41000a3a:	4104                	.insn	2, 0x4104
    41000a3c:	0000                	.insn	2, 0x0000
	...

0000000041000a40 <eot__end_test>:
    41000a40:	00100293          	li	x5,1
    41000a44:	00328463          	beq	x5,x3,41000a4c <eot__passed>
    41000a48:	01c0006f          	j	41000a64 <eot__failed>

0000000041000a4c <eot__passed>:
    41000a4c:	0ff0000f          	fence
    41000a50:	00000297          	auipc	x5,0x0
    41000a54:	fe82b283          	ld	x5,-24(x5) # 41000a38 <tohost_addr_mem>
    41000a58:	00100313          	li	x6,1
    41000a5c:	0062a023          	sw	x6,0(x5)
    41000a60:	0240006f          	j	41000a84 <eot__halt>

0000000041000a64 <eot__failed>:
    41000a64:	00100513          	li	x10,1
    41000a68:	d71ff0ef          	jal	410007d8 <rvcp_print_test_result>
    41000a6c:	0ff0000f          	fence
    41000a70:	00000297          	auipc	x5,0x0
    41000a74:	fc82b283          	ld	x5,-56(x5) # 41000a38 <tohost_addr_mem>
    41000a78:	00300313          	li	x6,3
    41000a7c:	0062a023          	sw	x6,0(x5)
    41000a80:	0040006f          	j	41000a84 <eot__halt>

0000000041000a84 <eot__halt>:
    41000a84:	10500073          	wfi
    41000a88:	ffdff06f          	j	41000a84 <eot__halt>

0000000041000a8c <scheduler__init>:
    41000a8c:	00000297          	auipc	x5,0x0
    41000a90:	0c028293          	addi	x5,x5,192 # 41000b4c <scheduler__panic>
    41000a94:	305292f3          	csrrw	x5,mtvec,x5
    41000a98:	18523023          	sd	x5,384(x4) # 180 <XLEN+0x140>
    41000a9c:	01f00293          	li	x5,31
    41000aa0:	18523823          	sd	x5,400(x4) # 190 <XLEN+0x150>
    41000aa4:	0010029b          	addiw	x5,x0,1
    41000aa8:	02029293          	slli	x5,x5,0x20
    41000aac:	ffe28293          	addi	x5,x5,-2
    41000ab0:	18523423          	sd	x5,392(x4) # 188 <XLEN+0x148>
    41000ab4:	00000317          	auipc	x6,0x0
    41000ab8:	32030313          	addi	x6,x6,800 # 41000dd4 <scheduler__test_setup_ptr>
    41000abc:	00033303          	ld	x6,0(x6)
    41000ac0:	0640006f          	j	41000b24 <scheduler__execute_test>

0000000041000ac4 <scheduler__dispatch>:
    41000ac4:	00000297          	auipc	x5,0x0
    41000ac8:	08828293          	addi	x5,x5,136 # 41000b4c <scheduler__panic>
    41000acc:	305292f3          	csrrw	x5,mtvec,x5
    41000ad0:	18523023          	sd	x5,384(x4) # 180 <XLEN+0x140>

0000000041000ad4 <scheduler__csr_read_randomization>:
    41000ad4:	141022f3          	csrr	x5,sepc
    41000ad8:	f14022f3          	csrr	x5,mhartid
    41000adc:	141022f3          	csrr	x5,sepc
    41000ae0:	30a022f3          	csrr	x5,0x30a
    41000ae4:	105022f3          	csrr	x5,stvec

0000000041000ae8 <scheduler__load_num_runs>:
    41000ae8:	19023303          	ld	x6,400(x4) # 190 <XLEN+0x150>
    41000aec:	04030c63          	beqz	x6,41000b44 <scheduler__finished>

0000000041000af0 <scheduler__decrement_num_runs>:
    41000af0:	fff30393          	addi	x7,x6,-1
    41000af4:	18723823          	sd	x7,400(x4) # 190 <XLEN+0x150>
    41000af8:	00000e17          	auipc	x28,0x0
    41000afc:	260e0e13          	addi	x28,x28,608 # 41000d58 <dtest_index_map>
    41000b00:	00239e93          	slli	x29,x7,0x2
    41000b04:	01de0e33          	add	x28,x28,x29
    41000b08:	000e2e03          	lw	x28,0(x28)
    41000b0c:	19c23423          	sd	x28,392(x4) # 188 <XLEN+0x148>

0000000041000b10 <scheduler__calc_test_pointer>:
    41000b10:	00339293          	slli	x5,x7,0x3

0000000041000b14 <scheduler__load_test_addr>:
    41000b14:	00000317          	auipc	x6,0x0
    41000b18:	04830313          	addi	x6,x6,72 # 41000b5c <os_test_sequence>
    41000b1c:	006282b3          	add	x5,x5,x6
    41000b20:	0002b303          	ld	x6,0(x5)

0000000041000b24 <scheduler__execute_test>:
    41000b24:	18023283          	ld	x5,384(x4) # 180 <XLEN+0x140>
    41000b28:	30529073          	csrw	mtvec,x5
    41000b2c:	34021273          	csrrw	x4,mscratch,x4
    41000b30:	00000213          	li	x4,0
    41000b34:	14131073          	csrw	sepc,x6
    41000b38:	10000293          	li	x5,256
    41000b3c:	1002b073          	csrc	sstatus,x5
    41000b40:	10200073          	sret

0000000041000b44 <scheduler__finished>:
    41000b44:	00100193          	li	x3,1
    41000b48:	ef9ff06f          	j	41000a40 <eot__end_test>

0000000041000b4c <scheduler__panic>:
    41000b4c:	00000193          	li	x3,0
    41000b50:	ef1ff06f          	j	41000a40 <eot__end_test>

0000000041000b54 <num_runs>:
    41000b54:	001f 0000 0000      	.insn	6, 0x001f
	...

0000000041000b5c <os_test_sequence>:
    41000b5c:	59a8                	.insn	2, 0x59a8
    41000b5e:	4101                	.insn	2, 0x4101
    41000b60:	0000                	.insn	2, 0x0000
    41000b62:	0000                	.insn	2, 0x0000
    41000b64:	5278                	.insn	2, 0x5278
    41000b66:	4101                	.insn	2, 0x4101
    41000b68:	0000                	.insn	2, 0x0000
    41000b6a:	0000                	.insn	2, 0x0000
    41000b6c:	576c                	.insn	2, 0x576c
    41000b6e:	4101                	.insn	2, 0x4101
    41000b70:	0000                	.insn	2, 0x0000
    41000b72:	0000                	.insn	2, 0x0000
    41000b74:	55f4                	.insn	2, 0x55f4
    41000b76:	4101                	.insn	2, 0x4101
    41000b78:	0000                	.insn	2, 0x0000
    41000b7a:	0000                	.insn	2, 0x0000
    41000b7c:	55f4                	.insn	2, 0x55f4
    41000b7e:	4101                	.insn	2, 0x4101
    41000b80:	0000                	.insn	2, 0x0000
    41000b82:	0000                	.insn	2, 0x0000
    41000b84:	5160                	.insn	2, 0x5160
    41000b86:	4101                	.insn	2, 0x4101
    41000b88:	0000                	.insn	2, 0x0000
    41000b8a:	0000                	.insn	2, 0x0000
    41000b8c:	5830                	.insn	2, 0x5830
    41000b8e:	4101                	.insn	2, 0x4101
    41000b90:	0000                	.insn	2, 0x0000
    41000b92:	0000                	.insn	2, 0x0000
    41000b94:	5278                	.insn	2, 0x5278
    41000b96:	4101                	.insn	2, 0x4101
    41000b98:	0000                	.insn	2, 0x0000
    41000b9a:	0000                	.insn	2, 0x0000
    41000b9c:	53a8                	.insn	2, 0x53a8
    41000b9e:	4101                	.insn	2, 0x4101
    41000ba0:	0000                	.insn	2, 0x0000
    41000ba2:	0000                	.insn	2, 0x0000
    41000ba4:	5528                	.insn	2, 0x5528
    41000ba6:	4101                	.insn	2, 0x4101
    41000ba8:	0000                	.insn	2, 0x0000
    41000baa:	0000                	.insn	2, 0x0000
    41000bac:	55f4                	.insn	2, 0x55f4
    41000bae:	4101                	.insn	2, 0x4101
    41000bb0:	0000                	.insn	2, 0x0000
    41000bb2:	0000                	.insn	2, 0x0000
    41000bb4:	56c0                	.insn	2, 0x56c0
    41000bb6:	4101                	.insn	2, 0x4101
    41000bb8:	0000                	.insn	2, 0x0000
    41000bba:	0000                	.insn	2, 0x0000
    41000bbc:	5830                	.insn	2, 0x5830
    41000bbe:	4101                	.insn	2, 0x4101
    41000bc0:	0000                	.insn	2, 0x0000
    41000bc2:	0000                	.insn	2, 0x0000
    41000bc4:	5528                	.insn	2, 0x5528
    41000bc6:	4101                	.insn	2, 0x4101
    41000bc8:	0000                	.insn	2, 0x0000
    41000bca:	0000                	.insn	2, 0x0000
    41000bcc:	56c0                	.insn	2, 0x56c0
    41000bce:	4101                	.insn	2, 0x4101
    41000bd0:	0000                	.insn	2, 0x0000
    41000bd2:	0000                	.insn	2, 0x0000
    41000bd4:	547c                	.insn	2, 0x547c
    41000bd6:	4101                	.insn	2, 0x4101
    41000bd8:	0000                	.insn	2, 0x0000
    41000bda:	0000                	.insn	2, 0x0000
    41000bdc:	5528                	.insn	2, 0x5528
    41000bde:	4101                	.insn	2, 0x4101
    41000be0:	0000                	.insn	2, 0x0000
    41000be2:	0000                	.insn	2, 0x0000
    41000be4:	576c                	.insn	2, 0x576c
    41000be6:	4101                	.insn	2, 0x4101
    41000be8:	0000                	.insn	2, 0x0000
    41000bea:	0000                	.insn	2, 0x0000
    41000bec:	58dc                	.insn	2, 0x58dc
    41000bee:	4101                	.insn	2, 0x4101
    41000bf0:	0000                	.insn	2, 0x0000
    41000bf2:	0000                	.insn	2, 0x0000
    41000bf4:	53a8                	.insn	2, 0x53a8
    41000bf6:	4101                	.insn	2, 0x4101
    41000bf8:	0000                	.insn	2, 0x0000
    41000bfa:	0000                	.insn	2, 0x0000
    41000bfc:	56c0                	.insn	2, 0x56c0
    41000bfe:	4101                	.insn	2, 0x4101
    41000c00:	0000                	.insn	2, 0x0000
    41000c02:	0000                	.insn	2, 0x0000
    41000c04:	53a8                	.insn	2, 0x53a8
    41000c06:	4101                	.insn	2, 0x4101
    41000c08:	0000                	.insn	2, 0x0000
    41000c0a:	0000                	.insn	2, 0x0000
    41000c0c:	547c                	.insn	2, 0x547c
    41000c0e:	4101                	.insn	2, 0x4101
    41000c10:	0000                	.insn	2, 0x0000
    41000c12:	0000                	.insn	2, 0x0000
    41000c14:	576c                	.insn	2, 0x576c
    41000c16:	4101                	.insn	2, 0x4101
    41000c18:	0000                	.insn	2, 0x0000
    41000c1a:	0000                	.insn	2, 0x0000
    41000c1c:	5278                	.insn	2, 0x5278
    41000c1e:	4101                	.insn	2, 0x4101
    41000c20:	0000                	.insn	2, 0x0000
    41000c22:	0000                	.insn	2, 0x0000
    41000c24:	547c                	.insn	2, 0x547c
    41000c26:	4101                	.insn	2, 0x4101
    41000c28:	0000                	.insn	2, 0x0000
    41000c2a:	0000                	.insn	2, 0x0000
    41000c2c:	5830                	.insn	2, 0x5830
    41000c2e:	4101                	.insn	2, 0x4101
    41000c30:	0000                	.insn	2, 0x0000
    41000c32:	0000                	.insn	2, 0x0000
    41000c34:	5160                	.insn	2, 0x5160
    41000c36:	4101                	.insn	2, 0x4101
    41000c38:	0000                	.insn	2, 0x0000
    41000c3a:	0000                	.insn	2, 0x0000
    41000c3c:	5160                	.insn	2, 0x5160
    41000c3e:	4101                	.insn	2, 0x4101
    41000c40:	0000                	.insn	2, 0x0000
    41000c42:	0000                	.insn	2, 0x0000
    41000c44:	58dc                	.insn	2, 0x58dc
    41000c46:	4101                	.insn	2, 0x4101
    41000c48:	0000                	.insn	2, 0x0000
    41000c4a:	0000                	.insn	2, 0x0000
    41000c4c:	58dc                	.insn	2, 0x58dc
    41000c4e:	4101                	.insn	2, 0x4101
    41000c50:	0000                	.insn	2, 0x0000
	...

0000000041000c54 <dtest_descriptor_table>:
    41000c54:	0ca4                	.insn	2, 0x0ca4
    41000c56:	4100                	.insn	2, 0x4100
    41000c58:	0000                	.insn	2, 0x0000
    41000c5a:	0000                	.insn	2, 0x0000
    41000c5c:	0cb2                	.insn	2, 0x0cb2
    41000c5e:	4100                	.insn	2, 0x4100
    41000c60:	0000                	.insn	2, 0x0000
    41000c62:	0000                	.insn	2, 0x0000
    41000c64:	0cc0                	.insn	2, 0x0cc0
    41000c66:	4100                	.insn	2, 0x4100
    41000c68:	0000                	.insn	2, 0x0000
    41000c6a:	0000                	.insn	2, 0x0000
    41000c6c:	0cd0                	.insn	2, 0x0cd0
    41000c6e:	4100                	.insn	2, 0x4100
    41000c70:	0000                	.insn	2, 0x0000
    41000c72:	0000                	.insn	2, 0x0000
    41000c74:	0ce0                	.insn	2, 0x0ce0
    41000c76:	4100                	.insn	2, 0x4100
    41000c78:	0000                	.insn	2, 0x0000
    41000c7a:	0000                	.insn	2, 0x0000
    41000c7c:	0cf6                	.insn	2, 0x0cf6
    41000c7e:	4100                	.insn	2, 0x4100
    41000c80:	0000                	.insn	2, 0x0000
    41000c82:	0000                	.insn	2, 0x0000
    41000c84:	0d0c                	.insn	2, 0x0d0c
    41000c86:	4100                	.insn	2, 0x4100
    41000c88:	0000                	.insn	2, 0x0000
    41000c8a:	0000                	.insn	2, 0x0000
    41000c8c:	0d1c                	.insn	2, 0x0d1c
    41000c8e:	4100                	.insn	2, 0x4100
    41000c90:	0000                	.insn	2, 0x0000
    41000c92:	0000                	.insn	2, 0x0000
    41000c94:	0d2c                	.insn	2, 0x0d2c
    41000c96:	4100                	.insn	2, 0x4100
    41000c98:	0000                	.insn	2, 0x0000
    41000c9a:	0000                	.insn	2, 0x0000
    41000c9c:	0d42                	.insn	2, 0x0d42
    41000c9e:	4100                	.insn	2, 0x4100
    41000ca0:	0000                	.insn	2, 0x0000
	...

0000000041000ca4 <dtest_name_0>:
    41000ca4:	5f444953          	.insn	4, 0x5f444953
    41000ca8:	415a                	.insn	2, 0x415a
    41000caa:	3436                	.insn	2, 0x3436
    41000cac:	5352                	.insn	2, 0x5352
    41000cae:	305f 0031       	.insn	6, 0x49530031305f

0000000041000cb2 <dtest_name_1>:
    41000cb2:	5f444953          	.insn	4, 0x5f444953
    41000cb6:	415a                	.insn	2, 0x415a
    41000cb8:	3436                	.insn	2, 0x3436
    41000cba:	5352                	.insn	2, 0x5352
    41000cbc:	305f 0032       	.insn	6, 0x49530032305f

0000000041000cc0 <dtest_name_2>:
    41000cc0:	5f444953          	.insn	4, 0x5f444953
    41000cc4:	415a                	.insn	2, 0x415a
    41000cc6:	3436                	.insn	2, 0x3436
    41000cc8:	5352                	.insn	2, 0x5352
    41000cca:	305f 5f33 0077      	.insn	6, 0x00775f33305f

0000000041000cd0 <dtest_name_3>:
    41000cd0:	5f444953          	.insn	4, 0x5f444953
    41000cd4:	415a                	.insn	2, 0x415a
    41000cd6:	3436                	.insn	2, 0x3436
    41000cd8:	5352                	.insn	2, 0x5352
    41000cda:	305f 5f33 0064      	.insn	6, 0x00645f33305f

0000000041000ce0 <dtest_name_4>:
    41000ce0:	5f444953          	.insn	4, 0x5f444953
    41000ce4:	415a                	.insn	2, 0x415a
    41000ce6:	3436                	.insn	2, 0x3436
    41000ce8:	5352                	.insn	2, 0x5352
    41000cea:	305f 5f33 726c      	.insn	6, 0x726c5f33305f
    41000cf0:	63735f77          	.insn	4, 0x63735f77
    41000cf4:	0064                	.insn	2, 0x0064

0000000041000cf6 <dtest_name_5>:
    41000cf6:	5f444953          	.insn	4, 0x5f444953
    41000cfa:	415a                	.insn	2, 0x415a
    41000cfc:	3436                	.insn	2, 0x3436
    41000cfe:	5352                	.insn	2, 0x5352
    41000d00:	305f 5f33 726c      	.insn	6, 0x726c5f33305f
    41000d06:	5f64                	.insn	2, 0x5f64
    41000d08:	00776373          	csrrsi	x6,0x7,14

0000000041000d0c <dtest_name_6>:
    41000d0c:	5f444953          	.insn	4, 0x5f444953
    41000d10:	415a                	.insn	2, 0x415a
    41000d12:	3436                	.insn	2, 0x3436
    41000d14:	5352                	.insn	2, 0x5352
    41000d16:	305f 5f35 0077      	.insn	6, 0x00775f35305f

0000000041000d1c <dtest_name_7>:
    41000d1c:	5f444953          	.insn	4, 0x5f444953
    41000d20:	415a                	.insn	2, 0x415a
    41000d22:	3436                	.insn	2, 0x3436
    41000d24:	5352                	.insn	2, 0x5352
    41000d26:	305f 5f35 0064      	.insn	6, 0x00645f35305f

0000000041000d2c <dtest_name_8>:
    41000d2c:	5f444953          	.insn	4, 0x5f444953
    41000d30:	415a                	.insn	2, 0x415a
    41000d32:	3436                	.insn	2, 0x3436
    41000d34:	5352                	.insn	2, 0x5352
    41000d36:	305f 5f34 726c      	.insn	6, 0x726c5f34305f
    41000d3c:	63735f77          	.insn	4, 0x63735f77
    41000d40:	0064                	.insn	2, 0x0064

0000000041000d42 <dtest_name_9>:
    41000d42:	5f444953          	.insn	4, 0x5f444953
    41000d46:	415a                	.insn	2, 0x415a
    41000d48:	3436                	.insn	2, 0x3436
    41000d4a:	5352                	.insn	2, 0x5352
    41000d4c:	305f 5f34 726c      	.insn	6, 0x726c5f34305f
    41000d52:	5f64                	.insn	2, 0x5f64
    41000d54:	00776373          	csrrsi	x6,0x7,14

0000000041000d58 <dtest_index_map>:
    41000d58:	ffff                	.insn	2, 0xffff
    41000d5a:	ffff                	.insn	2, 0xffff
    41000d5c:	0001                	.insn	2, 0x0001
    41000d5e:	0000                	.insn	2, 0x0000
    41000d60:	00000007          	vle8.v	v0,(x0),v0.t
    41000d64:	0005                	.insn	2, 0x0005
    41000d66:	0000                	.insn	2, 0x0000
    41000d68:	0005                	.insn	2, 0x0005
    41000d6a:	0000                	.insn	2, 0x0000
    41000d6c:	0000                	.insn	2, 0x0000
    41000d6e:	0000                	.insn	2, 0x0000
    41000d70:	0008                	.insn	2, 0x0008
    41000d72:	0000                	.insn	2, 0x0000
    41000d74:	0001                	.insn	2, 0x0001
    41000d76:	0000                	.insn	2, 0x0000
    41000d78:	0002                	.insn	2, 0x0002
    41000d7a:	0000                	.insn	2, 0x0000
    41000d7c:	0004                	.insn	2, 0x0004
    41000d7e:	0000                	.insn	2, 0x0000
    41000d80:	0005                	.insn	2, 0x0005
    41000d82:	0000                	.insn	2, 0x0000
    41000d84:	0006                	.insn	2, 0x0006
    41000d86:	0000                	.insn	2, 0x0000
    41000d88:	0008                	.insn	2, 0x0008
    41000d8a:	0000                	.insn	2, 0x0000
    41000d8c:	0004                	.insn	2, 0x0004
    41000d8e:	0000                	.insn	2, 0x0000
    41000d90:	0006                	.insn	2, 0x0006
    41000d92:	0000                	.insn	2, 0x0000
    41000d94:	00000003          	lb	x0,0(x0) # 0 <ALL_4KB_PAGES>
    41000d98:	0004                	.insn	2, 0x0004
    41000d9a:	0000                	.insn	2, 0x0000
    41000d9c:	00000007          	vle8.v	v0,(x0),v0.t
    41000da0:	0009                	.insn	2, 0x0009
    41000da2:	0000                	.insn	2, 0x0000
    41000da4:	0002                	.insn	2, 0x0002
    41000da6:	0000                	.insn	2, 0x0000
    41000da8:	0006                	.insn	2, 0x0006
    41000daa:	0000                	.insn	2, 0x0000
    41000dac:	0002                	.insn	2, 0x0002
    41000dae:	0000                	.insn	2, 0x0000
    41000db0:	00000003          	lb	x0,0(x0) # 0 <ALL_4KB_PAGES>
    41000db4:	00000007          	vle8.v	v0,(x0),v0.t
    41000db8:	0001                	.insn	2, 0x0001
    41000dba:	0000                	.insn	2, 0x0000
    41000dbc:	00000003          	lb	x0,0(x0) # 0 <ALL_4KB_PAGES>
    41000dc0:	0008                	.insn	2, 0x0008
	...
    41000dca:	0000                	.insn	2, 0x0000
    41000dcc:	0009                	.insn	2, 0x0009
    41000dce:	0000                	.insn	2, 0x0000
    41000dd0:	0009                	.insn	2, 0x0009
	...

0000000041000dd4 <scheduler__test_setup_ptr>:
    41000dd4:	5150                	.insn	2, 0x5150
    41000dd6:	4101                	.insn	2, 0x4101
    41000dd8:	0000                	.insn	2, 0x0000
	...

0000000041000ddc <scheduler__test_cleanup_ptr>:
    41000ddc:	59a8                	.insn	2, 0x59a8
    41000dde:	4101                	.insn	2, 0x4101
    41000de0:	0000                	.insn	2, 0x0000
	...

Disassembly of section .runtime_s:

0000000041011000 <trap_handler_s__invalid_interrupt>:
    41011000:	1740006f          	j	41011174 <trap_handler_s__test_failed>

0000000041011004 <trap_handler_s__clear_all_interrupts>:
    41011004:	14401073          	csrw	sip,x0
    41011008:	10200073          	sret

000000004101100c <trap_handler_s___CLEAR_SSI>:
    4101100c:	00200293          	li	x5,2
    41011010:	1442b073          	csrc	sip,x5
    41011014:	10200073          	sret

0000000041011018 <trap_handler_s___CLEAR_MSI>:
    41011018:	00800293          	li	x5,8
    4101101c:	1442b073          	csrc	sip,x5
    41011020:	10200073          	sret

0000000041011024 <trap_handler_s___CLEAR_STI>:
    41011024:	02000293          	li	x5,32
    41011028:	1442b073          	csrc	sip,x5
    4101102c:	10200073          	sret

0000000041011030 <trap_handler_s___CLEAR_MTI>:
    41011030:	08000293          	li	x5,128
    41011034:	1442b073          	csrc	sip,x5
    41011038:	10200073          	sret

000000004101103c <trap_handler_s___CLEAR_SEI>:
    4101103c:	20000293          	li	x5,512
    41011040:	1442b073          	csrc	sip,x5
    41011044:	10200073          	sret

0000000041011048 <trap_handler_s___CLEAR_MEI>:
    41011048:	000012b7          	lui	x5,0x1
    4101104c:	8002829b          	addiw	x5,x5,-2048 # 800 <XLEN+0x7c0>
    41011050:	1442b073          	csrc	sip,x5
    41011054:	10200073          	sret

0000000041011058 <trap_handler_s___CLEAR_COI>:
    41011058:	000022b7          	lui	x5,0x2
    4101105c:	1442b073          	csrc	sip,x5
    41011060:	10200073          	sret

0000000041011064 <trap_handler_s__clear_highest_priority_interrupt>:
    41011064:	144022f3          	csrr	x5,sip
    41011068:	40500333          	neg	x6,x5
    4101106c:	0062f2b3          	and	x5,x5,x6
    41011070:	1442b073          	csrc	sip,x5
    41011074:	10200073          	sret

0000000041011078 <trap_handler_s__trap_entry>:
    41011078:	10c0006f          	j	41011184 <trap_handler_s__trap_handler>

000000004101107c <trap_handler_s__interrupt_vector_table>:
    4101107c:	f91ff06f          	j	4101100c <trap_handler_s___CLEAR_SSI>
    41011080:	f81ff06f          	j	41011000 <trap_handler_s__invalid_interrupt>
    41011084:	f95ff06f          	j	41011018 <trap_handler_s___CLEAR_MSI>
    41011088:	f79ff06f          	j	41011000 <trap_handler_s__invalid_interrupt>
    4101108c:	f99ff06f          	j	41011024 <trap_handler_s___CLEAR_STI>
    41011090:	f71ff06f          	j	41011000 <trap_handler_s__invalid_interrupt>
    41011094:	f9dff06f          	j	41011030 <trap_handler_s___CLEAR_MTI>
    41011098:	f69ff06f          	j	41011000 <trap_handler_s__invalid_interrupt>
    4101109c:	fa1ff06f          	j	4101103c <trap_handler_s___CLEAR_SEI>
    410110a0:	f61ff06f          	j	41011000 <trap_handler_s__invalid_interrupt>
    410110a4:	fa5ff06f          	j	41011048 <trap_handler_s___CLEAR_MEI>
    410110a8:	f59ff06f          	j	41011000 <trap_handler_s__invalid_interrupt>
    410110ac:	fadff06f          	j	41011058 <trap_handler_s___CLEAR_COI>
    410110b0:	f51ff06f          	j	41011000 <trap_handler_s__invalid_interrupt>
    410110b4:	f4dff06f          	j	41011000 <trap_handler_s__invalid_interrupt>
    410110b8:	fadff06f          	j	41011064 <trap_handler_s__clear_highest_priority_interrupt>
    410110bc:	fa9ff06f          	j	41011064 <trap_handler_s__clear_highest_priority_interrupt>
    410110c0:	fa5ff06f          	j	41011064 <trap_handler_s__clear_highest_priority_interrupt>
    410110c4:	fa1ff06f          	j	41011064 <trap_handler_s__clear_highest_priority_interrupt>
    410110c8:	f9dff06f          	j	41011064 <trap_handler_s__clear_highest_priority_interrupt>
    410110cc:	f99ff06f          	j	41011064 <trap_handler_s__clear_highest_priority_interrupt>
    410110d0:	f95ff06f          	j	41011064 <trap_handler_s__clear_highest_priority_interrupt>
    410110d4:	f91ff06f          	j	41011064 <trap_handler_s__clear_highest_priority_interrupt>
    410110d8:	f8dff06f          	j	41011064 <trap_handler_s__clear_highest_priority_interrupt>
    410110dc:	f89ff06f          	j	41011064 <trap_handler_s__clear_highest_priority_interrupt>
    410110e0:	f85ff06f          	j	41011064 <trap_handler_s__clear_highest_priority_interrupt>
    410110e4:	f81ff06f          	j	41011064 <trap_handler_s__clear_highest_priority_interrupt>
    410110e8:	f7dff06f          	j	41011064 <trap_handler_s__clear_highest_priority_interrupt>
    410110ec:	f79ff06f          	j	41011064 <trap_handler_s__clear_highest_priority_interrupt>
    410110f0:	f75ff06f          	j	41011064 <trap_handler_s__clear_highest_priority_interrupt>
    410110f4:	f71ff06f          	j	41011064 <trap_handler_s__clear_highest_priority_interrupt>
    410110f8:	f6dff06f          	j	41011064 <trap_handler_s__clear_highest_priority_interrupt>
    410110fc:	f69ff06f          	j	41011064 <trap_handler_s__clear_highest_priority_interrupt>
    41011100:	f65ff06f          	j	41011064 <trap_handler_s__clear_highest_priority_interrupt>
    41011104:	f61ff06f          	j	41011064 <trap_handler_s__clear_highest_priority_interrupt>
    41011108:	f5dff06f          	j	41011064 <trap_handler_s__clear_highest_priority_interrupt>
    4101110c:	f59ff06f          	j	41011064 <trap_handler_s__clear_highest_priority_interrupt>
    41011110:	f55ff06f          	j	41011064 <trap_handler_s__clear_highest_priority_interrupt>
    41011114:	f51ff06f          	j	41011064 <trap_handler_s__clear_highest_priority_interrupt>
    41011118:	f4dff06f          	j	41011064 <trap_handler_s__clear_highest_priority_interrupt>
    4101111c:	f49ff06f          	j	41011064 <trap_handler_s__clear_highest_priority_interrupt>
    41011120:	f45ff06f          	j	41011064 <trap_handler_s__clear_highest_priority_interrupt>
    41011124:	f41ff06f          	j	41011064 <trap_handler_s__clear_highest_priority_interrupt>
    41011128:	f3dff06f          	j	41011064 <trap_handler_s__clear_highest_priority_interrupt>
    4101112c:	f39ff06f          	j	41011064 <trap_handler_s__clear_highest_priority_interrupt>
    41011130:	f35ff06f          	j	41011064 <trap_handler_s__clear_highest_priority_interrupt>
    41011134:	f31ff06f          	j	41011064 <trap_handler_s__clear_highest_priority_interrupt>
    41011138:	f2dff06f          	j	41011064 <trap_handler_s__clear_highest_priority_interrupt>
    4101113c:	f29ff06f          	j	41011064 <trap_handler_s__clear_highest_priority_interrupt>
    41011140:	f25ff06f          	j	41011064 <trap_handler_s__clear_highest_priority_interrupt>
    41011144:	f21ff06f          	j	41011064 <trap_handler_s__clear_highest_priority_interrupt>
    41011148:	f1dff06f          	j	41011064 <trap_handler_s__clear_highest_priority_interrupt>
    4101114c:	f19ff06f          	j	41011064 <trap_handler_s__clear_highest_priority_interrupt>
    41011150:	f15ff06f          	j	41011064 <trap_handler_s__clear_highest_priority_interrupt>
    41011154:	f11ff06f          	j	41011064 <trap_handler_s__clear_highest_priority_interrupt>
    41011158:	f0dff06f          	j	41011064 <trap_handler_s__clear_highest_priority_interrupt>
    4101115c:	f09ff06f          	j	41011064 <trap_handler_s__clear_highest_priority_interrupt>
    41011160:	f05ff06f          	j	41011064 <trap_handler_s__clear_highest_priority_interrupt>
    41011164:	f01ff06f          	j	41011064 <trap_handler_s__clear_highest_priority_interrupt>
    41011168:	efdff06f          	j	41011064 <trap_handler_s__clear_highest_priority_interrupt>
    4101116c:	ef9ff06f          	j	41011064 <trap_handler_s__clear_highest_priority_interrupt>
    41011170:	ef5ff06f          	j	41011064 <trap_handler_s__clear_highest_priority_interrupt>

0000000041011174 <trap_handler_s__test_failed>:
    41011174:	00f00f9b          	addiw	x31,x0,15
    41011178:	01cf9f93          	slli	x31,x31,0x1c
    4101117c:	002f8f93          	addi	x31,x31,2
    41011180:	00000073          	ecall

0000000041011184 <trap_handler_s__trap_handler>:
    41011184:	142022f3          	csrr	x5,scause
    41011188:	fff0031b          	addiw	x6,x0,-1
    4101118c:	03f31313          	slli	x6,x6,0x3f
    41011190:	00537333          	and	x6,x6,x5
    41011194:	02030263          	beqz	x6,410111b8 <trap_handler_s__exception_path>

0000000041011198 <trap_handler_s__interrupt_handler>:
    41011198:	fff0031b          	addiw	x6,x0,-1
    4101119c:	03f31313          	slli	x6,x6,0x3f
    410111a0:	0062c2b3          	xor	x5,x5,x6
    410111a4:	00000317          	auipc	x6,0x0
    410111a8:	ed430313          	addi	x6,x6,-300 # 41011078 <trap_handler_s__trap_entry>
    410111ac:	00229293          	slli	x5,x5,0x2
    410111b0:	005302b3          	add	x5,x6,x5
    410111b4:	00028067          	jr	x5 # 2000 <pma_region_1_size+0x1000>

00000000410111b8 <trap_handler_s__exception_path>:
    410111b8:	14021273          	csrrw	x4,sscratch,x4
    410111bc:	00000297          	auipc	x5,0x0
    410111c0:	0cc28293          	addi	x5,x5,204 # 41011288 <trap_handler_s__trap_panic>
    410111c4:	10529073          	csrw	stvec,x5
    410111c8:	0040006f          	j	410111cc <trap_handler_s__excp_entry>

00000000410111cc <trap_handler_s__excp_entry>:
    410111cc:	14202373          	csrr	x6,scause
    410111d0:	00800293          	li	x5,8
    410111d4:	00534863          	blt	x6,x5,410111e4 <trap_handler_s__check_exception_label>
    410111d8:	00b00293          	li	x5,11
    410111dc:	0062c463          	blt	x5,x6,410111e4 <trap_handler_s__check_exception_label>
    410111e0:	0a80006f          	j	41011288 <trap_handler_s__trap_panic>

00000000410111e4 <trap_handler_s__check_exception_label>:
    410111e4:	04623c23          	sd	x6,88(x4) # 58 <XLEN+0x18>
    410111e8:	141022f3          	csrr	x5,sepc
    410111ec:	02523423          	sd	x5,40(x4) # 28 <SECURE_ACCESS_PROBABILITY+0xa>
    410111f0:	01820283          	lb	x5,24(x4) # 18 <STORE_GUEST_PAGE_FAULT+0x1>
    410111f4:	00029863          	bnez	x5,41011204 <trap_handler_s__check_excp>
    410111f8:	00128293          	addi	x5,x5,1
    410111fc:	00520c23          	sb	x5,24(x4) # 18 <STORE_GUEST_PAGE_FAULT+0x1>
    41011200:	05c0006f          	j	4101125c <trap_handler_s__ecall_from_machine>

0000000041011204 <trap_handler_s__check_excp>:
    41011204:	06823283          	ld	x5,104(x4) # 68 <XLEN+0x28>
    41011208:	06023423          	sd	x0,104(x4) # 68 <XLEN+0x28>
    4101120c:	00028663          	beqz	x5,41011218 <trap_handler_s__skip_mode_check>
    41011210:	00300393          	li	x7,3
    41011214:	f67290e3          	bne	x5,x7,41011174 <trap_handler_s__test_failed>

0000000041011218 <trap_handler_s__skip_mode_check>:
    41011218:	05023283          	ld	x5,80(x4) # 50 <XLEN+0x10>
    4101121c:	04023823          	sd	x0,80(x4) # 50 <XLEN+0x10>
    41011220:	f4531ae3          	bne	x6,x5,41011174 <trap_handler_s__test_failed>
    41011224:	03823283          	ld	x5,56(x4) # 38 <SECURE_ACCESS_PROBABILITY+0x1a>
    41011228:	02023c23          	sd	x0,56(x4) # 38 <SECURE_ACCESS_PROBABILITY+0x1a>
    4101122c:	02029663          	bnez	x5,41011258 <trap_handler_s__skip_nonzero_tval_check>
    41011230:	02023303          	ld	x6,32(x4) # 20 <SECURE_ACCESS_PROBABILITY+0x2>
    41011234:	02023023          	sd	x0,32(x4) # 20 <SECURE_ACCESS_PROBABILITY+0x2>
    41011238:	02823283          	ld	x5,40(x4) # 28 <SECURE_ACCESS_PROBABILITY+0xa>
    4101123c:	02023423          	sd	x0,40(x4) # 28 <SECURE_ACCESS_PROBABILITY+0xa>
    41011240:	f2531ae3          	bne	x6,x5,41011174 <trap_handler_s__test_failed>
    41011244:	04023283          	ld	x5,64(x4) # 40 <XLEN>
    41011248:	04023023          	sd	x0,64(x4) # 40 <XLEN>
    4101124c:	00028663          	beqz	x5,41011258 <trap_handler_s__skip_nonzero_tval_check>

0000000041011250 <trap_handler_s__nonzero_tval_check>:
    41011250:	14302373          	csrr	x6,stval
    41011254:	f25310e3          	bne	x6,x5,41011174 <trap_handler_s__test_failed>

0000000041011258 <trap_handler_s__skip_nonzero_tval_check>:
    41011258:	0040006f          	j	4101125c <trap_handler_s__ecall_from_machine>

000000004101125c <trap_handler_s__ecall_from_machine>:
    4101125c:	03023283          	ld	x5,48(x4) # 30 <SECURE_ACCESS_PROBABILITY+0x12>
    41011260:	02023823          	sd	x0,48(x4) # 30 <SECURE_ACCESS_PROBABILITY+0x12>
    41011264:	07023303          	ld	x6,112(x4) # 70 <XLEN+0x30>
    41011268:	06023823          	sd	x0,112(x4) # 70 <XLEN+0x30>
    4101126c:	00031463          	bnez	x6,41011274 <trap_handler_s__skip_xepc_write>
    41011270:	14129073          	csrw	sepc,x5

0000000041011274 <trap_handler_s__skip_xepc_write>:
    41011274:	00000317          	auipc	x6,0x0
    41011278:	e0430313          	addi	x6,x6,-508 # 41011078 <trap_handler_s__trap_entry>
    4101127c:	10531073          	csrw	stvec,x6
    41011280:	14021273          	csrrw	x4,sscratch,x4
    41011284:	10200073          	sret

0000000041011288 <trap_handler_s__trap_panic>:
    41011288:	00000193          	li	x3,0
    4101128c:	00f00f9b          	addiw	x31,x0,15
    41011290:	01cf9f93          	slli	x31,x31,0x1c
    41011294:	002f8f93          	addi	x31,x31,2
    41011298:	00000073          	ecall

Disassembly of section .code:

0000000041015120 <passed>:
    41015120:	00f00f9b          	addiw	x31,x0,15
    41015124:	01cf9f93          	slli	x31,x31,0x1c
    41015128:	001f8f93          	addi	x31,x31,1
    4101512c:	00000073          	ecall

0000000041015130 <failed>:
    41015130:	00f00f9b          	addiw	x31,x0,15
    41015134:	01cf9f93          	slli	x31,x31,0x1c
    41015138:	002f8f93          	addi	x31,x31,2
    4101513c:	00000073          	ecall

0000000041015140 <end_test>:
    41015140:	00f00f9b          	addiw	x31,x0,15
    41015144:	01cf9f93          	slli	x31,x31,0x1c
    41015148:	003f8f93          	addi	x31,x31,3
    4101514c:	00000073          	ecall

0000000041015150 <test_setup>:
    41015150:	00f00f9b          	addiw	x31,x0,15
    41015154:	01cf9f93          	slli	x31,x31,0x1c
    41015158:	001f8f93          	addi	x31,x31,1
    4101515c:	00000073          	ecall

0000000041015160 <SID_ZA64RS_01>:
    41015160:	ffddc137          	lui	x2,0xffddc
    41015164:	4711011b          	addiw	x2,x2,1137 # ffffffffffddc471 <SID_ZA64RS_01_stack+0x44771d1a6471>
    41015168:	00c11113          	slli	x2,x2,0xc
    4101516c:	61b10113          	addi	x2,x2,1563
    41015170:	00d11113          	slli	x2,x2,0xd
    41015174:	000012b7          	lui	x5,0x1
    41015178:	00510133          	add	x2,x2,x5
    4101517c:	ff017113          	andi	x2,x2,-16
    41015180:	01c56237          	lui	x4,0x1c56
    41015184:	00500e13          	li	x28,5
    41015188:	05c23823          	sd	x28,80(x4) # 1c56050 <check_excp_expected_cause>
    4101518c:	00000e17          	auipc	x28,0x0
    41015190:	054e0e13          	addi	x28,x28,84 # 410151e0 <fault_label_0>
    41015194:	03c23023          	sd	x28,32(x4) # 20 <SECURE_ACCESS_PROBABILITY+0x2>
    41015198:	00000e13          	li	x28,0
    4101519c:	05c23023          	sd	x28,64(x4) # 40 <XLEN>
    410151a0:	00000e13          	li	x28,0
    410151a4:	05c23423          	sd	x28,72(x4) # 48 <XLEN+0x8>
    410151a8:	00000e17          	auipc	x28,0x0
    410151ac:	04ce0e13          	addi	x28,x28,76 # 410151f4 <excp_return_label_0>
    410151b0:	03c23823          	sd	x28,48(x4) # 30 <SECURE_ACCESS_PROBABILITY+0x12>
    410151b4:	00000e13          	li	x28,0
    410151b8:	03c23c23          	sd	x28,56(x4) # 38 <SECURE_ACCESS_PROBABILITY+0x1a>
    410151bc:	00000e13          	li	x28,0
    410151c0:	07c23023          	sd	x28,96(x4) # 60 <XLEN+0x20>
    410151c4:	00000e13          	li	x28,0
    410151c8:	07c23423          	sd	x28,104(x4) # 68 <XLEN+0x28>
    410151cc:	00000e13          	li	x28,0
    410151d0:	07c23823          	sd	x28,112(x4) # 70 <XLEN+0x30>
    410151d4:	000593b7          	lui	x7,0x59
    410151d8:	00100493          	li	x9,1
    410151dc:	00938533          	add	x10,x7,x9

00000000410151e0 <fault_label_0>:
    410151e0:	10052a2f          	lr.w	x20,(x10)
    410151e4:	19d78737          	lui	x14,0x19d78
    410151e8:	0087071b          	addiw	x14,x14,8 # 19d78008 <failed_addr>
    410151ec:	00073503          	ld	x10,0(x14)
    410151f0:	00050067          	jr	x10

00000000410151f4 <excp_return_label_0>:
    410151f4:	01c56237          	lui	x4,0x1c56
    410151f8:	00500e13          	li	x28,5
    410151fc:	05c23823          	sd	x28,80(x4) # 1c56050 <check_excp_expected_cause>
    41015200:	00000e17          	auipc	x28,0x0
    41015204:	054e0e13          	addi	x28,x28,84 # 41015254 <fault_label_1>
    41015208:	03c23023          	sd	x28,32(x4) # 20 <SECURE_ACCESS_PROBABILITY+0x2>
    4101520c:	00000e13          	li	x28,0
    41015210:	05c23023          	sd	x28,64(x4) # 40 <XLEN>
    41015214:	00000e13          	li	x28,0
    41015218:	05c23423          	sd	x28,72(x4) # 48 <XLEN+0x8>
    4101521c:	00000e17          	auipc	x28,0x0
    41015220:	04ce0e13          	addi	x28,x28,76 # 41015268 <SID_ZA64RS_01_passed>
    41015224:	03c23823          	sd	x28,48(x4) # 30 <SECURE_ACCESS_PROBABILITY+0x12>
    41015228:	00000e13          	li	x28,0
    4101522c:	03c23c23          	sd	x28,56(x4) # 38 <SECURE_ACCESS_PROBABILITY+0x1a>
    41015230:	00000e13          	li	x28,0
    41015234:	07c23023          	sd	x28,96(x4) # 60 <XLEN+0x20>
    41015238:	00000e13          	li	x28,0
    4101523c:	07c23423          	sd	x28,104(x4) # 68 <XLEN+0x28>
    41015240:	00000e13          	li	x28,0
    41015244:	07c23823          	sd	x28,112(x4) # 70 <XLEN+0x30>
    41015248:	00059537          	lui	x10,0x59
    4101524c:	00100393          	li	x7,1
    41015250:	007509b3          	add	x19,x10,x7

0000000041015254 <fault_label_1>:
    41015254:	1009b92f          	lr.d	x18,(x19)
    41015258:	19d784b7          	lui	x9,0x19d78
    4101525c:	0084849b          	addiw	x9,x9,8 # 19d78008 <failed_addr>
    41015260:	0004b803          	ld	x16,0(x9)
    41015264:	00080067          	jr	x16

0000000041015268 <SID_ZA64RS_01_passed>:
    41015268:	00f00f9b          	addiw	x31,x0,15
    4101526c:	01cf9f93          	slli	x31,x31,0x1c
    41015270:	001f8f93          	addi	x31,x31,1
    41015274:	00000073          	ecall

0000000041015278 <SID_ZA64RS_02>:
    41015278:	00037137          	lui	x2,0x37
    4101527c:	000012b7          	lui	x5,0x1
    41015280:	00510133          	add	x2,x2,x5
    41015284:	ff017113          	andi	x2,x2,-16
    41015288:	01c56237          	lui	x4,0x1c56
    4101528c:	00700e13          	li	x28,7
    41015290:	05c23823          	sd	x28,80(x4) # 1c56050 <check_excp_expected_cause>
    41015294:	00000e17          	auipc	x28,0x0
    41015298:	06ce0e13          	addi	x28,x28,108 # 41015300 <fault_label_2>
    4101529c:	03c23023          	sd	x28,32(x4) # 20 <SECURE_ACCESS_PROBABILITY+0x2>
    410152a0:	00000e13          	li	x28,0
    410152a4:	05c23023          	sd	x28,64(x4) # 40 <XLEN>
    410152a8:	00000e13          	li	x28,0
    410152ac:	05c23423          	sd	x28,72(x4) # 48 <XLEN+0x8>
    410152b0:	00000e17          	auipc	x28,0x0
    410152b4:	064e0e13          	addi	x28,x28,100 # 41015314 <excp_return_label_2>
    410152b8:	03c23823          	sd	x28,48(x4) # 30 <SECURE_ACCESS_PROBABILITY+0x12>
    410152bc:	00000e13          	li	x28,0
    410152c0:	03c23c23          	sd	x28,56(x4) # 38 <SECURE_ACCESS_PROBABILITY+0x1a>
    410152c4:	00000e13          	li	x28,0
    410152c8:	07c23023          	sd	x28,96(x4) # 60 <XLEN+0x20>
    410152cc:	00000e13          	li	x28,0
    410152d0:	07c23423          	sd	x28,104(x4) # 68 <XLEN+0x28>
    410152d4:	00000e13          	li	x28,0
    410152d8:	07c23823          	sd	x28,112(x4) # 70 <XLEN+0x30>
    410152dc:	0005cc37          	lui	x24,0x5c
    410152e0:	ff7c0c1b          	addiw	x24,x24,-9 # 5bff7 <mem0+0x2ff7>
    410152e4:	00dc1c13          	slli	x24,x24,0xd
    410152e8:	00100e13          	li	x28,1
    410152ec:	01cc05b3          	add	x11,x24,x28
    410152f0:	0004ea37          	lui	x20,0x4e
    410152f4:	abba0a1b          	addiw	x20,x20,-1349 # 4dabb <__section_data_1+0x8abb>
    410152f8:	00da1a13          	slli	x20,x20,0xd
    410152fc:	bd4a0a13          	addi	x20,x20,-1068

0000000041015300 <fault_label_2>:
    41015300:	1945af2f          	sc.w	x30,x20,(x11)
    41015304:	19d789b7          	lui	x19,0x19d78
    41015308:	0089899b          	addiw	x19,x19,8 # 19d78008 <failed_addr>
    4101530c:	0009b983          	ld	x19,0(x19)
    41015310:	00098067          	jr	x19

0000000041015314 <excp_return_label_2>:
    41015314:	01c56237          	lui	x4,0x1c56
    41015318:	00700e13          	li	x28,7
    4101531c:	05c23823          	sd	x28,80(x4) # 1c56050 <check_excp_expected_cause>
    41015320:	00000e17          	auipc	x28,0x0
    41015324:	064e0e13          	addi	x28,x28,100 # 41015384 <fault_label_3>
    41015328:	03c23023          	sd	x28,32(x4) # 20 <SECURE_ACCESS_PROBABILITY+0x2>
    4101532c:	00000e13          	li	x28,0
    41015330:	05c23023          	sd	x28,64(x4) # 40 <XLEN>
    41015334:	00000e13          	li	x28,0
    41015338:	05c23423          	sd	x28,72(x4) # 48 <XLEN+0x8>
    4101533c:	00000e17          	auipc	x28,0x0
    41015340:	05ce0e13          	addi	x28,x28,92 # 41015398 <SID_ZA64RS_02_passed>
    41015344:	03c23823          	sd	x28,48(x4) # 30 <SECURE_ACCESS_PROBABILITY+0x12>
    41015348:	00000e13          	li	x28,0
    4101534c:	03c23c23          	sd	x28,56(x4) # 38 <SECURE_ACCESS_PROBABILITY+0x1a>
    41015350:	00000e13          	li	x28,0
    41015354:	07c23023          	sd	x28,96(x4) # 60 <XLEN+0x20>
    41015358:	00000e13          	li	x28,0
    4101535c:	07c23423          	sd	x28,104(x4) # 68 <XLEN+0x28>
    41015360:	00000e13          	li	x28,0
    41015364:	07c23823          	sd	x28,112(x4) # 70 <XLEN+0x30>
    41015368:	0005ca37          	lui	x20,0x5c
    4101536c:	ff7a0a1b          	addiw	x20,x20,-9 # 5bff7 <mem0+0x2ff7>
    41015370:	00da1a13          	slli	x20,x20,0xd
    41015374:	00100d13          	li	x26,1
    41015378:	01aa0933          	add	x18,x20,x26
    4101537c:	0925efb7          	lui	x31,0x925e
    41015380:	477f8f9b          	addiw	x31,x31,1143 # 925e477 <pma_region_2_size+0x525e477>

0000000041015384 <fault_label_3>:
    41015384:	19f93caf          	sc.d	x25,x31,(x18)
    41015388:	19d78c37          	lui	x24,0x19d78
    4101538c:	008c0c1b          	addiw	x24,x24,8 # 19d78008 <failed_addr>
    41015390:	000c3783          	ld	x15,0(x24)
    41015394:	00078067          	jr	x15

0000000041015398 <SID_ZA64RS_02_passed>:
    41015398:	00f00f9b          	addiw	x31,x0,15
    4101539c:	01cf9f93          	slli	x31,x31,0x1c
    410153a0:	001f8f93          	addi	x31,x31,1
    410153a4:	00000073          	ecall

00000000410153a8 <SID_ZA64RS_03_w>:
    410153a8:	003be137          	lui	x2,0x3be
    410153ac:	3e51011b          	addiw	x2,x2,997 # 3be3e5 <SID_ZA64RS_03_lrd_scw_stack+0x3353e5>
    410153b0:	00c11113          	slli	x2,x2,0xc
    410153b4:	ab710113          	addi	x2,x2,-1353
    410153b8:	00c11113          	slli	x2,x2,0xc
    410153bc:	000012b7          	lui	x5,0x1
    410153c0:	00510133          	add	x2,x2,x5
    410153c4:	ff017113          	andi	x2,x2,-16
    410153c8:	00000313          	li	x6,0
    410153cc:	003cf937          	lui	x18,0x3cf
    410153d0:	aaf9091b          	addiw	x18,x18,-1361 # 3ceaaf <SID_ZA64RS_03_lrd_scw_stack+0x345aaf>
    410153d4:	00c91913          	slli	x18,x18,0xc
    410153d8:	02000b13          	li	x22,32
    410153dc:	016908b3          	add	x17,x18,x22
    410153e0:	1008aaaf          	lr.w	x21,(x17)
    410153e4:	003cfc37          	lui	x24,0x3cf
    410153e8:	aafc0c1b          	addiw	x24,x24,-1361 # 3ceaaf <SID_ZA64RS_03_lrd_scw_stack+0x345aaf>
    410153ec:	00cc1c13          	slli	x24,x24,0xc
    410153f0:	06000e13          	li	x28,96
    410153f4:	01cc0633          	add	x12,x24,x28
    410153f8:	000e7fb7          	lui	x31,0xe7
    410153fc:	b59f8f9b          	addiw	x31,x31,-1191 # e6b59 <SID_ZA64RS_03_lrd_scw_stack+0x5db59>
    41015400:	00cf9f93          	slli	x31,x31,0xc
    41015404:	deaf8f93          	addi	x31,x31,-534
    41015408:	19f626af          	sc.w	x13,x31,(x12)
    4101540c:	00669a63          	bne	x13,x6,41015420 <pass_label_0>
    41015410:	19d78837          	lui	x16,0x19d78
    41015414:	0088081b          	addiw	x16,x16,8 # 19d78008 <failed_addr>
    41015418:	00083983          	ld	x19,0(x16)
    4101541c:	00098067          	jr	x19

0000000041015420 <pass_label_0>:
    41015420:	003cf3b7          	lui	x7,0x3cf
    41015424:	aaf3839b          	addiw	x7,x7,-1361 # 3ceaaf <SID_ZA64RS_03_lrd_scw_stack+0x345aaf>
    41015428:	00c39393          	slli	x7,x7,0xc
    4101542c:	02000793          	li	x15,32
    41015430:	00f38eb3          	add	x29,x7,x15
    41015434:	100eaa2f          	lr.w	x20,(x29)
    41015438:	003cf737          	lui	x14,0x3cf
    4101543c:	aaf7071b          	addiw	x14,x14,-1361 # 3ceaaf <SID_ZA64RS_03_lrd_scw_stack+0x345aaf>
    41015440:	00c71713          	slli	x14,x14,0xc
    41015444:	02000f93          	li	x31,32
    41015448:	01f706b3          	add	x13,x14,x31
    4101544c:	093258b7          	lui	x17,0x9325
    41015450:	6298889b          	addiw	x17,x17,1577 # 9325629 <pma_region_2_size+0x5325629>
    41015454:	1916a9af          	sc.w	x19,x17,(x13)
    41015458:	00698a63          	beq	x19,x6,4101546c <SID_ZA64RS_03_w_passed>
    4101545c:	19d78fb7          	lui	x31,0x19d78
    41015460:	008f8f9b          	addiw	x31,x31,8 # 19d78008 <failed_addr>
    41015464:	000fb783          	ld	x15,0(x31)
    41015468:	00078067          	jr	x15

000000004101546c <SID_ZA64RS_03_w_passed>:
    4101546c:	00f00f9b          	addiw	x31,x0,15
    41015470:	01cf9f93          	slli	x31,x31,0x1c
    41015474:	001f8f93          	addi	x31,x31,1
    41015478:	00000073          	ecall

000000004101547c <SID_ZA64RS_03_d>:
    4101547c:	7757d137          	lui	x2,0x7757d
    41015480:	b611011b          	addiw	x2,x2,-1183 # 7757cb61 <pma_region_2_end+0x3253bb61>
    41015484:	00c11113          	slli	x2,x2,0xc
    41015488:	000012b7          	lui	x5,0x1
    4101548c:	00510133          	add	x2,x2,x5
    41015490:	ff017113          	andi	x2,x2,-16
    41015494:	00000a13          	li	x20,0
    41015498:	029c99b7          	lui	x19,0x29c9
    4101549c:	02000f93          	li	x31,32
    410154a0:	01f98c33          	add	x24,x19,x31
    410154a4:	100c3c2f          	lr.d	x24,(x24)
    410154a8:	029c98b7          	lui	x17,0x29c9
    410154ac:	06000e13          	li	x28,96
    410154b0:	01c88933          	add	x18,x17,x28
    410154b4:	2e8d5ab7          	lui	x21,0x2e8d5
    410154b8:	b8da8a9b          	addiw	x21,x21,-1139 # 2e8d4b8d <__section_os_data_1+0x14b5bb8d>
    410154bc:	19593d2f          	sc.d	x26,x21,(x18)
    410154c0:	014d1a63          	bne	x26,x20,410154d4 <pass_label_2>
    410154c4:	19d785b7          	lui	x11,0x19d78
    410154c8:	0085859b          	addiw	x11,x11,8 # 19d78008 <failed_addr>
    410154cc:	0005b583          	ld	x11,0(x11)
    410154d0:	00058067          	jr	x11

00000000410154d4 <pass_label_2>:
    410154d4:	029c9cb7          	lui	x25,0x29c9
    410154d8:	02000d13          	li	x26,32
    410154dc:	01ac8cb3          	add	x25,x25,x26
    410154e0:	100cbf2f          	lr.d	x30,(x25)
    410154e4:	029c9ab7          	lui	x21,0x29c9
    410154e8:	02000c13          	li	x24,32
    410154ec:	018a8733          	add	x14,x21,x24
    410154f0:	000ff8b7          	lui	x17,0xff
    410154f4:	c3f8889b          	addiw	x17,x17,-961 # fec3f <SID_ZA64RS_03_lrd_scw_stack+0x75c3f>
    410154f8:	00c89893          	slli	x17,x17,0xc
    410154fc:	6b688893          	addi	x17,x17,1718
    41015500:	1917382f          	sc.d	x16,x17,(x14)
    41015504:	01480a63          	beq	x16,x20,41015518 <SID_ZA64RS_03_d_passed>
    41015508:	19d78937          	lui	x18,0x19d78
    4101550c:	0089091b          	addiw	x18,x18,8 # 19d78008 <failed_addr>
    41015510:	00093d03          	ld	x26,0(x18)
    41015514:	000d0067          	jr	x26

0000000041015518 <SID_ZA64RS_03_d_passed>:
    41015518:	00f00f9b          	addiw	x31,x0,15
    4101551c:	01cf9f93          	slli	x31,x31,0x1c
    41015520:	001f8f93          	addi	x31,x31,1
    41015524:	00000073          	ecall

0000000041015528 <SID_ZA64RS_03_lrw_scd>:
    41015528:	00655137          	lui	x2,0x655
    4101552c:	000012b7          	lui	x5,0x1
    41015530:	00510133          	add	x2,x2,x5
    41015534:	ff017113          	andi	x2,x2,-16
    41015538:	00000f93          	li	x31,0
    4101553c:	002e08b7          	lui	x17,0x2e0
    41015540:	ccb8889b          	addiw	x17,x17,-821 # 2dfccb <SID_ZA64RS_03_lrd_scw_stack+0x256ccb>
    41015544:	01089893          	slli	x17,x17,0x10
    41015548:	02000e13          	li	x28,32
    4101554c:	01c88ab3          	add	x21,x17,x28
    41015550:	100aab2f          	lr.w	x22,(x21)
    41015554:	002e0937          	lui	x18,0x2e0
    41015558:	ccb9091b          	addiw	x18,x18,-821 # 2dfccb <SID_ZA64RS_03_lrd_scw_stack+0x256ccb>
    4101555c:	01091913          	slli	x18,x18,0x10
    41015560:	06000e93          	li	x29,96
    41015564:	01d90933          	add	x18,x18,x29
    41015568:	00021db7          	lui	x27,0x21
    4101556c:	fc3d8d9b          	addiw	x27,x27,-61 # 20fc3 <_all_interrupts+0x1e519>
    41015570:	00ed9d93          	slli	x27,x27,0xe
    41015574:	e51d8d93          	addi	x27,x27,-431
    41015578:	19b9392f          	sc.d	x18,x27,(x18)
    4101557c:	01f91a63          	bne	x18,x31,41015590 <pass_label_4>
    41015580:	19d78c37          	lui	x24,0x19d78
    41015584:	008c0c1b          	addiw	x24,x24,8 # 19d78008 <failed_addr>
    41015588:	000c3d03          	ld	x26,0(x24)
    4101558c:	000d0067          	jr	x26

0000000041015590 <pass_label_4>:
    41015590:	002e0db7          	lui	x27,0x2e0
    41015594:	ccbd8d9b          	addiw	x27,x27,-821 # 2dfccb <SID_ZA64RS_03_lrd_scw_stack+0x256ccb>
    41015598:	010d9d93          	slli	x27,x27,0x10
    4101559c:	02000693          	li	x13,32
    410155a0:	00dd89b3          	add	x19,x27,x13
    410155a4:	1009adaf          	lr.w	x27,(x19)
    410155a8:	002e05b7          	lui	x11,0x2e0
    410155ac:	ccb5859b          	addiw	x11,x11,-821 # 2dfccb <SID_ZA64RS_03_lrd_scw_stack+0x256ccb>
    410155b0:	01059593          	slli	x11,x11,0x10
    410155b4:	02000c13          	li	x24,32
    410155b8:	01858833          	add	x16,x11,x24
    410155bc:	000d5b37          	lui	x22,0xd5
    410155c0:	dedb0b1b          	addiw	x22,x22,-531 # d4ded <SID_ZA64RS_03_lrd_scw_stack+0x4bded>
    410155c4:	00cb1b13          	slli	x22,x22,0xc
    410155c8:	9f2b0b13          	addi	x22,x22,-1550
    410155cc:	19683baf          	sc.d	x23,x22,(x16)
    410155d0:	01fb8a63          	beq	x23,x31,410155e4 <SID_ZA64RS_03_lrw_scd_passed>
    410155d4:	19d78cb7          	lui	x25,0x19d78
    410155d8:	008c8c9b          	addiw	x25,x25,8 # 19d78008 <failed_addr>
    410155dc:	000cbc83          	ld	x25,0(x25)
    410155e0:	000c8067          	jr	x25

00000000410155e4 <SID_ZA64RS_03_lrw_scd_passed>:
    410155e4:	00f00f9b          	addiw	x31,x0,15
    410155e8:	01cf9f93          	slli	x31,x31,0x1c
    410155ec:	001f8f93          	addi	x31,x31,1
    410155f0:	00000073          	ecall

00000000410155f4 <SID_ZA64RS_03_lrd_scw>:
    410155f4:	00089137          	lui	x2,0x89
    410155f8:	000012b7          	lui	x5,0x1
    410155fc:	00510133          	add	x2,x2,x5
    41015600:	ff017113          	andi	x2,x2,-16
    41015604:	00000b13          	li	x22,0
    41015608:	01449c37          	lui	x24,0x1449
    4101560c:	04bc0c1b          	addiw	x24,x24,75 # 144904b <mem6+0xdf204b>
    41015610:	00fc1c13          	slli	x24,x24,0xf
    41015614:	02000b93          	li	x23,32
    41015618:	017c0cb3          	add	x25,x24,x23
    4101561c:	100cbf2f          	lr.d	x30,(x25)
    41015620:	01449eb7          	lui	x29,0x1449
    41015624:	04be8e9b          	addiw	x29,x29,75 # 144904b <mem6+0xdf204b>
    41015628:	00fe9e93          	slli	x29,x29,0xf
    4101562c:	06000e13          	li	x28,96
    41015630:	01ce89b3          	add	x19,x29,x28
    41015634:	0005a7b7          	lui	x15,0x5a
    41015638:	64f7879b          	addiw	x15,x15,1615 # 5a64f <mem0+0x164f>
    4101563c:	00d79793          	slli	x15,x15,0xd
    41015640:	75878793          	addi	x15,x15,1880
    41015644:	18f9a9af          	sc.w	x19,x15,(x19)
    41015648:	01699a63          	bne	x19,x22,4101565c <pass_label_6>
    4101564c:	19d78637          	lui	x12,0x19d78
    41015650:	0086061b          	addiw	x12,x12,8 # 19d78008 <failed_addr>
    41015654:	00063f83          	ld	x31,0(x12)
    41015658:	000f8067          	jr	x31

000000004101565c <pass_label_6>:
    4101565c:	01449bb7          	lui	x23,0x1449
    41015660:	04bb8b9b          	addiw	x23,x23,75 # 144904b <mem6+0xdf204b>
    41015664:	00fb9b93          	slli	x23,x23,0xf
    41015668:	02000a13          	li	x20,32
    4101566c:	014b8633          	add	x12,x23,x20
    41015670:	100637af          	lr.d	x15,(x12)
    41015674:	01449437          	lui	x8,0x1449
    41015678:	04b4041b          	addiw	x8,x8,75 # 144904b <mem6+0xdf204b>
    4101567c:	00f41413          	slli	x8,x8,0xf
    41015680:	02000a93          	li	x21,32
    41015684:	01540433          	add	x8,x8,x21
    41015688:	0006a337          	lui	x6,0x6a
    4101568c:	6073031b          	addiw	x6,x6,1543 # 6a607 <mem0+0x11607>
    41015690:	00d31313          	slli	x6,x6,0xd
    41015694:	cab30313          	addi	x6,x6,-853
    41015698:	1864282f          	sc.w	x16,x6,(x8)
    4101569c:	01680a63          	beq	x16,x22,410156b0 <SID_ZA64RS_03_lrd_scw_passed>
    410156a0:	19d78337          	lui	x6,0x19d78
    410156a4:	0083031b          	addiw	x6,x6,8 # 19d78008 <failed_addr>
    410156a8:	00033583          	ld	x11,0(x6)
    410156ac:	00058067          	jr	x11

00000000410156b0 <SID_ZA64RS_03_lrd_scw_passed>:
    410156b0:	00f00f9b          	addiw	x31,x0,15
    410156b4:	01cf9f93          	slli	x31,x31,0x1c
    410156b8:	001f8f93          	addi	x31,x31,1
    410156bc:	00000073          	ecall

00000000410156c0 <SID_ZA64RS_05_w>:
    410156c0:	001eb137          	lui	x2,0x1eb
    410156c4:	9b51011b          	addiw	x2,x2,-1611 # 1ea9b5 <SID_ZA64RS_03_lrd_scw_stack+0x1619b5>
    410156c8:	00d11113          	slli	x2,x2,0xd
    410156cc:	000012b7          	lui	x5,0x1
    410156d0:	00510133          	add	x2,x2,x5
    410156d4:	ff017113          	andi	x2,x2,-16
    410156d8:	00000d13          	li	x26,0
    410156dc:	006573b7          	lui	x7,0x657
    410156e0:	06000793          	li	x15,96
    410156e4:	00f38db3          	add	x27,x7,x15
    410156e8:	100da72f          	lr.w	x14,(x27)
    410156ec:	006573b7          	lui	x7,0x657
    410156f0:	02000513          	li	x10,32
    410156f4:	00a38533          	add	x10,x7,x10
    410156f8:	0f0ade37          	lui	x28,0xf0ad
    410156fc:	2abe0e1b          	addiw	x28,x28,683 # f0ad2ab <pma_region_2_size+0xb0ad2ab>
    41015700:	19c5262f          	sc.w	x12,x28,(x10)
    41015704:	01a61a63          	bne	x12,x26,41015718 <pass_label_8>
    41015708:	19d789b7          	lui	x19,0x19d78
    4101570c:	0089899b          	addiw	x19,x19,8 # 19d78008 <failed_addr>
    41015710:	0009b903          	ld	x18,0(x19)
    41015714:	00090067          	jr	x18

0000000041015718 <pass_label_8>:
    41015718:	006578b7          	lui	x17,0x657
    4101571c:	06000413          	li	x8,96
    41015720:	00888fb3          	add	x31,x17,x8
    41015724:	100fa8af          	lr.w	x17,(x31)
    41015728:	006578b7          	lui	x17,0x657
    4101572c:	06000493          	li	x9,96
    41015730:	009885b3          	add	x11,x17,x9
    41015734:	0004a7b7          	lui	x15,0x4a
    41015738:	8677879b          	addiw	x15,x15,-1945 # 49867 <__section_data_1+0x4867>
    4101573c:	00d79793          	slli	x15,x15,0xd
    41015740:	bd678793          	addi	x15,x15,-1066
    41015744:	18f5adaf          	sc.w	x27,x15,(x11)
    41015748:	01ad8a63          	beq	x27,x26,4101575c <SID_ZA64RS_05_w_passed>
    4101574c:	19d78b37          	lui	x22,0x19d78
    41015750:	008b0b1b          	addiw	x22,x22,8 # 19d78008 <failed_addr>
    41015754:	000b3c83          	ld	x25,0(x22)
    41015758:	000c8067          	jr	x25

000000004101575c <SID_ZA64RS_05_w_passed>:
    4101575c:	00f00f9b          	addiw	x31,x0,15
    41015760:	01cf9f93          	slli	x31,x31,0x1c
    41015764:	001f8f93          	addi	x31,x31,1
    41015768:	00000073          	ecall

000000004101576c <SID_ZA64RS_05_d>:
    4101576c:	00026137          	lui	x2,0x26
    41015770:	000012b7          	lui	x5,0x1
    41015774:	00510133          	add	x2,x2,x5
    41015778:	ff017113          	andi	x2,x2,-16
    4101577c:	00000413          	li	x8,0
    41015780:	001bb537          	lui	x10,0x1bb
    41015784:	15d5051b          	addiw	x10,x10,349 # 1bb15d <SID_ZA64RS_03_lrd_scw_stack+0x13215d>
    41015788:	00c51513          	slli	x10,x10,0xc
    4101578c:	06000493          	li	x9,96
    41015790:	00950333          	add	x6,x10,x9
    41015794:	100335af          	lr.d	x11,(x6)
    41015798:	001bb337          	lui	x6,0x1bb
    4101579c:	15d3031b          	addiw	x6,x6,349 # 1bb15d <SID_ZA64RS_03_lrd_scw_stack+0x13215d>
    410157a0:	00c31313          	slli	x6,x6,0xc
    410157a4:	02000393          	li	x7,32
    410157a8:	00730bb3          	add	x23,x6,x7
    410157ac:	00056a37          	lui	x20,0x56
    410157b0:	1d3a0a1b          	addiw	x20,x20,467 # 561d3 <__section_data_1+0x111d3>
    410157b4:	00da1a13          	slli	x20,x20,0xd
    410157b8:	b29a0a13          	addi	x20,x20,-1239
    410157bc:	194bb82f          	sc.d	x16,x20,(x23)
    410157c0:	00881a63          	bne	x16,x8,410157d4 <pass_label_10>
    410157c4:	19d78937          	lui	x18,0x19d78
    410157c8:	0089091b          	addiw	x18,x18,8 # 19d78008 <failed_addr>
    410157cc:	00093803          	ld	x16,0(x18)
    410157d0:	00080067          	jr	x16

00000000410157d4 <pass_label_10>:
    410157d4:	001bb9b7          	lui	x19,0x1bb
    410157d8:	15d9899b          	addiw	x19,x19,349 # 1bb15d <SID_ZA64RS_03_lrd_scw_stack+0x13215d>
    410157dc:	00c99993          	slli	x19,x19,0xc
    410157e0:	06000493          	li	x9,96
    410157e4:	00998833          	add	x16,x19,x9
    410157e8:	1008362f          	lr.d	x12,(x16)
    410157ec:	001bbf37          	lui	x30,0x1bb
    410157f0:	15df0f1b          	addiw	x30,x30,349 # 1bb15d <SID_ZA64RS_03_lrd_scw_stack+0x13215d>
    410157f4:	00cf1f13          	slli	x30,x30,0xc
    410157f8:	06000a13          	li	x20,96
    410157fc:	014f0733          	add	x14,x30,x20
    41015800:	06005d37          	lui	x26,0x6005
    41015804:	722d0d1b          	addiw	x26,x26,1826 # 6005722 <pma_region_2_size+0x2005722>
    41015808:	19a73b2f          	sc.d	x22,x26,(x14)
    4101580c:	008b0a63          	beq	x22,x8,41015820 <SID_ZA64RS_05_d_passed>
    41015810:	19d787b7          	lui	x15,0x19d78
    41015814:	0087879b          	addiw	x15,x15,8 # 19d78008 <failed_addr>
    41015818:	0007b683          	ld	x13,0(x15)
    4101581c:	00068067          	jr	x13

0000000041015820 <SID_ZA64RS_05_d_passed>:
    41015820:	00f00f9b          	addiw	x31,x0,15
    41015824:	01cf9f93          	slli	x31,x31,0x1c
    41015828:	001f8f93          	addi	x31,x31,1
    4101582c:	00000073          	ecall

0000000041015830 <SID_ZA64RS_04_lrw_scd>:
    41015830:	00ad9137          	lui	x2,0xad9
    41015834:	14d1011b          	addiw	x2,x2,333 # ad914d <mem6+0x48214d>
    41015838:	00c11113          	slli	x2,x2,0xc
    4101583c:	000012b7          	lui	x5,0x1
    41015840:	00510133          	add	x2,x2,x5
    41015844:	ff017113          	andi	x2,x2,-16
    41015848:	00000c93          	li	x25,0
    4101584c:	0281edb7          	lui	x27,0x281e
    41015850:	06000f93          	li	x31,96
    41015854:	01fd8db3          	add	x27,x27,x31
    41015858:	100da4af          	lr.w	x9,(x27)
    4101585c:	0281e837          	lui	x16,0x281e
    41015860:	02000913          	li	x18,32
    41015864:	01280c33          	add	x24,x16,x18
    41015868:	581d9337          	lui	x6,0x581d9
    4101586c:	e863031b          	addiw	x6,x6,-378 # 581d8e86 <pma_region_2_end+0x13197e86>
    41015870:	186c39af          	sc.d	x19,x6,(x24)
    41015874:	01999a63          	bne	x19,x25,41015888 <pass_label_12>
    41015878:	19d78e37          	lui	x28,0x19d78
    4101587c:	008e0e1b          	addiw	x28,x28,8 # 19d78008 <failed_addr>
    41015880:	000e3d83          	ld	x27,0(x28)
    41015884:	000d8067          	jr	x27 # 281e000 <mem8>

0000000041015888 <pass_label_12>:
    41015888:	0281edb7          	lui	x27,0x281e
    4101588c:	06000913          	li	x18,96
    41015890:	012d8db3          	add	x27,x27,x18
    41015894:	100da42f          	lr.w	x8,(x27)
    41015898:	0281ea37          	lui	x20,0x281e
    4101589c:	06000e93          	li	x29,96
    410158a0:	01da0e33          	add	x28,x20,x29
    410158a4:	000f0a37          	lui	x20,0xf0
    410158a8:	3f3a0a1b          	addiw	x20,x20,1011 # f03f3 <SID_ZA64RS_03_lrd_scw_stack+0x673f3>
    410158ac:	00ca1a13          	slli	x20,x20,0xc
    410158b0:	d74a0a13          	addi	x20,x20,-652
    410158b4:	194e36af          	sc.d	x13,x20,(x28)
    410158b8:	01968a63          	beq	x13,x25,410158cc <SID_ZA64RS_04_lrw_scd_passed>
    410158bc:	19d78c37          	lui	x24,0x19d78
    410158c0:	008c0c1b          	addiw	x24,x24,8 # 19d78008 <failed_addr>
    410158c4:	000c3a83          	ld	x21,0(x24)
    410158c8:	000a8067          	jr	x21 # 29c9000 <mem3>

00000000410158cc <SID_ZA64RS_04_lrw_scd_passed>:
    410158cc:	00f00f9b          	addiw	x31,x0,15
    410158d0:	01cf9f93          	slli	x31,x31,0x1c
    410158d4:	001f8f93          	addi	x31,x31,1
    410158d8:	00000073          	ecall

00000000410158dc <SID_ZA64RS_04_lrd_scw>:
    410158dc:	0190f137          	lui	x2,0x190f
    410158e0:	1971011b          	addiw	x2,x2,407 # 190f197 <mem6+0x12b8197>
    410158e4:	00e11113          	slli	x2,x2,0xe
    410158e8:	000012b7          	lui	x5,0x1
    410158ec:	00510133          	add	x2,x2,x5
    410158f0:	ff017113          	andi	x2,x2,-16
    410158f4:	00000d93          	li	x27,0
    410158f8:	10c4d837          	lui	x16,0x10c4d
    410158fc:	0138081b          	addiw	x16,x16,19 # 10c4d013 <pma_region_2_size+0xcc4d013>
    41015900:	00d81813          	slli	x16,x16,0xd
    41015904:	06000493          	li	x9,96
    41015908:	00980333          	add	x6,x16,x9
    4101590c:	10033baf          	lr.d	x23,(x6)
    41015910:	10c4d637          	lui	x12,0x10c4d
    41015914:	0136061b          	addiw	x12,x12,19 # 10c4d013 <pma_region_2_size+0xcc4d013>
    41015918:	00d61613          	slli	x12,x12,0xd
    4101591c:	02000e13          	li	x28,32
    41015920:	01c60fb3          	add	x31,x12,x28
    41015924:	17ec9b37          	lui	x22,0x17ec9
    41015928:	409b0b1b          	addiw	x22,x22,1033 # 17ec9409 <pma_region_2_size+0x13ec9409>
    4101592c:	196faeaf          	sc.w	x29,x22,(x31)
    41015930:	01be9a63          	bne	x29,x27,41015944 <pass_label_14>
    41015934:	19d78837          	lui	x16,0x19d78
    41015938:	0088081b          	addiw	x16,x16,8 # 19d78008 <failed_addr>
    4101593c:	00083a03          	ld	x20,0(x16)
    41015940:	000a0067          	jr	x20

0000000041015944 <pass_label_14>:
    41015944:	10c4d6b7          	lui	x13,0x10c4d
    41015948:	0136869b          	addiw	x13,x13,19 # 10c4d013 <pma_region_2_size+0xcc4d013>
    4101594c:	00d69693          	slli	x13,x13,0xd
    41015950:	06000c13          	li	x24,96
    41015954:	018689b3          	add	x19,x13,x24
    41015958:	1009baaf          	lr.d	x21,(x19)
    4101595c:	10c4d837          	lui	x16,0x10c4d
    41015960:	0138081b          	addiw	x16,x16,19 # 10c4d013 <pma_region_2_size+0xcc4d013>
    41015964:	00d81813          	slli	x16,x16,0xd
    41015968:	06000b93          	li	x23,96
    4101596c:	01780c33          	add	x24,x16,x23
    41015970:	000a93b7          	lui	x7,0xa9
    41015974:	2c13839b          	addiw	x7,x7,705 # a92c1 <SID_ZA64RS_03_lrd_scw_stack+0x202c1>
    41015978:	00c39393          	slli	x7,x7,0xc
    4101597c:	e7238393          	addi	x7,x7,-398
    41015980:	187c2baf          	sc.w	x23,x7,(x24)
    41015984:	01bb8a63          	beq	x23,x27,41015998 <SID_ZA64RS_04_lrd_scw_passed>
    41015988:	19d78a37          	lui	x20,0x19d78
    4101598c:	008a0a1b          	addiw	x20,x20,8 # 19d78008 <failed_addr>
    41015990:	000a3783          	ld	x15,0(x20)
    41015994:	00078067          	jr	x15

0000000041015998 <SID_ZA64RS_04_lrd_scw_passed>:
    41015998:	00f00f9b          	addiw	x31,x0,15
    4101599c:	01cf9f93          	slli	x31,x31,0x1c
    410159a0:	001f8f93          	addi	x31,x31,1
    410159a4:	00000073          	ecall

00000000410159a8 <test_cleanup>:
    410159a8:	00f00f9b          	addiw	x31,x0,15
    410159ac:	01cf9f93          	slli	x31,x31,0x1c
    410159b0:	001f8f93          	addi	x31,x31,1
    410159b4:	00000073          	ecall

00000000410159b8 <local_test_failed>:
    410159b8:	00f00f9b          	addiw	x31,x0,15
    410159bc:	01cf9f93          	slli	x31,x31,0x1c
    410159c0:	002f8f93          	addi	x31,x31,2
    410159c4:	00000073          	ecall

Disassembly of section .csr_machine_0:

0000000041215000 <csr_access_mstatus_machine_key_3_set-0x30>:
    41215000:	43802fb7          	lui	x31,0x43802
    41215004:	0a0f8f9b          	addiw	x31,x31,160 # 438020a0 <machine_csr_jump_table_flags_pa>
    41215008:	000fbf83          	ld	x31,0(x31)
    4121500c:	00300293          	li	x5,3
    41215010:	025f8063          	beq	x31,x5,41215030 <csr_access_mstatus_machine_key_3_set>
    41215014:	00100293          	li	x5,1
    41215018:	025f8063          	beq	x31,x5,41215038 <csr_access_mstatus_machine_key_1_clear>
    4121501c:	00600293          	li	x5,6
    41215020:	025f8063          	beq	x31,x5,41215040 <csr_access_mtvec_machine_key_6_set>
    41215024:	00500293          	li	x5,5
    41215028:	025f8063          	beq	x31,x5,41215048 <csr_access_mtvec_machine_key_5_clear>
    4121502c:	0240006f          	j	41215050 <end_machine_label>

0000000041215030 <csr_access_mstatus_machine_key_3_set>:
    41215030:	3003a073          	csrs	mstatus,x7
    41215034:	01c0006f          	j	41215050 <end_machine_label>

0000000041215038 <csr_access_mstatus_machine_key_1_clear>:
    41215038:	3003b073          	csrc	mstatus,x7
    4121503c:	0140006f          	j	41215050 <end_machine_label>

0000000041215040 <csr_access_mtvec_machine_key_6_set>:
    41215040:	3053a073          	csrs	mtvec,x7
    41215044:	00c0006f          	j	41215050 <end_machine_label>

0000000041215048 <csr_access_mtvec_machine_key_5_clear>:
    41215048:	3053b073          	csrc	mtvec,x7
    4121504c:	0040006f          	j	41215050 <end_machine_label>

0000000041215050 <end_machine_label>:
    41215050:	000f0fb7          	lui	x31,0xf0
    41215054:	001f8f9b          	addiw	x31,x31,1 # f0001 <SID_ZA64RS_03_lrd_scw_stack+0x67001>
    41215058:	00cf9f93          	slli	x31,x31,0xc
    4121505c:	004f8f93          	addi	x31,x31,4
    41215060:	00000073          	ecall

Disassembly of section .csr_super_0:

0000000041216000 <csr_access_sstatus_supervisor_key_4_set-0x30>:
    41216000:	19d78fb7          	lui	x31,0x19d78
    41216004:	0a8f8f9b          	addiw	x31,x31,168 # 19d780a8 <super_csr_jump_table_flags>
    41216008:	000fbf83          	ld	x31,0(x31)
    4121600c:	00400293          	li	x5,4
    41216010:	025f8063          	beq	x31,x5,41216030 <csr_access_sstatus_supervisor_key_4_set>
    41216014:	00200293          	li	x5,2
    41216018:	025f8063          	beq	x31,x5,41216038 <csr_access_sstatus_supervisor_key_2_clear>
    4121601c:	00800293          	li	x5,8
    41216020:	025f8063          	beq	x31,x5,41216040 <csr_access_stvec_supervisor_key_8_set>
    41216024:	00700293          	li	x5,7
    41216028:	025f8063          	beq	x31,x5,41216048 <csr_access_stvec_supervisor_key_7_clear>
    4121602c:	0240006f          	j	41216050 <end_super_label>

0000000041216030 <csr_access_sstatus_supervisor_key_4_set>:
    41216030:	1003a073          	csrs	sstatus,x7
    41216034:	01c0006f          	j	41216050 <end_super_label>

0000000041216038 <csr_access_sstatus_supervisor_key_2_clear>:
    41216038:	1003b073          	csrc	sstatus,x7
    4121603c:	0140006f          	j	41216050 <end_super_label>

0000000041216040 <csr_access_stvec_supervisor_key_8_set>:
    41216040:	1053a073          	csrs	stvec,x7
    41216044:	00c0006f          	j	41216050 <end_super_label>

0000000041216048 <csr_access_stvec_supervisor_key_7_clear>:
    41216048:	1053b073          	csrc	stvec,x7
    4121604c:	0040006f          	j	41216050 <end_super_label>

0000000041216050 <end_super_label>:
    41216050:	000f0fb7          	lui	x31,0xf0
    41216054:	001f8f9b          	addiw	x31,x31,1 # f0001 <SID_ZA64RS_03_lrd_scw_stack+0x67001>
    41216058:	00cf9f93          	slli	x31,x31,0xc
    4121605c:	004f8f93          	addi	x31,x31,4
    41216060:	00000073          	ecall

Disassembly of section .os_data:

0000000019d78000 <passed_addr_ptr>:
    19d78000:	5120                	.insn	2, 0x5120
    19d78002:	4101                	.insn	2, 0x4101
    19d78004:	0000                	.insn	2, 0x0000
	...

0000000019d78008 <failed_addr_ptr>:
    19d78008:	5130                	.insn	2, 0x5130
    19d7800a:	4101                	.insn	2, 0x4101
    19d7800c:	0000                	.insn	2, 0x0000
	...

0000000019d78010 <end_test_addr_ptr>:
    19d78010:	5140                	.insn	2, 0x5140
    19d78012:	4101                	.insn	2, 0x4101
    19d78014:	0000                	.insn	2, 0x0000
	...

0000000019d78018 <os_passed_addr_ptr>:
    19d78018:	07b0                	.insn	2, 0x07b0
    19d7801a:	4100                	.insn	2, 0x4100
    19d7801c:	0000                	.insn	2, 0x0000
	...

0000000019d78020 <os_failed_addr_ptr>:
    19d78020:	07c0                	.insn	2, 0x07c0
    19d78022:	4100                	.insn	2, 0x4100
    19d78024:	0000                	.insn	2, 0x0000
	...

0000000019d78028 <os_end_test_addr_ptr>:
    19d78028:	07cc                	.insn	2, 0x07cc
    19d7802a:	4100                	.insn	2, 0x4100
    19d7802c:	0000                	.insn	2, 0x0000
	...

0000000019d78030 <rvcp_prefix_str_data>:
    19d78030:	5652                	.insn	2, 0x5652
    19d78032:	203a5043          	fmadd.s	f0,f20,f3,f4,unknown
    19d78036:	6554                	.insn	2, 0x6554
    19d78038:	46207473          	csrrci	x8,0x462,0
    19d7803c:	6c69                	.insn	2, 0x6c69
    19d7803e:	2065                	.insn	2, 0x2065
	...

0000000019d78041 <rvcp_testname_str_data>:
    19d78041:	7074                	.insn	2, 0x7074
    19d78043:	7a5f 3661 7234      	.insn	6, 0x723436617a5f
    19d78049:	00325f73          	csrrwi	x30,fcsr,4

0000000019d7804d <rvcp_passed_str_data>:
    19d7804d:	4150                	.insn	2, 0x4150
    19d7804f:	44455353          	fround.h	f6,f10,unknown
	...

0000000019d78054 <rvcp_failed_str_data>:
    19d78054:	4146                	.insn	2, 0x4146
    19d78056:	4c49                	.insn	2, 0x4c49
    19d78058:	4445                	.insn	2, 0x4445
	...

0000000019d7805b <rvcp_space_str_data>:
    19d7805b:	0020                	.insn	2, 0x0020

0000000019d7805d <rvcp_newline_str_data>:
    19d7805d:	000a                	.insn	2, 0x000a
	...

0000000019d78060 <excp_ignored_count_mem>:
	...

0000000019d78068 <machine_flags_mem>:
	...

0000000019d78070 <user_flags_mem>:
	...

0000000019d78078 <super_flags_mem>:
	...

0000000019d78080 <machine_area_mem>:
	...

0000000019d78088 <user_area_mem>:
	...

0000000019d78090 <super_area_mem>:
	...

0000000019d78098 <zero_data_mem>:
	...

0000000019d780a0 <machine_csr_jump_table_flags_mem>:
	...

0000000019d780a8 <super_csr_jump_table_flags_mem>:
	...

0000000019d780b0 <pte_access_flags_mem>:
	...

0000000019d780c8 <num_harts_ended_mem>:
	...

0000000019d780d0 <num_hard_fails_mem>:
	...

Disassembly of section .hart_context:

0000000001c56000 <hart_context_0>:
 1c56000:	9000                	.insn	2, 0x9000
 1c56002:	32f5                	.insn	2, 0x32f5
 1c56004:	000c                	.insn	2, 0x000c
	...
 1c56016:	0000                	.insn	2, 0x0000
 1c56018:	0001                	.insn	2, 0x0001
 1c5601a:	0000                	.insn	2, 0x0000
 1c5601c:	0000                	.insn	2, 0x0000
 1c5601e:	0000                	.insn	2, 0x0000
 1c56020:	ffff                	.insn	2, 0xffff
 1c56022:	ffff                	.insn	2, 0xffff
 1c56024:	ffff                	.insn	2, 0xffff
 1c56026:	ffff                	.insn	2, 0xffff
 1c56028:	ffff                	.insn	2, 0xffff
 1c5602a:	ffff                	.insn	2, 0xffff
 1c5602c:	ffff                	.insn	2, 0xffff
 1c5602e:	ffff                	.insn	2, 0xffff
 1c56030:	ffff                	.insn	2, 0xffff
 1c56032:	ffff                	.insn	2, 0xffff
 1c56034:	ffff                	.insn	2, 0xffff
 1c56036:	ffff                	.insn	2, 0xffff
	...
 1c56050:	00ff 0000 0000 0000 	.insn	10, 0x00ff00000000000000ff
 1c56058:	00ff 
	...
 1c56176:	0000                	.insn	2, 0x0000
 1c56178:	ffff                	.insn	2, 0xffff
 1c5617a:	ffff                	.insn	2, 0xffff
 1c5617c:	ffff                	.insn	2, 0xffff
 1c5617e:	ffff                	.insn	2, 0xffff
	...
 1c56188:	ffff                	.insn	2, 0xffff
 1c5618a:	ffff                	.insn	2, 0xffff
	...

Disassembly of section .hart_stack_0:

0000000c32f58000 <hart_stack_0>:
	...

Disassembly of section .io_htif:

0000000041040000 <tohost>:
	...

0000000041040040 <fromhost>:
	...

Disassembly of section .mem0:

0000000000059000 <.mem0>:
   59000:	c0de                	.insn	2, 0xc0de
   59002:	c001                	.insn	2, 0xc001
   59004:	0000                	.insn	2, 0x0000
	...

Disassembly of section .mem1:

00000000b7fee000 <.mem1>:
    b7fee000:	c0de                	.insn	2, 0xc0de
    b7fee002:	c001                	.insn	2, 0xc001
    b7fee004:	0000                	.insn	2, 0x0000
	...

Disassembly of section .mem2:

00000003ceaaf000 <.mem2>:
   3ceaaf000:	c0de                	.insn	2, 0xc0de
   3ceaaf002:	c001                	.insn	2, 0xc001
   3ceaaf004:	0000                	.insn	2, 0x0000
	...

Disassembly of section .mem3:

00000000029c9000 <.mem3>:
 29c9000:	c0de                	.insn	2, 0xc0de
 29c9002:	c001                	.insn	2, 0xc001
 29c9004:	0000                	.insn	2, 0x0000
	...

Disassembly of section .mem4:

0000002dfccb0000 <.mem4>:
  2dfccb0000:	c0de                	.insn	2, 0xc0de
  2dfccb0002:	c001                	.insn	2, 0xc001
  2dfccb0004:	0000                	.insn	2, 0x0000
	...

Disassembly of section .mem5:

000000a248258000 <.mem5>:
  a248258000:	c0de                	.insn	2, 0xc0de
  a248258002:	c001                	.insn	2, 0xc001
  a248258004:	0000                	.insn	2, 0x0000
	...

Disassembly of section .mem6:

0000000000657000 <.mem6>:
  657000:	c0de                	.insn	2, 0xc0de
  657002:	c001                	.insn	2, 0xc001
  657004:	0000                	.insn	2, 0x0000
	...

Disassembly of section .mem7:

00000001bb15d000 <.mem7>:
   1bb15d000:	c0de                	.insn	2, 0xc0de
   1bb15d002:	c001                	.insn	2, 0xc001
   1bb15d004:	0000                	.insn	2, 0x0000
	...

Disassembly of section .mem8:

000000000281e000 <.mem8>:
 281e000:	c0de                	.insn	2, 0xc0de
 281e002:	c001                	.insn	2, 0xc001
 281e004:	0000                	.insn	2, 0x0000
	...

Disassembly of section .mem9:

000002189a026000 <.mem9>:
 2189a026000:	c0de                	.insn	2, 0xc0de
 2189a026002:	c001                	.insn	2, 0xc001
 2189a026004:	0000                	.insn	2, 0x0000
	...

Disassembly of section .tp_csr_storage:

000052d8f1df5000 <.tp_csr_storage>:
    52d8f1df5000:	c0de                	.insn	2, 0xc0de
    52d8f1df5002:	c001                	.insn	2, 0xc001
    52d8f1df5004:	0000                	.insn	2, 0x0000
	...

Disassembly of section .SID_ZA64RS_01_stack:

ffffbb88e2c36000 <.SID_ZA64RS_01_stack>:
ffffbb88e2c36000:	c0de                	.insn	2, 0xc0de
ffffbb88e2c36002:	c001                	.insn	2, 0xc001
ffffbb88e2c36004:	0000                	.insn	2, 0x0000
	...

Disassembly of section .SID_ZA64RS_02_stack:

0000000000037000 <.SID_ZA64RS_02_stack>:
   37000:	c0de                	.insn	2, 0xc0de
   37002:	c001                	.insn	2, 0xc001
   37004:	0000                	.insn	2, 0x0000
	...

Disassembly of section .SID_ZA64RS_03_w_stack:

00003be3e4ab7000 <.SID_ZA64RS_03_w_stack>:
    3be3e4ab7000:	c0de                	.insn	2, 0xc0de
    3be3e4ab7002:	c001                	.insn	2, 0xc001
    3be3e4ab7004:	0000                	.insn	2, 0x0000
	...

Disassembly of section .SID_ZA64RS_03_d_stack:

000007757cb61000 <.SID_ZA64RS_03_d_stack>:
 7757cb61000:	c0de                	.insn	2, 0xc0de
 7757cb61002:	c001                	.insn	2, 0xc001
 7757cb61004:	0000                	.insn	2, 0x0000
	...

Disassembly of section .SID_ZA64RS_03_lrw_scd_stack:

0000000000655000 <.SID_ZA64RS_03_lrw_scd_stack>:
  655000:	c0de                	.insn	2, 0xc0de
  655002:	c001                	.insn	2, 0xc001
  655004:	0000                	.insn	2, 0x0000
	...

Disassembly of section .SID_ZA64RS_03_lrd_scw_stack:

0000000000089000 <.SID_ZA64RS_03_lrd_scw_stack>:
   89000:	c0de                	.insn	2, 0xc0de
   89002:	c001                	.insn	2, 0xc001
   89004:	0000                	.insn	2, 0x0000
	...

Disassembly of section .SID_ZA64RS_05_w_stack:

00000003d536a000 <.SID_ZA64RS_05_w_stack>:
   3d536a000:	c0de                	.insn	2, 0xc0de
   3d536a002:	c001                	.insn	2, 0xc001
   3d536a004:	0000                	.insn	2, 0x0000
	...

Disassembly of section .SID_ZA64RS_05_d_stack:

0000000000026000 <.SID_ZA64RS_05_d_stack>:
   26000:	c0de                	.insn	2, 0xc0de
   26002:	c001                	.insn	2, 0xc001
   26004:	0000                	.insn	2, 0x0000
	...

Disassembly of section .SID_ZA64RS_04_lrw_scd_stack:

0000000ad914d000 <.SID_ZA64RS_04_lrw_scd_stack>:
   ad914d000:	c0de                	.insn	2, 0xc0de
   ad914d002:	c001                	.insn	2, 0xc001
   ad914d004:	0000                	.insn	2, 0x0000
	...

Disassembly of section .SID_ZA64RS_04_lrd_scw_stack:

000000643c65c000 <.SID_ZA64RS_04_lrd_scw_stack>:
  643c65c000:	c0de                	.insn	2, 0xc0de
  643c65c002:	c001                	.insn	2, 0xc001
  643c65c004:	0000                	.insn	2, 0x0000
	...

Disassembly of section .__pagetable_map_os_0x0000000044722000:

0000000044722000 <__pagetable_map_os_0x0000000044722000>:
    44722000:	c801                	.insn	2, 0xc801
    44722002:	00001133          	sll	x2,x0,x0
    44722006:	0000                	.insn	2, 0x0000
    44722008:	a801                	.insn	2, 0xa801
    4472200a:	0000112b          	.insn	4, 0x112b
	...
    4472201e:	0000                	.insn	2, 0x0000
    44722020:	7401                	.insn	2, 0x7401
    44722022:	1131                	.insn	2, 0x1131
	...
    44722070:	8c01                	.insn	2, 0x8c01
    44722072:	000010eb          	.insn	4, 0x10eb
	...
    447223b6:	0000                	.insn	2, 0x0000
    447223b8:	6001                	.insn	2, 0x6001
    447223ba:	10e0                	.insn	2, 0x10e0
	...
    44722528:	3c01                	.insn	2, 0x3c01
    4472252a:	1132                	.insn	2, 0x1132
	...
    44722bb8:	1c01                	.insn	2, 0x1c01
    44722bba:	00001133          	sll	x2,x0,x0
	...

Disassembly of section .__pagetable_map_os_0x0000000044cf2000:

0000000044cf2000 <__pagetable_map_os_0x0000000044cf2000>:
    44cf2000:	0c01                	.insn	2, 0x0c01
    44cf2002:	113c                	.insn	2, 0x113c
    44cf2004:	0000                	.insn	2, 0x0000
    44cf2006:	0000                	.insn	2, 0x0000
    44cf2008:	3401                	.insn	2, 0x3401
    44cf200a:	113c                	.insn	2, 0x113c
    44cf200c:	0000                	.insn	2, 0x0000
    44cf200e:	0000                	.insn	2, 0x0000
    44cf2010:	2c01                	.insn	2, 0x2c01
    44cf2012:	00001133          	sll	x2,x0,x0
	...
    44cf202e:	0000                	.insn	2, 0x0000
    44cf2030:	2c01                	.insn	2, 0x2c01
    44cf2032:	113c                	.insn	2, 0x113c
	...
    44cf2078:	ac01                	.insn	2, 0xac01
    44cf207a:	0000112b          	.insn	4, 0x112b
	...
    44cf2156:	0000                	.insn	2, 0x0000
    44cf2158:	2401                	.insn	2, 0x2401
    44cf215a:	10e9                	.insn	2, 0x10e9
	...
    44cf2180:	0801                	.insn	2, 0x0801
    44cf2182:	113c                	.insn	2, 0x113c
	...
    44cf25b8:	a801                	.insn	2, 0xa801
    44cf25ba:	1131                	.insn	2, 0x1131
	...
    44cf2c80:	8001                	.insn	2, 0x8001
    44cf2c82:	10e6                	.insn	2, 0x10e6
    44cf2c84:	0000                	.insn	2, 0x0000
	...

Disassembly of section .__pagetable_map_os_0x0000000044f0d000:

0000000044f0d000 <__pagetable_map_os_0x0000000044f0d000>:
	...
    44f0d040:	5801                	.insn	2, 0x5801
    44f0d042:	10d5                	.insn	2, 0x10d5
    44f0d044:	0000                	.insn	2, 0x0000
    44f0d046:	0000                	.insn	2, 0x0000
    44f0d048:	d001                	.insn	2, 0xd001
    44f0d04a:	000010bb          	sllw	x1,x0,x0
	...
    44f0d116:	0000                	.insn	2, 0x0000
    44f0d118:	7401                	.insn	2, 0x7401
    44f0d11a:	10a5                	.insn	2, 0x10a5
    44f0d11c:	0000                	.insn	2, 0x0000
	...

Disassembly of section .__pagetable_map_os_0x0000000043556000:

0000000043556000 <__pagetable_map_os_0x0000000043556000>:
	...
    43556080:	40df 1040 0000      	.insn	6, 0x104040df
    43556086:	0000                	.insn	2, 0x0000
    43556088:	104044cf          	fnmadd.s	f9,f0,f4,f2,rmm
    4355608c:	0000                	.insn	2, 0x0000
    4355608e:	0000                	.insn	2, 0x0000
    43556090:	104048cf          	fnmadd.s	f17,f0,f4,f2,rmm
    43556094:	0000                	.insn	2, 0x0000
    43556096:	0000                	.insn	2, 0x0000
    43556098:	10404ccf          	fnmadd.s	f25,f0,f4,f2,rmm
    4355609c:	0000                	.insn	2, 0x0000
    4355609e:	0000                	.insn	2, 0x0000
    435560a0:	104050cf          	fnmadd.s	f1,f0,f4,f2,unknown
    435560a4:	0000                	.insn	2, 0x0000
    435560a6:	0000                	.insn	2, 0x0000
    435560a8:	00df 10d8 0000      	.insn	6, 0x10d800df
    435560ae:	0000                	.insn	2, 0x0000
    435560b0:	04df 10d8 0000      	.insn	6, 0x10d804df
    435560b6:	0000                	.insn	2, 0x0000
    435560b8:	08df 10d8 0000      	.insn	6, 0x10d808df
    435560be:	0000                	.insn	2, 0x0000
    435560c0:	0cdf 10d8 0000      	.insn	6, 0x10d80cdf
    435560c6:	0000                	.insn	2, 0x0000
    435560c8:	10df 10d8 0000      	.insn	6, 0x10d810df
    435560ce:	0000                	.insn	2, 0x0000
    435560d0:	14df 10d8 0000      	.insn	6, 0x10d814df
    435560d6:	0000                	.insn	2, 0x0000
    435560d8:	18df 10d8 0000      	.insn	6, 0x10d818df
    435560de:	0000                	.insn	2, 0x0000
    435560e0:	1cdf 10d8 0000      	.insn	6, 0x10d81cdf
    435560e6:	0000                	.insn	2, 0x0000
    435560e8:	20df 10d8 0000      	.insn	6, 0x10d820df
    435560ee:	0000                	.insn	2, 0x0000
    435560f0:	24df 10d8 0000      	.insn	6, 0x10d824df
    435560f6:	0000                	.insn	2, 0x0000
    435560f8:	28df 10d8 0000      	.insn	6, 0x10d828df
    435560fe:	0000                	.insn	2, 0x0000
    43556100:	2cdf 10d8 0000      	.insn	6, 0x10d82cdf
    43556106:	0000                	.insn	2, 0x0000
    43556108:	30df 10d8 0000      	.insn	6, 0x10d830df
    4355610e:	0000                	.insn	2, 0x0000
    43556110:	34df 10d8 0000      	.insn	6, 0x10d834df
    43556116:	0000                	.insn	2, 0x0000
    43556118:	38df 10d8 0000      	.insn	6, 0x10d838df
    4355611e:	0000                	.insn	2, 0x0000
    43556120:	3cdf 10d8 0000      	.insn	6, 0x10d83cdf
    43556126:	0000                	.insn	2, 0x0000
    43556128:	40df 10d8 0000      	.insn	6, 0x10d840df
    4355612e:	0000                	.insn	2, 0x0000
    43556130:	44df 10d8 0000      	.insn	6, 0x10d844df
    43556136:	0000                	.insn	2, 0x0000
    43556138:	48df 10d8 0000      	.insn	6, 0x10d848df
    4355613e:	0000                	.insn	2, 0x0000
    43556140:	4cdf 10d8 0000      	.insn	6, 0x10d84cdf
    43556146:	0000                	.insn	2, 0x0000
    43556148:	50df 10d8 0000      	.insn	6, 0x10d850df
    4355614e:	0000                	.insn	2, 0x0000
    43556150:	54df 10d8 0000      	.insn	6, 0x10d854df
    43556156:	0000                	.insn	2, 0x0000
    43556158:	58df 10d8 0000      	.insn	6, 0x10d858df
    4355615e:	0000                	.insn	2, 0x0000
    43556160:	5cdf 10d8 0000      	.insn	6, 0x10d85cdf
    43556166:	0000                	.insn	2, 0x0000
    43556168:	60df 10d8 0000      	.insn	6, 0x10d860df
    4355616e:	0000                	.insn	2, 0x0000
    43556170:	64df 10d8 0000      	.insn	6, 0x10d864df
    43556176:	0000                	.insn	2, 0x0000
    43556178:	68df 10d8 0000      	.insn	6, 0x10d868df
    4355617e:	0000                	.insn	2, 0x0000
    43556180:	6cdf 10d8 0000      	.insn	6, 0x10d86cdf
    43556186:	0000                	.insn	2, 0x0000
    43556188:	70df 10d8 0000      	.insn	6, 0x10d870df
    4355618e:	0000                	.insn	2, 0x0000
    43556190:	74df 10d8 0000      	.insn	6, 0x10d874df
    43556196:	0000                	.insn	2, 0x0000
    43556198:	78df 10d8 0000      	.insn	6, 0x10d878df
    4355619e:	0000                	.insn	2, 0x0000
    435561a0:	7cdf 10d8 0000      	.insn	6, 0x10d87cdf
    435561a6:	0000                	.insn	2, 0x0000
    435561a8:	80df 10d8 0000      	.insn	6, 0x10d880df
    435561ae:	0000                	.insn	2, 0x0000
    435561b0:	84df 10d8 0000      	.insn	6, 0x10d884df
    435561b6:	0000                	.insn	2, 0x0000
    435561b8:	88df 10d8 0000      	.insn	6, 0x10d888df
    435561be:	0000                	.insn	2, 0x0000
    435561c0:	8cdf 10d8 0000      	.insn	6, 0x10d88cdf
    435561c6:	0000                	.insn	2, 0x0000
    435561c8:	90df 10d8 0000      	.insn	6, 0x10d890df
    435561ce:	0000                	.insn	2, 0x0000
    435561d0:	94df 10d8 0000      	.insn	6, 0x10d894df
    435561d6:	0000                	.insn	2, 0x0000
    435561d8:	98df 10d8 0000      	.insn	6, 0x10d898df
    435561de:	0000                	.insn	2, 0x0000
    435561e0:	9cdf 10d8 0000      	.insn	6, 0x10d89cdf
    435561e6:	0000                	.insn	2, 0x0000
    435561e8:	a0df 10d8 0000      	.insn	6, 0x10d8a0df
    435561ee:	0000                	.insn	2, 0x0000
    435561f0:	a4df 10d8 0000      	.insn	6, 0x10d8a4df
    435561f6:	0000                	.insn	2, 0x0000
    435561f8:	a8df 10d8 0000      	.insn	6, 0x10d8a8df
    435561fe:	0000                	.insn	2, 0x0000
    43556200:	00df 1041 0000      	.insn	6, 0x104100df
    43556206:	0000                	.insn	2, 0x0000
    43556208:	b0df 10d8 0000      	.insn	6, 0x10d8b0df
    4355620e:	0000                	.insn	2, 0x0000
    43556210:	b4df 10d8 0000      	.insn	6, 0x10d8b4df
    43556216:	0000                	.insn	2, 0x0000
    43556218:	b8df 10d8 0000      	.insn	6, 0x10d8b8df
    4355621e:	0000                	.insn	2, 0x0000
    43556220:	bcdf 10d8 0000      	.insn	6, 0x10d8bcdf
    43556226:	0000                	.insn	2, 0x0000
    43556228:	c0df 10d8 0000      	.insn	6, 0x10d8c0df
    4355622e:	0000                	.insn	2, 0x0000
    43556230:	c4df 10d8 0000      	.insn	6, 0x10d8c4df
    43556236:	0000                	.insn	2, 0x0000
    43556238:	c8df 10d8 0000      	.insn	6, 0x10d8c8df
    4355623e:	0000                	.insn	2, 0x0000
    43556240:	ccdf 10d8 0000      	.insn	6, 0x10d8ccdf
    43556246:	0000                	.insn	2, 0x0000
    43556248:	d0df 10d8 0000      	.insn	6, 0x10d8d0df
    4355624e:	0000                	.insn	2, 0x0000
    43556250:	d4df 10d8 0000      	.insn	6, 0x10d8d4df
    43556256:	0000                	.insn	2, 0x0000
    43556258:	d8df 10d8 0000      	.insn	6, 0x10d8d8df
    4355625e:	0000                	.insn	2, 0x0000
    43556260:	dcdf 10d8 0000      	.insn	6, 0x10d8dcdf
    43556266:	0000                	.insn	2, 0x0000
    43556268:	e0df 10d8 0000      	.insn	6, 0x10d8e0df
    4355626e:	0000                	.insn	2, 0x0000
    43556270:	e4df 10d8 0000      	.insn	6, 0x10d8e4df
    43556276:	0000                	.insn	2, 0x0000
    43556278:	e8df 10d8 0000      	.insn	6, 0x10d8e8df
    4355627e:	0000                	.insn	2, 0x0000
    43556280:	ecdf 10d8 0000      	.insn	6, 0x10d8ecdf
    43556286:	0000                	.insn	2, 0x0000
    43556288:	f0df 10d8 0000      	.insn	6, 0x10d8f0df
    4355628e:	0000                	.insn	2, 0x0000
    43556290:	f4df 10d8 0000      	.insn	6, 0x10d8f4df
    43556296:	0000                	.insn	2, 0x0000
    43556298:	f8df 10d8 0000      	.insn	6, 0x10d8f8df
    4355629e:	0000                	.insn	2, 0x0000
    435562a0:	fcdf 10d8 0000      	.insn	6, 0x10d8fcdf
    435562a6:	0000                	.insn	2, 0x0000
    435562a8:	00df 10d9 0000      	.insn	6, 0x10d900df
    435562ae:	0000                	.insn	2, 0x0000
    435562b0:	04df 10d9 0000      	.insn	6, 0x10d904df
    435562b6:	0000                	.insn	2, 0x0000
    435562b8:	08df 10d9 0000      	.insn	6, 0x10d908df
    435562be:	0000                	.insn	2, 0x0000
    435562c0:	0cdf 10d9 0000      	.insn	6, 0x10d90cdf
    435562c6:	0000                	.insn	2, 0x0000
    435562c8:	10df 10d9 0000      	.insn	6, 0x10d910df
    435562ce:	0000                	.insn	2, 0x0000
    435562d0:	14df 10d9 0000      	.insn	6, 0x10d914df
    435562d6:	0000                	.insn	2, 0x0000
    435562d8:	18df 10d9 0000      	.insn	6, 0x10d918df
    435562de:	0000                	.insn	2, 0x0000
    435562e0:	1cdf 10d9 0000      	.insn	6, 0x10d91cdf
    435562e6:	0000                	.insn	2, 0x0000
    435562e8:	20df 10d9 0000      	.insn	6, 0x10d920df
    435562ee:	0000                	.insn	2, 0x0000
    435562f0:	24df 10d9 0000      	.insn	6, 0x10d924df
    435562f6:	0000                	.insn	2, 0x0000
    435562f8:	28df 10d9 0000      	.insn	6, 0x10d928df
    435562fe:	0000                	.insn	2, 0x0000
    43556300:	2cdf 10d9 0000      	.insn	6, 0x10d92cdf
    43556306:	0000                	.insn	2, 0x0000
    43556308:	30df 10d9 0000      	.insn	6, 0x10d930df
    4355630e:	0000                	.insn	2, 0x0000
    43556310:	34df 10d9 0000      	.insn	6, 0x10d934df
    43556316:	0000                	.insn	2, 0x0000
    43556318:	38df 10d9 0000      	.insn	6, 0x10d938df
    4355631e:	0000                	.insn	2, 0x0000
    43556320:	3cdf 10d9 0000      	.insn	6, 0x10d93cdf
    43556326:	0000                	.insn	2, 0x0000
    43556328:	40df 10d9 0000      	.insn	6, 0x10d940df
    4355632e:	0000                	.insn	2, 0x0000
    43556330:	44df 10d9 0000      	.insn	6, 0x10d944df
    43556336:	0000                	.insn	2, 0x0000
    43556338:	48df 10d9 0000      	.insn	6, 0x10d948df
    4355633e:	0000                	.insn	2, 0x0000
    43556340:	4cdf 10d9 0000      	.insn	6, 0x10d94cdf
    43556346:	0000                	.insn	2, 0x0000
    43556348:	50df 10d9 0000      	.insn	6, 0x10d950df
    4355634e:	0000                	.insn	2, 0x0000
    43556350:	54df 10d9 0000      	.insn	6, 0x10d954df
    43556356:	0000                	.insn	2, 0x0000
    43556358:	58df 10d9 0000      	.insn	6, 0x10d958df
    4355635e:	0000                	.insn	2, 0x0000
    43556360:	5cdf 10d9 0000      	.insn	6, 0x10d95cdf
    43556366:	0000                	.insn	2, 0x0000
    43556368:	60df 10d9 0000      	.insn	6, 0x10d960df
    4355636e:	0000                	.insn	2, 0x0000
    43556370:	64df 10d9 0000      	.insn	6, 0x10d964df
    43556376:	0000                	.insn	2, 0x0000
    43556378:	68df 10d9 0000      	.insn	6, 0x10d968df
    4355637e:	0000                	.insn	2, 0x0000
    43556380:	6cdf 10d9 0000      	.insn	6, 0x10d96cdf
    43556386:	0000                	.insn	2, 0x0000
    43556388:	70df 10d9 0000      	.insn	6, 0x10d970df
    4355638e:	0000                	.insn	2, 0x0000
    43556390:	74df 10d9 0000      	.insn	6, 0x10d974df
    43556396:	0000                	.insn	2, 0x0000
    43556398:	78df 10d9 0000      	.insn	6, 0x10d978df
    4355639e:	0000                	.insn	2, 0x0000
    435563a0:	7cdf 10d9 0000      	.insn	6, 0x10d97cdf
    435563a6:	0000                	.insn	2, 0x0000
    435563a8:	80df 10d9 0000      	.insn	6, 0x10d980df
    435563ae:	0000                	.insn	2, 0x0000
    435563b0:	84df 10d9 0000      	.insn	6, 0x10d984df
    435563b6:	0000                	.insn	2, 0x0000
    435563b8:	88df 10d9 0000      	.insn	6, 0x10d988df
    435563be:	0000                	.insn	2, 0x0000
    435563c0:	8cdf 10d9 0000      	.insn	6, 0x10d98cdf
    435563c6:	0000                	.insn	2, 0x0000
    435563c8:	90df 10d9 0000      	.insn	6, 0x10d990df
    435563ce:	0000                	.insn	2, 0x0000
    435563d0:	94df 10d9 0000      	.insn	6, 0x10d994df
    435563d6:	0000                	.insn	2, 0x0000
    435563d8:	98df 10d9 0000      	.insn	6, 0x10d998df
    435563de:	0000                	.insn	2, 0x0000
    435563e0:	9cdf 10d9 0000      	.insn	6, 0x10d99cdf
    435563e6:	0000                	.insn	2, 0x0000
    435563e8:	a0df 10d9 0000      	.insn	6, 0x10d9a0df
    435563ee:	0000                	.insn	2, 0x0000
    435563f0:	a4df 10d9 0000      	.insn	6, 0x10d9a4df
    435563f6:	0000                	.insn	2, 0x0000
    435563f8:	a8df 10d9 0000      	.insn	6, 0x10d9a8df
    435563fe:	0000                	.insn	2, 0x0000
    43556400:	acdf 10d9 0000      	.insn	6, 0x10d9acdf
    43556406:	0000                	.insn	2, 0x0000
    43556408:	b0df 10d9 0000      	.insn	6, 0x10d9b0df
    4355640e:	0000                	.insn	2, 0x0000
    43556410:	b4df 10d9 0000      	.insn	6, 0x10d9b4df
    43556416:	0000                	.insn	2, 0x0000
    43556418:	b8df 10d9 0000      	.insn	6, 0x10d9b8df
    4355641e:	0000                	.insn	2, 0x0000
    43556420:	bcdf 10d9 0000      	.insn	6, 0x10d9bcdf
    43556426:	0000                	.insn	2, 0x0000
    43556428:	c0df 10d9 0000      	.insn	6, 0x10d9c0df
    4355642e:	0000                	.insn	2, 0x0000
    43556430:	c4df 10d9 0000      	.insn	6, 0x10d9c4df
    43556436:	0000                	.insn	2, 0x0000
    43556438:	c8df 10d9 0000      	.insn	6, 0x10d9c8df
    4355643e:	0000                	.insn	2, 0x0000
    43556440:	ccdf 10d9 0000      	.insn	6, 0x10d9ccdf
    43556446:	0000                	.insn	2, 0x0000
    43556448:	d0df 10d9 0000      	.insn	6, 0x10d9d0df
    4355644e:	0000                	.insn	2, 0x0000
    43556450:	d4df 10d9 0000      	.insn	6, 0x10d9d4df
    43556456:	0000                	.insn	2, 0x0000
    43556458:	d8df 10d9 0000      	.insn	6, 0x10d9d8df
    4355645e:	0000                	.insn	2, 0x0000
    43556460:	dcdf 10d9 0000      	.insn	6, 0x10d9dcdf
    43556466:	0000                	.insn	2, 0x0000
    43556468:	e0df 10d9 0000      	.insn	6, 0x10d9e0df
    4355646e:	0000                	.insn	2, 0x0000
    43556470:	e4df 10d9 0000      	.insn	6, 0x10d9e4df
    43556476:	0000                	.insn	2, 0x0000
    43556478:	e8df 10d9 0000      	.insn	6, 0x10d9e8df
    4355647e:	0000                	.insn	2, 0x0000
    43556480:	ecdf 10d9 0000      	.insn	6, 0x10d9ecdf
    43556486:	0000                	.insn	2, 0x0000
    43556488:	f0df 10d9 0000      	.insn	6, 0x10d9f0df
    4355648e:	0000                	.insn	2, 0x0000
    43556490:	f4df 10d9 0000      	.insn	6, 0x10d9f4df
    43556496:	0000                	.insn	2, 0x0000
    43556498:	f8df 10d9 0000      	.insn	6, 0x10d9f8df
    4355649e:	0000                	.insn	2, 0x0000
    435564a0:	fcdf 10d9 0000      	.insn	6, 0x10d9fcdf
    435564a6:	0000                	.insn	2, 0x0000
    435564a8:	10da00cf          	fnmadd.s	f1,f20,f13,f2,rne
    435564ac:	0000                	.insn	2, 0x0000
    435564ae:	0000                	.insn	2, 0x0000
    435564b0:	10da04cf          	fnmadd.s	f9,f20,f13,f2,rne
    435564b4:	0000                	.insn	2, 0x0000
    435564b6:	0000                	.insn	2, 0x0000
    435564b8:	10da08cf          	fnmadd.s	f17,f20,f13,f2,rne
    435564bc:	0000                	.insn	2, 0x0000
    435564be:	0000                	.insn	2, 0x0000
    435564c0:	10da0ccf          	fnmadd.s	f25,f20,f13,f2,rne
    435564c4:	0000                	.insn	2, 0x0000
    435564c6:	0000                	.insn	2, 0x0000
    435564c8:	10da10cf          	fnmadd.s	f1,f20,f13,f2,rtz
    435564cc:	0000                	.insn	2, 0x0000
    435564ce:	0000                	.insn	2, 0x0000
    435564d0:	10da14cf          	fnmadd.s	f9,f20,f13,f2,rtz
    435564d4:	0000                	.insn	2, 0x0000
    435564d6:	0000                	.insn	2, 0x0000
    435564d8:	10da18cf          	fnmadd.s	f17,f20,f13,f2,rtz
    435564dc:	0000                	.insn	2, 0x0000
    435564de:	0000                	.insn	2, 0x0000
    435564e0:	10da1ccf          	fnmadd.s	f25,f20,f13,f2,rtz
    435564e4:	0000                	.insn	2, 0x0000
    435564e6:	0000                	.insn	2, 0x0000
    435564e8:	10da20cf          	fnmadd.s	f1,f20,f13,f2,rdn
    435564ec:	0000                	.insn	2, 0x0000
    435564ee:	0000                	.insn	2, 0x0000
    435564f0:	10da24cf          	fnmadd.s	f9,f20,f13,f2,rdn
    435564f4:	0000                	.insn	2, 0x0000
    435564f6:	0000                	.insn	2, 0x0000
    435564f8:	10da28cf          	fnmadd.s	f17,f20,f13,f2,rdn
    435564fc:	0000                	.insn	2, 0x0000
    435564fe:	0000                	.insn	2, 0x0000
    43556500:	10da2ccf          	fnmadd.s	f25,f20,f13,f2,rdn
    43556504:	0000                	.insn	2, 0x0000
    43556506:	0000                	.insn	2, 0x0000
    43556508:	10da30cf          	fnmadd.s	f1,f20,f13,f2,rup
    4355650c:	0000                	.insn	2, 0x0000
    4355650e:	0000                	.insn	2, 0x0000
    43556510:	10da34cf          	fnmadd.s	f9,f20,f13,f2,rup
    43556514:	0000                	.insn	2, 0x0000
    43556516:	0000                	.insn	2, 0x0000
    43556518:	10da38cf          	fnmadd.s	f17,f20,f13,f2,rup
    4355651c:	0000                	.insn	2, 0x0000
    4355651e:	0000                	.insn	2, 0x0000
    43556520:	10da3ccf          	fnmadd.s	f25,f20,f13,f2,rup
    43556524:	0000                	.insn	2, 0x0000
    43556526:	0000                	.insn	2, 0x0000
    43556528:	10da40cf          	fnmadd.s	f1,f20,f13,f2,rmm
    4355652c:	0000                	.insn	2, 0x0000
    4355652e:	0000                	.insn	2, 0x0000
    43556530:	10da44cf          	fnmadd.s	f9,f20,f13,f2,rmm
    43556534:	0000                	.insn	2, 0x0000
    43556536:	0000                	.insn	2, 0x0000
    43556538:	10da48cf          	fnmadd.s	f17,f20,f13,f2,rmm
    4355653c:	0000                	.insn	2, 0x0000
    4355653e:	0000                	.insn	2, 0x0000
    43556540:	10da4ccf          	fnmadd.s	f25,f20,f13,f2,rmm
    43556544:	0000                	.insn	2, 0x0000
    43556546:	0000                	.insn	2, 0x0000
    43556548:	10da50cf          	fnmadd.s	f1,f20,f13,f2,unknown
    4355654c:	0000                	.insn	2, 0x0000
    4355654e:	0000                	.insn	2, 0x0000
    43556550:	10da54cf          	fnmadd.s	f9,f20,f13,f2,unknown
    43556554:	0000                	.insn	2, 0x0000
    43556556:	0000                	.insn	2, 0x0000
    43556558:	10da58cf          	fnmadd.s	f17,f20,f13,f2,unknown
    4355655c:	0000                	.insn	2, 0x0000
    4355655e:	0000                	.insn	2, 0x0000
    43556560:	10da5ccf          	fnmadd.s	f25,f20,f13,f2,unknown
    43556564:	0000                	.insn	2, 0x0000
    43556566:	0000                	.insn	2, 0x0000
    43556568:	10da60cf          	fnmadd.s	f1,f20,f13,f2,unknown
    4355656c:	0000                	.insn	2, 0x0000
    4355656e:	0000                	.insn	2, 0x0000
    43556570:	10da64cf          	fnmadd.s	f9,f20,f13,f2,unknown
    43556574:	0000                	.insn	2, 0x0000
    43556576:	0000                	.insn	2, 0x0000
    43556578:	10da68cf          	fnmadd.s	f17,f20,f13,f2,unknown
    4355657c:	0000                	.insn	2, 0x0000
    4355657e:	0000                	.insn	2, 0x0000
    43556580:	10da6ccf          	fnmadd.s	f25,f20,f13,f2,unknown
    43556584:	0000                	.insn	2, 0x0000
    43556586:	0000                	.insn	2, 0x0000
    43556588:	10da70cf          	fnmadd.s	f1,f20,f13,f2
    4355658c:	0000                	.insn	2, 0x0000
    4355658e:	0000                	.insn	2, 0x0000
    43556590:	10da74cf          	fnmadd.s	f9,f20,f13,f2
    43556594:	0000                	.insn	2, 0x0000
    43556596:	0000                	.insn	2, 0x0000
    43556598:	10da78cf          	fnmadd.s	f17,f20,f13,f2
    4355659c:	0000                	.insn	2, 0x0000
    4355659e:	0000                	.insn	2, 0x0000
    435565a0:	10da7ccf          	fnmadd.s	f25,f20,f13,f2
    435565a4:	0000                	.insn	2, 0x0000
    435565a6:	0000                	.insn	2, 0x0000
    435565a8:	10da80cf          	fnmadd.s	f1,f21,f13,f2,rne
    435565ac:	0000                	.insn	2, 0x0000
    435565ae:	0000                	.insn	2, 0x0000
    435565b0:	10da84cf          	fnmadd.s	f9,f21,f13,f2,rne
    435565b4:	0000                	.insn	2, 0x0000
    435565b6:	0000                	.insn	2, 0x0000
    435565b8:	10da88cf          	fnmadd.s	f17,f21,f13,f2,rne
    435565bc:	0000                	.insn	2, 0x0000
    435565be:	0000                	.insn	2, 0x0000
    435565c0:	10da8ccf          	fnmadd.s	f25,f21,f13,f2,rne
    435565c4:	0000                	.insn	2, 0x0000
    435565c6:	0000                	.insn	2, 0x0000
    435565c8:	10da90cf          	fnmadd.s	f1,f21,f13,f2,rtz
    435565cc:	0000                	.insn	2, 0x0000
    435565ce:	0000                	.insn	2, 0x0000
    435565d0:	10da94cf          	fnmadd.s	f9,f21,f13,f2,rtz
    435565d4:	0000                	.insn	2, 0x0000
    435565d6:	0000                	.insn	2, 0x0000
    435565d8:	10da98cf          	fnmadd.s	f17,f21,f13,f2,rtz
    435565dc:	0000                	.insn	2, 0x0000
    435565de:	0000                	.insn	2, 0x0000
    435565e0:	10da9ccf          	fnmadd.s	f25,f21,f13,f2,rtz
    435565e4:	0000                	.insn	2, 0x0000
    435565e6:	0000                	.insn	2, 0x0000
    435565e8:	10daa0cf          	fnmadd.s	f1,f21,f13,f2,rdn
    435565ec:	0000                	.insn	2, 0x0000
    435565ee:	0000                	.insn	2, 0x0000
    435565f0:	10daa4cf          	fnmadd.s	f9,f21,f13,f2,rdn
    435565f4:	0000                	.insn	2, 0x0000
    435565f6:	0000                	.insn	2, 0x0000
    435565f8:	10daa8cf          	fnmadd.s	f17,f21,f13,f2,rdn
    435565fc:	0000                	.insn	2, 0x0000
    435565fe:	0000                	.insn	2, 0x0000
    43556600:	10daaccf          	fnmadd.s	f25,f21,f13,f2,rdn
    43556604:	0000                	.insn	2, 0x0000
    43556606:	0000                	.insn	2, 0x0000
    43556608:	10dab0cf          	fnmadd.s	f1,f21,f13,f2,rup
    4355660c:	0000                	.insn	2, 0x0000
    4355660e:	0000                	.insn	2, 0x0000
    43556610:	10dab4cf          	fnmadd.s	f9,f21,f13,f2,rup
    43556614:	0000                	.insn	2, 0x0000
    43556616:	0000                	.insn	2, 0x0000
    43556618:	10dab8cf          	fnmadd.s	f17,f21,f13,f2,rup
    4355661c:	0000                	.insn	2, 0x0000
    4355661e:	0000                	.insn	2, 0x0000
    43556620:	10dabccf          	fnmadd.s	f25,f21,f13,f2,rup
    43556624:	0000                	.insn	2, 0x0000
    43556626:	0000                	.insn	2, 0x0000
    43556628:	10dac0cf          	fnmadd.s	f1,f21,f13,f2,rmm
    4355662c:	0000                	.insn	2, 0x0000
    4355662e:	0000                	.insn	2, 0x0000
    43556630:	10dac4cf          	fnmadd.s	f9,f21,f13,f2,rmm
    43556634:	0000                	.insn	2, 0x0000
    43556636:	0000                	.insn	2, 0x0000
    43556638:	10dac8cf          	fnmadd.s	f17,f21,f13,f2,rmm
    4355663c:	0000                	.insn	2, 0x0000
    4355663e:	0000                	.insn	2, 0x0000
    43556640:	10dacccf          	fnmadd.s	f25,f21,f13,f2,rmm
    43556644:	0000                	.insn	2, 0x0000
    43556646:	0000                	.insn	2, 0x0000
    43556648:	10dad0cf          	fnmadd.s	f1,f21,f13,f2,unknown
    4355664c:	0000                	.insn	2, 0x0000
    4355664e:	0000                	.insn	2, 0x0000
    43556650:	10dad4cf          	fnmadd.s	f9,f21,f13,f2,unknown
    43556654:	0000                	.insn	2, 0x0000
    43556656:	0000                	.insn	2, 0x0000
    43556658:	10dad8cf          	fnmadd.s	f17,f21,f13,f2,unknown
    4355665c:	0000                	.insn	2, 0x0000
    4355665e:	0000                	.insn	2, 0x0000
    43556660:	10dadccf          	fnmadd.s	f25,f21,f13,f2,unknown
    43556664:	0000                	.insn	2, 0x0000
    43556666:	0000                	.insn	2, 0x0000
    43556668:	10dae0cf          	fnmadd.s	f1,f21,f13,f2,unknown
    4355666c:	0000                	.insn	2, 0x0000
    4355666e:	0000                	.insn	2, 0x0000
    43556670:	10dae4cf          	fnmadd.s	f9,f21,f13,f2,unknown
    43556674:	0000                	.insn	2, 0x0000
    43556676:	0000                	.insn	2, 0x0000
    43556678:	10dae8cf          	fnmadd.s	f17,f21,f13,f2,unknown
    4355667c:	0000                	.insn	2, 0x0000
    4355667e:	0000                	.insn	2, 0x0000
    43556680:	10daeccf          	fnmadd.s	f25,f21,f13,f2,unknown
    43556684:	0000                	.insn	2, 0x0000
    43556686:	0000                	.insn	2, 0x0000
    43556688:	10daf0cf          	fnmadd.s	f1,f21,f13,f2
    4355668c:	0000                	.insn	2, 0x0000
    4355668e:	0000                	.insn	2, 0x0000
    43556690:	10daf4cf          	fnmadd.s	f9,f21,f13,f2
    43556694:	0000                	.insn	2, 0x0000
    43556696:	0000                	.insn	2, 0x0000
    43556698:	10daf8cf          	fnmadd.s	f17,f21,f13,f2
    4355669c:	0000                	.insn	2, 0x0000
    4355669e:	0000                	.insn	2, 0x0000
    435566a0:	10dafccf          	fnmadd.s	f25,f21,f13,f2
    435566a4:	0000                	.insn	2, 0x0000
    435566a6:	0000                	.insn	2, 0x0000
    435566a8:	10db00cf          	fnmadd.s	f1,f22,f13,f2,rne
    435566ac:	0000                	.insn	2, 0x0000
    435566ae:	0000                	.insn	2, 0x0000
    435566b0:	10db04cf          	fnmadd.s	f9,f22,f13,f2,rne
    435566b4:	0000                	.insn	2, 0x0000
    435566b6:	0000                	.insn	2, 0x0000
    435566b8:	10db08cf          	fnmadd.s	f17,f22,f13,f2,rne
    435566bc:	0000                	.insn	2, 0x0000
    435566be:	0000                	.insn	2, 0x0000
    435566c0:	10db0ccf          	fnmadd.s	f25,f22,f13,f2,rne
    435566c4:	0000                	.insn	2, 0x0000
    435566c6:	0000                	.insn	2, 0x0000
    435566c8:	10db10cf          	fnmadd.s	f1,f22,f13,f2,rtz
    435566cc:	0000                	.insn	2, 0x0000
    435566ce:	0000                	.insn	2, 0x0000
    435566d0:	10db14cf          	fnmadd.s	f9,f22,f13,f2,rtz
    435566d4:	0000                	.insn	2, 0x0000
    435566d6:	0000                	.insn	2, 0x0000
    435566d8:	10db18cf          	fnmadd.s	f17,f22,f13,f2,rtz
    435566dc:	0000                	.insn	2, 0x0000
    435566de:	0000                	.insn	2, 0x0000
    435566e0:	10db1ccf          	fnmadd.s	f25,f22,f13,f2,rtz
    435566e4:	0000                	.insn	2, 0x0000
    435566e6:	0000                	.insn	2, 0x0000
    435566e8:	10db20cf          	fnmadd.s	f1,f22,f13,f2,rdn
    435566ec:	0000                	.insn	2, 0x0000
    435566ee:	0000                	.insn	2, 0x0000
    435566f0:	10db24cf          	fnmadd.s	f9,f22,f13,f2,rdn
    435566f4:	0000                	.insn	2, 0x0000
    435566f6:	0000                	.insn	2, 0x0000
    435566f8:	10db28cf          	fnmadd.s	f17,f22,f13,f2,rdn
    435566fc:	0000                	.insn	2, 0x0000
    435566fe:	0000                	.insn	2, 0x0000
    43556700:	10db2ccf          	fnmadd.s	f25,f22,f13,f2,rdn
    43556704:	0000                	.insn	2, 0x0000
    43556706:	0000                	.insn	2, 0x0000
    43556708:	10db30cf          	fnmadd.s	f1,f22,f13,f2,rup
    4355670c:	0000                	.insn	2, 0x0000
    4355670e:	0000                	.insn	2, 0x0000
    43556710:	10db34cf          	fnmadd.s	f9,f22,f13,f2,rup
    43556714:	0000                	.insn	2, 0x0000
    43556716:	0000                	.insn	2, 0x0000
    43556718:	10db38cf          	fnmadd.s	f17,f22,f13,f2,rup
    4355671c:	0000                	.insn	2, 0x0000
    4355671e:	0000                	.insn	2, 0x0000
    43556720:	10db3ccf          	fnmadd.s	f25,f22,f13,f2,rup
    43556724:	0000                	.insn	2, 0x0000
    43556726:	0000                	.insn	2, 0x0000
    43556728:	10db40cf          	fnmadd.s	f1,f22,f13,f2,rmm
    4355672c:	0000                	.insn	2, 0x0000
    4355672e:	0000                	.insn	2, 0x0000
    43556730:	10db44cf          	fnmadd.s	f9,f22,f13,f2,rmm
    43556734:	0000                	.insn	2, 0x0000
    43556736:	0000                	.insn	2, 0x0000
    43556738:	10db48cf          	fnmadd.s	f17,f22,f13,f2,rmm
    4355673c:	0000                	.insn	2, 0x0000
    4355673e:	0000                	.insn	2, 0x0000
    43556740:	10db4ccf          	fnmadd.s	f25,f22,f13,f2,rmm
    43556744:	0000                	.insn	2, 0x0000
    43556746:	0000                	.insn	2, 0x0000
    43556748:	10db50cf          	fnmadd.s	f1,f22,f13,f2,unknown
    4355674c:	0000                	.insn	2, 0x0000
    4355674e:	0000                	.insn	2, 0x0000
    43556750:	10db54cf          	fnmadd.s	f9,f22,f13,f2,unknown
    43556754:	0000                	.insn	2, 0x0000
    43556756:	0000                	.insn	2, 0x0000
    43556758:	10db58cf          	fnmadd.s	f17,f22,f13,f2,unknown
    4355675c:	0000                	.insn	2, 0x0000
    4355675e:	0000                	.insn	2, 0x0000
    43556760:	10db5ccf          	fnmadd.s	f25,f22,f13,f2,unknown
    43556764:	0000                	.insn	2, 0x0000
    43556766:	0000                	.insn	2, 0x0000
    43556768:	10db60cf          	fnmadd.s	f1,f22,f13,f2,unknown
    4355676c:	0000                	.insn	2, 0x0000
    4355676e:	0000                	.insn	2, 0x0000
    43556770:	10db64cf          	fnmadd.s	f9,f22,f13,f2,unknown
    43556774:	0000                	.insn	2, 0x0000
    43556776:	0000                	.insn	2, 0x0000
    43556778:	10db68cf          	fnmadd.s	f17,f22,f13,f2,unknown
    4355677c:	0000                	.insn	2, 0x0000
    4355677e:	0000                	.insn	2, 0x0000
    43556780:	10db6ccf          	fnmadd.s	f25,f22,f13,f2,unknown
    43556784:	0000                	.insn	2, 0x0000
    43556786:	0000                	.insn	2, 0x0000
    43556788:	10db70cf          	fnmadd.s	f1,f22,f13,f2
    4355678c:	0000                	.insn	2, 0x0000
    4355678e:	0000                	.insn	2, 0x0000
    43556790:	10db74cf          	fnmadd.s	f9,f22,f13,f2
    43556794:	0000                	.insn	2, 0x0000
    43556796:	0000                	.insn	2, 0x0000
    43556798:	10db78cf          	fnmadd.s	f17,f22,f13,f2
    4355679c:	0000                	.insn	2, 0x0000
    4355679e:	0000                	.insn	2, 0x0000
    435567a0:	10db7ccf          	fnmadd.s	f25,f22,f13,f2
    435567a4:	0000                	.insn	2, 0x0000
    435567a6:	0000                	.insn	2, 0x0000
    435567a8:	10db80cf          	fnmadd.s	f1,f23,f13,f2,rne
    435567ac:	0000                	.insn	2, 0x0000
    435567ae:	0000                	.insn	2, 0x0000
    435567b0:	10db84cf          	fnmadd.s	f9,f23,f13,f2,rne
    435567b4:	0000                	.insn	2, 0x0000
    435567b6:	0000                	.insn	2, 0x0000
    435567b8:	10db88cf          	fnmadd.s	f17,f23,f13,f2,rne
    435567bc:	0000                	.insn	2, 0x0000
    435567be:	0000                	.insn	2, 0x0000
    435567c0:	10db8ccf          	fnmadd.s	f25,f23,f13,f2,rne
    435567c4:	0000                	.insn	2, 0x0000
    435567c6:	0000                	.insn	2, 0x0000
    435567c8:	10db90cf          	fnmadd.s	f1,f23,f13,f2,rtz
    435567cc:	0000                	.insn	2, 0x0000
    435567ce:	0000                	.insn	2, 0x0000
    435567d0:	10db94cf          	fnmadd.s	f9,f23,f13,f2,rtz
    435567d4:	0000                	.insn	2, 0x0000
    435567d6:	0000                	.insn	2, 0x0000
    435567d8:	10db98cf          	fnmadd.s	f17,f23,f13,f2,rtz
    435567dc:	0000                	.insn	2, 0x0000
    435567de:	0000                	.insn	2, 0x0000
    435567e0:	10db9ccf          	fnmadd.s	f25,f23,f13,f2,rtz
    435567e4:	0000                	.insn	2, 0x0000
    435567e6:	0000                	.insn	2, 0x0000
    435567e8:	10dba0cf          	fnmadd.s	f1,f23,f13,f2,rdn
    435567ec:	0000                	.insn	2, 0x0000
    435567ee:	0000                	.insn	2, 0x0000
    435567f0:	10dba4cf          	fnmadd.s	f9,f23,f13,f2,rdn
    435567f4:	0000                	.insn	2, 0x0000
    435567f6:	0000                	.insn	2, 0x0000
    435567f8:	10dba8cf          	fnmadd.s	f17,f23,f13,f2,rdn
    435567fc:	0000                	.insn	2, 0x0000
    435567fe:	0000                	.insn	2, 0x0000
    43556800:	10dbaccf          	fnmadd.s	f25,f23,f13,f2,rdn
    43556804:	0000                	.insn	2, 0x0000
    43556806:	0000                	.insn	2, 0x0000
    43556808:	10dbb0cf          	fnmadd.s	f1,f23,f13,f2,rup
    4355680c:	0000                	.insn	2, 0x0000
    4355680e:	0000                	.insn	2, 0x0000
    43556810:	10dbb4cf          	fnmadd.s	f9,f23,f13,f2,rup
    43556814:	0000                	.insn	2, 0x0000
    43556816:	0000                	.insn	2, 0x0000
    43556818:	10dbb8cf          	fnmadd.s	f17,f23,f13,f2,rup
    4355681c:	0000                	.insn	2, 0x0000
    4355681e:	0000                	.insn	2, 0x0000
    43556820:	10dbbccf          	fnmadd.s	f25,f23,f13,f2,rup
    43556824:	0000                	.insn	2, 0x0000
    43556826:	0000                	.insn	2, 0x0000
    43556828:	10dbc0cf          	fnmadd.s	f1,f23,f13,f2,rmm
    4355682c:	0000                	.insn	2, 0x0000
    4355682e:	0000                	.insn	2, 0x0000
    43556830:	10dbc4cf          	fnmadd.s	f9,f23,f13,f2,rmm
    43556834:	0000                	.insn	2, 0x0000
    43556836:	0000                	.insn	2, 0x0000
    43556838:	10dbc8cf          	fnmadd.s	f17,f23,f13,f2,rmm
    4355683c:	0000                	.insn	2, 0x0000
    4355683e:	0000                	.insn	2, 0x0000
    43556840:	10dbcccf          	fnmadd.s	f25,f23,f13,f2,rmm
    43556844:	0000                	.insn	2, 0x0000
    43556846:	0000                	.insn	2, 0x0000
    43556848:	10dbd0cf          	fnmadd.s	f1,f23,f13,f2,unknown
    4355684c:	0000                	.insn	2, 0x0000
    4355684e:	0000                	.insn	2, 0x0000
    43556850:	10dbd4cf          	fnmadd.s	f9,f23,f13,f2,unknown
    43556854:	0000                	.insn	2, 0x0000
    43556856:	0000                	.insn	2, 0x0000
    43556858:	10dbd8cf          	fnmadd.s	f17,f23,f13,f2,unknown
    4355685c:	0000                	.insn	2, 0x0000
    4355685e:	0000                	.insn	2, 0x0000
    43556860:	10dbdccf          	fnmadd.s	f25,f23,f13,f2,unknown
    43556864:	0000                	.insn	2, 0x0000
    43556866:	0000                	.insn	2, 0x0000
    43556868:	10dbe0cf          	fnmadd.s	f1,f23,f13,f2,unknown
    4355686c:	0000                	.insn	2, 0x0000
    4355686e:	0000                	.insn	2, 0x0000
    43556870:	10dbe4cf          	fnmadd.s	f9,f23,f13,f2,unknown
    43556874:	0000                	.insn	2, 0x0000
    43556876:	0000                	.insn	2, 0x0000
    43556878:	10dbe8cf          	fnmadd.s	f17,f23,f13,f2,unknown
    4355687c:	0000                	.insn	2, 0x0000
    4355687e:	0000                	.insn	2, 0x0000
    43556880:	10dbeccf          	fnmadd.s	f25,f23,f13,f2,unknown
    43556884:	0000                	.insn	2, 0x0000
    43556886:	0000                	.insn	2, 0x0000
    43556888:	10dbf0cf          	fnmadd.s	f1,f23,f13,f2
    4355688c:	0000                	.insn	2, 0x0000
    4355688e:	0000                	.insn	2, 0x0000
    43556890:	10dbf4cf          	fnmadd.s	f9,f23,f13,f2
    43556894:	0000                	.insn	2, 0x0000
    43556896:	0000                	.insn	2, 0x0000
    43556898:	10dbf8cf          	fnmadd.s	f17,f23,f13,f2
    4355689c:	0000                	.insn	2, 0x0000
    4355689e:	0000                	.insn	2, 0x0000
    435568a0:	10dbfccf          	fnmadd.s	f25,f23,f13,f2
    435568a4:	0000                	.insn	2, 0x0000
    435568a6:	0000                	.insn	2, 0x0000
    435568a8:	00df 10dc 0000      	.insn	6, 0x10dc00df
    435568ae:	0000                	.insn	2, 0x0000
    435568b0:	04df 10dc 0000      	.insn	6, 0x10dc04df
    435568b6:	0000                	.insn	2, 0x0000
    435568b8:	08df 10dc 0000      	.insn	6, 0x10dc08df
    435568be:	0000                	.insn	2, 0x0000
    435568c0:	0cdf 10dc 0000      	.insn	6, 0x10dc0cdf
    435568c6:	0000                	.insn	2, 0x0000
    435568c8:	10df 10dc 0000      	.insn	6, 0x10dc10df
    435568ce:	0000                	.insn	2, 0x0000
    435568d0:	14df 10dc 0000      	.insn	6, 0x10dc14df
    435568d6:	0000                	.insn	2, 0x0000
    435568d8:	18df 10dc 0000      	.insn	6, 0x10dc18df
    435568de:	0000                	.insn	2, 0x0000
    435568e0:	1cdf 10dc 0000      	.insn	6, 0x10dc1cdf
    435568e6:	0000                	.insn	2, 0x0000
    435568e8:	20df 10dc 0000      	.insn	6, 0x10dc20df
    435568ee:	0000                	.insn	2, 0x0000
    435568f0:	24df 10dc 0000      	.insn	6, 0x10dc24df
    435568f6:	0000                	.insn	2, 0x0000
    435568f8:	28df 10dc 0000      	.insn	6, 0x10dc28df
    435568fe:	0000                	.insn	2, 0x0000
    43556900:	2cdf 10dc 0000      	.insn	6, 0x10dc2cdf
    43556906:	0000                	.insn	2, 0x0000
    43556908:	30df 10dc 0000      	.insn	6, 0x10dc30df
    4355690e:	0000                	.insn	2, 0x0000
    43556910:	34df 10dc 0000      	.insn	6, 0x10dc34df
    43556916:	0000                	.insn	2, 0x0000
    43556918:	38df 10dc 0000      	.insn	6, 0x10dc38df
    4355691e:	0000                	.insn	2, 0x0000
    43556920:	3cdf 10dc 0000      	.insn	6, 0x10dc3cdf
    43556926:	0000                	.insn	2, 0x0000
    43556928:	40df 10dc 0000      	.insn	6, 0x10dc40df
    4355692e:	0000                	.insn	2, 0x0000
    43556930:	44df 10dc 0000      	.insn	6, 0x10dc44df
    43556936:	0000                	.insn	2, 0x0000
    43556938:	48df 10dc 0000      	.insn	6, 0x10dc48df
    4355693e:	0000                	.insn	2, 0x0000
    43556940:	4cdf 10dc 0000      	.insn	6, 0x10dc4cdf
    43556946:	0000                	.insn	2, 0x0000
    43556948:	50df 10dc 0000      	.insn	6, 0x10dc50df
    4355694e:	0000                	.insn	2, 0x0000
    43556950:	54df 10dc 0000      	.insn	6, 0x10dc54df
    43556956:	0000                	.insn	2, 0x0000
    43556958:	58df 10dc 0000      	.insn	6, 0x10dc58df
    4355695e:	0000                	.insn	2, 0x0000
    43556960:	5cdf 10dc 0000      	.insn	6, 0x10dc5cdf
    43556966:	0000                	.insn	2, 0x0000
    43556968:	60df 10dc 0000      	.insn	6, 0x10dc60df
    4355696e:	0000                	.insn	2, 0x0000
    43556970:	64df 10dc 0000      	.insn	6, 0x10dc64df
    43556976:	0000                	.insn	2, 0x0000
    43556978:	68df 10dc 0000      	.insn	6, 0x10dc68df
    4355697e:	0000                	.insn	2, 0x0000
    43556980:	6cdf 10dc 0000      	.insn	6, 0x10dc6cdf
    43556986:	0000                	.insn	2, 0x0000
    43556988:	70df 10dc 0000      	.insn	6, 0x10dc70df
    4355698e:	0000                	.insn	2, 0x0000
    43556990:	74df 10dc 0000      	.insn	6, 0x10dc74df
    43556996:	0000                	.insn	2, 0x0000
    43556998:	78df 10dc 0000      	.insn	6, 0x10dc78df
    4355699e:	0000                	.insn	2, 0x0000
    435569a0:	7cdf 10dc 0000      	.insn	6, 0x10dc7cdf
    435569a6:	0000                	.insn	2, 0x0000
    435569a8:	80df 10dc 0000      	.insn	6, 0x10dc80df
    435569ae:	0000                	.insn	2, 0x0000
    435569b0:	84df 10dc 0000      	.insn	6, 0x10dc84df
    435569b6:	0000                	.insn	2, 0x0000
    435569b8:	88df 10dc 0000      	.insn	6, 0x10dc88df
    435569be:	0000                	.insn	2, 0x0000
    435569c0:	8cdf 10dc 0000      	.insn	6, 0x10dc8cdf
    435569c6:	0000                	.insn	2, 0x0000
    435569c8:	90df 10dc 0000      	.insn	6, 0x10dc90df
    435569ce:	0000                	.insn	2, 0x0000
    435569d0:	94df 10dc 0000      	.insn	6, 0x10dc94df
    435569d6:	0000                	.insn	2, 0x0000
    435569d8:	98df 10dc 0000      	.insn	6, 0x10dc98df
    435569de:	0000                	.insn	2, 0x0000
    435569e0:	9cdf 10dc 0000      	.insn	6, 0x10dc9cdf
    435569e6:	0000                	.insn	2, 0x0000
    435569e8:	a0df 10dc 0000      	.insn	6, 0x10dca0df
    435569ee:	0000                	.insn	2, 0x0000
    435569f0:	a4df 10dc 0000      	.insn	6, 0x10dca4df
    435569f6:	0000                	.insn	2, 0x0000
    435569f8:	a8df 10dc 0000      	.insn	6, 0x10dca8df
    435569fe:	0000                	.insn	2, 0x0000
    43556a00:	acdf 10dc 0000      	.insn	6, 0x10dcacdf
    43556a06:	0000                	.insn	2, 0x0000
    43556a08:	b0df 10dc 0000      	.insn	6, 0x10dcb0df
    43556a0e:	0000                	.insn	2, 0x0000
    43556a10:	b4df 10dc 0000      	.insn	6, 0x10dcb4df
    43556a16:	0000                	.insn	2, 0x0000
    43556a18:	b8df 10dc 0000      	.insn	6, 0x10dcb8df
    43556a1e:	0000                	.insn	2, 0x0000
    43556a20:	bcdf 10dc 0000      	.insn	6, 0x10dcbcdf
    43556a26:	0000                	.insn	2, 0x0000
    43556a28:	c0df 10dc 0000      	.insn	6, 0x10dcc0df
    43556a2e:	0000                	.insn	2, 0x0000
    43556a30:	c4df 10dc 0000      	.insn	6, 0x10dcc4df
    43556a36:	0000                	.insn	2, 0x0000
    43556a38:	c8df 10dc 0000      	.insn	6, 0x10dcc8df
    43556a3e:	0000                	.insn	2, 0x0000
    43556a40:	ccdf 10dc 0000      	.insn	6, 0x10dcccdf
    43556a46:	0000                	.insn	2, 0x0000
    43556a48:	d0df 10dc 0000      	.insn	6, 0x10dcd0df
    43556a4e:	0000                	.insn	2, 0x0000
    43556a50:	d4df 10dc 0000      	.insn	6, 0x10dcd4df
    43556a56:	0000                	.insn	2, 0x0000
    43556a58:	d8df 10dc 0000      	.insn	6, 0x10dcd8df
    43556a5e:	0000                	.insn	2, 0x0000
    43556a60:	dcdf 10dc 0000      	.insn	6, 0x10dcdcdf
    43556a66:	0000                	.insn	2, 0x0000
    43556a68:	e0df 10dc 0000      	.insn	6, 0x10dce0df
    43556a6e:	0000                	.insn	2, 0x0000
    43556a70:	e4df 10dc 0000      	.insn	6, 0x10dce4df
    43556a76:	0000                	.insn	2, 0x0000
    43556a78:	e8df 10dc 0000      	.insn	6, 0x10dce8df
    43556a7e:	0000                	.insn	2, 0x0000
    43556a80:	ecdf 10dc 0000      	.insn	6, 0x10dcecdf
    43556a86:	0000                	.insn	2, 0x0000
    43556a88:	f0df 10dc 0000      	.insn	6, 0x10dcf0df
    43556a8e:	0000                	.insn	2, 0x0000
    43556a90:	f4df 10dc 0000      	.insn	6, 0x10dcf4df
    43556a96:	0000                	.insn	2, 0x0000
    43556a98:	f8df 10dc 0000      	.insn	6, 0x10dcf8df
    43556a9e:	0000                	.insn	2, 0x0000
    43556aa0:	fcdf 10dc 0000      	.insn	6, 0x10dcfcdf
    43556aa6:	0000                	.insn	2, 0x0000
    43556aa8:	00df 10dd 0000      	.insn	6, 0x10dd00df
    43556aae:	0000                	.insn	2, 0x0000
    43556ab0:	04df 10dd 0000      	.insn	6, 0x10dd04df
    43556ab6:	0000                	.insn	2, 0x0000
    43556ab8:	08df 10dd 0000      	.insn	6, 0x10dd08df
    43556abe:	0000                	.insn	2, 0x0000
    43556ac0:	0cdf 10dd 0000      	.insn	6, 0x10dd0cdf
    43556ac6:	0000                	.insn	2, 0x0000
    43556ac8:	10df 10dd 0000      	.insn	6, 0x10dd10df
    43556ace:	0000                	.insn	2, 0x0000
    43556ad0:	14df 10dd 0000      	.insn	6, 0x10dd14df
    43556ad6:	0000                	.insn	2, 0x0000
    43556ad8:	18df 10dd 0000      	.insn	6, 0x10dd18df
    43556ade:	0000                	.insn	2, 0x0000
    43556ae0:	1cdf 10dd 0000      	.insn	6, 0x10dd1cdf
    43556ae6:	0000                	.insn	2, 0x0000
    43556ae8:	20df 10dd 0000      	.insn	6, 0x10dd20df
    43556aee:	0000                	.insn	2, 0x0000
    43556af0:	24df 10dd 0000      	.insn	6, 0x10dd24df
    43556af6:	0000                	.insn	2, 0x0000
    43556af8:	28df 10dd 0000      	.insn	6, 0x10dd28df
    43556afe:	0000                	.insn	2, 0x0000
    43556b00:	2cdf 10dd 0000      	.insn	6, 0x10dd2cdf
    43556b06:	0000                	.insn	2, 0x0000
    43556b08:	30df 10dd 0000      	.insn	6, 0x10dd30df
    43556b0e:	0000                	.insn	2, 0x0000
    43556b10:	34df 10dd 0000      	.insn	6, 0x10dd34df
    43556b16:	0000                	.insn	2, 0x0000
    43556b18:	38df 10dd 0000      	.insn	6, 0x10dd38df
    43556b1e:	0000                	.insn	2, 0x0000
    43556b20:	3cdf 10dd 0000      	.insn	6, 0x10dd3cdf
    43556b26:	0000                	.insn	2, 0x0000
    43556b28:	40df 10dd 0000      	.insn	6, 0x10dd40df
    43556b2e:	0000                	.insn	2, 0x0000
    43556b30:	44df 10dd 0000      	.insn	6, 0x10dd44df
    43556b36:	0000                	.insn	2, 0x0000
    43556b38:	48df 10dd 0000      	.insn	6, 0x10dd48df
    43556b3e:	0000                	.insn	2, 0x0000
    43556b40:	4cdf 10dd 0000      	.insn	6, 0x10dd4cdf
    43556b46:	0000                	.insn	2, 0x0000
    43556b48:	50df 10dd 0000      	.insn	6, 0x10dd50df
    43556b4e:	0000                	.insn	2, 0x0000
    43556b50:	54df 10dd 0000      	.insn	6, 0x10dd54df
    43556b56:	0000                	.insn	2, 0x0000
    43556b58:	58df 10dd 0000      	.insn	6, 0x10dd58df
    43556b5e:	0000                	.insn	2, 0x0000
    43556b60:	5cdf 10dd 0000      	.insn	6, 0x10dd5cdf
    43556b66:	0000                	.insn	2, 0x0000
    43556b68:	60df 10dd 0000      	.insn	6, 0x10dd60df
    43556b6e:	0000                	.insn	2, 0x0000
    43556b70:	64df 10dd 0000      	.insn	6, 0x10dd64df
    43556b76:	0000                	.insn	2, 0x0000
    43556b78:	68df 10dd 0000      	.insn	6, 0x10dd68df
    43556b7e:	0000                	.insn	2, 0x0000
    43556b80:	6cdf 10dd 0000      	.insn	6, 0x10dd6cdf
    43556b86:	0000                	.insn	2, 0x0000
    43556b88:	70df 10dd 0000      	.insn	6, 0x10dd70df
    43556b8e:	0000                	.insn	2, 0x0000
    43556b90:	74df 10dd 0000      	.insn	6, 0x10dd74df
    43556b96:	0000                	.insn	2, 0x0000
    43556b98:	78df 10dd 0000      	.insn	6, 0x10dd78df
    43556b9e:	0000                	.insn	2, 0x0000
    43556ba0:	7cdf 10dd 0000      	.insn	6, 0x10dd7cdf
    43556ba6:	0000                	.insn	2, 0x0000
    43556ba8:	80df 10dd 0000      	.insn	6, 0x10dd80df
    43556bae:	0000                	.insn	2, 0x0000
    43556bb0:	84df 10dd 0000      	.insn	6, 0x10dd84df
    43556bb6:	0000                	.insn	2, 0x0000
    43556bb8:	88df 10dd 0000      	.insn	6, 0x10dd88df
    43556bbe:	0000                	.insn	2, 0x0000
    43556bc0:	8cdf 10dd 0000      	.insn	6, 0x10dd8cdf
    43556bc6:	0000                	.insn	2, 0x0000
    43556bc8:	90df 10dd 0000      	.insn	6, 0x10dd90df
    43556bce:	0000                	.insn	2, 0x0000
    43556bd0:	94df 10dd 0000      	.insn	6, 0x10dd94df
    43556bd6:	0000                	.insn	2, 0x0000
    43556bd8:	98df 10dd 0000      	.insn	6, 0x10dd98df
    43556bde:	0000                	.insn	2, 0x0000
    43556be0:	9cdf 10dd 0000      	.insn	6, 0x10dd9cdf
    43556be6:	0000                	.insn	2, 0x0000
    43556be8:	a0df 10dd 0000      	.insn	6, 0x10dda0df
    43556bee:	0000                	.insn	2, 0x0000
    43556bf0:	a4df 10dd 0000      	.insn	6, 0x10dda4df
    43556bf6:	0000                	.insn	2, 0x0000
    43556bf8:	a8df 10dd 0000      	.insn	6, 0x10dda8df
    43556bfe:	0000                	.insn	2, 0x0000
    43556c00:	acdf 10dd 0000      	.insn	6, 0x10ddacdf
    43556c06:	0000                	.insn	2, 0x0000
    43556c08:	b0df 10dd 0000      	.insn	6, 0x10ddb0df
    43556c0e:	0000                	.insn	2, 0x0000
    43556c10:	b4df 10dd 0000      	.insn	6, 0x10ddb4df
    43556c16:	0000                	.insn	2, 0x0000
    43556c18:	b8df 10dd 0000      	.insn	6, 0x10ddb8df
    43556c1e:	0000                	.insn	2, 0x0000
    43556c20:	bcdf 10dd 0000      	.insn	6, 0x10ddbcdf
    43556c26:	0000                	.insn	2, 0x0000
    43556c28:	c0df 10dd 0000      	.insn	6, 0x10ddc0df
    43556c2e:	0000                	.insn	2, 0x0000
    43556c30:	c4df 10dd 0000      	.insn	6, 0x10ddc4df
    43556c36:	0000                	.insn	2, 0x0000
    43556c38:	c8df 10dd 0000      	.insn	6, 0x10ddc8df
    43556c3e:	0000                	.insn	2, 0x0000
    43556c40:	ccdf 10dd 0000      	.insn	6, 0x10ddccdf
    43556c46:	0000                	.insn	2, 0x0000
    43556c48:	d0df 10dd 0000      	.insn	6, 0x10ddd0df
    43556c4e:	0000                	.insn	2, 0x0000
    43556c50:	d4df 10dd 0000      	.insn	6, 0x10ddd4df
    43556c56:	0000                	.insn	2, 0x0000
    43556c58:	d8df 10dd 0000      	.insn	6, 0x10ddd8df
    43556c5e:	0000                	.insn	2, 0x0000
    43556c60:	dcdf 10dd 0000      	.insn	6, 0x10dddcdf
    43556c66:	0000                	.insn	2, 0x0000
    43556c68:	e0df 10dd 0000      	.insn	6, 0x10dde0df
    43556c6e:	0000                	.insn	2, 0x0000
    43556c70:	e4df 10dd 0000      	.insn	6, 0x10dde4df
    43556c76:	0000                	.insn	2, 0x0000
    43556c78:	e8df 10dd 0000      	.insn	6, 0x10dde8df
    43556c7e:	0000                	.insn	2, 0x0000
    43556c80:	ecdf 10dd 0000      	.insn	6, 0x10ddecdf
    43556c86:	0000                	.insn	2, 0x0000
    43556c88:	f0df 10dd 0000      	.insn	6, 0x10ddf0df
    43556c8e:	0000                	.insn	2, 0x0000
    43556c90:	f4df 10dd 0000      	.insn	6, 0x10ddf4df
    43556c96:	0000                	.insn	2, 0x0000
    43556c98:	f8df 10dd 0000      	.insn	6, 0x10ddf8df
    43556c9e:	0000                	.insn	2, 0x0000
    43556ca0:	fcdf 10dd 0000      	.insn	6, 0x10ddfcdf
	...

Disassembly of section .__pagetable_map_os_0x0000000042ef4000:

0000000042ef4000 <__pagetable_map_os_0x0000000042ef4000>:
	...
    42ef40b0:	10e004cf          	fnmadd.s	f9,f0,f14,f2,rne
    42ef40b4:	0000                	.insn	2, 0x0000
	...

Disassembly of section .__pagetable_map_os_0x000000004295d000:

000000004295d000 <__pagetable_map_os_0x000000004295d000>:
	...
    4295d910:	88df 111c 0000      	.insn	6, 0x111c88df
	...

Disassembly of section .__pagetable_map_os_0x0000000044f03000:

0000000044f03000 <__pagetable_map_os_0x0000000044f03000>:
    44f03000:	b001                	.insn	2, 0xb001
    44f03002:	00001133          	sll	x2,x0,x0
	...
    44f03016:	0000                	.insn	2, 0x0000
    44f03018:	9c01                	.insn	2, 0x9c01
    44f0301a:	1132                	.insn	2, 0x1132
	...
    44f03070:	b001                	.insn	2, 0xb001
    44f03072:	10e6                	.insn	2, 0x10e6
	...
    44f030a0:	0401                	.insn	2, 0x0401
    44f030a2:	1132                	.insn	2, 0x1132
	...
    44f03670:	9801                	.insn	2, 0x9801
    44f03672:	1132                	.insn	2, 0x1132
    44f03674:	0000                	.insn	2, 0x0000
	...

Disassembly of section .__pagetable_map_os_0x0000000044cec000:

0000000044cec000 <__pagetable_map_os_0x0000000044cec000>:
	...
    44cec130:	1140b4d7          	.insn	4, 0x1140b4d7
	...
    44cec1b8:	10e490d7          	vfmin.vv	v1,v14,v9,v0.t
	...
    44cec220:	20df 10bb 0000      	.insn	6, 0x10bb20df
    44cec226:	0000                	.insn	2, 0x0000
    44cec228:	24df 10bb 0000      	.insn	6, 0x10bb24df
	...
    44cec2c6:	0000                	.insn	2, 0x0000
    44cec2c8:	88df 1140 0000      	.insn	6, 0x114088df
	...
    44cec446:	0000                	.insn	2, 0x0000
    44cec448:	11409cd7          	vfmin.vv	v25,v20,v1,v0.t
    44cec44c:	0000                	.insn	2, 0x0000
	...

Disassembly of section .__pagetable_map_os_0x0000000044ca6000:

0000000044ca6000 <__pagetable_map_os_0x0000000044ca6000>:
	...
    44ca6bc0:	08df 10e0 0000      	.insn	6, 0x10e008df
    44ca6bc6:	0000                	.insn	2, 0x0000
    44ca6bc8:	0cdf 10e0 0000      	.insn	6, 0x10e00cdf
	...

Disassembly of section .__pagetable_map_os_0x00000000439ac000:

00000000439ac000 <__pagetable_map_os_0x00000000439ac000>:
	...
    439ac2b0:	74df 1132 0000      	.insn	6, 0x113274df
	...

Disassembly of section .__pagetable_map_os_0x0000000044c81000:

0000000044c81000 <__pagetable_map_os_0x0000000044c81000>:
	...
    44c810f0:	38df 1135 0000      	.insn	6, 0x113538df
	...
    44c81e46:	0000                	.insn	2, 0x0000
    44c81e48:	b0df 1140 0000      	.insn	6, 0x1140b0df
	...

Disassembly of section .__pagetable_map_os_0x0000000044ca7000:

0000000044ca7000 <__pagetable_map_os_0x0000000044ca7000>:
	...
    44ca72a8:	113144d7          	vminu.vx	v9,v19,x2,v0.t
	...
    44ca72b8:	74df 10fd 0000      	.insn	6, 0x10fd74df
	...

Disassembly of section .__pagetable_map_os_0x0000000044f02000:

0000000044f02000 <__pagetable_map_os_0x0000000044f02000>:
	...
    44f02cb8:	2c01                	.insn	2, 0x2c01
    44f02cba:	10e4                	.insn	2, 0x10e4
    44f02cbc:	0000                	.insn	2, 0x0000
	...

Disassembly of section .__pagetable_map_os_0x000000004390b000:

000000004390b000 <__pagetable_map_os_0x000000004390b000>:
	...
    4390bac0:	34df 10c3 0000      	.insn	6, 0x10c334df
	...

Disassembly of section .__pagetable_map_os_0x0000000044ccb000:

0000000044ccb000 <__pagetable_map_os_0x0000000044ccb000>:
	...
    44ccbdf8:	0401                	.insn	2, 0x0401
    44ccbdfa:	10e6                	.insn	2, 0x10e6
    44ccbdfc:	0000                	.insn	2, 0x0000
	...

Disassembly of section .__pagetable_map_os_0x0000000043981000:

0000000043981000 <__pagetable_map_os_0x0000000043981000>:
	...
    43981f70:	8cdf 1140 0000      	.insn	6, 0x11408cdf
	...

Disassembly of section .__pagetable_map_os_0x0000000044aeb000:

0000000044aeb000 <__pagetable_map_os_0x0000000044aeb000>:
	...
    44aeb3a8:	4401                	.insn	2, 0x4401
    44aeb3aa:	10f0                	.insn	2, 0x10f0
	...
    44aeb548:	1001                	.insn	2, 0x1001
    44aeb54a:	10e0                	.insn	2, 0x10e0
    44aeb54c:	0000                	.insn	2, 0x0000
	...

Disassembly of section .__pagetable_map_os_0x0000000043c11000:

0000000043c11000 <__pagetable_map_os_0x0000000043c11000>:
	...
    43c11578:	18df 1068 0000      	.insn	6, 0x106818df
	...

Disassembly of section .__pagetable_map_os_0x0000000043804000:

0000000043804000 <__pagetable_map_os_0x0000000043804000>:
	...
    43804b50:	113148d7          	vminu.vx	v17,v19,x2,v0.t
    43804b54:	0000                	.insn	2, 0x0000
	...

Disassembly of section .__pagetable_map_os_0x0000000044c6a000:

0000000044c6a000 <__pagetable_map_os_0x0000000044c6a000>:
	...
    44c6af30:	9801                	.insn	2, 0x9801
    44c6af32:	109c                	.insn	2, 0x109c
    44c6af34:	0000                	.insn	2, 0x0000
	...

Disassembly of section .__pagetable_map_os_0x0000000042726000:

0000000042726000 <__pagetable_map_os_0x0000000042726000>:
	...
    42726580:	a8df 1140 0000      	.insn	6, 0x1140a8df
	...

Disassembly of section .__pagetable_map_os_0x0000000044f0b000:

0000000044f0b000 <__pagetable_map_os_0x0000000044f0b000>:
	...
    44f0bec0:	1001                	.insn	2, 0x1001
    44f0bec2:	00001133          	sll	x2,x0,x0
	...

Disassembly of section .__pagetable_map_os_0x0000000044cc4000:

0000000044cc4000 <__pagetable_map_os_0x0000000044cc4000>:
	...
    44cc4ae8:	4cdf 1133 0000      	.insn	6, 0x11334cdf
	...

Disassembly of section .__pagetable_map_os_0x0000000043a49000:

0000000043a49000 <__pagetable_map_os_0x0000000043a49000>:
	...
    43a49640:	7c01                	.insn	2, 0x7c01
    43a49642:	1131                	.insn	2, 0x1131
    43a49644:	0000                	.insn	2, 0x0000
	...

Disassembly of section .__pagetable_map_os_0x0000000044c5f000:

0000000044c5f000 <__pagetable_map_os_0x0000000044c5f000>:
	...
    44c5fa68:	10a578d7          	vsetvli	x17,x10,266
    44c5fa6c:	0000                	.insn	2, 0x0000
	...

Disassembly of section .__pagetable_map_os_0x00000000439a0000:

00000000439a0000 <__pagetable_map_os_0x00000000439a0000>:
	...
    439a0f18:	ac01                	.insn	2, 0xac01
    439a0f1a:	1140                	.insn	2, 0x1140
    439a0f1c:	0000                	.insn	2, 0x0000
	...

Disassembly of section .__pagetable_map_os_0x000000004502b000:

000000004502b000 <__pagetable_map_os_0x000000004502b000>:
	...
    4502b2e0:	113c04d7          	vminu.vv	v9,v19,v24,v0.t
    4502b2e4:	0000                	.insn	2, 0x0000
	...

Disassembly of section .__pagetable_map_os_0x0000000044aea000:

0000000044aea000 <__pagetable_map_os_0x0000000044aea000>:
	...
    44aea448:	a001                	.insn	2, 0xa001
    44aea44a:	1140                	.insn	2, 0x1140
    44aea44c:	0000                	.insn	2, 0x0000
	...

Disassembly of section .__pagetable_map_os_0x0000000045028000:

0000000045028000 <__pagetable_map_os_0x0000000045028000>:
	...
    45028208:	9001                	.insn	2, 0x9001
    4502820a:	1131                	.insn	2, 0x1131
    4502820c:	0000                	.insn	2, 0x0000
	...

Disassembly of section .__pagetable_map_os_0x0000000044c64000:

0000000044c64000 <__pagetable_map_os_0x0000000044c64000>:
	...
    44c642c0:	94df 1140 0000      	.insn	6, 0x114094df
	...

Disassembly of section .__pagetable_map_os_0x0000000044c5d000:

0000000044c5d000 <__pagetable_map_os_0x0000000044c5d000>:
	...
    44c5d310:	f401                	.insn	2, 0xf401
    44c5d312:	107d                	.insn	2, 0x107d
    44c5d314:	0000                	.insn	2, 0x0000
	...

Disassembly of section .__pagetable_map_os_0x0000000041f7d000:

0000000041f7d000 <__pagetable_map_os_0x0000000041f7d000>:
	...
    41f7d680:	8801                	.insn	2, 0x8801
    41f7d682:	1131                	.insn	2, 0x1131
    41f7d684:	0000                	.insn	2, 0x0000
	...

Disassembly of section .__pagetable_map_os_0x0000000044c62000:

0000000044c62000 <__pagetable_map_os_0x0000000044c62000>:
	...
    44c62130:	4cdf 10bf 0000      	.insn	6, 0x10bf4cdf
	...

Disassembly of section .__pagetable_map_os_0x0000000044c8f000:

0000000044c8f000 <__pagetable_map_os_0x0000000044c8f000>:
	...
    44c8fb18:	1c01                	.insn	2, 0x1c01
    44c8fb1a:	1051                	.insn	2, 0x1051
    44c8fb1c:	0000                	.insn	2, 0x0000
	...

Disassembly of section .__pagetable_map_os_0x0000000041447000:

0000000041447000 <__pagetable_map_os_0x0000000041447000>:
	...
    41447c70:	b801                	.insn	2, 0xb801
    41447c72:	111d                	.insn	2, 0x111d
    41447c74:	0000                	.insn	2, 0x0000
	...

Disassembly of section .__pagetable_map_os_0x000000004476e000:

000000004476e000 <__pagetable_map_os_0x000000004476e000>:
	...
    4476efa8:	10fd70d7          	vsetvli	x1,x26,271
    4476efac:	0000                	.insn	2, 0x0000
	...

Disassembly of section .__pagetable_map_os_0x0000000044cc7000:

0000000044cc7000 <__pagetable_map_os_0x0000000044cc7000>:
	...
    44cc7118:	f401                	.insn	2, 0xf401
    44cc711a:	1132                	.insn	2, 0x1132
    44cc711c:	0000                	.insn	2, 0x0000
	...

Disassembly of section .__pagetable_map_os_0x0000000044cbd000:

0000000044cbd000 <__pagetable_map_os_0x0000000044cbd000>:
	...
    44cbd8b0:	b001                	.insn	2, 0xb001
    44cbd8b2:	10a0                	.insn	2, 0x10a0
    44cbd8b4:	0000                	.insn	2, 0x0000
	...

Disassembly of section .__pagetable_map_os_0x000000004282c000:

000000004282c000 <__pagetable_map_os_0x000000004282c000>:
	...
    4282c1b0:	1140b8d7          	.insn	4, 0x1140b8d7
    4282c1b4:	0000                	.insn	2, 0x0000
	...

Disassembly of section .__pagetable_map_os_0x0000000043818000:

0000000043818000 <__pagetable_map_os_0x0000000043818000>:
	...
    43818c78:	6001                	.insn	2, 0x6001
    43818c7a:	1132                	.insn	2, 0x1132
    43818c7c:	0000                	.insn	2, 0x0000
	...

Disassembly of section .__pagetable_map_os_0x0000000044c98000:

0000000044c98000 <__pagetable_map_os_0x0000000044c98000>:
	...
    44c98928:	2c01                	.insn	2, 0x2c01
    44c9892a:	10f6                	.insn	2, 0x10f6
    44c9892c:	0000                	.insn	2, 0x0000
	...

Disassembly of section .__pagetable_map_os_0x0000000043d8b000:

0000000043d8b000 <__pagetable_map_os_0x0000000043d8b000>:
	...
    43d8b5b8:	114090d7          	vfmin.vv	v1,v20,v1,v0.t
    43d8b5bc:	0000                	.insn	2, 0x0000
	...

Disassembly of section .__pagetable_map_os_0x0000000043ae3000:

0000000043ae3000 <__pagetable_map_os_0x0000000043ae3000>:
	...
    43ae3ea8:	5001                	.insn	2, 0x5001
    43ae3eaa:	10ed                	.insn	2, 0x10ed
    43ae3eac:	0000                	.insn	2, 0x0000
	...

Disassembly of section .__pagetable_map_os_0x0000000043b54000:

0000000043b54000 <__pagetable_map_os_0x0000000043b54000>:
	...
    43b54f28:	0801                	.insn	2, 0x0801
    43b54f2a:	00001133          	sll	x2,x0,x0
	...

Disassembly of section .__pagetable_map_os_0x0000000044cc2000:

0000000044cc2000 <__pagetable_map_os_0x0000000044cc2000>:
	...
    44cc2b08:	10bb1cd7          	vfmin.vv	v25,v11,v22,v0.t
    44cc2b0c:	0000                	.insn	2, 0x0000
	...
