
/home/abdullah/RiescueC/riescue/10x_R/zjpm/testsuite/zjpm/super_sv39/tp_zjpm_2:     file format elf64-littleriscv


Disassembly of section .runtime:

0000000080000000 <_start>:
    80000000:	00000093          	li	x1,0
    80000004:	00000113          	li	x2,0
    80000008:	00000193          	li	x3,0
    8000000c:	00000213          	li	x4,0
    80000010:	00000293          	li	x5,0
    80000014:	00000313          	li	x6,0
    80000018:	00000393          	li	x7,0
    8000001c:	00000413          	li	x8,0
    80000020:	00000493          	li	x9,0
    80000024:	00000513          	li	x10,0
    80000028:	00000593          	li	x11,0
    8000002c:	00000613          	li	x12,0
    80000030:	00000693          	li	x13,0
    80000034:	00000713          	li	x14,0
    80000038:	00000793          	li	x15,0
    8000003c:	00000813          	li	x16,0
    80000040:	00000893          	li	x17,0
    80000044:	00000913          	li	x18,0
    80000048:	00000993          	li	x19,0
    8000004c:	00000a13          	li	x20,0
    80000050:	00000a93          	li	x21,0
    80000054:	00000b13          	li	x22,0
    80000058:	00000b93          	li	x23,0
    8000005c:	00000c13          	li	x24,0
    80000060:	00000c93          	li	x25,0
    80000064:	00000d13          	li	x26,0
    80000068:	00000d93          	li	x27,0
    8000006c:	00000e13          	li	x28,0
    80000070:	00000e93          	li	x29,0
    80000074:	00000f13          	li	x30,0
    80000078:	00000f93          	li	x31,0

000000008000007c <loader__load_panic_address>:
    8000007c:	00001297          	auipc	x5,0x1
    80000080:	bf828293          	addi	x5,x5,-1032 # 80000c74 <eot__failed>
    80000084:	30529073          	csrw	mtvec,x5

0000000080000088 <loader__initialize_runtime>:
    80000088:	0010029b          	addiw	x5,x0,1
    8000008c:	03229293          	slli	x5,x5,0x32
    80000090:	20128293          	addi	x5,x5,513
    80000094:	00c29293          	slli	x5,x5,0xc
    80000098:	1ad28293          	addi	x5,x5,429
    8000009c:	3012a2f3          	csrrs	x5,misa,x5

00000000800000a0 <loader__set_mstatus>:
    800000a0:	000422b7          	lui	x5,0x42
    800000a4:	20a2829b          	addiw	x5,x5,522 # 4220a <_all_interrupts+0x3f760>
    800000a8:	3002a2f3          	csrrs	x5,mstatus,x5

00000000800000ac <loader__init_fp_registers>:
    800000ac:	004552b7          	lui	x5,0x455
    800000b0:	e492829b          	addiw	x5,x5,-439 # 454e49 <SID_29_pm_xtvec_tagged_address_stack+0x6e49>
    800000b4:	00e29293          	slli	x5,x5,0xe
    800000b8:	09828293          	addi	x5,x5,152
    800000bc:	0002b007          	fld	f0,0(x5)
    800000c0:	0002b087          	fld	f1,0(x5)
    800000c4:	0002b107          	fld	f2,0(x5)
    800000c8:	0002b187          	fld	f3,0(x5)
    800000cc:	0002b207          	fld	f4,0(x5)
    800000d0:	0002b287          	fld	f5,0(x5)
    800000d4:	0002b307          	fld	f6,0(x5)
    800000d8:	0002b387          	fld	f7,0(x5)
    800000dc:	0002b407          	fld	f8,0(x5)
    800000e0:	0002b487          	fld	f9,0(x5)
    800000e4:	0002b507          	fld	f10,0(x5)
    800000e8:	0002b587          	fld	f11,0(x5)
    800000ec:	0002b607          	fld	f12,0(x5)
    800000f0:	0002b687          	fld	f13,0(x5)
    800000f4:	0002b707          	fld	f14,0(x5)
    800000f8:	0002b787          	fld	f15,0(x5)
    800000fc:	0002b807          	fld	f16,0(x5)
    80000100:	0002b887          	fld	f17,0(x5)
    80000104:	0002b907          	fld	f18,0(x5)
    80000108:	0002b987          	fld	f19,0(x5)
    8000010c:	0002ba07          	fld	f20,0(x5)
    80000110:	0002ba87          	fld	f21,0(x5)
    80000114:	0002bb07          	fld	f22,0(x5)
    80000118:	0002bb87          	fld	f23,0(x5)
    8000011c:	0002bc07          	fld	f24,0(x5)
    80000120:	0002bc87          	fld	f25,0(x5)
    80000124:	0002bd07          	fld	f26,0(x5)
    80000128:	0002bd87          	fld	f27,0(x5)
    8000012c:	0002be07          	fld	f28,0(x5)
    80000130:	0002be87          	fld	f29,0(x5)
    80000134:	0002bf07          	fld	f30,0(x5)
    80000138:	0002bf87          	fld	f31,0(x5)

000000008000013c <loader__init_vector_registers>:
    8000013c:	00000213          	li	x4,0
    80000140:	00400293          	li	x5,4
    80000144:	0d800313          	li	x6,216
    80000148:	8062f257          	vsetvl	x4,x5,x6
    8000014c:	5e004057          	vmv.v.x	v0,x0
    80000150:	5e0040d7          	vmv.v.x	v1,x0
    80000154:	5e004157          	vmv.v.x	v2,x0
    80000158:	5e0041d7          	vmv.v.x	v3,x0
    8000015c:	5e004257          	vmv.v.x	v4,x0
    80000160:	5e0042d7          	vmv.v.x	v5,x0
    80000164:	5e004357          	vmv.v.x	v6,x0
    80000168:	5e0043d7          	vmv.v.x	v7,x0
    8000016c:	5e004457          	vmv.v.x	v8,x0
    80000170:	5e0044d7          	vmv.v.x	v9,x0
    80000174:	5e004557          	vmv.v.x	v10,x0
    80000178:	5e0045d7          	vmv.v.x	v11,x0
    8000017c:	5e004657          	vmv.v.x	v12,x0
    80000180:	5e0046d7          	vmv.v.x	v13,x0
    80000184:	5e004757          	vmv.v.x	v14,x0
    80000188:	5e0047d7          	vmv.v.x	v15,x0
    8000018c:	5e004857          	vmv.v.x	v16,x0
    80000190:	5e0048d7          	vmv.v.x	v17,x0
    80000194:	5e004957          	vmv.v.x	v18,x0
    80000198:	5e0049d7          	vmv.v.x	v19,x0
    8000019c:	5e004a57          	vmv.v.x	v20,x0
    800001a0:	5e004ad7          	vmv.v.x	v21,x0
    800001a4:	5e004b57          	vmv.v.x	v22,x0
    800001a8:	5e004bd7          	vmv.v.x	v23,x0
    800001ac:	5e004c57          	vmv.v.x	v24,x0
    800001b0:	5e004cd7          	vmv.v.x	v25,x0
    800001b4:	5e004d57          	vmv.v.x	v26,x0
    800001b8:	5e004dd7          	vmv.v.x	v27,x0
    800001bc:	5e004e57          	vmv.v.x	v28,x0
    800001c0:	5e004ed7          	vmv.v.x	v29,x0
    800001c4:	5e004f57          	vmv.v.x	v30,x0
    800001c8:	5e004fd7          	vmv.v.x	v31,x0
    800001cc:	00432237          	lui	x4,0x432
    800001d0:	a892021b          	addiw	x4,x4,-1399 # 431a89 <__section_os_data_1+0xb6a89>
    800001d4:	00e21213          	slli	x4,x4,0xe
    800001d8:	34021073          	csrw	mscratch,x4
    800001dc:	0009d237          	lui	x4,0x9d
    800001e0:	14021073          	csrw	sscratch,x4
    800001e4:	00432237          	lui	x4,0x432
    800001e8:	a892021b          	addiw	x4,x4,-1399 # 431a89 <__section_os_data_1+0xb6a89>
    800001ec:	00e21213          	slli	x4,x4,0xe

00000000800001f0 <loader__setup_medeleg>:
    800001f0:	009262b7          	lui	x5,0x926
    800001f4:	e472829b          	addiw	x5,x5,-441 # 925e47 <mem3+0x34ee47>
    800001f8:	00c29293          	slli	x5,x5,0xc
    800001fc:	49b28293          	addi	x5,x5,1179
    80000200:	00c29293          	slli	x5,x5,0xc
    80000204:	57528293          	addi	x5,x5,1397
    80000208:	00c29293          	slli	x5,x5,0xc
    8000020c:	0d128293          	addi	x5,x5,209
    80000210:	30229073          	csrw	medeleg,x5

0000000080000214 <loader__setup_mideleg>:
    80000214:	28000293          	li	x5,640
    80000218:	30329073          	csrw	mideleg,x5

000000008000021c <loader__setup_tvec>:
    8000021c:	00000297          	auipc	x5,0x0
    80000220:	50828293          	addi	x5,x5,1288 # 80000724 <trap_handler_m__trap_entry>
    80000224:	30529073          	csrw	mtvec,x5
    80000228:	00010297          	auipc	x5,0x10
    8000022c:	e5028293          	addi	x5,x5,-432 # 80010078 <trap_handler_s__trap_entry>
    80000230:	10529073          	csrw	stvec,x5

0000000080000234 <loader__enable_paging>:
    80000234:	fffc00b7          	lui	x1,0xfffc0
    80000238:	0e50809b          	addiw	x1,x1,229 # fffffffffffc00e5 <mem2+0x23a92440e5>
    8000023c:	01109093          	slli	x1,x1,0x11
    80000240:	0a708093          	addi	x1,x1,167
    80000244:	00d09093          	slli	x1,x1,0xd
    80000248:	4a508093          	addi	x1,x1,1189
    8000024c:	00f09093          	slli	x1,x1,0xf
    80000250:	bee08093          	addi	x1,x1,-1042
    80000254:	18009073          	csrw	satp,x1

0000000080000258 <loader__done>:
    80000258:	2450006f          	j	80000c9c <scheduler__init>

000000008000025c <loader__panic>:
    8000025c:	2190006f          	j	80000c74 <eot__failed>

0000000080000260 <syscalls__syscall_check_schedule_next_test>:
    80000260:	00f0029b          	addiw	x5,x0,15
    80000264:	01c29293          	slli	x5,x5,0x1c
    80000268:	00128293          	addi	x5,x5,1
    8000026c:	01f29a63          	bne	x5,x31,80000280 <syscalls__syscall_check_fail_test>
    80000270:	00000317          	auipc	x6,0x0
    80000274:	4b430313          	addi	x6,x6,1204 # 80000724 <trap_handler_m__trap_entry>
    80000278:	30531073          	csrw	mtvec,x6
    8000027c:	6ec0006f          	j	80000968 <enter_scheduler>

0000000080000280 <syscalls__syscall_check_fail_test>:
    80000280:	00f0029b          	addiw	x5,x0,15
    80000284:	01c29293          	slli	x5,x5,0x1c
    80000288:	00228293          	addi	x5,x5,2
    8000028c:	01f29a63          	bne	x5,x31,800002a0 <syscalls__syscall_check_end_test_without_failure>
    80000290:	00000317          	auipc	x6,0x0
    80000294:	49430313          	addi	x6,x6,1172 # 80000724 <trap_handler_m__trap_entry>
    80000298:	30531073          	csrw	mtvec,x6
    8000029c:	6fc0006f          	j	80000998 <test_failed>

00000000800002a0 <syscalls__syscall_check_end_test_without_failure>:
    800002a0:	00f0029b          	addiw	x5,x0,15
    800002a4:	01c29293          	slli	x5,x5,0x1c
    800002a8:	00328293          	addi	x5,x5,3
    800002ac:	01f29a63          	bne	x5,x31,800002c0 <syscalls__syscall_check_switch_machine_mode>
    800002b0:	00000317          	auipc	x6,0x0
    800002b4:	47430313          	addi	x6,x6,1140 # 80000724 <trap_handler_m__trap_entry>
    800002b8:	30531073          	csrw	mtvec,x6
    800002bc:	6e80006f          	j	800009a4 <os_end_test>

00000000800002c0 <syscalls__syscall_check_switch_machine_mode>:
    800002c0:	000f02b7          	lui	x5,0xf0
    800002c4:	0012829b          	addiw	x5,x5,1 # f0001 <current_test_index+0x52e69>
    800002c8:	00c29293          	slli	x5,x5,0xc
    800002cc:	00128293          	addi	x5,x5,1
    800002d0:	0a5f8463          	beq	x31,x5,80000378 <syscalls__os_fn_f0001001>

00000000800002d4 <syscalls__syscall_check_switch_super_mode>:
    800002d4:	000f02b7          	lui	x5,0xf0
    800002d8:	0012829b          	addiw	x5,x5,1 # f0001 <current_test_index+0x52e69>
    800002dc:	00c29293          	slli	x5,x5,0xc
    800002e0:	00228293          	addi	x5,x5,2
    800002e4:	0c5f8463          	beq	x31,x5,800003ac <syscalls__os_fn_f0001002>

00000000800002e8 <syscalls__syscall_check_switch_user_mode>:
    800002e8:	000f02b7          	lui	x5,0xf0
    800002ec:	0012829b          	addiw	x5,x5,1 # f0001 <current_test_index+0x52e69>
    800002f0:	00c29293          	slli	x5,x5,0xc
    800002f4:	00328293          	addi	x5,x5,3
    800002f8:	0c5f8263          	beq	x31,x5,800003bc <syscalls__os_fn_f0001003>

00000000800002fc <syscalls__syscall_check_switch_test_mode>:
    800002fc:	000f02b7          	lui	x5,0xf0
    80000300:	0012829b          	addiw	x5,x5,1 # f0001 <current_test_index+0x52e69>
    80000304:	00c29293          	slli	x5,x5,0xc
    80000308:	00428293          	addi	x5,x5,4
    8000030c:	0e5f8063          	beq	x31,x5,800003ec <syscalls__os_fn_f0001004>

0000000080000310 <syscalls__syscall_machine_csr_rw>:
    80000310:	000f02b7          	lui	x5,0xf0
    80000314:	0012829b          	addiw	x5,x5,1 # f0001 <current_test_index+0x52e69>
    80000318:	00c29293          	slli	x5,x5,0xc
    8000031c:	00528293          	addi	x5,x5,5
    80000320:	0e5f8c63          	beq	x31,x5,80000418 <syscalls__os_fn_f0001005>

0000000080000324 <syscalls__syscall_supervisor_csr_rw>:
    80000324:	000f02b7          	lui	x5,0xf0
    80000328:	0012829b          	addiw	x5,x5,1 # f0001 <current_test_index+0x52e69>
    8000032c:	00c29293          	slli	x5,x5,0xc
    80000330:	00628293          	addi	x5,x5,6
    80000334:	105f8c63          	beq	x31,x5,8000044c <syscalls__os_fn_f0001006>

0000000080000338 <syscalls__syscall_machine_pte_read>:
    80000338:	000f02b7          	lui	x5,0xf0
    8000033c:	0012829b          	addiw	x5,x5,1 # f0001 <current_test_index+0x52e69>
    80000340:	00c29293          	slli	x5,x5,0xc
    80000344:	00728293          	addi	x5,x5,7
    80000348:	105f8a63          	beq	x31,x5,8000045c <syscalls__os_fn_f0001007>

000000008000034c <syscalls__syscall_machine_pte_write>:
    8000034c:	000f02b7          	lui	x5,0xf0
    80000350:	0012829b          	addiw	x5,x5,1 # f0001 <current_test_index+0x52e69>
    80000354:	00c29293          	slli	x5,x5,0xc
    80000358:	00828293          	addi	x5,x5,8
    8000035c:	205f8a63          	beq	x31,x5,80000570 <syscalls__os_fn_f0001008>

0000000080000360 <syscalls__syscall_check_get_hart_context>:
    80000360:	000782b7          	lui	x5,0x78
    80000364:	0012829b          	addiw	x5,x5,1 # 78001 <mem4+0x25001>
    80000368:	00d29293          	slli	x5,x5,0xd
    8000036c:	00128293          	addi	x5,x5,1
    80000370:	305f8a63          	beq	x31,x5,80000684 <syscalls__os_get_hart_context>
    80000374:	50c0006f          	j	80000880 <trap_handler_m__check_exception_label>

0000000080000378 <syscalls__os_fn_f0001001>:
    80000378:	000022b7          	lui	x5,0x2
    8000037c:	8002829b          	addiw	x5,x5,-2048 # 1800 <FS_RANDOMIZATION+0x179c>
    80000380:	3002b073          	csrc	mstatus,x5
    80000384:	000022b7          	lui	x5,0x2
    80000388:	8002829b          	addiw	x5,x5,-2048 # 1800 <FS_RANDOMIZATION+0x179c>
    8000038c:	3002a073          	csrs	mstatus,x5
    80000390:	0010029b          	addiw	x5,x0,1
    80000394:	02729293          	slli	x5,x5,0x27
    80000398:	3002b073          	csrc	mstatus,x5
    8000039c:	000202b7          	lui	x5,0x20
    800003a0:	0652829b          	addiw	x5,x5,101 # 20065 <_all_interrupts+0x1d5bb>
    800003a4:	00e29293          	slli	x5,x5,0xe
    800003a8:	2ec0006f          	j	80000694 <syscalls__ret_from_os_fn>

00000000800003ac <syscalls__os_fn_f0001002>:
    800003ac:	000202b7          	lui	x5,0x20
    800003b0:	0252829b          	addiw	x5,x5,37 # 20025 <_all_interrupts+0x1d57b>
    800003b4:	00e29293          	slli	x5,x5,0xe
    800003b8:	2dc0006f          	j	80000694 <syscalls__ret_from_os_fn>

00000000800003bc <syscalls__os_fn_f0001003>:
    800003bc:	000022b7          	lui	x5,0x2
    800003c0:	8002829b          	addiw	x5,x5,-2048 # 1800 <FS_RANDOMIZATION+0x179c>
    800003c4:	3002b073          	csrc	mstatus,x5
    800003c8:	00000293          	li	x5,0
    800003cc:	3002a073          	csrs	mstatus,x5
    800003d0:	0010029b          	addiw	x5,x0,1
    800003d4:	02729293          	slli	x5,x5,0x27
    800003d8:	3002b073          	csrc	mstatus,x5
    800003dc:	000202b7          	lui	x5,0x20
    800003e0:	0452829b          	addiw	x5,x5,69 # 20045 <_all_interrupts+0x1d59b>
    800003e4:	00e29293          	slli	x5,x5,0xe
    800003e8:	2ac0006f          	j	80000694 <syscalls__ret_from_os_fn>

00000000800003ec <syscalls__os_fn_f0001004>:
    800003ec:	000022b7          	lui	x5,0x2
    800003f0:	8002829b          	addiw	x5,x5,-2048 # 1800 <FS_RANDOMIZATION+0x179c>
    800003f4:	3002b073          	csrc	mstatus,x5
    800003f8:	000012b7          	lui	x5,0x1
    800003fc:	8002829b          	addiw	x5,x5,-2048 # 800 <FS_RANDOMIZATION+0x79c>
    80000400:	3002a073          	csrs	mstatus,x5
    80000404:	0010029b          	addiw	x5,x0,1
    80000408:	02729293          	slli	x5,x5,0x27
    8000040c:	3002b073          	csrc	mstatus,x5
    80000410:	17823283          	ld	x5,376(x4) # 178 <FS_RANDOMIZATION+0x114>
    80000414:	2800006f          	j	80000694 <syscalls__ret_from_os_fn>

0000000080000418 <syscalls__os_fn_f0001005>:
    80000418:	000022b7          	lui	x5,0x2
    8000041c:	8002829b          	addiw	x5,x5,-2048 # 1800 <FS_RANDOMIZATION+0x179c>
    80000420:	3002b073          	csrc	mstatus,x5
    80000424:	000022b7          	lui	x5,0x2
    80000428:	8002829b          	addiw	x5,x5,-2048 # 1800 <FS_RANDOMIZATION+0x179c>
    8000042c:	3002a073          	csrs	mstatus,x5
    80000430:	0010029b          	addiw	x5,x0,1
    80000434:	02729293          	slli	x5,x5,0x27
    80000438:	3002b073          	csrc	mstatus,x5
    8000043c:	000202b7          	lui	x5,0x20
    80000440:	0852829b          	addiw	x5,x5,133 # 20085 <_all_interrupts+0x1d5db>
    80000444:	00e29293          	slli	x5,x5,0xe
    80000448:	24c0006f          	j	80000694 <syscalls__ret_from_os_fn>

000000008000044c <syscalls__os_fn_f0001006>:
    8000044c:	000802b7          	lui	x5,0x80
    80000450:	2152829b          	addiw	x5,x5,533 # 80215 <mem4+0x2d215>
    80000454:	00c29293          	slli	x5,x5,0xc
    80000458:	23c0006f          	j	80000694 <syscalls__ret_from_os_fn>

000000008000045c <syscalls__os_fn_f0001007>:
    8000045c:	00455fb7          	lui	x31,0x455
    80000460:	e49f8f9b          	addiw	x31,x31,-439 # 454e49 <SID_29_pm_xtvec_tagged_address_stack+0x6e49>
    80000464:	00ef9f93          	slli	x31,x31,0xe
    80000468:	0b0f8f93          	addi	x31,x31,176
    8000046c:	000fbf83          	ld	x31,0(x31)
    80000470:	004552b7          	lui	x5,0x455
    80000474:	e492829b          	addiw	x5,x5,-439 # 454e49 <SID_29_pm_xtvec_tagged_address_stack+0x6e49>
    80000478:	00e29293          	slli	x5,x5,0xe
    8000047c:	0b828293          	addi	x5,x5,184
    80000480:	0002b283          	ld	x5,0(x5)
    80000484:	00455e37          	lui	x28,0x455
    80000488:	e49e0e1b          	addiw	x28,x28,-439 # 454e49 <SID_29_pm_xtvec_tagged_address_stack+0x6e49>
    8000048c:	00ee1e13          	slli	x28,x28,0xe
    80000490:	0c0e0e13          	addi	x28,x28,192
    80000494:	000e3e03          	ld	x28,0(x28)

0000000080000498 <syscalls__pte_walk_check_glevel_without_gstage_read>:
    80000498:	fff00f93          	li	x31,-1
    8000049c:	0dfe1863          	bne	x28,x31,8000056c <syscalls__pte_walk_fail_read>
    800004a0:	18002373          	csrr	x6,satp
    800004a4:	03c35e93          	srli	x29,x6,0x3c
    800004a8:	01431313          	slli	x6,x6,0x14
    800004ac:	01435313          	srli	x6,x6,0x14
    800004b0:	00c31313          	slli	x6,x6,0xc
    800004b4:	ff8e8e93          	addi	x29,x29,-8
    800004b8:	003e9f13          	slli	x30,x29,0x3
    800004bc:	01df0eb3          	add	x29,x30,x29
    800004c0:	01ee8e93          	addi	x29,x29,30
    800004c4:	00000f13          	li	x30,0

00000000800004c8 <syscalls__pte_walk_loop_read>:
    800004c8:	00455fb7          	lui	x31,0x455
    800004cc:	e49f8f9b          	addiw	x31,x31,-439 # 454e49 <SID_29_pm_xtvec_tagged_address_stack+0x6e49>
    800004d0:	00ef9f93          	slli	x31,x31,0xe
    800004d4:	0b0f8f93          	addi	x31,x31,176
    800004d8:	000fbf83          	ld	x31,0(x31)
    800004dc:	01dfdfb3          	srl	x31,x31,x29
    800004e0:	1fffff93          	andi	x31,x31,511
    800004e4:	003f9f93          	slli	x31,x31,0x3
    800004e8:	01f30333          	add	x6,x6,x31
    800004ec:	005f0e63          	beq	x30,x5,80000508 <syscalls__pte_walk_done_read>
    800004f0:	00033f83          	ld	x31,0(x6)
    800004f4:	00afdf93          	srli	x31,x31,0xa
    800004f8:	00cf9313          	slli	x6,x31,0xc
    800004fc:	001f0f13          	addi	x30,x30,1
    80000500:	ff7e8e93          	addi	x29,x29,-9
    80000504:	fc5ff06f          	j	800004c8 <syscalls__pte_walk_loop_read>

0000000080000508 <syscalls__pte_walk_done_read>:
    80000508:	fff00f93          	li	x31,-1
    8000050c:	05fe0663          	beq	x28,x31,80000558 <syscalls__pte_walk_final_read>

0000000080000510 <syscalls__pte_walk_gstage_read>:
    80000510:	00455fb7          	lui	x31,0x455
    80000514:	e49f8f9b          	addiw	x31,x31,-439 # 454e49 <SID_29_pm_xtvec_tagged_address_stack+0x6e49>
    80000518:	00ef9f93          	slli	x31,x31,0xe
    8000051c:	0b0f8f93          	addi	x31,x31,176
    80000520:	006fb023          	sd	x6,0(x31)
    80000524:	000e0293          	mv	x5,x28
    80000528:	fff00e13          	li	x28,-1
    8000052c:	68002373          	csrr	x6,hgatp
    80000530:	03c35e93          	srli	x29,x6,0x3c
    80000534:	01431313          	slli	x6,x6,0x14
    80000538:	01435313          	srli	x6,x6,0x14
    8000053c:	00c31313          	slli	x6,x6,0xc
    80000540:	ff8e8e93          	addi	x29,x29,-8
    80000544:	003e9f13          	slli	x30,x29,0x3
    80000548:	01df0eb3          	add	x29,x30,x29
    8000054c:	01ee8e93          	addi	x29,x29,30
    80000550:	00000f13          	li	x30,0
    80000554:	f75ff06f          	j	800004c8 <syscalls__pte_walk_loop_read>

0000000080000558 <syscalls__pte_walk_final_read>:
    80000558:	00033383          	ld	x7,0(x6)
    8000055c:	341022f3          	csrr	x5,mepc
    80000560:	00428293          	addi	x5,x5,4
    80000564:	16523c23          	sd	x5,376(x4) # 178 <FS_RANDOMIZATION+0x114>
    80000568:	e85ff06f          	j	800003ec <syscalls__os_fn_f0001004>

000000008000056c <syscalls__pte_walk_fail_read>:
    8000056c:	42c0006f          	j	80000998 <test_failed>

0000000080000570 <syscalls__os_fn_f0001008>:
    80000570:	00455fb7          	lui	x31,0x455
    80000574:	e49f8f9b          	addiw	x31,x31,-439 # 454e49 <SID_29_pm_xtvec_tagged_address_stack+0x6e49>
    80000578:	00ef9f93          	slli	x31,x31,0xe
    8000057c:	0b0f8f93          	addi	x31,x31,176
    80000580:	000fbf83          	ld	x31,0(x31)
    80000584:	004552b7          	lui	x5,0x455
    80000588:	e492829b          	addiw	x5,x5,-439 # 454e49 <SID_29_pm_xtvec_tagged_address_stack+0x6e49>
    8000058c:	00e29293          	slli	x5,x5,0xe
    80000590:	0b828293          	addi	x5,x5,184
    80000594:	0002b283          	ld	x5,0(x5)
    80000598:	00455e37          	lui	x28,0x455
    8000059c:	e49e0e1b          	addiw	x28,x28,-439 # 454e49 <SID_29_pm_xtvec_tagged_address_stack+0x6e49>
    800005a0:	00ee1e13          	slli	x28,x28,0xe
    800005a4:	0c0e0e13          	addi	x28,x28,192
    800005a8:	000e3e03          	ld	x28,0(x28)

00000000800005ac <syscalls__pte_walk_check_glevel_without_gstage_write>:
    800005ac:	fff00f93          	li	x31,-1
    800005b0:	0dfe1863          	bne	x28,x31,80000680 <syscalls__pte_walk_fail_write>
    800005b4:	18002373          	csrr	x6,satp
    800005b8:	03c35e93          	srli	x29,x6,0x3c
    800005bc:	01431313          	slli	x6,x6,0x14
    800005c0:	01435313          	srli	x6,x6,0x14
    800005c4:	00c31313          	slli	x6,x6,0xc
    800005c8:	ff8e8e93          	addi	x29,x29,-8
    800005cc:	003e9f13          	slli	x30,x29,0x3
    800005d0:	01df0eb3          	add	x29,x30,x29
    800005d4:	01ee8e93          	addi	x29,x29,30
    800005d8:	00000f13          	li	x30,0

00000000800005dc <syscalls__pte_walk_loop_write>:
    800005dc:	00455fb7          	lui	x31,0x455
    800005e0:	e49f8f9b          	addiw	x31,x31,-439 # 454e49 <SID_29_pm_xtvec_tagged_address_stack+0x6e49>
    800005e4:	00ef9f93          	slli	x31,x31,0xe
    800005e8:	0b0f8f93          	addi	x31,x31,176
    800005ec:	000fbf83          	ld	x31,0(x31)
    800005f0:	01dfdfb3          	srl	x31,x31,x29
    800005f4:	1fffff93          	andi	x31,x31,511
    800005f8:	003f9f93          	slli	x31,x31,0x3
    800005fc:	01f30333          	add	x6,x6,x31
    80000600:	005f0e63          	beq	x30,x5,8000061c <syscalls__pte_walk_done_write>
    80000604:	00033f83          	ld	x31,0(x6)
    80000608:	00afdf93          	srli	x31,x31,0xa
    8000060c:	00cf9313          	slli	x6,x31,0xc
    80000610:	001f0f13          	addi	x30,x30,1
    80000614:	ff7e8e93          	addi	x29,x29,-9
    80000618:	fc5ff06f          	j	800005dc <syscalls__pte_walk_loop_write>

000000008000061c <syscalls__pte_walk_done_write>:
    8000061c:	fff00f93          	li	x31,-1
    80000620:	05fe0663          	beq	x28,x31,8000066c <syscalls__pte_walk_final_write>

0000000080000624 <syscalls__pte_walk_gstage_write>:
    80000624:	00455fb7          	lui	x31,0x455
    80000628:	e49f8f9b          	addiw	x31,x31,-439 # 454e49 <SID_29_pm_xtvec_tagged_address_stack+0x6e49>
    8000062c:	00ef9f93          	slli	x31,x31,0xe
    80000630:	0b0f8f93          	addi	x31,x31,176
    80000634:	006fb023          	sd	x6,0(x31)
    80000638:	000e0293          	mv	x5,x28
    8000063c:	fff00e13          	li	x28,-1
    80000640:	68002373          	csrr	x6,hgatp
    80000644:	03c35e93          	srli	x29,x6,0x3c
    80000648:	01431313          	slli	x6,x6,0x14
    8000064c:	01435313          	srli	x6,x6,0x14
    80000650:	00c31313          	slli	x6,x6,0xc
    80000654:	ff8e8e93          	addi	x29,x29,-8
    80000658:	003e9f13          	slli	x30,x29,0x3
    8000065c:	01df0eb3          	add	x29,x30,x29
    80000660:	01ee8e93          	addi	x29,x29,30
    80000664:	00000f13          	li	x30,0
    80000668:	f75ff06f          	j	800005dc <syscalls__pte_walk_loop_write>

000000008000066c <syscalls__pte_walk_final_write>:
    8000066c:	00733023          	sd	x7,0(x6)
    80000670:	341022f3          	csrr	x5,mepc
    80000674:	00428293          	addi	x5,x5,4
    80000678:	16523c23          	sd	x5,376(x4) # 178 <FS_RANDOMIZATION+0x114>
    8000067c:	d71ff06f          	j	800003ec <syscalls__os_fn_f0001004>

0000000080000680 <syscalls__pte_walk_fail_write>:
    80000680:	3180006f          	j	80000998 <test_failed>

0000000080000684 <syscalls__os_get_hart_context>:
    80000684:	14002573          	csrr	x10,sscratch
    80000688:	341022f3          	csrr	x5,mepc
    8000068c:	00428293          	addi	x5,x5,4
    80000690:	0040006f          	j	80000694 <syscalls__ret_from_os_fn>

0000000080000694 <syscalls__ret_from_os_fn>:
    80000694:	34102373          	csrr	x6,mepc
    80000698:	00430313          	addi	x6,x6,4
    8000069c:	16623c23          	sd	x6,376(x4) # 178 <FS_RANDOMIZATION+0x114>
    800006a0:	34129073          	csrw	mepc,x5
    800006a4:	fff00f93          	li	x31,-1
    800006a8:	2a40006f          	j	8000094c <trap_handler_m__skip_xepc_write>

00000000800006ac <trap_handler_m__invalid_interrupt>:
    800006ac:	2ec0006f          	j	80000998 <test_failed>

00000000800006b0 <trap_handler_m__clear_all_interrupts>:
    800006b0:	34401073          	csrw	mip,x0
    800006b4:	30200073          	mret

00000000800006b8 <trap_handler_m___CLEAR_SSI>:
    800006b8:	00200293          	li	x5,2
    800006bc:	3442b073          	csrc	mip,x5
    800006c0:	30200073          	mret

00000000800006c4 <trap_handler_m___CLEAR_MSI>:
    800006c4:	00800293          	li	x5,8
    800006c8:	3442b073          	csrc	mip,x5
    800006cc:	30200073          	mret

00000000800006d0 <trap_handler_m___CLEAR_STI>:
    800006d0:	02000293          	li	x5,32
    800006d4:	3442b073          	csrc	mip,x5
    800006d8:	30200073          	mret

00000000800006dc <trap_handler_m___CLEAR_MTI>:
    800006dc:	08000293          	li	x5,128
    800006e0:	3442b073          	csrc	mip,x5
    800006e4:	30200073          	mret

00000000800006e8 <trap_handler_m___CLEAR_SEI>:
    800006e8:	20000293          	li	x5,512
    800006ec:	3442b073          	csrc	mip,x5
    800006f0:	30200073          	mret

00000000800006f4 <trap_handler_m___CLEAR_MEI>:
    800006f4:	000012b7          	lui	x5,0x1
    800006f8:	8002829b          	addiw	x5,x5,-2048 # 800 <FS_RANDOMIZATION+0x79c>
    800006fc:	3442b073          	csrc	mip,x5
    80000700:	30200073          	mret

0000000080000704 <trap_handler_m___CLEAR_COI>:
    80000704:	000022b7          	lui	x5,0x2
    80000708:	3442b073          	csrc	mip,x5
    8000070c:	30200073          	mret

0000000080000710 <trap_handler_m__clear_highest_priority_interrupt>:
    80000710:	344022f3          	csrr	x5,mip
    80000714:	40500333          	neg	x6,x5
    80000718:	0062f2b3          	and	x5,x5,x6
    8000071c:	3442b073          	csrc	mip,x5
    80000720:	30200073          	mret

0000000080000724 <trap_handler_m__trap_entry>:
    80000724:	0fc0006f          	j	80000820 <trap_handler_m__trap_handler>

0000000080000728 <trap_handler_m__interrupt_vector_table>:
    80000728:	f91ff06f          	j	800006b8 <trap_handler_m___CLEAR_SSI>
    8000072c:	f81ff06f          	j	800006ac <trap_handler_m__invalid_interrupt>
    80000730:	f95ff06f          	j	800006c4 <trap_handler_m___CLEAR_MSI>
    80000734:	f79ff06f          	j	800006ac <trap_handler_m__invalid_interrupt>
    80000738:	f99ff06f          	j	800006d0 <trap_handler_m___CLEAR_STI>
    8000073c:	f71ff06f          	j	800006ac <trap_handler_m__invalid_interrupt>
    80000740:	f9dff06f          	j	800006dc <trap_handler_m___CLEAR_MTI>
    80000744:	f69ff06f          	j	800006ac <trap_handler_m__invalid_interrupt>
    80000748:	fa1ff06f          	j	800006e8 <trap_handler_m___CLEAR_SEI>
    8000074c:	f61ff06f          	j	800006ac <trap_handler_m__invalid_interrupt>
    80000750:	fa5ff06f          	j	800006f4 <trap_handler_m___CLEAR_MEI>
    80000754:	f59ff06f          	j	800006ac <trap_handler_m__invalid_interrupt>
    80000758:	fadff06f          	j	80000704 <trap_handler_m___CLEAR_COI>
    8000075c:	f51ff06f          	j	800006ac <trap_handler_m__invalid_interrupt>
    80000760:	f4dff06f          	j	800006ac <trap_handler_m__invalid_interrupt>
    80000764:	fadff06f          	j	80000710 <trap_handler_m__clear_highest_priority_interrupt>
    80000768:	fa9ff06f          	j	80000710 <trap_handler_m__clear_highest_priority_interrupt>
    8000076c:	fa5ff06f          	j	80000710 <trap_handler_m__clear_highest_priority_interrupt>
    80000770:	fa1ff06f          	j	80000710 <trap_handler_m__clear_highest_priority_interrupt>
    80000774:	f9dff06f          	j	80000710 <trap_handler_m__clear_highest_priority_interrupt>
    80000778:	f99ff06f          	j	80000710 <trap_handler_m__clear_highest_priority_interrupt>
    8000077c:	f95ff06f          	j	80000710 <trap_handler_m__clear_highest_priority_interrupt>
    80000780:	f91ff06f          	j	80000710 <trap_handler_m__clear_highest_priority_interrupt>
    80000784:	f8dff06f          	j	80000710 <trap_handler_m__clear_highest_priority_interrupt>
    80000788:	f89ff06f          	j	80000710 <trap_handler_m__clear_highest_priority_interrupt>
    8000078c:	f85ff06f          	j	80000710 <trap_handler_m__clear_highest_priority_interrupt>
    80000790:	f81ff06f          	j	80000710 <trap_handler_m__clear_highest_priority_interrupt>
    80000794:	f7dff06f          	j	80000710 <trap_handler_m__clear_highest_priority_interrupt>
    80000798:	f79ff06f          	j	80000710 <trap_handler_m__clear_highest_priority_interrupt>
    8000079c:	f75ff06f          	j	80000710 <trap_handler_m__clear_highest_priority_interrupt>
    800007a0:	f71ff06f          	j	80000710 <trap_handler_m__clear_highest_priority_interrupt>
    800007a4:	f6dff06f          	j	80000710 <trap_handler_m__clear_highest_priority_interrupt>
    800007a8:	f69ff06f          	j	80000710 <trap_handler_m__clear_highest_priority_interrupt>
    800007ac:	f65ff06f          	j	80000710 <trap_handler_m__clear_highest_priority_interrupt>
    800007b0:	f61ff06f          	j	80000710 <trap_handler_m__clear_highest_priority_interrupt>
    800007b4:	f5dff06f          	j	80000710 <trap_handler_m__clear_highest_priority_interrupt>
    800007b8:	f59ff06f          	j	80000710 <trap_handler_m__clear_highest_priority_interrupt>
    800007bc:	f55ff06f          	j	80000710 <trap_handler_m__clear_highest_priority_interrupt>
    800007c0:	f51ff06f          	j	80000710 <trap_handler_m__clear_highest_priority_interrupt>
    800007c4:	f4dff06f          	j	80000710 <trap_handler_m__clear_highest_priority_interrupt>
    800007c8:	f49ff06f          	j	80000710 <trap_handler_m__clear_highest_priority_interrupt>
    800007cc:	f45ff06f          	j	80000710 <trap_handler_m__clear_highest_priority_interrupt>
    800007d0:	f41ff06f          	j	80000710 <trap_handler_m__clear_highest_priority_interrupt>
    800007d4:	f3dff06f          	j	80000710 <trap_handler_m__clear_highest_priority_interrupt>
    800007d8:	f39ff06f          	j	80000710 <trap_handler_m__clear_highest_priority_interrupt>
    800007dc:	f35ff06f          	j	80000710 <trap_handler_m__clear_highest_priority_interrupt>
    800007e0:	f31ff06f          	j	80000710 <trap_handler_m__clear_highest_priority_interrupt>
    800007e4:	f2dff06f          	j	80000710 <trap_handler_m__clear_highest_priority_interrupt>
    800007e8:	f29ff06f          	j	80000710 <trap_handler_m__clear_highest_priority_interrupt>
    800007ec:	f25ff06f          	j	80000710 <trap_handler_m__clear_highest_priority_interrupt>
    800007f0:	f21ff06f          	j	80000710 <trap_handler_m__clear_highest_priority_interrupt>
    800007f4:	f1dff06f          	j	80000710 <trap_handler_m__clear_highest_priority_interrupt>
    800007f8:	f19ff06f          	j	80000710 <trap_handler_m__clear_highest_priority_interrupt>
    800007fc:	f15ff06f          	j	80000710 <trap_handler_m__clear_highest_priority_interrupt>
    80000800:	f11ff06f          	j	80000710 <trap_handler_m__clear_highest_priority_interrupt>
    80000804:	f0dff06f          	j	80000710 <trap_handler_m__clear_highest_priority_interrupt>
    80000808:	f09ff06f          	j	80000710 <trap_handler_m__clear_highest_priority_interrupt>
    8000080c:	f05ff06f          	j	80000710 <trap_handler_m__clear_highest_priority_interrupt>
    80000810:	f01ff06f          	j	80000710 <trap_handler_m__clear_highest_priority_interrupt>
    80000814:	efdff06f          	j	80000710 <trap_handler_m__clear_highest_priority_interrupt>
    80000818:	ef9ff06f          	j	80000710 <trap_handler_m__clear_highest_priority_interrupt>
    8000081c:	ef5ff06f          	j	80000710 <trap_handler_m__clear_highest_priority_interrupt>

0000000080000820 <trap_handler_m__trap_handler>:
    80000820:	342022f3          	csrr	x5,mcause
    80000824:	fff0031b          	addiw	x6,x0,-1
    80000828:	03f31313          	slli	x6,x6,0x3f
    8000082c:	00537333          	and	x6,x6,x5
    80000830:	02030263          	beqz	x6,80000854 <trap_handler_m__exception_path>

0000000080000834 <trap_handler_m__interrupt_handler>:
    80000834:	fff0031b          	addiw	x6,x0,-1
    80000838:	03f31313          	slli	x6,x6,0x3f
    8000083c:	0062c2b3          	xor	x5,x5,x6
    80000840:	00000317          	auipc	x6,0x0
    80000844:	ee430313          	addi	x6,x6,-284 # 80000724 <trap_handler_m__trap_entry>
    80000848:	00229293          	slli	x5,x5,0x2
    8000084c:	005302b3          	add	x5,x6,x5
    80000850:	00028067          	jr	x5 # 2000 <FS_RANDOMIZATION+0x1f9c>

0000000080000854 <trap_handler_m__exception_path>:
    80000854:	34021273          	csrrw	x4,mscratch,x4
    80000858:	00000297          	auipc	x5,0x0
    8000085c:	10828293          	addi	x5,x5,264 # 80000960 <trap_handler_m__trap_panic>
    80000860:	30529073          	csrw	mtvec,x5
    80000864:	0040006f          	j	80000868 <trap_handler_m__excp_entry>

0000000080000868 <trap_handler_m__excp_entry>:
    80000868:	34202373          	csrr	x6,mcause
    8000086c:	00800293          	li	x5,8
    80000870:	00534863          	blt	x6,x5,80000880 <trap_handler_m__check_exception_label>
    80000874:	00b00293          	li	x5,11
    80000878:	0062c463          	blt	x5,x6,80000880 <trap_handler_m__check_exception_label>
    8000087c:	9e5ff06f          	j	80000260 <syscalls__syscall_check_schedule_next_test>

0000000080000880 <trap_handler_m__check_exception_label>:
    80000880:	04623c23          	sd	x6,88(x4) # 58 <XLEN+0x18>
    80000884:	341022f3          	csrr	x5,mepc
    80000888:	02523423          	sd	x5,40(x4) # 28 <SECURE_ACCESS_PROBABILITY+0xa>
    8000088c:	01820283          	lb	x5,24(x4) # 18 <STORE_GUEST_PAGE_FAULT+0x1>
    80000890:	00029863          	bnez	x5,800008a0 <trap_handler_m__check_excp>
    80000894:	00128293          	addi	x5,x5,1
    80000898:	00520c23          	sb	x5,24(x4) # 18 <STORE_GUEST_PAGE_FAULT+0x1>
    8000089c:	0980006f          	j	80000934 <trap_handler_m__ecall_from_machine>

00000000800008a0 <trap_handler_m__check_excp>:
    800008a0:	06820293          	addi	x5,x4,104 # 68 <FS_RANDOMIZATION+0x4>
    800008a4:	0802b2af          	amoswap.d	x5,x0,(x5)
    800008a8:	00028663          	beqz	x5,800008b4 <trap_handler_m__skip_mode_check>
    800008ac:	00100393          	li	x7,1
    800008b0:	0e729463          	bne	x5,x7,80000998 <test_failed>

00000000800008b4 <trap_handler_m__skip_mode_check>:
    800008b4:	05020293          	addi	x5,x4,80 # 50 <XLEN+0x10>
    800008b8:	0802b2af          	amoswap.d	x5,x0,(x5)
    800008bc:	0c531e63          	bne	x6,x5,80000998 <test_failed>
    800008c0:	03820293          	addi	x5,x4,56 # 38 <SECURE_ACCESS_PROBABILITY+0x1a>
    800008c4:	0802b2af          	amoswap.d	x5,x0,(x5)
    800008c8:	06029463          	bnez	x5,80000930 <trap_handler_m__skip_gva_check>
    800008cc:	02020313          	addi	x6,x4,32 # 20 <SECURE_ACCESS_PROBABILITY+0x2>
    800008d0:	0803332f          	amoswap.d	x6,x0,(x6)
    800008d4:	02820293          	addi	x5,x4,40 # 28 <SECURE_ACCESS_PROBABILITY+0xa>
    800008d8:	0802b2af          	amoswap.d	x5,x0,(x5)
    800008dc:	0a531e63          	bne	x6,x5,80000998 <test_failed>
    800008e0:	04020293          	addi	x5,x4,64 # 40 <XLEN>
    800008e4:	0802b2af          	amoswap.d	x5,x0,(x5)
    800008e8:	00028663          	beqz	x5,800008f4 <trap_handler_m__skip_nonzero_tval_check>

00000000800008ec <trap_handler_m__nonzero_tval_check>:
    800008ec:	34302373          	csrr	x6,mtval
    800008f0:	0a531463          	bne	x6,x5,80000998 <test_failed>

00000000800008f4 <trap_handler_m__skip_nonzero_tval_check>:
    800008f4:	04820293          	addi	x5,x4,72 # 48 <XLEN+0x8>
    800008f8:	0802b2af          	amoswap.d	x5,x0,(x5)
    800008fc:	00028663          	beqz	x5,80000908 <trap_handler_m__skip_nonzero_htval_check>

0000000080000900 <trap_handler_m__nonzero_htval_check>:
    80000900:	34b02373          	csrr	x6,0x34b
    80000904:	08531a63          	bne	x6,x5,80000998 <test_failed>

0000000080000908 <trap_handler_m__skip_nonzero_htval_check>:
    80000908:	06020293          	addi	x5,x4,96 # 60 <XLEN+0x20>
    8000090c:	0802b2af          	amoswap.d	x5,x0,(x5)
    80000910:	02028063          	beqz	x5,80000930 <trap_handler_m__skip_gva_check>

0000000080000914 <trap_handler_m__gva_check>:
    80000914:	30002373          	csrr	x6,mstatus
    80000918:	02635313          	srli	x6,x6,0x26
    8000091c:	00137313          	andi	x6,x6,1
    80000920:	06030c63          	beqz	x6,80000998 <test_failed>
    80000924:	0010031b          	addiw	x6,x0,1
    80000928:	02631313          	slli	x6,x6,0x26
    8000092c:	30033073          	csrc	mstatus,x6

0000000080000930 <trap_handler_m__skip_gva_check>:
    80000930:	0040006f          	j	80000934 <trap_handler_m__ecall_from_machine>

0000000080000934 <trap_handler_m__ecall_from_machine>:
    80000934:	03020293          	addi	x5,x4,48 # 30 <SECURE_ACCESS_PROBABILITY+0x12>
    80000938:	0802b2af          	amoswap.d	x5,x0,(x5)
    8000093c:	07020313          	addi	x6,x4,112 # 70 <FS_RANDOMIZATION+0xc>
    80000940:	0803332f          	amoswap.d	x6,x0,(x6)
    80000944:	00031463          	bnez	x6,8000094c <trap_handler_m__skip_xepc_write>
    80000948:	34129073          	csrw	mepc,x5

000000008000094c <trap_handler_m__skip_xepc_write>:
    8000094c:	00000317          	auipc	x6,0x0
    80000950:	dd830313          	addi	x6,x6,-552 # 80000724 <trap_handler_m__trap_entry>
    80000954:	30531073          	csrw	mtvec,x6
    80000958:	34021273          	csrrw	x4,mscratch,x4
    8000095c:	30200073          	mret

0000000080000960 <trap_handler_m__trap_panic>:
    80000960:	00000193          	li	x3,0
    80000964:	2ec0006f          	j	80000c50 <eot__end_test>

0000000080000968 <enter_scheduler>:
    80000968:	0002f337          	lui	x6,0x2f
    8000096c:	ab73031b          	addiw	x6,x6,-1353 # 2eab7 <_all_interrupts+0x2c00d>
    80000970:	00e31313          	slli	x6,x6,0xe
    80000974:	0de30313          	addi	x6,x6,222
    80000978:	02628063          	beq	x5,x6,80000998 <test_failed>
    8000097c:	00000513          	li	x10,0
    80000980:	030000ef          	jal	800009b0 <rvcp_print_test_result>
    80000984:	3500006f          	j	80000cd4 <scheduler__dispatch>

0000000080000988 <test_passed>:
    80000988:	34021273          	csrrw	x4,mscratch,x4
    8000098c:	00000513          	li	x10,0
    80000990:	020000ef          	jal	800009b0 <rvcp_print_test_result>
    80000994:	3400006f          	j	80000cd4 <scheduler__dispatch>

0000000080000998 <test_failed>:
    80000998:	34021273          	csrrw	x4,mscratch,x4
    8000099c:	00300193          	li	x3,3
    800009a0:	2b00006f          	j	80000c50 <eot__end_test>

00000000800009a4 <os_end_test>:
    800009a4:	34021273          	csrrw	x4,mscratch,x4
    800009a8:	00100193          	li	x3,1
    800009ac:	2a40006f          	j	80000c50 <eot__end_test>

00000000800009b0 <rvcp_print_test_result>:
    800009b0:	00050e13          	mv	x28,x10
    800009b4:	19823283          	ld	x5,408(x4) # 198 <FS_RANDOMIZATION+0x134>
    800009b8:	0010031b          	addiw	x6,x0,1
    800009bc:	02031313          	slli	x6,x6,0x20
    800009c0:	ffe30313          	addi	x6,x6,-2
    800009c4:	1e628c63          	beq	x5,x6,80000bbc <rvcp_print_test_result+0x20c>
    800009c8:	0010031b          	addiw	x6,x0,1
    800009cc:	02031313          	slli	x6,x6,0x20
    800009d0:	fff30313          	addi	x6,x6,-1
    800009d4:	1e628463          	beq	x5,x6,80000bbc <rvcp_print_test_result+0x20c>
    800009d8:	1e02c263          	bltz	x5,80000bbc <rvcp_print_test_result+0x20c>
    800009dc:	00000317          	auipc	x6,0x0
    800009e0:	54830313          	addi	x6,x6,1352 # 80000f24 <dtest_descriptor_table>
    800009e4:	00329393          	slli	x7,x5,0x3
    800009e8:	00730333          	add	x6,x6,x7
    800009ec:	00033e83          	ld	x29,0(x6)
    800009f0:	00455f37          	lui	x30,0x455
    800009f4:	e49f0f1b          	addiw	x30,x30,-439 # 454e49 <SID_29_pm_xtvec_tagged_address_stack+0x6e49>
    800009f8:	00ef1f13          	slli	x30,x30,0xe
    800009fc:	030f0f13          	addi	x30,x30,48
    80000a00:	000f4283          	lbu	x5,0(x30)
    80000a04:	02028663          	beqz	x5,80000a30 <rvcp_print_test_result+0x80>
    80000a08:	1010031b          	addiw	x6,x0,257
    80000a0c:	03031313          	slli	x6,x6,0x30
    80000a10:	005362b3          	or	x5,x6,x5
    80000a14:	effff317          	auipc	x6,0xeffff
    80000a18:	5ec30313          	addi	x6,x6,1516 # 70000000 <tohost>
    80000a1c:	00033383          	ld	x7,0(x6)
    80000a20:	fe039ee3          	bnez	x7,80000a1c <rvcp_print_test_result+0x6c>
    80000a24:	00533023          	sd	x5,0(x6)
    80000a28:	001f0f13          	addi	x30,x30,1
    80000a2c:	fd5ff06f          	j	80000a00 <rvcp_print_test_result+0x50>
    80000a30:	00455f37          	lui	x30,0x455
    80000a34:	e49f0f1b          	addiw	x30,x30,-439 # 454e49 <SID_29_pm_xtvec_tagged_address_stack+0x6e49>
    80000a38:	00ef1f13          	slli	x30,x30,0xe
    80000a3c:	041f0f13          	addi	x30,x30,65
    80000a40:	000f4283          	lbu	x5,0(x30)
    80000a44:	02028663          	beqz	x5,80000a70 <rvcp_print_test_result+0xc0>
    80000a48:	1010031b          	addiw	x6,x0,257
    80000a4c:	03031313          	slli	x6,x6,0x30
    80000a50:	005362b3          	or	x5,x6,x5
    80000a54:	effff317          	auipc	x6,0xeffff
    80000a58:	5ac30313          	addi	x6,x6,1452 # 70000000 <tohost>
    80000a5c:	00033383          	ld	x7,0(x6)
    80000a60:	fe039ee3          	bnez	x7,80000a5c <rvcp_print_test_result+0xac>
    80000a64:	00533023          	sd	x5,0(x6)
    80000a68:	001f0f13          	addi	x30,x30,1
    80000a6c:	fd5ff06f          	j	80000a40 <rvcp_print_test_result+0x90>
    80000a70:	00455f37          	lui	x30,0x455
    80000a74:	e49f0f1b          	addiw	x30,x30,-439 # 454e49 <SID_29_pm_xtvec_tagged_address_stack+0x6e49>
    80000a78:	00ef1f13          	slli	x30,x30,0xe
    80000a7c:	059f0f13          	addi	x30,x30,89
    80000a80:	000f4283          	lbu	x5,0(x30)
    80000a84:	02028663          	beqz	x5,80000ab0 <rvcp_print_test_result+0x100>
    80000a88:	1010031b          	addiw	x6,x0,257
    80000a8c:	03031313          	slli	x6,x6,0x30
    80000a90:	005362b3          	or	x5,x6,x5
    80000a94:	effff317          	auipc	x6,0xeffff
    80000a98:	56c30313          	addi	x6,x6,1388 # 70000000 <tohost>
    80000a9c:	00033383          	ld	x7,0(x6)
    80000aa0:	fe039ee3          	bnez	x7,80000a9c <rvcp_print_test_result+0xec>
    80000aa4:	00533023          	sd	x5,0(x6)
    80000aa8:	001f0f13          	addi	x30,x30,1
    80000aac:	fd5ff06f          	j	80000a80 <rvcp_print_test_result+0xd0>
    80000ab0:	000e8f13          	mv	x30,x29
    80000ab4:	000f4283          	lbu	x5,0(x30)
    80000ab8:	02028663          	beqz	x5,80000ae4 <rvcp_print_test_result+0x134>
    80000abc:	1010031b          	addiw	x6,x0,257
    80000ac0:	03031313          	slli	x6,x6,0x30
    80000ac4:	005362b3          	or	x5,x6,x5
    80000ac8:	effff317          	auipc	x6,0xeffff
    80000acc:	53830313          	addi	x6,x6,1336 # 70000000 <tohost>
    80000ad0:	00033383          	ld	x7,0(x6)
    80000ad4:	fe039ee3          	bnez	x7,80000ad0 <rvcp_print_test_result+0x120>
    80000ad8:	00533023          	sd	x5,0(x6)
    80000adc:	001f0f13          	addi	x30,x30,1
    80000ae0:	fd5ff06f          	j	80000ab4 <rvcp_print_test_result+0x104>
    80000ae4:	00455f37          	lui	x30,0x455
    80000ae8:	e49f0f1b          	addiw	x30,x30,-439 # 454e49 <SID_29_pm_xtvec_tagged_address_stack+0x6e49>
    80000aec:	00ef1f13          	slli	x30,x30,0xe
    80000af0:	059f0f13          	addi	x30,x30,89
    80000af4:	000f4283          	lbu	x5,0(x30)
    80000af8:	02028663          	beqz	x5,80000b24 <rvcp_print_test_result+0x174>
    80000afc:	1010031b          	addiw	x6,x0,257
    80000b00:	03031313          	slli	x6,x6,0x30
    80000b04:	005362b3          	or	x5,x6,x5
    80000b08:	effff317          	auipc	x6,0xeffff
    80000b0c:	4f830313          	addi	x6,x6,1272 # 70000000 <tohost>
    80000b10:	00033383          	ld	x7,0(x6)
    80000b14:	fe039ee3          	bnez	x7,80000b10 <rvcp_print_test_result+0x160>
    80000b18:	00533023          	sd	x5,0(x6)
    80000b1c:	001f0f13          	addi	x30,x30,1
    80000b20:	fd5ff06f          	j	80000af4 <rvcp_print_test_result+0x144>
    80000b24:	000e1c63          	bnez	x28,80000b3c <rvcp_print_test_result+0x18c>
    80000b28:	00455f37          	lui	x30,0x455
    80000b2c:	e49f0f1b          	addiw	x30,x30,-439 # 454e49 <SID_29_pm_xtvec_tagged_address_stack+0x6e49>
    80000b30:	00ef1f13          	slli	x30,x30,0xe
    80000b34:	04bf0f13          	addi	x30,x30,75
    80000b38:	0140006f          	j	80000b4c <rvcp_print_test_result+0x19c>
    80000b3c:	00455f37          	lui	x30,0x455
    80000b40:	e49f0f1b          	addiw	x30,x30,-439 # 454e49 <SID_29_pm_xtvec_tagged_address_stack+0x6e49>
    80000b44:	00ef1f13          	slli	x30,x30,0xe
    80000b48:	052f0f13          	addi	x30,x30,82
    80000b4c:	000f4283          	lbu	x5,0(x30)
    80000b50:	02028663          	beqz	x5,80000b7c <rvcp_print_test_result+0x1cc>
    80000b54:	1010031b          	addiw	x6,x0,257
    80000b58:	03031313          	slli	x6,x6,0x30
    80000b5c:	005362b3          	or	x5,x6,x5
    80000b60:	effff317          	auipc	x6,0xeffff
    80000b64:	4a030313          	addi	x6,x6,1184 # 70000000 <tohost>
    80000b68:	00033383          	ld	x7,0(x6)
    80000b6c:	fe039ee3          	bnez	x7,80000b68 <rvcp_print_test_result+0x1b8>
    80000b70:	00533023          	sd	x5,0(x6)
    80000b74:	001f0f13          	addi	x30,x30,1
    80000b78:	fd5ff06f          	j	80000b4c <rvcp_print_test_result+0x19c>
    80000b7c:	00455f37          	lui	x30,0x455
    80000b80:	e49f0f1b          	addiw	x30,x30,-439 # 454e49 <SID_29_pm_xtvec_tagged_address_stack+0x6e49>
    80000b84:	00ef1f13          	slli	x30,x30,0xe
    80000b88:	05bf0f13          	addi	x30,x30,91
    80000b8c:	000f4283          	lbu	x5,0(x30)
    80000b90:	02028663          	beqz	x5,80000bbc <rvcp_print_test_result+0x20c>
    80000b94:	1010031b          	addiw	x6,x0,257
    80000b98:	03031313          	slli	x6,x6,0x30
    80000b9c:	005362b3          	or	x5,x6,x5
    80000ba0:	effff317          	auipc	x6,0xeffff
    80000ba4:	46030313          	addi	x6,x6,1120 # 70000000 <tohost>
    80000ba8:	00033383          	ld	x7,0(x6)
    80000bac:	fe039ee3          	bnez	x7,80000ba8 <rvcp_print_test_result+0x1f8>
    80000bb0:	00533023          	sd	x5,0(x6)
    80000bb4:	001f0f13          	addi	x30,x30,1
    80000bb8:	fd5ff06f          	j	80000b8c <rvcp_print_test_result+0x1dc>
    80000bbc:	00008067          	ret

0000000080000bc0 <os_rng_orig>:
    80000bc0:	f14023f3          	csrr	x7,mhartid
    80000bc4:	00068313          	mv	x6,x13
    80000bc8:	026383b3          	mul	x7,x7,x6
    80000bcc:	00058313          	mv	x6,x11
    80000bd0:	00730333          	add	x6,x6,x7
    80000bd4:	00033283          	ld	x5,0(x6)
    80000bd8:	01529313          	slli	x6,x5,0x15
    80000bdc:	0062c2b3          	xor	x5,x5,x6
    80000be0:	0232d313          	srli	x6,x5,0x23
    80000be4:	0062c2b3          	xor	x5,x5,x6
    80000be8:	00429313          	slli	x6,x5,0x4
    80000bec:	0062c2b3          	xor	x5,x5,x6
    80000bf0:	00058313          	mv	x6,x11
    80000bf4:	00730333          	add	x6,x6,x7
    80000bf8:	00533023          	sd	x5,0(x6)
    80000bfc:	00060313          	mv	x6,x12
    80000c00:	0262f2b3          	remu	x5,x5,x6
    80000c04:	00028513          	mv	x10,x5
    80000c08:	00008067          	ret
    80000c0c:	02a00513          	li	x10,42
    80000c10:	001965b7          	lui	x11,0x196
    80000c14:	60d5859b          	addiw	x11,x11,1549 # 19660d <current_test_index+0xf9475>
    80000c18:	3c6ef637          	lui	x12,0x3c6ef
    80000c1c:	35f6061b          	addiw	x12,x12,863 # 3c6ef35f <saplic_255+0x1bdf035f>
    80000c20:	02200693          	li	x13,34
    80000c24:	02b50533          	mul	x10,x10,x11
    80000c28:	00c50533          	add	x10,x10,x12
    80000c2c:	02d56533          	rem	x10,x10,x13
    80000c30:	00b00593          	li	x11,11
    80000c34:	02b56533          	rem	x10,x10,x11
    80000c38:	00008067          	ret
    80000c3c:	0000                	.insn	2, 0x0000
	...

0000000080000c40 <tohost_mutex>:
	...

0000000080000c48 <tohost_addr_mem>:
    80000c48:	0000                	.insn	2, 0x0000
    80000c4a:	7000                	.insn	2, 0x7000
    80000c4c:	0000                	.insn	2, 0x0000
	...

0000000080000c50 <eot__end_test>:
    80000c50:	00100293          	li	x5,1
    80000c54:	00328463          	beq	x5,x3,80000c5c <eot__passed>
    80000c58:	01c0006f          	j	80000c74 <eot__failed>

0000000080000c5c <eot__passed>:
    80000c5c:	0ff0000f          	fence
    80000c60:	00000297          	auipc	x5,0x0
    80000c64:	fe82b283          	ld	x5,-24(x5) # 80000c48 <tohost_addr_mem>
    80000c68:	00100313          	li	x6,1
    80000c6c:	0062a023          	sw	x6,0(x5)
    80000c70:	0240006f          	j	80000c94 <eot__halt>

0000000080000c74 <eot__failed>:
    80000c74:	00100513          	li	x10,1
    80000c78:	d39ff0ef          	jal	800009b0 <rvcp_print_test_result>
    80000c7c:	0ff0000f          	fence
    80000c80:	00000297          	auipc	x5,0x0
    80000c84:	fc82b283          	ld	x5,-56(x5) # 80000c48 <tohost_addr_mem>
    80000c88:	00300313          	li	x6,3
    80000c8c:	0062a023          	sw	x6,0(x5)
    80000c90:	0040006f          	j	80000c94 <eot__halt>

0000000080000c94 <eot__halt>:
    80000c94:	10500073          	wfi
    80000c98:	ffdff06f          	j	80000c94 <eot__halt>

0000000080000c9c <scheduler__init>:
    80000c9c:	00000297          	auipc	x5,0x0
    80000ca0:	13828293          	addi	x5,x5,312 # 80000dd4 <scheduler__panic>
    80000ca4:	305292f3          	csrrw	x5,mtvec,x5
    80000ca8:	18523023          	sd	x5,384(x4) # 180 <FS_RANDOMIZATION+0x11c>
    80000cac:	02500293          	li	x5,37
    80000cb0:	1a523023          	sd	x5,416(x4) # 1a0 <FS_RANDOMIZATION+0x13c>
    80000cb4:	0010029b          	addiw	x5,x0,1
    80000cb8:	02029293          	slli	x5,x5,0x20
    80000cbc:	ffe28293          	addi	x5,x5,-2
    80000cc0:	18523c23          	sd	x5,408(x4) # 198 <FS_RANDOMIZATION+0x134>
    80000cc4:	00000317          	auipc	x6,0x0
    80000cc8:	4b830313          	addi	x6,x6,1208 # 8000117c <scheduler__test_setup_ptr>
    80000ccc:	00033303          	ld	x6,0(x6)
    80000cd0:	0dc0006f          	j	80000dac <scheduler__execute_test>

0000000080000cd4 <scheduler__dispatch>:
    80000cd4:	00000297          	auipc	x5,0x0
    80000cd8:	10028293          	addi	x5,x5,256 # 80000dd4 <scheduler__panic>
    80000cdc:	305292f3          	csrrw	x5,mtvec,x5
    80000ce0:	18523023          	sd	x5,384(x4) # 180 <FS_RANDOMIZATION+0x11c>

0000000080000ce4 <scheduler__csr_read_randomization>:
    80000ce4:	00000e17          	auipc	x28,0x0
    80000ce8:	228e0e13          	addi	x28,x28,552 # 80000f0c <fs_rr_table>
    80000cec:	18823e83          	ld	x29,392(x4) # 188 <FS_RANDOMIZATION+0x124>
    80000cf0:	002e9f13          	slli	x30,x29,0x2
    80000cf4:	01ee0f33          	add	x30,x28,x30
    80000cf8:	000f2f03          	lw	x30,0(x30)
    80000cfc:	00df1f13          	slli	x30,x30,0xd
    80000d00:	00006e37          	lui	x28,0x6
    80000d04:	100e3073          	csrc	sstatus,x28
    80000d08:	100f2073          	csrs	sstatus,x30
    80000d0c:	001e8e93          	addi	x29,x29,1
    80000d10:	00300e13          	li	x28,3
    80000d14:	01cec463          	blt	x29,x28,80000d1c <scheduler__csr_read_randomization+0x38>
    80000d18:	00000e93          	li	x29,0
    80000d1c:	19d23423          	sd	x29,392(x4) # 188 <FS_RANDOMIZATION+0x124>
    80000d20:	00000e17          	auipc	x28,0x0
    80000d24:	1f8e0e13          	addi	x28,x28,504 # 80000f18 <vs_rr_table>
    80000d28:	19023e83          	ld	x29,400(x4) # 190 <FS_RANDOMIZATION+0x12c>
    80000d2c:	002e9f13          	slli	x30,x29,0x2
    80000d30:	01ee0f33          	add	x30,x28,x30
    80000d34:	000f2f03          	lw	x30,0(x30)
    80000d38:	009f1f13          	slli	x30,x30,0x9
    80000d3c:	60000e13          	li	x28,1536
    80000d40:	100e3073          	csrc	sstatus,x28
    80000d44:	100f2073          	csrs	sstatus,x30
    80000d48:	001e8e93          	addi	x29,x29,1
    80000d4c:	00300e13          	li	x28,3
    80000d50:	01cec463          	blt	x29,x28,80000d58 <scheduler__csr_read_randomization+0x74>
    80000d54:	00000e93          	li	x29,0
    80000d58:	19d23823          	sd	x29,400(x4) # 190 <FS_RANDOMIZATION+0x12c>
    80000d5c:	342022f3          	csrr	x5,mcause
    80000d60:	142022f3          	csrr	x5,scause
    80000d64:	30a022f3          	csrr	x5,0x30a
    80000d68:	f13022f3          	csrr	x5,mimpid
    80000d6c:	342022f3          	csrr	x5,mcause

0000000080000d70 <scheduler__load_num_runs>:
    80000d70:	1a023303          	ld	x6,416(x4) # 1a0 <FS_RANDOMIZATION+0x13c>
    80000d74:	04030c63          	beqz	x6,80000dcc <scheduler__finished>

0000000080000d78 <scheduler__decrement_num_runs>:
    80000d78:	fff30393          	addi	x7,x6,-1
    80000d7c:	1a723023          	sd	x7,416(x4) # 1a0 <FS_RANDOMIZATION+0x13c>
    80000d80:	00000e17          	auipc	x28,0x0
    80000d84:	368e0e13          	addi	x28,x28,872 # 800010e8 <dtest_index_map>
    80000d88:	00239e93          	slli	x29,x7,0x2
    80000d8c:	01de0e33          	add	x28,x28,x29
    80000d90:	000e2e03          	lw	x28,0(x28)
    80000d94:	19c23c23          	sd	x28,408(x4) # 198 <FS_RANDOMIZATION+0x134>

0000000080000d98 <scheduler__calc_test_pointer>:
    80000d98:	00339293          	slli	x5,x7,0x3

0000000080000d9c <scheduler__load_test_addr>:
    80000d9c:	00000317          	auipc	x6,0x0
    80000da0:	04830313          	addi	x6,x6,72 # 80000de4 <os_test_sequence>
    80000da4:	006282b3          	add	x5,x5,x6
    80000da8:	0002b303          	ld	x6,0(x5)

0000000080000dac <scheduler__execute_test>:
    80000dac:	18023283          	ld	x5,384(x4) # 180 <FS_RANDOMIZATION+0x11c>
    80000db0:	30529073          	csrw	mtvec,x5
    80000db4:	34021273          	csrrw	x4,mscratch,x4
    80000db8:	00000213          	li	x4,0
    80000dbc:	14131073          	csrw	sepc,x6
    80000dc0:	10000293          	li	x5,256
    80000dc4:	1002a073          	csrs	sstatus,x5
    80000dc8:	10200073          	sret

0000000080000dcc <scheduler__finished>:
    80000dcc:	00100193          	li	x3,1
    80000dd0:	e81ff06f          	j	80000c50 <eot__end_test>

0000000080000dd4 <scheduler__panic>:
    80000dd4:	00000193          	li	x3,0
    80000dd8:	e79ff06f          	j	80000c50 <eot__end_test>

0000000080000ddc <num_runs>:
    80000ddc:	0025                	.insn	2, 0x0025
    80000dde:	0000                	.insn	2, 0x0000
    80000de0:	0000                	.insn	2, 0x0000
	...

0000000080000de4 <os_test_sequence>:
    80000de4:	4c1c                	.insn	2, 0x4c1c
    80000de6:	8001                	.insn	2, 0x8001
    80000de8:	0000                	.insn	2, 0x0000
    80000dea:	0000                	.insn	2, 0x0000
    80000dec:	467c                	.insn	2, 0x467c
    80000dee:	8001                	.insn	2, 0x8001
    80000df0:	0000                	.insn	2, 0x0000
    80000df2:	0000                	.insn	2, 0x0000
    80000df4:	4890                	.insn	2, 0x4890
    80000df6:	8001                	.insn	2, 0x8001
    80000df8:	0000                	.insn	2, 0x0000
    80000dfa:	0000                	.insn	2, 0x0000
    80000dfc:	4a20                	.insn	2, 0x4a20
    80000dfe:	8001                	.insn	2, 0x8001
    80000e00:	0000                	.insn	2, 0x0000
    80000e02:	0000                	.insn	2, 0x0000
    80000e04:	4954                	.insn	2, 0x4954
    80000e06:	8001                	.insn	2, 0x8001
    80000e08:	0000                	.insn	2, 0x0000
    80000e0a:	0000                	.insn	2, 0x0000
    80000e0c:	467c                	.insn	2, 0x467c
    80000e0e:	8001                	.insn	2, 0x8001
    80000e10:	0000                	.insn	2, 0x0000
    80000e12:	0000                	.insn	2, 0x0000
    80000e14:	4b2c                	.insn	2, 0x4b2c
    80000e16:	8001                	.insn	2, 0x8001
    80000e18:	0000                	.insn	2, 0x0000
    80000e1a:	0000                	.insn	2, 0x0000
    80000e1c:	4080                	.insn	2, 0x4080
    80000e1e:	8001                	.insn	2, 0x8001
    80000e20:	0000                	.insn	2, 0x0000
    80000e22:	0000                	.insn	2, 0x0000
    80000e24:	4734                	.insn	2, 0x4734
    80000e26:	8001                	.insn	2, 0x8001
    80000e28:	0000                	.insn	2, 0x0000
    80000e2a:	0000                	.insn	2, 0x0000
    80000e2c:	47e0                	.insn	2, 0x47e0
    80000e2e:	8001                	.insn	2, 0x8001
    80000e30:	0000                	.insn	2, 0x0000
    80000e32:	0000                	.insn	2, 0x0000
    80000e34:	4a20                	.insn	2, 0x4a20
    80000e36:	8001                	.insn	2, 0x8001
    80000e38:	0000                	.insn	2, 0x0000
    80000e3a:	0000                	.insn	2, 0x0000
    80000e3c:	4080                	.insn	2, 0x4080
    80000e3e:	8001                	.insn	2, 0x8001
    80000e40:	0000                	.insn	2, 0x0000
    80000e42:	0000                	.insn	2, 0x0000
    80000e44:	4144                	.insn	2, 0x4144
    80000e46:	8001                	.insn	2, 0x8001
    80000e48:	0000                	.insn	2, 0x0000
    80000e4a:	0000                	.insn	2, 0x0000
    80000e4c:	44cc                	.insn	2, 0x44cc
    80000e4e:	8001                	.insn	2, 0x8001
    80000e50:	0000                	.insn	2, 0x0000
    80000e52:	0000                	.insn	2, 0x0000
    80000e54:	4280                	.insn	2, 0x4280
    80000e56:	8001                	.insn	2, 0x8001
    80000e58:	0000                	.insn	2, 0x0000
    80000e5a:	0000                	.insn	2, 0x0000
    80000e5c:	4954                	.insn	2, 0x4954
    80000e5e:	8001                	.insn	2, 0x8001
    80000e60:	0000                	.insn	2, 0x0000
    80000e62:	0000                	.insn	2, 0x0000
    80000e64:	43cc                	.insn	2, 0x43cc
    80000e66:	8001                	.insn	2, 0x8001
    80000e68:	0000                	.insn	2, 0x0000
    80000e6a:	0000                	.insn	2, 0x0000
    80000e6c:	467c                	.insn	2, 0x467c
    80000e6e:	8001                	.insn	2, 0x8001
    80000e70:	0000                	.insn	2, 0x0000
    80000e72:	0000                	.insn	2, 0x0000
    80000e74:	44cc                	.insn	2, 0x44cc
    80000e76:	8001                	.insn	2, 0x8001
    80000e78:	0000                	.insn	2, 0x0000
    80000e7a:	0000                	.insn	2, 0x0000
    80000e7c:	44cc                	.insn	2, 0x44cc
    80000e7e:	8001                	.insn	2, 0x8001
    80000e80:	0000                	.insn	2, 0x0000
    80000e82:	0000                	.insn	2, 0x0000
    80000e84:	4b2c                	.insn	2, 0x4b2c
    80000e86:	8001                	.insn	2, 0x8001
    80000e88:	0000                	.insn	2, 0x0000
    80000e8a:	0000                	.insn	2, 0x0000
    80000e8c:	4734                	.insn	2, 0x4734
    80000e8e:	8001                	.insn	2, 0x8001
    80000e90:	0000                	.insn	2, 0x0000
    80000e92:	0000                	.insn	2, 0x0000
    80000e94:	4080                	.insn	2, 0x4080
    80000e96:	8001                	.insn	2, 0x8001
    80000e98:	0000                	.insn	2, 0x0000
    80000e9a:	0000                	.insn	2, 0x0000
    80000e9c:	4890                	.insn	2, 0x4890
    80000e9e:	8001                	.insn	2, 0x8001
    80000ea0:	0000                	.insn	2, 0x0000
    80000ea2:	0000                	.insn	2, 0x0000
    80000ea4:	4280                	.insn	2, 0x4280
    80000ea6:	8001                	.insn	2, 0x8001
    80000ea8:	0000                	.insn	2, 0x0000
    80000eaa:	0000                	.insn	2, 0x0000
    80000eac:	4734                	.insn	2, 0x4734
    80000eae:	8001                	.insn	2, 0x8001
    80000eb0:	0000                	.insn	2, 0x0000
    80000eb2:	0000                	.insn	2, 0x0000
    80000eb4:	4280                	.insn	2, 0x4280
    80000eb6:	8001                	.insn	2, 0x8001
    80000eb8:	0000                	.insn	2, 0x0000
    80000eba:	0000                	.insn	2, 0x0000
    80000ebc:	43cc                	.insn	2, 0x43cc
    80000ebe:	8001                	.insn	2, 0x8001
    80000ec0:	0000                	.insn	2, 0x0000
    80000ec2:	0000                	.insn	2, 0x0000
    80000ec4:	4954                	.insn	2, 0x4954
    80000ec6:	8001                	.insn	2, 0x8001
    80000ec8:	0000                	.insn	2, 0x0000
    80000eca:	0000                	.insn	2, 0x0000
    80000ecc:	47e0                	.insn	2, 0x47e0
    80000ece:	8001                	.insn	2, 0x8001
    80000ed0:	0000                	.insn	2, 0x0000
    80000ed2:	0000                	.insn	2, 0x0000
    80000ed4:	4890                	.insn	2, 0x4890
    80000ed6:	8001                	.insn	2, 0x8001
    80000ed8:	0000                	.insn	2, 0x0000
    80000eda:	0000                	.insn	2, 0x0000
    80000edc:	4a20                	.insn	2, 0x4a20
    80000ede:	8001                	.insn	2, 0x8001
    80000ee0:	0000                	.insn	2, 0x0000
    80000ee2:	0000                	.insn	2, 0x0000
    80000ee4:	43cc                	.insn	2, 0x43cc
    80000ee6:	8001                	.insn	2, 0x8001
    80000ee8:	0000                	.insn	2, 0x0000
    80000eea:	0000                	.insn	2, 0x0000
    80000eec:	47e0                	.insn	2, 0x47e0
    80000eee:	8001                	.insn	2, 0x8001
    80000ef0:	0000                	.insn	2, 0x0000
    80000ef2:	0000                	.insn	2, 0x0000
    80000ef4:	4b2c                	.insn	2, 0x4b2c
    80000ef6:	8001                	.insn	2, 0x8001
    80000ef8:	0000                	.insn	2, 0x0000
    80000efa:	0000                	.insn	2, 0x0000
    80000efc:	4144                	.insn	2, 0x4144
    80000efe:	8001                	.insn	2, 0x8001
    80000f00:	0000                	.insn	2, 0x0000
    80000f02:	0000                	.insn	2, 0x0000
    80000f04:	4144                	.insn	2, 0x4144
    80000f06:	8001                	.insn	2, 0x8001
    80000f08:	0000                	.insn	2, 0x0000
	...

0000000080000f0c <fs_rr_table>:
    80000f0c:	0001                	.insn	2, 0x0001
    80000f0e:	0000                	.insn	2, 0x0000
    80000f10:	0002                	.insn	2, 0x0002
    80000f12:	0000                	.insn	2, 0x0000
    80000f14:	00000003          	lb	x0,0(x0) # 0 <ALL_4KB_PAGES>

0000000080000f18 <vs_rr_table>:
    80000f18:	0001                	.insn	2, 0x0001
    80000f1a:	0000                	.insn	2, 0x0000
    80000f1c:	0002                	.insn	2, 0x0002
    80000f1e:	0000                	.insn	2, 0x0000
    80000f20:	00000003          	lb	x0,0(x0) # 0 <ALL_4KB_PAGES>

0000000080000f24 <dtest_descriptor_table>:
    80000f24:	0f84                	.insn	2, 0x0f84
    80000f26:	8000                	.insn	2, 0x8000
    80000f28:	0000                	.insn	2, 0x0000
    80000f2a:	0000                	.insn	2, 0x0000
    80000f2c:	0f9c                	.insn	2, 0x0f9c
    80000f2e:	8000                	.insn	2, 0x8000
    80000f30:	0000                	.insn	2, 0x0000
    80000f32:	0000                	.insn	2, 0x0000
    80000f34:	0fbc                	.insn	2, 0x0fbc
    80000f36:	8000                	.insn	2, 0x8000
    80000f38:	0000                	.insn	2, 0x0000
    80000f3a:	0000                	.insn	2, 0x0000
    80000f3c:	0fd9                	.insn	2, 0x0fd9
    80000f3e:	8000                	.insn	2, 0x8000
    80000f40:	0000                	.insn	2, 0x0000
    80000f42:	0000                	.insn	2, 0x0000
    80000f44:	0ff5                	.insn	2, 0x0ff5
    80000f46:	8000                	.insn	2, 0x8000
    80000f48:	0000                	.insn	2, 0x0000
    80000f4a:	0000                	.insn	2, 0x0000
    80000f4c:	1010                	.insn	2, 0x1010
    80000f4e:	8000                	.insn	2, 0x8000
    80000f50:	0000                	.insn	2, 0x0000
    80000f52:	0000                	.insn	2, 0x0000
    80000f54:	1034                	.insn	2, 0x1034
    80000f56:	8000                	.insn	2, 0x8000
    80000f58:	0000                	.insn	2, 0x0000
    80000f5a:	0000                	.insn	2, 0x0000
    80000f5c:	104e                	.insn	2, 0x104e
    80000f5e:	8000                	.insn	2, 0x8000
    80000f60:	0000                	.insn	2, 0x0000
    80000f62:	0000                	.insn	2, 0x0000
    80000f64:	106a                	.insn	2, 0x106a
    80000f66:	8000                	.insn	2, 0x8000
    80000f68:	0000                	.insn	2, 0x0000
    80000f6a:	0000                	.insn	2, 0x0000
    80000f6c:	1090                	.insn	2, 0x1090
    80000f6e:	8000                	.insn	2, 0x8000
    80000f70:	0000                	.insn	2, 0x0000
    80000f72:	0000                	.insn	2, 0x0000
    80000f74:	10aa                	.insn	2, 0x10aa
    80000f76:	8000                	.insn	2, 0x8000
    80000f78:	0000                	.insn	2, 0x0000
    80000f7a:	0000                	.insn	2, 0x0000
    80000f7c:	800010c7          	fmsub.s	f1,f0,f0,f16,rtz
    80000f80:	0000                	.insn	2, 0x0000
	...

0000000080000f84 <dtest_name_0>:
    80000f84:	5f444953          	.insn	4, 0x5f444953
    80000f88:	3130                	.insn	2, 0x3130
    80000f8a:	735f 6e65 6376      	.insn	6, 0x63766e65735f
    80000f90:	6766                	.insn	2, 0x6766
    80000f92:	705f 6d6d 775f      	.insn	6, 0x775f6d6d705f
    80000f98:	7261                	.insn	2, 0x7261
    80000f9a:	006c                	.insn	2, 0x006c

0000000080000f9c <dtest_name_1>:
    80000f9c:	5f444953          	.insn	4, 0x5f444953
    80000fa0:	3230                	.insn	2, 0x3230
    80000fa2:	685f 6e65 6376      	.insn	6, 0x63766e65685f
    80000fa8:	6766                	.insn	2, 0x6766
    80000faa:	685f 7473 7461      	.insn	6, 0x74617473685f
    80000fb0:	7375                	.insn	2, 0x7375
    80000fb2:	705f 6d6d 775f      	.insn	6, 0x775f6d6d705f
    80000fb8:	7261                	.insn	2, 0x7261
    80000fba:	006c                	.insn	2, 0x006c

0000000080000fbc <dtest_name_2>:
    80000fbc:	5f444953          	.insn	4, 0x5f444953
    80000fc0:	3730                	.insn	2, 0x3730
    80000fc2:	705f 5f6d 6964      	.insn	6, 0x69645f6d705f
    80000fc8:	6c626173          	csrrsi	x2,0x6c6,4
    80000fcc:	6465                	.insn	2, 0x6465
    80000fce:	735f 685f 5f73      	.insn	6, 0x5f73685f735f
    80000fd4:	6f6d                	.insn	2, 0x6f6d
    80000fd6:	6564                	.insn	2, 0x6564
	...

0000000080000fd9 <dtest_name_3>:
    80000fd9:	5f444953          	.insn	4, 0x5f444953
    80000fdd:	3131                	.insn	2, 0x3131
    80000fdf:	705f 5f6d 6e65      	.insn	6, 0x6e655f6d705f
    80000fe5:	6261                	.insn	2, 0x6261
    80000fe7:	656c                	.insn	2, 0x656c
    80000fe9:	5f64                	.insn	2, 0x5f64
    80000feb:	73685f73          	csrrwi	x30,mhpmevent22h,16
    80000fef:	6d5f 646f 0065      	.insn	6, 0x0065646f6d5f

0000000080000ff5 <dtest_name_4>:
    80000ff5:	5f444953          	.insn	4, 0x5f444953
    80000ff9:	3232                	.insn	2, 0x3232
    80000ffb:	705f 5f6d 6964      	.insn	6, 0x69645f6d705f
    80001001:	6c626173          	csrrsi	x2,0x6c6,4
    80001005:	6465                	.insn	2, 0x6465
    80001007:	6d5f 7278 735f      	.insn	6, 0x735f72786d5f
    8000100d:	7465                	.insn	2, 0x7465
	...

0000000080001010 <dtest_name_5>:
    80001010:	5f444953          	.insn	4, 0x5f444953
    80001014:	3332                	.insn	2, 0x3332
    80001016:	705f 5f6d 6e69      	.insn	6, 0x6e695f6d705f
    8000101c:	6176                	.insn	2, 0x6176
    8000101e:	696c                	.insn	2, 0x696c
    80001020:	6164                	.insn	2, 0x6164
    80001022:	6974                	.insn	2, 0x6974
    80001024:	695f6e6f          	jal	x28,800f7eb8 <code_super_99+0xeb8>
    80001028:	736e                	.insn	2, 0x736e
    8000102a:	7274                	.insn	2, 0x7274
    8000102c:	6375                	.insn	2, 0x6375
    8000102e:	6974                	.insn	2, 0x6974
    80001030:	00736e6f          	jal	x28,80037836 <__section__code_35+0x836>

0000000080001034 <dtest_name_6>:
    80001034:	5f444953          	.insn	4, 0x5f444953
    80001038:	3432                	.insn	2, 0x3432
    8000103a:	705f 5f6d 6e69      	.insn	6, 0x6e695f6d705f
    80001040:	75727473          	csrrci	x8,0x757,4
    80001044:	6f697463          	bgeu	x18,x22,8000172c <scheduler__test_cleanup_ptr+0x5a8>
    80001048:	5f6e                	.insn	2, 0x5f6e
    8000104a:	00746573          	csrrsi	x10,0x7,8

000000008000104e <dtest_name_7>:
    8000104e:	5f444953          	.insn	4, 0x5f444953
    80001052:	3532                	.insn	2, 0x3532
    80001054:	705f 5f6d 696d      	.insn	6, 0x696d5f6d705f
    8000105a:	696c6173          	csrrsi	x2,0x696,24
    8000105e:	64656e67          	.insn	4, 0x64656e67
    80001062:	615f 6363 7365      	.insn	6, 0x73656363615f
    80001068:	          	.insn	4, 0x49530073

000000008000106a <dtest_name_8>:
    8000106a:	5f444953          	.insn	4, 0x5f444953
    8000106e:	3632                	.insn	2, 0x3632
    80001070:	705f 5f6d 6964      	.insn	6, 0x69645f6d705f
    80001076:	6666                	.insn	2, 0x6666
    80001078:	7265                	.insn	2, 0x7265
    8000107a:	6e65                	.insn	2, 0x6e65
    8000107c:	5f74                	.insn	2, 0x5f74
    8000107e:	6174                	.insn	2, 0x6174
    80001080:	735f7367          	.insn	4, 0x735f7367
    80001084:	6d61                	.insn	2, 0x6d61
    80001086:	5f65                	.insn	2, 0x5f65
    80001088:	6461                	.insn	2, 0x6461
    8000108a:	7264                	.insn	2, 0x7264
    8000108c:	7365                	.insn	2, 0x7365
    8000108e:	          	.insn	4, 0x49530073

0000000080001090 <dtest_name_9>:
    80001090:	5f444953          	.insn	4, 0x5f444953
    80001094:	3732                	.insn	2, 0x3732
    80001096:	705f 5f6d 6d69      	.insn	6, 0x6d695f6d705f
    8000109c:	6c70                	.insn	2, 0x6c70
    8000109e:	6369                	.insn	2, 0x6369
    800010a0:	7469                	.insn	2, 0x7469
    800010a2:	615f 6363 7365      	.insn	6, 0x73656363615f
    800010a8:	          	.insn	4, 0x49530073

00000000800010aa <dtest_name_10>:
    800010aa:	5f444953          	.insn	4, 0x5f444953
    800010ae:	3832                	.insn	2, 0x3832
    800010b0:	705f 5f6d 6166      	.insn	6, 0x61665f6d705f
    800010b6:	6c75                	.insn	2, 0x6c75
    800010b8:	7374                	.insn	2, 0x7374
    800010ba:	745f 6172 5f70      	.insn	6, 0x5f706172745f
    800010c0:	6176                	.insn	2, 0x6176
    800010c2:	756c                	.insn	2, 0x756c
    800010c4:	7365                	.insn	2, 0x7365
	...

00000000800010c7 <dtest_name_11>:
    800010c7:	5f444953          	.insn	4, 0x5f444953
    800010cb:	3932                	.insn	2, 0x3932
    800010cd:	705f 5f6d 7478      	.insn	6, 0x74785f6d705f
    800010d3:	6576                	.insn	2, 0x6576
    800010d5:	61745f63          	bge	x8,x23,800016f3 <scheduler__test_cleanup_ptr+0x56f>
    800010d9:	64656767          	.insn	4, 0x64656767
    800010dd:	615f 6464 6572      	.insn	6, 0x65726464615f
    800010e3:	00007373          	csrrci	x6,ustatus,0
	...

00000000800010e8 <dtest_index_map>:
    800010e8:	ffff                	.insn	2, 0xffff
    800010ea:	ffff                	.insn	2, 0xffff
    800010ec:	0005                	.insn	2, 0x0005
    800010ee:	0000                	.insn	2, 0x0000
    800010f0:	0008                	.insn	2, 0x0008
    800010f2:	0000                	.insn	2, 0x0000
    800010f4:	000a                	.insn	2, 0x000a
    800010f6:	0000                	.insn	2, 0x0000
    800010f8:	0009                	.insn	2, 0x0009
    800010fa:	0000                	.insn	2, 0x0000
    800010fc:	0005                	.insn	2, 0x0005
    800010fe:	0000                	.insn	2, 0x0000
    80001100:	0000000b          	.insn	4, 0x000b
    80001104:	0000                	.insn	2, 0x0000
    80001106:	0000                	.insn	2, 0x0000
    80001108:	0006                	.insn	2, 0x0006
    8000110a:	0000                	.insn	2, 0x0000
    8000110c:	00000007          	vle8.v	v0,(x0),v0.t
    80001110:	000a                	.insn	2, 0x000a
    80001112:	0000                	.insn	2, 0x0000
    80001114:	0000                	.insn	2, 0x0000
    80001116:	0000                	.insn	2, 0x0000
    80001118:	0001                	.insn	2, 0x0001
    8000111a:	0000                	.insn	2, 0x0000
    8000111c:	0004                	.insn	2, 0x0004
    8000111e:	0000                	.insn	2, 0x0000
    80001120:	0002                	.insn	2, 0x0002
    80001122:	0000                	.insn	2, 0x0000
    80001124:	0009                	.insn	2, 0x0009
    80001126:	0000                	.insn	2, 0x0000
    80001128:	00000003          	lb	x0,0(x0) # 0 <ALL_4KB_PAGES>
    8000112c:	0005                	.insn	2, 0x0005
    8000112e:	0000                	.insn	2, 0x0000
    80001130:	0004                	.insn	2, 0x0004
    80001132:	0000                	.insn	2, 0x0000
    80001134:	0004                	.insn	2, 0x0004
    80001136:	0000                	.insn	2, 0x0000
    80001138:	0000000b          	.insn	4, 0x000b
    8000113c:	0006                	.insn	2, 0x0006
    8000113e:	0000                	.insn	2, 0x0000
    80001140:	0000                	.insn	2, 0x0000
    80001142:	0000                	.insn	2, 0x0000
    80001144:	0008                	.insn	2, 0x0008
    80001146:	0000                	.insn	2, 0x0000
    80001148:	0002                	.insn	2, 0x0002
    8000114a:	0000                	.insn	2, 0x0000
    8000114c:	0006                	.insn	2, 0x0006
    8000114e:	0000                	.insn	2, 0x0000
    80001150:	0002                	.insn	2, 0x0002
    80001152:	0000                	.insn	2, 0x0000
    80001154:	00000003          	lb	x0,0(x0) # 0 <ALL_4KB_PAGES>
    80001158:	0009                	.insn	2, 0x0009
    8000115a:	0000                	.insn	2, 0x0000
    8000115c:	00000007          	vle8.v	v0,(x0),v0.t
    80001160:	0008                	.insn	2, 0x0008
    80001162:	0000                	.insn	2, 0x0000
    80001164:	000a                	.insn	2, 0x000a
    80001166:	0000                	.insn	2, 0x0000
    80001168:	00000003          	lb	x0,0(x0) # 0 <ALL_4KB_PAGES>
    8000116c:	00000007          	vle8.v	v0,(x0),v0.t
    80001170:	0000000b          	.insn	4, 0x000b
    80001174:	0001                	.insn	2, 0x0001
    80001176:	0000                	.insn	2, 0x0000
    80001178:	0001                	.insn	2, 0x0001
	...

000000008000117c <scheduler__test_setup_ptr>:
    8000117c:	4070                	.insn	2, 0x4070
    8000117e:	8001                	.insn	2, 0x8001
    80001180:	0000                	.insn	2, 0x0000
	...

0000000080001184 <scheduler__test_cleanup_ptr>:
    80001184:	4c1c                	.insn	2, 0x4c1c
    80001186:	8001                	.insn	2, 0x8001
    80001188:	0000                	.insn	2, 0x0000
	...

Disassembly of section .runtime_s:

0000000080010000 <trap_handler_s__invalid_interrupt>:
    80010000:	1740006f          	j	80010174 <trap_handler_s__test_failed>

0000000080010004 <trap_handler_s__clear_all_interrupts>:
    80010004:	14401073          	csrw	sip,x0
    80010008:	10200073          	sret

000000008001000c <trap_handler_s___CLEAR_SSI>:
    8001000c:	00200293          	li	x5,2
    80010010:	1442b073          	csrc	sip,x5
    80010014:	10200073          	sret

0000000080010018 <trap_handler_s___CLEAR_MSI>:
    80010018:	00800293          	li	x5,8
    8001001c:	1442b073          	csrc	sip,x5
    80010020:	10200073          	sret

0000000080010024 <trap_handler_s___CLEAR_STI>:
    80010024:	02000293          	li	x5,32
    80010028:	1442b073          	csrc	sip,x5
    8001002c:	10200073          	sret

0000000080010030 <trap_handler_s___CLEAR_MTI>:
    80010030:	08000293          	li	x5,128
    80010034:	1442b073          	csrc	sip,x5
    80010038:	10200073          	sret

000000008001003c <trap_handler_s___CLEAR_SEI>:
    8001003c:	20000293          	li	x5,512
    80010040:	1442b073          	csrc	sip,x5
    80010044:	10200073          	sret

0000000080010048 <trap_handler_s___CLEAR_MEI>:
    80010048:	000012b7          	lui	x5,0x1
    8001004c:	8002829b          	addiw	x5,x5,-2048 # 800 <FS_RANDOMIZATION+0x79c>
    80010050:	1442b073          	csrc	sip,x5
    80010054:	10200073          	sret

0000000080010058 <trap_handler_s___CLEAR_COI>:
    80010058:	000022b7          	lui	x5,0x2
    8001005c:	1442b073          	csrc	sip,x5
    80010060:	10200073          	sret

0000000080010064 <trap_handler_s__clear_highest_priority_interrupt>:
    80010064:	144022f3          	csrr	x5,sip
    80010068:	40500333          	neg	x6,x5
    8001006c:	0062f2b3          	and	x5,x5,x6
    80010070:	1442b073          	csrc	sip,x5
    80010074:	10200073          	sret

0000000080010078 <trap_handler_s__trap_entry>:
    80010078:	10c0006f          	j	80010184 <trap_handler_s__trap_handler>

000000008001007c <trap_handler_s__interrupt_vector_table>:
    8001007c:	f91ff06f          	j	8001000c <trap_handler_s___CLEAR_SSI>
    80010080:	f81ff06f          	j	80010000 <trap_handler_s__invalid_interrupt>
    80010084:	f95ff06f          	j	80010018 <trap_handler_s___CLEAR_MSI>
    80010088:	f79ff06f          	j	80010000 <trap_handler_s__invalid_interrupt>
    8001008c:	f99ff06f          	j	80010024 <trap_handler_s___CLEAR_STI>
    80010090:	f71ff06f          	j	80010000 <trap_handler_s__invalid_interrupt>
    80010094:	f9dff06f          	j	80010030 <trap_handler_s___CLEAR_MTI>
    80010098:	f69ff06f          	j	80010000 <trap_handler_s__invalid_interrupt>
    8001009c:	fa1ff06f          	j	8001003c <trap_handler_s___CLEAR_SEI>
    800100a0:	f61ff06f          	j	80010000 <trap_handler_s__invalid_interrupt>
    800100a4:	fa5ff06f          	j	80010048 <trap_handler_s___CLEAR_MEI>
    800100a8:	f59ff06f          	j	80010000 <trap_handler_s__invalid_interrupt>
    800100ac:	fadff06f          	j	80010058 <trap_handler_s___CLEAR_COI>
    800100b0:	f51ff06f          	j	80010000 <trap_handler_s__invalid_interrupt>
    800100b4:	f4dff06f          	j	80010000 <trap_handler_s__invalid_interrupt>
    800100b8:	fadff06f          	j	80010064 <trap_handler_s__clear_highest_priority_interrupt>
    800100bc:	fa9ff06f          	j	80010064 <trap_handler_s__clear_highest_priority_interrupt>
    800100c0:	fa5ff06f          	j	80010064 <trap_handler_s__clear_highest_priority_interrupt>
    800100c4:	fa1ff06f          	j	80010064 <trap_handler_s__clear_highest_priority_interrupt>
    800100c8:	f9dff06f          	j	80010064 <trap_handler_s__clear_highest_priority_interrupt>
    800100cc:	f99ff06f          	j	80010064 <trap_handler_s__clear_highest_priority_interrupt>
    800100d0:	f95ff06f          	j	80010064 <trap_handler_s__clear_highest_priority_interrupt>
    800100d4:	f91ff06f          	j	80010064 <trap_handler_s__clear_highest_priority_interrupt>
    800100d8:	f8dff06f          	j	80010064 <trap_handler_s__clear_highest_priority_interrupt>
    800100dc:	f89ff06f          	j	80010064 <trap_handler_s__clear_highest_priority_interrupt>
    800100e0:	f85ff06f          	j	80010064 <trap_handler_s__clear_highest_priority_interrupt>
    800100e4:	f81ff06f          	j	80010064 <trap_handler_s__clear_highest_priority_interrupt>
    800100e8:	f7dff06f          	j	80010064 <trap_handler_s__clear_highest_priority_interrupt>
    800100ec:	f79ff06f          	j	80010064 <trap_handler_s__clear_highest_priority_interrupt>
    800100f0:	f75ff06f          	j	80010064 <trap_handler_s__clear_highest_priority_interrupt>
    800100f4:	f71ff06f          	j	80010064 <trap_handler_s__clear_highest_priority_interrupt>
    800100f8:	f6dff06f          	j	80010064 <trap_handler_s__clear_highest_priority_interrupt>
    800100fc:	f69ff06f          	j	80010064 <trap_handler_s__clear_highest_priority_interrupt>
    80010100:	f65ff06f          	j	80010064 <trap_handler_s__clear_highest_priority_interrupt>
    80010104:	f61ff06f          	j	80010064 <trap_handler_s__clear_highest_priority_interrupt>
    80010108:	f5dff06f          	j	80010064 <trap_handler_s__clear_highest_priority_interrupt>
    8001010c:	f59ff06f          	j	80010064 <trap_handler_s__clear_highest_priority_interrupt>
    80010110:	f55ff06f          	j	80010064 <trap_handler_s__clear_highest_priority_interrupt>
    80010114:	f51ff06f          	j	80010064 <trap_handler_s__clear_highest_priority_interrupt>
    80010118:	f4dff06f          	j	80010064 <trap_handler_s__clear_highest_priority_interrupt>
    8001011c:	f49ff06f          	j	80010064 <trap_handler_s__clear_highest_priority_interrupt>
    80010120:	f45ff06f          	j	80010064 <trap_handler_s__clear_highest_priority_interrupt>
    80010124:	f41ff06f          	j	80010064 <trap_handler_s__clear_highest_priority_interrupt>
    80010128:	f3dff06f          	j	80010064 <trap_handler_s__clear_highest_priority_interrupt>
    8001012c:	f39ff06f          	j	80010064 <trap_handler_s__clear_highest_priority_interrupt>
    80010130:	f35ff06f          	j	80010064 <trap_handler_s__clear_highest_priority_interrupt>
    80010134:	f31ff06f          	j	80010064 <trap_handler_s__clear_highest_priority_interrupt>
    80010138:	f2dff06f          	j	80010064 <trap_handler_s__clear_highest_priority_interrupt>
    8001013c:	f29ff06f          	j	80010064 <trap_handler_s__clear_highest_priority_interrupt>
    80010140:	f25ff06f          	j	80010064 <trap_handler_s__clear_highest_priority_interrupt>
    80010144:	f21ff06f          	j	80010064 <trap_handler_s__clear_highest_priority_interrupt>
    80010148:	f1dff06f          	j	80010064 <trap_handler_s__clear_highest_priority_interrupt>
    8001014c:	f19ff06f          	j	80010064 <trap_handler_s__clear_highest_priority_interrupt>
    80010150:	f15ff06f          	j	80010064 <trap_handler_s__clear_highest_priority_interrupt>
    80010154:	f11ff06f          	j	80010064 <trap_handler_s__clear_highest_priority_interrupt>
    80010158:	f0dff06f          	j	80010064 <trap_handler_s__clear_highest_priority_interrupt>
    8001015c:	f09ff06f          	j	80010064 <trap_handler_s__clear_highest_priority_interrupt>
    80010160:	f05ff06f          	j	80010064 <trap_handler_s__clear_highest_priority_interrupt>
    80010164:	f01ff06f          	j	80010064 <trap_handler_s__clear_highest_priority_interrupt>
    80010168:	efdff06f          	j	80010064 <trap_handler_s__clear_highest_priority_interrupt>
    8001016c:	ef9ff06f          	j	80010064 <trap_handler_s__clear_highest_priority_interrupt>
    80010170:	ef5ff06f          	j	80010064 <trap_handler_s__clear_highest_priority_interrupt>

0000000080010174 <trap_handler_s__test_failed>:
    80010174:	00f00f9b          	addiw	x31,x0,15
    80010178:	01cf9f93          	slli	x31,x31,0x1c
    8001017c:	002f8f93          	addi	x31,x31,2
    80010180:	00000073          	ecall

0000000080010184 <trap_handler_s__trap_handler>:
    80010184:	142022f3          	csrr	x5,scause
    80010188:	fff0031b          	addiw	x6,x0,-1
    8001018c:	03f31313          	slli	x6,x6,0x3f
    80010190:	00537333          	and	x6,x6,x5
    80010194:	02030263          	beqz	x6,800101b8 <trap_handler_s__exception_path>

0000000080010198 <trap_handler_s__interrupt_handler>:
    80010198:	fff0031b          	addiw	x6,x0,-1
    8001019c:	03f31313          	slli	x6,x6,0x3f
    800101a0:	0062c2b3          	xor	x5,x5,x6
    800101a4:	00000317          	auipc	x6,0x0
    800101a8:	ed430313          	addi	x6,x6,-300 # 80010078 <trap_handler_s__trap_entry>
    800101ac:	00229293          	slli	x5,x5,0x2
    800101b0:	005302b3          	add	x5,x6,x5
    800101b4:	00028067          	jr	x5 # 2000 <FS_RANDOMIZATION+0x1f9c>

00000000800101b8 <trap_handler_s__exception_path>:
    800101b8:	14021273          	csrrw	x4,sscratch,x4
    800101bc:	00000297          	auipc	x5,0x0
    800101c0:	0cc28293          	addi	x5,x5,204 # 80010288 <trap_handler_s__trap_panic>
    800101c4:	10529073          	csrw	stvec,x5
    800101c8:	0040006f          	j	800101cc <trap_handler_s__excp_entry>

00000000800101cc <trap_handler_s__excp_entry>:
    800101cc:	14202373          	csrr	x6,scause
    800101d0:	00800293          	li	x5,8
    800101d4:	00534863          	blt	x6,x5,800101e4 <trap_handler_s__check_exception_label>
    800101d8:	00b00293          	li	x5,11
    800101dc:	0062c463          	blt	x5,x6,800101e4 <trap_handler_s__check_exception_label>
    800101e0:	0a80006f          	j	80010288 <trap_handler_s__trap_panic>

00000000800101e4 <trap_handler_s__check_exception_label>:
    800101e4:	04623c23          	sd	x6,88(x4) # 58 <XLEN+0x18>
    800101e8:	141022f3          	csrr	x5,sepc
    800101ec:	02523423          	sd	x5,40(x4) # 28 <SECURE_ACCESS_PROBABILITY+0xa>
    800101f0:	01820283          	lb	x5,24(x4) # 18 <STORE_GUEST_PAGE_FAULT+0x1>
    800101f4:	00029863          	bnez	x5,80010204 <trap_handler_s__check_excp>
    800101f8:	00128293          	addi	x5,x5,1
    800101fc:	00520c23          	sb	x5,24(x4) # 18 <STORE_GUEST_PAGE_FAULT+0x1>
    80010200:	05c0006f          	j	8001025c <trap_handler_s__ecall_from_machine>

0000000080010204 <trap_handler_s__check_excp>:
    80010204:	06820293          	addi	x5,x4,104 # 68 <FS_RANDOMIZATION+0x4>
    80010208:	0802b2af          	amoswap.d	x5,x0,(x5)
    8001020c:	00028663          	beqz	x5,80010218 <trap_handler_s__skip_mode_check>
    80010210:	00300393          	li	x7,3
    80010214:	f67290e3          	bne	x5,x7,80010174 <trap_handler_s__test_failed>

0000000080010218 <trap_handler_s__skip_mode_check>:
    80010218:	05020293          	addi	x5,x4,80 # 50 <XLEN+0x10>
    8001021c:	0802b2af          	amoswap.d	x5,x0,(x5)
    80010220:	f4531ae3          	bne	x6,x5,80010174 <trap_handler_s__test_failed>
    80010224:	03820293          	addi	x5,x4,56 # 38 <SECURE_ACCESS_PROBABILITY+0x1a>
    80010228:	0802b2af          	amoswap.d	x5,x0,(x5)
    8001022c:	02029663          	bnez	x5,80010258 <trap_handler_s__skip_nonzero_tval_check>
    80010230:	02020313          	addi	x6,x4,32 # 20 <SECURE_ACCESS_PROBABILITY+0x2>
    80010234:	0803332f          	amoswap.d	x6,x0,(x6)
    80010238:	02820293          	addi	x5,x4,40 # 28 <SECURE_ACCESS_PROBABILITY+0xa>
    8001023c:	0802b2af          	amoswap.d	x5,x0,(x5)
    80010240:	f2531ae3          	bne	x6,x5,80010174 <trap_handler_s__test_failed>
    80010244:	04020293          	addi	x5,x4,64 # 40 <XLEN>
    80010248:	0802b2af          	amoswap.d	x5,x0,(x5)
    8001024c:	00028663          	beqz	x5,80010258 <trap_handler_s__skip_nonzero_tval_check>

0000000080010250 <trap_handler_s__nonzero_tval_check>:
    80010250:	14302373          	csrr	x6,stval
    80010254:	f25310e3          	bne	x6,x5,80010174 <trap_handler_s__test_failed>

0000000080010258 <trap_handler_s__skip_nonzero_tval_check>:
    80010258:	0040006f          	j	8001025c <trap_handler_s__ecall_from_machine>

000000008001025c <trap_handler_s__ecall_from_machine>:
    8001025c:	03020293          	addi	x5,x4,48 # 30 <SECURE_ACCESS_PROBABILITY+0x12>
    80010260:	0802b2af          	amoswap.d	x5,x0,(x5)
    80010264:	07020313          	addi	x6,x4,112 # 70 <FS_RANDOMIZATION+0xc>
    80010268:	0803332f          	amoswap.d	x6,x0,(x6)
    8001026c:	00031463          	bnez	x6,80010274 <trap_handler_s__skip_xepc_write>
    80010270:	14129073          	csrw	sepc,x5

0000000080010274 <trap_handler_s__skip_xepc_write>:
    80010274:	00000317          	auipc	x6,0x0
    80010278:	e0430313          	addi	x6,x6,-508 # 80010078 <trap_handler_s__trap_entry>
    8001027c:	10531073          	csrw	stvec,x6
    80010280:	14021273          	csrrw	x4,sscratch,x4
    80010284:	10200073          	sret

0000000080010288 <trap_handler_s__trap_panic>:
    80010288:	00000193          	li	x3,0
    8001028c:	00f00f9b          	addiw	x31,x0,15
    80010290:	01cf9f93          	slli	x31,x31,0x1c
    80010294:	002f8f93          	addi	x31,x31,2
    80010298:	00000073          	ecall

Disassembly of section .code:

0000000080014040 <passed>:
    80014040:	00f00f9b          	addiw	x31,x0,15
    80014044:	01cf9f93          	slli	x31,x31,0x1c
    80014048:	001f8f93          	addi	x31,x31,1
    8001404c:	00000073          	ecall

0000000080014050 <failed>:
    80014050:	00f00f9b          	addiw	x31,x0,15
    80014054:	01cf9f93          	slli	x31,x31,0x1c
    80014058:	002f8f93          	addi	x31,x31,2
    8001405c:	00000073          	ecall

0000000080014060 <end_test>:
    80014060:	00f00f9b          	addiw	x31,x0,15
    80014064:	01cf9f93          	slli	x31,x31,0x1c
    80014068:	003f8f93          	addi	x31,x31,3
    8001406c:	00000073          	ecall

0000000080014070 <test_setup>:
    80014070:	00f00f9b          	addiw	x31,x0,15
    80014074:	01cf9f93          	slli	x31,x31,0x1c
    80014078:	001f8f93          	addi	x31,x31,1
    8001407c:	00000073          	ecall

0000000080014080 <SID_01_senvcfg_pmm_warl>:
    80014080:	0012c137          	lui	x2,0x12c
    80014084:	ba51011b          	addiw	x2,x2,-1115 # 12bba5 <current_test_index+0x8ea0d>
    80014088:	00c11113          	slli	x2,x2,0xc
    8001408c:	0037afb7          	lui	x31,0x37a
    80014090:	0a0f8f9b          	addiw	x31,x31,160 # 37a0a0 <machine_csr_jump_table_flags>
    80014094:	00100f13          	li	x30,1
    80014098:	01efb023          	sd	x30,0(x31)
    8001409c:	000f0fb7          	lui	x31,0xf0
    800140a0:	001f8f9b          	addiw	x31,x31,1 # f0001 <current_test_index+0x52e69>
    800140a4:	00cf9f93          	slli	x31,x31,0xc
    800140a8:	005f8f93          	addi	x31,x31,5
    800140ac:	00000073          	ecall
    800140b0:	00713023          	sd	x7,0(x2)
    800140b4:	0282d137          	lui	x2,0x282d
    800140b8:	000012b7          	lui	x5,0x1
    800140bc:	00510133          	add	x2,x2,x5
    800140c0:	ff017113          	andi	x2,x2,-16
    800140c4:	10a02ff3          	csrr	x31,0x10a
    800140c8:	020fdd93          	srli	x27,x31,0x20
    800140cc:	003df793          	andi	x15,x27,3
    800140d0:	0010071b          	addiw	x14,x0,1
    800140d4:	02071713          	slli	x14,x14,0x20
    800140d8:	10a71e73          	csrrw	x28,0x10a,x14
    800140dc:	10a02673          	csrr	x12,0x10a
    800140e0:	02065f13          	srli	x30,x12,0x20
    800140e4:	003f7393          	andi	x7,x30,3
    800140e8:	00100f93          	li	x31,1
    800140ec:	01f39a63          	bne	x7,x31,80014100 <pass_label_0>
    800140f0:	0037ae37          	lui	x28,0x37a
    800140f4:	008e0e1b          	addiw	x28,x28,8 # 37a008 <failed_addr>
    800140f8:	000e3683          	ld	x13,0(x28)
    800140fc:	00068067          	jr	x13

0000000080014100 <pass_label_0>:
    80014100:	0012c137          	lui	x2,0x12c
    80014104:	ba51011b          	addiw	x2,x2,-1115 # 12bba5 <current_test_index+0x8ea0d>
    80014108:	00c11113          	slli	x2,x2,0xc
    8001410c:	00013383          	ld	x7,0(x2)
    80014110:	0037afb7          	lui	x31,0x37a
    80014114:	0a0f8f9b          	addiw	x31,x31,160 # 37a0a0 <machine_csr_jump_table_flags>
    80014118:	00200f13          	li	x30,2
    8001411c:	01efb023          	sd	x30,0(x31)
    80014120:	000f0fb7          	lui	x31,0xf0
    80014124:	001f8f9b          	addiw	x31,x31,1 # f0001 <current_test_index+0x52e69>
    80014128:	00cf9f93          	slli	x31,x31,0xc
    8001412c:	005f8f93          	addi	x31,x31,5
    80014130:	00000073          	ecall

0000000080014134 <SID_01_senvcfg_pmm_warl_passed>:
    80014134:	00f00f9b          	addiw	x31,x0,15
    80014138:	01cf9f93          	slli	x31,x31,0x1c
    8001413c:	001f8f93          	addi	x31,x31,1
    80014140:	00000073          	ecall

0000000080014144 <SID_02_henvcfg_hstatus_pmm_warl>:
    80014144:	0012c137          	lui	x2,0x12c
    80014148:	ba51011b          	addiw	x2,x2,-1115 # 12bba5 <current_test_index+0x8ea0d>
    8001414c:	00c11113          	slli	x2,x2,0xc
    80014150:	0037afb7          	lui	x31,0x37a
    80014154:	0a0f8f9b          	addiw	x31,x31,160 # 37a0a0 <machine_csr_jump_table_flags>
    80014158:	00300f13          	li	x30,3
    8001415c:	01efb023          	sd	x30,0(x31)
    80014160:	000f0fb7          	lui	x31,0xf0
    80014164:	001f8f9b          	addiw	x31,x31,1 # f0001 <current_test_index+0x52e69>
    80014168:	00cf9f93          	slli	x31,x31,0xc
    8001416c:	005f8f93          	addi	x31,x31,5
    80014170:	00000073          	ecall
    80014174:	00713023          	sd	x7,0(x2)
    80014178:	0037afb7          	lui	x31,0x37a
    8001417c:	0a0f8f9b          	addiw	x31,x31,160 # 37a0a0 <machine_csr_jump_table_flags>
    80014180:	00400f13          	li	x30,4
    80014184:	01efb023          	sd	x30,0(x31)
    80014188:	000f0fb7          	lui	x31,0xf0
    8001418c:	001f8f9b          	addiw	x31,x31,1 # f0001 <current_test_index+0x52e69>
    80014190:	00cf9f93          	slli	x31,x31,0xc
    80014194:	005f8f93          	addi	x31,x31,5
    80014198:	00000073          	ecall
    8001419c:	00713423          	sd	x7,8(x2)
    800141a0:	00f0c137          	lui	x2,0xf0c
    800141a4:	000012b7          	lui	x5,0x1
    800141a8:	00510133          	add	x2,x2,x5
    800141ac:	ff017113          	andi	x2,x2,-16
    800141b0:	60a029f3          	csrr	x19,henvcfg
    800141b4:	00100d9b          	addiw	x27,x0,1
    800141b8:	020d9d93          	slli	x27,x27,0x20
    800141bc:	60ad9973          	csrrw	x18,henvcfg,x27
    800141c0:	60a02973          	csrr	x18,henvcfg
    800141c4:	02095993          	srli	x19,x18,0x20
    800141c8:	0039fc13          	andi	x24,x19,3
    800141cc:	00100893          	li	x17,1
    800141d0:	011c1a63          	bne	x24,x17,800141e4 <pass_label_1>
    800141d4:	0037ae37          	lui	x28,0x37a
    800141d8:	008e0e1b          	addiw	x28,x28,8 # 37a008 <failed_addr>
    800141dc:	000e3b83          	ld	x23,0(x28)
    800141e0:	000b8067          	jr	x23

00000000800141e4 <pass_label_1>:
    800141e4:	60002ef3          	csrr	x29,hstatus
    800141e8:	0010071b          	addiw	x14,x0,1
    800141ec:	03071713          	slli	x14,x14,0x30
    800141f0:	600713f3          	csrrw	x7,hstatus,x14
    800141f4:	60002373          	csrr	x6,hstatus
    800141f8:	03035c93          	srli	x25,x6,0x30
    800141fc:	003cfd93          	andi	x27,x25,3
    80014200:	011d9a63          	bne	x27,x17,80014214 <pass_label_2>
    80014204:	0037ab37          	lui	x22,0x37a
    80014208:	008b0b1b          	addiw	x22,x22,8 # 37a008 <failed_addr>
    8001420c:	000b3f83          	ld	x31,0(x22)
    80014210:	000f8067          	jr	x31

0000000080014214 <pass_label_2>:
    80014214:	0012c137          	lui	x2,0x12c
    80014218:	ba51011b          	addiw	x2,x2,-1115 # 12bba5 <current_test_index+0x8ea0d>
    8001421c:	00c11113          	slli	x2,x2,0xc
    80014220:	00013383          	ld	x7,0(x2)
    80014224:	0037afb7          	lui	x31,0x37a
    80014228:	0a0f8f9b          	addiw	x31,x31,160 # 37a0a0 <machine_csr_jump_table_flags>
    8001422c:	00500f13          	li	x30,5
    80014230:	01efb023          	sd	x30,0(x31)
    80014234:	000f0fb7          	lui	x31,0xf0
    80014238:	001f8f9b          	addiw	x31,x31,1 # f0001 <current_test_index+0x52e69>
    8001423c:	00cf9f93          	slli	x31,x31,0xc
    80014240:	005f8f93          	addi	x31,x31,5
    80014244:	00000073          	ecall
    80014248:	00813383          	ld	x7,8(x2)
    8001424c:	0037afb7          	lui	x31,0x37a
    80014250:	0a0f8f9b          	addiw	x31,x31,160 # 37a0a0 <machine_csr_jump_table_flags>
    80014254:	00600f13          	li	x30,6
    80014258:	01efb023          	sd	x30,0(x31)
    8001425c:	000f0fb7          	lui	x31,0xf0
    80014260:	001f8f9b          	addiw	x31,x31,1 # f0001 <current_test_index+0x52e69>
    80014264:	00cf9f93          	slli	x31,x31,0xc
    80014268:	005f8f93          	addi	x31,x31,5
    8001426c:	00000073          	ecall

0000000080014270 <SID_02_henvcfg_hstatus_pmm_warl_passed>:
    80014270:	00f00f9b          	addiw	x31,x0,15
    80014274:	01cf9f93          	slli	x31,x31,0x1c
    80014278:	001f8f93          	addi	x31,x31,1
    8001427c:	00000073          	ecall

0000000080014280 <SID_07_pm_disabled_s_hs_mode>:
    80014280:	0012c137          	lui	x2,0x12c
    80014284:	ba51011b          	addiw	x2,x2,-1115 # 12bba5 <current_test_index+0x8ea0d>
    80014288:	00c11113          	slli	x2,x2,0xc
    8001428c:	0037afb7          	lui	x31,0x37a
    80014290:	0a0f8f9b          	addiw	x31,x31,160 # 37a0a0 <machine_csr_jump_table_flags>
    80014294:	00700f13          	li	x30,7
    80014298:	01efb023          	sd	x30,0(x31)
    8001429c:	000f0fb7          	lui	x31,0xf0
    800142a0:	001f8f9b          	addiw	x31,x31,1 # f0001 <current_test_index+0x52e69>
    800142a4:	00cf9f93          	slli	x31,x31,0xc
    800142a8:	005f8f93          	addi	x31,x31,5
    800142ac:	00000073          	ecall
    800142b0:	00713023          	sd	x7,0(x2)
    800142b4:	00b27137          	lui	x2,0xb27
    800142b8:	93d1011b          	addiw	x2,x2,-1731 # b2693d <mem3+0x54f93d>
    800142bc:	00c11113          	slli	x2,x2,0xc
    800142c0:	000012b7          	lui	x5,0x1
    800142c4:	00510133          	add	x2,x2,x5
    800142c8:	ff017113          	andi	x2,x2,-16
    800142cc:	0030039b          	addiw	x7,x0,3
    800142d0:	02039393          	slli	x7,x7,0x20
    800142d4:	0037afb7          	lui	x31,0x37a
    800142d8:	0a0f8f9b          	addiw	x31,x31,160 # 37a0a0 <machine_csr_jump_table_flags>
    800142dc:	00800f13          	li	x30,8
    800142e0:	01efb023          	sd	x30,0(x31)
    800142e4:	000f0fb7          	lui	x31,0xf0
    800142e8:	001f8f9b          	addiw	x31,x31,1 # f0001 <current_test_index+0x52e69>
    800142ec:	00cf9f93          	slli	x31,x31,0xc
    800142f0:	005f8f93          	addi	x31,x31,5
    800142f4:	00000073          	ecall
    800142f8:	00008c37          	lui	x24,0x8
    800142fc:	f77c0c1b          	addiw	x24,x24,-137 # 7f77 <_all_interrupts+0x54cd>
    80014300:	011c1c13          	slli	x24,x24,0x11
    80014304:	acec0c13          	addi	x24,x24,-1330
    80014308:	4f1f1637          	lui	x12,0x4f1f1
    8001430c:	01862023          	sw	x24,0(x12) # 4f1f1000 <mem0>
    80014310:	4f1f17b7          	lui	x15,0x4f1f1
    80014314:	fff0081b          	addiw	x16,x0,-1
    80014318:	03981813          	slli	x16,x16,0x39
    8001431c:	0107c433          	xor	x8,x15,x16
    80014320:	0009d237          	lui	x4,0x9d
    80014324:	00d00e13          	li	x28,13
    80014328:	05c23823          	sd	x28,80(x4) # 9d050 <check_excp_expected_cause>
    8001432c:	00000e17          	auipc	x28,0x0
    80014330:	048e0e13          	addi	x28,x28,72 # 80014374 <fault_label_0>
    80014334:	03c23023          	sd	x28,32(x4) # 20 <SECURE_ACCESS_PROBABILITY+0x2>
    80014338:	00000e13          	li	x28,0
    8001433c:	05c23023          	sd	x28,64(x4) # 40 <XLEN>
    80014340:	00000e13          	li	x28,0
    80014344:	05c23423          	sd	x28,72(x4) # 48 <XLEN+0x8>
    80014348:	00000e17          	auipc	x28,0x0
    8001434c:	040e0e13          	addi	x28,x28,64 # 80014388 <excp_return_label_0>
    80014350:	03c23823          	sd	x28,48(x4) # 30 <SECURE_ACCESS_PROBABILITY+0x12>
    80014354:	00000e13          	li	x28,0
    80014358:	03c23c23          	sd	x28,56(x4) # 38 <SECURE_ACCESS_PROBABILITY+0x1a>
    8001435c:	00000e13          	li	x28,0
    80014360:	07c23023          	sd	x28,96(x4) # 60 <XLEN+0x20>
    80014364:	00000e13          	li	x28,0
    80014368:	07c23423          	sd	x28,104(x4) # 68 <FS_RANDOMIZATION+0x4>
    8001436c:	00000e13          	li	x28,0
    80014370:	07c23823          	sd	x28,112(x4) # 70 <FS_RANDOMIZATION+0xc>

0000000080014374 <fault_label_0>:
    80014374:	00043703          	ld	x14,0(x8)
    80014378:	0037ab37          	lui	x22,0x37a
    8001437c:	008b0b1b          	addiw	x22,x22,8 # 37a008 <failed_addr>
    80014380:	000b3883          	ld	x17,0(x22)
    80014384:	00088067          	jr	x17

0000000080014388 <excp_return_label_0>:
    80014388:	0012c137          	lui	x2,0x12c
    8001438c:	ba51011b          	addiw	x2,x2,-1115 # 12bba5 <current_test_index+0x8ea0d>
    80014390:	00c11113          	slli	x2,x2,0xc
    80014394:	00013383          	ld	x7,0(x2)
    80014398:	0037afb7          	lui	x31,0x37a
    8001439c:	0a0f8f9b          	addiw	x31,x31,160 # 37a0a0 <machine_csr_jump_table_flags>
    800143a0:	00900f13          	li	x30,9
    800143a4:	01efb023          	sd	x30,0(x31)
    800143a8:	000f0fb7          	lui	x31,0xf0
    800143ac:	001f8f9b          	addiw	x31,x31,1 # f0001 <current_test_index+0x52e69>
    800143b0:	00cf9f93          	slli	x31,x31,0xc
    800143b4:	005f8f93          	addi	x31,x31,5
    800143b8:	00000073          	ecall

00000000800143bc <SID_07_pm_disabled_s_hs_mode_passed>:
    800143bc:	00f00f9b          	addiw	x31,x0,15
    800143c0:	01cf9f93          	slli	x31,x31,0x1c
    800143c4:	001f8f93          	addi	x31,x31,1
    800143c8:	00000073          	ecall

00000000800143cc <SID_11_pm_enabled_s_hs_mode>:
    800143cc:	0012c137          	lui	x2,0x12c
    800143d0:	ba51011b          	addiw	x2,x2,-1115 # 12bba5 <current_test_index+0x8ea0d>
    800143d4:	00c11113          	slli	x2,x2,0xc
    800143d8:	0037afb7          	lui	x31,0x37a
    800143dc:	0a0f8f9b          	addiw	x31,x31,160 # 37a0a0 <machine_csr_jump_table_flags>
    800143e0:	00700f13          	li	x30,7
    800143e4:	01efb023          	sd	x30,0(x31)
    800143e8:	000f0fb7          	lui	x31,0xf0
    800143ec:	001f8f9b          	addiw	x31,x31,1 # f0001 <current_test_index+0x52e69>
    800143f0:	00cf9f93          	slli	x31,x31,0xc
    800143f4:	005f8f93          	addi	x31,x31,5
    800143f8:	00000073          	ecall
    800143fc:	00713023          	sd	x7,0(x2)
    80014400:	00040137          	lui	x2,0x40
    80014404:	10b1011b          	addiw	x2,x2,267 # 4010b <_all_interrupts+0x3d661>
    80014408:	00d11113          	slli	x2,x2,0xd
    8001440c:	000012b7          	lui	x5,0x1
    80014410:	00510133          	add	x2,x2,x5
    80014414:	ff017113          	andi	x2,x2,-16
    80014418:	0010039b          	addiw	x7,x0,1
    8001441c:	02139393          	slli	x7,x7,0x21
    80014420:	0037afb7          	lui	x31,0x37a
    80014424:	0a0f8f9b          	addiw	x31,x31,160 # 37a0a0 <machine_csr_jump_table_flags>
    80014428:	00b00f13          	li	x30,11
    8001442c:	01efb023          	sd	x30,0(x31)
    80014430:	000f0fb7          	lui	x31,0xf0
    80014434:	001f8f9b          	addiw	x31,x31,1 # f0001 <current_test_index+0x52e69>
    80014438:	00cf9f93          	slli	x31,x31,0xc
    8001443c:	005f8f93          	addi	x31,x31,5
    80014440:	00000073          	ecall
    80014444:	123453b7          	lui	x7,0x12345
    80014448:	6783839b          	addiw	x7,x7,1656 # 12345678 <maplic_255+0x1a46678>
    8001444c:	05ed9a37          	lui	x20,0x5ed9
    80014450:	007a3023          	sd	x7,0(x20) # 5ed9000 <mem1>
    80014454:	05ed9fb7          	lui	x31,0x5ed9
    80014458:	fff00c1b          	addiw	x24,x0,-1
    8001445c:	039c1c13          	slli	x24,x24,0x39
    80014460:	018fcfb3          	xor	x31,x31,x24
    80014464:	000fb607          	fld	f12,0(x31) # 5ed9000 <mem1>
    80014468:	000acdb7          	lui	x27,0xac
    8001446c:	cdfd8d9b          	addiw	x27,x27,-801 # abcdf <current_test_index+0xeb47>
    80014470:	00cd9d93          	slli	x27,x27,0xc
    80014474:	f00d8d93          	addi	x27,x27,-256
    80014478:	d01df6d3          	fcvt.s.wu	f13,x27
    8001447c:	00dfb027          	fsd	f13,0(x31)
    80014480:	05ed9937          	lui	x18,0x5ed9
    80014484:	00093b83          	ld	x23,0(x18) # 5ed9000 <mem1>
    80014488:	0012c137          	lui	x2,0x12c
    8001448c:	ba51011b          	addiw	x2,x2,-1115 # 12bba5 <current_test_index+0x8ea0d>
    80014490:	00c11113          	slli	x2,x2,0xc
    80014494:	00013383          	ld	x7,0(x2)
    80014498:	0037afb7          	lui	x31,0x37a
    8001449c:	0a0f8f9b          	addiw	x31,x31,160 # 37a0a0 <machine_csr_jump_table_flags>
    800144a0:	00900f13          	li	x30,9
    800144a4:	01efb023          	sd	x30,0(x31)
    800144a8:	000f0fb7          	lui	x31,0xf0
    800144ac:	001f8f9b          	addiw	x31,x31,1 # f0001 <current_test_index+0x52e69>
    800144b0:	00cf9f93          	slli	x31,x31,0xc
    800144b4:	005f8f93          	addi	x31,x31,5
    800144b8:	00000073          	ecall

00000000800144bc <SID_11_pm_enabled_s_hs_mode_passed>:
    800144bc:	00f00f9b          	addiw	x31,x0,15
    800144c0:	01cf9f93          	slli	x31,x31,0x1c
    800144c4:	001f8f93          	addi	x31,x31,1
    800144c8:	00000073          	ecall

00000000800144cc <SID_22_pm_disabled_mxr_set>:
    800144cc:	0012c137          	lui	x2,0x12c
    800144d0:	ba51011b          	addiw	x2,x2,-1115 # 12bba5 <current_test_index+0x8ea0d>
    800144d4:	00c11113          	slli	x2,x2,0xc
    800144d8:	0037afb7          	lui	x31,0x37a
    800144dc:	0a0f8f9b          	addiw	x31,x31,160 # 37a0a0 <machine_csr_jump_table_flags>
    800144e0:	00d00f13          	li	x30,13
    800144e4:	01efb023          	sd	x30,0(x31)
    800144e8:	000f0fb7          	lui	x31,0xf0
    800144ec:	001f8f9b          	addiw	x31,x31,1 # f0001 <current_test_index+0x52e69>
    800144f0:	00cf9f93          	slli	x31,x31,0xc
    800144f4:	005f8f93          	addi	x31,x31,5
    800144f8:	00000073          	ecall
    800144fc:	00713023          	sd	x7,0(x2)
    80014500:	0037afb7          	lui	x31,0x37a
    80014504:	0a0f8f9b          	addiw	x31,x31,160 # 37a0a0 <machine_csr_jump_table_flags>
    80014508:	00100f13          	li	x30,1
    8001450c:	01efb023          	sd	x30,0(x31)
    80014510:	000f0fb7          	lui	x31,0xf0
    80014514:	001f8f9b          	addiw	x31,x31,1 # f0001 <current_test_index+0x52e69>
    80014518:	00cf9f93          	slli	x31,x31,0xc
    8001451c:	005f8f93          	addi	x31,x31,5
    80014520:	00000073          	ecall
    80014524:	00713423          	sd	x7,8(x2)
    80014528:	00ddb137          	lui	x2,0xddb
    8001452c:	e2b1011b          	addiw	x2,x2,-469 # ddae2b <mem9+0x3de2b>
    80014530:	00c11113          	slli	x2,x2,0xc
    80014534:	000012b7          	lui	x5,0x1
    80014538:	00510133          	add	x2,x2,x5
    8001453c:	ff017113          	andi	x2,x2,-16
    80014540:	00100e1b          	addiw	x28,x0,1
    80014544:	021e1e13          	slli	x28,x28,0x21
    80014548:	10ae2f73          	csrrs	x30,0x10a,x28
    8001454c:	00080a37          	lui	x20,0x80
    80014550:	000a0393          	mv	x7,x20
    80014554:	0037afb7          	lui	x31,0x37a
    80014558:	0a0f8f9b          	addiw	x31,x31,160 # 37a0a0 <machine_csr_jump_table_flags>
    8001455c:	00f00f13          	li	x30,15
    80014560:	01efb023          	sd	x30,0(x31)
    80014564:	000f0fb7          	lui	x31,0xf0
    80014568:	001f8f9b          	addiw	x31,x31,1 # f0001 <current_test_index+0x52e69>
    8001456c:	00cf9f93          	slli	x31,x31,0xc
    80014570:	005f8f93          	addi	x31,x31,5
    80014574:	00000073          	ecall
    80014578:	12345eb7          	lui	x29,0x12345
    8001457c:	678e8e9b          	addiw	x29,x29,1656 # 12345678 <maplic_255+0x1a46678>
    80014580:	ff716c37          	lui	x24,0xff716
    80014584:	b5fc0c1b          	addiw	x24,x24,-1185 # ffffffffff715b5f <mem2+0x23a8999b5f>
    80014588:	00ec1c13          	slli	x24,x24,0xe
    8001458c:	01dc3023          	sd	x29,0(x24)
    80014590:	ff716737          	lui	x14,0xff716
    80014594:	b5f7071b          	addiw	x14,x14,-1185 # ffffffffff715b5f <mem2+0x23a8999b5f>
    80014598:	00e71713          	slli	x14,x14,0xe
    8001459c:	fff00c9b          	addiw	x25,x0,-1
    800145a0:	039c9c93          	slli	x25,x25,0x39
    800145a4:	019748b3          	xor	x17,x14,x25
    800145a8:	0009d237          	lui	x4,0x9d
    800145ac:	00d00e13          	li	x28,13
    800145b0:	05c23823          	sd	x28,80(x4) # 9d050 <check_excp_expected_cause>
    800145b4:	00000e17          	auipc	x28,0x0
    800145b8:	048e0e13          	addi	x28,x28,72 # 800145fc <fault_label_1>
    800145bc:	03c23023          	sd	x28,32(x4) # 20 <SECURE_ACCESS_PROBABILITY+0x2>
    800145c0:	00000e13          	li	x28,0
    800145c4:	05c23023          	sd	x28,64(x4) # 40 <XLEN>
    800145c8:	00000e13          	li	x28,0
    800145cc:	05c23423          	sd	x28,72(x4) # 48 <XLEN+0x8>
    800145d0:	00000e17          	auipc	x28,0x0
    800145d4:	040e0e13          	addi	x28,x28,64 # 80014610 <excp_return_label_1>
    800145d8:	03c23823          	sd	x28,48(x4) # 30 <SECURE_ACCESS_PROBABILITY+0x12>
    800145dc:	00000e13          	li	x28,0
    800145e0:	03c23c23          	sd	x28,56(x4) # 38 <SECURE_ACCESS_PROBABILITY+0x1a>
    800145e4:	00000e13          	li	x28,0
    800145e8:	07c23023          	sd	x28,96(x4) # 60 <XLEN+0x20>
    800145ec:	00000e13          	li	x28,0
    800145f0:	07c23423          	sd	x28,104(x4) # 68 <FS_RANDOMIZATION+0x4>
    800145f4:	00000e13          	li	x28,0
    800145f8:	07c23823          	sd	x28,112(x4) # 70 <FS_RANDOMIZATION+0xc>

00000000800145fc <fault_label_1>:
    800145fc:	0008bf07          	fld	f30,0(x17)
    80014600:	0037adb7          	lui	x27,0x37a
    80014604:	008d8d9b          	addiw	x27,x27,8 # 37a008 <failed_addr>
    80014608:	000dbe03          	ld	x28,0(x27)
    8001460c:	000e0067          	jr	x28

0000000080014610 <excp_return_label_1>:
    80014610:	0012c137          	lui	x2,0x12c
    80014614:	ba51011b          	addiw	x2,x2,-1115 # 12bba5 <current_test_index+0x8ea0d>
    80014618:	00c11113          	slli	x2,x2,0xc
    8001461c:	00013383          	ld	x7,0(x2)
    80014620:	0037afb7          	lui	x31,0x37a
    80014624:	0a0f8f9b          	addiw	x31,x31,160 # 37a0a0 <machine_csr_jump_table_flags>
    80014628:	01000f13          	li	x30,16
    8001462c:	01efb023          	sd	x30,0(x31)
    80014630:	000f0fb7          	lui	x31,0xf0
    80014634:	001f8f9b          	addiw	x31,x31,1 # f0001 <current_test_index+0x52e69>
    80014638:	00cf9f93          	slli	x31,x31,0xc
    8001463c:	005f8f93          	addi	x31,x31,5
    80014640:	00000073          	ecall
    80014644:	00813383          	ld	x7,8(x2)
    80014648:	0037afb7          	lui	x31,0x37a
    8001464c:	0a0f8f9b          	addiw	x31,x31,160 # 37a0a0 <machine_csr_jump_table_flags>
    80014650:	00200f13          	li	x30,2
    80014654:	01efb023          	sd	x30,0(x31)
    80014658:	000f0fb7          	lui	x31,0xf0
    8001465c:	001f8f9b          	addiw	x31,x31,1 # f0001 <current_test_index+0x52e69>
    80014660:	00cf9f93          	slli	x31,x31,0xc
    80014664:	005f8f93          	addi	x31,x31,5
    80014668:	00000073          	ecall

000000008001466c <SID_22_pm_disabled_mxr_set_passed>:
    8001466c:	00f00f9b          	addiw	x31,x0,15
    80014670:	01cf9f93          	slli	x31,x31,0x1c
    80014674:	001f8f93          	addi	x31,x31,1
    80014678:	00000073          	ecall

000000008001467c <SID_23_pm_invalidation_instructions>:
    8001467c:	0012c137          	lui	x2,0x12c
    80014680:	ba51011b          	addiw	x2,x2,-1115 # 12bba5 <current_test_index+0x8ea0d>
    80014684:	00c11113          	slli	x2,x2,0xc
    80014688:	0037afb7          	lui	x31,0x37a
    8001468c:	0a0f8f9b          	addiw	x31,x31,160 # 37a0a0 <machine_csr_jump_table_flags>
    80014690:	00100f13          	li	x30,1
    80014694:	01efb023          	sd	x30,0(x31)
    80014698:	000f0fb7          	lui	x31,0xf0
    8001469c:	001f8f9b          	addiw	x31,x31,1 # f0001 <current_test_index+0x52e69>
    800146a0:	00cf9f93          	slli	x31,x31,0xc
    800146a4:	005f8f93          	addi	x31,x31,5
    800146a8:	00000073          	ecall
    800146ac:	00713023          	sd	x7,0(x2)
    800146b0:	05901137          	lui	x2,0x5901
    800146b4:	000012b7          	lui	x5,0x1
    800146b8:	00510133          	add	x2,x2,x5
    800146bc:	ff017113          	andi	x2,x2,-16
    800146c0:	00100a1b          	addiw	x20,x0,1
    800146c4:	021a1a13          	slli	x20,x20,0x21
    800146c8:	10aa28f3          	csrrs	x17,0x10a,x20
    800146cc:	000acd37          	lui	x26,0xac
    800146d0:	cd1d0d1b          	addiw	x26,x26,-815 # abcd1 <current_test_index+0xeb39>
    800146d4:	00cd1d13          	slli	x26,x26,0xc
    800146d8:	234d0d13          	addi	x26,x26,564
    800146dc:	005d7a37          	lui	x20,0x5d7
    800146e0:	d01d7f53          	fcvt.s.wu	f30,x26
    800146e4:	01ea3027          	fsd	f30,0(x20) # 5d7000 <mem3>
    800146e8:	005d7cb7          	lui	x25,0x5d7
    800146ec:	000cbc07          	fld	f24,0(x25) # 5d7000 <mem3>
    800146f0:	0012c137          	lui	x2,0x12c
    800146f4:	ba51011b          	addiw	x2,x2,-1115 # 12bba5 <current_test_index+0x8ea0d>
    800146f8:	00c11113          	slli	x2,x2,0xc
    800146fc:	00013383          	ld	x7,0(x2)
    80014700:	0037afb7          	lui	x31,0x37a
    80014704:	0a0f8f9b          	addiw	x31,x31,160 # 37a0a0 <machine_csr_jump_table_flags>
    80014708:	00200f13          	li	x30,2
    8001470c:	01efb023          	sd	x30,0(x31)
    80014710:	000f0fb7          	lui	x31,0xf0
    80014714:	001f8f9b          	addiw	x31,x31,1 # f0001 <current_test_index+0x52e69>
    80014718:	00cf9f93          	slli	x31,x31,0xc
    8001471c:	005f8f93          	addi	x31,x31,5
    80014720:	00000073          	ecall

0000000080014724 <SID_23_pm_invalidation_instructions_passed>:
    80014724:	00f00f9b          	addiw	x31,x0,15
    80014728:	01cf9f93          	slli	x31,x31,0x1c
    8001472c:	001f8f93          	addi	x31,x31,1
    80014730:	00000073          	ecall

0000000080014734 <SID_24_pm_instruction_set>:
    80014734:	0012c137          	lui	x2,0x12c
    80014738:	ba51011b          	addiw	x2,x2,-1115 # 12bba5 <current_test_index+0x8ea0d>
    8001473c:	00c11113          	slli	x2,x2,0xc
    80014740:	0037afb7          	lui	x31,0x37a
    80014744:	0a0f8f9b          	addiw	x31,x31,160 # 37a0a0 <machine_csr_jump_table_flags>
    80014748:	00100f13          	li	x30,1
    8001474c:	01efb023          	sd	x30,0(x31)
    80014750:	000f0fb7          	lui	x31,0xf0
    80014754:	001f8f9b          	addiw	x31,x31,1 # f0001 <current_test_index+0x52e69>
    80014758:	00cf9f93          	slli	x31,x31,0xc
    8001475c:	005f8f93          	addi	x31,x31,5
    80014760:	00000073          	ecall
    80014764:	00713023          	sd	x7,0(x2)
    80014768:	0035c137          	lui	x2,0x35c
    8001476c:	000012b7          	lui	x5,0x1
    80014770:	00510133          	add	x2,x2,x5
    80014774:	ff017113          	andi	x2,x2,-16
    80014778:	00100d9b          	addiw	x27,x0,1
    8001477c:	021d9d93          	slli	x27,x27,0x21
    80014780:	10ada6f3          	csrrs	x13,0x10a,x27
    80014784:	112238b7          	lui	x17,0x11223
    80014788:	3448889b          	addiw	x17,x17,836 # 11223344 <maplic_255+0x924344>
    8001478c:	00053fb7          	lui	x31,0x53
    80014790:	011fa023          	sw	x17,0(x31) # 53000 <mem4>
    80014794:	000535b7          	lui	x11,0x53
    80014798:	0005be87          	fld	f29,0(x11) # 53000 <mem4>
    8001479c:	0012c137          	lui	x2,0x12c
    800147a0:	ba51011b          	addiw	x2,x2,-1115 # 12bba5 <current_test_index+0x8ea0d>
    800147a4:	00c11113          	slli	x2,x2,0xc
    800147a8:	00013383          	ld	x7,0(x2)
    800147ac:	0037afb7          	lui	x31,0x37a
    800147b0:	0a0f8f9b          	addiw	x31,x31,160 # 37a0a0 <machine_csr_jump_table_flags>
    800147b4:	00200f13          	li	x30,2
    800147b8:	01efb023          	sd	x30,0(x31)
    800147bc:	000f0fb7          	lui	x31,0xf0
    800147c0:	001f8f9b          	addiw	x31,x31,1 # f0001 <current_test_index+0x52e69>
    800147c4:	00cf9f93          	slli	x31,x31,0xc
    800147c8:	005f8f93          	addi	x31,x31,5
    800147cc:	00000073          	ecall

00000000800147d0 <SID_24_pm_instruction_set_passed>:
    800147d0:	00f00f9b          	addiw	x31,x0,15
    800147d4:	01cf9f93          	slli	x31,x31,0x1c
    800147d8:	001f8f93          	addi	x31,x31,1
    800147dc:	00000073          	ecall

00000000800147e0 <SID_25_pm_misaligned_access>:
    800147e0:	0012c137          	lui	x2,0x12c
    800147e4:	ba51011b          	addiw	x2,x2,-1115 # 12bba5 <current_test_index+0x8ea0d>
    800147e8:	00c11113          	slli	x2,x2,0xc
    800147ec:	0037afb7          	lui	x31,0x37a
    800147f0:	0a0f8f9b          	addiw	x31,x31,160 # 37a0a0 <machine_csr_jump_table_flags>
    800147f4:	00100f13          	li	x30,1
    800147f8:	01efb023          	sd	x30,0(x31)
    800147fc:	000f0fb7          	lui	x31,0xf0
    80014800:	001f8f9b          	addiw	x31,x31,1 # f0001 <current_test_index+0x52e69>
    80014804:	00cf9f93          	slli	x31,x31,0xc
    80014808:	005f8f93          	addi	x31,x31,5
    8001480c:	00000073          	ecall
    80014810:	00713023          	sd	x7,0(x2)
    80014814:	00474137          	lui	x2,0x474
    80014818:	000012b7          	lui	x5,0x1
    8001481c:	00510133          	add	x2,x2,x5
    80014820:	ff017113          	andi	x2,x2,-16
    80014824:	0030079b          	addiw	x15,x0,3
    80014828:	02079793          	slli	x15,x15,0x20
    8001482c:	10a7a873          	csrrs	x16,0x10a,x15
    80014830:	55667837          	lui	x16,0x55667
    80014834:	7888081b          	addiw	x16,x16,1928 # 55667788 <mem0+0x6476788>
    80014838:	02e37f37          	lui	x30,0x2e37
    8001483c:	d0187dd3          	fcvt.s.wu	f27,x16
    80014840:	01bf3027          	fsd	f27,0(x30) # 2e37000 <mem5>
    80014844:	02e37c37          	lui	x24,0x2e37
    80014848:	000c3907          	fld	f18,0(x24) # 2e37000 <mem5>
    8001484c:	0012c137          	lui	x2,0x12c
    80014850:	ba51011b          	addiw	x2,x2,-1115 # 12bba5 <current_test_index+0x8ea0d>
    80014854:	00c11113          	slli	x2,x2,0xc
    80014858:	00013383          	ld	x7,0(x2)
    8001485c:	0037afb7          	lui	x31,0x37a
    80014860:	0a0f8f9b          	addiw	x31,x31,160 # 37a0a0 <machine_csr_jump_table_flags>
    80014864:	00200f13          	li	x30,2
    80014868:	01efb023          	sd	x30,0(x31)
    8001486c:	000f0fb7          	lui	x31,0xf0
    80014870:	001f8f9b          	addiw	x31,x31,1 # f0001 <current_test_index+0x52e69>
    80014874:	00cf9f93          	slli	x31,x31,0xc
    80014878:	005f8f93          	addi	x31,x31,5
    8001487c:	00000073          	ecall

0000000080014880 <SID_25_pm_misaligned_access_passed>:
    80014880:	00f00f9b          	addiw	x31,x0,15
    80014884:	01cf9f93          	slli	x31,x31,0x1c
    80014888:	001f8f93          	addi	x31,x31,1
    8001488c:	00000073          	ecall

0000000080014890 <SID_26_pm_different_tags_same_address>:
    80014890:	0012c137          	lui	x2,0x12c
    80014894:	ba51011b          	addiw	x2,x2,-1115 # 12bba5 <current_test_index+0x8ea0d>
    80014898:	00c11113          	slli	x2,x2,0xc
    8001489c:	0037afb7          	lui	x31,0x37a
    800148a0:	0a0f8f9b          	addiw	x31,x31,160 # 37a0a0 <machine_csr_jump_table_flags>
    800148a4:	00100f13          	li	x30,1
    800148a8:	01efb023          	sd	x30,0(x31)
    800148ac:	000f0fb7          	lui	x31,0xf0
    800148b0:	001f8f9b          	addiw	x31,x31,1 # f0001 <current_test_index+0x52e69>
    800148b4:	00cf9f93          	slli	x31,x31,0xc
    800148b8:	005f8f93          	addi	x31,x31,5
    800148bc:	00000073          	ecall
    800148c0:	00713023          	sd	x7,0(x2)
    800148c4:	07d2a137          	lui	x2,0x7d2a
    800148c8:	000012b7          	lui	x5,0x1
    800148cc:	00510133          	add	x2,x2,x5
    800148d0:	ff017113          	andi	x2,x2,-16
    800148d4:	00300a9b          	addiw	x21,x0,3
    800148d8:	020a9a93          	slli	x21,x21,0x20
    800148dc:	10aaabf3          	csrrs	x23,0x10a,x21
    800148e0:	111118b7          	lui	x17,0x11111
    800148e4:	1118889b          	addiw	x17,x17,273 # 11111111 <maplic_255+0x812111>
    800148e8:	002fbf37          	lui	x30,0x2fb
    800148ec:	d028fa53          	fcvt.s.l	f20,x17
    800148f0:	014f3027          	fsd	f20,0(x30) # 2fb000 <mem6>
    800148f4:	22222437          	lui	x8,0x22222
    800148f8:	2224041b          	addiw	x8,x8,546 # 22222222 <saplic_255+0x1923222>
    800148fc:	002fb937          	lui	x18,0x2fb
    80014900:	d2140cd3          	fcvt.d.wu	f25,x8
    80014904:	01993027          	fsd	f25,0(x18) # 2fb000 <mem6>
    80014908:	002fb337          	lui	x6,0x2fb
    8001490c:	00033a07          	fld	f20,0(x6) # 2fb000 <mem6>
    80014910:	0012c137          	lui	x2,0x12c
    80014914:	ba51011b          	addiw	x2,x2,-1115 # 12bba5 <current_test_index+0x8ea0d>
    80014918:	00c11113          	slli	x2,x2,0xc
    8001491c:	00013383          	ld	x7,0(x2)
    80014920:	0037afb7          	lui	x31,0x37a
    80014924:	0a0f8f9b          	addiw	x31,x31,160 # 37a0a0 <machine_csr_jump_table_flags>
    80014928:	00200f13          	li	x30,2
    8001492c:	01efb023          	sd	x30,0(x31)
    80014930:	000f0fb7          	lui	x31,0xf0
    80014934:	001f8f9b          	addiw	x31,x31,1 # f0001 <current_test_index+0x52e69>
    80014938:	00cf9f93          	slli	x31,x31,0xc
    8001493c:	005f8f93          	addi	x31,x31,5
    80014940:	00000073          	ecall

0000000080014944 <SID_26_pm_different_tags_same_address_passed>:
    80014944:	00f00f9b          	addiw	x31,x0,15
    80014948:	01cf9f93          	slli	x31,x31,0x1c
    8001494c:	001f8f93          	addi	x31,x31,1
    80014950:	00000073          	ecall

0000000080014954 <SID_27_pm_implicit_access>:
    80014954:	0012c137          	lui	x2,0x12c
    80014958:	ba51011b          	addiw	x2,x2,-1115 # 12bba5 <current_test_index+0x8ea0d>
    8001495c:	00c11113          	slli	x2,x2,0xc
    80014960:	0037afb7          	lui	x31,0x37a
    80014964:	0a0f8f9b          	addiw	x31,x31,160 # 37a0a0 <machine_csr_jump_table_flags>
    80014968:	00100f13          	li	x30,1
    8001496c:	01efb023          	sd	x30,0(x31)
    80014970:	000f0fb7          	lui	x31,0xf0
    80014974:	001f8f9b          	addiw	x31,x31,1 # f0001 <current_test_index+0x52e69>
    80014978:	00cf9f93          	slli	x31,x31,0xc
    8001497c:	005f8f93          	addi	x31,x31,5
    80014980:	00000073          	ecall
    80014984:	00713023          	sd	x7,0(x2)
    80014988:	421f8137          	lui	x2,0x421f8
    8001498c:	000012b7          	lui	x5,0x1
    80014990:	00510133          	add	x2,x2,x5
    80014994:	ff017113          	andi	x2,x2,-16
    80014998:	0010039b          	addiw	x7,x0,1
    8001499c:	02139393          	slli	x7,x7,0x21
    800149a0:	10a3acf3          	csrrs	x25,0x10a,x7
    800149a4:	00040e37          	lui	x28,0x40
    800149a8:	bb7e0e1b          	addiw	x28,x28,-1097 # 3fbb7 <_all_interrupts+0x3d10d>
    800149ac:	00ee1e13          	slli	x28,x28,0xe
    800149b0:	0dee0e13          	addi	x28,x28,222
    800149b4:	00b27437          	lui	x8,0xb27
    800149b8:	93f4041b          	addiw	x8,x8,-1729 # b2693f <mem3+0x54f93f>
    800149bc:	00c41413          	slli	x8,x8,0xc
    800149c0:	01c43023          	sd	x28,0(x8)
    800149c4:	00b27837          	lui	x16,0xb27
    800149c8:	93f8081b          	addiw	x16,x16,-1729 # b2693f <mem3+0x54f93f>
    800149cc:	00c81813          	slli	x16,x16,0xc
    800149d0:	00083e83          	ld	x29,0(x16)
    800149d4:	000897b7          	lui	x15,0x89
    800149d8:	000780e7          	jalr	x15 # 89000 <code_mem8>
    800149dc:	0012c137          	lui	x2,0x12c
    800149e0:	ba51011b          	addiw	x2,x2,-1115 # 12bba5 <current_test_index+0x8ea0d>
    800149e4:	00c11113          	slli	x2,x2,0xc
    800149e8:	00013383          	ld	x7,0(x2)
    800149ec:	0037afb7          	lui	x31,0x37a
    800149f0:	0a0f8f9b          	addiw	x31,x31,160 # 37a0a0 <machine_csr_jump_table_flags>
    800149f4:	00200f13          	li	x30,2
    800149f8:	01efb023          	sd	x30,0(x31)
    800149fc:	000f0fb7          	lui	x31,0xf0
    80014a00:	001f8f9b          	addiw	x31,x31,1 # f0001 <current_test_index+0x52e69>
    80014a04:	00cf9f93          	slli	x31,x31,0xc
    80014a08:	005f8f93          	addi	x31,x31,5
    80014a0c:	00000073          	ecall

0000000080014a10 <SID_27_pm_implicit_access_passed>:
    80014a10:	00f00f9b          	addiw	x31,x0,15
    80014a14:	01cf9f93          	slli	x31,x31,0x1c
    80014a18:	001f8f93          	addi	x31,x31,1
    80014a1c:	00000073          	ecall

0000000080014a20 <SID_28_pm_faults_trap_values>:
    80014a20:	0012c137          	lui	x2,0x12c
    80014a24:	ba51011b          	addiw	x2,x2,-1115 # 12bba5 <current_test_index+0x8ea0d>
    80014a28:	00c11113          	slli	x2,x2,0xc
    80014a2c:	0037afb7          	lui	x31,0x37a
    80014a30:	0a0f8f9b          	addiw	x31,x31,160 # 37a0a0 <machine_csr_jump_table_flags>
    80014a34:	00100f13          	li	x30,1
    80014a38:	01efb023          	sd	x30,0(x31)
    80014a3c:	000f0fb7          	lui	x31,0xf0
    80014a40:	001f8f9b          	addiw	x31,x31,1 # f0001 <current_test_index+0x52e69>
    80014a44:	00cf9f93          	slli	x31,x31,0xc
    80014a48:	005f8f93          	addi	x31,x31,5
    80014a4c:	00000073          	ecall
    80014a50:	00713023          	sd	x7,0(x2)
    80014a54:	02f6f137          	lui	x2,0x2f6f
    80014a58:	000012b7          	lui	x5,0x1
    80014a5c:	00510133          	add	x2,x2,x5
    80014a60:	ff017113          	andi	x2,x2,-16
    80014a64:	00100f1b          	addiw	x30,x0,1
    80014a68:	021f1f13          	slli	x30,x30,0x21
    80014a6c:	10af2b73          	csrrs	x22,0x10a,x30
    80014a70:	0badf637          	lui	x12,0xbadf
    80014a74:	00d6061b          	addiw	x12,x12,13 # badf00d <SID_26_pm_different_tags_same_address_stack+0x3db500d>
    80014a78:	0009d237          	lui	x4,0x9d
    80014a7c:	00f00e13          	li	x28,15
    80014a80:	05c23823          	sd	x28,80(x4) # 9d050 <check_excp_expected_cause>
    80014a84:	00000e17          	auipc	x28,0x0
    80014a88:	050e0e13          	addi	x28,x28,80 # 80014ad4 <fault_label_2>
    80014a8c:	03c23023          	sd	x28,32(x4) # 20 <SECURE_ACCESS_PROBABILITY+0x2>
    80014a90:	00000e13          	li	x28,0
    80014a94:	05c23023          	sd	x28,64(x4) # 40 <XLEN>
    80014a98:	00000e13          	li	x28,0
    80014a9c:	05c23423          	sd	x28,72(x4) # 48 <XLEN+0x8>
    80014aa0:	00000e17          	auipc	x28,0x0
    80014aa4:	048e0e13          	addi	x28,x28,72 # 80014ae8 <excp_return_label_2>
    80014aa8:	03c23823          	sd	x28,48(x4) # 30 <SECURE_ACCESS_PROBABILITY+0x12>
    80014aac:	00000e13          	li	x28,0
    80014ab0:	03c23c23          	sd	x28,56(x4) # 38 <SECURE_ACCESS_PROBABILITY+0x1a>
    80014ab4:	00000e13          	li	x28,0
    80014ab8:	07c23023          	sd	x28,96(x4) # 60 <XLEN+0x20>
    80014abc:	00000e13          	li	x28,0
    80014ac0:	07c23423          	sd	x28,104(x4) # 68 <FS_RANDOMIZATION+0x4>
    80014ac4:	00000e13          	li	x28,0
    80014ac8:	07c23823          	sd	x28,112(x4) # 70 <FS_RANDOMIZATION+0xc>
    80014acc:	00d9d7b7          	lui	x15,0xd9d
    80014ad0:	d2367453          	fcvt.d.lu	f8,x12

0000000080014ad4 <fault_label_2>:
    80014ad4:	0087a027          	fsw	f8,0(x15) # d9d000 <mem9>
    80014ad8:	0037a6b7          	lui	x13,0x37a
    80014adc:	0086869b          	addiw	x13,x13,8 # 37a008 <failed_addr>
    80014ae0:	0006b383          	ld	x7,0(x13)
    80014ae4:	00038067          	jr	x7

0000000080014ae8 <excp_return_label_2>:
    80014ae8:	0012c137          	lui	x2,0x12c
    80014aec:	ba51011b          	addiw	x2,x2,-1115 # 12bba5 <current_test_index+0x8ea0d>
    80014af0:	00c11113          	slli	x2,x2,0xc
    80014af4:	00013383          	ld	x7,0(x2)
    80014af8:	0037afb7          	lui	x31,0x37a
    80014afc:	0a0f8f9b          	addiw	x31,x31,160 # 37a0a0 <machine_csr_jump_table_flags>
    80014b00:	00200f13          	li	x30,2
    80014b04:	01efb023          	sd	x30,0(x31)
    80014b08:	000f0fb7          	lui	x31,0xf0
    80014b0c:	001f8f9b          	addiw	x31,x31,1 # f0001 <current_test_index+0x52e69>
    80014b10:	00cf9f93          	slli	x31,x31,0xc
    80014b14:	005f8f93          	addi	x31,x31,5
    80014b18:	00000073          	ecall

0000000080014b1c <SID_28_pm_faults_trap_values_passed>:
    80014b1c:	00f00f9b          	addiw	x31,x0,15
    80014b20:	01cf9f93          	slli	x31,x31,0x1c
    80014b24:	001f8f93          	addi	x31,x31,1
    80014b28:	00000073          	ecall

0000000080014b2c <SID_29_pm_xtvec_tagged_address>:
    80014b2c:	0012c137          	lui	x2,0x12c
    80014b30:	ba51011b          	addiw	x2,x2,-1115 # 12bba5 <current_test_index+0x8ea0d>
    80014b34:	00c11113          	slli	x2,x2,0xc
    80014b38:	0037afb7          	lui	x31,0x37a
    80014b3c:	0a0f8f9b          	addiw	x31,x31,160 # 37a0a0 <machine_csr_jump_table_flags>
    80014b40:	00100f13          	li	x30,1
    80014b44:	01efb023          	sd	x30,0(x31)
    80014b48:	000f0fb7          	lui	x31,0xf0
    80014b4c:	001f8f9b          	addiw	x31,x31,1 # f0001 <current_test_index+0x52e69>
    80014b50:	00cf9f93          	slli	x31,x31,0xc
    80014b54:	005f8f93          	addi	x31,x31,5
    80014b58:	00000073          	ecall
    80014b5c:	00713023          	sd	x7,0(x2)
    80014b60:	0037afb7          	lui	x31,0x37a
    80014b64:	0a0f8f9b          	addiw	x31,x31,160 # 37a0a0 <machine_csr_jump_table_flags>
    80014b68:	01f00f13          	li	x30,31
    80014b6c:	01efb023          	sd	x30,0(x31)
    80014b70:	000f0fb7          	lui	x31,0xf0
    80014b74:	001f8f9b          	addiw	x31,x31,1 # f0001 <current_test_index+0x52e69>
    80014b78:	00cf9f93          	slli	x31,x31,0xc
    80014b7c:	005f8f93          	addi	x31,x31,5
    80014b80:	00000073          	ecall
    80014b84:	00713423          	sd	x7,8(x2)
    80014b88:	0044e137          	lui	x2,0x44e
    80014b8c:	000012b7          	lui	x5,0x1
    80014b90:	00510133          	add	x2,x2,x5
    80014b94:	ff017113          	andi	x2,x2,-16
    80014b98:	0010099b          	addiw	x19,x0,1
    80014b9c:	02199993          	slli	x19,x19,0x21
    80014ba0:	10a9aef3          	csrrs	x29,0x10a,x19
    80014ba4:	000139b7          	lui	x19,0x13
    80014ba8:	105993f3          	csrrw	x7,stvec,x19
    80014bac:	10502473          	csrr	x8,stvec
    80014bb0:	0012c137          	lui	x2,0x12c
    80014bb4:	ba51011b          	addiw	x2,x2,-1115 # 12bba5 <current_test_index+0x8ea0d>
    80014bb8:	00c11113          	slli	x2,x2,0xc
    80014bbc:	00013383          	ld	x7,0(x2)
    80014bc0:	0037afb7          	lui	x31,0x37a
    80014bc4:	0a0f8f9b          	addiw	x31,x31,160 # 37a0a0 <machine_csr_jump_table_flags>
    80014bc8:	00200f13          	li	x30,2
    80014bcc:	01efb023          	sd	x30,0(x31)
    80014bd0:	000f0fb7          	lui	x31,0xf0
    80014bd4:	001f8f9b          	addiw	x31,x31,1 # f0001 <current_test_index+0x52e69>
    80014bd8:	00cf9f93          	slli	x31,x31,0xc
    80014bdc:	005f8f93          	addi	x31,x31,5
    80014be0:	00000073          	ecall
    80014be4:	00813383          	ld	x7,8(x2)
    80014be8:	0037afb7          	lui	x31,0x37a
    80014bec:	0a0f8f9b          	addiw	x31,x31,160 # 37a0a0 <machine_csr_jump_table_flags>
    80014bf0:	02100f13          	li	x30,33
    80014bf4:	01efb023          	sd	x30,0(x31)
    80014bf8:	000f0fb7          	lui	x31,0xf0
    80014bfc:	001f8f9b          	addiw	x31,x31,1 # f0001 <current_test_index+0x52e69>
    80014c00:	00cf9f93          	slli	x31,x31,0xc
    80014c04:	005f8f93          	addi	x31,x31,5
    80014c08:	00000073          	ecall

0000000080014c0c <SID_29_pm_xtvec_tagged_address_passed>:
    80014c0c:	00f00f9b          	addiw	x31,x0,15
    80014c10:	01cf9f93          	slli	x31,x31,0x1c
    80014c14:	001f8f93          	addi	x31,x31,1
    80014c18:	00000073          	ecall

0000000080014c1c <test_cleanup>:
    80014c1c:	00f00f9b          	addiw	x31,x0,15
    80014c20:	01cf9f93          	slli	x31,x31,0x1c
    80014c24:	001f8f93          	addi	x31,x31,1
    80014c28:	00000073          	ecall

0000000080014c2c <local_test_failed>:
    80014c2c:	00f00f9b          	addiw	x31,x0,15
    80014c30:	01cf9f93          	slli	x31,x31,0x1c
    80014c34:	002f8f93          	addi	x31,x31,2
    80014c38:	00000073          	ecall

Disassembly of section .csr_machine_0:

0000000080214000 <csr_access_senvcfg_supervisor_key_2_write-0xa8>:
    80214000:	00455fb7          	lui	x31,0x455
    80214004:	e49f8f9b          	addiw	x31,x31,-439 # 454e49 <SID_29_pm_xtvec_tagged_address_stack+0x6e49>
    80214008:	00ef9f93          	slli	x31,x31,0xe
    8021400c:	0a0f8f93          	addi	x31,x31,160
    80214010:	000fbf83          	ld	x31,0(x31)
    80214014:	00200293          	li	x5,2
    80214018:	085f8863          	beq	x31,x5,802140a8 <csr_access_senvcfg_supervisor_key_2_write>
    8021401c:	00100293          	li	x5,1
    80214020:	085f8863          	beq	x31,x5,802140b0 <csr_access_senvcfg_supervisor_key_1_read>
    80214024:	00500293          	li	x5,5
    80214028:	085f8863          	beq	x31,x5,802140b8 <csr_access_henvcfg_supervisor_key_5_write>
    8021402c:	00300293          	li	x5,3
    80214030:	085f8863          	beq	x31,x5,802140c0 <csr_access_henvcfg_supervisor_key_3_read>
    80214034:	00600293          	li	x5,6
    80214038:	085f8863          	beq	x31,x5,802140c8 <csr_access_hstatus_supervisor_key_6_write>
    8021403c:	00400293          	li	x5,4
    80214040:	085f8863          	beq	x31,x5,802140d0 <csr_access_hstatus_supervisor_key_4_read>
    80214044:	00900293          	li	x5,9
    80214048:	085f8863          	beq	x31,x5,802140d8 <csr_access_menvcfg_machine_key_9_write>
    8021404c:	00700293          	li	x5,7
    80214050:	085f8863          	beq	x31,x5,802140e0 <csr_access_menvcfg_machine_key_7_read>
    80214054:	00b00293          	li	x5,11
    80214058:	085f8863          	beq	x31,x5,802140e8 <csr_access_menvcfg_machine_key_11_set>
    8021405c:	00800293          	li	x5,8
    80214060:	085f8863          	beq	x31,x5,802140f0 <csr_access_menvcfg_machine_key_8_clear>
    80214064:	01000293          	li	x5,16
    80214068:	085f8863          	beq	x31,x5,802140f8 <csr_access_mstatus_machine_key_16_write>
    8021406c:	00d00293          	li	x5,13
    80214070:	085f8863          	beq	x31,x5,80214100 <csr_access_mstatus_machine_key_13_read>
    80214074:	00f00293          	li	x5,15
    80214078:	085f8863          	beq	x31,x5,80214108 <csr_access_mstatus_machine_key_15_set>
    8021407c:	02200293          	li	x5,34
    80214080:	085f8863          	beq	x31,x5,80214110 <csr_access_mstatus_machine_key_34_clear>
    80214084:	02100293          	li	x5,33
    80214088:	085f8863          	beq	x31,x5,80214118 <csr_access_stvec_supervisor_key_33_write>
    8021408c:	01f00293          	li	x5,31
    80214090:	085f8863          	beq	x31,x5,80214120 <csr_access_stvec_supervisor_key_31_read>
    80214094:	02400293          	li	x5,36
    80214098:	085f8863          	beq	x31,x5,80214128 <csr_access_mtvec_machine_key_36_set>
    8021409c:	02300293          	li	x5,35
    802140a0:	085f8863          	beq	x31,x5,80214130 <csr_access_mtvec_machine_key_35_clear>
    802140a4:	0940006f          	j	80214138 <end_machine_label>

00000000802140a8 <csr_access_senvcfg_supervisor_key_2_write>:
    802140a8:	10a39073          	csrw	0x10a,x7
    802140ac:	08c0006f          	j	80214138 <end_machine_label>

00000000802140b0 <csr_access_senvcfg_supervisor_key_1_read>:
    802140b0:	10a023f3          	csrr	x7,0x10a
    802140b4:	0840006f          	j	80214138 <end_machine_label>

00000000802140b8 <csr_access_henvcfg_supervisor_key_5_write>:
    802140b8:	60a39073          	csrw	henvcfg,x7
    802140bc:	07c0006f          	j	80214138 <end_machine_label>

00000000802140c0 <csr_access_henvcfg_supervisor_key_3_read>:
    802140c0:	60a023f3          	csrr	x7,henvcfg
    802140c4:	0740006f          	j	80214138 <end_machine_label>

00000000802140c8 <csr_access_hstatus_supervisor_key_6_write>:
    802140c8:	60039073          	csrw	hstatus,x7
    802140cc:	06c0006f          	j	80214138 <end_machine_label>

00000000802140d0 <csr_access_hstatus_supervisor_key_4_read>:
    802140d0:	600023f3          	csrr	x7,hstatus
    802140d4:	0640006f          	j	80214138 <end_machine_label>

00000000802140d8 <csr_access_menvcfg_machine_key_9_write>:
    802140d8:	30a39073          	csrw	0x30a,x7
    802140dc:	05c0006f          	j	80214138 <end_machine_label>

00000000802140e0 <csr_access_menvcfg_machine_key_7_read>:
    802140e0:	30a023f3          	csrr	x7,0x30a
    802140e4:	0540006f          	j	80214138 <end_machine_label>

00000000802140e8 <csr_access_menvcfg_machine_key_11_set>:
    802140e8:	30a3a073          	csrs	0x30a,x7
    802140ec:	04c0006f          	j	80214138 <end_machine_label>

00000000802140f0 <csr_access_menvcfg_machine_key_8_clear>:
    802140f0:	30a3b073          	csrc	0x30a,x7
    802140f4:	0440006f          	j	80214138 <end_machine_label>

00000000802140f8 <csr_access_mstatus_machine_key_16_write>:
    802140f8:	30039073          	csrw	mstatus,x7
    802140fc:	03c0006f          	j	80214138 <end_machine_label>

0000000080214100 <csr_access_mstatus_machine_key_13_read>:
    80214100:	300023f3          	csrr	x7,mstatus
    80214104:	0340006f          	j	80214138 <end_machine_label>

0000000080214108 <csr_access_mstatus_machine_key_15_set>:
    80214108:	3003a073          	csrs	mstatus,x7
    8021410c:	02c0006f          	j	80214138 <end_machine_label>

0000000080214110 <csr_access_mstatus_machine_key_34_clear>:
    80214110:	3003b073          	csrc	mstatus,x7
    80214114:	0240006f          	j	80214138 <end_machine_label>

0000000080214118 <csr_access_stvec_supervisor_key_33_write>:
    80214118:	10539073          	csrw	stvec,x7
    8021411c:	01c0006f          	j	80214138 <end_machine_label>

0000000080214120 <csr_access_stvec_supervisor_key_31_read>:
    80214120:	105023f3          	csrr	x7,stvec
    80214124:	0140006f          	j	80214138 <end_machine_label>

0000000080214128 <csr_access_mtvec_machine_key_36_set>:
    80214128:	3053a073          	csrs	mtvec,x7
    8021412c:	00c0006f          	j	80214138 <end_machine_label>

0000000080214130 <csr_access_mtvec_machine_key_35_clear>:
    80214130:	3053b073          	csrc	mtvec,x7
    80214134:	0040006f          	j	80214138 <end_machine_label>

0000000080214138 <end_machine_label>:
    80214138:	000f0fb7          	lui	x31,0xf0
    8021413c:	001f8f9b          	addiw	x31,x31,1 # f0001 <current_test_index+0x52e69>
    80214140:	00cf9f93          	slli	x31,x31,0xc
    80214144:	004f8f93          	addi	x31,x31,4
    80214148:	00000073          	ecall

Disassembly of section .csr_super_0:

0000000080215000 <end_super_label-0x10>:
    80215000:	0037afb7          	lui	x31,0x37a
    80215004:	0a8f8f9b          	addiw	x31,x31,168 # 37a0a8 <super_csr_jump_table_flags>
    80215008:	000fbf83          	ld	x31,0(x31)
    8021500c:	0040006f          	j	80215010 <end_super_label>

0000000080215010 <end_super_label>:
    80215010:	000f0fb7          	lui	x31,0xf0
    80215014:	001f8f9b          	addiw	x31,x31,1 # f0001 <current_test_index+0x52e69>
    80215018:	00cf9f93          	slli	x31,x31,0xc
    8021501c:	004f8f93          	addi	x31,x31,4
    80215020:	00000073          	ecall

Disassembly of section .os_data:

000000000037a000 <passed_addr_ptr>:
  37a000:	4040                	.insn	2, 0x4040
  37a002:	8001                	.insn	2, 0x8001
  37a004:	0000                	.insn	2, 0x0000
	...

000000000037a008 <failed_addr_ptr>:
  37a008:	4050                	.insn	2, 0x4050
  37a00a:	8001                	.insn	2, 0x8001
  37a00c:	0000                	.insn	2, 0x0000
	...

000000000037a010 <end_test_addr_ptr>:
  37a010:	4060                	.insn	2, 0x4060
  37a012:	8001                	.insn	2, 0x8001
  37a014:	0000                	.insn	2, 0x0000
	...

000000000037a018 <os_passed_addr_ptr>:
  37a018:	0988                	.insn	2, 0x0988
  37a01a:	8000                	.insn	2, 0x8000
  37a01c:	0000                	.insn	2, 0x0000
	...

000000000037a020 <os_failed_addr_ptr>:
  37a020:	0998                	.insn	2, 0x0998
  37a022:	8000                	.insn	2, 0x8000
  37a024:	0000                	.insn	2, 0x0000
	...

000000000037a028 <os_end_test_addr_ptr>:
  37a028:	09a4                	.insn	2, 0x09a4
  37a02a:	8000                	.insn	2, 0x8000
  37a02c:	0000                	.insn	2, 0x0000
	...

000000000037a030 <rvcp_prefix_str_data>:
  37a030:	5652                	.insn	2, 0x5652
  37a032:	203a5043          	fmadd.s	f0,f20,f3,f4,unknown
  37a036:	6554                	.insn	2, 0x6554
  37a038:	46207473          	csrrci	x8,0x462,0
  37a03c:	6c69                	.insn	2, 0x6c69
  37a03e:	2065                	.insn	2, 0x2065
	...

000000000037a041 <rvcp_testname_str_data>:
  37a041:	7074                	.insn	2, 0x7074
  37a043:	7a5f 706a 5f6d      	.insn	6, 0x5f6d706a7a5f
  37a049:	0032                	.insn	2, 0x0032

000000000037a04b <rvcp_passed_str_data>:
  37a04b:	4150                	.insn	2, 0x4150
  37a04d:	44455353          	fround.h	f6,f10,unknown
	...

000000000037a052 <rvcp_failed_str_data>:
  37a052:	4146                	.insn	2, 0x4146
  37a054:	4c49                	.insn	2, 0x4c49
  37a056:	4445                	.insn	2, 0x4445
	...

000000000037a059 <rvcp_space_str_data>:
  37a059:	0020                	.insn	2, 0x0020

000000000037a05b <rvcp_newline_str_data>:
  37a05b:	000a                	.insn	2, 0x000a
  37a05d:	0000                	.insn	2, 0x0000
	...

000000000037a060 <excp_ignored_count_mem>:
	...

000000000037a068 <machine_flags_mem>:
	...

000000000037a070 <user_flags_mem>:
	...

000000000037a078 <super_flags_mem>:
	...

000000000037a080 <machine_area_mem>:
	...

000000000037a088 <user_area_mem>:
	...

000000000037a090 <super_area_mem>:
	...

000000000037a098 <zero_data_mem>:
	...

000000000037a0a0 <machine_csr_jump_table_flags_mem>:
	...

000000000037a0a8 <super_csr_jump_table_flags_mem>:
	...

000000000037a0b0 <pte_access_flags_mem>:
	...

000000000037a0c8 <num_harts_ended_mem>:
	...

000000000037a0d0 <num_hard_fails_mem>:
	...

Disassembly of section .hart_context:

000000000009d000 <hart_context_0>:
   9d000:	f000                	.insn	2, 0xf000
   9d002:	0182                	.insn	2, 0x0182
	...
   9d018:	0001                	.insn	2, 0x0001
   9d01a:	0000                	.insn	2, 0x0000
   9d01c:	0000                	.insn	2, 0x0000
   9d01e:	0000                	.insn	2, 0x0000
   9d020:	ffff                	.insn	2, 0xffff
   9d022:	ffff                	.insn	2, 0xffff
   9d024:	ffff                	.insn	2, 0xffff
   9d026:	ffff                	.insn	2, 0xffff
   9d028:	ffff                	.insn	2, 0xffff
   9d02a:	ffff                	.insn	2, 0xffff
   9d02c:	ffff                	.insn	2, 0xffff
   9d02e:	ffff                	.insn	2, 0xffff
   9d030:	ffff                	.insn	2, 0xffff
   9d032:	ffff                	.insn	2, 0xffff
   9d034:	ffff                	.insn	2, 0xffff
   9d036:	ffff                	.insn	2, 0xffff
	...
   9d050:	00ff 0000 0000 0000 	.insn	10, 0x00ff00000000000000ff
   9d058:	00ff 
	...
   9d176:	0000                	.insn	2, 0x0000
   9d178:	ffff                	.insn	2, 0xffff
   9d17a:	ffff                	.insn	2, 0xffff
   9d17c:	ffff                	.insn	2, 0xffff
   9d17e:	ffff                	.insn	2, 0xffff
	...
   9d198:	ffff                	.insn	2, 0xffff
   9d19a:	ffff                	.insn	2, 0xffff
	...

Disassembly of section .hart_stack_0:

000000000182e000 <hart_stack_0>:
	...

Disassembly of section .io_htif:

0000000070000000 <tohost>:
	...

0000000070000040 <fromhost>:
	...

Disassembly of section .code_mem8:

0000000000089000 <.code_mem8>:
   89000:	177228b7          	lui	x17,0x17722
   89004:	9d68889b          	addiw	x17,x17,-1578 # 177219d6 <maplic_255+0x6e229d6>
   89008:	15ba35b7          	lui	x11,0x15ba3
   8900c:	be05859b          	addiw	x11,x11,-1056 # 15ba2be0 <maplic_255+0x52a3be0>
   89010:	00b88fbb          	addw	x31,x17,x11
   89014:	00008067          	ret

Disassembly of section .mem0:

000000004f1f1000 <.mem0>:
    4f1f1000:	c0de                	.insn	2, 0xc0de
    4f1f1002:	c001                	.insn	2, 0xc001
    4f1f1004:	0000                	.insn	2, 0x0000
	...

Disassembly of section .mem1:

0000000005ed9000 <.mem1>:
 5ed9000:	c0de                	.insn	2, 0xc0de
 5ed9002:	c001                	.insn	2, 0xc001
 5ed9004:	0000                	.insn	2, 0x0000
	...

Disassembly of section .mem2:

ffffffdc56d7c000 <.mem2>:
ffffffdc56d7c000:	c0de                	.insn	2, 0xc0de
ffffffdc56d7c002:	c001                	.insn	2, 0xc001
ffffffdc56d7c004:	0000                	.insn	2, 0x0000
	...

Disassembly of section .mem3:

00000000005d7000 <.mem3>:
  5d7000:	c0de                	.insn	2, 0xc0de
  5d7002:	c001                	.insn	2, 0xc001
  5d7004:	0000                	.insn	2, 0x0000
	...

Disassembly of section .mem4:

0000000000053000 <.mem4>:
   53000:	c0de                	.insn	2, 0xc0de
   53002:	c001                	.insn	2, 0xc001
   53004:	0000                	.insn	2, 0x0000
	...

Disassembly of section .mem5:

0000000002e37000 <.mem5>:
 2e37000:	c0de                	.insn	2, 0xc0de
 2e37002:	c001                	.insn	2, 0xc001
 2e37004:	0000                	.insn	2, 0x0000
	...

Disassembly of section .mem6:

00000000002fb000 <.mem6>:
  2fb000:	c0de                	.insn	2, 0xc0de
  2fb002:	c001                	.insn	2, 0xc001
  2fb004:	0000                	.insn	2, 0x0000
	...

Disassembly of section .mem7:

0000000b2693f000 <.mem7>:
   b2693f000:	c0de                	.insn	2, 0xc0de
   b2693f002:	c001                	.insn	2, 0xc001
   b2693f004:	0000                	.insn	2, 0x0000
	...

Disassembly of section .mem9:

0000000000d9d000 <.mem9>:
  d9d000:	c0de                	.insn	2, 0xc0de
  d9d002:	c001                	.insn	2, 0xc001
  d9d004:	0000                	.insn	2, 0x0000
	...

Disassembly of section .tp_csr_storage:

000000012bba5000 <.tp_csr_storage>:
   12bba5000:	c0de                	.insn	2, 0xc0de
   12bba5002:	c001                	.insn	2, 0xc001
   12bba5004:	0000                	.insn	2, 0x0000
	...

Disassembly of section .SID_01_senvcfg_pmm_warl_stack:

000000000282d000 <.SID_01_senvcfg_pmm_warl_stack>:
 282d000:	c0de                	.insn	2, 0xc0de
 282d002:	c001                	.insn	2, 0xc001
 282d004:	0000                	.insn	2, 0x0000
	...

Disassembly of section .SID_02_henvcfg_hstatus_pmm_warl_stack:

0000000000f0c000 <.SID_02_henvcfg_hstatus_pmm_warl_stack>:
  f0c000:	c0de                	.insn	2, 0xc0de
  f0c002:	c001                	.insn	2, 0xc001
  f0c004:	0000                	.insn	2, 0x0000
	...

Disassembly of section .SID_07_pm_disabled_s_hs_mode_stack:

0000000b2693d000 <.SID_07_pm_disabled_s_hs_mode_stack>:
   b2693d000:	c0de                	.insn	2, 0xc0de
   b2693d002:	c001                	.insn	2, 0xc001
   b2693d004:	0000                	.insn	2, 0x0000
	...

Disassembly of section .SID_11_pm_enabled_s_hs_mode_stack:

0000000080216000 <.SID_11_pm_enabled_s_hs_mode_stack>:
    80216000:	c0de                	.insn	2, 0xc0de
    80216002:	c001                	.insn	2, 0xc001
    80216004:	0000                	.insn	2, 0x0000
	...

Disassembly of section .SID_22_pm_disabled_mxr_set_stack:

0000000ddae2b000 <.SID_22_pm_disabled_mxr_set_stack>:
   ddae2b000:	c0de                	.insn	2, 0xc0de
   ddae2b002:	c001                	.insn	2, 0xc001
   ddae2b004:	0000                	.insn	2, 0x0000
	...

Disassembly of section .SID_23_pm_invalidation_instructions_stack:

0000000005901000 <.SID_23_pm_invalidation_instructions_stack>:
 5901000:	c0de                	.insn	2, 0xc0de
 5901002:	c001                	.insn	2, 0xc001
 5901004:	0000                	.insn	2, 0x0000
	...

Disassembly of section .SID_24_pm_instruction_set_stack:

000000000035c000 <.SID_24_pm_instruction_set_stack>:
  35c000:	c0de                	.insn	2, 0xc0de
  35c002:	c001                	.insn	2, 0xc001
  35c004:	0000                	.insn	2, 0x0000
	...

Disassembly of section .SID_25_pm_misaligned_access_stack:

0000000000474000 <.SID_25_pm_misaligned_access_stack>:
  474000:	c0de                	.insn	2, 0xc0de
  474002:	c001                	.insn	2, 0xc001
  474004:	0000                	.insn	2, 0x0000
	...

Disassembly of section .SID_26_pm_different_tags_same_address_stack:

0000000007d2a000 <.SID_26_pm_different_tags_same_address_stack>:
 7d2a000:	c0de                	.insn	2, 0xc0de
 7d2a002:	c001                	.insn	2, 0xc001
 7d2a004:	0000                	.insn	2, 0x0000
	...

Disassembly of section .SID_27_pm_implicit_access_stack:

00000000421f8000 <.SID_27_pm_implicit_access_stack>:
    421f8000:	c0de                	.insn	2, 0xc0de
    421f8002:	c001                	.insn	2, 0xc001
    421f8004:	0000                	.insn	2, 0x0000
	...

Disassembly of section .SID_28_pm_faults_trap_values_stack:

0000000002f6f000 <.SID_28_pm_faults_trap_values_stack>:
 2f6f000:	c0de                	.insn	2, 0xc0de
 2f6f002:	c001                	.insn	2, 0xc001
 2f6f004:	0000                	.insn	2, 0x0000
	...

Disassembly of section .SID_29_pm_xtvec_tagged_address_stack:

000000000044e000 <.SID_29_pm_xtvec_tagged_address_stack>:
  44e000:	c0de                	.insn	2, 0xc0de
  44e002:	c001                	.insn	2, 0xc001
  44e004:	0000                	.insn	2, 0x0000
	...

Disassembly of section .__pagetable_map_os_0x0000a72527bee000:

0000a72527bee000 <__pagetable_map_os_0x0000a72527bee000>:
    a72527bee000:	3401                	.insn	2, 0x3401
    a72527bee002:	d266                	.insn	2, 0xd266
    a72527bee004:	07ae                	.insn	2, 0x07ae
    a72527bee006:	0000                	.insn	2, 0x0000
    a72527bee008:	3801                	.insn	2, 0x3801
    a72527bee00a:	71b9d1d7          	vmfne.vf	v3,v27,f19,v0.t
    a72527bee00e:	0000                	.insn	2, 0x0000
    a72527bee010:	0c01                	.insn	2, 0x0c01
    a72527bee012:	2efa                	.insn	2, 0x2efa
    a72527bee014:	00d9                	.insn	2, 0x00d9
	...
    a72527bee01e:	0000                	.insn	2, 0x0000
    a72527bee020:	6001                	.insn	2, 0x6001
    a72527bee022:	eb24                	.insn	2, 0xeb24
	...
    a72527bee160:	9401                	.insn	2, 0x9401
    a72527bee162:	fc56                	.insn	2, 0xfc56
    a72527bee164:	001f 0000 0000      	.insn	6, 0x001f
	...
    a72527bee1b6:	0000                	.insn	2, 0x0000
    a72527bee1b8:	f001                	.insn	2, 0xf001
    a72527bee1ba:	8a01                	.insn	2, 0x8a01
    a72527bee1bc:	6d1d                	.insn	2, 0x6d1d
	...
    a72527bee406:	0000                	.insn	2, 0x0000
    a72527bee408:	7801                	.insn	2, 0x7801
    a72527bee40a:	dfdf 0388 0000      	.insn	6, 0x0388dfdf
	...
    a72527bee4a0:	f001                	.insn	2, 0xf001
    a72527bee4a2:	e7ce                	.insn	2, 0xe7ce
    a72527bee4a4:	001f 0000 0000      	.insn	6, 0x001f
	...
    a72527beeb86:	0000                	.insn	2, 0x0000
    a72527beeb88:	0401                	.insn	2, 0x0401
    a72527beeb8a:	fe25                	.insn	2, 0xfe25
    a72527beeb8c:	f6a2                	.insn	2, 0xf6a2
	...

Disassembly of section .__pagetable_map_os_0x00000364bbe83000:

00000364bbe83000 <__pagetable_map_os_0x00000364bbe83000>:
 364bbe83000:	1401                	.insn	2, 0x1401
 364bbe83002:	00010e0b          	.insn	4, 0x00010e0b
 364bbe83006:	0000                	.insn	2, 0x0000
 364bbe83008:	6401                	.insn	2, 0x6401
 364bbe8300a:	04d0                	.insn	2, 0x04d0
 364bbe8300c:	0001                	.insn	2, 0x0001
	...

Disassembly of section .__pagetable_map_os_0x00000004382c5000:

00000004382c5000 <__pagetable_map_os_0x00000004382c5000>:
	...
   4382c5080:	200040cf          	fnmadd.s	f1,f0,f0,f4,rmm
   4382c5084:	0000                	.insn	2, 0x0000
   4382c5086:	0000                	.insn	2, 0x0000
   4382c5088:	200044cf          	fnmadd.s	f9,f0,f0,f4,rmm
   4382c508c:	0000                	.insn	2, 0x0000
   4382c508e:	0000                	.insn	2, 0x0000
   4382c5090:	200048cf          	fnmadd.s	f17,f0,f0,f4,rmm
   4382c5094:	0000                	.insn	2, 0x0000
   4382c5096:	0000                	.insn	2, 0x0000
   4382c5098:	20004ccf          	fnmadd.s	f25,f0,f0,f4,rmm
   4382c509c:	0000                	.insn	2, 0x0000
   4382c509e:	0000                	.insn	2, 0x0000
   4382c50a0:	bd0800cf          	fnmadd.h	f1,f16,f16,f23,rne
   4382c50a4:	0001                	.insn	2, 0x0001
   4382c50a6:	0000                	.insn	2, 0x0000
   4382c50a8:	bd0804cf          	fnmadd.h	f9,f16,f16,f23,rne
   4382c50ac:	0001                	.insn	2, 0x0001
   4382c50ae:	0000                	.insn	2, 0x0000
   4382c50b0:	bd0808cf          	fnmadd.h	f17,f16,f16,f23,rne
   4382c50b4:	0001                	.insn	2, 0x0001
   4382c50b6:	0000                	.insn	2, 0x0000
   4382c50b8:	bd080ccf          	fnmadd.h	f25,f16,f16,f23,rne
   4382c50bc:	0001                	.insn	2, 0x0001
   4382c50be:	0000                	.insn	2, 0x0000
   4382c50c0:	bd0810cf          	fnmadd.h	f1,f16,f16,f23,rtz
   4382c50c4:	0001                	.insn	2, 0x0001
   4382c50c6:	0000                	.insn	2, 0x0000
   4382c50c8:	bd0814cf          	fnmadd.h	f9,f16,f16,f23,rtz
   4382c50cc:	0001                	.insn	2, 0x0001
   4382c50ce:	0000                	.insn	2, 0x0000
   4382c50d0:	bd0818cf          	fnmadd.h	f17,f16,f16,f23,rtz
   4382c50d4:	0001                	.insn	2, 0x0001
   4382c50d6:	0000                	.insn	2, 0x0000
   4382c50d8:	bd081ccf          	fnmadd.h	f25,f16,f16,f23,rtz
   4382c50dc:	0001                	.insn	2, 0x0001
   4382c50de:	0000                	.insn	2, 0x0000
   4382c50e0:	bd0820cf          	fnmadd.h	f1,f16,f16,f23,rdn
   4382c50e4:	0001                	.insn	2, 0x0001
   4382c50e6:	0000                	.insn	2, 0x0000
   4382c50e8:	bd0824cf          	fnmadd.h	f9,f16,f16,f23,rdn
   4382c50ec:	0001                	.insn	2, 0x0001
   4382c50ee:	0000                	.insn	2, 0x0000
   4382c50f0:	bd0828cf          	fnmadd.h	f17,f16,f16,f23,rdn
   4382c50f4:	0001                	.insn	2, 0x0001
   4382c50f6:	0000                	.insn	2, 0x0000
   4382c50f8:	bd082ccf          	fnmadd.h	f25,f16,f16,f23,rdn
   4382c50fc:	0001                	.insn	2, 0x0001
   4382c50fe:	0000                	.insn	2, 0x0000
   4382c5100:	bd0830cf          	fnmadd.h	f1,f16,f16,f23,rup
   4382c5104:	0001                	.insn	2, 0x0001
   4382c5106:	0000                	.insn	2, 0x0000
   4382c5108:	bd0834cf          	fnmadd.h	f9,f16,f16,f23,rup
   4382c510c:	0001                	.insn	2, 0x0001
   4382c510e:	0000                	.insn	2, 0x0000
   4382c5110:	bd0838cf          	fnmadd.h	f17,f16,f16,f23,rup
   4382c5114:	0001                	.insn	2, 0x0001
   4382c5116:	0000                	.insn	2, 0x0000
   4382c5118:	bd083ccf          	fnmadd.h	f25,f16,f16,f23,rup
   4382c511c:	0001                	.insn	2, 0x0001
   4382c511e:	0000                	.insn	2, 0x0000
   4382c5120:	bd0840cf          	fnmadd.h	f1,f16,f16,f23,rmm
   4382c5124:	0001                	.insn	2, 0x0001
   4382c5126:	0000                	.insn	2, 0x0000
   4382c5128:	bd0844cf          	fnmadd.h	f9,f16,f16,f23,rmm
   4382c512c:	0001                	.insn	2, 0x0001
   4382c512e:	0000                	.insn	2, 0x0000
   4382c5130:	bd0848cf          	fnmadd.h	f17,f16,f16,f23,rmm
   4382c5134:	0001                	.insn	2, 0x0001
   4382c5136:	0000                	.insn	2, 0x0000
   4382c5138:	bd084ccf          	fnmadd.h	f25,f16,f16,f23,rmm
   4382c513c:	0001                	.insn	2, 0x0001
   4382c513e:	0000                	.insn	2, 0x0000
   4382c5140:	bd0850cf          	fnmadd.h	f1,f16,f16,f23,unknown
   4382c5144:	0001                	.insn	2, 0x0001
   4382c5146:	0000                	.insn	2, 0x0000
   4382c5148:	bd0854cf          	fnmadd.h	f9,f16,f16,f23,unknown
   4382c514c:	0001                	.insn	2, 0x0001
   4382c514e:	0000                	.insn	2, 0x0000
   4382c5150:	bd0858cf          	fnmadd.h	f17,f16,f16,f23,unknown
   4382c5154:	0001                	.insn	2, 0x0001
   4382c5156:	0000                	.insn	2, 0x0000
   4382c5158:	bd085ccf          	fnmadd.h	f25,f16,f16,f23,unknown
   4382c515c:	0001                	.insn	2, 0x0001
   4382c515e:	0000                	.insn	2, 0x0000
   4382c5160:	bd0860cf          	fnmadd.h	f1,f16,f16,f23,unknown
   4382c5164:	0001                	.insn	2, 0x0001
   4382c5166:	0000                	.insn	2, 0x0000
   4382c5168:	bd0864cf          	fnmadd.h	f9,f16,f16,f23,unknown
   4382c516c:	0001                	.insn	2, 0x0001
   4382c516e:	0000                	.insn	2, 0x0000
   4382c5170:	bd0868cf          	fnmadd.h	f17,f16,f16,f23,unknown
   4382c5174:	0001                	.insn	2, 0x0001
   4382c5176:	0000                	.insn	2, 0x0000
   4382c5178:	bd086ccf          	fnmadd.h	f25,f16,f16,f23,unknown
   4382c517c:	0001                	.insn	2, 0x0001
   4382c517e:	0000                	.insn	2, 0x0000
   4382c5180:	bd0870cf          	fnmadd.h	f1,f16,f16,f23
   4382c5184:	0001                	.insn	2, 0x0001
   4382c5186:	0000                	.insn	2, 0x0000
   4382c5188:	bd0874cf          	fnmadd.h	f9,f16,f16,f23
   4382c518c:	0001                	.insn	2, 0x0001
   4382c518e:	0000                	.insn	2, 0x0000
   4382c5190:	bd0878cf          	fnmadd.h	f17,f16,f16,f23
   4382c5194:	0001                	.insn	2, 0x0001
   4382c5196:	0000                	.insn	2, 0x0000
   4382c5198:	bd087ccf          	fnmadd.h	f25,f16,f16,f23
   4382c519c:	0001                	.insn	2, 0x0001
   4382c519e:	0000                	.insn	2, 0x0000
   4382c51a0:	bd0880cf          	fnmadd.h	f1,f17,f16,f23,rne
   4382c51a4:	0001                	.insn	2, 0x0001
   4382c51a6:	0000                	.insn	2, 0x0000
   4382c51a8:	bd0884cf          	fnmadd.h	f9,f17,f16,f23,rne
   4382c51ac:	0001                	.insn	2, 0x0001
   4382c51ae:	0000                	.insn	2, 0x0000
   4382c51b0:	bd0888cf          	fnmadd.h	f17,f17,f16,f23,rne
   4382c51b4:	0001                	.insn	2, 0x0001
   4382c51b6:	0000                	.insn	2, 0x0000
   4382c51b8:	bd088ccf          	fnmadd.h	f25,f17,f16,f23,rne
   4382c51bc:	0001                	.insn	2, 0x0001
   4382c51be:	0000                	.insn	2, 0x0000
   4382c51c0:	bd0890cf          	fnmadd.h	f1,f17,f16,f23,rtz
   4382c51c4:	0001                	.insn	2, 0x0001
   4382c51c6:	0000                	.insn	2, 0x0000
   4382c51c8:	bd0894cf          	fnmadd.h	f9,f17,f16,f23,rtz
   4382c51cc:	0001                	.insn	2, 0x0001
   4382c51ce:	0000                	.insn	2, 0x0000
   4382c51d0:	bd0898cf          	fnmadd.h	f17,f17,f16,f23,rtz
   4382c51d4:	0001                	.insn	2, 0x0001
   4382c51d6:	0000                	.insn	2, 0x0000
   4382c51d8:	bd089ccf          	fnmadd.h	f25,f17,f16,f23,rtz
   4382c51dc:	0001                	.insn	2, 0x0001
   4382c51de:	0000                	.insn	2, 0x0000
   4382c51e0:	bd08a0cf          	fnmadd.h	f1,f17,f16,f23,rdn
   4382c51e4:	0001                	.insn	2, 0x0001
   4382c51e6:	0000                	.insn	2, 0x0000
   4382c51e8:	bd08a4cf          	fnmadd.h	f9,f17,f16,f23,rdn
   4382c51ec:	0001                	.insn	2, 0x0001
   4382c51ee:	0000                	.insn	2, 0x0000
   4382c51f0:	bd08a8cf          	fnmadd.h	f17,f17,f16,f23,rdn
   4382c51f4:	0001                	.insn	2, 0x0001
   4382c51f6:	0000                	.insn	2, 0x0000
   4382c51f8:	bd08accf          	fnmadd.h	f25,f17,f16,f23,rdn
   4382c51fc:	0001                	.insn	2, 0x0001
   4382c51fe:	0000                	.insn	2, 0x0000
   4382c5200:	bd08b0cf          	fnmadd.h	f1,f17,f16,f23,rup
   4382c5204:	0001                	.insn	2, 0x0001
   4382c5206:	0000                	.insn	2, 0x0000
   4382c5208:	bd08b4cf          	fnmadd.h	f9,f17,f16,f23,rup
   4382c520c:	0001                	.insn	2, 0x0001
   4382c520e:	0000                	.insn	2, 0x0000
   4382c5210:	bd08b8cf          	fnmadd.h	f17,f17,f16,f23,rup
   4382c5214:	0001                	.insn	2, 0x0001
   4382c5216:	0000                	.insn	2, 0x0000
   4382c5218:	bd08bccf          	fnmadd.h	f25,f17,f16,f23,rup
   4382c521c:	0001                	.insn	2, 0x0001
   4382c521e:	0000                	.insn	2, 0x0000
   4382c5220:	bd08c0cf          	fnmadd.h	f1,f17,f16,f23,rmm
   4382c5224:	0001                	.insn	2, 0x0001
   4382c5226:	0000                	.insn	2, 0x0000
   4382c5228:	bd08c4cf          	fnmadd.h	f9,f17,f16,f23,rmm
   4382c522c:	0001                	.insn	2, 0x0001
   4382c522e:	0000                	.insn	2, 0x0000
   4382c5230:	bd08c8cf          	fnmadd.h	f17,f17,f16,f23,rmm
   4382c5234:	0001                	.insn	2, 0x0001
   4382c5236:	0000                	.insn	2, 0x0000
   4382c5238:	bd08cccf          	fnmadd.h	f25,f17,f16,f23,rmm
   4382c523c:	0001                	.insn	2, 0x0001
   4382c523e:	0000                	.insn	2, 0x0000
   4382c5240:	bd08d0cf          	fnmadd.h	f1,f17,f16,f23,unknown
   4382c5244:	0001                	.insn	2, 0x0001
   4382c5246:	0000                	.insn	2, 0x0000
   4382c5248:	bd08d4cf          	fnmadd.h	f9,f17,f16,f23,unknown
   4382c524c:	0001                	.insn	2, 0x0001
   4382c524e:	0000                	.insn	2, 0x0000
   4382c5250:	bd08d8cf          	fnmadd.h	f17,f17,f16,f23,unknown
   4382c5254:	0001                	.insn	2, 0x0001
   4382c5256:	0000                	.insn	2, 0x0000
   4382c5258:	bd08dccf          	fnmadd.h	f25,f17,f16,f23,unknown
   4382c525c:	0001                	.insn	2, 0x0001
   4382c525e:	0000                	.insn	2, 0x0000
   4382c5260:	bd08e0cf          	fnmadd.h	f1,f17,f16,f23,unknown
   4382c5264:	0001                	.insn	2, 0x0001
   4382c5266:	0000                	.insn	2, 0x0000
   4382c5268:	bd08e4cf          	fnmadd.h	f9,f17,f16,f23,unknown
   4382c526c:	0001                	.insn	2, 0x0001
   4382c526e:	0000                	.insn	2, 0x0000
   4382c5270:	bd08e8cf          	fnmadd.h	f17,f17,f16,f23,unknown
   4382c5274:	0001                	.insn	2, 0x0001
   4382c5276:	0000                	.insn	2, 0x0000
   4382c5278:	bd08eccf          	fnmadd.h	f25,f17,f16,f23,unknown
   4382c527c:	0001                	.insn	2, 0x0001
   4382c527e:	0000                	.insn	2, 0x0000
   4382c5280:	bd08f0cf          	fnmadd.h	f1,f17,f16,f23
   4382c5284:	0001                	.insn	2, 0x0001
   4382c5286:	0000                	.insn	2, 0x0000
   4382c5288:	bd08f4cf          	fnmadd.h	f9,f17,f16,f23
   4382c528c:	0001                	.insn	2, 0x0001
   4382c528e:	0000                	.insn	2, 0x0000
   4382c5290:	bd08f8cf          	fnmadd.h	f17,f17,f16,f23
   4382c5294:	0001                	.insn	2, 0x0001
   4382c5296:	0000                	.insn	2, 0x0000
   4382c5298:	bd08fccf          	fnmadd.h	f25,f17,f16,f23
   4382c529c:	0001                	.insn	2, 0x0001
   4382c529e:	0000                	.insn	2, 0x0000
   4382c52a0:	bd0900cf          	fnmadd.h	f1,f18,f16,f23,rne
   4382c52a4:	0001                	.insn	2, 0x0001
   4382c52a6:	0000                	.insn	2, 0x0000
   4382c52a8:	bd0904cf          	fnmadd.h	f9,f18,f16,f23,rne
   4382c52ac:	0001                	.insn	2, 0x0001
   4382c52ae:	0000                	.insn	2, 0x0000
   4382c52b0:	bd0908cf          	fnmadd.h	f17,f18,f16,f23,rne
   4382c52b4:	0001                	.insn	2, 0x0001
   4382c52b6:	0000                	.insn	2, 0x0000
   4382c52b8:	bd090ccf          	fnmadd.h	f25,f18,f16,f23,rne
   4382c52bc:	0001                	.insn	2, 0x0001
   4382c52be:	0000                	.insn	2, 0x0000
   4382c52c0:	bd0910cf          	fnmadd.h	f1,f18,f16,f23,rtz
   4382c52c4:	0001                	.insn	2, 0x0001
   4382c52c6:	0000                	.insn	2, 0x0000
   4382c52c8:	bd0914cf          	fnmadd.h	f9,f18,f16,f23,rtz
   4382c52cc:	0001                	.insn	2, 0x0001
   4382c52ce:	0000                	.insn	2, 0x0000
   4382c52d0:	bd0918cf          	fnmadd.h	f17,f18,f16,f23,rtz
   4382c52d4:	0001                	.insn	2, 0x0001
   4382c52d6:	0000                	.insn	2, 0x0000
   4382c52d8:	bd091ccf          	fnmadd.h	f25,f18,f16,f23,rtz
   4382c52dc:	0001                	.insn	2, 0x0001
   4382c52de:	0000                	.insn	2, 0x0000
   4382c52e0:	bd0920cf          	fnmadd.h	f1,f18,f16,f23,rdn
   4382c52e4:	0001                	.insn	2, 0x0001
   4382c52e6:	0000                	.insn	2, 0x0000
   4382c52e8:	bd0924cf          	fnmadd.h	f9,f18,f16,f23,rdn
   4382c52ec:	0001                	.insn	2, 0x0001
   4382c52ee:	0000                	.insn	2, 0x0000
   4382c52f0:	bd0928cf          	fnmadd.h	f17,f18,f16,f23,rdn
   4382c52f4:	0001                	.insn	2, 0x0001
   4382c52f6:	0000                	.insn	2, 0x0000
   4382c52f8:	bd092ccf          	fnmadd.h	f25,f18,f16,f23,rdn
   4382c52fc:	0001                	.insn	2, 0x0001
   4382c52fe:	0000                	.insn	2, 0x0000
   4382c5300:	bd0930cf          	fnmadd.h	f1,f18,f16,f23,rup
   4382c5304:	0001                	.insn	2, 0x0001
   4382c5306:	0000                	.insn	2, 0x0000
   4382c5308:	bd0934cf          	fnmadd.h	f9,f18,f16,f23,rup
   4382c530c:	0001                	.insn	2, 0x0001
   4382c530e:	0000                	.insn	2, 0x0000
   4382c5310:	bd0938cf          	fnmadd.h	f17,f18,f16,f23,rup
   4382c5314:	0001                	.insn	2, 0x0001
   4382c5316:	0000                	.insn	2, 0x0000
   4382c5318:	bd093ccf          	fnmadd.h	f25,f18,f16,f23,rup
   4382c531c:	0001                	.insn	2, 0x0001
   4382c531e:	0000                	.insn	2, 0x0000
   4382c5320:	bd0940cf          	fnmadd.h	f1,f18,f16,f23,rmm
   4382c5324:	0001                	.insn	2, 0x0001
   4382c5326:	0000                	.insn	2, 0x0000
   4382c5328:	bd0944cf          	fnmadd.h	f9,f18,f16,f23,rmm
   4382c532c:	0001                	.insn	2, 0x0001
   4382c532e:	0000                	.insn	2, 0x0000
   4382c5330:	bd0948cf          	fnmadd.h	f17,f18,f16,f23,rmm
   4382c5334:	0001                	.insn	2, 0x0001
   4382c5336:	0000                	.insn	2, 0x0000
   4382c5338:	bd094ccf          	fnmadd.h	f25,f18,f16,f23,rmm
   4382c533c:	0001                	.insn	2, 0x0001
   4382c533e:	0000                	.insn	2, 0x0000
   4382c5340:	bd0950cf          	fnmadd.h	f1,f18,f16,f23,unknown
   4382c5344:	0001                	.insn	2, 0x0001
   4382c5346:	0000                	.insn	2, 0x0000
   4382c5348:	bd0954cf          	fnmadd.h	f9,f18,f16,f23,unknown
   4382c534c:	0001                	.insn	2, 0x0001
   4382c534e:	0000                	.insn	2, 0x0000
   4382c5350:	bd0958cf          	fnmadd.h	f17,f18,f16,f23,unknown
   4382c5354:	0001                	.insn	2, 0x0001
   4382c5356:	0000                	.insn	2, 0x0000
   4382c5358:	bd095ccf          	fnmadd.h	f25,f18,f16,f23,unknown
   4382c535c:	0001                	.insn	2, 0x0001
   4382c535e:	0000                	.insn	2, 0x0000
   4382c5360:	bd0960cf          	fnmadd.h	f1,f18,f16,f23,unknown
   4382c5364:	0001                	.insn	2, 0x0001
   4382c5366:	0000                	.insn	2, 0x0000
   4382c5368:	bd0964cf          	fnmadd.h	f9,f18,f16,f23,unknown
   4382c536c:	0001                	.insn	2, 0x0001
   4382c536e:	0000                	.insn	2, 0x0000
   4382c5370:	bd0968cf          	fnmadd.h	f17,f18,f16,f23,unknown
   4382c5374:	0001                	.insn	2, 0x0001
   4382c5376:	0000                	.insn	2, 0x0000
   4382c5378:	bd096ccf          	fnmadd.h	f25,f18,f16,f23,unknown
   4382c537c:	0001                	.insn	2, 0x0001
   4382c537e:	0000                	.insn	2, 0x0000
   4382c5380:	bd0970cf          	fnmadd.h	f1,f18,f16,f23
   4382c5384:	0001                	.insn	2, 0x0001
   4382c5386:	0000                	.insn	2, 0x0000
   4382c5388:	bd0974cf          	fnmadd.h	f9,f18,f16,f23
   4382c538c:	0001                	.insn	2, 0x0001
   4382c538e:	0000                	.insn	2, 0x0000
   4382c5390:	bd0978cf          	fnmadd.h	f17,f18,f16,f23
   4382c5394:	0001                	.insn	2, 0x0001
   4382c5396:	0000                	.insn	2, 0x0000
   4382c5398:	bd097ccf          	fnmadd.h	f25,f18,f16,f23
   4382c539c:	0001                	.insn	2, 0x0001
   4382c539e:	0000                	.insn	2, 0x0000
   4382c53a0:	bd0980cf          	fnmadd.h	f1,f19,f16,f23,rne
   4382c53a4:	0001                	.insn	2, 0x0001
   4382c53a6:	0000                	.insn	2, 0x0000
   4382c53a8:	bd0984cf          	fnmadd.h	f9,f19,f16,f23,rne
   4382c53ac:	0001                	.insn	2, 0x0001
   4382c53ae:	0000                	.insn	2, 0x0000
   4382c53b0:	bd0988cf          	fnmadd.h	f17,f19,f16,f23,rne
   4382c53b4:	0001                	.insn	2, 0x0001
   4382c53b6:	0000                	.insn	2, 0x0000
   4382c53b8:	bd098ccf          	fnmadd.h	f25,f19,f16,f23,rne
   4382c53bc:	0001                	.insn	2, 0x0001
   4382c53be:	0000                	.insn	2, 0x0000
   4382c53c0:	bd0990cf          	fnmadd.h	f1,f19,f16,f23,rtz
   4382c53c4:	0001                	.insn	2, 0x0001
   4382c53c6:	0000                	.insn	2, 0x0000
   4382c53c8:	bd0994cf          	fnmadd.h	f9,f19,f16,f23,rtz
   4382c53cc:	0001                	.insn	2, 0x0001
   4382c53ce:	0000                	.insn	2, 0x0000
   4382c53d0:	bd0998cf          	fnmadd.h	f17,f19,f16,f23,rtz
   4382c53d4:	0001                	.insn	2, 0x0001
   4382c53d6:	0000                	.insn	2, 0x0000
   4382c53d8:	bd099ccf          	fnmadd.h	f25,f19,f16,f23,rtz
   4382c53dc:	0001                	.insn	2, 0x0001
   4382c53de:	0000                	.insn	2, 0x0000
   4382c53e0:	bd09a0cf          	fnmadd.h	f1,f19,f16,f23,rdn
   4382c53e4:	0001                	.insn	2, 0x0001
   4382c53e6:	0000                	.insn	2, 0x0000
   4382c53e8:	bd09a4cf          	fnmadd.h	f9,f19,f16,f23,rdn
   4382c53ec:	0001                	.insn	2, 0x0001
   4382c53ee:	0000                	.insn	2, 0x0000
   4382c53f0:	bd09a8cf          	fnmadd.h	f17,f19,f16,f23,rdn
   4382c53f4:	0001                	.insn	2, 0x0001
   4382c53f6:	0000                	.insn	2, 0x0000
   4382c53f8:	bd09accf          	fnmadd.h	f25,f19,f16,f23,rdn
   4382c53fc:	0001                	.insn	2, 0x0001
   4382c53fe:	0000                	.insn	2, 0x0000
   4382c5400:	bd09b0cf          	fnmadd.h	f1,f19,f16,f23,rup
   4382c5404:	0001                	.insn	2, 0x0001
   4382c5406:	0000                	.insn	2, 0x0000
   4382c5408:	bd09b4cf          	fnmadd.h	f9,f19,f16,f23,rup
   4382c540c:	0001                	.insn	2, 0x0001
   4382c540e:	0000                	.insn	2, 0x0000
   4382c5410:	bd09b8cf          	fnmadd.h	f17,f19,f16,f23,rup
   4382c5414:	0001                	.insn	2, 0x0001
   4382c5416:	0000                	.insn	2, 0x0000
   4382c5418:	bd09bccf          	fnmadd.h	f25,f19,f16,f23,rup
   4382c541c:	0001                	.insn	2, 0x0001
   4382c541e:	0000                	.insn	2, 0x0000
   4382c5420:	bd09c0cf          	fnmadd.h	f1,f19,f16,f23,rmm
   4382c5424:	0001                	.insn	2, 0x0001
   4382c5426:	0000                	.insn	2, 0x0000
   4382c5428:	bd09c4cf          	fnmadd.h	f9,f19,f16,f23,rmm
   4382c542c:	0001                	.insn	2, 0x0001
   4382c542e:	0000                	.insn	2, 0x0000
   4382c5430:	bd09c8cf          	fnmadd.h	f17,f19,f16,f23,rmm
   4382c5434:	0001                	.insn	2, 0x0001
   4382c5436:	0000                	.insn	2, 0x0000
   4382c5438:	bd09cccf          	fnmadd.h	f25,f19,f16,f23,rmm
   4382c543c:	0001                	.insn	2, 0x0001
   4382c543e:	0000                	.insn	2, 0x0000
   4382c5440:	bd09d0cf          	fnmadd.h	f1,f19,f16,f23,unknown
   4382c5444:	0001                	.insn	2, 0x0001
   4382c5446:	0000                	.insn	2, 0x0000
   4382c5448:	bd09d4cf          	fnmadd.h	f9,f19,f16,f23,unknown
   4382c544c:	0001                	.insn	2, 0x0001
   4382c544e:	0000                	.insn	2, 0x0000
   4382c5450:	bd09d8cf          	fnmadd.h	f17,f19,f16,f23,unknown
   4382c5454:	0001                	.insn	2, 0x0001
   4382c5456:	0000                	.insn	2, 0x0000
   4382c5458:	bd09dccf          	fnmadd.h	f25,f19,f16,f23,unknown
   4382c545c:	0001                	.insn	2, 0x0001
   4382c545e:	0000                	.insn	2, 0x0000
   4382c5460:	bd09e0cf          	fnmadd.h	f1,f19,f16,f23,unknown
   4382c5464:	0001                	.insn	2, 0x0001
   4382c5466:	0000                	.insn	2, 0x0000
   4382c5468:	bd09e4cf          	fnmadd.h	f9,f19,f16,f23,unknown
   4382c546c:	0001                	.insn	2, 0x0001
   4382c546e:	0000                	.insn	2, 0x0000
   4382c5470:	bd09e8cf          	fnmadd.h	f17,f19,f16,f23,unknown
   4382c5474:	0001                	.insn	2, 0x0001
   4382c5476:	0000                	.insn	2, 0x0000
   4382c5478:	bd09eccf          	fnmadd.h	f25,f19,f16,f23,unknown
   4382c547c:	0001                	.insn	2, 0x0001
   4382c547e:	0000                	.insn	2, 0x0000
   4382c5480:	bd09f0cf          	fnmadd.h	f1,f19,f16,f23
   4382c5484:	0001                	.insn	2, 0x0001
   4382c5486:	0000                	.insn	2, 0x0000
   4382c5488:	bd09f4cf          	fnmadd.h	f9,f19,f16,f23
   4382c548c:	0001                	.insn	2, 0x0001
   4382c548e:	0000                	.insn	2, 0x0000
   4382c5490:	bd09f8cf          	fnmadd.h	f17,f19,f16,f23
   4382c5494:	0001                	.insn	2, 0x0001
   4382c5496:	0000                	.insn	2, 0x0000
   4382c5498:	bd09fccf          	fnmadd.h	f25,f19,f16,f23
   4382c549c:	0001                	.insn	2, 0x0001
   4382c549e:	0000                	.insn	2, 0x0000
   4382c54a0:	bd0a00cf          	fnmadd.h	f1,f20,f16,f23,rne
   4382c54a4:	0001                	.insn	2, 0x0001
   4382c54a6:	0000                	.insn	2, 0x0000
   4382c54a8:	bd0a04cf          	fnmadd.h	f9,f20,f16,f23,rne
   4382c54ac:	0001                	.insn	2, 0x0001
   4382c54ae:	0000                	.insn	2, 0x0000
   4382c54b0:	bd0a08cf          	fnmadd.h	f17,f20,f16,f23,rne
   4382c54b4:	0001                	.insn	2, 0x0001
   4382c54b6:	0000                	.insn	2, 0x0000
   4382c54b8:	bd0a0ccf          	fnmadd.h	f25,f20,f16,f23,rne
   4382c54bc:	0001                	.insn	2, 0x0001
   4382c54be:	0000                	.insn	2, 0x0000
   4382c54c0:	bd0a10cf          	fnmadd.h	f1,f20,f16,f23,rtz
   4382c54c4:	0001                	.insn	2, 0x0001
   4382c54c6:	0000                	.insn	2, 0x0000
   4382c54c8:	bd0a14cf          	fnmadd.h	f9,f20,f16,f23,rtz
   4382c54cc:	0001                	.insn	2, 0x0001
   4382c54ce:	0000                	.insn	2, 0x0000
   4382c54d0:	bd0a18cf          	fnmadd.h	f17,f20,f16,f23,rtz
   4382c54d4:	0001                	.insn	2, 0x0001
   4382c54d6:	0000                	.insn	2, 0x0000
   4382c54d8:	bd0a1ccf          	fnmadd.h	f25,f20,f16,f23,rtz
   4382c54dc:	0001                	.insn	2, 0x0001
   4382c54de:	0000                	.insn	2, 0x0000
   4382c54e0:	bd0a20cf          	fnmadd.h	f1,f20,f16,f23,rdn
   4382c54e4:	0001                	.insn	2, 0x0001
   4382c54e6:	0000                	.insn	2, 0x0000
   4382c54e8:	bd0a24cf          	fnmadd.h	f9,f20,f16,f23,rdn
   4382c54ec:	0001                	.insn	2, 0x0001
   4382c54ee:	0000                	.insn	2, 0x0000
   4382c54f0:	bd0a28cf          	fnmadd.h	f17,f20,f16,f23,rdn
   4382c54f4:	0001                	.insn	2, 0x0001
   4382c54f6:	0000                	.insn	2, 0x0000
   4382c54f8:	bd0a2ccf          	fnmadd.h	f25,f20,f16,f23,rdn
   4382c54fc:	0001                	.insn	2, 0x0001
   4382c54fe:	0000                	.insn	2, 0x0000
   4382c5500:	bd0a30cf          	fnmadd.h	f1,f20,f16,f23,rup
   4382c5504:	0001                	.insn	2, 0x0001
   4382c5506:	0000                	.insn	2, 0x0000
   4382c5508:	bd0a34cf          	fnmadd.h	f9,f20,f16,f23,rup
   4382c550c:	0001                	.insn	2, 0x0001
   4382c550e:	0000                	.insn	2, 0x0000
   4382c5510:	bd0a38cf          	fnmadd.h	f17,f20,f16,f23,rup
   4382c5514:	0001                	.insn	2, 0x0001
   4382c5516:	0000                	.insn	2, 0x0000
   4382c5518:	bd0a3ccf          	fnmadd.h	f25,f20,f16,f23,rup
   4382c551c:	0001                	.insn	2, 0x0001
   4382c551e:	0000                	.insn	2, 0x0000
   4382c5520:	bd0a40cf          	fnmadd.h	f1,f20,f16,f23,rmm
   4382c5524:	0001                	.insn	2, 0x0001
   4382c5526:	0000                	.insn	2, 0x0000
   4382c5528:	bd0a44cf          	fnmadd.h	f9,f20,f16,f23,rmm
   4382c552c:	0001                	.insn	2, 0x0001
   4382c552e:	0000                	.insn	2, 0x0000
   4382c5530:	bd0a48cf          	fnmadd.h	f17,f20,f16,f23,rmm
   4382c5534:	0001                	.insn	2, 0x0001
   4382c5536:	0000                	.insn	2, 0x0000
   4382c5538:	bd0a4ccf          	fnmadd.h	f25,f20,f16,f23,rmm
   4382c553c:	0001                	.insn	2, 0x0001
   4382c553e:	0000                	.insn	2, 0x0000
   4382c5540:	bd0a50cf          	fnmadd.h	f1,f20,f16,f23,unknown
   4382c5544:	0001                	.insn	2, 0x0001
   4382c5546:	0000                	.insn	2, 0x0000
   4382c5548:	bd0a54cf          	fnmadd.h	f9,f20,f16,f23,unknown
   4382c554c:	0001                	.insn	2, 0x0001
   4382c554e:	0000                	.insn	2, 0x0000
   4382c5550:	bd0a58cf          	fnmadd.h	f17,f20,f16,f23,unknown
   4382c5554:	0001                	.insn	2, 0x0001
   4382c5556:	0000                	.insn	2, 0x0000
   4382c5558:	bd0a5ccf          	fnmadd.h	f25,f20,f16,f23,unknown
   4382c555c:	0001                	.insn	2, 0x0001
   4382c555e:	0000                	.insn	2, 0x0000
   4382c5560:	bd0a60cf          	fnmadd.h	f1,f20,f16,f23,unknown
   4382c5564:	0001                	.insn	2, 0x0001
   4382c5566:	0000                	.insn	2, 0x0000
   4382c5568:	bd0a64cf          	fnmadd.h	f9,f20,f16,f23,unknown
   4382c556c:	0001                	.insn	2, 0x0001
   4382c556e:	0000                	.insn	2, 0x0000
   4382c5570:	bd0a68cf          	fnmadd.h	f17,f20,f16,f23,unknown
   4382c5574:	0001                	.insn	2, 0x0001
   4382c5576:	0000                	.insn	2, 0x0000
   4382c5578:	bd0a6ccf          	fnmadd.h	f25,f20,f16,f23,unknown
   4382c557c:	0001                	.insn	2, 0x0001
   4382c557e:	0000                	.insn	2, 0x0000
   4382c5580:	bd0a70cf          	fnmadd.h	f1,f20,f16,f23
   4382c5584:	0001                	.insn	2, 0x0001
   4382c5586:	0000                	.insn	2, 0x0000
   4382c5588:	bd0a74cf          	fnmadd.h	f9,f20,f16,f23
   4382c558c:	0001                	.insn	2, 0x0001
   4382c558e:	0000                	.insn	2, 0x0000
   4382c5590:	bd0a78cf          	fnmadd.h	f17,f20,f16,f23
   4382c5594:	0001                	.insn	2, 0x0001
   4382c5596:	0000                	.insn	2, 0x0000
   4382c5598:	bd0a7ccf          	fnmadd.h	f25,f20,f16,f23
   4382c559c:	0001                	.insn	2, 0x0001
   4382c559e:	0000                	.insn	2, 0x0000
   4382c55a0:	bd0a80cf          	fnmadd.h	f1,f21,f16,f23,rne
   4382c55a4:	0001                	.insn	2, 0x0001
   4382c55a6:	0000                	.insn	2, 0x0000
   4382c55a8:	bd0a84cf          	fnmadd.h	f9,f21,f16,f23,rne
   4382c55ac:	0001                	.insn	2, 0x0001
   4382c55ae:	0000                	.insn	2, 0x0000
   4382c55b0:	bd0a88cf          	fnmadd.h	f17,f21,f16,f23,rne
   4382c55b4:	0001                	.insn	2, 0x0001
   4382c55b6:	0000                	.insn	2, 0x0000
   4382c55b8:	bd0a8ccf          	fnmadd.h	f25,f21,f16,f23,rne
   4382c55bc:	0001                	.insn	2, 0x0001
   4382c55be:	0000                	.insn	2, 0x0000
   4382c55c0:	bd0a90cf          	fnmadd.h	f1,f21,f16,f23,rtz
   4382c55c4:	0001                	.insn	2, 0x0001
   4382c55c6:	0000                	.insn	2, 0x0000
   4382c55c8:	bd0a94cf          	fnmadd.h	f9,f21,f16,f23,rtz
   4382c55cc:	0001                	.insn	2, 0x0001
   4382c55ce:	0000                	.insn	2, 0x0000
   4382c55d0:	bd0a98cf          	fnmadd.h	f17,f21,f16,f23,rtz
   4382c55d4:	0001                	.insn	2, 0x0001
   4382c55d6:	0000                	.insn	2, 0x0000
   4382c55d8:	bd0a9ccf          	fnmadd.h	f25,f21,f16,f23,rtz
   4382c55dc:	0001                	.insn	2, 0x0001
   4382c55de:	0000                	.insn	2, 0x0000
   4382c55e0:	bd0aa0cf          	fnmadd.h	f1,f21,f16,f23,rdn
   4382c55e4:	0001                	.insn	2, 0x0001
   4382c55e6:	0000                	.insn	2, 0x0000
   4382c55e8:	bd0aa4cf          	fnmadd.h	f9,f21,f16,f23,rdn
   4382c55ec:	0001                	.insn	2, 0x0001
   4382c55ee:	0000                	.insn	2, 0x0000
   4382c55f0:	bd0aa8cf          	fnmadd.h	f17,f21,f16,f23,rdn
   4382c55f4:	0001                	.insn	2, 0x0001
   4382c55f6:	0000                	.insn	2, 0x0000
   4382c55f8:	bd0aaccf          	fnmadd.h	f25,f21,f16,f23,rdn
   4382c55fc:	0001                	.insn	2, 0x0001
   4382c55fe:	0000                	.insn	2, 0x0000
   4382c5600:	bd0ab0cf          	fnmadd.h	f1,f21,f16,f23,rup
   4382c5604:	0001                	.insn	2, 0x0001
   4382c5606:	0000                	.insn	2, 0x0000
   4382c5608:	bd0ab4cf          	fnmadd.h	f9,f21,f16,f23,rup
   4382c560c:	0001                	.insn	2, 0x0001
   4382c560e:	0000                	.insn	2, 0x0000
   4382c5610:	bd0ab8cf          	fnmadd.h	f17,f21,f16,f23,rup
   4382c5614:	0001                	.insn	2, 0x0001
   4382c5616:	0000                	.insn	2, 0x0000
   4382c5618:	bd0abccf          	fnmadd.h	f25,f21,f16,f23,rup
   4382c561c:	0001                	.insn	2, 0x0001
   4382c561e:	0000                	.insn	2, 0x0000
   4382c5620:	bd0ac0cf          	fnmadd.h	f1,f21,f16,f23,rmm
   4382c5624:	0001                	.insn	2, 0x0001
   4382c5626:	0000                	.insn	2, 0x0000
   4382c5628:	bd0ac4cf          	fnmadd.h	f9,f21,f16,f23,rmm
   4382c562c:	0001                	.insn	2, 0x0001
   4382c562e:	0000                	.insn	2, 0x0000
   4382c5630:	bd0ac8cf          	fnmadd.h	f17,f21,f16,f23,rmm
   4382c5634:	0001                	.insn	2, 0x0001
   4382c5636:	0000                	.insn	2, 0x0000
   4382c5638:	bd0acccf          	fnmadd.h	f25,f21,f16,f23,rmm
   4382c563c:	0001                	.insn	2, 0x0001
   4382c563e:	0000                	.insn	2, 0x0000
   4382c5640:	bd0ad0cf          	fnmadd.h	f1,f21,f16,f23,unknown
   4382c5644:	0001                	.insn	2, 0x0001
   4382c5646:	0000                	.insn	2, 0x0000
   4382c5648:	bd0ad4cf          	fnmadd.h	f9,f21,f16,f23,unknown
   4382c564c:	0001                	.insn	2, 0x0001
   4382c564e:	0000                	.insn	2, 0x0000
   4382c5650:	bd0ad8cf          	fnmadd.h	f17,f21,f16,f23,unknown
   4382c5654:	0001                	.insn	2, 0x0001
   4382c5656:	0000                	.insn	2, 0x0000
   4382c5658:	bd0adccf          	fnmadd.h	f25,f21,f16,f23,unknown
   4382c565c:	0001                	.insn	2, 0x0001
   4382c565e:	0000                	.insn	2, 0x0000
   4382c5660:	bd0ae0cf          	fnmadd.h	f1,f21,f16,f23,unknown
   4382c5664:	0001                	.insn	2, 0x0001
   4382c5666:	0000                	.insn	2, 0x0000
   4382c5668:	bd0ae4cf          	fnmadd.h	f9,f21,f16,f23,unknown
   4382c566c:	0001                	.insn	2, 0x0001
   4382c566e:	0000                	.insn	2, 0x0000
   4382c5670:	bd0ae8cf          	fnmadd.h	f17,f21,f16,f23,unknown
   4382c5674:	0001                	.insn	2, 0x0001
   4382c5676:	0000                	.insn	2, 0x0000
   4382c5678:	bd0aeccf          	fnmadd.h	f25,f21,f16,f23,unknown
   4382c567c:	0001                	.insn	2, 0x0001
   4382c567e:	0000                	.insn	2, 0x0000
   4382c5680:	bd0af0cf          	fnmadd.h	f1,f21,f16,f23
   4382c5684:	0001                	.insn	2, 0x0001
   4382c5686:	0000                	.insn	2, 0x0000
   4382c5688:	bd0af4cf          	fnmadd.h	f9,f21,f16,f23
   4382c568c:	0001                	.insn	2, 0x0001
   4382c568e:	0000                	.insn	2, 0x0000
   4382c5690:	bd0af8cf          	fnmadd.h	f17,f21,f16,f23
   4382c5694:	0001                	.insn	2, 0x0001
   4382c5696:	0000                	.insn	2, 0x0000
   4382c5698:	bd0afccf          	fnmadd.h	f25,f21,f16,f23
   4382c569c:	0001                	.insn	2, 0x0001
   4382c569e:	0000                	.insn	2, 0x0000
   4382c56a0:	bd0b00cf          	fnmadd.h	f1,f22,f16,f23,rne
   4382c56a4:	0001                	.insn	2, 0x0001
   4382c56a6:	0000                	.insn	2, 0x0000
   4382c56a8:	bd0b04cf          	fnmadd.h	f9,f22,f16,f23,rne
   4382c56ac:	0001                	.insn	2, 0x0001
   4382c56ae:	0000                	.insn	2, 0x0000
   4382c56b0:	bd0b08cf          	fnmadd.h	f17,f22,f16,f23,rne
   4382c56b4:	0001                	.insn	2, 0x0001
   4382c56b6:	0000                	.insn	2, 0x0000
   4382c56b8:	bd0b0ccf          	fnmadd.h	f25,f22,f16,f23,rne
   4382c56bc:	0001                	.insn	2, 0x0001
   4382c56be:	0000                	.insn	2, 0x0000
   4382c56c0:	bd0b10cf          	fnmadd.h	f1,f22,f16,f23,rtz
   4382c56c4:	0001                	.insn	2, 0x0001
   4382c56c6:	0000                	.insn	2, 0x0000
   4382c56c8:	bd0b14cf          	fnmadd.h	f9,f22,f16,f23,rtz
   4382c56cc:	0001                	.insn	2, 0x0001
   4382c56ce:	0000                	.insn	2, 0x0000
   4382c56d0:	bd0b18cf          	fnmadd.h	f17,f22,f16,f23,rtz
   4382c56d4:	0001                	.insn	2, 0x0001
   4382c56d6:	0000                	.insn	2, 0x0000
   4382c56d8:	bd0b1ccf          	fnmadd.h	f25,f22,f16,f23,rtz
   4382c56dc:	0001                	.insn	2, 0x0001
   4382c56de:	0000                	.insn	2, 0x0000
   4382c56e0:	bd0b20cf          	fnmadd.h	f1,f22,f16,f23,rdn
   4382c56e4:	0001                	.insn	2, 0x0001
   4382c56e6:	0000                	.insn	2, 0x0000
   4382c56e8:	bd0b24cf          	fnmadd.h	f9,f22,f16,f23,rdn
   4382c56ec:	0001                	.insn	2, 0x0001
   4382c56ee:	0000                	.insn	2, 0x0000
   4382c56f0:	bd0b28cf          	fnmadd.h	f17,f22,f16,f23,rdn
   4382c56f4:	0001                	.insn	2, 0x0001
   4382c56f6:	0000                	.insn	2, 0x0000
   4382c56f8:	bd0b2ccf          	fnmadd.h	f25,f22,f16,f23,rdn
   4382c56fc:	0001                	.insn	2, 0x0001
   4382c56fe:	0000                	.insn	2, 0x0000
   4382c5700:	bd0b30cf          	fnmadd.h	f1,f22,f16,f23,rup
   4382c5704:	0001                	.insn	2, 0x0001
   4382c5706:	0000                	.insn	2, 0x0000
   4382c5708:	bd0b34cf          	fnmadd.h	f9,f22,f16,f23,rup
   4382c570c:	0001                	.insn	2, 0x0001
   4382c570e:	0000                	.insn	2, 0x0000
   4382c5710:	bd0b38cf          	fnmadd.h	f17,f22,f16,f23,rup
   4382c5714:	0001                	.insn	2, 0x0001
   4382c5716:	0000                	.insn	2, 0x0000
   4382c5718:	bd0b3ccf          	fnmadd.h	f25,f22,f16,f23,rup
   4382c571c:	0001                	.insn	2, 0x0001
   4382c571e:	0000                	.insn	2, 0x0000
   4382c5720:	bd0b40cf          	fnmadd.h	f1,f22,f16,f23,rmm
   4382c5724:	0001                	.insn	2, 0x0001
   4382c5726:	0000                	.insn	2, 0x0000
   4382c5728:	bd0b44cf          	fnmadd.h	f9,f22,f16,f23,rmm
   4382c572c:	0001                	.insn	2, 0x0001
   4382c572e:	0000                	.insn	2, 0x0000
   4382c5730:	bd0b48cf          	fnmadd.h	f17,f22,f16,f23,rmm
   4382c5734:	0001                	.insn	2, 0x0001
   4382c5736:	0000                	.insn	2, 0x0000
   4382c5738:	bd0b4ccf          	fnmadd.h	f25,f22,f16,f23,rmm
   4382c573c:	0001                	.insn	2, 0x0001
   4382c573e:	0000                	.insn	2, 0x0000
   4382c5740:	bd0b50cf          	fnmadd.h	f1,f22,f16,f23,unknown
   4382c5744:	0001                	.insn	2, 0x0001
   4382c5746:	0000                	.insn	2, 0x0000
   4382c5748:	bd0b54cf          	fnmadd.h	f9,f22,f16,f23,unknown
   4382c574c:	0001                	.insn	2, 0x0001
   4382c574e:	0000                	.insn	2, 0x0000
   4382c5750:	bd0b58cf          	fnmadd.h	f17,f22,f16,f23,unknown
   4382c5754:	0001                	.insn	2, 0x0001
   4382c5756:	0000                	.insn	2, 0x0000
   4382c5758:	bd0b5ccf          	fnmadd.h	f25,f22,f16,f23,unknown
   4382c575c:	0001                	.insn	2, 0x0001
   4382c575e:	0000                	.insn	2, 0x0000
   4382c5760:	bd0b60cf          	fnmadd.h	f1,f22,f16,f23,unknown
   4382c5764:	0001                	.insn	2, 0x0001
   4382c5766:	0000                	.insn	2, 0x0000
   4382c5768:	bd0b64cf          	fnmadd.h	f9,f22,f16,f23,unknown
   4382c576c:	0001                	.insn	2, 0x0001
   4382c576e:	0000                	.insn	2, 0x0000
   4382c5770:	bd0b68cf          	fnmadd.h	f17,f22,f16,f23,unknown
   4382c5774:	0001                	.insn	2, 0x0001
   4382c5776:	0000                	.insn	2, 0x0000
   4382c5778:	bd0b6ccf          	fnmadd.h	f25,f22,f16,f23,unknown
   4382c577c:	0001                	.insn	2, 0x0001
   4382c577e:	0000                	.insn	2, 0x0000
   4382c5780:	bd0b70cf          	fnmadd.h	f1,f22,f16,f23
   4382c5784:	0001                	.insn	2, 0x0001
   4382c5786:	0000                	.insn	2, 0x0000
   4382c5788:	bd0b74cf          	fnmadd.h	f9,f22,f16,f23
   4382c578c:	0001                	.insn	2, 0x0001
   4382c578e:	0000                	.insn	2, 0x0000
   4382c5790:	bd0b78cf          	fnmadd.h	f17,f22,f16,f23
   4382c5794:	0001                	.insn	2, 0x0001
   4382c5796:	0000                	.insn	2, 0x0000
   4382c5798:	bd0b7ccf          	fnmadd.h	f25,f22,f16,f23
   4382c579c:	0001                	.insn	2, 0x0001
   4382c579e:	0000                	.insn	2, 0x0000
   4382c57a0:	bd0b80cf          	fnmadd.h	f1,f23,f16,f23,rne
   4382c57a4:	0001                	.insn	2, 0x0001
   4382c57a6:	0000                	.insn	2, 0x0000
   4382c57a8:	bd0b84cf          	fnmadd.h	f9,f23,f16,f23,rne
   4382c57ac:	0001                	.insn	2, 0x0001
   4382c57ae:	0000                	.insn	2, 0x0000
   4382c57b0:	bd0b88cf          	fnmadd.h	f17,f23,f16,f23,rne
   4382c57b4:	0001                	.insn	2, 0x0001
   4382c57b6:	0000                	.insn	2, 0x0000
   4382c57b8:	bd0b8ccf          	fnmadd.h	f25,f23,f16,f23,rne
   4382c57bc:	0001                	.insn	2, 0x0001
   4382c57be:	0000                	.insn	2, 0x0000
   4382c57c0:	bd0b90cf          	fnmadd.h	f1,f23,f16,f23,rtz
   4382c57c4:	0001                	.insn	2, 0x0001
   4382c57c6:	0000                	.insn	2, 0x0000
   4382c57c8:	bd0b94cf          	fnmadd.h	f9,f23,f16,f23,rtz
   4382c57cc:	0001                	.insn	2, 0x0001
   4382c57ce:	0000                	.insn	2, 0x0000
   4382c57d0:	bd0b98cf          	fnmadd.h	f17,f23,f16,f23,rtz
   4382c57d4:	0001                	.insn	2, 0x0001
   4382c57d6:	0000                	.insn	2, 0x0000
   4382c57d8:	bd0b9ccf          	fnmadd.h	f25,f23,f16,f23,rtz
   4382c57dc:	0001                	.insn	2, 0x0001
   4382c57de:	0000                	.insn	2, 0x0000
   4382c57e0:	bd0ba0cf          	fnmadd.h	f1,f23,f16,f23,rdn
   4382c57e4:	0001                	.insn	2, 0x0001
   4382c57e6:	0000                	.insn	2, 0x0000
   4382c57e8:	bd0ba4cf          	fnmadd.h	f9,f23,f16,f23,rdn
   4382c57ec:	0001                	.insn	2, 0x0001
   4382c57ee:	0000                	.insn	2, 0x0000
   4382c57f0:	bd0ba8cf          	fnmadd.h	f17,f23,f16,f23,rdn
   4382c57f4:	0001                	.insn	2, 0x0001
   4382c57f6:	0000                	.insn	2, 0x0000
   4382c57f8:	bd0baccf          	fnmadd.h	f25,f23,f16,f23,rdn
   4382c57fc:	0001                	.insn	2, 0x0001
   4382c57fe:	0000                	.insn	2, 0x0000
   4382c5800:	bd0bb0cf          	fnmadd.h	f1,f23,f16,f23,rup
   4382c5804:	0001                	.insn	2, 0x0001
   4382c5806:	0000                	.insn	2, 0x0000
   4382c5808:	bd0bb4cf          	fnmadd.h	f9,f23,f16,f23,rup
   4382c580c:	0001                	.insn	2, 0x0001
   4382c580e:	0000                	.insn	2, 0x0000
   4382c5810:	bd0bb8cf          	fnmadd.h	f17,f23,f16,f23,rup
   4382c5814:	0001                	.insn	2, 0x0001
   4382c5816:	0000                	.insn	2, 0x0000
   4382c5818:	bd0bbccf          	fnmadd.h	f25,f23,f16,f23,rup
   4382c581c:	0001                	.insn	2, 0x0001
   4382c581e:	0000                	.insn	2, 0x0000
   4382c5820:	bd0bc0cf          	fnmadd.h	f1,f23,f16,f23,rmm
   4382c5824:	0001                	.insn	2, 0x0001
   4382c5826:	0000                	.insn	2, 0x0000
   4382c5828:	bd0bc4cf          	fnmadd.h	f9,f23,f16,f23,rmm
   4382c582c:	0001                	.insn	2, 0x0001
   4382c582e:	0000                	.insn	2, 0x0000
   4382c5830:	bd0bc8cf          	fnmadd.h	f17,f23,f16,f23,rmm
   4382c5834:	0001                	.insn	2, 0x0001
   4382c5836:	0000                	.insn	2, 0x0000
   4382c5838:	bd0bcccf          	fnmadd.h	f25,f23,f16,f23,rmm
   4382c583c:	0001                	.insn	2, 0x0001
   4382c583e:	0000                	.insn	2, 0x0000
   4382c5840:	bd0bd0cf          	fnmadd.h	f1,f23,f16,f23,unknown
   4382c5844:	0001                	.insn	2, 0x0001
   4382c5846:	0000                	.insn	2, 0x0000
   4382c5848:	bd0bd4cf          	fnmadd.h	f9,f23,f16,f23,unknown
   4382c584c:	0001                	.insn	2, 0x0001
   4382c584e:	0000                	.insn	2, 0x0000
   4382c5850:	bd0bd8cf          	fnmadd.h	f17,f23,f16,f23,unknown
   4382c5854:	0001                	.insn	2, 0x0001
   4382c5856:	0000                	.insn	2, 0x0000
   4382c5858:	bd0bdccf          	fnmadd.h	f25,f23,f16,f23,unknown
   4382c585c:	0001                	.insn	2, 0x0001
   4382c585e:	0000                	.insn	2, 0x0000
   4382c5860:	bd0be0cf          	fnmadd.h	f1,f23,f16,f23,unknown
   4382c5864:	0001                	.insn	2, 0x0001
   4382c5866:	0000                	.insn	2, 0x0000
   4382c5868:	bd0be4cf          	fnmadd.h	f9,f23,f16,f23,unknown
   4382c586c:	0001                	.insn	2, 0x0001
   4382c586e:	0000                	.insn	2, 0x0000
   4382c5870:	bd0be8cf          	fnmadd.h	f17,f23,f16,f23,unknown
   4382c5874:	0001                	.insn	2, 0x0001
   4382c5876:	0000                	.insn	2, 0x0000
   4382c5878:	bd0beccf          	fnmadd.h	f25,f23,f16,f23,unknown
   4382c587c:	0001                	.insn	2, 0x0001
   4382c587e:	0000                	.insn	2, 0x0000
   4382c5880:	bd0bf0cf          	fnmadd.h	f1,f23,f16,f23
   4382c5884:	0001                	.insn	2, 0x0001
   4382c5886:	0000                	.insn	2, 0x0000
   4382c5888:	bd0bf4cf          	fnmadd.h	f9,f23,f16,f23
   4382c588c:	0001                	.insn	2, 0x0001
   4382c588e:	0000                	.insn	2, 0x0000
   4382c5890:	bd0bf8cf          	fnmadd.h	f17,f23,f16,f23
   4382c5894:	0001                	.insn	2, 0x0001
   4382c5896:	0000                	.insn	2, 0x0000
   4382c5898:	bd0bfccf          	fnmadd.h	f25,f23,f16,f23
   4382c589c:	0001                	.insn	2, 0x0001
   4382c589e:	0000                	.insn	2, 0x0000
   4382c58a0:	00df bd0c 0001      	.insn	6, 0x0001bd0c00df
   4382c58a6:	0000                	.insn	2, 0x0000
   4382c58a8:	04df bd0c 0001      	.insn	6, 0x0001bd0c04df
   4382c58ae:	0000                	.insn	2, 0x0000
   4382c58b0:	08df bd0c 0001      	.insn	6, 0x0001bd0c08df
   4382c58b6:	0000                	.insn	2, 0x0000
   4382c58b8:	0cdf bd0c 0001      	.insn	6, 0x0001bd0c0cdf
   4382c58be:	0000                	.insn	2, 0x0000
   4382c58c0:	10df bd0c 0001      	.insn	6, 0x0001bd0c10df
   4382c58c6:	0000                	.insn	2, 0x0000
   4382c58c8:	14df bd0c 0001      	.insn	6, 0x0001bd0c14df
   4382c58ce:	0000                	.insn	2, 0x0000
   4382c58d0:	18df bd0c 0001      	.insn	6, 0x0001bd0c18df
   4382c58d6:	0000                	.insn	2, 0x0000
   4382c58d8:	1cdf bd0c 0001      	.insn	6, 0x0001bd0c1cdf
   4382c58de:	0000                	.insn	2, 0x0000
   4382c58e0:	20df bd0c 0001      	.insn	6, 0x0001bd0c20df
   4382c58e6:	0000                	.insn	2, 0x0000
   4382c58e8:	24df bd0c 0001      	.insn	6, 0x0001bd0c24df
   4382c58ee:	0000                	.insn	2, 0x0000
   4382c58f0:	28df bd0c 0001      	.insn	6, 0x0001bd0c28df
   4382c58f6:	0000                	.insn	2, 0x0000
   4382c58f8:	2cdf bd0c 0001      	.insn	6, 0x0001bd0c2cdf
   4382c58fe:	0000                	.insn	2, 0x0000
   4382c5900:	30df bd0c 0001      	.insn	6, 0x0001bd0c30df
   4382c5906:	0000                	.insn	2, 0x0000
   4382c5908:	34df bd0c 0001      	.insn	6, 0x0001bd0c34df
   4382c590e:	0000                	.insn	2, 0x0000
   4382c5910:	38df bd0c 0001      	.insn	6, 0x0001bd0c38df
   4382c5916:	0000                	.insn	2, 0x0000
   4382c5918:	3cdf bd0c 0001      	.insn	6, 0x0001bd0c3cdf
   4382c591e:	0000                	.insn	2, 0x0000
   4382c5920:	40df bd0c 0001      	.insn	6, 0x0001bd0c40df
   4382c5926:	0000                	.insn	2, 0x0000
   4382c5928:	44df bd0c 0001      	.insn	6, 0x0001bd0c44df
   4382c592e:	0000                	.insn	2, 0x0000
   4382c5930:	48df bd0c 0001      	.insn	6, 0x0001bd0c48df
   4382c5936:	0000                	.insn	2, 0x0000
   4382c5938:	4cdf bd0c 0001      	.insn	6, 0x0001bd0c4cdf
   4382c593e:	0000                	.insn	2, 0x0000
   4382c5940:	50df bd0c 0001      	.insn	6, 0x0001bd0c50df
   4382c5946:	0000                	.insn	2, 0x0000
   4382c5948:	54df bd0c 0001      	.insn	6, 0x0001bd0c54df
   4382c594e:	0000                	.insn	2, 0x0000
   4382c5950:	58df bd0c 0001      	.insn	6, 0x0001bd0c58df
   4382c5956:	0000                	.insn	2, 0x0000
   4382c5958:	5cdf bd0c 0001      	.insn	6, 0x0001bd0c5cdf
   4382c595e:	0000                	.insn	2, 0x0000
   4382c5960:	60df bd0c 0001      	.insn	6, 0x0001bd0c60df
   4382c5966:	0000                	.insn	2, 0x0000
   4382c5968:	64df bd0c 0001      	.insn	6, 0x0001bd0c64df
   4382c596e:	0000                	.insn	2, 0x0000
   4382c5970:	68df bd0c 0001      	.insn	6, 0x0001bd0c68df
   4382c5976:	0000                	.insn	2, 0x0000
   4382c5978:	6cdf bd0c 0001      	.insn	6, 0x0001bd0c6cdf
   4382c597e:	0000                	.insn	2, 0x0000
   4382c5980:	70df bd0c 0001      	.insn	6, 0x0001bd0c70df
   4382c5986:	0000                	.insn	2, 0x0000
   4382c5988:	74df bd0c 0001      	.insn	6, 0x0001bd0c74df
   4382c598e:	0000                	.insn	2, 0x0000
   4382c5990:	78df bd0c 0001      	.insn	6, 0x0001bd0c78df
   4382c5996:	0000                	.insn	2, 0x0000
   4382c5998:	7cdf bd0c 0001      	.insn	6, 0x0001bd0c7cdf
   4382c599e:	0000                	.insn	2, 0x0000
   4382c59a0:	80df bd0c 0001      	.insn	6, 0x0001bd0c80df
   4382c59a6:	0000                	.insn	2, 0x0000
   4382c59a8:	84df bd0c 0001      	.insn	6, 0x0001bd0c84df
   4382c59ae:	0000                	.insn	2, 0x0000
   4382c59b0:	88df bd0c 0001      	.insn	6, 0x0001bd0c88df
   4382c59b6:	0000                	.insn	2, 0x0000
   4382c59b8:	8cdf bd0c 0001      	.insn	6, 0x0001bd0c8cdf
   4382c59be:	0000                	.insn	2, 0x0000
   4382c59c0:	90df bd0c 0001      	.insn	6, 0x0001bd0c90df
   4382c59c6:	0000                	.insn	2, 0x0000
   4382c59c8:	94df bd0c 0001      	.insn	6, 0x0001bd0c94df
   4382c59ce:	0000                	.insn	2, 0x0000
   4382c59d0:	98df bd0c 0001      	.insn	6, 0x0001bd0c98df
   4382c59d6:	0000                	.insn	2, 0x0000
   4382c59d8:	9cdf bd0c 0001      	.insn	6, 0x0001bd0c9cdf
   4382c59de:	0000                	.insn	2, 0x0000
   4382c59e0:	a0df bd0c 0001      	.insn	6, 0x0001bd0ca0df
   4382c59e6:	0000                	.insn	2, 0x0000
   4382c59e8:	a4df bd0c 0001      	.insn	6, 0x0001bd0ca4df
   4382c59ee:	0000                	.insn	2, 0x0000
   4382c59f0:	a8df bd0c 0001      	.insn	6, 0x0001bd0ca8df
   4382c59f6:	0000                	.insn	2, 0x0000
   4382c59f8:	acdf bd0c 0001      	.insn	6, 0x0001bd0cacdf
   4382c59fe:	0000                	.insn	2, 0x0000
   4382c5a00:	b0df bd0c 0001      	.insn	6, 0x0001bd0cb0df
   4382c5a06:	0000                	.insn	2, 0x0000
   4382c5a08:	b4df bd0c 0001      	.insn	6, 0x0001bd0cb4df
   4382c5a0e:	0000                	.insn	2, 0x0000
   4382c5a10:	b8df bd0c 0001      	.insn	6, 0x0001bd0cb8df
   4382c5a16:	0000                	.insn	2, 0x0000
   4382c5a18:	bcdf bd0c 0001      	.insn	6, 0x0001bd0cbcdf
   4382c5a1e:	0000                	.insn	2, 0x0000
   4382c5a20:	c0df bd0c 0001      	.insn	6, 0x0001bd0cc0df
   4382c5a26:	0000                	.insn	2, 0x0000
   4382c5a28:	c4df bd0c 0001      	.insn	6, 0x0001bd0cc4df
   4382c5a2e:	0000                	.insn	2, 0x0000
   4382c5a30:	c8df bd0c 0001      	.insn	6, 0x0001bd0cc8df
   4382c5a36:	0000                	.insn	2, 0x0000
   4382c5a38:	ccdf bd0c 0001      	.insn	6, 0x0001bd0cccdf
   4382c5a3e:	0000                	.insn	2, 0x0000
   4382c5a40:	d0df bd0c 0001      	.insn	6, 0x0001bd0cd0df
   4382c5a46:	0000                	.insn	2, 0x0000
   4382c5a48:	d4df bd0c 0001      	.insn	6, 0x0001bd0cd4df
   4382c5a4e:	0000                	.insn	2, 0x0000
   4382c5a50:	d8df bd0c 0001      	.insn	6, 0x0001bd0cd8df
   4382c5a56:	0000                	.insn	2, 0x0000
   4382c5a58:	dcdf bd0c 0001      	.insn	6, 0x0001bd0cdcdf
   4382c5a5e:	0000                	.insn	2, 0x0000
   4382c5a60:	e0df bd0c 0001      	.insn	6, 0x0001bd0ce0df
   4382c5a66:	0000                	.insn	2, 0x0000
   4382c5a68:	e4df bd0c 0001      	.insn	6, 0x0001bd0ce4df
   4382c5a6e:	0000                	.insn	2, 0x0000
   4382c5a70:	e8df bd0c 0001      	.insn	6, 0x0001bd0ce8df
   4382c5a76:	0000                	.insn	2, 0x0000
   4382c5a78:	ecdf bd0c 0001      	.insn	6, 0x0001bd0cecdf
   4382c5a7e:	0000                	.insn	2, 0x0000
   4382c5a80:	f0df bd0c 0001      	.insn	6, 0x0001bd0cf0df
   4382c5a86:	0000                	.insn	2, 0x0000
   4382c5a88:	f4df bd0c 0001      	.insn	6, 0x0001bd0cf4df
   4382c5a8e:	0000                	.insn	2, 0x0000
   4382c5a90:	f8df bd0c 0001      	.insn	6, 0x0001bd0cf8df
   4382c5a96:	0000                	.insn	2, 0x0000
   4382c5a98:	fcdf bd0c 0001      	.insn	6, 0x0001bd0cfcdf
   4382c5a9e:	0000                	.insn	2, 0x0000
   4382c5aa0:	00df bd0d 0001      	.insn	6, 0x0001bd0d00df
   4382c5aa6:	0000                	.insn	2, 0x0000
   4382c5aa8:	04df bd0d 0001      	.insn	6, 0x0001bd0d04df
   4382c5aae:	0000                	.insn	2, 0x0000
   4382c5ab0:	08df bd0d 0001      	.insn	6, 0x0001bd0d08df
   4382c5ab6:	0000                	.insn	2, 0x0000
   4382c5ab8:	0cdf bd0d 0001      	.insn	6, 0x0001bd0d0cdf
   4382c5abe:	0000                	.insn	2, 0x0000
   4382c5ac0:	10df bd0d 0001      	.insn	6, 0x0001bd0d10df
   4382c5ac6:	0000                	.insn	2, 0x0000
   4382c5ac8:	14df bd0d 0001      	.insn	6, 0x0001bd0d14df
   4382c5ace:	0000                	.insn	2, 0x0000
   4382c5ad0:	18df bd0d 0001      	.insn	6, 0x0001bd0d18df
   4382c5ad6:	0000                	.insn	2, 0x0000
   4382c5ad8:	1cdf bd0d 0001      	.insn	6, 0x0001bd0d1cdf
   4382c5ade:	0000                	.insn	2, 0x0000
   4382c5ae0:	20df bd0d 0001      	.insn	6, 0x0001bd0d20df
   4382c5ae6:	0000                	.insn	2, 0x0000
   4382c5ae8:	24df bd0d 0001      	.insn	6, 0x0001bd0d24df
   4382c5aee:	0000                	.insn	2, 0x0000
   4382c5af0:	28df bd0d 0001      	.insn	6, 0x0001bd0d28df
   4382c5af6:	0000                	.insn	2, 0x0000
   4382c5af8:	2cdf bd0d 0001      	.insn	6, 0x0001bd0d2cdf
   4382c5afe:	0000                	.insn	2, 0x0000
   4382c5b00:	30df bd0d 0001      	.insn	6, 0x0001bd0d30df
   4382c5b06:	0000                	.insn	2, 0x0000
   4382c5b08:	34df bd0d 0001      	.insn	6, 0x0001bd0d34df
   4382c5b0e:	0000                	.insn	2, 0x0000
   4382c5b10:	38df bd0d 0001      	.insn	6, 0x0001bd0d38df
   4382c5b16:	0000                	.insn	2, 0x0000
   4382c5b18:	3cdf bd0d 0001      	.insn	6, 0x0001bd0d3cdf
   4382c5b1e:	0000                	.insn	2, 0x0000
   4382c5b20:	40df bd0d 0001      	.insn	6, 0x0001bd0d40df
   4382c5b26:	0000                	.insn	2, 0x0000
   4382c5b28:	44df bd0d 0001      	.insn	6, 0x0001bd0d44df
   4382c5b2e:	0000                	.insn	2, 0x0000
   4382c5b30:	48df bd0d 0001      	.insn	6, 0x0001bd0d48df
   4382c5b36:	0000                	.insn	2, 0x0000
   4382c5b38:	4cdf bd0d 0001      	.insn	6, 0x0001bd0d4cdf
   4382c5b3e:	0000                	.insn	2, 0x0000
   4382c5b40:	50df bd0d 0001      	.insn	6, 0x0001bd0d50df
   4382c5b46:	0000                	.insn	2, 0x0000
   4382c5b48:	54df bd0d 0001      	.insn	6, 0x0001bd0d54df
   4382c5b4e:	0000                	.insn	2, 0x0000
   4382c5b50:	58df bd0d 0001      	.insn	6, 0x0001bd0d58df
   4382c5b56:	0000                	.insn	2, 0x0000
   4382c5b58:	5cdf bd0d 0001      	.insn	6, 0x0001bd0d5cdf
   4382c5b5e:	0000                	.insn	2, 0x0000
   4382c5b60:	60df bd0d 0001      	.insn	6, 0x0001bd0d60df
   4382c5b66:	0000                	.insn	2, 0x0000
   4382c5b68:	64df bd0d 0001      	.insn	6, 0x0001bd0d64df
   4382c5b6e:	0000                	.insn	2, 0x0000
   4382c5b70:	68df bd0d 0001      	.insn	6, 0x0001bd0d68df
   4382c5b76:	0000                	.insn	2, 0x0000
   4382c5b78:	6cdf bd0d 0001      	.insn	6, 0x0001bd0d6cdf
   4382c5b7e:	0000                	.insn	2, 0x0000
   4382c5b80:	70df bd0d 0001      	.insn	6, 0x0001bd0d70df
   4382c5b86:	0000                	.insn	2, 0x0000
   4382c5b88:	74df bd0d 0001      	.insn	6, 0x0001bd0d74df
   4382c5b8e:	0000                	.insn	2, 0x0000
   4382c5b90:	78df bd0d 0001      	.insn	6, 0x0001bd0d78df
   4382c5b96:	0000                	.insn	2, 0x0000
   4382c5b98:	7cdf bd0d 0001      	.insn	6, 0x0001bd0d7cdf
   4382c5b9e:	0000                	.insn	2, 0x0000
   4382c5ba0:	80df bd0d 0001      	.insn	6, 0x0001bd0d80df
   4382c5ba6:	0000                	.insn	2, 0x0000
   4382c5ba8:	84df bd0d 0001      	.insn	6, 0x0001bd0d84df
   4382c5bae:	0000                	.insn	2, 0x0000
   4382c5bb0:	88df bd0d 0001      	.insn	6, 0x0001bd0d88df
   4382c5bb6:	0000                	.insn	2, 0x0000
   4382c5bb8:	8cdf bd0d 0001      	.insn	6, 0x0001bd0d8cdf
   4382c5bbe:	0000                	.insn	2, 0x0000
   4382c5bc0:	90df bd0d 0001      	.insn	6, 0x0001bd0d90df
   4382c5bc6:	0000                	.insn	2, 0x0000
   4382c5bc8:	94df bd0d 0001      	.insn	6, 0x0001bd0d94df
   4382c5bce:	0000                	.insn	2, 0x0000
   4382c5bd0:	98df bd0d 0001      	.insn	6, 0x0001bd0d98df
   4382c5bd6:	0000                	.insn	2, 0x0000
   4382c5bd8:	9cdf bd0d 0001      	.insn	6, 0x0001bd0d9cdf
   4382c5bde:	0000                	.insn	2, 0x0000
   4382c5be0:	a0df bd0d 0001      	.insn	6, 0x0001bd0da0df
   4382c5be6:	0000                	.insn	2, 0x0000
   4382c5be8:	a4df bd0d 0001      	.insn	6, 0x0001bd0da4df
   4382c5bee:	0000                	.insn	2, 0x0000
   4382c5bf0:	a8df bd0d 0001      	.insn	6, 0x0001bd0da8df
   4382c5bf6:	0000                	.insn	2, 0x0000
   4382c5bf8:	acdf bd0d 0001      	.insn	6, 0x0001bd0dacdf
   4382c5bfe:	0000                	.insn	2, 0x0000
   4382c5c00:	b0df bd0d 0001      	.insn	6, 0x0001bd0db0df
   4382c5c06:	0000                	.insn	2, 0x0000
   4382c5c08:	b4df bd0d 0001      	.insn	6, 0x0001bd0db4df
   4382c5c0e:	0000                	.insn	2, 0x0000
   4382c5c10:	b8df bd0d 0001      	.insn	6, 0x0001bd0db8df
   4382c5c16:	0000                	.insn	2, 0x0000
   4382c5c18:	bcdf bd0d 0001      	.insn	6, 0x0001bd0dbcdf
   4382c5c1e:	0000                	.insn	2, 0x0000
   4382c5c20:	c0df bd0d 0001      	.insn	6, 0x0001bd0dc0df
   4382c5c26:	0000                	.insn	2, 0x0000
   4382c5c28:	c4df bd0d 0001      	.insn	6, 0x0001bd0dc4df
   4382c5c2e:	0000                	.insn	2, 0x0000
   4382c5c30:	c8df bd0d 0001      	.insn	6, 0x0001bd0dc8df
   4382c5c36:	0000                	.insn	2, 0x0000
   4382c5c38:	ccdf bd0d 0001      	.insn	6, 0x0001bd0dccdf
   4382c5c3e:	0000                	.insn	2, 0x0000
   4382c5c40:	d0df bd0d 0001      	.insn	6, 0x0001bd0dd0df
   4382c5c46:	0000                	.insn	2, 0x0000
   4382c5c48:	d4df bd0d 0001      	.insn	6, 0x0001bd0dd4df
   4382c5c4e:	0000                	.insn	2, 0x0000
   4382c5c50:	d8df bd0d 0001      	.insn	6, 0x0001bd0dd8df
   4382c5c56:	0000                	.insn	2, 0x0000
   4382c5c58:	dcdf bd0d 0001      	.insn	6, 0x0001bd0ddcdf
   4382c5c5e:	0000                	.insn	2, 0x0000
   4382c5c60:	e0df bd0d 0001      	.insn	6, 0x0001bd0de0df
   4382c5c66:	0000                	.insn	2, 0x0000
   4382c5c68:	e4df bd0d 0001      	.insn	6, 0x0001bd0de4df
   4382c5c6e:	0000                	.insn	2, 0x0000
   4382c5c70:	e8df bd0d 0001      	.insn	6, 0x0001bd0de8df
   4382c5c76:	0000                	.insn	2, 0x0000
   4382c5c78:	ecdf bd0d 0001      	.insn	6, 0x0001bd0decdf
   4382c5c7e:	0000                	.insn	2, 0x0000
   4382c5c80:	f0df bd0d 0001      	.insn	6, 0x0001bd0df0df
   4382c5c86:	0000                	.insn	2, 0x0000
   4382c5c88:	f4df bd0d 0001      	.insn	6, 0x0001bd0df4df
   4382c5c8e:	0000                	.insn	2, 0x0000
   4382c5c90:	f8df bd0d 0001      	.insn	6, 0x0001bd0df8df
   4382c5c96:	0000                	.insn	2, 0x0000
   4382c5c98:	fcdf bd0d 0001      	.insn	6, 0x0001bd0dfcdf
	...

Disassembly of section .__pagetable_map_os_0x0000000413419000:

0000000413419000 <__pagetable_map_os_0x0000000413419000>:
	...
   4134190a8:	bd1004cf          	fnmadd.h	f9,f0,f17,f23,rne
   4134190ac:	0001                	.insn	2, 0x0001
   4134190ae:	0000                	.insn	2, 0x0000
   4134190b0:	acc940c7          	fmsub.h	f1,f18,f12,f21,rmm
   4134190b4:	1010                	.insn	2, 0x1010
	...

Disassembly of section .__pagetable_map_os_0x00000e237f7de000:

00000e237f7de000 <__pagetable_map_os_0x00000e237f7de000>:
	...
 e237f7de138:	e401                	.insn	2, 0xe401
 e237f7de13a:	2d20                	.insn	2, 0x2d20
 e237f7de13c:	4a5a                	.insn	2, 0x4a5a
 e237f7de13e:	0003                	.short	0x0003

Disassembly of section .__pagetable_map_os_0x000d2968b4839000:

000d2968b4839000 <__pagetable_map_os_0x000d2968b4839000>:
	...
   d2968b4839ee0:	eae218cf          	fnmadd.d	f17,f4,f14,f29,rtz
   d2968b4839ee4:	0000                	.insn	2, 0x0000
   d2968b4839ee6:	0000                	.insn	2, 0x0000
   d2968b4839ee8:	eae21ccf          	fnmadd.d	f25,f4,f14,f29,rtz
   d2968b4839eec:	0000                	.insn	2, 0x0000
	...

Disassembly of section .__pagetable_map_os_0x00001ebb4998d000:

00001ebb4998d000 <__pagetable_map_os_0x00001ebb4998d000>:
    1ebb4998d000:	6801                	.insn	2, 0x6801
    1ebb4998d002:	7e14                	.insn	2, 0x7e14
    1ebb4998d004:	0f5c                	.insn	2, 0x0f5c
    1ebb4998d006:	0000                	.insn	2, 0x0000
    1ebb4998d008:	c801                	.insn	2, 0xc801
    1ebb4998d00a:	064a                	.insn	2, 0x064a
    1ebb4998d00c:	0001                	.insn	2, 0x0001
    1ebb4998d00e:	0000                	.insn	2, 0x0000
    1ebb4998d010:	b801                	.insn	2, 0xb801
    1ebb4998d012:	026a                	.insn	2, 0x026a
    1ebb4998d014:	001e                	.insn	2, 0x001e
	...
    1ebb4998d02e:	0000                	.insn	2, 0x0000
    1ebb4998d030:	9c01                	.insn	2, 0x9c01
    1ebb4998d032:	1f68b3eb          	.insn	4, 0x1f68b3eb
    1ebb4998d036:	0000                	.insn	2, 0x0000
    1ebb4998d038:	3401                	.insn	2, 0x3401
    1ebb4998d03a:	0d7a                	.insn	2, 0x0d7a
    1ebb4998d03c:	0001                	.insn	2, 0x0001
	...
    1ebb4998d05e:	0000                	.insn	2, 0x0000
    1ebb4998d060:	9801                	.insn	2, 0x9801
    1ebb4998d062:	2f89                	.insn	2, 0x2f89
    1ebb4998d064:	0101                	.insn	2, 0x0101
	...
    1ebb4998d09e:	0000                	.insn	2, 0x0000
    1ebb4998d0a0:	1c01                	.insn	2, 0x1c01
    1ebb4998d0a2:	75129e3b          	.insn	4, 0x75129e3b
	...
    1ebb4998d0b6:	0000                	.insn	2, 0x0000
    1ebb4998d0b8:	f001                	.insn	2, 0xf001
    1ebb4998d0ba:	26ae                	.insn	2, 0x26ae
    1ebb4998d0bc:	000012a7          	fsh	f0,5(x0) # 5 <EXPECT_STI>
	...
    1ebb4998d160:	bc01                	.insn	2, 0xbc01
    1ebb4998d162:	001e4cd7          	vadd.vx	v25,v1,x28,v0.t
	...
    1ebb4998d176:	0000                	.insn	2, 0x0000
    1ebb4998d178:	0001                	.insn	2, 0x0001
    1ebb4998d17a:	c30a                	.insn	2, 0xc30a
    1ebb4998d17c:	000001b3          	add	x3,x0,x0
	...
    1ebb4998d1f0:	0c01                	.insn	2, 0x0c01
    1ebb4998d1f2:	f3c8                	.insn	2, 0xf3c8
    1ebb4998d1f4:	7466                	.insn	2, 0x7466
	...
    1ebb4998d41e:	0000                	.insn	2, 0x0000
    1ebb4998d420:	8001                	.insn	2, 0x8001
    1ebb4998d422:	000c2d87          	flw	f27,0(x24)
	...
    1ebb4998d81e:	0000                	.insn	2, 0x0000
    1ebb4998d820:	3001                	.insn	2, 0x3001
    1ebb4998d822:	d8d0                	.insn	2, 0xd8d0
    1ebb4998d824:	07c6                	.insn	2, 0x07c6
	...

Disassembly of section .__pagetable_map_os_0x00000004192b2000:

00000004192b2000 <__pagetable_map_os_0x00000004192b2000>:
	...
   4192b27d8:	c006d0c7          	fmsub.s	f1,f13,f0,f24,unknown
   4192b27dc:	080c                	.insn	2, 0x080c
	...
   4192b2ade:	0000                	.insn	2, 0x0000
   4192b2ae0:	211b08c7          	fmsub.s	f17,f22,f17,f4,rne
   4192b2ae4:	9e34                	.insn	2, 0x9e34
   4192b2ae6:	0001                	.insn	2, 0x0001
	...
   4192b2bd0:	54e490cf          	fnmadd.h	f1,f9,f14,f10,rtz
   4192b2bd4:	0004                	.insn	2, 0x0004
   4192b2bd6:	0000                	.insn	2, 0x0000
   4192b2bd8:	54e494cf          	fnmadd.h	f9,f9,f14,f10,rtz
   4192b2bdc:	0004                	.insn	2, 0x0004
	...

Disassembly of section .__pagetable_map_os_0x00003d71f851a000:

00003d71f851a000 <__pagetable_map_os_0x00003d71f851a000>:
	...
    3d71f851a298:	f9a828c7          	fmsub.s	f17,f16,f26,f31,rdn
    3d71f851a29c:	00000017          	auipc	x0,0x0
	...
    3d71f851a448:	444c1ccf          	fnmadd.h	f25,f24,f4,f8,rtz
    3d71f851a44c:	036e                	.insn	2, 0x036e
	...
    3d71f851a4e6:	0000                	.insn	2, 0x0000
    3d71f851a4e8:	31a890cf          	fnmadd.s	f1,f17,f26,f6,rtz
    3d71f851a4ec:	0004                	.insn	2, 0x0004
	...

Disassembly of section .__pagetable_map_os_0x00000404be266000:

00000404be266000 <__pagetable_map_os_0x00000404be266000>:
	...
 404be266170:	7c1164cf          	fnmadd.h	f9,f2,f1,f15,unknown
 404be266174:	dca4                	.insn	2, 0xdca4
	...

Disassembly of section .__pagetable_map_os_0x00000030b61e0000:

00000030b61e0000 <__pagetable_map_os_0x00000030b61e0000>:
  30b61e0000:	042000cf          	fnmadd.h	f1,f0,f2,f0,rne
  30b61e0004:	0000                	.insn	2, 0x0000
  30b61e0006:	0000                	.insn	2, 0x0000
  30b61e0008:	042004cf          	fnmadd.h	f9,f0,f2,f0,rne
  30b61e000c:	0000                	.insn	2, 0x0000
  30b61e000e:	0000                	.insn	2, 0x0000
  30b61e0010:	042008cf          	fnmadd.h	f17,f0,f2,f0,rne
  30b61e0014:	0000                	.insn	2, 0x0000
  30b61e0016:	0000                	.insn	2, 0x0000
  30b61e0018:	04200ccf          	fnmadd.h	f25,f0,f2,f0,rne
  30b61e001c:	0000                	.insn	2, 0x0000
  30b61e001e:	0000                	.insn	2, 0x0000
  30b61e0020:	042010cf          	fnmadd.h	f1,f0,f2,f0,rtz
  30b61e0024:	0000                	.insn	2, 0x0000
  30b61e0026:	0000                	.insn	2, 0x0000
  30b61e0028:	042014cf          	fnmadd.h	f9,f0,f2,f0,rtz
  30b61e002c:	0000                	.insn	2, 0x0000
  30b61e002e:	0000                	.insn	2, 0x0000
  30b61e0030:	042018cf          	fnmadd.h	f17,f0,f2,f0,rtz
  30b61e0034:	0000                	.insn	2, 0x0000
  30b61e0036:	0000                	.insn	2, 0x0000
  30b61e0038:	04201ccf          	fnmadd.h	f25,f0,f2,f0,rtz
  30b61e003c:	0000                	.insn	2, 0x0000
  30b61e003e:	0000                	.insn	2, 0x0000
  30b61e0040:	042020cf          	fnmadd.h	f1,f0,f2,f0,rdn
  30b61e0044:	0000                	.insn	2, 0x0000
  30b61e0046:	0000                	.insn	2, 0x0000
  30b61e0048:	042024cf          	fnmadd.h	f9,f0,f2,f0,rdn
  30b61e004c:	0000                	.insn	2, 0x0000
  30b61e004e:	0000                	.insn	2, 0x0000
  30b61e0050:	042028cf          	fnmadd.h	f17,f0,f2,f0,rdn
  30b61e0054:	0000                	.insn	2, 0x0000
  30b61e0056:	0000                	.insn	2, 0x0000
  30b61e0058:	04202ccf          	fnmadd.h	f25,f0,f2,f0,rdn
  30b61e005c:	0000                	.insn	2, 0x0000
  30b61e005e:	0000                	.insn	2, 0x0000
  30b61e0060:	042030cf          	fnmadd.h	f1,f0,f2,f0,rup
  30b61e0064:	0000                	.insn	2, 0x0000
  30b61e0066:	0000                	.insn	2, 0x0000
  30b61e0068:	042034cf          	fnmadd.h	f9,f0,f2,f0,rup
  30b61e006c:	0000                	.insn	2, 0x0000
  30b61e006e:	0000                	.insn	2, 0x0000
  30b61e0070:	042038cf          	fnmadd.h	f17,f0,f2,f0,rup
  30b61e0074:	0000                	.insn	2, 0x0000
  30b61e0076:	0000                	.insn	2, 0x0000
  30b61e0078:	04203ccf          	fnmadd.h	f25,f0,f2,f0,rup
  30b61e007c:	0000                	.insn	2, 0x0000
  30b61e007e:	0000                	.insn	2, 0x0000
  30b61e0080:	042040cf          	fnmadd.h	f1,f0,f2,f0,rmm
  30b61e0084:	0000                	.insn	2, 0x0000
  30b61e0086:	0000                	.insn	2, 0x0000
  30b61e0088:	042044cf          	fnmadd.h	f9,f0,f2,f0,rmm
  30b61e008c:	0000                	.insn	2, 0x0000
  30b61e008e:	0000                	.insn	2, 0x0000
  30b61e0090:	042048cf          	fnmadd.h	f17,f0,f2,f0,rmm
  30b61e0094:	0000                	.insn	2, 0x0000
  30b61e0096:	0000                	.insn	2, 0x0000
  30b61e0098:	04204ccf          	fnmadd.h	f25,f0,f2,f0,rmm
  30b61e009c:	0000                	.insn	2, 0x0000
  30b61e009e:	0000                	.insn	2, 0x0000
  30b61e00a0:	042050cf          	fnmadd.h	f1,f0,f2,f0,unknown
  30b61e00a4:	0000                	.insn	2, 0x0000
  30b61e00a6:	0000                	.insn	2, 0x0000
  30b61e00a8:	042054cf          	fnmadd.h	f9,f0,f2,f0,unknown
  30b61e00ac:	0000                	.insn	2, 0x0000
  30b61e00ae:	0000                	.insn	2, 0x0000
  30b61e00b0:	042058cf          	fnmadd.h	f17,f0,f2,f0,unknown
  30b61e00b4:	0000                	.insn	2, 0x0000
  30b61e00b6:	0000                	.insn	2, 0x0000
  30b61e00b8:	04205ccf          	fnmadd.h	f25,f0,f2,f0,unknown
  30b61e00bc:	0000                	.insn	2, 0x0000
  30b61e00be:	0000                	.insn	2, 0x0000
  30b61e00c0:	042060cf          	fnmadd.h	f1,f0,f2,f0,unknown
  30b61e00c4:	0000                	.insn	2, 0x0000
  30b61e00c6:	0000                	.insn	2, 0x0000
  30b61e00c8:	042064cf          	fnmadd.h	f9,f0,f2,f0,unknown
  30b61e00cc:	0000                	.insn	2, 0x0000
  30b61e00ce:	0000                	.insn	2, 0x0000
  30b61e00d0:	042068cf          	fnmadd.h	f17,f0,f2,f0,unknown
  30b61e00d4:	0000                	.insn	2, 0x0000
  30b61e00d6:	0000                	.insn	2, 0x0000
  30b61e00d8:	04206ccf          	fnmadd.h	f25,f0,f2,f0,unknown
  30b61e00dc:	0000                	.insn	2, 0x0000
  30b61e00de:	0000                	.insn	2, 0x0000
  30b61e00e0:	042070cf          	fnmadd.h	f1,f0,f2,f0
  30b61e00e4:	0000                	.insn	2, 0x0000
  30b61e00e6:	0000                	.insn	2, 0x0000
  30b61e00e8:	042074cf          	fnmadd.h	f9,f0,f2,f0
  30b61e00ec:	0000                	.insn	2, 0x0000
  30b61e00ee:	0000                	.insn	2, 0x0000
  30b61e00f0:	042078cf          	fnmadd.h	f17,f0,f2,f0
  30b61e00f4:	0000                	.insn	2, 0x0000
  30b61e00f6:	0000                	.insn	2, 0x0000
  30b61e00f8:	04207ccf          	fnmadd.h	f25,f0,f2,f0
  30b61e00fc:	0000                	.insn	2, 0x0000
  30b61e00fe:	0000                	.insn	2, 0x0000
  30b61e0100:	042080cf          	fnmadd.h	f1,f1,f2,f0,rne
  30b61e0104:	0000                	.insn	2, 0x0000
  30b61e0106:	0000                	.insn	2, 0x0000
  30b61e0108:	042084cf          	fnmadd.h	f9,f1,f2,f0,rne
  30b61e010c:	0000                	.insn	2, 0x0000
  30b61e010e:	0000                	.insn	2, 0x0000
  30b61e0110:	042088cf          	fnmadd.h	f17,f1,f2,f0,rne
  30b61e0114:	0000                	.insn	2, 0x0000
  30b61e0116:	0000                	.insn	2, 0x0000
  30b61e0118:	04208ccf          	fnmadd.h	f25,f1,f2,f0,rne
  30b61e011c:	0000                	.insn	2, 0x0000
  30b61e011e:	0000                	.insn	2, 0x0000
  30b61e0120:	042090cf          	fnmadd.h	f1,f1,f2,f0,rtz
  30b61e0124:	0000                	.insn	2, 0x0000
  30b61e0126:	0000                	.insn	2, 0x0000
  30b61e0128:	042094cf          	fnmadd.h	f9,f1,f2,f0,rtz
  30b61e012c:	0000                	.insn	2, 0x0000
  30b61e012e:	0000                	.insn	2, 0x0000
  30b61e0130:	042098cf          	fnmadd.h	f17,f1,f2,f0,rtz
  30b61e0134:	0000                	.insn	2, 0x0000
  30b61e0136:	0000                	.insn	2, 0x0000
  30b61e0138:	04209ccf          	fnmadd.h	f25,f1,f2,f0,rtz
  30b61e013c:	0000                	.insn	2, 0x0000
  30b61e013e:	0000                	.insn	2, 0x0000
  30b61e0140:	0420a0cf          	fnmadd.h	f1,f1,f2,f0,rdn
  30b61e0144:	0000                	.insn	2, 0x0000
  30b61e0146:	0000                	.insn	2, 0x0000
  30b61e0148:	0420a4cf          	fnmadd.h	f9,f1,f2,f0,rdn
  30b61e014c:	0000                	.insn	2, 0x0000
  30b61e014e:	0000                	.insn	2, 0x0000
  30b61e0150:	0420a8cf          	fnmadd.h	f17,f1,f2,f0,rdn
  30b61e0154:	0000                	.insn	2, 0x0000
  30b61e0156:	0000                	.insn	2, 0x0000
  30b61e0158:	0420accf          	fnmadd.h	f25,f1,f2,f0,rdn
  30b61e015c:	0000                	.insn	2, 0x0000
  30b61e015e:	0000                	.insn	2, 0x0000
  30b61e0160:	0420b0cf          	fnmadd.h	f1,f1,f2,f0,rup
  30b61e0164:	0000                	.insn	2, 0x0000
  30b61e0166:	0000                	.insn	2, 0x0000
  30b61e0168:	0420b4cf          	fnmadd.h	f9,f1,f2,f0,rup
  30b61e016c:	0000                	.insn	2, 0x0000
  30b61e016e:	0000                	.insn	2, 0x0000
  30b61e0170:	0420b8cf          	fnmadd.h	f17,f1,f2,f0,rup
  30b61e0174:	0000                	.insn	2, 0x0000
  30b61e0176:	0000                	.insn	2, 0x0000
  30b61e0178:	0420bccf          	fnmadd.h	f25,f1,f2,f0,rup
  30b61e017c:	0000                	.insn	2, 0x0000
  30b61e017e:	0000                	.insn	2, 0x0000
  30b61e0180:	0420c0cf          	fnmadd.h	f1,f1,f2,f0,rmm
  30b61e0184:	0000                	.insn	2, 0x0000
  30b61e0186:	0000                	.insn	2, 0x0000
  30b61e0188:	0420c4cf          	fnmadd.h	f9,f1,f2,f0,rmm
  30b61e018c:	0000                	.insn	2, 0x0000
  30b61e018e:	0000                	.insn	2, 0x0000
  30b61e0190:	0420c8cf          	fnmadd.h	f17,f1,f2,f0,rmm
  30b61e0194:	0000                	.insn	2, 0x0000
  30b61e0196:	0000                	.insn	2, 0x0000
  30b61e0198:	0420cccf          	fnmadd.h	f25,f1,f2,f0,rmm
  30b61e019c:	0000                	.insn	2, 0x0000
  30b61e019e:	0000                	.insn	2, 0x0000
  30b61e01a0:	0420d0cf          	fnmadd.h	f1,f1,f2,f0,unknown
  30b61e01a4:	0000                	.insn	2, 0x0000
  30b61e01a6:	0000                	.insn	2, 0x0000
  30b61e01a8:	0420d4cf          	fnmadd.h	f9,f1,f2,f0,unknown
  30b61e01ac:	0000                	.insn	2, 0x0000
  30b61e01ae:	0000                	.insn	2, 0x0000
  30b61e01b0:	0420d8cf          	fnmadd.h	f17,f1,f2,f0,unknown
  30b61e01b4:	0000                	.insn	2, 0x0000
  30b61e01b6:	0000                	.insn	2, 0x0000
  30b61e01b8:	0420dccf          	fnmadd.h	f25,f1,f2,f0,unknown
  30b61e01bc:	0000                	.insn	2, 0x0000
  30b61e01be:	0000                	.insn	2, 0x0000
  30b61e01c0:	0420e0cf          	fnmadd.h	f1,f1,f2,f0,unknown
  30b61e01c4:	0000                	.insn	2, 0x0000
  30b61e01c6:	0000                	.insn	2, 0x0000
  30b61e01c8:	0420e4cf          	fnmadd.h	f9,f1,f2,f0,unknown
  30b61e01cc:	0000                	.insn	2, 0x0000
  30b61e01ce:	0000                	.insn	2, 0x0000
  30b61e01d0:	0420e8cf          	fnmadd.h	f17,f1,f2,f0,unknown
  30b61e01d4:	0000                	.insn	2, 0x0000
  30b61e01d6:	0000                	.insn	2, 0x0000
  30b61e01d8:	0420eccf          	fnmadd.h	f25,f1,f2,f0,unknown
  30b61e01dc:	0000                	.insn	2, 0x0000
  30b61e01de:	0000                	.insn	2, 0x0000
  30b61e01e0:	0420f0cf          	fnmadd.h	f1,f1,f2,f0
  30b61e01e4:	0000                	.insn	2, 0x0000
  30b61e01e6:	0000                	.insn	2, 0x0000
  30b61e01e8:	0420f4cf          	fnmadd.h	f9,f1,f2,f0
  30b61e01ec:	0000                	.insn	2, 0x0000
  30b61e01ee:	0000                	.insn	2, 0x0000
  30b61e01f0:	0420f8cf          	fnmadd.h	f17,f1,f2,f0
  30b61e01f4:	0000                	.insn	2, 0x0000
  30b61e01f6:	0000                	.insn	2, 0x0000
  30b61e01f8:	0420fccf          	fnmadd.h	f25,f1,f2,f0
  30b61e01fc:	0000                	.insn	2, 0x0000
  30b61e01fe:	0000                	.insn	2, 0x0000
  30b61e0200:	042100cf          	fnmadd.h	f1,f2,f2,f0,rne
  30b61e0204:	0000                	.insn	2, 0x0000
  30b61e0206:	0000                	.insn	2, 0x0000
  30b61e0208:	042104cf          	fnmadd.h	f9,f2,f2,f0,rne
  30b61e020c:	0000                	.insn	2, 0x0000
  30b61e020e:	0000                	.insn	2, 0x0000
  30b61e0210:	042108cf          	fnmadd.h	f17,f2,f2,f0,rne
  30b61e0214:	0000                	.insn	2, 0x0000
  30b61e0216:	0000                	.insn	2, 0x0000
  30b61e0218:	04210ccf          	fnmadd.h	f25,f2,f2,f0,rne
  30b61e021c:	0000                	.insn	2, 0x0000
  30b61e021e:	0000                	.insn	2, 0x0000
  30b61e0220:	042110cf          	fnmadd.h	f1,f2,f2,f0,rtz
  30b61e0224:	0000                	.insn	2, 0x0000
  30b61e0226:	0000                	.insn	2, 0x0000
  30b61e0228:	042114cf          	fnmadd.h	f9,f2,f2,f0,rtz
  30b61e022c:	0000                	.insn	2, 0x0000
  30b61e022e:	0000                	.insn	2, 0x0000
  30b61e0230:	042118cf          	fnmadd.h	f17,f2,f2,f0,rtz
  30b61e0234:	0000                	.insn	2, 0x0000
  30b61e0236:	0000                	.insn	2, 0x0000
  30b61e0238:	04211ccf          	fnmadd.h	f25,f2,f2,f0,rtz
  30b61e023c:	0000                	.insn	2, 0x0000
  30b61e023e:	0000                	.insn	2, 0x0000
  30b61e0240:	042120cf          	fnmadd.h	f1,f2,f2,f0,rdn
  30b61e0244:	0000                	.insn	2, 0x0000
  30b61e0246:	0000                	.insn	2, 0x0000
  30b61e0248:	042124cf          	fnmadd.h	f9,f2,f2,f0,rdn
  30b61e024c:	0000                	.insn	2, 0x0000
  30b61e024e:	0000                	.insn	2, 0x0000
  30b61e0250:	042128cf          	fnmadd.h	f17,f2,f2,f0,rdn
  30b61e0254:	0000                	.insn	2, 0x0000
  30b61e0256:	0000                	.insn	2, 0x0000
  30b61e0258:	04212ccf          	fnmadd.h	f25,f2,f2,f0,rdn
  30b61e025c:	0000                	.insn	2, 0x0000
  30b61e025e:	0000                	.insn	2, 0x0000
  30b61e0260:	042130cf          	fnmadd.h	f1,f2,f2,f0,rup
  30b61e0264:	0000                	.insn	2, 0x0000
  30b61e0266:	0000                	.insn	2, 0x0000
  30b61e0268:	042134cf          	fnmadd.h	f9,f2,f2,f0,rup
  30b61e026c:	0000                	.insn	2, 0x0000
  30b61e026e:	0000                	.insn	2, 0x0000
  30b61e0270:	042138cf          	fnmadd.h	f17,f2,f2,f0,rup
  30b61e0274:	0000                	.insn	2, 0x0000
  30b61e0276:	0000                	.insn	2, 0x0000
  30b61e0278:	04213ccf          	fnmadd.h	f25,f2,f2,f0,rup
  30b61e027c:	0000                	.insn	2, 0x0000
  30b61e027e:	0000                	.insn	2, 0x0000
  30b61e0280:	042140cf          	fnmadd.h	f1,f2,f2,f0,rmm
  30b61e0284:	0000                	.insn	2, 0x0000
  30b61e0286:	0000                	.insn	2, 0x0000
  30b61e0288:	042144cf          	fnmadd.h	f9,f2,f2,f0,rmm
  30b61e028c:	0000                	.insn	2, 0x0000
  30b61e028e:	0000                	.insn	2, 0x0000
  30b61e0290:	042148cf          	fnmadd.h	f17,f2,f2,f0,rmm
  30b61e0294:	0000                	.insn	2, 0x0000
  30b61e0296:	0000                	.insn	2, 0x0000
  30b61e0298:	04214ccf          	fnmadd.h	f25,f2,f2,f0,rmm
  30b61e029c:	0000                	.insn	2, 0x0000
  30b61e029e:	0000                	.insn	2, 0x0000
  30b61e02a0:	042150cf          	fnmadd.h	f1,f2,f2,f0,unknown
  30b61e02a4:	0000                	.insn	2, 0x0000
  30b61e02a6:	0000                	.insn	2, 0x0000
  30b61e02a8:	042154cf          	fnmadd.h	f9,f2,f2,f0,unknown
  30b61e02ac:	0000                	.insn	2, 0x0000
  30b61e02ae:	0000                	.insn	2, 0x0000
  30b61e02b0:	042158cf          	fnmadd.h	f17,f2,f2,f0,unknown
  30b61e02b4:	0000                	.insn	2, 0x0000
  30b61e02b6:	0000                	.insn	2, 0x0000
  30b61e02b8:	04215ccf          	fnmadd.h	f25,f2,f2,f0,unknown
  30b61e02bc:	0000                	.insn	2, 0x0000
  30b61e02be:	0000                	.insn	2, 0x0000
  30b61e02c0:	042160cf          	fnmadd.h	f1,f2,f2,f0,unknown
  30b61e02c4:	0000                	.insn	2, 0x0000
  30b61e02c6:	0000                	.insn	2, 0x0000
  30b61e02c8:	042164cf          	fnmadd.h	f9,f2,f2,f0,unknown
  30b61e02cc:	0000                	.insn	2, 0x0000
  30b61e02ce:	0000                	.insn	2, 0x0000
  30b61e02d0:	042168cf          	fnmadd.h	f17,f2,f2,f0,unknown
  30b61e02d4:	0000                	.insn	2, 0x0000
  30b61e02d6:	0000                	.insn	2, 0x0000
  30b61e02d8:	04216ccf          	fnmadd.h	f25,f2,f2,f0,unknown
  30b61e02dc:	0000                	.insn	2, 0x0000
  30b61e02de:	0000                	.insn	2, 0x0000
  30b61e02e0:	042170cf          	fnmadd.h	f1,f2,f2,f0
  30b61e02e4:	0000                	.insn	2, 0x0000
  30b61e02e6:	0000                	.insn	2, 0x0000
  30b61e02e8:	042174cf          	fnmadd.h	f9,f2,f2,f0
  30b61e02ec:	0000                	.insn	2, 0x0000
  30b61e02ee:	0000                	.insn	2, 0x0000
  30b61e02f0:	042178cf          	fnmadd.h	f17,f2,f2,f0
  30b61e02f4:	0000                	.insn	2, 0x0000
  30b61e02f6:	0000                	.insn	2, 0x0000
  30b61e02f8:	04217ccf          	fnmadd.h	f25,f2,f2,f0
  30b61e02fc:	0000                	.insn	2, 0x0000
  30b61e02fe:	0000                	.insn	2, 0x0000
  30b61e0300:	042180cf          	fnmadd.h	f1,f3,f2,f0,rne
  30b61e0304:	0000                	.insn	2, 0x0000
  30b61e0306:	0000                	.insn	2, 0x0000
  30b61e0308:	042184cf          	fnmadd.h	f9,f3,f2,f0,rne
  30b61e030c:	0000                	.insn	2, 0x0000
  30b61e030e:	0000                	.insn	2, 0x0000
  30b61e0310:	042188cf          	fnmadd.h	f17,f3,f2,f0,rne
  30b61e0314:	0000                	.insn	2, 0x0000
  30b61e0316:	0000                	.insn	2, 0x0000
  30b61e0318:	04218ccf          	fnmadd.h	f25,f3,f2,f0,rne
  30b61e031c:	0000                	.insn	2, 0x0000
  30b61e031e:	0000                	.insn	2, 0x0000
  30b61e0320:	042190cf          	fnmadd.h	f1,f3,f2,f0,rtz
  30b61e0324:	0000                	.insn	2, 0x0000
  30b61e0326:	0000                	.insn	2, 0x0000
  30b61e0328:	042194cf          	fnmadd.h	f9,f3,f2,f0,rtz
  30b61e032c:	0000                	.insn	2, 0x0000
  30b61e032e:	0000                	.insn	2, 0x0000
  30b61e0330:	042198cf          	fnmadd.h	f17,f3,f2,f0,rtz
  30b61e0334:	0000                	.insn	2, 0x0000
  30b61e0336:	0000                	.insn	2, 0x0000
  30b61e0338:	04219ccf          	fnmadd.h	f25,f3,f2,f0,rtz
  30b61e033c:	0000                	.insn	2, 0x0000
  30b61e033e:	0000                	.insn	2, 0x0000
  30b61e0340:	0421a0cf          	fnmadd.h	f1,f3,f2,f0,rdn
  30b61e0344:	0000                	.insn	2, 0x0000
  30b61e0346:	0000                	.insn	2, 0x0000
  30b61e0348:	0421a4cf          	fnmadd.h	f9,f3,f2,f0,rdn
  30b61e034c:	0000                	.insn	2, 0x0000
  30b61e034e:	0000                	.insn	2, 0x0000
  30b61e0350:	0421a8cf          	fnmadd.h	f17,f3,f2,f0,rdn
  30b61e0354:	0000                	.insn	2, 0x0000
  30b61e0356:	0000                	.insn	2, 0x0000
  30b61e0358:	0421accf          	fnmadd.h	f25,f3,f2,f0,rdn
  30b61e035c:	0000                	.insn	2, 0x0000
  30b61e035e:	0000                	.insn	2, 0x0000
  30b61e0360:	0421b0cf          	fnmadd.h	f1,f3,f2,f0,rup
  30b61e0364:	0000                	.insn	2, 0x0000
  30b61e0366:	0000                	.insn	2, 0x0000
  30b61e0368:	0421b4cf          	fnmadd.h	f9,f3,f2,f0,rup
  30b61e036c:	0000                	.insn	2, 0x0000
  30b61e036e:	0000                	.insn	2, 0x0000
  30b61e0370:	0421b8cf          	fnmadd.h	f17,f3,f2,f0,rup
  30b61e0374:	0000                	.insn	2, 0x0000
  30b61e0376:	0000                	.insn	2, 0x0000
  30b61e0378:	0421bccf          	fnmadd.h	f25,f3,f2,f0,rup
  30b61e037c:	0000                	.insn	2, 0x0000
  30b61e037e:	0000                	.insn	2, 0x0000
  30b61e0380:	0421c0cf          	fnmadd.h	f1,f3,f2,f0,rmm
  30b61e0384:	0000                	.insn	2, 0x0000
  30b61e0386:	0000                	.insn	2, 0x0000
  30b61e0388:	0421c4cf          	fnmadd.h	f9,f3,f2,f0,rmm
  30b61e038c:	0000                	.insn	2, 0x0000
  30b61e038e:	0000                	.insn	2, 0x0000
  30b61e0390:	0421c8cf          	fnmadd.h	f17,f3,f2,f0,rmm
  30b61e0394:	0000                	.insn	2, 0x0000
  30b61e0396:	0000                	.insn	2, 0x0000
  30b61e0398:	0421cccf          	fnmadd.h	f25,f3,f2,f0,rmm
  30b61e039c:	0000                	.insn	2, 0x0000
  30b61e039e:	0000                	.insn	2, 0x0000
  30b61e03a0:	0421d0cf          	fnmadd.h	f1,f3,f2,f0,unknown
  30b61e03a4:	0000                	.insn	2, 0x0000
  30b61e03a6:	0000                	.insn	2, 0x0000
  30b61e03a8:	0421d4cf          	fnmadd.h	f9,f3,f2,f0,unknown
  30b61e03ac:	0000                	.insn	2, 0x0000
  30b61e03ae:	0000                	.insn	2, 0x0000
  30b61e03b0:	0421d8cf          	fnmadd.h	f17,f3,f2,f0,unknown
  30b61e03b4:	0000                	.insn	2, 0x0000
  30b61e03b6:	0000                	.insn	2, 0x0000
  30b61e03b8:	0421dccf          	fnmadd.h	f25,f3,f2,f0,unknown
  30b61e03bc:	0000                	.insn	2, 0x0000
  30b61e03be:	0000                	.insn	2, 0x0000
  30b61e03c0:	0421e0cf          	fnmadd.h	f1,f3,f2,f0,unknown
  30b61e03c4:	0000                	.insn	2, 0x0000
  30b61e03c6:	0000                	.insn	2, 0x0000
  30b61e03c8:	0421e4cf          	fnmadd.h	f9,f3,f2,f0,unknown
  30b61e03cc:	0000                	.insn	2, 0x0000
  30b61e03ce:	0000                	.insn	2, 0x0000
  30b61e03d0:	0421e8cf          	fnmadd.h	f17,f3,f2,f0,unknown
  30b61e03d4:	0000                	.insn	2, 0x0000
  30b61e03d6:	0000                	.insn	2, 0x0000
  30b61e03d8:	0421eccf          	fnmadd.h	f25,f3,f2,f0,unknown
  30b61e03dc:	0000                	.insn	2, 0x0000
  30b61e03de:	0000                	.insn	2, 0x0000
  30b61e03e0:	0421f0cf          	fnmadd.h	f1,f3,f2,f0
  30b61e03e4:	0000                	.insn	2, 0x0000
  30b61e03e6:	0000                	.insn	2, 0x0000
  30b61e03e8:	0421f4cf          	fnmadd.h	f9,f3,f2,f0
  30b61e03ec:	0000                	.insn	2, 0x0000
  30b61e03ee:	0000                	.insn	2, 0x0000
  30b61e03f0:	0421f8cf          	fnmadd.h	f17,f3,f2,f0
  30b61e03f4:	0000                	.insn	2, 0x0000
  30b61e03f6:	0000                	.insn	2, 0x0000
  30b61e03f8:	0421fccf          	fnmadd.h	f25,f3,f2,f0
  30b61e03fc:	0000                	.insn	2, 0x0000
  30b61e03fe:	0000                	.insn	2, 0x0000
  30b61e0400:	042200cf          	fnmadd.h	f1,f4,f2,f0,rne
  30b61e0404:	0000                	.insn	2, 0x0000
  30b61e0406:	0000                	.insn	2, 0x0000
  30b61e0408:	042204cf          	fnmadd.h	f9,f4,f2,f0,rne
  30b61e040c:	0000                	.insn	2, 0x0000
  30b61e040e:	0000                	.insn	2, 0x0000
  30b61e0410:	042208cf          	fnmadd.h	f17,f4,f2,f0,rne
  30b61e0414:	0000                	.insn	2, 0x0000
  30b61e0416:	0000                	.insn	2, 0x0000
  30b61e0418:	04220ccf          	fnmadd.h	f25,f4,f2,f0,rne
  30b61e041c:	0000                	.insn	2, 0x0000
  30b61e041e:	0000                	.insn	2, 0x0000
  30b61e0420:	042210cf          	fnmadd.h	f1,f4,f2,f0,rtz
  30b61e0424:	0000                	.insn	2, 0x0000
  30b61e0426:	0000                	.insn	2, 0x0000
  30b61e0428:	042214cf          	fnmadd.h	f9,f4,f2,f0,rtz
  30b61e042c:	0000                	.insn	2, 0x0000
  30b61e042e:	0000                	.insn	2, 0x0000
  30b61e0430:	042218cf          	fnmadd.h	f17,f4,f2,f0,rtz
  30b61e0434:	0000                	.insn	2, 0x0000
  30b61e0436:	0000                	.insn	2, 0x0000
  30b61e0438:	04221ccf          	fnmadd.h	f25,f4,f2,f0,rtz
  30b61e043c:	0000                	.insn	2, 0x0000
  30b61e043e:	0000                	.insn	2, 0x0000
  30b61e0440:	042220cf          	fnmadd.h	f1,f4,f2,f0,rdn
  30b61e0444:	0000                	.insn	2, 0x0000
  30b61e0446:	0000                	.insn	2, 0x0000
  30b61e0448:	042224cf          	fnmadd.h	f9,f4,f2,f0,rdn
  30b61e044c:	0000                	.insn	2, 0x0000
  30b61e044e:	0000                	.insn	2, 0x0000
  30b61e0450:	042228cf          	fnmadd.h	f17,f4,f2,f0,rdn
  30b61e0454:	0000                	.insn	2, 0x0000
  30b61e0456:	0000                	.insn	2, 0x0000
  30b61e0458:	04222ccf          	fnmadd.h	f25,f4,f2,f0,rdn
  30b61e045c:	0000                	.insn	2, 0x0000
  30b61e045e:	0000                	.insn	2, 0x0000
  30b61e0460:	042230cf          	fnmadd.h	f1,f4,f2,f0,rup
  30b61e0464:	0000                	.insn	2, 0x0000
  30b61e0466:	0000                	.insn	2, 0x0000
  30b61e0468:	042234cf          	fnmadd.h	f9,f4,f2,f0,rup
  30b61e046c:	0000                	.insn	2, 0x0000
  30b61e046e:	0000                	.insn	2, 0x0000
  30b61e0470:	042238cf          	fnmadd.h	f17,f4,f2,f0,rup
  30b61e0474:	0000                	.insn	2, 0x0000
  30b61e0476:	0000                	.insn	2, 0x0000
  30b61e0478:	04223ccf          	fnmadd.h	f25,f4,f2,f0,rup
  30b61e047c:	0000                	.insn	2, 0x0000
  30b61e047e:	0000                	.insn	2, 0x0000
  30b61e0480:	042240cf          	fnmadd.h	f1,f4,f2,f0,rmm
  30b61e0484:	0000                	.insn	2, 0x0000
  30b61e0486:	0000                	.insn	2, 0x0000
  30b61e0488:	042244cf          	fnmadd.h	f9,f4,f2,f0,rmm
  30b61e048c:	0000                	.insn	2, 0x0000
  30b61e048e:	0000                	.insn	2, 0x0000
  30b61e0490:	042248cf          	fnmadd.h	f17,f4,f2,f0,rmm
  30b61e0494:	0000                	.insn	2, 0x0000
  30b61e0496:	0000                	.insn	2, 0x0000
  30b61e0498:	04224ccf          	fnmadd.h	f25,f4,f2,f0,rmm
  30b61e049c:	0000                	.insn	2, 0x0000
  30b61e049e:	0000                	.insn	2, 0x0000
  30b61e04a0:	042250cf          	fnmadd.h	f1,f4,f2,f0,unknown
  30b61e04a4:	0000                	.insn	2, 0x0000
  30b61e04a6:	0000                	.insn	2, 0x0000
  30b61e04a8:	042254cf          	fnmadd.h	f9,f4,f2,f0,unknown
  30b61e04ac:	0000                	.insn	2, 0x0000
  30b61e04ae:	0000                	.insn	2, 0x0000
  30b61e04b0:	042258cf          	fnmadd.h	f17,f4,f2,f0,unknown
  30b61e04b4:	0000                	.insn	2, 0x0000
  30b61e04b6:	0000                	.insn	2, 0x0000
  30b61e04b8:	04225ccf          	fnmadd.h	f25,f4,f2,f0,unknown
  30b61e04bc:	0000                	.insn	2, 0x0000
  30b61e04be:	0000                	.insn	2, 0x0000
  30b61e04c0:	042260cf          	fnmadd.h	f1,f4,f2,f0,unknown
  30b61e04c4:	0000                	.insn	2, 0x0000
  30b61e04c6:	0000                	.insn	2, 0x0000
  30b61e04c8:	042264cf          	fnmadd.h	f9,f4,f2,f0,unknown
  30b61e04cc:	0000                	.insn	2, 0x0000
  30b61e04ce:	0000                	.insn	2, 0x0000
  30b61e04d0:	042268cf          	fnmadd.h	f17,f4,f2,f0,unknown
  30b61e04d4:	0000                	.insn	2, 0x0000
  30b61e04d6:	0000                	.insn	2, 0x0000
  30b61e04d8:	04226ccf          	fnmadd.h	f25,f4,f2,f0,unknown
  30b61e04dc:	0000                	.insn	2, 0x0000
  30b61e04de:	0000                	.insn	2, 0x0000
  30b61e04e0:	042270cf          	fnmadd.h	f1,f4,f2,f0
  30b61e04e4:	0000                	.insn	2, 0x0000
  30b61e04e6:	0000                	.insn	2, 0x0000
  30b61e04e8:	042274cf          	fnmadd.h	f9,f4,f2,f0
  30b61e04ec:	0000                	.insn	2, 0x0000
  30b61e04ee:	0000                	.insn	2, 0x0000
  30b61e04f0:	042278cf          	fnmadd.h	f17,f4,f2,f0
  30b61e04f4:	0000                	.insn	2, 0x0000
  30b61e04f6:	0000                	.insn	2, 0x0000
  30b61e04f8:	04227ccf          	fnmadd.h	f25,f4,f2,f0
  30b61e04fc:	0000                	.insn	2, 0x0000
  30b61e04fe:	0000                	.insn	2, 0x0000
  30b61e0500:	042280cf          	fnmadd.h	f1,f5,f2,f0,rne
  30b61e0504:	0000                	.insn	2, 0x0000
  30b61e0506:	0000                	.insn	2, 0x0000
  30b61e0508:	042284cf          	fnmadd.h	f9,f5,f2,f0,rne
  30b61e050c:	0000                	.insn	2, 0x0000
  30b61e050e:	0000                	.insn	2, 0x0000
  30b61e0510:	042288cf          	fnmadd.h	f17,f5,f2,f0,rne
  30b61e0514:	0000                	.insn	2, 0x0000
  30b61e0516:	0000                	.insn	2, 0x0000
  30b61e0518:	04228ccf          	fnmadd.h	f25,f5,f2,f0,rne
  30b61e051c:	0000                	.insn	2, 0x0000
  30b61e051e:	0000                	.insn	2, 0x0000
  30b61e0520:	042290cf          	fnmadd.h	f1,f5,f2,f0,rtz
  30b61e0524:	0000                	.insn	2, 0x0000
  30b61e0526:	0000                	.insn	2, 0x0000
  30b61e0528:	042294cf          	fnmadd.h	f9,f5,f2,f0,rtz
  30b61e052c:	0000                	.insn	2, 0x0000
  30b61e052e:	0000                	.insn	2, 0x0000
  30b61e0530:	042298cf          	fnmadd.h	f17,f5,f2,f0,rtz
  30b61e0534:	0000                	.insn	2, 0x0000
  30b61e0536:	0000                	.insn	2, 0x0000
  30b61e0538:	04229ccf          	fnmadd.h	f25,f5,f2,f0,rtz
  30b61e053c:	0000                	.insn	2, 0x0000
  30b61e053e:	0000                	.insn	2, 0x0000
  30b61e0540:	0422a0cf          	fnmadd.h	f1,f5,f2,f0,rdn
  30b61e0544:	0000                	.insn	2, 0x0000
  30b61e0546:	0000                	.insn	2, 0x0000
  30b61e0548:	0422a4cf          	fnmadd.h	f9,f5,f2,f0,rdn
  30b61e054c:	0000                	.insn	2, 0x0000
  30b61e054e:	0000                	.insn	2, 0x0000
  30b61e0550:	0422a8cf          	fnmadd.h	f17,f5,f2,f0,rdn
  30b61e0554:	0000                	.insn	2, 0x0000
  30b61e0556:	0000                	.insn	2, 0x0000
  30b61e0558:	0422accf          	fnmadd.h	f25,f5,f2,f0,rdn
  30b61e055c:	0000                	.insn	2, 0x0000
  30b61e055e:	0000                	.insn	2, 0x0000
  30b61e0560:	0422b0cf          	fnmadd.h	f1,f5,f2,f0,rup
  30b61e0564:	0000                	.insn	2, 0x0000
  30b61e0566:	0000                	.insn	2, 0x0000
  30b61e0568:	0422b4cf          	fnmadd.h	f9,f5,f2,f0,rup
  30b61e056c:	0000                	.insn	2, 0x0000
  30b61e056e:	0000                	.insn	2, 0x0000
  30b61e0570:	0422b8cf          	fnmadd.h	f17,f5,f2,f0,rup
  30b61e0574:	0000                	.insn	2, 0x0000
  30b61e0576:	0000                	.insn	2, 0x0000
  30b61e0578:	0422bccf          	fnmadd.h	f25,f5,f2,f0,rup
  30b61e057c:	0000                	.insn	2, 0x0000
  30b61e057e:	0000                	.insn	2, 0x0000
  30b61e0580:	0422c0cf          	fnmadd.h	f1,f5,f2,f0,rmm
  30b61e0584:	0000                	.insn	2, 0x0000
  30b61e0586:	0000                	.insn	2, 0x0000
  30b61e0588:	0422c4cf          	fnmadd.h	f9,f5,f2,f0,rmm
  30b61e058c:	0000                	.insn	2, 0x0000
  30b61e058e:	0000                	.insn	2, 0x0000
  30b61e0590:	0422c8cf          	fnmadd.h	f17,f5,f2,f0,rmm
  30b61e0594:	0000                	.insn	2, 0x0000
  30b61e0596:	0000                	.insn	2, 0x0000
  30b61e0598:	0422cccf          	fnmadd.h	f25,f5,f2,f0,rmm
  30b61e059c:	0000                	.insn	2, 0x0000
  30b61e059e:	0000                	.insn	2, 0x0000
  30b61e05a0:	0422d0cf          	fnmadd.h	f1,f5,f2,f0,unknown
  30b61e05a4:	0000                	.insn	2, 0x0000
  30b61e05a6:	0000                	.insn	2, 0x0000
  30b61e05a8:	0422d4cf          	fnmadd.h	f9,f5,f2,f0,unknown
  30b61e05ac:	0000                	.insn	2, 0x0000
  30b61e05ae:	0000                	.insn	2, 0x0000
  30b61e05b0:	0422d8cf          	fnmadd.h	f17,f5,f2,f0,unknown
  30b61e05b4:	0000                	.insn	2, 0x0000
  30b61e05b6:	0000                	.insn	2, 0x0000
  30b61e05b8:	0422dccf          	fnmadd.h	f25,f5,f2,f0,unknown
  30b61e05bc:	0000                	.insn	2, 0x0000
  30b61e05be:	0000                	.insn	2, 0x0000
  30b61e05c0:	0422e0cf          	fnmadd.h	f1,f5,f2,f0,unknown
  30b61e05c4:	0000                	.insn	2, 0x0000
  30b61e05c6:	0000                	.insn	2, 0x0000
  30b61e05c8:	0422e4cf          	fnmadd.h	f9,f5,f2,f0,unknown
  30b61e05cc:	0000                	.insn	2, 0x0000
  30b61e05ce:	0000                	.insn	2, 0x0000
  30b61e05d0:	0422e8cf          	fnmadd.h	f17,f5,f2,f0,unknown
  30b61e05d4:	0000                	.insn	2, 0x0000
  30b61e05d6:	0000                	.insn	2, 0x0000
  30b61e05d8:	0422eccf          	fnmadd.h	f25,f5,f2,f0,unknown
  30b61e05dc:	0000                	.insn	2, 0x0000
  30b61e05de:	0000                	.insn	2, 0x0000
  30b61e05e0:	0422f0cf          	fnmadd.h	f1,f5,f2,f0
  30b61e05e4:	0000                	.insn	2, 0x0000
  30b61e05e6:	0000                	.insn	2, 0x0000
  30b61e05e8:	0422f4cf          	fnmadd.h	f9,f5,f2,f0
  30b61e05ec:	0000                	.insn	2, 0x0000
  30b61e05ee:	0000                	.insn	2, 0x0000
  30b61e05f0:	0422f8cf          	fnmadd.h	f17,f5,f2,f0
  30b61e05f4:	0000                	.insn	2, 0x0000
  30b61e05f6:	0000                	.insn	2, 0x0000
  30b61e05f8:	0422fccf          	fnmadd.h	f25,f5,f2,f0
  30b61e05fc:	0000                	.insn	2, 0x0000
  30b61e05fe:	0000                	.insn	2, 0x0000
  30b61e0600:	042300cf          	fnmadd.h	f1,f6,f2,f0,rne
  30b61e0604:	0000                	.insn	2, 0x0000
  30b61e0606:	0000                	.insn	2, 0x0000
  30b61e0608:	042304cf          	fnmadd.h	f9,f6,f2,f0,rne
  30b61e060c:	0000                	.insn	2, 0x0000
  30b61e060e:	0000                	.insn	2, 0x0000
  30b61e0610:	042308cf          	fnmadd.h	f17,f6,f2,f0,rne
  30b61e0614:	0000                	.insn	2, 0x0000
  30b61e0616:	0000                	.insn	2, 0x0000
  30b61e0618:	04230ccf          	fnmadd.h	f25,f6,f2,f0,rne
  30b61e061c:	0000                	.insn	2, 0x0000
  30b61e061e:	0000                	.insn	2, 0x0000
  30b61e0620:	042310cf          	fnmadd.h	f1,f6,f2,f0,rtz
  30b61e0624:	0000                	.insn	2, 0x0000
  30b61e0626:	0000                	.insn	2, 0x0000
  30b61e0628:	042314cf          	fnmadd.h	f9,f6,f2,f0,rtz
  30b61e062c:	0000                	.insn	2, 0x0000
  30b61e062e:	0000                	.insn	2, 0x0000
  30b61e0630:	042318cf          	fnmadd.h	f17,f6,f2,f0,rtz
  30b61e0634:	0000                	.insn	2, 0x0000
  30b61e0636:	0000                	.insn	2, 0x0000
  30b61e0638:	04231ccf          	fnmadd.h	f25,f6,f2,f0,rtz
  30b61e063c:	0000                	.insn	2, 0x0000
  30b61e063e:	0000                	.insn	2, 0x0000
  30b61e0640:	042320cf          	fnmadd.h	f1,f6,f2,f0,rdn
  30b61e0644:	0000                	.insn	2, 0x0000
  30b61e0646:	0000                	.insn	2, 0x0000
  30b61e0648:	042324cf          	fnmadd.h	f9,f6,f2,f0,rdn
  30b61e064c:	0000                	.insn	2, 0x0000
  30b61e064e:	0000                	.insn	2, 0x0000
  30b61e0650:	042328cf          	fnmadd.h	f17,f6,f2,f0,rdn
  30b61e0654:	0000                	.insn	2, 0x0000
  30b61e0656:	0000                	.insn	2, 0x0000
  30b61e0658:	04232ccf          	fnmadd.h	f25,f6,f2,f0,rdn
  30b61e065c:	0000                	.insn	2, 0x0000
  30b61e065e:	0000                	.insn	2, 0x0000
  30b61e0660:	042330cf          	fnmadd.h	f1,f6,f2,f0,rup
  30b61e0664:	0000                	.insn	2, 0x0000
  30b61e0666:	0000                	.insn	2, 0x0000
  30b61e0668:	042334cf          	fnmadd.h	f9,f6,f2,f0,rup
  30b61e066c:	0000                	.insn	2, 0x0000
  30b61e066e:	0000                	.insn	2, 0x0000
  30b61e0670:	042338cf          	fnmadd.h	f17,f6,f2,f0,rup
  30b61e0674:	0000                	.insn	2, 0x0000
  30b61e0676:	0000                	.insn	2, 0x0000
  30b61e0678:	04233ccf          	fnmadd.h	f25,f6,f2,f0,rup
  30b61e067c:	0000                	.insn	2, 0x0000
  30b61e067e:	0000                	.insn	2, 0x0000
  30b61e0680:	042340cf          	fnmadd.h	f1,f6,f2,f0,rmm
  30b61e0684:	0000                	.insn	2, 0x0000
  30b61e0686:	0000                	.insn	2, 0x0000
  30b61e0688:	042344cf          	fnmadd.h	f9,f6,f2,f0,rmm
  30b61e068c:	0000                	.insn	2, 0x0000
  30b61e068e:	0000                	.insn	2, 0x0000
  30b61e0690:	042348cf          	fnmadd.h	f17,f6,f2,f0,rmm
  30b61e0694:	0000                	.insn	2, 0x0000
  30b61e0696:	0000                	.insn	2, 0x0000
  30b61e0698:	04234ccf          	fnmadd.h	f25,f6,f2,f0,rmm
  30b61e069c:	0000                	.insn	2, 0x0000
  30b61e069e:	0000                	.insn	2, 0x0000
  30b61e06a0:	042350cf          	fnmadd.h	f1,f6,f2,f0,unknown
  30b61e06a4:	0000                	.insn	2, 0x0000
  30b61e06a6:	0000                	.insn	2, 0x0000
  30b61e06a8:	042354cf          	fnmadd.h	f9,f6,f2,f0,unknown
  30b61e06ac:	0000                	.insn	2, 0x0000
  30b61e06ae:	0000                	.insn	2, 0x0000
  30b61e06b0:	042358cf          	fnmadd.h	f17,f6,f2,f0,unknown
  30b61e06b4:	0000                	.insn	2, 0x0000
  30b61e06b6:	0000                	.insn	2, 0x0000
  30b61e06b8:	04235ccf          	fnmadd.h	f25,f6,f2,f0,unknown
  30b61e06bc:	0000                	.insn	2, 0x0000
  30b61e06be:	0000                	.insn	2, 0x0000
  30b61e06c0:	042360cf          	fnmadd.h	f1,f6,f2,f0,unknown
  30b61e06c4:	0000                	.insn	2, 0x0000
  30b61e06c6:	0000                	.insn	2, 0x0000
  30b61e06c8:	042364cf          	fnmadd.h	f9,f6,f2,f0,unknown
  30b61e06cc:	0000                	.insn	2, 0x0000
  30b61e06ce:	0000                	.insn	2, 0x0000
  30b61e06d0:	042368cf          	fnmadd.h	f17,f6,f2,f0,unknown
  30b61e06d4:	0000                	.insn	2, 0x0000
  30b61e06d6:	0000                	.insn	2, 0x0000
