
/home/abdullah/RiescueC/riescue/10x_R/paging/testsuite/paging/super_sv57/tp_paging_1:     file format elf64-littleriscv


Disassembly of section .runtime:

0000000041000000 <_start>:
    41000000:	00000093          	li	x1,0
    41000004:	00000113          	li	x2,0
    41000008:	00000193          	li	x3,0
    4100000c:	00000213          	li	x4,0
    41000010:	00000293          	li	x5,0
    41000014:	00000313          	li	x6,0
    41000018:	00000393          	li	x7,0
    4100001c:	00000413          	li	x8,0
    41000020:	00000493          	li	x9,0
    41000024:	00000513          	li	x10,0
    41000028:	00000593          	li	x11,0
    4100002c:	00000613          	li	x12,0
    41000030:	00000693          	li	x13,0
    41000034:	00000713          	li	x14,0
    41000038:	00000793          	li	x15,0
    4100003c:	00000813          	li	x16,0
    41000040:	00000893          	li	x17,0
    41000044:	00000913          	li	x18,0
    41000048:	00000993          	li	x19,0
    4100004c:	00000a13          	li	x20,0
    41000050:	00000a93          	li	x21,0
    41000054:	00000b13          	li	x22,0
    41000058:	00000b93          	li	x23,0
    4100005c:	00000c13          	li	x24,0
    41000060:	00000c93          	li	x25,0
    41000064:	00000d13          	li	x26,0
    41000068:	00000d93          	li	x27,0
    4100006c:	00000e13          	li	x28,0
    41000070:	00000e93          	li	x29,0
    41000074:	00000f13          	li	x30,0
    41000078:	00000f93          	li	x31,0

000000004100007c <loader__load_panic_address>:
    4100007c:	00001297          	auipc	x5,0x1
    41000080:	9b828293          	addi	x5,x5,-1608 # 41000a34 <eot__failed>
    41000084:	30529073          	csrw	mtvec,x5

0000000041000088 <loader__initialize_runtime>:
    41000088:	00000293          	li	x5,0
    4100008c:	3012a2f3          	csrrs	x5,misa,x5

0000000041000090 <loader__set_mstatus>:
    41000090:	000402b7          	lui	x5,0x40
    41000094:	00a2829b          	addiw	x5,x5,10 # 4000a <pma_region_0_size+0xa>
    41000098:	3002a2f3          	csrrs	x5,mstatus,x5
    4100009c:	44fe0237          	lui	x4,0x44fe0
    410000a0:	34021073          	csrw	mscratch,x4

00000000410000a4 <loader__setup_menvcfg>:
    410000a4:	00000297          	auipc	x5,0x0
    410000a8:	47c28293          	addi	x5,x5,1148 # 41000520 <trap_handler_m__trap_entry>
    410000ac:	30529073          	csrw	mtvec,x5

00000000410000b0 <loader__enable_paging>:
    410000b0:	fffa00b7          	lui	x1,0xfffa0
    410000b4:	0050809b          	addiw	x1,x1,5 # fffffffffffa0005 <mem37+0x9efffffffa0005>
    410000b8:	02009093          	slli	x1,x1,0x20
    410000bc:	04508093          	addi	x1,x1,69
    410000c0:	00c09093          	slli	x1,x1,0xc
    410000c4:	bcc08093          	addi	x1,x1,-1076
    410000c8:	18009073          	csrw	satp,x1

00000000410000cc <loader__done>:
    410000cc:	1910006f          	j	41000a5c <scheduler__init>

00000000410000d0 <loader__panic>:
    410000d0:	1650006f          	j	41000a34 <eot__failed>

00000000410000d4 <syscalls__syscall_check_schedule_next_test>:
    410000d4:	00f0029b          	addiw	x5,x0,15
    410000d8:	01c29293          	slli	x5,x5,0x1c
    410000dc:	00128293          	addi	x5,x5,1
    410000e0:	01f29a63          	bne	x5,x31,410000f4 <syscalls__syscall_check_fail_test>
    410000e4:	00000317          	auipc	x6,0x0
    410000e8:	43c30313          	addi	x6,x6,1084 # 41000520 <trap_handler_m__trap_entry>
    410000ec:	30531073          	csrw	mtvec,x6
    410000f0:	6740006f          	j	41000764 <enter_scheduler>

00000000410000f4 <syscalls__syscall_check_fail_test>:
    410000f4:	00f0029b          	addiw	x5,x0,15
    410000f8:	01c29293          	slli	x5,x5,0x1c
    410000fc:	00228293          	addi	x5,x5,2
    41000100:	01f29a63          	bne	x5,x31,41000114 <syscalls__syscall_check_end_test_without_failure>
    41000104:	00000317          	auipc	x6,0x0
    41000108:	41c30313          	addi	x6,x6,1052 # 41000520 <trap_handler_m__trap_entry>
    4100010c:	30531073          	csrw	mtvec,x6
    41000110:	6840006f          	j	41000794 <test_failed>

0000000041000114 <syscalls__syscall_check_end_test_without_failure>:
    41000114:	00f0029b          	addiw	x5,x0,15
    41000118:	01c29293          	slli	x5,x5,0x1c
    4100011c:	00328293          	addi	x5,x5,3
    41000120:	01f29a63          	bne	x5,x31,41000134 <syscalls__syscall_check_switch_machine_mode>
    41000124:	00000317          	auipc	x6,0x0
    41000128:	3fc30313          	addi	x6,x6,1020 # 41000520 <trap_handler_m__trap_entry>
    4100012c:	30531073          	csrw	mtvec,x6
    41000130:	6700006f          	j	410007a0 <os_end_test>

0000000041000134 <syscalls__syscall_check_switch_machine_mode>:
    41000134:	000f02b7          	lui	x5,0xf0
    41000138:	0012829b          	addiw	x5,x5,1 # f0001 <mem24__pt_level4+0x7cf91>
    4100013c:	00c29293          	slli	x5,x5,0xc
    41000140:	00128293          	addi	x5,x5,1
    41000144:	0a5f8463          	beq	x31,x5,410001ec <syscalls__os_fn_f0001001>

0000000041000148 <syscalls__syscall_check_switch_super_mode>:
    41000148:	000f02b7          	lui	x5,0xf0
    4100014c:	0012829b          	addiw	x5,x5,1 # f0001 <mem24__pt_level4+0x7cf91>
    41000150:	00c29293          	slli	x5,x5,0xc
    41000154:	00228293          	addi	x5,x5,2
    41000158:	0c5f8063          	beq	x31,x5,41000218 <syscalls__os_fn_f0001002>

000000004100015c <syscalls__syscall_check_switch_user_mode>:
    4100015c:	000f02b7          	lui	x5,0xf0
    41000160:	0012829b          	addiw	x5,x5,1 # f0001 <mem24__pt_level4+0x7cf91>
    41000164:	00c29293          	slli	x5,x5,0xc
    41000168:	00328293          	addi	x5,x5,3
    4100016c:	0a5f8a63          	beq	x31,x5,41000220 <syscalls__os_fn_f0001003>

0000000041000170 <syscalls__syscall_check_switch_test_mode>:
    41000170:	000f02b7          	lui	x5,0xf0
    41000174:	0012829b          	addiw	x5,x5,1 # f0001 <mem24__pt_level4+0x7cf91>
    41000178:	00c29293          	slli	x5,x5,0xc
    4100017c:	00428293          	addi	x5,x5,4
    41000180:	0c5f8463          	beq	x31,x5,41000248 <syscalls__os_fn_f0001004>

0000000041000184 <syscalls__syscall_machine_csr_rw>:
    41000184:	000f02b7          	lui	x5,0xf0
    41000188:	0012829b          	addiw	x5,x5,1 # f0001 <mem24__pt_level4+0x7cf91>
    4100018c:	00c29293          	slli	x5,x5,0xc
    41000190:	00528293          	addi	x5,x5,5
    41000194:	0e5f8063          	beq	x31,x5,41000274 <syscalls__os_fn_f0001005>

0000000041000198 <syscalls__syscall_supervisor_csr_rw>:
    41000198:	000f02b7          	lui	x5,0xf0
    4100019c:	0012829b          	addiw	x5,x5,1 # f0001 <mem24__pt_level4+0x7cf91>
    410001a0:	00c29293          	slli	x5,x5,0xc
    410001a4:	00628293          	addi	x5,x5,6
    410001a8:	0e5f8c63          	beq	x31,x5,410002a0 <syscalls__os_fn_f0001006>

00000000410001ac <syscalls__syscall_machine_pte_read>:
    410001ac:	000f02b7          	lui	x5,0xf0
    410001b0:	0012829b          	addiw	x5,x5,1 # f0001 <mem24__pt_level4+0x7cf91>
    410001b4:	00c29293          	slli	x5,x5,0xc
    410001b8:	00728293          	addi	x5,x5,7
    410001bc:	0e5f8663          	beq	x31,x5,410002a8 <syscalls__os_fn_f0001007>

00000000410001c0 <syscalls__syscall_machine_pte_write>:
    410001c0:	000f02b7          	lui	x5,0xf0
    410001c4:	0012829b          	addiw	x5,x5,1 # f0001 <mem24__pt_level4+0x7cf91>
    410001c8:	00c29293          	slli	x5,x5,0xc
    410001cc:	00828293          	addi	x5,x5,8
    410001d0:	1c5f8263          	beq	x31,x5,41000394 <syscalls__os_fn_f0001008>

00000000410001d4 <syscalls__syscall_check_get_hart_context>:
    410001d4:	000782b7          	lui	x5,0x78
    410001d8:	0012829b          	addiw	x5,x5,1 # 78001 <mem24__pt_level4+0x4f91>
    410001dc:	00d29293          	slli	x5,x5,0xd
    410001e0:	00128293          	addi	x5,x5,1
    410001e4:	285f8e63          	beq	x31,x5,41000480 <syscalls__os_get_hart_context>
    410001e8:	4940006f          	j	4100067c <trap_handler_m__check_exception_label>

00000000410001ec <syscalls__os_fn_f0001001>:
    410001ec:	000022b7          	lui	x5,0x2
    410001f0:	8002829b          	addiw	x5,x5,-2048 # 1800 <mem21__pt_level2+0x800>
    410001f4:	3002b073          	csrc	mstatus,x5
    410001f8:	000022b7          	lui	x5,0x2
    410001fc:	8002829b          	addiw	x5,x5,-2048 # 1800 <mem21__pt_level2+0x800>
    41000200:	3002a073          	csrs	mstatus,x5
    41000204:	0010029b          	addiw	x5,x0,1
    41000208:	02729293          	slli	x5,x5,0x27
    4100020c:	3002b073          	csrc	mstatus,x5
    41000210:	413082b7          	lui	x5,0x41308
    41000214:	27c0006f          	j	41000490 <syscalls__ret_from_os_fn>

0000000041000218 <syscalls__os_fn_f0001002>:
    41000218:	412082b7          	lui	x5,0x41208
    4100021c:	2740006f          	j	41000490 <syscalls__ret_from_os_fn>

0000000041000220 <syscalls__os_fn_f0001003>:
    41000220:	000022b7          	lui	x5,0x2
    41000224:	8002829b          	addiw	x5,x5,-2048 # 1800 <mem21__pt_level2+0x800>
    41000228:	3002b073          	csrc	mstatus,x5
    4100022c:	00000293          	li	x5,0
    41000230:	3002a073          	csrs	mstatus,x5
    41000234:	0010029b          	addiw	x5,x0,1
    41000238:	02729293          	slli	x5,x5,0x27
    4100023c:	3002b073          	csrc	mstatus,x5
    41000240:	412882b7          	lui	x5,0x41288
    41000244:	24c0006f          	j	41000490 <syscalls__ret_from_os_fn>

0000000041000248 <syscalls__os_fn_f0001004>:
    41000248:	000022b7          	lui	x5,0x2
    4100024c:	8002829b          	addiw	x5,x5,-2048 # 1800 <mem21__pt_level2+0x800>
    41000250:	3002b073          	csrc	mstatus,x5
    41000254:	000012b7          	lui	x5,0x1
    41000258:	8002829b          	addiw	x5,x5,-2048 # 800 <XLEN+0x7c0>
    4100025c:	3002a073          	csrs	mstatus,x5
    41000260:	0010029b          	addiw	x5,x0,1
    41000264:	02729293          	slli	x5,x5,0x27
    41000268:	3002b073          	csrc	mstatus,x5
    4100026c:	17823283          	ld	x5,376(x4) # 44fe0178 <__section_hart_context+0x178>
    41000270:	2200006f          	j	41000490 <syscalls__ret_from_os_fn>

0000000041000274 <syscalls__os_fn_f0001005>:
    41000274:	000022b7          	lui	x5,0x2
    41000278:	8002829b          	addiw	x5,x5,-2048 # 1800 <mem21__pt_level2+0x800>
    4100027c:	3002b073          	csrc	mstatus,x5
    41000280:	000022b7          	lui	x5,0x2
    41000284:	8002829b          	addiw	x5,x5,-2048 # 1800 <mem21__pt_level2+0x800>
    41000288:	3002a073          	csrs	mstatus,x5
    4100028c:	0010029b          	addiw	x5,x0,1
    41000290:	02729293          	slli	x5,x5,0x27
    41000294:	3002b073          	csrc	mstatus,x5
    41000298:	413882b7          	lui	x5,0x41388
    4100029c:	1f40006f          	j	41000490 <syscalls__ret_from_os_fn>

00000000410002a0 <syscalls__os_fn_f0001006>:
    410002a0:	413892b7          	lui	x5,0x41389
    410002a4:	1ec0006f          	j	41000490 <syscalls__ret_from_os_fn>

00000000410002a8 <syscalls__os_fn_f0001007>:
    410002a8:	44f06fb7          	lui	x31,0x44f06
    410002ac:	0b0f8f9b          	addiw	x31,x31,176 # 44f060b0 <pte_access_flags_pa>
    410002b0:	000fbf83          	ld	x31,0(x31)
    410002b4:	44f062b7          	lui	x5,0x44f06
    410002b8:	0b82829b          	addiw	x5,x5,184 # 44f060b8 <pte_access_flags_pa+0x8>
    410002bc:	0002b283          	ld	x5,0(x5)
    410002c0:	44f06e37          	lui	x28,0x44f06
    410002c4:	0c0e0e1b          	addiw	x28,x28,192 # 44f060c0 <pte_access_flags_pa+0x10>
    410002c8:	000e3e03          	ld	x28,0(x28)

00000000410002cc <syscalls__pte_walk_check_glevel_without_gstage_read>:
    410002cc:	fff00f93          	li	x31,-1
    410002d0:	0dfe1063          	bne	x28,x31,41000390 <syscalls__pte_walk_fail_read>
    410002d4:	18002373          	csrr	x6,satp
    410002d8:	03c35e93          	srli	x29,x6,0x3c
    410002dc:	01431313          	slli	x6,x6,0x14
    410002e0:	01435313          	srli	x6,x6,0x14
    410002e4:	00c31313          	slli	x6,x6,0xc
    410002e8:	ff8e8e93          	addi	x29,x29,-8
    410002ec:	003e9f13          	slli	x30,x29,0x3
    410002f0:	01df0eb3          	add	x29,x30,x29
    410002f4:	01ee8e93          	addi	x29,x29,30
    410002f8:	00000f13          	li	x30,0

00000000410002fc <syscalls__pte_walk_loop_read>:
    410002fc:	44f06fb7          	lui	x31,0x44f06
    41000300:	0b0f8f9b          	addiw	x31,x31,176 # 44f060b0 <pte_access_flags_pa>
    41000304:	000fbf83          	ld	x31,0(x31)
    41000308:	01dfdfb3          	srl	x31,x31,x29
    4100030c:	1fffff93          	andi	x31,x31,511
    41000310:	003f9f93          	slli	x31,x31,0x3
    41000314:	01f30333          	add	x6,x6,x31
    41000318:	005f0e63          	beq	x30,x5,41000334 <syscalls__pte_walk_done_read>
    4100031c:	00033f83          	ld	x31,0(x6)
    41000320:	00afdf93          	srli	x31,x31,0xa
    41000324:	00cf9313          	slli	x6,x31,0xc
    41000328:	001f0f13          	addi	x30,x30,1
    4100032c:	ff7e8e93          	addi	x29,x29,-9
    41000330:	fcdff06f          	j	410002fc <syscalls__pte_walk_loop_read>

0000000041000334 <syscalls__pte_walk_done_read>:
    41000334:	fff00f93          	li	x31,-1
    41000338:	05fe0263          	beq	x28,x31,4100037c <syscalls__pte_walk_final_read>

000000004100033c <syscalls__pte_walk_gstage_read>:
    4100033c:	44f06fb7          	lui	x31,0x44f06
    41000340:	0b0f8f9b          	addiw	x31,x31,176 # 44f060b0 <pte_access_flags_pa>
    41000344:	006fb023          	sd	x6,0(x31)
    41000348:	000e0293          	mv	x5,x28
    4100034c:	fff00e13          	li	x28,-1
    41000350:	68002373          	csrr	x6,hgatp
    41000354:	03c35e93          	srli	x29,x6,0x3c
    41000358:	01431313          	slli	x6,x6,0x14
    4100035c:	01435313          	srli	x6,x6,0x14
    41000360:	00c31313          	slli	x6,x6,0xc
    41000364:	ff8e8e93          	addi	x29,x29,-8
    41000368:	003e9f13          	slli	x30,x29,0x3
    4100036c:	01df0eb3          	add	x29,x30,x29
    41000370:	01ee8e93          	addi	x29,x29,30
    41000374:	00000f13          	li	x30,0
    41000378:	f85ff06f          	j	410002fc <syscalls__pte_walk_loop_read>

000000004100037c <syscalls__pte_walk_final_read>:
    4100037c:	00033383          	ld	x7,0(x6)
    41000380:	341022f3          	csrr	x5,mepc
    41000384:	00428293          	addi	x5,x5,4
    41000388:	16523c23          	sd	x5,376(x4) # 178 <XLEN+0x138>
    4100038c:	ebdff06f          	j	41000248 <syscalls__os_fn_f0001004>

0000000041000390 <syscalls__pte_walk_fail_read>:
    41000390:	4040006f          	j	41000794 <test_failed>

0000000041000394 <syscalls__os_fn_f0001008>:
    41000394:	44f06fb7          	lui	x31,0x44f06
    41000398:	0b0f8f9b          	addiw	x31,x31,176 # 44f060b0 <pte_access_flags_pa>
    4100039c:	000fbf83          	ld	x31,0(x31)
    410003a0:	44f062b7          	lui	x5,0x44f06
    410003a4:	0b82829b          	addiw	x5,x5,184 # 44f060b8 <pte_access_flags_pa+0x8>
    410003a8:	0002b283          	ld	x5,0(x5)
    410003ac:	44f06e37          	lui	x28,0x44f06
    410003b0:	0c0e0e1b          	addiw	x28,x28,192 # 44f060c0 <pte_access_flags_pa+0x10>
    410003b4:	000e3e03          	ld	x28,0(x28)

00000000410003b8 <syscalls__pte_walk_check_glevel_without_gstage_write>:
    410003b8:	fff00f93          	li	x31,-1
    410003bc:	0dfe1063          	bne	x28,x31,4100047c <syscalls__pte_walk_fail_write>
    410003c0:	18002373          	csrr	x6,satp
    410003c4:	03c35e93          	srli	x29,x6,0x3c
    410003c8:	01431313          	slli	x6,x6,0x14
    410003cc:	01435313          	srli	x6,x6,0x14
    410003d0:	00c31313          	slli	x6,x6,0xc
    410003d4:	ff8e8e93          	addi	x29,x29,-8
    410003d8:	003e9f13          	slli	x30,x29,0x3
    410003dc:	01df0eb3          	add	x29,x30,x29
    410003e0:	01ee8e93          	addi	x29,x29,30
    410003e4:	00000f13          	li	x30,0

00000000410003e8 <syscalls__pte_walk_loop_write>:
    410003e8:	44f06fb7          	lui	x31,0x44f06
    410003ec:	0b0f8f9b          	addiw	x31,x31,176 # 44f060b0 <pte_access_flags_pa>
    410003f0:	000fbf83          	ld	x31,0(x31)
    410003f4:	01dfdfb3          	srl	x31,x31,x29
    410003f8:	1fffff93          	andi	x31,x31,511
    410003fc:	003f9f93          	slli	x31,x31,0x3
    41000400:	01f30333          	add	x6,x6,x31
    41000404:	005f0e63          	beq	x30,x5,41000420 <syscalls__pte_walk_done_write>
    41000408:	00033f83          	ld	x31,0(x6)
    4100040c:	00afdf93          	srli	x31,x31,0xa
    41000410:	00cf9313          	slli	x6,x31,0xc
    41000414:	001f0f13          	addi	x30,x30,1
    41000418:	ff7e8e93          	addi	x29,x29,-9
    4100041c:	fcdff06f          	j	410003e8 <syscalls__pte_walk_loop_write>

0000000041000420 <syscalls__pte_walk_done_write>:
    41000420:	fff00f93          	li	x31,-1
    41000424:	05fe0263          	beq	x28,x31,41000468 <syscalls__pte_walk_final_write>

0000000041000428 <syscalls__pte_walk_gstage_write>:
    41000428:	44f06fb7          	lui	x31,0x44f06
    4100042c:	0b0f8f9b          	addiw	x31,x31,176 # 44f060b0 <pte_access_flags_pa>
    41000430:	006fb023          	sd	x6,0(x31)
    41000434:	000e0293          	mv	x5,x28
    41000438:	fff00e13          	li	x28,-1
    4100043c:	68002373          	csrr	x6,hgatp
    41000440:	03c35e93          	srli	x29,x6,0x3c
    41000444:	01431313          	slli	x6,x6,0x14
    41000448:	01435313          	srli	x6,x6,0x14
    4100044c:	00c31313          	slli	x6,x6,0xc
    41000450:	ff8e8e93          	addi	x29,x29,-8
    41000454:	003e9f13          	slli	x30,x29,0x3
    41000458:	01df0eb3          	add	x29,x30,x29
    4100045c:	01ee8e93          	addi	x29,x29,30
    41000460:	00000f13          	li	x30,0
    41000464:	f85ff06f          	j	410003e8 <syscalls__pte_walk_loop_write>

0000000041000468 <syscalls__pte_walk_final_write>:
    41000468:	00733023          	sd	x7,0(x6)
    4100046c:	341022f3          	csrr	x5,mepc
    41000470:	00428293          	addi	x5,x5,4
    41000474:	16523c23          	sd	x5,376(x4) # 178 <XLEN+0x138>
    41000478:	dd1ff06f          	j	41000248 <syscalls__os_fn_f0001004>

000000004100047c <syscalls__pte_walk_fail_write>:
    4100047c:	3180006f          	j	41000794 <test_failed>

0000000041000480 <syscalls__os_get_hart_context>:
    41000480:	14002573          	csrr	x10,sscratch
    41000484:	341022f3          	csrr	x5,mepc
    41000488:	00428293          	addi	x5,x5,4
    4100048c:	0040006f          	j	41000490 <syscalls__ret_from_os_fn>

0000000041000490 <syscalls__ret_from_os_fn>:
    41000490:	34102373          	csrr	x6,mepc
    41000494:	00430313          	addi	x6,x6,4
    41000498:	16623c23          	sd	x6,376(x4) # 178 <XLEN+0x138>
    4100049c:	34129073          	csrw	mepc,x5
    410004a0:	fff00f93          	li	x31,-1
    410004a4:	2a40006f          	j	41000748 <trap_handler_m__skip_xepc_write>

00000000410004a8 <trap_handler_m__invalid_interrupt>:
    410004a8:	2ec0006f          	j	41000794 <test_failed>

00000000410004ac <trap_handler_m__clear_all_interrupts>:
    410004ac:	34401073          	csrw	mip,x0
    410004b0:	30200073          	mret

00000000410004b4 <trap_handler_m___CLEAR_SSI>:
    410004b4:	00200293          	li	x5,2
    410004b8:	3442b073          	csrc	mip,x5
    410004bc:	30200073          	mret

00000000410004c0 <trap_handler_m___CLEAR_MSI>:
    410004c0:	00800293          	li	x5,8
    410004c4:	3442b073          	csrc	mip,x5
    410004c8:	30200073          	mret

00000000410004cc <trap_handler_m___CLEAR_STI>:
    410004cc:	02000293          	li	x5,32
    410004d0:	3442b073          	csrc	mip,x5
    410004d4:	30200073          	mret

00000000410004d8 <trap_handler_m___CLEAR_MTI>:
    410004d8:	08000293          	li	x5,128
    410004dc:	3442b073          	csrc	mip,x5
    410004e0:	30200073          	mret

00000000410004e4 <trap_handler_m___CLEAR_SEI>:
    410004e4:	20000293          	li	x5,512
    410004e8:	3442b073          	csrc	mip,x5
    410004ec:	30200073          	mret

00000000410004f0 <trap_handler_m___CLEAR_MEI>:
    410004f0:	000012b7          	lui	x5,0x1
    410004f4:	8002829b          	addiw	x5,x5,-2048 # 800 <XLEN+0x7c0>
    410004f8:	3442b073          	csrc	mip,x5
    410004fc:	30200073          	mret

0000000041000500 <trap_handler_m___CLEAR_COI>:
    41000500:	000022b7          	lui	x5,0x2
    41000504:	3442b073          	csrc	mip,x5
    41000508:	30200073          	mret

000000004100050c <trap_handler_m__clear_highest_priority_interrupt>:
    4100050c:	344022f3          	csrr	x5,mip
    41000510:	40500333          	neg	x6,x5
    41000514:	0062f2b3          	and	x5,x5,x6
    41000518:	3442b073          	csrc	mip,x5
    4100051c:	30200073          	mret

0000000041000520 <trap_handler_m__trap_entry>:
    41000520:	0fc0006f          	j	4100061c <trap_handler_m__trap_handler>

0000000041000524 <trap_handler_m__interrupt_vector_table>:
    41000524:	f91ff06f          	j	410004b4 <trap_handler_m___CLEAR_SSI>
    41000528:	f81ff06f          	j	410004a8 <trap_handler_m__invalid_interrupt>
    4100052c:	f95ff06f          	j	410004c0 <trap_handler_m___CLEAR_MSI>
    41000530:	f79ff06f          	j	410004a8 <trap_handler_m__invalid_interrupt>
    41000534:	f99ff06f          	j	410004cc <trap_handler_m___CLEAR_STI>
    41000538:	f71ff06f          	j	410004a8 <trap_handler_m__invalid_interrupt>
    4100053c:	f9dff06f          	j	410004d8 <trap_handler_m___CLEAR_MTI>
    41000540:	f69ff06f          	j	410004a8 <trap_handler_m__invalid_interrupt>
    41000544:	fa1ff06f          	j	410004e4 <trap_handler_m___CLEAR_SEI>
    41000548:	f61ff06f          	j	410004a8 <trap_handler_m__invalid_interrupt>
    4100054c:	fa5ff06f          	j	410004f0 <trap_handler_m___CLEAR_MEI>
    41000550:	f59ff06f          	j	410004a8 <trap_handler_m__invalid_interrupt>
    41000554:	fadff06f          	j	41000500 <trap_handler_m___CLEAR_COI>
    41000558:	f51ff06f          	j	410004a8 <trap_handler_m__invalid_interrupt>
    4100055c:	f4dff06f          	j	410004a8 <trap_handler_m__invalid_interrupt>
    41000560:	fadff06f          	j	4100050c <trap_handler_m__clear_highest_priority_interrupt>
    41000564:	fa9ff06f          	j	4100050c <trap_handler_m__clear_highest_priority_interrupt>
    41000568:	fa5ff06f          	j	4100050c <trap_handler_m__clear_highest_priority_interrupt>
    4100056c:	fa1ff06f          	j	4100050c <trap_handler_m__clear_highest_priority_interrupt>
    41000570:	f9dff06f          	j	4100050c <trap_handler_m__clear_highest_priority_interrupt>
    41000574:	f99ff06f          	j	4100050c <trap_handler_m__clear_highest_priority_interrupt>
    41000578:	f95ff06f          	j	4100050c <trap_handler_m__clear_highest_priority_interrupt>
    4100057c:	f91ff06f          	j	4100050c <trap_handler_m__clear_highest_priority_interrupt>
    41000580:	f8dff06f          	j	4100050c <trap_handler_m__clear_highest_priority_interrupt>
    41000584:	f89ff06f          	j	4100050c <trap_handler_m__clear_highest_priority_interrupt>
    41000588:	f85ff06f          	j	4100050c <trap_handler_m__clear_highest_priority_interrupt>
    4100058c:	f81ff06f          	j	4100050c <trap_handler_m__clear_highest_priority_interrupt>
    41000590:	f7dff06f          	j	4100050c <trap_handler_m__clear_highest_priority_interrupt>
    41000594:	f79ff06f          	j	4100050c <trap_handler_m__clear_highest_priority_interrupt>
    41000598:	f75ff06f          	j	4100050c <trap_handler_m__clear_highest_priority_interrupt>
    4100059c:	f71ff06f          	j	4100050c <trap_handler_m__clear_highest_priority_interrupt>
    410005a0:	f6dff06f          	j	4100050c <trap_handler_m__clear_highest_priority_interrupt>
    410005a4:	f69ff06f          	j	4100050c <trap_handler_m__clear_highest_priority_interrupt>
    410005a8:	f65ff06f          	j	4100050c <trap_handler_m__clear_highest_priority_interrupt>
    410005ac:	f61ff06f          	j	4100050c <trap_handler_m__clear_highest_priority_interrupt>
    410005b0:	f5dff06f          	j	4100050c <trap_handler_m__clear_highest_priority_interrupt>
    410005b4:	f59ff06f          	j	4100050c <trap_handler_m__clear_highest_priority_interrupt>
    410005b8:	f55ff06f          	j	4100050c <trap_handler_m__clear_highest_priority_interrupt>
    410005bc:	f51ff06f          	j	4100050c <trap_handler_m__clear_highest_priority_interrupt>
    410005c0:	f4dff06f          	j	4100050c <trap_handler_m__clear_highest_priority_interrupt>
    410005c4:	f49ff06f          	j	4100050c <trap_handler_m__clear_highest_priority_interrupt>
    410005c8:	f45ff06f          	j	4100050c <trap_handler_m__clear_highest_priority_interrupt>
    410005cc:	f41ff06f          	j	4100050c <trap_handler_m__clear_highest_priority_interrupt>
    410005d0:	f3dff06f          	j	4100050c <trap_handler_m__clear_highest_priority_interrupt>
    410005d4:	f39ff06f          	j	4100050c <trap_handler_m__clear_highest_priority_interrupt>
    410005d8:	f35ff06f          	j	4100050c <trap_handler_m__clear_highest_priority_interrupt>
    410005dc:	f31ff06f          	j	4100050c <trap_handler_m__clear_highest_priority_interrupt>
    410005e0:	f2dff06f          	j	4100050c <trap_handler_m__clear_highest_priority_interrupt>
    410005e4:	f29ff06f          	j	4100050c <trap_handler_m__clear_highest_priority_interrupt>
    410005e8:	f25ff06f          	j	4100050c <trap_handler_m__clear_highest_priority_interrupt>
    410005ec:	f21ff06f          	j	4100050c <trap_handler_m__clear_highest_priority_interrupt>
    410005f0:	f1dff06f          	j	4100050c <trap_handler_m__clear_highest_priority_interrupt>
    410005f4:	f19ff06f          	j	4100050c <trap_handler_m__clear_highest_priority_interrupt>
    410005f8:	f15ff06f          	j	4100050c <trap_handler_m__clear_highest_priority_interrupt>
    410005fc:	f11ff06f          	j	4100050c <trap_handler_m__clear_highest_priority_interrupt>
    41000600:	f0dff06f          	j	4100050c <trap_handler_m__clear_highest_priority_interrupt>
    41000604:	f09ff06f          	j	4100050c <trap_handler_m__clear_highest_priority_interrupt>
    41000608:	f05ff06f          	j	4100050c <trap_handler_m__clear_highest_priority_interrupt>
    4100060c:	f01ff06f          	j	4100050c <trap_handler_m__clear_highest_priority_interrupt>
    41000610:	efdff06f          	j	4100050c <trap_handler_m__clear_highest_priority_interrupt>
    41000614:	ef9ff06f          	j	4100050c <trap_handler_m__clear_highest_priority_interrupt>
    41000618:	ef5ff06f          	j	4100050c <trap_handler_m__clear_highest_priority_interrupt>

000000004100061c <trap_handler_m__trap_handler>:
    4100061c:	342022f3          	csrr	x5,mcause
    41000620:	fff0031b          	addiw	x6,x0,-1
    41000624:	03f31313          	slli	x6,x6,0x3f
    41000628:	00537333          	and	x6,x6,x5
    4100062c:	02030263          	beqz	x6,41000650 <trap_handler_m__exception_path>

0000000041000630 <trap_handler_m__interrupt_handler>:
    41000630:	fff0031b          	addiw	x6,x0,-1
    41000634:	03f31313          	slli	x6,x6,0x3f
    41000638:	0062c2b3          	xor	x5,x5,x6
    4100063c:	00000317          	auipc	x6,0x0
    41000640:	ee430313          	addi	x6,x6,-284 # 41000520 <trap_handler_m__trap_entry>
    41000644:	00229293          	slli	x5,x5,0x2
    41000648:	005302b3          	add	x5,x6,x5
    4100064c:	00028067          	jr	x5 # 2000 <mem23__pt_level3>

0000000041000650 <trap_handler_m__exception_path>:
    41000650:	34021273          	csrrw	x4,mscratch,x4
    41000654:	00000297          	auipc	x5,0x0
    41000658:	10828293          	addi	x5,x5,264 # 4100075c <trap_handler_m__trap_panic>
    4100065c:	30529073          	csrw	mtvec,x5
    41000660:	0040006f          	j	41000664 <trap_handler_m__excp_entry>

0000000041000664 <trap_handler_m__excp_entry>:
    41000664:	34202373          	csrr	x6,mcause
    41000668:	00800293          	li	x5,8
    4100066c:	00534863          	blt	x6,x5,4100067c <trap_handler_m__check_exception_label>
    41000670:	00b00293          	li	x5,11
    41000674:	0062c463          	blt	x5,x6,4100067c <trap_handler_m__check_exception_label>
    41000678:	a5dff06f          	j	410000d4 <syscalls__syscall_check_schedule_next_test>

000000004100067c <trap_handler_m__check_exception_label>:
    4100067c:	04623c23          	sd	x6,88(x4) # 58 <XLEN+0x18>
    41000680:	341022f3          	csrr	x5,mepc
    41000684:	02523423          	sd	x5,40(x4) # 28 <SECURE_ACCESS_PROBABILITY+0xa>
    41000688:	01820283          	lb	x5,24(x4) # 18 <STORE_GUEST_PAGE_FAULT+0x1>
    4100068c:	00029863          	bnez	x5,4100069c <trap_handler_m__check_excp>
    41000690:	00128293          	addi	x5,x5,1
    41000694:	00520c23          	sb	x5,24(x4) # 18 <STORE_GUEST_PAGE_FAULT+0x1>
    41000698:	0980006f          	j	41000730 <trap_handler_m__ecall_from_machine>

000000004100069c <trap_handler_m__check_excp>:
    4100069c:	06823283          	ld	x5,104(x4) # 68 <XLEN+0x28>
    410006a0:	06023423          	sd	x0,104(x4) # 68 <XLEN+0x28>
    410006a4:	00028663          	beqz	x5,410006b0 <trap_handler_m__skip_mode_check>
    410006a8:	00100393          	li	x7,1
    410006ac:	0e729463          	bne	x5,x7,41000794 <test_failed>

00000000410006b0 <trap_handler_m__skip_mode_check>:
    410006b0:	05023283          	ld	x5,80(x4) # 50 <XLEN+0x10>
    410006b4:	04023823          	sd	x0,80(x4) # 50 <XLEN+0x10>
    410006b8:	0c531e63          	bne	x6,x5,41000794 <test_failed>
    410006bc:	03823283          	ld	x5,56(x4) # 38 <SECURE_ACCESS_PROBABILITY+0x1a>
    410006c0:	02023c23          	sd	x0,56(x4) # 38 <SECURE_ACCESS_PROBABILITY+0x1a>
    410006c4:	06029463          	bnez	x5,4100072c <trap_handler_m__skip_gva_check>
    410006c8:	02023303          	ld	x6,32(x4) # 20 <SECURE_ACCESS_PROBABILITY+0x2>
    410006cc:	02023023          	sd	x0,32(x4) # 20 <SECURE_ACCESS_PROBABILITY+0x2>
    410006d0:	02823283          	ld	x5,40(x4) # 28 <SECURE_ACCESS_PROBABILITY+0xa>
    410006d4:	02023423          	sd	x0,40(x4) # 28 <SECURE_ACCESS_PROBABILITY+0xa>
    410006d8:	0a531e63          	bne	x6,x5,41000794 <test_failed>
    410006dc:	04023283          	ld	x5,64(x4) # 40 <XLEN>
    410006e0:	04023023          	sd	x0,64(x4) # 40 <XLEN>
    410006e4:	00028663          	beqz	x5,410006f0 <trap_handler_m__skip_nonzero_tval_check>

00000000410006e8 <trap_handler_m__nonzero_tval_check>:
    410006e8:	34302373          	csrr	x6,mtval
    410006ec:	0a531463          	bne	x6,x5,41000794 <test_failed>

00000000410006f0 <trap_handler_m__skip_nonzero_tval_check>:
    410006f0:	04823283          	ld	x5,72(x4) # 48 <XLEN+0x8>
    410006f4:	04023423          	sd	x0,72(x4) # 48 <XLEN+0x8>
    410006f8:	00028663          	beqz	x5,41000704 <trap_handler_m__skip_nonzero_htval_check>

00000000410006fc <trap_handler_m__nonzero_htval_check>:
    410006fc:	34b02373          	csrr	x6,0x34b
    41000700:	08531a63          	bne	x6,x5,41000794 <test_failed>

0000000041000704 <trap_handler_m__skip_nonzero_htval_check>:
    41000704:	06023283          	ld	x5,96(x4) # 60 <XLEN+0x20>
    41000708:	06023023          	sd	x0,96(x4) # 60 <XLEN+0x20>
    4100070c:	02028063          	beqz	x5,4100072c <trap_handler_m__skip_gva_check>

0000000041000710 <trap_handler_m__gva_check>:
    41000710:	30002373          	csrr	x6,mstatus
    41000714:	02635313          	srli	x6,x6,0x26
    41000718:	00137313          	andi	x6,x6,1
    4100071c:	06030c63          	beqz	x6,41000794 <test_failed>
    41000720:	0010031b          	addiw	x6,x0,1
    41000724:	02631313          	slli	x6,x6,0x26
    41000728:	30033073          	csrc	mstatus,x6

000000004100072c <trap_handler_m__skip_gva_check>:
    4100072c:	0040006f          	j	41000730 <trap_handler_m__ecall_from_machine>

0000000041000730 <trap_handler_m__ecall_from_machine>:
    41000730:	03023283          	ld	x5,48(x4) # 30 <SECURE_ACCESS_PROBABILITY+0x12>
    41000734:	02023823          	sd	x0,48(x4) # 30 <SECURE_ACCESS_PROBABILITY+0x12>
    41000738:	07023303          	ld	x6,112(x4) # 70 <XLEN+0x30>
    4100073c:	06023823          	sd	x0,112(x4) # 70 <XLEN+0x30>
    41000740:	00031463          	bnez	x6,41000748 <trap_handler_m__skip_xepc_write>
    41000744:	34129073          	csrw	mepc,x5

0000000041000748 <trap_handler_m__skip_xepc_write>:
    41000748:	00000317          	auipc	x6,0x0
    4100074c:	dd830313          	addi	x6,x6,-552 # 41000520 <trap_handler_m__trap_entry>
    41000750:	30531073          	csrw	mtvec,x6
    41000754:	34021273          	csrrw	x4,mscratch,x4
    41000758:	30200073          	mret

000000004100075c <trap_handler_m__trap_panic>:
    4100075c:	00000193          	li	x3,0
    41000760:	2b00006f          	j	41000a10 <eot__end_test>

0000000041000764 <enter_scheduler>:
    41000764:	0002f337          	lui	x6,0x2f
    41000768:	ab73031b          	addiw	x6,x6,-1353 # 2eab7 <mem40__pt_level2+0x4ab7>
    4100076c:	00e31313          	slli	x6,x6,0xe
    41000770:	0de30313          	addi	x6,x6,222
    41000774:	02628063          	beq	x5,x6,41000794 <test_failed>
    41000778:	00000513          	li	x10,0
    4100077c:	030000ef          	jal	410007ac <rvcp_print_test_result>
    41000780:	3140006f          	j	41000a94 <scheduler__dispatch>

0000000041000784 <test_passed>:
    41000784:	34021273          	csrrw	x4,mscratch,x4
    41000788:	00000513          	li	x10,0
    4100078c:	020000ef          	jal	410007ac <rvcp_print_test_result>
    41000790:	3040006f          	j	41000a94 <scheduler__dispatch>

0000000041000794 <test_failed>:
    41000794:	34021273          	csrrw	x4,mscratch,x4
    41000798:	00300193          	li	x3,3
    4100079c:	2740006f          	j	41000a10 <eot__end_test>

00000000410007a0 <os_end_test>:
    410007a0:	34021273          	csrrw	x4,mscratch,x4
    410007a4:	00100193          	li	x3,1
    410007a8:	2680006f          	j	41000a10 <eot__end_test>

00000000410007ac <rvcp_print_test_result>:
    410007ac:	00050e13          	mv	x28,x10
    410007b0:	18823283          	ld	x5,392(x4) # 188 <XLEN+0x148>
    410007b4:	0010031b          	addiw	x6,x0,1
    410007b8:	02031313          	slli	x6,x6,0x20
    410007bc:	ffe30313          	addi	x6,x6,-2
    410007c0:	1c628063          	beq	x5,x6,41000980 <rvcp_print_test_result+0x1d4>
    410007c4:	0010031b          	addiw	x6,x0,1
    410007c8:	02031313          	slli	x6,x6,0x20
    410007cc:	fff30313          	addi	x6,x6,-1
    410007d0:	1a628863          	beq	x5,x6,41000980 <rvcp_print_test_result+0x1d4>
    410007d4:	1a02c663          	bltz	x5,41000980 <rvcp_print_test_result+0x1d4>
    410007d8:	00000317          	auipc	x6,0x0
    410007dc:	46430313          	addi	x6,x6,1124 # 41000c3c <dtest_descriptor_table>
    410007e0:	00329393          	slli	x7,x5,0x3
    410007e4:	00730333          	add	x6,x6,x7
    410007e8:	00033e83          	ld	x29,0(x6)
    410007ec:	44f06f37          	lui	x30,0x44f06
    410007f0:	030f0f1b          	addiw	x30,x30,48 # 44f06030 <rvcp_prefix_str_pa>
    410007f4:	000f4283          	lbu	x5,0(x30)
    410007f8:	02028663          	beqz	x5,41000824 <rvcp_print_test_result+0x78>
    410007fc:	1010031b          	addiw	x6,x0,257
    41000800:	03031313          	slli	x6,x6,0x30
    41000804:	005362b3          	or	x5,x6,x5
    41000808:	0003f317          	auipc	x6,0x3f
    4100080c:	7f830313          	addi	x6,x6,2040 # 41040000 <tohost>
    41000810:	00033383          	ld	x7,0(x6)
    41000814:	fe039ee3          	bnez	x7,41000810 <rvcp_print_test_result+0x64>
    41000818:	00533023          	sd	x5,0(x6)
    4100081c:	001f0f13          	addi	x30,x30,1
    41000820:	fd5ff06f          	j	410007f4 <rvcp_print_test_result+0x48>
    41000824:	44f06f37          	lui	x30,0x44f06
    41000828:	041f0f1b          	addiw	x30,x30,65 # 44f06041 <rvcp_testname_str_pa>
    4100082c:	000f4283          	lbu	x5,0(x30)
    41000830:	02028663          	beqz	x5,4100085c <rvcp_print_test_result+0xb0>
    41000834:	1010031b          	addiw	x6,x0,257
    41000838:	03031313          	slli	x6,x6,0x30
    4100083c:	005362b3          	or	x5,x6,x5
    41000840:	0003f317          	auipc	x6,0x3f
    41000844:	7c030313          	addi	x6,x6,1984 # 41040000 <tohost>
    41000848:	00033383          	ld	x7,0(x6)
    4100084c:	fe039ee3          	bnez	x7,41000848 <rvcp_print_test_result+0x9c>
    41000850:	00533023          	sd	x5,0(x6)
    41000854:	001f0f13          	addi	x30,x30,1
    41000858:	fd5ff06f          	j	4100082c <rvcp_print_test_result+0x80>
    4100085c:	44f06f37          	lui	x30,0x44f06
    41000860:	05bf0f1b          	addiw	x30,x30,91 # 44f0605b <rvcp_space_str_pa>
    41000864:	000f4283          	lbu	x5,0(x30)
    41000868:	02028663          	beqz	x5,41000894 <rvcp_print_test_result+0xe8>
    4100086c:	1010031b          	addiw	x6,x0,257
    41000870:	03031313          	slli	x6,x6,0x30
    41000874:	005362b3          	or	x5,x6,x5
    41000878:	0003f317          	auipc	x6,0x3f
    4100087c:	78830313          	addi	x6,x6,1928 # 41040000 <tohost>
    41000880:	00033383          	ld	x7,0(x6)
    41000884:	fe039ee3          	bnez	x7,41000880 <rvcp_print_test_result+0xd4>
    41000888:	00533023          	sd	x5,0(x6)
    4100088c:	001f0f13          	addi	x30,x30,1
    41000890:	fd5ff06f          	j	41000864 <rvcp_print_test_result+0xb8>
    41000894:	000e8f13          	mv	x30,x29
    41000898:	000f4283          	lbu	x5,0(x30)
    4100089c:	02028663          	beqz	x5,410008c8 <rvcp_print_test_result+0x11c>
    410008a0:	1010031b          	addiw	x6,x0,257
    410008a4:	03031313          	slli	x6,x6,0x30
    410008a8:	005362b3          	or	x5,x6,x5
    410008ac:	0003f317          	auipc	x6,0x3f
    410008b0:	75430313          	addi	x6,x6,1876 # 41040000 <tohost>
    410008b4:	00033383          	ld	x7,0(x6)
    410008b8:	fe039ee3          	bnez	x7,410008b4 <rvcp_print_test_result+0x108>
    410008bc:	00533023          	sd	x5,0(x6)
    410008c0:	001f0f13          	addi	x30,x30,1
    410008c4:	fd5ff06f          	j	41000898 <rvcp_print_test_result+0xec>
    410008c8:	44f06f37          	lui	x30,0x44f06
    410008cc:	05bf0f1b          	addiw	x30,x30,91 # 44f0605b <rvcp_space_str_pa>
    410008d0:	000f4283          	lbu	x5,0(x30)
    410008d4:	02028663          	beqz	x5,41000900 <rvcp_print_test_result+0x154>
    410008d8:	1010031b          	addiw	x6,x0,257
    410008dc:	03031313          	slli	x6,x6,0x30
    410008e0:	005362b3          	or	x5,x6,x5
    410008e4:	0003f317          	auipc	x6,0x3f
    410008e8:	71c30313          	addi	x6,x6,1820 # 41040000 <tohost>
    410008ec:	00033383          	ld	x7,0(x6)
    410008f0:	fe039ee3          	bnez	x7,410008ec <rvcp_print_test_result+0x140>
    410008f4:	00533023          	sd	x5,0(x6)
    410008f8:	001f0f13          	addi	x30,x30,1
    410008fc:	fd5ff06f          	j	410008d0 <rvcp_print_test_result+0x124>
    41000900:	000e1863          	bnez	x28,41000910 <rvcp_print_test_result+0x164>
    41000904:	44f06f37          	lui	x30,0x44f06
    41000908:	04df0f1b          	addiw	x30,x30,77 # 44f0604d <rvcp_passed_str_pa>
    4100090c:	00c0006f          	j	41000918 <rvcp_print_test_result+0x16c>
    41000910:	44f06f37          	lui	x30,0x44f06
    41000914:	054f0f1b          	addiw	x30,x30,84 # 44f06054 <rvcp_failed_str_pa>
    41000918:	000f4283          	lbu	x5,0(x30)
    4100091c:	02028663          	beqz	x5,41000948 <rvcp_print_test_result+0x19c>
    41000920:	1010031b          	addiw	x6,x0,257
    41000924:	03031313          	slli	x6,x6,0x30
    41000928:	005362b3          	or	x5,x6,x5
    4100092c:	0003f317          	auipc	x6,0x3f
    41000930:	6d430313          	addi	x6,x6,1748 # 41040000 <tohost>
    41000934:	00033383          	ld	x7,0(x6)
    41000938:	fe039ee3          	bnez	x7,41000934 <rvcp_print_test_result+0x188>
    4100093c:	00533023          	sd	x5,0(x6)
    41000940:	001f0f13          	addi	x30,x30,1
    41000944:	fd5ff06f          	j	41000918 <rvcp_print_test_result+0x16c>
    41000948:	44f06f37          	lui	x30,0x44f06
    4100094c:	05df0f1b          	addiw	x30,x30,93 # 44f0605d <rvcp_newline_str_pa>
    41000950:	000f4283          	lbu	x5,0(x30)
    41000954:	02028663          	beqz	x5,41000980 <rvcp_print_test_result+0x1d4>
    41000958:	1010031b          	addiw	x6,x0,257
    4100095c:	03031313          	slli	x6,x6,0x30
    41000960:	005362b3          	or	x5,x6,x5
    41000964:	0003f317          	auipc	x6,0x3f
    41000968:	69c30313          	addi	x6,x6,1692 # 41040000 <tohost>
    4100096c:	00033383          	ld	x7,0(x6)
    41000970:	fe039ee3          	bnez	x7,4100096c <rvcp_print_test_result+0x1c0>
    41000974:	00533023          	sd	x5,0(x6)
    41000978:	001f0f13          	addi	x30,x30,1
    4100097c:	fd5ff06f          	j	41000950 <rvcp_print_test_result+0x1a4>
    41000980:	00008067          	ret

0000000041000984 <os_rng_orig>:
    41000984:	f14023f3          	csrr	x7,mhartid
    41000988:	00068313          	mv	x6,x13
    4100098c:	026383b3          	mul	x7,x7,x6
    41000990:	00058313          	mv	x6,x11
    41000994:	00730333          	add	x6,x6,x7
    41000998:	00033283          	ld	x5,0(x6)
    4100099c:	01529313          	slli	x6,x5,0x15
    410009a0:	0062c2b3          	xor	x5,x5,x6
    410009a4:	0232d313          	srli	x6,x5,0x23
    410009a8:	0062c2b3          	xor	x5,x5,x6
    410009ac:	00429313          	slli	x6,x5,0x4
    410009b0:	0062c2b3          	xor	x5,x5,x6
    410009b4:	00058313          	mv	x6,x11
    410009b8:	00730333          	add	x6,x6,x7
    410009bc:	00533023          	sd	x5,0(x6)
    410009c0:	00060313          	mv	x6,x12
    410009c4:	0262f2b3          	remu	x5,x5,x6
    410009c8:	00028513          	mv	x10,x5
    410009cc:	00008067          	ret
    410009d0:	02a00513          	li	x10,42
    410009d4:	001965b7          	lui	x11,0x196
    410009d8:	60d5859b          	addiw	x11,x11,1549 # 19660d <mem35__pt_level2+0x4f60d>
    410009dc:	3c6ef637          	lui	x12,0x3c6ef
    410009e0:	35f6061b          	addiw	x12,x12,863 # 3c6ef35f <mem33__pt_level3+0x3e8135f>
    410009e4:	02200693          	li	x13,34
    410009e8:	02b50533          	mul	x10,x10,x11
    410009ec:	00c50533          	add	x10,x10,x12
    410009f0:	02d56533          	rem	x10,x10,x13
    410009f4:	00b00593          	li	x11,11
    410009f8:	02b56533          	rem	x10,x10,x11
    410009fc:	00008067          	ret

0000000041000a00 <tohost_mutex>:
	...

0000000041000a08 <tohost_addr_mem>:
    41000a08:	0000                	.insn	2, 0x0000
    41000a0a:	4104                	.insn	2, 0x4104
    41000a0c:	0000                	.insn	2, 0x0000
	...

0000000041000a10 <eot__end_test>:
    41000a10:	00100293          	li	x5,1
    41000a14:	00328463          	beq	x5,x3,41000a1c <eot__passed>
    41000a18:	01c0006f          	j	41000a34 <eot__failed>

0000000041000a1c <eot__passed>:
    41000a1c:	0ff0000f          	fence
    41000a20:	00000297          	auipc	x5,0x0
    41000a24:	fe82b283          	ld	x5,-24(x5) # 41000a08 <tohost_addr_mem>
    41000a28:	00100313          	li	x6,1
    41000a2c:	0062a023          	sw	x6,0(x5)
    41000a30:	0240006f          	j	41000a54 <eot__halt>

0000000041000a34 <eot__failed>:
    41000a34:	00100513          	li	x10,1
    41000a38:	d75ff0ef          	jal	410007ac <rvcp_print_test_result>
    41000a3c:	0ff0000f          	fence
    41000a40:	00000297          	auipc	x5,0x0
    41000a44:	fc82b283          	ld	x5,-56(x5) # 41000a08 <tohost_addr_mem>
    41000a48:	00300313          	li	x6,3
    41000a4c:	0062a023          	sw	x6,0(x5)
    41000a50:	0040006f          	j	41000a54 <eot__halt>

0000000041000a54 <eot__halt>:
    41000a54:	10500073          	wfi
    41000a58:	ffdff06f          	j	41000a54 <eot__halt>

0000000041000a5c <scheduler__init>:
    41000a5c:	00000297          	auipc	x5,0x0
    41000a60:	0bc28293          	addi	x5,x5,188 # 41000b18 <scheduler__panic>
    41000a64:	305292f3          	csrrw	x5,mtvec,x5
    41000a68:	18523023          	sd	x5,384(x4) # 180 <XLEN+0x140>
    41000a6c:	02200293          	li	x5,34
    41000a70:	18523823          	sd	x5,400(x4) # 190 <XLEN+0x150>
    41000a74:	0010029b          	addiw	x5,x0,1
    41000a78:	02029293          	slli	x5,x5,0x20
    41000a7c:	ffe28293          	addi	x5,x5,-2
    41000a80:	18523423          	sd	x5,392(x4) # 188 <XLEN+0x148>
    41000a84:	00001317          	auipc	x6,0x1
    41000a88:	86830313          	addi	x6,x6,-1944 # 410012ec <scheduler__test_setup_ptr>
    41000a8c:	00033303          	ld	x6,0(x6)
    41000a90:	0600006f          	j	41000af0 <scheduler__execute_test>

0000000041000a94 <scheduler__dispatch>:
    41000a94:	00000297          	auipc	x5,0x0
    41000a98:	08428293          	addi	x5,x5,132 # 41000b18 <scheduler__panic>
    41000a9c:	305292f3          	csrrw	x5,mtvec,x5
    41000aa0:	18523023          	sd	x5,384(x4) # 180 <XLEN+0x140>

0000000041000aa4 <scheduler__csr_read_randomization>:
    41000aa4:	f11022f3          	csrr	x5,mvendorid
    41000aa8:	142022f3          	csrr	x5,scause
    41000aac:	142022f3          	csrr	x5,scause
    41000ab0:	10a022f3          	csrr	x5,0x10a

0000000041000ab4 <scheduler__load_num_runs>:
    41000ab4:	19023303          	ld	x6,400(x4) # 190 <XLEN+0x150>
    41000ab8:	04030c63          	beqz	x6,41000b10 <scheduler__finished>

0000000041000abc <scheduler__decrement_num_runs>:
    41000abc:	fff30393          	addi	x7,x6,-1
    41000ac0:	18723823          	sd	x7,400(x4) # 190 <XLEN+0x150>
    41000ac4:	00000e17          	auipc	x28,0x0
    41000ac8:	7a0e0e13          	addi	x28,x28,1952 # 41001264 <dtest_index_map>
    41000acc:	00239e93          	slli	x29,x7,0x2
    41000ad0:	01de0e33          	add	x28,x28,x29
    41000ad4:	000e2e03          	lw	x28,0(x28)
    41000ad8:	19c23423          	sd	x28,392(x4) # 188 <XLEN+0x148>

0000000041000adc <scheduler__calc_test_pointer>:
    41000adc:	00339293          	slli	x5,x7,0x3

0000000041000ae0 <scheduler__load_test_addr>:
    41000ae0:	00000317          	auipc	x6,0x0
    41000ae4:	04c30313          	addi	x6,x6,76 # 41000b2c <os_test_sequence>
    41000ae8:	006282b3          	add	x5,x5,x6
    41000aec:	0002b303          	ld	x6,0(x5)

0000000041000af0 <scheduler__execute_test>:
    41000af0:	18023283          	ld	x5,384(x4) # 180 <XLEN+0x140>
    41000af4:	30529073          	csrw	mtvec,x5
    41000af8:	34021273          	csrrw	x4,mscratch,x4
    41000afc:	00000213          	li	x4,0
    41000b00:	14131073          	csrw	sepc,x6
    41000b04:	10000293          	li	x5,256
    41000b08:	1002a073          	csrs	sstatus,x5
    41000b0c:	10200073          	sret

0000000041000b10 <scheduler__finished>:
    41000b10:	00100193          	li	x3,1
    41000b14:	efdff06f          	j	41000a10 <eot__end_test>

0000000041000b18 <scheduler__panic>:
    41000b18:	00000193          	li	x3,0
    41000b1c:	ef5ff06f          	j	41000a10 <eot__end_test>
    41000b20:	0000                	.insn	2, 0x0000
	...

0000000041000b24 <num_runs>:
    41000b24:	0022                	.insn	2, 0x0022
    41000b26:	0000                	.insn	2, 0x0000
    41000b28:	0000                	.insn	2, 0x0000
	...

0000000041000b2c <os_test_sequence>:
    41000b2c:	7014                	.insn	2, 0x7014
    41000b2e:	4101                	.insn	2, 0x4101
    41000b30:	0000                	.insn	2, 0x0000
    41000b32:	0000                	.insn	2, 0x0000
    41000b34:	4234                	.insn	2, 0x4234
    41000b36:	4101                	.insn	2, 0x4101
    41000b38:	0000                	.insn	2, 0x0000
    41000b3a:	0000                	.insn	2, 0x0000
    41000b3c:	5434                	.insn	2, 0x5434
    41000b3e:	4101                	.insn	2, 0x4101
    41000b40:	0000                	.insn	2, 0x0000
    41000b42:	0000                	.insn	2, 0x0000
    41000b44:	4c0c                	.insn	2, 0x4c0c
    41000b46:	4101                	.insn	2, 0x4101
    41000b48:	0000                	.insn	2, 0x0000
    41000b4a:	0000                	.insn	2, 0x0000
    41000b4c:	6e98                	.insn	2, 0x6e98
    41000b4e:	4101                	.insn	2, 0x4101
    41000b50:	0000                	.insn	2, 0x0000
    41000b52:	0000                	.insn	2, 0x0000
    41000b54:	6abc                	.insn	2, 0x6abc
    41000b56:	4101                	.insn	2, 0x4101
    41000b58:	0000                	.insn	2, 0x0000
    41000b5a:	0000                	.insn	2, 0x0000
    41000b5c:	5e0c                	.insn	2, 0x5e0c
    41000b5e:	4101                	.insn	2, 0x4101
    41000b60:	0000                	.insn	2, 0x0000
    41000b62:	0000                	.insn	2, 0x0000
    41000b64:	4838                	.insn	2, 0x4838
    41000b66:	4101                	.insn	2, 0x4101
    41000b68:	0000                	.insn	2, 0x0000
    41000b6a:	0000                	.insn	2, 0x0000
    41000b6c:	5298                	.insn	2, 0x5298
    41000b6e:	4101                	.insn	2, 0x4101
    41000b70:	0000                	.insn	2, 0x0000
    41000b72:	0000                	.insn	2, 0x0000
    41000b74:	4590                	.insn	2, 0x4590
    41000b76:	4101                	.insn	2, 0x4101
    41000b78:	0000                	.insn	2, 0x0000
    41000b7a:	0000                	.insn	2, 0x0000
    41000b7c:	41e0                	.insn	2, 0x41e0
    41000b7e:	4101                	.insn	2, 0x4101
    41000b80:	0000                	.insn	2, 0x0000
    41000b82:	0000                	.insn	2, 0x0000
    41000b84:	4b20                	.insn	2, 0x4b20
    41000b86:	4101                	.insn	2, 0x4101
    41000b88:	0000                	.insn	2, 0x0000
    41000b8a:	0000                	.insn	2, 0x0000
    41000b8c:	5a68                	.insn	2, 0x5a68
    41000b8e:	4101                	.insn	2, 0x4101
    41000b90:	0000                	.insn	2, 0x0000
    41000b92:	0000                	.insn	2, 0x0000
    41000b94:	5648                	.insn	2, 0x5648
    41000b96:	4101                	.insn	2, 0x4101
    41000b98:	0000                	.insn	2, 0x0000
    41000b9a:	0000                	.insn	2, 0x0000
    41000b9c:	4e08                	.insn	2, 0x4e08
    41000b9e:	4101                	.insn	2, 0x4101
    41000ba0:	0000                	.insn	2, 0x0000
    41000ba2:	0000                	.insn	2, 0x0000
    41000ba4:	6f40                	.insn	2, 0x6f40
    41000ba6:	4101                	.insn	2, 0x4101
    41000ba8:	0000                	.insn	2, 0x0000
    41000baa:	0000                	.insn	2, 0x0000
    41000bac:	6978                	.insn	2, 0x6978
    41000bae:	4101                	.insn	2, 0x4101
    41000bb0:	0000                	.insn	2, 0x0000
    41000bb2:	0000                	.insn	2, 0x0000
    41000bb4:	56a0                	.insn	2, 0x56a0
    41000bb6:	4101                	.insn	2, 0x4101
    41000bb8:	0000                	.insn	2, 0x0000
    41000bba:	0000                	.insn	2, 0x0000
    41000bbc:	509c                	.insn	2, 0x509c
    41000bbe:	4101                	.insn	2, 0x4101
    41000bc0:	0000                	.insn	2, 0x0000
    41000bc2:	0000                	.insn	2, 0x0000
    41000bc4:	6078                	.insn	2, 0x6078
    41000bc6:	4101                	.insn	2, 0x4101
    41000bc8:	0000                	.insn	2, 0x0000
    41000bca:	0000                	.insn	2, 0x0000
    41000bcc:	4170                	.insn	2, 0x4170
    41000bce:	4101                	.insn	2, 0x4101
    41000bd0:	0000                	.insn	2, 0x0000
    41000bd2:	0000                	.insn	2, 0x0000
    41000bd4:	6658                	.insn	2, 0x6658
    41000bd6:	4101                	.insn	2, 0x4101
    41000bd8:	0000                	.insn	2, 0x0000
    41000bda:	0000                	.insn	2, 0x0000
    41000bdc:	6cf0                	.insn	2, 0x6cf0
    41000bde:	4101                	.insn	2, 0x4101
    41000be0:	0000                	.insn	2, 0x0000
    41000be2:	0000                	.insn	2, 0x0000
    41000be4:	46c8                	.insn	2, 0x46c8
    41000be6:	4101                	.insn	2, 0x4101
    41000be8:	0000                	.insn	2, 0x0000
    41000bea:	0000                	.insn	2, 0x0000
    41000bec:	4f24                	.insn	2, 0x4f24
    41000bee:	4101                	.insn	2, 0x4101
    41000bf0:	0000                	.insn	2, 0x0000
    41000bf2:	0000                	.insn	2, 0x0000
    41000bf4:	58c8                	.insn	2, 0x58c8
    41000bf6:	4101                	.insn	2, 0x4101
    41000bf8:	0000                	.insn	2, 0x0000
    41000bfa:	0000                	.insn	2, 0x0000
    41000bfc:	6b84                	.insn	2, 0x6b84
    41000bfe:	4101                	.insn	2, 0x4101
    41000c00:	0000                	.insn	2, 0x0000
    41000c02:	0000                	.insn	2, 0x0000
    41000c04:	5144                	.insn	2, 0x5144
    41000c06:	4101                	.insn	2, 0x4101
    41000c08:	0000                	.insn	2, 0x0000
    41000c0a:	0000                	.insn	2, 0x0000
    41000c0c:	6408                	.insn	2, 0x6408
    41000c0e:	4101                	.insn	2, 0x4101
    41000c10:	0000                	.insn	2, 0x0000
    41000c12:	0000                	.insn	2, 0x0000
    41000c14:	51d4                	.insn	2, 0x51d4
    41000c16:	4101                	.insn	2, 0x4101
    41000c18:	0000                	.insn	2, 0x0000
    41000c1a:	0000                	.insn	2, 0x0000
    41000c1c:	42d4                	.insn	2, 0x42d4
    41000c1e:	4101                	.insn	2, 0x4101
    41000c20:	0000                	.insn	2, 0x0000
    41000c22:	0000                	.insn	2, 0x0000
    41000c24:	6f88                	.insn	2, 0x6f88
    41000c26:	4101                	.insn	2, 0x4101
    41000c28:	0000                	.insn	2, 0x0000
    41000c2a:	0000                	.insn	2, 0x0000
    41000c2c:	438c                	.insn	2, 0x438c
    41000c2e:	4101                	.insn	2, 0x4101
    41000c30:	0000                	.insn	2, 0x0000
    41000c32:	0000                	.insn	2, 0x0000
    41000c34:	48e8                	.insn	2, 0x48e8
    41000c36:	4101                	.insn	2, 0x4101
    41000c38:	0000                	.insn	2, 0x0000
	...

0000000041000c3c <dtest_descriptor_table>:
    41000c3c:	0d44                	.insn	2, 0x0d44
    41000c3e:	4100                	.insn	2, 0x4100
    41000c40:	0000                	.insn	2, 0x0000
    41000c42:	0000                	.insn	2, 0x0000
    41000c44:	0d71                	.insn	2, 0x0d71
    41000c46:	4100                	.insn	2, 0x4100
    41000c48:	0000                	.insn	2, 0x0000
    41000c4a:	0000                	.insn	2, 0x0000
    41000c4c:	41000d97          	auipc	x27,0x41000
    41000c50:	0000                	.insn	2, 0x0000
    41000c52:	0000                	.insn	2, 0x0000
    41000c54:	0dc0                	.insn	2, 0x0dc0
    41000c56:	4100                	.insn	2, 0x4100
    41000c58:	0000                	.insn	2, 0x0000
    41000c5a:	0000                	.insn	2, 0x0000
    41000c5c:	0de6                	.insn	2, 0x0de6
    41000c5e:	4100                	.insn	2, 0x4100
    41000c60:	0000                	.insn	2, 0x0000
    41000c62:	0000                	.insn	2, 0x0000
    41000c64:	0e0e                	.insn	2, 0x0e0e
    41000c66:	4100                	.insn	2, 0x4100
    41000c68:	0000                	.insn	2, 0x0000
    41000c6a:	0000                	.insn	2, 0x0000
    41000c6c:	0e38                	.insn	2, 0x0e38
    41000c6e:	4100                	.insn	2, 0x4100
    41000c70:	0000                	.insn	2, 0x0000
    41000c72:	0000                	.insn	2, 0x0000
    41000c74:	0e5f 4100 0000      	.insn	6, 0x41000e5f
    41000c7a:	0000                	.insn	2, 0x0000
    41000c7c:	0e86                	.insn	2, 0x0e86
    41000c7e:	4100                	.insn	2, 0x4100
    41000c80:	0000                	.insn	2, 0x0000
    41000c82:	0000                	.insn	2, 0x0000
    41000c84:	0ea4                	.insn	2, 0x0ea4
    41000c86:	4100                	.insn	2, 0x4100
    41000c88:	0000                	.insn	2, 0x0000
    41000c8a:	0000                	.insn	2, 0x0000
    41000c8c:	0ec6                	.insn	2, 0x0ec6
    41000c8e:	4100                	.insn	2, 0x4100
    41000c90:	0000                	.insn	2, 0x0000
    41000c92:	0000                	.insn	2, 0x0000
    41000c94:	0eec                	.insn	2, 0x0eec
    41000c96:	4100                	.insn	2, 0x4100
    41000c98:	0000                	.insn	2, 0x0000
    41000c9a:	0000                	.insn	2, 0x0000
    41000c9c:	0f0d                	.insn	2, 0x0f0d
    41000c9e:	4100                	.insn	2, 0x4100
    41000ca0:	0000                	.insn	2, 0x0000
    41000ca2:	0000                	.insn	2, 0x0000
    41000ca4:	41000f2f          	.insn	4, 0x41000f2f
    41000ca8:	0000                	.insn	2, 0x0000
    41000caa:	0000                	.insn	2, 0x0000
    41000cac:	0f54                	.insn	2, 0x0f54
    41000cae:	4100                	.insn	2, 0x4100
    41000cb0:	0000                	.insn	2, 0x0000
    41000cb2:	0000                	.insn	2, 0x0000
    41000cb4:	0f79                	.insn	2, 0x0f79
    41000cb6:	4100                	.insn	2, 0x4100
    41000cb8:	0000                	.insn	2, 0x0000
    41000cba:	0000                	.insn	2, 0x0000
    41000cbc:	0f9e                	.insn	2, 0x0f9e
    41000cbe:	4100                	.insn	2, 0x4100
    41000cc0:	0000                	.insn	2, 0x0000
    41000cc2:	0000                	.insn	2, 0x0000
    41000cc4:	0fc4                	.insn	2, 0x0fc4
    41000cc6:	4100                	.insn	2, 0x4100
    41000cc8:	0000                	.insn	2, 0x0000
    41000cca:	0000                	.insn	2, 0x0000
    41000ccc:	0fe1                	.insn	2, 0x0fe1
    41000cce:	4100                	.insn	2, 0x4100
    41000cd0:	0000                	.insn	2, 0x0000
    41000cd2:	0000                	.insn	2, 0x0000
    41000cd4:	100a                	.insn	2, 0x100a
    41000cd6:	4100                	.insn	2, 0x4100
    41000cd8:	0000                	.insn	2, 0x0000
    41000cda:	0000                	.insn	2, 0x0000
    41000cdc:	103d                	.insn	2, 0x103d
    41000cde:	4100                	.insn	2, 0x4100
    41000ce0:	0000                	.insn	2, 0x0000
    41000ce2:	0000                	.insn	2, 0x0000
    41000ce4:	1064                	.insn	2, 0x1064
    41000ce6:	4100                	.insn	2, 0x4100
    41000ce8:	0000                	.insn	2, 0x0000
    41000cea:	0000                	.insn	2, 0x0000
    41000cec:	108c                	.insn	2, 0x108c
    41000cee:	4100                	.insn	2, 0x4100
    41000cf0:	0000                	.insn	2, 0x0000
    41000cf2:	0000                	.insn	2, 0x0000
    41000cf4:	10b5                	.insn	2, 0x10b5
    41000cf6:	4100                	.insn	2, 0x4100
    41000cf8:	0000                	.insn	2, 0x0000
    41000cfa:	0000                	.insn	2, 0x0000
    41000cfc:	10dc                	.insn	2, 0x10dc
    41000cfe:	4100                	.insn	2, 0x4100
    41000d00:	0000                	.insn	2, 0x0000
    41000d02:	0000                	.insn	2, 0x0000
    41000d04:	1108                	.insn	2, 0x1108
    41000d06:	4100                	.insn	2, 0x4100
    41000d08:	0000                	.insn	2, 0x0000
    41000d0a:	0000                	.insn	2, 0x0000
    41000d0c:	1134                	.insn	2, 0x1134
    41000d0e:	4100                	.insn	2, 0x4100
    41000d10:	0000                	.insn	2, 0x0000
    41000d12:	0000                	.insn	2, 0x0000
    41000d14:	1159                	.insn	2, 0x1159
    41000d16:	4100                	.insn	2, 0x4100
    41000d18:	0000                	.insn	2, 0x0000
    41000d1a:	0000                	.insn	2, 0x0000
    41000d1c:	1189                	.insn	2, 0x1189
    41000d1e:	4100                	.insn	2, 0x4100
    41000d20:	0000                	.insn	2, 0x0000
    41000d22:	0000                	.insn	2, 0x0000
    41000d24:	11ae                	.insn	2, 0x11ae
    41000d26:	4100                	.insn	2, 0x4100
    41000d28:	0000                	.insn	2, 0x0000
    41000d2a:	0000                	.insn	2, 0x0000
    41000d2c:	11d6                	.insn	2, 0x11d6
    41000d2e:	4100                	.insn	2, 0x4100
    41000d30:	0000                	.insn	2, 0x0000
    41000d32:	0000                	.insn	2, 0x0000
    41000d34:	1206                	.insn	2, 0x1206
    41000d36:	4100                	.insn	2, 0x4100
    41000d38:	0000                	.insn	2, 0x0000
    41000d3a:	0000                	.insn	2, 0x0000
    41000d3c:	1232                	.insn	2, 0x1232
    41000d3e:	4100                	.insn	2, 0x4100
    41000d40:	0000                	.insn	2, 0x0000
	...

0000000041000d44 <dtest_name_0>:
    41000d44:	5f444953          	.insn	4, 0x5f444953
    41000d48:	4250                	.insn	2, 0x4250
    41000d4a:	4d56                	.insn	2, 0x4d56
    41000d4c:	30305f53          	.insn	4, 0x30305f53
    41000d50:	5f31                	.insn	2, 0x5f31
    41000d52:	7470                	.insn	2, 0x7470
    41000d54:	6f6e5f77          	.insn	4, 0x6f6e5f77
    41000d58:	665f 7561 746c      	.insn	6, 0x746c7561665f
    41000d5e:	6c615f73          	csrrwi	x30,0x6c6,2
    41000d62:	5f6c                	.insn	2, 0x5f6c
    41000d64:	6361                	.insn	2, 0x6361
    41000d66:	73736563          	bltu	x6,x23,41001490 <scheduler__test_cleanup_ptr+0x19c>
    41000d6a:	745f 7079 7365      	.insn	6, 0x73657079745f
	...

0000000041000d71 <dtest_name_1>:
    41000d71:	5f444953          	.insn	4, 0x5f444953
    41000d75:	4250                	.insn	2, 0x4250
    41000d77:	4d56                	.insn	2, 0x4d56
    41000d79:	30305f53          	.insn	4, 0x30305f53
    41000d7d:	74705f33          	.insn	4, 0x74705f33
    41000d81:	6c615f77          	.insn	4, 0x6c615f77
    41000d85:	5f6c                	.insn	2, 0x5f6c
    41000d87:	7270                	.insn	2, 0x7270
    41000d89:	7669                	.insn	2, 0x7669
    41000d8b:	6c69                	.insn	2, 0x6c69
    41000d8d:	6765                	.insn	2, 0x6765
    41000d8f:	5f65                	.insn	2, 0x5f65
    41000d91:	6f6d                	.insn	2, 0x6f6d
    41000d93:	6564                	.insn	2, 0x6564
    41000d95:	          	.insn	4, 0x49530073

0000000041000d97 <dtest_name_2>:
    41000d97:	5f444953          	.insn	4, 0x5f444953
    41000d9b:	4250                	.insn	2, 0x4250
    41000d9d:	4d56                	.insn	2, 0x4d56
    41000d9f:	30305f53          	.insn	4, 0x30305f53
    41000da3:	5f36                	.insn	2, 0x5f36
    41000da5:	7470                	.insn	2, 0x7470
    41000da7:	61705f77          	.insn	4, 0x61705f77
    41000dab:	625f6567          	.insn	4, 0x625f6567
    41000daf:	646e756f          	jal	x10,410e83f5 <__section__code_212+0x3f5>
    41000db3:	7261                	.insn	2, 0x7261
    41000db5:	5f79                	.insn	2, 0x5f79
    41000db7:	736f7263          	bgeu	x30,x22,410014db <scheduler__test_cleanup_ptr+0x1e7>
    41000dbb:	676e6973          	csrrsi	x18,0x676,28
	...

0000000041000dc0 <dtest_name_3>:
    41000dc0:	5f444953          	.insn	4, 0x5f444953
    41000dc4:	4250                	.insn	2, 0x4250
    41000dc6:	4d56                	.insn	2, 0x4d56
    41000dc8:	30305f53          	.insn	4, 0x30305f53
    41000dcc:	5f38                	.insn	2, 0x5f38
    41000dce:	6176                	.insn	2, 0x6176
    41000dd0:	735f 6769 5f6e      	.insn	6, 0x5f6e6769735f
    41000dd6:	7865                	.insn	2, 0x7865
    41000dd8:	6574                	.insn	2, 0x6574
    41000dda:	736e                	.insn	2, 0x736e
    41000ddc:	6f69                	.insn	2, 0x6f69
    41000dde:	5f6e                	.insn	2, 0x5f6e
    41000de0:	6166                	.insn	2, 0x6166
    41000de2:	6c75                	.insn	2, 0x6c75
    41000de4:	0074                	.insn	2, 0x0074

0000000041000de6 <dtest_name_4>:
    41000de6:	5f444953          	.insn	4, 0x5f444953
    41000dea:	4250                	.insn	2, 0x4250
    41000dec:	4d56                	.insn	2, 0x4d56
    41000dee:	30305f53          	.insn	4, 0x30305f53
    41000df2:	5f39                	.insn	2, 0x5f39
    41000df4:	65707573          	csrrci	x10,hviprio2h,0
    41000df8:	7072                	.insn	2, 0x7072
    41000dfa:	6761                	.insn	2, 0x6761
    41000dfc:	5f65                	.insn	2, 0x5f65
    41000dfe:	6c61                	.insn	2, 0x6c61
    41000e00:	6769                	.insn	2, 0x6769
    41000e02:	6d6e                	.insn	2, 0x6d6e
    41000e04:	6e65                	.insn	2, 0x6e65
    41000e06:	5f74                	.insn	2, 0x5f74
    41000e08:	6166                	.insn	2, 0x6166
    41000e0a:	6c75                	.insn	2, 0x6c75
    41000e0c:	0074                	.insn	2, 0x0074

0000000041000e0e <dtest_name_5>:
    41000e0e:	5f444953          	.insn	4, 0x5f444953
    41000e12:	4250                	.insn	2, 0x4250
    41000e14:	4d56                	.insn	2, 0x4d56
    41000e16:	31305f53          	.insn	4, 0x31305f53
    41000e1a:	5f31                	.insn	2, 0x5f31
    41000e1c:	7470                	.insn	2, 0x7470
    41000e1e:	61665f77          	.insn	4, 0x61665f77
    41000e22:	6c75                	.insn	2, 0x6c75
    41000e24:	5f74                	.insn	2, 0x5f74
    41000e26:	6f62                	.insn	2, 0x6f62
    41000e28:	6e75                	.insn	2, 0x6e75
    41000e2a:	6164                	.insn	2, 0x6164
    41000e2c:	7972                	.insn	2, 0x7972
    41000e2e:	635f 6f72 7373      	.insn	6, 0x73736f72635f
    41000e34:	6e69                	.insn	2, 0x6e69
    41000e36:	          	jr	1173(x6)

0000000041000e38 <dtest_name_6>:
    41000e38:	5f444953          	.insn	4, 0x5f444953
    41000e3c:	4250                	.insn	2, 0x4250
    41000e3e:	4d56                	.insn	2, 0x4d56
    41000e40:	31305f53          	.insn	4, 0x31305f53
    41000e44:	5f32                	.insn	2, 0x5f32
    41000e46:	7470                	.insn	2, 0x7470
    41000e48:	61665f77          	.insn	4, 0x61665f77
    41000e4c:	6c75                	.insn	2, 0x6c75
    41000e4e:	5f74                	.insn	2, 0x5f74
    41000e50:	7270                	.insn	2, 0x7270
    41000e52:	6f69                	.insn	2, 0x6f69
    41000e54:	6972                	.insn	2, 0x6972
    41000e56:	6974                	.insn	2, 0x6974
    41000e58:	617a                	.insn	2, 0x617a
    41000e5a:	6974                	.insn	2, 0x6974
    41000e5c:	          	jal	x28,4100738c <__section__runtime_7+0x38c>

0000000041000e5f <dtest_name_7>:
    41000e5f:	5f444953          	.insn	4, 0x5f444953
    41000e63:	4250                	.insn	2, 0x4250
    41000e65:	4d56                	.insn	2, 0x4d56
    41000e67:	31305f53          	.insn	4, 0x31305f53
    41000e6b:	74705f33          	.insn	4, 0x74705f33
    41000e6f:	65705f77          	.insn	4, 0x65705f77
    41000e73:	6d72                	.insn	2, 0x6d72
    41000e75:	7369                	.insn	2, 0x7369
    41000e77:	6e6f6973          	csrrsi	x18,0x6e6,30
    41000e7b:	655f 636e 646f      	.insn	6, 0x646f636e655f
    41000e81:	6e69                	.insn	2, 0x6e69
    41000e83:	          	.insn	4, 0x53007367

0000000041000e86 <dtest_name_8>:
    41000e86:	5f444953          	.insn	4, 0x5f444953
    41000e8a:	4250                	.insn	2, 0x4250
    41000e8c:	4d56                	.insn	2, 0x4d56
    41000e8e:	31305f53          	.insn	4, 0x31305f53
    41000e92:	5f34                	.insn	2, 0x5f34
    41000e94:	736d                	.insn	2, 0x736d
    41000e96:	6174                	.insn	2, 0x6174
    41000e98:	7574                	.insn	2, 0x7574
    41000e9a:	75735f73          	csrrwi	x30,0x757,6
    41000e9e:	5f6d                	.insn	2, 0x5f6d
    41000ea0:	786d                	.insn	2, 0x786d
    41000ea2:	0072                	.insn	2, 0x0072

0000000041000ea4 <dtest_name_9>:
    41000ea4:	5f444953          	.insn	4, 0x5f444953
    41000ea8:	4250                	.insn	2, 0x4250
    41000eaa:	4d56                	.insn	2, 0x4d56
    41000eac:	31305f53          	.insn	4, 0x31305f53
    41000eb0:	5f35                	.insn	2, 0x5f35
    41000eb2:	626f6c67          	.insn	4, 0x626f6c67
    41000eb6:	6c61                	.insn	2, 0x6c61
    41000eb8:	625f 7469 685f      	.insn	6, 0x685f7469625f
    41000ebe:	756f6e6f          	jal	x28,410f7614 <__section__code_227+0x614>
    41000ec2:	6572                	.insn	2, 0x6572
    41000ec4:	0064                	.insn	2, 0x0064

0000000041000ec6 <dtest_name_10>:
    41000ec6:	5f444953          	.insn	4, 0x5f444953
    41000eca:	4250                	.insn	2, 0x4250
    41000ecc:	4d56                	.insn	2, 0x4d56
    41000ece:	31305f53          	.insn	4, 0x31305f53
    41000ed2:	5f36                	.insn	2, 0x5f36
    41000ed4:	6f6e                	.insn	2, 0x6f6e
    41000ed6:	5f6e                	.insn	2, 0x5f6e
    41000ed8:	626f6c67          	.insn	4, 0x626f6c67
    41000edc:	6c61                	.insn	2, 0x6c61
    41000ede:	625f 7469 685f      	.insn	6, 0x685f7469625f
    41000ee4:	756f6e6f          	jal	x28,410f763a <__section__code_227+0x63a>
    41000ee8:	6572                	.insn	2, 0x6572
    41000eea:	0064                	.insn	2, 0x0064

0000000041000eec <dtest_name_11>:
    41000eec:	5f444953          	.insn	4, 0x5f444953
    41000ef0:	4250                	.insn	2, 0x4250
    41000ef2:	4d56                	.insn	2, 0x4d56
    41000ef4:	31305f53          	.insn	4, 0x31305f53
    41000ef8:	6c675f37          	lui	x30,0x6c675
    41000efc:	6c61626f          	jal	x4,410175c2 <local_test_failed+0x59e>
    41000f00:	615f 5f74 6f6e      	.insn	6, 0x6f6e5f74615f
    41000f06:	5f6e                	.insn	2, 0x5f6e
    41000f08:	656c                	.insn	2, 0x656c
    41000f0a:	6661                	.insn	2, 0x6661
	...

0000000041000f0d <dtest_name_12>:
    41000f0d:	5f444953          	.insn	4, 0x5f444953
    41000f11:	4250                	.insn	2, 0x4250
    41000f13:	4d56                	.insn	2, 0x4d56
    41000f15:	31305f53          	.insn	4, 0x31305f53
    41000f19:	5f38                	.insn	2, 0x5f38
    41000f1b:	7372                	.insn	2, 0x7372
    41000f1d:	69665f77          	.insn	4, 0x69665f77
    41000f21:	6c65                	.insn	2, 0x6c65
    41000f23:	7364                	.insn	2, 0x7364
    41000f25:	775f 6972 6174      	.insn	6, 0x61746972775f
    41000f2b:	6c62                	.insn	2, 0x6c62
    41000f2d:	0065                	.insn	2, 0x0065

0000000041000f2f <dtest_name_13>:
    41000f2f:	5f444953          	.insn	4, 0x5f444953
    41000f33:	4250                	.insn	2, 0x4250
    41000f35:	4d56                	.insn	2, 0x4d56
    41000f37:	32305f53          	.insn	4, 0x32305f53
    41000f3b:	5f31                	.insn	2, 0x5f31
    41000f3d:	70746173          	csrrsi	x2,0x707,8
    41000f41:	765f 6c61 6469      	.insn	6, 0x64696c61765f
    41000f47:	745f 5f6f 6572      	.insn	6, 0x65725f6f745f
    41000f4d:	76726573          	csrrsi	x10,0x767,4
    41000f51:	6465                	.insn	2, 0x6465
	...

0000000041000f54 <dtest_name_14>:
    41000f54:	5f444953          	.insn	4, 0x5f444953
    41000f58:	4250                	.insn	2, 0x4250
    41000f5a:	4d56                	.insn	2, 0x4d56
    41000f5c:	32305f53          	.insn	4, 0x32305f53
    41000f60:	5f32                	.insn	2, 0x5f32
    41000f62:	70746173          	csrrsi	x2,0x707,8
    41000f66:	635f 7273 615f      	.insn	6, 0x615f7273635f
    41000f6c:	73656363          	bltu	x10,x22,41001692 <scheduler__test_cleanup_ptr+0x39e>
    41000f70:	69626973          	csrrsi	x18,0x696,4
    41000f74:	696c                	.insn	2, 0x696c
    41000f76:	7974                	.insn	2, 0x7974
	...

0000000041000f79 <dtest_name_15>:
    41000f79:	5f444953          	.insn	4, 0x5f444953
    41000f7d:	4250                	.insn	2, 0x4250
    41000f7f:	4d56                	.insn	2, 0x4d56
    41000f81:	32305f53          	.insn	4, 0x32305f53
    41000f85:	61735f33          	ror	x30,x6,x23
    41000f89:	7074                	.insn	2, 0x7074
    41000f8b:	615f 6973 6c64      	.insn	6, 0x6c646973615f
    41000f91:	6e65                	.insn	2, 0x6e65
    41000f93:	645f 7369 6f63      	.insn	6, 0x6f637369645f
    41000f99:	6576                	.insn	2, 0x6576
    41000f9b:	7972                	.insn	2, 0x7972
	...

0000000041000f9e <dtest_name_16>:
    41000f9e:	5f444953          	.insn	4, 0x5f444953
    41000fa2:	4250                	.insn	2, 0x4250
    41000fa4:	4d56                	.insn	2, 0x4d56
    41000fa6:	32305f53          	.insn	4, 0x32305f53
    41000faa:	5f35                	.insn	2, 0x5f35
    41000fac:	736d                	.insn	2, 0x736d
    41000fae:	6174                	.insn	2, 0x6174
    41000fb0:	7574                	.insn	2, 0x7574
    41000fb2:	76745f73          	csrrwi	x30,0x767,8
    41000fb6:	5f6d                	.insn	2, 0x5f6d
    41000fb8:	70746173          	csrrsi	x2,0x707,8
    41000fbc:	615f 6363 7365      	.insn	6, 0x73656363615f
    41000fc2:	          	.insn	4, 0x49530073

0000000041000fc4 <dtest_name_17>:
    41000fc4:	5f444953          	.insn	4, 0x5f444953
    41000fc8:	4250                	.insn	2, 0x4250
    41000fca:	4d56                	.insn	2, 0x4d56
    41000fcc:	32305f53          	.insn	4, 0x32305f53
    41000fd0:	5f36                	.insn	2, 0x5f36
    41000fd2:	6c74                	.insn	2, 0x6c74
    41000fd4:	5f62                	.insn	2, 0x5f62
    41000fd6:	7361                	.insn	2, 0x7361
    41000fd8:	6469                	.insn	2, 0x6469
    41000fda:	6d5f 7461 6863      	.insn	6, 0x686374616d5f
	...

0000000041000fe1 <dtest_name_18>:
    41000fe1:	5f444953          	.insn	4, 0x5f444953
    41000fe5:	4250                	.insn	2, 0x4250
    41000fe7:	4d56                	.insn	2, 0x4d56
    41000fe9:	32305f53          	.insn	4, 0x32305f53
    41000fed:	5f38                	.insn	2, 0x5f38
    41000fef:	6e656673          	csrrsi	x12,0x6e6,10
    41000ff3:	765f6563          	bltu	x30,x5,4100175d <scheduler__test_cleanup_ptr+0x469>
    41000ff7:	616d                	.insn	2, 0x616d
    41000ff9:	6f5f 6370 646f      	.insn	6, 0x646f63706f5f
    41000fff:	5f65                	.insn	2, 0x5f65
    41001001:	65766f63          	bltu	x12,x23,4100165f <scheduler__test_cleanup_ptr+0x36b>
    41001005:	6172                	.insn	2, 0x6172
    41001007:	          	.insn	4, 0x53006567

000000004100100a <dtest_name_19>:
    4100100a:	5f444953          	.insn	4, 0x5f444953
    4100100e:	4250                	.insn	2, 0x4250
    41001010:	4d56                	.insn	2, 0x4d56
    41001012:	32305f53          	.insn	4, 0x32305f53
    41001016:	5f39                	.insn	2, 0x5f39
    41001018:	6564726f          	jal	x4,4104866e <__section__code_52+0x66e>
    4100101c:	6972                	.insn	2, 0x6972
    4100101e:	676e                	.insn	2, 0x676e
    41001020:	735f 7461 5f70      	.insn	6, 0x5f707461735f
    41001026:	736d                	.insn	2, 0x736d
    41001028:	6174                	.insn	2, 0x6174
    4100102a:	7574                	.insn	2, 0x7574
    4100102c:	69775f73          	csrrwi	x30,0x697,14
    41001030:	6874                	.insn	2, 0x6874
    41001032:	5f74756f          	jal	x10,41048e28 <__section__code_52+0xe28>
    41001036:	6e656673          	csrrsi	x12,0x6e6,10
    4100103a:	          	bltu	x0,x16,41001564 <scheduler__test_cleanup_ptr+0x270>

000000004100103d <dtest_name_20>:
    4100103d:	5f444953          	.insn	4, 0x5f444953
    41001041:	4250                	.insn	2, 0x4250
    41001043:	4d56                	.insn	2, 0x4d56
    41001045:	33305f53          	.insn	4, 0x33305f53
    41001049:	5f30                	.insn	2, 0x5f30
    4100104b:	6e656673          	csrrsi	x12,0x6e6,10
    4100104f:	765f6563          	bltu	x30,x5,410017b9 <scheduler__test_cleanup_ptr+0x4c5>
    41001053:	616d                	.insn	2, 0x616d
    41001055:	6f5f 6472 7265      	.insn	6, 0x726564726f5f
    4100105b:	6e69                	.insn	2, 0x6e69
    4100105d:	79735f67          	.insn	4, 0x79735f67
    41001061:	636e                	.insn	2, 0x636e
	...

0000000041001064 <dtest_name_21>:
    41001064:	5f444953          	.insn	4, 0x5f444953
    41001068:	4250                	.insn	2, 0x4250
    4100106a:	4d56                	.insn	2, 0x4d56
    4100106c:	33305f53          	.insn	4, 0x33305f53
    41001070:	5f31                	.insn	2, 0x5f31
    41001072:	6e656673          	csrrsi	x12,0x6e6,10
    41001076:	765f6563          	bltu	x30,x5,410017e0 <scheduler__test_cleanup_ptr+0x4ec>
    4100107a:	616d                	.insn	2, 0x616d
    4100107c:	695f 766e 6c61      	.insn	6, 0x6c61766e695f
    41001082:	6469                	.insn	2, 0x6469
    41001084:	7461                	.insn	2, 0x7461
    41001086:	5f65                	.insn	2, 0x5f65
    41001088:	6c61                	.insn	2, 0x6c61
    4100108a:	006c                	.insn	2, 0x006c

000000004100108c <dtest_name_22>:
    4100108c:	5f444953          	.insn	4, 0x5f444953
    41001090:	4250                	.insn	2, 0x4250
    41001092:	4d56                	.insn	2, 0x4d56
    41001094:	33305f53          	.insn	4, 0x33305f53
    41001098:	5f32                	.insn	2, 0x5f32
    4100109a:	6e656673          	csrrsi	x12,0x6e6,10
    4100109e:	765f6563          	bltu	x30,x5,41001808 <scheduler__test_cleanup_ptr+0x514>
    410010a2:	616d                	.insn	2, 0x616d
    410010a4:	695f 766e 6c61      	.insn	6, 0x6c61766e695f
    410010aa:	6469                	.insn	2, 0x6469
    410010ac:	7461                	.insn	2, 0x7461
    410010ae:	5f65                	.insn	2, 0x5f65
    410010b0:	7361                	.insn	2, 0x7361
    410010b2:	6469                	.insn	2, 0x6469
	...

00000000410010b5 <dtest_name_23>:
    410010b5:	5f444953          	.insn	4, 0x5f444953
    410010b9:	4250                	.insn	2, 0x4250
    410010bb:	4d56                	.insn	2, 0x4d56
    410010bd:	33305f53          	.insn	4, 0x33305f53
    410010c1:	66735f33          	.insn	4, 0x66735f33
    410010c5:	6e65                	.insn	2, 0x6e65
    410010c7:	765f6563          	bltu	x30,x5,41001831 <scheduler__test_cleanup_ptr+0x53d>
    410010cb:	616d                	.insn	2, 0x616d
    410010cd:	695f 766e 6c61      	.insn	6, 0x6c61766e695f
    410010d3:	6469                	.insn	2, 0x6469
    410010d5:	7461                	.insn	2, 0x7461
    410010d7:	5f65                	.insn	2, 0x5f65
    410010d9:	6176                	.insn	2, 0x6176
	...

00000000410010dc <dtest_name_24>:
    410010dc:	5f444953          	.insn	4, 0x5f444953
    410010e0:	4250                	.insn	2, 0x4250
    410010e2:	4d56                	.insn	2, 0x4d56
    410010e4:	33305f53          	.insn	4, 0x33305f53
    410010e8:	5f34                	.insn	2, 0x5f34
    410010ea:	6e656673          	csrrsi	x12,0x6e6,10
    410010ee:	765f6563          	bltu	x30,x5,41001858 <scheduler__test_cleanup_ptr+0x564>
    410010f2:	616d                	.insn	2, 0x616d
    410010f4:	695f 766e 6c61      	.insn	6, 0x6c61766e695f
    410010fa:	6469                	.insn	2, 0x6469
    410010fc:	7461                	.insn	2, 0x7461
    410010fe:	5f65                	.insn	2, 0x5f65
    41001100:	6176                	.insn	2, 0x6176
    41001102:	615f 6973 0064      	.insn	6, 0x00646973615f

0000000041001108 <dtest_name_25>:
    41001108:	5f444953          	.insn	4, 0x5f444953
    4100110c:	4250                	.insn	2, 0x4250
    4100110e:	4d56                	.insn	2, 0x4d56
    41001110:	33305f53          	.insn	4, 0x33305f53
    41001114:	5f35                	.insn	2, 0x5f35
    41001116:	6e656673          	csrrsi	x12,0x6e6,10
    4100111a:	765f6563          	bltu	x30,x5,41001884 <scheduler__test_cleanup_ptr+0x590>
    4100111e:	616d                	.insn	2, 0x616d
    41001120:	765f 7261 6f69      	.insn	6, 0x6f697261765f
    41001126:	7375                	.insn	2, 0x7375
    41001128:	705f 6761 5f65      	.insn	6, 0x5f656761705f
    4100112e:	657a6973          	csrrsi	x18,hviprio2h,20
    41001132:	          	.insn	4, 0x49530073

0000000041001134 <dtest_name_26>:
    41001134:	5f444953          	.insn	4, 0x5f444953
    41001138:	4250                	.insn	2, 0x4250
    4100113a:	4d56                	.insn	2, 0x4d56
    4100113c:	33305f53          	.insn	4, 0x33305f53
    41001140:	66735f37          	lui	x30,0x66735
    41001144:	6e65                	.insn	2, 0x6e65
    41001146:	765f6563          	bltu	x30,x5,410018b0 <scheduler__test_cleanup_ptr+0x5bc>
    4100114a:	616d                	.insn	2, 0x616d
    4100114c:	745f 6d76 695f      	.insn	6, 0x695f6d76745f
    41001152:	6c6c                	.insn	2, 0x6c6c
    41001154:	6765                	.insn	2, 0x6765
    41001156:	6c61                	.insn	2, 0x6c61
	...

0000000041001159 <dtest_name_27>:
    41001159:	5f444953          	.insn	4, 0x5f444953
    4100115d:	4250                	.insn	2, 0x4250
    4100115f:	4d56                	.insn	2, 0x4d56
    41001161:	33305f53          	.insn	4, 0x33305f53
    41001165:	5f39                	.insn	2, 0x5f39
    41001167:	6f6e                	.insn	2, 0x6f6e
    41001169:	5f6e                	.insn	2, 0x5f6e
    4100116b:	656c                	.insn	2, 0x656c
    4100116d:	6661                	.insn	2, 0x6661
    4100116f:	6e5f 746f 695f      	.insn	6, 0x695f746f6e5f
    41001175:	766e                	.insn	2, 0x766e
    41001177:	6c61                	.insn	2, 0x6c61
    41001179:	6469                	.insn	2, 0x6469
    4100117b:	7461                	.insn	2, 0x7461
    4100117d:	6465                	.insn	2, 0x6465
    4100117f:	765f 5f61 6162      	.insn	6, 0x61625f61765f
    41001185:	00646573          	csrrsi	x10,0x6,8

0000000041001189 <dtest_name_28>:
    41001189:	5f444953          	.insn	4, 0x5f444953
    4100118d:	4250                	.insn	2, 0x4250
    4100118f:	4d56                	.insn	2, 0x4d56
    41001191:	34305f53          	.insn	4, 0x34305f53
    41001195:	5f30                	.insn	2, 0x5f30
    41001197:	746e6f63          	bltu	x28,x6,410018f5 <scheduler__test_cleanup_ptr+0x601>
    4100119b:	7865                	.insn	2, 0x7865
    4100119d:	5f74                	.insn	2, 0x5f74
    4100119f:	6174                	.insn	2, 0x6174
    410011a1:	6c62                	.insn	2, 0x6c62
    410011a3:	5f65                	.insn	2, 0x5f65
    410011a5:	7265766f          	jal	x12,410588cb <__section__code_68+0x8cb>
    410011a9:	6c66                	.insn	2, 0x6c66
    410011ab:	          	jal	x14,410086db <__section__runtime_8+0x6db>

00000000410011ae <dtest_name_29>:
    410011ae:	5f444953          	.insn	4, 0x5f444953
    410011b2:	4250                	.insn	2, 0x4250
    410011b4:	4d56                	.insn	2, 0x4d56
    410011b6:	34305f53          	.insn	4, 0x34305f53
    410011ba:	5f31                	.insn	2, 0x5f31
    410011bc:	6170                	.insn	2, 0x6170
    410011be:	7472                	.insn	2, 0x7472
    410011c0:	6169                	.insn	2, 0x6169
    410011c2:	5f6c                	.insn	2, 0x5f6c
    410011c4:	6170                	.insn	2, 0x6170
    410011c6:	695f6567          	.insn	4, 0x695f6567
    410011ca:	766e                	.insn	2, 0x766e
    410011cc:	6c61                	.insn	2, 0x6c61
    410011ce:	6469                	.insn	2, 0x6469
    410011d0:	7461                	.insn	2, 0x7461
    410011d2:	6f69                	.insn	2, 0x6f69
    410011d4:	006e                	.insn	2, 0x006e

00000000410011d6 <dtest_name_30>:
    410011d6:	5f444953          	.insn	4, 0x5f444953
    410011da:	4250                	.insn	2, 0x4250
    410011dc:	4d56                	.insn	2, 0x4d56
    410011de:	34305f53          	.insn	4, 0x34305f53
    410011e2:	5f32                	.insn	2, 0x5f32
    410011e4:	6f6e6163          	bltu	x28,x22,410018c6 <scheduler__test_cleanup_ptr+0x5d2>
    410011e8:	696e                	.insn	2, 0x696e
    410011ea:	5f6c6163          	bltu	x24,x22,410017cc <scheduler__test_cleanup_ptr+0x4d8>
    410011ee:	6f62                	.insn	2, 0x6f62
    410011f0:	6e75                	.insn	2, 0x6e75
    410011f2:	6164                	.insn	2, 0x6164
    410011f4:	7972                	.insn	2, 0x7972
    410011f6:	635f 6f72 7373      	.insn	6, 0x73736f72635f
    410011fc:	6e69                	.insn	2, 0x6e69
    410011fe:	61665f67          	.insn	4, 0x61665f67
    41001202:	6c75                	.insn	2, 0x6c75
    41001204:	0074                	.insn	2, 0x0074

0000000041001206 <dtest_name_31>:
    41001206:	5f444953          	.insn	4, 0x5f444953
    4100120a:	4250                	.insn	2, 0x4250
    4100120c:	4d56                	.insn	2, 0x4d56
    4100120e:	34305f53          	.insn	4, 0x34305f53
    41001212:	65665f33          	.insn	4, 0x65665f33
    41001216:	6374                	.insn	2, 0x6374
    41001218:	5f68                	.insn	2, 0x5f68
    4100121a:	646e6977          	.insn	4, 0x646e6977
    4100121e:	735f776f          	jal	x14,410f9152 <__section__code_229+0x152>
    41001222:	6970                	.insn	2, 0x6970
    41001224:	6c6c                	.insn	2, 0x6c6c
    41001226:	705f 6761 5f65      	.insn	6, 0x5f656761705f
    4100122c:	736f7263          	bgeu	x30,x22,41001950 <scheduler__test_cleanup_ptr+0x65c>
    41001230:	          	.insn	4, 0x49530073

0000000041001232 <dtest_name_32>:
    41001232:	5f444953          	.insn	4, 0x5f444953
    41001236:	4250                	.insn	2, 0x4250
    41001238:	4d56                	.insn	2, 0x4d56
    4100123a:	34305f53          	.insn	4, 0x34305f53
    4100123e:	5f34                	.insn	2, 0x5f34
    41001240:	6566                	.insn	2, 0x6566
    41001242:	695f 6c64 5f65      	.insn	6, 0x5f656c64695f
    41001248:	69726573          	csrrsi	x10,0x697,4
    4100124c:	6c61                	.insn	2, 0x6c61
    4100124e:	7a69                	.insn	2, 0x7a69
    41001250:	7461                	.insn	2, 0x7461
    41001252:	6f69                	.insn	2, 0x6f69
    41001254:	5f6e                	.insn	2, 0x5f6e
    41001256:	6170                	.insn	2, 0x6170
    41001258:	635f6567          	.insn	4, 0x635f6567
    4100125c:	6f72                	.insn	2, 0x6f72
    4100125e:	00007373          	csrrci	x6,ustatus,0
	...

0000000041001264 <dtest_index_map>:
    41001264:	ffff                	.insn	2, 0xffff
    41001266:	ffff                	.insn	2, 0xffff
    41001268:	0002                	.insn	2, 0x0002
    4100126a:	0000                	.insn	2, 0x0000
    4100126c:	0011                	.insn	2, 0x0011
    4100126e:	0000                	.insn	2, 0x0000
    41001270:	000a                	.insn	2, 0x000a
    41001272:	0000                	.insn	2, 0x0000
    41001274:	001e                	.insn	2, 0x001e
    41001276:	0000                	.insn	2, 0x0000
    41001278:	0000001b          	sext.w	x0,x0
    4100127c:	0016                	.insn	2, 0x0016
    4100127e:	0000                	.insn	2, 0x0000
    41001280:	00000007          	vle8.v	v0,(x0),v0.t
    41001284:	0010                	.insn	2, 0x0010
    41001286:	0000                	.insn	2, 0x0000
    41001288:	0005                	.insn	2, 0x0005
    4100128a:	0000                	.insn	2, 0x0000
    4100128c:	0001                	.insn	2, 0x0001
    4100128e:	0000                	.insn	2, 0x0000
    41001290:	0009                	.insn	2, 0x0009
    41001292:	0000                	.insn	2, 0x0000
    41001294:	0015                	.insn	2, 0x0015
    41001296:	0000                	.insn	2, 0x0000
    41001298:	0012                	.insn	2, 0x0012
    4100129a:	0000                	.insn	2, 0x0000
    4100129c:	0000000b          	.insn	4, 0x000b
    410012a0:	001f 0000 001a      	.insn	6, 0x001a0000001f
    410012a6:	0000                	.insn	2, 0x0000
    410012a8:	00000013          	nop
    410012ac:	000d                	.insn	2, 0x000d
    410012ae:	0000                	.insn	2, 0x0000
    410012b0:	00000017          	auipc	x0,0x0
    410012b4:	0000                	.insn	2, 0x0000
    410012b6:	0000                	.insn	2, 0x0000
    410012b8:	0019                	.insn	2, 0x0019
    410012ba:	0000                	.insn	2, 0x0000
    410012bc:	001d                	.insn	2, 0x001d
    410012be:	0000                	.insn	2, 0x0000
    410012c0:	0006                	.insn	2, 0x0006
    410012c2:	0000                	.insn	2, 0x0000
    410012c4:	000c                	.insn	2, 0x000c
    410012c6:	0000                	.insn	2, 0x0000
    410012c8:	0014                	.insn	2, 0x0014
    410012ca:	0000                	.insn	2, 0x0000
    410012cc:	001c                	.insn	2, 0x001c
    410012ce:	0000                	.insn	2, 0x0000
    410012d0:	000e                	.insn	2, 0x000e
    410012d2:	0000                	.insn	2, 0x0000
    410012d4:	0018                	.insn	2, 0x0018
    410012d6:	0000                	.insn	2, 0x0000
    410012d8:	0000000f          	fence	unknown,unknown
    410012dc:	00000003          	lb	x0,0(x0) # 0 <ALL_4KB_PAGES>
    410012e0:	0020                	.insn	2, 0x0020
    410012e2:	0000                	.insn	2, 0x0000
    410012e4:	0004                	.insn	2, 0x0004
    410012e6:	0000                	.insn	2, 0x0000
    410012e8:	0008                	.insn	2, 0x0008
	...

00000000410012ec <scheduler__test_setup_ptr>:
    410012ec:	4160                	.insn	2, 0x4160
    410012ee:	4101                	.insn	2, 0x4101
    410012f0:	0000                	.insn	2, 0x0000
	...

00000000410012f4 <scheduler__test_cleanup_ptr>:
    410012f4:	7014                	.insn	2, 0x7014
    410012f6:	4101                	.insn	2, 0x4101
    410012f8:	0000                	.insn	2, 0x0000
	...

Disassembly of section .runtime_s:

0000000041010000 <trap_handler_s__invalid_interrupt>:
    41010000:	1740006f          	j	41010174 <trap_handler_s__test_failed>

0000000041010004 <trap_handler_s__clear_all_interrupts>:
    41010004:	14401073          	csrw	sip,x0
    41010008:	10200073          	sret

000000004101000c <trap_handler_s___CLEAR_SSI>:
    4101000c:	00200293          	li	x5,2
    41010010:	1442b073          	csrc	sip,x5
    41010014:	10200073          	sret

0000000041010018 <trap_handler_s___CLEAR_MSI>:
    41010018:	00800293          	li	x5,8
    4101001c:	1442b073          	csrc	sip,x5
    41010020:	10200073          	sret

0000000041010024 <trap_handler_s___CLEAR_STI>:
    41010024:	02000293          	li	x5,32
    41010028:	1442b073          	csrc	sip,x5
    4101002c:	10200073          	sret

0000000041010030 <trap_handler_s___CLEAR_MTI>:
    41010030:	08000293          	li	x5,128
    41010034:	1442b073          	csrc	sip,x5
    41010038:	10200073          	sret

000000004101003c <trap_handler_s___CLEAR_SEI>:
    4101003c:	20000293          	li	x5,512
    41010040:	1442b073          	csrc	sip,x5
    41010044:	10200073          	sret

0000000041010048 <trap_handler_s___CLEAR_MEI>:
    41010048:	000012b7          	lui	x5,0x1
    4101004c:	8002829b          	addiw	x5,x5,-2048 # 800 <XLEN+0x7c0>
    41010050:	1442b073          	csrc	sip,x5
    41010054:	10200073          	sret

0000000041010058 <trap_handler_s___CLEAR_COI>:
    41010058:	000022b7          	lui	x5,0x2
    4101005c:	1442b073          	csrc	sip,x5
    41010060:	10200073          	sret

0000000041010064 <trap_handler_s__clear_highest_priority_interrupt>:
    41010064:	144022f3          	csrr	x5,sip
    41010068:	40500333          	neg	x6,x5
    4101006c:	0062f2b3          	and	x5,x5,x6
    41010070:	1442b073          	csrc	sip,x5
    41010074:	10200073          	sret

0000000041010078 <trap_handler_s__trap_entry>:
    41010078:	10c0006f          	j	41010184 <trap_handler_s__trap_handler>

000000004101007c <trap_handler_s__interrupt_vector_table>:
    4101007c:	f91ff06f          	j	4101000c <trap_handler_s___CLEAR_SSI>
    41010080:	f81ff06f          	j	41010000 <trap_handler_s__invalid_interrupt>
    41010084:	f95ff06f          	j	41010018 <trap_handler_s___CLEAR_MSI>
    41010088:	f79ff06f          	j	41010000 <trap_handler_s__invalid_interrupt>
    4101008c:	f99ff06f          	j	41010024 <trap_handler_s___CLEAR_STI>
    41010090:	f71ff06f          	j	41010000 <trap_handler_s__invalid_interrupt>
    41010094:	f9dff06f          	j	41010030 <trap_handler_s___CLEAR_MTI>
    41010098:	f69ff06f          	j	41010000 <trap_handler_s__invalid_interrupt>
    4101009c:	fa1ff06f          	j	4101003c <trap_handler_s___CLEAR_SEI>
    410100a0:	f61ff06f          	j	41010000 <trap_handler_s__invalid_interrupt>
    410100a4:	fa5ff06f          	j	41010048 <trap_handler_s___CLEAR_MEI>
    410100a8:	f59ff06f          	j	41010000 <trap_handler_s__invalid_interrupt>
    410100ac:	fadff06f          	j	41010058 <trap_handler_s___CLEAR_COI>
    410100b0:	f51ff06f          	j	41010000 <trap_handler_s__invalid_interrupt>
    410100b4:	f4dff06f          	j	41010000 <trap_handler_s__invalid_interrupt>
    410100b8:	fadff06f          	j	41010064 <trap_handler_s__clear_highest_priority_interrupt>
    410100bc:	fa9ff06f          	j	41010064 <trap_handler_s__clear_highest_priority_interrupt>
    410100c0:	fa5ff06f          	j	41010064 <trap_handler_s__clear_highest_priority_interrupt>
    410100c4:	fa1ff06f          	j	41010064 <trap_handler_s__clear_highest_priority_interrupt>
    410100c8:	f9dff06f          	j	41010064 <trap_handler_s__clear_highest_priority_interrupt>
    410100cc:	f99ff06f          	j	41010064 <trap_handler_s__clear_highest_priority_interrupt>
    410100d0:	f95ff06f          	j	41010064 <trap_handler_s__clear_highest_priority_interrupt>
    410100d4:	f91ff06f          	j	41010064 <trap_handler_s__clear_highest_priority_interrupt>
    410100d8:	f8dff06f          	j	41010064 <trap_handler_s__clear_highest_priority_interrupt>
    410100dc:	f89ff06f          	j	41010064 <trap_handler_s__clear_highest_priority_interrupt>
    410100e0:	f85ff06f          	j	41010064 <trap_handler_s__clear_highest_priority_interrupt>
    410100e4:	f81ff06f          	j	41010064 <trap_handler_s__clear_highest_priority_interrupt>
    410100e8:	f7dff06f          	j	41010064 <trap_handler_s__clear_highest_priority_interrupt>
    410100ec:	f79ff06f          	j	41010064 <trap_handler_s__clear_highest_priority_interrupt>
    410100f0:	f75ff06f          	j	41010064 <trap_handler_s__clear_highest_priority_interrupt>
    410100f4:	f71ff06f          	j	41010064 <trap_handler_s__clear_highest_priority_interrupt>
    410100f8:	f6dff06f          	j	41010064 <trap_handler_s__clear_highest_priority_interrupt>
    410100fc:	f69ff06f          	j	41010064 <trap_handler_s__clear_highest_priority_interrupt>
    41010100:	f65ff06f          	j	41010064 <trap_handler_s__clear_highest_priority_interrupt>
    41010104:	f61ff06f          	j	41010064 <trap_handler_s__clear_highest_priority_interrupt>
    41010108:	f5dff06f          	j	41010064 <trap_handler_s__clear_highest_priority_interrupt>
    4101010c:	f59ff06f          	j	41010064 <trap_handler_s__clear_highest_priority_interrupt>
    41010110:	f55ff06f          	j	41010064 <trap_handler_s__clear_highest_priority_interrupt>
    41010114:	f51ff06f          	j	41010064 <trap_handler_s__clear_highest_priority_interrupt>
    41010118:	f4dff06f          	j	41010064 <trap_handler_s__clear_highest_priority_interrupt>
    4101011c:	f49ff06f          	j	41010064 <trap_handler_s__clear_highest_priority_interrupt>
    41010120:	f45ff06f          	j	41010064 <trap_handler_s__clear_highest_priority_interrupt>
    41010124:	f41ff06f          	j	41010064 <trap_handler_s__clear_highest_priority_interrupt>
    41010128:	f3dff06f          	j	41010064 <trap_handler_s__clear_highest_priority_interrupt>
    4101012c:	f39ff06f          	j	41010064 <trap_handler_s__clear_highest_priority_interrupt>
    41010130:	f35ff06f          	j	41010064 <trap_handler_s__clear_highest_priority_interrupt>
    41010134:	f31ff06f          	j	41010064 <trap_handler_s__clear_highest_priority_interrupt>
    41010138:	f2dff06f          	j	41010064 <trap_handler_s__clear_highest_priority_interrupt>
    4101013c:	f29ff06f          	j	41010064 <trap_handler_s__clear_highest_priority_interrupt>
    41010140:	f25ff06f          	j	41010064 <trap_handler_s__clear_highest_priority_interrupt>
    41010144:	f21ff06f          	j	41010064 <trap_handler_s__clear_highest_priority_interrupt>
    41010148:	f1dff06f          	j	41010064 <trap_handler_s__clear_highest_priority_interrupt>
    4101014c:	f19ff06f          	j	41010064 <trap_handler_s__clear_highest_priority_interrupt>
    41010150:	f15ff06f          	j	41010064 <trap_handler_s__clear_highest_priority_interrupt>
    41010154:	f11ff06f          	j	41010064 <trap_handler_s__clear_highest_priority_interrupt>
    41010158:	f0dff06f          	j	41010064 <trap_handler_s__clear_highest_priority_interrupt>
    4101015c:	f09ff06f          	j	41010064 <trap_handler_s__clear_highest_priority_interrupt>
    41010160:	f05ff06f          	j	41010064 <trap_handler_s__clear_highest_priority_interrupt>
    41010164:	f01ff06f          	j	41010064 <trap_handler_s__clear_highest_priority_interrupt>
    41010168:	efdff06f          	j	41010064 <trap_handler_s__clear_highest_priority_interrupt>
    4101016c:	ef9ff06f          	j	41010064 <trap_handler_s__clear_highest_priority_interrupt>
    41010170:	ef5ff06f          	j	41010064 <trap_handler_s__clear_highest_priority_interrupt>

0000000041010174 <trap_handler_s__test_failed>:
    41010174:	00f00f9b          	addiw	x31,x0,15
    41010178:	01cf9f93          	slli	x31,x31,0x1c
    4101017c:	002f8f93          	addi	x31,x31,2
    41010180:	00000073          	ecall

0000000041010184 <trap_handler_s__trap_handler>:
    41010184:	142022f3          	csrr	x5,scause
    41010188:	fff0031b          	addiw	x6,x0,-1
    4101018c:	03f31313          	slli	x6,x6,0x3f
    41010190:	00537333          	and	x6,x6,x5
    41010194:	02030263          	beqz	x6,410101b8 <trap_handler_s__exception_path>

0000000041010198 <trap_handler_s__interrupt_handler>:
    41010198:	fff0031b          	addiw	x6,x0,-1
    4101019c:	03f31313          	slli	x6,x6,0x3f
    410101a0:	0062c2b3          	xor	x5,x5,x6
    410101a4:	00000317          	auipc	x6,0x0
    410101a8:	ed430313          	addi	x6,x6,-300 # 41010078 <trap_handler_s__trap_entry>
    410101ac:	00229293          	slli	x5,x5,0x2
    410101b0:	005302b3          	add	x5,x6,x5
    410101b4:	00028067          	jr	x5 # 2000 <mem23__pt_level3>

00000000410101b8 <trap_handler_s__exception_path>:
    410101b8:	14021273          	csrrw	x4,sscratch,x4
    410101bc:	00000297          	auipc	x5,0x0
    410101c0:	0cc28293          	addi	x5,x5,204 # 41010288 <trap_handler_s__trap_panic>
    410101c4:	10529073          	csrw	stvec,x5
    410101c8:	0040006f          	j	410101cc <trap_handler_s__excp_entry>

00000000410101cc <trap_handler_s__excp_entry>:
    410101cc:	14202373          	csrr	x6,scause
    410101d0:	00800293          	li	x5,8
    410101d4:	00534863          	blt	x6,x5,410101e4 <trap_handler_s__check_exception_label>
    410101d8:	00b00293          	li	x5,11
    410101dc:	0062c463          	blt	x5,x6,410101e4 <trap_handler_s__check_exception_label>
    410101e0:	0a80006f          	j	41010288 <trap_handler_s__trap_panic>

00000000410101e4 <trap_handler_s__check_exception_label>:
    410101e4:	04623c23          	sd	x6,88(x4) # 58 <XLEN+0x18>
    410101e8:	141022f3          	csrr	x5,sepc
    410101ec:	02523423          	sd	x5,40(x4) # 28 <SECURE_ACCESS_PROBABILITY+0xa>
    410101f0:	01820283          	lb	x5,24(x4) # 18 <STORE_GUEST_PAGE_FAULT+0x1>
    410101f4:	00029863          	bnez	x5,41010204 <trap_handler_s__check_excp>
    410101f8:	00128293          	addi	x5,x5,1
    410101fc:	00520c23          	sb	x5,24(x4) # 18 <STORE_GUEST_PAGE_FAULT+0x1>
    41010200:	05c0006f          	j	4101025c <trap_handler_s__ecall_from_machine>

0000000041010204 <trap_handler_s__check_excp>:
    41010204:	06823283          	ld	x5,104(x4) # 68 <XLEN+0x28>
    41010208:	06023423          	sd	x0,104(x4) # 68 <XLEN+0x28>
    4101020c:	00028663          	beqz	x5,41010218 <trap_handler_s__skip_mode_check>
    41010210:	00300393          	li	x7,3
    41010214:	f67290e3          	bne	x5,x7,41010174 <trap_handler_s__test_failed>

0000000041010218 <trap_handler_s__skip_mode_check>:
    41010218:	05023283          	ld	x5,80(x4) # 50 <XLEN+0x10>
    4101021c:	04023823          	sd	x0,80(x4) # 50 <XLEN+0x10>
    41010220:	f4531ae3          	bne	x6,x5,41010174 <trap_handler_s__test_failed>
    41010224:	03823283          	ld	x5,56(x4) # 38 <SECURE_ACCESS_PROBABILITY+0x1a>
    41010228:	02023c23          	sd	x0,56(x4) # 38 <SECURE_ACCESS_PROBABILITY+0x1a>
    4101022c:	02029663          	bnez	x5,41010258 <trap_handler_s__skip_nonzero_tval_check>
    41010230:	02023303          	ld	x6,32(x4) # 20 <SECURE_ACCESS_PROBABILITY+0x2>
    41010234:	02023023          	sd	x0,32(x4) # 20 <SECURE_ACCESS_PROBABILITY+0x2>
    41010238:	02823283          	ld	x5,40(x4) # 28 <SECURE_ACCESS_PROBABILITY+0xa>
    4101023c:	02023423          	sd	x0,40(x4) # 28 <SECURE_ACCESS_PROBABILITY+0xa>
    41010240:	f2531ae3          	bne	x6,x5,41010174 <trap_handler_s__test_failed>
    41010244:	04023283          	ld	x5,64(x4) # 40 <XLEN>
    41010248:	04023023          	sd	x0,64(x4) # 40 <XLEN>
    4101024c:	00028663          	beqz	x5,41010258 <trap_handler_s__skip_nonzero_tval_check>

0000000041010250 <trap_handler_s__nonzero_tval_check>:
    41010250:	14302373          	csrr	x6,stval
    41010254:	f25310e3          	bne	x6,x5,41010174 <trap_handler_s__test_failed>

0000000041010258 <trap_handler_s__skip_nonzero_tval_check>:
    41010258:	0040006f          	j	4101025c <trap_handler_s__ecall_from_machine>

000000004101025c <trap_handler_s__ecall_from_machine>:
    4101025c:	03023283          	ld	x5,48(x4) # 30 <SECURE_ACCESS_PROBABILITY+0x12>
    41010260:	02023823          	sd	x0,48(x4) # 30 <SECURE_ACCESS_PROBABILITY+0x12>
    41010264:	07023303          	ld	x6,112(x4) # 70 <XLEN+0x30>
    41010268:	06023823          	sd	x0,112(x4) # 70 <XLEN+0x30>
    4101026c:	00031463          	bnez	x6,41010274 <trap_handler_s__skip_xepc_write>
    41010270:	14129073          	csrw	sepc,x5

0000000041010274 <trap_handler_s__skip_xepc_write>:
    41010274:	00000317          	auipc	x6,0x0
    41010278:	e0430313          	addi	x6,x6,-508 # 41010078 <trap_handler_s__trap_entry>
    4101027c:	10531073          	csrw	stvec,x6
    41010280:	14021273          	csrrw	x4,sscratch,x4
    41010284:	10200073          	sret

0000000041010288 <trap_handler_s__trap_panic>:
    41010288:	00000193          	li	x3,0
    4101028c:	00f00f9b          	addiw	x31,x0,15
    41010290:	01cf9f93          	slli	x31,x31,0x1c
    41010294:	002f8f93          	addi	x31,x31,2
    41010298:	00000073          	ecall

Disassembly of section .code:

0000000041014130 <passed>:
    41014130:	00f00f9b          	addiw	x31,x0,15
    41014134:	01cf9f93          	slli	x31,x31,0x1c
    41014138:	001f8f93          	addi	x31,x31,1
    4101413c:	00000073          	ecall

0000000041014140 <failed>:
    41014140:	00f00f9b          	addiw	x31,x0,15
    41014144:	01cf9f93          	slli	x31,x31,0x1c
    41014148:	002f8f93          	addi	x31,x31,2
    4101414c:	00000073          	ecall

0000000041014150 <end_test>:
    41014150:	00f00f9b          	addiw	x31,x0,15
    41014154:	01cf9f93          	slli	x31,x31,0x1c
    41014158:	003f8f93          	addi	x31,x31,3
    4101415c:	00000073          	ecall

0000000041014160 <test_setup>:
    41014160:	00f00f9b          	addiw	x31,x0,15
    41014164:	01cf9f93          	slli	x31,x31,0x1c
    41014168:	001f8f93          	addi	x31,x31,1
    4101416c:	00000073          	ecall

0000000041014170 <SID_PBVMS_001_ptw_no_faults_all_access_types>:
    41014170:	52cb1137          	lui	x2,0x52cb1
    41014174:	de51011b          	addiw	x2,x2,-539 # 52cb0de5 <pma_region_2_end+0xdc6fde5>
    41014178:	00c11113          	slli	x2,x2,0xc
    4101417c:	96310113          	addi	x2,x2,-1693
    41014180:	00c11113          	slli	x2,x2,0xc
    41014184:	000012b7          	lui	x5,0x1
    41014188:	00510133          	add	x2,x2,x5
    4101418c:	ff017113          	andi	x2,x2,-16
    41014190:	0027f3b7          	lui	x7,0x27f
    41014194:	0003a807          	flw	f16,0(x7) # 27f000 <mem0>
    41014198:	0027f737          	lui	x14,0x27f
    4101419c:	0004bfb7          	lui	x31,0x4b
    410141a0:	647f8f9b          	addiw	x31,x31,1607 # 4b647 <mem9__pt_level2+0x7647>
    410141a4:	00df9f93          	slli	x31,x31,0xd
    410141a8:	a1cf8f93          	addi	x31,x31,-1508
    410141ac:	01f72023          	sw	x31,0(x14) # 27f000 <mem0>
    410141b0:	0027ffb7          	lui	x31,0x27f
    410141b4:	00000a13          	li	x20,0
    410141b8:	014f8b33          	add	x22,x31,x20
    410141bc:	000b23af          	amoadd.w	x7,x0,(x22)
    410141c0:	0044a637          	lui	x12,0x44a
    410141c4:	1036061b          	addiw	x12,x12,259 # 44a103 <code_mem39+0x10d103>
    410141c8:	00c61613          	slli	x12,x12,0xc
    410141cc:	000600e7          	jalr	x12

00000000410141d0 <SID_PBVMS_001_ptw_no_faults_all_access_types_passed>:
    410141d0:	00f00f9b          	addiw	x31,x0,15
    410141d4:	01cf9f93          	slli	x31,x31,0x1c
    410141d8:	001f8f93          	addi	x31,x31,1 # 27f001 <mem0+0x1>
    410141dc:	00000073          	ecall

00000000410141e0 <SID_PBVMS_003_ptw_all_privilege_modes>:
    410141e0:	4087a137          	lui	x2,0x4087a
    410141e4:	000012b7          	lui	x5,0x1
    410141e8:	00510133          	add	x2,x2,x5
    410141ec:	ff017113          	andi	x2,x2,-16
    410141f0:	1b05c437          	lui	x8,0x1b05c
    410141f4:	4a34041b          	addiw	x8,x8,1187 # 1b05c4a3 <mem33__pt_level1+0x80814a3>
    410141f8:	00c41413          	slli	x8,x8,0xc
    410141fc:	00042a83          	lw	x21,0(x8)
    41014200:	1b05ceb7          	lui	x29,0x1b05c
    41014204:	4a3e8e9b          	addiw	x29,x29,1187 # 1b05c4a3 <mem33__pt_level1+0x80814a3>
    41014208:	00ce9e93          	slli	x29,x29,0xc
    4101420c:	00038c37          	lui	x24,0x38
    41014210:	7ebc0c1b          	addiw	x24,x24,2027 # 387eb <mem40__pt_level2+0xe7eb>
    41014214:	00ec1c13          	slli	x24,x24,0xe
    41014218:	9dac0c13          	addi	x24,x24,-1574
    4101421c:	d03c7253          	fcvt.s.lu	f4,x24
    41014220:	004eb027          	fsd	f4,0(x29)

0000000041014224 <SID_PBVMS_003_ptw_all_privilege_modes_passed>:
    41014224:	00f00f9b          	addiw	x31,x0,15
    41014228:	01cf9f93          	slli	x31,x31,0x1c
    4101422c:	001f8f93          	addi	x31,x31,1
    41014230:	00000073          	ecall

0000000041014234 <SID_PBVMS_006_ptw_page_boundary_crossing>:
    41014234:	00082137          	lui	x2,0x82
    41014238:	2b71011b          	addiw	x2,x2,695 # 822b7 <mem24__pt_level4+0xf247>
    4101423c:	00c11113          	slli	x2,x2,0xc
    41014240:	000012b7          	lui	x5,0x1
    41014244:	00510133          	add	x2,x2,x5
    41014248:	ff017113          	andi	x2,x2,-16
    4101424c:	0289c8b7          	lui	x17,0x289c
    41014250:	65b8889b          	addiw	x17,x17,1627 # 289c65b <mem37__pt_level1+0x124965b>
    41014254:	01589893          	slli	x17,x17,0x15
    41014258:	00001b37          	lui	x22,0x1
    4101425c:	ff8b0b1b          	addiw	x22,x22,-8 # ff8 <XLEN+0xfb8>
    41014260:	01688fb3          	add	x31,x17,x22
    41014264:	000fb303          	ld	x6,0(x31)
    41014268:	0289cc37          	lui	x24,0x289c
    4101426c:	65bc0c1b          	addiw	x24,x24,1627 # 289c65b <mem37__pt_level1+0x124965b>
    41014270:	015c1c13          	slli	x24,x24,0x15
    41014274:	00001437          	lui	x8,0x1
    41014278:	ff84041b          	addiw	x8,x8,-8 # ff8 <XLEN+0xfb8>
    4101427c:	008c0933          	add	x18,x24,x8
    41014280:	000d7337          	lui	x6,0xd7
    41014284:	0713031b          	addiw	x6,x6,113 # d7071 <mem24__pt_level4+0x64001>
    41014288:	00c31313          	slli	x6,x6,0xc
    4101428c:	08130313          	addi	x6,x6,129
    41014290:	d0037e53          	fcvt.s.w	f28,x6
    41014294:	01c93027          	fsd	f28,0(x18)
    41014298:	0289c8b7          	lui	x17,0x289c
    4101429c:	65b8889b          	addiw	x17,x17,1627 # 289c65b <mem37__pt_level1+0x124965b>
    410142a0:	01589893          	slli	x17,x17,0x15
    410142a4:	00001f37          	lui	x30,0x1
    410142a8:	ff8f0f1b          	addiw	x30,x30,-8 # ff8 <XLEN+0xfb8>
    410142ac:	01e88b33          	add	x22,x17,x30
    410142b0:	00001bb7          	lui	x23,0x1
    410142b4:	ff8b8b9b          	addiw	x23,x23,-8 # ff8 <XLEN+0xfb8>
    410142b8:	017b332f          	amoadd.d	x6,x23,(x22)
    410142bc:	0005c6b7          	lui	x13,0x5c
    410142c0:	000680e7          	jalr	x13 # 5c000 <code_mem4>

00000000410142c4 <SID_PBVMS_006_ptw_page_boundary_crossing_passed>:
    410142c4:	00f00f9b          	addiw	x31,x0,15
    410142c8:	01cf9f93          	slli	x31,x31,0x1c
    410142cc:	001f8f93          	addi	x31,x31,1
    410142d0:	00000073          	ecall

00000000410142d4 <SID_PBVMS_008_va_sign_extension_fault>:
    410142d4:	00375137          	lui	x2,0x375
    410142d8:	2791011b          	addiw	x2,x2,633 # 375279 <code_mem39+0x38279>
    410142dc:	00c11113          	slli	x2,x2,0xc
    410142e0:	54510113          	addi	x2,x2,1349
    410142e4:	00c11113          	slli	x2,x2,0xc
    410142e8:	000012b7          	lui	x5,0x1
    410142ec:	00510133          	add	x2,x2,x5
    410142f0:	ff017113          	andi	x2,x2,-16
    410142f4:	00004237          	lui	x4,0x4
    410142f8:	00d00e13          	li	x28,13
    410142fc:	05c23823          	sd	x28,80(x4) # 4050 <check_excp_expected_cause>
    41014300:	00000e17          	auipc	x28,0x0
    41014304:	068e0e13          	addi	x28,x28,104 # 41014368 <fault_label_0>
    41014308:	03c23023          	sd	x28,32(x4) # 20 <SECURE_ACCESS_PROBABILITY+0x2>
    4101430c:	00000e13          	li	x28,0
    41014310:	05c23023          	sd	x28,64(x4) # 40 <XLEN>
    41014314:	00000e13          	li	x28,0
    41014318:	05c23423          	sd	x28,72(x4) # 48 <XLEN+0x8>
    4101431c:	00000e17          	auipc	x28,0x0
    41014320:	060e0e13          	addi	x28,x28,96 # 4101437c <SID_PBVMS_008_va_sign_extension_fault_passed>
    41014324:	03c23823          	sd	x28,48(x4) # 30 <SECURE_ACCESS_PROBABILITY+0x12>
    41014328:	00000e13          	li	x28,0
    4101432c:	03c23c23          	sd	x28,56(x4) # 38 <SECURE_ACCESS_PROBABILITY+0x1a>
    41014330:	00000e13          	li	x28,0
    41014334:	07c23023          	sd	x28,96(x4) # 60 <XLEN+0x20>
    41014338:	00000e13          	li	x28,0
    4101433c:	07c23423          	sd	x28,104(x4) # 68 <XLEN+0x28>
    41014340:	00000e13          	li	x28,0
    41014344:	07c23823          	sd	x28,112(x4) # 70 <XLEN+0x30>
    41014348:	17ebab37          	lui	x22,0x17eba
    4101434c:	d1db0b1b          	addiw	x22,x22,-739 # 17eb9d1d <mem33__pt_level1+0x4eded1d>
    41014350:	00cb1b13          	slli	x22,x22,0xc
    41014354:	e63b0b13          	addi	x22,x22,-413
    41014358:	00cb1b13          	slli	x22,x22,0xc
    4101435c:	fff0069b          	addiw	x13,x0,-1
    41014360:	03f69693          	slli	x13,x13,0x3f
    41014364:	00db0333          	add	x6,x22,x13

0000000041014368 <fault_label_0>:
    41014368:	00033683          	ld	x13,0(x6)
    4101436c:	0001a737          	lui	x14,0x1a
    41014370:	0087071b          	addiw	x14,x14,8 # 1a008 <failed_addr>
    41014374:	00073d83          	ld	x27,0(x14)
    41014378:	000d8067          	jr	x27 # 82000c4c <mem10__pt_level3+0x11e9c4c>

000000004101437c <SID_PBVMS_008_va_sign_extension_fault_passed>:
    4101437c:	00f00f9b          	addiw	x31,x0,15
    41014380:	01cf9f93          	slli	x31,x31,0x1c
    41014384:	001f8f93          	addi	x31,x31,1
    41014388:	00000073          	ecall

000000004101438c <SID_PBVMS_009_superpage_alignment_fault>:
    4101438c:	005d8137          	lui	x2,0x5d8
    41014390:	1931011b          	addiw	x2,x2,403 # 5d8193 <code_mem39+0x29b193>
    41014394:	00d11113          	slli	x2,x2,0xd
    41014398:	000012b7          	lui	x5,0x1
    4101439c:	00510133          	add	x2,x2,x5
    410143a0:	ff017113          	andi	x2,x2,-16
    410143a4:	0001afb7          	lui	x31,0x1a
    410143a8:	0b0f8f9b          	addiw	x31,x31,176 # 1a0b0 <pte_access_flags>
    410143ac:	f0b0029b          	addiw	x5,x0,-245
    410143b0:	03029293          	slli	x5,x5,0x30
    410143b4:	005fb023          	sd	x5,0(x31)
    410143b8:	00300293          	li	x5,3
    410143bc:	005fb423          	sd	x5,8(x31)
    410143c0:	fff00293          	li	x5,-1
    410143c4:	005fb823          	sd	x5,16(x31)
    410143c8:	000f0fb7          	lui	x31,0xf0
    410143cc:	001f8f9b          	addiw	x31,x31,1 # f0001 <mem24__pt_level4+0x7cf91>
    410143d0:	00cf9f93          	slli	x31,x31,0xc
    410143d4:	007f8f93          	addi	x31,x31,7
    410143d8:	00000073          	ecall
    410143dc:	40000b93          	li	x23,1024
    410143e0:	0173e933          	or	x18,x7,x23
    410143e4:	00090393          	mv	x7,x18
    410143e8:	0001afb7          	lui	x31,0x1a
    410143ec:	0b0f8f9b          	addiw	x31,x31,176 # 1a0b0 <pte_access_flags>
    410143f0:	f0b0029b          	addiw	x5,x0,-245
    410143f4:	03029293          	slli	x5,x5,0x30
    410143f8:	005fb023          	sd	x5,0(x31)
    410143fc:	00300293          	li	x5,3
    41014400:	005fb423          	sd	x5,8(x31)
    41014404:	fff00293          	li	x5,-1
    41014408:	005fb823          	sd	x5,16(x31)
    4101440c:	000f0fb7          	lui	x31,0xf0
    41014410:	001f8f9b          	addiw	x31,x31,1 # f0001 <mem24__pt_level4+0x7cf91>
    41014414:	00cf9f93          	slli	x31,x31,0xc
    41014418:	008f8f93          	addi	x31,x31,8
    4101441c:	00000073          	ecall
    41014420:	00004237          	lui	x4,0x4
    41014424:	00d00e13          	li	x28,13
    41014428:	05c23823          	sd	x28,80(x4) # 4050 <check_excp_expected_cause>
    4101442c:	00000e17          	auipc	x28,0x0
    41014430:	050e0e13          	addi	x28,x28,80 # 4101447c <fault_label_1>
    41014434:	03c23023          	sd	x28,32(x4) # 20 <SECURE_ACCESS_PROBABILITY+0x2>
    41014438:	00000e13          	li	x28,0
    4101443c:	05c23023          	sd	x28,64(x4) # 40 <XLEN>
    41014440:	00000e13          	li	x28,0
    41014444:	05c23423          	sd	x28,72(x4) # 48 <XLEN+0x8>
    41014448:	00000e17          	auipc	x28,0x0
    4101444c:	048e0e13          	addi	x28,x28,72 # 41014490 <excp_return_label_1>
    41014450:	03c23823          	sd	x28,48(x4) # 30 <SECURE_ACCESS_PROBABILITY+0x12>
    41014454:	00000e13          	li	x28,0
    41014458:	03c23c23          	sd	x28,56(x4) # 38 <SECURE_ACCESS_PROBABILITY+0x1a>
    4101445c:	00000e13          	li	x28,0
    41014460:	07c23023          	sd	x28,96(x4) # 60 <XLEN+0x20>
    41014464:	00000e13          	li	x28,0
    41014468:	07c23423          	sd	x28,104(x4) # 68 <XLEN+0x28>
    4101446c:	00000e13          	li	x28,0
    41014470:	07c23823          	sd	x28,112(x4) # 70 <XLEN+0x30>
    41014474:	f0b00d9b          	addiw	x27,x0,-245
    41014478:	030d9d93          	slli	x27,x27,0x30

000000004101447c <fault_label_1>:
    4101447c:	000da607          	flw	f12,0(x27)
    41014480:	0001ab37          	lui	x22,0x1a
    41014484:	008b0b1b          	addiw	x22,x22,8 # 1a008 <failed_addr>
    41014488:	000b3783          	ld	x15,0(x22)
    4101448c:	00078067          	jr	x15

0000000041014490 <excp_return_label_1>:
    41014490:	00004237          	lui	x4,0x4
    41014494:	00f00e13          	li	x28,15
    41014498:	05c23823          	sd	x28,80(x4) # 4050 <check_excp_expected_cause>
    4101449c:	00000e17          	auipc	x28,0x0
    410144a0:	058e0e13          	addi	x28,x28,88 # 410144f4 <fault_label_2>
    410144a4:	03c23023          	sd	x28,32(x4) # 20 <SECURE_ACCESS_PROBABILITY+0x2>
    410144a8:	00000e13          	li	x28,0
    410144ac:	05c23023          	sd	x28,64(x4) # 40 <XLEN>
    410144b0:	00000e13          	li	x28,0
    410144b4:	05c23423          	sd	x28,72(x4) # 48 <XLEN+0x8>
    410144b8:	00000e17          	auipc	x28,0x0
    410144bc:	050e0e13          	addi	x28,x28,80 # 41014508 <excp_return_label_2>
    410144c0:	03c23823          	sd	x28,48(x4) # 30 <SECURE_ACCESS_PROBABILITY+0x12>
    410144c4:	00000e13          	li	x28,0
    410144c8:	03c23c23          	sd	x28,56(x4) # 38 <SECURE_ACCESS_PROBABILITY+0x1a>
    410144cc:	00000e13          	li	x28,0
    410144d0:	07c23023          	sd	x28,96(x4) # 60 <XLEN+0x20>
    410144d4:	00000e13          	li	x28,0
    410144d8:	07c23423          	sd	x28,104(x4) # 68 <XLEN+0x28>
    410144dc:	00000e13          	li	x28,0
    410144e0:	07c23823          	sd	x28,112(x4) # 70 <XLEN+0x30>
    410144e4:	f0b0091b          	addiw	x18,x0,-245
    410144e8:	03091913          	slli	x18,x18,0x30
    410144ec:	678a6eb7          	lui	x29,0x678a6
    410144f0:	aa6e8e9b          	addiw	x29,x29,-1370 # 678a5aa6 <pma_region_2_end+0x22864aa6>

00000000410144f4 <fault_label_2>:
    410144f4:	01d93023          	sd	x29,0(x18)
    410144f8:	0001abb7          	lui	x23,0x1a
    410144fc:	008b8b9b          	addiw	x23,x23,8 # 1a008 <failed_addr>
    41014500:	000bb903          	ld	x18,0(x23)
    41014504:	00090067          	jr	x18

0000000041014508 <excp_return_label_2>:
    41014508:	00004237          	lui	x4,0x4
    4101450c:	00f00e13          	li	x28,15
    41014510:	05c23823          	sd	x28,80(x4) # 4050 <check_excp_expected_cause>
    41014514:	00000e17          	auipc	x28,0x0
    41014518:	058e0e13          	addi	x28,x28,88 # 4101456c <fault_label_3>
    4101451c:	03c23023          	sd	x28,32(x4) # 20 <SECURE_ACCESS_PROBABILITY+0x2>
    41014520:	00000e13          	li	x28,0
    41014524:	05c23023          	sd	x28,64(x4) # 40 <XLEN>
    41014528:	00000e13          	li	x28,0
    4101452c:	05c23423          	sd	x28,72(x4) # 48 <XLEN+0x8>
    41014530:	00000e17          	auipc	x28,0x0
    41014534:	050e0e13          	addi	x28,x28,80 # 41014580 <SID_PBVMS_009_superpage_alignment_fault_passed>
    41014538:	03c23823          	sd	x28,48(x4) # 30 <SECURE_ACCESS_PROBABILITY+0x12>
    4101453c:	00000e13          	li	x28,0
    41014540:	03c23c23          	sd	x28,56(x4) # 38 <SECURE_ACCESS_PROBABILITY+0x1a>
    41014544:	00000e13          	li	x28,0
    41014548:	07c23023          	sd	x28,96(x4) # 60 <XLEN+0x20>
    4101454c:	00000e13          	li	x28,0
    41014550:	07c23423          	sd	x28,104(x4) # 68 <XLEN+0x28>
    41014554:	00000e13          	li	x28,0
    41014558:	07c23823          	sd	x28,112(x4) # 70 <XLEN+0x30>
    4101455c:	f0b0031b          	addiw	x6,x0,-245
    41014560:	03031313          	slli	x6,x6,0x30
    41014564:	00000c13          	li	x24,0
    41014568:	01830c33          	add	x24,x6,x24

000000004101456c <fault_label_3>:
    4101456c:	000c292f          	amoadd.w	x18,x0,(x24)
    41014570:	0001afb7          	lui	x31,0x1a
    41014574:	008f8f9b          	addiw	x31,x31,8 # 1a008 <failed_addr>
    41014578:	000fbf83          	ld	x31,0(x31)
    4101457c:	000f8067          	jr	x31

0000000041014580 <SID_PBVMS_009_superpage_alignment_fault_passed>:
    41014580:	00f00f9b          	addiw	x31,x0,15
    41014584:	01cf9f93          	slli	x31,x31,0x1c
    41014588:	001f8f93          	addi	x31,x31,1
    4101458c:	00000073          	ecall

0000000041014590 <SID_PBVMS_011_ptw_fault_boundary_crossing>:
    41014590:	03ea8137          	lui	x2,0x3ea8
    41014594:	000012b7          	lui	x5,0x1
    41014598:	00510133          	add	x2,x2,x5
    4101459c:	ff017113          	andi	x2,x2,-16
    410145a0:	005f03b7          	lui	x7,0x5f0
    410145a4:	5893839b          	addiw	x7,x7,1417 # 5f0589 <code_mem39+0x2b3589>
    410145a8:	01639393          	slli	x7,x7,0x16
    410145ac:	0003bb03          	ld	x22,0(x7)
    410145b0:	00004237          	lui	x4,0x4
    410145b4:	00d00e13          	li	x28,13
    410145b8:	05c23823          	sd	x28,80(x4) # 4050 <check_excp_expected_cause>
    410145bc:	00000e17          	auipc	x28,0x0
    410145c0:	05ce0e13          	addi	x28,x28,92 # 41014618 <fault_label_4>
    410145c4:	03c23023          	sd	x28,32(x4) # 20 <SECURE_ACCESS_PROBABILITY+0x2>
    410145c8:	00000e13          	li	x28,0
    410145cc:	05c23023          	sd	x28,64(x4) # 40 <XLEN>
    410145d0:	00000e13          	li	x28,0
    410145d4:	05c23423          	sd	x28,72(x4) # 48 <XLEN+0x8>
    410145d8:	00000e17          	auipc	x28,0x0
    410145dc:	054e0e13          	addi	x28,x28,84 # 4101462c <excp_return_label_4>
    410145e0:	03c23823          	sd	x28,48(x4) # 30 <SECURE_ACCESS_PROBABILITY+0x12>
    410145e4:	00000e13          	li	x28,0
    410145e8:	03c23c23          	sd	x28,56(x4) # 38 <SECURE_ACCESS_PROBABILITY+0x1a>
    410145ec:	00000e13          	li	x28,0
    410145f0:	07c23023          	sd	x28,96(x4) # 60 <XLEN+0x20>
    410145f4:	00000e13          	li	x28,0
    410145f8:	07c23423          	sd	x28,104(x4) # 68 <XLEN+0x28>
    410145fc:	00000e13          	li	x28,0
    41014600:	07c23823          	sd	x28,112(x4) # 70 <XLEN+0x30>
    41014604:	3130091b          	addiw	x18,x0,787
    41014608:	01991913          	slli	x18,x18,0x19
    4101460c:	00001db7          	lui	x27,0x1
    41014610:	ffad8d9b          	addiw	x27,x27,-6 # ffa <XLEN+0xfba>
    41014614:	01b90d33          	add	x26,x18,x27

0000000041014618 <fault_label_4>:
    41014618:	000d3683          	ld	x13,0(x26)
    4101461c:	0001ae37          	lui	x28,0x1a
    41014620:	008e0e1b          	addiw	x28,x28,8 # 1a008 <failed_addr>
    41014624:	000e3b83          	ld	x23,0(x28)
    41014628:	000b8067          	jr	x23

000000004101462c <excp_return_label_4>:
    4101462c:	00004237          	lui	x4,0x4
    41014630:	00f00e13          	li	x28,15
    41014634:	05c23823          	sd	x28,80(x4) # 4050 <check_excp_expected_cause>
    41014638:	00000e17          	auipc	x28,0x0
    4101463c:	06ce0e13          	addi	x28,x28,108 # 410146a4 <fault_label_5>
    41014640:	03c23023          	sd	x28,32(x4) # 20 <SECURE_ACCESS_PROBABILITY+0x2>
    41014644:	00000e13          	li	x28,0
    41014648:	05c23023          	sd	x28,64(x4) # 40 <XLEN>
    4101464c:	00000e13          	li	x28,0
    41014650:	05c23423          	sd	x28,72(x4) # 48 <XLEN+0x8>
    41014654:	00000e17          	auipc	x28,0x0
    41014658:	064e0e13          	addi	x28,x28,100 # 410146b8 <SID_PBVMS_011_ptw_fault_boundary_crossing_passed>
    4101465c:	03c23823          	sd	x28,48(x4) # 30 <SECURE_ACCESS_PROBABILITY+0x12>
    41014660:	00000e13          	li	x28,0
    41014664:	03c23c23          	sd	x28,56(x4) # 38 <SECURE_ACCESS_PROBABILITY+0x1a>
    41014668:	00000e13          	li	x28,0
    4101466c:	07c23023          	sd	x28,96(x4) # 60 <XLEN+0x20>
    41014670:	00000e13          	li	x28,0
    41014674:	07c23423          	sd	x28,104(x4) # 68 <XLEN+0x28>
    41014678:	00000e13          	li	x28,0
    4101467c:	07c23823          	sd	x28,112(x4) # 70 <XLEN+0x30>
    41014680:	31300e9b          	addiw	x29,x0,787
    41014684:	019e9e93          	slli	x29,x29,0x19
    41014688:	00001a37          	lui	x20,0x1
    4101468c:	ffaa0a1b          	addiw	x20,x20,-6 # ffa <XLEN+0xfba>
    41014690:	014e8cb3          	add	x25,x29,x20
    41014694:	000f3ab7          	lui	x21,0xf3
    41014698:	20da8a9b          	addiw	x21,x21,525 # f320d <mem24__pt_level4+0x8019d>
    4101469c:	00ca9a93          	slli	x21,x21,0xc
    410146a0:	d5aa8a93          	addi	x21,x21,-678

00000000410146a4 <fault_label_5>:
    410146a4:	015ca023          	sw	x21,0(x25)
    410146a8:	0001a337          	lui	x6,0x1a
    410146ac:	0083031b          	addiw	x6,x6,8 # 1a008 <failed_addr>
    410146b0:	00033d03          	ld	x26,0(x6)
    410146b4:	000d0067          	jr	x26

00000000410146b8 <SID_PBVMS_011_ptw_fault_boundary_crossing_passed>:
    410146b8:	00f00f9b          	addiw	x31,x0,15
    410146bc:	01cf9f93          	slli	x31,x31,0x1c
    410146c0:	001f8f93          	addi	x31,x31,1
    410146c4:	00000073          	ecall

00000000410146c8 <SID_PBVMS_012_ptw_fault_prioritization>:
    410146c8:	00018137          	lui	x2,0x18
    410146cc:	000012b7          	lui	x5,0x1
    410146d0:	00510133          	add	x2,x2,x5
    410146d4:	ff017113          	andi	x2,x2,-16
    410146d8:	00004237          	lui	x4,0x4
    410146dc:	00d00e13          	li	x28,13
    410146e0:	05c23823          	sd	x28,80(x4) # 4050 <check_excp_expected_cause>
    410146e4:	00000e17          	auipc	x28,0x0
    410146e8:	050e0e13          	addi	x28,x28,80 # 41014734 <fault_label_6>
    410146ec:	03c23023          	sd	x28,32(x4) # 20 <SECURE_ACCESS_PROBABILITY+0x2>
    410146f0:	00000e13          	li	x28,0
    410146f4:	05c23023          	sd	x28,64(x4) # 40 <XLEN>
    410146f8:	00000e13          	li	x28,0
    410146fc:	05c23423          	sd	x28,72(x4) # 48 <XLEN+0x8>
    41014700:	00000e17          	auipc	x28,0x0
    41014704:	048e0e13          	addi	x28,x28,72 # 41014748 <excp_return_label_6>
    41014708:	03c23823          	sd	x28,48(x4) # 30 <SECURE_ACCESS_PROBABILITY+0x12>
    4101470c:	00000e13          	li	x28,0
    41014710:	03c23c23          	sd	x28,56(x4) # 38 <SECURE_ACCESS_PROBABILITY+0x1a>
    41014714:	00000e13          	li	x28,0
    41014718:	07c23023          	sd	x28,96(x4) # 60 <XLEN+0x20>
    4101471c:	00000e13          	li	x28,0
    41014720:	07c23423          	sd	x28,104(x4) # 68 <XLEN+0x28>
    41014724:	00000e13          	li	x28,0
    41014728:	07c23823          	sd	x28,112(x4) # 70 <XLEN+0x30>
    4101472c:	00500c9b          	addiw	x25,x0,5
    41014730:	031c9c93          	slli	x25,x25,0x31

0000000041014734 <fault_label_6>:
    41014734:	000ca087          	flw	f1,0(x25)
    41014738:	0001acb7          	lui	x25,0x1a
    4101473c:	008c8c9b          	addiw	x25,x25,8 # 1a008 <failed_addr>
    41014740:	000cb683          	ld	x13,0(x25)
    41014744:	00068067          	jr	x13

0000000041014748 <excp_return_label_6>:
    41014748:	00004237          	lui	x4,0x4
    4101474c:	00d00e13          	li	x28,13
    41014750:	05c23823          	sd	x28,80(x4) # 4050 <check_excp_expected_cause>
    41014754:	00000e17          	auipc	x28,0x0
    41014758:	050e0e13          	addi	x28,x28,80 # 410147a4 <fault_label_7>
    4101475c:	03c23023          	sd	x28,32(x4) # 20 <SECURE_ACCESS_PROBABILITY+0x2>
    41014760:	00000e13          	li	x28,0
    41014764:	05c23023          	sd	x28,64(x4) # 40 <XLEN>
    41014768:	00000e13          	li	x28,0
    4101476c:	05c23423          	sd	x28,72(x4) # 48 <XLEN+0x8>
    41014770:	00000e17          	auipc	x28,0x0
    41014774:	048e0e13          	addi	x28,x28,72 # 410147b8 <excp_return_label_7>
    41014778:	03c23823          	sd	x28,48(x4) # 30 <SECURE_ACCESS_PROBABILITY+0x12>
    4101477c:	00000e13          	li	x28,0
    41014780:	03c23c23          	sd	x28,56(x4) # 38 <SECURE_ACCESS_PROBABILITY+0x1a>
    41014784:	00000e13          	li	x28,0
    41014788:	07c23023          	sd	x28,96(x4) # 60 <XLEN+0x20>
    4101478c:	00000e13          	li	x28,0
    41014790:	07c23423          	sd	x28,104(x4) # 68 <XLEN+0x28>
    41014794:	00000e13          	li	x28,0
    41014798:	07c23823          	sd	x28,112(x4) # 70 <XLEN+0x30>
    4101479c:	00100e1b          	addiw	x28,x0,1
    410147a0:	030e1e13          	slli	x28,x28,0x30

00000000410147a4 <fault_label_7>:
    410147a4:	000e2583          	lw	x11,0(x28)
    410147a8:	0001ad37          	lui	x26,0x1a
    410147ac:	008d0d1b          	addiw	x26,x26,8 # 1a008 <failed_addr>
    410147b0:	000d3e83          	ld	x29,0(x26)
    410147b4:	000e8067          	jr	x29

00000000410147b8 <excp_return_label_7>:
    410147b8:	00004237          	lui	x4,0x4
    410147bc:	00d00e13          	li	x28,13
    410147c0:	05c23823          	sd	x28,80(x4) # 4050 <check_excp_expected_cause>
    410147c4:	00000e17          	auipc	x28,0x0
    410147c8:	050e0e13          	addi	x28,x28,80 # 41014814 <fault_label_8>
    410147cc:	03c23023          	sd	x28,32(x4) # 20 <SECURE_ACCESS_PROBABILITY+0x2>
    410147d0:	00000e13          	li	x28,0
    410147d4:	05c23023          	sd	x28,64(x4) # 40 <XLEN>
    410147d8:	00000e13          	li	x28,0
    410147dc:	05c23423          	sd	x28,72(x4) # 48 <XLEN+0x8>
    410147e0:	00000e17          	auipc	x28,0x0
    410147e4:	048e0e13          	addi	x28,x28,72 # 41014828 <SID_PBVMS_012_ptw_fault_prioritization_passed>
    410147e8:	03c23823          	sd	x28,48(x4) # 30 <SECURE_ACCESS_PROBABILITY+0x12>
    410147ec:	00000e13          	li	x28,0
    410147f0:	03c23c23          	sd	x28,56(x4) # 38 <SECURE_ACCESS_PROBABILITY+0x1a>
    410147f4:	00000e13          	li	x28,0
    410147f8:	07c23023          	sd	x28,96(x4) # 60 <XLEN+0x20>
    410147fc:	00000e13          	li	x28,0
    41014800:	07c23423          	sd	x28,104(x4) # 68 <XLEN+0x28>
    41014804:	00000e13          	li	x28,0
    41014808:	07c23823          	sd	x28,112(x4) # 70 <XLEN+0x30>
    4101480c:	f050061b          	addiw	x12,x0,-251
    41014810:	03061613          	slli	x12,x12,0x30

0000000041014814 <fault_label_8>:
    41014814:	00063e87          	fld	f29,0(x12)
    41014818:	0001a437          	lui	x8,0x1a
    4101481c:	0084041b          	addiw	x8,x8,8 # 1a008 <failed_addr>
    41014820:	00043403          	ld	x8,0(x8)
    41014824:	00040067          	jr	x8

0000000041014828 <SID_PBVMS_012_ptw_fault_prioritization_passed>:
    41014828:	00f00f9b          	addiw	x31,x0,15
    4101482c:	01cf9f93          	slli	x31,x31,0x1c
    41014830:	001f8f93          	addi	x31,x31,1
    41014834:	00000073          	ecall

0000000041014838 <SID_PBVMS_013_ptw_permission_encodings>:
    41014838:	00b03137          	lui	x2,0xb03
    4101483c:	c511011b          	addiw	x2,x2,-943 # b02c51 <mem30__pt_level3+0x40ec51>
    41014840:	00c11113          	slli	x2,x2,0xc
    41014844:	000012b7          	lui	x5,0x1
    41014848:	00510133          	add	x2,x2,x5
    4101484c:	ff017113          	andi	x2,x2,-16
    41014850:	0009cf37          	lui	x30,0x9c
    41014854:	4e1f0f1b          	addiw	x30,x30,1249 # 9c4e1 <mem24__pt_level4+0x29471>
    41014858:	00cf1f13          	slli	x30,x30,0xc
    4101485c:	e69f0f13          	addi	x30,x30,-407
    41014860:	00cf1f13          	slli	x30,x30,0xc
    41014864:	011f0f13          	addi	x30,x30,17
    41014868:	00cf1f13          	slli	x30,x30,0xc
    4101486c:	000f2c87          	flw	f25,0(x30)
    41014870:	000c1737          	lui	x14,0xc1
    41014874:	49f7071b          	addiw	x14,x14,1183 # c149f <mem24__pt_level4+0x4e42f>
    41014878:	00c71713          	slli	x14,x14,0xc
    4101487c:	bbb70713          	addi	x14,x14,-1093
    41014880:	00c71713          	slli	x14,x14,0xc
    41014884:	00075683          	lhu	x13,0(x14)
    41014888:	000c1837          	lui	x16,0xc1
    4101488c:	49f8081b          	addiw	x16,x16,1183 # c149f <mem24__pt_level4+0x4e42f>
    41014890:	00c81813          	slli	x16,x16,0xc
    41014894:	bbb80813          	addi	x16,x16,-1093
    41014898:	00c81813          	slli	x16,x16,0xc
    4101489c:	73f7c4b7          	lui	x9,0x73f7c
    410148a0:	a914849b          	addiw	x9,x9,-1391 # 73f7ba91 <pma_region_2_end+0x2ef3aa91>
    410148a4:	00980023          	sb	x9,0(x16)
    410148a8:	021a14b7          	lui	x9,0x21a1
    410148ac:	bf34849b          	addiw	x9,x9,-1037 # 21a0bf3 <mem37__pt_level1+0xb4dbf3>
    410148b0:	00d49493          	slli	x9,x9,0xd
    410148b4:	0004ce83          	lbu	x29,0(x9)
    410148b8:	03c3f637          	lui	x12,0x3c3f
    410148bc:	000600e7          	jalr	x12 # 3c3f000 <code_mem16>
    410148c0:	0000ab37          	lui	x22,0xa
    410148c4:	000b4a03          	lbu	x20,0(x22) # a000 <mem17>
    410148c8:	0000a437          	lui	x8,0xa
    410148cc:	03ba38b7          	lui	x17,0x3ba3
    410148d0:	3de8889b          	addiw	x17,x17,990 # 3ba33de <mem6__pt_level3+0xc2f3de>
    410148d4:	01140023          	sb	x17,0(x8) # a000 <mem17>

00000000410148d8 <SID_PBVMS_013_ptw_permission_encodings_passed>:
    410148d8:	00f00f9b          	addiw	x31,x0,15
    410148dc:	01cf9f93          	slli	x31,x31,0x1c
    410148e0:	001f8f93          	addi	x31,x31,1
    410148e4:	00000073          	ecall

00000000410148e8 <SID_PBVMS_014_mstatus_sum_mxr>:
    410148e8:	006d0137          	lui	x2,0x6d0
    410148ec:	0001afb7          	lui	x31,0x1a
    410148f0:	0a0f8f9b          	addiw	x31,x31,160 # 1a0a0 <machine_csr_jump_table_flags>
    410148f4:	00100f13          	li	x30,1
    410148f8:	01efb023          	sd	x30,0(x31)
    410148fc:	000f0fb7          	lui	x31,0xf0
    41014900:	001f8f9b          	addiw	x31,x31,1 # f0001 <mem24__pt_level4+0x7cf91>
    41014904:	00cf9f93          	slli	x31,x31,0xc
    41014908:	005f8f93          	addi	x31,x31,5
    4101490c:	00000073          	ecall
    41014910:	00713023          	sd	x7,0(x2) # 6d0000 <tp_csr_storage>
    41014914:	0044a137          	lui	x2,0x44a
    41014918:	1011011b          	addiw	x2,x2,257 # 44a101 <code_mem39+0x10d101>
    4101491c:	00c11113          	slli	x2,x2,0xc
    41014920:	000012b7          	lui	x5,0x1
    41014924:	00510133          	add	x2,x2,x5
    41014928:	ff017113          	andi	x2,x2,-16
    4101492c:	000803b7          	lui	x7,0x80
    41014930:	0001afb7          	lui	x31,0x1a
    41014934:	0a0f8f9b          	addiw	x31,x31,160 # 1a0a0 <machine_csr_jump_table_flags>
    41014938:	00200f13          	li	x30,2
    4101493c:	01efb023          	sd	x30,0(x31)
    41014940:	000f0fb7          	lui	x31,0xf0
    41014944:	001f8f9b          	addiw	x31,x31,1 # f0001 <mem24__pt_level4+0x7cf91>
    41014948:	00cf9f93          	slli	x31,x31,0xc
    4101494c:	005f8f93          	addi	x31,x31,5
    41014950:	00000073          	ecall
    41014954:	03615e37          	lui	x28,0x3615
    41014958:	5bfe0e1b          	addiw	x28,x28,1471 # 36155bf <mem6__pt_level3+0x6a15bf>
    4101495c:	00ce1e13          	slli	x28,x28,0xc
    41014960:	000e3783          	ld	x15,0(x28)
    41014964:	000803b7          	lui	x7,0x80
    41014968:	0001afb7          	lui	x31,0x1a
    4101496c:	0a0f8f9b          	addiw	x31,x31,160 # 1a0a0 <machine_csr_jump_table_flags>
    41014970:	00300f13          	li	x30,3
    41014974:	01efb023          	sd	x30,0(x31)
    41014978:	000f0fb7          	lui	x31,0xf0
    4101497c:	001f8f9b          	addiw	x31,x31,1 # f0001 <mem24__pt_level4+0x7cf91>
    41014980:	00cf9f93          	slli	x31,x31,0xc
    41014984:	005f8f93          	addi	x31,x31,5
    41014988:	00000073          	ecall
    4101498c:	00004237          	lui	x4,0x4
    41014990:	00d00e13          	li	x28,13
    41014994:	05c23823          	sd	x28,80(x4) # 4050 <check_excp_expected_cause>
    41014998:	00000e17          	auipc	x28,0x0
    4101499c:	054e0e13          	addi	x28,x28,84 # 410149ec <fault_label_9>
    410149a0:	03c23023          	sd	x28,32(x4) # 20 <SECURE_ACCESS_PROBABILITY+0x2>
    410149a4:	00000e13          	li	x28,0
    410149a8:	05c23023          	sd	x28,64(x4) # 40 <XLEN>
    410149ac:	00000e13          	li	x28,0
    410149b0:	05c23423          	sd	x28,72(x4) # 48 <XLEN+0x8>
    410149b4:	00000e17          	auipc	x28,0x0
    410149b8:	04ce0e13          	addi	x28,x28,76 # 41014a00 <excp_return_label_9>
    410149bc:	03c23823          	sd	x28,48(x4) # 30 <SECURE_ACCESS_PROBABILITY+0x12>
    410149c0:	00000e13          	li	x28,0
    410149c4:	03c23c23          	sd	x28,56(x4) # 38 <SECURE_ACCESS_PROBABILITY+0x1a>
    410149c8:	00000e13          	li	x28,0
    410149cc:	07c23023          	sd	x28,96(x4) # 60 <XLEN+0x20>
    410149d0:	00000e13          	li	x28,0
    410149d4:	07c23423          	sd	x28,104(x4) # 68 <XLEN+0x28>
    410149d8:	00000e13          	li	x28,0
    410149dc:	07c23823          	sd	x28,112(x4) # 70 <XLEN+0x30>
    410149e0:	03615eb7          	lui	x29,0x3615
    410149e4:	5bfe8e9b          	addiw	x29,x29,1471 # 36155bf <mem6__pt_level3+0x6a15bf>
    410149e8:	00ce9e93          	slli	x29,x29,0xc

00000000410149ec <fault_label_9>:
    410149ec:	000ede03          	lhu	x28,0(x29)
    410149f0:	0001a8b7          	lui	x17,0x1a
    410149f4:	0088889b          	addiw	x17,x17,8 # 1a008 <failed_addr>
    410149f8:	0008bb83          	ld	x23,0(x17)
    410149fc:	000b8067          	jr	x23

0000000041014a00 <excp_return_label_9>:
    41014a00:	000403b7          	lui	x7,0x40
    41014a04:	0001afb7          	lui	x31,0x1a
    41014a08:	0a0f8f9b          	addiw	x31,x31,160 # 1a0a0 <machine_csr_jump_table_flags>
    41014a0c:	00200f13          	li	x30,2
    41014a10:	01efb023          	sd	x30,0(x31)
    41014a14:	000f0fb7          	lui	x31,0xf0
    41014a18:	001f8f9b          	addiw	x31,x31,1 # f0001 <mem24__pt_level4+0x7cf91>
    41014a1c:	00cf9f93          	slli	x31,x31,0xc
    41014a20:	005f8f93          	addi	x31,x31,5
    41014a24:	00000073          	ecall
    41014a28:	0030ce37          	lui	x28,0x30c
    41014a2c:	a1be0e1b          	addiw	x28,x28,-1509 # 30ba1b <mem28__pt_level4+0x7521b>
    41014a30:	00de1e13          	slli	x28,x28,0xd
    41014a34:	0b5e0e13          	addi	x28,x28,181
    41014a38:	00ce1e13          	slli	x28,x28,0xc
    41014a3c:	000e2587          	flw	f11,0(x28)
    41014a40:	000403b7          	lui	x7,0x40
    41014a44:	0001afb7          	lui	x31,0x1a
    41014a48:	0a0f8f9b          	addiw	x31,x31,160 # 1a0a0 <machine_csr_jump_table_flags>
    41014a4c:	00300f13          	li	x30,3
    41014a50:	01efb023          	sd	x30,0(x31)
    41014a54:	000f0fb7          	lui	x31,0xf0
    41014a58:	001f8f9b          	addiw	x31,x31,1 # f0001 <mem24__pt_level4+0x7cf91>
    41014a5c:	00cf9f93          	slli	x31,x31,0xc
    41014a60:	005f8f93          	addi	x31,x31,5
    41014a64:	00000073          	ecall
    41014a68:	00004237          	lui	x4,0x4
    41014a6c:	00d00e13          	li	x28,13
    41014a70:	05c23823          	sd	x28,80(x4) # 4050 <check_excp_expected_cause>
    41014a74:	00000e17          	auipc	x28,0x0
    41014a78:	05ce0e13          	addi	x28,x28,92 # 41014ad0 <fault_label_10>
    41014a7c:	03c23023          	sd	x28,32(x4) # 20 <SECURE_ACCESS_PROBABILITY+0x2>
    41014a80:	00000e13          	li	x28,0
    41014a84:	05c23023          	sd	x28,64(x4) # 40 <XLEN>
    41014a88:	00000e13          	li	x28,0
    41014a8c:	05c23423          	sd	x28,72(x4) # 48 <XLEN+0x8>
    41014a90:	00000e17          	auipc	x28,0x0
    41014a94:	054e0e13          	addi	x28,x28,84 # 41014ae4 <excp_return_label_10>
    41014a98:	03c23823          	sd	x28,48(x4) # 30 <SECURE_ACCESS_PROBABILITY+0x12>
    41014a9c:	00000e13          	li	x28,0
    41014aa0:	03c23c23          	sd	x28,56(x4) # 38 <SECURE_ACCESS_PROBABILITY+0x1a>
    41014aa4:	00000e13          	li	x28,0
    41014aa8:	07c23023          	sd	x28,96(x4) # 60 <XLEN+0x20>
    41014aac:	00000e13          	li	x28,0
    41014ab0:	07c23423          	sd	x28,104(x4) # 68 <XLEN+0x28>
    41014ab4:	00000e13          	li	x28,0
    41014ab8:	07c23823          	sd	x28,112(x4) # 70 <XLEN+0x30>
    41014abc:	0030ccb7          	lui	x25,0x30c
    41014ac0:	a1bc8c9b          	addiw	x25,x25,-1509 # 30ba1b <mem28__pt_level4+0x7521b>
    41014ac4:	00dc9c93          	slli	x25,x25,0xd
    41014ac8:	0b5c8c93          	addi	x25,x25,181
    41014acc:	00cc9c93          	slli	x25,x25,0xc

0000000041014ad0 <fault_label_10>:
    41014ad0:	000cbd03          	ld	x26,0(x25)
    41014ad4:	0001a537          	lui	x10,0x1a
    41014ad8:	0085051b          	addiw	x10,x10,8 # 1a008 <failed_addr>
    41014adc:	00053303          	ld	x6,0(x10)
    41014ae0:	00030067          	jr	x6

0000000041014ae4 <excp_return_label_10>:
    41014ae4:	006d0137          	lui	x2,0x6d0
    41014ae8:	00013383          	ld	x7,0(x2) # 6d0000 <tp_csr_storage>
    41014aec:	0001afb7          	lui	x31,0x1a
    41014af0:	0a0f8f9b          	addiw	x31,x31,160 # 1a0a0 <machine_csr_jump_table_flags>
    41014af4:	00600f13          	li	x30,6
    41014af8:	01efb023          	sd	x30,0(x31)
    41014afc:	000f0fb7          	lui	x31,0xf0
    41014b00:	001f8f9b          	addiw	x31,x31,1 # f0001 <mem24__pt_level4+0x7cf91>
    41014b04:	00cf9f93          	slli	x31,x31,0xc
    41014b08:	005f8f93          	addi	x31,x31,5
    41014b0c:	00000073          	ecall

0000000041014b10 <SID_PBVMS_014_mstatus_sum_mxr_passed>:
    41014b10:	00f00f9b          	addiw	x31,x0,15
    41014b14:	01cf9f93          	slli	x31,x31,0x1c
    41014b18:	001f8f93          	addi	x31,x31,1
    41014b1c:	00000073          	ecall

0000000041014b20 <SID_PBVMS_015_global_bit_honoured>:
    41014b20:	006d0137          	lui	x2,0x6d0
    41014b24:	0001afb7          	lui	x31,0x1a
    41014b28:	0a0f8f9b          	addiw	x31,x31,160 # 1a0a0 <machine_csr_jump_table_flags>
    41014b2c:	00700f13          	li	x30,7
    41014b30:	01efb023          	sd	x30,0(x31)
    41014b34:	000f0fb7          	lui	x31,0xf0
    41014b38:	001f8f9b          	addiw	x31,x31,1 # f0001 <mem24__pt_level4+0x7cf91>
    41014b3c:	00cf9f93          	slli	x31,x31,0xc
    41014b40:	005f8f93          	addi	x31,x31,5
    41014b44:	00000073          	ecall
    41014b48:	00713023          	sd	x7,0(x2) # 6d0000 <tp_csr_storage>
    41014b4c:	00053137          	lui	x2,0x53
    41014b50:	000012b7          	lui	x5,0x1
    41014b54:	00510133          	add	x2,x2,x5
    41014b58:	ff017113          	andi	x2,x2,-16
    41014b5c:	18002ff3          	csrr	x31,satp
    41014b60:	000f8613          	mv	x12,x31
    41014b64:	00f0079b          	addiw	x15,x0,15
    41014b68:	02c79793          	slli	x15,x15,0x2c
    41014b6c:	1807a4f3          	csrrs	x9,satp,x15
    41014b70:	5aa288b7          	lui	x17,0x5aa28
    41014b74:	7c38889b          	addiw	x17,x17,1987 # 5aa287c3 <pma_region_2_end+0x159e77c3>
    41014b78:	00c89893          	slli	x17,x17,0xc
    41014b7c:	5cb88893          	addi	x17,x17,1483
    41014b80:	00d89893          	slli	x17,x17,0xd
    41014b84:	6bc154b7          	lui	x9,0x6bc15
    41014b88:	3884849b          	addiw	x9,x9,904 # 6bc15388 <pma_region_2_end+0x26bd4388>
    41014b8c:	00989023          	sh	x9,0(x17)
    41014b90:	00f00d1b          	addiw	x26,x0,15
    41014b94:	02cd1d13          	slli	x26,x26,0x2c
    41014b98:	180d3773          	csrrc	x14,satp,x26
    41014b9c:	5aa28fb7          	lui	x31,0x5aa28
    41014ba0:	7c3f8f9b          	addiw	x31,x31,1987 # 5aa287c3 <pma_region_2_end+0x159e77c3>
    41014ba4:	00cf9f93          	slli	x31,x31,0xc
    41014ba8:	5cbf8f93          	addi	x31,x31,1483
    41014bac:	00df9f93          	slli	x31,x31,0xd
    41014bb0:	000fec03          	lwu	x24,0(x31)
    41014bb4:	18061373          	csrrw	x6,satp,x12
    41014bb8:	5aa289b7          	lui	x19,0x5aa28
    41014bbc:	7c39899b          	addiw	x19,x19,1987 # 5aa287c3 <pma_region_2_end+0x159e77c3>
    41014bc0:	00c99993          	slli	x19,x19,0xc
    41014bc4:	5cb98993          	addi	x19,x19,1483
    41014bc8:	00d99993          	slli	x19,x19,0xd
    41014bcc:	0009a383          	lw	x7,0(x19)
    41014bd0:	006d0137          	lui	x2,0x6d0
    41014bd4:	00013383          	ld	x7,0(x2) # 6d0000 <tp_csr_storage>
    41014bd8:	0001afb7          	lui	x31,0x1a
    41014bdc:	0a0f8f9b          	addiw	x31,x31,160 # 1a0a0 <machine_csr_jump_table_flags>
    41014be0:	00800f13          	li	x30,8
    41014be4:	01efb023          	sd	x30,0(x31)
    41014be8:	000f0fb7          	lui	x31,0xf0
    41014bec:	001f8f9b          	addiw	x31,x31,1 # f0001 <mem24__pt_level4+0x7cf91>
    41014bf0:	00cf9f93          	slli	x31,x31,0xc
    41014bf4:	005f8f93          	addi	x31,x31,5
    41014bf8:	00000073          	ecall

0000000041014bfc <SID_PBVMS_015_global_bit_honoured_passed>:
    41014bfc:	00f00f9b          	addiw	x31,x0,15
    41014c00:	01cf9f93          	slli	x31,x31,0x1c
    41014c04:	001f8f93          	addi	x31,x31,1
    41014c08:	00000073          	ecall

0000000041014c0c <SID_PBVMS_016_non_global_bit_honoured>:
    41014c0c:	006d0137          	lui	x2,0x6d0
    41014c10:	0001afb7          	lui	x31,0x1a
    41014c14:	0a0f8f9b          	addiw	x31,x31,160 # 1a0a0 <machine_csr_jump_table_flags>
    41014c18:	00700f13          	li	x30,7
    41014c1c:	01efb023          	sd	x30,0(x31)
    41014c20:	000f0fb7          	lui	x31,0xf0
    41014c24:	001f8f9b          	addiw	x31,x31,1 # f0001 <mem24__pt_level4+0x7cf91>
    41014c28:	00cf9f93          	slli	x31,x31,0xc
    41014c2c:	005f8f93          	addi	x31,x31,5
    41014c30:	00000073          	ecall
    41014c34:	00713023          	sd	x7,0(x2) # 6d0000 <tp_csr_storage>
    41014c38:	00261137          	lui	x2,0x261
    41014c3c:	000012b7          	lui	x5,0x1
    41014c40:	00510133          	add	x2,x2,x5
    41014c44:	ff017113          	andi	x2,x2,-16
    41014c48:	0010039b          	addiw	x7,x0,1
    41014c4c:	03239393          	slli	x7,x7,0x32
    41014c50:	0003ef03          	lwu	x30,0(x7) # 40000 <pma_region_0_size>
    41014c54:	0001afb7          	lui	x31,0x1a
    41014c58:	0b0f8f9b          	addiw	x31,x31,176 # 1a0b0 <pte_access_flags>
    41014c5c:	0010029b          	addiw	x5,x0,1
    41014c60:	03229293          	slli	x5,x5,0x32
    41014c64:	005fb023          	sd	x5,0(x31)
    41014c68:	00400293          	li	x5,4
    41014c6c:	005fb423          	sd	x5,8(x31)
    41014c70:	fff00293          	li	x5,-1
    41014c74:	005fb823          	sd	x5,16(x31)
    41014c78:	000f0fb7          	lui	x31,0xf0
    41014c7c:	001f8f9b          	addiw	x31,x31,1 # f0001 <mem24__pt_level4+0x7cf91>
    41014c80:	00cf9f93          	slli	x31,x31,0xc
    41014c84:	007f8f93          	addi	x31,x31,7
    41014c88:	00000073          	ecall
    41014c8c:	ffd00613          	li	x12,-3
    41014c90:	00c3fb33          	and	x22,x7,x12
    41014c94:	000b0393          	mv	x7,x22
    41014c98:	0001afb7          	lui	x31,0x1a
    41014c9c:	0b0f8f9b          	addiw	x31,x31,176 # 1a0b0 <pte_access_flags>
    41014ca0:	0010029b          	addiw	x5,x0,1
    41014ca4:	03229293          	slli	x5,x5,0x32
    41014ca8:	005fb023          	sd	x5,0(x31)
    41014cac:	00400293          	li	x5,4
    41014cb0:	005fb423          	sd	x5,8(x31)
    41014cb4:	fff00293          	li	x5,-1
    41014cb8:	005fb823          	sd	x5,16(x31)
    41014cbc:	000f0fb7          	lui	x31,0xf0
    41014cc0:	001f8f9b          	addiw	x31,x31,1 # f0001 <mem24__pt_level4+0x7cf91>
    41014cc4:	00cf9f93          	slli	x31,x31,0xc
    41014cc8:	008f8f93          	addi	x31,x31,8
    41014ccc:	00000073          	ecall
    41014cd0:	0ff00f1b          	addiw	x30,x0,255
    41014cd4:	02cf1f13          	slli	x30,x30,0x2c
    41014cd8:	180f2cf3          	csrrs	x25,satp,x30
    41014cdc:	12000073          	sfence.vma
    41014ce0:	00004237          	lui	x4,0x4
    41014ce4:	00d00e13          	li	x28,13
    41014ce8:	05c23823          	sd	x28,80(x4) # 4050 <check_excp_expected_cause>
    41014cec:	00000e17          	auipc	x28,0x0
    41014cf0:	050e0e13          	addi	x28,x28,80 # 41014d3c <fault_label_11>
    41014cf4:	03c23023          	sd	x28,32(x4) # 20 <SECURE_ACCESS_PROBABILITY+0x2>
    41014cf8:	00000e13          	li	x28,0
    41014cfc:	05c23023          	sd	x28,64(x4) # 40 <XLEN>
    41014d00:	00000e13          	li	x28,0
    41014d04:	05c23423          	sd	x28,72(x4) # 48 <XLEN+0x8>
    41014d08:	00000e17          	auipc	x28,0x0
    41014d0c:	048e0e13          	addi	x28,x28,72 # 41014d50 <excp_return_label_11>
    41014d10:	03c23823          	sd	x28,48(x4) # 30 <SECURE_ACCESS_PROBABILITY+0x12>
    41014d14:	00000e13          	li	x28,0
    41014d18:	03c23c23          	sd	x28,56(x4) # 38 <SECURE_ACCESS_PROBABILITY+0x1a>
    41014d1c:	00000e13          	li	x28,0
    41014d20:	07c23023          	sd	x28,96(x4) # 60 <XLEN+0x20>
    41014d24:	00000e13          	li	x28,0
    41014d28:	07c23423          	sd	x28,104(x4) # 68 <XLEN+0x28>
    41014d2c:	00000e13          	li	x28,0
    41014d30:	07c23823          	sd	x28,112(x4) # 70 <XLEN+0x30>
    41014d34:	0010061b          	addiw	x12,x0,1
    41014d38:	03261613          	slli	x12,x12,0x32

0000000041014d3c <fault_label_11>:
    41014d3c:	00063a83          	ld	x21,0(x12)
    41014d40:	0001ae37          	lui	x28,0x1a
    41014d44:	008e0e1b          	addiw	x28,x28,8 # 1a008 <failed_addr>
    41014d48:	000e3783          	ld	x15,0(x28)
    41014d4c:	00078067          	jr	x15

0000000041014d50 <excp_return_label_11>:
    41014d50:	0001afb7          	lui	x31,0x1a
    41014d54:	0b0f8f9b          	addiw	x31,x31,176 # 1a0b0 <pte_access_flags>
    41014d58:	0010029b          	addiw	x5,x0,1
    41014d5c:	03229293          	slli	x5,x5,0x32
    41014d60:	005fb023          	sd	x5,0(x31)
    41014d64:	00400293          	li	x5,4
    41014d68:	005fb423          	sd	x5,8(x31)
    41014d6c:	fff00293          	li	x5,-1
    41014d70:	005fb823          	sd	x5,16(x31)
    41014d74:	000f0fb7          	lui	x31,0xf0
    41014d78:	001f8f9b          	addiw	x31,x31,1 # f0001 <mem24__pt_level4+0x7cf91>
    41014d7c:	00cf9f93          	slli	x31,x31,0xc
    41014d80:	007f8f93          	addi	x31,x31,7
    41014d84:	00000073          	ecall
    41014d88:	00200c93          	li	x25,2
    41014d8c:	0193ecb3          	or	x25,x7,x25
    41014d90:	000c8393          	mv	x7,x25
    41014d94:	0001afb7          	lui	x31,0x1a
    41014d98:	0b0f8f9b          	addiw	x31,x31,176 # 1a0b0 <pte_access_flags>
    41014d9c:	0010029b          	addiw	x5,x0,1
    41014da0:	03229293          	slli	x5,x5,0x32
    41014da4:	005fb023          	sd	x5,0(x31)
    41014da8:	00400293          	li	x5,4
    41014dac:	005fb423          	sd	x5,8(x31)
    41014db0:	fff00293          	li	x5,-1
    41014db4:	005fb823          	sd	x5,16(x31)
    41014db8:	000f0fb7          	lui	x31,0xf0
    41014dbc:	001f8f9b          	addiw	x31,x31,1 # f0001 <mem24__pt_level4+0x7cf91>
    41014dc0:	00cf9f93          	slli	x31,x31,0xc
    41014dc4:	008f8f93          	addi	x31,x31,8
    41014dc8:	00000073          	ecall
    41014dcc:	006d0137          	lui	x2,0x6d0
    41014dd0:	00013383          	ld	x7,0(x2) # 6d0000 <tp_csr_storage>
    41014dd4:	0001afb7          	lui	x31,0x1a
    41014dd8:	0a0f8f9b          	addiw	x31,x31,160 # 1a0a0 <machine_csr_jump_table_flags>
    41014ddc:	00800f13          	li	x30,8
    41014de0:	01efb023          	sd	x30,0(x31)
    41014de4:	000f0fb7          	lui	x31,0xf0
    41014de8:	001f8f9b          	addiw	x31,x31,1 # f0001 <mem24__pt_level4+0x7cf91>
    41014dec:	00cf9f93          	slli	x31,x31,0xc
    41014df0:	005f8f93          	addi	x31,x31,5
    41014df4:	00000073          	ecall

0000000041014df8 <SID_PBVMS_016_non_global_bit_honoured_passed>:
    41014df8:	00f00f9b          	addiw	x31,x0,15
    41014dfc:	01cf9f93          	slli	x31,x31,0x1c
    41014e00:	001f8f93          	addi	x31,x31,1
    41014e04:	00000073          	ecall

0000000041014e08 <SID_PBVMS_017_global_at_non_leaf>:
    41014e08:	006d0137          	lui	x2,0x6d0
    41014e0c:	0001afb7          	lui	x31,0x1a
    41014e10:	0a0f8f9b          	addiw	x31,x31,160 # 1a0a0 <machine_csr_jump_table_flags>
    41014e14:	00700f13          	li	x30,7
    41014e18:	01efb023          	sd	x30,0(x31)
    41014e1c:	000f0fb7          	lui	x31,0xf0
    41014e20:	001f8f9b          	addiw	x31,x31,1 # f0001 <mem24__pt_level4+0x7cf91>
    41014e24:	00cf9f93          	slli	x31,x31,0xc
    41014e28:	005f8f93          	addi	x31,x31,5
    41014e2c:	00000073          	ecall
    41014e30:	00713023          	sd	x7,0(x2) # 6d0000 <tp_csr_storage>
    41014e34:	0190011b          	addiw	x2,x0,25
    41014e38:	02411113          	slli	x2,x2,0x24
    41014e3c:	fff10113          	addi	x2,x2,-1
    41014e40:	00d11113          	slli	x2,x2,0xd
    41014e44:	000012b7          	lui	x5,0x1
    41014e48:	00510133          	add	x2,x2,x5
    41014e4c:	ff017113          	andi	x2,x2,-16
    41014e50:	0001afb7          	lui	x31,0x1a
    41014e54:	0b0f8f9b          	addiw	x31,x31,176 # 1a0b0 <pte_access_flags>
    41014e58:	0010029b          	addiw	x5,x0,1
    41014e5c:	03129293          	slli	x5,x5,0x31
    41014e60:	005fb023          	sd	x5,0(x31)
    41014e64:	00100293          	li	x5,1
    41014e68:	005fb423          	sd	x5,8(x31)
    41014e6c:	fff00293          	li	x5,-1
    41014e70:	005fb823          	sd	x5,16(x31)
    41014e74:	000f0fb7          	lui	x31,0xf0
    41014e78:	001f8f9b          	addiw	x31,x31,1 # f0001 <mem24__pt_level4+0x7cf91>
    41014e7c:	00cf9f93          	slli	x31,x31,0xc
    41014e80:	007f8f93          	addi	x31,x31,7
    41014e84:	00000073          	ecall
    41014e88:	00038393          	mv	x7,x7
    41014e8c:	0001afb7          	lui	x31,0x1a
    41014e90:	0b0f8f9b          	addiw	x31,x31,176 # 1a0b0 <pte_access_flags>
    41014e94:	0010029b          	addiw	x5,x0,1
    41014e98:	03129293          	slli	x5,x5,0x31
    41014e9c:	005fb023          	sd	x5,0(x31)
    41014ea0:	00100293          	li	x5,1
    41014ea4:	005fb423          	sd	x5,8(x31)
    41014ea8:	fff00293          	li	x5,-1
    41014eac:	005fb823          	sd	x5,16(x31)
    41014eb0:	000f0fb7          	lui	x31,0xf0
    41014eb4:	001f8f9b          	addiw	x31,x31,1 # f0001 <mem24__pt_level4+0x7cf91>
    41014eb8:	00cf9f93          	slli	x31,x31,0xc
    41014ebc:	008f8f93          	addi	x31,x31,8
    41014ec0:	00000073          	ecall
    41014ec4:	0010071b          	addiw	x14,x0,1
    41014ec8:	03171713          	slli	x14,x14,0x31
    41014ecc:	00072887          	flw	f17,0(x14)
    41014ed0:	0ff00e1b          	addiw	x28,x0,255
    41014ed4:	02ce1e13          	slli	x28,x28,0x2c
    41014ed8:	180e2373          	csrrs	x6,satp,x28
    41014edc:	00100a9b          	addiw	x21,x0,1
    41014ee0:	031a9a93          	slli	x21,x21,0x31
    41014ee4:	000abb87          	fld	f23,0(x21)
    41014ee8:	006d0137          	lui	x2,0x6d0
    41014eec:	00013383          	ld	x7,0(x2) # 6d0000 <tp_csr_storage>
    41014ef0:	0001afb7          	lui	x31,0x1a
    41014ef4:	0a0f8f9b          	addiw	x31,x31,160 # 1a0a0 <machine_csr_jump_table_flags>
    41014ef8:	00800f13          	li	x30,8
    41014efc:	01efb023          	sd	x30,0(x31)
    41014f00:	000f0fb7          	lui	x31,0xf0
    41014f04:	001f8f9b          	addiw	x31,x31,1 # f0001 <mem24__pt_level4+0x7cf91>
    41014f08:	00cf9f93          	slli	x31,x31,0xc
    41014f0c:	005f8f93          	addi	x31,x31,5
    41014f10:	00000073          	ecall

0000000041014f14 <SID_PBVMS_017_global_at_non_leaf_passed>:
    41014f14:	00f00f9b          	addiw	x31,x0,15
    41014f18:	01cf9f93          	slli	x31,x31,0x1c
    41014f1c:	001f8f93          	addi	x31,x31,1
    41014f20:	00000073          	ecall

0000000041014f24 <SID_PBVMS_018_rsw_fields_writable>:
    41014f24:	002af137          	lui	x2,0x2af
    41014f28:	4811011b          	addiw	x2,x2,1153 # 2af481 <mem28__pt_level4+0x18c81>
    41014f2c:	00d11113          	slli	x2,x2,0xd
    41014f30:	000012b7          	lui	x5,0x1
    41014f34:	00510133          	add	x2,x2,x5
    41014f38:	ff017113          	andi	x2,x2,-16
    41014f3c:	0001afb7          	lui	x31,0x1a
    41014f40:	0b0f8f9b          	addiw	x31,x31,176 # 1a0b0 <pte_access_flags>
    41014f44:	0650029b          	addiw	x5,x0,101
    41014f48:	03029293          	slli	x5,x5,0x30
    41014f4c:	005fb023          	sd	x5,0(x31)
    41014f50:	00400293          	li	x5,4
    41014f54:	005fb423          	sd	x5,8(x31)
    41014f58:	fff00293          	li	x5,-1
    41014f5c:	005fb823          	sd	x5,16(x31)
    41014f60:	000f0fb7          	lui	x31,0xf0
    41014f64:	001f8f9b          	addiw	x31,x31,1 # f0001 <mem24__pt_level4+0x7cf91>
    41014f68:	00cf9f93          	slli	x31,x31,0xc
    41014f6c:	007f8f93          	addi	x31,x31,7
    41014f70:	00000073          	ecall
    41014f74:	30000a93          	li	x21,768
    41014f78:	0153e433          	or	x8,x7,x21
    41014f7c:	00040393          	mv	x7,x8
    41014f80:	0001afb7          	lui	x31,0x1a
    41014f84:	0b0f8f9b          	addiw	x31,x31,176 # 1a0b0 <pte_access_flags>
    41014f88:	0650029b          	addiw	x5,x0,101
    41014f8c:	03029293          	slli	x5,x5,0x30
    41014f90:	005fb023          	sd	x5,0(x31)
    41014f94:	00400293          	li	x5,4
    41014f98:	005fb423          	sd	x5,8(x31)
    41014f9c:	fff00293          	li	x5,-1
    41014fa0:	005fb823          	sd	x5,16(x31)
    41014fa4:	000f0fb7          	lui	x31,0xf0
    41014fa8:	001f8f9b          	addiw	x31,x31,1 # f0001 <mem24__pt_level4+0x7cf91>
    41014fac:	00cf9f93          	slli	x31,x31,0xc
    41014fb0:	008f8f93          	addi	x31,x31,8
    41014fb4:	00000073          	ecall
    41014fb8:	0001afb7          	lui	x31,0x1a
    41014fbc:	0b0f8f9b          	addiw	x31,x31,176 # 1a0b0 <pte_access_flags>
    41014fc0:	0650029b          	addiw	x5,x0,101
    41014fc4:	03029293          	slli	x5,x5,0x30
    41014fc8:	005fb023          	sd	x5,0(x31)
    41014fcc:	00400293          	li	x5,4
    41014fd0:	005fb423          	sd	x5,8(x31)
    41014fd4:	fff00293          	li	x5,-1
    41014fd8:	005fb823          	sd	x5,16(x31)
    41014fdc:	000f0fb7          	lui	x31,0xf0
    41014fe0:	001f8f9b          	addiw	x31,x31,1 # f0001 <mem24__pt_level4+0x7cf91>
    41014fe4:	00cf9f93          	slli	x31,x31,0xc
    41014fe8:	007f8f93          	addi	x31,x31,7
    41014fec:	00000073          	ecall
    41014ff0:	0153f433          	and	x8,x7,x21
    41014ff4:	01540a63          	beq	x8,x21,41015008 <pass_label_0>
    41014ff8:	0001a8b7          	lui	x17,0x1a
    41014ffc:	0088889b          	addiw	x17,x17,8 # 1a008 <failed_addr>
    41015000:	0008b603          	ld	x12,0(x17)
    41015004:	00060067          	jr	x12

0000000041015008 <pass_label_0>:
    41015008:	0001afb7          	lui	x31,0x1a
    4101500c:	0b0f8f9b          	addiw	x31,x31,176 # 1a0b0 <pte_access_flags>
    41015010:	0650029b          	addiw	x5,x0,101
    41015014:	03029293          	slli	x5,x5,0x30
    41015018:	005fb023          	sd	x5,0(x31)
    4101501c:	00100293          	li	x5,1
    41015020:	005fb423          	sd	x5,8(x31)
    41015024:	fff00293          	li	x5,-1
    41015028:	005fb823          	sd	x5,16(x31)
    4101502c:	000f0fb7          	lui	x31,0xf0
    41015030:	001f8f9b          	addiw	x31,x31,1 # f0001 <mem24__pt_level4+0x7cf91>
    41015034:	00cf9f93          	slli	x31,x31,0xc
    41015038:	007f8f93          	addi	x31,x31,7
    4101503c:	00000073          	ecall
    41015040:	0153e7b3          	or	x15,x7,x21
    41015044:	00078393          	mv	x7,x15
    41015048:	0001afb7          	lui	x31,0x1a
    4101504c:	0b0f8f9b          	addiw	x31,x31,176 # 1a0b0 <pte_access_flags>
    41015050:	0650029b          	addiw	x5,x0,101
    41015054:	03029293          	slli	x5,x5,0x30
    41015058:	005fb023          	sd	x5,0(x31)
    4101505c:	00100293          	li	x5,1
    41015060:	005fb423          	sd	x5,8(x31)
    41015064:	fff00293          	li	x5,-1
    41015068:	005fb823          	sd	x5,16(x31)
    4101506c:	000f0fb7          	lui	x31,0xf0
    41015070:	001f8f9b          	addiw	x31,x31,1 # f0001 <mem24__pt_level4+0x7cf91>
    41015074:	00cf9f93          	slli	x31,x31,0xc
    41015078:	008f8f93          	addi	x31,x31,8
    4101507c:	00000073          	ecall
    41015080:	0650049b          	addiw	x9,x0,101
    41015084:	03049493          	slli	x9,x9,0x30
    41015088:	0004ab03          	lw	x22,0(x9)

000000004101508c <SID_PBVMS_018_rsw_fields_writable_passed>:
    4101508c:	00f00f9b          	addiw	x31,x0,15
    41015090:	01cf9f93          	slli	x31,x31,0x1c
    41015094:	001f8f93          	addi	x31,x31,1
    41015098:	00000073          	ecall

000000004101509c <SID_PBVMS_021_satp_valid_to_reserved>:
    4101509c:	006d0137          	lui	x2,0x6d0
    410150a0:	0001afb7          	lui	x31,0x1a
    410150a4:	0a0f8f9b          	addiw	x31,x31,160 # 1a0a0 <machine_csr_jump_table_flags>
    410150a8:	00700f13          	li	x30,7
    410150ac:	01efb023          	sd	x30,0(x31)
    410150b0:	000f0fb7          	lui	x31,0xf0
    410150b4:	001f8f9b          	addiw	x31,x31,1 # f0001 <mem24__pt_level4+0x7cf91>
    410150b8:	00cf9f93          	slli	x31,x31,0xc
    410150bc:	005f8f93          	addi	x31,x31,5
    410150c0:	00000073          	ecall
    410150c4:	00713023          	sd	x7,0(x2) # 6d0000 <tp_csr_storage>
    410150c8:	7e2c6137          	lui	x2,0x7e2c6
    410150cc:	1311011b          	addiw	x2,x2,305 # 7e2c6131 <pma_region_2_end+0x39285131>
    410150d0:	00c11113          	slli	x2,x2,0xc
    410150d4:	000012b7          	lui	x5,0x1
    410150d8:	00510133          	add	x2,x2,x5
    410150dc:	ff017113          	andi	x2,x2,-16
    410150e0:	18002473          	csrr	x8,satp
    410150e4:	0010049b          	addiw	x9,x0,1
    410150e8:	03d49493          	slli	x9,x9,0x3d
    410150ec:	180498f3          	csrrw	x17,satp,x9
    410150f0:	18002973          	csrr	x18,satp
    410150f4:	01240a63          	beq	x8,x18,41015108 <pass_label_1>
    410150f8:	0001a8b7          	lui	x17,0x1a
    410150fc:	0088889b          	addiw	x17,x17,8 # 1a008 <failed_addr>
    41015100:	0008b683          	ld	x13,0(x17)
    41015104:	00068067          	jr	x13

0000000041015108 <pass_label_1>:
    41015108:	006d0137          	lui	x2,0x6d0
    4101510c:	00013383          	ld	x7,0(x2) # 6d0000 <tp_csr_storage>
    41015110:	0001afb7          	lui	x31,0x1a
    41015114:	0a0f8f9b          	addiw	x31,x31,160 # 1a0a0 <machine_csr_jump_table_flags>
    41015118:	00800f13          	li	x30,8
    4101511c:	01efb023          	sd	x30,0(x31)
    41015120:	000f0fb7          	lui	x31,0xf0
    41015124:	001f8f9b          	addiw	x31,x31,1 # f0001 <mem24__pt_level4+0x7cf91>
    41015128:	00cf9f93          	slli	x31,x31,0xc
    4101512c:	005f8f93          	addi	x31,x31,5
    41015130:	00000073          	ecall

0000000041015134 <SID_PBVMS_021_satp_valid_to_reserved_passed>:
    41015134:	00f00f9b          	addiw	x31,x0,15
    41015138:	01cf9f93          	slli	x31,x31,0x1c
    4101513c:	001f8f93          	addi	x31,x31,1
    41015140:	00000073          	ecall

0000000041015144 <SID_PBVMS_022_satp_csr_accessibility>:
    41015144:	006d0137          	lui	x2,0x6d0
    41015148:	0001afb7          	lui	x31,0x1a
    4101514c:	0a0f8f9b          	addiw	x31,x31,160 # 1a0a0 <machine_csr_jump_table_flags>
    41015150:	00700f13          	li	x30,7
    41015154:	01efb023          	sd	x30,0(x31)
    41015158:	000f0fb7          	lui	x31,0xf0
    4101515c:	001f8f9b          	addiw	x31,x31,1 # f0001 <mem24__pt_level4+0x7cf91>
    41015160:	00cf9f93          	slli	x31,x31,0xc
    41015164:	005f8f93          	addi	x31,x31,5
    41015168:	00000073          	ecall
    4101516c:	00713023          	sd	x7,0(x2) # 6d0000 <tp_csr_storage>
    41015170:	00024137          	lui	x2,0x24
    41015174:	4d71011b          	addiw	x2,x2,1239 # 244d7 <mem11__pt_level4+0xcaf>
    41015178:	00e11113          	slli	x2,x2,0xe
    4101517c:	98310113          	addi	x2,x2,-1661
    41015180:	00f11113          	slli	x2,x2,0xf
    41015184:	000012b7          	lui	x5,0x1
    41015188:	00510133          	add	x2,x2,x5
    4101518c:	ff017113          	andi	x2,x2,-16
    41015190:	180029f3          	csrr	x19,satp
    41015194:	18099cf3          	csrrw	x25,satp,x19
    41015198:	006d0137          	lui	x2,0x6d0
    4101519c:	00013383          	ld	x7,0(x2) # 6d0000 <tp_csr_storage>
    410151a0:	0001afb7          	lui	x31,0x1a
    410151a4:	0a0f8f9b          	addiw	x31,x31,160 # 1a0a0 <machine_csr_jump_table_flags>
    410151a8:	00800f13          	li	x30,8
    410151ac:	01efb023          	sd	x30,0(x31)
    410151b0:	000f0fb7          	lui	x31,0xf0
    410151b4:	001f8f9b          	addiw	x31,x31,1 # f0001 <mem24__pt_level4+0x7cf91>
    410151b8:	00cf9f93          	slli	x31,x31,0xc
    410151bc:	005f8f93          	addi	x31,x31,5
    410151c0:	00000073          	ecall

00000000410151c4 <SID_PBVMS_022_satp_csr_accessibility_passed>:
    410151c4:	00f00f9b          	addiw	x31,x0,15
    410151c8:	01cf9f93          	slli	x31,x31,0x1c
    410151cc:	001f8f93          	addi	x31,x31,1
    410151d0:	00000073          	ecall

00000000410151d4 <SID_PBVMS_023_satp_asidlen_discovery>:
    410151d4:	006d0137          	lui	x2,0x6d0
    410151d8:	0001afb7          	lui	x31,0x1a
    410151dc:	0a0f8f9b          	addiw	x31,x31,160 # 1a0a0 <machine_csr_jump_table_flags>
    410151e0:	00700f13          	li	x30,7
    410151e4:	01efb023          	sd	x30,0(x31)
    410151e8:	000f0fb7          	lui	x31,0xf0
    410151ec:	001f8f9b          	addiw	x31,x31,1 # f0001 <mem24__pt_level4+0x7cf91>
    410151f0:	00cf9f93          	slli	x31,x31,0xc
    410151f4:	005f8f93          	addi	x31,x31,5
    410151f8:	00000073          	ecall
    410151fc:	00713023          	sd	x7,0(x2) # 6d0000 <tp_csr_storage>
    41015200:	0012e137          	lui	x2,0x12e
    41015204:	9d71011b          	addiw	x2,x2,-1577 # 12d9d7 <mem23__pt_level1+0xa9d7>
    41015208:	00e11113          	slli	x2,x2,0xe
    4101520c:	000012b7          	lui	x5,0x1
    41015210:	00510133          	add	x2,x2,x5
    41015214:	ff017113          	andi	x2,x2,-16
    41015218:	18002773          	csrr	x14,satp
    4101521c:	00010537          	lui	x10,0x10
    41015220:	fff5051b          	addiw	x10,x10,-1 # ffff <mem29__pt_level0+0x1fff>
    41015224:	02c51513          	slli	x10,x10,0x2c
    41015228:	00a76333          	or	x6,x14,x10
    4101522c:	18031d73          	csrrw	x26,satp,x6
    41015230:	18002473          	csrr	x8,satp
    41015234:	02c00e93          	li	x29,44
    41015238:	01d45833          	srl	x16,x8,x29
    4101523c:	00010fb7          	lui	x31,0x10
    41015240:	ffff8f9b          	addiw	x31,x31,-1 # ffff <mem29__pt_level0+0x1fff>
    41015244:	01f87cb3          	and	x25,x16,x31
    41015248:	01fc8a63          	beq	x25,x31,4101525c <pass_label_2>
    4101524c:	0001a7b7          	lui	x15,0x1a
    41015250:	0087879b          	addiw	x15,x15,8 # 1a008 <failed_addr>
    41015254:	0007bc83          	ld	x25,0(x15)
    41015258:	000c8067          	jr	x25

000000004101525c <pass_label_2>:
    4101525c:	006d0137          	lui	x2,0x6d0
    41015260:	00013383          	ld	x7,0(x2) # 6d0000 <tp_csr_storage>
    41015264:	0001afb7          	lui	x31,0x1a
    41015268:	0a0f8f9b          	addiw	x31,x31,160 # 1a0a0 <machine_csr_jump_table_flags>
    4101526c:	00800f13          	li	x30,8
    41015270:	01efb023          	sd	x30,0(x31)
    41015274:	000f0fb7          	lui	x31,0xf0
    41015278:	001f8f9b          	addiw	x31,x31,1 # f0001 <mem24__pt_level4+0x7cf91>
    4101527c:	00cf9f93          	slli	x31,x31,0xc
    41015280:	005f8f93          	addi	x31,x31,5
    41015284:	00000073          	ecall

0000000041015288 <SID_PBVMS_023_satp_asidlen_discovery_passed>:
    41015288:	00f00f9b          	addiw	x31,x0,15
    4101528c:	01cf9f93          	slli	x31,x31,0x1c
    41015290:	001f8f93          	addi	x31,x31,1
    41015294:	00000073          	ecall

0000000041015298 <SID_PBVMS_025_mstatus_tvm_satp_access>:
    41015298:	006d0137          	lui	x2,0x6d0
    4101529c:	0001afb7          	lui	x31,0x1a
    410152a0:	0a0f8f9b          	addiw	x31,x31,160 # 1a0a0 <machine_csr_jump_table_flags>
    410152a4:	00100f13          	li	x30,1
    410152a8:	01efb023          	sd	x30,0(x31)
    410152ac:	000f0fb7          	lui	x31,0xf0
    410152b0:	001f8f9b          	addiw	x31,x31,1 # f0001 <mem24__pt_level4+0x7cf91>
    410152b4:	00cf9f93          	slli	x31,x31,0xc
    410152b8:	005f8f93          	addi	x31,x31,5
    410152bc:	00000073          	ecall
    410152c0:	00713023          	sd	x7,0(x2) # 6d0000 <tp_csr_storage>
    410152c4:	0000c137          	lui	x2,0xc
    410152c8:	000012b7          	lui	x5,0x1
    410152cc:	00510133          	add	x2,x2,x5
    410152d0:	ff017113          	andi	x2,x2,-16
    410152d4:	001003b7          	lui	x7,0x100
    410152d8:	0001afb7          	lui	x31,0x1a
    410152dc:	0a0f8f9b          	addiw	x31,x31,160 # 1a0a0 <machine_csr_jump_table_flags>
    410152e0:	00200f13          	li	x30,2
    410152e4:	01efb023          	sd	x30,0(x31)
    410152e8:	000f0fb7          	lui	x31,0xf0
    410152ec:	001f8f9b          	addiw	x31,x31,1 # f0001 <mem24__pt_level4+0x7cf91>
    410152f0:	00cf9f93          	slli	x31,x31,0xc
    410152f4:	005f8f93          	addi	x31,x31,5
    410152f8:	00000073          	ecall
    410152fc:	00004237          	lui	x4,0x4
    41015300:	00200e13          	li	x28,2
    41015304:	05c23823          	sd	x28,80(x4) # 4050 <check_excp_expected_cause>
    41015308:	00000e17          	auipc	x28,0x0
    4101530c:	048e0e13          	addi	x28,x28,72 # 41015350 <fault_label_12>
    41015310:	03c23023          	sd	x28,32(x4) # 20 <SECURE_ACCESS_PROBABILITY+0x2>
    41015314:	00000e13          	li	x28,0
    41015318:	05c23023          	sd	x28,64(x4) # 40 <XLEN>
    4101531c:	00000e13          	li	x28,0
    41015320:	05c23423          	sd	x28,72(x4) # 48 <XLEN+0x8>
    41015324:	00000e17          	auipc	x28,0x0
    41015328:	040e0e13          	addi	x28,x28,64 # 41015364 <excp_return_label_12>
    4101532c:	03c23823          	sd	x28,48(x4) # 30 <SECURE_ACCESS_PROBABILITY+0x12>
    41015330:	00000e13          	li	x28,0
    41015334:	03c23c23          	sd	x28,56(x4) # 38 <SECURE_ACCESS_PROBABILITY+0x1a>
    41015338:	00000e13          	li	x28,0
    4101533c:	07c23023          	sd	x28,96(x4) # 60 <XLEN+0x20>
    41015340:	00000e13          	li	x28,0
    41015344:	07c23423          	sd	x28,104(x4) # 68 <XLEN+0x28>
    41015348:	00000e13          	li	x28,0
    4101534c:	07c23823          	sd	x28,112(x4) # 70 <XLEN+0x30>

0000000041015350 <fault_label_12>:
    41015350:	18002ef3          	csrr	x29,satp
    41015354:	0001ad37          	lui	x26,0x1a
    41015358:	008d0d1b          	addiw	x26,x26,8 # 1a008 <failed_addr>
    4101535c:	000d3b83          	ld	x23,0(x26)
    41015360:	000b8067          	jr	x23

0000000041015364 <excp_return_label_12>:
    41015364:	00004237          	lui	x4,0x4
    41015368:	00200e13          	li	x28,2
    4101536c:	05c23823          	sd	x28,80(x4) # 4050 <check_excp_expected_cause>
    41015370:	00000e17          	auipc	x28,0x0
    41015374:	048e0e13          	addi	x28,x28,72 # 410153b8 <fault_label_13>
    41015378:	03c23023          	sd	x28,32(x4) # 20 <SECURE_ACCESS_PROBABILITY+0x2>
    4101537c:	00000e13          	li	x28,0
    41015380:	05c23023          	sd	x28,64(x4) # 40 <XLEN>
    41015384:	00000e13          	li	x28,0
    41015388:	05c23423          	sd	x28,72(x4) # 48 <XLEN+0x8>
    4101538c:	00000e17          	auipc	x28,0x0
    41015390:	040e0e13          	addi	x28,x28,64 # 410153cc <excp_return_label_13>
    41015394:	03c23823          	sd	x28,48(x4) # 30 <SECURE_ACCESS_PROBABILITY+0x12>
    41015398:	00000e13          	li	x28,0
    4101539c:	03c23c23          	sd	x28,56(x4) # 38 <SECURE_ACCESS_PROBABILITY+0x1a>
    410153a0:	00000e13          	li	x28,0
    410153a4:	07c23023          	sd	x28,96(x4) # 60 <XLEN+0x20>
    410153a8:	00000e13          	li	x28,0
    410153ac:	07c23423          	sd	x28,104(x4) # 68 <XLEN+0x28>
    410153b0:	00000e13          	li	x28,0
    410153b4:	07c23823          	sd	x28,112(x4) # 70 <XLEN+0x30>

00000000410153b8 <fault_label_13>:
    410153b8:	18005473          	csrrwi	x8,satp,0
    410153bc:	0001aa37          	lui	x20,0x1a
    410153c0:	008a0a1b          	addiw	x20,x20,8 # 1a008 <failed_addr>
    410153c4:	000a3703          	ld	x14,0(x20)
    410153c8:	00070067          	jr	x14

00000000410153cc <excp_return_label_13>:
    410153cc:	001003b7          	lui	x7,0x100
    410153d0:	0001afb7          	lui	x31,0x1a
    410153d4:	0a0f8f9b          	addiw	x31,x31,160 # 1a0a0 <machine_csr_jump_table_flags>
    410153d8:	00300f13          	li	x30,3
    410153dc:	01efb023          	sd	x30,0(x31)
    410153e0:	000f0fb7          	lui	x31,0xf0
    410153e4:	001f8f9b          	addiw	x31,x31,1 # f0001 <mem24__pt_level4+0x7cf91>
    410153e8:	00cf9f93          	slli	x31,x31,0xc
    410153ec:	005f8f93          	addi	x31,x31,5
    410153f0:	00000073          	ecall
    410153f4:	18002af3          	csrr	x21,satp
    410153f8:	006d0137          	lui	x2,0x6d0
    410153fc:	00013383          	ld	x7,0(x2) # 6d0000 <tp_csr_storage>
    41015400:	0001afb7          	lui	x31,0x1a
    41015404:	0a0f8f9b          	addiw	x31,x31,160 # 1a0a0 <machine_csr_jump_table_flags>
    41015408:	00600f13          	li	x30,6
    4101540c:	01efb023          	sd	x30,0(x31)
    41015410:	000f0fb7          	lui	x31,0xf0
    41015414:	001f8f9b          	addiw	x31,x31,1 # f0001 <mem24__pt_level4+0x7cf91>
    41015418:	00cf9f93          	slli	x31,x31,0xc
    4101541c:	005f8f93          	addi	x31,x31,5
    41015420:	00000073          	ecall

0000000041015424 <SID_PBVMS_025_mstatus_tvm_satp_access_passed>:
    41015424:	00f00f9b          	addiw	x31,x0,15
    41015428:	01cf9f93          	slli	x31,x31,0x1c
    4101542c:	001f8f93          	addi	x31,x31,1
    41015430:	00000073          	ecall

0000000041015434 <SID_PBVMS_026_tlb_asid_match>:
    41015434:	006d0137          	lui	x2,0x6d0
    41015438:	0001afb7          	lui	x31,0x1a
    4101543c:	0a0f8f9b          	addiw	x31,x31,160 # 1a0a0 <machine_csr_jump_table_flags>
    41015440:	00700f13          	li	x30,7
    41015444:	01efb023          	sd	x30,0(x31)
    41015448:	000f0fb7          	lui	x31,0xf0
    4101544c:	001f8f9b          	addiw	x31,x31,1 # f0001 <mem24__pt_level4+0x7cf91>
    41015450:	00cf9f93          	slli	x31,x31,0xc
    41015454:	005f8f93          	addi	x31,x31,5
    41015458:	00000073          	ecall
    4101545c:	00713023          	sd	x7,0(x2) # 6d0000 <tp_csr_storage>
    41015460:	0006b137          	lui	x2,0x6b
    41015464:	9151011b          	addiw	x2,x2,-1771 # 6a915 <mem28__pt_level2+0xc915>
    41015468:	00e11113          	slli	x2,x2,0xe
    4101546c:	000012b7          	lui	x5,0x1
    41015470:	00510133          	add	x2,x2,x5
    41015474:	ff017113          	andi	x2,x2,-16
    41015478:	18002c73          	csrr	x24,satp
    4101547c:	00100e1b          	addiw	x28,x0,1
    41015480:	02ce1e13          	slli	x28,x28,0x2c
    41015484:	180e29f3          	csrrs	x19,satp,x28
    41015488:	00700d1b          	addiw	x26,x0,7
    4101548c:	031d1d13          	slli	x26,x26,0x31
    41015490:	000d4603          	lbu	x12,0(x26)
    41015494:	0001afb7          	lui	x31,0x1a
    41015498:	0b0f8f9b          	addiw	x31,x31,176 # 1a0b0 <pte_access_flags>
    4101549c:	0070029b          	addiw	x5,x0,7
    410154a0:	03129293          	slli	x5,x5,0x31
    410154a4:	005fb023          	sd	x5,0(x31)
    410154a8:	00400293          	li	x5,4
    410154ac:	005fb423          	sd	x5,8(x31)
    410154b0:	fff00293          	li	x5,-1
    410154b4:	005fb823          	sd	x5,16(x31)
    410154b8:	000f0fb7          	lui	x31,0xf0
    410154bc:	001f8f9b          	addiw	x31,x31,1 # f0001 <mem24__pt_level4+0x7cf91>
    410154c0:	00cf9f93          	slli	x31,x31,0xc
    410154c4:	007f8f93          	addi	x31,x31,7
    410154c8:	00000073          	ecall
    410154cc:	ffd00c93          	li	x25,-3
    410154d0:	0193f533          	and	x10,x7,x25
    410154d4:	00050393          	mv	x7,x10
    410154d8:	0001afb7          	lui	x31,0x1a
    410154dc:	0b0f8f9b          	addiw	x31,x31,176 # 1a0b0 <pte_access_flags>
    410154e0:	0070029b          	addiw	x5,x0,7
    410154e4:	03129293          	slli	x5,x5,0x31
    410154e8:	005fb023          	sd	x5,0(x31)
    410154ec:	00400293          	li	x5,4
    410154f0:	005fb423          	sd	x5,8(x31)
    410154f4:	fff00293          	li	x5,-1
    410154f8:	005fb823          	sd	x5,16(x31)
    410154fc:	000f0fb7          	lui	x31,0xf0
    41015500:	001f8f9b          	addiw	x31,x31,1 # f0001 <mem24__pt_level4+0x7cf91>
    41015504:	00cf9f93          	slli	x31,x31,0xc
    41015508:	008f8f93          	addi	x31,x31,8
    4101550c:	00000073          	ecall
    41015510:	00100d1b          	addiw	x26,x0,1
    41015514:	02dd1d13          	slli	x26,x26,0x2d
    41015518:	180d2b73          	csrrs	x22,satp,x26
    4101551c:	12000073          	sfence.vma
    41015520:	00004237          	lui	x4,0x4
    41015524:	00d00e13          	li	x28,13
    41015528:	05c23823          	sd	x28,80(x4) # 4050 <check_excp_expected_cause>
    4101552c:	00000e17          	auipc	x28,0x0
    41015530:	050e0e13          	addi	x28,x28,80 # 4101557c <fault_label_14>
    41015534:	03c23023          	sd	x28,32(x4) # 20 <SECURE_ACCESS_PROBABILITY+0x2>
    41015538:	00000e13          	li	x28,0
    4101553c:	05c23023          	sd	x28,64(x4) # 40 <XLEN>
    41015540:	00000e13          	li	x28,0
    41015544:	05c23423          	sd	x28,72(x4) # 48 <XLEN+0x8>
    41015548:	00000e17          	auipc	x28,0x0
    4101554c:	048e0e13          	addi	x28,x28,72 # 41015590 <excp_return_label_14>
    41015550:	03c23823          	sd	x28,48(x4) # 30 <SECURE_ACCESS_PROBABILITY+0x12>
    41015554:	00000e13          	li	x28,0
    41015558:	03c23c23          	sd	x28,56(x4) # 38 <SECURE_ACCESS_PROBABILITY+0x1a>
    4101555c:	00000e13          	li	x28,0
    41015560:	07c23023          	sd	x28,96(x4) # 60 <XLEN+0x20>
    41015564:	00000e13          	li	x28,0
    41015568:	07c23423          	sd	x28,104(x4) # 68 <XLEN+0x28>
    4101556c:	00000e13          	li	x28,0
    41015570:	07c23823          	sd	x28,112(x4) # 70 <XLEN+0x30>
    41015574:	0070091b          	addiw	x18,x0,7
    41015578:	03191913          	slli	x18,x18,0x31

000000004101557c <fault_label_14>:
    4101557c:	00091c03          	lh	x24,0(x18)
    41015580:	0001afb7          	lui	x31,0x1a
    41015584:	008f8f9b          	addiw	x31,x31,8 # 1a008 <failed_addr>
    41015588:	000fb303          	ld	x6,0(x31)
    4101558c:	00030067          	jr	x6

0000000041015590 <excp_return_label_14>:
    41015590:	0001afb7          	lui	x31,0x1a
    41015594:	0b0f8f9b          	addiw	x31,x31,176 # 1a0b0 <pte_access_flags>
    41015598:	0070029b          	addiw	x5,x0,7
    4101559c:	03129293          	slli	x5,x5,0x31
    410155a0:	005fb023          	sd	x5,0(x31)
    410155a4:	00400293          	li	x5,4
    410155a8:	005fb423          	sd	x5,8(x31)
    410155ac:	fff00293          	li	x5,-1
    410155b0:	005fb823          	sd	x5,16(x31)
    410155b4:	000f0fb7          	lui	x31,0xf0
    410155b8:	001f8f9b          	addiw	x31,x31,1 # f0001 <mem24__pt_level4+0x7cf91>
    410155bc:	00cf9f93          	slli	x31,x31,0xc
    410155c0:	007f8f93          	addi	x31,x31,7
    410155c4:	00000073          	ecall
    410155c8:	00200b93          	li	x23,2
    410155cc:	0173eb33          	or	x22,x7,x23
    410155d0:	000b0393          	mv	x7,x22
    410155d4:	0001afb7          	lui	x31,0x1a
    410155d8:	0b0f8f9b          	addiw	x31,x31,176 # 1a0b0 <pte_access_flags>
    410155dc:	0070029b          	addiw	x5,x0,7
    410155e0:	03129293          	slli	x5,x5,0x31
    410155e4:	005fb023          	sd	x5,0(x31)
    410155e8:	00400293          	li	x5,4
    410155ec:	005fb423          	sd	x5,8(x31)
    410155f0:	fff00293          	li	x5,-1
    410155f4:	005fb823          	sd	x5,16(x31)
    410155f8:	000f0fb7          	lui	x31,0xf0
    410155fc:	001f8f9b          	addiw	x31,x31,1 # f0001 <mem24__pt_level4+0x7cf91>
    41015600:	00cf9f93          	slli	x31,x31,0xc
    41015604:	008f8f93          	addi	x31,x31,8
    41015608:	00000073          	ecall
    4101560c:	006d0137          	lui	x2,0x6d0
    41015610:	00013383          	ld	x7,0(x2) # 6d0000 <tp_csr_storage>
    41015614:	0001afb7          	lui	x31,0x1a
    41015618:	0a0f8f9b          	addiw	x31,x31,160 # 1a0a0 <machine_csr_jump_table_flags>
    4101561c:	00800f13          	li	x30,8
    41015620:	01efb023          	sd	x30,0(x31)
    41015624:	000f0fb7          	lui	x31,0xf0
    41015628:	001f8f9b          	addiw	x31,x31,1 # f0001 <mem24__pt_level4+0x7cf91>
    4101562c:	00cf9f93          	slli	x31,x31,0xc
    41015630:	005f8f93          	addi	x31,x31,5
    41015634:	00000073          	ecall

0000000041015638 <SID_PBVMS_026_tlb_asid_match_passed>:
    41015638:	00f00f9b          	addiw	x31,x0,15
    4101563c:	01cf9f93          	slli	x31,x31,0x1c
    41015640:	001f8f93          	addi	x31,x31,1
    41015644:	00000073          	ecall

0000000041015648 <SID_PBVMS_028_sfence_vma_opcode_coverage>:
    41015648:	001d5137          	lui	x2,0x1d5
    4101564c:	c0b1011b          	addiw	x2,x2,-1013 # 1d4c0b <mem35__pt_level2+0x8dc0b>
    41015650:	00d11113          	slli	x2,x2,0xd
    41015654:	88b10113          	addi	x2,x2,-1909
    41015658:	00c11113          	slli	x2,x2,0xc
    4101565c:	000012b7          	lui	x5,0x1
    41015660:	00510133          	add	x2,x2,x5
    41015664:	ff017113          	andi	x2,x2,-16
    41015668:	c0e55937          	lui	x18,0xc0e55
    4101566c:	f2f9091b          	addiw	x18,x18,-209 # ffffffffc0e54f2f <mem37+0x9effffc0e54f2f>
    41015670:	00e91913          	slli	x18,x18,0xe
    41015674:	84590913          	addi	x18,x18,-1979
    41015678:	00c91913          	slli	x18,x18,0xc
    4101567c:	00100793          	li	x15,1
    41015680:	12000073          	sfence.vma
    41015684:	12090073          	sfence.vma	x18
    41015688:	12f00073          	sfence.vma	x0,x15
    4101568c:	12f90073          	sfence.vma	x18,x15

0000000041015690 <SID_PBVMS_028_sfence_vma_opcode_coverage_passed>:
    41015690:	00f00f9b          	addiw	x31,x0,15
    41015694:	01cf9f93          	slli	x31,x31,0x1c
    41015698:	001f8f93          	addi	x31,x31,1
    4101569c:	00000073          	ecall

00000000410156a0 <SID_PBVMS_029_ordering_satp_mstatus_without_sfence>:
    410156a0:	006d0137          	lui	x2,0x6d0
    410156a4:	0001afb7          	lui	x31,0x1a
    410156a8:	0a0f8f9b          	addiw	x31,x31,160 # 1a0a0 <machine_csr_jump_table_flags>
    410156ac:	00100f13          	li	x30,1
    410156b0:	01efb023          	sd	x30,0(x31)
    410156b4:	000f0fb7          	lui	x31,0xf0
    410156b8:	001f8f9b          	addiw	x31,x31,1 # f0001 <mem24__pt_level4+0x7cf91>
    410156bc:	00cf9f93          	slli	x31,x31,0xc
    410156c0:	005f8f93          	addi	x31,x31,5
    410156c4:	00000073          	ecall
    410156c8:	00713023          	sd	x7,0(x2) # 6d0000 <tp_csr_storage>
    410156cc:	02029137          	lui	x2,0x2029
    410156d0:	6d91011b          	addiw	x2,x2,1753 # 20296d9 <mem37__pt_level1+0x9d66d9>
    410156d4:	00f11113          	slli	x2,x2,0xf
    410156d8:	9ef10113          	addi	x2,x2,-1553
    410156dc:	00c11113          	slli	x2,x2,0xc
    410156e0:	000012b7          	lui	x5,0x1
    410156e4:	00510133          	add	x2,x2,x5
    410156e8:	ff017113          	andi	x2,x2,-16
    410156ec:	000803b7          	lui	x7,0x80
    410156f0:	0001afb7          	lui	x31,0x1a
    410156f4:	0a0f8f9b          	addiw	x31,x31,160 # 1a0a0 <machine_csr_jump_table_flags>
    410156f8:	00200f13          	li	x30,2
    410156fc:	01efb023          	sd	x30,0(x31)
    41015700:	000f0fb7          	lui	x31,0xf0
    41015704:	001f8f9b          	addiw	x31,x31,1 # f0001 <mem24__pt_level4+0x7cf91>
    41015708:	00cf9f93          	slli	x31,x31,0xc
    4101570c:	005f8f93          	addi	x31,x31,5
    41015710:	00000073          	ecall
    41015714:	001aa3b7          	lui	x7,0x1aa
    41015718:	8a53839b          	addiw	x7,x7,-1883 # 1a98a5 <mem35__pt_level2+0x628a5>
    4101571c:	00c39393          	slli	x7,x7,0xc
    41015720:	00038c83          	lb	x25,0(x7)
    41015724:	000803b7          	lui	x7,0x80
    41015728:	0001afb7          	lui	x31,0x1a
    4101572c:	0a0f8f9b          	addiw	x31,x31,160 # 1a0a0 <machine_csr_jump_table_flags>
    41015730:	00300f13          	li	x30,3
    41015734:	01efb023          	sd	x30,0(x31)
    41015738:	000f0fb7          	lui	x31,0xf0
    4101573c:	001f8f9b          	addiw	x31,x31,1 # f0001 <mem24__pt_level4+0x7cf91>
    41015740:	00cf9f93          	slli	x31,x31,0xc
    41015744:	005f8f93          	addi	x31,x31,5
    41015748:	00000073          	ecall
    4101574c:	00004237          	lui	x4,0x4
    41015750:	00d00e13          	li	x28,13
    41015754:	05c23823          	sd	x28,80(x4) # 4050 <check_excp_expected_cause>
    41015758:	00000e17          	auipc	x28,0x0
    4101575c:	054e0e13          	addi	x28,x28,84 # 410157ac <fault_label_15>
    41015760:	03c23023          	sd	x28,32(x4) # 20 <SECURE_ACCESS_PROBABILITY+0x2>
    41015764:	00000e13          	li	x28,0
    41015768:	05c23023          	sd	x28,64(x4) # 40 <XLEN>
    4101576c:	00000e13          	li	x28,0
    41015770:	05c23423          	sd	x28,72(x4) # 48 <XLEN+0x8>
    41015774:	00000e17          	auipc	x28,0x0
    41015778:	04ce0e13          	addi	x28,x28,76 # 410157c0 <excp_return_label_15>
    4101577c:	03c23823          	sd	x28,48(x4) # 30 <SECURE_ACCESS_PROBABILITY+0x12>
    41015780:	00000e13          	li	x28,0
    41015784:	03c23c23          	sd	x28,56(x4) # 38 <SECURE_ACCESS_PROBABILITY+0x1a>
    41015788:	00000e13          	li	x28,0
    4101578c:	07c23023          	sd	x28,96(x4) # 60 <XLEN+0x20>
    41015790:	00000e13          	li	x28,0
    41015794:	07c23423          	sd	x28,104(x4) # 68 <XLEN+0x28>
    41015798:	00000e13          	li	x28,0
    4101579c:	07c23823          	sd	x28,112(x4) # 70 <XLEN+0x30>
    410157a0:	001aa3b7          	lui	x7,0x1aa
    410157a4:	8a53839b          	addiw	x7,x7,-1883 # 1a98a5 <mem35__pt_level2+0x628a5>
    410157a8:	00c39393          	slli	x7,x7,0xc

00000000410157ac <fault_label_15>:
    410157ac:	0003b583          	ld	x11,0(x7)
    410157b0:	0001a937          	lui	x18,0x1a
    410157b4:	0089091b          	addiw	x18,x18,8 # 1a008 <failed_addr>
    410157b8:	00093b03          	ld	x22,0(x18)
    410157bc:	000b0067          	jr	x22

00000000410157c0 <excp_return_label_15>:
    410157c0:	000403b7          	lui	x7,0x40
    410157c4:	0001afb7          	lui	x31,0x1a
    410157c8:	0a0f8f9b          	addiw	x31,x31,160 # 1a0a0 <machine_csr_jump_table_flags>
    410157cc:	00200f13          	li	x30,2
    410157d0:	01efb023          	sd	x30,0(x31)
    410157d4:	000f0fb7          	lui	x31,0xf0
    410157d8:	001f8f9b          	addiw	x31,x31,1 # f0001 <mem24__pt_level4+0x7cf91>
    410157dc:	00cf9f93          	slli	x31,x31,0xc
    410157e0:	005f8f93          	addi	x31,x31,5
    410157e4:	00000073          	ecall
    410157e8:	0050071b          	addiw	x14,x0,5
    410157ec:	03071713          	slli	x14,x14,0x30
    410157f0:	00071883          	lh	x17,0(x14)
    410157f4:	000403b7          	lui	x7,0x40
    410157f8:	0001afb7          	lui	x31,0x1a
    410157fc:	0a0f8f9b          	addiw	x31,x31,160 # 1a0a0 <machine_csr_jump_table_flags>
    41015800:	00300f13          	li	x30,3
    41015804:	01efb023          	sd	x30,0(x31)
    41015808:	000f0fb7          	lui	x31,0xf0
    4101580c:	001f8f9b          	addiw	x31,x31,1 # f0001 <mem24__pt_level4+0x7cf91>
    41015810:	00cf9f93          	slli	x31,x31,0xc
    41015814:	005f8f93          	addi	x31,x31,5
    41015818:	00000073          	ecall
    4101581c:	00004237          	lui	x4,0x4
    41015820:	00d00e13          	li	x28,13
    41015824:	05c23823          	sd	x28,80(x4) # 4050 <check_excp_expected_cause>
    41015828:	00000e17          	auipc	x28,0x0
    4101582c:	050e0e13          	addi	x28,x28,80 # 41015878 <fault_label_16>
    41015830:	03c23023          	sd	x28,32(x4) # 20 <SECURE_ACCESS_PROBABILITY+0x2>
    41015834:	00000e13          	li	x28,0
    41015838:	05c23023          	sd	x28,64(x4) # 40 <XLEN>
    4101583c:	00000e13          	li	x28,0
    41015840:	05c23423          	sd	x28,72(x4) # 48 <XLEN+0x8>
    41015844:	00000e17          	auipc	x28,0x0
    41015848:	048e0e13          	addi	x28,x28,72 # 4101588c <excp_return_label_16>
    4101584c:	03c23823          	sd	x28,48(x4) # 30 <SECURE_ACCESS_PROBABILITY+0x12>
    41015850:	00000e13          	li	x28,0
    41015854:	03c23c23          	sd	x28,56(x4) # 38 <SECURE_ACCESS_PROBABILITY+0x1a>
    41015858:	00000e13          	li	x28,0
    4101585c:	07c23023          	sd	x28,96(x4) # 60 <XLEN+0x20>
    41015860:	00000e13          	li	x28,0
    41015864:	07c23423          	sd	x28,104(x4) # 68 <XLEN+0x28>
    41015868:	00000e13          	li	x28,0
    4101586c:	07c23823          	sd	x28,112(x4) # 70 <XLEN+0x30>
    41015870:	0050091b          	addiw	x18,x0,5
    41015874:	03091913          	slli	x18,x18,0x30

0000000041015878 <fault_label_16>:
    41015878:	00092503          	lw	x10,0(x18)
    4101587c:	0001ad37          	lui	x26,0x1a
    41015880:	008d0d1b          	addiw	x26,x26,8 # 1a008 <failed_addr>
    41015884:	000d3c83          	ld	x25,0(x26)
    41015888:	000c8067          	jr	x25

000000004101588c <excp_return_label_16>:
    4101588c:	006d0137          	lui	x2,0x6d0
    41015890:	00013383          	ld	x7,0(x2) # 6d0000 <tp_csr_storage>
    41015894:	0001afb7          	lui	x31,0x1a
    41015898:	0a0f8f9b          	addiw	x31,x31,160 # 1a0a0 <machine_csr_jump_table_flags>
    4101589c:	00600f13          	li	x30,6
    410158a0:	01efb023          	sd	x30,0(x31)
    410158a4:	000f0fb7          	lui	x31,0xf0
    410158a8:	001f8f9b          	addiw	x31,x31,1 # f0001 <mem24__pt_level4+0x7cf91>
    410158ac:	00cf9f93          	slli	x31,x31,0xc
    410158b0:	005f8f93          	addi	x31,x31,5
    410158b4:	00000073          	ecall

00000000410158b8 <SID_PBVMS_029_ordering_satp_mstatus_without_sfence_passed>:
    410158b8:	00f00f9b          	addiw	x31,x0,15
    410158bc:	01cf9f93          	slli	x31,x31,0x1c
    410158c0:	001f8f93          	addi	x31,x31,1
    410158c4:	00000073          	ecall

00000000410158c8 <SID_PBVMS_030_sfence_vma_ordering_sync>:
    410158c8:	07bdd137          	lui	x2,0x7bdd
    410158cc:	4a31011b          	addiw	x2,x2,1187 # 7bdd4a3 <mem28__pt_level3+0x23814a3>
    410158d0:	00c11113          	slli	x2,x2,0xc
    410158d4:	000012b7          	lui	x5,0x1
    410158d8:	00510133          	add	x2,x2,x5
    410158dc:	ff017113          	andi	x2,x2,-16
    410158e0:	fff00a9b          	addiw	x21,x0,-1
    410158e4:	038a9a93          	slli	x21,x21,0x38
    410158e8:	000aaf83          	lw	x31,0(x21)
    410158ec:	0001afb7          	lui	x31,0x1a
    410158f0:	0b0f8f9b          	addiw	x31,x31,176 # 1a0b0 <pte_access_flags>
    410158f4:	fff0029b          	addiw	x5,x0,-1
    410158f8:	03829293          	slli	x5,x5,0x38
    410158fc:	005fb023          	sd	x5,0(x31)
    41015900:	00400293          	li	x5,4
    41015904:	005fb423          	sd	x5,8(x31)
    41015908:	fff00293          	li	x5,-1
    4101590c:	005fb823          	sd	x5,16(x31)
    41015910:	000f0fb7          	lui	x31,0xf0
    41015914:	001f8f9b          	addiw	x31,x31,1 # f0001 <mem24__pt_level4+0x7cf91>
    41015918:	00cf9f93          	slli	x31,x31,0xc
    4101591c:	007f8f93          	addi	x31,x31,7
    41015920:	00000073          	ecall
    41015924:	ffd00c93          	li	x25,-3
    41015928:	0193f733          	and	x14,x7,x25
    4101592c:	00070393          	mv	x7,x14
    41015930:	0001afb7          	lui	x31,0x1a
    41015934:	0b0f8f9b          	addiw	x31,x31,176 # 1a0b0 <pte_access_flags>
    41015938:	fff0029b          	addiw	x5,x0,-1
    4101593c:	03829293          	slli	x5,x5,0x38
    41015940:	005fb023          	sd	x5,0(x31)
    41015944:	00400293          	li	x5,4
    41015948:	005fb423          	sd	x5,8(x31)
    4101594c:	fff00293          	li	x5,-1
    41015950:	005fb823          	sd	x5,16(x31)
    41015954:	000f0fb7          	lui	x31,0xf0
    41015958:	001f8f9b          	addiw	x31,x31,1 # f0001 <mem24__pt_level4+0x7cf91>
    4101595c:	00cf9f93          	slli	x31,x31,0xc
    41015960:	008f8f93          	addi	x31,x31,8
    41015964:	00000073          	ecall
    41015968:	12000073          	sfence.vma
    4101596c:	00004237          	lui	x4,0x4
    41015970:	00d00e13          	li	x28,13
    41015974:	05c23823          	sd	x28,80(x4) # 4050 <check_excp_expected_cause>
    41015978:	00000e17          	auipc	x28,0x0
    4101597c:	050e0e13          	addi	x28,x28,80 # 410159c8 <fault_label_17>
    41015980:	03c23023          	sd	x28,32(x4) # 20 <SECURE_ACCESS_PROBABILITY+0x2>
    41015984:	00000e13          	li	x28,0
    41015988:	05c23023          	sd	x28,64(x4) # 40 <XLEN>
    4101598c:	00000e13          	li	x28,0
    41015990:	05c23423          	sd	x28,72(x4) # 48 <XLEN+0x8>
    41015994:	00000e17          	auipc	x28,0x0
    41015998:	048e0e13          	addi	x28,x28,72 # 410159dc <excp_return_label_17>
    4101599c:	03c23823          	sd	x28,48(x4) # 30 <SECURE_ACCESS_PROBABILITY+0x12>
    410159a0:	00000e13          	li	x28,0
    410159a4:	03c23c23          	sd	x28,56(x4) # 38 <SECURE_ACCESS_PROBABILITY+0x1a>
    410159a8:	00000e13          	li	x28,0
    410159ac:	07c23023          	sd	x28,96(x4) # 60 <XLEN+0x20>
    410159b0:	00000e13          	li	x28,0
    410159b4:	07c23423          	sd	x28,104(x4) # 68 <XLEN+0x28>
    410159b8:	00000e13          	li	x28,0
    410159bc:	07c23823          	sd	x28,112(x4) # 70 <XLEN+0x30>
    410159c0:	fff0049b          	addiw	x9,x0,-1
    410159c4:	03849493          	slli	x9,x9,0x38

00000000410159c8 <fault_label_17>:
    410159c8:	0004ac07          	flw	f24,0(x9)
    410159cc:	0001a437          	lui	x8,0x1a
    410159d0:	0084041b          	addiw	x8,x8,8 # 1a008 <failed_addr>
    410159d4:	00043583          	ld	x11,0(x8)
    410159d8:	00058067          	jr	x11

00000000410159dc <excp_return_label_17>:
    410159dc:	0001afb7          	lui	x31,0x1a
    410159e0:	0b0f8f9b          	addiw	x31,x31,176 # 1a0b0 <pte_access_flags>
    410159e4:	fff0029b          	addiw	x5,x0,-1
    410159e8:	03829293          	slli	x5,x5,0x38
    410159ec:	005fb023          	sd	x5,0(x31)
    410159f0:	00400293          	li	x5,4
    410159f4:	005fb423          	sd	x5,8(x31)
    410159f8:	fff00293          	li	x5,-1
    410159fc:	005fb823          	sd	x5,16(x31)
    41015a00:	000f0fb7          	lui	x31,0xf0
    41015a04:	001f8f9b          	addiw	x31,x31,1 # f0001 <mem24__pt_level4+0x7cf91>
    41015a08:	00cf9f93          	slli	x31,x31,0xc
    41015a0c:	007f8f93          	addi	x31,x31,7
    41015a10:	00000073          	ecall
    41015a14:	00200793          	li	x15,2
    41015a18:	00f3e8b3          	or	x17,x7,x15
    41015a1c:	00088393          	mv	x7,x17
    41015a20:	0001afb7          	lui	x31,0x1a
    41015a24:	0b0f8f9b          	addiw	x31,x31,176 # 1a0b0 <pte_access_flags>
    41015a28:	fff0029b          	addiw	x5,x0,-1
    41015a2c:	03829293          	slli	x5,x5,0x38
    41015a30:	005fb023          	sd	x5,0(x31)
    41015a34:	00400293          	li	x5,4
    41015a38:	005fb423          	sd	x5,8(x31)
    41015a3c:	fff00293          	li	x5,-1
    41015a40:	005fb823          	sd	x5,16(x31)
    41015a44:	000f0fb7          	lui	x31,0xf0
    41015a48:	001f8f9b          	addiw	x31,x31,1 # f0001 <mem24__pt_level4+0x7cf91>
    41015a4c:	00cf9f93          	slli	x31,x31,0xc
    41015a50:	008f8f93          	addi	x31,x31,8
    41015a54:	00000073          	ecall

0000000041015a58 <SID_PBVMS_030_sfence_vma_ordering_sync_passed>:
    41015a58:	00f00f9b          	addiw	x31,x0,15
    41015a5c:	01cf9f93          	slli	x31,x31,0x1c
    41015a60:	001f8f93          	addi	x31,x31,1
    41015a64:	00000073          	ecall

0000000041015a68 <SID_PBVMS_031_sfence_vma_invalidate_all>:
    41015a68:	006d0137          	lui	x2,0x6d0
    41015a6c:	0001afb7          	lui	x31,0x1a
    41015a70:	0a0f8f9b          	addiw	x31,x31,160 # 1a0a0 <machine_csr_jump_table_flags>
    41015a74:	00700f13          	li	x30,7
    41015a78:	01efb023          	sd	x30,0(x31)
    41015a7c:	000f0fb7          	lui	x31,0xf0
    41015a80:	001f8f9b          	addiw	x31,x31,1 # f0001 <mem24__pt_level4+0x7cf91>
    41015a84:	00cf9f93          	slli	x31,x31,0xc
    41015a88:	005f8f93          	addi	x31,x31,5
    41015a8c:	00000073          	ecall
    41015a90:	00713023          	sd	x7,0(x2) # 6d0000 <tp_csr_storage>
    41015a94:	06ee1137          	lui	x2,0x6ee1
    41015a98:	f3f1011b          	addiw	x2,x2,-193 # 6ee0f3f <mem28__pt_level3+0x1684f3f>
    41015a9c:	00e11113          	slli	x2,x2,0xe
    41015aa0:	000012b7          	lui	x5,0x1
    41015aa4:	00510133          	add	x2,x2,x5
    41015aa8:	ff017113          	andi	x2,x2,-16
    41015aac:	0010071b          	addiw	x14,x0,1
    41015ab0:	02c71713          	slli	x14,x14,0x2c
    41015ab4:	18072973          	csrrs	x18,satp,x14
    41015ab8:	0450089b          	addiw	x17,x0,69
    41015abc:	03089893          	slli	x17,x17,0x30
    41015ac0:	0008b983          	ld	x19,0(x17)
    41015ac4:	0210049b          	addiw	x9,x0,33
    41015ac8:	03149493          	slli	x9,x9,0x31
    41015acc:	0004a507          	flw	f10,0(x9)
    41015ad0:	0010079b          	addiw	x15,x0,1
    41015ad4:	02d79793          	slli	x15,x15,0x2d
    41015ad8:	1807aff3          	csrrs	x31,satp,x15
    41015adc:	0450079b          	addiw	x15,x0,69
    41015ae0:	03079793          	slli	x15,x15,0x30
    41015ae4:	00079983          	lh	x19,0(x15)
    41015ae8:	02100d9b          	addiw	x27,x0,33
    41015aec:	031d9d93          	slli	x27,x27,0x31
    41015af0:	000dd583          	lhu	x11,0(x27)
    41015af4:	0001afb7          	lui	x31,0x1a
    41015af8:	0b0f8f9b          	addiw	x31,x31,176 # 1a0b0 <pte_access_flags>
    41015afc:	0450029b          	addiw	x5,x0,69
    41015b00:	03029293          	slli	x5,x5,0x30
    41015b04:	005fb023          	sd	x5,0(x31)
    41015b08:	00400293          	li	x5,4
    41015b0c:	005fb423          	sd	x5,8(x31)
    41015b10:	fff00293          	li	x5,-1
    41015b14:	005fb823          	sd	x5,16(x31)
    41015b18:	000f0fb7          	lui	x31,0xf0
    41015b1c:	001f8f9b          	addiw	x31,x31,1 # f0001 <mem24__pt_level4+0x7cf91>
    41015b20:	00cf9f93          	slli	x31,x31,0xc
    41015b24:	007f8f93          	addi	x31,x31,7
    41015b28:	00000073          	ecall
    41015b2c:	ffd00d93          	li	x27,-3
    41015b30:	01b3f933          	and	x18,x7,x27
    41015b34:	00090393          	mv	x7,x18
    41015b38:	0001afb7          	lui	x31,0x1a
    41015b3c:	0b0f8f9b          	addiw	x31,x31,176 # 1a0b0 <pte_access_flags>
    41015b40:	0450029b          	addiw	x5,x0,69
    41015b44:	03029293          	slli	x5,x5,0x30
    41015b48:	005fb023          	sd	x5,0(x31)
    41015b4c:	00400293          	li	x5,4
    41015b50:	005fb423          	sd	x5,8(x31)
    41015b54:	fff00293          	li	x5,-1
    41015b58:	005fb823          	sd	x5,16(x31)
    41015b5c:	000f0fb7          	lui	x31,0xf0
    41015b60:	001f8f9b          	addiw	x31,x31,1 # f0001 <mem24__pt_level4+0x7cf91>
    41015b64:	00cf9f93          	slli	x31,x31,0xc
    41015b68:	008f8f93          	addi	x31,x31,8
    41015b6c:	00000073          	ecall
    41015b70:	0001afb7          	lui	x31,0x1a
    41015b74:	0b0f8f9b          	addiw	x31,x31,176 # 1a0b0 <pte_access_flags>
    41015b78:	0210029b          	addiw	x5,x0,33
    41015b7c:	03129293          	slli	x5,x5,0x31
    41015b80:	005fb023          	sd	x5,0(x31)
    41015b84:	00400293          	li	x5,4
    41015b88:	005fb423          	sd	x5,8(x31)
    41015b8c:	fff00293          	li	x5,-1
    41015b90:	005fb823          	sd	x5,16(x31)
    41015b94:	000f0fb7          	lui	x31,0xf0
    41015b98:	001f8f9b          	addiw	x31,x31,1 # f0001 <mem24__pt_level4+0x7cf91>
    41015b9c:	00cf9f93          	slli	x31,x31,0xc
    41015ba0:	007f8f93          	addi	x31,x31,7
    41015ba4:	00000073          	ecall
    41015ba8:	01b3fdb3          	and	x27,x7,x27
    41015bac:	000d8393          	mv	x7,x27
    41015bb0:	0001afb7          	lui	x31,0x1a
    41015bb4:	0b0f8f9b          	addiw	x31,x31,176 # 1a0b0 <pte_access_flags>
    41015bb8:	0210029b          	addiw	x5,x0,33
    41015bbc:	03129293          	slli	x5,x5,0x31
    41015bc0:	005fb023          	sd	x5,0(x31)
    41015bc4:	00400293          	li	x5,4
    41015bc8:	005fb423          	sd	x5,8(x31)
    41015bcc:	fff00293          	li	x5,-1
    41015bd0:	005fb823          	sd	x5,16(x31)
    41015bd4:	000f0fb7          	lui	x31,0xf0
    41015bd8:	001f8f9b          	addiw	x31,x31,1 # f0001 <mem24__pt_level4+0x7cf91>
    41015bdc:	00cf9f93          	slli	x31,x31,0xc
    41015be0:	008f8f93          	addi	x31,x31,8
    41015be4:	00000073          	ecall
    41015be8:	0030061b          	addiw	x12,x0,3
    41015bec:	02c61613          	slli	x12,x12,0x2c
    41015bf0:	18062cf3          	csrrs	x25,satp,x12
    41015bf4:	12000073          	sfence.vma
    41015bf8:	00004237          	lui	x4,0x4
    41015bfc:	00d00e13          	li	x28,13
    41015c00:	05c23823          	sd	x28,80(x4) # 4050 <check_excp_expected_cause>
    41015c04:	00000e17          	auipc	x28,0x0
    41015c08:	050e0e13          	addi	x28,x28,80 # 41015c54 <fault_label_18>
    41015c0c:	03c23023          	sd	x28,32(x4) # 20 <SECURE_ACCESS_PROBABILITY+0x2>
    41015c10:	00000e13          	li	x28,0
    41015c14:	05c23023          	sd	x28,64(x4) # 40 <XLEN>
    41015c18:	00000e13          	li	x28,0
    41015c1c:	05c23423          	sd	x28,72(x4) # 48 <XLEN+0x8>
    41015c20:	00000e17          	auipc	x28,0x0
    41015c24:	048e0e13          	addi	x28,x28,72 # 41015c68 <excp_return_label_18>
    41015c28:	03c23823          	sd	x28,48(x4) # 30 <SECURE_ACCESS_PROBABILITY+0x12>
    41015c2c:	00000e13          	li	x28,0
    41015c30:	03c23c23          	sd	x28,56(x4) # 38 <SECURE_ACCESS_PROBABILITY+0x1a>
    41015c34:	00000e13          	li	x28,0
    41015c38:	07c23023          	sd	x28,96(x4) # 60 <XLEN+0x20>
    41015c3c:	00000e13          	li	x28,0
    41015c40:	07c23423          	sd	x28,104(x4) # 68 <XLEN+0x28>
    41015c44:	00000e13          	li	x28,0
    41015c48:	07c23823          	sd	x28,112(x4) # 70 <XLEN+0x30>
    41015c4c:	0450041b          	addiw	x8,x0,69
    41015c50:	03041413          	slli	x8,x8,0x30

0000000041015c54 <fault_label_18>:
    41015c54:	00042703          	lw	x14,0(x8)
    41015c58:	0001a6b7          	lui	x13,0x1a
    41015c5c:	0086869b          	addiw	x13,x13,8 # 1a008 <failed_addr>
    41015c60:	0006b883          	ld	x17,0(x13)
    41015c64:	00088067          	jr	x17

0000000041015c68 <excp_return_label_18>:
    41015c68:	00004237          	lui	x4,0x4
    41015c6c:	00d00e13          	li	x28,13
    41015c70:	05c23823          	sd	x28,80(x4) # 4050 <check_excp_expected_cause>
    41015c74:	00000e17          	auipc	x28,0x0
    41015c78:	050e0e13          	addi	x28,x28,80 # 41015cc4 <fault_label_19>
    41015c7c:	03c23023          	sd	x28,32(x4) # 20 <SECURE_ACCESS_PROBABILITY+0x2>
    41015c80:	00000e13          	li	x28,0
    41015c84:	05c23023          	sd	x28,64(x4) # 40 <XLEN>
    41015c88:	00000e13          	li	x28,0
    41015c8c:	05c23423          	sd	x28,72(x4) # 48 <XLEN+0x8>
    41015c90:	00000e17          	auipc	x28,0x0
    41015c94:	048e0e13          	addi	x28,x28,72 # 41015cd8 <excp_return_label_19>
    41015c98:	03c23823          	sd	x28,48(x4) # 30 <SECURE_ACCESS_PROBABILITY+0x12>
    41015c9c:	00000e13          	li	x28,0
    41015ca0:	03c23c23          	sd	x28,56(x4) # 38 <SECURE_ACCESS_PROBABILITY+0x1a>
    41015ca4:	00000e13          	li	x28,0
    41015ca8:	07c23023          	sd	x28,96(x4) # 60 <XLEN+0x20>
    41015cac:	00000e13          	li	x28,0
    41015cb0:	07c23423          	sd	x28,104(x4) # 68 <XLEN+0x28>
    41015cb4:	00000e13          	li	x28,0
    41015cb8:	07c23823          	sd	x28,112(x4) # 70 <XLEN+0x30>
    41015cbc:	0210089b          	addiw	x17,x0,33
    41015cc0:	03189893          	slli	x17,x17,0x31

0000000041015cc4 <fault_label_19>:
    41015cc4:	0008a287          	flw	f5,0(x17)
    41015cc8:	0001aab7          	lui	x21,0x1a
    41015ccc:	008a8a9b          	addiw	x21,x21,8 # 1a008 <failed_addr>
    41015cd0:	000abf03          	ld	x30,0(x21)
    41015cd4:	000f0067          	jr	x30

0000000041015cd8 <excp_return_label_19>:
    41015cd8:	0001afb7          	lui	x31,0x1a
    41015cdc:	0b0f8f9b          	addiw	x31,x31,176 # 1a0b0 <pte_access_flags>
    41015ce0:	0450029b          	addiw	x5,x0,69
    41015ce4:	03029293          	slli	x5,x5,0x30
    41015ce8:	005fb023          	sd	x5,0(x31)
    41015cec:	00400293          	li	x5,4
    41015cf0:	005fb423          	sd	x5,8(x31)
    41015cf4:	fff00293          	li	x5,-1
    41015cf8:	005fb823          	sd	x5,16(x31)
    41015cfc:	000f0fb7          	lui	x31,0xf0
    41015d00:	001f8f9b          	addiw	x31,x31,1 # f0001 <mem24__pt_level4+0x7cf91>
    41015d04:	00cf9f93          	slli	x31,x31,0xc
    41015d08:	007f8f93          	addi	x31,x31,7
    41015d0c:	00000073          	ecall
    41015d10:	00200a13          	li	x20,2
    41015d14:	0143e733          	or	x14,x7,x20
    41015d18:	00070393          	mv	x7,x14
    41015d1c:	0001afb7          	lui	x31,0x1a
    41015d20:	0b0f8f9b          	addiw	x31,x31,176 # 1a0b0 <pte_access_flags>
    41015d24:	0450029b          	addiw	x5,x0,69
    41015d28:	03029293          	slli	x5,x5,0x30
    41015d2c:	005fb023          	sd	x5,0(x31)
    41015d30:	00400293          	li	x5,4
    41015d34:	005fb423          	sd	x5,8(x31)
    41015d38:	fff00293          	li	x5,-1
    41015d3c:	005fb823          	sd	x5,16(x31)
    41015d40:	000f0fb7          	lui	x31,0xf0
    41015d44:	001f8f9b          	addiw	x31,x31,1 # f0001 <mem24__pt_level4+0x7cf91>
    41015d48:	00cf9f93          	slli	x31,x31,0xc
    41015d4c:	008f8f93          	addi	x31,x31,8
    41015d50:	00000073          	ecall
    41015d54:	0001afb7          	lui	x31,0x1a
    41015d58:	0b0f8f9b          	addiw	x31,x31,176 # 1a0b0 <pte_access_flags>
    41015d5c:	0210029b          	addiw	x5,x0,33
    41015d60:	03129293          	slli	x5,x5,0x31
    41015d64:	005fb023          	sd	x5,0(x31)
    41015d68:	00400293          	li	x5,4
    41015d6c:	005fb423          	sd	x5,8(x31)
    41015d70:	fff00293          	li	x5,-1
    41015d74:	005fb823          	sd	x5,16(x31)
    41015d78:	000f0fb7          	lui	x31,0xf0
    41015d7c:	001f8f9b          	addiw	x31,x31,1 # f0001 <mem24__pt_level4+0x7cf91>
    41015d80:	00cf9f93          	slli	x31,x31,0xc
    41015d84:	007f8f93          	addi	x31,x31,7
    41015d88:	00000073          	ecall
    41015d8c:	00200413          	li	x8,2
    41015d90:	0083e433          	or	x8,x7,x8
    41015d94:	00040393          	mv	x7,x8
    41015d98:	0001afb7          	lui	x31,0x1a
    41015d9c:	0b0f8f9b          	addiw	x31,x31,176 # 1a0b0 <pte_access_flags>
    41015da0:	0210029b          	addiw	x5,x0,33
    41015da4:	03129293          	slli	x5,x5,0x31
    41015da8:	005fb023          	sd	x5,0(x31)
    41015dac:	00400293          	li	x5,4
    41015db0:	005fb423          	sd	x5,8(x31)
    41015db4:	fff00293          	li	x5,-1
    41015db8:	005fb823          	sd	x5,16(x31)
    41015dbc:	000f0fb7          	lui	x31,0xf0
    41015dc0:	001f8f9b          	addiw	x31,x31,1 # f0001 <mem24__pt_level4+0x7cf91>
    41015dc4:	00cf9f93          	slli	x31,x31,0xc
    41015dc8:	008f8f93          	addi	x31,x31,8
    41015dcc:	00000073          	ecall
    41015dd0:	006d0137          	lui	x2,0x6d0
    41015dd4:	00013383          	ld	x7,0(x2) # 6d0000 <tp_csr_storage>
    41015dd8:	0001afb7          	lui	x31,0x1a
    41015ddc:	0a0f8f9b          	addiw	x31,x31,160 # 1a0a0 <machine_csr_jump_table_flags>
    41015de0:	00800f13          	li	x30,8
    41015de4:	01efb023          	sd	x30,0(x31)
    41015de8:	000f0fb7          	lui	x31,0xf0
    41015dec:	001f8f9b          	addiw	x31,x31,1 # f0001 <mem24__pt_level4+0x7cf91>
    41015df0:	00cf9f93          	slli	x31,x31,0xc
    41015df4:	005f8f93          	addi	x31,x31,5
    41015df8:	00000073          	ecall

0000000041015dfc <SID_PBVMS_031_sfence_vma_invalidate_all_passed>:
    41015dfc:	00f00f9b          	addiw	x31,x0,15
    41015e00:	01cf9f93          	slli	x31,x31,0x1c
    41015e04:	001f8f93          	addi	x31,x31,1
    41015e08:	00000073          	ecall

0000000041015e0c <SID_PBVMS_032_sfence_vma_invalidate_asid>:
    41015e0c:	006d0137          	lui	x2,0x6d0
    41015e10:	0001afb7          	lui	x31,0x1a
    41015e14:	0a0f8f9b          	addiw	x31,x31,160 # 1a0a0 <machine_csr_jump_table_flags>
    41015e18:	00700f13          	li	x30,7
    41015e1c:	01efb023          	sd	x30,0(x31)
    41015e20:	000f0fb7          	lui	x31,0xf0
    41015e24:	001f8f9b          	addiw	x31,x31,1 # f0001 <mem24__pt_level4+0x7cf91>
    41015e28:	00cf9f93          	slli	x31,x31,0xc
    41015e2c:	005f8f93          	addi	x31,x31,5
    41015e30:	00000073          	ecall
    41015e34:	00713023          	sd	x7,0(x2) # 6d0000 <tp_csr_storage>
    41015e38:	000aa137          	lui	x2,0xaa
    41015e3c:	6f71011b          	addiw	x2,x2,1783 # aa6f7 <mem24__pt_level4+0x37687>
    41015e40:	00c11113          	slli	x2,x2,0xc
    41015e44:	b2310113          	addi	x2,x2,-1245
    41015e48:	00c11113          	slli	x2,x2,0xc
    41015e4c:	000012b7          	lui	x5,0x1
    41015e50:	00510133          	add	x2,x2,x5
    41015e54:	ff017113          	andi	x2,x2,-16
    41015e58:	00010c37          	lui	x24,0x10
    41015e5c:	fffc0c1b          	addiw	x24,x24,-1 # ffff <mem29__pt_level0+0x1fff>
    41015e60:	02cc1c13          	slli	x24,x24,0x2c
    41015e64:	180c3bf3          	csrrc	x23,satp,x24
    41015e68:	0010069b          	addiw	x13,x0,1
    41015e6c:	02c69693          	slli	x13,x13,0x2c
    41015e70:	1806adf3          	csrrs	x27,satp,x13
    41015e74:	04b0041b          	addiw	x8,x0,75
    41015e78:	03141413          	slli	x8,x8,0x31
    41015e7c:	00046803          	lwu	x16,0(x8)
    41015e80:	0001afb7          	lui	x31,0x1a
    41015e84:	0b0f8f9b          	addiw	x31,x31,176 # 1a0b0 <pte_access_flags>
    41015e88:	04b0029b          	addiw	x5,x0,75
    41015e8c:	03129293          	slli	x5,x5,0x31
    41015e90:	005fb023          	sd	x5,0(x31)
    41015e94:	00400293          	li	x5,4
    41015e98:	005fb423          	sd	x5,8(x31)
    41015e9c:	fff00293          	li	x5,-1
    41015ea0:	005fb823          	sd	x5,16(x31)
    41015ea4:	000f0fb7          	lui	x31,0xf0
    41015ea8:	001f8f9b          	addiw	x31,x31,1 # f0001 <mem24__pt_level4+0x7cf91>
    41015eac:	00cf9f93          	slli	x31,x31,0xc
    41015eb0:	007f8f93          	addi	x31,x31,7
    41015eb4:	00000073          	ecall
    41015eb8:	ffd00a93          	li	x21,-3
    41015ebc:	0153f9b3          	and	x19,x7,x21
    41015ec0:	00098393          	mv	x7,x19
    41015ec4:	0001afb7          	lui	x31,0x1a
    41015ec8:	0b0f8f9b          	addiw	x31,x31,176 # 1a0b0 <pte_access_flags>
    41015ecc:	04b0029b          	addiw	x5,x0,75
    41015ed0:	03129293          	slli	x5,x5,0x31
    41015ed4:	005fb023          	sd	x5,0(x31)
    41015ed8:	00400293          	li	x5,4
    41015edc:	005fb423          	sd	x5,8(x31)
    41015ee0:	fff00293          	li	x5,-1
    41015ee4:	005fb823          	sd	x5,16(x31)
    41015ee8:	000f0fb7          	lui	x31,0xf0
    41015eec:	001f8f9b          	addiw	x31,x31,1 # f0001 <mem24__pt_level4+0x7cf91>
    41015ef0:	00cf9f93          	slli	x31,x31,0xc
    41015ef4:	008f8f93          	addi	x31,x31,8
    41015ef8:	00000073          	ecall
    41015efc:	00100b9b          	addiw	x23,x0,1
    41015f00:	02db9b93          	slli	x23,x23,0x2d
    41015f04:	180bac73          	csrrs	x24,satp,x23
    41015f08:	00100593          	li	x11,1
    41015f0c:	12b00073          	sfence.vma	x0,x11
    41015f10:	00010f37          	lui	x30,0x10
    41015f14:	ffff0f1b          	addiw	x30,x30,-1 # ffff <mem29__pt_level0+0x1fff>
    41015f18:	02cf1f13          	slli	x30,x30,0x2c
    41015f1c:	180f3a73          	csrrc	x20,satp,x30
    41015f20:	0010061b          	addiw	x12,x0,1
    41015f24:	02d61613          	slli	x12,x12,0x2d
    41015f28:	18062673          	csrrs	x12,satp,x12
    41015f2c:	00100493          	li	x9,1
    41015f30:	12900073          	sfence.vma	x0,x9
    41015f34:	00010e37          	lui	x28,0x10
    41015f38:	fffe0e1b          	addiw	x28,x28,-1 # ffff <mem29__pt_level0+0x1fff>
    41015f3c:	02ce1e13          	slli	x28,x28,0x2c
    41015f40:	180e3373          	csrrc	x6,satp,x28
    41015f44:	0010059b          	addiw	x11,x0,1
    41015f48:	02c59593          	slli	x11,x11,0x2c
    41015f4c:	1805a673          	csrrs	x12,satp,x11
    41015f50:	00004237          	lui	x4,0x4
    41015f54:	00d00e13          	li	x28,13
    41015f58:	05c23823          	sd	x28,80(x4) # 4050 <check_excp_expected_cause>
    41015f5c:	00000e17          	auipc	x28,0x0
    41015f60:	050e0e13          	addi	x28,x28,80 # 41015fac <fault_label_20>
    41015f64:	03c23023          	sd	x28,32(x4) # 20 <SECURE_ACCESS_PROBABILITY+0x2>
    41015f68:	00000e13          	li	x28,0
    41015f6c:	05c23023          	sd	x28,64(x4) # 40 <XLEN>
    41015f70:	00000e13          	li	x28,0
    41015f74:	05c23423          	sd	x28,72(x4) # 48 <XLEN+0x8>
    41015f78:	00000e17          	auipc	x28,0x0
    41015f7c:	048e0e13          	addi	x28,x28,72 # 41015fc0 <excp_return_label_20>
    41015f80:	03c23823          	sd	x28,48(x4) # 30 <SECURE_ACCESS_PROBABILITY+0x12>
    41015f84:	00000e13          	li	x28,0
    41015f88:	03c23c23          	sd	x28,56(x4) # 38 <SECURE_ACCESS_PROBABILITY+0x1a>
    41015f8c:	00000e13          	li	x28,0
    41015f90:	07c23023          	sd	x28,96(x4) # 60 <XLEN+0x20>
    41015f94:	00000e13          	li	x28,0
    41015f98:	07c23423          	sd	x28,104(x4) # 68 <XLEN+0x28>
    41015f9c:	00000e13          	li	x28,0
    41015fa0:	07c23823          	sd	x28,112(x4) # 70 <XLEN+0x30>
    41015fa4:	04b0051b          	addiw	x10,x0,75
    41015fa8:	03151513          	slli	x10,x10,0x31

0000000041015fac <fault_label_20>:
    41015fac:	00054883          	lbu	x17,0(x10)
    41015fb0:	0001a9b7          	lui	x19,0x1a
    41015fb4:	0089899b          	addiw	x19,x19,8 # 1a008 <failed_addr>
    41015fb8:	0009bb03          	ld	x22,0(x19)
    41015fbc:	000b0067          	jr	x22

0000000041015fc0 <excp_return_label_20>:
    41015fc0:	0001afb7          	lui	x31,0x1a
    41015fc4:	0b0f8f9b          	addiw	x31,x31,176 # 1a0b0 <pte_access_flags>
    41015fc8:	04b0029b          	addiw	x5,x0,75
    41015fcc:	03129293          	slli	x5,x5,0x31
    41015fd0:	005fb023          	sd	x5,0(x31)
    41015fd4:	00400293          	li	x5,4
    41015fd8:	005fb423          	sd	x5,8(x31)
    41015fdc:	fff00293          	li	x5,-1
    41015fe0:	005fb823          	sd	x5,16(x31)
    41015fe4:	000f0fb7          	lui	x31,0xf0
    41015fe8:	001f8f9b          	addiw	x31,x31,1 # f0001 <mem24__pt_level4+0x7cf91>
    41015fec:	00cf9f93          	slli	x31,x31,0xc
    41015ff0:	007f8f93          	addi	x31,x31,7
    41015ff4:	00000073          	ecall
    41015ff8:	00200793          	li	x15,2
    41015ffc:	00f3e6b3          	or	x13,x7,x15
    41016000:	00068393          	mv	x7,x13
    41016004:	0001afb7          	lui	x31,0x1a
    41016008:	0b0f8f9b          	addiw	x31,x31,176 # 1a0b0 <pte_access_flags>
    4101600c:	04b0029b          	addiw	x5,x0,75
    41016010:	03129293          	slli	x5,x5,0x31
    41016014:	005fb023          	sd	x5,0(x31)
    41016018:	00400293          	li	x5,4
    4101601c:	005fb423          	sd	x5,8(x31)
    41016020:	fff00293          	li	x5,-1
    41016024:	005fb823          	sd	x5,16(x31)
    41016028:	000f0fb7          	lui	x31,0xf0
    4101602c:	001f8f9b          	addiw	x31,x31,1 # f0001 <mem24__pt_level4+0x7cf91>
    41016030:	00cf9f93          	slli	x31,x31,0xc
    41016034:	008f8f93          	addi	x31,x31,8
    41016038:	00000073          	ecall
    4101603c:	006d0137          	lui	x2,0x6d0
    41016040:	00013383          	ld	x7,0(x2) # 6d0000 <tp_csr_storage>
    41016044:	0001afb7          	lui	x31,0x1a
    41016048:	0a0f8f9b          	addiw	x31,x31,160 # 1a0a0 <machine_csr_jump_table_flags>
    4101604c:	00800f13          	li	x30,8
    41016050:	01efb023          	sd	x30,0(x31)
    41016054:	000f0fb7          	lui	x31,0xf0
    41016058:	001f8f9b          	addiw	x31,x31,1 # f0001 <mem24__pt_level4+0x7cf91>
    4101605c:	00cf9f93          	slli	x31,x31,0xc
    41016060:	005f8f93          	addi	x31,x31,5
    41016064:	00000073          	ecall

0000000041016068 <SID_PBVMS_032_sfence_vma_invalidate_asid_passed>:
    41016068:	00f00f9b          	addiw	x31,x0,15
    4101606c:	01cf9f93          	slli	x31,x31,0x1c
    41016070:	001f8f93          	addi	x31,x31,1
    41016074:	00000073          	ecall

0000000041016078 <SID_PBVMS_033_sfence_vma_invalidate_va>:
    41016078:	006d0137          	lui	x2,0x6d0
    4101607c:	0001afb7          	lui	x31,0x1a
    41016080:	0a0f8f9b          	addiw	x31,x31,160 # 1a0a0 <machine_csr_jump_table_flags>
    41016084:	00700f13          	li	x30,7
    41016088:	01efb023          	sd	x30,0(x31)
    4101608c:	000f0fb7          	lui	x31,0xf0
    41016090:	001f8f9b          	addiw	x31,x31,1 # f0001 <mem24__pt_level4+0x7cf91>
    41016094:	00cf9f93          	slli	x31,x31,0xc
    41016098:	005f8f93          	addi	x31,x31,5
    4101609c:	00000073          	ecall
    410160a0:	00713023          	sd	x7,0(x2) # 6d0000 <tp_csr_storage>
    410160a4:	09f6a137          	lui	x2,0x9f6a
    410160a8:	b1f1011b          	addiw	x2,x2,-1249 # 9f69b1f <mem10__pt_level2+0xc33b1f>
    410160ac:	00d11113          	slli	x2,x2,0xd
    410160b0:	8c910113          	addi	x2,x2,-1847
    410160b4:	00d11113          	slli	x2,x2,0xd
    410160b8:	000012b7          	lui	x5,0x1
    410160bc:	00510133          	add	x2,x2,x5
    410160c0:	ff017113          	andi	x2,x2,-16
    410160c4:	00100a1b          	addiw	x20,x0,1
    410160c8:	02ca1a13          	slli	x20,x20,0x2c
    410160cc:	180a25f3          	csrrs	x11,satp,x20
    410160d0:	00100e9b          	addiw	x29,x0,1
    410160d4:	033e9e93          	slli	x29,x29,0x33
    410160d8:	000e9703          	lh	x14,0(x29)
    410160dc:	0110061b          	addiw	x12,x0,17
    410160e0:	03061613          	slli	x12,x12,0x30
    410160e4:	00066e83          	lwu	x29,0(x12)
    410160e8:	0001afb7          	lui	x31,0x1a
    410160ec:	0b0f8f9b          	addiw	x31,x31,176 # 1a0b0 <pte_access_flags>
    410160f0:	0010029b          	addiw	x5,x0,1
    410160f4:	03329293          	slli	x5,x5,0x33
    410160f8:	005fb023          	sd	x5,0(x31)
    410160fc:	00400293          	li	x5,4
    41016100:	005fb423          	sd	x5,8(x31)
    41016104:	fff00293          	li	x5,-1
    41016108:	005fb823          	sd	x5,16(x31)
    4101610c:	000f0fb7          	lui	x31,0xf0
    41016110:	001f8f9b          	addiw	x31,x31,1 # f0001 <mem24__pt_level4+0x7cf91>
    41016114:	00cf9f93          	slli	x31,x31,0xc
    41016118:	007f8f93          	addi	x31,x31,7
    4101611c:	00000073          	ecall
    41016120:	ffd00693          	li	x13,-3
    41016124:	00d3fcb3          	and	x25,x7,x13
    41016128:	000c8393          	mv	x7,x25
    4101612c:	0001afb7          	lui	x31,0x1a
    41016130:	0b0f8f9b          	addiw	x31,x31,176 # 1a0b0 <pte_access_flags>
    41016134:	0010029b          	addiw	x5,x0,1
    41016138:	03329293          	slli	x5,x5,0x33
    4101613c:	005fb023          	sd	x5,0(x31)
    41016140:	00400293          	li	x5,4
    41016144:	005fb423          	sd	x5,8(x31)
    41016148:	fff00293          	li	x5,-1
    4101614c:	005fb823          	sd	x5,16(x31)
    41016150:	000f0fb7          	lui	x31,0xf0
    41016154:	001f8f9b          	addiw	x31,x31,1 # f0001 <mem24__pt_level4+0x7cf91>
    41016158:	00cf9f93          	slli	x31,x31,0xc
    4101615c:	008f8f93          	addi	x31,x31,8
    41016160:	00000073          	ecall
    41016164:	0001afb7          	lui	x31,0x1a
    41016168:	0b0f8f9b          	addiw	x31,x31,176 # 1a0b0 <pte_access_flags>
    4101616c:	0110029b          	addiw	x5,x0,17
    41016170:	03029293          	slli	x5,x5,0x30
    41016174:	005fb023          	sd	x5,0(x31)
    41016178:	00400293          	li	x5,4
    4101617c:	005fb423          	sd	x5,8(x31)
    41016180:	fff00293          	li	x5,-1
    41016184:	005fb823          	sd	x5,16(x31)
    41016188:	000f0fb7          	lui	x31,0xf0
    4101618c:	001f8f9b          	addiw	x31,x31,1 # f0001 <mem24__pt_level4+0x7cf91>
    41016190:	00cf9f93          	slli	x31,x31,0xc
    41016194:	007f8f93          	addi	x31,x31,7
    41016198:	00000073          	ecall
    4101619c:	00d3fc33          	and	x24,x7,x13
    410161a0:	000c0393          	mv	x7,x24
    410161a4:	0001afb7          	lui	x31,0x1a
    410161a8:	0b0f8f9b          	addiw	x31,x31,176 # 1a0b0 <pte_access_flags>
    410161ac:	0110029b          	addiw	x5,x0,17
    410161b0:	03029293          	slli	x5,x5,0x30
    410161b4:	005fb023          	sd	x5,0(x31)
    410161b8:	00400293          	li	x5,4
    410161bc:	005fb423          	sd	x5,8(x31)
    410161c0:	fff00293          	li	x5,-1
    410161c4:	005fb823          	sd	x5,16(x31)
    410161c8:	000f0fb7          	lui	x31,0xf0
    410161cc:	001f8f9b          	addiw	x31,x31,1 # f0001 <mem24__pt_level4+0x7cf91>
    410161d0:	00cf9f93          	slli	x31,x31,0xc
    410161d4:	008f8f93          	addi	x31,x31,8
    410161d8:	00000073          	ecall
    410161dc:	0010039b          	addiw	x7,x0,1
    410161e0:	03339393          	slli	x7,x7,0x33
    410161e4:	01100a1b          	addiw	x20,x0,17
    410161e8:	030a1a13          	slli	x20,x20,0x30
    410161ec:	12038073          	sfence.vma	x7
    410161f0:	120a0073          	sfence.vma	x20
    410161f4:	00004237          	lui	x4,0x4
    410161f8:	00d00e13          	li	x28,13
    410161fc:	05c23823          	sd	x28,80(x4) # 4050 <check_excp_expected_cause>
    41016200:	00000e17          	auipc	x28,0x0
    41016204:	050e0e13          	addi	x28,x28,80 # 41016250 <fault_label_21>
    41016208:	03c23023          	sd	x28,32(x4) # 20 <SECURE_ACCESS_PROBABILITY+0x2>
    4101620c:	00000e13          	li	x28,0
    41016210:	05c23023          	sd	x28,64(x4) # 40 <XLEN>
    41016214:	00000e13          	li	x28,0
    41016218:	05c23423          	sd	x28,72(x4) # 48 <XLEN+0x8>
    4101621c:	00000e17          	auipc	x28,0x0
    41016220:	048e0e13          	addi	x28,x28,72 # 41016264 <excp_return_label_21>
    41016224:	03c23823          	sd	x28,48(x4) # 30 <SECURE_ACCESS_PROBABILITY+0x12>
    41016228:	00000e13          	li	x28,0
    4101622c:	03c23c23          	sd	x28,56(x4) # 38 <SECURE_ACCESS_PROBABILITY+0x1a>
    41016230:	00000e13          	li	x28,0
    41016234:	07c23023          	sd	x28,96(x4) # 60 <XLEN+0x20>
    41016238:	00000e13          	li	x28,0
    4101623c:	07c23423          	sd	x28,104(x4) # 68 <XLEN+0x28>
    41016240:	00000e13          	li	x28,0
    41016244:	07c23823          	sd	x28,112(x4) # 70 <XLEN+0x30>
    41016248:	00100a9b          	addiw	x21,x0,1
    4101624c:	033a9a93          	slli	x21,x21,0x33

0000000041016250 <fault_label_21>:
    41016250:	000ab703          	ld	x14,0(x21)
    41016254:	0001a9b7          	lui	x19,0x1a
    41016258:	0089899b          	addiw	x19,x19,8 # 1a008 <failed_addr>
    4101625c:	0009ba03          	ld	x20,0(x19)
    41016260:	000a0067          	jr	x20

0000000041016264 <excp_return_label_21>:
    41016264:	00004237          	lui	x4,0x4
    41016268:	00d00e13          	li	x28,13
    4101626c:	05c23823          	sd	x28,80(x4) # 4050 <check_excp_expected_cause>
    41016270:	00000e17          	auipc	x28,0x0
    41016274:	050e0e13          	addi	x28,x28,80 # 410162c0 <fault_label_22>
    41016278:	03c23023          	sd	x28,32(x4) # 20 <SECURE_ACCESS_PROBABILITY+0x2>
    4101627c:	00000e13          	li	x28,0
    41016280:	05c23023          	sd	x28,64(x4) # 40 <XLEN>
    41016284:	00000e13          	li	x28,0
    41016288:	05c23423          	sd	x28,72(x4) # 48 <XLEN+0x8>
    4101628c:	00000e17          	auipc	x28,0x0
    41016290:	048e0e13          	addi	x28,x28,72 # 410162d4 <excp_return_label_22>
    41016294:	03c23823          	sd	x28,48(x4) # 30 <SECURE_ACCESS_PROBABILITY+0x12>
    41016298:	00000e13          	li	x28,0
    4101629c:	03c23c23          	sd	x28,56(x4) # 38 <SECURE_ACCESS_PROBABILITY+0x1a>
    410162a0:	00000e13          	li	x28,0
    410162a4:	07c23023          	sd	x28,96(x4) # 60 <XLEN+0x20>
    410162a8:	00000e13          	li	x28,0
    410162ac:	07c23423          	sd	x28,104(x4) # 68 <XLEN+0x28>
    410162b0:	00000e13          	li	x28,0
    410162b4:	07c23823          	sd	x28,112(x4) # 70 <XLEN+0x30>
    410162b8:	0110059b          	addiw	x11,x0,17
    410162bc:	03059593          	slli	x11,x11,0x30

00000000410162c0 <fault_label_22>:
    410162c0:	0005cd03          	lbu	x26,0(x11)
    410162c4:	0001a537          	lui	x10,0x1a
    410162c8:	0085051b          	addiw	x10,x10,8 # 1a008 <failed_addr>
    410162cc:	00053903          	ld	x18,0(x10)
    410162d0:	00090067          	jr	x18

00000000410162d4 <excp_return_label_22>:
    410162d4:	0001afb7          	lui	x31,0x1a
    410162d8:	0b0f8f9b          	addiw	x31,x31,176 # 1a0b0 <pte_access_flags>
    410162dc:	0010029b          	addiw	x5,x0,1
    410162e0:	03329293          	slli	x5,x5,0x33
    410162e4:	005fb023          	sd	x5,0(x31)
    410162e8:	00400293          	li	x5,4
    410162ec:	005fb423          	sd	x5,8(x31)
    410162f0:	fff00293          	li	x5,-1
    410162f4:	005fb823          	sd	x5,16(x31)
    410162f8:	000f0fb7          	lui	x31,0xf0
    410162fc:	001f8f9b          	addiw	x31,x31,1 # f0001 <mem24__pt_level4+0x7cf91>
    41016300:	00cf9f93          	slli	x31,x31,0xc
    41016304:	007f8f93          	addi	x31,x31,7
    41016308:	00000073          	ecall
    4101630c:	00200a13          	li	x20,2
    41016310:	0143ef33          	or	x30,x7,x20
    41016314:	000f0393          	mv	x7,x30
    41016318:	0001afb7          	lui	x31,0x1a
    4101631c:	0b0f8f9b          	addiw	x31,x31,176 # 1a0b0 <pte_access_flags>
    41016320:	0010029b          	addiw	x5,x0,1
    41016324:	03329293          	slli	x5,x5,0x33
    41016328:	005fb023          	sd	x5,0(x31)
    4101632c:	00400293          	li	x5,4
    41016330:	005fb423          	sd	x5,8(x31)
    41016334:	fff00293          	li	x5,-1
    41016338:	005fb823          	sd	x5,16(x31)
    4101633c:	000f0fb7          	lui	x31,0xf0
    41016340:	001f8f9b          	addiw	x31,x31,1 # f0001 <mem24__pt_level4+0x7cf91>
    41016344:	00cf9f93          	slli	x31,x31,0xc
    41016348:	008f8f93          	addi	x31,x31,8
    4101634c:	00000073          	ecall
    41016350:	0001afb7          	lui	x31,0x1a
    41016354:	0b0f8f9b          	addiw	x31,x31,176 # 1a0b0 <pte_access_flags>
    41016358:	0110029b          	addiw	x5,x0,17
    4101635c:	03029293          	slli	x5,x5,0x30
    41016360:	005fb023          	sd	x5,0(x31)
    41016364:	00400293          	li	x5,4
    41016368:	005fb423          	sd	x5,8(x31)
    4101636c:	fff00293          	li	x5,-1
    41016370:	005fb823          	sd	x5,16(x31)
    41016374:	000f0fb7          	lui	x31,0xf0
    41016378:	001f8f9b          	addiw	x31,x31,1 # f0001 <mem24__pt_level4+0x7cf91>
    4101637c:	00cf9f93          	slli	x31,x31,0xc
    41016380:	007f8f93          	addi	x31,x31,7
    41016384:	00000073          	ecall
    41016388:	00200413          	li	x8,2
    4101638c:	0083e333          	or	x6,x7,x8
    41016390:	00030393          	mv	x7,x6
    41016394:	0001afb7          	lui	x31,0x1a
    41016398:	0b0f8f9b          	addiw	x31,x31,176 # 1a0b0 <pte_access_flags>
    4101639c:	0110029b          	addiw	x5,x0,17
    410163a0:	03029293          	slli	x5,x5,0x30
    410163a4:	005fb023          	sd	x5,0(x31)
    410163a8:	00400293          	li	x5,4
    410163ac:	005fb423          	sd	x5,8(x31)
    410163b0:	fff00293          	li	x5,-1
    410163b4:	005fb823          	sd	x5,16(x31)
    410163b8:	000f0fb7          	lui	x31,0xf0
    410163bc:	001f8f9b          	addiw	x31,x31,1 # f0001 <mem24__pt_level4+0x7cf91>
    410163c0:	00cf9f93          	slli	x31,x31,0xc
    410163c4:	008f8f93          	addi	x31,x31,8
    410163c8:	00000073          	ecall
    410163cc:	006d0137          	lui	x2,0x6d0
    410163d0:	00013383          	ld	x7,0(x2) # 6d0000 <tp_csr_storage>
    410163d4:	0001afb7          	lui	x31,0x1a
    410163d8:	0a0f8f9b          	addiw	x31,x31,160 # 1a0a0 <machine_csr_jump_table_flags>
    410163dc:	00800f13          	li	x30,8
    410163e0:	01efb023          	sd	x30,0(x31)
    410163e4:	000f0fb7          	lui	x31,0xf0
    410163e8:	001f8f9b          	addiw	x31,x31,1 # f0001 <mem24__pt_level4+0x7cf91>
    410163ec:	00cf9f93          	slli	x31,x31,0xc
    410163f0:	005f8f93          	addi	x31,x31,5
    410163f4:	00000073          	ecall

00000000410163f8 <SID_PBVMS_033_sfence_vma_invalidate_va_passed>:
    410163f8:	00f00f9b          	addiw	x31,x0,15
    410163fc:	01cf9f93          	slli	x31,x31,0x1c
    41016400:	001f8f93          	addi	x31,x31,1
    41016404:	00000073          	ecall

0000000041016408 <SID_PBVMS_034_sfence_vma_invalidate_va_asid>:
    41016408:	006d0137          	lui	x2,0x6d0
    4101640c:	0001afb7          	lui	x31,0x1a
    41016410:	0a0f8f9b          	addiw	x31,x31,160 # 1a0a0 <machine_csr_jump_table_flags>
    41016414:	00700f13          	li	x30,7
    41016418:	01efb023          	sd	x30,0(x31)
    4101641c:	000f0fb7          	lui	x31,0xf0
    41016420:	001f8f9b          	addiw	x31,x31,1 # f0001 <mem24__pt_level4+0x7cf91>
    41016424:	00cf9f93          	slli	x31,x31,0xc
    41016428:	005f8f93          	addi	x31,x31,5
    4101642c:	00000073          	ecall
    41016430:	00713023          	sd	x7,0(x2) # 6d0000 <tp_csr_storage>
    41016434:	00275137          	lui	x2,0x275
    41016438:	000012b7          	lui	x5,0x1
    4101643c:	00510133          	add	x2,x2,x5
    41016440:	ff017113          	andi	x2,x2,-16
    41016444:	00010eb7          	lui	x29,0x10
    41016448:	fffe8e9b          	addiw	x29,x29,-1 # ffff <mem29__pt_level0+0x1fff>
    4101644c:	02ce9e93          	slli	x29,x29,0x2c
    41016450:	180ebcf3          	csrrc	x25,satp,x29
    41016454:	0010081b          	addiw	x16,x0,1
    41016458:	02c81813          	slli	x16,x16,0x2c
    4101645c:	18082af3          	csrrs	x21,satp,x16
    41016460:	0030099b          	addiw	x19,x0,3
    41016464:	03299993          	slli	x19,x19,0x32
    41016468:	00098883          	lb	x17,0(x19)
    4101646c:	0001afb7          	lui	x31,0x1a
    41016470:	0b0f8f9b          	addiw	x31,x31,176 # 1a0b0 <pte_access_flags>
    41016474:	0030029b          	addiw	x5,x0,3
    41016478:	03229293          	slli	x5,x5,0x32
    4101647c:	005fb023          	sd	x5,0(x31)
    41016480:	00400293          	li	x5,4
    41016484:	005fb423          	sd	x5,8(x31)
    41016488:	fff00293          	li	x5,-1
    4101648c:	005fb823          	sd	x5,16(x31)
    41016490:	000f0fb7          	lui	x31,0xf0
    41016494:	001f8f9b          	addiw	x31,x31,1 # f0001 <mem24__pt_level4+0x7cf91>
    41016498:	00cf9f93          	slli	x31,x31,0xc
    4101649c:	007f8f93          	addi	x31,x31,7
    410164a0:	00000073          	ecall
    410164a4:	ffd00b93          	li	x23,-3
    410164a8:	0173f4b3          	and	x9,x7,x23
    410164ac:	00048393          	mv	x7,x9
    410164b0:	0001afb7          	lui	x31,0x1a
    410164b4:	0b0f8f9b          	addiw	x31,x31,176 # 1a0b0 <pte_access_flags>
    410164b8:	0030029b          	addiw	x5,x0,3
    410164bc:	03229293          	slli	x5,x5,0x32
    410164c0:	005fb023          	sd	x5,0(x31)
    410164c4:	00400293          	li	x5,4
    410164c8:	005fb423          	sd	x5,8(x31)
    410164cc:	fff00293          	li	x5,-1
    410164d0:	005fb823          	sd	x5,16(x31)
    410164d4:	000f0fb7          	lui	x31,0xf0
    410164d8:	001f8f9b          	addiw	x31,x31,1 # f0001 <mem24__pt_level4+0x7cf91>
    410164dc:	00cf9f93          	slli	x31,x31,0xc
    410164e0:	008f8f93          	addi	x31,x31,8
    410164e4:	00000073          	ecall
    410164e8:	00010537          	lui	x10,0x10
    410164ec:	fff5051b          	addiw	x10,x10,-1 # ffff <mem29__pt_level0+0x1fff>
    410164f0:	02c51513          	slli	x10,x10,0x2c
    410164f4:	18053c73          	csrrc	x24,satp,x10
    410164f8:	0010099b          	addiw	x19,x0,1
    410164fc:	02d99993          	slli	x19,x19,0x2d
    41016500:	1809aff3          	csrrs	x31,satp,x19
    41016504:	0030061b          	addiw	x12,x0,3
    41016508:	03261613          	slli	x12,x12,0x32
    4101650c:	00100b13          	li	x22,1
    41016510:	13660073          	sfence.vma	x12,x22
    41016514:	00010937          	lui	x18,0x10
    41016518:	fff9091b          	addiw	x18,x18,-1 # ffff <mem29__pt_level0+0x1fff>
    4101651c:	02c91913          	slli	x18,x18,0x2c
    41016520:	18093973          	csrrc	x18,satp,x18
    41016524:	0010051b          	addiw	x10,x0,1
    41016528:	02c51513          	slli	x10,x10,0x2c
    4101652c:	18052973          	csrrs	x18,satp,x10
    41016530:	00004237          	lui	x4,0x4
    41016534:	00d00e13          	li	x28,13
    41016538:	05c23823          	sd	x28,80(x4) # 4050 <check_excp_expected_cause>
    4101653c:	00000e17          	auipc	x28,0x0
    41016540:	050e0e13          	addi	x28,x28,80 # 4101658c <fault_label_23>
    41016544:	03c23023          	sd	x28,32(x4) # 20 <SECURE_ACCESS_PROBABILITY+0x2>
    41016548:	00000e13          	li	x28,0
    4101654c:	05c23023          	sd	x28,64(x4) # 40 <XLEN>
    41016550:	00000e13          	li	x28,0
    41016554:	05c23423          	sd	x28,72(x4) # 48 <XLEN+0x8>
    41016558:	00000e17          	auipc	x28,0x0
    4101655c:	048e0e13          	addi	x28,x28,72 # 410165a0 <excp_return_label_23>
    41016560:	03c23823          	sd	x28,48(x4) # 30 <SECURE_ACCESS_PROBABILITY+0x12>
    41016564:	00000e13          	li	x28,0
    41016568:	03c23c23          	sd	x28,56(x4) # 38 <SECURE_ACCESS_PROBABILITY+0x1a>
    4101656c:	00000e13          	li	x28,0
    41016570:	07c23023          	sd	x28,96(x4) # 60 <XLEN+0x20>
    41016574:	00000e13          	li	x28,0
    41016578:	07c23423          	sd	x28,104(x4) # 68 <XLEN+0x28>
    4101657c:	00000e13          	li	x28,0
    41016580:	07c23823          	sd	x28,112(x4) # 70 <XLEN+0x30>
    41016584:	0030049b          	addiw	x9,x0,3
    41016588:	03249493          	slli	x9,x9,0x32

000000004101658c <fault_label_23>:
    4101658c:	0004db03          	lhu	x22,0(x9)
    41016590:	0001a8b7          	lui	x17,0x1a
    41016594:	0088889b          	addiw	x17,x17,8 # 1a008 <failed_addr>
    41016598:	0008b503          	ld	x10,0(x17)
    4101659c:	00050067          	jr	x10

00000000410165a0 <excp_return_label_23>:
    410165a0:	0001afb7          	lui	x31,0x1a
    410165a4:	0b0f8f9b          	addiw	x31,x31,176 # 1a0b0 <pte_access_flags>
    410165a8:	0030029b          	addiw	x5,x0,3
    410165ac:	03229293          	slli	x5,x5,0x32
    410165b0:	005fb023          	sd	x5,0(x31)
    410165b4:	00400293          	li	x5,4
    410165b8:	005fb423          	sd	x5,8(x31)
    410165bc:	fff00293          	li	x5,-1
    410165c0:	005fb823          	sd	x5,16(x31)
    410165c4:	000f0fb7          	lui	x31,0xf0
    410165c8:	001f8f9b          	addiw	x31,x31,1 # f0001 <mem24__pt_level4+0x7cf91>
    410165cc:	00cf9f93          	slli	x31,x31,0xc
    410165d0:	007f8f93          	addi	x31,x31,7
    410165d4:	00000073          	ecall
    410165d8:	00200e93          	li	x29,2
    410165dc:	01d3edb3          	or	x27,x7,x29
    410165e0:	000d8393          	mv	x7,x27
    410165e4:	0001afb7          	lui	x31,0x1a
    410165e8:	0b0f8f9b          	addiw	x31,x31,176 # 1a0b0 <pte_access_flags>
    410165ec:	0030029b          	addiw	x5,x0,3
    410165f0:	03229293          	slli	x5,x5,0x32
    410165f4:	005fb023          	sd	x5,0(x31)
    410165f8:	00400293          	li	x5,4
    410165fc:	005fb423          	sd	x5,8(x31)
    41016600:	fff00293          	li	x5,-1
    41016604:	005fb823          	sd	x5,16(x31)
    41016608:	000f0fb7          	lui	x31,0xf0
    4101660c:	001f8f9b          	addiw	x31,x31,1 # f0001 <mem24__pt_level4+0x7cf91>
    41016610:	00cf9f93          	slli	x31,x31,0xc
    41016614:	008f8f93          	addi	x31,x31,8
    41016618:	00000073          	ecall
    4101661c:	006d0137          	lui	x2,0x6d0
    41016620:	00013383          	ld	x7,0(x2) # 6d0000 <tp_csr_storage>
    41016624:	0001afb7          	lui	x31,0x1a
    41016628:	0a0f8f9b          	addiw	x31,x31,160 # 1a0a0 <machine_csr_jump_table_flags>
    4101662c:	00800f13          	li	x30,8
    41016630:	01efb023          	sd	x30,0(x31)
    41016634:	000f0fb7          	lui	x31,0xf0
    41016638:	001f8f9b          	addiw	x31,x31,1 # f0001 <mem24__pt_level4+0x7cf91>
    4101663c:	00cf9f93          	slli	x31,x31,0xc
    41016640:	005f8f93          	addi	x31,x31,5
    41016644:	00000073          	ecall

0000000041016648 <SID_PBVMS_034_sfence_vma_invalidate_va_asid_passed>:
    41016648:	00f00f9b          	addiw	x31,x0,15
    4101664c:	01cf9f93          	slli	x31,x31,0x1c
    41016650:	001f8f93          	addi	x31,x31,1
    41016654:	00000073          	ecall

0000000041016658 <SID_PBVMS_035_sfence_vma_various_page_sizes>:
    41016658:	000ce137          	lui	x2,0xce
    4101665c:	72b1011b          	addiw	x2,x2,1835 # ce72b <mem24__pt_level4+0x5b6bb>
    41016660:	00e11113          	slli	x2,x2,0xe
    41016664:	31b10113          	addi	x2,x2,795
    41016668:	00e11113          	slli	x2,x2,0xe
    4101666c:	000012b7          	lui	x5,0x1
    41016670:	00510133          	add	x2,x2,x5
    41016674:	ff017113          	andi	x2,x2,-16
    41016678:	0030061b          	addiw	x12,x0,3
    4101667c:	03161613          	slli	x12,x12,0x31
    41016680:	00063703          	ld	x14,0(x12)
    41016684:	0001afb7          	lui	x31,0x1a
    41016688:	0b0f8f9b          	addiw	x31,x31,176 # 1a0b0 <pte_access_flags>
    4101668c:	0030029b          	addiw	x5,x0,3
    41016690:	03129293          	slli	x5,x5,0x31
    41016694:	005fb023          	sd	x5,0(x31)
    41016698:	00400293          	li	x5,4
    4101669c:	005fb423          	sd	x5,8(x31)
    410166a0:	fff00293          	li	x5,-1
    410166a4:	005fb823          	sd	x5,16(x31)
    410166a8:	000f0fb7          	lui	x31,0xf0
    410166ac:	001f8f9b          	addiw	x31,x31,1 # f0001 <mem24__pt_level4+0x7cf91>
    410166b0:	00cf9f93          	slli	x31,x31,0xc
    410166b4:	007f8f93          	addi	x31,x31,7
    410166b8:	00000073          	ecall
    410166bc:	ffd00a13          	li	x20,-3
    410166c0:	0143f4b3          	and	x9,x7,x20
    410166c4:	00048393          	mv	x7,x9
    410166c8:	0001afb7          	lui	x31,0x1a
    410166cc:	0b0f8f9b          	addiw	x31,x31,176 # 1a0b0 <pte_access_flags>
    410166d0:	0030029b          	addiw	x5,x0,3
    410166d4:	03129293          	slli	x5,x5,0x31
    410166d8:	005fb023          	sd	x5,0(x31)
    410166dc:	00400293          	li	x5,4
    410166e0:	005fb423          	sd	x5,8(x31)
    410166e4:	fff00293          	li	x5,-1
    410166e8:	005fb823          	sd	x5,16(x31)
    410166ec:	000f0fb7          	lui	x31,0xf0
    410166f0:	001f8f9b          	addiw	x31,x31,1 # f0001 <mem24__pt_level4+0x7cf91>
    410166f4:	00cf9f93          	slli	x31,x31,0xc
    410166f8:	008f8f93          	addi	x31,x31,8
    410166fc:	00000073          	ecall
    41016700:	12000073          	sfence.vma
    41016704:	00004237          	lui	x4,0x4
    41016708:	00d00e13          	li	x28,13
    4101670c:	05c23823          	sd	x28,80(x4) # 4050 <check_excp_expected_cause>
    41016710:	00000e17          	auipc	x28,0x0
    41016714:	050e0e13          	addi	x28,x28,80 # 41016760 <fault_label_24>
    41016718:	03c23023          	sd	x28,32(x4) # 20 <SECURE_ACCESS_PROBABILITY+0x2>
    4101671c:	00000e13          	li	x28,0
    41016720:	05c23023          	sd	x28,64(x4) # 40 <XLEN>
    41016724:	00000e13          	li	x28,0
    41016728:	05c23423          	sd	x28,72(x4) # 48 <XLEN+0x8>
    4101672c:	00000e17          	auipc	x28,0x0
    41016730:	048e0e13          	addi	x28,x28,72 # 41016774 <excp_return_label_24>
    41016734:	03c23823          	sd	x28,48(x4) # 30 <SECURE_ACCESS_PROBABILITY+0x12>
    41016738:	00000e13          	li	x28,0
    4101673c:	03c23c23          	sd	x28,56(x4) # 38 <SECURE_ACCESS_PROBABILITY+0x1a>
    41016740:	00000e13          	li	x28,0
    41016744:	07c23023          	sd	x28,96(x4) # 60 <XLEN+0x20>
    41016748:	00000e13          	li	x28,0
    4101674c:	07c23423          	sd	x28,104(x4) # 68 <XLEN+0x28>
    41016750:	00000e13          	li	x28,0
    41016754:	07c23823          	sd	x28,112(x4) # 70 <XLEN+0x30>
    41016758:	0030091b          	addiw	x18,x0,3
    4101675c:	03191913          	slli	x18,x18,0x31

0000000041016760 <fault_label_24>:
    41016760:	00092187          	flw	f3,0(x18)
    41016764:	0001a3b7          	lui	x7,0x1a
    41016768:	0083839b          	addiw	x7,x7,8 # 1a008 <failed_addr>
    4101676c:	0003bd03          	ld	x26,0(x7)
    41016770:	000d0067          	jr	x26

0000000041016774 <excp_return_label_24>:
    41016774:	0190051b          	addiw	x10,x0,25
    41016778:	03151513          	slli	x10,x10,0x31
    4101677c:	00051a03          	lh	x20,0(x10)
    41016780:	0001afb7          	lui	x31,0x1a
    41016784:	0b0f8f9b          	addiw	x31,x31,176 # 1a0b0 <pte_access_flags>
    41016788:	0190029b          	addiw	x5,x0,25
    4101678c:	03129293          	slli	x5,x5,0x31
    41016790:	005fb023          	sd	x5,0(x31)
    41016794:	00300293          	li	x5,3
    41016798:	005fb423          	sd	x5,8(x31)
    4101679c:	fff00293          	li	x5,-1
    410167a0:	005fb823          	sd	x5,16(x31)
    410167a4:	000f0fb7          	lui	x31,0xf0
    410167a8:	001f8f9b          	addiw	x31,x31,1 # f0001 <mem24__pt_level4+0x7cf91>
    410167ac:	00cf9f93          	slli	x31,x31,0xc
    410167b0:	007f8f93          	addi	x31,x31,7
    410167b4:	00000073          	ecall
    410167b8:	ffd00613          	li	x12,-3
    410167bc:	00c3f933          	and	x18,x7,x12
    410167c0:	00090393          	mv	x7,x18
    410167c4:	0001afb7          	lui	x31,0x1a
    410167c8:	0b0f8f9b          	addiw	x31,x31,176 # 1a0b0 <pte_access_flags>
    410167cc:	0190029b          	addiw	x5,x0,25
    410167d0:	03129293          	slli	x5,x5,0x31
    410167d4:	005fb023          	sd	x5,0(x31)
    410167d8:	00300293          	li	x5,3
    410167dc:	005fb423          	sd	x5,8(x31)
    410167e0:	fff00293          	li	x5,-1
    410167e4:	005fb823          	sd	x5,16(x31)
    410167e8:	000f0fb7          	lui	x31,0xf0
    410167ec:	001f8f9b          	addiw	x31,x31,1 # f0001 <mem24__pt_level4+0x7cf91>
    410167f0:	00cf9f93          	slli	x31,x31,0xc
    410167f4:	008f8f93          	addi	x31,x31,8
    410167f8:	00000073          	ecall
    410167fc:	12000073          	sfence.vma
    41016800:	00004237          	lui	x4,0x4
    41016804:	00d00e13          	li	x28,13
    41016808:	05c23823          	sd	x28,80(x4) # 4050 <check_excp_expected_cause>
    4101680c:	00000e17          	auipc	x28,0x0
    41016810:	050e0e13          	addi	x28,x28,80 # 4101685c <fault_label_25>
    41016814:	03c23023          	sd	x28,32(x4) # 20 <SECURE_ACCESS_PROBABILITY+0x2>
    41016818:	00000e13          	li	x28,0
    4101681c:	05c23023          	sd	x28,64(x4) # 40 <XLEN>
    41016820:	00000e13          	li	x28,0
    41016824:	05c23423          	sd	x28,72(x4) # 48 <XLEN+0x8>
    41016828:	00000e17          	auipc	x28,0x0
    4101682c:	048e0e13          	addi	x28,x28,72 # 41016870 <excp_return_label_25>
    41016830:	03c23823          	sd	x28,48(x4) # 30 <SECURE_ACCESS_PROBABILITY+0x12>
    41016834:	00000e13          	li	x28,0
    41016838:	03c23c23          	sd	x28,56(x4) # 38 <SECURE_ACCESS_PROBABILITY+0x1a>
    4101683c:	00000e13          	li	x28,0
    41016840:	07c23023          	sd	x28,96(x4) # 60 <XLEN+0x20>
    41016844:	00000e13          	li	x28,0
    41016848:	07c23423          	sd	x28,104(x4) # 68 <XLEN+0x28>
    4101684c:	00000e13          	li	x28,0
    41016850:	07c23823          	sd	x28,112(x4) # 70 <XLEN+0x30>
    41016854:	01900b9b          	addiw	x23,x0,25
    41016858:	031b9b93          	slli	x23,x23,0x31

000000004101685c <fault_label_25>:
    4101685c:	000bd983          	lhu	x19,0(x23)
    41016860:	0001ae37          	lui	x28,0x1a
    41016864:	008e0e1b          	addiw	x28,x28,8 # 1a008 <failed_addr>
    41016868:	000e3c03          	ld	x24,0(x28)
    4101686c:	000c0067          	jr	x24

0000000041016870 <excp_return_label_25>:
    41016870:	0001afb7          	lui	x31,0x1a
    41016874:	0b0f8f9b          	addiw	x31,x31,176 # 1a0b0 <pte_access_flags>
    41016878:	0190029b          	addiw	x5,x0,25
    4101687c:	03129293          	slli	x5,x5,0x31
    41016880:	005fb023          	sd	x5,0(x31)
    41016884:	00300293          	li	x5,3
    41016888:	005fb423          	sd	x5,8(x31)
    4101688c:	fff00293          	li	x5,-1
    41016890:	005fb823          	sd	x5,16(x31)
    41016894:	000f0fb7          	lui	x31,0xf0
    41016898:	001f8f9b          	addiw	x31,x31,1 # f0001 <mem24__pt_level4+0x7cf91>
    4101689c:	00cf9f93          	slli	x31,x31,0xc
    410168a0:	007f8f93          	addi	x31,x31,7
    410168a4:	00000073          	ecall
    410168a8:	00200413          	li	x8,2
    410168ac:	0083eeb3          	or	x29,x7,x8
    410168b0:	000e8393          	mv	x7,x29
    410168b4:	0001afb7          	lui	x31,0x1a
    410168b8:	0b0f8f9b          	addiw	x31,x31,176 # 1a0b0 <pte_access_flags>
    410168bc:	0190029b          	addiw	x5,x0,25
    410168c0:	03129293          	slli	x5,x5,0x31
    410168c4:	005fb023          	sd	x5,0(x31)
    410168c8:	00300293          	li	x5,3
    410168cc:	005fb423          	sd	x5,8(x31)
    410168d0:	fff00293          	li	x5,-1
    410168d4:	005fb823          	sd	x5,16(x31)
    410168d8:	000f0fb7          	lui	x31,0xf0
    410168dc:	001f8f9b          	addiw	x31,x31,1 # f0001 <mem24__pt_level4+0x7cf91>
    410168e0:	00cf9f93          	slli	x31,x31,0xc
    410168e4:	008f8f93          	addi	x31,x31,8
    410168e8:	00000073          	ecall
    410168ec:	0001afb7          	lui	x31,0x1a
    410168f0:	0b0f8f9b          	addiw	x31,x31,176 # 1a0b0 <pte_access_flags>
    410168f4:	0030029b          	addiw	x5,x0,3
    410168f8:	03129293          	slli	x5,x5,0x31
    410168fc:	005fb023          	sd	x5,0(x31)
    41016900:	00400293          	li	x5,4
    41016904:	005fb423          	sd	x5,8(x31)
    41016908:	fff00293          	li	x5,-1
    4101690c:	005fb823          	sd	x5,16(x31)
    41016910:	000f0fb7          	lui	x31,0xf0
    41016914:	001f8f9b          	addiw	x31,x31,1 # f0001 <mem24__pt_level4+0x7cf91>
    41016918:	00cf9f93          	slli	x31,x31,0xc
    4101691c:	007f8f93          	addi	x31,x31,7
    41016920:	00000073          	ecall
    41016924:	00200893          	li	x17,2
    41016928:	0113efb3          	or	x31,x7,x17
    4101692c:	000f8393          	mv	x7,x31
    41016930:	0001afb7          	lui	x31,0x1a
    41016934:	0b0f8f9b          	addiw	x31,x31,176 # 1a0b0 <pte_access_flags>
    41016938:	0030029b          	addiw	x5,x0,3
    4101693c:	03129293          	slli	x5,x5,0x31
    41016940:	005fb023          	sd	x5,0(x31)
    41016944:	00400293          	li	x5,4
    41016948:	005fb423          	sd	x5,8(x31)
    4101694c:	fff00293          	li	x5,-1
    41016950:	005fb823          	sd	x5,16(x31)
    41016954:	000f0fb7          	lui	x31,0xf0
    41016958:	001f8f9b          	addiw	x31,x31,1 # f0001 <mem24__pt_level4+0x7cf91>
    4101695c:	00cf9f93          	slli	x31,x31,0xc
    41016960:	008f8f93          	addi	x31,x31,8
    41016964:	00000073          	ecall

0000000041016968 <SID_PBVMS_035_sfence_vma_various_page_sizes_passed>:
    41016968:	00f00f9b          	addiw	x31,x0,15
    4101696c:	01cf9f93          	slli	x31,x31,0x1c
    41016970:	001f8f93          	addi	x31,x31,1
    41016974:	00000073          	ecall

0000000041016978 <SID_PBVMS_037_sfence_vma_tvm_illegal>:
    41016978:	006d0137          	lui	x2,0x6d0
    4101697c:	0001afb7          	lui	x31,0x1a
    41016980:	0a0f8f9b          	addiw	x31,x31,160 # 1a0a0 <machine_csr_jump_table_flags>
    41016984:	00100f13          	li	x30,1
    41016988:	01efb023          	sd	x30,0(x31)
    4101698c:	000f0fb7          	lui	x31,0xf0
    41016990:	001f8f9b          	addiw	x31,x31,1 # f0001 <mem24__pt_level4+0x7cf91>
    41016994:	00cf9f93          	slli	x31,x31,0xc
    41016998:	005f8f93          	addi	x31,x31,5
    4101699c:	00000073          	ecall
    410169a0:	00713023          	sd	x7,0(x2) # 6d0000 <tp_csr_storage>
    410169a4:	00084137          	lui	x2,0x84
    410169a8:	2731011b          	addiw	x2,x2,627 # 84273 <mem24__pt_level4+0x11203>
    410169ac:	00c11113          	slli	x2,x2,0xc
    410169b0:	59f10113          	addi	x2,x2,1439
    410169b4:	00c11113          	slli	x2,x2,0xc
    410169b8:	000012b7          	lui	x5,0x1
    410169bc:	00510133          	add	x2,x2,x5
    410169c0:	ff017113          	andi	x2,x2,-16
    410169c4:	001003b7          	lui	x7,0x100
    410169c8:	0001afb7          	lui	x31,0x1a
    410169cc:	0a0f8f9b          	addiw	x31,x31,160 # 1a0a0 <machine_csr_jump_table_flags>
    410169d0:	00200f13          	li	x30,2
    410169d4:	01efb023          	sd	x30,0(x31)
    410169d8:	000f0fb7          	lui	x31,0xf0
    410169dc:	001f8f9b          	addiw	x31,x31,1 # f0001 <mem24__pt_level4+0x7cf91>
    410169e0:	00cf9f93          	slli	x31,x31,0xc
    410169e4:	005f8f93          	addi	x31,x31,5
    410169e8:	00000073          	ecall
    410169ec:	00004237          	lui	x4,0x4
    410169f0:	00200e13          	li	x28,2
    410169f4:	05c23823          	sd	x28,80(x4) # 4050 <check_excp_expected_cause>
    410169f8:	00000e17          	auipc	x28,0x0
    410169fc:	048e0e13          	addi	x28,x28,72 # 41016a40 <fault_label_26>
    41016a00:	03c23023          	sd	x28,32(x4) # 20 <SECURE_ACCESS_PROBABILITY+0x2>
    41016a04:	00000e13          	li	x28,0
    41016a08:	05c23023          	sd	x28,64(x4) # 40 <XLEN>
    41016a0c:	00000e13          	li	x28,0
    41016a10:	05c23423          	sd	x28,72(x4) # 48 <XLEN+0x8>
    41016a14:	00000e17          	auipc	x28,0x0
    41016a18:	040e0e13          	addi	x28,x28,64 # 41016a54 <excp_return_label_26>
    41016a1c:	03c23823          	sd	x28,48(x4) # 30 <SECURE_ACCESS_PROBABILITY+0x12>
    41016a20:	00000e13          	li	x28,0
    41016a24:	03c23c23          	sd	x28,56(x4) # 38 <SECURE_ACCESS_PROBABILITY+0x1a>
    41016a28:	00000e13          	li	x28,0
    41016a2c:	07c23023          	sd	x28,96(x4) # 60 <XLEN+0x20>
    41016a30:	00000e13          	li	x28,0
    41016a34:	07c23423          	sd	x28,104(x4) # 68 <XLEN+0x28>
    41016a38:	00000e13          	li	x28,0
    41016a3c:	07c23823          	sd	x28,112(x4) # 70 <XLEN+0x30>

0000000041016a40 <fault_label_26>:
    41016a40:	12000073          	sfence.vma
    41016a44:	0001a3b7          	lui	x7,0x1a
    41016a48:	0083839b          	addiw	x7,x7,8 # 1a008 <failed_addr>
    41016a4c:	0003bc83          	ld	x25,0(x7)
    41016a50:	000c8067          	jr	x25

0000000041016a54 <excp_return_label_26>:
    41016a54:	001003b7          	lui	x7,0x100
    41016a58:	0001afb7          	lui	x31,0x1a
    41016a5c:	0a0f8f9b          	addiw	x31,x31,160 # 1a0a0 <machine_csr_jump_table_flags>
    41016a60:	00300f13          	li	x30,3
    41016a64:	01efb023          	sd	x30,0(x31)
    41016a68:	000f0fb7          	lui	x31,0xf0
    41016a6c:	001f8f9b          	addiw	x31,x31,1 # f0001 <mem24__pt_level4+0x7cf91>
    41016a70:	00cf9f93          	slli	x31,x31,0xc
    41016a74:	005f8f93          	addi	x31,x31,5
    41016a78:	00000073          	ecall
    41016a7c:	12000073          	sfence.vma
    41016a80:	006d0137          	lui	x2,0x6d0
    41016a84:	00013383          	ld	x7,0(x2) # 6d0000 <tp_csr_storage>
    41016a88:	0001afb7          	lui	x31,0x1a
    41016a8c:	0a0f8f9b          	addiw	x31,x31,160 # 1a0a0 <machine_csr_jump_table_flags>
    41016a90:	00600f13          	li	x30,6
    41016a94:	01efb023          	sd	x30,0(x31)
    41016a98:	000f0fb7          	lui	x31,0xf0
    41016a9c:	001f8f9b          	addiw	x31,x31,1 # f0001 <mem24__pt_level4+0x7cf91>
    41016aa0:	00cf9f93          	slli	x31,x31,0xc
    41016aa4:	005f8f93          	addi	x31,x31,5
    41016aa8:	00000073          	ecall

0000000041016aac <SID_PBVMS_037_sfence_vma_tvm_illegal_passed>:
    41016aac:	00f00f9b          	addiw	x31,x0,15
    41016ab0:	01cf9f93          	slli	x31,x31,0x1c
    41016ab4:	001f8f93          	addi	x31,x31,1
    41016ab8:	00000073          	ecall

0000000041016abc <SID_PBVMS_039_non_leaf_not_invalidated_va_based>:
    41016abc:	00020137          	lui	x2,0x20
    41016ac0:	1211011b          	addiw	x2,x2,289 # 20121 <mem23__pt_level2+0x121>
    41016ac4:	00e11113          	slli	x2,x2,0xe
    41016ac8:	000012b7          	lui	x5,0x1
    41016acc:	00510133          	add	x2,x2,x5
    41016ad0:	ff017113          	andi	x2,x2,-16
    41016ad4:	f610081b          	addiw	x16,x0,-159
    41016ad8:	03081813          	slli	x16,x16,0x30
    41016adc:	00085483          	lhu	x9,0(x16)
    41016ae0:	0001afb7          	lui	x31,0x1a
