
/home/abdullah/RiescueC/riescue/10x_R/paging/testsuite/paging/super_sv57/tp_paging_1:     file format elf64-littleriscv


Disassembly of section .runtime:

0000000041000000 <_start>:
    41000000:	00000093          	li	x1,0
    41000004:	00000113          	li	x2,0
    41000008:	00000193          	li	x3,0
    4100000c:	00000213          	li	x4,0
    41000010:	00000293          	li	x5,0
    41000014:	00000313          	li	x6,0
    41000018:	00000393          	li	x7,0
    4100001c:	00000413          	li	x8,0
    41000020:	00000493          	li	x9,0
    41000024:	00000513          	li	x10,0
    41000028:	00000593          	li	x11,0
    4100002c:	00000613          	li	x12,0
    41000030:	00000693          	li	x13,0
    41000034:	00000713          	li	x14,0
    41000038:	00000793          	li	x15,0
    4100003c:	00000813          	li	x16,0
    41000040:	00000893          	li	x17,0
    41000044:	00000913          	li	x18,0
    41000048:	00000993          	li	x19,0
    4100004c:	00000a13          	li	x20,0
    41000050:	00000a93          	li	x21,0
    41000054:	00000b13          	li	x22,0
    41000058:	00000b93          	li	x23,0
    4100005c:	00000c13          	li	x24,0
    41000060:	00000c93          	li	x25,0
    41000064:	00000d13          	li	x26,0
    41000068:	00000d93          	li	x27,0
    4100006c:	00000e13          	li	x28,0
    41000070:	00000e93          	li	x29,0
    41000074:	00000f13          	li	x30,0
    41000078:	00000f93          	li	x31,0

000000004100007c <loader__load_panic_address>:
    4100007c:	00001297          	auipc	x5,0x1
    41000080:	9b828293          	addi	x5,x5,-1608 # 41000a34 <eot__failed>
    41000084:	30529073          	csrw	mtvec,x5

0000000041000088 <loader__initialize_runtime>:
    41000088:	00000293          	li	x5,0
    4100008c:	3012a2f3          	csrrs	x5,misa,x5

0000000041000090 <loader__set_mstatus>:
    41000090:	000402b7          	lui	x5,0x40
    41000094:	00a2829b          	addiw	x5,x5,10 # 4000a <pma_region_0_size+0xa>
    41000098:	3002a2f3          	csrrs	x5,mstatus,x5
    4100009c:	44fe0237          	lui	x4,0x44fe0
    410000a0:	34021073          	csrw	mscratch,x4

00000000410000a4 <loader__setup_menvcfg>:
    410000a4:	00000297          	auipc	x5,0x0
    410000a8:	47c28293          	addi	x5,x5,1148 # 41000520 <trap_handler_m__trap_entry>
    410000ac:	30529073          	csrw	mtvec,x5

00000000410000b0 <loader__enable_paging>:
    410000b0:	fffa00b7          	lui	x1,0xfffa0
    410000b4:	0050809b          	addiw	x1,x1,5 # fffffffffffa0005 <mem37+0x9efffffffa0005>
    410000b8:	02009093          	slli	x1,x1,0x20
    410000bc:	04508093          	addi	x1,x1,69
    410000c0:	00c09093          	slli	x1,x1,0xc
    410000c4:	bcc08093          	addi	x1,x1,-1076
    410000c8:	18009073          	csrw	satp,x1

00000000410000cc <loader__done>:
    410000cc:	1910006f          	j	41000a5c <scheduler__init>

00000000410000d0 <loader__panic>:
    410000d0:	1650006f          	j	41000a34 <eot__failed>

00000000410000d4 <syscalls__syscall_check_schedule_next_test>:
    410000d4:	00f0029b          	addiw	x5,x0,15
    410000d8:	01c29293          	slli	x5,x5,0x1c
    410000dc:	00128293          	addi	x5,x5,1
    410000e0:	01f29a63          	bne	x5,x31,410000f4 <syscalls__syscall_check_fail_test>
    410000e4:	00000317          	auipc	x6,0x0
    410000e8:	43c30313          	addi	x6,x6,1084 # 41000520 <trap_handler_m__trap_entry>
    410000ec:	30531073          	csrw	mtvec,x6
    410000f0:	6740006f          	j	41000764 <enter_scheduler>

00000000410000f4 <syscalls__syscall_check_fail_test>:
    410000f4:	00f0029b          	addiw	x5,x0,15
    410000f8:	01c29293          	slli	x5,x5,0x1c
    410000fc:	00228293          	addi	x5,x5,2
    41000100:	01f29a63          	bne	x5,x31,41000114 <syscalls__syscall_check_end_test_without_failure>
    41000104:	00000317          	auipc	x6,0x0
    41000108:	41c30313          	addi	x6,x6,1052 # 41000520 <trap_handler_m__trap_entry>
    4100010c:	30531073          	csrw	mtvec,x6
    41000110:	6840006f          	j	41000794 <test_failed>

0000000041000114 <syscalls__syscall_check_end_test_without_failure>:
    41000114:	00f0029b          	addiw	x5,x0,15
    41000118:	01c29293          	slli	x5,x5,0x1c
    4100011c:	00328293          	addi	x5,x5,3
    41000120:	01f29a63          	bne	x5,x31,41000134 <syscalls__syscall_check_switch_machine_mode>
    41000124:	00000317          	auipc	x6,0x0
    41000128:	3fc30313          	addi	x6,x6,1020 # 41000520 <trap_handler_m__trap_entry>
    4100012c:	30531073          	csrw	mtvec,x6
    41000130:	6700006f          	j	410007a0 <os_end_test>

0000000041000134 <syscalls__syscall_check_switch_machine_mode>:
    41000134:	000f02b7          	lui	x5,0xf0
    41000138:	0012829b          	addiw	x5,x5,1 # f0001 <mem24__pt_level4+0x7cf91>
    4100013c:	00c29293          	slli	x5,x5,0xc
    41000140:	00128293          	addi	x5,x5,1
    41000144:	0a5f8463          	beq	x31,x5,410001ec <syscalls__os_fn_f0001001>

0000000041000148 <syscalls__syscall_check_switch_super_mode>:
    41000148:	000f02b7          	lui	x5,0xf0
    4100014c:	0012829b          	addiw	x5,x5,1 # f0001 <mem24__pt_level4+0x7cf91>
    41000150:	00c29293          	slli	x5,x5,0xc
    41000154:	00228293          	addi	x5,x5,2
    41000158:	0c5f8063          	beq	x31,x5,41000218 <syscalls__os_fn_f0001002>

000000004100015c <syscalls__syscall_check_switch_user_mode>:
    4100015c:	000f02b7          	lui	x5,0xf0
    41000160:	0012829b          	addiw	x5,x5,1 # f0001 <mem24__pt_level4+0x7cf91>
    41000164:	00c29293          	slli	x5,x5,0xc
    41000168:	00328293          	addi	x5,x5,3
    4100016c:	0a5f8a63          	beq	x31,x5,41000220 <syscalls__os_fn_f0001003>

0000000041000170 <syscalls__syscall_check_switch_test_mode>:
    41000170:	000f02b7          	lui	x5,0xf0
    41000174:	0012829b          	addiw	x5,x5,1 # f0001 <mem24__pt_level4+0x7cf91>
    41000178:	00c29293          	slli	x5,x5,0xc
    4100017c:	00428293          	addi	x5,x5,4
    41000180:	0c5f8463          	beq	x31,x5,41000248 <syscalls__os_fn_f0001004>

0000000041000184 <syscalls__syscall_machine_csr_rw>:
    41000184:	000f02b7          	lui	x5,0xf0
    41000188:	0012829b          	addiw	x5,x5,1 # f0001 <mem24__pt_level4+0x7cf91>
    4100018c:	00c29293          	slli	x5,x5,0xc
    41000190:	00528293          	addi	x5,x5,5
    41000194:	0e5f8063          	beq	x31,x5,41000274 <syscalls__os_fn_f0001005>

0000000041000198 <syscalls__syscall_supervisor_csr_rw>:
    41000198:	000f02b7          	lui	x5,0xf0
    4100019c:	0012829b          	addiw	x5,x5,1 # f0001 <mem24__pt_level4+0x7cf91>
    410001a0:	00c29293          	slli	x5,x5,0xc
    410001a4:	00628293          	addi	x5,x5,6
    410001a8:	0e5f8c63          	beq	x31,x5,410002a0 <syscalls__os_fn_f0001006>

00000000410001ac <syscalls__syscall_machine_pte_read>:
    410001ac:	000f02b7          	lui	x5,0xf0
    410001b0:	0012829b          	addiw	x5,x5,1 # f0001 <mem24__pt_level4+0x7cf91>
    410001b4:	00c29293          	slli	x5,x5,0xc
    410001b8:	00728293          	addi	x5,x5,7
    410001bc:	0e5f8663          	beq	x31,x5,410002a8 <syscalls__os_fn_f0001007>

00000000410001c0 <syscalls__syscall_machine_pte_write>:
    410001c0:	000f02b7          	lui	x5,0xf0
    410001c4:	0012829b          	addiw	x5,x5,1 # f0001 <mem24__pt_level4+0x7cf91>
    410001c8:	00c29293          	slli	x5,x5,0xc
    410001cc:	00828293          	addi	x5,x5,8
    410001d0:	1c5f8263          	beq	x31,x5,41000394 <syscalls__os_fn_f0001008>

00000000410001d4 <syscalls__syscall_check_get_hart_context>:
    410001d4:	000782b7          	lui	x5,0x78
    410001d8:	0012829b          	addiw	x5,x5,1 # 78001 <mem24__pt_level4+0x4f91>
    410001dc:	00d29293          	slli	x5,x5,0xd
    410001e0:	00128293          	addi	x5,x5,1
    410001e4:	285f8e63          	beq	x31,x5,41000480 <syscalls__os_get_hart_context>
    410001e8:	4940006f          	j	4100067c <trap_handler_m__check_exception_label>

00000000410001ec <syscalls__os_fn_f0001001>:
    410001ec:	000022b7          	lui	x5,0x2
    410001f0:	8002829b          	addiw	x5,x5,-2048 # 1800 <mem21__pt_level2+0x800>
    410001f4:	3002b073          	csrc	mstatus,x5
    410001f8:	000022b7          	lui	x5,0x2
    410001fc:	8002829b          	addiw	x5,x5,-2048 # 1800 <mem21__pt_level2+0x800>
    41000200:	3002a073          	csrs	mstatus,x5
    41000204:	0010029b          	addiw	x5,x0,1
    41000208:	02729293          	slli	x5,x5,0x27
    4100020c:	3002b073          	csrc	mstatus,x5
    41000210:	413082b7          	lui	x5,0x41308
    41000214:	27c0006f          	j	41000490 <syscalls__ret_from_os_fn>

0000000041000218 <syscalls__os_fn_f0001002>:
    41000218:	412082b7          	lui	x5,0x41208
    4100021c:	2740006f          	j	41000490 <syscalls__ret_from_os_fn>

0000000041000220 <syscalls__os_fn_f0001003>:
    41000220:	000022b7          	lui	x5,0x2
    41000224:	8002829b          	addiw	x5,x5,-2048 # 1800 <mem21__pt_level2+0x800>
    41000228:	3002b073          	csrc	mstatus,x5
    4100022c:	00000293          	li	x5,0
    41000230:	3002a073          	csrs	mstatus,x5
    41000234:	0010029b          	addiw	x5,x0,1
    41000238:	02729293          	slli	x5,x5,0x27
    4100023c:	3002b073          	csrc	mstatus,x5
    41000240:	412882b7          	lui	x5,0x41288
    41000244:	24c0006f          	j	41000490 <syscalls__ret_from_os_fn>

0000000041000248 <syscalls__os_fn_f0001004>:
    41000248:	000022b7          	lui	x5,0x2
    4100024c:	8002829b          	addiw	x5,x5,-2048 # 1800 <mem21__pt_level2+0x800>
    41000250:	3002b073          	csrc	mstatus,x5
    41000254:	000012b7          	lui	x5,0x1
    41000258:	8002829b          	addiw	x5,x5,-2048 # 800 <XLEN+0x7c0>
    4100025c:	3002a073          	csrs	mstatus,x5
    41000260:	0010029b          	addiw	x5,x0,1
    41000264:	02729293          	slli	x5,x5,0x27
    41000268:	3002b073          	csrc	mstatus,x5
    4100026c:	17823283          	ld	x5,376(x4) # 44fe0178 <__section_hart_context+0x178>
    41000270:	2200006f          	j	41000490 <syscalls__ret_from_os_fn>

0000000041000274 <syscalls__os_fn_f0001005>:
    41000274:	000022b7          	lui	x5,0x2
    41000278:	8002829b          	addiw	x5,x5,-2048 # 1800 <mem21__pt_level2+0x800>
    4100027c:	3002b073          	csrc	mstatus,x5
    41000280:	000022b7          	lui	x5,0x2
    41000284:	8002829b          	addiw	x5,x5,-2048 # 1800 <mem21__pt_level2+0x800>
    41000288:	3002a073          	csrs	mstatus,x5
    4100028c:	0010029b          	addiw	x5,x0,1
    41000290:	02729293          	slli	x5,x5,0x27
    41000294:	3002b073          	csrc	mstatus,x5
    41000298:	413882b7          	lui	x5,0x41388
    4100029c:	1f40006f          	j	41000490 <syscalls__ret_from_os_fn>

00000000410002a0 <syscalls__os_fn_f0001006>:
    410002a0:	413892b7          	lui	x5,0x41389
    410002a4:	1ec0006f          	j	41000490 <syscalls__ret_from_os_fn>

00000000410002a8 <syscalls__os_fn_f0001007>:
    410002a8:	44f06fb7          	lui	x31,0x44f06
    410002ac:	0b0f8f9b          	addiw	x31,x31,176 # 44f060b0 <pte_access_flags_pa>
    410002b0:	000fbf83          	ld	x31,0(x31)
    410002b4:	44f062b7          	lui	x5,0x44f06
    410002b8:	0b82829b          	addiw	x5,x5,184 # 44f060b8 <pte_access_flags_pa+0x8>
    410002bc:	0002b283          	ld	x5,0(x5)
    410002c0:	44f06e37          	lui	x28,0x44f06
    410002c4:	0c0e0e1b          	addiw	x28,x28,192 # 44f060c0 <pte_access_flags_pa+0x10>
    410002c8:	000e3e03          	ld	x28,0(x28)

00000000410002cc <syscalls__pte_walk_check_glevel_without_gstage_read>:
    410002cc:	fff00f93          	li	x31,-1
    410002d0:	0dfe1063          	bne	x28,x31,41000390 <syscalls__pte_walk_fail_read>
    410002d4:	18002373          	csrr	x6,satp
    410002d8:	03c35e93          	srli	x29,x6,0x3c
    410002dc:	01431313          	slli	x6,x6,0x14
    410002e0:	01435313          	srli	x6,x6,0x14
    410002e4:	00c31313          	slli	x6,x6,0xc
    410002e8:	ff8e8e93          	addi	x29,x29,-8
    410002ec:	003e9f13          	slli	x30,x29,0x3
    410002f0:	01df0eb3          	add	x29,x30,x29
    410002f4:	01ee8e93          	addi	x29,x29,30
    410002f8:	00000f13          	li	x30,0

00000000410002fc <syscalls__pte_walk_loop_read>:
    410002fc:	44f06fb7          	lui	x31,0x44f06
    41000300:	0b0f8f9b          	addiw	x31,x31,176 # 44f060b0 <pte_access_flags_pa>
    41000304:	000fbf83          	ld	x31,0(x31)
    41000308:	01dfdfb3          	srl	x31,x31,x29
    4100030c:	1fffff93          	andi	x31,x31,511
    41000310:	003f9f93          	slli	x31,x31,0x3
    41000314:	01f30333          	add	x6,x6,x31
    41000318:	005f0e63          	beq	x30,x5,41000334 <syscalls__pte_walk_done_read>
    4100031c:	00033f83          	ld	x31,0(x6)
    41000320:	00afdf93          	srli	x31,x31,0xa
    41000324:	00cf9313          	slli	x6,x31,0xc
    41000328:	001f0f13          	addi	x30,x30,1
    4100032c:	ff7e8e93          	addi	x29,x29,-9
    41000330:	fcdff06f          	j	410002fc <syscalls__pte_walk_loop_read>

0000000041000334 <syscalls__pte_walk_done_read>:
    41000334:	fff00f93          	li	x31,-1
    41000338:	05fe0263          	beq	x28,x31,4100037c <syscalls__pte_walk_final_read>

000000004100033c <syscalls__pte_walk_gstage_read>:
    4100033c:	44f06fb7          	lui	x31,0x44f06
    41000340:	0b0f8f9b          	addiw	x31,x31,176 # 44f060b0 <pte_access_flags_pa>
    41000344:	006fb023          	sd	x6,0(x31)
    41000348:	000e0293          	mv	x5,x28
    4100034c:	fff00e13          	li	x28,-1
    41000350:	68002373          	csrr	x6,hgatp
    41000354:	03c35e93          	srli	x29,x6,0x3c
    41000358:	01431313          	slli	x6,x6,0x14
    4100035c:	01435313          	srli	x6,x6,0x14
    41000360:	00c31313          	slli	x6,x6,0xc
    41000364:	ff8e8e93          	addi	x29,x29,-8
    41000368:	003e9f13          	slli	x30,x29,0x3
    4100036c:	01df0eb3          	add	x29,x30,x29
    41000370:	01ee8e93          	addi	x29,x29,30
    41000374:	00000f13          	li	x30,0
    41000378:	f85ff06f          	j	410002fc <syscalls__pte_walk_loop_read>

000000004100037c <syscalls__pte_walk_final_read>:
    4100037c:	00033383          	ld	x7,0(x6)
    41000380:	341022f3          	csrr	x5,mepc
    41000384:	00428293          	addi	x5,x5,4
    41000388:	16523c23          	sd	x5,376(x4) # 178 <XLEN+0x138>
    4100038c:	ebdff06f          	j	41000248 <syscalls__os_fn_f0001004>

0000000041000390 <syscalls__pte_walk_fail_read>:
    41000390:	4040006f          	j	41000794 <test_failed>

0000000041000394 <syscalls__os_fn_f0001008>:
    41000394:	44f06fb7          	lui	x31,0x44f06
    41000398:	0b0f8f9b          	addiw	x31,x31,176 # 44f060b0 <pte_access_flags_pa>
    4100039c:	000fbf83          	ld	x31,0(x31)
    410003a0:	44f062b7          	lui	x5,0x44f06
    410003a4:	0b82829b          	addiw	x5,x5,184 # 44f060b8 <pte_access_flags_pa+0x8>
    410003a8:	0002b283          	ld	x5,0(x5)
    410003ac:	44f06e37          	lui	x28,0x44f06
    410003b0:	0c0e0e1b          	addiw	x28,x28,192 # 44f060c0 <pte_access_flags_pa+0x10>
    410003b4:	000e3e03          	ld	x28,0(x28)

00000000410003b8 <syscalls__pte_walk_check_glevel_without_gstage_write>:
    410003b8:	fff00f93          	li	x31,-1
    410003bc:	0dfe1063          	bne	x28,x31,4100047c <syscalls__pte_walk_fail_write>
    410003c0:	18002373          	csrr	x6,satp
    410003c4:	03c35e93          	srli	x29,x6,0x3c
    410003c8:	01431313          	slli	x6,x6,0x14
    410003cc:	01435313          	srli	x6,x6,0x14
    410003d0:	00c31313          	slli	x6,x6,0xc
    410003d4:	ff8e8e93          	addi	x29,x29,-8
    410003d8:	003e9f13          	slli	x30,x29,0x3
    410003dc:	01df0eb3          	add	x29,x30,x29
    410003e0:	01ee8e93          	addi	x29,x29,30
    410003e4:	00000f13          	li	x30,0

00000000410003e8 <syscalls__pte_walk_loop_write>:
    410003e8:	44f06fb7          	lui	x31,0x44f06
    410003ec:	0b0f8f9b          	addiw	x31,x31,176 # 44f060b0 <pte_access_flags_pa>
    410003f0:	000fbf83          	ld	x31,0(x31)
    410003f4:	01dfdfb3          	srl	x31,x31,x29
    410003f8:	1fffff93          	andi	x31,x31,511
    410003fc:	003f9f93          	slli	x31,x31,0x3
    41000400:	01f30333          	add	x6,x6,x31
    41000404:	005f0e63          	beq	x30,x5,41000420 <syscalls__pte_walk_done_write>
    41000408:	00033f83          	ld	x31,0(x6)
    4100040c:	00afdf93          	srli	x31,x31,0xa
    41000410:	00cf9313          	slli	x6,x31,0xc
    41000414:	001f0f13          	addi	x30,x30,1
    41000418:	ff7e8e93          	addi	x29,x29,-9
    4100041c:	fcdff06f          	j	410003e8 <syscalls__pte_walk_loop_write>

0000000041000420 <syscalls__pte_walk_done_write>:
    41000420:	fff00f93          	li	x31,-1
    41000424:	05fe0263          	beq	x28,x31,41000468 <syscalls__pte_walk_final_write>

0000000041000428 <syscalls__pte_walk_gstage_write>:
    41000428:	44f06fb7          	lui	x31,0x44f06
    4100042c:	0b0f8f9b          	addiw	x31,x31,176 # 44f060b0 <pte_access_flags_pa>
    41000430:	006fb023          	sd	x6,0(x31)
    41000434:	000e0293          	mv	x5,x28
    41000438:	fff00e13          	li	x28,-1
    4100043c:	68002373          	csrr	x6,hgatp
    41000440:	03c35e93          	srli	x29,x6,0x3c
    41000444:	01431313          	slli	x6,x6,0x14
    41000448:	01435313          	srli	x6,x6,0x14
    4100044c:	00c31313          	slli	x6,x6,0xc
    41000450:	ff8e8e93          	addi	x29,x29,-8
    41000454:	003e9f13          	slli	x30,x29,0x3
    41000458:	01df0eb3          	add	x29,x30,x29
    4100045c:	01ee8e93          	addi	x29,x29,30
    41000460:	00000f13          	li	x30,0
    41000464:	f85ff06f          	j	410003e8 <syscalls__pte_walk_loop_write>

0000000041000468 <syscalls__pte_walk_final_write>:
    41000468:	00733023          	sd	x7,0(x6)
    4100046c:	341022f3          	csrr	x5,mepc
    41000470:	00428293          	addi	x5,x5,4
    41000474:	16523c23          	sd	x5,376(x4) # 178 <XLEN+0x138>
    41000478:	dd1ff06f          	j	41000248 <syscalls__os_fn_f0001004>

000000004100047c <syscalls__pte_walk_fail_write>:
    4100047c:	3180006f          	j	41000794 <test_failed>

0000000041000480 <syscalls__os_get_hart_context>:
    41000480:	14002573          	csrr	x10,sscratch
    41000484:	341022f3          	csrr	x5,mepc
    41000488:	00428293          	addi	x5,x5,4
    4100048c:	0040006f          	j	41000490 <syscalls__ret_from_os_fn>

0000000041000490 <syscalls__ret_from_os_fn>:
    41000490:	34102373          	csrr	x6,mepc
    41000494:	00430313          	addi	x6,x6,4
    41000498:	16623c23          	sd	x6,376(x4) # 178 <XLEN+0x138>
    4100049c:	34129073          	csrw	mepc,x5
    410004a0:	fff00f93          	li	x31,-1
    410004a4:	2a40006f          	j	41000748 <trap_handler_m__skip_xepc_write>

00000000410004a8 <trap_handler_m__invalid_interrupt>:
    410004a8:	2ec0006f          	j	41000794 <test_failed>

00000000410004ac <trap_handler_m__clear_all_interrupts>:
    410004ac:	34401073          	csrw	mip,x0
    410004b0:	30200073          	mret

00000000410004b4 <trap_handler_m___CLEAR_SSI>:
    410004b4:	00200293          	li	x5,2
    410004b8:	3442b073          	csrc	mip,x5
    410004bc:	30200073          	mret

00000000410004c0 <trap_handler_m___CLEAR_MSI>:
    410004c0:	00800293          	li	x5,8
    410004c4:	3442b073          	csrc	mip,x5
    410004c8:	30200073          	mret

00000000410004cc <trap_handler_m___CLEAR_STI>:
    410004cc:	02000293          	li	x5,32
    410004d0:	3442b073          	csrc	mip,x5
    410004d4:	30200073          	mret

00000000410004d8 <trap_handler_m___CLEAR_MTI>:
    410004d8:	08000293          	li	x5,128
    410004dc:	3442b073          	csrc	mip,x5
    410004e0:	30200073          	mret

00000000410004e4 <trap_handler_m___CLEAR_SEI>:
    410004e4:	20000293          	li	x5,512
    410004e8:	3442b073          	csrc	mip,x5
    410004ec:	30200073          	mret

00000000410004f0 <trap_handler_m___CLEAR_MEI>:
    410004f0:	000012b7          	lui	x5,0x1
    410004f4:	8002829b          	addiw	x5,x5,-2048 # 800 <XLEN+0x7c0>
    410004f8:	3442b073          	csrc	mip,x5
    410004fc:	30200073          	mret

0000000041000500 <trap_handler_m___CLEAR_COI>:
    41000500:	000022b7          	lui	x5,0x2
    41000504:	3442b073          	csrc	mip,x5
    41000508:	30200073          	mret

000000004100050c <trap_handler_m__clear_highest_priority_interrupt>:
    4100050c:	344022f3          	csrr	x5,mip
    41000510:	40500333          	neg	x6,x5
    41000514:	0062f2b3          	and	x5,x5,x6
    41000518:	3442b073          	csrc	mip,x5
    4100051c:	30200073          	mret

0000000041000520 <trap_handler_m__trap_entry>:
    41000520:	0fc0006f          	j	4100061c <trap_handler_m__trap_handler>

0000000041000524 <trap_handler_m__interrupt_vector_table>:
    41000524:	f91ff06f          	j	410004b4 <trap_handler_m___CLEAR_SSI>
    41000528:	f81ff06f          	j	410004a8 <trap_handler_m__invalid_interrupt>
    4100052c:	f95ff06f          	j	410004c0 <trap_handler_m___CLEAR_MSI>
    41000530:	f79ff06f          	j	410004a8 <trap_handler_m__invalid_interrupt>
    41000534:	f99ff06f          	j	410004cc <trap_handler_m___CLEAR_STI>
    41000538:	f71ff06f          	j	410004a8 <trap_handler_m__invalid_interrupt>
    4100053c:	f9dff06f          	j	410004d8 <trap_handler_m___CLEAR_MTI>
    41000540:	f69ff06f          	j	410004a8 <trap_handler_m__invalid_interrupt>
    41000544:	fa1ff06f          	j	410004e4 <trap_handler_m___CLEAR_SEI>
    41000548:	f61ff06f          	j	410004a8 <trap_handler_m__invalid_interrupt>
    4100054c:	fa5ff06f          	j	410004f0 <trap_handler_m___CLEAR_MEI>
    41000550:	f59ff06f          	j	410004a8 <trap_handler_m__invalid_interrupt>
    41000554:	fadff06f          	j	41000500 <trap_handler_m___CLEAR_COI>
    41000558:	f51ff06f          	j	410004a8 <trap_handler_m__invalid_interrupt>
    4100055c:	f4dff06f          	j	410004a8 <trap_handler_m__invalid_interrupt>
    41000560:	fadff06f          	j	4100050c <trap_handler_m__clear_highest_priority_interrupt>
    41000564:	fa9ff06f          	j	4100050c <trap_handler_m__clear_highest_priority_interrupt>
    41000568:	fa5ff06f          	j	4100050c <trap_handler_m__clear_highest_priority_interrupt>
    4100056c:	fa1ff06f          	j	4100050c <trap_handler_m__clear_highest_priority_interrupt>
    41000570:	f9dff06f          	j	4100050c <trap_handler_m__clear_highest_priority_interrupt>
    41000574:	f99ff06f          	j	4100050c <trap_handler_m__clear_highest_priority_interrupt>
    41000578:	f95ff06f          	j	4100050c <trap_handler_m__clear_highest_priority_interrupt>
    4100057c:	f91ff06f          	j	4100050c <trap_handler_m__clear_highest_priority_interrupt>
    41000580:	f8dff06f          	j	4100050c <trap_handler_m__clear_highest_priority_interrupt>
    41000584:	f89ff06f          	j	4100050c <trap_handler_m__clear_highest_priority_interrupt>
    41000588:	f85ff06f          	j	4100050c <trap_handler_m__clear_highest_priority_interrupt>
    4100058c:	f81ff06f          	j	4100050c <trap_handler_m__clear_highest_priority_interrupt>
    41000590:	f7dff06f          	j	4100050c <trap_handler_m__clear_highest_priority_interrupt>
    41000594:	f79ff06f          	j	4100050c <trap_handler_m__clear_highest_priority_interrupt>
    41000598:	f75ff06f          	j	4100050c <trap_handler_m__clear_highest_priority_interrupt>
    4100059c:	f71ff06f          	j	4100050c <trap_handler_m__clear_highest_priority_interrupt>
    410005a0:	f6dff06f          	j	4100050c <trap_handler_m__clear_highest_priority_interrupt>
    410005a4:	f69ff06f          	j	4100050c <trap_handler_m__clear_highest_priority_interrupt>
    410005a8:	f65ff06f          	j	4100050c <trap_handler_m__clear_highest_priority_interrupt>
    410005ac:	f61ff06f          	j	4100050c <trap_handler_m__clear_highest_priority_interrupt>
    410005b0:	f5dff06f          	j	4100050c <trap_handler_m__clear_highest_priority_interrupt>
    410005b4:	f59ff06f          	j	4100050c <trap_handler_m__clear_highest_priority_interrupt>
    410005b8:	f55ff06f          	j	4100050c <trap_handler_m__clear_highest_priority_interrupt>
    410005bc:	f51ff06f          	j	4100050c <trap_handler_m__clear_highest_priority_interrupt>
    410005c0:	f4dff06f          	j	4100050c <trap_handler_m__clear_highest_priority_interrupt>
    410005c4:	f49ff06f          	j	4100050c <trap_handler_m__clear_highest_priority_interrupt>
    410005c8:	f45ff06f          	j	4100050c <trap_handler_m__clear_highest_priority_interrupt>
    410005cc:	f41ff06f          	j	4100050c <trap_handler_m__clear_highest_priority_interrupt>
    410005d0:	f3dff06f          	j	4100050c <trap_handler_m__clear_highest_priority_interrupt>
    410005d4:	f39ff06f          	j	4100050c <trap_handler_m__clear_highest_priority_interrupt>
    410005d8:	f35ff06f          	j	4100050c <trap_handler_m__clear_highest_priority_interrupt>
    410005dc:	f31ff06f          	j	4100050c <trap_handler_m__clear_highest_priority_interrupt>
    410005e0:	f2dff06f          	j	4100050c <trap_handler_m__clear_highest_priority_interrupt>
    410005e4:	f29ff06f          	j	4100050c <trap_handler_m__clear_highest_priority_interrupt>
    410005e8:	f25ff06f          	j	4100050c <trap_handler_m__clear_highest_priority_interrupt>
    410005ec:	f21ff06f          	j	4100050c <trap_handler_m__clear_highest_priority_interrupt>
    410005f0:	f1dff06f          	j	4100050c <trap_handler_m__clear_highest_priority_interrupt>
    410005f4:	f19ff06f          	j	4100050c <trap_handler_m__clear_highest_priority_interrupt>
    410005f8:	f15ff06f          	j	4100050c <trap_handler_m__clear_highest_priority_interrupt>
    410005fc:	f11ff06f          	j	4100050c <trap_handler_m__clear_highest_priority_interrupt>
    41000600:	f0dff06f          	j	4100050c <trap_handler_m__clear_highest_priority_interrupt>
    41000604:	f09ff06f          	j	4100050c <trap_handler_m__clear_highest_priority_interrupt>
    41000608:	f05ff06f          	j	4100050c <trap_handler_m__clear_highest_priority_interrupt>
    4100060c:	f01ff06f          	j	4100050c <trap_handler_m__clear_highest_priority_interrupt>
    41000610:	efdff06f          	j	4100050c <trap_handler_m__clear_highest_priority_interrupt>
    41000614:	ef9ff06f          	j	4100050c <trap_handler_m__clear_highest_priority_interrupt>
    41000618:	ef5ff06f          	j	4100050c <trap_handler_m__clear_highest_priority_interrupt>

000000004100061c <trap_handler_m__trap_handler>:
    4100061c:	342022f3          	csrr	x5,mcause
    41000620:	fff0031b          	addiw	x6,x0,-1
    41000624:	03f31313          	slli	x6,x6,0x3f
    41000628:	00537333          	and	x6,x6,x5
    4100062c:	02030263          	beqz	x6,41000650 <trap_handler_m__exception_path>

0000000041000630 <trap_handler_m__interrupt_handler>:
    41000630:	fff0031b          	addiw	x6,x0,-1
    41000634:	03f31313          	slli	x6,x6,0x3f
    41000638:	0062c2b3          	xor	x5,x5,x6
    4100063c:	00000317          	auipc	x6,0x0
    41000640:	ee430313          	addi	x6,x6,-284 # 41000520 <trap_handler_m__trap_entry>
    41000644:	00229293          	slli	x5,x5,0x2
    41000648:	005302b3          	add	x5,x6,x5
    4100064c:	00028067          	jr	x5 # 2000 <mem23__pt_level3>

0000000041000650 <trap_handler_m__exception_path>:
    41000650:	34021273          	csrrw	x4,mscratch,x4
    41000654:	00000297          	auipc	x5,0x0
    41000658:	10828293          	addi	x5,x5,264 # 4100075c <trap_handler_m__trap_panic>
    4100065c:	30529073          	csrw	mtvec,x5
    41000660:	0040006f          	j	41000664 <trap_handler_m__excp_entry>

0000000041000664 <trap_handler_m__excp_entry>:
    41000664:	34202373          	csrr	x6,mcause
    41000668:	00800293          	li	x5,8
    4100066c:	00534863          	blt	x6,x5,4100067c <trap_handler_m__check_exception_label>
    41000670:	00b00293          	li	x5,11
    41000674:	0062c463          	blt	x5,x6,4100067c <trap_handler_m__check_exception_label>
    41000678:	a5dff06f          	j	410000d4 <syscalls__syscall_check_schedule_next_test>

000000004100067c <trap_handler_m__check_exception_label>:
    4100067c:	04623c23          	sd	x6,88(x4) # 58 <XLEN+0x18>
    41000680:	341022f3          	csrr	x5,mepc
    41000684:	02523423          	sd	x5,40(x4) # 28 <SECURE_ACCESS_PROBABILITY+0xa>
    41000688:	01820283          	lb	x5,24(x4) # 18 <STORE_GUEST_PAGE_FAULT+0x1>
    4100068c:	00029863          	bnez	x5,4100069c <trap_handler_m__check_excp>
    41000690:	00128293          	addi	x5,x5,1
    41000694:	00520c23          	sb	x5,24(x4) # 18 <STORE_GUEST_PAGE_FAULT+0x1>
    41000698:	0980006f          	j	41000730 <trap_handler_m__ecall_from_machine>

000000004100069c <trap_handler_m__check_excp>:
    4100069c:	06823283          	ld	x5,104(x4) # 68 <XLEN+0x28>
    410006a0:	06023423          	sd	x0,104(x4) # 68 <XLEN+0x28>
    410006a4:	00028663          	beqz	x5,410006b0 <trap_handler_m__skip_mode_check>
    410006a8:	00100393          	li	x7,1
    410006ac:	0e729463          	bne	x5,x7,41000794 <test_failed>

00000000410006b0 <trap_handler_m__skip_mode_check>:
    410006b0:	05023283          	ld	x5,80(x4) # 50 <XLEN+0x10>
    410006b4:	04023823          	sd	x0,80(x4) # 50 <XLEN+0x10>
    410006b8:	0c531e63          	bne	x6,x5,41000794 <test_failed>
    410006bc:	03823283          	ld	x5,56(x4) # 38 <SECURE_ACCESS_PROBABILITY+0x1a>
    410006c0:	02023c23          	sd	x0,56(x4) # 38 <SECURE_ACCESS_PROBABILITY+0x1a>
    410006c4:	06029463          	bnez	x5,4100072c <trap_handler_m__skip_gva_check>
    410006c8:	02023303          	ld	x6,32(x4) # 20 <SECURE_ACCESS_PROBABILITY+0x2>
    410006cc:	02023023          	sd	x0,32(x4) # 20 <SECURE_ACCESS_PROBABILITY+0x2>
    410006d0:	02823283          	ld	x5,40(x4) # 28 <SECURE_ACCESS_PROBABILITY+0xa>
    410006d4:	02023423          	sd	x0,40(x4) # 28 <SECURE_ACCESS_PROBABILITY+0xa>
    410006d8:	0a531e63          	bne	x6,x5,41000794 <test_failed>
    410006dc:	04023283          	ld	x5,64(x4) # 40 <XLEN>
    410006e0:	04023023          	sd	x0,64(x4) # 40 <XLEN>
    410006e4:	00028663          	beqz	x5,410006f0 <trap_handler_m__skip_nonzero_tval_check>

00000000410006e8 <trap_handler_m__nonzero_tval_check>:
    410006e8:	34302373          	csrr	x6,mtval
    410006ec:	0a531463          	bne	x6,x5,41000794 <test_failed>

00000000410006f0 <trap_handler_m__skip_nonzero_tval_check>:
    410006f0:	04823283          	ld	x5,72(x4) # 48 <XLEN+0x8>
    410006f4:	04023423          	sd	x0,72(x4) # 48 <XLEN+0x8>
    410006f8:	00028663          	beqz	x5,41000704 <trap_handler_m__skip_nonzero_htval_check>

00000000410006fc <trap_handler_m__nonzero_htval_check>:
    410006fc:	34b02373          	csrr	x6,0x34b
    41000700:	08531a63          	bne	x6,x5,41000794 <test_failed>

0000000041000704 <trap_handler_m__skip_nonzero_htval_check>:
    41000704:	06023283          	ld	x5,96(x4) # 60 <XLEN+0x20>
    41000708:	06023023          	sd	x0,96(x4) # 60 <XLEN+0x20>
    4100070c:	02028063          	beqz	x5,4100072c <trap_handler_m__skip_gva_check>

0000000041000710 <trap_handler_m__gva_check>:
    41000710:	30002373          	csrr	x6,mstatus
    41000714:	02635313          	srli	x6,x6,0x26
    41000718:	00137313          	andi	x6,x6,1
    4100071c:	06030c63          	beqz	x6,41000794 <test_failed>
    41000720:	0010031b          	addiw	x6,x0,1
    41000724:	02631313          	slli	x6,x6,0x26
    41000728:	30033073          	csrc	mstatus,x6

000000004100072c <trap_handler_m__skip_gva_check>:
    4100072c:	0040006f          	j	41000730 <trap_handler_m__ecall_from_machine>

0000000041000730 <trap_handler_m__ecall_from_machine>:
    41000730:	03023283          	ld	x5,48(x4) # 30 <SECURE_ACCESS_PROBABILITY+0x12>
    41000734:	02023823          	sd	x0,48(x4) # 30 <SECURE_ACCESS_PROBABILITY+0x12>
    41000738:	07023303          	ld	x6,112(x4) # 70 <XLEN+0x30>
    4100073c:	06023823          	sd	x0,112(x4) # 70 <XLEN+0x30>
    41000740:	00031463          	bnez	x6,41000748 <trap_handler_m__skip_xepc_write>
    41000744:	34129073          	csrw	mepc,x5

0000000041000748 <trap_handler_m__skip_xepc_write>:
    41000748:	00000317          	auipc	x6,0x0
    4100074c:	dd830313          	addi	x6,x6,-552 # 41000520 <trap_handler_m__trap_entry>
    41000750:	30531073          	csrw	mtvec,x6
    41000754:	34021273          	csrrw	x4,mscratch,x4
    41000758:	30200073          	mret

000000004100075c <trap_handler_m__trap_panic>:
    4100075c:	00000193          	li	x3,0
    41000760:	2b00006f          	j	41000a10 <eot__end_test>

0000000041000764 <enter_scheduler>:
    41000764:	0002f337          	lui	x6,0x2f
    41000768:	ab73031b          	addiw	x6,x6,-1353 # 2eab7 <mem40__pt_level2+0x4ab7>
    4100076c:	00e31313          	slli	x6,x6,0xe
    41000770:	0de30313          	addi	x6,x6,222
    41000774:	02628063          	beq	x5,x6,41000794 <test_failed>
    41000778:	00000513          	li	x10,0
    4100077c:	030000ef          	jal	410007ac <rvcp_print_test_result>
    41000780:	3140006f          	j	41000a94 <scheduler__dispatch>

0000000041000784 <test_passed>:
    41000784:	34021273          	csrrw	x4,mscratch,x4
    41000788:	00000513          	li	x10,0
    4100078c:	020000ef          	jal	410007ac <rvcp_print_test_result>
    41000790:	3040006f          	j	41000a94 <scheduler__dispatch>

0000000041000794 <test_failed>:
    41000794:	34021273          	csrrw	x4,mscratch,x4
    41000798:	00300193          	li	x3,3
    4100079c:	2740006f          	j	41000a10 <eot__end_test>

00000000410007a0 <os_end_test>:
    410007a0:	34021273          	csrrw	x4,mscratch,x4
    410007a4:	00100193          	li	x3,1
    410007a8:	2680006f          	j	41000a10 <eot__end_test>

00000000410007ac <rvcp_print_test_result>:
    410007ac:	00050e13          	mv	x28,x10
    410007b0:	18823283          	ld	x5,392(x4) # 188 <XLEN+0x148>
    410007b4:	0010031b          	addiw	x6,x0,1
    410007b8:	02031313          	slli	x6,x6,0x20
    410007bc:	ffe30313          	addi	x6,x6,-2
    410007c0:	1c628063          	beq	x5,x6,41000980 <rvcp_print_test_result+0x1d4>
    410007c4:	0010031b          	addiw	x6,x0,1
    410007c8:	02031313          	slli	x6,x6,0x20
    410007cc:	fff30313          	addi	x6,x6,-1
    410007d0:	1a628863          	beq	x5,x6,41000980 <rvcp_print_test_result+0x1d4>
    410007d4:	1a02c663          	bltz	x5,41000980 <rvcp_print_test_result+0x1d4>
    410007d8:	00000317          	auipc	x6,0x0
    410007dc:	46430313          	addi	x6,x6,1124 # 41000c3c <dtest_descriptor_table>
    410007e0:	00329393          	slli	x7,x5,0x3
    410007e4:	00730333          	add	x6,x6,x7
    410007e8:	00033e83          	ld	x29,0(x6)
    410007ec:	44f06f37          	lui	x30,0x44f06
    410007f0:	030f0f1b          	addiw	x30,x30,48 # 44f06030 <rvcp_prefix_str_pa>
    410007f4:	000f4283          	lbu	x5,0(x30)
    410007f8:	02028663          	beqz	x5,41000824 <rvcp_print_test_result+0x78>
    410007fc:	1010031b          	addiw	x6,x0,257
    41000800:	03031313          	slli	x6,x6,0x30
    41000804:	005362b3          	or	x5,x6,x5
    41000808:	0003f317          	auipc	x6,0x3f
    4100080c:	7f830313          	addi	x6,x6,2040 # 41040000 <tohost>
    41000810:	00033383          	ld	x7,0(x6)
    41000814:	fe039ee3          	bnez	x7,41000810 <rvcp_print_test_result+0x64>
    41000818:	00533023          	sd	x5,0(x6)
    4100081c:	001f0f13          	addi	x30,x30,1
    41000820:	fd5ff06f          	j	410007f4 <rvcp_print_test_result+0x48>
    41000824:	44f06f37          	lui	x30,0x44f06
    41000828:	041f0f1b          	addiw	x30,x30,65 # 44f06041 <rvcp_testname_str_pa>
    4100082c:	000f4283          	lbu	x5,0(x30)
    41000830:	02028663          	beqz	x5,4100085c <rvcp_print_test_result+0xb0>
    41000834:	1010031b          	addiw	x6,x0,257
    41000838:	03031313          	slli	x6,x6,0x30
    4100083c:	005362b3          	or	x5,x6,x5
    41000840:	0003f317          	auipc	x6,0x3f
    41000844:	7c030313          	addi	x6,x6,1984 # 41040000 <tohost>
    41000848:	00033383          	ld	x7,0(x6)
    4100084c:	fe039ee3          	bnez	x7,41000848 <rvcp_print_test_result+0x9c>
    41000850:	00533023          	sd	x5,0(x6)
    41000854:	001f0f13          	addi	x30,x30,1
    41000858:	fd5ff06f          	j	4100082c <rvcp_print_test_result+0x80>
    4100085c:	44f06f37          	lui	x30,0x44f06
    41000860:	05bf0f1b          	addiw	x30,x30,91 # 44f0605b <rvcp_space_str_pa>
    41000864:	000f4283          	lbu	x5,0(x30)
    41000868:	02028663          	beqz	x5,41000894 <rvcp_print_test_result+0xe8>
    4100086c:	1010031b          	addiw	x6,x0,257
    41000870:	03031313          	slli	x6,x6,0x30
    41000874:	005362b3          	or	x5,x6,x5
    41000878:	0003f317          	auipc	x6,0x3f
    4100087c:	78830313          	addi	x6,x6,1928 # 41040000 <tohost>
    41000880:	00033383          	ld	x7,0(x6)
    41000884:	fe039ee3          	bnez	x7,41000880 <rvcp_print_test_result+0xd4>
    41000888:	00533023          	sd	x5,0(x6)
    4100088c:	001f0f13          	addi	x30,x30,1
    41000890:	fd5ff06f          	j	41000864 <rvcp_print_test_result+0xb8>
    41000894:	000e8f13          	mv	x30,x29
    41000898:	000f4283          	lbu	x5,0(x30)
    4100089c:	02028663          	beqz	x5,410008c8 <rvcp_print_test_result+0x11c>
    410008a0:	1010031b          	addiw	x6,x0,257
    410008a4:	03031313          	slli	x6,x6,0x30
    410008a8:	005362b3          	or	x5,x6,x5
    410008ac:	0003f317          	auipc	x6,0x3f
    410008b0:	75430313          	addi	x6,x6,1876 # 41040000 <tohost>
    410008b4:	00033383          	ld	x7,0(x6)
    410008b8:	fe039ee3          	bnez	x7,410008b4 <rvcp_print_test_result+0x108>
    410008bc:	00533023          	sd	x5,0(x6)
    410008c0:	001f0f13          	addi	x30,x30,1
    410008c4:	fd5ff06f          	j	41000898 <rvcp_print_test_result+0xec>
    410008c8:	44f06f37          	lui	x30,0x44f06
    410008cc:	05bf0f1b          	addiw	x30,x30,91 # 44f0605b <rvcp_space_str_pa>
    410008d0:	000f4283          	lbu	x5,0(x30)
    410008d4:	02028663          	beqz	x5,41000900 <rvcp_print_test_result+0x154>
    410008d8:	1010031b          	addiw	x6,x0,257
    410008dc:	03031313          	slli	x6,x6,0x30
    410008e0:	005362b3          	or	x5,x6,x5
    410008e4:	0003f317          	auipc	x6,0x3f
    410008e8:	71c30313          	addi	x6,x6,1820 # 41040000 <tohost>
    410008ec:	00033383          	ld	x7,0(x6)
    410008f0:	fe039ee3          	bnez	x7,410008ec <rvcp_print_test_result+0x140>
    410008f4:	00533023          	sd	x5,0(x6)
    410008f8:	001f0f13          	addi	x30,x30,1
    410008fc:	fd5ff06f          	j	410008d0 <rvcp_print_test_result+0x124>
    41000900:	000e1863          	bnez	x28,41000910 <rvcp_print_test_result+0x164>
    41000904:	44f06f37          	lui	x30,0x44f06
    41000908:	04df0f1b          	addiw	x30,x30,77 # 44f0604d <rvcp_passed_str_pa>
    4100090c:	00c0006f          	j	41000918 <rvcp_print_test_result+0x16c>
    41000910:	44f06f37          	lui	x30,0x44f06
    41000914:	054f0f1b          	addiw	x30,x30,84 # 44f06054 <rvcp_failed_str_pa>
    41000918:	000f4283          	lbu	x5,0(x30)
    4100091c:	02028663          	beqz	x5,41000948 <rvcp_print_test_result+0x19c>
    41000920:	1010031b          	addiw	x6,x0,257
    41000924:	03031313          	slli	x6,x6,0x30
    41000928:	005362b3          	or	x5,x6,x5
    4100092c:	0003f317          	auipc	x6,0x3f
    41000930:	6d430313          	addi	x6,x6,1748 # 41040000 <tohost>
    41000934:	00033383          	ld	x7,0(x6)
    41000938:	fe039ee3          	bnez	x7,41000934 <rvcp_print_test_result+0x188>
    4100093c:	00533023          	sd	x5,0(x6)
    41000940:	001f0f13          	addi	x30,x30,1
    41000944:	fd5ff06f          	j	41000918 <rvcp_print_test_result+0x16c>
    41000948:	44f06f37          	lui	x30,0x44f06
    4100094c:	05df0f1b          	addiw	x30,x30,93 # 44f0605d <rvcp_newline_str_pa>
    41000950:	000f4283          	lbu	x5,0(x30)
    41000954:	02028663          	beqz	x5,41000980 <rvcp_print_test_result+0x1d4>
    41000958:	1010031b          	addiw	x6,x0,257
    4100095c:	03031313          	slli	x6,x6,0x30
    41000960:	005362b3          	or	x5,x6,x5
    41000964:	0003f317          	auipc	x6,0x3f
    41000968:	69c30313          	addi	x6,x6,1692 # 41040000 <tohost>
    4100096c:	00033383          	ld	x7,0(x6)
    41000970:	fe039ee3          	bnez	x7,4100096c <rvcp_print_test_result+0x1c0>
    41000974:	00533023          	sd	x5,0(x6)
    41000978:	001f0f13          	addi	x30,x30,1
    4100097c:	fd5ff06f          	j	41000950 <rvcp_print_test_result+0x1a4>
    41000980:	00008067          	ret

0000000041000984 <os_rng_orig>:
    41000984:	f14023f3          	csrr	x7,mhartid
    41000988:	00068313          	mv	x6,x13
    4100098c:	026383b3          	mul	x7,x7,x6
    41000990:	00058313          	mv	x6,x11
    41000994:	00730333          	add	x6,x6,x7
    41000998:	00033283          	ld	x5,0(x6)
    4100099c:	01529313          	slli	x6,x5,0x15
    410009a0:	0062c2b3          	xor	x5,x5,x6
    410009a4:	0232d313          	srli	x6,x5,0x23
    410009a8:	0062c2b3          	xor	x5,x5,x6
    410009ac:	00429313          	slli	x6,x5,0x4
    410009b0:	0062c2b3          	xor	x5,x5,x6
    410009b4:	00058313          	mv	x6,x11
    410009b8:	00730333          	add	x6,x6,x7
    410009bc:	00533023          	sd	x5,0(x6)
    410009c0:	00060313          	mv	x6,x12
    410009c4:	0262f2b3          	remu	x5,x5,x6
    410009c8:	00028513          	mv	x10,x5
    410009cc:	00008067          	ret
    410009d0:	02a00513          	li	x10,42
    410009d4:	001965b7          	lui	x11,0x196
    410009d8:	60d5859b          	addiw	x11,x11,1549 # 19660d <mem35__pt_level2+0x4f60d>
    410009dc:	3c6ef637          	lui	x12,0x3c6ef
    410009e0:	35f6061b          	addiw	x12,x12,863 # 3c6ef35f <mem33__pt_level3+0x3e8135f>
    410009e4:	02200693          	li	x13,34
    410009e8:	02b50533          	mul	x10,x10,x11
    410009ec:	00c50533          	add	x10,x10,x12
    410009f0:	02d56533          	rem	x10,x10,x13
    410009f4:	00b00593          	li	x11,11
    410009f8:	02b56533          	rem	x10,x10,x11
    410009fc:	00008067          	ret

0000000041000a00 <tohost_mutex>:
	...

0000000041000a08 <tohost_addr_mem>:
    41000a08:	0000                	.insn	2, 0x0000
    41000a0a:	4104                	.insn	2, 0x4104
    41000a0c:	0000                	.insn	2, 0x0000
	...

0000000041000a10 <eot__end_test>:
    41000a10:	00100293          	li	x5,1
    41000a14:	00328463          	beq	x5,x3,41000a1c <eot__passed>
    41000a18:	01c0006f          	j	41000a34 <eot__failed>

0000000041000a1c <eot__passed>:
    41000a1c:	0ff0000f          	fence
    41000a20:	00000297          	auipc	x5,0x0
    41000a24:	fe82b283          	ld	x5,-24(x5) # 41000a08 <tohost_addr_mem>
    41000a28:	00100313          	li	x6,1
    41000a2c:	0062a023          	sw	x6,0(x5)
    41000a30:	0240006f          	j	41000a54 <eot__halt>

0000000041000a34 <eot__failed>:
    41000a34:	00100513          	li	x10,1
    41000a38:	d75ff0ef          	jal	410007ac <rvcp_print_test_result>
    41000a3c:	0ff0000f          	fence
    41000a40:	00000297          	auipc	x5,0x0
    41000a44:	fc82b283          	ld	x5,-56(x5) # 41000a08 <tohost_addr_mem>
    41000a48:	00300313          	li	x6,3
    41000a4c:	0062a023          	sw	x6,0(x5)
    41000a50:	0040006f          	j	41000a54 <eot__halt>

0000000041000a54 <eot__halt>:
    41000a54:	10500073          	wfi
    41000a58:	ffdff06f          	j	41000a54 <eot__halt>

0000000041000a5c <scheduler__init>:
    41000a5c:	00000297          	auipc	x5,0x0
    41000a60:	0bc28293          	addi	x5,x5,188 # 41000b18 <scheduler__panic>
    41000a64:	305292f3          	csrrw	x5,mtvec,x5
    41000a68:	18523023          	sd	x5,384(x4) # 180 <XLEN+0x140>
    41000a6c:	02200293          	li	x5,34
    41000a70:	18523823          	sd	x5,400(x4) # 190 <XLEN+0x150>
    41000a74:	0010029b          	addiw	x5,x0,1
    41000a78:	02029293          	slli	x5,x5,0x20
    41000a7c:	ffe28293          	addi	x5,x5,-2
    41000a80:	18523423          	sd	x5,392(x4) # 188 <XLEN+0x148>
    41000a84:	00001317          	auipc	x6,0x1
    41000a88:	86830313          	addi	x6,x6,-1944 # 410012ec <scheduler__test_setup_ptr>
    41000a8c:	00033303          	ld	x6,0(x6)
    41000a90:	0600006f          	j	41000af0 <scheduler__execute_test>

0000000041000a94 <scheduler__dispatch>:
    41000a94:	00000297          	auipc	x5,0x0
    41000a98:	08428293          	addi	x5,x5,132 # 41000b18 <scheduler__panic>
    41000a9c:	305292f3          	csrrw	x5,mtvec,x5
    41000aa0:	18523023          	sd	x5,384(x4) # 180 <XLEN+0x140>

0000000041000aa4 <scheduler__csr_read_randomization>:
    41000aa4:	f11022f3          	csrr	x5,mvendorid
    41000aa8:	142022f3          	csrr	x5,scause
    41000aac:	142022f3          	csrr	x5,scause
    41000ab0:	10a022f3          	csrr	x5,0x10a

0000000041000ab4 <scheduler__load_num_runs>:
    41000ab4:	19023303          	ld	x6,400(x4) # 190 <XLEN+0x150>
    41000ab8:	04030c63          	beqz	x6,41000b10 <scheduler__finished>

0000000041000abc <scheduler__decrement_num_runs>:
    41000abc:	fff30393          	addi	x7,x6,-1
    41000ac0:	18723823          	sd	x7,400(x4) # 190 <XLEN+0x150>
    41000ac4:	00000e17          	auipc	x28,0x0
    41000ac8:	7a0e0e13          	addi	x28,x28,1952 # 41001264 <dtest_index_map>
    41000acc:	00239e93          	slli	x29,x7,0x2
    41000ad0:	01de0e33          	add	x28,x28,x29
    41000ad4:	000e2e03          	lw	x28,0(x28)
    41000ad8:	19c23423          	sd	x28,392(x4) # 188 <XLEN+0x148>

0000000041000adc <scheduler__calc_test_pointer>:
    41000adc:	00339293          	slli	x5,x7,0x3

0000000041000ae0 <scheduler__load_test_addr>:
    41000ae0:	00000317          	auipc	x6,0x0
    41000ae4:	04c30313          	addi	x6,x6,76 # 41000b2c <os_test_sequence>
    41000ae8:	006282b3          	add	x5,x5,x6
    41000aec:	0002b303          	ld	x6,0(x5)

0000000041000af0 <scheduler__execute_test>:
    41000af0:	18023283          	ld	x5,384(x4) # 180 <XLEN+0x140>
    41000af4:	30529073          	csrw	mtvec,x5
    41000af8:	34021273          	csrrw	x4,mscratch,x4
    41000afc:	00000213          	li	x4,0
    41000b00:	14131073          	csrw	sepc,x6
    41000b04:	10000293          	li	x5,256
    41000b08:	1002a073          	csrs	sstatus,x5
    41000b0c:	10200073          	sret

0000000041000b10 <scheduler__finished>:
    41000b10:	00100193          	li	x3,1
    41000b14:	efdff06f          	j	41000a10 <eot__end_test>

0000000041000b18 <scheduler__panic>:
    41000b18:	00000193          	li	x3,0
    41000b1c:	ef5ff06f          	j	41000a10 <eot__end_test>
    41000b20:	0000                	.insn	2, 0x0000
	...

0000000041000b24 <num_runs>:
    41000b24:	0022                	.insn	2, 0x0022
    41000b26:	0000                	.insn	2, 0x0000
    41000b28:	0000                	.insn	2, 0x0000
	...

0000000041000b2c <os_test_sequence>:
    41000b2c:	7014                	.insn	2, 0x7014
    41000b2e:	4101                	.insn	2, 0x4101
    41000b30:	0000                	.insn	2, 0x0000
    41000b32:	0000                	.insn	2, 0x0000
    41000b34:	4234                	.insn	2, 0x4234
    41000b36:	4101                	.insn	2, 0x4101
    41000b38:	0000                	.insn	2, 0x0000
    41000b3a:	0000                	.insn	2, 0x0000
    41000b3c:	5434                	.insn	2, 0x5434
    41000b3e:	4101                	.insn	2, 0x4101
    41000b40:	0000                	.insn	2, 0x0000
    41000b42:	0000                	.insn	2, 0x0000
    41000b44:	4c0c                	.insn	2, 0x4c0c
    41000b46:	4101                	.insn	2, 0x4101
    41000b48:	0000                	.insn	2, 0x0000
    41000b4a:	0000                	.insn	2, 0x0000
    41000b4c:	6e98                	.insn	2, 0x6e98
    41000b4e:	4101                	.insn	2, 0x4101
    41000b50:	0000                	.insn	2, 0x0000
    41000b52:	0000                	.insn	2, 0x0000
    41000b54:	6abc                	.insn	2, 0x6abc
    41000b56:	4101                	.insn	2, 0x4101
    41000b58:	0000                	.insn	2, 0x0000
    41000b5a:	0000                	.insn	2, 0x0000
    41000b5c:	5e0c                	.insn	2, 0x5e0c
    41000b5e:	4101                	.insn	2, 0x4101
    41000b60:	0000                	.insn	2, 0x0000
    41000b62:	0000                	.insn	2, 0x0000
    41000b64:	4838                	.insn	2, 0x4838
    41000b66:	4101                	.insn	2, 0x4101
    41000b68:	0000                	.insn	2, 0x0000
    41000b6a:	0000                	.insn	2, 0x0000
    41000b6c:	5298                	.insn	2, 0x5298
    41000b6e:	4101                	.insn	2, 0x4101
    41000b70:	0000                	.insn	2, 0x0000
    41000b72:	0000                	.insn	2, 0x0000
    41000b74:	4590                	.insn	2, 0x4590
    41000b76:	4101                	.insn	2, 0x4101
    41000b78:	0000                	.insn	2, 0x0000
    41000b7a:	0000                	.insn	2, 0x0000
    41000b7c:	41e0                	.insn	2, 0x41e0
    41000b7e:	4101                	.insn	2, 0x4101
    41000b80:	0000                	.insn	2, 0x0000
    41000b82:	0000                	.insn	2, 0x0000
    41000b84:	4b20                	.insn	2, 0x4b20
    41000b86:	4101                	.insn	2, 0x4101
    41000b88:	0000                	.insn	2, 0x0000
    41000b8a:	0000                	.insn	2, 0x0000
    41000b8c:	5a68                	.insn	2, 0x5a68
    41000b8e:	4101                	.insn	2, 0x4101
    41000b90:	0000                	.insn	2, 0x0000
    41000b92:	0000                	.insn	2, 0x0000
    41000b94:	5648                	.insn	2, 0x5648
    41000b96:	4101                	.insn	2, 0x4101
    41000b98:	0000                	.insn	2, 0x0000
    41000b9a:	0000                	.insn	2, 0x0000
    41000b9c:	4e08                	.insn	2, 0x4e08
    41000b9e:	4101                	.insn	2, 0x4101
    41000ba0:	0000                	.insn	2, 0x0000
    41000ba2:	0000                	.insn	2, 0x0000
    41000ba4:	6f40                	.insn	2, 0x6f40
    41000ba6:	4101                	.insn	2, 0x4101
    41000ba8:	0000                	.insn	2, 0x0000
    41000baa:	0000                	.insn	2, 0x0000
    41000bac:	6978                	.insn	2, 0x6978
    41000bae:	4101                	.insn	2, 0x4101
    41000bb0:	0000                	.insn	2, 0x0000
    41000bb2:	0000                	.insn	2, 0x0000
    41000bb4:	56a0                	.insn	2, 0x56a0
    41000bb6:	4101                	.insn	2, 0x4101
    41000bb8:	0000                	.insn	2, 0x0000
    41000bba:	0000                	.insn	2, 0x0000
    41000bbc:	509c                	.insn	2, 0x509c
    41000bbe:	4101                	.insn	2, 0x4101
    41000bc0:	0000                	.insn	2, 0x0000
    41000bc2:	0000                	.insn	2, 0x0000
    41000bc4:	6078                	.insn	2, 0x6078
    41000bc6:	4101                	.insn	2, 0x4101
    41000bc8:	0000                	.insn	2, 0x0000
    41000bca:	0000                	.insn	2, 0x0000
    41000bcc:	4170                	.insn	2, 0x4170
    41000bce:	4101                	.insn	2, 0x4101
    41000bd0:	0000                	.insn	2, 0x0000
    41000bd2:	0000                	.insn	2, 0x0000
    41000bd4:	6658                	.insn	2, 0x6658
    41000bd6:	4101                	.insn	2, 0x4101
    41000bd8:	0000                	.insn	2, 0x0000
    41000bda:	0000                	.insn	2, 0x0000
    41000bdc:	6cf0                	.insn	2, 0x6cf0
    41000bde:	4101                	.insn	2, 0x4101
    41000be0:	0000                	.insn	2, 0x0000
    41000be2:	0000                	.insn	2, 0x0000
    41000be4:	46c8                	.insn	2, 0x46c8
    41000be6:	4101                	.insn	2, 0x4101
    41000be8:	0000                	.insn	2, 0x0000
    41000bea:	0000                	.insn	2, 0x0000
    41000bec:	4f24                	.insn	2, 0x4f24
    41000bee:	4101                	.insn	2, 0x4101
    41000bf0:	0000                	.insn	2, 0x0000
    41000bf2:	0000                	.insn	2, 0x0000
    41000bf4:	58c8                	.insn	2, 0x58c8
    41000bf6:	4101                	.insn	2, 0x4101
    41000bf8:	0000                	.insn	2, 0x0000
    41000bfa:	0000                	.insn	2, 0x0000
    41000bfc:	6b84                	.insn	2, 0x6b84
    41000bfe:	4101                	.insn	2, 0x4101
    41000c00:	0000                	.insn	2, 0x0000
    41000c02:	0000                	.insn	2, 0x0000
    41000c04:	5144                	.insn	2, 0x5144
    41000c06:	4101                	.insn	2, 0x4101
    41000c08:	0000                	.insn	2, 0x0000
    41000c0a:	0000                	.insn	2, 0x0000
    41000c0c:	6408                	.insn	2, 0x6408
    41000c0e:	4101                	.insn	2, 0x4101
    41000c10:	0000                	.insn	2, 0x0000
    41000c12:	0000                	.insn	2, 0x0000
    41000c14:	51d4                	.insn	2, 0x51d4
    41000c16:	4101                	.insn	2, 0x4101
    41000c18:	0000                	.insn	2, 0x0000
    41000c1a:	0000                	.insn	2, 0x0000
    41000c1c:	42d4                	.insn	2, 0x42d4
    41000c1e:	4101                	.insn	2, 0x4101
    41000c20:	0000                	.insn	2, 0x0000
    41000c22:	0000                	.insn	2, 0x0000
    41000c24:	6f88                	.insn	2, 0x6f88
    41000c26:	4101                	.insn	2, 0x4101
    41000c28:	0000                	.insn	2, 0x0000
    41000c2a:	0000                	.insn	2, 0x0000
    41000c2c:	438c                	.insn	2, 0x438c
    41000c2e:	4101                	.insn	2, 0x4101
    41000c30:	0000                	.insn	2, 0x0000
    41000c32:	0000                	.insn	2, 0x0000
    41000c34:	48e8                	.insn	2, 0x48e8
    41000c36:	4101                	.insn	2, 0x4101
    41000c38:	0000                	.insn	2, 0x0000
	...

0000000041000c3c <dtest_descriptor_table>:
    41000c3c:	0d44                	.insn	2, 0x0d44
    41000c3e:	4100                	.insn	2, 0x4100
    41000c40:	0000                	.insn	2, 0x0000
    41000c42:	0000                	.insn	2, 0x0000
    41000c44:	0d71                	.insn	2, 0x0d71
    41000c46:	4100                	.insn	2, 0x4100
    41000c48:	0000                	.insn	2, 0x0000
    41000c4a:	0000                	.insn	2, 0x0000
    41000c4c:	41000d97          	auipc	x27,0x41000
    41000c50:	0000                	.insn	2, 0x0000
    41000c52:	0000                	.insn	2, 0x0000
    41000c54:	0dc0                	.insn	2, 0x0dc0
    41000c56:	4100                	.insn	2, 0x4100
    41000c58:	0000                	.insn	2, 0x0000
    41000c5a:	0000                	.insn	2, 0x0000
    41000c5c:	0de6                	.insn	2, 0x0de6
    41000c5e:	4100                	.insn	2, 0x4100
    41000c60:	0000                	.insn	2, 0x0000
    41000c62:	0000                	.insn	2, 0x0000
    41000c64:	0e0e                	.insn	2, 0x0e0e
    41000c66:	4100                	.insn	2, 0x4100
    41000c68:	0000                	.insn	2, 0x0000
    41000c6a:	0000                	.insn	2, 0x0000
    41000c6c:	0e38                	.insn	2, 0x0e38
    41000c6e:	4100                	.insn	2, 0x4100
    41000c70:	0000                	.insn	2, 0x0000
    41000c72:	0000                	.insn	2, 0x0000
    41000c74:	0e5f 4100 0000      	.insn	6, 0x41000e5f
    41000c7a:	0000                	.insn	2, 0x0000
    41000c7c:	0e86                	.insn	2, 0x0e86
    41000c7e:	4100                	.insn	2, 0x4100
    41000c80:	0000                	.insn	2, 0x0000
    41000c82:	0000                	.insn	2, 0x0000
    41000c84:	0ea4                	.insn	2, 0x0ea4
    41000c86:	4100                	.insn	2, 0x4100
    41000c88:	0000                	.insn	2, 0x0000
    41000c8a:	0000                	.insn	2, 0x0000
    41000c8c:	0ec6                	.insn	2, 0x0ec6
    41000c8e:	4100                	.insn	2, 0x4100
    41000c90:	0000                	.insn	2, 0x0000
    41000c92:	0000                	.insn	2, 0x0000
    41000c94:	0eec                	.insn	2, 0x0eec
    41000c96:	4100                	.insn	2, 0x4100
    41000c98:	0000                	.insn	2, 0x0000
    41000c9a:	0000                	.insn	2, 0x0000
    41000c9c:	0f0d                	.insn	2, 0x0f0d
    41000c9e:	4100                	.insn	2, 0x4100
    41000ca0:	0000                	.insn	2, 0x0000
    41000ca2:	0000                	.insn	2, 0x0000
    41000ca4:	41000f2f          	.insn	4, 0x41000f2f
    41000ca8:	0000                	.insn	2, 0x0000
    41000caa:	0000                	.insn	2, 0x0000
    41000cac:	0f54                	.insn	2, 0x0f54
    41000cae:	4100                	.insn	2, 0x4100
    41000cb0:	0000                	.insn	2, 0x0000
    41000cb2:	0000                	.insn	2, 0x0000
    41000cb4:	0f79                	.insn	2, 0x0f79
    41000cb6:	4100                	.insn	2, 0x4100
    41000cb8:	0000                	.insn	2, 0x0000
    41000cba:	0000                	.insn	2, 0x0000
    41000cbc:	0f9e                	.insn	2, 0x0f9e
    41000cbe:	4100                	.insn	2, 0x4100
    41000cc0:	0000                	.insn	2, 0x0000
    41000cc2:	0000                	.insn	2, 0x0000
    41000cc4:	0fc4                	.insn	2, 0x0fc4
    41000cc6:	4100                	.insn	2, 0x4100
    41000cc8:	0000                	.insn	2, 0x0000
    41000cca:	0000                	.insn	2, 0x0000
    41000ccc:	0fe1                	.insn	2, 0x0fe1
    41000cce:	4100                	.insn	2, 0x4100
    41000cd0:	0000                	.insn	2, 0x0000
    41000cd2:	0000                	.insn	2, 0x0000
    41000cd4:	100a                	.insn	2, 0x100a
    41000cd6:	4100                	.insn	2, 0x4100
    41000cd8:	0000                	.insn	2, 0x0000
    41000cda:	0000                	.insn	2, 0x0000
    41000cdc:	103d                	.insn	2, 0x103d
    41000cde:	4100                	.insn	2, 0x4100
    41000ce0:	0000                	.insn	2, 0x0000
    41000ce2:	0000                	.insn	2, 0x0000
    41000ce4:	1064                	.insn	2, 0x1064
    41000ce6:	4100                	.insn	2, 0x4100
    41000ce8:	0000                	.insn	2, 0x0000
    41000cea:	0000                	.insn	2, 0x0000
    41000cec:	108c                	.insn	2, 0x108c
    41000cee:	4100                	.insn	2, 0x4100
    41000cf0:	0000                	.insn	2, 0x0000
    41000cf2:	0000                	.insn	2, 0x0000
    41000cf4:	10b5                	.insn	2, 0x10b5
    41000cf6:	4100                	.insn	2, 0x4100
    41000cf8:	0000                	.insn	2, 0x0000
    41000cfa:	0000                	.insn	2, 0x0000
    41000cfc:	10dc                	.insn	2, 0x10dc
    41000cfe:	4100                	.insn	2, 0x4100
    41000d00:	0000                	.insn	2, 0x0000
    41000d02:	0000                	.insn	2, 0x0000
    41000d04:	1108                	.insn	2, 0x1108
    41000d06:	4100                	.insn	2, 0x4100
    41000d08:	0000                	.insn	2, 0x0000
    41000d0a:	0000                	.insn	2, 0x0000
    41000d0c:	1134                	.insn	2, 0x1134
    41000d0e:	4100                	.insn	2, 0x4100
    41000d10:	0000                	.insn	2, 0x0000
    41000d12:	0000                	.insn	2, 0x0000
    41000d14:	1159                	.insn	2, 0x1159
    41000d16:	4100                	.insn	2, 0x4100
    41000d18:	0000                	.insn	2, 0x0000
    41000d1a:	0000                	.insn	2, 0x0000
    41000d1c:	1189                	.insn	2, 0x1189
    41000d1e:	4100                	.insn	2, 0x4100
    41000d20:	0000                	.insn	2, 0x0000
    41000d22:	0000                	.insn	2, 0x0000
    41000d24:	11ae                	.insn	2, 0x11ae
    41000d26:	4100                	.insn	2, 0x4100
    41000d28:	0000                	.insn	2, 0x0000
    41000d2a:	0000                	.insn	2, 0x0000
    41000d2c:	11d6                	.insn	2, 0x11d6
    41000d2e:	4100                	.insn	2, 0x4100
    41000d30:	0000                	.insn	2, 0x0000
    41000d32:	0000                	.insn	2, 0x0000
    41000d34:	1206                	.insn	2, 0x1206
    41000d36:	4100                	.insn	2, 0x4100
    41000d38:	0000                	.insn	2, 0x0000
    41000d3a:	0000                	.insn	2, 0x0000
    41000d3c:	1232                	.insn	2, 0x1232
    41000d3e:	4100                	.insn	2, 0x4100
    41000d40:	0000                	.insn	2, 0x0000
	...

0000000041000d44 <dtest_name_0>:
    41000d44:	5f444953          	.insn	4, 0x5f444953
    41000d48:	4250                	.insn	2, 0x4250
    41000d4a:	4d56                	.insn	2, 0x4d56
    41000d4c:	30305f53          	.insn	4, 0x30305f53
    41000d50:	5f31                	.insn	2, 0x5f31
    41000d52:	7470                	.insn	2, 0x7470
    41000d54:	6f6e5f77          	.insn	4, 0x6f6e5f77
    41000d58:	665f 7561 746c      	.insn	6, 0x746c7561665f
    41000d5e:	6c615f73          	csrrwi	x30,0x6c6,2
    41000d62:	5f6c                	.insn	2, 0x5f6c
    41000d64:	6361                	.insn	2, 0x6361
    41000d66:	73736563          	bltu	x6,x23,41001490 <scheduler__test_cleanup_ptr+0x19c>
    41000d6a:	745f 7079 7365      	.insn	6, 0x73657079745f
	...

0000000041000d71 <dtest_name_1>:
    41000d71:	5f444953          	.insn	4, 0x5f444953
    41000d75:	4250                	.insn	2, 0x4250
    41000d77:	4d56                	.insn	2, 0x4d56
    41000d79:	30305f53          	.insn	4, 0x30305f53
    41000d7d:	74705f33          	.insn	4, 0x74705f33
    41000d81:	6c615f77          	.insn	4, 0x6c615f77
    41000d85:	5f6c                	.insn	2, 0x5f6c
    41000d87:	7270                	.insn	2, 0x7270
    41000d89:	7669                	.insn	2, 0x7669
    41000d8b:	6c69                	.insn	2, 0x6c69
    41000d8d:	6765                	.insn	2, 0x6765
    41000d8f:	5f65                	.insn	2, 0x5f65
    41000d91:	6f6d                	.insn	2, 0x6f6d
    41000d93:	6564                	.insn	2, 0x6564
    41000d95:	          	.insn	4, 0x49530073

0000000041000d97 <dtest_name_2>:
    41000d97:	5f444953          	.insn	4, 0x5f444953
    41000d9b:	4250                	.insn	2, 0x4250
    41000d9d:	4d56                	.insn	2, 0x4d56
    41000d9f:	30305f53          	.insn	4, 0x30305f53
    41000da3:	5f36                	.insn	2, 0x5f36
    41000da5:	7470                	.insn	2, 0x7470
    41000da7:	61705f77          	.insn	4, 0x61705f77
    41000dab:	625f6567          	.insn	4, 0x625f6567
    41000daf:	646e756f          	jal	x10,410e83f5 <__section__code_212+0x3f5>
    41000db3:	7261                	.insn	2, 0x7261
    41000db5:	5f79                	.insn	2, 0x5f79
    41000db7:	736f7263          	bgeu	x30,x22,410014db <scheduler__test_cleanup_ptr+0x1e7>
    41000dbb:	676e6973          	csrrsi	x18,0x676,28
	...

0000000041000dc0 <dtest_name_3>:
    41000dc0:	5f444953          	.insn	4, 0x5f444953
    41000dc4:	4250                	.insn	2, 0x4250
    41000dc6:	4d56                	.insn	2, 0x4d56
    41000dc8:	30305f53          	.insn	4, 0x30305f53
    41000dcc:	5f38                	.insn	2, 0x5f38
    41000dce:	6176                	.insn	2, 0x6176
    41000dd0:	735f 6769 5f6e      	.insn	6, 0x5f6e6769735f
    41000dd6:	7865                	.insn	2, 0x7865
    41000dd8:	6574                	.insn	2, 0x6574
    41000dda:	736e                	.insn	2, 0x736e
    41000ddc:	6f69                	.insn	2, 0x6f69
    41000dde:	5f6e                	.insn	2, 0x5f6e
    41000de0:	6166                	.insn	2, 0x6166
    41000de2:	6c75                	.insn	2, 0x6c75
    41000de4:	0074                	.insn	2, 0x0074

0000000041000de6 <dtest_name_4>:
    41000de6:	5f444953          	.insn	4, 0x5f444953
    41000dea:	4250                	.insn	2, 0x4250
    41000dec:	4d56                	.insn	2, 0x4d56
    41000dee:	30305f53          	.insn	4, 0x30305f53
    41000df2:	5f39                	.insn	2, 0x5f39
    41000df4:	65707573          	csrrci	x10,hviprio2h,0
    41000df8:	7072                	.insn	2, 0x7072
    41000dfa:	6761                	.insn	2, 0x6761
    41000dfc:	5f65                	.insn	2, 0x5f65
    41000dfe:	6c61                	.insn	2, 0x6c61
    41000e00:	6769                	.insn	2, 0x6769
    41000e02:	6d6e                	.insn	2, 0x6d6e
    41000e04:	6e65                	.insn	2, 0x6e65
    41000e06:	5f74                	.insn	2, 0x5f74
    41000e08:	6166                	.insn	2, 0x6166
    41000e0a:	6c75                	.insn	2, 0x6c75
    41000e0c:	0074                	.insn	2, 0x0074

0000000041000e0e <dtest_name_5>:
    41000e0e:	5f444953          	.insn	4, 0x5f444953
    41000e12:	4250                	.insn	2, 0x4250
    41000e14:	4d56                	.insn	2, 0x4d56
    41000e16:	31305f53          	.insn	4, 0x31305f53
    41000e1a:	5f31                	.insn	2, 0x5f31
    41000e1c:	7470                	.insn	2, 0x7470
    41000e1e:	61665f77          	.insn	4, 0x61665f77
    41000e22:	6c75                	.insn	2, 0x6c75
    41000e24:	5f74                	.insn	2, 0x5f74
    41000e26:	6f62                	.insn	2, 0x6f62
    41000e28:	6e75                	.insn	2, 0x6e75
    41000e2a:	6164                	.insn	2, 0x6164
    41000e2c:	7972                	.insn	2, 0x7972
    41000e2e:	635f 6f72 7373      	.insn	6, 0x73736f72635f
    41000e34:	6e69                	.insn	2, 0x6e69
    41000e36:	          	jr	1173(x6)

0000000041000e38 <dtest_name_6>:
    41000e38:	5f444953          	.insn	4, 0x5f444953
    41000e3c:	4250                	.insn	2, 0x4250
    41000e3e:	4d56                	.insn	2, 0x4d56
    41000e40:	31305f53          	.insn	4, 0x31305f53
    41000e44:	5f32                	.insn	2, 0x5f32
    41000e46:	7470                	.insn	2, 0x7470
    41000e48:	61665f77          	.insn	4, 0x61665f77
    41000e4c:	6c75                	.insn	2, 0x6c75
    41000e4e:	5f74                	.insn	2, 0x5f74
    41000e50:	7270                	.insn	2, 0x7270
    41000e52:	6f69                	.insn	2, 0x6f69
    41000e54:	6972                	.insn	2, 0x6972
    41000e56:	6974                	.insn	2, 0x6974
    41000e58:	617a                	.insn	2, 0x617a
    41000e5a:	6974                	.insn	2, 0x6974
    41000e5c:	          	jal	x28,4100738c <__section__runtime_7+0x38c>

0000000041000e5f <dtest_name_7>:
    41000e5f:	5f444953          	.insn	4, 0x5f444953
    41000e63:	4250                	.insn	2, 0x4250
    41000e65:	4d56                	.insn	2, 0x4d56
    41000e67:	31305f53          	.insn	4, 0x31305f53
    41000e6b:	74705f33          	.insn	4, 0x74705f33
    41000e6f:	65705f77          	.insn	4, 0x65705f77
    41000e73:	6d72                	.insn	2, 0x6d72
    41000e75:	7369                	.insn	2, 0x7369
    41000e77:	6e6f6973          	csrrsi	x18,0x6e6,30
    41000e7b:	655f 636e 646f      	.insn	6, 0x646f636e655f
    41000e81:	6e69                	.insn	2, 0x6e69
    41000e83:	          	.insn	4, 0x53007367

0000000041000e86 <dtest_name_8>:
    41000e86:	5f444953          	.insn	4, 0x5f444953
    41000e8a:	4250                	.insn	2, 0x4250
    41000e8c:	4d56                	.insn	2, 0x4d56
    41000e8e:	31305f53          	.insn	4, 0x31305f53
    41000e92:	5f34                	.insn	2, 0x5f34
    41000e94:	736d                	.insn	2, 0x736d
    41000e96:	6174                	.insn	2, 0x6174
    41000e98:	7574                	.insn	2, 0x7574
    41000e9a:	75735f73          	csrrwi	x30,0x757,6
    41000e9e:	5f6d                	.insn	2, 0x5f6d
    41000ea0:	786d                	.insn	2, 0x786d
    41000ea2:	0072                	.insn	2, 0x0072

0000000041000ea4 <dtest_name_9>:
    41000ea4:	5f444953          	.insn	4, 0x5f444953
    41000ea8:	4250                	.insn	2, 0x4250
    41000eaa:	4d56                	.insn	2, 0x4d56
    41000eac:	31305f53          	.insn	4, 0x31305f53
    41000eb0:	5f35                	.insn	2, 0x5f35
    41000eb2:	626f6c67          	.insn	4, 0x626f6c67
    41000eb6:	6c61                	.insn	2, 0x6c61
    41000eb8:	625f 7469 685f      	.insn	6, 0x685f7469625f
    41000ebe:	756f6e6f          	jal	x28,410f7614 <__section__code_227+0x614>
    41000ec2:	6572                	.insn	2, 0x6572
    41000ec4:	0064                	.insn	2, 0x0064

0000000041000ec6 <dtest_name_10>:
    41000ec6:	5f444953          	.insn	4, 0x5f444953
    41000eca:	4250                	.insn	2, 0x4250
    41000ecc:	4d56                	.insn	2, 0x4d56
    41000ece:	31305f53          	.insn	4, 0x31305f53
    41000ed2:	5f36                	.insn	2, 0x5f36
    41000ed4:	6f6e                	.insn	2, 0x6f6e
    41000ed6:	5f6e                	.insn	2, 0x5f6e
    41000ed8:	626f6c67          	.insn	4, 0x626f6c67
    41000edc:	6c61                	.insn	2, 0x6c61
    41000ede:	625f 7469 685f      	.insn	6, 0x685f7469625f
    41000ee4:	756f6e6f          	jal	x28,410f763a <__section__code_227+0x63a>
    41000ee8:	6572                	.insn	2, 0x6572
    41000eea:	0064                	.insn	2, 0x0064

0000000041000eec <dtest_name_11>:
    41000eec:	5f444953          	.insn	4, 0x5f444953
    41000ef0:	4250                	.insn	2, 0x4250
    41000ef2:	4d56                	.insn	2, 0x4d56
    41000ef4:	31305f53          	.insn	4, 0x31305f53
    41000ef8:	6c675f37          	lui	x30,0x6c675
    41000efc:	6c61626f          	jal	x4,410175c2 <local_test_failed+0x59e>
    41000f00:	615f 5f74 6f6e      	.insn	6, 0x6f6e5f74615f
    41000f06:	5f6e                	.insn	2, 0x5f6e
    41000f08:	656c                	.insn	2, 0x656c
    41000f0a:	6661                	.insn	2, 0x6661
	...

0000000041000f0d <dtest_name_12>:
    41000f0d:	5f444953          	.insn	4, 0x5f444953
    41000f11:	4250                	.insn	2, 0x4250
    41000f13:	4d56                	.insn	2, 0x4d56
    41000f15:	31305f53          	.insn	4, 0x31305f53
    41000f19:	5f38                	.insn	2, 0x5f38
    41000f1b:	7372                	.insn	2, 0x7372
    41000f1d:	69665f77          	.insn	4, 0x69665f77
    41000f21:	6c65                	.insn	2, 0x6c65
    41000f23:	7364                	.insn	2, 0x7364
    41000f25:	775f 6972 6174      	.insn	6, 0x61746972775f
    41000f2b:	6c62                	.insn	2, 0x6c62
    41000f2d:	0065                	.insn	2, 0x0065

0000000041000f2f <dtest_name_13>:
    41000f2f:	5f444953          	.insn	4, 0x5f444953
    41000f33:	4250                	.insn	2, 0x4250
    41000f35:	4d56                	.insn	2, 0x4d56
    41000f37:	32305f53          	.insn	4, 0x32305f53
    41000f3b:	5f31                	.insn	2, 0x5f31
    41000f3d:	70746173          	csrrsi	x2,0x707,8
    41000f41:	765f 6c61 6469      	.insn	6, 0x64696c61765f
    41000f47:	745f 5f6f 6572      	.insn	6, 0x65725f6f745f
    41000f4d:	76726573          	csrrsi	x10,0x767,4
    41000f51:	6465                	.insn	2, 0x6465
	...

0000000041000f54 <dtest_name_14>:
    41000f54:	5f444953          	.insn	4, 0x5f444953
    41000f58:	4250                	.insn	2, 0x4250
    41000f5a:	4d56                	.insn	2, 0x4d56
    41000f5c:	32305f53          	.insn	4, 0x32305f53
    41000f60:	5f32                	.insn	2, 0x5f32
    41000f62:	70746173          	csrrsi	x2,0x707,8
    41000f66:	635f 7273 615f      	.insn	6, 0x615f7273635f
    41000f6c:	73656363          	bltu	x10,x22,41001692 <scheduler__test_cleanup_ptr+0x39e>
    41000f70:	69626973          	csrrsi	x18,0x696,4
    41000f74:	696c                	.insn	2, 0x696c
    41000f76:	7974                	.insn	2, 0x7974
	...

0000000041000f79 <dtest_name_15>:
    41000f79:	5f444953          	.insn	4, 0x5f444953
    41000f7d:	4250                	.insn	2, 0x4250
    41000f7f:	4d56                	.insn	2, 0x4d56
    41000f81:	32305f53          	.insn	4, 0x32305f53
    41000f85:	61735f33          	ror	x30,x6,x23
    41000f89:	7074                	.insn	2, 0x7074
    41000f8b:	615f 6973 6c64      	.insn	6, 0x6c646973615f
    41000f91:	6e65                	.insn	2, 0x6e65
    41000f93:	645f 7369 6f63      	.insn	6, 0x6f637369645f
    41000f99:	6576                	.insn	2, 0x6576
    41000f9b:	7972                	.insn	2, 0x7972
	...

0000000041000f9e <dtest_name_16>:
    41000f9e:	5f444953          	.insn	4, 0x5f444953
    41000fa2:	4250                	.insn	2, 0x4250
    41000fa4:	4d56                	.insn	2, 0x4d56
    41000fa6:	32305f53          	.insn	4, 0x32305f53
    41000faa:	5f35                	.insn	2, 0x5f35
    41000fac:	736d                	.insn	2, 0x736d
    41000fae:	6174                	.insn	2, 0x6174
    41000fb0:	7574                	.insn	2, 0x7574
    41000fb2:	76745f73          	csrrwi	x30,0x767,8
    41000fb6:	5f6d                	.insn	2, 0x5f6d
    41000fb8:	70746173          	csrrsi	x2,0x707,8
    41000fbc:	615f 6363 7365      	.insn	6, 0x73656363615f
    41000fc2:	          	.insn	4, 0x49530073

0000000041000fc4 <dtest_name_17>:
    41000fc4:	5f444953          	.insn	4, 0x5f444953
    41000fc8:	4250                	.insn	2, 0x4250
    41000fca:	4d56                	.insn	2, 0x4d56
    41000fcc:	32305f53          	.insn	4, 0x32305f53
    41000fd0:	5f36                	.insn	2, 0x5f36
    41000fd2:	6c74                	.insn	2, 0x6c74
    41000fd4:	5f62                	.insn	2, 0x5f62
    41000fd6:	7361                	.insn	2, 0x7361
    41000fd8:	6469                	.insn	2, 0x6469
    41000fda:	6d5f 7461 6863      	.insn	6, 0x686374616d5f
	...

0000000041000fe1 <dtest_name_18>:
    41000fe1:	5f444953          	.insn	4, 0x5f444953
    41000fe5:	4250                	.insn	2, 0x4250
    41000fe7:	4d56                	.insn	2, 0x4d56
    41000fe9:	32305f53          	.insn	4, 0x32305f53
    41000fed:	5f38                	.insn	2, 0x5f38
    41000fef:	6e656673          	csrrsi	x12,0x6e6,10
    41000ff3:	765f6563          	bltu	x30,x5,4100175d <scheduler__test_cleanup_ptr+0x469>
    41000ff7:	616d                	.insn	2, 0x616d
    41000ff9:	6f5f 6370 646f      	.insn	6, 0x646f63706f5f
    41000fff:	5f65                	.insn	2, 0x5f65
    41001001:	65766f63          	bltu	x12,x23,4100165f <scheduler__test_cleanup_ptr+0x36b>
    41001005:	6172                	.insn	2, 0x6172
    41001007:	          	.insn	4, 0x53006567

000000004100100a <dtest_name_19>:
    4100100a:	5f444953          	.insn	4, 0x5f444953
    4100100e:	4250                	.insn	2, 0x4250
    41001010:	4d56                	.insn	2, 0x4d56
    41001012:	32305f53          	.insn	4, 0x32305f53
    41001016:	5f39                	.insn	2, 0x5f39
    41001018:	6564726f          	jal	x4,4104866e <__section__code_52+0x66e>
    4100101c:	6972                	.insn	2, 0x6972
    4100101e:	676e                	.insn	2, 0x676e
    41001020:	735f 7461 5f70      	.insn	6, 0x5f707461735f
    41001026:	736d                	.insn	2, 0x736d
    41001028:	6174                	.insn	2, 0x6174
    4100102a:	7574                	.insn	2, 0x7574
    4100102c:	69775f73          	csrrwi	x30,0x697,14
    41001030:	6874                	.insn	2, 0x6874
    41001032:	5f74756f          	jal	x10,41048e28 <__section__code_52+0xe28>
    41001036:	6e656673          	csrrsi	x12,0x6e6,10
    4100103a:	          	bltu	x0,x16,41001564 <scheduler__test_cleanup_ptr+0x270>

000000004100103d <dtest_name_20>:
    4100103d:	5f444953          	.insn	4, 0x5f444953
    41001041:	4250                	.insn	2, 0x4250
    41001043:	4d56                	.insn	2, 0x4d56
    41001045:	33305f53          	.insn	4, 0x33305f53
    41001049:	5f30                	.insn	2, 0x5f30
    4100104b:	6e656673          	csrrsi	x12,0x6e6,10
    4100104f:	765f6563          	bltu	x30,x5,410017b9 <scheduler__test_cleanup_ptr+0x4c5>
    41001053:	616d                	.insn	2, 0x616d
    41001055:	6f5f 6472 7265      	.insn	6, 0x726564726f5f
    4100105b:	6e69                	.insn	2, 0x6e69
    4100105d:	79735f67          	.insn	4, 0x79735f67
    41001061:	636e                	.insn	2, 0x636e
	...

0000000041001064 <dtest_name_21>:
    41001064:	5f444953          	.insn	4, 0x5f444953
    41001068:	4250                	.insn	2, 0x4250
    4100106a:	4d56                	.insn	2, 0x4d56
    4100106c:	33305f53          	.insn	4, 0x33305f53
    41001070:	5f31                	.insn	2, 0x5f31
    41001072:	6e656673          	csrrsi	x12,0x6e6,10
    41001076:	765f6563          	bltu	x30,x5,410017e0 <scheduler__test_cleanup_ptr+0x4ec>
    4100107a:	616d                	.insn	2, 0x616d
    4100107c:	695f 766e 6c61      	.insn	6, 0x6c61766e695f
    41001082:	6469                	.insn	2, 0x6469
    41001084:	7461                	.insn	2, 0x7461
    41001086:	5f65                	.insn	2, 0x5f65
    41001088:	6c61                	.insn	2, 0x6c61
    4100108a:	006c                	.insn	2, 0x006c

000000004100108c <dtest_name_22>:
    4100108c:	5f444953          	.insn	4, 0x5f444953
    41001090:	4250                	.insn	2, 0x4250
    41001092:	4d56                	.insn	2, 0x4d56
    41001094:	33305f53          	.insn	4, 0x33305f53
    41001098:	5f32                	.insn	2, 0x5f32
    4100109a:	6e656673          	csrrsi	x12,0x6e6,10
    4100109e:	765f6563          	bltu	x30,x5,41001808 <scheduler__test_cleanup_ptr+0x514>
    410010a2:	616d                	.insn	2, 0x616d
    410010a4:	695f 766e 6c61      	.insn	6, 0x6c61766e695f
    410010aa:	6469                	.insn	2, 0x6469
    410010ac:	7461                	.insn	2, 0x7461
    410010ae:	5f65                	.insn	2, 0x5f65
    410010b0:	7361                	.insn	2, 0x7361
    410010b2:	6469                	.insn	2, 0x6469
	...

00000000410010b5 <dtest_name_23>:
    410010b5:	5f444953          	.insn	4, 0x5f444953
    410010b9:	4250                	.insn	2, 0x4250
    410010bb:	4d56                	.insn	2, 0x4d56
    410010bd:	33305f53          	.insn	4, 0x33305f53
    410010c1:	66735f33          	.insn	4, 0x66735f33
    410010c5:	6e65                	.insn	2, 0x6e65
    410010c7:	765f6563          	bltu	x30,x5,41001831 <scheduler__test_cleanup_ptr+0x53d>
    410010cb:	616d                	.insn	2, 0x616d
    410010cd:	695f 766e 6c61      	.insn	6, 0x6c61766e695f
    410010d3:	6469                	.insn	2, 0x6469
    410010d5:	7461                	.insn	2, 0x7461
    410010d7:	5f65                	.insn	2, 0x5f65
    410010d9:	6176                	.insn	2, 0x6176
	...

00000000410010dc <dtest_name_24>:
    410010dc:	5f444953          	.insn	4, 0x5f444953
    410010e0:	4250                	.insn	2, 0x4250
    410010e2:	4d56                	.insn	2, 0x4d56
    410010e4:	33305f53          	.insn	4, 0x33305f53
    410010e8:	5f34                	.insn	2, 0x5f34
    410010ea:	6e656673          	csrrsi	x12,0x6e6,10
    410010ee:	765f6563          	bltu	x30,x5,41001858 <scheduler__test_cleanup_ptr+0x564>
    410010f2:	616d                	.insn	2, 0x616d
    410010f4:	695f 766e 6c61      	.insn	6, 0x6c61766e695f
    410010fa:	6469                	.insn	2, 0x6469
    410010fc:	7461                	.insn	2, 0x7461
    410010fe:	5f65                	.insn	2, 0x5f65
    41001100:	6176                	.insn	2, 0x6176
    41001102:	615f 6973 0064      	.insn	6, 0x00646973615f

0000000041001108 <dtest_name_25>:
    41001108:	5f444953          	.insn	4, 0x5f444953
    4100110c:	4250                	.insn	2, 0x4250
    4100110e:	4d56                	.insn	2, 0x4d56
    41001110:	33305f53          	.insn	4, 0x33305f53
    41001114:	5f35                	.insn	2, 0x5f35
    41001116:	6e656673          	csrrsi	x12,0x6e6,10
    4100111a:	765f6563          	bltu	x30,x5,41001884 <scheduler__test_cleanup_ptr+0x590>
    4100111e:	616d                	.insn	2, 0x616d
    41001120:	765f 7261 6f69      	.insn	6, 0x6f697261765f
    41001126:	7375                	.insn	2, 0x7375
    41001128:	705f 6761 5f65      	.insn	6, 0x5f656761705f
    4100112e:	657a6973          	csrrsi	x18,hviprio2h,20
    41001132:	          	.insn	4, 0x49530073

0000000041001134 <dtest_name_26>:
    41001134:	5f444953          	.insn	4, 0x5f444953
    41001138:	4250                	.insn	2, 0x4250
    4100113a:	4d56                	.insn	2, 0x4d56
    4100113c:	33305f53          	.insn	4, 0x33305f53
    41001140:	66735f37          	lui	x30,0x66735
    41001144:	6e65                	.insn	2, 0x6e65
    41001146:	765f6563          	bltu	x30,x5,410018b0 <scheduler__test_cleanup_ptr+0x5bc>
    4100114a:	616d                	.insn	2, 0x616d
    4100114c:	745f 6d76 695f      	.insn	6, 0x695f6d76745f
    41001152:	6c6c                	.insn	2, 0x6c6c
    41001154:	6765                	.insn	2, 0x6765
    41001156:	6c61                	.insn	2, 0x6c61
	...

0000000041001159 <dtest_name_27>:
    41001159:	5f444953          	.insn	4, 0x5f444953
    4100115d:	4250                	.insn	2, 0x4250
    4100115f:	4d56                	.insn	2, 0x4d56
    41001161:	33305f53          	.insn	4, 0x33305f53
    41001165:	5f39                	.insn	2, 0x5f39
    41001167:	6f6e                	.insn	2, 0x6f6e
    41001169:	5f6e                	.insn	2, 0x5f6e
    4100116b:	656c                	.insn	2, 0x656c
    4100116d:	6661                	.insn	2, 0x6661
    4100116f:	6e5f 746f 695f      	.insn	6, 0x695f746f6e5f
    41001175:	766e                	.insn	2, 0x766e
    41001177:	6c61                	.insn	2, 0x6c61
    41001179:	6469                	.insn	2, 0x6469
    4100117b:	7461                	.insn	2, 0x7461
    4100117d:	6465                	.insn	2, 0x6465
    4100117f:	765f 5f61 6162      	.insn	6, 0x61625f61765f
    41001185:	00646573          	csrrsi	x10,0x6,8

0000000041001189 <dtest_name_28>:
    41001189:	5f444953          	.insn	4, 0x5f444953
    4100118d:	4250                	.insn	2, 0x4250
    4100118f:	4d56                	.insn	2, 0x4d56
    41001191:	34305f53          	.insn	4, 0x34305f53
    41001195:	5f30                	.insn	2, 0x5f30
    41001197:	746e6f63          	bltu	x28,x6,410018f5 <scheduler__test_cleanup_ptr+0x601>
    4100119b:	7865                	.insn	2, 0x7865
    4100119d:	5f74                	.insn	2, 0x5f74
    4100119f:	6174                	.insn	2, 0x6174
    410011a1:	6c62                	.insn	2, 0x6c62
    410011a3:	5f65                	.insn	2, 0x5f65
    410011a5:	7265766f          	jal	x12,410588cb <__section__code_68+0x8cb>
    410011a9:	6c66                	.insn	2, 0x6c66
    410011ab:	          	jal	x14,410086db <__section__runtime_8+0x6db>

00000000410011ae <dtest_name_29>:
    410011ae:	5f444953          	.insn	4, 0x5f444953
    410011b2:	4250                	.insn	2, 0x4250
    410011b4:	4d56                	.insn	2, 0x4d56
    410011b6:	34305f53          	.insn	4, 0x34305f53
    410011ba:	5f31                	.insn	2, 0x5f31
    410011bc:	6170                	.insn	2, 0x6170
    410011be:	7472                	.insn	2, 0x7472
    410011c0:	6169                	.insn	2, 0x6169
    410011c2:	5f6c                	.insn	2, 0x5f6c
    410011c4:	6170                	.insn	2, 0x6170
    410011c6:	695f6567          	.insn	4, 0x695f6567
    410011ca:	766e                	.insn	2, 0x766e
    410011cc:	6c61                	.insn	2, 0x6c61
    410011ce:	6469                	.insn	2, 0x6469
    410011d0:	7461                	.insn	2, 0x7461
    410011d2:	6f69                	.insn	2, 0x6f69
    410011d4:	006e                	.insn	2, 0x006e

00000000410011d6 <dtest_name_30>:
    410011d6:	5f444953          	.insn	4, 0x5f444953
    410011da:	4250                	.insn	2, 0x4250
    410011dc:	4d56                	.insn	2, 0x4d56
    410011de:	34305f53          	.insn	4, 0x34305f53
    410011e2:	5f32                	.insn	2, 0x5f32
    410011e4:	6f6e6163          	bltu	x28,x22,410018c6 <scheduler__test_cleanup_ptr+0x5d2>
    410011e8:	696e                	.insn	2, 0x696e
    410011ea:	5f6c6163          	bltu	x24,x22,410017cc <scheduler__test_cleanup_ptr+0x4d8>
    410011ee:	6f62                	.insn	2, 0x6f62
    410011f0:	6e75                	.insn	2, 0x6e75
    410011f2:	6164                	.insn	2, 0x6164
    410011f4:	7972                	.insn	2, 0x7972
    410011f6:	635f 6f72 7373      	.insn	6, 0x73736f72635f
    410011fc:	6e69                	.insn	2, 0x6e69
    410011fe:	61665f67          	.insn	4, 0x61665f67
    41001202:	6c75                	.insn	2, 0x6c75
    41001204:	0074                	.insn	2, 0x0074

0000000041001206 <dtest_name_31>:
    41001206:	5f444953          	.insn	4, 0x5f444953
    4100120a:	4250                	.insn	2, 0x4250
    4100120c:	4d56                	.insn	2, 0x4d56
    4100120e:	34305f53          	.insn	4, 0x34305f53
    41001212:	65665f33          	.insn	4, 0x65665f33
    41001216:	6374                	.insn	2, 0x6374
    41001218:	5f68                	.insn	2, 0x5f68
    4100121a:	646e6977          	.insn	4, 0x646e6977
    4100121e:	735f776f          	jal	x14,410f9152 <__section__code_229+0x152>
    41001222:	6970                	.insn	2, 0x6970
    41001224:	6c6c                	.insn	2, 0x6c6c
    41001226:	705f 6761 5f65      	.insn	6, 0x5f656761705f
    4100122c:	736f7263          	bgeu	x30,x22,41001950 <scheduler__test_cleanup_ptr+0x65c>
    41001230:	          	.insn	4, 0x49530073

0000000041001232 <dtest_name_32>:
    41001232:	5f444953          	.insn	4, 0x5f444953
    41001236:	4250                	.insn	2, 0x4250
    41001238:	4d56                	.insn	2, 0x4d56
    4100123a:	34305f53          	.insn	4, 0x34305f53
    4100123e:	5f34                	.insn	2, 0x5f34
    41001240:	6566                	.insn	2, 0x6566
    41001242:	695f 6c64 5f65      	.insn	6, 0x5f656c64695f
    41001248:	69726573          	csrrsi	x10,0x697,4
    4100124c:	6c61                	.insn	2, 0x6c61
    4100124e:	7a69                	.insn	2, 0x7a69
    41001250:	7461                	.insn	2, 0x7461
    41001252:	6f69                	.insn	2, 0x6f69
    41001254:	5f6e                	.insn	2, 0x5f6e
    41001256:	6170                	.insn	2, 0x6170
    41001258:	635f6567          	.insn	4, 0x635f6567
    4100125c:	6f72                	.insn	2, 0x6f72
    4100125e:	00007373          	csrrci	x6,ustatus,0
	...

0000000041001264 <dtest_index_map>:
    41001264:	ffff                	.insn	2, 0xffff
    41001266:	ffff                	.insn	2, 0xffff
    41001268:	0002                	.insn	2, 0x0002
    4100126a:	0000                	.insn	2, 0x0000
    4100126c:	0011                	.insn	2, 0x0011
    4100126e:	0000                	.insn	2, 0x0000
    41001270:	000a                	.insn	2, 0x000a
    41001272:	0000                	.insn	2, 0x0000
    41001274:	001e                	.insn	2, 0x001e
    41001276:	0000                	.insn	2, 0x0000
    41001278:	0000001b          	sext.w	x0,x0
    4100127c:	0016                	.insn	2, 0x0016
    4100127e:	0000                	.insn	2, 0x0000
    41001280:	00000007          	vle8.v	v0,(x0),v0.t
    41001284:	0010                	.insn	2, 0x0010
    41001286:	0000                	.insn	2, 0x0000
    41001288:	0005                	.insn	2, 0x0005
    4100128a:	0000                	.insn	2, 0x0000
    4100128c:	0001                	.insn	2, 0x0001
    4100128e:	0000                	.insn	2, 0x0000
    41001290:	0009                	.insn	2, 0x0009
    41001292:	0000                	.insn	2, 0x0000
    41001294:	0015                	.insn	2, 0x0015
    41001296:	0000                	.insn	2, 0x0000
    41001298:	0012                	.insn	2, 0x0012
    4100129a:	0000                	.insn	2, 0x0000
    4100129c:	0000000b          	.insn	4, 0x000b
    410012a0:	001f 0000 001a      	.insn	6, 0x001a0000001f
    410012a6:	0000                	.insn	2, 0x0000
    410012a8:	00000013          	nop
    410012ac:	000d                	.insn	2, 0x000d
    410012ae:	0000                	.insn	2, 0x0000
    410012b0:	00000017          	auipc	x0,0x0
    410012b4:	0000                	.insn	2, 0x0000
    410012b6:	0000                	.insn	2, 0x0000
    410012b8:	0019                	.insn	2, 0x0019
    410012ba:	0000                	.insn	2, 0x0000
    410012bc:	001d                	.insn	2, 0x001d
    410012be:	0000                	.insn	2, 0x0000
    410012c0:	0006                	.insn	2, 0x0006
    410012c2:	0000                	.insn	2, 0x0000
    410012c4:	000c                	.insn	2, 0x000c
    410012c6:	0000                	.insn	2, 0x0000
    410012c8:	0014                	.insn	2, 0x0014
    410012ca:	0000                	.insn	2, 0x0000
    410012cc:	001c                	.insn	2, 0x001c
    410012ce:	0000                	.insn	2, 0x0000
    410012d0:	000e                	.insn	2, 0x000e
    410012d2:	0000                	.insn	2, 0x0000
    410012d4:	0018                	.insn	2, 0x0018
    410012d6:	0000                	.insn	2, 0x0000
    410012d8:	0000000f          	fence	unknown,unknown
    410012dc:	00000003          	lb	x0,0(x0) # 0 <ALL_4KB_PAGES>
    410012e0:	0020                	.insn	2, 0x0020
    410012e2:	0000                	.insn	2, 0x0000
    410012e4:	0004                	.insn	2, 0x0004
    410012e6:	0000                	.insn	2, 0x0000
    410012e8:	0008                	.insn	2, 0x0008
	...

00000000410012ec <scheduler__test_setup_ptr>:
    410012ec:	4160                	.insn	2, 0x4160
    410012ee:	4101                	.insn	2, 0x4101
    410012f0:	0000                	.insn	2, 0x0000
	...

00000000410012f4 <scheduler__test_cleanup_ptr>:
    410012f4:	7014                	.insn	2, 0x7014
    410012f6:	4101                	.insn	2, 0x4101
    410012f8:	0000                	.insn	2, 0x0000
	...

Disassembly of section .runtime_s:

0000000041010000 <trap_handler_s__invalid_interrupt>:
    41010000:	1740006f          	j	41010174 <trap_handler_s__test_failed>

0000000041010004 <trap_handler_s__clear_all_interrupts>:
    41010004:	14401073          	csrw	sip,x0
    41010008:	10200073          	sret

000000004101000c <trap_handler_s___CLEAR_SSI>:
    4101000c:	00200293          	li	x5,2
    41010010:	1442b073          	csrc	sip,x5
    41010014:	10200073          	sret

0000000041010018 <trap_handler_s___CLEAR_MSI>:
    41010018:	00800293          	li	x5,8
    4101001c:	1442b073          	csrc	sip,x5
    41010020:	10200073          	sret

0000000041010024 <trap_handler_s___CLEAR_STI>:
    41010024:	02000293          	li	x5,32
    41010028:	1442b073          	csrc	sip,x5
    4101002c:	10200073          	sret

0000000041010030 <trap_handler_s___CLEAR_MTI>:
    41010030:	08000293          	li	x5,128
    41010034:	1442b073          	csrc	sip,x5
    41010038:	10200073          	sret

000000004101003c <trap_handler_s___CLEAR_SEI>:
    4101003c:	20000293          	li	x5,512
    41010040:	1442b073          	csrc	sip,x5
    41010044:	10200073          	sret

0000000041010048 <trap_handler_s___CLEAR_MEI>:
    41010048:	000012b7          	lui	x5,0x1
    4101004c:	8002829b          	addiw	x5,x5,-2048 # 800 <XLEN+0x7c0>
    41010050:	1442b073          	csrc	sip,x5
    41010054:	10200073          	sret

0000000041010058 <trap_handler_s___CLEAR_COI>:
    41010058:	000022b7          	lui	x5,0x2
    4101005c:	1442b073          	csrc	sip,x5
    41010060:	10200073          	sret

0000000041010064 <trap_handler_s__clear_highest_priority_interrupt>:
    41010064:	144022f3          	csrr	x5,sip
    41010068:	40500333          	neg	x6,x5
    4101006c:	0062f2b3          	and	x5,x5,x6
    41010070:	1442b073          	csrc	sip,x5
    41010074:	10200073          	sret

0000000041010078 <trap_handler_s__trap_entry>:
    41010078:	10c0006f          	j	41010184 <trap_handler_s__trap_handler>

000000004101007c <trap_handler_s__interrupt_vector_table>:
    4101007c:	f91ff06f          	j	4101000c <trap_handler_s___CLEAR_SSI>
    41010080:	f81ff06f          	j	41010000 <trap_handler_s__invalid_interrupt>
    41010084:	f95ff06f          	j	41010018 <trap_handler_s___CLEAR_MSI>
    41010088:	f79ff06f          	j	41010000 <trap_handler_s__invalid_interrupt>
    4101008c:	f99ff06f          	j	41010024 <trap_handler_s___CLEAR_STI>
    41010090:	f71ff06f          	j	41010000 <trap_handler_s__invalid_interrupt>
    41010094:	f9dff06f          	j	41010030 <trap_handler_s___CLEAR_MTI>
    41010098:	f69ff06f          	j	41010000 <trap_handler_s__invalid_interrupt>
    4101009c:	fa1ff06f          	j	4101003c <trap_handler_s___CLEAR_SEI>
    410100a0:	f61ff06f          	j	41010000 <trap_handler_s__invalid_interrupt>
    410100a4:	fa5ff06f          	j	41010048 <trap_handler_s___CLEAR_MEI>
    410100a8:	f59ff06f          	j	41010000 <trap_handler_s__invalid_interrupt>
    410100ac:	fadff06f          	j	41010058 <trap_handler_s___CLEAR_COI>
    410100b0:	f51ff06f          	j	41010000 <trap_handler_s__invalid_interrupt>
    410100b4:	f4dff06f          	j	41010000 <trap_handler_s__invalid_interrupt>
    410100b8:	fadff06f          	j	41010064 <trap_handler_s__clear_highest_priority_interrupt>
    410100bc:	fa9ff06f          	j	41010064 <trap_handler_s__clear_highest_priority_interrupt>
    410100c0:	fa5ff06f          	j	41010064 <trap_handler_s__clear_highest_priority_interrupt>
    410100c4:	fa1ff06f          	j	41010064 <trap_handler_s__clear_highest_priority_interrupt>
    410100c8:	f9dff06f          	j	41010064 <trap_handler_s__clear_highest_priority_interrupt>
    410100cc:	f99ff06f          	j	41010064 <trap_handler_s__clear_highest_priority_interrupt>
    410100d0:	f95ff06f          	j	41010064 <trap_handler_s__clear_highest_priority_interrupt>
    410100d4:	f91ff06f          	j	41010064 <trap_handler_s__clear_highest_priority_interrupt>
    410100d8:	f8dff06f          	j	41010064 <trap_handler_s__clear_highest_priority_interrupt>
    410100dc:	f89ff06f          	j	41010064 <trap_handler_s__clear_highest_priority_interrupt>
    410100e0:	f85ff06f          	j	41010064 <trap_handler_s__clear_highest_priority_interrupt>
    410100e4:	f81ff06f          	j	41010064 <trap_handler_s__clear_highest_priority_interrupt>
    410100e8:	f7dff06f          	j	41010064 <trap_handler_s__clear_highest_priority_interrupt>
    410100ec:	f79ff06f          	j	41010064 <trap_handler_s__clear_highest_priority_interrupt>
    410100f0:	f75ff06f          	j	41010064 <trap_handler_s__clear_highest_priority_interrupt>
    410100f4:	f71ff06f          	j	41010064 <trap_handler_s__clear_highest_priority_interrupt>
    410100f8:	f6dff06f          	j	41010064 <trap_handler_s__clear_highest_priority_interrupt>
    410100fc:	f69ff06f          	j	41010064 <trap_handler_s__clear_highest_priority_interrupt>
    41010100:	f65ff06f          	j	41010064 <trap_handler_s__clear_highest_priority_interrupt>
    41010104:	f61ff06f          	j	41010064 <trap_handler_s__clear_highest_priority_interrupt>
    41010108:	f5dff06f          	j	41010064 <trap_handler_s__clear_highest_priority_interrupt>
    4101010c:	f59ff06f          	j	41010064 <trap_handler_s__clear_highest_priority_interrupt>
    41010110:	f55ff06f          	j	41010064 <trap_handler_s__clear_highest_priority_interrupt>
    41010114:	f51ff06f          	j	41010064 <trap_handler_s__clear_highest_priority_interrupt>
    41010118:	f4dff06f          	j	41010064 <trap_handler_s__clear_highest_priority_interrupt>
    4101011c:	f49ff06f          	j	41010064 <trap_handler_s__clear_highest_priority_interrupt>
    41010120:	f45ff06f          	j	41010064 <trap_handler_s__clear_highest_priority_interrupt>
    41010124:	f41ff06f          	j	41010064 <trap_handler_s__clear_highest_priority_interrupt>
    41010128:	f3dff06f          	j	41010064 <trap_handler_s__clear_highest_priority_interrupt>
    4101012c:	f39ff06f          	j	41010064 <trap_handler_s__clear_highest_priority_interrupt>
    41010130:	f35ff06f          	j	41010064 <trap_handler_s__clear_highest_priority_interrupt>
    41010134:	f31ff06f          	j	41010064 <trap_handler_s__clear_highest_priority_interrupt>
    41010138:	f2dff06f          	j	41010064 <trap_handler_s__clear_highest_priority_interrupt>
    4101013c:	f29ff06f          	j	41010064 <trap_handler_s__clear_highest_priority_interrupt>
    41010140:	f25ff06f          	j	41010064 <trap_handler_s__clear_highest_priority_interrupt>
    41010144:	f21ff06f          	j	41010064 <trap_handler_s__clear_highest_priority_interrupt>
    41010148:	f1dff06f          	j	41010064 <trap_handler_s__clear_highest_priority_interrupt>
    4101014c:	f19ff06f          	j	41010064 <trap_handler_s__clear_highest_priority_interrupt>
    41010150:	f15ff06f          	j	41010064 <trap_handler_s__clear_highest_priority_interrupt>
    41010154:	f11ff06f          	j	41010064 <trap_handler_s__clear_highest_priority_interrupt>
    41010158:	f0dff06f          	j	41010064 <trap_handler_s__clear_highest_priority_interrupt>
    4101015c:	f09ff06f          	j	41010064 <trap_handler_s__clear_highest_priority_interrupt>
    41010160:	f05ff06f          	j	41010064 <trap_handler_s__clear_highest_priority_interrupt>
    41010164:	f01ff06f          	j	41010064 <trap_handler_s__clear_highest_priority_interrupt>
    41010168:	efdff06f          	j	41010064 <trap_handler_s__clear_highest_priority_interrupt>
    4101016c:	ef9ff06f          	j	41010064 <trap_handler_s__clear_highest_priority_interrupt>
    41010170:	ef5ff06f          	j	41010064 <trap_handler_s__clear_highest_priority_interrupt>

0000000041010174 <trap_handler_s__test_failed>:
    41010174:	00f00f9b          	addiw	x31,x0,15
    41010178:	01cf9f93          	slli	x31,x31,0x1c
    4101017c:	002f8f93          	addi	x31,x31,2
    41010180:	00000073          	ecall

0000000041010184 <trap_handler_s__trap_handler>:
    41010184:	142022f3          	csrr	x5,scause
    41010188:	fff0031b          	addiw	x6,x0,-1
    4101018c:	03f31313          	slli	x6,x6,0x3f
    41010190:	00537333          	and	x6,x6,x5
    41010194:	02030263          	beqz	x6,410101b8 <trap_handler_s__exception_path>

0000000041010198 <trap_handler_s__interrupt_handler>:
    41010198:	fff0031b          	addiw	x6,x0,-1
    4101019c:	03f31313          	slli	x6,x6,0x3f
    410101a0:	0062c2b3          	xor	x5,x5,x6
    410101a4:	00000317          	auipc	x6,0x0
    410101a8:	ed430313          	addi	x6,x6,-300 # 41010078 <trap_handler_s__trap_entry>
    410101ac:	00229293          	slli	x5,x5,0x2
    410101b0:	005302b3          	add	x5,x6,x5
    410101b4:	00028067          	jr	x5 # 2000 <mem23__pt_level3>

00000000410101b8 <trap_handler_s__exception_path>:
    410101b8:	14021273          	csrrw	x4,sscratch,x4
    410101bc:	00000297          	auipc	x5,0x0
    410101c0:	0cc28293          	addi	x5,x5,204 # 41010288 <trap_handler_s__trap_panic>
    410101c4:	10529073          	csrw	stvec,x5
    410101c8:	0040006f          	j	410101cc <trap_handler_s__excp_entry>

00000000410101cc <trap_handler_s__excp_entry>:
    410101cc:	14202373          	csrr	x6,scause
    410101d0:	00800293          	li	x5,8
    410101d4:	00534863          	blt	x6,x5,410101e4 <trap_handler_s__check_exception_label>
    410101d8:	00b00293          	li	x5,11
    410101dc:	0062c463          	blt	x5,x6,410101e4 <trap_handler_s__check_exception_label>
    410101e0:	0a80006f          	j	41010288 <trap_handler_s__trap_panic>

00000000410101e4 <trap_handler_s__check_exception_label>:
    410101e4:	04623c23          	sd	x6,88(x4) # 58 <XLEN+0x18>
    410101e8:	141022f3          	csrr	x5,sepc
    410101ec:	02523423          	sd	x5,40(x4) # 28 <SECURE_ACCESS_PROBABILITY+0xa>
    410101f0:	01820283          	lb	x5,24(x4) # 18 <STORE_GUEST_PAGE_FAULT+0x1>
    410101f4:	00029863          	bnez	x5,41010204 <trap_handler_s__check_excp>
    410101f8:	00128293          	addi	x5,x5,1
    410101fc:	00520c23          	sb	x5,24(x4) # 18 <STORE_GUEST_PAGE_FAULT+0x1>
    41010200:	05c0006f          	j	4101025c <trap_handler_s__ecall_from_machine>

0000000041010204 <trap_handler_s__check_excp>:
    41010204:	06823283          	ld	x5,104(x4) # 68 <XLEN+0x28>
    41010208:	06023423          	sd	x0,104(x4) # 68 <XLEN+0x28>
    4101020c:	00028663          	beqz	x5,41010218 <trap_handler_s__skip_mode_check>
    41010210:	00300393          	li	x7,3
    41010214:	f67290e3          	bne	x5,x7,41010174 <trap_handler_s__test_failed>

0000000041010218 <trap_handler_s__skip_mode_check>:
    41010218:	05023283          	ld	x5,80(x4) # 50 <XLEN+0x10>
    4101021c:	04023823          	sd	x0,80(x4) # 50 <XLEN+0x10>
    41010220:	f4531ae3          	bne	x6,x5,41010174 <trap_handler_s__test_failed>
    41010224:	03823283          	ld	x5,56(x4) # 38 <SECURE_ACCESS_PROBABILITY+0x1a>
    41010228:	02023c23          	sd	x0,56(x4) # 38 <SECURE_ACCESS_PROBABILITY+0x1a>
    4101022c:	02029663          	bnez	x5,41010258 <trap_handler_s__skip_nonzero_tval_check>
    41010230:	02023303          	ld	x6,32(x4) # 20 <SECURE_ACCESS_PROBABILITY+0x2>
    41010234:	02023023          	sd	x0,32(x4) # 20 <SECURE_ACCESS_PROBABILITY+0x2>
    41010238:	02823283          	ld	x5,40(x4) # 28 <SECURE_ACCESS_PROBABILITY+0xa>
    4101023c:	02023423          	sd	x0,40(x4) # 28 <SECURE_ACCESS_PROBABILITY+0xa>
    41010240:	f2531ae3          	bne	x6,x5,41010174 <trap_handler_s__test_failed>
    41010244:	04023283          	ld	x5,64(x4) # 40 <XLEN>
    41010248:	04023023          	sd	x0,64(x4) # 40 <XLEN>
    4101024c:	00028663          	beqz	x5,41010258 <trap_handler_s__skip_nonzero_tval_check>

0000000041010250 <trap_handler_s__nonzero_tval_check>:
    41010250:	14302373          	csrr	x6,stval
    41010254:	f25310e3          	bne	x6,x5,41010174 <trap_handler_s__test_failed>

0000000041010258 <trap_handler_s__skip_nonzero_tval_check>:
    41010258:	0040006f          	j	4101025c <trap_handler_s__ecall_from_machine>

000000004101025c <trap_handler_s__ecall_from_machine>:
    4101025c:	03023283          	ld	x5,48(x4) # 30 <SECURE_ACCESS_PROBABILITY+0x12>
    41010260:	02023823          	sd	x0,48(x4) # 30 <SECURE_ACCESS_PROBABILITY+0x12>
    41010264:	07023303          	ld	x6,112(x4) # 70 <XLEN+0x30>
    41010268:	06023823          	sd	x0,112(x4) # 70 <XLEN+0x30>
    4101026c:	00031463          	bnez	x6,41010274 <trap_handler_s__skip_xepc_write>
    41010270:	14129073          	csrw	sepc,x5

0000000041010274 <trap_handler_s__skip_xepc_write>:
    41010274:	00000317          	auipc	x6,0x0
    41010278:	e0430313          	addi	x6,x6,-508 # 41010078 <trap_handler_s__trap_entry>
    4101027c:	10531073          	csrw	stvec,x6
    41010280:	14021273          	csrrw	x4,sscratch,x4
    41010284:	10200073          	sret

0000000041010288 <trap_handler_s__trap_panic>:
    41010288:	00000193          	li	x3,0
    4101028c:	00f00f9b          	addiw	x31,x0,15
    41010290:	01cf9f93          	slli	x31,x31,0x1c
    41010294:	002f8f93          	addi	x31,x31,2
    41010298:	00000073          	ecall

Disassembly of section .code:

0000000041014130 <passed>:
    41014130:	00f00f9b          	addiw	x31,x0,15
    41014134:	01cf9f93          	slli	x31,x31,0x1c
    41014138:	001f8f93          	addi	x31,x31,1
    4101413c:	00000073          	ecall

0000000041014140 <failed>:
    41014140:	00f00f9b          	addiw	x31,x0,15
    41014144:	01cf9f93          	slli	x31,x31,0x1c
    41014148:	002f8f93          	addi	x31,x31,2
    4101414c:	00000073          	ecall

0000000041014150 <end_test>:
    41014150:	00f00f9b          	addiw	x31,x0,15
    41014154:	01cf9f93          	slli	x31,x31,0x1c
    41014158:	003f8f93          	addi	x31,x31,3
    4101415c:	00000073          	ecall

0000000041014160 <test_setup>:
    41014160:	00f00f9b          	addiw	x31,x0,15
    41014164:	01cf9f93          	slli	x31,x31,0x1c
    41014168:	001f8f93          	addi	x31,x31,1
    4101416c:	00000073          	ecall

0000000041014170 <SID_PBVMS_001_ptw_no_faults_all_access_types>:
    41014170:	52cb1137          	lui	x2,0x52cb1
    41014174:	de51011b          	addiw	x2,x2,-539 # 52cb0de5 <pma_region_2_end+0xdc6fde5>
    41014178:	00c11113          	slli	x2,x2,0xc
    4101417c:	96310113          	addi	x2,x2,-1693
    41014180:	00c11113          	slli	x2,x2,0xc
    41014184:	000012b7          	lui	x5,0x1
    41014188:	00510133          	add	x2,x2,x5
    4101418c:	ff017113          	andi	x2,x2,-16
    41014190:	0027f3b7          	lui	x7,0x27f
    41014194:	0003a807          	flw	f16,0(x7) # 27f000 <mem0>
    41014198:	0027f737          	lui	x14,0x27f
    4101419c:	0004bfb7          	lui	x31,0x4b
    410141a0:	647f8f9b          	addiw	x31,x31,1607 # 4b647 <mem9__pt_level2+0x7647>
    410141a4:	00df9f93          	slli	x31,x31,0xd
    410141a8:	a1cf8f93          	addi	x31,x31,-1508
    410141ac:	01f72023          	sw	x31,0(x14) # 27f000 <mem0>
    410141b0:	0027ffb7          	lui	x31,0x27f
    410141b4:	00000a13          	li	x20,0
    410141b8:	014f8b33          	add	x22,x31,x20
    410141bc:	000b23af          	amoadd.w	x7,x0,(x22)
    410141c0:	0044a637          	lui	x12,0x44a
    410141c4:	1036061b          	addiw	x12,x12,259 # 44a103 <code_mem39+0x10d103>
    410141c8:	00c61613          	slli	x12,x12,0xc
    410141cc:	000600e7          	jalr	x12

00000000410141d0 <SID_PBVMS_001_ptw_no_faults_all_access_types_passed>:
    410141d0:	00f00f9b          	addiw	x31,x0,15
    410141d4:	01cf9f93          	slli	x31,x31,0x1c
    410141d8:	001f8f93          	addi	x31,x31,1 # 27f001 <mem0+0x1>
    410141dc:	00000073          	ecall

00000000410141e0 <SID_PBVMS_003_ptw_all_privilege_modes>:
    410141e0:	4087a137          	lui	x2,0x4087a
    410141e4:	000012b7          	lui	x5,0x1
    410141e8:	00510133          	add	x2,x2,x5
    410141ec:	ff017113          	andi	x2,x2,-16
    410141f0:	1b05c437          	lui	x8,0x1b05c
    410141f4:	4a34041b          	addiw	x8,x8,1187 # 1b05c4a3 <mem33__pt_level1+0x80814a3>
    410141f8:	00c41413          	slli	x8,x8,0xc
    410141fc:	00042a83          	lw	x21,0(x8)
    41014200:	1b05ceb7          	lui	x29,0x1b05c
    41014204:	4a3e8e9b          	addiw	x29,x29,1187 # 1b05c4a3 <mem33__pt_level1+0x80814a3>
    41014208:	00ce9e93          	slli	x29,x29,0xc
    4101420c:	00038c37          	lui	x24,0x38
    41014210:	7ebc0c1b          	addiw	x24,x24,2027 # 387eb <mem40__pt_level2+0xe7eb>
    41014214:	00ec1c13          	slli	x24,x24,0xe
    41014218:	9dac0c13          	addi	x24,x24,-1574
    4101421c:	d03c7253          	fcvt.s.lu	f4,x24
    41014220:	004eb027          	fsd	f4,0(x29)

0000000041014224 <SID_PBVMS_003_ptw_all_privilege_modes_passed>:
    41014224:	00f00f9b          	addiw	x31,x0,15
    41014228:	01cf9f93          	slli	x31,x31,0x1c
    4101422c:	001f8f93          	addi	x31,x31,1
    41014230:	00000073          	ecall

0000000041014234 <SID_PBVMS_006_ptw_page_boundary_crossing>:
    41014234:	00082137          	lui	x2,0x82
    41014238:	2b71011b          	addiw	x2,x2,695 # 822b7 <mem24__pt_level4+0xf247>
    4101423c:	00c11113          	slli	x2,x2,0xc
    41014240:	000012b7          	lui	x5,0x1
    41014244:	00510133          	add	x2,x2,x5
    41014248:	ff017113          	andi	x2,x2,-16
    4101424c:	0289c8b7          	lui	x17,0x289c
    41014250:	65b8889b          	addiw	x17,x17,1627 # 289c65b <mem37__pt_level1+0x124965b>
    41014254:	01589893          	slli	x17,x17,0x15
    41014258:	00001b37          	lui	x22,0x1
    4101425c:	ff8b0b1b          	addiw	x22,x22,-8 # ff8 <XLEN+0xfb8>
    41014260:	01688fb3          	add	x31,x17,x22
    41014264:	000fb303          	ld	x6,0(x31)
    41014268:	0289cc37          	lui	x24,0x289c
    4101426c:	65bc0c1b          	addiw	x24,x24,1627 # 289c65b <mem37__pt_level1+0x124965b>
    41014270:	015c1c13          	slli	x24,x24,0x15
    41014274:	00001437          	lui	x8,0x1
    41014278:	ff84041b          	addiw	x8,x8,-8 # ff8 <XLEN+0xfb8>
    4101427c:	008c0933          	add	x18,x24,x8
    41014280:	000d7337          	lui	x6,0xd7
    41014284:	0713031b          	addiw	x6,x6,113 # d7071 <mem24__pt_level4+0x64001>
    41014288:	00c31313          	slli	x6,x6,0xc
    4101428c:	08130313          	addi	x6,x6,129
    41014290:	d0037e53          	fcvt.s.w	f28,x6
    41014294:	01c93027          	fsd	f28,0(x18)
    41014298:	0289c8b7          	lui	x17,0x289c
    4101429c:	65b8889b          	addiw	x17,x17,1627 # 289c65b <mem37__pt_level1+0x124965b>
    410142a0:	01589893          	slli	x17,x17,0x15
    410142a4:	00001f37          	lui	x30,0x1
    410142a8:	ff8f0f1b          	addiw	x30,x30,-8 # ff8 <XLEN+0xfb8>
    410142ac:	01e88b33          	add	x22,x17,x30
    410142b0:	00001bb7          	lui	x23,0x1
    410142b4:	ff8b8b9b          	addiw	x23,x23,-8 # ff8 <XLEN+0xfb8>
    410142b8:	017b332f          	amoadd.d	x6,x23,(x22)
    410142bc:	0005c6b7          	lui	x13,0x5c
    410142c0:	000680e7          	jalr	x13 # 5c000 <code_mem4>

00000000410142c4 <SID_PBVMS_006_ptw_page_boundary_crossing_passed>:
    410142c4:	00f00f9b          	addiw	x31,x0,15
    410142c8:	01cf9f93          	slli	x31,x31,0x1c
    410142cc:	001f8f93          	addi	x31,x31,1
    410142d0:	00000073          	ecall

00000000410142d4 <SID_PBVMS_008_va_sign_extension_fault>:
    410142d4:	00375137          	lui	x2,0x375
    410142d8:	2791011b          	addiw	x2,x2,633 # 375279 <code_mem39+0x38279>
    410142dc:	00c11113          	slli	x2,x2,0xc
    410142e0:	54510113          	addi	x2,x2,1349
    410142e4:	00c11113          	slli	x2,x2,0xc
    410142e8:	000012b7          	lui	x5,0x1
    410142ec:	00510133          	add	x2,x2,x5
    410142f0:	ff017113          	andi	x2,x2,-16
    410142f4:	00004237          	lui	x4,0x4
    410142f8:	00d00e13          	li	x28,13
    410142fc:	05c23823          	sd	x28,80(x4) # 4050 <check_excp_expected_cause>
    41014300:	00000e17          	auipc	x28,0x0
    41014304:	068e0e13          	addi	x28,x28,104 # 41014368 <fault_label_0>
    41014308:	03c23023          	sd	x28,32(x4) # 20 <SECURE_ACCESS_PROBABILITY+0x2>
    4101430c:	00000e13          	li	x28,0
    41014310:	05c23023          	sd	x28,64(x4) # 40 <XLEN>
    41014314:	00000e13          	li	x28,0
    41014318:	05c23423          	sd	x28,72(x4) # 48 <XLEN+0x8>
    4101431c:	00000e17          	auipc	x28,0x0
    41014320:	060e0e13          	addi	x28,x28,96 # 4101437c <SID_PBVMS_008_va_sign_extension_fault_passed>
    41014324:	03c23823          	sd	x28,48(x4) # 30 <SECURE_ACCESS_PROBABILITY+0x12>
    41014328:	00000e13          	li	x28,0
    4101432c:	03c23c23          	sd	x28,56(x4) # 38 <SECURE_ACCESS_PROBABILITY+0x1a>
    41014330:	00000e13          	li	x28,0
    41014334:	07c23023          	sd	x28,96(x4) # 60 <XLEN+0x20>
    41014338:	00000e13          	li	x28,0
    4101433c:	07c23423          	sd	x28,104(x4) # 68 <XLEN+0x28>
    41014340:	00000e13          	li	x28,0
    41014344:	07c23823          	sd	x28,112(x4) # 70 <XLEN+0x30>
    41014348:	17ebab37          	lui	x22,0x17eba
    4101434c:	d1db0b1b          	addiw	x22,x22,-739 # 17eb9d1d <mem33__pt_level1+0x4eded1d>
    41014350:	00cb1b13          	slli	x22,x22,0xc
    41014354:	e63b0b13          	addi	x22,x22,-413
    41014358:	00cb1b13          	slli	x22,x22,0xc
    4101435c:	fff0069b          	addiw	x13,x0,-1
    41014360:	03f69693          	slli	x13,x13,0x3f
    41014364:	00db0333          	add	x6,x22,x13

0000000041014368 <fault_label_0>:
    41014368:	00033683          	ld	x13,0(x6)
    4101436c:	0001a737          	lui	x14,0x1a
    41014370:	0087071b          	addiw	x14,x14,8 # 1a008 <failed_addr>
    41014374:	00073d83          	ld	x27,0(x14)
    41014378:	000d8067          	jr	x27 # 82000c4c <mem10__pt_level3+0x11e9c4c>

000000004101437c <SID_PBVMS_008_va_sign_extension_fault_passed>:
    4101437c:	00f00f9b          	addiw	x31,x0,15
    41014380:	01cf9f93          	slli	x31,x31,0x1c
    41014384:	001f8f93          	addi	x31,x31,1
    41014388:	00000073          	ecall

000000004101438c <SID_PBVMS_009_superpage_alignment_fault>:
    4101438c:	005d8137          	lui	x2,0x5d8
    41014390:	1931011b          	addiw	x2,x2,403 # 5d8193 <code_mem39+0x29b193>
    41014394:	00d11113          	slli	x2,x2,0xd
    41014398:	000012b7          	lui	x5,0x1
    4101439c:	00510133          	add	x2,x2,x5
    410143a0:	ff017113          	andi	x2,x2,-16
    410143a4:	0001afb7          	lui	x31,0x1a
    410143a8:	0b0f8f9b          	addiw	x31,x31,176 # 1a0b0 <pte_access_flags>
    410143ac:	f0b0029b          	addiw	x5,x0,-245
    410143b0:	03029293          	slli	x5,x5,0x30
    410143b4:	005fb023          	sd	x5,0(x31)
    410143b8:	00300293          	li	x5,3
    410143bc:	005fb423          	sd	x5,8(x31)
    410143c0:	fff00293          	li	x5,-1
    410143c4:	005fb823          	sd	x5,16(x31)
    410143c8:	000f0fb7          	lui	x31,0xf0
    410143cc:	001f8f9b          	addiw	x31,x31,1 # f0001 <mem24__pt_level4+0x7cf91>
    410143d0:	00cf9f93          	slli	x31,x31,0xc
    410143d4:	007f8f93          	addi	x31,x31,7
    410143d8:	00000073          	ecall
    410143dc:	40000b93          	li	x23,1024
    410143e0:	0173e933          	or	x18,x7,x23
    410143e4:	00090393          	mv	x7,x18
    410143e8:	0001afb7          	lui	x31,0x1a
    410143ec:	0b0f8f9b          	addiw	x31,x31,176 # 1a0b0 <pte_access_flags>
    410143f0:	f0b0029b          	addiw	x5,x0,-245
    410143f4:	03029293          	slli	x5,x5,0x30
    410143f8:	005fb023          	sd	x5,0(x31)
    410143fc:	00300293          	li	x5,3
    41014400:	005fb423          	sd	x5,8(x31)
    41014404:	fff00293          	li	x5,-1
    41014408:	005fb823          	sd	x5,16(x31)
    4101440c:	000f0fb7          	lui	x31,0xf0
    41014410:	001f8f9b          	addiw	x31,x31,1 # f0001 <mem24__pt_level4+0x7cf91>
    41014414:	00cf9f93          	slli	x31,x31,0xc
    41014418:	008f8f93          	addi	x31,x31,8
    4101441c:	00000073          	ecall
    41014420:	00004237          	lui	x4,0x4
    41014424:	00d00e13          	li	x28,13
    41014428:	05c23823          	sd	x28,80(x4) # 4050 <check_excp_expected_cause>
    4101442c:	00000e17          	auipc	x28,0x0
    41014430:	050e0e13          	addi	x28,x28,80 # 4101447c <fault_label_1>
    41014434:	03c23023          	sd	x28,32(x4) # 20 <SECURE_ACCESS_PROBABILITY+0x2>
    41014438:	00000e13          	li	x28,0
    4101443c:	05c23023          	sd	x28,64(x4) # 40 <XLEN>
    41014440:	00000e13          	li	x28,0
    41014444:	05c23423          	sd	x28,72(x4) # 48 <XLEN+0x8>
    41014448:	00000e17          	auipc	x28,0x0
    4101444c:	048e0e13          	addi	x28,x28,72 # 41014490 <excp_return_label_1>
    41014450:	03c23823          	sd	x28,48(x4) # 30 <SECURE_ACCESS_PROBABILITY+0x12>
    41014454:	00000e13          	li	x28,0
    41014458:	03c23c23          	sd	x28,56(x4) # 38 <SECURE_ACCESS_PROBABILITY+0x1a>
    4101445c:	00000e13          	li	x28,0
    41014460:	07c23023          	sd	x28,96(x4) # 60 <XLEN+0x20>
    41014464:	00000e13          	li	x28,0
    41014468:	07c23423          	sd	x28,104(x4) # 68 <XLEN+0x28>
    4101446c:	00000e13          	li	x28,0
    41014470:	07c23823          	sd	x28,112(x4) # 70 <XLEN+0x30>
    41014474:	f0b00d9b          	addiw	x27,x0,-245
    41014478:	030d9d93          	slli	x27,x27,0x30

000000004101447c <fault_label_1>:
    4101447c:	000da607          	flw	f12,0(x27)
    41014480:	0001ab37          	lui	x22,0x1a
    41014484:	008b0b1b          	addiw	x22,x22,8 # 1a008 <failed_addr>
    41014488:	000b3783          	ld	x15,0(x22)
    4101448c:	00078067          	jr	x15

0000000041014490 <excp_return_label_1>:
    41014490:	00004237          	lui	x4,0x4
    41014494:	00f00e13          	li	x28,15
    41014498:	05c23823          	sd	x28,80(x4) # 4050 <check_excp_expected_cause>
    4101449c:	00000e17          	auipc	x28,0x0
    410144a0:	058e0e13          	addi	x28,x28,88 # 410144f4 <fault_label_2>
    410144a4:	03c23023          	sd	x28,32(x4) # 20 <SECURE_ACCESS_PROBABILITY+0x2>
    410144a8:	00000e13          	li	x28,0
    410144ac:	05c23023          	sd	x28,64(x4) # 40 <XLEN>
    410144b0:	00000e13          	li	x28,0
    410144b4:	05c23423          	sd	x28,72(x4) # 48 <XLEN+0x8>
    410144b8:	00000e17          	auipc	x28,0x0
    410144bc:	050e0e13          	addi	x28,x28,80 # 41014508 <excp_return_label_2>
    410144c0:	03c23823          	sd	x28,48(x4) # 30 <SECURE_ACCESS_PROBABILITY+0x12>
    410144c4:	00000e13          	li	x28,0
    410144c8:	03c23c23          	sd	x28,56(x4) # 38 <SECURE_ACCESS_PROBABILITY+0x1a>
    410144cc:	00000e13          	li	x28,0
    410144d0:	07c23023          	sd	x28,96(x4) # 60 <XLEN+0x20>
    410144d4:	00000e13          	li	x28,0
    410144d8:	07c23423          	sd	x28,104(x4) # 68 <XLEN+0x28>
    410144dc:	00000e13          	li	x28,0
    410144e0:	07c23823          	sd	x28,112(x4) # 70 <XLEN+0x30>
    410144e4:	f0b0091b          	addiw	x18,x0,-245
    410144e8:	03091913          	slli	x18,x18,0x30
    410144ec:	678a6eb7          	lui	x29,0x678a6
    410144f0:	aa6e8e9b          	addiw	x29,x29,-1370 # 678a5aa6 <pma_region_2_end+0x22864aa6>

00000000410144f4 <fault_label_2>:
    410144f4:	01d93023          	sd	x29,0(x18)
    410144f8:	0001abb7          	lui	x23,0x1a
    410144fc:	008b8b9b          	addiw	x23,x23,8 # 1a008 <failed_addr>
    41014500:	000bb903          	ld	x18,0(x23)
    41014504:	00090067          	jr	x18

0000000041014508 <excp_return_label_2>:
    41014508:	00004237          	lui	x4,0x4
    4101450c:	00f00e13          	li	x28,15
    41014510:	05c23823          	sd	x28,80(x4) # 4050 <check_excp_expected_cause>
    41014514:	00000e17          	auipc	x28,0x0
    41014518:	058e0e13          	addi	x28,x28,88 # 4101456c <fault_label_3>
    4101451c:	03c23023          	sd	x28,32(x4) # 20 <SECURE_ACCESS_PROBABILITY+0x2>
    41014520:	00000e13          	li	x28,0
    41014524:	05c23023          	sd	x28,64(x4) # 40 <XLEN>
    41014528:	00000e13          	li	x28,0
    4101452c:	05c23423          	sd	x28,72(x4) # 48 <XLEN+0x8>
    41014530:	00000e17          	auipc	x28,0x0
    41014534:	050e0e13          	addi	x28,x28,80 # 41014580 <SID_PBVMS_009_superpage_alignment_fault_passed>
    41014538:	03c23823          	sd	x28,48(x4) # 30 <SECURE_ACCESS_PROBABILITY+0x12>
    4101453c:	00000e13          	li	x28,0
    41014540:	03c23c23          	sd	x28,56(x4) # 38 <SECURE_ACCESS_PROBABILITY+0x1a>
    41014544:	00000e13          	li	x28,0
    41014548:	07c23023          	sd	x28,96(x4) # 60 <XLEN+0x20>
    4101454c:	00000e13          	li	x28,0
    41014550:	07c23423          	sd	x28,104(x4) # 68 <XLEN+0x28>
    41014554:	00000e13          	li	x28,0
    41014558:	07c23823          	sd	x28,112(x4) # 70 <XLEN+0x30>
    4101455c:	f0b0031b          	addiw	x6,x0,-245
    41014560:	03031313          	slli	x6,x6,0x30
    41014564:	00000c13          	li	x24,0
    41014568:	01830c33          	add	x24,x6,x24

000000004101456c <fault_label_3>:
    4101456c:	000c292f          	amoadd.w	x18,x0,(x24)
    41014570:	0001afb7          	lui	x31,0x1a
    41014574:	008f8f9b          	addiw	x31,x31,8 # 1a008 <failed_addr>
    41014578:	000fbf83          	ld	x31,0(x31)
    4101457c:	000f8067          	jr	x31

0000000041014580 <SID_PBVMS_009_superpage_alignment_fault_passed>:
    41014580:	00f00f9b          	addiw	x31,x0,15
    41014584:	01cf9f93          	slli	x31,x31,0x1c
    41014588:	001f8f93          	addi	x31,x31,1
    4101458c:	00000073          	ecall

0000000041014590 <SID_PBVMS_011_ptw_fault_boundary_crossing>:
    41014590:	03ea8137          	lui	x2,0x3ea8
    41014594:	000012b7          	lui	x5,0x1
    41014598:	00510133          	add	x2,x2,x5
    4101459c:	ff017113          	andi	x2,x2,-16
    410145a0:	005f03b7          	lui	x7,0x5f0
    410145a4:	5893839b          	addiw	x7,x7,1417 # 5f0589 <code_mem39+0x2b3589>
    410145a8:	01639393          	slli	x7,x7,0x16
    410145ac:	0003bb03          	ld	x22,0(x7)
    410145b0:	00004237          	lui	x4,0x4
    410145b4:	00d00e13          	li	x28,13
    410145b8:	05c23823          	sd	x28,80(x4) # 4050 <check_excp_expected_cause>
    410145bc:	00000e17          	auipc	x28,0x0
    410145c0:	05ce0e13          	addi	x28,x28,92 # 41014618 <fault_label_4>
    410145c4:	03c23023          	sd	x28,32(x4) # 20 <SECURE_ACCESS_PROBABILITY+0x2>
    410145c8:	00000e13          	li	x28,0
    410145cc:	05c23023          	sd	x28,64(x4) # 40 <XLEN>
    410145d0:	00000e13          	li	x28,0
    410145d4:	05c23423          	sd	x28,72(x4) # 48 <XLEN+0x8>
    410145d8:	00000e17          	auipc	x28,0x0
    410145dc:	054e0e13          	addi	x28,x28,84 # 4101462c <excp_return_label_4>
    410145e0:	03c23823          	sd	x28,48(x4) # 30 <SECURE_ACCESS_PROBABILITY+0x12>
    410145e4:	00000e13          	li	x28,0
    410145e8:	03c23c23          	sd	x28,56(x4) # 38 <SECURE_ACCESS_PROBABILITY+0x1a>
    410145ec:	00000e13          	li	x28,0
    410145f0:	07c23023          	sd	x28,96(x4) # 60 <XLEN+0x20>
    410145f4:	00000e13          	li	x28,0
    410145f8:	07c23423          	sd	x28,104(x4) # 68 <XLEN+0x28>
    410145fc:	00000e13          	li	x28,0
    41014600:	07c23823          	sd	x28,112(x4) # 70 <XLEN+0x30>
    41014604:	3130091b          	addiw	x18,x0,787
    41014608:	01991913          	slli	x18,x18,0x19
    4101460c:	00001db7          	lui	x27,0x1
    41014610:	ffad8d9b          	addiw	x27,x27,-6 # ffa <XLEN+0xfba>
    41014614:	01b90d33          	add	x26,x18,x27

0000000041014618 <fault_label_4>:
    41014618:	000d3683          	ld	x13,0(x26)
    4101461c:	0001ae37          	lui	x28,0x1a
    41014620:	008e0e1b          	addiw	x28,x28,8 # 1a008 <failed_addr>
    41014624:	000e3b83          	ld	x23,0(x28)
    41014628:	000b8067          	jr	x23

000000004101462c <excp_return_label_4>:
    4101462c:	00004237          	lui	x4,0x4
    41014630:	00f00e13          	li	x28,15
    41014634:	05c23823          	sd	x28,80(x4) # 4050 <check_excp_expected_cause>
    41014638:	00000e17          	auipc	x28,0x0
    4101463c:	06ce0e13          	addi	x28,x28,108 # 410146a4 <fault_label_5>
    41014640:	03c23023          	sd	x28,32(x4) # 20 <SECURE_ACCESS_PROBABILITY+0x2>
    41014644:	00000e13          	li	x28,0
    41014648:	05c23023          	sd	x28,64(x4) # 40 <XLEN>
    4101464c:	00000e13          	li	x28,0
    41014650:	05c23423          	sd	x28,72(x4) # 48 <XLEN+0x8>
    41014654:	00000e17          	auipc	x28,0x0
    41014658:	064e0e13          	addi	x28,x28,100 # 410146b8 <SID_PBVMS_011_ptw_fault_boundary_crossing_passed>
    4101465c:	03c23823          	sd	x28,48(x4) # 30 <SECURE_ACCESS_PROBABILITY+0x12>
    41014660:	00000e13          	li	x28,0
    41014664:	03c23c23          	sd	x28,56(x4) # 38 <SECURE_ACCESS_PROBABILITY+0x1a>
    41014668:	00000e13          	li	x28,0
    4101466c:	07c23023          	sd	x28,96(x4) # 60 <XLEN+0x20>
    41014670:	00000e13          	li	x28,0
    41014674:	07c23423          	sd	x28,104(x4) # 68 <XLEN+0x28>
    41014678:	00000e13          	li	x28,0
    4101467c:	07c23823          	sd	x28,112(x4) # 70 <XLEN+0x30>
    41014680:	31300e9b          	addiw	x29,x0,787
    41014684:	019e9e93          	slli	x29,x29,0x19
    41014688:	00001a37          	lui	x20,0x1
    4101468c:	ffaa0a1b          	addiw	x20,x20,-6 # ffa <XLEN+0xfba>
    41014690:	014e8cb3          	add	x25,x29,x20
    41014694:	000f3ab7          	lui	x21,0xf3
    41014698:	20da8a9b          	addiw	x21,x21,525 # f320d <mem24__pt_level4+0x8019d>
    4101469c:	00ca9a93          	slli	x21,x21,0xc
    410146a0:	d5aa8a93          	addi	x21,x21,-678

00000000410146a4 <fault_label_5>:
    410146a4:	015ca023          	sw	x21,0(x25)
    410146a8:	0001a337          	lui	x6,0x1a
    410146ac:	0083031b          	addiw	x6,x6,8 # 1a008 <failed_addr>
    410146b0:	00033d03          	ld	x26,0(x6)
    410146b4:	000d0067          	jr	x26

00000000410146b8 <SID_PBVMS_011_ptw_fault_boundary_crossing_passed>:
    410146b8:	00f00f9b          	addiw	x31,x0,15
    410146bc:	01cf9f93          	slli	x31,x31,0x1c
    410146c0:	001f8f93          	addi	x31,x31,1
    410146c4:	00000073          	ecall

00000000410146c8 <SID_PBVMS_012_ptw_fault_prioritization>:
    410146c8:	00018137          	lui	x2,0x18
    410146cc:	000012b7          	lui	x5,0x1
    410146d0:	00510133          	add	x2,x2,x5
    410146d4:	ff017113          	andi	x2,x2,-16
    410146d8:	00004237          	lui	x4,0x4
    410146dc:	00d00e13          	li	x28,13
    410146e0:	05c23823          	sd	x28,80(x4) # 4050 <check_excp_expected_cause>
    410146e4:	00000e17          	auipc	x28,0x0
    410146e8:	050e0e13          	addi	x28,x28,80 # 41014734 <fault_label_6>
    410146ec:	03c23023          	sd	x28,32(x4) # 20 <SECURE_ACCESS_PROBABILITY+0x2>
    410146f0:	00000e13          	li	x28,0
    410146f4:	05c23023          	sd	x28,64(x4) # 40 <XLEN>
    410146f8:	00000e13          	li	x28,0
    410146fc:	05c23423          	sd	x28,72(x4) # 48 <XLEN+0x8>
    41014700:	00000e17          	auipc	x28,0x0
    41014704:	048e0e13          	addi	x28,x28,72 # 41014748 <excp_return_label_6>
    41014708:	03c23823          	sd	x28,48(x4) # 30 <SECURE_ACCESS_PROBABILITY+0x12>
    4101470c:	00000e13          	li	x28,0
    41014710:	03c23c23          	sd	x28,56(x4) # 38 <SECURE_ACCESS_PROBABILITY+0x1a>
    41014714:	00000e13          	li	x28,0
    41014718:	07c23023          	sd	x28,96(x4) # 60 <XLEN+0x20>
    4101471c:	00000e13          	li	x28,0
    41014720:	07c23423          	sd	x28,104(x4) # 68 <XLEN+0x28>
    41014724:	00000e13          	li	x28,0
    41014728:	07c23823          	sd	x28,112(x4) # 70 <XLEN+0x30>
    4101472c:	00500c9b          	addiw	x25,x0,5
    41014730:	031c9c93          	slli	x25,x25,0x31

0000000041014734 <fault_label_6>:
    41014734:	000ca087          	flw	f1,0(x25)
    41014738:	0001acb7          	lui	x25,0x1a
    4101473c:	008c8c9b          	addiw	x25,x25,8 # 1a008 <failed_addr>
    41014740:	000cb683          	ld	x13,0(x25)
    41014744:	00068067          	jr	x13

0000000041014748 <excp_return_label_6>:
    41014748:	00004237          	lui	x4,0x4
    4101474c:	00d00e13          	li	x28,13
    41014750:	05c23823          	sd	x28,80(x4) # 4050 <check_excp_expected_cause>
    41014754:	00000e17          	auipc	x28,0x0
    41014758:	050e0e13          	addi	x28,x28,80 # 410147a4 <fault_label_7>
    4101475c:	03c23023          	sd	x28,32(x4) # 20 <SECURE_ACCESS_PROBABILITY+0x2>
    41014760:	00000e13          	li	x28,0
    41014764:	05c23023          	sd	x28,64(x4) # 40 <XLEN>
    41014768:	00000e13          	li	x28,0
    4101476c:	05c23423          	sd	x28,72(x4) # 48 <XLEN+0x8>
    41014770:	00000e17          	auipc	x28,0x0
    41014774:	048e0e13          	addi	x28,x28,72 # 410147b8 <excp_return_label_7>
    41014778:	03c23823          	sd	x28,48(x4) # 30 <SECURE_ACCESS_PROBABILITY+0x12>
    4101477c:	00000e13          	li	x28,0
    41014780:	03c23c23          	sd	x28,56(x4) # 38 <SECURE_ACCESS_PROBABILITY+0x1a>
    41014784:	00000e13          	li	x28,0
    41014788:	07c23023          	sd	x28,96(x4) # 60 <XLEN+0x20>
    4101478c:	00000e13          	li	x28,0
    41014790:	07c23423          	sd	x28,104(x4) # 68 <XLEN+0x28>
    41014794:	00000e13          	li	x28,0
    41014798:	07c23823          	sd	x28,112(x4) # 70 <XLEN+0x30>
    4101479c:	00100e1b          	addiw	x28,x0,1
    410147a0:	030e1e13          	slli	x28,x28,0x30

00000000410147a4 <fault_label_7>:
    410147a4:	000e2583          	lw	x11,0(x28)
    410147a8:	0001ad37          	lui	x26,0x1a
    410147ac:	008d0d1b          	addiw	x26,x26,8 # 1a008 <failed_addr>
    410147b0:	000d3e83          	ld	x29,0(x26)
    410147b4:	000e8067          	jr	x29

00000000410147b8 <excp_return_label_7>:
    410147b8:	00004237          	lui	x4,0x4
    410147bc:	00d00e13          	li	x28,13
    410147c0:	05c23823          	sd	x28,80(x4) # 4050 <check_excp_expected_cause>
    410147c4:	00000e17          	auipc	x28,0x0
    410147c8:	050e0e13          	addi	x28,x28,80 # 41014814 <fault_label_8>
    410147cc:	03c23023          	sd	x28,32(x4) # 20 <SECURE_ACCESS_PROBABILITY+0x2>
    410147d0:	00000e13          	li	x28,0
    410147d4:	05c23023          	sd	x28,64(x4) # 40 <XLEN>
    410147d8:	00000e13          	li	x28,0
    410147dc:	05c23423          	sd	x28,72(x4) # 48 <XLEN+0x8>
    410147e0:	00000e17          	auipc	x28,0x0
    410147e4:	048e0e13          	addi	x28,x28,72 # 41014828 <SID_PBVMS_012_ptw_fault_prioritization_passed>
    410147e8:	03c23823          	sd	x28,48(x4) # 30 <SECURE_ACCESS_PROBABILITY+0x12>
    410147ec:	00000e13          	li	x28,0
    410147f0:	03c23c23          	sd	x28,56(x4) # 38 <SECURE_ACCESS_PROBABILITY+0x1a>
    410147f4:	00000e13          	li	x28,0
    410147f8:	07c23023          	sd	x28,96(x4) # 60 <XLEN+0x20>
    410147fc:	00000e13          	li	x28,0
    41014800:	07c23423          	sd	x28,104(x4) # 68 <XLEN+0x28>
    41014804:	00000e13          	li	x28,0
    41014808:	07c23823          	sd	x28,112(x4) # 70 <XLEN+0x30>
    4101480c:	f050061b          	addiw	x12,x0,-251
    41014810:	03061613          	slli	x12,x12,0x30

0000000041014814 <fault_label_8>:
    41014814:	00063e87          	fld	f29,0(x12)
    41014818:	0001a437          	lui	x8,0x1a
    4101481c:	0084041b          	addiw	x8,x8,8 # 1a008 <failed_addr>
    41014820:	00043403          	ld	x8,0(x8)
    41014824:	00040067          	jr	x8

0000000041014828 <SID_PBVMS_012_ptw_fault_prioritization_passed>:
    41014828:	00f00f9b          	addiw	x31,x0,15
    4101482c:	01cf9f93          	slli	x31,x31,0x1c
    41014830:	001f8f93          	addi	x31,x31,1
    41014834:	00000073          	ecall

0000000041014838 <SID_PBVMS_013_ptw_permission_encodings>:
    41014838:	00b03137          	lui	x2,0xb03
    4101483c:	c511011b          	addiw	x2,x2,-943 # b02c51 <mem30__pt_level3+0x40ec51>
    41014840:	00c11113          	slli	x2,x2,0xc
    41014844:	000012b7          	lui	x5,0x1
    41014848:	00510133          	add	x2,x2,x5
    4101484c:	ff017113          	andi	x2,x2,-16
    41014850:	0009cf37          	lui	x30,0x9c
    41014854:	4e1f0f1b          	addiw	x30,x30,1249 # 9c4e1 <mem24__pt_level4+0x29471>
    41014858:	00cf1f13          	slli	x30,x30,0xc
    4101485c:	e69f0f13          	addi	x30,x30,-407
    41014860:	00cf1f13          	slli	x30,x30,0xc
    41014864:	011f0f13          	addi	x30,x30,17
    41014868:	00cf1f13          	slli	x30,x30,0xc
    4101486c:	000f2c87          	flw	f25,0(x30)
    41014870:	000c1737          	lui	x14,0xc1
    41014874:	49f7071b          	addiw	x14,x14,1183 # c149f <mem24__pt_level4+0x4e42f>
    41014878:	00c71713          	slli	x14,x14,0xc
    4101487c:	bbb70713          	addi	x14,x14,-1093
    41014880:	00c71713          	slli	x14,x14,0xc
    41014884:	00075683          	lhu	x13,0(x14)
    41014888:	000c1837          	lui	x16,0xc1
    4101488c:	49f8081b          	addiw	x16,x16,1183 # c149f <mem24__pt_level4+0x4e42f>
    41014890:	00c81813          	slli	x16,x16,0xc
    41014894:	bbb80813          	addi	x16,x16,-1093
    41014898:	00c81813          	slli	x16,x16,0xc
    4101489c:	73f7c4b7          	lui	x9,0x73f7c
    410148a0:	a914849b          	addiw	x9,x9,-1391 # 73f7ba91 <pma_region_2_end+0x2ef3aa91>
    410148a4:	00980023          	sb	x9,0(x16)
    410148a8:	021a14b7          	lui	x9,0x21a1
    410148ac:	bf34849b          	addiw	x9,x9,-1037 # 21a0bf3 <mem37__pt_level1+0xb4dbf3>
    410148b0:	00d49493          	slli	x9,x9,0xd
    410148b4:	0004ce83          	lbu	x29,0(x9)
    410148b8:	03c3f637          	lui	x12,0x3c3f
    410148bc:	000600e7          	jalr	x12 # 3c3f000 <code_mem16>
    410148c0:	0000ab37          	lui	x22,0xa
    410148c4:	000b4a03          	lbu	x20,0(x22) # a000 <mem17>
    410148c8:	0000a437          	lui	x8,0xa
    410148cc:	03ba38b7          	lui	x17,0x3ba3
    410148d0:	3de8889b          	addiw	x17,x17,990 # 3ba33de <mem6__pt_level3+0xc2f3de>
    410148d4:	01140023          	sb	x17,0(x8) # a000 <mem17>

00000000410148d8 <SID_PBVMS_013_ptw_permission_encodings_passed>:
    410148d8:	00f00f9b          	addiw	x31,x0,15
    410148dc:	01cf9f93          	slli	x31,x31,0x1c
    410148e0:	001f8f93          	addi	x31,x31,1
    410148e4:	00000073          	ecall

00000000410148e8 <SID_PBVMS_014_mstatus_sum_mxr>:
    410148e8:	006d0137          	lui	x2,0x6d0
    410148ec:	0001afb7          	lui	x31,0x1a
    410148f0:	0a0f8f9b          	addiw	x31,x31,160 # 1a0a0 <machine_csr_jump_table_flags>
    410148f4:	00100f13          	li	x30,1
    410148f8:	01efb023          	sd	x30,0(x31)
    410148fc:	000f0fb7          	lui	x31,0xf0
    41014900:	001f8f9b          	addiw	x31,x31,1 # f0001 <mem24__pt_level4+0x7cf91>
    41014904:	00cf9f93          	slli	x31,x31,0xc
    41014908:	005f8f93          	addi	x31,x31,5
    4101490c:	00000073          	ecall
    41014910:	00713023          	sd	x7,0(x2) # 6d0000 <tp_csr_storage>
    41014914:	0044a137          	lui	x2,0x44a
    41014918:	1011011b          	addiw	x2,x2,257 # 44a101 <code_mem39+0x10d101>
    4101491c:	00c11113          	slli	x2,x2,0xc
    41014920:	000012b7          	lui	x5,0x1
    41014924:	00510133          	add	x2,x2,x5
    41014928:	ff017113          	andi	x2,x2,-16
    4101492c:	000803b7          	lui	x7,0x80
    41014930:	0001afb7          	lui	x31,0x1a
    41014934:	0a0f8f9b          	addiw	x31,x31,160 # 1a0a0 <machine_csr_jump_table_flags>
    41014938:	00200f13          	li	x30,2
    4101493c:	01efb023          	sd	x30,0(x31)
    41014940:	000f0fb7          	lui	x31,0xf0
    41014944:	001f8f9b          	addiw	x31,x31,1 # f0001 <mem24__pt_level4+0x7cf91>
    41014948:	00cf9f93          	slli	x31,x31,0xc
    4101494c:	005f8f93          	addi	x31,x31,5
    41014950:	00000073          	ecall
    41014954:	03615e37          	lui	x28,0x3615
    41014958:	5bfe0e1b          	addiw	x28,x28,1471 # 36155bf <mem6__pt_level3+0x6a15bf>
    4101495c:	00ce1e13          	slli	x28,x28,0xc
    41014960:	000e3783          	ld	x15,0(x28)
    41014964:	000803b7          	lui	x7,0x80
    41014968:	0001afb7          	lui	x31,0x1a
    4101496c:	0a0f8f9b          	addiw	x31,x31,160 # 1a0a0 <machine_csr_jump_table_flags>
    41014970:	00300f13          	li	x30,3
    41014974:	01efb023          	sd	x30,0(x31)
    41014978:	000f0fb7          	lui	x31,0xf0
    4101497c:	001f8f9b          	addiw	x31,x31,1 # f0001 <mem24__pt_level4+0x7cf91>
    41014980:	00cf9f93          	slli	x31,x31,0xc
    41014984:	005f8f93          	addi	x31,x31,5
    41014988:	00000073          	ecall
    4101498c:	00004237          	lui	x4,0x4
    41014990:	00d00e13          	li	x28,13
    41014994:	05c23823          	sd	x28,80(x4) # 4050 <check_excp_expected_cause>
    41014998:	00000e17          	auipc	x28,0x0
    4101499c:	054e0e13          	addi	x28,x28,84 # 410149ec <fault_label_9>
    410149a0:	03c23023          	sd	x28,32(x4) # 20 <SECURE_ACCESS_PROBABILITY+0x2>
    410149a4:	00000e13          	li	x28,0
    410149a8:	05c23023          	sd	x28,64(x4) # 40 <XLEN>
    410149ac:	00000e13          	li	x28,0
    410149b0:	05c23423          	sd	x28,72(x4) # 48 <XLEN+0x8>
    410149b4:	00000e17          	auipc	x28,0x0
    410149b8:	04ce0e13          	addi	x28,x28,76 # 41014a00 <excp_return_label_9>
    410149bc:	03c23823          	sd	x28,48(x4) # 30 <SECURE_ACCESS_PROBABILITY+0x12>
    410149c0:	00000e13          	li	x28,0
    410149c4:	03c23c23          	sd	x28,56(x4) # 38 <SECURE_ACCESS_PROBABILITY+0x1a>
    410149c8:	00000e13          	li	x28,0
    410149cc:	07c23023          	sd	x28,96(x4) # 60 <XLEN+0x20>
    410149d0:	00000e13          	li	x28,0
    410149d4:	07c23423          	sd	x28,104(x4) # 68 <XLEN+0x28>
    410149d8:	00000e13          	li	x28,0
    410149dc:	07c23823          	sd	x28,112(x4) # 70 <XLEN+0x30>
    410149e0:	03615eb7          	lui	x29,0x3615
    410149e4:	5bfe8e9b          	addiw	x29,x29,1471 # 36155bf <mem6__pt_level3+0x6a15bf>
    410149e8:	00ce9e93          	slli	x29,x29,0xc

00000000410149ec <fault_label_9>:
    410149ec:	000ede03          	lhu	x28,0(x29)
    410149f0:	0001a8b7          	lui	x17,0x1a
    410149f4:	0088889b          	addiw	x17,x17,8 # 1a008 <failed_addr>
    410149f8:	0008bb83          	ld	x23,0(x17)
    410149fc:	000b8067          	jr	x23

0000000041014a00 <excp_return_label_9>:
    41014a00:	000403b7          	lui	x7,0x40
    41014a04:	0001afb7          	lui	x31,0x1a
    41014a08:	0a0f8f9b          	addiw	x31,x31,160 # 1a0a0 <machine_csr_jump_table_flags>
    41014a0c:	00200f13          	li	x30,2
    41014a10:	01efb023          	sd	x30,0(x31)
    41014a14:	000f0fb7          	lui	x31,0xf0
    41014a18:	001f8f9b          	addiw	x31,x31,1 # f0001 <mem24__pt_level4+0x7cf91>
    41014a1c:	00cf9f93          	slli	x31,x31,0xc
    41014a20:	005f8f93          	addi	x31,x31,5
    41014a24:	00000073          	ecall
    41014a28:	0030ce37          	lui	x28,0x30c
    41014a2c:	a1be0e1b          	addiw	x28,x28,-1509 # 30ba1b <mem28__pt_level4+0x7521b>
    41014a30:	00de1e13          	slli	x28,x28,0xd
    41014a34:	0b5e0e13          	addi	x28,x28,181
    41014a38:	00ce1e13          	slli	x28,x28,0xc
    41014a3c:	000e2587          	flw	f11,0(x28)
    41014a40:	000403b7          	lui	x7,0x40
    41014a44:	0001afb7          	lui	x31,0x1a
    41014a48:	0a0f8f9b          	addiw	x31,x31,160 # 1a0a0 <machine_csr_jump_table_flags>
    41014a4c:	00300f13          	li	x30,3
    41014a50:	01efb023          	sd	x30,0(x31)
    41014a54:	000f0fb7          	lui	x31,0xf0
    41014a58:	001f8f9b          	addiw	x31,x31,1 # f0001 <mem24__pt_level4+0x7cf91>
    41014a5c:	00cf9f93          	slli	x31,x31,0xc
    41014a60:	005f8f93          	addi	x31,x31,5
    41014a64:	00000073          	ecall
    41014a68:	00004237          	lui	x4,0x4
    41014a6c:	00d00e13          	li	x28,13
    41014a70:	05c23823          	sd	x28,80(x4) # 4050 <check_excp_expected_cause>
    41014a74:	00000e17          	auipc	x28,0x0
    41014a78:	05ce0e13          	addi	x28,x28,92 # 41014ad0 <fault_label_10>
    41014a7c:	03c23023          	sd	x28,32(x4) # 20 <SECURE_ACCESS_PROBABILITY+0x2>
    41014a80:	00000e13          	li	x28,0
    41014a84:	05c23023          	sd	x28,64(x4) # 40 <XLEN>
    41014a88:	00000e13          	li	x28,0
    41014a8c:	05c23423          	sd	x28,72(x4) # 48 <XLEN+0x8>
    41014a90:	00000e17          	auipc	x28,0x0
    41014a94:	054e0e13          	addi	x28,x28,84 # 41014ae4 <excp_return_label_10>
    41014a98:	03c23823          	sd	x28,48(x4) # 30 <SECURE_ACCESS_PROBABILITY+0x12>
    41014a9c:	00000e13          	li	x28,0
    41014aa0:	03c23c23          	sd	x28,56(x4) # 38 <SECURE_ACCESS_PROBABILITY+0x1a>
    41014aa4:	00000e13          	li	x28,0
    41014aa8:	07c23023          	sd	x28,96(x4) # 60 <XLEN+0x20>
    41014aac:	00000e13          	li	x28,0
    41014ab0:	07c23423          	sd	x28,104(x4) # 68 <XLEN+0x28>
    41014ab4:	00000e13          	li	x28,0
    41014ab8:	07c23823          	sd	x28,112(x4) # 70 <XLEN+0x30>
    41014abc:	0030ccb7          	lui	x25,0x30c
    41014ac0:	a1bc8c9b          	addiw	x25,x25,-1509 # 30ba1b <mem28__pt_level4+0x7521b>
    41014ac4:	00dc9c93          	slli	x25,x25,0xd
    41014ac8:	0b5c8c93          	addi	x25,x25,181
    41014acc:	00cc9c93          	slli	x25,x25,0xc

0000000041014ad0 <fault_label_10>:
    41014ad0:	000cbd03          	ld	x26,0(x25)
    41014ad4:	0001a537          	lui	x10,0x1a
    41014ad8:	0085051b          	addiw	x10,x10,8 # 1a008 <failed_addr>
    41014adc:	00053303          	ld	x6,0(x10)
    41014ae0:	00030067          	jr	x6

0000000041014ae4 <excp_return_label_10>:
    41014ae4:	006d0137          	lui	x2,0x6d0
    41014ae8:	00013383          	ld	x7,0(x2) # 6d0000 <tp_csr_storage>
    41014aec:	0001afb7          	lui	x31,0x1a
    41014af0:	0a0f8f9b          	addiw	x31,x31,160 # 1a0a0 <machine_csr_jump_table_flags>
    41014af4:	00600f13          	li	x30,6
    41014af8:	01efb023          	sd	x30,0(x31)
    41014afc:	000f0fb7          	lui	x31,0xf0
    41014b00:	001f8f9b          	addiw	x31,x31,1 # f0001 <mem24__pt_level4+0x7cf91>
    41014b04:	00cf9f93          	slli	x31,x31,0xc
    41014b08:	005f8f93          	addi	x31,x31,5
    41014b0c:	00000073          	ecall

0000000041014b10 <SID_PBVMS_014_mstatus_sum_mxr_passed>:
    41014b10:	00f00f9b          	addiw	x31,x0,15
    41014b14:	01cf9f93          	slli	x31,x31,0x1c
    41014b18:	001f8f93          	addi	x31,x31,1
    41014b1c:	00000073          	ecall

0000000041014b20 <SID_PBVMS_015_global_bit_honoured>:
    41014b20:	006d0137          	lui	x2,0x6d0
    41014b24:	0001afb7          	lui	x31,0x1a
    41014b28:	0a0f8f9b          	addiw	x31,x31,160 # 1a0a0 <machine_csr_jump_table_flags>
    41014b2c:	00700f13          	li	x30,7
    41014b30:	01efb023          	sd	x30,0(x31)
    41014b34:	000f0fb7          	lui	x31,0xf0
    41014b38:	001f8f9b          	addiw	x31,x31,1 # f0001 <mem24__pt_level4+0x7cf91>
    41014b3c:	00cf9f93          	slli	x31,x31,0xc
    41014b40:	005f8f93          	addi	x31,x31,5
    41014b44:	00000073          	ecall
    41014b48:	00713023          	sd	x7,0(x2) # 6d0000 <tp_csr_storage>
    41014b4c:	00053137          	lui	x2,0x53
    41014b50:	000012b7          	lui	x5,0x1
    41014b54:	00510133          	add	x2,x2,x5
    41014b58:	ff017113          	andi	x2,x2,-16
    41014b5c:	18002ff3          	csrr	x31,satp
    41014b60:	000f8613          	mv	x12,x31
    41014b64:	00f0079b          	addiw	x15,x0,15
    41014b68:	02c79793          	slli	x15,x15,0x2c
    41014b6c:	1807a4f3          	csrrs	x9,satp,x15
    41014b70:	5aa288b7          	lui	x17,0x5aa28
    41014b74:	7c38889b          	addiw	x17,x17,1987 # 5aa287c3 <pma_region_2_end+0x159e77c3>
    41014b78:	00c89893          	slli	x17,x17,0xc
    41014b7c:	5cb88893          	addi	x17,x17,1483
    41014b80:	00d89893          	slli	x17,x17,0xd
    41014b84:	6bc154b7          	lui	x9,0x6bc15
    41014b88:	3884849b          	addiw	x9,x9,904 # 6bc15388 <pma_region_2_end+0x26bd4388>
    41014b8c:	00989023          	sh	x9,0(x17)
    41014b90:	00f00d1b          	addiw	x26,x0,15
    41014b94:	02cd1d13          	slli	x26,x26,0x2c
    41014b98:	180d3773          	csrrc	x14,satp,x26
    41014b9c:	5aa28fb7          	lui	x31,0x5aa28
    41014ba0:	7c3f8f9b          	addiw	x31,x31,1987 # 5aa287c3 <pma_region_2_end+0x159e77c3>
    41014ba4:	00cf9f93          	slli	x31,x31,0xc
    41014ba8:	5cbf8f93          	addi	x31,x31,1483
    41014bac:	00df9f93          	slli	x31,x31,0xd
    41014bb0:	000fec03          	lwu	x24,0(x31)
    41014bb4:	18061373          	csrrw	x6,satp,x12
    41014bb8:	5aa289b7          	lui	x19,0x5aa28
    41014bbc:	7c39899b          	addiw	x19,x19,1987 # 5aa287c3 <pma_region_2_end+0x159e77c3>
    41014bc0:	00c99993          	slli	x19,x19,0xc
    41014bc4:	5cb98993          	addi	x19,x19,1483
    41014bc8:	00d99993          	slli	x19,x19,0xd
    41014bcc:	0009a383          	lw	x7,0(x19)
    41014bd0:	006d0137          	lui	x2,0x6d0
    41014bd4:	00013383          	ld	x7,0(x2) # 6d0000 <tp_csr_storage>
    41014bd8:	0001afb7          	lui	x31,0x1a
    41014bdc:	0a0f8f9b          	addiw	x31,x31,160 # 1a0a0 <machine_csr_jump_table_flags>
    41014be0:	00800f13          	li	x30,8
    41014be4:	01efb023          	sd	x30,0(x31)
    41014be8:	000f0fb7          	lui	x31,0xf0
    41014bec:	001f8f9b          	addiw	x31,x31,1 # f0001 <mem24__pt_level4+0x7cf91>
    41014bf0:	00cf9f93          	slli	x31,x31,0xc
    41014bf4:	005f8f93          	addi	x31,x31,5
    41014bf8:	00000073          	ecall

0000000041014bfc <SID_PBVMS_015_global_bit_honoured_passed>:
    41014bfc:	00f00f9b          	addiw	x31,x0,15
    41014c00:	01cf9f93          	slli	x31,x31,0x1c
    41014c04:	001f8f93          	addi	x31,x31,1
    41014c08:	00000073          	ecall

0000000041014c0c <SID_PBVMS_016_non_global_bit_honoured>:
    41014c0c:	006d0137          	lui	x2,0x6d0
    41014c10:	0001afb7          	lui	x31,0x1a
    41014c14:	0a0f8f9b          	addiw	x31,x31,160 # 1a0a0 <machine_csr_jump_table_flags>
    41014c18:	00700f13          	li	x30,7
    41014c1c:	01efb023          	sd	x30,0(x31)
    41014c20:	000f0fb7          	lui	x31,0xf0
    41014c24:	001f8f9b          	addiw	x31,x31,1 # f0001 <mem24__pt_level4+0x7cf91>
    41014c28:	00cf9f93          	slli	x31,x31,0xc
    41014c2c:	005f8f93          	addi	x31,x31,5
    41014c30:	00000073          	ecall
    41014c34:	00713023          	sd	x7,0(x2) # 6d0000 <tp_csr_storage>
    41014c38:	00261137          	lui	x2,0x261
    41014c3c:	000012b7          	lui	x5,0x1
    41014c40:	00510133          	add	x2,x2,x5
    41014c44:	ff017113          	andi	x2,x2,-16
    41014c48:	0010039b          	addiw	x7,x0,1
    41014c4c:	03239393          	slli	x7,x7,0x32
    41014c50:	0003ef03          	lwu	x30,0(x7) # 40000 <pma_region_0_size>
    41014c54:	0001afb7          	lui	x31,0x1a
    41014c58:	0b0f8f9b          	addiw	x31,x31,176 # 1a0b0 <pte_access_flags>
    41014c5c:	0010029b          	addiw	x5,x0,1
    41014c60:	03229293          	slli	x5,x5,0x32
    41014c64:	005fb023          	sd	x5,0(x31)
    41014c68:	00400293          	li	x5,4
    41014c6c:	005fb423          	sd	x5,8(x31)
    41014c70:	fff00293          	li	x5,-1
    41014c74:	005fb823          	sd	x5,16(x31)
    41014c78:	000f0fb7          	lui	x31,0xf0
    41014c7c:	001f8f9b          	addiw	x31,x31,1 # f0001 <mem24__pt_level4+0x7cf91>
    41014c80:	00cf9f93          	slli	x31,x31,0xc
    41014c84:	007f8f93          	addi	x31,x31,7
    41014c88:	00000073          	ecall
    41014c8c:	ffd00613          	li	x12,-3
    41014c90:	00c3fb33          	and	x22,x7,x12
    41014c94:	000b0393          	mv	x7,x22
    41014c98:	0001afb7          	lui	x31,0x1a
    41014c9c:	0b0f8f9b          	addiw	x31,x31,176 # 1a0b0 <pte_access_flags>
    41014ca0:	0010029b          	addiw	x5,x0,1
    41014ca4:	03229293          	slli	x5,x5,0x32
    41014ca8:	005fb023          	sd	x5,0(x31)
    41014cac:	00400293          	li	x5,4
    41014cb0:	005fb423          	sd	x5,8(x31)
    41014cb4:	fff00293          	li	x5,-1
    41014cb8:	005fb823          	sd	x5,16(x31)
    41014cbc:	000f0fb7          	lui	x31,0xf0
    41014cc0:	001f8f9b          	addiw	x31,x31,1 # f0001 <mem24__pt_level4+0x7cf91>
    41014cc4:	00cf9f93          	slli	x31,x31,0xc
    41014cc8:	008f8f93          	addi	x31,x31,8
    41014ccc:	00000073          	ecall
    41014cd0:	0ff00f1b          	addiw	x30,x0,255
    41014cd4:	02cf1f13          	slli	x30,x30,0x2c
    41014cd8:	180f2cf3          	csrrs	x25,satp,x30
    41014cdc:	12000073          	sfence.vma
    41014ce0:	00004237          	lui	x4,0x4
    41014ce4:	00d00e13          	li	x28,13
    41014ce8:	05c23823          	sd	x28,80(x4) # 4050 <check_excp_expected_cause>
    41014cec:	00000e17          	auipc	x28,0x0
    41014cf0:	050e0e13          	addi	x28,x28,80 # 41014d3c <fault_label_11>
    41014cf4:	03c23023          	sd	x28,32(x4) # 20 <SECURE_ACCESS_PROBABILITY+0x2>
    41014cf8:	00000e13          	li	x28,0
    41014cfc:	05c23023          	sd	x28,64(x4) # 40 <XLEN>
    41014d00:	00000e13          	li	x28,0
    41014d04:	05c23423          	sd	x28,72(x4) # 48 <XLEN+0x8>
    41014d08:	00000e17          	auipc	x28,0x0
    41014d0c:	048e0e13          	addi	x28,x28,72 # 41014d50 <excp_return_label_11>
    41014d10:	03c23823          	sd	x28,48(x4) # 30 <SECURE_ACCESS_PROBABILITY+0x12>
    41014d14:	00000e13          	li	x28,0
    41014d18:	03c23c23          	sd	x28,56(x4) # 38 <SECURE_ACCESS_PROBABILITY+0x1a>
    41014d1c:	00000e13          	li	x28,0
    41014d20:	07c23023          	sd	x28,96(x4) # 60 <XLEN+0x20>
    41014d24:	00000e13          	li	x28,0
    41014d28:	07c23423          	sd	x28,104(x4) # 68 <XLEN+0x28>
    41014d2c:	00000e13          	li	x28,0
    41014d30:	07c23823          	sd	x28,112(x4) # 70 <XLEN+0x30>
    41014d34:	0010061b          	addiw	x12,x0,1
    41014d38:	03261613          	slli	x12,x12,0x32

0000000041014d3c <fault_label_11>:
    41014d3c:	00063a83          	ld	x21,0(x12)
    41014d40:	0001ae37          	lui	x28,0x1a
    41014d44:	008e0e1b          	addiw	x28,x28,8 # 1a008 <failed_addr>
    41014d48:	000e3783          	ld	x15,0(x28)
    41014d4c:	00078067          	jr	x15

0000000041014d50 <excp_return_label_11>:
    41014d50:	0001afb7          	lui	x31,0x1a
    41014d54:	0b0f8f9b          	addiw	x31,x31,176 # 1a0b0 <pte_access_flags>
    41014d58:	0010029b          	addiw	x5,x0,1
    41014d5c:	03229293          	slli	x5,x5,0x32
    41014d60:	005fb023          	sd	x5,0(x31)
    41014d64:	00400293          	li	x5,4
    41014d68:	005fb423          	sd	x5,8(x31)
    41014d6c:	fff00293          	li	x5,-1
    41014d70:	005fb823          	sd	x5,16(x31)
    41014d74:	000f0fb7          	lui	x31,0xf0
    41014d78:	001f8f9b          	addiw	x31,x31,1 # f0001 <mem24__pt_level4+0x7cf91>
    41014d7c:	00cf9f93          	slli	x31,x31,0xc
    41014d80:	007f8f93          	addi	x31,x31,7
    41014d84:	00000073          	ecall
    41014d88:	00200c93          	li	x25,2
    41014d8c:	0193ecb3          	or	x25,x7,x25
    41014d90:	000c8393          	mv	x7,x25
    41014d94:	0001afb7          	lui	x31,0x1a
    41014d98:	0b0f8f9b          	addiw	x31,x31,176 # 1a0b0 <pte_access_flags>
    41014d9c:	0010029b          	addiw	x5,x0,1
    41014da0:	03229293          	slli	x5,x5,0x32
    41014da4:	005fb023          	sd	x5,0(x31)
    41014da8:	00400293          	li	x5,4
    41014dac:	005fb423          	sd	x5,8(x31)
    41014db0:	fff00293          	li	x5,-1
    41014db4:	005fb823          	sd	x5,16(x31)
    41014db8:	000f0fb7          	lui	x31,0xf0
    41014dbc:	001f8f9b          	addiw	x31,x31,1 # f0001 <mem24__pt_level4+0x7cf91>
    41014dc0:	00cf9f93          	slli	x31,x31,0xc
    41014dc4:	008f8f93          	addi	x31,x31,8
    41014dc8:	00000073          	ecall
    41014dcc:	006d0137          	lui	x2,0x6d0
    41014dd0:	00013383          	ld	x7,0(x2) # 6d0000 <tp_csr_storage>
    41014dd4:	0001afb7          	lui	x31,0x1a
    41014dd8:	0a0f8f9b          	addiw	x31,x31,160 # 1a0a0 <machine_csr_jump_table_flags>
    41014ddc:	00800f13          	li	x30,8
    41014de0:	01efb023          	sd	x30,0(x31)
    41014de4:	000f0fb7          	lui	x31,0xf0
    41014de8:	001f8f9b          	addiw	x31,x31,1 # f0001 <mem24__pt_level4+0x7cf91>
    41014dec:	00cf9f93          	slli	x31,x31,0xc
    41014df0:	005f8f93          	addi	x31,x31,5
    41014df4:	00000073          	ecall

0000000041014df8 <SID_PBVMS_016_non_global_bit_honoured_passed>:
    41014df8:	00f00f9b          	addiw	x31,x0,15
    41014dfc:	01cf9f93          	slli	x31,x31,0x1c
    41014e00:	001f8f93          	addi	x31,x31,1
    41014e04:	00000073          	ecall

0000000041014e08 <SID_PBVMS_017_global_at_non_leaf>:
    41014e08:	006d0137          	lui	x2,0x6d0
    41014e0c:	0001afb7          	lui	x31,0x1a
    41014e10:	0a0f8f9b          	addiw	x31,x31,160 # 1a0a0 <machine_csr_jump_table_flags>
    41014e14:	00700f13          	li	x30,7
    41014e18:	01efb023          	sd	x30,0(x31)
    41014e1c:	000f0fb7          	lui	x31,0xf0
    41014e20:	001f8f9b          	addiw	x31,x31,1 # f0001 <mem24__pt_level4+0x7cf91>
    41014e24:	00cf9f93          	slli	x31,x31,0xc
    41014e28:	005f8f93          	addi	x31,x31,5
    41014e2c:	00000073          	ecall
    41014e30:	00713023          	sd	x7,0(x2) # 6d0000 <tp_csr_storage>
    41014e34:	0190011b          	addiw	x2,x0,25
    41014e38:	02411113          	slli	x2,x2,0x24
    41014e3c:	fff10113          	addi	x2,x2,-1
    41014e40:	00d11113          	slli	x2,x2,0xd
    41014e44:	000012b7          	lui	x5,0x1
    41014e48:	00510133          	add	x2,x2,x5
    41014e4c:	ff017113          	andi	x2,x2,-16
    41014e50:	0001afb7          	lui	x31,0x1a
    41014e54:	0b0f8f9b          	addiw	x31,x31,176 # 1a0b0 <pte_access_flags>
    41014e58:	0010029b          	addiw	x5,x0,1
    41014e5c:	03129293          	slli	x5,x5,0x31
    41014e60:	005fb023          	sd	x5,0(x31)
    41014e64:	00100293          	li	x5,1
    41014e68:	005fb423          	sd	x5,8(x31)
    41014e6c:	fff00293          	li	x5,-1
    41014e70:	005fb823          	sd	x5,16(x31)
    41014e74:	000f0fb7          	lui	x31,0xf0
    41014e78:	001f8f9b          	addiw	x31,x31,1 # f0001 <mem24__pt_level4+0x7cf91>
    41014e7c:	00cf9f93          	slli	x31,x31,0xc
    41014e80:	007f8f93          	addi	x31,x31,7
    41014e84:	00000073          	ecall
    41014e88:	00038393          	mv	x7,x7
    41014e8c:	0001afb7          	lui	x31,0x1a
    41014e90:	0b0f8f9b          	addiw	x31,x31,176 # 1a0b0 <pte_access_flags>
    41014e94:	0010029b          	addiw	x5,x0,1
    41014e98:	03129293          	slli	x5,x5,0x31
    41014e9c:	005fb023          	sd	x5,0(x31)
    41014ea0:	00100293          	li	x5,1
    41014ea4:	005fb423          	sd	x5,8(x31)
    41014ea8:	fff00293          	li	x5,-1
    41014eac:	005fb823          	sd	x5,16(x31)
    41014eb0:	000f0fb7          	lui	x31,0xf0
    41014eb4:	001f8f9b          	addiw	x31,x31,1 # f0001 <mem24__pt_level4+0x7cf91>
    41014eb8:	00cf9f93          	slli	x31,x31,0xc
    41014ebc:	008f8f93          	addi	x31,x31,8
    41014ec0:	00000073          	ecall
    41014ec4:	0010071b          	addiw	x14,x0,1
    41014ec8:	03171713          	slli	x14,x14,0x31
    41014ecc:	00072887          	flw	f17,0(x14)
    41014ed0:	0ff00e1b          	addiw	x28,x0,255
    41014ed4:	02ce1e13          	slli	x28,x28,0x2c
    41014ed8:	180e2373          	csrrs	x6,satp,x28
    41014edc:	00100a9b          	addiw	x21,x0,1
    41014ee0:	031a9a93          	slli	x21,x21,0x31
    41014ee4:	000abb87          	fld	f23,0(x21)
    41014ee8:	006d0137          	lui	x2,0x6d0
    41014eec:	00013383          	ld	x7,0(x2) # 6d0000 <tp_csr_storage>
    41014ef0:	0001afb7          	lui	x31,0x1a
    41014ef4:	0a0f8f9b          	addiw	x31,x31,160 # 1a0a0 <machine_csr_jump_table_flags>
    41014ef8:	00800f13          	li	x30,8
    41014efc:	01efb023          	sd	x30,0(x31)
    41014f00:	000f0fb7          	lui	x31,0xf0
    41014f04:	001f8f9b          	addiw	x31,x31,1 # f0001 <mem24__pt_level4+0x7cf91>
    41014f08:	00cf9f93          	slli	x31,x31,0xc
    41014f0c:	005f8f93          	addi	x31,x31,5
    41014f10:	00000073          	ecall

0000000041014f14 <SID_PBVMS_017_global_at_non_leaf_passed>:
    41014f14:	00f00f9b          	addiw	x31,x0,15
    41014f18:	01cf9f93          	slli	x31,x31,0x1c
    41014f1c:	001f8f93          	addi	x31,x31,1
    41014f20:	00000073          	ecall

0000000041014f24 <SID_PBVMS_018_rsw_fields_writable>:
    41014f24:	002af137          	lui	x2,0x2af
    41014f28:	4811011b          	addiw	x2,x2,1153 # 2af481 <mem28__pt_level4+0x18c81>
    41014f2c:	00d11113          	slli	x2,x2,0xd
    41014f30:	000012b7          	lui	x5,0x1
    41014f34:	00510133          	add	x2,x2,x5
    41014f38:	ff017113          	andi	x2,x2,-16
    41014f3c:	0001afb7          	lui	x31,0x1a
    41014f40:	0b0f8f9b          	addiw	x31,x31,176 # 1a0b0 <pte_access_flags>
    41014f44:	0650029b          	addiw	x5,x0,101
    41014f48:	03029293          	slli	x5,x5,0x30
    41014f4c:	005fb023          	sd	x5,0(x31)
    41014f50:	00400293          	li	x5,4
    41014f54:	005fb423          	sd	x5,8(x31)
    41014f58:	fff00293          	li	x5,-1
    41014f5c:	005fb823          	sd	x5,16(x31)
    41014f60:	000f0fb7          	lui	x31,0xf0
    41014f64:	001f8f9b          	addiw	x31,x31,1 # f0001 <mem24__pt_level4+0x7cf91>
    41014f68:	00cf9f93          	slli	x31,x31,0xc
    41014f6c:	007f8f93          	addi	x31,x31,7
    41014f70:	00000073          	ecall
    41014f74:	30000a93          	li	x21,768
    41014f78:	0153e433          	or	x8,x7,x21
    41014f7c:	00040393          	mv	x7,x8
    41014f80:	0001afb7          	lui	x31,0x1a
    41014f84:	0b0f8f9b          	addiw	x31,x31,176 # 1a0b0 <pte_access_flags>
    41014f88:	0650029b          	addiw	x5,x0,101
    41014f8c:	03029293          	slli	x5,x5,0x30
    41014f90:	005fb023          	sd	x5,0(x31)
    41014f94:	00400293          	li	x5,4
    41014f98:	005fb423          	sd	x5,8(x31)
    41014f9c:	fff00293          	li	x5,-1
    41014fa0:	005fb823          	sd	x5,16(x31)
    41014fa4:	000f0fb7          	lui	x31,0xf0
    41014fa8:	001f8f9b          	addiw	x31,x31,1 # f0001 <mem24__pt_level4+0x7cf91>
    41014fac:	00cf9f93          	slli	x31,x31,0xc
    41014fb0:	008f8f93          	addi	x31,x31,8
    41014fb4:	00000073          	ecall
    41014fb8:	0001afb7          	lui	x31,0x1a
    41014fbc:	0b0f8f9b          	addiw	x31,x31,176 # 1a0b0 <pte_access_flags>
    41014fc0:	0650029b          	addiw	x5,x0,101
    41014fc4:	03029293          	slli	x5,x5,0x30
    41014fc8:	005fb023          	sd	x5,0(x31)
    41014fcc:	00400293          	li	x5,4
    41014fd0:	005fb423          	sd	x5,8(x31)
    41014fd4:	fff00293          	li	x5,-1
    41014fd8:	005fb823          	sd	x5,16(x31)
    41014fdc:	000f0fb7          	lui	x31,0xf0
    41014fe0:	001f8f9b          	addiw	x31,x31,1 # f0001 <mem24__pt_level4+0x7cf91>
    41014fe4:	00cf9f93          	slli	x31,x31,0xc
    41014fe8:	007f8f93          	addi	x31,x31,7
    41014fec:	00000073          	ecall
    41014ff0:	0153f433          	and	x8,x7,x21
    41014ff4:	01540a63          	beq	x8,x21,41015008 <pass_label_0>
    41014ff8:	0001a8b7          	lui	x17,0x1a
    41014ffc:	0088889b          	addiw	x17,x17,8 # 1a008 <failed_addr>
    41015000:	0008b603          	ld	x12,0(x17)
    41015004:	00060067          	jr	x12

0000000041015008 <pass_label_0>:
    41015008:	0001afb7          	lui	x31,0x1a
    4101500c:	0b0f8f9b          	addiw	x31,x31,176 # 1a0b0 <pte_access_flags>
    41015010:	0650029b          	addiw	x5,x0,101
    41015014:	03029293          	slli	x5,x5,0x30
    41015018:	005fb023          	sd	x5,0(x31)
    4101501c:	00100293          	li	x5,1
    41015020:	005fb423          	sd	x5,8(x31)
    41015024:	fff00293          	li	x5,-1
    41015028:	005fb823          	sd	x5,16(x31)
    4101502c:	000f0fb7          	lui	x31,0xf0
    41015030:	001f8f9b          	addiw	x31,x31,1 # f0001 <mem24__pt_level4+0x7cf91>
    41015034:	00cf9f93          	slli	x31,x31,0xc
    41015038:	007f8f93          	addi	x31,x31,7
    4101503c:	00000073          	ecall
    41015040:	0153e7b3          	or	x15,x7,x21
    41015044:	00078393          	mv	x7,x15
    41015048:	0001afb7          	lui	x31,0x1a
    4101504c:	0b0f8f9b          	addiw	x31,x31,176 # 1a0b0 <pte_access_flags>
    41015050:	0650029b          	addiw	x5,x0,101
    41015054:	03029293          	slli	x5,x5,0x30
    41015058:	005fb023          	sd	x5,0(x31)
    4101505c:	00100293          	li	x5,1
    41015060:	005fb423          	sd	x5,8(x31)
    41015064:	fff00293          	li	x5,-1
    41015068:	005fb823          	sd	x5,16(x31)
    4101506c:	000f0fb7          	lui	x31,0xf0
    41015070:	001f8f9b          	addiw	x31,x31,1 # f0001 <mem24__pt_level4+0x7cf91>
    41015074:	00cf9f93          	slli	x31,x31,0xc
    41015078:	008f8f93          	addi	x31,x31,8
    4101507c:	00000073          	ecall
    41015080:	0650049b          	addiw	x9,x0,101
    41015084:	03049493          	slli	x9,x9,0x30
    41015088:	0004ab03          	lw	x22,0(x9)

000000004101508c <SID_PBVMS_018_rsw_fields_writable_passed>:
    4101508c:	00f00f9b          	addiw	x31,x0,15
    41015090:	01cf9f93          	slli	x31,x31,0x1c
    41015094:	001f8f93          	addi	x31,x31,1
    41015098:	00000073          	ecall

000000004101509c <SID_PBVMS_021_satp_valid_to_reserved>:
    4101509c:	006d0137          	lui	x2,0x6d0
    410150a0:	0001afb7          	lui	x31,0x1a
    410150a4:	0a0f8f9b          	addiw	x31,x31,160 # 1a0a0 <machine_csr_jump_table_flags>
    410150a8:	00700f13          	li	x30,7
    410150ac:	01efb023          	sd	x30,0(x31)
    410150b0:	000f0fb7          	lui	x31,0xf0
    410150b4:	001f8f9b          	addiw	x31,x31,1 # f0001 <mem24__pt_level4+0x7cf91>
    410150b8:	00cf9f93          	slli	x31,x31,0xc
    410150bc:	005f8f93          	addi	x31,x31,5
    410150c0:	00000073          	ecall
    410150c4:	00713023          	sd	x7,0(x2) # 6d0000 <tp_csr_storage>
    410150c8:	7e2c6137          	lui	x2,0x7e2c6
    410150cc:	1311011b          	addiw	x2,x2,305 # 7e2c6131 <pma_region_2_end+0x39285131>
    410150d0:	00c11113          	slli	x2,x2,0xc
    410150d4:	000012b7          	lui	x5,0x1
    410150d8:	00510133          	add	x2,x2,x5
    410150dc:	ff017113          	andi	x2,x2,-16
    410150e0:	18002473          	csrr	x8,satp
    410150e4:	0010049b          	addiw	x9,x0,1
    410150e8:	03d49493          	slli	x9,x9,0x3d
    410150ec:	180498f3          	csrrw	x17,satp,x9
    410150f0:	18002973          	csrr	x18,satp
    410150f4:	01240a63          	beq	x8,x18,41015108 <pass_label_1>
    410150f8:	0001a8b7          	lui	x17,0x1a
    410150fc:	0088889b          	addiw	x17,x17,8 # 1a008 <failed_addr>
    41015100:	0008b683          	ld	x13,0(x17)
    41015104:	00068067          	jr	x13

0000000041015108 <pass_label_1>:
    41015108:	006d0137          	lui	x2,0x6d0
    4101510c:	00013383          	ld	x7,0(x2) # 6d0000 <tp_csr_storage>
    41015110:	0001afb7          	lui	x31,0x1a
    41015114:	0a0f8f9b          	addiw	x31,x31,160 # 1a0a0 <machine_csr_jump_table_flags>
    41015118:	00800f13          	li	x30,8
    4101511c:	01efb023          	sd	x30,0(x31)
    41015120:	000f0fb7          	lui	x31,0xf0
    41015124:	001f8f9b          	addiw	x31,x31,1 # f0001 <mem24__pt_level4+0x7cf91>
    41015128:	00cf9f93          	slli	x31,x31,0xc
    4101512c:	005f8f93          	addi	x31,x31,5
    41015130:	00000073          	ecall

0000000041015134 <SID_PBVMS_021_satp_valid_to_reserved_passed>:
    41015134:	00f00f9b          	addiw	x31,x0,15
    41015138:	01cf9f93          	slli	x31,x31,0x1c
    4101513c:	001f8f93          	addi	x31,x31,1
    41015140:	00000073          	ecall

0000000041015144 <SID_PBVMS_022_satp_csr_accessibility>:
    41015144:	006d0137          	lui	x2,0x6d0
    41015148:	0001afb7          	lui	x31,0x1a
    4101514c:	0a0f8f9b          	addiw	x31,x31,160 # 1a0a0 <machine_csr_jump_table_flags>
    41015150:	00700f13          	li	x30,7
    41015154:	01efb023          	sd	x30,0(x31)
    41015158:	000f0fb7          	lui	x31,0xf0
    4101515c:	001f8f9b          	addiw	x31,x31,1 # f0001 <mem24__pt_level4+0x7cf91>
    41015160:	00cf9f93          	slli	x31,x31,0xc
    41015164:	005f8f93          	addi	x31,x31,5
    41015168:	00000073          	ecall
    4101516c:	00713023          	sd	x7,0(x2) # 6d0000 <tp_csr_storage>
    41015170:	00024137          	lui	x2,0x24
    41015174:	4d71011b          	addiw	x2,x2,1239 # 244d7 <mem11__pt_level4+0xcaf>
    41015178:	00e11113          	slli	x2,x2,0xe
    4101517c:	98310113          	addi	x2,x2,-1661
    41015180:	00f11113          	slli	x2,x2,0xf
    41015184:	000012b7          	lui	x5,0x1
    41015188:	00510133          	add	x2,x2,x5
    4101518c:	ff017113          	andi	x2,x2,-16
    41015190:	180029f3          	csrr	x19,satp
    41015194:	18099cf3          	csrrw	x25,satp,x19
    41015198:	006d0137          	lui	x2,0x6d0
    4101519c:	00013383          	ld	x7,0(x2) # 6d0000 <tp_csr_storage>
    410151a0:	0001afb7          	lui	x31,0x1a
    410151a4:	0a0f8f9b          	addiw	x31,x31,160 # 1a0a0 <machine_csr_jump_table_flags>
    410151a8:	00800f13          	li	x30,8
    410151ac:	01efb023          	sd	x30,0(x31)
    410151b0:	000f0fb7          	lui	x31,0xf0
    410151b4:	001f8f9b          	addiw	x31,x31,1 # f0001 <mem24__pt_level4+0x7cf91>
    410151b8:	00cf9f93          	slli	x31,x31,0xc
    410151bc:	005f8f93          	addi	x31,x31,5
    410151c0:	00000073          	ecall

00000000410151c4 <SID_PBVMS_022_satp_csr_accessibility_passed>:
    410151c4:	00f00f9b          	addiw	x31,x0,15
    410151c8:	01cf9f93          	slli	x31,x31,0x1c
    410151cc:	001f8f93          	addi	x31,x31,1
    410151d0:	00000073          	ecall

00000000410151d4 <SID_PBVMS_023_satp_asidlen_discovery>:
    410151d4:	006d0137          	lui	x2,0x6d0
    410151d8:	0001afb7          	lui	x31,0x1a
    410151dc:	0a0f8f9b          	addiw	x31,x31,160 # 1a0a0 <machine_csr_jump_table_flags>
    410151e0:	00700f13          	li	x30,7
    410151e4:	01efb023          	sd	x30,0(x31)
    410151e8:	000f0fb7          	lui	x31,0xf0
    410151ec:	001f8f9b          	addiw	x31,x31,1 # f0001 <mem24__pt_level4+0x7cf91>
    410151f0:	00cf9f93          	slli	x31,x31,0xc
    410151f4:	005f8f93          	addi	x31,x31,5
    410151f8:	00000073          	ecall
    410151fc:	00713023          	sd	x7,0(x2) # 6d0000 <tp_csr_storage>
    41015200:	0012e137          	lui	x2,0x12e
    41015204:	9d71011b          	addiw	x2,x2,-1577 # 12d9d7 <mem23__pt_level1+0xa9d7>
    41015208:	00e11113          	slli	x2,x2,0xe
    4101520c:	000012b7          	lui	x5,0x1
    41015210:	00510133          	add	x2,x2,x5
    41015214:	ff017113          	andi	x2,x2,-16
    41015218:	18002773          	csrr	x14,satp
    4101521c:	00010537          	lui	x10,0x10
    41015220:	fff5051b          	addiw	x10,x10,-1 # ffff <mem29__pt_level0+0x1fff>
    41015224:	02c51513          	slli	x10,x10,0x2c
    41015228:	00a76333          	or	x6,x14,x10
    4101522c:	18031d73          	csrrw	x26,satp,x6
    41015230:	18002473          	csrr	x8,satp
    41015234:	02c00e93          	li	x29,44
    41015238:	01d45833          	srl	x16,x8,x29
    4101523c:	00010fb7          	lui	x31,0x10
    41015240:	ffff8f9b          	addiw	x31,x31,-1 # ffff <mem29__pt_level0+0x1fff>
    41015244:	01f87cb3          	and	x25,x16,x31
    41015248:	01fc8a63          	beq	x25,x31,4101525c <pass_label_2>
    4101524c:	0001a7b7          	lui	x15,0x1a
    41015250:	0087879b          	addiw	x15,x15,8 # 1a008 <failed_addr>
    41015254:	0007bc83          	ld	x25,0(x15)
    41015258:	000c8067          	jr	x25

000000004101525c <pass_label_2>:
    4101525c:	006d0137          	lui	x2,0x6d0
    41015260:	00013383          	ld	x7,0(x2) # 6d0000 <tp_csr_storage>
    41015264:	0001afb7          	lui	x31,0x1a
    41015268:	0a0f8f9b          	addiw	x31,x31,160 # 1a0a0 <machine_csr_jump_table_flags>
    4101526c:	00800f13          	li	x30,8
    41015270:	01efb023          	sd	x30,0(x31)
    41015274:	000f0fb7          	lui	x31,0xf0
    41015278:	001f8f9b          	addiw	x31,x31,1 # f0001 <mem24__pt_level4+0x7cf91>
    4101527c:	00cf9f93          	slli	x31,x31,0xc
    41015280:	005f8f93          	addi	x31,x31,5
    41015284:	00000073          	ecall

0000000041015288 <SID_PBVMS_023_satp_asidlen_discovery_passed>:
    41015288:	00f00f9b          	addiw	x31,x0,15
    4101528c:	01cf9f93          	slli	x31,x31,0x1c
    41015290:	001f8f93          	addi	x31,x31,1
    41015294:	00000073          	ecall

0000000041015298 <SID_PBVMS_025_mstatus_tvm_satp_access>:
    41015298:	006d0137          	lui	x2,0x6d0
    4101529c:	0001afb7          	lui	x31,0x1a
    410152a0:	0a0f8f9b          	addiw	x31,x31,160 # 1a0a0 <machine_csr_jump_table_flags>
    410152a4:	00100f13          	li	x30,1
    410152a8:	01efb023          	sd	x30,0(x31)
    410152ac:	000f0fb7          	lui	x31,0xf0
    410152b0:	001f8f9b          	addiw	x31,x31,1 # f0001 <mem24__pt_level4+0x7cf91>
    410152b4:	00cf9f93          	slli	x31,x31,0xc
    410152b8:	005f8f93          	addi	x31,x31,5
    410152bc:	00000073          	ecall
    410152c0:	00713023          	sd	x7,0(x2) # 6d0000 <tp_csr_storage>
    410152c4:	0000c137          	lui	x2,0xc
    410152c8:	000012b7          	lui	x5,0x1
    410152cc:	00510133          	add	x2,x2,x5
    410152d0:	ff017113          	andi	x2,x2,-16
    410152d4:	001003b7          	lui	x7,0x100
    410152d8:	0001afb7          	lui	x31,0x1a
    410152dc:	0a0f8f9b          	addiw	x31,x31,160 # 1a0a0 <machine_csr_jump_table_flags>
    410152e0:	00200f13          	li	x30,2
    410152e4:	01efb023          	sd	x30,0(x31)
    410152e8:	000f0fb7          	lui	x31,0xf0
    410152ec:	001f8f9b          	addiw	x31,x31,1 # f0001 <mem24__pt_level4+0x7cf91>
    410152f0:	00cf9f93          	slli	x31,x31,0xc
    410152f4:	005f8f93          	addi	x31,x31,5
    410152f8:	00000073          	ecall
    410152fc:	00004237          	lui	x4,0x4
    41015300:	00200e13          	li	x28,2
    41015304:	05c23823          	sd	x28,80(x4) # 4050 <check_excp_expected_cause>
    41015308:	00000e17          	auipc	x28,0x0
    4101530c:	048e0e13          	addi	x28,x28,72 # 41015350 <fault_label_12>
    41015310:	03c23023          	sd	x28,32(x4) # 20 <SECURE_ACCESS_PROBABILITY+0x2>
    41015314:	00000e13          	li	x28,0
    41015318:	05c23023          	sd	x28,64(x4) # 40 <XLEN>
    4101531c:	00000e13          	li	x28,0
    41015320:	05c23423          	sd	x28,72(x4) # 48 <XLEN+0x8>
    41015324:	00000e17          	auipc	x28,0x0
    41015328:	040e0e13          	addi	x28,x28,64 # 41015364 <excp_return_label_12>
    4101532c:	03c23823          	sd	x28,48(x4) # 30 <SECURE_ACCESS_PROBABILITY+0x12>
    41015330:	00000e13          	li	x28,0
    41015334:	03c23c23          	sd	x28,56(x4) # 38 <SECURE_ACCESS_PROBABILITY+0x1a>
    41015338:	00000e13          	li	x28,0
    4101533c:	07c23023          	sd	x28,96(x4) # 60 <XLEN+0x20>
    41015340:	00000e13          	li	x28,0
    41015344:	07c23423          	sd	x28,104(x4) # 68 <XLEN+0x28>
    41015348:	00000e13          	li	x28,0
    4101534c:	07c23823          	sd	x28,112(x4) # 70 <XLEN+0x30>

0000000041015350 <fault_label_12>:
    41015350:	18002ef3          	csrr	x29,satp
    41015354:	0001ad37          	lui	x26,0x1a
    41015358:	008d0d1b          	addiw	x26,x26,8 # 1a008 <failed_addr>
    4101535c:	000d3b83          	ld	x23,0(x26)
    41015360:	000b8067          	jr	x23

0000000041015364 <excp_return_label_12>:
    41015364:	00004237          	lui	x4,0x4
    41015368:	00200e13          	li	x28,2
    4101536c:	05c23823          	sd	x28,80(x4) # 4050 <check_excp_expected_cause>
    41015370:	00000e17          	auipc	x28,0x0
    41015374:	048e0e13          	addi	x28,x28,72 # 410153b8 <fault_label_13>
    41015378:	03c23023          	sd	x28,32(x4) # 20 <SECURE_ACCESS_PROBABILITY+0x2>
    4101537c:	00000e13          	li	x28,0
    41015380:	05c23023          	sd	x28,64(x4) # 40 <XLEN>
    41015384:	00000e13          	li	x28,0
    41015388:	05c23423          	sd	x28,72(x4) # 48 <XLEN+0x8>
    4101538c:	00000e17          	auipc	x28,0x0
    41015390:	040e0e13          	addi	x28,x28,64 # 410153cc <excp_return_label_13>
    41015394:	03c23823          	sd	x28,48(x4) # 30 <SECURE_ACCESS_PROBABILITY+0x12>
    41015398:	00000e13          	li	x28,0
    4101539c:	03c23c23          	sd	x28,56(x4) # 38 <SECURE_ACCESS_PROBABILITY+0x1a>
    410153a0:	00000e13          	li	x28,0
    410153a4:	07c23023          	sd	x28,96(x4) # 60 <XLEN+0x20>
    410153a8:	00000e13          	li	x28,0
    410153ac:	07c23423          	sd	x28,104(x4) # 68 <XLEN+0x28>
    410153b0:	00000e13          	li	x28,0
    410153b4:	07c23823          	sd	x28,112(x4) # 70 <XLEN+0x30>

00000000410153b8 <fault_label_13>:
    410153b8:	18005473          	csrrwi	x8,satp,0
    410153bc:	0001aa37          	lui	x20,0x1a
    410153c0:	008a0a1b          	addiw	x20,x20,8 # 1a008 <failed_addr>
    410153c4:	000a3703          	ld	x14,0(x20)
    410153c8:	00070067          	jr	x14

00000000410153cc <excp_return_label_13>:
    410153cc:	001003b7          	lui	x7,0x100
    410153d0:	0001afb7          	lui	x31,0x1a
    410153d4:	0a0f8f9b          	addiw	x31,x31,160 # 1a0a0 <machine_csr_jump_table_flags>
    410153d8:	00300f13          	li	x30,3
    410153dc:	01efb023          	sd	x30,0(x31)
    410153e0:	000f0fb7          	lui	x31,0xf0
    410153e4:	001f8f9b          	addiw	x31,x31,1 # f0001 <mem24__pt_level4+0x7cf91>
    410153e8:	00cf9f93          	slli	x31,x31,0xc
    410153ec:	005f8f93          	addi	x31,x31,5
    410153f0:	00000073          	ecall
    410153f4:	18002af3          	csrr	x21,satp
    410153f8:	006d0137          	lui	x2,0x6d0
    410153fc:	00013383          	ld	x7,0(x2) # 6d0000 <tp_csr_storage>
    41015400:	0001afb7          	lui	x31,0x1a
    41015404:	0a0f8f9b          	addiw	x31,x31,160 # 1a0a0 <machine_csr_jump_table_flags>
    41015408:	00600f13          	li	x30,6
    4101540c:	01efb023          	sd	x30,0(x31)
    41015410:	000f0fb7          	lui	x31,0xf0
    41015414:	001f8f9b          	addiw	x31,x31,1 # f0001 <mem24__pt_level4+0x7cf91>
    41015418:	00cf9f93          	slli	x31,x31,0xc
    4101541c:	005f8f93          	addi	x31,x31,5
    41015420:	00000073          	ecall

0000000041015424 <SID_PBVMS_025_mstatus_tvm_satp_access_passed>:
    41015424:	00f00f9b          	addiw	x31,x0,15
    41015428:	01cf9f93          	slli	x31,x31,0x1c
    4101542c:	001f8f93          	addi	x31,x31,1
    41015430:	00000073          	ecall

0000000041015434 <SID_PBVMS_026_tlb_asid_match>:
    41015434:	006d0137          	lui	x2,0x6d0
    41015438:	0001afb7          	lui	x31,0x1a
    4101543c:	0a0f8f9b          	addiw	x31,x31,160 # 1a0a0 <machine_csr_jump_table_flags>
    41015440:	00700f13          	li	x30,7
    41015444:	01efb023          	sd	x30,0(x31)
    41015448:	000f0fb7          	lui	x31,0xf0
    4101544c:	001f8f9b          	addiw	x31,x31,1 # f0001 <mem24__pt_level4+0x7cf91>
    41015450:	00cf9f93          	slli	x31,x31,0xc
    41015454:	005f8f93          	addi	x31,x31,5
    41015458:	00000073          	ecall
    4101545c:	00713023          	sd	x7,0(x2) # 6d0000 <tp_csr_storage>
    41015460:	0006b137          	lui	x2,0x6b
    41015464:	9151011b          	addiw	x2,x2,-1771 # 6a915 <mem28__pt_level2+0xc915>
    41015468:	00e11113          	slli	x2,x2,0xe
    4101546c:	000012b7          	lui	x5,0x1
    41015470:	00510133          	add	x2,x2,x5
    41015474:	ff017113          	andi	x2,x2,-16
    41015478:	18002c73          	csrr	x24,satp
    4101547c:	00100e1b          	addiw	x28,x0,1
    41015480:	02ce1e13          	slli	x28,x28,0x2c
    41015484:	180e29f3          	csrrs	x19,satp,x28
    41015488:	00700d1b          	addiw	x26,x0,7
    4101548c:	031d1d13          	slli	x26,x26,0x31
    41015490:	000d4603          	lbu	x12,0(x26)
    41015494:	0001afb7          	lui	x31,0x1a
    41015498:	0b0f8f9b          	addiw	x31,x31,176 # 1a0b0 <pte_access_flags>
    4101549c:	0070029b          	addiw	x5,x0,7
    410154a0:	03129293          	slli	x5,x5,0x31
    410154a4:	005fb023          	sd	x5,0(x31)
    410154a8:	00400293          	li	x5,4
    410154ac:	005fb423          	sd	x5,8(x31)
    410154b0:	fff00293          	li	x5,-1
    410154b4:	005fb823          	sd	x5,16(x31)
    410154b8:	000f0fb7          	lui	x31,0xf0
    410154bc:	001f8f9b          	addiw	x31,x31,1 # f0001 <mem24__pt_level4+0x7cf91>
    410154c0:	00cf9f93          	slli	x31,x31,0xc
    410154c4:	007f8f93          	addi	x31,x31,7
    410154c8:	00000073          	ecall
    410154cc:	ffd00c93          	li	x25,-3
    410154d0:	0193f533          	and	x10,x7,x25
    410154d4:	00050393          	mv	x7,x10
    410154d8:	0001afb7          	lui	x31,0x1a
    410154dc:	0b0f8f9b          	addiw	x31,x31,176 # 1a0b0 <pte_access_flags>
    410154e0:	0070029b          	addiw	x5,x0,7
    410154e4:	03129293          	slli	x5,x5,0x31
    410154e8:	005fb023          	sd	x5,0(x31)
    410154ec:	00400293          	li	x5,4
    410154f0:	005fb423          	sd	x5,8(x31)
    410154f4:	fff00293          	li	x5,-1
    410154f8:	005fb823          	sd	x5,16(x31)
    410154fc:	000f0fb7          	lui	x31,0xf0
    41015500:	001f8f9b          	addiw	x31,x31,1 # f0001 <mem24__pt_level4+0x7cf91>
    41015504:	00cf9f93          	slli	x31,x31,0xc
    41015508:	008f8f93          	addi	x31,x31,8
    4101550c:	00000073          	ecall
    41015510:	00100d1b          	addiw	x26,x0,1
    41015514:	02dd1d13          	slli	x26,x26,0x2d
    41015518:	180d2b73          	csrrs	x22,satp,x26
    4101551c:	12000073          	sfence.vma
    41015520:	00004237          	lui	x4,0x4
    41015524:	00d00e13          	li	x28,13
    41015528:	05c23823          	sd	x28,80(x4) # 4050 <check_excp_expected_cause>
    4101552c:	00000e17          	auipc	x28,0x0
    41015530:	050e0e13          	addi	x28,x28,80 # 4101557c <fault_label_14>
    41015534:	03c23023          	sd	x28,32(x4) # 20 <SECURE_ACCESS_PROBABILITY+0x2>
    41015538:	00000e13          	li	x28,0
    4101553c:	05c23023          	sd	x28,64(x4) # 40 <XLEN>
    41015540:	00000e13          	li	x28,0
    41015544:	05c23423          	sd	x28,72(x4) # 48 <XLEN+0x8>
    41015548:	00000e17          	auipc	x28,0x0
    4101554c:	048e0e13          	addi	x28,x28,72 # 41015590 <excp_return_label_14>
    41015550:	03c23823          	sd	x28,48(x4) # 30 <SECURE_ACCESS_PROBABILITY+0x12>
    41015554:	00000e13          	li	x28,0
    41015558:	03c23c23          	sd	x28,56(x4) # 38 <SECURE_ACCESS_PROBABILITY+0x1a>
    4101555c:	00000e13          	li	x28,0
    41015560:	07c23023          	sd	x28,96(x4) # 60 <XLEN+0x20>
    41015564:	00000e13          	li	x28,0
    41015568:	07c23423          	sd	x28,104(x4) # 68 <XLEN+0x28>
    4101556c:	00000e13          	li	x28,0
    41015570:	07c23823          	sd	x28,112(x4) # 70 <XLEN+0x30>
    41015574:	0070091b          	addiw	x18,x0,7
    41015578:	03191913          	slli	x18,x18,0x31

000000004101557c <fault_label_14>:
    4101557c:	00091c03          	lh	x24,0(x18)
    41015580:	0001afb7          	lui	x31,0x1a
    41015584:	008f8f9b          	addiw	x31,x31,8 # 1a008 <failed_addr>
    41015588:	000fb303          	ld	x6,0(x31)
    4101558c:	00030067          	jr	x6

0000000041015590 <excp_return_label_14>:
    41015590:	0001afb7          	lui	x31,0x1a
    41015594:	0b0f8f9b          	addiw	x31,x31,176 # 1a0b0 <pte_access_flags>
    41015598:	0070029b          	addiw	x5,x0,7
    4101559c:	03129293          	slli	x5,x5,0x31
    410155a0:	005fb023          	sd	x5,0(x31)
    410155a4:	00400293          	li	x5,4
    410155a8:	005fb423          	sd	x5,8(x31)
    410155ac:	fff00293          	li	x5,-1
    410155b0:	005fb823          	sd	x5,16(x31)
    410155b4:	000f0fb7          	lui	x31,0xf0
    410155b8:	001f8f9b          	addiw	x31,x31,1 # f0001 <mem24__pt_level4+0x7cf91>
    410155bc:	00cf9f93          	slli	x31,x31,0xc
    410155c0:	007f8f93          	addi	x31,x31,7
    410155c4:	00000073          	ecall
    410155c8:	00200b93          	li	x23,2
    410155cc:	0173eb33          	or	x22,x7,x23
    410155d0:	000b0393          	mv	x7,x22
    410155d4:	0001afb7          	lui	x31,0x1a
    410155d8:	0b0f8f9b          	addiw	x31,x31,176 # 1a0b0 <pte_access_flags>
    410155dc:	0070029b          	addiw	x5,x0,7
    410155e0:	03129293          	slli	x5,x5,0x31
    410155e4:	005fb023          	sd	x5,0(x31)
    410155e8:	00400293          	li	x5,4
    410155ec:	005fb423          	sd	x5,8(x31)
    410155f0:	fff00293          	li	x5,-1
    410155f4:	005fb823          	sd	x5,16(x31)
    410155f8:	000f0fb7          	lui	x31,0xf0
    410155fc:	001f8f9b          	addiw	x31,x31,1 # f0001 <mem24__pt_level4+0x7cf91>
    41015600:	00cf9f93          	slli	x31,x31,0xc
    41015604:	008f8f93          	addi	x31,x31,8
    41015608:	00000073          	ecall
    4101560c:	006d0137          	lui	x2,0x6d0
    41015610:	00013383          	ld	x7,0(x2) # 6d0000 <tp_csr_storage>
    41015614:	0001afb7          	lui	x31,0x1a
    41015618:	0a0f8f9b          	addiw	x31,x31,160 # 1a0a0 <machine_csr_jump_table_flags>
    4101561c:	00800f13          	li	x30,8
    41015620:	01efb023          	sd	x30,0(x31)
    41015624:	000f0fb7          	lui	x31,0xf0
    41015628:	001f8f9b          	addiw	x31,x31,1 # f0001 <mem24__pt_level4+0x7cf91>
    4101562c:	00cf9f93          	slli	x31,x31,0xc
    41015630:	005f8f93          	addi	x31,x31,5
    41015634:	00000073          	ecall

0000000041015638 <SID_PBVMS_026_tlb_asid_match_passed>:
    41015638:	00f00f9b          	addiw	x31,x0,15
    4101563c:	01cf9f93          	slli	x31,x31,0x1c
    41015640:	001f8f93          	addi	x31,x31,1
    41015644:	00000073          	ecall

0000000041015648 <SID_PBVMS_028_sfence_vma_opcode_coverage>:
    41015648:	001d5137          	lui	x2,0x1d5
    4101564c:	c0b1011b          	addiw	x2,x2,-1013 # 1d4c0b <mem35__pt_level2+0x8dc0b>
    41015650:	00d11113          	slli	x2,x2,0xd
    41015654:	88b10113          	addi	x2,x2,-1909
    41015658:	00c11113          	slli	x2,x2,0xc
    4101565c:	000012b7          	lui	x5,0x1
    41015660:	00510133          	add	x2,x2,x5
    41015664:	ff017113          	andi	x2,x2,-16
    41015668:	c0e55937          	lui	x18,0xc0e55
    4101566c:	f2f9091b          	addiw	x18,x18,-209 # ffffffffc0e54f2f <mem37+0x9effffc0e54f2f>
    41015670:	00e91913          	slli	x18,x18,0xe
    41015674:	84590913          	addi	x18,x18,-1979
    41015678:	00c91913          	slli	x18,x18,0xc
    4101567c:	00100793          	li	x15,1
    41015680:	12000073          	sfence.vma
    41015684:	12090073          	sfence.vma	x18
    41015688:	12f00073          	sfence.vma	x0,x15
    4101568c:	12f90073          	sfence.vma	x18,x15

0000000041015690 <SID_PBVMS_028_sfence_vma_opcode_coverage_passed>:
    41015690:	00f00f9b          	addiw	x31,x0,15
    41015694:	01cf9f93          	slli	x31,x31,0x1c
    41015698:	001f8f93          	addi	x31,x31,1
    4101569c:	00000073          	ecall

00000000410156a0 <SID_PBVMS_029_ordering_satp_mstatus_without_sfence>:
    410156a0:	006d0137          	lui	x2,0x6d0
    410156a4:	0001afb7          	lui	x31,0x1a
    410156a8:	0a0f8f9b          	addiw	x31,x31,160 # 1a0a0 <machine_csr_jump_table_flags>
    410156ac:	00100f13          	li	x30,1
    410156b0:	01efb023          	sd	x30,0(x31)
    410156b4:	000f0fb7          	lui	x31,0xf0
    410156b8:	001f8f9b          	addiw	x31,x31,1 # f0001 <mem24__pt_level4+0x7cf91>
    410156bc:	00cf9f93          	slli	x31,x31,0xc
    410156c0:	005f8f93          	addi	x31,x31,5
    410156c4:	00000073          	ecall
    410156c8:	00713023          	sd	x7,0(x2) # 6d0000 <tp_csr_storage>
    410156cc:	02029137          	lui	x2,0x2029
    410156d0:	6d91011b          	addiw	x2,x2,1753 # 20296d9 <mem37__pt_level1+0x9d66d9>
    410156d4:	00f11113          	slli	x2,x2,0xf
    410156d8:	9ef10113          	addi	x2,x2,-1553
    410156dc:	00c11113          	slli	x2,x2,0xc
    410156e0:	000012b7          	lui	x5,0x1
    410156e4:	00510133          	add	x2,x2,x5
    410156e8:	ff017113          	andi	x2,x2,-16
    410156ec:	000803b7          	lui	x7,0x80
    410156f0:	0001afb7          	lui	x31,0x1a
    410156f4:	0a0f8f9b          	addiw	x31,x31,160 # 1a0a0 <machine_csr_jump_table_flags>
    410156f8:	00200f13          	li	x30,2
    410156fc:	01efb023          	sd	x30,0(x31)
    41015700:	000f0fb7          	lui	x31,0xf0
    41015704:	001f8f9b          	addiw	x31,x31,1 # f0001 <mem24__pt_level4+0x7cf91>
    41015708:	00cf9f93          	slli	x31,x31,0xc
    4101570c:	005f8f93          	addi	x31,x31,5
    41015710:	00000073          	ecall
    41015714:	001aa3b7          	lui	x7,0x1aa
    41015718:	8a53839b          	addiw	x7,x7,-1883 # 1a98a5 <mem35__pt_level2+0x628a5>
    4101571c:	00c39393          	slli	x7,x7,0xc
    41015720:	00038c83          	lb	x25,0(x7)
    41015724:	000803b7          	lui	x7,0x80
    41015728:	0001afb7          	lui	x31,0x1a
    4101572c:	0a0f8f9b          	addiw	x31,x31,160 # 1a0a0 <machine_csr_jump_table_flags>
    41015730:	00300f13          	li	x30,3
    41015734:	01efb023          	sd	x30,0(x31)
    41015738:	000f0fb7          	lui	x31,0xf0
    4101573c:	001f8f9b          	addiw	x31,x31,1 # f0001 <mem24__pt_level4+0x7cf91>
    41015740:	00cf9f93          	slli	x31,x31,0xc
    41015744:	005f8f93          	addi	x31,x31,5
    41015748:	00000073          	ecall
    4101574c:	00004237          	lui	x4,0x4
    41015750:	00d00e13          	li	x28,13
    41015754:	05c23823          	sd	x28,80(x4) # 4050 <check_excp_expected_cause>
    41015758:	00000e17          	auipc	x28,0x0
    4101575c:	054e0e13          	addi	x28,x28,84 # 410157ac <fault_label_15>
    41015760:	03c23023          	sd	x28,32(x4) # 20 <SECURE_ACCESS_PROBABILITY+0x2>
    41015764:	00000e13          	li	x28,0
    41015768:	05c23023          	sd	x28,64(x4) # 40 <XLEN>
    4101576c:	00000e13          	li	x28,0
    41015770:	05c23423          	sd	x28,72(x4) # 48 <XLEN+0x8>
    41015774:	00000e17          	auipc	x28,0x0
    41015778:	04ce0e13          	addi	x28,x28,76 # 410157c0 <excp_return_label_15>
    4101577c:	03c23823          	sd	x28,48(x4) # 30 <SECURE_ACCESS_PROBABILITY+0x12>
    41015780:	00000e13          	li	x28,0
    41015784:	03c23c23          	sd	x28,56(x4) # 38 <SECURE_ACCESS_PROBABILITY+0x1a>
    41015788:	00000e13          	li	x28,0
    4101578c:	07c23023          	sd	x28,96(x4) # 60 <XLEN+0x20>
    41015790:	00000e13          	li	x28,0
    41015794:	07c23423          	sd	x28,104(x4) # 68 <XLEN+0x28>
    41015798:	00000e13          	li	x28,0
    4101579c:	07c23823          	sd	x28,112(x4) # 70 <XLEN+0x30>
    410157a0:	001aa3b7          	lui	x7,0x1aa
    410157a4:	8a53839b          	addiw	x7,x7,-1883 # 1a98a5 <mem35__pt_level2+0x628a5>
    410157a8:	00c39393          	slli	x7,x7,0xc

00000000410157ac <fault_label_15>:
    410157ac:	0003b583          	ld	x11,0(x7)
    410157b0:	0001a937          	lui	x18,0x1a
    410157b4:	0089091b          	addiw	x18,x18,8 # 1a008 <failed_addr>
    410157b8:	00093b03          	ld	x22,0(x18)
    410157bc:	000b0067          	jr	x22

00000000410157c0 <excp_return_label_15>:
    410157c0:	000403b7          	lui	x7,0x40
    410157c4:	0001afb7          	lui	x31,0x1a
    410157c8:	0a0f8f9b          	addiw	x31,x31,160 # 1a0a0 <machine_csr_jump_table_flags>
    410157cc:	00200f13          	li	x30,2
    410157d0:	01efb023          	sd	x30,0(x31)
    410157d4:	000f0fb7          	lui	x31,0xf0
    410157d8:	001f8f9b          	addiw	x31,x31,1 # f0001 <mem24__pt_level4+0x7cf91>
    410157dc:	00cf9f93          	slli	x31,x31,0xc
    410157e0:	005f8f93          	addi	x31,x31,5
    410157e4:	00000073          	ecall
    410157e8:	0050071b          	addiw	x14,x0,5
    410157ec:	03071713          	slli	x14,x14,0x30
    410157f0:	00071883          	lh	x17,0(x14)
    410157f4:	000403b7          	lui	x7,0x40
    410157f8:	0001afb7          	lui	x31,0x1a
    410157fc:	0a0f8f9b          	addiw	x31,x31,160 # 1a0a0 <machine_csr_jump_table_flags>
    41015800:	00300f13          	li	x30,3
    41015804:	01efb023          	sd	x30,0(x31)
    41015808:	000f0fb7          	lui	x31,0xf0
    4101580c:	001f8f9b          	addiw	x31,x31,1 # f0001 <mem24__pt_level4+0x7cf91>
    41015810:	00cf9f93          	slli	x31,x31,0xc
    41015814:	005f8f93          	addi	x31,x31,5
    41015818:	00000073          	ecall
    4101581c:	00004237          	lui	x4,0x4
    41015820:	00d00e13          	li	x28,13
    41015824:	05c23823          	sd	x28,80(x4) # 4050 <check_excp_expected_cause>
    41015828:	00000e17          	auipc	x28,0x0
    4101582c:	050e0e13          	addi	x28,x28,80 # 41015878 <fault_label_16>
    41015830:	03c23023          	sd	x28,32(x4) # 20 <SECURE_ACCESS_PROBABILITY+0x2>
    41015834:	00000e13          	li	x28,0
    41015838:	05c23023          	sd	x28,64(x4) # 40 <XLEN>
    4101583c:	00000e13          	li	x28,0
    41015840:	05c23423          	sd	x28,72(x4) # 48 <XLEN+0x8>
    41015844:	00000e17          	auipc	x28,0x0
    41015848:	048e0e13          	addi	x28,x28,72 # 4101588c <excp_return_label_16>
    4101584c:	03c23823          	sd	x28,48(x4) # 30 <SECURE_ACCESS_PROBABILITY+0x12>
    41015850:	00000e13          	li	x28,0
    41015854:	03c23c23          	sd	x28,56(x4) # 38 <SECURE_ACCESS_PROBABILITY+0x1a>
    41015858:	00000e13          	li	x28,0
    4101585c:	07c23023          	sd	x28,96(x4) # 60 <XLEN+0x20>
    41015860:	00000e13          	li	x28,0
    41015864:	07c23423          	sd	x28,104(x4) # 68 <XLEN+0x28>
    41015868:	00000e13          	li	x28,0
    4101586c:	07c23823          	sd	x28,112(x4) # 70 <XLEN+0x30>
    41015870:	0050091b          	addiw	x18,x0,5
    41015874:	03091913          	slli	x18,x18,0x30

0000000041015878 <fault_label_16>:
    41015878:	00092503          	lw	x10,0(x18)
    4101587c:	0001ad37          	lui	x26,0x1a
    41015880:	008d0d1b          	addiw	x26,x26,8 # 1a008 <failed_addr>
    41015884:	000d3c83          	ld	x25,0(x26)
    41015888:	000c8067          	jr	x25

000000004101588c <excp_return_label_16>:
    4101588c:	006d0137          	lui	x2,0x6d0
    41015890:	00013383          	ld	x7,0(x2) # 6d0000 <tp_csr_storage>
    41015894:	0001afb7          	lui	x31,0x1a
    41015898:	0a0f8f9b          	addiw	x31,x31,160 # 1a0a0 <machine_csr_jump_table_flags>
    4101589c:	00600f13          	li	x30,6
    410158a0:	01efb023          	sd	x30,0(x31)
    410158a4:	000f0fb7          	lui	x31,0xf0
    410158a8:	001f8f9b          	addiw	x31,x31,1 # f0001 <mem24__pt_level4+0x7cf91>
    410158ac:	00cf9f93          	slli	x31,x31,0xc
    410158b0:	005f8f93          	addi	x31,x31,5
    410158b4:	00000073          	ecall

00000000410158b8 <SID_PBVMS_029_ordering_satp_mstatus_without_sfence_passed>:
    410158b8:	00f00f9b          	addiw	x31,x0,15
    410158bc:	01cf9f93          	slli	x31,x31,0x1c
    410158c0:	001f8f93          	addi	x31,x31,1
    410158c4:	00000073          	ecall

00000000410158c8 <SID_PBVMS_030_sfence_vma_ordering_sync>:
    410158c8:	07bdd137          	lui	x2,0x7bdd
    410158cc:	4a31011b          	addiw	x2,x2,1187 # 7bdd4a3 <mem28__pt_level3+0x23814a3>
    410158d0:	00c11113          	slli	x2,x2,0xc
    410158d4:	000012b7          	lui	x5,0x1
    410158d8:	00510133          	add	x2,x2,x5
    410158dc:	ff017113          	andi	x2,x2,-16
    410158e0:	fff00a9b          	addiw	x21,x0,-1
    410158e4:	038a9a93          	slli	x21,x21,0x38
    410158e8:	000aaf83          	lw	x31,0(x21)
    410158ec:	0001afb7          	lui	x31,0x1a
    410158f0:	0b0f8f9b          	addiw	x31,x31,176 # 1a0b0 <pte_access_flags>
    410158f4:	fff0029b          	addiw	x5,x0,-1
    410158f8:	03829293          	slli	x5,x5,0x38
    410158fc:	005fb023          	sd	x5,0(x31)
    41015900:	00400293          	li	x5,4
    41015904:	005fb423          	sd	x5,8(x31)
    41015908:	fff00293          	li	x5,-1
    4101590c:	005fb823          	sd	x5,16(x31)
    41015910:	000f0fb7          	lui	x31,0xf0
    41015914:	001f8f9b          	addiw	x31,x31,1 # f0001 <mem24__pt_level4+0x7cf91>
    41015918:	00cf9f93          	slli	x31,x31,0xc
    4101591c:	007f8f93          	addi	x31,x31,7
    41015920:	00000073          	ecall
    41015924:	ffd00c93          	li	x25,-3
    41015928:	0193f733          	and	x14,x7,x25
    4101592c:	00070393          	mv	x7,x14
    41015930:	0001afb7          	lui	x31,0x1a
    41015934:	0b0f8f9b          	addiw	x31,x31,176 # 1a0b0 <pte_access_flags>
    41015938:	fff0029b          	addiw	x5,x0,-1
    4101593c:	03829293          	slli	x5,x5,0x38
    41015940:	005fb023          	sd	x5,0(x31)
    41015944:	00400293          	li	x5,4
    41015948:	005fb423          	sd	x5,8(x31)
    4101594c:	fff00293          	li	x5,-1
    41015950:	005fb823          	sd	x5,16(x31)
    41015954:	000f0fb7          	lui	x31,0xf0
    41015958:	001f8f9b          	addiw	x31,x31,1 # f0001 <mem24__pt_level4+0x7cf91>
    4101595c:	00cf9f93          	slli	x31,x31,0xc
    41015960:	008f8f93          	addi	x31,x31,8
    41015964:	00000073          	ecall
    41015968:	12000073          	sfence.vma
    4101596c:	00004237          	lui	x4,0x4
    41015970:	00d00e13          	li	x28,13
    41015974:	05c23823          	sd	x28,80(x4) # 4050 <check_excp_expected_cause>
    41015978:	00000e17          	auipc	x28,0x0
    4101597c:	050e0e13          	addi	x28,x28,80 # 410159c8 <fault_label_17>
    41015980:	03c23023          	sd	x28,32(x4) # 20 <SECURE_ACCESS_PROBABILITY+0x2>
    41015984:	00000e13          	li	x28,0
    41015988:	05c23023          	sd	x28,64(x4) # 40 <XLEN>
    4101598c:	00000e13          	li	x28,0
    41015990:	05c23423          	sd	x28,72(x4) # 48 <XLEN+0x8>
    41015994:	00000e17          	auipc	x28,0x0
    41015998:	048e0e13          	addi	x28,x28,72 # 410159dc <excp_return_label_17>
    4101599c:	03c23823          	sd	x28,48(x4) # 30 <SECURE_ACCESS_PROBABILITY+0x12>
    410159a0:	00000e13          	li	x28,0
    410159a4:	03c23c23          	sd	x28,56(x4) # 38 <SECURE_ACCESS_PROBABILITY+0x1a>
    410159a8:	00000e13          	li	x28,0
    410159ac:	07c23023          	sd	x28,96(x4) # 60 <XLEN+0x20>
    410159b0:	00000e13          	li	x28,0
    410159b4:	07c23423          	sd	x28,104(x4) # 68 <XLEN+0x28>
    410159b8:	00000e13          	li	x28,0
    410159bc:	07c23823          	sd	x28,112(x4) # 70 <XLEN+0x30>
    410159c0:	fff0049b          	addiw	x9,x0,-1
    410159c4:	03849493          	slli	x9,x9,0x38

00000000410159c8 <fault_label_17>:
    410159c8:	0004ac07          	flw	f24,0(x9)
    410159cc:	0001a437          	lui	x8,0x1a
    410159d0:	0084041b          	addiw	x8,x8,8 # 1a008 <failed_addr>
    410159d4:	00043583          	ld	x11,0(x8)
    410159d8:	00058067          	jr	x11

00000000410159dc <excp_return_label_17>:
    410159dc:	0001afb7          	lui	x31,0x1a
    410159e0:	0b0f8f9b          	addiw	x31,x31,176 # 1a0b0 <pte_access_flags>
    410159e4:	fff0029b          	addiw	x5,x0,-1
    410159e8:	03829293          	slli	x5,x5,0x38
    410159ec:	005fb023          	sd	x5,0(x31)
    410159f0:	00400293          	li	x5,4
    410159f4:	005fb423          	sd	x5,8(x31)
    410159f8:	fff00293          	li	x5,-1
    410159fc:	005fb823          	sd	x5,16(x31)
    41015a00:	000f0fb7          	lui	x31,0xf0
    41015a04:	001f8f9b          	addiw	x31,x31,1 # f0001 <mem24__pt_level4+0x7cf91>
    41015a08:	00cf9f93          	slli	x31,x31,0xc
    41015a0c:	007f8f93          	addi	x31,x31,7
    41015a10:	00000073          	ecall
    41015a14:	00200793          	li	x15,2
    41015a18:	00f3e8b3          	or	x17,x7,x15
    41015a1c:	00088393          	mv	x7,x17
    41015a20:	0001afb7          	lui	x31,0x1a
    41015a24:	0b0f8f9b          	addiw	x31,x31,176 # 1a0b0 <pte_access_flags>
    41015a28:	fff0029b          	addiw	x5,x0,-1
    41015a2c:	03829293          	slli	x5,x5,0x38
    41015a30:	005fb023          	sd	x5,0(x31)
    41015a34:	00400293          	li	x5,4
    41015a38:	005fb423          	sd	x5,8(x31)
    41015a3c:	fff00293          	li	x5,-1
    41015a40:	005fb823          	sd	x5,16(x31)
    41015a44:	000f0fb7          	lui	x31,0xf0
    41015a48:	001f8f9b          	addiw	x31,x31,1 # f0001 <mem24__pt_level4+0x7cf91>
    41015a4c:	00cf9f93          	slli	x31,x31,0xc
    41015a50:	008f8f93          	addi	x31,x31,8
    41015a54:	00000073          	ecall

0000000041015a58 <SID_PBVMS_030_sfence_vma_ordering_sync_passed>:
    41015a58:	00f00f9b          	addiw	x31,x0,15
    41015a5c:	01cf9f93          	slli	x31,x31,0x1c
    41015a60:	001f8f93          	addi	x31,x31,1
    41015a64:	00000073          	ecall

0000000041015a68 <SID_PBVMS_031_sfence_vma_invalidate_all>:
    41015a68:	006d0137          	lui	x2,0x6d0
    41015a6c:	0001afb7          	lui	x31,0x1a
    41015a70:	0a0f8f9b          	addiw	x31,x31,160 # 1a0a0 <machine_csr_jump_table_flags>
    41015a74:	00700f13          	li	x30,7
    41015a78:	01efb023          	sd	x30,0(x31)
    41015a7c:	000f0fb7          	lui	x31,0xf0
    41015a80:	001f8f9b          	addiw	x31,x31,1 # f0001 <mem24__pt_level4+0x7cf91>
    41015a84:	00cf9f93          	slli	x31,x31,0xc
    41015a88:	005f8f93          	addi	x31,x31,5
    41015a8c:	00000073          	ecall
    41015a90:	00713023          	sd	x7,0(x2) # 6d0000 <tp_csr_storage>
    41015a94:	06ee1137          	lui	x2,0x6ee1
    41015a98:	f3f1011b          	addiw	x2,x2,-193 # 6ee0f3f <mem28__pt_level3+0x1684f3f>
    41015a9c:	00e11113          	slli	x2,x2,0xe
    41015aa0:	000012b7          	lui	x5,0x1
    41015aa4:	00510133          	add	x2,x2,x5
    41015aa8:	ff017113          	andi	x2,x2,-16
    41015aac:	0010071b          	addiw	x14,x0,1
    41015ab0:	02c71713          	slli	x14,x14,0x2c
    41015ab4:	18072973          	csrrs	x18,satp,x14
    41015ab8:	0450089b          	addiw	x17,x0,69
    41015abc:	03089893          	slli	x17,x17,0x30
    41015ac0:	0008b983          	ld	x19,0(x17)
    41015ac4:	0210049b          	addiw	x9,x0,33
    41015ac8:	03149493          	slli	x9,x9,0x31
    41015acc:	0004a507          	flw	f10,0(x9)
    41015ad0:	0010079b          	addiw	x15,x0,1
    41015ad4:	02d79793          	slli	x15,x15,0x2d
    41015ad8:	1807aff3          	csrrs	x31,satp,x15
    41015adc:	0450079b          	addiw	x15,x0,69
    41015ae0:	03079793          	slli	x15,x15,0x30
    41015ae4:	00079983          	lh	x19,0(x15)
    41015ae8:	02100d9b          	addiw	x27,x0,33
    41015aec:	031d9d93          	slli	x27,x27,0x31
    41015af0:	000dd583          	lhu	x11,0(x27)
    41015af4:	0001afb7          	lui	x31,0x1a
    41015af8:	0b0f8f9b          	addiw	x31,x31,176 # 1a0b0 <pte_access_flags>
    41015afc:	0450029b          	addiw	x5,x0,69
    41015b00:	03029293          	slli	x5,x5,0x30
    41015b04:	005fb023          	sd	x5,0(x31)
    41015b08:	00400293          	li	x5,4
    41015b0c:	005fb423          	sd	x5,8(x31)
    41015b10:	fff00293          	li	x5,-1
    41015b14:	005fb823          	sd	x5,16(x31)
    41015b18:	000f0fb7          	lui	x31,0xf0
    41015b1c:	001f8f9b          	addiw	x31,x31,1 # f0001 <mem24__pt_level4+0x7cf91>
    41015b20:	00cf9f93          	slli	x31,x31,0xc
    41015b24:	007f8f93          	addi	x31,x31,7
    41015b28:	00000073          	ecall
    41015b2c:	ffd00d93          	li	x27,-3
    41015b30:	01b3f933          	and	x18,x7,x27
    41015b34:	00090393          	mv	x7,x18
    41015b38:	0001afb7          	lui	x31,0x1a
    41015b3c:	0b0f8f9b          	addiw	x31,x31,176 # 1a0b0 <pte_access_flags>
    41015b40:	0450029b          	addiw	x5,x0,69
    41015b44:	03029293          	slli	x5,x5,0x30
    41015b48:	005fb023          	sd	x5,0(x31)
    41015b4c:	00400293          	li	x5,4
    41015b50:	005fb423          	sd	x5,8(x31)
    41015b54:	fff00293          	li	x5,-1
    41015b58:	005fb823          	sd	x5,16(x31)
    41015b5c:	000f0fb7          	lui	x31,0xf0
    41015b60:	001f8f9b          	addiw	x31,x31,1 # f0001 <mem24__pt_level4+0x7cf91>
    41015b64:	00cf9f93          	slli	x31,x31,0xc
    41015b68:	008f8f93          	addi	x31,x31,8
    41015b6c:	00000073          	ecall
    41015b70:	0001afb7          	lui	x31,0x1a
    41015b74:	0b0f8f9b          	addiw	x31,x31,176 # 1a0b0 <pte_access_flags>
    41015b78:	0210029b          	addiw	x5,x0,33
    41015b7c:	03129293          	slli	x5,x5,0x31
    41015b80:	005fb023          	sd	x5,0(x31)
    41015b84:	00400293          	li	x5,4
    41015b88:	005fb423          	sd	x5,8(x31)
    41015b8c:	fff00293          	li	x5,-1
    41015b90:	005fb823          	sd	x5,16(x31)
    41015b94:	000f0fb7          	lui	x31,0xf0
    41015b98:	001f8f9b          	addiw	x31,x31,1 # f0001 <mem24__pt_level4+0x7cf91>
    41015b9c:	00cf9f93          	slli	x31,x31,0xc
    41015ba0:	007f8f93          	addi	x31,x31,7
    41015ba4:	00000073          	ecall
    41015ba8:	01b3fdb3          	and	x27,x7,x27
    41015bac:	000d8393          	mv	x7,x27
    41015bb0:	0001afb7          	lui	x31,0x1a
    41015bb4:	0b0f8f9b          	addiw	x31,x31,176 # 1a0b0 <pte_access_flags>
    41015bb8:	0210029b          	addiw	x5,x0,33
    41015bbc:	03129293          	slli	x5,x5,0x31
    41015bc0:	005fb023          	sd	x5,0(x31)
    41015bc4:	00400293          	li	x5,4
    41015bc8:	005fb423          	sd	x5,8(x31)
    41015bcc:	fff00293          	li	x5,-1
    41015bd0:	005fb823          	sd	x5,16(x31)
    41015bd4:	000f0fb7          	lui	x31,0xf0
    41015bd8:	001f8f9b          	addiw	x31,x31,1 # f0001 <mem24__pt_level4+0x7cf91>
    41015bdc:	00cf9f93          	slli	x31,x31,0xc
    41015be0:	008f8f93          	addi	x31,x31,8
    41015be4:	00000073          	ecall
    41015be8:	0030061b          	addiw	x12,x0,3
    41015bec:	02c61613          	slli	x12,x12,0x2c
    41015bf0:	18062cf3          	csrrs	x25,satp,x12
    41015bf4:	12000073          	sfence.vma
    41015bf8:	00004237          	lui	x4,0x4
    41015bfc:	00d00e13          	li	x28,13
    41015c00:	05c23823          	sd	x28,80(x4) # 4050 <check_excp_expected_cause>
    41015c04:	00000e17          	auipc	x28,0x0
    41015c08:	050e0e13          	addi	x28,x28,80 # 41015c54 <fault_label_18>
    41015c0c:	03c23023          	sd	x28,32(x4) # 20 <SECURE_ACCESS_PROBABILITY+0x2>
    41015c10:	00000e13          	li	x28,0
    41015c14:	05c23023          	sd	x28,64(x4) # 40 <XLEN>
    41015c18:	00000e13          	li	x28,0
    41015c1c:	05c23423          	sd	x28,72(x4) # 48 <XLEN+0x8>
    41015c20:	00000e17          	auipc	x28,0x0
    41015c24:	048e0e13          	addi	x28,x28,72 # 41015c68 <excp_return_label_18>
    41015c28:	03c23823          	sd	x28,48(x4) # 30 <SECURE_ACCESS_PROBABILITY+0x12>
    41015c2c:	00000e13          	li	x28,0
    41015c30:	03c23c23          	sd	x28,56(x4) # 38 <SECURE_ACCESS_PROBABILITY+0x1a>
    41015c34:	00000e13          	li	x28,0
    41015c38:	07c23023          	sd	x28,96(x4) # 60 <XLEN+0x20>
    41015c3c:	00000e13          	li	x28,0
    41015c40:	07c23423          	sd	x28,104(x4) # 68 <XLEN+0x28>
    41015c44:	00000e13          	li	x28,0
    41015c48:	07c23823          	sd	x28,112(x4) # 70 <XLEN+0x30>
    41015c4c:	0450041b          	addiw	x8,x0,69
    41015c50:	03041413          	slli	x8,x8,0x30

0000000041015c54 <fault_label_18>:
    41015c54:	00042703          	lw	x14,0(x8)
    41015c58:	0001a6b7          	lui	x13,0x1a
    41015c5c:	0086869b          	addiw	x13,x13,8 # 1a008 <failed_addr>
    41015c60:	0006b883          	ld	x17,0(x13)
    41015c64:	00088067          	jr	x17

0000000041015c68 <excp_return_label_18>:
    41015c68:	00004237          	lui	x4,0x4
    41015c6c:	00d00e13          	li	x28,13
    41015c70:	05c23823          	sd	x28,80(x4) # 4050 <check_excp_expected_cause>
    41015c74:	00000e17          	auipc	x28,0x0
    41015c78:	050e0e13          	addi	x28,x28,80 # 41015cc4 <fault_label_19>
    41015c7c:	03c23023          	sd	x28,32(x4) # 20 <SECURE_ACCESS_PROBABILITY+0x2>
    41015c80:	00000e13          	li	x28,0
    41015c84:	05c23023          	sd	x28,64(x4) # 40 <XLEN>
    41015c88:	00000e13          	li	x28,0
    41015c8c:	05c23423          	sd	x28,72(x4) # 48 <XLEN+0x8>
    41015c90:	00000e17          	auipc	x28,0x0
    41015c94:	048e0e13          	addi	x28,x28,72 # 41015cd8 <excp_return_label_19>
    41015c98:	03c23823          	sd	x28,48(x4) # 30 <SECURE_ACCESS_PROBABILITY+0x12>
    41015c9c:	00000e13          	li	x28,0
    41015ca0:	03c23c23          	sd	x28,56(x4) # 38 <SECURE_ACCESS_PROBABILITY+0x1a>
    41015ca4:	00000e13          	li	x28,0
    41015ca8:	07c23023          	sd	x28,96(x4) # 60 <XLEN+0x20>
    41015cac:	00000e13          	li	x28,0
    41015cb0:	07c23423          	sd	x28,104(x4) # 68 <XLEN+0x28>
    41015cb4:	00000e13          	li	x28,0
    41015cb8:	07c23823          	sd	x28,112(x4) # 70 <XLEN+0x30>
    41015cbc:	0210089b          	addiw	x17,x0,33
    41015cc0:	03189893          	slli	x17,x17,0x31

0000000041015cc4 <fault_label_19>:
    41015cc4:	0008a287          	flw	f5,0(x17)
    41015cc8:	0001aab7          	lui	x21,0x1a
    41015ccc:	008a8a9b          	addiw	x21,x21,8 # 1a008 <failed_addr>
    41015cd0:	000abf03          	ld	x30,0(x21)
    41015cd4:	000f0067          	jr	x30

0000000041015cd8 <excp_return_label_19>:
    41015cd8:	0001afb7          	lui	x31,0x1a
    41015cdc:	0b0f8f9b          	addiw	x31,x31,176 # 1a0b0 <pte_access_flags>
    41015ce0:	0450029b          	addiw	x5,x0,69
    41015ce4:	03029293          	slli	x5,x5,0x30
    41015ce8:	005fb023          	sd	x5,0(x31)
    41015cec:	00400293          	li	x5,4
    41015cf0:	005fb423          	sd	x5,8(x31)
    41015cf4:	fff00293          	li	x5,-1
    41015cf8:	005fb823          	sd	x5,16(x31)
    41015cfc:	000f0fb7          	lui	x31,0xf0
    41015d00:	001f8f9b          	addiw	x31,x31,1 # f0001 <mem24__pt_level4+0x7cf91>
    41015d04:	00cf9f93          	slli	x31,x31,0xc
    41015d08:	007f8f93          	addi	x31,x31,7
    41015d0c:	00000073          	ecall
    41015d10:	00200a13          	li	x20,2
    41015d14:	0143e733          	or	x14,x7,x20
    41015d18:	00070393          	mv	x7,x14
    41015d1c:	0001afb7          	lui	x31,0x1a
    41015d20:	0b0f8f9b          	addiw	x31,x31,176 # 1a0b0 <pte_access_flags>
    41015d24:	0450029b          	addiw	x5,x0,69
    41015d28:	03029293          	slli	x5,x5,0x30
    41015d2c:	005fb023          	sd	x5,0(x31)
    41015d30:	00400293          	li	x5,4
    41015d34:	005fb423          	sd	x5,8(x31)
    41015d38:	fff00293          	li	x5,-1
    41015d3c:	005fb823          	sd	x5,16(x31)
    41015d40:	000f0fb7          	lui	x31,0xf0
    41015d44:	001f8f9b          	addiw	x31,x31,1 # f0001 <mem24__pt_level4+0x7cf91>
    41015d48:	00cf9f93          	slli	x31,x31,0xc
    41015d4c:	008f8f93          	addi	x31,x31,8
    41015d50:	00000073          	ecall
    41015d54:	0001afb7          	lui	x31,0x1a
    41015d58:	0b0f8f9b          	addiw	x31,x31,176 # 1a0b0 <pte_access_flags>
    41015d5c:	0210029b          	addiw	x5,x0,33
    41015d60:	03129293          	slli	x5,x5,0x31
    41015d64:	005fb023          	sd	x5,0(x31)
    41015d68:	00400293          	li	x5,4
    41015d6c:	005fb423          	sd	x5,8(x31)
    41015d70:	fff00293          	li	x5,-1
    41015d74:	005fb823          	sd	x5,16(x31)
    41015d78:	000f0fb7          	lui	x31,0xf0
    41015d7c:	001f8f9b          	addiw	x31,x31,1 # f0001 <mem24__pt_level4+0x7cf91>
    41015d80:	00cf9f93          	slli	x31,x31,0xc
    41015d84:	007f8f93          	addi	x31,x31,7
    41015d88:	00000073          	ecall
    41015d8c:	00200413          	li	x8,2
    41015d90:	0083e433          	or	x8,x7,x8
    41015d94:	00040393          	mv	x7,x8
    41015d98:	0001afb7          	lui	x31,0x1a
    41015d9c:	0b0f8f9b          	addiw	x31,x31,176 # 1a0b0 <pte_access_flags>
    41015da0:	0210029b          	addiw	x5,x0,33
    41015da4:	03129293          	slli	x5,x5,0x31
    41015da8:	005fb023          	sd	x5,0(x31)
    41015dac:	00400293          	li	x5,4
    41015db0:	005fb423          	sd	x5,8(x31)
    41015db4:	fff00293          	li	x5,-1
    41015db8:	005fb823          	sd	x5,16(x31)
    41015dbc:	000f0fb7          	lui	x31,0xf0
    41015dc0:	001f8f9b          	addiw	x31,x31,1 # f0001 <mem24__pt_level4+0x7cf91>
    41015dc4:	00cf9f93          	slli	x31,x31,0xc
    41015dc8:	008f8f93          	addi	x31,x31,8
    41015dcc:	00000073          	ecall
    41015dd0:	006d0137          	lui	x2,0x6d0
    41015dd4:	00013383          	ld	x7,0(x2) # 6d0000 <tp_csr_storage>
    41015dd8:	0001afb7          	lui	x31,0x1a
    41015ddc:	0a0f8f9b          	addiw	x31,x31,160 # 1a0a0 <machine_csr_jump_table_flags>
    41015de0:	00800f13          	li	x30,8
    41015de4:	01efb023          	sd	x30,0(x31)
    41015de8:	000f0fb7          	lui	x31,0xf0
    41015dec:	001f8f9b          	addiw	x31,x31,1 # f0001 <mem24__pt_level4+0x7cf91>
    41015df0:	00cf9f93          	slli	x31,x31,0xc
    41015df4:	005f8f93          	addi	x31,x31,5
    41015df8:	00000073          	ecall

0000000041015dfc <SID_PBVMS_031_sfence_vma_invalidate_all_passed>:
    41015dfc:	00f00f9b          	addiw	x31,x0,15
    41015e00:	01cf9f93          	slli	x31,x31,0x1c
    41015e04:	001f8f93          	addi	x31,x31,1
    41015e08:	00000073          	ecall

0000000041015e0c <SID_PBVMS_032_sfence_vma_invalidate_asid>:
    41015e0c:	006d0137          	lui	x2,0x6d0
    41015e10:	0001afb7          	lui	x31,0x1a
    41015e14:	0a0f8f9b          	addiw	x31,x31,160 # 1a0a0 <machine_csr_jump_table_flags>
    41015e18:	00700f13          	li	x30,7
    41015e1c:	01efb023          	sd	x30,0(x31)
    41015e20:	000f0fb7          	lui	x31,0xf0
    41015e24:	001f8f9b          	addiw	x31,x31,1 # f0001 <mem24__pt_level4+0x7cf91>
    41015e28:	00cf9f93          	slli	x31,x31,0xc
    41015e2c:	005f8f93          	addi	x31,x31,5
    41015e30:	00000073          	ecall
    41015e34:	00713023          	sd	x7,0(x2) # 6d0000 <tp_csr_storage>
    41015e38:	000aa137          	lui	x2,0xaa
    41015e3c:	6f71011b          	addiw	x2,x2,1783 # aa6f7 <mem24__pt_level4+0x37687>
    41015e40:	00c11113          	slli	x2,x2,0xc
    41015e44:	b2310113          	addi	x2,x2,-1245
    41015e48:	00c11113          	slli	x2,x2,0xc
    41015e4c:	000012b7          	lui	x5,0x1
    41015e50:	00510133          	add	x2,x2,x5
    41015e54:	ff017113          	andi	x2,x2,-16
    41015e58:	00010c37          	lui	x24,0x10
    41015e5c:	fffc0c1b          	addiw	x24,x24,-1 # ffff <mem29__pt_level0+0x1fff>
    41015e60:	02cc1c13          	slli	x24,x24,0x2c
    41015e64:	180c3bf3          	csrrc	x23,satp,x24
    41015e68:	0010069b          	addiw	x13,x0,1
    41015e6c:	02c69693          	slli	x13,x13,0x2c
    41015e70:	1806adf3          	csrrs	x27,satp,x13
    41015e74:	04b0041b          	addiw	x8,x0,75
    41015e78:	03141413          	slli	x8,x8,0x31
    41015e7c:	00046803          	lwu	x16,0(x8)
    41015e80:	0001afb7          	lui	x31,0x1a
    41015e84:	0b0f8f9b          	addiw	x31,x31,176 # 1a0b0 <pte_access_flags>
    41015e88:	04b0029b          	addiw	x5,x0,75
    41015e8c:	03129293          	slli	x5,x5,0x31
    41015e90:	005fb023          	sd	x5,0(x31)
    41015e94:	00400293          	li	x5,4
    41015e98:	005fb423          	sd	x5,8(x31)
    41015e9c:	fff00293          	li	x5,-1
    41015ea0:	005fb823          	sd	x5,16(x31)
    41015ea4:	000f0fb7          	lui	x31,0xf0
    41015ea8:	001f8f9b          	addiw	x31,x31,1 # f0001 <mem24__pt_level4+0x7cf91>
    41015eac:	00cf9f93          	slli	x31,x31,0xc
    41015eb0:	007f8f93          	addi	x31,x31,7
    41015eb4:	00000073          	ecall
    41015eb8:	ffd00a93          	li	x21,-3
    41015ebc:	0153f9b3          	and	x19,x7,x21
    41015ec0:	00098393          	mv	x7,x19
    41015ec4:	0001afb7          	lui	x31,0x1a
    41015ec8:	0b0f8f9b          	addiw	x31,x31,176 # 1a0b0 <pte_access_flags>
    41015ecc:	04b0029b          	addiw	x5,x0,75
    41015ed0:	03129293          	slli	x5,x5,0x31
    41015ed4:	005fb023          	sd	x5,0(x31)
    41015ed8:	00400293          	li	x5,4
    41015edc:	005fb423          	sd	x5,8(x31)
    41015ee0:	fff00293          	li	x5,-1
    41015ee4:	005fb823          	sd	x5,16(x31)
    41015ee8:	000f0fb7          	lui	x31,0xf0
    41015eec:	001f8f9b          	addiw	x31,x31,1 # f0001 <mem24__pt_level4+0x7cf91>
    41015ef0:	00cf9f93          	slli	x31,x31,0xc
    41015ef4:	008f8f93          	addi	x31,x31,8
    41015ef8:	00000073          	ecall
    41015efc:	00100b9b          	addiw	x23,x0,1
    41015f00:	02db9b93          	slli	x23,x23,0x2d
    41015f04:	180bac73          	csrrs	x24,satp,x23
    41015f08:	00100593          	li	x11,1
    41015f0c:	12b00073          	sfence.vma	x0,x11
    41015f10:	00010f37          	lui	x30,0x10
    41015f14:	ffff0f1b          	addiw	x30,x30,-1 # ffff <mem29__pt_level0+0x1fff>
    41015f18:	02cf1f13          	slli	x30,x30,0x2c
    41015f1c:	180f3a73          	csrrc	x20,satp,x30
    41015f20:	0010061b          	addiw	x12,x0,1
    41015f24:	02d61613          	slli	x12,x12,0x2d
    41015f28:	18062673          	csrrs	x12,satp,x12
    41015f2c:	00100493          	li	x9,1
    41015f30:	12900073          	sfence.vma	x0,x9
    41015f34:	00010e37          	lui	x28,0x10
    41015f38:	fffe0e1b          	addiw	x28,x28,-1 # ffff <mem29__pt_level0+0x1fff>
    41015f3c:	02ce1e13          	slli	x28,x28,0x2c
    41015f40:	180e3373          	csrrc	x6,satp,x28
    41015f44:	0010059b          	addiw	x11,x0,1
    41015f48:	02c59593          	slli	x11,x11,0x2c
    41015f4c:	1805a673          	csrrs	x12,satp,x11
    41015f50:	00004237          	lui	x4,0x4
    41015f54:	00d00e13          	li	x28,13
    41015f58:	05c23823          	sd	x28,80(x4) # 4050 <check_excp_expected_cause>
    41015f5c:	00000e17          	auipc	x28,0x0
    41015f60:	050e0e13          	addi	x28,x28,80 # 41015fac <fault_label_20>
    41015f64:	03c23023          	sd	x28,32(x4) # 20 <SECURE_ACCESS_PROBABILITY+0x2>
    41015f68:	00000e13          	li	x28,0
    41015f6c:	05c23023          	sd	x28,64(x4) # 40 <XLEN>
    41015f70:	00000e13          	li	x28,0
    41015f74:	05c23423          	sd	x28,72(x4) # 48 <XLEN+0x8>
    41015f78:	00000e17          	auipc	x28,0x0
    41015f7c:	048e0e13          	addi	x28,x28,72 # 41015fc0 <excp_return_label_20>
    41015f80:	03c23823          	sd	x28,48(x4) # 30 <SECURE_ACCESS_PROBABILITY+0x12>
    41015f84:	00000e13          	li	x28,0
    41015f88:	03c23c23          	sd	x28,56(x4) # 38 <SECURE_ACCESS_PROBABILITY+0x1a>
    41015f8c:	00000e13          	li	x28,0
    41015f90:	07c23023          	sd	x28,96(x4) # 60 <XLEN+0x20>
    41015f94:	00000e13          	li	x28,0
    41015f98:	07c23423          	sd	x28,104(x4) # 68 <XLEN+0x28>
    41015f9c:	00000e13          	li	x28,0
    41015fa0:	07c23823          	sd	x28,112(x4) # 70 <XLEN+0x30>
    41015fa4:	04b0051b          	addiw	x10,x0,75
    41015fa8:	03151513          	slli	x10,x10,0x31

0000000041015fac <fault_label_20>:
    41015fac:	00054883          	lbu	x17,0(x10)
    41015fb0:	0001a9b7          	lui	x19,0x1a
    41015fb4:	0089899b          	addiw	x19,x19,8 # 1a008 <failed_addr>
    41015fb8:	0009bb03          	ld	x22,0(x19)
    41015fbc:	000b0067          	jr	x22

0000000041015fc0 <excp_return_label_20>:
    41015fc0:	0001afb7          	lui	x31,0x1a
    41015fc4:	0b0f8f9b          	addiw	x31,x31,176 # 1a0b0 <pte_access_flags>
    41015fc8:	04b0029b          	addiw	x5,x0,75
    41015fcc:	03129293          	slli	x5,x5,0x31
    41015fd0:	005fb023          	sd	x5,0(x31)
    41015fd4:	00400293          	li	x5,4
    41015fd8:	005fb423          	sd	x5,8(x31)
    41015fdc:	fff00293          	li	x5,-1
    41015fe0:	005fb823          	sd	x5,16(x31)
    41015fe4:	000f0fb7          	lui	x31,0xf0
    41015fe8:	001f8f9b          	addiw	x31,x31,1 # f0001 <mem24__pt_level4+0x7cf91>
    41015fec:	00cf9f93          	slli	x31,x31,0xc
    41015ff0:	007f8f93          	addi	x31,x31,7
    41015ff4:	00000073          	ecall
    41015ff8:	00200793          	li	x15,2
    41015ffc:	00f3e6b3          	or	x13,x7,x15
    41016000:	00068393          	mv	x7,x13
    41016004:	0001afb7          	lui	x31,0x1a
    41016008:	0b0f8f9b          	addiw	x31,x31,176 # 1a0b0 <pte_access_flags>
    4101600c:	04b0029b          	addiw	x5,x0,75
    41016010:	03129293          	slli	x5,x5,0x31
    41016014:	005fb023          	sd	x5,0(x31)
    41016018:	00400293          	li	x5,4
    4101601c:	005fb423          	sd	x5,8(x31)
    41016020:	fff00293          	li	x5,-1
    41016024:	005fb823          	sd	x5,16(x31)
    41016028:	000f0fb7          	lui	x31,0xf0
    4101602c:	001f8f9b          	addiw	x31,x31,1 # f0001 <mem24__pt_level4+0x7cf91>
    41016030:	00cf9f93          	slli	x31,x31,0xc
    41016034:	008f8f93          	addi	x31,x31,8
    41016038:	00000073          	ecall
    4101603c:	006d0137          	lui	x2,0x6d0
    41016040:	00013383          	ld	x7,0(x2) # 6d0000 <tp_csr_storage>
    41016044:	0001afb7          	lui	x31,0x1a
    41016048:	0a0f8f9b          	addiw	x31,x31,160 # 1a0a0 <machine_csr_jump_table_flags>
    4101604c:	00800f13          	li	x30,8
    41016050:	01efb023          	sd	x30,0(x31)
    41016054:	000f0fb7          	lui	x31,0xf0
    41016058:	001f8f9b          	addiw	x31,x31,1 # f0001 <mem24__pt_level4+0x7cf91>
    4101605c:	00cf9f93          	slli	x31,x31,0xc
    41016060:	005f8f93          	addi	x31,x31,5
    41016064:	00000073          	ecall

0000000041016068 <SID_PBVMS_032_sfence_vma_invalidate_asid_passed>:
    41016068:	00f00f9b          	addiw	x31,x0,15
    4101606c:	01cf9f93          	slli	x31,x31,0x1c
    41016070:	001f8f93          	addi	x31,x31,1
    41016074:	00000073          	ecall

0000000041016078 <SID_PBVMS_033_sfence_vma_invalidate_va>:
    41016078:	006d0137          	lui	x2,0x6d0
    4101607c:	0001afb7          	lui	x31,0x1a
    41016080:	0a0f8f9b          	addiw	x31,x31,160 # 1a0a0 <machine_csr_jump_table_flags>
    41016084:	00700f13          	li	x30,7
    41016088:	01efb023          	sd	x30,0(x31)
    4101608c:	000f0fb7          	lui	x31,0xf0
    41016090:	001f8f9b          	addiw	x31,x31,1 # f0001 <mem24__pt_level4+0x7cf91>
    41016094:	00cf9f93          	slli	x31,x31,0xc
    41016098:	005f8f93          	addi	x31,x31,5
    4101609c:	00000073          	ecall
    410160a0:	00713023          	sd	x7,0(x2) # 6d0000 <tp_csr_storage>
    410160a4:	09f6a137          	lui	x2,0x9f6a
    410160a8:	b1f1011b          	addiw	x2,x2,-1249 # 9f69b1f <mem10__pt_level2+0xc33b1f>
    410160ac:	00d11113          	slli	x2,x2,0xd
    410160b0:	8c910113          	addi	x2,x2,-1847
    410160b4:	00d11113          	slli	x2,x2,0xd
    410160b8:	000012b7          	lui	x5,0x1
    410160bc:	00510133          	add	x2,x2,x5
    410160c0:	ff017113          	andi	x2,x2,-16
    410160c4:	00100a1b          	addiw	x20,x0,1
    410160c8:	02ca1a13          	slli	x20,x20,0x2c
    410160cc:	180a25f3          	csrrs	x11,satp,x20
    410160d0:	00100e9b          	addiw	x29,x0,1
    410160d4:	033e9e93          	slli	x29,x29,0x33
    410160d8:	000e9703          	lh	x14,0(x29)
    410160dc:	0110061b          	addiw	x12,x0,17
    410160e0:	03061613          	slli	x12,x12,0x30
    410160e4:	00066e83          	lwu	x29,0(x12)
    410160e8:	0001afb7          	lui	x31,0x1a
    410160ec:	0b0f8f9b          	addiw	x31,x31,176 # 1a0b0 <pte_access_flags>
    410160f0:	0010029b          	addiw	x5,x0,1
    410160f4:	03329293          	slli	x5,x5,0x33
    410160f8:	005fb023          	sd	x5,0(x31)
    410160fc:	00400293          	li	x5,4
    41016100:	005fb423          	sd	x5,8(x31)
    41016104:	fff00293          	li	x5,-1
    41016108:	005fb823          	sd	x5,16(x31)
    4101610c:	000f0fb7          	lui	x31,0xf0
    41016110:	001f8f9b          	addiw	x31,x31,1 # f0001 <mem24__pt_level4+0x7cf91>
    41016114:	00cf9f93          	slli	x31,x31,0xc
    41016118:	007f8f93          	addi	x31,x31,7
    4101611c:	00000073          	ecall
    41016120:	ffd00693          	li	x13,-3
    41016124:	00d3fcb3          	and	x25,x7,x13
    41016128:	000c8393          	mv	x7,x25
    4101612c:	0001afb7          	lui	x31,0x1a
    41016130:	0b0f8f9b          	addiw	x31,x31,176 # 1a0b0 <pte_access_flags>
    41016134:	0010029b          	addiw	x5,x0,1
    41016138:	03329293          	slli	x5,x5,0x33
    4101613c:	005fb023          	sd	x5,0(x31)
    41016140:	00400293          	li	x5,4
    41016144:	005fb423          	sd	x5,8(x31)
    41016148:	fff00293          	li	x5,-1
    4101614c:	005fb823          	sd	x5,16(x31)
    41016150:	000f0fb7          	lui	x31,0xf0
    41016154:	001f8f9b          	addiw	x31,x31,1 # f0001 <mem24__pt_level4+0x7cf91>
    41016158:	00cf9f93          	slli	x31,x31,0xc
    4101615c:	008f8f93          	addi	x31,x31,8
    41016160:	00000073          	ecall
    41016164:	0001afb7          	lui	x31,0x1a
    41016168:	0b0f8f9b          	addiw	x31,x31,176 # 1a0b0 <pte_access_flags>
    4101616c:	0110029b          	addiw	x5,x0,17
    41016170:	03029293          	slli	x5,x5,0x30
    41016174:	005fb023          	sd	x5,0(x31)
    41016178:	00400293          	li	x5,4
    4101617c:	005fb423          	sd	x5,8(x31)
    41016180:	fff00293          	li	x5,-1
    41016184:	005fb823          	sd	x5,16(x31)
    41016188:	000f0fb7          	lui	x31,0xf0
    4101618c:	001f8f9b          	addiw	x31,x31,1 # f0001 <mem24__pt_level4+0x7cf91>
    41016190:	00cf9f93          	slli	x31,x31,0xc
    41016194:	007f8f93          	addi	x31,x31,7
    41016198:	00000073          	ecall
    4101619c:	00d3fc33          	and	x24,x7,x13
    410161a0:	000c0393          	mv	x7,x24
    410161a4:	0001afb7          	lui	x31,0x1a
    410161a8:	0b0f8f9b          	addiw	x31,x31,176 # 1a0b0 <pte_access_flags>
    410161ac:	0110029b          	addiw	x5,x0,17
    410161b0:	03029293          	slli	x5,x5,0x30
    410161b4:	005fb023          	sd	x5,0(x31)
    410161b8:	00400293          	li	x5,4
    410161bc:	005fb423          	sd	x5,8(x31)
    410161c0:	fff00293          	li	x5,-1
    410161c4:	005fb823          	sd	x5,16(x31)
    410161c8:	000f0fb7          	lui	x31,0xf0
    410161cc:	001f8f9b          	addiw	x31,x31,1 # f0001 <mem24__pt_level4+0x7cf91>
    410161d0:	00cf9f93          	slli	x31,x31,0xc
    410161d4:	008f8f93          	addi	x31,x31,8
    410161d8:	00000073          	ecall
    410161dc:	0010039b          	addiw	x7,x0,1
    410161e0:	03339393          	slli	x7,x7,0x33
    410161e4:	01100a1b          	addiw	x20,x0,17
    410161e8:	030a1a13          	slli	x20,x20,0x30
    410161ec:	12038073          	sfence.vma	x7
    410161f0:	120a0073          	sfence.vma	x20
    410161f4:	00004237          	lui	x4,0x4
    410161f8:	00d00e13          	li	x28,13
    410161fc:	05c23823          	sd	x28,80(x4) # 4050 <check_excp_expected_cause>
    41016200:	00000e17          	auipc	x28,0x0
    41016204:	050e0e13          	addi	x28,x28,80 # 41016250 <fault_label_21>
    41016208:	03c23023          	sd	x28,32(x4) # 20 <SECURE_ACCESS_PROBABILITY+0x2>
    4101620c:	00000e13          	li	x28,0
    41016210:	05c23023          	sd	x28,64(x4) # 40 <XLEN>
    41016214:	00000e13          	li	x28,0
    41016218:	05c23423          	sd	x28,72(x4) # 48 <XLEN+0x8>
    4101621c:	00000e17          	auipc	x28,0x0
    41016220:	048e0e13          	addi	x28,x28,72 # 41016264 <excp_return_label_21>
    41016224:	03c23823          	sd	x28,48(x4) # 30 <SECURE_ACCESS_PROBABILITY+0x12>
    41016228:	00000e13          	li	x28,0
    4101622c:	03c23c23          	sd	x28,56(x4) # 38 <SECURE_ACCESS_PROBABILITY+0x1a>
    41016230:	00000e13          	li	x28,0
    41016234:	07c23023          	sd	x28,96(x4) # 60 <XLEN+0x20>
    41016238:	00000e13          	li	x28,0
    4101623c:	07c23423          	sd	x28,104(x4) # 68 <XLEN+0x28>
    41016240:	00000e13          	li	x28,0
    41016244:	07c23823          	sd	x28,112(x4) # 70 <XLEN+0x30>
    41016248:	00100a9b          	addiw	x21,x0,1
    4101624c:	033a9a93          	slli	x21,x21,0x33

0000000041016250 <fault_label_21>:
    41016250:	000ab703          	ld	x14,0(x21)
    41016254:	0001a9b7          	lui	x19,0x1a
    41016258:	0089899b          	addiw	x19,x19,8 # 1a008 <failed_addr>
    4101625c:	0009ba03          	ld	x20,0(x19)
    41016260:	000a0067          	jr	x20

0000000041016264 <excp_return_label_21>:
    41016264:	00004237          	lui	x4,0x4
    41016268:	00d00e13          	li	x28,13
    4101626c:	05c23823          	sd	x28,80(x4) # 4050 <check_excp_expected_cause>
    41016270:	00000e17          	auipc	x28,0x0
    41016274:	050e0e13          	addi	x28,x28,80 # 410162c0 <fault_label_22>
    41016278:	03c23023          	sd	x28,32(x4) # 20 <SECURE_ACCESS_PROBABILITY+0x2>
    4101627c:	00000e13          	li	x28,0
    41016280:	05c23023          	sd	x28,64(x4) # 40 <XLEN>
    41016284:	00000e13          	li	x28,0
    41016288:	05c23423          	sd	x28,72(x4) # 48 <XLEN+0x8>
    4101628c:	00000e17          	auipc	x28,0x0
    41016290:	048e0e13          	addi	x28,x28,72 # 410162d4 <excp_return_label_22>
    41016294:	03c23823          	sd	x28,48(x4) # 30 <SECURE_ACCESS_PROBABILITY+0x12>
    41016298:	00000e13          	li	x28,0
    4101629c:	03c23c23          	sd	x28,56(x4) # 38 <SECURE_ACCESS_PROBABILITY+0x1a>
    410162a0:	00000e13          	li	x28,0
    410162a4:	07c23023          	sd	x28,96(x4) # 60 <XLEN+0x20>
    410162a8:	00000e13          	li	x28,0
    410162ac:	07c23423          	sd	x28,104(x4) # 68 <XLEN+0x28>
    410162b0:	00000e13          	li	x28,0
    410162b4:	07c23823          	sd	x28,112(x4) # 70 <XLEN+0x30>
    410162b8:	0110059b          	addiw	x11,x0,17
    410162bc:	03059593          	slli	x11,x11,0x30

00000000410162c0 <fault_label_22>:
    410162c0:	0005cd03          	lbu	x26,0(x11)
    410162c4:	0001a537          	lui	x10,0x1a
    410162c8:	0085051b          	addiw	x10,x10,8 # 1a008 <failed_addr>
    410162cc:	00053903          	ld	x18,0(x10)
    410162d0:	00090067          	jr	x18

00000000410162d4 <excp_return_label_22>:
    410162d4:	0001afb7          	lui	x31,0x1a
    410162d8:	0b0f8f9b          	addiw	x31,x31,176 # 1a0b0 <pte_access_flags>
    410162dc:	0010029b          	addiw	x5,x0,1
    410162e0:	03329293          	slli	x5,x5,0x33
    410162e4:	005fb023          	sd	x5,0(x31)
    410162e8:	00400293          	li	x5,4
    410162ec:	005fb423          	sd	x5,8(x31)
    410162f0:	fff00293          	li	x5,-1
    410162f4:	005fb823          	sd	x5,16(x31)
    410162f8:	000f0fb7          	lui	x31,0xf0
    410162fc:	001f8f9b          	addiw	x31,x31,1 # f0001 <mem24__pt_level4+0x7cf91>
    41016300:	00cf9f93          	slli	x31,x31,0xc
    41016304:	007f8f93          	addi	x31,x31,7
    41016308:	00000073          	ecall
    4101630c:	00200a13          	li	x20,2
    41016310:	0143ef33          	or	x30,x7,x20
    41016314:	000f0393          	mv	x7,x30
    41016318:	0001afb7          	lui	x31,0x1a
    4101631c:	0b0f8f9b          	addiw	x31,x31,176 # 1a0b0 <pte_access_flags>
    41016320:	0010029b          	addiw	x5,x0,1
    41016324:	03329293          	slli	x5,x5,0x33
    41016328:	005fb023          	sd	x5,0(x31)
    4101632c:	00400293          	li	x5,4
    41016330:	005fb423          	sd	x5,8(x31)
    41016334:	fff00293          	li	x5,-1
    41016338:	005fb823          	sd	x5,16(x31)
    4101633c:	000f0fb7          	lui	x31,0xf0
    41016340:	001f8f9b          	addiw	x31,x31,1 # f0001 <mem24__pt_level4+0x7cf91>
    41016344:	00cf9f93          	slli	x31,x31,0xc
    41016348:	008f8f93          	addi	x31,x31,8
    4101634c:	00000073          	ecall
    41016350:	0001afb7          	lui	x31,0x1a
    41016354:	0b0f8f9b          	addiw	x31,x31,176 # 1a0b0 <pte_access_flags>
    41016358:	0110029b          	addiw	x5,x0,17
    4101635c:	03029293          	slli	x5,x5,0x30
    41016360:	005fb023          	sd	x5,0(x31)
    41016364:	00400293          	li	x5,4
    41016368:	005fb423          	sd	x5,8(x31)
    4101636c:	fff00293          	li	x5,-1
    41016370:	005fb823          	sd	x5,16(x31)
    41016374:	000f0fb7          	lui	x31,0xf0
    41016378:	001f8f9b          	addiw	x31,x31,1 # f0001 <mem24__pt_level4+0x7cf91>
    4101637c:	00cf9f93          	slli	x31,x31,0xc
    41016380:	007f8f93          	addi	x31,x31,7
    41016384:	00000073          	ecall
    41016388:	00200413          	li	x8,2
    4101638c:	0083e333          	or	x6,x7,x8
    41016390:	00030393          	mv	x7,x6
    41016394:	0001afb7          	lui	x31,0x1a
    41016398:	0b0f8f9b          	addiw	x31,x31,176 # 1a0b0 <pte_access_flags>
    4101639c:	0110029b          	addiw	x5,x0,17
    410163a0:	03029293          	slli	x5,x5,0x30
    410163a4:	005fb023          	sd	x5,0(x31)
    410163a8:	00400293          	li	x5,4
    410163ac:	005fb423          	sd	x5,8(x31)
    410163b0:	fff00293          	li	x5,-1
    410163b4:	005fb823          	sd	x5,16(x31)
    410163b8:	000f0fb7          	lui	x31,0xf0
    410163bc:	001f8f9b          	addiw	x31,x31,1 # f0001 <mem24__pt_level4+0x7cf91>
    410163c0:	00cf9f93          	slli	x31,x31,0xc
    410163c4:	008f8f93          	addi	x31,x31,8
    410163c8:	00000073          	ecall
    410163cc:	006d0137          	lui	x2,0x6d0
    410163d0:	00013383          	ld	x7,0(x2) # 6d0000 <tp_csr_storage>
    410163d4:	0001afb7          	lui	x31,0x1a
    410163d8:	0a0f8f9b          	addiw	x31,x31,160 # 1a0a0 <machine_csr_jump_table_flags>
    410163dc:	00800f13          	li	x30,8
    410163e0:	01efb023          	sd	x30,0(x31)
    410163e4:	000f0fb7          	lui	x31,0xf0
    410163e8:	001f8f9b          	addiw	x31,x31,1 # f0001 <mem24__pt_level4+0x7cf91>
    410163ec:	00cf9f93          	slli	x31,x31,0xc
    410163f0:	005f8f93          	addi	x31,x31,5
    410163f4:	00000073          	ecall

00000000410163f8 <SID_PBVMS_033_sfence_vma_invalidate_va_passed>:
    410163f8:	00f00f9b          	addiw	x31,x0,15
    410163fc:	01cf9f93          	slli	x31,x31,0x1c
    41016400:	001f8f93          	addi	x31,x31,1
    41016404:	00000073          	ecall

0000000041016408 <SID_PBVMS_034_sfence_vma_invalidate_va_asid>:
    41016408:	006d0137          	lui	x2,0x6d0
    4101640c:	0001afb7          	lui	x31,0x1a
    41016410:	0a0f8f9b          	addiw	x31,x31,160 # 1a0a0 <machine_csr_jump_table_flags>
    41016414:	00700f13          	li	x30,7
    41016418:	01efb023          	sd	x30,0(x31)
    4101641c:	000f0fb7          	lui	x31,0xf0
    41016420:	001f8f9b          	addiw	x31,x31,1 # f0001 <mem24__pt_level4+0x7cf91>
    41016424:	00cf9f93          	slli	x31,x31,0xc
    41016428:	005f8f93          	addi	x31,x31,5
    4101642c:	00000073          	ecall
    41016430:	00713023          	sd	x7,0(x2) # 6d0000 <tp_csr_storage>
    41016434:	00275137          	lui	x2,0x275
    41016438:	000012b7          	lui	x5,0x1
    4101643c:	00510133          	add	x2,x2,x5
    41016440:	ff017113          	andi	x2,x2,-16
    41016444:	00010eb7          	lui	x29,0x10
    41016448:	fffe8e9b          	addiw	x29,x29,-1 # ffff <mem29__pt_level0+0x1fff>
    4101644c:	02ce9e93          	slli	x29,x29,0x2c
    41016450:	180ebcf3          	csrrc	x25,satp,x29
    41016454:	0010081b          	addiw	x16,x0,1
    41016458:	02c81813          	slli	x16,x16,0x2c
    4101645c:	18082af3          	csrrs	x21,satp,x16
    41016460:	0030099b          	addiw	x19,x0,3
    41016464:	03299993          	slli	x19,x19,0x32
    41016468:	00098883          	lb	x17,0(x19)
    4101646c:	0001afb7          	lui	x31,0x1a
    41016470:	0b0f8f9b          	addiw	x31,x31,176 # 1a0b0 <pte_access_flags>
    41016474:	0030029b          	addiw	x5,x0,3
    41016478:	03229293          	slli	x5,x5,0x32
    4101647c:	005fb023          	sd	x5,0(x31)
    41016480:	00400293          	li	x5,4
    41016484:	005fb423          	sd	x5,8(x31)
    41016488:	fff00293          	li	x5,-1
    4101648c:	005fb823          	sd	x5,16(x31)
    41016490:	000f0fb7          	lui	x31,0xf0
    41016494:	001f8f9b          	addiw	x31,x31,1 # f0001 <mem24__pt_level4+0x7cf91>
    41016498:	00cf9f93          	slli	x31,x31,0xc
    4101649c:	007f8f93          	addi	x31,x31,7
    410164a0:	00000073          	ecall
    410164a4:	ffd00b93          	li	x23,-3
    410164a8:	0173f4b3          	and	x9,x7,x23
    410164ac:	00048393          	mv	x7,x9
    410164b0:	0001afb7          	lui	x31,0x1a
    410164b4:	0b0f8f9b          	addiw	x31,x31,176 # 1a0b0 <pte_access_flags>
    410164b8:	0030029b          	addiw	x5,x0,3
    410164bc:	03229293          	slli	x5,x5,0x32
    410164c0:	005fb023          	sd	x5,0(x31)
    410164c4:	00400293          	li	x5,4
    410164c8:	005fb423          	sd	x5,8(x31)
    410164cc:	fff00293          	li	x5,-1
    410164d0:	005fb823          	sd	x5,16(x31)
    410164d4:	000f0fb7          	lui	x31,0xf0
    410164d8:	001f8f9b          	addiw	x31,x31,1 # f0001 <mem24__pt_level4+0x7cf91>
    410164dc:	00cf9f93          	slli	x31,x31,0xc
    410164e0:	008f8f93          	addi	x31,x31,8
    410164e4:	00000073          	ecall
    410164e8:	00010537          	lui	x10,0x10
    410164ec:	fff5051b          	addiw	x10,x10,-1 # ffff <mem29__pt_level0+0x1fff>
    410164f0:	02c51513          	slli	x10,x10,0x2c
    410164f4:	18053c73          	csrrc	x24,satp,x10
    410164f8:	0010099b          	addiw	x19,x0,1
    410164fc:	02d99993          	slli	x19,x19,0x2d
    41016500:	1809aff3          	csrrs	x31,satp,x19
    41016504:	0030061b          	addiw	x12,x0,3
    41016508:	03261613          	slli	x12,x12,0x32
    4101650c:	00100b13          	li	x22,1
    41016510:	13660073          	sfence.vma	x12,x22
    41016514:	00010937          	lui	x18,0x10
    41016518:	fff9091b          	addiw	x18,x18,-1 # ffff <mem29__pt_level0+0x1fff>
    4101651c:	02c91913          	slli	x18,x18,0x2c
    41016520:	18093973          	csrrc	x18,satp,x18
    41016524:	0010051b          	addiw	x10,x0,1
    41016528:	02c51513          	slli	x10,x10,0x2c
    4101652c:	18052973          	csrrs	x18,satp,x10
    41016530:	00004237          	lui	x4,0x4
    41016534:	00d00e13          	li	x28,13
    41016538:	05c23823          	sd	x28,80(x4) # 4050 <check_excp_expected_cause>
    4101653c:	00000e17          	auipc	x28,0x0
    41016540:	050e0e13          	addi	x28,x28,80 # 4101658c <fault_label_23>
    41016544:	03c23023          	sd	x28,32(x4) # 20 <SECURE_ACCESS_PROBABILITY+0x2>
    41016548:	00000e13          	li	x28,0
    4101654c:	05c23023          	sd	x28,64(x4) # 40 <XLEN>
    41016550:	00000e13          	li	x28,0
    41016554:	05c23423          	sd	x28,72(x4) # 48 <XLEN+0x8>
    41016558:	00000e17          	auipc	x28,0x0
    4101655c:	048e0e13          	addi	x28,x28,72 # 410165a0 <excp_return_label_23>
    41016560:	03c23823          	sd	x28,48(x4) # 30 <SECURE_ACCESS_PROBABILITY+0x12>
    41016564:	00000e13          	li	x28,0
    41016568:	03c23c23          	sd	x28,56(x4) # 38 <SECURE_ACCESS_PROBABILITY+0x1a>
    4101656c:	00000e13          	li	x28,0
    41016570:	07c23023          	sd	x28,96(x4) # 60 <XLEN+0x20>
    41016574:	00000e13          	li	x28,0
    41016578:	07c23423          	sd	x28,104(x4) # 68 <XLEN+0x28>
    4101657c:	00000e13          	li	x28,0
    41016580:	07c23823          	sd	x28,112(x4) # 70 <XLEN+0x30>
    41016584:	0030049b          	addiw	x9,x0,3
    41016588:	03249493          	slli	x9,x9,0x32

000000004101658c <fault_label_23>:
    4101658c:	0004db03          	lhu	x22,0(x9)
    41016590:	0001a8b7          	lui	x17,0x1a
    41016594:	0088889b          	addiw	x17,x17,8 # 1a008 <failed_addr>
    41016598:	0008b503          	ld	x10,0(x17)
    4101659c:	00050067          	jr	x10

00000000410165a0 <excp_return_label_23>:
    410165a0:	0001afb7          	lui	x31,0x1a
    410165a4:	0b0f8f9b          	addiw	x31,x31,176 # 1a0b0 <pte_access_flags>
    410165a8:	0030029b          	addiw	x5,x0,3
    410165ac:	03229293          	slli	x5,x5,0x32
    410165b0:	005fb023          	sd	x5,0(x31)
    410165b4:	00400293          	li	x5,4
    410165b8:	005fb423          	sd	x5,8(x31)
    410165bc:	fff00293          	li	x5,-1
    410165c0:	005fb823          	sd	x5,16(x31)
    410165c4:	000f0fb7          	lui	x31,0xf0
    410165c8:	001f8f9b          	addiw	x31,x31,1 # f0001 <mem24__pt_level4+0x7cf91>
    410165cc:	00cf9f93          	slli	x31,x31,0xc
    410165d0:	007f8f93          	addi	x31,x31,7
    410165d4:	00000073          	ecall
    410165d8:	00200e93          	li	x29,2
    410165dc:	01d3edb3          	or	x27,x7,x29
    410165e0:	000d8393          	mv	x7,x27
    410165e4:	0001afb7          	lui	x31,0x1a
    410165e8:	0b0f8f9b          	addiw	x31,x31,176 # 1a0b0 <pte_access_flags>
    410165ec:	0030029b          	addiw	x5,x0,3
    410165f0:	03229293          	slli	x5,x5,0x32
    410165f4:	005fb023          	sd	x5,0(x31)
    410165f8:	00400293          	li	x5,4
    410165fc:	005fb423          	sd	x5,8(x31)
    41016600:	fff00293          	li	x5,-1
    41016604:	005fb823          	sd	x5,16(x31)
    41016608:	000f0fb7          	lui	x31,0xf0
    4101660c:	001f8f9b          	addiw	x31,x31,1 # f0001 <mem24__pt_level4+0x7cf91>
    41016610:	00cf9f93          	slli	x31,x31,0xc
    41016614:	008f8f93          	addi	x31,x31,8
    41016618:	00000073          	ecall
    4101661c:	006d0137          	lui	x2,0x6d0
    41016620:	00013383          	ld	x7,0(x2) # 6d0000 <tp_csr_storage>
    41016624:	0001afb7          	lui	x31,0x1a
    41016628:	0a0f8f9b          	addiw	x31,x31,160 # 1a0a0 <machine_csr_jump_table_flags>
    4101662c:	00800f13          	li	x30,8
    41016630:	01efb023          	sd	x30,0(x31)
    41016634:	000f0fb7          	lui	x31,0xf0
    41016638:	001f8f9b          	addiw	x31,x31,1 # f0001 <mem24__pt_level4+0x7cf91>
    4101663c:	00cf9f93          	slli	x31,x31,0xc
    41016640:	005f8f93          	addi	x31,x31,5
    41016644:	00000073          	ecall

0000000041016648 <SID_PBVMS_034_sfence_vma_invalidate_va_asid_passed>:
    41016648:	00f00f9b          	addiw	x31,x0,15
    4101664c:	01cf9f93          	slli	x31,x31,0x1c
    41016650:	001f8f93          	addi	x31,x31,1
    41016654:	00000073          	ecall

0000000041016658 <SID_PBVMS_035_sfence_vma_various_page_sizes>:
    41016658:	000ce137          	lui	x2,0xce
    4101665c:	72b1011b          	addiw	x2,x2,1835 # ce72b <mem24__pt_level4+0x5b6bb>
    41016660:	00e11113          	slli	x2,x2,0xe
    41016664:	31b10113          	addi	x2,x2,795
    41016668:	00e11113          	slli	x2,x2,0xe
    4101666c:	000012b7          	lui	x5,0x1
    41016670:	00510133          	add	x2,x2,x5
    41016674:	ff017113          	andi	x2,x2,-16
    41016678:	0030061b          	addiw	x12,x0,3
    4101667c:	03161613          	slli	x12,x12,0x31
    41016680:	00063703          	ld	x14,0(x12)
    41016684:	0001afb7          	lui	x31,0x1a
    41016688:	0b0f8f9b          	addiw	x31,x31,176 # 1a0b0 <pte_access_flags>
    4101668c:	0030029b          	addiw	x5,x0,3
    41016690:	03129293          	slli	x5,x5,0x31
    41016694:	005fb023          	sd	x5,0(x31)
    41016698:	00400293          	li	x5,4
    4101669c:	005fb423          	sd	x5,8(x31)
    410166a0:	fff00293          	li	x5,-1
    410166a4:	005fb823          	sd	x5,16(x31)
    410166a8:	000f0fb7          	lui	x31,0xf0
    410166ac:	001f8f9b          	addiw	x31,x31,1 # f0001 <mem24__pt_level4+0x7cf91>
    410166b0:	00cf9f93          	slli	x31,x31,0xc
    410166b4:	007f8f93          	addi	x31,x31,7
    410166b8:	00000073          	ecall
    410166bc:	ffd00a13          	li	x20,-3
    410166c0:	0143f4b3          	and	x9,x7,x20
    410166c4:	00048393          	mv	x7,x9
    410166c8:	0001afb7          	lui	x31,0x1a
    410166cc:	0b0f8f9b          	addiw	x31,x31,176 # 1a0b0 <pte_access_flags>
    410166d0:	0030029b          	addiw	x5,x0,3
    410166d4:	03129293          	slli	x5,x5,0x31
    410166d8:	005fb023          	sd	x5,0(x31)
    410166dc:	00400293          	li	x5,4
    410166e0:	005fb423          	sd	x5,8(x31)
    410166e4:	fff00293          	li	x5,-1
    410166e8:	005fb823          	sd	x5,16(x31)
    410166ec:	000f0fb7          	lui	x31,0xf0
    410166f0:	001f8f9b          	addiw	x31,x31,1 # f0001 <mem24__pt_level4+0x7cf91>
    410166f4:	00cf9f93          	slli	x31,x31,0xc
    410166f8:	008f8f93          	addi	x31,x31,8
    410166fc:	00000073          	ecall
    41016700:	12000073          	sfence.vma
    41016704:	00004237          	lui	x4,0x4
    41016708:	00d00e13          	li	x28,13
    4101670c:	05c23823          	sd	x28,80(x4) # 4050 <check_excp_expected_cause>
    41016710:	00000e17          	auipc	x28,0x0
    41016714:	050e0e13          	addi	x28,x28,80 # 41016760 <fault_label_24>
    41016718:	03c23023          	sd	x28,32(x4) # 20 <SECURE_ACCESS_PROBABILITY+0x2>
    4101671c:	00000e13          	li	x28,0
    41016720:	05c23023          	sd	x28,64(x4) # 40 <XLEN>
    41016724:	00000e13          	li	x28,0
    41016728:	05c23423          	sd	x28,72(x4) # 48 <XLEN+0x8>
    4101672c:	00000e17          	auipc	x28,0x0
    41016730:	048e0e13          	addi	x28,x28,72 # 41016774 <excp_return_label_24>
    41016734:	03c23823          	sd	x28,48(x4) # 30 <SECURE_ACCESS_PROBABILITY+0x12>
    41016738:	00000e13          	li	x28,0
    4101673c:	03c23c23          	sd	x28,56(x4) # 38 <SECURE_ACCESS_PROBABILITY+0x1a>
    41016740:	00000e13          	li	x28,0
    41016744:	07c23023          	sd	x28,96(x4) # 60 <XLEN+0x20>
    41016748:	00000e13          	li	x28,0
    4101674c:	07c23423          	sd	x28,104(x4) # 68 <XLEN+0x28>
    41016750:	00000e13          	li	x28,0
    41016754:	07c23823          	sd	x28,112(x4) # 70 <XLEN+0x30>
    41016758:	0030091b          	addiw	x18,x0,3
    4101675c:	03191913          	slli	x18,x18,0x31

0000000041016760 <fault_label_24>:
    41016760:	00092187          	flw	f3,0(x18)
    41016764:	0001a3b7          	lui	x7,0x1a
    41016768:	0083839b          	addiw	x7,x7,8 # 1a008 <failed_addr>
    4101676c:	0003bd03          	ld	x26,0(x7)
    41016770:	000d0067          	jr	x26

0000000041016774 <excp_return_label_24>:
    41016774:	0190051b          	addiw	x10,x0,25
    41016778:	03151513          	slli	x10,x10,0x31
    4101677c:	00051a03          	lh	x20,0(x10)
    41016780:	0001afb7          	lui	x31,0x1a
    41016784:	0b0f8f9b          	addiw	x31,x31,176 # 1a0b0 <pte_access_flags>
    41016788:	0190029b          	addiw	x5,x0,25
    4101678c:	03129293          	slli	x5,x5,0x31
    41016790:	005fb023          	sd	x5,0(x31)
    41016794:	00300293          	li	x5,3
    41016798:	005fb423          	sd	x5,8(x31)
    4101679c:	fff00293          	li	x5,-1
    410167a0:	005fb823          	sd	x5,16(x31)
    410167a4:	000f0fb7          	lui	x31,0xf0
    410167a8:	001f8f9b          	addiw	x31,x31,1 # f0001 <mem24__pt_level4+0x7cf91>
    410167ac:	00cf9f93          	slli	x31,x31,0xc
    410167b0:	007f8f93          	addi	x31,x31,7
    410167b4:	00000073          	ecall
    410167b8:	ffd00613          	li	x12,-3
    410167bc:	00c3f933          	and	x18,x7,x12
    410167c0:	00090393          	mv	x7,x18
    410167c4:	0001afb7          	lui	x31,0x1a
    410167c8:	0b0f8f9b          	addiw	x31,x31,176 # 1a0b0 <pte_access_flags>
    410167cc:	0190029b          	addiw	x5,x0,25
    410167d0:	03129293          	slli	x5,x5,0x31
    410167d4:	005fb023          	sd	x5,0(x31)
    410167d8:	00300293          	li	x5,3
    410167dc:	005fb423          	sd	x5,8(x31)
    410167e0:	fff00293          	li	x5,-1
    410167e4:	005fb823          	sd	x5,16(x31)
    410167e8:	000f0fb7          	lui	x31,0xf0
    410167ec:	001f8f9b          	addiw	x31,x31,1 # f0001 <mem24__pt_level4+0x7cf91>
    410167f0:	00cf9f93          	slli	x31,x31,0xc
    410167f4:	008f8f93          	addi	x31,x31,8
    410167f8:	00000073          	ecall
    410167fc:	12000073          	sfence.vma
    41016800:	00004237          	lui	x4,0x4
    41016804:	00d00e13          	li	x28,13
    41016808:	05c23823          	sd	x28,80(x4) # 4050 <check_excp_expected_cause>
    4101680c:	00000e17          	auipc	x28,0x0
    41016810:	050e0e13          	addi	x28,x28,80 # 4101685c <fault_label_25>
    41016814:	03c23023          	sd	x28,32(x4) # 20 <SECURE_ACCESS_PROBABILITY+0x2>
    41016818:	00000e13          	li	x28,0
    4101681c:	05c23023          	sd	x28,64(x4) # 40 <XLEN>
    41016820:	00000e13          	li	x28,0
    41016824:	05c23423          	sd	x28,72(x4) # 48 <XLEN+0x8>
    41016828:	00000e17          	auipc	x28,0x0
    4101682c:	048e0e13          	addi	x28,x28,72 # 41016870 <excp_return_label_25>
    41016830:	03c23823          	sd	x28,48(x4) # 30 <SECURE_ACCESS_PROBABILITY+0x12>
    41016834:	00000e13          	li	x28,0
    41016838:	03c23c23          	sd	x28,56(x4) # 38 <SECURE_ACCESS_PROBABILITY+0x1a>
    4101683c:	00000e13          	li	x28,0
    41016840:	07c23023          	sd	x28,96(x4) # 60 <XLEN+0x20>
    41016844:	00000e13          	li	x28,0
    41016848:	07c23423          	sd	x28,104(x4) # 68 <XLEN+0x28>
    4101684c:	00000e13          	li	x28,0
    41016850:	07c23823          	sd	x28,112(x4) # 70 <XLEN+0x30>
    41016854:	01900b9b          	addiw	x23,x0,25
    41016858:	031b9b93          	slli	x23,x23,0x31

000000004101685c <fault_label_25>:
    4101685c:	000bd983          	lhu	x19,0(x23)
    41016860:	0001ae37          	lui	x28,0x1a
    41016864:	008e0e1b          	addiw	x28,x28,8 # 1a008 <failed_addr>
    41016868:	000e3c03          	ld	x24,0(x28)
    4101686c:	000c0067          	jr	x24

0000000041016870 <excp_return_label_25>:
    41016870:	0001afb7          	lui	x31,0x1a
    41016874:	0b0f8f9b          	addiw	x31,x31,176 # 1a0b0 <pte_access_flags>
    41016878:	0190029b          	addiw	x5,x0,25
    4101687c:	03129293          	slli	x5,x5,0x31
    41016880:	005fb023          	sd	x5,0(x31)
    41016884:	00300293          	li	x5,3
    41016888:	005fb423          	sd	x5,8(x31)
    4101688c:	fff00293          	li	x5,-1
    41016890:	005fb823          	sd	x5,16(x31)
    41016894:	000f0fb7          	lui	x31,0xf0
    41016898:	001f8f9b          	addiw	x31,x31,1 # f0001 <mem24__pt_level4+0x7cf91>
    4101689c:	00cf9f93          	slli	x31,x31,0xc
    410168a0:	007f8f93          	addi	x31,x31,7
    410168a4:	00000073          	ecall
    410168a8:	00200413          	li	x8,2
    410168ac:	0083eeb3          	or	x29,x7,x8
    410168b0:	000e8393          	mv	x7,x29
    410168b4:	0001afb7          	lui	x31,0x1a
    410168b8:	0b0f8f9b          	addiw	x31,x31,176 # 1a0b0 <pte_access_flags>
    410168bc:	0190029b          	addiw	x5,x0,25
    410168c0:	03129293          	slli	x5,x5,0x31
    410168c4:	005fb023          	sd	x5,0(x31)
    410168c8:	00300293          	li	x5,3
    410168cc:	005fb423          	sd	x5,8(x31)
    410168d0:	fff00293          	li	x5,-1
    410168d4:	005fb823          	sd	x5,16(x31)
    410168d8:	000f0fb7          	lui	x31,0xf0
    410168dc:	001f8f9b          	addiw	x31,x31,1 # f0001 <mem24__pt_level4+0x7cf91>
    410168e0:	00cf9f93          	slli	x31,x31,0xc
    410168e4:	008f8f93          	addi	x31,x31,8
    410168e8:	00000073          	ecall
    410168ec:	0001afb7          	lui	x31,0x1a
    410168f0:	0b0f8f9b          	addiw	x31,x31,176 # 1a0b0 <pte_access_flags>
    410168f4:	0030029b          	addiw	x5,x0,3
    410168f8:	03129293          	slli	x5,x5,0x31
    410168fc:	005fb023          	sd	x5,0(x31)
    41016900:	00400293          	li	x5,4
    41016904:	005fb423          	sd	x5,8(x31)
    41016908:	fff00293          	li	x5,-1
    4101690c:	005fb823          	sd	x5,16(x31)
    41016910:	000f0fb7          	lui	x31,0xf0
    41016914:	001f8f9b          	addiw	x31,x31,1 # f0001 <mem24__pt_level4+0x7cf91>
    41016918:	00cf9f93          	slli	x31,x31,0xc
    4101691c:	007f8f93          	addi	x31,x31,7
    41016920:	00000073          	ecall
    41016924:	00200893          	li	x17,2
    41016928:	0113efb3          	or	x31,x7,x17
    4101692c:	000f8393          	mv	x7,x31
    41016930:	0001afb7          	lui	x31,0x1a
    41016934:	0b0f8f9b          	addiw	x31,x31,176 # 1a0b0 <pte_access_flags>
    41016938:	0030029b          	addiw	x5,x0,3
    4101693c:	03129293          	slli	x5,x5,0x31
    41016940:	005fb023          	sd	x5,0(x31)
    41016944:	00400293          	li	x5,4
    41016948:	005fb423          	sd	x5,8(x31)
    4101694c:	fff00293          	li	x5,-1
    41016950:	005fb823          	sd	x5,16(x31)
    41016954:	000f0fb7          	lui	x31,0xf0
    41016958:	001f8f9b          	addiw	x31,x31,1 # f0001 <mem24__pt_level4+0x7cf91>
    4101695c:	00cf9f93          	slli	x31,x31,0xc
    41016960:	008f8f93          	addi	x31,x31,8
    41016964:	00000073          	ecall

0000000041016968 <SID_PBVMS_035_sfence_vma_various_page_sizes_passed>:
    41016968:	00f00f9b          	addiw	x31,x0,15
    4101696c:	01cf9f93          	slli	x31,x31,0x1c
    41016970:	001f8f93          	addi	x31,x31,1
    41016974:	00000073          	ecall

0000000041016978 <SID_PBVMS_037_sfence_vma_tvm_illegal>:
    41016978:	006d0137          	lui	x2,0x6d0
    4101697c:	0001afb7          	lui	x31,0x1a
    41016980:	0a0f8f9b          	addiw	x31,x31,160 # 1a0a0 <machine_csr_jump_table_flags>
    41016984:	00100f13          	li	x30,1
    41016988:	01efb023          	sd	x30,0(x31)
    4101698c:	000f0fb7          	lui	x31,0xf0
    41016990:	001f8f9b          	addiw	x31,x31,1 # f0001 <mem24__pt_level4+0x7cf91>
    41016994:	00cf9f93          	slli	x31,x31,0xc
    41016998:	005f8f93          	addi	x31,x31,5
    4101699c:	00000073          	ecall
    410169a0:	00713023          	sd	x7,0(x2) # 6d0000 <tp_csr_storage>
    410169a4:	00084137          	lui	x2,0x84
    410169a8:	2731011b          	addiw	x2,x2,627 # 84273 <mem24__pt_level4+0x11203>
    410169ac:	00c11113          	slli	x2,x2,0xc
    410169b0:	59f10113          	addi	x2,x2,1439
    410169b4:	00c11113          	slli	x2,x2,0xc
    410169b8:	000012b7          	lui	x5,0x1
    410169bc:	00510133          	add	x2,x2,x5
    410169c0:	ff017113          	andi	x2,x2,-16
    410169c4:	001003b7          	lui	x7,0x100
    410169c8:	0001afb7          	lui	x31,0x1a
    410169cc:	0a0f8f9b          	addiw	x31,x31,160 # 1a0a0 <machine_csr_jump_table_flags>
    410169d0:	00200f13          	li	x30,2
    410169d4:	01efb023          	sd	x30,0(x31)
    410169d8:	000f0fb7          	lui	x31,0xf0
    410169dc:	001f8f9b          	addiw	x31,x31,1 # f0001 <mem24__pt_level4+0x7cf91>
    410169e0:	00cf9f93          	slli	x31,x31,0xc
    410169e4:	005f8f93          	addi	x31,x31,5
    410169e8:	00000073          	ecall
    410169ec:	00004237          	lui	x4,0x4
    410169f0:	00200e13          	li	x28,2
    410169f4:	05c23823          	sd	x28,80(x4) # 4050 <check_excp_expected_cause>
    410169f8:	00000e17          	auipc	x28,0x0
    410169fc:	048e0e13          	addi	x28,x28,72 # 41016a40 <fault_label_26>
    41016a00:	03c23023          	sd	x28,32(x4) # 20 <SECURE_ACCESS_PROBABILITY+0x2>
    41016a04:	00000e13          	li	x28,0
    41016a08:	05c23023          	sd	x28,64(x4) # 40 <XLEN>
    41016a0c:	00000e13          	li	x28,0
    41016a10:	05c23423          	sd	x28,72(x4) # 48 <XLEN+0x8>
    41016a14:	00000e17          	auipc	x28,0x0
    41016a18:	040e0e13          	addi	x28,x28,64 # 41016a54 <excp_return_label_26>
    41016a1c:	03c23823          	sd	x28,48(x4) # 30 <SECURE_ACCESS_PROBABILITY+0x12>
    41016a20:	00000e13          	li	x28,0
    41016a24:	03c23c23          	sd	x28,56(x4) # 38 <SECURE_ACCESS_PROBABILITY+0x1a>
    41016a28:	00000e13          	li	x28,0
    41016a2c:	07c23023          	sd	x28,96(x4) # 60 <XLEN+0x20>
    41016a30:	00000e13          	li	x28,0
    41016a34:	07c23423          	sd	x28,104(x4) # 68 <XLEN+0x28>
    41016a38:	00000e13          	li	x28,0
    41016a3c:	07c23823          	sd	x28,112(x4) # 70 <XLEN+0x30>

0000000041016a40 <fault_label_26>:
    41016a40:	12000073          	sfence.vma
    41016a44:	0001a3b7          	lui	x7,0x1a
    41016a48:	0083839b          	addiw	x7,x7,8 # 1a008 <failed_addr>
    41016a4c:	0003bc83          	ld	x25,0(x7)
    41016a50:	000c8067          	jr	x25

0000000041016a54 <excp_return_label_26>:
    41016a54:	001003b7          	lui	x7,0x100
    41016a58:	0001afb7          	lui	x31,0x1a
    41016a5c:	0a0f8f9b          	addiw	x31,x31,160 # 1a0a0 <machine_csr_jump_table_flags>
    41016a60:	00300f13          	li	x30,3
    41016a64:	01efb023          	sd	x30,0(x31)
    41016a68:	000f0fb7          	lui	x31,0xf0
    41016a6c:	001f8f9b          	addiw	x31,x31,1 # f0001 <mem24__pt_level4+0x7cf91>
    41016a70:	00cf9f93          	slli	x31,x31,0xc
    41016a74:	005f8f93          	addi	x31,x31,5
    41016a78:	00000073          	ecall
    41016a7c:	12000073          	sfence.vma
    41016a80:	006d0137          	lui	x2,0x6d0
    41016a84:	00013383          	ld	x7,0(x2) # 6d0000 <tp_csr_storage>
    41016a88:	0001afb7          	lui	x31,0x1a
    41016a8c:	0a0f8f9b          	addiw	x31,x31,160 # 1a0a0 <machine_csr_jump_table_flags>
    41016a90:	00600f13          	li	x30,6
    41016a94:	01efb023          	sd	x30,0(x31)
    41016a98:	000f0fb7          	lui	x31,0xf0
    41016a9c:	001f8f9b          	addiw	x31,x31,1 # f0001 <mem24__pt_level4+0x7cf91>
    41016aa0:	00cf9f93          	slli	x31,x31,0xc
    41016aa4:	005f8f93          	addi	x31,x31,5
    41016aa8:	00000073          	ecall

0000000041016aac <SID_PBVMS_037_sfence_vma_tvm_illegal_passed>:
    41016aac:	00f00f9b          	addiw	x31,x0,15
    41016ab0:	01cf9f93          	slli	x31,x31,0x1c
    41016ab4:	001f8f93          	addi	x31,x31,1
    41016ab8:	00000073          	ecall

0000000041016abc <SID_PBVMS_039_non_leaf_not_invalidated_va_based>:
    41016abc:	00020137          	lui	x2,0x20
    41016ac0:	1211011b          	addiw	x2,x2,289 # 20121 <mem23__pt_level2+0x121>
    41016ac4:	00e11113          	slli	x2,x2,0xe
    41016ac8:	000012b7          	lui	x5,0x1
    41016acc:	00510133          	add	x2,x2,x5
    41016ad0:	ff017113          	andi	x2,x2,-16
    41016ad4:	f610081b          	addiw	x16,x0,-159
    41016ad8:	03081813          	slli	x16,x16,0x30
    41016adc:	00085483          	lhu	x9,0(x16)
    41016ae0:	0001afb7          	lui	x31,0x1a
    41016ae4:	0b0f8f9b          	addiw	x31,x31,176 # 1a0b0 <pte_access_flags>
    41016ae8:	f610029b          	addiw	x5,x0,-159
    41016aec:	03029293          	slli	x5,x5,0x30
    41016af0:	005fb023          	sd	x5,0(x31)
    41016af4:	00100293          	li	x5,1
    41016af8:	005fb423          	sd	x5,8(x31)
    41016afc:	fff00293          	li	x5,-1
    41016b00:	005fb823          	sd	x5,16(x31)
    41016b04:	000f0fb7          	lui	x31,0xf0
    41016b08:	001f8f9b          	addiw	x31,x31,1 # f0001 <mem24__pt_level4+0x7cf91>
    41016b0c:	00cf9f93          	slli	x31,x31,0xc
    41016b10:	007f8f93          	addi	x31,x31,7
    41016b14:	00000073          	ecall
    41016b18:	ffd00d13          	li	x26,-3
    41016b1c:	01a3feb3          	and	x29,x7,x26
    41016b20:	000e8393          	mv	x7,x29
    41016b24:	0001afb7          	lui	x31,0x1a
    41016b28:	0b0f8f9b          	addiw	x31,x31,176 # 1a0b0 <pte_access_flags>
    41016b2c:	f610029b          	addiw	x5,x0,-159
    41016b30:	03029293          	slli	x5,x5,0x30
    41016b34:	005fb023          	sd	x5,0(x31)
    41016b38:	00100293          	li	x5,1
    41016b3c:	005fb423          	sd	x5,8(x31)
    41016b40:	fff00293          	li	x5,-1
    41016b44:	005fb823          	sd	x5,16(x31)
    41016b48:	000f0fb7          	lui	x31,0xf0
    41016b4c:	001f8f9b          	addiw	x31,x31,1 # f0001 <mem24__pt_level4+0x7cf91>
    41016b50:	00cf9f93          	slli	x31,x31,0xc
    41016b54:	008f8f93          	addi	x31,x31,8
    41016b58:	00000073          	ecall
    41016b5c:	f6100e1b          	addiw	x28,x0,-159
    41016b60:	030e1e13          	slli	x28,x28,0x30
    41016b64:	120e0073          	sfence.vma	x28
    41016b68:	f6100e1b          	addiw	x28,x0,-159
    41016b6c:	030e1e13          	slli	x28,x28,0x30
    41016b70:	000e1f83          	lh	x31,0(x28)

0000000041016b74 <SID_PBVMS_039_non_leaf_not_invalidated_va_based_passed>:
    41016b74:	00f00f9b          	addiw	x31,x0,15
    41016b78:	01cf9f93          	slli	x31,x31,0x1c
    41016b7c:	001f8f93          	addi	x31,x31,1
    41016b80:	00000073          	ecall

0000000041016b84 <SID_PBVMS_040_context_table_overflow>:
    41016b84:	006d0137          	lui	x2,0x6d0
    41016b88:	0001afb7          	lui	x31,0x1a
    41016b8c:	0a0f8f9b          	addiw	x31,x31,160 # 1a0a0 <machine_csr_jump_table_flags>
    41016b90:	00700f13          	li	x30,7
    41016b94:	01efb023          	sd	x30,0(x31)
    41016b98:	000f0fb7          	lui	x31,0xf0
    41016b9c:	001f8f9b          	addiw	x31,x31,1 # f0001 <mem24__pt_level4+0x7cf91>
    41016ba0:	00cf9f93          	slli	x31,x31,0xc
    41016ba4:	005f8f93          	addi	x31,x31,5
    41016ba8:	00000073          	ecall
    41016bac:	00713023          	sd	x7,0(x2) # 6d0000 <tp_csr_storage>
    41016bb0:	fff2b137          	lui	x2,0xfff2b
    41016bb4:	ccf1011b          	addiw	x2,x2,-817 # fffffffffff2accf <mem37+0x9efffffff2accf>
    41016bb8:	00c11113          	slli	x2,x2,0xc
    41016bbc:	5fd10113          	addi	x2,x2,1533
    41016bc0:	00c11113          	slli	x2,x2,0xc
    41016bc4:	3f310113          	addi	x2,x2,1011
    41016bc8:	00c11113          	slli	x2,x2,0xc
    41016bcc:	000012b7          	lui	x5,0x1
    41016bd0:	00510133          	add	x2,x2,x5
    41016bd4:	ff017113          	andi	x2,x2,-16
    41016bd8:	0010091b          	addiw	x18,x0,1
    41016bdc:	02c91913          	slli	x18,x18,0x2c
    41016be0:	18092473          	csrrs	x8,satp,x18
    41016be4:	000367b7          	lui	x15,0x36
    41016be8:	ca97879b          	addiw	x15,x15,-855 # 35ca9 <mem40__pt_level2+0xbca9>
    41016bec:	00f79793          	slli	x15,x15,0xf
    41016bf0:	76978793          	addi	x15,x15,1897
    41016bf4:	00d79793          	slli	x15,x15,0xd
    41016bf8:	0007cd03          	lbu	x26,0(x15)
    41016bfc:	0033d4b7          	lui	x9,0x33d
    41016c00:	000480e7          	jalr	x9 # 33d000 <code_mem39>
    41016c04:	0010079b          	addiw	x15,x0,1
    41016c08:	02d79793          	slli	x15,x15,0x2d
    41016c0c:	1807a573          	csrrs	x10,satp,x15
    41016c10:	00036337          	lui	x6,0x36
    41016c14:	ca93031b          	addiw	x6,x6,-855 # 35ca9 <mem40__pt_level2+0xbca9>
    41016c18:	00f31313          	slli	x6,x6,0xf
    41016c1c:	76930313          	addi	x6,x6,1897
    41016c20:	00d31313          	slli	x6,x6,0xd
    41016c24:	00031403          	lh	x8,0(x6)
    41016c28:	0033d3b7          	lui	x7,0x33d
    41016c2c:	000380e7          	jalr	x7 # 33d000 <code_mem39>
    41016c30:	00300b1b          	addiw	x22,x0,3
    41016c34:	02cb1b13          	slli	x22,x22,0x2c
    41016c38:	180b23f3          	csrrs	x7,satp,x22
    41016c3c:	000363b7          	lui	x7,0x36
    41016c40:	ca93839b          	addiw	x7,x7,-855 # 35ca9 <mem40__pt_level2+0xbca9>
    41016c44:	00f39393          	slli	x7,x7,0xf
    41016c48:	76938393          	addi	x7,x7,1897
    41016c4c:	00d39393          	slli	x7,x7,0xd
    41016c50:	00039c83          	lh	x25,0(x7)
    41016c54:	0033dfb7          	lui	x31,0x33d
    41016c58:	000f80e7          	jalr	x31 # 33d000 <code_mem39>
    41016c5c:	0010091b          	addiw	x18,x0,1
    41016c60:	02e91913          	slli	x18,x18,0x2e
    41016c64:	18092873          	csrrs	x16,satp,x18
    41016c68:	00036737          	lui	x14,0x36
    41016c6c:	ca97071b          	addiw	x14,x14,-855 # 35ca9 <mem40__pt_level2+0xbca9>
    41016c70:	00f71713          	slli	x14,x14,0xf
    41016c74:	76970713          	addi	x14,x14,1897
    41016c78:	00d71713          	slli	x14,x14,0xd
    41016c7c:	00070503          	lb	x10,0(x14)
    41016c80:	0033d737          	lui	x14,0x33d
    41016c84:	000700e7          	jalr	x14 # 33d000 <code_mem39>
    41016c88:	0010071b          	addiw	x14,x0,1
    41016c8c:	02c71713          	slli	x14,x14,0x2c
    41016c90:	18072e73          	csrrs	x28,satp,x14
    41016c94:	000366b7          	lui	x13,0x36
    41016c98:	ca96869b          	addiw	x13,x13,-855 # 35ca9 <mem40__pt_level2+0xbca9>
    41016c9c:	00f69693          	slli	x13,x13,0xf
    41016ca0:	76968693          	addi	x13,x13,1897
    41016ca4:	00d69693          	slli	x13,x13,0xd
    41016ca8:	00069b03          	lh	x22,0(x13)
    41016cac:	0033d537          	lui	x10,0x33d
    41016cb0:	000500e7          	jalr	x10 # 33d000 <code_mem39>
    41016cb4:	006d0137          	lui	x2,0x6d0
    41016cb8:	00013383          	ld	x7,0(x2) # 6d0000 <tp_csr_storage>
    41016cbc:	0001afb7          	lui	x31,0x1a
    41016cc0:	0a0f8f9b          	addiw	x31,x31,160 # 1a0a0 <machine_csr_jump_table_flags>
    41016cc4:	00800f13          	li	x30,8
    41016cc8:	01efb023          	sd	x30,0(x31)
    41016ccc:	000f0fb7          	lui	x31,0xf0
    41016cd0:	001f8f9b          	addiw	x31,x31,1 # f0001 <mem24__pt_level4+0x7cf91>
    41016cd4:	00cf9f93          	slli	x31,x31,0xc
    41016cd8:	005f8f93          	addi	x31,x31,5
    41016cdc:	00000073          	ecall

0000000041016ce0 <SID_PBVMS_040_context_table_overflow_passed>:
    41016ce0:	00f00f9b          	addiw	x31,x0,15
    41016ce4:	01cf9f93          	slli	x31,x31,0x1c
    41016ce8:	001f8f93          	addi	x31,x31,1
    41016cec:	00000073          	ecall

0000000041016cf0 <SID_PBVMS_041_partial_page_invalidation>:
    41016cf0:	00040137          	lui	x2,0x40
    41016cf4:	2431011b          	addiw	x2,x2,579 # 40243 <pma_region_0_size+0x243>
    41016cf8:	00d11113          	slli	x2,x2,0xd
    41016cfc:	000012b7          	lui	x5,0x1
    41016d00:	00510133          	add	x2,x2,x5
    41016d04:	ff017113          	andi	x2,x2,-16
    41016d08:	00900f1b          	addiw	x30,x0,9
    41016d0c:	031f1f13          	slli	x30,x30,0x31
    41016d10:	000f3503          	ld	x10,0(x30)
    41016d14:	0001afb7          	lui	x31,0x1a
    41016d18:	0b0f8f9b          	addiw	x31,x31,176 # 1a0b0 <pte_access_flags>
    41016d1c:	0090029b          	addiw	x5,x0,9
    41016d20:	03129293          	slli	x5,x5,0x31
    41016d24:	005fb023          	sd	x5,0(x31)
    41016d28:	00300293          	li	x5,3
    41016d2c:	005fb423          	sd	x5,8(x31)
    41016d30:	fff00293          	li	x5,-1
    41016d34:	005fb823          	sd	x5,16(x31)
    41016d38:	000f0fb7          	lui	x31,0xf0
    41016d3c:	001f8f9b          	addiw	x31,x31,1 # f0001 <mem24__pt_level4+0x7cf91>
    41016d40:	00cf9f93          	slli	x31,x31,0xc
    41016d44:	007f8f93          	addi	x31,x31,7
    41016d48:	00000073          	ecall
    41016d4c:	ffd00613          	li	x12,-3
    41016d50:	00c3f9b3          	and	x19,x7,x12
    41016d54:	00098393          	mv	x7,x19
    41016d58:	0001afb7          	lui	x31,0x1a
    41016d5c:	0b0f8f9b          	addiw	x31,x31,176 # 1a0b0 <pte_access_flags>
    41016d60:	0090029b          	addiw	x5,x0,9
    41016d64:	03129293          	slli	x5,x5,0x31
    41016d68:	005fb023          	sd	x5,0(x31)
    41016d6c:	00300293          	li	x5,3
    41016d70:	005fb423          	sd	x5,8(x31)
    41016d74:	fff00293          	li	x5,-1
    41016d78:	005fb823          	sd	x5,16(x31)
    41016d7c:	000f0fb7          	lui	x31,0xf0
    41016d80:	001f8f9b          	addiw	x31,x31,1 # f0001 <mem24__pt_level4+0x7cf91>
    41016d84:	00cf9f93          	slli	x31,x31,0xc
    41016d88:	008f8f93          	addi	x31,x31,8
    41016d8c:	00000073          	ecall
    41016d90:	0090091b          	addiw	x18,x0,9
    41016d94:	03191913          	slli	x18,x18,0x31
    41016d98:	12090073          	sfence.vma	x18
    41016d9c:	00004237          	lui	x4,0x4
    41016da0:	00d00e13          	li	x28,13
    41016da4:	05c23823          	sd	x28,80(x4) # 4050 <check_excp_expected_cause>
    41016da8:	00000e17          	auipc	x28,0x0
    41016dac:	050e0e13          	addi	x28,x28,80 # 41016df8 <fault_label_27>
    41016db0:	03c23023          	sd	x28,32(x4) # 20 <SECURE_ACCESS_PROBABILITY+0x2>
    41016db4:	00000e13          	li	x28,0
    41016db8:	05c23023          	sd	x28,64(x4) # 40 <XLEN>
    41016dbc:	00000e13          	li	x28,0
    41016dc0:	05c23423          	sd	x28,72(x4) # 48 <XLEN+0x8>
    41016dc4:	00000e17          	auipc	x28,0x0
    41016dc8:	048e0e13          	addi	x28,x28,72 # 41016e0c <excp_return_label_27>
    41016dcc:	03c23823          	sd	x28,48(x4) # 30 <SECURE_ACCESS_PROBABILITY+0x12>
    41016dd0:	00000e13          	li	x28,0
    41016dd4:	03c23c23          	sd	x28,56(x4) # 38 <SECURE_ACCESS_PROBABILITY+0x1a>
    41016dd8:	00000e13          	li	x28,0
    41016ddc:	07c23023          	sd	x28,96(x4) # 60 <XLEN+0x20>
    41016de0:	00000e13          	li	x28,0
    41016de4:	07c23423          	sd	x28,104(x4) # 68 <XLEN+0x28>
    41016de8:	00000e13          	li	x28,0
    41016dec:	07c23823          	sd	x28,112(x4) # 70 <XLEN+0x30>
    41016df0:	0090059b          	addiw	x11,x0,9
    41016df4:	03159593          	slli	x11,x11,0x31

0000000041016df8 <fault_label_27>:
    41016df8:	0005b983          	ld	x19,0(x11)
    41016dfc:	0001ae37          	lui	x28,0x1a
    41016e00:	008e0e1b          	addiw	x28,x28,8 # 1a008 <failed_addr>
    41016e04:	000e3503          	ld	x10,0(x28)
    41016e08:	00050067          	jr	x10

0000000041016e0c <excp_return_label_27>:
    41016e0c:	0001afb7          	lui	x31,0x1a
    41016e10:	0b0f8f9b          	addiw	x31,x31,176 # 1a0b0 <pte_access_flags>
    41016e14:	0090029b          	addiw	x5,x0,9
    41016e18:	03129293          	slli	x5,x5,0x31
    41016e1c:	005fb023          	sd	x5,0(x31)
    41016e20:	00300293          	li	x5,3
    41016e24:	005fb423          	sd	x5,8(x31)
    41016e28:	fff00293          	li	x5,-1
    41016e2c:	005fb823          	sd	x5,16(x31)
    41016e30:	000f0fb7          	lui	x31,0xf0
    41016e34:	001f8f9b          	addiw	x31,x31,1 # f0001 <mem24__pt_level4+0x7cf91>
    41016e38:	00cf9f93          	slli	x31,x31,0xc
    41016e3c:	007f8f93          	addi	x31,x31,7
    41016e40:	00000073          	ecall
    41016e44:	00200a93          	li	x21,2
    41016e48:	0153e733          	or	x14,x7,x21
    41016e4c:	00070393          	mv	x7,x14
    41016e50:	0001afb7          	lui	x31,0x1a
    41016e54:	0b0f8f9b          	addiw	x31,x31,176 # 1a0b0 <pte_access_flags>
    41016e58:	0090029b          	addiw	x5,x0,9
    41016e5c:	03129293          	slli	x5,x5,0x31
    41016e60:	005fb023          	sd	x5,0(x31)
    41016e64:	00300293          	li	x5,3
    41016e68:	005fb423          	sd	x5,8(x31)
    41016e6c:	fff00293          	li	x5,-1
    41016e70:	005fb823          	sd	x5,16(x31)
    41016e74:	000f0fb7          	lui	x31,0xf0
    41016e78:	001f8f9b          	addiw	x31,x31,1 # f0001 <mem24__pt_level4+0x7cf91>
    41016e7c:	00cf9f93          	slli	x31,x31,0xc
    41016e80:	008f8f93          	addi	x31,x31,8
    41016e84:	00000073          	ecall

0000000041016e88 <SID_PBVMS_041_partial_page_invalidation_passed>:
    41016e88:	00f00f9b          	addiw	x31,x0,15
    41016e8c:	01cf9f93          	slli	x31,x31,0x1c
    41016e90:	001f8f93          	addi	x31,x31,1
    41016e94:	00000073          	ecall

0000000041016e98 <SID_PBVMS_042_canonical_boundary_crossing_fault>:
    41016e98:	01518137          	lui	x2,0x1518
    41016e9c:	000012b7          	lui	x5,0x1
    41016ea0:	00510133          	add	x2,x2,x5
    41016ea4:	ff017113          	andi	x2,x2,-16
    41016ea8:	00004237          	lui	x4,0x4
    41016eac:	00d00e13          	li	x28,13
    41016eb0:	05c23823          	sd	x28,80(x4) # 4050 <check_excp_expected_cause>
    41016eb4:	00000e17          	auipc	x28,0x0
    41016eb8:	068e0e13          	addi	x28,x28,104 # 41016f1c <fault_label_28>
    41016ebc:	03c23023          	sd	x28,32(x4) # 20 <SECURE_ACCESS_PROBABILITY+0x2>
    41016ec0:	00000e13          	li	x28,0
    41016ec4:	05c23023          	sd	x28,64(x4) # 40 <XLEN>
    41016ec8:	00000e13          	li	x28,0
    41016ecc:	05c23423          	sd	x28,72(x4) # 48 <XLEN+0x8>
    41016ed0:	00000e17          	auipc	x28,0x0
    41016ed4:	060e0e13          	addi	x28,x28,96 # 41016f30 <SID_PBVMS_042_canonical_boundary_crossing_fault_passed>
    41016ed8:	03c23823          	sd	x28,48(x4) # 30 <SECURE_ACCESS_PROBABILITY+0x12>
    41016edc:	00000e13          	li	x28,0
    41016ee0:	03c23c23          	sd	x28,56(x4) # 38 <SECURE_ACCESS_PROBABILITY+0x1a>
    41016ee4:	00000e13          	li	x28,0
    41016ee8:	07c23023          	sd	x28,96(x4) # 60 <XLEN+0x20>
    41016eec:	00000e13          	li	x28,0
    41016ef0:	07c23423          	sd	x28,104(x4) # 68 <XLEN+0x28>
    41016ef4:	00000e13          	li	x28,0
    41016ef8:	07c23823          	sd	x28,112(x4) # 70 <XLEN+0x30>
    41016efc:	003a5537          	lui	x10,0x3a5
    41016f00:	a875051b          	addiw	x10,x10,-1401 # 3a4a87 <code_mem39+0x67a87>
    41016f04:	00c51513          	slli	x10,x10,0xc
    41016f08:	b5350513          	addi	x10,x10,-1197
    41016f0c:	00c51513          	slli	x10,x10,0xc
    41016f10:	fff00c1b          	addiw	x24,x0,-1
    41016f14:	03fc1c13          	slli	x24,x24,0x3f
    41016f18:	01850fb3          	add	x31,x10,x24

0000000041016f1c <fault_label_28>:
    41016f1c:	000f9383          	lh	x7,0(x31)
    41016f20:	0001afb7          	lui	x31,0x1a
    41016f24:	008f8f9b          	addiw	x31,x31,8 # 1a008 <failed_addr>
    41016f28:	000fb903          	ld	x18,0(x31)
    41016f2c:	00090067          	jr	x18

0000000041016f30 <SID_PBVMS_042_canonical_boundary_crossing_fault_passed>:
    41016f30:	00f00f9b          	addiw	x31,x0,15
    41016f34:	01cf9f93          	slli	x31,x31,0x1c
    41016f38:	001f8f93          	addi	x31,x31,1
    41016f3c:	00000073          	ecall

0000000041016f40 <SID_PBVMS_043_fetch_window_spill_page_cross>:
    41016f40:	228c1137          	lui	x2,0x228c1
    41016f44:	7951011b          	addiw	x2,x2,1941 # 228c1795 <mem33__pt_level1+0xf8e6795>
    41016f48:	00d11113          	slli	x2,x2,0xd
    41016f4c:	31f10113          	addi	x2,x2,799
    41016f50:	00d11113          	slli	x2,x2,0xd
    41016f54:	000012b7          	lui	x5,0x1
    41016f58:	00510133          	add	x2,x2,x5
    41016f5c:	ff017113          	andi	x2,x2,-16
    41016f60:	01ff9cb7          	lui	x25,0x1ff9
    41016f64:	453c8c9b          	addiw	x25,x25,1107 # 1ff9453 <mem37__pt_level1+0x9a6453>
    41016f68:	00dc9c93          	slli	x25,x25,0xd
    41016f6c:	447c8c93          	addi	x25,x25,1095
    41016f70:	00cc9c93          	slli	x25,x25,0xc
    41016f74:	000c80e7          	jalr	x25

0000000041016f78 <SID_PBVMS_043_fetch_window_spill_page_cross_passed>:
    41016f78:	00f00f9b          	addiw	x31,x0,15
    41016f7c:	01cf9f93          	slli	x31,x31,0x1c
    41016f80:	001f8f93          	addi	x31,x31,1
    41016f84:	00000073          	ecall

0000000041016f88 <SID_PBVMS_044_fe_idle_serialization_page_cross>:
    41016f88:	006d0137          	lui	x2,0x6d0
    41016f8c:	0001afb7          	lui	x31,0x1a
    41016f90:	0a0f8f9b          	addiw	x31,x31,160 # 1a0a0 <machine_csr_jump_table_flags>
    41016f94:	00700f13          	li	x30,7
    41016f98:	01efb023          	sd	x30,0(x31)
    41016f9c:	000f0fb7          	lui	x31,0xf0
    41016fa0:	001f8f9b          	addiw	x31,x31,1 # f0001 <mem24__pt_level4+0x7cf91>
    41016fa4:	00cf9f93          	slli	x31,x31,0xc
    41016fa8:	005f8f93          	addi	x31,x31,5
    41016fac:	00000073          	ecall
    41016fb0:	00713023          	sd	x7,0(x2) # 6d0000 <tp_csr_storage>
    41016fb4:	01ced137          	lui	x2,0x1ced
    41016fb8:	cfb1011b          	addiw	x2,x2,-773 # 1ceccfb <mem37__pt_level1+0x699cfb>
    41016fbc:	00f11113          	slli	x2,x2,0xf
    41016fc0:	000012b7          	lui	x5,0x1
    41016fc4:	00510133          	add	x2,x2,x5
    41016fc8:	ff017113          	andi	x2,x2,-16
    41016fcc:	18002ff3          	csrr	x31,satp
    41016fd0:	180f9df3          	csrrw	x27,satp,x31
    41016fd4:	12000073          	sfence.vma
    41016fd8:	006d0137          	lui	x2,0x6d0
    41016fdc:	00013383          	ld	x7,0(x2) # 6d0000 <tp_csr_storage>
    41016fe0:	0001afb7          	lui	x31,0x1a
    41016fe4:	0a0f8f9b          	addiw	x31,x31,160 # 1a0a0 <machine_csr_jump_table_flags>
    41016fe8:	00800f13          	li	x30,8
    41016fec:	01efb023          	sd	x30,0(x31)
    41016ff0:	000f0fb7          	lui	x31,0xf0
    41016ff4:	001f8f9b          	addiw	x31,x31,1 # f0001 <mem24__pt_level4+0x7cf91>
    41016ff8:	00cf9f93          	slli	x31,x31,0xc
    41016ffc:	005f8f93          	addi	x31,x31,5
    41017000:	00000073          	ecall

0000000041017004 <SID_PBVMS_044_fe_idle_serialization_page_cross_passed>:
    41017004:	00f00f9b          	addiw	x31,x0,15
    41017008:	01cf9f93          	slli	x31,x31,0x1c
    4101700c:	001f8f93          	addi	x31,x31,1
    41017010:	00000073          	ecall

0000000041017014 <test_cleanup>:
    41017014:	00f00f9b          	addiw	x31,x0,15
    41017018:	01cf9f93          	slli	x31,x31,0x1c
    4101701c:	001f8f93          	addi	x31,x31,1
    41017020:	00000073          	ecall

0000000041017024 <local_test_failed>:
    41017024:	00f00f9b          	addiw	x31,x0,15
    41017028:	01cf9f93          	slli	x31,x31,0x1c
    4101702c:	002f8f93          	addi	x31,x31,2
    41017030:	00000073          	ecall

Disassembly of section .csr_machine_0:

0000000041388000 <csr_access_mstatus_machine_key_6_write-0x50>:
    41388000:	44f06fb7          	lui	x31,0x44f06
    41388004:	0a0f8f9b          	addiw	x31,x31,160 # 44f060a0 <machine_csr_jump_table_flags_pa>
    41388008:	000fbf83          	ld	x31,0(x31)
    4138800c:	00600293          	li	x5,6
    41388010:	045f8063          	beq	x31,x5,41388050 <csr_access_mstatus_machine_key_6_write>
    41388014:	00100293          	li	x5,1
    41388018:	045f8063          	beq	x31,x5,41388058 <csr_access_mstatus_machine_key_1_read>
    4138801c:	00200293          	li	x5,2
    41388020:	045f8063          	beq	x31,x5,41388060 <csr_access_mstatus_machine_key_2_set>
    41388024:	00300293          	li	x5,3
    41388028:	045f8063          	beq	x31,x5,41388068 <csr_access_mstatus_machine_key_3_clear>
    4138802c:	00800293          	li	x5,8
    41388030:	045f8063          	beq	x31,x5,41388070 <csr_access_satp_supervisor_key_8_write>
    41388034:	00700293          	li	x5,7
    41388038:	045f8063          	beq	x31,x5,41388078 <csr_access_satp_supervisor_key_7_read>
    4138803c:	00a00293          	li	x5,10
    41388040:	045f8063          	beq	x31,x5,41388080 <csr_access_mtvec_machine_key_10_set>
    41388044:	00900293          	li	x5,9
    41388048:	045f8063          	beq	x31,x5,41388088 <csr_access_mtvec_machine_key_9_clear>
    4138804c:	0440006f          	j	41388090 <end_machine_label>

0000000041388050 <csr_access_mstatus_machine_key_6_write>:
    41388050:	30039073          	csrw	mstatus,x7
    41388054:	03c0006f          	j	41388090 <end_machine_label>

0000000041388058 <csr_access_mstatus_machine_key_1_read>:
    41388058:	300023f3          	csrr	x7,mstatus
    4138805c:	0340006f          	j	41388090 <end_machine_label>

0000000041388060 <csr_access_mstatus_machine_key_2_set>:
    41388060:	3003a073          	csrs	mstatus,x7
    41388064:	02c0006f          	j	41388090 <end_machine_label>

0000000041388068 <csr_access_mstatus_machine_key_3_clear>:
    41388068:	3003b073          	csrc	mstatus,x7
    4138806c:	0240006f          	j	41388090 <end_machine_label>

0000000041388070 <csr_access_satp_supervisor_key_8_write>:
    41388070:	18039073          	csrw	satp,x7
    41388074:	01c0006f          	j	41388090 <end_machine_label>

0000000041388078 <csr_access_satp_supervisor_key_7_read>:
    41388078:	180023f3          	csrr	x7,satp
    4138807c:	0140006f          	j	41388090 <end_machine_label>

0000000041388080 <csr_access_mtvec_machine_key_10_set>:
    41388080:	3053a073          	csrs	mtvec,x7
    41388084:	00c0006f          	j	41388090 <end_machine_label>

0000000041388088 <csr_access_mtvec_machine_key_9_clear>:
    41388088:	3053b073          	csrc	mtvec,x7
    4138808c:	0040006f          	j	41388090 <end_machine_label>

0000000041388090 <end_machine_label>:
    41388090:	000f0fb7          	lui	x31,0xf0
    41388094:	001f8f9b          	addiw	x31,x31,1 # f0001 <mem24__pt_level4+0x7cf91>
    41388098:	00cf9f93          	slli	x31,x31,0xc
    4138809c:	004f8f93          	addi	x31,x31,4
    413880a0:	00000073          	ecall

Disassembly of section .csr_super_0:

0000000041389000 <end_super_label-0x10>:
    41389000:	0001afb7          	lui	x31,0x1a
    41389004:	0a8f8f9b          	addiw	x31,x31,168 # 1a0a8 <super_csr_jump_table_flags>
    41389008:	000fbf83          	ld	x31,0(x31)
    4138900c:	0040006f          	j	41389010 <end_super_label>

0000000041389010 <end_super_label>:
    41389010:	000f0fb7          	lui	x31,0xf0
    41389014:	001f8f9b          	addiw	x31,x31,1 # f0001 <mem24__pt_level4+0x7cf91>
    41389018:	00cf9f93          	slli	x31,x31,0xc
    4138901c:	004f8f93          	addi	x31,x31,4
    41389020:	00000073          	ecall

Disassembly of section .os_data:

000000000001a000 <passed_addr_ptr>:
   1a000:	4130                	.insn	2, 0x4130
   1a002:	4101                	.insn	2, 0x4101
   1a004:	0000                	.insn	2, 0x0000
	...

000000000001a008 <failed_addr_ptr>:
   1a008:	4140                	.insn	2, 0x4140
   1a00a:	4101                	.insn	2, 0x4101
   1a00c:	0000                	.insn	2, 0x0000
	...

000000000001a010 <end_test_addr_ptr>:
   1a010:	4150                	.insn	2, 0x4150
   1a012:	4101                	.insn	2, 0x4101
   1a014:	0000                	.insn	2, 0x0000
	...

000000000001a018 <os_passed_addr_ptr>:
   1a018:	0784                	.insn	2, 0x0784
   1a01a:	4100                	.insn	2, 0x4100
   1a01c:	0000                	.insn	2, 0x0000
	...

000000000001a020 <os_failed_addr_ptr>:
   1a020:	0794                	.insn	2, 0x0794
   1a022:	4100                	.insn	2, 0x4100
   1a024:	0000                	.insn	2, 0x0000
	...

000000000001a028 <os_end_test_addr_ptr>:
   1a028:	07a0                	.insn	2, 0x07a0
   1a02a:	4100                	.insn	2, 0x4100
   1a02c:	0000                	.insn	2, 0x0000
	...

000000000001a030 <rvcp_prefix_str_data>:
   1a030:	5652                	.insn	2, 0x5652
   1a032:	203a5043          	fmadd.s	f0,f20,f3,f4,unknown
   1a036:	6554                	.insn	2, 0x6554
   1a038:	46207473          	csrrci	x8,0x462,0
   1a03c:	6c69                	.insn	2, 0x6c69
   1a03e:	2065                	.insn	2, 0x2065
	...

000000000001a041 <rvcp_testname_str_data>:
   1a041:	7074                	.insn	2, 0x7074
   1a043:	705f 6761 6e69      	.insn	6, 0x6e696761705f
   1a049:	00315f67          	.insn	4, 0x00315f67

000000000001a04d <rvcp_passed_str_data>:
   1a04d:	4150                	.insn	2, 0x4150
   1a04f:	44455353          	fround.h	f6,f10,unknown
	...

000000000001a054 <rvcp_failed_str_data>:
   1a054:	4146                	.insn	2, 0x4146
   1a056:	4c49                	.insn	2, 0x4c49
   1a058:	4445                	.insn	2, 0x4445
	...

000000000001a05b <rvcp_space_str_data>:
   1a05b:	0020                	.insn	2, 0x0020

000000000001a05d <rvcp_newline_str_data>:
   1a05d:	000a                	.insn	2, 0x000a
	...

000000000001a060 <excp_ignored_count_mem>:
	...

000000000001a068 <machine_flags_mem>:
	...

000000000001a070 <user_flags_mem>:
	...

000000000001a078 <super_flags_mem>:
	...

000000000001a080 <machine_area_mem>:
	...

000000000001a088 <user_area_mem>:
	...

000000000001a090 <super_area_mem>:
	...

000000000001a098 <zero_data_mem>:
	...

000000000001a0a0 <machine_csr_jump_table_flags_mem>:
	...

000000000001a0a8 <super_csr_jump_table_flags_mem>:
	...

000000000001a0b0 <pte_access_flags_mem>:
	...

000000000001a0c8 <num_harts_ended_mem>:
	...

000000000001a0d0 <num_hard_fails_mem>:
	...

Disassembly of section .hart_context:

0000000000004000 <hart_context_0>:
    4000:	a000                	.insn	2, 0xa000
    4002:	7e6a                	.insn	2, 0x7e6a
    4004:	0003e03b          	.insn	4, 0x0003e03b
	...
    4018:	0001                	.insn	2, 0x0001
    401a:	0000                	.insn	2, 0x0000
    401c:	0000                	.insn	2, 0x0000
    401e:	0000                	.insn	2, 0x0000
    4020:	ffff                	.insn	2, 0xffff
    4022:	ffff                	.insn	2, 0xffff
    4024:	ffff                	.insn	2, 0xffff
    4026:	ffff                	.insn	2, 0xffff
    4028:	ffff                	.insn	2, 0xffff
    402a:	ffff                	.insn	2, 0xffff
    402c:	ffff                	.insn	2, 0xffff
    402e:	ffff                	.insn	2, 0xffff
    4030:	ffff                	.insn	2, 0xffff
    4032:	ffff                	.insn	2, 0xffff
    4034:	ffff                	.insn	2, 0xffff
    4036:	ffff                	.insn	2, 0xffff
	...
    4050:	00ff 0000 0000 0000 	.insn	10, 0x00ff00000000000000ff
    4058:	00ff 
	...
    4176:	0000                	.insn	2, 0x0000
    4178:	ffff                	.insn	2, 0xffff
    417a:	ffff                	.insn	2, 0xffff
    417c:	ffff                	.insn	2, 0xffff
    417e:	ffff                	.insn	2, 0xffff
	...
    4188:	ffff                	.insn	2, 0xffff
    418a:	ffff                	.insn	2, 0xffff
	...

Disassembly of section .hart_stack_0:

0003e03b7e6a9000 <hart_stack_0>:
	...

Disassembly of section .io_htif:

0000000041040000 <tohost>:
	...

0000000041040040 <fromhost>:
	...

Disassembly of section .code_mem1:

000000044a103000 <.code_mem1>:
   44a103000:	0020da17          	auipc	x20,0x20d
   44a103004:	7ed4db37          	lui	x22,0x7ed4d
   44a103008:	57eb0b1b          	addiw	x22,x22,1406 # 7ed4d57e <pma_region_2_end+0x39d0c57e>
   44a10300c:	000c3e37          	lui	x28,0xc3
   44a103010:	ce7e0e1b          	addiw	x28,x28,-793 # c2ce7 <mem24__pt_level4+0x4fc77>
   44a103014:	00ce1e13          	slli	x28,x28,0xc
   44a103018:	f47e0e13          	addi	x28,x28,-185
   44a10301c:	41cb093b          	subw	x18,x22,x28
   44a103020:	00008067          	ret

Disassembly of section .code_mem4:

000000000005c000 <.code_mem4>:
   5c000:	000d6eb7          	lui	x29,0xd6
   5c004:	f4be8e9b          	addiw	x29,x29,-181 # d5f4b <mem24__pt_level4+0x62edb>
   5c008:	00ce9e93          	slli	x29,x29,0xc
   5c00c:	3b5e8e93          	addi	x29,x29,949
   5c010:	63ca86b7          	lui	x13,0x63ca8
   5c014:	2906869b          	addiw	x13,x13,656 # 63ca8290 <pma_region_2_end+0x1ec67290>
   5c018:	02de9cb3          	mulh	x25,x29,x13
   5c01c:	6ec9d4b7          	lui	x9,0x6ec9d
   5c020:	2894849b          	addiw	x9,x9,649 # 6ec9d289 <pma_region_2_end+0x29c5c289>
   5c024:	0009c937          	lui	x18,0x9c
   5c028:	8119091b          	addiw	x18,x18,-2031 # 9b811 <mem24__pt_level4+0x287a1>
   5c02c:	00c91913          	slli	x18,x18,0xc
   5c030:	e7990913          	addi	x18,x18,-391
   5c034:	41248333          	sub	x6,x9,x18
   5c038:	000c33b7          	lui	x7,0xc3
   5c03c:	24d3839b          	addiw	x7,x7,589 # c324d <mem24__pt_level4+0x501dd>
   5c040:	00c39393          	slli	x7,x7,0xc
   5c044:	98838393          	addi	x7,x7,-1656
   5c048:	000c4437          	lui	x8,0xc4
   5c04c:	6474041b          	addiw	x8,x8,1607 # c4647 <mem24__pt_level4+0x515d7>
   5c050:	00c41413          	slli	x8,x8,0xc
   5c054:	15c40413          	addi	x8,x8,348
   5c058:	d013fad3          	fcvt.s.wu	f21,x7
   5c05c:	d0247953          	fcvt.s.l	f18,x8
   5c060:	012af0d3          	fadd.s	f1,f21,f18
   5c064:	008a0c37          	lui	x24,0x8a0
   5c068:	5a9c0c1b          	addiw	x24,x24,1449 # 8a05a9 <mem30__pt_level3+0x1ac5a9>
   5c06c:	728c0913          	addi	x18,x24,1832
   5c070:	00008067          	ret

Disassembly of section .code_mem16:

0000000003c3f000 <.code_mem16>:
 3c3f000:	000f8eb7          	lui	x29,0xf8
 3c3f004:	131e8e9b          	addiw	x29,x29,305 # f8131 <mem24__pt_level4+0x850c1>
 3c3f008:	00ce9e93          	slli	x29,x29,0xc
 3c3f00c:	c45e8e93          	addi	x29,x29,-955
 3c3f010:	6c0fd337          	lui	x6,0x6c0fd
 3c3f014:	4f83031b          	addiw	x6,x6,1272 # 6c0fd4f8 <pma_region_2_end+0x270bc4f8>
 3c3f018:	026e9bb3          	mulh	x23,x29,x6
 3c3f01c:	00008067          	ret

Disassembly of section .code_mem39:

000000000033d000 <.code_mem39>:
  33d000:	000c4ab7          	lui	x21,0xc4
  33d004:	81fa8a9b          	addiw	x21,x21,-2017 # c381f <mem24__pt_level4+0x507af>
  33d008:	00ca9a93          	slli	x21,x21,0xc
  33d00c:	892a8a93          	addi	x21,x21,-1902
  33d010:	70196c37          	lui	x24,0x70196
  33d014:	6a3c0c1b          	addiw	x24,x24,1699 # 701966a3 <pma_region_2_end+0x2b1556a3>
  33d018:	038aa6b3          	mulhsu	x13,x21,x24
  33d01c:	00008067          	ret

Disassembly of section .code_mem43:

0003ff28a6447000 <.code_mem43>:
   3ff28a6447000:	000f44b7          	lui	x9,0xf4
   3ff28a6447004:	c654849b          	addiw	x9,x9,-923 # f3c65 <mem24__pt_level4+0x80bf5>
   3ff28a6447008:	00c49493          	slli	x9,x9,0xc
   3ff28a644700c:	afa48493          	addi	x9,x9,-1286
   3ff28a6447010:	4a2f2f37          	lui	x30,0x4a2f2
   3ff28a6447014:	0adf0f1b          	addiw	x30,x30,173 # 4a2f20ad <pma_region_2_end+0x52b10ad>
   3ff28a6447018:	0be4b8b3          	clmulh	x17,x9,x30
   3ff28a644701c:	000ed4b7          	lui	x9,0xed
   3ff28a6447020:	2f94849b          	addiw	x9,x9,761 # ed2f9 <mem24__pt_level4+0x7a289>
   3ff28a6447024:	00c49493          	slli	x9,x9,0xc
   3ff28a6447028:	9dc48493          	addi	x9,x9,-1572
   3ff28a644702c:	05806fb7          	lui	x31,0x5806
   3ff28a6447030:	978f8f9b          	addiw	x31,x31,-1672 # 5805978 <mem29__pt_level1+0xdf8978>
   3ff28a6447034:	03f4ac33          	mulhsu	x24,x9,x31
   3ff28a6447038:	6a8acab7          	lui	x21,0x6a8ac
   3ff28a644703c:	4bda8a9b          	addiw	x21,x21,1213 # 6a8ac4bd <pma_region_2_end+0x2586b4bd>
   3ff28a6447040:	0001bd37          	lui	x26,0x1b
   3ff28a6447044:	cd7d0d1b          	addiw	x26,x26,-809 # 1acd7 <num_hard_fails+0xc07>
   3ff28a6447048:	00fd1d13          	slli	x26,x26,0xf
   3ff28a644704c:	2a1d0d13          	addi	x26,x26,673
   3ff28a6447050:	03aaa4b3          	mulhsu	x9,x21,x26
   3ff28a6447054:	000eb6b7          	lui	x13,0xeb
   3ff28a6447058:	90b6869b          	addiw	x13,x13,-1781 # ea90b <mem24__pt_level4+0x7789b>
   3ff28a644705c:	00c69693          	slli	x13,x13,0xc
   3ff28a6447060:	8f368693          	addi	x13,x13,-1805
   3ff28a6447064:	0008e937          	lui	x18,0x8e
   3ff28a6447068:	73d9091b          	addiw	x18,x18,1853 # 8e73d <mem24__pt_level4+0x1b6cd>
   3ff28a644706c:	00c91913          	slli	x18,x18,0xc
   3ff28a6447070:	a4a90913          	addi	x18,x18,-1462
   3ff28a6447074:	000ec9b7          	lui	x19,0xec
   3ff28a6447078:	1499899b          	addiw	x19,x19,329 # ec149 <mem24__pt_level4+0x790d9>
   3ff28a644707c:	00c99993          	slli	x19,x19,0xc
   3ff28a6447080:	cb798993          	addi	x19,x19,-841
   3ff28a6447084:	d236f9d3          	fcvt.d.lu	f19,x13
   3ff28a6447088:	d2090f53          	fcvt.d.w	f30,x18
   3ff28a644708c:	d029f853          	fcvt.s.l	f16,x19
   3ff28a6447090:	83e9ffcb          	fnmsub.d	f31,f19,f30,f16
   3ff28a6447094:	00008067          	ret

Disassembly of section .mem0:

000000000027f000 <.mem0>:
  27f000:	c0de                	.insn	2, 0xc0de
  27f002:	c001                	.insn	2, 0xc001
  27f004:	0000                	.insn	2, 0x0000
	...

Disassembly of section .mem2:

000001b05c4a3000 <.mem2>:
 1b05c4a3000:	c0de                	.insn	2, 0xc0de
 1b05c4a3002:	c001                	.insn	2, 0xc001
 1b05c4a3004:	0000                	.insn	2, 0x0000
	...

Disassembly of section .mem3:

00005138cb600000 <.mem3>:
    5138cb600000:	c0de                	.insn	2, 0xc0de
    5138cb600002:	c001                	.insn	2, 0xc001
    5138cb600004:	0000                	.insn	2, 0x0000
	...

Disassembly of section .mem5:

0017eb9d1ce63000 <.mem5>:
  17eb9d1ce63000:	c0de                	.insn	2, 0xc0de
  17eb9d1ce63002:	c001                	.insn	2, 0xc001
  17eb9d1ce63004:	0000                	.insn	2, 0x0000
	...

Disassembly of section .mem6:

ff0b000000000000 <.mem6>:
ff0b000000000000:	c0de                	.insn	2, 0xc0de
ff0b000000000002:	c001                	.insn	2, 0xc001
ff0b000000000004:	0000                	.insn	2, 0x0000
	...

Disassembly of section .mem7:

000017c162400000 <.mem7>:
    17c162400000:	c0de                	.insn	2, 0xc0de
    17c162400002:	c001                	.insn	2, 0xc001
    17c162400004:	0000                	.insn	2, 0x0000
	...

Disassembly of section .mem8:

0000000626000000 <.mem8>:
   626000000:	c0de                	.insn	2, 0xc0de
   626000002:	c001                	.insn	2, 0xc001
   626000004:	0000                	.insn	2, 0x0000
	...

Disassembly of section .mem9:

000a000000000000 <.mem9>:
   a000000000000:	c0de                	.insn	2, 0xc0de
   a000000000002:	c001                	.insn	2, 0xc001
   a000000000004:	0000                	.insn	2, 0x0000
	...

Disassembly of section .mem10:

0001000000000000 <.mem10>:
   1000000000000:	c0de                	.insn	2, 0xc0de
   1000000000002:	c001                	.insn	2, 0xc001
   1000000000004:	0000                	.insn	2, 0x0000
	...

Disassembly of section .mem11:

ff05000000000000 <.mem11>:
ff05000000000000:	c0de                	.insn	2, 0xc0de
ff05000000000002:	c001                	.insn	2, 0xc001
ff05000000000004:	0000                	.insn	2, 0x0000
	...

Disassembly of section .mem12:

009c4e0e69011000 <.mem12>:
  9c4e0e69011000:	c0de                	.insn	2, 0xc0de
  9c4e0e69011002:	c001                	.insn	2, 0xc001
  9c4e0e69011004:	0000                	.insn	2, 0x0000
	...

Disassembly of section .mem13:

00000c149ebbb000 <.mem13>:
 c149ebbb000:	c0de                	.insn	2, 0xc0de
 c149ebbb002:	c001                	.insn	2, 0xc001
 c149ebbb004:	0000                	.insn	2, 0x0000
	...

Disassembly of section .mem14:

0000000000005000 <.mem14>:
    5000:	c0de                	.insn	2, 0xc0de
    5002:	c001                	.insn	2, 0xc001
    5004:	0000                	.insn	2, 0x0000
	...

Disassembly of section .mem15:

00000043417e6000 <.mem15>:
  43417e6000:	c0de                	.insn	2, 0xc0de
  43417e6002:	c001                	.insn	2, 0xc001
  43417e6004:	0000                	.insn	2, 0x0000
	...

Disassembly of section .mem17:

000000000000a000 <.mem17>:
    a000:	c0de                	.insn	2, 0xc0de
    a002:	c001                	.insn	2, 0xc001
    a004:	0000                	.insn	2, 0x0000
	...

Disassembly of section .mem18:

00000036155bf000 <.mem18>:
  36155bf000:	c0de                	.insn	2, 0xc0de
  36155bf002:	c001                	.insn	2, 0xc001
  36155bf004:	0000                	.insn	2, 0x0000
	...

Disassembly of section .mem19:

00006174360b5000 <.mem19>:
    6174360b5000:	c0de                	.insn	2, 0xc0de
    6174360b5002:	c001                	.insn	2, 0xc001
    6174360b5004:	0000                	.insn	2, 0x0000
	...

Disassembly of section .mem20:

00b5450f86b96000 <.mem20>:
  b5450f86b96000:	c0de                	.insn	2, 0xc0de
  b5450f86b96002:	c001                	.insn	2, 0xc001
  b5450f86b96004:	0000                	.insn	2, 0x0000
	...

Disassembly of section .mem21:

0004000000000000 <.mem21>:
   4000000000000:	c0de                	.insn	2, 0xc0de
   4000000000002:	c001                	.insn	2, 0xc001
   4000000000004:	0000                	.insn	2, 0x0000
	...

Disassembly of section .mem22:

0002000000000000 <.mem22>:
   2000000000000:	c0de                	.insn	2, 0xc0de
   2000000000002:	c001                	.insn	2, 0xc001
   2000000000004:	0000                	.insn	2, 0x0000
	...

Disassembly of section .mem23:

0065000000000000 <.mem23>:
  65000000000000:	c0de                	.insn	2, 0xc0de
  65000000000002:	c001                	.insn	2, 0xc001
  65000000000004:	0000                	.insn	2, 0x0000
	...

Disassembly of section .mem24:

000e000000000000 <.mem24>:
   e000000000000:	c0de                	.insn	2, 0xc0de
   e000000000002:	c001                	.insn	2, 0xc001
   e000000000004:	0000                	.insn	2, 0x0000
	...

Disassembly of section .mem25:

ff03953cbb845000 <.mem25>:
ff03953cbb845000:	c0de                	.insn	2, 0xc0de
ff03953cbb845002:	c001                	.insn	2, 0xc001
ff03953cbb845004:	0000                	.insn	2, 0x0000
	...

Disassembly of section .mem26:

00000001a98a5000 <.mem26>:
   1a98a5000:	c0de                	.insn	2, 0xc0de
   1a98a5002:	c001                	.insn	2, 0xc001
   1a98a5004:	0000                	.insn	2, 0x0000
	...

Disassembly of section .mem27:

0005000000000000 <.mem27>:
   5000000000000:	c0de                	.insn	2, 0xc0de
   5000000000002:	c001                	.insn	2, 0xc001
   5000000000004:	0000                	.insn	2, 0x0000
	...

Disassembly of section .mem28:

ff00000000000000 <.mem28>:
ff00000000000000:	c0de                	.insn	2, 0xc0de
ff00000000000002:	c001                	.insn	2, 0xc001
ff00000000000004:	0000                	.insn	2, 0x0000
	...

Disassembly of section .mem29:

0045000000000000 <.mem29>:
  45000000000000:	c0de                	.insn	2, 0xc0de
  45000000000002:	c001                	.insn	2, 0xc001
  45000000000004:	0000                	.insn	2, 0x0000
	...

Disassembly of section .mem30:

0042000000000000 <.mem30>:
  42000000000000:	c0de                	.insn	2, 0xc0de
  42000000000002:	c001                	.insn	2, 0xc001
  42000000000004:	0000                	.insn	2, 0x0000
	...

Disassembly of section .mem31:

0096000000000000 <.mem31>:
  96000000000000:	c0de                	.insn	2, 0xc0de
  96000000000002:	c001                	.insn	2, 0xc001
  96000000000004:	0000                	.insn	2, 0x0000
	...

Disassembly of section .mem32:

0008000000000000 <.mem32>:
   8000000000000:	c0de                	.insn	2, 0xc0de
   8000000000002:	c001                	.insn	2, 0xc001
   8000000000004:	0000                	.insn	2, 0x0000
	...

Disassembly of section .mem33:

0011000000000000 <.mem33>:
  11000000000000:	c0de                	.insn	2, 0xc0de
  11000000000002:	c001                	.insn	2, 0xc001
  11000000000004:	0000                	.insn	2, 0x0000
	...

Disassembly of section .mem34:

000c000000000000 <.mem34>:
   c000000000000:	c0de                	.insn	2, 0xc0de
   c000000000002:	c001                	.insn	2, 0xc001
   c000000000004:	0000                	.insn	2, 0x0000
	...

Disassembly of section .mem35:

0006000000000000 <.mem35>:
   6000000000000:	c0de                	.insn	2, 0xc0de
   6000000000002:	c001                	.insn	2, 0xc001
   6000000000004:	0000                	.insn	2, 0x0000
	...

Disassembly of section .mem36:

0032000000000000 <.mem36>:
  32000000000000:	c0de                	.insn	2, 0xc0de
  32000000000002:	c001                	.insn	2, 0xc001
  32000000000004:	0000                	.insn	2, 0x0000
	...

Disassembly of section .mem37:

ff61000000000000 <.mem37>:
ff61000000000000:	c0de                	.insn	2, 0xc0de
ff61000000000002:	c001                	.insn	2, 0xc001
ff61000000000004:	0000                	.insn	2, 0x0000
	...

Disassembly of section .mem38:

000035ca90ed2000 <.mem38>:
    35ca90ed2000:	c0de                	.insn	2, 0xc0de
    35ca90ed2002:	c001                	.insn	2, 0xc001
    35ca90ed2004:	0000                	.insn	2, 0x0000
	...

Disassembly of section .mem40:

0012000000000000 <.mem40>:
  12000000000000:	c0de                	.insn	2, 0xc0de
  12000000000002:	c001                	.insn	2, 0xc001
  12000000000004:	0000                	.insn	2, 0x0000
	...

Disassembly of section .mem41:

00003a4a86b53000 <.mem41>:
    3a4a86b53000:	c0de                	.insn	2, 0xc0de
    3a4a86b53002:	c001                	.insn	2, 0xc001
    3a4a86b53004:	0000                	.insn	2, 0x0000
	...

Disassembly of section .mem42:

000bc00dc3000000 <.mem42>:
   bc00dc3000000:	c0de                	.insn	2, 0xc0de
   bc00dc3000002:	c001                	.insn	2, 0xc001
   bc00dc3000004:	0000                	.insn	2, 0x0000
	...

Disassembly of section .mem44:

00000068ffa00000 <.mem44>:
  68ffa00000:	c0de                	.insn	2, 0xc0de
  68ffa00002:	c001                	.insn	2, 0xc001
  68ffa00004:	0000                	.insn	2, 0x0000
	...

Disassembly of section .tp_csr_storage:

00000000006d0000 <.tp_csr_storage>:
  6d0000:	c0de                	.insn	2, 0xc0de
  6d0002:	c001                	.insn	2, 0xc001
  6d0004:	0000                	.insn	2, 0x0000
	...

Disassembly of section .SID_PBVMS_001_ptw_no_faults_all_access_types_stack:

0052cb0de4963000 <.SID_PBVMS_001_ptw_no_faults_all_access_types_stack>:
  52cb0de4963000:	c0de                	.insn	2, 0xc0de
  52cb0de4963002:	c001                	.insn	2, 0xc001
  52cb0de4963004:	0000                	.insn	2, 0x0000
	...

Disassembly of section .SID_PBVMS_003_ptw_all_privilege_modes_stack:

000000004087a000 <.SID_PBVMS_003_ptw_all_privilege_modes_stack>:
    4087a000:	c0de                	.insn	2, 0xc0de
    4087a002:	c001                	.insn	2, 0xc001
    4087a004:	0000                	.insn	2, 0x0000
	...

Disassembly of section .SID_PBVMS_006_ptw_page_boundary_crossing_stack:

00000000822b7000 <.SID_PBVMS_006_ptw_page_boundary_crossing_stack>:
    822b7000:	c0de                	.insn	2, 0xc0de
    822b7002:	c001                	.insn	2, 0xc001
    822b7004:	0000                	.insn	2, 0x0000
	...

Disassembly of section .SID_PBVMS_008_va_sign_extension_fault_stack:

0000375279545000 <.SID_PBVMS_008_va_sign_extension_fault_stack>:
    375279545000:	c0de                	.insn	2, 0xc0de
    375279545002:	c001                	.insn	2, 0xc001
    375279545004:	0000                	.insn	2, 0x0000
	...

Disassembly of section .SID_PBVMS_009_superpage_alignment_fault_stack:

0000000bb0326000 <.SID_PBVMS_009_superpage_alignment_fault_stack>:
   bb0326000:	c0de                	.insn	2, 0xc0de
   bb0326002:	c001                	.insn	2, 0xc001
   bb0326004:	0000                	.insn	2, 0x0000
	...

Disassembly of section .SID_PBVMS_011_ptw_fault_boundary_crossing_stack:

0000000003ea8000 <.SID_PBVMS_011_ptw_fault_boundary_crossing_stack>:
 3ea8000:	c0de                	.insn	2, 0xc0de
 3ea8002:	c001                	.insn	2, 0xc001
 3ea8004:	0000                	.insn	2, 0x0000
	...

Disassembly of section .SID_PBVMS_012_ptw_fault_prioritization_stack:

0000000000018000 <.SID_PBVMS_012_ptw_fault_prioritization_stack>:
   18000:	c0de                	.insn	2, 0xc0de
   18002:	c001                	.insn	2, 0xc001
   18004:	0000                	.insn	2, 0x0000
	...

Disassembly of section .SID_PBVMS_013_ptw_permission_encodings_stack:

0000000b02c51000 <.SID_PBVMS_013_ptw_permission_encodings_stack>:
   b02c51000:	c0de                	.insn	2, 0xc0de
   b02c51002:	c001                	.insn	2, 0xc001
   b02c51004:	0000                	.insn	2, 0x0000
	...

Disassembly of section .SID_PBVMS_014_mstatus_sum_mxr_stack:

000000044a101000 <.SID_PBVMS_014_mstatus_sum_mxr_stack>:
   44a101000:	c0de                	.insn	2, 0xc0de
   44a101002:	c001                	.insn	2, 0xc001
   44a101004:	0000                	.insn	2, 0x0000
	...

Disassembly of section .SID_PBVMS_015_global_bit_honoured_stack:

0000000000053000 <.SID_PBVMS_015_global_bit_honoured_stack>:
   53000:	c0de                	.insn	2, 0xc0de
   53002:	c001                	.insn	2, 0xc001
   53004:	0000                	.insn	2, 0x0000
	...

Disassembly of section .SID_PBVMS_016_non_global_bit_honoured_stack:

0000000000261000 <.SID_PBVMS_016_non_global_bit_honoured_stack>:
  261000:	c0de                	.insn	2, 0xc0de
  261002:	c001                	.insn	2, 0xc001
  261004:	0000                	.insn	2, 0x0000
	...

Disassembly of section .SID_PBVMS_017_global_at_non_leaf_stack:

0031ffffffffe000 <.SID_PBVMS_017_global_at_non_leaf_stack>:
  31ffffffffe000:	c0de                	.insn	2, 0xc0de
  31ffffffffe002:	c001                	.insn	2, 0xc001
  31ffffffffe004:	0000                	.insn	2, 0x0000
	...

Disassembly of section .SID_PBVMS_018_rsw_fields_writable_stack:

000000055e902000 <.SID_PBVMS_018_rsw_fields_writable_stack>:
   55e902000:	c0de                	.insn	2, 0xc0de
   55e902002:	c001                	.insn	2, 0xc001
   55e902004:	0000                	.insn	2, 0x0000
	...

Disassembly of section .SID_PBVMS_021_satp_valid_to_reserved_stack:

000007e2c6131000 <.SID_PBVMS_021_satp_valid_to_reserved_stack>:
 7e2c6131000:	c0de                	.insn	2, 0xc0de
 7e2c6131002:	c001                	.insn	2, 0xc001
 7e2c6131004:	0000                	.insn	2, 0x0000
	...

Disassembly of section .SID_PBVMS_022_satp_csr_accessibility_stack:

0000489adcc18000 <.SID_PBVMS_022_satp_csr_accessibility_stack>:
    489adcc18000:	c0de                	.insn	2, 0xc0de
    489adcc18002:	c001                	.insn	2, 0xc001
    489adcc18004:	0000                	.insn	2, 0x0000
	...

Disassembly of section .SID_PBVMS_023_satp_asidlen_discovery_stack:

00000004b675c000 <.SID_PBVMS_023_satp_asidlen_discovery_stack>:
   4b675c000:	c0de                	.insn	2, 0xc0de
   4b675c002:	c001                	.insn	2, 0xc001
   4b675c004:	0000                	.insn	2, 0x0000
	...

Disassembly of section .SID_PBVMS_025_mstatus_tvm_satp_access_stack:

000000000000c000 <.SID_PBVMS_025_mstatus_tvm_satp_access_stack>:
    c000:	c0de                	.insn	2, 0xc0de
    c002:	c001                	.insn	2, 0xc001
    c004:	0000                	.insn	2, 0x0000
	...

Disassembly of section .SID_PBVMS_026_tlb_asid_match_stack:

00000001aa454000 <.SID_PBVMS_026_tlb_asid_match_stack>:
   1aa454000:	c0de                	.insn	2, 0xc0de
   1aa454002:	c001                	.insn	2, 0xc001
   1aa454004:	0000                	.insn	2, 0x0000
	...

Disassembly of section .SID_PBVMS_028_sfence_vma_opcode_coverage_stack:

00003a981588b000 <.SID_PBVMS_028_sfence_vma_opcode_coverage_stack>:
    3a981588b000:	c0de                	.insn	2, 0xc0de
    3a981588b002:	c001                	.insn	2, 0xc001
    3a981588b004:	0000                	.insn	2, 0x0000
	...

Disassembly of section .SID_PBVMS_029_ordering_satp_mstatus_without_sfence_stack:

001014b6c79ef000 <.SID_PBVMS_029_ordering_satp_mstatus_without_sfence_stack>:
  1014b6c79ef000:	c0de                	.insn	2, 0xc0de
  1014b6c79ef002:	c001                	.insn	2, 0xc001
  1014b6c79ef004:	0000                	.insn	2, 0x0000
	...

Disassembly of section .SID_PBVMS_030_sfence_vma_ordering_sync_stack:

0000007bdd4a3000 <.SID_PBVMS_030_sfence_vma_ordering_sync_stack>:
  7bdd4a3000:	c0de                	.insn	2, 0xc0de
  7bdd4a3002:	c001                	.insn	2, 0xc001
  7bdd4a3004:	0000                	.insn	2, 0x0000
	...

Disassembly of section .SID_PBVMS_031_sfence_vma_invalidate_all_stack:

000001bb83cfc000 <.SID_PBVMS_031_sfence_vma_invalidate_all_stack>:
 1bb83cfc000:	c0de                	.insn	2, 0xc0de
 1bb83cfc002:	c001                	.insn	2, 0xc001
 1bb83cfc004:	0000                	.insn	2, 0x0000
	...

Disassembly of section .SID_PBVMS_032_sfence_vma_invalidate_asid_stack:

00000aa6f6b23000 <.SID_PBVMS_032_sfence_vma_invalidate_asid_stack>:
 aa6f6b23000:	c0de                	.insn	2, 0xc0de
 aa6f6b23002:	c001                	.insn	2, 0xc001
 aa6f6b23004:	0000                	.insn	2, 0x0000
	...

Disassembly of section .SID_PBVMS_033_sfence_vma_invalidate_va_stack:

0027da6c7b192000 <.SID_PBVMS_033_sfence_vma_invalidate_va_stack>:
  27da6c7b192000:	c0de                	.insn	2, 0xc0de
  27da6c7b192002:	c001                	.insn	2, 0xc001
  27da6c7b192004:	0000                	.insn	2, 0x0000
	...

Disassembly of section .SID_PBVMS_034_sfence_vma_invalidate_va_asid_stack:

0000000000275000 <.SID_PBVMS_034_sfence_vma_invalidate_va_asid_stack>:
  275000:	c0de                	.insn	2, 0xc0de
  275002:	c001                	.insn	2, 0xc001
  275004:	0000                	.insn	2, 0x0000
	...

Disassembly of section .SID_PBVMS_035_sfence_vma_various_page_sizes_stack:

0000ce72b0c6c000 <.SID_PBVMS_035_sfence_vma_various_page_sizes_stack>:
    ce72b0c6c000:	c0de                	.insn	2, 0xc0de
    ce72b0c6c002:	c001                	.insn	2, 0xc001
    ce72b0c6c004:	0000                	.insn	2, 0x0000
	...

Disassembly of section .SID_PBVMS_037_sfence_vma_tvm_illegal_stack:

000008427359f000 <.SID_PBVMS_037_sfence_vma_tvm_illegal_stack>:
 8427359f000:	c0de                	.insn	2, 0xc0de
 8427359f002:	c001                	.insn	2, 0xc001
 8427359f004:	0000                	.insn	2, 0x0000
	...

Disassembly of section .SID_PBVMS_039_non_leaf_not_invalidated_va_based_stack:

0000000080484000 <.SID_PBVMS_039_non_leaf_not_invalidated_va_based_stack>:
    80484000:	c0de                	.insn	2, 0xc0de
    80484002:	c001                	.insn	2, 0xc001
    80484004:	0000                	.insn	2, 0x0000
	...

Disassembly of section .SID_PBVMS_040_context_table_overflow_stack:

ff2accf5fd3f3000 <.SID_PBVMS_040_context_table_overflow_stack>:
ff2accf5fd3f3000:	c0de                	.insn	2, 0xc0de
ff2accf5fd3f3002:	c001                	.insn	2, 0xc001
ff2accf5fd3f3004:	0000                	.insn	2, 0x0000
	...

Disassembly of section .SID_PBVMS_041_partial_page_invalidation_stack:

0000000080486000 <.SID_PBVMS_041_partial_page_invalidation_stack>:
    80486000:	c0de                	.insn	2, 0xc0de
    80486002:	c001                	.insn	2, 0xc001
    80486004:	0000                	.insn	2, 0x0000
	...

Disassembly of section .SID_PBVMS_042_canonical_boundary_crossing_fault_stack:

0000000001518000 <.SID_PBVMS_042_canonical_boundary_crossing_fault_stack>:
 1518000:	c0de                	.insn	2, 0xc0de
 1518002:	c001                	.insn	2, 0xc001
 1518004:	0000                	.insn	2, 0x0000
	...

Disassembly of section .SID_PBVMS_043_fetch_window_spill_page_cross_stack:

008a305e5463e000 <.SID_PBVMS_043_fetch_window_spill_page_cross_stack>:
  8a305e5463e000:	c0de                	.insn	2, 0xc0de
  8a305e5463e002:	c001                	.insn	2, 0xc001
  8a305e5463e004:	0000                	.insn	2, 0x0000
	...

Disassembly of section .SID_PBVMS_044_fe_idle_serialization_page_cross_stack:

000000e7667d8000 <.SID_PBVMS_044_fe_idle_serialization_page_cross_stack>:
  e7667d8000:	c0de                	.insn	2, 0xc0de
  e7667d8002:	c001                	.insn	2, 0xc001
  e7667d8004:	0000                	.insn	2, 0x0000
	...

Disassembly of section .__pagetable_map_os_0x0000000044bcc000:

0000000044bcc000 <__pagetable_map_os_0x0000000044bcc000>:
    44bcc000:	1c01                	.insn	2, 0x1c01
    44bcc002:	0000113f ec010000 	.insn	8, 0xec0100000000113f
    44bcc00a:	108a                	.insn	2, 0x108a
    44bcc00c:	0000                	.insn	2, 0x0000
    44bcc00e:	0000                	.insn	2, 0x0000
    44bcc010:	6001                	.insn	2, 0x6001
    44bcc012:	0000108f          	.insn	4, 0x108f
    44bcc016:	0000                	.insn	2, 0x0000
    44bcc018:	a001                	.insn	2, 0xa001
    44bcc01a:	1105                	.insn	2, 0x1105
    44bcc01c:	0000                	.insn	2, 0x0000
    44bcc01e:	0000                	.insn	2, 0x0000
    44bcc020:	e801                	.insn	2, 0xe801
    44bcc022:	0000113b          	sllw	x2,x0,x0
    44bcc026:	0000                	.insn	2, 0x0000
    44bcc028:	0801                	.insn	2, 0x0801
    44bcc02a:	1058                	.insn	2, 0x1058
    44bcc02c:	0000                	.insn	2, 0x0000
    44bcc02e:	0000                	.insn	2, 0x0000
    44bcc030:	e001                	.insn	2, 0xe001
    44bcc032:	0000113b          	sllw	x2,x0,x0
	...
    44bcc03e:	0000                	.insn	2, 0x0000
    44bcc040:	9401                	.insn	2, 0x9401
    44bcc042:	10a4                	.insn	2, 0x10a4
    44bcc044:	0000                	.insn	2, 0x0000
    44bcc046:	0000                	.insn	2, 0x0000
    44bcc048:	c401                	.insn	2, 0xc401
    44bcc04a:	0000113f f4010000 	.insn	8, 0xf40100000000113f
    44bcc052:	0000113b          	sllw	x2,x0,x0
    44bcc056:	0000                	.insn	2, 0x0000
    44bcc058:	6001                	.insn	2, 0x6001
    44bcc05a:	108d                	.insn	2, 0x108d
    44bcc05c:	0000                	.insn	2, 0x0000
    44bcc05e:	0000                	.insn	2, 0x0000
    44bcc060:	3801                	.insn	2, 0x3801
    44bcc062:	1132                	.insn	2, 0x1132
	...
    44bcc070:	d801                	.insn	2, 0xd801
    44bcc072:	105d                	.insn	2, 0x105d
	...
    44bcc080:	1001                	.insn	2, 0x1001
    44bcc082:	106a                	.insn	2, 0x106a
    44bcc084:	0000                	.insn	2, 0x0000
    44bcc086:	0000                	.insn	2, 0x0000
    44bcc088:	5401                	.insn	2, 0x5401
    44bcc08a:	0000113f 5c010000 	.insn	8, 0x5c0100000000113f
    44bcc092:	108d                	.insn	2, 0x108d
	...
    44bcc0b8:	d401                	.insn	2, 0xd401
    44bcc0ba:	113c                	.insn	2, 0x113c
	...
    44bcc0f8:	3c01                	.insn	2, 0x3c01
    44bcc0fa:	0000113f 00000000 	.insn	8, 0x113f
	...
    44bcc136:	0000                	.insn	2, 0x0000
    44bcc138:	ac01                	.insn	2, 0xac01
    44bcc13a:	105d                	.insn	2, 0x105d
	...
    44bcc188:	5401                	.insn	2, 0x5401
    44bcc18a:	106a                	.insn	2, 0x106a
    44bcc18c:	0000                	.insn	2, 0x0000
    44bcc18e:	0000                	.insn	2, 0x0000
    44bcc190:	7801                	.insn	2, 0x7801
    44bcc192:	10a6                	.insn	2, 0x10a6
	...
    44bcc1a0:	6c01                	.insn	2, 0x6c01
    44bcc1a2:	1058                	.insn	2, 0x1058
	...
    44bcc210:	f801                	.insn	2, 0xf801
    44bcc212:	1140                	.insn	2, 0x1140
	...
    44bcc228:	1c01                	.insn	2, 0x1c01
    44bcc22a:	1132                	.insn	2, 0x1132
	...
    44bcc290:	0801                	.insn	2, 0x0801
    44bcc292:	1106                	.insn	2, 0x1106
	...
    44bcc328:	f001                	.insn	2, 0xf001
    44bcc32a:	0000104f          	fnmadd.s	f0,f0,f0,f0,rtz
	...
    44bcc44e:	0000                	.insn	2, 0x0000
    44bcc450:	8c01                	.insn	2, 0x8c01
    44bcc452:	1069                	.insn	2, 0x1069
	...
    44bcc4b0:	3c01                	.insn	2, 0x3c01
    44bcc4b2:	113d                	.insn	2, 0x113d
	...
    44bcc4e0:	5401                	.insn	2, 0x5401
    44bcc4e2:	0000108f          	.insn	4, 0x108f
	...
    44bcc5a6:	0000                	.insn	2, 0x0000
    44bcc5a8:	f001                	.insn	2, 0xf001
    44bcc5aa:	0000105b          	.insn	4, 0x105b
	...
    44bcc7fe:	0000                	.insn	2, 0x0000
    44bcc800:	e801                	.insn	2, 0xe801
    44bcc802:	1069                	.insn	2, 0x1069
	...
    44bcc818:	6001                	.insn	2, 0x6001
    44bcc81a:	113d                	.insn	2, 0x113d
	...
    44bcc828:	ec01                	.insn	2, 0xec01
    44bcc82a:	0000113b          	sllw	x2,x0,x0
	...
    44bcc856:	0000                	.insn	2, 0x0000
    44bcc858:	4001                	.insn	2, 0x4001
    44bcc85a:	0000112f          	.insn	4, 0x112f
	...
    44bcc94e:	0000                	.insn	2, 0x0000
    44bcc950:	3001                	.insn	2, 0x3001
    44bcc952:	0000110b          	.insn	4, 0x110b
	...
    44bccb06:	0000                	.insn	2, 0x0000
    44bccb08:	ec01                	.insn	2, 0xec01
    44bccb0a:	110d                	.insn	2, 0x110d
    44bccb0c:	0000                	.insn	2, 0x0000
	...

Disassembly of section .__pagetable_map_os_0x0000000044fc7000:

0000000044fc7000 <__pagetable_map_os_0x0000000044fc7000>:
    44fc7000:	3801                	.insn	2, 0x3801
    44fc7002:	113d                	.insn	2, 0x113d
    44fc7004:	0000                	.insn	2, 0x0000
    44fc7006:	0000                	.insn	2, 0x0000
    44fc7008:	0801                	.insn	2, 0x0801
    44fc700a:	110e                	.insn	2, 0x110e
	...
    44fc7018:	d801                	.insn	2, 0xd801
    44fc701a:	113c                	.insn	2, 0x113c
	...
    44fc7068:	1c01                	.insn	2, 0x1c01
    44fc706a:	110e                	.insn	2, 0x110e
	...
    44fc7078:	3801                	.insn	2, 0x3801
    44fc707a:	0000104f          	fnmadd.s	f0,f0,f0,f0,rtz
    44fc707e:	0000                	.insn	2, 0x0000
    44fc7080:	9401                	.insn	2, 0x9401
    44fc7082:	1105                	.insn	2, 0x1105
	...
    44fc70a8:	e401                	.insn	2, 0xe401
    44fc70aa:	111f 0000 0000      	.insn	6, 0x111f
	...
    44fc70c0:	7c01                	.insn	2, 0x7c01
    44fc70c2:	1105                	.insn	2, 0x1105
	...
    44fc7178:	8801                	.insn	2, 0x8801
    44fc717a:	0000113f 00000000 	.insn	8, 0x113f
	...
    44fc718e:	0000                	.insn	2, 0x0000
    44fc7190:	1c01                	.insn	2, 0x1c01
    44fc7192:	113d                	.insn	2, 0x113d
	...
    44fc7358:	c801                	.insn	2, 0xc801
    44fc735a:	10a6                	.insn	2, 0x10a6
	...
    44fc7368:	ac01                	.insn	2, 0xac01
    44fc736a:	113a                	.insn	2, 0x113a
    44fc736c:	0000                	.insn	2, 0x0000
    44fc736e:	0000                	.insn	2, 0x0000
    44fc7370:	bc01                	.insn	2, 0xbc01
    44fc7372:	0000113f 00000000 	.insn	8, 0x113f
	...
    44fc739e:	0000                	.insn	2, 0x0000
    44fc73a0:	ec01                	.insn	2, 0xec01
    44fc73a2:	1109                	.insn	2, 0x1109
    44fc73a4:	0000                	.insn	2, 0x0000
    44fc73a6:	0000                	.insn	2, 0x0000
    44fc73a8:	4c01                	.insn	2, 0x4c01
    44fc73aa:	00001137          	lui	x2,0x1
	...
    44fc73ce:	0000                	.insn	2, 0x0000
    44fc73d0:	1801                	.insn	2, 0x1801
    44fc73d2:	1110                	.insn	2, 0x1110
	...
    44fc7488:	0c01                	.insn	2, 0x0c01
    44fc748a:	112e                	.insn	2, 0x112e
	...
    44fc7510:	0001                	.insn	2, 0x0001
    44fc7512:	113c                	.insn	2, 0x113c
	...
    44fc7610:	8401                	.insn	2, 0x8401
    44fc7612:	0000113f 00000000 	.insn	8, 0x113f
	...
    44fc7cde:	0000                	.insn	2, 0x0000
    44fc7ce0:	f401                	.insn	2, 0xf401
    44fc7ce2:	00001133          	sll	x2,x0,x0
	...

Disassembly of section .__pagetable_map_os_0x0000000044f4e000:

0000000044f4e000 <__pagetable_map_os_0x0000000044f4e000>:
    44f4e000:	cc01                	.insn	2, 0xcc01
    44f4e002:	0000113f f8010000 	.insn	8, 0xf80100000000113f
    44f4e00a:	0000113b          	sllw	x2,x0,x0
    44f4e00e:	0000                	.insn	2, 0x0000
    44f4e010:	e401                	.insn	2, 0xe401
    44f4e012:	105f 0000 0000      	.insn	6, 0x105f
    44f4e018:	4401                	.insn	2, 0x4401
    44f4e01a:	112e                	.insn	2, 0x112e
	...
    44f4e030:	dc01                	.insn	2, 0xdc01
    44f4e032:	1140                	.insn	2, 0x1140
	...
    44f4e078:	2001                	.insn	2, 0x2001
    44f4e07a:	110a                	.insn	2, 0x110a
	...
    44f4e088:	d401                	.insn	2, 0xd401
    44f4e08a:	1140                	.insn	2, 0x1140
    44f4e08c:	0000                	.insn	2, 0x0000
    44f4e08e:	0000                	.insn	2, 0x0000
    44f4e090:	7001                	.insn	2, 0x7001
    44f4e092:	0000112f          	.insn	4, 0x112f
    44f4e096:	0000                	.insn	2, 0x0000
    44f4e098:	9c01                	.insn	2, 0x9c01
    44f4e09a:	106e                	.insn	2, 0x106e
    44f4e09c:	0000                	.insn	2, 0x0000
    44f4e09e:	0000                	.insn	2, 0x0000
    44f4e0a0:	6401                	.insn	2, 0x6401
    44f4e0a2:	113d                	.insn	2, 0x113d
    44f4e0a4:	0000                	.insn	2, 0x0000
    44f4e0a6:	0000                	.insn	2, 0x0000
    44f4e0a8:	4c01                	.insn	2, 0x4c01
    44f4e0aa:	1058                	.insn	2, 0x1058
	...
    44f4e0c0:	c401                	.insn	2, 0xc401
    44f4e0c2:	111f 0000 0000      	.insn	6, 0x111f
	...
    44f4e148:	9c01                	.insn	2, 0x9c01
    44f4e14a:	0000108f          	.insn	4, 0x108f
	...
    44f4e15e:	0000                	.insn	2, 0x0000
    44f4e160:	7c01                	.insn	2, 0x7c01
    44f4e162:	1086                	.insn	2, 0x1086
	...
    44f4e170:	1801                	.insn	2, 0x1801
    44f4e172:	0000113f 00000000 	.insn	8, 0x113f
	...
    44f4e18e:	0000                	.insn	2, 0x0000
    44f4e190:	0c01                	.insn	2, 0x0c01
    44f4e192:	10b0                	.insn	2, 0x10b0
	...
    44f4e1b8:	4c01                	.insn	2, 0x4c01
    44f4e1ba:	106a                	.insn	2, 0x106a
	...
    44f4e270:	e001                	.insn	2, 0xe001
    44f4e272:	10a5                	.insn	2, 0x10a5
	...
    44f4e310:	5401                	.insn	2, 0x5401
    44f4e312:	108d                	.insn	2, 0x108d
    44f4e314:	0000                	.insn	2, 0x0000
    44f4e316:	0000                	.insn	2, 0x0000
    44f4e318:	e801                	.insn	2, 0xe801
    44f4e31a:	1114                	.insn	2, 0x1114
	...
    44f4e638:	e001                	.insn	2, 0xe001
    44f4e63a:	106e                	.insn	2, 0x106e
	...
    44f4e6b8:	4001                	.insn	2, 0x4001
    44f4e6ba:	1059                	.insn	2, 0x1059
    44f4e6bc:	0000                	.insn	2, 0x0000
    44f4e6be:	0000                	.insn	2, 0x0000
    44f4e6c0:	dc01                	.insn	2, 0xdc01
    44f4e6c2:	0000113b          	sllw	x2,x0,x0
	...
    44f4e766:	0000                	.insn	2, 0x0000
    44f4e768:	0801                	.insn	2, 0x0801
    44f4e76a:	113a                	.insn	2, 0x113a
	...
    44f4e7b8:	e801                	.insn	2, 0xe801
    44f4e7ba:	112d                	.insn	2, 0x112d
	...
    44f4e810:	8401                	.insn	2, 0x8401
    44f4e812:	1069                	.insn	2, 0x1069
	...
    44f4e840:	2801                	.insn	2, 0x2801
    44f4e842:	113e                	.insn	2, 0x113e
	...
    44f4e868:	a401                	.insn	2, 0xa401
    44f4e86a:	1105                	.insn	2, 0x1105
	...
    44f4ed18:	0801                	.insn	2, 0x0801
    44f4ed1a:	110a                	.insn	2, 0x110a
	...
    44f4ef78:	0801                	.insn	2, 0x0801
    44f4ef7a:	00000000113f 	.6byte	0x00000000113f

Disassembly of section .__pagetable_map_os_0x0000000044efe000:

0000000044efe000 <__pagetable_map_os_0x0000000044efe000>:
	...
    44efe020:	9401                	.insn	2, 0x9401
    44efe022:	00001133          	sll	x2,x0,x0
    44efe026:	0000                	.insn	2, 0x0000
    44efe028:	dc01                	.insn	2, 0xdc01
    44efe02a:	105d                	.insn	2, 0x105d
	...
    44efe040:	e801                	.insn	2, 0xe801
    44efe042:	108a                	.insn	2, 0x108a
    44efe044:	0000                	.insn	2, 0x0000
    44efe046:	0000                	.insn	2, 0x0000
    44efe048:	1001                	.insn	2, 0x1001
    44efe04a:	1134                	.insn	2, 0x1134
	...
    44efe128:	d401                	.insn	2, 0xd401
    44efe12a:	1108                	.insn	2, 0x1108
    44efe12c:	0000                	.insn	2, 0x0000
	...

Disassembly of section .__pagetable_map_os_0x00000000422ba000:

00000000422ba000 <__pagetable_map_os_0x00000000422ba000>:
	...
    422ba080:	104040cf          	fnmadd.s	f1,f0,f4,f2,rmm
    422ba084:	0000                	.insn	2, 0x0000
    422ba086:	0000                	.insn	2, 0x0000
    422ba088:	104044cf          	fnmadd.s	f9,f0,f4,f2,rmm
    422ba08c:	0000                	.insn	2, 0x0000
    422ba08e:	0000                	.insn	2, 0x0000
    422ba090:	104048cf          	fnmadd.s	f17,f0,f4,f2,rmm
    422ba094:	0000                	.insn	2, 0x0000
    422ba096:	0000                	.insn	2, 0x0000
    422ba098:	10404ccf          	fnmadd.s	f25,f0,f4,f2,rmm
    422ba09c:	0000                	.insn	2, 0x0000
    422ba09e:	0000                	.insn	2, 0x0000
    422ba0a0:	112000cf          	fnmadd.s	f1,f0,f18,f2,rne
    422ba0a4:	0000                	.insn	2, 0x0000
    422ba0a6:	0000                	.insn	2, 0x0000
    422ba0a8:	112004cf          	fnmadd.s	f9,f0,f18,f2,rne
    422ba0ac:	0000                	.insn	2, 0x0000
    422ba0ae:	0000                	.insn	2, 0x0000
    422ba0b0:	112008cf          	fnmadd.s	f17,f0,f18,f2,rne
    422ba0b4:	0000                	.insn	2, 0x0000
    422ba0b6:	0000                	.insn	2, 0x0000
    422ba0b8:	11200ccf          	fnmadd.s	f25,f0,f18,f2,rne
    422ba0bc:	0000                	.insn	2, 0x0000
    422ba0be:	0000                	.insn	2, 0x0000
    422ba0c0:	112010cf          	fnmadd.s	f1,f0,f18,f2,rtz
    422ba0c4:	0000                	.insn	2, 0x0000
    422ba0c6:	0000                	.insn	2, 0x0000
    422ba0c8:	112014cf          	fnmadd.s	f9,f0,f18,f2,rtz
    422ba0cc:	0000                	.insn	2, 0x0000
    422ba0ce:	0000                	.insn	2, 0x0000
    422ba0d0:	112018cf          	fnmadd.s	f17,f0,f18,f2,rtz
    422ba0d4:	0000                	.insn	2, 0x0000
    422ba0d6:	0000                	.insn	2, 0x0000
    422ba0d8:	11201ccf          	fnmadd.s	f25,f0,f18,f2,rtz
    422ba0dc:	0000                	.insn	2, 0x0000
    422ba0de:	0000                	.insn	2, 0x0000
    422ba0e0:	112020cf          	fnmadd.s	f1,f0,f18,f2,rdn
    422ba0e4:	0000                	.insn	2, 0x0000
    422ba0e6:	0000                	.insn	2, 0x0000
    422ba0e8:	112024cf          	fnmadd.s	f9,f0,f18,f2,rdn
    422ba0ec:	0000                	.insn	2, 0x0000
    422ba0ee:	0000                	.insn	2, 0x0000
    422ba0f0:	112028cf          	fnmadd.s	f17,f0,f18,f2,rdn
    422ba0f4:	0000                	.insn	2, 0x0000
    422ba0f6:	0000                	.insn	2, 0x0000
    422ba0f8:	11202ccf          	fnmadd.s	f25,f0,f18,f2,rdn
    422ba0fc:	0000                	.insn	2, 0x0000
    422ba0fe:	0000                	.insn	2, 0x0000
    422ba100:	112030cf          	fnmadd.s	f1,f0,f18,f2,rup
    422ba104:	0000                	.insn	2, 0x0000
    422ba106:	0000                	.insn	2, 0x0000
    422ba108:	112034cf          	fnmadd.s	f9,f0,f18,f2,rup
    422ba10c:	0000                	.insn	2, 0x0000
    422ba10e:	0000                	.insn	2, 0x0000
    422ba110:	112038cf          	fnmadd.s	f17,f0,f18,f2,rup
    422ba114:	0000                	.insn	2, 0x0000
    422ba116:	0000                	.insn	2, 0x0000
    422ba118:	11203ccf          	fnmadd.s	f25,f0,f18,f2,rup
    422ba11c:	0000                	.insn	2, 0x0000
    422ba11e:	0000                	.insn	2, 0x0000
    422ba120:	112040cf          	fnmadd.s	f1,f0,f18,f2,rmm
    422ba124:	0000                	.insn	2, 0x0000
    422ba126:	0000                	.insn	2, 0x0000
    422ba128:	112044cf          	fnmadd.s	f9,f0,f18,f2,rmm
    422ba12c:	0000                	.insn	2, 0x0000
    422ba12e:	0000                	.insn	2, 0x0000
    422ba130:	112048cf          	fnmadd.s	f17,f0,f18,f2,rmm
    422ba134:	0000                	.insn	2, 0x0000
    422ba136:	0000                	.insn	2, 0x0000
    422ba138:	11204ccf          	fnmadd.s	f25,f0,f18,f2,rmm
    422ba13c:	0000                	.insn	2, 0x0000
    422ba13e:	0000                	.insn	2, 0x0000
    422ba140:	112050cf          	fnmadd.s	f1,f0,f18,f2,unknown
    422ba144:	0000                	.insn	2, 0x0000
    422ba146:	0000                	.insn	2, 0x0000
    422ba148:	112054cf          	fnmadd.s	f9,f0,f18,f2,unknown
    422ba14c:	0000                	.insn	2, 0x0000
    422ba14e:	0000                	.insn	2, 0x0000
    422ba150:	112058cf          	fnmadd.s	f17,f0,f18,f2,unknown
    422ba154:	0000                	.insn	2, 0x0000
    422ba156:	0000                	.insn	2, 0x0000
    422ba158:	11205ccf          	fnmadd.s	f25,f0,f18,f2,unknown
    422ba15c:	0000                	.insn	2, 0x0000
    422ba15e:	0000                	.insn	2, 0x0000
    422ba160:	112060cf          	fnmadd.s	f1,f0,f18,f2,unknown
    422ba164:	0000                	.insn	2, 0x0000
    422ba166:	0000                	.insn	2, 0x0000
    422ba168:	112064cf          	fnmadd.s	f9,f0,f18,f2,unknown
    422ba16c:	0000                	.insn	2, 0x0000
    422ba16e:	0000                	.insn	2, 0x0000
    422ba170:	112068cf          	fnmadd.s	f17,f0,f18,f2,unknown
    422ba174:	0000                	.insn	2, 0x0000
    422ba176:	0000                	.insn	2, 0x0000
    422ba178:	11206ccf          	fnmadd.s	f25,f0,f18,f2,unknown
    422ba17c:	0000                	.insn	2, 0x0000
    422ba17e:	0000                	.insn	2, 0x0000
    422ba180:	112070cf          	fnmadd.s	f1,f0,f18,f2
    422ba184:	0000                	.insn	2, 0x0000
    422ba186:	0000                	.insn	2, 0x0000
    422ba188:	112074cf          	fnmadd.s	f9,f0,f18,f2
    422ba18c:	0000                	.insn	2, 0x0000
    422ba18e:	0000                	.insn	2, 0x0000
    422ba190:	112078cf          	fnmadd.s	f17,f0,f18,f2
    422ba194:	0000                	.insn	2, 0x0000
    422ba196:	0000                	.insn	2, 0x0000
    422ba198:	11207ccf          	fnmadd.s	f25,f0,f18,f2
    422ba19c:	0000                	.insn	2, 0x0000
    422ba19e:	0000                	.insn	2, 0x0000
    422ba1a0:	112080cf          	fnmadd.s	f1,f1,f18,f2,rne
    422ba1a4:	0000                	.insn	2, 0x0000
    422ba1a6:	0000                	.insn	2, 0x0000
    422ba1a8:	112084cf          	fnmadd.s	f9,f1,f18,f2,rne
    422ba1ac:	0000                	.insn	2, 0x0000
    422ba1ae:	0000                	.insn	2, 0x0000
    422ba1b0:	112088cf          	fnmadd.s	f17,f1,f18,f2,rne
    422ba1b4:	0000                	.insn	2, 0x0000
    422ba1b6:	0000                	.insn	2, 0x0000
    422ba1b8:	11208ccf          	fnmadd.s	f25,f1,f18,f2,rne
    422ba1bc:	0000                	.insn	2, 0x0000
    422ba1be:	0000                	.insn	2, 0x0000
    422ba1c0:	112090cf          	fnmadd.s	f1,f1,f18,f2,rtz
    422ba1c4:	0000                	.insn	2, 0x0000
    422ba1c6:	0000                	.insn	2, 0x0000
    422ba1c8:	112094cf          	fnmadd.s	f9,f1,f18,f2,rtz
    422ba1cc:	0000                	.insn	2, 0x0000
    422ba1ce:	0000                	.insn	2, 0x0000
    422ba1d0:	112098cf          	fnmadd.s	f17,f1,f18,f2,rtz
    422ba1d4:	0000                	.insn	2, 0x0000
    422ba1d6:	0000                	.insn	2, 0x0000
    422ba1d8:	11209ccf          	fnmadd.s	f25,f1,f18,f2,rtz
    422ba1dc:	0000                	.insn	2, 0x0000
    422ba1de:	0000                	.insn	2, 0x0000
    422ba1e0:	1120a0cf          	fnmadd.s	f1,f1,f18,f2,rdn
    422ba1e4:	0000                	.insn	2, 0x0000
    422ba1e6:	0000                	.insn	2, 0x0000
    422ba1e8:	1120a4cf          	fnmadd.s	f9,f1,f18,f2,rdn
    422ba1ec:	0000                	.insn	2, 0x0000
    422ba1ee:	0000                	.insn	2, 0x0000
    422ba1f0:	1120a8cf          	fnmadd.s	f17,f1,f18,f2,rdn
    422ba1f4:	0000                	.insn	2, 0x0000
    422ba1f6:	0000                	.insn	2, 0x0000
    422ba1f8:	1120accf          	fnmadd.s	f25,f1,f18,f2,rdn
    422ba1fc:	0000                	.insn	2, 0x0000
    422ba1fe:	0000                	.insn	2, 0x0000
    422ba200:	104100cf          	fnmadd.s	f1,f2,f4,f2,rne
    422ba204:	0000                	.insn	2, 0x0000
    422ba206:	0000                	.insn	2, 0x0000
    422ba208:	1120b4cf          	fnmadd.s	f9,f1,f18,f2,rup
    422ba20c:	0000                	.insn	2, 0x0000
    422ba20e:	0000                	.insn	2, 0x0000
    422ba210:	1120b8cf          	fnmadd.s	f17,f1,f18,f2,rup
    422ba214:	0000                	.insn	2, 0x0000
    422ba216:	0000                	.insn	2, 0x0000
    422ba218:	1120bccf          	fnmadd.s	f25,f1,f18,f2,rup
    422ba21c:	0000                	.insn	2, 0x0000
    422ba21e:	0000                	.insn	2, 0x0000
    422ba220:	1120c0cf          	fnmadd.s	f1,f1,f18,f2,rmm
    422ba224:	0000                	.insn	2, 0x0000
    422ba226:	0000                	.insn	2, 0x0000
    422ba228:	1120c4cf          	fnmadd.s	f9,f1,f18,f2,rmm
    422ba22c:	0000                	.insn	2, 0x0000
    422ba22e:	0000                	.insn	2, 0x0000
    422ba230:	1120c8cf          	fnmadd.s	f17,f1,f18,f2,rmm
    422ba234:	0000                	.insn	2, 0x0000
    422ba236:	0000                	.insn	2, 0x0000
    422ba238:	1120cccf          	fnmadd.s	f25,f1,f18,f2,rmm
    422ba23c:	0000                	.insn	2, 0x0000
    422ba23e:	0000                	.insn	2, 0x0000
    422ba240:	1120d0cf          	fnmadd.s	f1,f1,f18,f2,unknown
    422ba244:	0000                	.insn	2, 0x0000
    422ba246:	0000                	.insn	2, 0x0000
    422ba248:	1120d4cf          	fnmadd.s	f9,f1,f18,f2,unknown
    422ba24c:	0000                	.insn	2, 0x0000
    422ba24e:	0000                	.insn	2, 0x0000
    422ba250:	1120d8cf          	fnmadd.s	f17,f1,f18,f2,unknown
    422ba254:	0000                	.insn	2, 0x0000
    422ba256:	0000                	.insn	2, 0x0000
    422ba258:	1120dccf          	fnmadd.s	f25,f1,f18,f2,unknown
    422ba25c:	0000                	.insn	2, 0x0000
    422ba25e:	0000                	.insn	2, 0x0000
    422ba260:	1120e0cf          	fnmadd.s	f1,f1,f18,f2,unknown
    422ba264:	0000                	.insn	2, 0x0000
    422ba266:	0000                	.insn	2, 0x0000
    422ba268:	1120e4cf          	fnmadd.s	f9,f1,f18,f2,unknown
    422ba26c:	0000                	.insn	2, 0x0000
    422ba26e:	0000                	.insn	2, 0x0000
    422ba270:	1120e8cf          	fnmadd.s	f17,f1,f18,f2,unknown
    422ba274:	0000                	.insn	2, 0x0000
    422ba276:	0000                	.insn	2, 0x0000
    422ba278:	1120eccf          	fnmadd.s	f25,f1,f18,f2,unknown
    422ba27c:	0000                	.insn	2, 0x0000
    422ba27e:	0000                	.insn	2, 0x0000
    422ba280:	1120f0cf          	fnmadd.s	f1,f1,f18,f2
    422ba284:	0000                	.insn	2, 0x0000
    422ba286:	0000                	.insn	2, 0x0000
    422ba288:	1120f4cf          	fnmadd.s	f9,f1,f18,f2
    422ba28c:	0000                	.insn	2, 0x0000
    422ba28e:	0000                	.insn	2, 0x0000
    422ba290:	1120f8cf          	fnmadd.s	f17,f1,f18,f2
    422ba294:	0000                	.insn	2, 0x0000
    422ba296:	0000                	.insn	2, 0x0000
    422ba298:	1120fccf          	fnmadd.s	f25,f1,f18,f2
    422ba29c:	0000                	.insn	2, 0x0000
    422ba29e:	0000                	.insn	2, 0x0000
    422ba2a0:	112100cf          	fnmadd.s	f1,f2,f18,f2,rne
    422ba2a4:	0000                	.insn	2, 0x0000
    422ba2a6:	0000                	.insn	2, 0x0000
    422ba2a8:	112104cf          	fnmadd.s	f9,f2,f18,f2,rne
    422ba2ac:	0000                	.insn	2, 0x0000
    422ba2ae:	0000                	.insn	2, 0x0000
    422ba2b0:	112108cf          	fnmadd.s	f17,f2,f18,f2,rne
    422ba2b4:	0000                	.insn	2, 0x0000
    422ba2b6:	0000                	.insn	2, 0x0000
    422ba2b8:	11210ccf          	fnmadd.s	f25,f2,f18,f2,rne
    422ba2bc:	0000                	.insn	2, 0x0000
    422ba2be:	0000                	.insn	2, 0x0000
    422ba2c0:	112110cf          	fnmadd.s	f1,f2,f18,f2,rtz
    422ba2c4:	0000                	.insn	2, 0x0000
    422ba2c6:	0000                	.insn	2, 0x0000
    422ba2c8:	112114cf          	fnmadd.s	f9,f2,f18,f2,rtz
    422ba2cc:	0000                	.insn	2, 0x0000
    422ba2ce:	0000                	.insn	2, 0x0000
    422ba2d0:	112118cf          	fnmadd.s	f17,f2,f18,f2,rtz
    422ba2d4:	0000                	.insn	2, 0x0000
    422ba2d6:	0000                	.insn	2, 0x0000
    422ba2d8:	11211ccf          	fnmadd.s	f25,f2,f18,f2,rtz
    422ba2dc:	0000                	.insn	2, 0x0000
    422ba2de:	0000                	.insn	2, 0x0000
    422ba2e0:	112120cf          	fnmadd.s	f1,f2,f18,f2,rdn
    422ba2e4:	0000                	.insn	2, 0x0000
    422ba2e6:	0000                	.insn	2, 0x0000
    422ba2e8:	112124cf          	fnmadd.s	f9,f2,f18,f2,rdn
    422ba2ec:	0000                	.insn	2, 0x0000
    422ba2ee:	0000                	.insn	2, 0x0000
    422ba2f0:	112128cf          	fnmadd.s	f17,f2,f18,f2,rdn
    422ba2f4:	0000                	.insn	2, 0x0000
    422ba2f6:	0000                	.insn	2, 0x0000
    422ba2f8:	11212ccf          	fnmadd.s	f25,f2,f18,f2,rdn
    422ba2fc:	0000                	.insn	2, 0x0000
    422ba2fe:	0000                	.insn	2, 0x0000
    422ba300:	112130cf          	fnmadd.s	f1,f2,f18,f2,rup
    422ba304:	0000                	.insn	2, 0x0000
    422ba306:	0000                	.insn	2, 0x0000
    422ba308:	112134cf          	fnmadd.s	f9,f2,f18,f2,rup
    422ba30c:	0000                	.insn	2, 0x0000
    422ba30e:	0000                	.insn	2, 0x0000
    422ba310:	112138cf          	fnmadd.s	f17,f2,f18,f2,rup
    422ba314:	0000                	.insn	2, 0x0000
    422ba316:	0000                	.insn	2, 0x0000
    422ba318:	11213ccf          	fnmadd.s	f25,f2,f18,f2,rup
    422ba31c:	0000                	.insn	2, 0x0000
    422ba31e:	0000                	.insn	2, 0x0000
    422ba320:	112140cf          	fnmadd.s	f1,f2,f18,f2,rmm
    422ba324:	0000                	.insn	2, 0x0000
    422ba326:	0000                	.insn	2, 0x0000
    422ba328:	112144cf          	fnmadd.s	f9,f2,f18,f2,rmm
    422ba32c:	0000                	.insn	2, 0x0000
    422ba32e:	0000                	.insn	2, 0x0000
    422ba330:	112148cf          	fnmadd.s	f17,f2,f18,f2,rmm
    422ba334:	0000                	.insn	2, 0x0000
    422ba336:	0000                	.insn	2, 0x0000
    422ba338:	11214ccf          	fnmadd.s	f25,f2,f18,f2,rmm
    422ba33c:	0000                	.insn	2, 0x0000
    422ba33e:	0000                	.insn	2, 0x0000
    422ba340:	112150cf          	fnmadd.s	f1,f2,f18,f2,unknown
    422ba344:	0000                	.insn	2, 0x0000
    422ba346:	0000                	.insn	2, 0x0000
    422ba348:	112154cf          	fnmadd.s	f9,f2,f18,f2,unknown
    422ba34c:	0000                	.insn	2, 0x0000
    422ba34e:	0000                	.insn	2, 0x0000
    422ba350:	112158cf          	fnmadd.s	f17,f2,f18,f2,unknown
    422ba354:	0000                	.insn	2, 0x0000
    422ba356:	0000                	.insn	2, 0x0000
    422ba358:	11215ccf          	fnmadd.s	f25,f2,f18,f2,unknown
    422ba35c:	0000                	.insn	2, 0x0000
    422ba35e:	0000                	.insn	2, 0x0000
    422ba360:	112160cf          	fnmadd.s	f1,f2,f18,f2,unknown
    422ba364:	0000                	.insn	2, 0x0000
    422ba366:	0000                	.insn	2, 0x0000
    422ba368:	112164cf          	fnmadd.s	f9,f2,f18,f2,unknown
    422ba36c:	0000                	.insn	2, 0x0000
    422ba36e:	0000                	.insn	2, 0x0000
    422ba370:	112168cf          	fnmadd.s	f17,f2,f18,f2,unknown
    422ba374:	0000                	.insn	2, 0x0000
    422ba376:	0000                	.insn	2, 0x0000
    422ba378:	11216ccf          	fnmadd.s	f25,f2,f18,f2,unknown
    422ba37c:	0000                	.insn	2, 0x0000
    422ba37e:	0000                	.insn	2, 0x0000
    422ba380:	112170cf          	fnmadd.s	f1,f2,f18,f2
    422ba384:	0000                	.insn	2, 0x0000
    422ba386:	0000                	.insn	2, 0x0000
    422ba388:	112174cf          	fnmadd.s	f9,f2,f18,f2
    422ba38c:	0000                	.insn	2, 0x0000
    422ba38e:	0000                	.insn	2, 0x0000
    422ba390:	112178cf          	fnmadd.s	f17,f2,f18,f2
    422ba394:	0000                	.insn	2, 0x0000
    422ba396:	0000                	.insn	2, 0x0000
    422ba398:	11217ccf          	fnmadd.s	f25,f2,f18,f2
    422ba39c:	0000                	.insn	2, 0x0000
    422ba39e:	0000                	.insn	2, 0x0000
    422ba3a0:	112180cf          	fnmadd.s	f1,f3,f18,f2,rne
    422ba3a4:	0000                	.insn	2, 0x0000
    422ba3a6:	0000                	.insn	2, 0x0000
    422ba3a8:	112184cf          	fnmadd.s	f9,f3,f18,f2,rne
    422ba3ac:	0000                	.insn	2, 0x0000
    422ba3ae:	0000                	.insn	2, 0x0000
    422ba3b0:	112188cf          	fnmadd.s	f17,f3,f18,f2,rne
    422ba3b4:	0000                	.insn	2, 0x0000
    422ba3b6:	0000                	.insn	2, 0x0000
    422ba3b8:	11218ccf          	fnmadd.s	f25,f3,f18,f2,rne
    422ba3bc:	0000                	.insn	2, 0x0000
    422ba3be:	0000                	.insn	2, 0x0000
    422ba3c0:	112190cf          	fnmadd.s	f1,f3,f18,f2,rtz
    422ba3c4:	0000                	.insn	2, 0x0000
    422ba3c6:	0000                	.insn	2, 0x0000
    422ba3c8:	112194cf          	fnmadd.s	f9,f3,f18,f2,rtz
    422ba3cc:	0000                	.insn	2, 0x0000
    422ba3ce:	0000                	.insn	2, 0x0000
    422ba3d0:	112198cf          	fnmadd.s	f17,f3,f18,f2,rtz
    422ba3d4:	0000                	.insn	2, 0x0000
    422ba3d6:	0000                	.insn	2, 0x0000
    422ba3d8:	11219ccf          	fnmadd.s	f25,f3,f18,f2,rtz
    422ba3dc:	0000                	.insn	2, 0x0000
    422ba3de:	0000                	.insn	2, 0x0000
    422ba3e0:	1121a0cf          	fnmadd.s	f1,f3,f18,f2,rdn
    422ba3e4:	0000                	.insn	2, 0x0000
    422ba3e6:	0000                	.insn	2, 0x0000
    422ba3e8:	1121a4cf          	fnmadd.s	f9,f3,f18,f2,rdn
    422ba3ec:	0000                	.insn	2, 0x0000
    422ba3ee:	0000                	.insn	2, 0x0000
    422ba3f0:	1121a8cf          	fnmadd.s	f17,f3,f18,f2,rdn
    422ba3f4:	0000                	.insn	2, 0x0000
    422ba3f6:	0000                	.insn	2, 0x0000
    422ba3f8:	1121accf          	fnmadd.s	f25,f3,f18,f2,rdn
    422ba3fc:	0000                	.insn	2, 0x0000
    422ba3fe:	0000                	.insn	2, 0x0000
    422ba400:	1121b0cf          	fnmadd.s	f1,f3,f18,f2,rup
    422ba404:	0000                	.insn	2, 0x0000
    422ba406:	0000                	.insn	2, 0x0000
    422ba408:	1121b4cf          	fnmadd.s	f9,f3,f18,f2,rup
    422ba40c:	0000                	.insn	2, 0x0000
    422ba40e:	0000                	.insn	2, 0x0000
    422ba410:	1121b8cf          	fnmadd.s	f17,f3,f18,f2,rup
    422ba414:	0000                	.insn	2, 0x0000
    422ba416:	0000                	.insn	2, 0x0000
    422ba418:	1121bccf          	fnmadd.s	f25,f3,f18,f2,rup
    422ba41c:	0000                	.insn	2, 0x0000
    422ba41e:	0000                	.insn	2, 0x0000
    422ba420:	1121c0cf          	fnmadd.s	f1,f3,f18,f2,rmm
    422ba424:	0000                	.insn	2, 0x0000
    422ba426:	0000                	.insn	2, 0x0000
    422ba428:	1121c4cf          	fnmadd.s	f9,f3,f18,f2,rmm
    422ba42c:	0000                	.insn	2, 0x0000
    422ba42e:	0000                	.insn	2, 0x0000
    422ba430:	1121c8cf          	fnmadd.s	f17,f3,f18,f2,rmm
    422ba434:	0000                	.insn	2, 0x0000
    422ba436:	0000                	.insn	2, 0x0000
    422ba438:	1121cccf          	fnmadd.s	f25,f3,f18,f2,rmm
    422ba43c:	0000                	.insn	2, 0x0000
    422ba43e:	0000                	.insn	2, 0x0000
    422ba440:	1121d0cf          	fnmadd.s	f1,f3,f18,f2,unknown
    422ba444:	0000                	.insn	2, 0x0000
    422ba446:	0000                	.insn	2, 0x0000
    422ba448:	1121d4cf          	fnmadd.s	f9,f3,f18,f2,unknown
    422ba44c:	0000                	.insn	2, 0x0000
    422ba44e:	0000                	.insn	2, 0x0000
    422ba450:	1121d8cf          	fnmadd.s	f17,f3,f18,f2,unknown
    422ba454:	0000                	.insn	2, 0x0000
    422ba456:	0000                	.insn	2, 0x0000
    422ba458:	1121dccf          	fnmadd.s	f25,f3,f18,f2,unknown
    422ba45c:	0000                	.insn	2, 0x0000
    422ba45e:	0000                	.insn	2, 0x0000
    422ba460:	1121e0cf          	fnmadd.s	f1,f3,f18,f2,unknown
    422ba464:	0000                	.insn	2, 0x0000
    422ba466:	0000                	.insn	2, 0x0000
    422ba468:	1121e4cf          	fnmadd.s	f9,f3,f18,f2,unknown
    422ba46c:	0000                	.insn	2, 0x0000
    422ba46e:	0000                	.insn	2, 0x0000
    422ba470:	1121e8cf          	fnmadd.s	f17,f3,f18,f2,unknown
    422ba474:	0000                	.insn	2, 0x0000
    422ba476:	0000                	.insn	2, 0x0000
    422ba478:	1121eccf          	fnmadd.s	f25,f3,f18,f2,unknown
    422ba47c:	0000                	.insn	2, 0x0000
    422ba47e:	0000                	.insn	2, 0x0000
    422ba480:	1121f0cf          	fnmadd.s	f1,f3,f18,f2
    422ba484:	0000                	.insn	2, 0x0000
    422ba486:	0000                	.insn	2, 0x0000
    422ba488:	1121f4cf          	fnmadd.s	f9,f3,f18,f2
    422ba48c:	0000                	.insn	2, 0x0000
    422ba48e:	0000                	.insn	2, 0x0000
    422ba490:	1121f8cf          	fnmadd.s	f17,f3,f18,f2
    422ba494:	0000                	.insn	2, 0x0000
    422ba496:	0000                	.insn	2, 0x0000
    422ba498:	1121fccf          	fnmadd.s	f25,f3,f18,f2
    422ba49c:	0000                	.insn	2, 0x0000
    422ba49e:	0000                	.insn	2, 0x0000
    422ba4a0:	112200cf          	fnmadd.s	f1,f4,f18,f2,rne
    422ba4a4:	0000                	.insn	2, 0x0000
    422ba4a6:	0000                	.insn	2, 0x0000
    422ba4a8:	112204cf          	fnmadd.s	f9,f4,f18,f2,rne
    422ba4ac:	0000                	.insn	2, 0x0000
    422ba4ae:	0000                	.insn	2, 0x0000
    422ba4b0:	112208cf          	fnmadd.s	f17,f4,f18,f2,rne
    422ba4b4:	0000                	.insn	2, 0x0000
    422ba4b6:	0000                	.insn	2, 0x0000
    422ba4b8:	11220ccf          	fnmadd.s	f25,f4,f18,f2,rne
    422ba4bc:	0000                	.insn	2, 0x0000
    422ba4be:	0000                	.insn	2, 0x0000
    422ba4c0:	112210cf          	fnmadd.s	f1,f4,f18,f2,rtz
    422ba4c4:	0000                	.insn	2, 0x0000
    422ba4c6:	0000                	.insn	2, 0x0000
    422ba4c8:	112214cf          	fnmadd.s	f9,f4,f18,f2,rtz
    422ba4cc:	0000                	.insn	2, 0x0000
    422ba4ce:	0000                	.insn	2, 0x0000
    422ba4d0:	112218cf          	fnmadd.s	f17,f4,f18,f2,rtz
    422ba4d4:	0000                	.insn	2, 0x0000
    422ba4d6:	0000                	.insn	2, 0x0000
    422ba4d8:	11221ccf          	fnmadd.s	f25,f4,f18,f2,rtz
    422ba4dc:	0000                	.insn	2, 0x0000
    422ba4de:	0000                	.insn	2, 0x0000
    422ba4e0:	112220cf          	fnmadd.s	f1,f4,f18,f2,rdn
    422ba4e4:	0000                	.insn	2, 0x0000
    422ba4e6:	0000                	.insn	2, 0x0000
    422ba4e8:	112224cf          	fnmadd.s	f9,f4,f18,f2,rdn
    422ba4ec:	0000                	.insn	2, 0x0000
    422ba4ee:	0000                	.insn	2, 0x0000
    422ba4f0:	112228cf          	fnmadd.s	f17,f4,f18,f2,rdn
    422ba4f4:	0000                	.insn	2, 0x0000
    422ba4f6:	0000                	.insn	2, 0x0000
    422ba4f8:	11222ccf          	fnmadd.s	f25,f4,f18,f2,rdn
    422ba4fc:	0000                	.insn	2, 0x0000
    422ba4fe:	0000                	.insn	2, 0x0000
    422ba500:	112230cf          	fnmadd.s	f1,f4,f18,f2,rup
    422ba504:	0000                	.insn	2, 0x0000
    422ba506:	0000                	.insn	2, 0x0000
    422ba508:	112234cf          	fnmadd.s	f9,f4,f18,f2,rup
    422ba50c:	0000                	.insn	2, 0x0000
    422ba50e:	0000                	.insn	2, 0x0000
    422ba510:	112238cf          	fnmadd.s	f17,f4,f18,f2,rup
    422ba514:	0000                	.insn	2, 0x0000
    422ba516:	0000                	.insn	2, 0x0000
    422ba518:	11223ccf          	fnmadd.s	f25,f4,f18,f2,rup
    422ba51c:	0000                	.insn	2, 0x0000
    422ba51e:	0000                	.insn	2, 0x0000
    422ba520:	112240cf          	fnmadd.s	f1,f4,f18,f2,rmm
    422ba524:	0000                	.insn	2, 0x0000
    422ba526:	0000                	.insn	2, 0x0000
    422ba528:	112244cf          	fnmadd.s	f9,f4,f18,f2,rmm
    422ba52c:	0000                	.insn	2, 0x0000
    422ba52e:	0000                	.insn	2, 0x0000
    422ba530:	112248cf          	fnmadd.s	f17,f4,f18,f2,rmm
    422ba534:	0000                	.insn	2, 0x0000
    422ba536:	0000                	.insn	2, 0x0000
    422ba538:	11224ccf          	fnmadd.s	f25,f4,f18,f2,rmm
    422ba53c:	0000                	.insn	2, 0x0000
    422ba53e:	0000                	.insn	2, 0x0000
    422ba540:	112250cf          	fnmadd.s	f1,f4,f18,f2,unknown
    422ba544:	0000                	.insn	2, 0x0000
    422ba546:	0000                	.insn	2, 0x0000
    422ba548:	112254cf          	fnmadd.s	f9,f4,f18,f2,unknown
    422ba54c:	0000                	.insn	2, 0x0000
    422ba54e:	0000                	.insn	2, 0x0000
    422ba550:	112258cf          	fnmadd.s	f17,f4,f18,f2,unknown
    422ba554:	0000                	.insn	2, 0x0000
    422ba556:	0000                	.insn	2, 0x0000
    422ba558:	11225ccf          	fnmadd.s	f25,f4,f18,f2,unknown
    422ba55c:	0000                	.insn	2, 0x0000
    422ba55e:	0000                	.insn	2, 0x0000
    422ba560:	112260cf          	fnmadd.s	f1,f4,f18,f2,unknown
    422ba564:	0000                	.insn	2, 0x0000
    422ba566:	0000                	.insn	2, 0x0000
    422ba568:	112264cf          	fnmadd.s	f9,f4,f18,f2,unknown
    422ba56c:	0000                	.insn	2, 0x0000
    422ba56e:	0000                	.insn	2, 0x0000
    422ba570:	112268cf          	fnmadd.s	f17,f4,f18,f2,unknown
    422ba574:	0000                	.insn	2, 0x0000
    422ba576:	0000                	.insn	2, 0x0000
    422ba578:	11226ccf          	fnmadd.s	f25,f4,f18,f2,unknown
    422ba57c:	0000                	.insn	2, 0x0000
    422ba57e:	0000                	.insn	2, 0x0000
    422ba580:	112270cf          	fnmadd.s	f1,f4,f18,f2
    422ba584:	0000                	.insn	2, 0x0000
    422ba586:	0000                	.insn	2, 0x0000
    422ba588:	112274cf          	fnmadd.s	f9,f4,f18,f2
    422ba58c:	0000                	.insn	2, 0x0000
    422ba58e:	0000                	.insn	2, 0x0000
    422ba590:	112278cf          	fnmadd.s	f17,f4,f18,f2
    422ba594:	0000                	.insn	2, 0x0000
    422ba596:	0000                	.insn	2, 0x0000
    422ba598:	11227ccf          	fnmadd.s	f25,f4,f18,f2
    422ba59c:	0000                	.insn	2, 0x0000
    422ba59e:	0000                	.insn	2, 0x0000
    422ba5a0:	112280cf          	fnmadd.s	f1,f5,f18,f2,rne
    422ba5a4:	0000                	.insn	2, 0x0000
    422ba5a6:	0000                	.insn	2, 0x0000
    422ba5a8:	112284cf          	fnmadd.s	f9,f5,f18,f2,rne
    422ba5ac:	0000                	.insn	2, 0x0000
    422ba5ae:	0000                	.insn	2, 0x0000
    422ba5b0:	112288cf          	fnmadd.s	f17,f5,f18,f2,rne
    422ba5b4:	0000                	.insn	2, 0x0000
    422ba5b6:	0000                	.insn	2, 0x0000
    422ba5b8:	11228ccf          	fnmadd.s	f25,f5,f18,f2,rne
    422ba5bc:	0000                	.insn	2, 0x0000
    422ba5be:	0000                	.insn	2, 0x0000
    422ba5c0:	112290cf          	fnmadd.s	f1,f5,f18,f2,rtz
    422ba5c4:	0000                	.insn	2, 0x0000
    422ba5c6:	0000                	.insn	2, 0x0000
    422ba5c8:	112294cf          	fnmadd.s	f9,f5,f18,f2,rtz
    422ba5cc:	0000                	.insn	2, 0x0000
    422ba5ce:	0000                	.insn	2, 0x0000
    422ba5d0:	112298cf          	fnmadd.s	f17,f5,f18,f2,rtz
    422ba5d4:	0000                	.insn	2, 0x0000
    422ba5d6:	0000                	.insn	2, 0x0000
    422ba5d8:	11229ccf          	fnmadd.s	f25,f5,f18,f2,rtz
    422ba5dc:	0000                	.insn	2, 0x0000
    422ba5de:	0000                	.insn	2, 0x0000
    422ba5e0:	1122a0cf          	fnmadd.s	f1,f5,f18,f2,rdn
    422ba5e4:	0000                	.insn	2, 0x0000
    422ba5e6:	0000                	.insn	2, 0x0000
    422ba5e8:	1122a4cf          	fnmadd.s	f9,f5,f18,f2,rdn
    422ba5ec:	0000                	.insn	2, 0x0000
    422ba5ee:	0000                	.insn	2, 0x0000
    422ba5f0:	1122a8cf          	fnmadd.s	f17,f5,f18,f2,rdn
    422ba5f4:	0000                	.insn	2, 0x0000
    422ba5f6:	0000                	.insn	2, 0x0000
    422ba5f8:	1122accf          	fnmadd.s	f25,f5,f18,f2,rdn
    422ba5fc:	0000                	.insn	2, 0x0000
    422ba5fe:	0000                	.insn	2, 0x0000
    422ba600:	1122b0cf          	fnmadd.s	f1,f5,f18,f2,rup
    422ba604:	0000                	.insn	2, 0x0000
    422ba606:	0000                	.insn	2, 0x0000
    422ba608:	1122b4cf          	fnmadd.s	f9,f5,f18,f2,rup
    422ba60c:	0000                	.insn	2, 0x0000
    422ba60e:	0000                	.insn	2, 0x0000
    422ba610:	1122b8cf          	fnmadd.s	f17,f5,f18,f2,rup
    422ba614:	0000                	.insn	2, 0x0000
    422ba616:	0000                	.insn	2, 0x0000
    422ba618:	1122bccf          	fnmadd.s	f25,f5,f18,f2,rup
    422ba61c:	0000                	.insn	2, 0x0000
    422ba61e:	0000                	.insn	2, 0x0000
    422ba620:	1122c0cf          	fnmadd.s	f1,f5,f18,f2,rmm
    422ba624:	0000                	.insn	2, 0x0000
    422ba626:	0000                	.insn	2, 0x0000
    422ba628:	1122c4cf          	fnmadd.s	f9,f5,f18,f2,rmm
    422ba62c:	0000                	.insn	2, 0x0000
    422ba62e:	0000                	.insn	2, 0x0000
    422ba630:	1122c8cf          	fnmadd.s	f17,f5,f18,f2,rmm
    422ba634:	0000                	.insn	2, 0x0000
    422ba636:	0000                	.insn	2, 0x0000
    422ba638:	1122cccf          	fnmadd.s	f25,f5,f18,f2,rmm
    422ba63c:	0000                	.insn	2, 0x0000
    422ba63e:	0000                	.insn	2, 0x0000
    422ba640:	1122d0cf          	fnmadd.s	f1,f5,f18,f2,unknown
    422ba644:	0000                	.insn	2, 0x0000
    422ba646:	0000                	.insn	2, 0x0000
    422ba648:	1122d4cf          	fnmadd.s	f9,f5,f18,f2,unknown
    422ba64c:	0000                	.insn	2, 0x0000
    422ba64e:	0000                	.insn	2, 0x0000
    422ba650:	1122d8cf          	fnmadd.s	f17,f5,f18,f2,unknown
    422ba654:	0000                	.insn	2, 0x0000
    422ba656:	0000                	.insn	2, 0x0000
    422ba658:	1122dccf          	fnmadd.s	f25,f5,f18,f2,unknown
    422ba65c:	0000                	.insn	2, 0x0000
    422ba65e:	0000                	.insn	2, 0x0000
    422ba660:	1122e0cf          	fnmadd.s	f1,f5,f18,f2,unknown
    422ba664:	0000                	.insn	2, 0x0000
    422ba666:	0000                	.insn	2, 0x0000
    422ba668:	1122e4cf          	fnmadd.s	f9,f5,f18,f2,unknown
    422ba66c:	0000                	.insn	2, 0x0000
    422ba66e:	0000                	.insn	2, 0x0000
    422ba670:	1122e8cf          	fnmadd.s	f17,f5,f18,f2,unknown
    422ba674:	0000                	.insn	2, 0x0000
    422ba676:	0000                	.insn	2, 0x0000
    422ba678:	1122eccf          	fnmadd.s	f25,f5,f18,f2,unknown
    422ba67c:	0000                	.insn	2, 0x0000
    422ba67e:	0000                	.insn	2, 0x0000
    422ba680:	1122f0cf          	fnmadd.s	f1,f5,f18,f2
    422ba684:	0000                	.insn	2, 0x0000
    422ba686:	0000                	.insn	2, 0x0000
    422ba688:	1122f4cf          	fnmadd.s	f9,f5,f18,f2
    422ba68c:	0000                	.insn	2, 0x0000
    422ba68e:	0000                	.insn	2, 0x0000
    422ba690:	1122f8cf          	fnmadd.s	f17,f5,f18,f2
    422ba694:	0000                	.insn	2, 0x0000
    422ba696:	0000                	.insn	2, 0x0000
    422ba698:	1122fccf          	fnmadd.s	f25,f5,f18,f2
    422ba69c:	0000                	.insn	2, 0x0000
    422ba69e:	0000                	.insn	2, 0x0000
    422ba6a0:	112300cf          	fnmadd.s	f1,f6,f18,f2,rne
    422ba6a4:	0000                	.insn	2, 0x0000
    422ba6a6:	0000                	.insn	2, 0x0000
    422ba6a8:	112304cf          	fnmadd.s	f9,f6,f18,f2,rne
    422ba6ac:	0000                	.insn	2, 0x0000
    422ba6ae:	0000                	.insn	2, 0x0000
    422ba6b0:	112308cf          	fnmadd.s	f17,f6,f18,f2,rne
    422ba6b4:	0000                	.insn	2, 0x0000
    422ba6b6:	0000                	.insn	2, 0x0000
    422ba6b8:	11230ccf          	fnmadd.s	f25,f6,f18,f2,rne
    422ba6bc:	0000                	.insn	2, 0x0000
    422ba6be:	0000                	.insn	2, 0x0000
    422ba6c0:	112310cf          	fnmadd.s	f1,f6,f18,f2,rtz
    422ba6c4:	0000                	.insn	2, 0x0000
    422ba6c6:	0000                	.insn	2, 0x0000
    422ba6c8:	112314cf          	fnmadd.s	f9,f6,f18,f2,rtz
    422ba6cc:	0000                	.insn	2, 0x0000
    422ba6ce:	0000                	.insn	2, 0x0000
    422ba6d0:	112318cf          	fnmadd.s	f17,f6,f18,f2,rtz
    422ba6d4:	0000                	.insn	2, 0x0000
    422ba6d6:	0000                	.insn	2, 0x0000
    422ba6d8:	11231ccf          	fnmadd.s	f25,f6,f18,f2,rtz
    422ba6dc:	0000                	.insn	2, 0x0000
    422ba6de:	0000                	.insn	2, 0x0000
    422ba6e0:	112320cf          	fnmadd.s	f1,f6,f18,f2,rdn
    422ba6e4:	0000                	.insn	2, 0x0000
    422ba6e6:	0000                	.insn	2, 0x0000
    422ba6e8:	112324cf          	fnmadd.s	f9,f6,f18,f2,rdn
    422ba6ec:	0000                	.insn	2, 0x0000
    422ba6ee:	0000                	.insn	2, 0x0000
    422ba6f0:	112328cf          	fnmadd.s	f17,f6,f18,f2,rdn
    422ba6f4:	0000                	.insn	2, 0x0000
    422ba6f6:	0000                	.insn	2, 0x0000
    422ba6f8:	11232ccf          	fnmadd.s	f25,f6,f18,f2,rdn
    422ba6fc:	0000                	.insn	2, 0x0000
    422ba6fe:	0000                	.insn	2, 0x0000
    422ba700:	112330cf          	fnmadd.s	f1,f6,f18,f2,rup
    422ba704:	0000                	.insn	2, 0x0000
    422ba706:	0000                	.insn	2, 0x0000
    422ba708:	112334cf          	fnmadd.s	f9,f6,f18,f2,rup
    422ba70c:	0000                	.insn	2, 0x0000
    422ba70e:	0000                	.insn	2, 0x0000
    422ba710:	112338cf          	fnmadd.s	f17,f6,f18,f2,rup
    422ba714:	0000                	.insn	2, 0x0000
    422ba716:	0000                	.insn	2, 0x0000
    422ba718:	11233ccf          	fnmadd.s	f25,f6,f18,f2,rup
    422ba71c:	0000                	.insn	2, 0x0000
    422ba71e:	0000                	.insn	2, 0x0000
    422ba720:	112340cf          	fnmadd.s	f1,f6,f18,f2,rmm
    422ba724:	0000                	.insn	2, 0x0000
    422ba726:	0000                	.insn	2, 0x0000
    422ba728:	112344cf          	fnmadd.s	f9,f6,f18,f2,rmm
    422ba72c:	0000                	.insn	2, 0x0000
    422ba72e:	0000                	.insn	2, 0x0000
    422ba730:	112348cf          	fnmadd.s	f17,f6,f18,f2,rmm
    422ba734:	0000                	.insn	2, 0x0000
    422ba736:	0000                	.insn	2, 0x0000
    422ba738:	11234ccf          	fnmadd.s	f25,f6,f18,f2,rmm
    422ba73c:	0000                	.insn	2, 0x0000
    422ba73e:	0000                	.insn	2, 0x0000
    422ba740:	112350cf          	fnmadd.s	f1,f6,f18,f2,unknown
    422ba744:	0000                	.insn	2, 0x0000
    422ba746:	0000                	.insn	2, 0x0000
    422ba748:	112354cf          	fnmadd.s	f9,f6,f18,f2,unknown
    422ba74c:	0000                	.insn	2, 0x0000
    422ba74e:	0000                	.insn	2, 0x0000
    422ba750:	112358cf          	fnmadd.s	f17,f6,f18,f2,unknown
    422ba754:	0000                	.insn	2, 0x0000
    422ba756:	0000                	.insn	2, 0x0000
    422ba758:	11235ccf          	fnmadd.s	f25,f6,f18,f2,unknown
    422ba75c:	0000                	.insn	2, 0x0000
    422ba75e:	0000                	.insn	2, 0x0000
    422ba760:	112360cf          	fnmadd.s	f1,f6,f18,f2,unknown
    422ba764:	0000                	.insn	2, 0x0000
    422ba766:	0000                	.insn	2, 0x0000
    422ba768:	112364cf          	fnmadd.s	f9,f6,f18,f2,unknown
    422ba76c:	0000                	.insn	2, 0x0000
    422ba76e:	0000                	.insn	2, 0x0000
    422ba770:	112368cf          	fnmadd.s	f17,f6,f18,f2,unknown
    422ba774:	0000                	.insn	2, 0x0000
    422ba776:	0000                	.insn	2, 0x0000
    422ba778:	11236ccf          	fnmadd.s	f25,f6,f18,f2,unknown
    422ba77c:	0000                	.insn	2, 0x0000
    422ba77e:	0000                	.insn	2, 0x0000
    422ba780:	112370cf          	fnmadd.s	f1,f6,f18,f2
    422ba784:	0000                	.insn	2, 0x0000
    422ba786:	0000                	.insn	2, 0x0000
    422ba788:	112374cf          	fnmadd.s	f9,f6,f18,f2
    422ba78c:	0000                	.insn	2, 0x0000
    422ba78e:	0000                	.insn	2, 0x0000
    422ba790:	112378cf          	fnmadd.s	f17,f6,f18,f2
    422ba794:	0000                	.insn	2, 0x0000
    422ba796:	0000                	.insn	2, 0x0000
    422ba798:	11237ccf          	fnmadd.s	f25,f6,f18,f2
    422ba79c:	0000                	.insn	2, 0x0000
    422ba79e:	0000                	.insn	2, 0x0000
    422ba7a0:	112380cf          	fnmadd.s	f1,f7,f18,f2,rne
    422ba7a4:	0000                	.insn	2, 0x0000
    422ba7a6:	0000                	.insn	2, 0x0000
    422ba7a8:	112384cf          	fnmadd.s	f9,f7,f18,f2,rne
    422ba7ac:	0000                	.insn	2, 0x0000
    422ba7ae:	0000                	.insn	2, 0x0000
    422ba7b0:	112388cf          	fnmadd.s	f17,f7,f18,f2,rne
    422ba7b4:	0000                	.insn	2, 0x0000
    422ba7b6:	0000                	.insn	2, 0x0000
    422ba7b8:	11238ccf          	fnmadd.s	f25,f7,f18,f2,rne
    422ba7bc:	0000                	.insn	2, 0x0000
    422ba7be:	0000                	.insn	2, 0x0000
    422ba7c0:	112390cf          	fnmadd.s	f1,f7,f18,f2,rtz
    422ba7c4:	0000                	.insn	2, 0x0000
    422ba7c6:	0000                	.insn	2, 0x0000
    422ba7c8:	112394cf          	fnmadd.s	f9,f7,f18,f2,rtz
    422ba7cc:	0000                	.insn	2, 0x0000
    422ba7ce:	0000                	.insn	2, 0x0000
    422ba7d0:	112398cf          	fnmadd.s	f17,f7,f18,f2,rtz
    422ba7d4:	0000                	.insn	2, 0x0000
    422ba7d6:	0000                	.insn	2, 0x0000
    422ba7d8:	11239ccf          	fnmadd.s	f25,f7,f18,f2,rtz
    422ba7dc:	0000                	.insn	2, 0x0000
    422ba7de:	0000                	.insn	2, 0x0000
    422ba7e0:	1123a0cf          	fnmadd.s	f1,f7,f18,f2,rdn
    422ba7e4:	0000                	.insn	2, 0x0000
    422ba7e6:	0000                	.insn	2, 0x0000
    422ba7e8:	1123a4cf          	fnmadd.s	f9,f7,f18,f2,rdn
    422ba7ec:	0000                	.insn	2, 0x0000
    422ba7ee:	0000                	.insn	2, 0x0000
    422ba7f0:	1123a8cf          	fnmadd.s	f17,f7,f18,f2,rdn
    422ba7f4:	0000                	.insn	2, 0x0000
    422ba7f6:	0000                	.insn	2, 0x0000
    422ba7f8:	1123accf          	fnmadd.s	f25,f7,f18,f2,rdn
    422ba7fc:	0000                	.insn	2, 0x0000
    422ba7fe:	0000                	.insn	2, 0x0000
    422ba800:	1123b0cf          	fnmadd.s	f1,f7,f18,f2,rup
    422ba804:	0000                	.insn	2, 0x0000
    422ba806:	0000                	.insn	2, 0x0000
    422ba808:	1123b4cf          	fnmadd.s	f9,f7,f18,f2,rup
    422ba80c:	0000                	.insn	2, 0x0000
    422ba80e:	0000                	.insn	2, 0x0000
    422ba810:	1123b8cf          	fnmadd.s	f17,f7,f18,f2,rup
    422ba814:	0000                	.insn	2, 0x0000
    422ba816:	0000                	.insn	2, 0x0000
    422ba818:	1123bccf          	fnmadd.s	f25,f7,f18,f2,rup
    422ba81c:	0000                	.insn	2, 0x0000
    422ba81e:	0000                	.insn	2, 0x0000
    422ba820:	1123c0cf          	fnmadd.s	f1,f7,f18,f2,rmm
    422ba824:	0000                	.insn	2, 0x0000
    422ba826:	0000                	.insn	2, 0x0000
    422ba828:	1123c4cf          	fnmadd.s	f9,f7,f18,f2,rmm
    422ba82c:	0000                	.insn	2, 0x0000
    422ba82e:	0000                	.insn	2, 0x0000
    422ba830:	1123c8cf          	fnmadd.s	f17,f7,f18,f2,rmm
    422ba834:	0000                	.insn	2, 0x0000
    422ba836:	0000                	.insn	2, 0x0000
    422ba838:	1123cccf          	fnmadd.s	f25,f7,f18,f2,rmm
    422ba83c:	0000                	.insn	2, 0x0000
    422ba83e:	0000                	.insn	2, 0x0000
    422ba840:	1123d0cf          	fnmadd.s	f1,f7,f18,f2,unknown
    422ba844:	0000                	.insn	2, 0x0000
    422ba846:	0000                	.insn	2, 0x0000
    422ba848:	1123d4cf          	fnmadd.s	f9,f7,f18,f2,unknown
    422ba84c:	0000                	.insn	2, 0x0000
    422ba84e:	0000                	.insn	2, 0x0000
    422ba850:	1123d8cf          	fnmadd.s	f17,f7,f18,f2,unknown
    422ba854:	0000                	.insn	2, 0x0000
    422ba856:	0000                	.insn	2, 0x0000
    422ba858:	1123dccf          	fnmadd.s	f25,f7,f18,f2,unknown
    422ba85c:	0000                	.insn	2, 0x0000
    422ba85e:	0000                	.insn	2, 0x0000
    422ba860:	1123e0cf          	fnmadd.s	f1,f7,f18,f2,unknown
    422ba864:	0000                	.insn	2, 0x0000
    422ba866:	0000                	.insn	2, 0x0000
    422ba868:	1123e4cf          	fnmadd.s	f9,f7,f18,f2,unknown
    422ba86c:	0000                	.insn	2, 0x0000
    422ba86e:	0000                	.insn	2, 0x0000
    422ba870:	1123e8cf          	fnmadd.s	f17,f7,f18,f2,unknown
    422ba874:	0000                	.insn	2, 0x0000
    422ba876:	0000                	.insn	2, 0x0000
    422ba878:	1123eccf          	fnmadd.s	f25,f7,f18,f2,unknown
    422ba87c:	0000                	.insn	2, 0x0000
    422ba87e:	0000                	.insn	2, 0x0000
    422ba880:	1123f0cf          	fnmadd.s	f1,f7,f18,f2
    422ba884:	0000                	.insn	2, 0x0000
    422ba886:	0000                	.insn	2, 0x0000
    422ba888:	1123f4cf          	fnmadd.s	f9,f7,f18,f2
    422ba88c:	0000                	.insn	2, 0x0000
    422ba88e:	0000                	.insn	2, 0x0000
    422ba890:	1123f8cf          	fnmadd.s	f17,f7,f18,f2
    422ba894:	0000                	.insn	2, 0x0000
    422ba896:	0000                	.insn	2, 0x0000
    422ba898:	1123fccf          	fnmadd.s	f25,f7,f18,f2
    422ba89c:	0000                	.insn	2, 0x0000
    422ba89e:	0000                	.insn	2, 0x0000
    422ba8a0:	112400cf          	fnmadd.s	f1,f8,f18,f2,rne
    422ba8a4:	0000                	.insn	2, 0x0000
    422ba8a6:	0000                	.insn	2, 0x0000
    422ba8a8:	112404cf          	fnmadd.s	f9,f8,f18,f2,rne
    422ba8ac:	0000                	.insn	2, 0x0000
    422ba8ae:	0000                	.insn	2, 0x0000
    422ba8b0:	112408cf          	fnmadd.s	f17,f8,f18,f2,rne
    422ba8b4:	0000                	.insn	2, 0x0000
    422ba8b6:	0000                	.insn	2, 0x0000
    422ba8b8:	11240ccf          	fnmadd.s	f25,f8,f18,f2,rne
    422ba8bc:	0000                	.insn	2, 0x0000
    422ba8be:	0000                	.insn	2, 0x0000
    422ba8c0:	112410cf          	fnmadd.s	f1,f8,f18,f2,rtz
    422ba8c4:	0000                	.insn	2, 0x0000
    422ba8c6:	0000                	.insn	2, 0x0000
    422ba8c8:	112414cf          	fnmadd.s	f9,f8,f18,f2,rtz
    422ba8cc:	0000                	.insn	2, 0x0000
    422ba8ce:	0000                	.insn	2, 0x0000
    422ba8d0:	112418cf          	fnmadd.s	f17,f8,f18,f2,rtz
    422ba8d4:	0000                	.insn	2, 0x0000
    422ba8d6:	0000                	.insn	2, 0x0000
    422ba8d8:	11241ccf          	fnmadd.s	f25,f8,f18,f2,rtz
    422ba8dc:	0000                	.insn	2, 0x0000
    422ba8de:	0000                	.insn	2, 0x0000
    422ba8e0:	112420cf          	fnmadd.s	f1,f8,f18,f2,rdn
    422ba8e4:	0000                	.insn	2, 0x0000
    422ba8e6:	0000                	.insn	2, 0x0000
    422ba8e8:	112424cf          	fnmadd.s	f9,f8,f18,f2,rdn
    422ba8ec:	0000                	.insn	2, 0x0000
    422ba8ee:	0000                	.insn	2, 0x0000
    422ba8f0:	112428cf          	fnmadd.s	f17,f8,f18,f2,rdn
    422ba8f4:	0000                	.insn	2, 0x0000
    422ba8f6:	0000                	.insn	2, 0x0000
    422ba8f8:	11242ccf          	fnmadd.s	f25,f8,f18,f2,rdn
    422ba8fc:	0000                	.insn	2, 0x0000
    422ba8fe:	0000                	.insn	2, 0x0000
    422ba900:	112430cf          	fnmadd.s	f1,f8,f18,f2,rup
    422ba904:	0000                	.insn	2, 0x0000
    422ba906:	0000                	.insn	2, 0x0000
    422ba908:	112434cf          	fnmadd.s	f9,f8,f18,f2,rup
    422ba90c:	0000                	.insn	2, 0x0000
    422ba90e:	0000                	.insn	2, 0x0000
    422ba910:	112438cf          	fnmadd.s	f17,f8,f18,f2,rup
    422ba914:	0000                	.insn	2, 0x0000
    422ba916:	0000                	.insn	2, 0x0000
    422ba918:	11243ccf          	fnmadd.s	f25,f8,f18,f2,rup
    422ba91c:	0000                	.insn	2, 0x0000
    422ba91e:	0000                	.insn	2, 0x0000
    422ba920:	112440cf          	fnmadd.s	f1,f8,f18,f2,rmm
    422ba924:	0000                	.insn	2, 0x0000
    422ba926:	0000                	.insn	2, 0x0000
    422ba928:	112444cf          	fnmadd.s	f9,f8,f18,f2,rmm
    422ba92c:	0000                	.insn	2, 0x0000
    422ba92e:	0000                	.insn	2, 0x0000
    422ba930:	112448cf          	fnmadd.s	f17,f8,f18,f2,rmm
    422ba934:	0000                	.insn	2, 0x0000
    422ba936:	0000                	.insn	2, 0x0000
    422ba938:	11244ccf          	fnmadd.s	f25,f8,f18,f2,rmm
    422ba93c:	0000                	.insn	2, 0x0000
    422ba93e:	0000                	.insn	2, 0x0000
    422ba940:	112450cf          	fnmadd.s	f1,f8,f18,f2,unknown
    422ba944:	0000                	.insn	2, 0x0000
    422ba946:	0000                	.insn	2, 0x0000
    422ba948:	112454cf          	fnmadd.s	f9,f8,f18,f2,unknown
    422ba94c:	0000                	.insn	2, 0x0000
    422ba94e:	0000                	.insn	2, 0x0000
    422ba950:	112458cf          	fnmadd.s	f17,f8,f18,f2,unknown
    422ba954:	0000                	.insn	2, 0x0000
    422ba956:	0000                	.insn	2, 0x0000
    422ba958:	11245ccf          	fnmadd.s	f25,f8,f18,f2,unknown
    422ba95c:	0000                	.insn	2, 0x0000
    422ba95e:	0000                	.insn	2, 0x0000
    422ba960:	112460cf          	fnmadd.s	f1,f8,f18,f2,unknown
    422ba964:	0000                	.insn	2, 0x0000
    422ba966:	0000                	.insn	2, 0x0000
    422ba968:	112464cf          	fnmadd.s	f9,f8,f18,f2,unknown
    422ba96c:	0000                	.insn	2, 0x0000
    422ba96e:	0000                	.insn	2, 0x0000
    422ba970:	112468cf          	fnmadd.s	f17,f8,f18,f2,unknown
    422ba974:	0000                	.insn	2, 0x0000
    422ba976:	0000                	.insn	2, 0x0000
    422ba978:	11246ccf          	fnmadd.s	f25,f8,f18,f2,unknown
    422ba97c:	0000                	.insn	2, 0x0000
    422ba97e:	0000                	.insn	2, 0x0000
    422ba980:	112470cf          	fnmadd.s	f1,f8,f18,f2
    422ba984:	0000                	.insn	2, 0x0000
    422ba986:	0000                	.insn	2, 0x0000
    422ba988:	112474cf          	fnmadd.s	f9,f8,f18,f2
    422ba98c:	0000                	.insn	2, 0x0000
    422ba98e:	0000                	.insn	2, 0x0000
    422ba990:	112478cf          	fnmadd.s	f17,f8,f18,f2
    422ba994:	0000                	.insn	2, 0x0000
    422ba996:	0000                	.insn	2, 0x0000
    422ba998:	11247ccf          	fnmadd.s	f25,f8,f18,f2
    422ba99c:	0000                	.insn	2, 0x0000
    422ba99e:	0000                	.insn	2, 0x0000
    422ba9a0:	112480cf          	fnmadd.s	f1,f9,f18,f2,rne
    422ba9a4:	0000                	.insn	2, 0x0000
    422ba9a6:	0000                	.insn	2, 0x0000
    422ba9a8:	112484cf          	fnmadd.s	f9,f9,f18,f2,rne
    422ba9ac:	0000                	.insn	2, 0x0000
    422ba9ae:	0000                	.insn	2, 0x0000
    422ba9b0:	112488cf          	fnmadd.s	f17,f9,f18,f2,rne
    422ba9b4:	0000                	.insn	2, 0x0000
    422ba9b6:	0000                	.insn	2, 0x0000
    422ba9b8:	11248ccf          	fnmadd.s	f25,f9,f18,f2,rne
    422ba9bc:	0000                	.insn	2, 0x0000
    422ba9be:	0000                	.insn	2, 0x0000
    422ba9c0:	112490cf          	fnmadd.s	f1,f9,f18,f2,rtz
    422ba9c4:	0000                	.insn	2, 0x0000
    422ba9c6:	0000                	.insn	2, 0x0000
    422ba9c8:	112494cf          	fnmadd.s	f9,f9,f18,f2,rtz
    422ba9cc:	0000                	.insn	2, 0x0000
    422ba9ce:	0000                	.insn	2, 0x0000
    422ba9d0:	112498cf          	fnmadd.s	f17,f9,f18,f2,rtz
    422ba9d4:	0000                	.insn	2, 0x0000
    422ba9d6:	0000                	.insn	2, 0x0000
    422ba9d8:	11249ccf          	fnmadd.s	f25,f9,f18,f2,rtz
    422ba9dc:	0000                	.insn	2, 0x0000
    422ba9de:	0000                	.insn	2, 0x0000
    422ba9e0:	1124a0cf          	fnmadd.s	f1,f9,f18,f2,rdn
    422ba9e4:	0000                	.insn	2, 0x0000
    422ba9e6:	0000                	.insn	2, 0x0000
    422ba9e8:	1124a4cf          	fnmadd.s	f9,f9,f18,f2,rdn
    422ba9ec:	0000                	.insn	2, 0x0000
    422ba9ee:	0000                	.insn	2, 0x0000
    422ba9f0:	1124a8cf          	fnmadd.s	f17,f9,f18,f2,rdn
    422ba9f4:	0000                	.insn	2, 0x0000
    422ba9f6:	0000                	.insn	2, 0x0000
    422ba9f8:	1124accf          	fnmadd.s	f25,f9,f18,f2,rdn
    422ba9fc:	0000                	.insn	2, 0x0000
    422ba9fe:	0000                	.insn	2, 0x0000
    422baa00:	1124b0cf          	fnmadd.s	f1,f9,f18,f2,rup
    422baa04:	0000                	.insn	2, 0x0000
    422baa06:	0000                	.insn	2, 0x0000
    422baa08:	1124b4cf          	fnmadd.s	f9,f9,f18,f2,rup
    422baa0c:	0000                	.insn	2, 0x0000
    422baa0e:	0000                	.insn	2, 0x0000
    422baa10:	1124b8cf          	fnmadd.s	f17,f9,f18,f2,rup
    422baa14:	0000                	.insn	2, 0x0000
    422baa16:	0000                	.insn	2, 0x0000
    422baa18:	1124bccf          	fnmadd.s	f25,f9,f18,f2,rup
    422baa1c:	0000                	.insn	2, 0x0000
    422baa1e:	0000                	.insn	2, 0x0000
    422baa20:	1124c0cf          	fnmadd.s	f1,f9,f18,f2,rmm
    422baa24:	0000                	.insn	2, 0x0000
    422baa26:	0000                	.insn	2, 0x0000
    422baa28:	1124c4cf          	fnmadd.s	f9,f9,f18,f2,rmm
    422baa2c:	0000                	.insn	2, 0x0000
    422baa2e:	0000                	.insn	2, 0x0000
    422baa30:	1124c8cf          	fnmadd.s	f17,f9,f18,f2,rmm
    422baa34:	0000                	.insn	2, 0x0000
    422baa36:	0000                	.insn	2, 0x0000
    422baa38:	1124cccf          	fnmadd.s	f25,f9,f18,f2,rmm
    422baa3c:	0000                	.insn	2, 0x0000
    422baa3e:	0000                	.insn	2, 0x0000
    422baa40:	1124d0cf          	fnmadd.s	f1,f9,f18,f2,unknown
    422baa44:	0000                	.insn	2, 0x0000
    422baa46:	0000                	.insn	2, 0x0000
    422baa48:	1124d4cf          	fnmadd.s	f9,f9,f18,f2,unknown
    422baa4c:	0000                	.insn	2, 0x0000
    422baa4e:	0000                	.insn	2, 0x0000
    422baa50:	1124d8cf          	fnmadd.s	f17,f9,f18,f2,unknown
    422baa54:	0000                	.insn	2, 0x0000
    422baa56:	0000                	.insn	2, 0x0000
    422baa58:	1124dccf          	fnmadd.s	f25,f9,f18,f2,unknown
    422baa5c:	0000                	.insn	2, 0x0000
    422baa5e:	0000                	.insn	2, 0x0000
    422baa60:	1124e0cf          	fnmadd.s	f1,f9,f18,f2,unknown
    422baa64:	0000                	.insn	2, 0x0000
    422baa66:	0000                	.insn	2, 0x0000
    422baa68:	1124e4cf          	fnmadd.s	f9,f9,f18,f2,unknown
    422baa6c:	0000                	.insn	2, 0x0000
    422baa6e:	0000                	.insn	2, 0x0000
    422baa70:	1124e8cf          	fnmadd.s	f17,f9,f18,f2,unknown
    422baa74:	0000                	.insn	2, 0x0000
    422baa76:	0000                	.insn	2, 0x0000
    422baa78:	1124eccf          	fnmadd.s	f25,f9,f18,f2,unknown
    422baa7c:	0000                	.insn	2, 0x0000
    422baa7e:	0000                	.insn	2, 0x0000
    422baa80:	1124f0cf          	fnmadd.s	f1,f9,f18,f2
    422baa84:	0000                	.insn	2, 0x0000
    422baa86:	0000                	.insn	2, 0x0000
    422baa88:	1124f4cf          	fnmadd.s	f9,f9,f18,f2
    422baa8c:	0000                	.insn	2, 0x0000
    422baa8e:	0000                	.insn	2, 0x0000
    422baa90:	1124f8cf          	fnmadd.s	f17,f9,f18,f2
    422baa94:	0000                	.insn	2, 0x0000
    422baa96:	0000                	.insn	2, 0x0000
    422baa98:	1124fccf          	fnmadd.s	f25,f9,f18,f2
    422baa9c:	0000                	.insn	2, 0x0000
    422baa9e:	0000                	.insn	2, 0x0000
    422baaa0:	112500cf          	fnmadd.s	f1,f10,f18,f2,rne
    422baaa4:	0000                	.insn	2, 0x0000
    422baaa6:	0000                	.insn	2, 0x0000
    422baaa8:	112504cf          	fnmadd.s	f9,f10,f18,f2,rne
    422baaac:	0000                	.insn	2, 0x0000
    422baaae:	0000                	.insn	2, 0x0000
    422baab0:	112508cf          	fnmadd.s	f17,f10,f18,f2,rne
    422baab4:	0000                	.insn	2, 0x0000
    422baab6:	0000                	.insn	2, 0x0000
    422baab8:	11250ccf          	fnmadd.s	f25,f10,f18,f2,rne
    422baabc:	0000                	.insn	2, 0x0000
    422baabe:	0000                	.insn	2, 0x0000
    422baac0:	112510cf          	fnmadd.s	f1,f10,f18,f2,rtz
    422baac4:	0000                	.insn	2, 0x0000
    422baac6:	0000                	.insn	2, 0x0000
    422baac8:	112514cf          	fnmadd.s	f9,f10,f18,f2,rtz
    422baacc:	0000                	.insn	2, 0x0000
    422baace:	0000                	.insn	2, 0x0000
    422baad0:	112518cf          	fnmadd.s	f17,f10,f18,f2,rtz
    422baad4:	0000                	.insn	2, 0x0000
    422baad6:	0000                	.insn	2, 0x0000
    422baad8:	11251ccf          	fnmadd.s	f25,f10,f18,f2,rtz
    422baadc:	0000                	.insn	2, 0x0000
    422baade:	0000                	.insn	2, 0x0000
    422baae0:	112520cf          	fnmadd.s	f1,f10,f18,f2,rdn
    422baae4:	0000                	.insn	2, 0x0000
    422baae6:	0000                	.insn	2, 0x0000
    422baae8:	112524cf          	fnmadd.s	f9,f10,f18,f2,rdn
    422baaec:	0000                	.insn	2, 0x0000
    422baaee:	0000                	.insn	2, 0x0000
    422baaf0:	112528cf          	fnmadd.s	f17,f10,f18,f2,rdn
    422baaf4:	0000                	.insn	2, 0x0000
    422baaf6:	0000                	.insn	2, 0x0000
    422baaf8:	11252ccf          	fnmadd.s	f25,f10,f18,f2,rdn
    422baafc:	0000                	.insn	2, 0x0000
    422baafe:	0000                	.insn	2, 0x0000
    422bab00:	112530cf          	fnmadd.s	f1,f10,f18,f2,rup
    422bab04:	0000                	.insn	2, 0x0000
    422bab06:	0000                	.insn	2, 0x0000
    422bab08:	112534cf          	fnmadd.s	f9,f10,f18,f2,rup
    422bab0c:	0000                	.insn	2, 0x0000
    422bab0e:	0000                	.insn	2, 0x0000
    422bab10:	112538cf          	fnmadd.s	f17,f10,f18,f2,rup
    422bab14:	0000                	.insn	2, 0x0000
    422bab16:	0000                	.insn	2, 0x0000
    422bab18:	11253ccf          	fnmadd.s	f25,f10,f18,f2,rup
    422bab1c:	0000                	.insn	2, 0x0000
    422bab1e:	0000                	.insn	2, 0x0000
    422bab20:	112540cf          	fnmadd.s	f1,f10,f18,f2,rmm
    422bab24:	0000                	.insn	2, 0x0000
    422bab26:	0000                	.insn	2, 0x0000
    422bab28:	112544cf          	fnmadd.s	f9,f10,f18,f2,rmm
    422bab2c:	0000                	.insn	2, 0x0000
    422bab2e:	0000                	.insn	2, 0x0000
    422bab30:	112548cf          	fnmadd.s	f17,f10,f18,f2,rmm
    422bab34:	0000                	.insn	2, 0x0000
    422bab36:	0000                	.insn	2, 0x0000
    422bab38:	11254ccf          	fnmadd.s	f25,f10,f18,f2,rmm
    422bab3c:	0000                	.insn	2, 0x0000
    422bab3e:	0000                	.insn	2, 0x0000
    422bab40:	112550cf          	fnmadd.s	f1,f10,f18,f2,unknown
    422bab44:	0000                	.insn	2, 0x0000
    422bab46:	0000                	.insn	2, 0x0000
    422bab48:	112554cf          	fnmadd.s	f9,f10,f18,f2,unknown
    422bab4c:	0000                	.insn	2, 0x0000
    422bab4e:	0000                	.insn	2, 0x0000
    422bab50:	112558cf          	fnmadd.s	f17,f10,f18,f2,unknown
    422bab54:	0000                	.insn	2, 0x0000
    422bab56:	0000                	.insn	2, 0x0000
    422bab58:	11255ccf          	fnmadd.s	f25,f10,f18,f2,unknown
    422bab5c:	0000                	.insn	2, 0x0000
    422bab5e:	0000                	.insn	2, 0x0000
    422bab60:	112560cf          	fnmadd.s	f1,f10,f18,f2,unknown
    422bab64:	0000                	.insn	2, 0x0000
    422bab66:	0000                	.insn	2, 0x0000
    422bab68:	112564cf          	fnmadd.s	f9,f10,f18,f2,unknown
    422bab6c:	0000                	.insn	2, 0x0000
    422bab6e:	0000                	.insn	2, 0x0000
    422bab70:	112568cf          	fnmadd.s	f17,f10,f18,f2,unknown
    422bab74:	0000                	.insn	2, 0x0000
    422bab76:	0000                	.insn	2, 0x0000
    422bab78:	11256ccf          	fnmadd.s	f25,f10,f18,f2,unknown
    422bab7c:	0000                	.insn	2, 0x0000
    422bab7e:	0000                	.insn	2, 0x0000
    422bab80:	112570cf          	fnmadd.s	f1,f10,f18,f2
    422bab84:	0000                	.insn	2, 0x0000
    422bab86:	0000                	.insn	2, 0x0000
    422bab88:	112574cf          	fnmadd.s	f9,f10,f18,f2
    422bab8c:	0000                	.insn	2, 0x0000
    422bab8e:	0000                	.insn	2, 0x0000
    422bab90:	112578cf          	fnmadd.s	f17,f10,f18,f2
    422bab94:	0000                	.insn	2, 0x0000
    422bab96:	0000                	.insn	2, 0x0000
    422bab98:	11257ccf          	fnmadd.s	f25,f10,f18,f2
    422bab9c:	0000                	.insn	2, 0x0000
    422bab9e:	0000                	.insn	2, 0x0000
    422baba0:	112580cf          	fnmadd.s	f1,f11,f18,f2,rne
    422baba4:	0000                	.insn	2, 0x0000
    422baba6:	0000                	.insn	2, 0x0000
    422baba8:	112584cf          	fnmadd.s	f9,f11,f18,f2,rne
    422babac:	0000                	.insn	2, 0x0000
    422babae:	0000                	.insn	2, 0x0000
    422babb0:	112588cf          	fnmadd.s	f17,f11,f18,f2,rne
    422babb4:	0000                	.insn	2, 0x0000
    422babb6:	0000                	.insn	2, 0x0000
    422babb8:	11258ccf          	fnmadd.s	f25,f11,f18,f2,rne
    422babbc:	0000                	.insn	2, 0x0000
    422babbe:	0000                	.insn	2, 0x0000
    422babc0:	112590cf          	fnmadd.s	f1,f11,f18,f2,rtz
    422babc4:	0000                	.insn	2, 0x0000
    422babc6:	0000                	.insn	2, 0x0000
    422babc8:	112594cf          	fnmadd.s	f9,f11,f18,f2,rtz
    422babcc:	0000                	.insn	2, 0x0000
    422babce:	0000                	.insn	2, 0x0000
    422babd0:	112598cf          	fnmadd.s	f17,f11,f18,f2,rtz
    422babd4:	0000                	.insn	2, 0x0000
    422babd6:	0000                	.insn	2, 0x0000
    422babd8:	11259ccf          	fnmadd.s	f25,f11,f18,f2,rtz
    422babdc:	0000                	.insn	2, 0x0000
    422babde:	0000                	.insn	2, 0x0000
    422babe0:	1125a0cf          	fnmadd.s	f1,f11,f18,f2,rdn
    422babe4:	0000                	.insn	2, 0x0000
    422babe6:	0000                	.insn	2, 0x0000
    422babe8:	1125a4cf          	fnmadd.s	f9,f11,f18,f2,rdn
    422babec:	0000                	.insn	2, 0x0000
    422babee:	0000                	.insn	2, 0x0000
    422babf0:	1125a8cf          	fnmadd.s	f17,f11,f18,f2,rdn
    422babf4:	0000                	.insn	2, 0x0000
    422babf6:	0000                	.insn	2, 0x0000
    422babf8:	1125accf          	fnmadd.s	f25,f11,f18,f2,rdn
    422babfc:	0000                	.insn	2, 0x0000
    422babfe:	0000                	.insn	2, 0x0000
    422bac00:	1125b0cf          	fnmadd.s	f1,f11,f18,f2,rup
    422bac04:	0000                	.insn	2, 0x0000
    422bac06:	0000                	.insn	2, 0x0000
    422bac08:	1125b4cf          	fnmadd.s	f9,f11,f18,f2,rup
    422bac0c:	0000                	.insn	2, 0x0000
    422bac0e:	0000                	.insn	2, 0x0000
    422bac10:	1125b8cf          	fnmadd.s	f17,f11,f18,f2,rup
    422bac14:	0000                	.insn	2, 0x0000
    422bac16:	0000                	.insn	2, 0x0000
    422bac18:	1125bccf          	fnmadd.s	f25,f11,f18,f2,rup
    422bac1c:	0000                	.insn	2, 0x0000
    422bac1e:	0000                	.insn	2, 0x0000
    422bac20:	1125c0cf          	fnmadd.s	f1,f11,f18,f2,rmm
    422bac24:	0000                	.insn	2, 0x0000
    422bac26:	0000                	.insn	2, 0x0000
    422bac28:	1125c4cf          	fnmadd.s	f9,f11,f18,f2,rmm
    422bac2c:	0000                	.insn	2, 0x0000
    422bac2e:	0000                	.insn	2, 0x0000
    422bac30:	1125c8cf          	fnmadd.s	f17,f11,f18,f2,rmm
    422bac34:	0000                	.insn	2, 0x0000
    422bac36:	0000                	.insn	2, 0x0000
    422bac38:	1125cccf          	fnmadd.s	f25,f11,f18,f2,rmm
    422bac3c:	0000                	.insn	2, 0x0000
    422bac3e:	0000                	.insn	2, 0x0000
    422bac40:	1125d0cf          	fnmadd.s	f1,f11,f18,f2,unknown
    422bac44:	0000                	.insn	2, 0x0000
    422bac46:	0000                	.insn	2, 0x0000
    422bac48:	1125d4cf          	fnmadd.s	f9,f11,f18,f2,unknown
    422bac4c:	0000                	.insn	2, 0x0000
    422bac4e:	0000                	.insn	2, 0x0000
    422bac50:	1125d8cf          	fnmadd.s	f17,f11,f18,f2,unknown
    422bac54:	0000                	.insn	2, 0x0000
    422bac56:	0000                	.insn	2, 0x0000
    422bac58:	1125dccf          	fnmadd.s	f25,f11,f18,f2,unknown
    422bac5c:	0000                	.insn	2, 0x0000
    422bac5e:	0000                	.insn	2, 0x0000
    422bac60:	1125e0cf          	fnmadd.s	f1,f11,f18,f2,unknown
    422bac64:	0000                	.insn	2, 0x0000
    422bac66:	0000                	.insn	2, 0x0000
    422bac68:	1125e4cf          	fnmadd.s	f9,f11,f18,f2,unknown
    422bac6c:	0000                	.insn	2, 0x0000
    422bac6e:	0000                	.insn	2, 0x0000
    422bac70:	1125e8cf          	fnmadd.s	f17,f11,f18,f2,unknown
    422bac74:	0000                	.insn	2, 0x0000
    422bac76:	0000                	.insn	2, 0x0000
    422bac78:	1125eccf          	fnmadd.s	f25,f11,f18,f2,unknown
    422bac7c:	0000                	.insn	2, 0x0000
    422bac7e:	0000                	.insn	2, 0x0000
    422bac80:	1125f0cf          	fnmadd.s	f1,f11,f18,f2
    422bac84:	0000                	.insn	2, 0x0000
    422bac86:	0000                	.insn	2, 0x0000
    422bac88:	1125f4cf          	fnmadd.s	f9,f11,f18,f2
    422bac8c:	0000                	.insn	2, 0x0000
    422bac8e:	0000                	.insn	2, 0x0000
    422bac90:	1125f8cf          	fnmadd.s	f17,f11,f18,f2
    422bac94:	0000                	.insn	2, 0x0000
    422bac96:	0000                	.insn	2, 0x0000
    422bac98:	1125fccf          	fnmadd.s	f25,f11,f18,f2
    422bac9c:	0000                	.insn	2, 0x0000
    422bac9e:	0000                	.insn	2, 0x0000
    422baca0:	112600cf          	fnmadd.s	f1,f12,f18,f2,rne
    422baca4:	0000                	.insn	2, 0x0000
    422baca6:	0000                	.insn	2, 0x0000
    422baca8:	112604cf          	fnmadd.s	f9,f12,f18,f2,rne
    422bacac:	0000                	.insn	2, 0x0000
    422bacae:	0000                	.insn	2, 0x0000
    422bacb0:	112608cf          	fnmadd.s	f17,f12,f18,f2,rne
    422bacb4:	0000                	.insn	2, 0x0000
    422bacb6:	0000                	.insn	2, 0x0000
    422bacb8:	11260ccf          	fnmadd.s	f25,f12,f18,f2,rne
    422bacbc:	0000                	.insn	2, 0x0000
    422bacbe:	0000                	.insn	2, 0x0000
    422bacc0:	112610cf          	fnmadd.s	f1,f12,f18,f2,rtz
    422bacc4:	0000                	.insn	2, 0x0000
    422bacc6:	0000                	.insn	2, 0x0000
    422bacc8:	112614cf          	fnmadd.s	f9,f12,f18,f2,rtz
    422baccc:	0000                	.insn	2, 0x0000
    422bacce:	0000                	.insn	2, 0x0000
    422bacd0:	112618cf          	fnmadd.s	f17,f12,f18,f2,rtz
    422bacd4:	0000                	.insn	2, 0x0000
    422bacd6:	0000                	.insn	2, 0x0000
    422bacd8:	11261ccf          	fnmadd.s	f25,f12,f18,f2,rtz
    422bacdc:	0000                	.insn	2, 0x0000
    422bacde:	0000                	.insn	2, 0x0000
    422bace0:	112620cf          	fnmadd.s	f1,f12,f18,f2,rdn
    422bace4:	0000                	.insn	2, 0x0000
    422bace6:	0000                	.insn	2, 0x0000
    422bace8:	112624cf          	fnmadd.s	f9,f12,f18,f2,rdn
    422bacec:	0000                	.insn	2, 0x0000
    422bacee:	0000                	.insn	2, 0x0000
    422bacf0:	112628cf          	fnmadd.s	f17,f12,f18,f2,rdn
    422bacf4:	0000                	.insn	2, 0x0000
    422bacf6:	0000                	.insn	2, 0x0000
    422bacf8:	11262ccf          	fnmadd.s	f25,f12,f18,f2,rdn
    422bacfc:	0000                	.insn	2, 0x0000
    422bacfe:	0000                	.insn	2, 0x0000
    422bad00:	112630cf          	fnmadd.s	f1,f12,f18,f2,rup
    422bad04:	0000                	.insn	2, 0x0000
    422bad06:	0000                	.insn	2, 0x0000
    422bad08:	112634cf          	fnmadd.s	f9,f12,f18,f2,rup
    422bad0c:	0000                	.insn	2, 0x0000
    422bad0e:	0000                	.insn	2, 0x0000
    422bad10:	112638cf          	fnmadd.s	f17,f12,f18,f2,rup
    422bad14:	0000                	.insn	2, 0x0000
    422bad16:	0000                	.insn	2, 0x0000
    422bad18:	11263ccf          	fnmadd.s	f25,f12,f18,f2,rup
    422bad1c:	0000                	.insn	2, 0x0000
    422bad1e:	0000                	.insn	2, 0x0000
    422bad20:	112640cf          	fnmadd.s	f1,f12,f18,f2,rmm
    422bad24:	0000                	.insn	2, 0x0000
    422bad26:	0000                	.insn	2, 0x0000
    422bad28:	112644cf          	fnmadd.s	f9,f12,f18,f2,rmm
    422bad2c:	0000                	.insn	2, 0x0000
    422bad2e:	0000                	.insn	2, 0x0000
    422bad30:	112648cf          	fnmadd.s	f17,f12,f18,f2,rmm
    422bad34:	0000                	.insn	2, 0x0000
    422bad36:	0000                	.insn	2, 0x0000
    422bad38:	11264ccf          	fnmadd.s	f25,f12,f18,f2,rmm
    422bad3c:	0000                	.insn	2, 0x0000
    422bad3e:	0000                	.insn	2, 0x0000
    422bad40:	112650cf          	fnmadd.s	f1,f12,f18,f2,unknown
    422bad44:	0000                	.insn	2, 0x0000
    422bad46:	0000                	.insn	2, 0x0000
    422bad48:	112654cf          	fnmadd.s	f9,f12,f18,f2,unknown
    422bad4c:	0000                	.insn	2, 0x0000
    422bad4e:	0000                	.insn	2, 0x0000
    422bad50:	112658cf          	fnmadd.s	f17,f12,f18,f2,unknown
    422bad54:	0000                	.insn	2, 0x0000
    422bad56:	0000                	.insn	2, 0x0000
    422bad58:	11265ccf          	fnmadd.s	f25,f12,f18,f2,unknown
    422bad5c:	0000                	.insn	2, 0x0000
    422bad5e:	0000                	.insn	2, 0x0000
    422bad60:	112660cf          	fnmadd.s	f1,f12,f18,f2,unknown
    422bad64:	0000                	.insn	2, 0x0000
    422bad66:	0000                	.insn	2, 0x0000
    422bad68:	112664cf          	fnmadd.s	f9,f12,f18,f2,unknown
    422bad6c:	0000                	.insn	2, 0x0000
    422bad6e:	0000                	.insn	2, 0x0000
    422bad70:	112668cf          	fnmadd.s	f17,f12,f18,f2,unknown
    422bad74:	0000                	.insn	2, 0x0000
    422bad76:	0000                	.insn	2, 0x0000
    422bad78:	11266ccf          	fnmadd.s	f25,f12,f18,f2,unknown
    422bad7c:	0000                	.insn	2, 0x0000
    422bad7e:	0000                	.insn	2, 0x0000
    422bad80:	112670cf          	fnmadd.s	f1,f12,f18,f2
    422bad84:	0000                	.insn	2, 0x0000
    422bad86:	0000                	.insn	2, 0x0000
    422bad88:	112674cf          	fnmadd.s	f9,f12,f18,f2
    422bad8c:	0000                	.insn	2, 0x0000
    422bad8e:	0000                	.insn	2, 0x0000
    422bad90:	112678cf          	fnmadd.s	f17,f12,f18,f2
    422bad94:	0000                	.insn	2, 0x0000
    422bad96:	0000                	.insn	2, 0x0000
    422bad98:	11267ccf          	fnmadd.s	f25,f12,f18,f2
    422bad9c:	0000                	.insn	2, 0x0000
    422bad9e:	0000                	.insn	2, 0x0000
    422bada0:	112680cf          	fnmadd.s	f1,f13,f18,f2,rne
    422bada4:	0000                	.insn	2, 0x0000
    422bada6:	0000                	.insn	2, 0x0000
    422bada8:	112684cf          	fnmadd.s	f9,f13,f18,f2,rne
    422badac:	0000                	.insn	2, 0x0000
    422badae:	0000                	.insn	2, 0x0000
    422badb0:	112688cf          	fnmadd.s	f17,f13,f18,f2,rne
    422badb4:	0000                	.insn	2, 0x0000
    422badb6:	0000                	.insn	2, 0x0000
    422badb8:	11268ccf          	fnmadd.s	f25,f13,f18,f2,rne
    422badbc:	0000                	.insn	2, 0x0000
    422badbe:	0000                	.insn	2, 0x0000
    422badc0:	112690cf          	fnmadd.s	f1,f13,f18,f2,rtz
    422badc4:	0000                	.insn	2, 0x0000
    422badc6:	0000                	.insn	2, 0x0000
    422badc8:	112694cf          	fnmadd.s	f9,f13,f18,f2,rtz
    422badcc:	0000                	.insn	2, 0x0000
    422badce:	0000                	.insn	2, 0x0000
    422badd0:	112698cf          	fnmadd.s	f17,f13,f18,f2,rtz
    422badd4:	0000                	.insn	2, 0x0000
    422badd6:	0000                	.insn	2, 0x0000
    422badd8:	11269ccf          	fnmadd.s	f25,f13,f18,f2,rtz
    422baddc:	0000                	.insn	2, 0x0000
    422badde:	0000                	.insn	2, 0x0000
    422bade0:	1126a0cf          	fnmadd.s	f1,f13,f18,f2,rdn
    422bade4:	0000                	.insn	2, 0x0000
    422bade6:	0000                	.insn	2, 0x0000
    422bade8:	1126a4cf          	fnmadd.s	f9,f13,f18,f2,rdn
    422badec:	0000                	.insn	2, 0x0000
    422badee:	0000                	.insn	2, 0x0000
    422badf0:	1126a8cf          	fnmadd.s	f17,f13,f18,f2,rdn
    422badf4:	0000                	.insn	2, 0x0000
    422badf6:	0000                	.insn	2, 0x0000
    422badf8:	1126accf          	fnmadd.s	f25,f13,f18,f2,rdn
    422badfc:	0000                	.insn	2, 0x0000
    422badfe:	0000                	.insn	2, 0x0000
    422bae00:	1126b0cf          	fnmadd.s	f1,f13,f18,f2,rup
    422bae04:	0000                	.insn	2, 0x0000
    422bae06:	0000                	.insn	2, 0x0000
    422bae08:	1126b4cf          	fnmadd.s	f9,f13,f18,f2,rup
    422bae0c:	0000                	.insn	2, 0x0000
    422bae0e:	0000                	.insn	2, 0x0000
    422bae10:	1126b8cf          	fnmadd.s	f17,f13,f18,f2,rup
    422bae14:	0000                	.insn	2, 0x0000
    422bae16:	0000                	.insn	2, 0x0000
    422bae18:	1126bccf          	fnmadd.s	f25,f13,f18,f2,rup
    422bae1c:	0000                	.insn	2, 0x0000
    422bae1e:	0000                	.insn	2, 0x0000
    422bae20:	1126c0cf          	fnmadd.s	f1,f13,f18,f2,rmm
    422bae24:	0000                	.insn	2, 0x0000
    422bae26:	0000                	.insn	2, 0x0000
    422bae28:	1126c4cf          	fnmadd.s	f9,f13,f18,f2,rmm
    422bae2c:	0000                	.insn	2, 0x0000
    422bae2e:	0000                	.insn	2, 0x0000
    422bae30:	1126c8cf          	fnmadd.s	f17,f13,f18,f2,rmm
    422bae34:	0000                	.insn	2, 0x0000
    422bae36:	0000                	.insn	2, 0x0000
    422bae38:	1126cccf          	fnmadd.s	f25,f13,f18,f2,rmm
    422bae3c:	0000                	.insn	2, 0x0000
    422bae3e:	0000                	.insn	2, 0x0000
    422bae40:	1126d0cf          	fnmadd.s	f1,f13,f18,f2,unknown
    422bae44:	0000                	.insn	2, 0x0000
    422bae46:	0000                	.insn	2, 0x0000
    422bae48:	1126d4cf          	fnmadd.s	f9,f13,f18,f2,unknown
    422bae4c:	0000                	.insn	2, 0x0000
    422bae4e:	0000                	.insn	2, 0x0000
    422bae50:	1126d8cf          	fnmadd.s	f17,f13,f18,f2,unknown
    422bae54:	0000                	.insn	2, 0x0000
    422bae56:	0000                	.insn	2, 0x0000
    422bae58:	1126dccf          	fnmadd.s	f25,f13,f18,f2,unknown
    422bae5c:	0000                	.insn	2, 0x0000
    422bae5e:	0000                	.insn	2, 0x0000
    422bae60:	1126e0cf          	fnmadd.s	f1,f13,f18,f2,unknown
    422bae64:	0000                	.insn	2, 0x0000
    422bae66:	0000                	.insn	2, 0x0000
    422bae68:	1126e4cf          	fnmadd.s	f9,f13,f18,f2,unknown
    422bae6c:	0000                	.insn	2, 0x0000
    422bae6e:	0000                	.insn	2, 0x0000
    422bae70:	1126e8cf          	fnmadd.s	f17,f13,f18,f2,unknown
    422bae74:	0000                	.insn	2, 0x0000
    422bae76:	0000                	.insn	2, 0x0000
    422bae78:	1126eccf          	fnmadd.s	f25,f13,f18,f2,unknown
    422bae7c:	0000                	.insn	2, 0x0000
    422bae7e:	0000                	.insn	2, 0x0000
    422bae80:	1126f0cf          	fnmadd.s	f1,f13,f18,f2
    422bae84:	0000                	.insn	2, 0x0000
    422bae86:	0000                	.insn	2, 0x0000
    422bae88:	1126f4cf          	fnmadd.s	f9,f13,f18,f2
    422bae8c:	0000                	.insn	2, 0x0000
    422bae8e:	0000                	.insn	2, 0x0000
    422bae90:	1126f8cf          	fnmadd.s	f17,f13,f18,f2
    422bae94:	0000                	.insn	2, 0x0000
    422bae96:	0000                	.insn	2, 0x0000
    422bae98:	1126fccf          	fnmadd.s	f25,f13,f18,f2
    422bae9c:	0000                	.insn	2, 0x0000
    422bae9e:	0000                	.insn	2, 0x0000
    422baea0:	112700cf          	fnmadd.s	f1,f14,f18,f2,rne
    422baea4:	0000                	.insn	2, 0x0000
    422baea6:	0000                	.insn	2, 0x0000
    422baea8:	112704cf          	fnmadd.s	f9,f14,f18,f2,rne
    422baeac:	0000                	.insn	2, 0x0000
    422baeae:	0000                	.insn	2, 0x0000
    422baeb0:	112708cf          	fnmadd.s	f17,f14,f18,f2,rne
    422baeb4:	0000                	.insn	2, 0x0000
    422baeb6:	0000                	.insn	2, 0x0000
    422baeb8:	11270ccf          	fnmadd.s	f25,f14,f18,f2,rne
    422baebc:	0000                	.insn	2, 0x0000
    422baebe:	0000                	.insn	2, 0x0000
    422baec0:	112710cf          	fnmadd.s	f1,f14,f18,f2,rtz
    422baec4:	0000                	.insn	2, 0x0000
    422baec6:	0000                	.insn	2, 0x0000
    422baec8:	112714cf          	fnmadd.s	f9,f14,f18,f2,rtz
    422baecc:	0000                	.insn	2, 0x0000
    422baece:	0000                	.insn	2, 0x0000
    422baed0:	112718cf          	fnmadd.s	f17,f14,f18,f2,rtz
    422baed4:	0000                	.insn	2, 0x0000
    422baed6:	0000                	.insn	2, 0x0000
    422baed8:	11271ccf          	fnmadd.s	f25,f14,f18,f2,rtz
    422baedc:	0000                	.insn	2, 0x0000
    422baede:	0000                	.insn	2, 0x0000
    422baee0:	112720cf          	fnmadd.s	f1,f14,f18,f2,rdn
    422baee4:	0000                	.insn	2, 0x0000
    422baee6:	0000                	.insn	2, 0x0000
    422baee8:	112724cf          	fnmadd.s	f9,f14,f18,f2,rdn
    422baeec:	0000                	.insn	2, 0x0000
    422baeee:	0000                	.insn	2, 0x0000
    422baef0:	112728cf          	fnmadd.s	f17,f14,f18,f2,rdn
    422baef4:	0000                	.insn	2, 0x0000
    422baef6:	0000                	.insn	2, 0x0000
    422baef8:	11272ccf          	fnmadd.s	f25,f14,f18,f2,rdn
    422baefc:	0000                	.insn	2, 0x0000
    422baefe:	0000                	.insn	2, 0x0000
    422baf00:	112730cf          	fnmadd.s	f1,f14,f18,f2,rup
    422baf04:	0000                	.insn	2, 0x0000
    422baf06:	0000                	.insn	2, 0x0000
    422baf08:	112734cf          	fnmadd.s	f9,f14,f18,f2,rup
    422baf0c:	0000                	.insn	2, 0x0000
    422baf0e:	0000                	.insn	2, 0x0000
    422baf10:	112738cf          	fnmadd.s	f17,f14,f18,f2,rup
    422baf14:	0000                	.insn	2, 0x0000
    422baf16:	0000                	.insn	2, 0x0000
    422baf18:	11273ccf          	fnmadd.s	f25,f14,f18,f2,rup
    422baf1c:	0000                	.insn	2, 0x0000
    422baf1e:	0000                	.insn	2, 0x0000
    422baf20:	112740cf          	fnmadd.s	f1,f14,f18,f2,rmm
    422baf24:	0000                	.insn	2, 0x0000
    422baf26:	0000                	.insn	2, 0x0000
    422baf28:	112744cf          	fnmadd.s	f9,f14,f18,f2,rmm
    422baf2c:	0000                	.insn	2, 0x0000
    422baf2e:	0000                	.insn	2, 0x0000
    422baf30:	112748cf          	fnmadd.s	f17,f14,f18,f2,rmm
    422baf34:	0000                	.insn	2, 0x0000
    422baf36:	0000                	.insn	2, 0x0000
    422baf38:	11274ccf          	fnmadd.s	f25,f14,f18,f2,rmm
    422baf3c:	0000                	.insn	2, 0x0000
    422baf3e:	0000                	.insn	2, 0x0000
    422baf40:	112750cf          	fnmadd.s	f1,f14,f18,f2,unknown
    422baf44:	0000                	.insn	2, 0x0000
    422baf46:	0000                	.insn	2, 0x0000
    422baf48:	112754cf          	fnmadd.s	f9,f14,f18,f2,unknown
    422baf4c:	0000                	.insn	2, 0x0000
    422baf4e:	0000                	.insn	2, 0x0000
    422baf50:	112758cf          	fnmadd.s	f17,f14,f18,f2,unknown
    422baf54:	0000                	.insn	2, 0x0000
    422baf56:	0000                	.insn	2, 0x0000
    422baf58:	11275ccf          	fnmadd.s	f25,f14,f18,f2,unknown
    422baf5c:	0000                	.insn	2, 0x0000
    422baf5e:	0000                	.insn	2, 0x0000
    422baf60:	112760cf          	fnmadd.s	f1,f14,f18,f2,unknown
    422baf64:	0000                	.insn	2, 0x0000
    422baf66:	0000                	.insn	2, 0x0000
    422baf68:	112764cf          	fnmadd.s	f9,f14,f18,f2,unknown
    422baf6c:	0000                	.insn	2, 0x0000
    422baf6e:	0000                	.insn	2, 0x0000
    422baf70:	112768cf          	fnmadd.s	f17,f14,f18,f2,unknown
    422baf74:	0000                	.insn	2, 0x0000
    422baf76:	0000                	.insn	2, 0x0000
    422baf78:	11276ccf          	fnmadd.s	f25,f14,f18,f2,unknown
    422baf7c:	0000                	.insn	2, 0x0000
    422baf7e:	0000                	.insn	2, 0x0000
    422baf80:	112770cf          	fnmadd.s	f1,f14,f18,f2
    422baf84:	0000                	.insn	2, 0x0000
    422baf86:	0000                	.insn	2, 0x0000
    422baf88:	112774cf          	fnmadd.s	f9,f14,f18,f2
    422baf8c:	0000                	.insn	2, 0x0000
    422baf8e:	0000                	.insn	2, 0x0000
    422baf90:	112778cf          	fnmadd.s	f17,f14,f18,f2
    422baf94:	0000                	.insn	2, 0x0000
    422baf96:	0000                	.insn	2, 0x0000
    422baf98:	11277ccf          	fnmadd.s	f25,f14,f18,f2
    422baf9c:	0000                	.insn	2, 0x0000
    422baf9e:	0000                	.insn	2, 0x0000
    422bafa0:	112780cf          	fnmadd.s	f1,f15,f18,f2,rne
    422bafa4:	0000                	.insn	2, 0x0000
    422bafa6:	0000                	.insn	2, 0x0000
    422bafa8:	112784cf          	fnmadd.s	f9,f15,f18,f2,rne
    422bafac:	0000                	.insn	2, 0x0000
    422bafae:	0000                	.insn	2, 0x0000
    422bafb0:	112788cf          	fnmadd.s	f17,f15,f18,f2,rne
    422bafb4:	0000                	.insn	2, 0x0000
    422bafb6:	0000                	.insn	2, 0x0000
    422bafb8:	11278ccf          	fnmadd.s	f25,f15,f18,f2,rne
    422bafbc:	0000                	.insn	2, 0x0000
    422bafbe:	0000                	.insn	2, 0x0000
    422bafc0:	112790cf          	fnmadd.s	f1,f15,f18,f2,rtz
    422bafc4:	0000                	.insn	2, 0x0000
    422bafc6:	0000                	.insn	2, 0x0000
    422bafc8:	112794cf          	fnmadd.s	f9,f15,f18,f2,rtz
    422bafcc:	0000                	.insn	2, 0x0000
    422bafce:	0000                	.insn	2, 0x0000
    422bafd0:	112798cf          	fnmadd.s	f17,f15,f18,f2,rtz
    422bafd4:	0000                	.insn	2, 0x0000
    422bafd6:	0000                	.insn	2, 0x0000
    422bafd8:	11279ccf          	fnmadd.s	f25,f15,f18,f2,rtz
    422bafdc:	0000                	.insn	2, 0x0000
    422bafde:	0000                	.insn	2, 0x0000
    422bafe0:	1127a0cf          	fnmadd.s	f1,f15,f18,f2,rdn
    422bafe4:	0000                	.insn	2, 0x0000
    422bafe6:	0000                	.insn	2, 0x0000
    422bafe8:	1127a4cf          	fnmadd.s	f9,f15,f18,f2,rdn
    422bafec:	0000                	.insn	2, 0x0000
    422bafee:	0000                	.insn	2, 0x0000
    422baff0:	1127a8cf          	fnmadd.s	f17,f15,f18,f2,rdn
    422baff4:	0000                	.insn	2, 0x0000
    422baff6:	0000                	.insn	2, 0x0000
    422baff8:	1127accf          	fnmadd.s	f25,f15,f18,f2,rdn
    422baffc:	0000                	.insn	2, 0x0000
	...

Disassembly of section .__pagetable_map_os_0x0000000044d04000:

0000000044d04000 <__pagetable_map_os_0x0000000044d04000>:
    44d04000:	1127b0cf          	fnmadd.s	f1,f15,f18,f2,rup
    44d04004:	0000                	.insn	2, 0x0000
    44d04006:	0000                	.insn	2, 0x0000
    44d04008:	1127b4cf          	fnmadd.s	f9,f15,f18,f2,rup
    44d0400c:	0000                	.insn	2, 0x0000
    44d0400e:	0000                	.insn	2, 0x0000
    44d04010:	1127b8cf          	fnmadd.s	f17,f15,f18,f2,rup
    44d04014:	0000                	.insn	2, 0x0000
    44d04016:	0000                	.insn	2, 0x0000
    44d04018:	1127bccf          	fnmadd.s	f25,f15,f18,f2,rup
    44d0401c:	0000                	.insn	2, 0x0000
    44d0401e:	0000                	.insn	2, 0x0000
    44d04020:	1127c0cf          	fnmadd.s	f1,f15,f18,f2,rmm
    44d04024:	0000                	.insn	2, 0x0000
    44d04026:	0000                	.insn	2, 0x0000
    44d04028:	1127c4cf          	fnmadd.s	f9,f15,f18,f2,rmm
    44d0402c:	0000                	.insn	2, 0x0000
    44d0402e:	0000                	.insn	2, 0x0000
    44d04030:	1127c8cf          	fnmadd.s	f17,f15,f18,f2,rmm
    44d04034:	0000                	.insn	2, 0x0000
    44d04036:	0000                	.insn	2, 0x0000
    44d04038:	1127cccf          	fnmadd.s	f25,f15,f18,f2,rmm
    44d0403c:	0000                	.insn	2, 0x0000
    44d0403e:	0000                	.insn	2, 0x0000
    44d04040:	1127d0cf          	fnmadd.s	f1,f15,f18,f2,unknown
    44d04044:	0000                	.insn	2, 0x0000
    44d04046:	0000                	.insn	2, 0x0000
    44d04048:	1127d4cf          	fnmadd.s	f9,f15,f18,f2,unknown
    44d0404c:	0000                	.insn	2, 0x0000
    44d0404e:	0000                	.insn	2, 0x0000
    44d04050:	1127d8cf          	fnmadd.s	f17,f15,f18,f2,unknown
    44d04054:	0000                	.insn	2, 0x0000
    44d04056:	0000                	.insn	2, 0x0000
    44d04058:	1127dccf          	fnmadd.s	f25,f15,f18,f2,unknown
    44d0405c:	0000                	.insn	2, 0x0000
    44d0405e:	0000                	.insn	2, 0x0000
    44d04060:	1127e0cf          	fnmadd.s	f1,f15,f18,f2,unknown
    44d04064:	0000                	.insn	2, 0x0000
    44d04066:	0000                	.insn	2, 0x0000
    44d04068:	1127e4cf          	fnmadd.s	f9,f15,f18,f2,unknown
    44d0406c:	0000                	.insn	2, 0x0000
    44d0406e:	0000                	.insn	2, 0x0000
    44d04070:	1127e8cf          	fnmadd.s	f17,f15,f18,f2,unknown
    44d04074:	0000                	.insn	2, 0x0000
    44d04076:	0000                	.insn	2, 0x0000
    44d04078:	1127eccf          	fnmadd.s	f25,f15,f18,f2,unknown
    44d0407c:	0000                	.insn	2, 0x0000
    44d0407e:	0000                	.insn	2, 0x0000
    44d04080:	1127f0cf          	fnmadd.s	f1,f15,f18,f2
    44d04084:	0000                	.insn	2, 0x0000
    44d04086:	0000                	.insn	2, 0x0000
    44d04088:	1127f4cf          	fnmadd.s	f9,f15,f18,f2
    44d0408c:	0000                	.insn	2, 0x0000
    44d0408e:	0000                	.insn	2, 0x0000
    44d04090:	1127f8cf          	fnmadd.s	f17,f15,f18,f2
    44d04094:	0000                	.insn	2, 0x0000
    44d04096:	0000                	.insn	2, 0x0000
    44d04098:	1127fccf          	fnmadd.s	f25,f15,f18,f2
    44d0409c:	0000                	.insn	2, 0x0000
    44d0409e:	0000                	.insn	2, 0x0000
    44d040a0:	112800cf          	fnmadd.s	f1,f16,f18,f2,rne
    44d040a4:	0000                	.insn	2, 0x0000
    44d040a6:	0000                	.insn	2, 0x0000
    44d040a8:	112804cf          	fnmadd.s	f9,f16,f18,f2,rne
    44d040ac:	0000                	.insn	2, 0x0000
    44d040ae:	0000                	.insn	2, 0x0000
    44d040b0:	112808cf          	fnmadd.s	f17,f16,f18,f2,rne
    44d040b4:	0000                	.insn	2, 0x0000
    44d040b6:	0000                	.insn	2, 0x0000
    44d040b8:	11280ccf          	fnmadd.s	f25,f16,f18,f2,rne
    44d040bc:	0000                	.insn	2, 0x0000
    44d040be:	0000                	.insn	2, 0x0000
    44d040c0:	112810cf          	fnmadd.s	f1,f16,f18,f2,rtz
    44d040c4:	0000                	.insn	2, 0x0000
    44d040c6:	0000                	.insn	2, 0x0000
    44d040c8:	112814cf          	fnmadd.s	f9,f16,f18,f2,rtz
    44d040cc:	0000                	.insn	2, 0x0000
    44d040ce:	0000                	.insn	2, 0x0000
    44d040d0:	112818cf          	fnmadd.s	f17,f16,f18,f2,rtz
    44d040d4:	0000                	.insn	2, 0x0000
    44d040d6:	0000                	.insn	2, 0x0000
    44d040d8:	11281ccf          	fnmadd.s	f25,f16,f18,f2,rtz
    44d040dc:	0000                	.insn	2, 0x0000
    44d040de:	0000                	.insn	2, 0x0000
    44d040e0:	112820cf          	fnmadd.s	f1,f16,f18,f2,rdn
    44d040e4:	0000                	.insn	2, 0x0000
    44d040e6:	0000                	.insn	2, 0x0000
    44d040e8:	112824cf          	fnmadd.s	f9,f16,f18,f2,rdn
    44d040ec:	0000                	.insn	2, 0x0000
    44d040ee:	0000                	.insn	2, 0x0000
    44d040f0:	112828cf          	fnmadd.s	f17,f16,f18,f2,rdn
    44d040f4:	0000                	.insn	2, 0x0000
    44d040f6:	0000                	.insn	2, 0x0000
    44d040f8:	11282ccf          	fnmadd.s	f25,f16,f18,f2,rdn
    44d040fc:	0000                	.insn	2, 0x0000
    44d040fe:	0000                	.insn	2, 0x0000
    44d04100:	112830cf          	fnmadd.s	f1,f16,f18,f2,rup
    44d04104:	0000                	.insn	2, 0x0000
    44d04106:	0000                	.insn	2, 0x0000
    44d04108:	112834cf          	fnmadd.s	f9,f16,f18,f2,rup
    44d0410c:	0000                	.insn	2, 0x0000
    44d0410e:	0000                	.insn	2, 0x0000
    44d04110:	112838cf          	fnmadd.s	f17,f16,f18,f2,rup
    44d04114:	0000                	.insn	2, 0x0000
    44d04116:	0000                	.insn	2, 0x0000
    44d04118:	11283ccf          	fnmadd.s	f25,f16,f18,f2,rup
    44d0411c:	0000                	.insn	2, 0x0000
    44d0411e:	0000                	.insn	2, 0x0000
    44d04120:	112840cf          	fnmadd.s	f1,f16,f18,f2,rmm
    44d04124:	0000                	.insn	2, 0x0000
    44d04126:	0000                	.insn	2, 0x0000
    44d04128:	112844cf          	fnmadd.s	f9,f16,f18,f2,rmm
    44d0412c:	0000                	.insn	2, 0x0000
    44d0412e:	0000                	.insn	2, 0x0000
    44d04130:	112848cf          	fnmadd.s	f17,f16,f18,f2,rmm
    44d04134:	0000                	.insn	2, 0x0000
    44d04136:	0000                	.insn	2, 0x0000
    44d04138:	11284ccf          	fnmadd.s	f25,f16,f18,f2,rmm
    44d0413c:	0000                	.insn	2, 0x0000
    44d0413e:	0000                	.insn	2, 0x0000
    44d04140:	112850cf          	fnmadd.s	f1,f16,f18,f2,unknown
    44d04144:	0000                	.insn	2, 0x0000
    44d04146:	0000                	.insn	2, 0x0000
    44d04148:	112854cf          	fnmadd.s	f9,f16,f18,f2,unknown
    44d0414c:	0000                	.insn	2, 0x0000
    44d0414e:	0000                	.insn	2, 0x0000
    44d04150:	112858cf          	fnmadd.s	f17,f16,f18,f2,unknown
    44d04154:	0000                	.insn	2, 0x0000
    44d04156:	0000                	.insn	2, 0x0000
    44d04158:	11285ccf          	fnmadd.s	f25,f16,f18,f2,unknown
    44d0415c:	0000                	.insn	2, 0x0000
    44d0415e:	0000                	.insn	2, 0x0000
    44d04160:	112860cf          	fnmadd.s	f1,f16,f18,f2,unknown
    44d04164:	0000                	.insn	2, 0x0000
    44d04166:	0000                	.insn	2, 0x0000
    44d04168:	112864cf          	fnmadd.s	f9,f16,f18,f2,unknown
    44d0416c:	0000                	.insn	2, 0x0000
    44d0416e:	0000                	.insn	2, 0x0000
    44d04170:	112868cf          	fnmadd.s	f17,f16,f18,f2,unknown
    44d04174:	0000                	.insn	2, 0x0000
    44d04176:	0000                	.insn	2, 0x0000
    44d04178:	11286ccf          	fnmadd.s	f25,f16,f18,f2,unknown
    44d0417c:	0000                	.insn	2, 0x0000
    44d0417e:	0000                	.insn	2, 0x0000
    44d04180:	112870cf          	fnmadd.s	f1,f16,f18,f2
    44d04184:	0000                	.insn	2, 0x0000
    44d04186:	0000                	.insn	2, 0x0000
    44d04188:	112874cf          	fnmadd.s	f9,f16,f18,f2
    44d0418c:	0000                	.insn	2, 0x0000
    44d0418e:	0000                	.insn	2, 0x0000
    44d04190:	112878cf          	fnmadd.s	f17,f16,f18,f2
    44d04194:	0000                	.insn	2, 0x0000
    44d04196:	0000                	.insn	2, 0x0000
    44d04198:	11287ccf          	fnmadd.s	f25,f16,f18,f2
    44d0419c:	0000                	.insn	2, 0x0000
    44d0419e:	0000                	.insn	2, 0x0000
    44d041a0:	112880cf          	fnmadd.s	f1,f17,f18,f2,rne
    44d041a4:	0000                	.insn	2, 0x0000
    44d041a6:	0000                	.insn	2, 0x0000
    44d041a8:	112884cf          	fnmadd.s	f9,f17,f18,f2,rne
    44d041ac:	0000                	.insn	2, 0x0000
    44d041ae:	0000                	.insn	2, 0x0000
    44d041b0:	112888cf          	fnmadd.s	f17,f17,f18,f2,rne
    44d041b4:	0000                	.insn	2, 0x0000
    44d041b6:	0000                	.insn	2, 0x0000
    44d041b8:	11288ccf          	fnmadd.s	f25,f17,f18,f2,rne
    44d041bc:	0000                	.insn	2, 0x0000
    44d041be:	0000                	.insn	2, 0x0000
    44d041c0:	112890cf          	fnmadd.s	f1,f17,f18,f2,rtz
    44d041c4:	0000                	.insn	2, 0x0000
    44d041c6:	0000                	.insn	2, 0x0000
    44d041c8:	112894cf          	fnmadd.s	f9,f17,f18,f2,rtz
    44d041cc:	0000                	.insn	2, 0x0000
    44d041ce:	0000                	.insn	2, 0x0000
    44d041d0:	112898cf          	fnmadd.s	f17,f17,f18,f2,rtz
    44d041d4:	0000                	.insn	2, 0x0000
    44d041d6:	0000                	.insn	2, 0x0000
    44d041d8:	11289ccf          	fnmadd.s	f25,f17,f18,f2,rtz
    44d041dc:	0000                	.insn	2, 0x0000
    44d041de:	0000                	.insn	2, 0x0000
    44d041e0:	1128a0cf          	fnmadd.s	f1,f17,f18,f2,rdn
    44d041e4:	0000                	.insn	2, 0x0000
    44d041e6:	0000                	.insn	2, 0x0000
    44d041e8:	1128a4cf          	fnmadd.s	f9,f17,f18,f2,rdn
    44d041ec:	0000                	.insn	2, 0x0000
    44d041ee:	0000                	.insn	2, 0x0000
    44d041f0:	1128a8cf          	fnmadd.s	f17,f17,f18,f2,rdn
    44d041f4:	0000                	.insn	2, 0x0000
    44d041f6:	0000                	.insn	2, 0x0000
    44d041f8:	1128accf          	fnmadd.s	f25,f17,f18,f2,rdn
    44d041fc:	0000                	.insn	2, 0x0000
    44d041fe:	0000                	.insn	2, 0x0000
    44d04200:	1128b0cf          	fnmadd.s	f1,f17,f18,f2,rup
    44d04204:	0000                	.insn	2, 0x0000
    44d04206:	0000                	.insn	2, 0x0000
    44d04208:	1128b4cf          	fnmadd.s	f9,f17,f18,f2,rup
    44d0420c:	0000                	.insn	2, 0x0000
    44d0420e:	0000                	.insn	2, 0x0000
    44d04210:	1128b8cf          	fnmadd.s	f17,f17,f18,f2,rup
    44d04214:	0000                	.insn	2, 0x0000
    44d04216:	0000                	.insn	2, 0x0000
    44d04218:	1128bccf          	fnmadd.s	f25,f17,f18,f2,rup
    44d0421c:	0000                	.insn	2, 0x0000
    44d0421e:	0000                	.insn	2, 0x0000
    44d04220:	1128c0cf          	fnmadd.s	f1,f17,f18,f2,rmm
    44d04224:	0000                	.insn	2, 0x0000
    44d04226:	0000                	.insn	2, 0x0000
    44d04228:	1128c4cf          	fnmadd.s	f9,f17,f18,f2,rmm
    44d0422c:	0000                	.insn	2, 0x0000
    44d0422e:	0000                	.insn	2, 0x0000
    44d04230:	1128c8cf          	fnmadd.s	f17,f17,f18,f2,rmm
    44d04234:	0000                	.insn	2, 0x0000
    44d04236:	0000                	.insn	2, 0x0000
    44d04238:	1128cccf          	fnmadd.s	f25,f17,f18,f2,rmm
    44d0423c:	0000                	.insn	2, 0x0000
    44d0423e:	0000                	.insn	2, 0x0000
    44d04240:	1128d0cf          	fnmadd.s	f1,f17,f18,f2,unknown
    44d04244:	0000                	.insn	2, 0x0000
    44d04246:	0000                	.insn	2, 0x0000
    44d04248:	1128d4cf          	fnmadd.s	f9,f17,f18,f2,unknown
    44d0424c:	0000                	.insn	2, 0x0000
    44d0424e:	0000                	.insn	2, 0x0000
    44d04250:	1128d8cf          	fnmadd.s	f17,f17,f18,f2,unknown
    44d04254:	0000                	.insn	2, 0x0000
    44d04256:	0000                	.insn	2, 0x0000
    44d04258:	1128dccf          	fnmadd.s	f25,f17,f18,f2,unknown
    44d0425c:	0000                	.insn	2, 0x0000
    44d0425e:	0000                	.insn	2, 0x0000
    44d04260:	1128e0cf          	fnmadd.s	f1,f17,f18,f2,unknown
    44d04264:	0000                	.insn	2, 0x0000
    44d04266:	0000                	.insn	2, 0x0000
    44d04268:	1128e4cf          	fnmadd.s	f9,f17,f18,f2,unknown
    44d0426c:	0000                	.insn	2, 0x0000
    44d0426e:	0000                	.insn	2, 0x0000
    44d04270:	1128e8cf          	fnmadd.s	f17,f17,f18,f2,unknown
    44d04274:	0000                	.insn	2, 0x0000
    44d04276:	0000                	.insn	2, 0x0000
    44d04278:	1128eccf          	fnmadd.s	f25,f17,f18,f2,unknown
    44d0427c:	0000                	.insn	2, 0x0000
    44d0427e:	0000                	.insn	2, 0x0000
    44d04280:	1128f0cf          	fnmadd.s	f1,f17,f18,f2
    44d04284:	0000                	.insn	2, 0x0000
    44d04286:	0000                	.insn	2, 0x0000
    44d04288:	1128f4cf          	fnmadd.s	f9,f17,f18,f2
    44d0428c:	0000                	.insn	2, 0x0000
    44d0428e:	0000                	.insn	2, 0x0000
    44d04290:	1128f8cf          	fnmadd.s	f17,f17,f18,f2
    44d04294:	0000                	.insn	2, 0x0000
    44d04296:	0000                	.insn	2, 0x0000
    44d04298:	1128fccf          	fnmadd.s	f25,f17,f18,f2
    44d0429c:	0000                	.insn	2, 0x0000
    44d0429e:	0000                	.insn	2, 0x0000
    44d042a0:	112900cf          	fnmadd.s	f1,f18,f18,f2,rne
    44d042a4:	0000                	.insn	2, 0x0000
    44d042a6:	0000                	.insn	2, 0x0000
    44d042a8:	112904cf          	fnmadd.s	f9,f18,f18,f2,rne
    44d042ac:	0000                	.insn	2, 0x0000
    44d042ae:	0000                	.insn	2, 0x0000
    44d042b0:	112908cf          	fnmadd.s	f17,f18,f18,f2,rne
    44d042b4:	0000                	.insn	2, 0x0000
    44d042b6:	0000                	.insn	2, 0x0000
    44d042b8:	11290ccf          	fnmadd.s	f25,f18,f18,f2,rne
    44d042bc:	0000                	.insn	2, 0x0000
    44d042be:	0000                	.insn	2, 0x0000
    44d042c0:	112910cf          	fnmadd.s	f1,f18,f18,f2,rtz
    44d042c4:	0000                	.insn	2, 0x0000
    44d042c6:	0000                	.insn	2, 0x0000
    44d042c8:	112914cf          	fnmadd.s	f9,f18,f18,f2,rtz
    44d042cc:	0000                	.insn	2, 0x0000
    44d042ce:	0000                	.insn	2, 0x0000
    44d042d0:	112918cf          	fnmadd.s	f17,f18,f18,f2,rtz
    44d042d4:	0000                	.insn	2, 0x0000
    44d042d6:	0000                	.insn	2, 0x0000
    44d042d8:	11291ccf          	fnmadd.s	f25,f18,f18,f2,rtz
    44d042dc:	0000                	.insn	2, 0x0000
    44d042de:	0000                	.insn	2, 0x0000
    44d042e0:	112920cf          	fnmadd.s	f1,f18,f18,f2,rdn
    44d042e4:	0000                	.insn	2, 0x0000
    44d042e6:	0000                	.insn	2, 0x0000
    44d042e8:	112924cf          	fnmadd.s	f9,f18,f18,f2,rdn
    44d042ec:	0000                	.insn	2, 0x0000
    44d042ee:	0000                	.insn	2, 0x0000
    44d042f0:	112928cf          	fnmadd.s	f17,f18,f18,f2,rdn
    44d042f4:	0000                	.insn	2, 0x0000
    44d042f6:	0000                	.insn	2, 0x0000
    44d042f8:	11292ccf          	fnmadd.s	f25,f18,f18,f2,rdn
    44d042fc:	0000                	.insn	2, 0x0000
    44d042fe:	0000                	.insn	2, 0x0000
    44d04300:	112930cf          	fnmadd.s	f1,f18,f18,f2,rup
    44d04304:	0000                	.insn	2, 0x0000
    44d04306:	0000                	.insn	2, 0x0000
    44d04308:	112934cf          	fnmadd.s	f9,f18,f18,f2,rup
    44d0430c:	0000                	.insn	2, 0x0000
    44d0430e:	0000                	.insn	2, 0x0000
    44d04310:	112938cf          	fnmadd.s	f17,f18,f18,f2,rup
    44d04314:	0000                	.insn	2, 0x0000
    44d04316:	0000                	.insn	2, 0x0000
    44d04318:	11293ccf          	fnmadd.s	f25,f18,f18,f2,rup
    44d0431c:	0000                	.insn	2, 0x0000
    44d0431e:	0000                	.insn	2, 0x0000
    44d04320:	112940cf          	fnmadd.s	f1,f18,f18,f2,rmm
    44d04324:	0000                	.insn	2, 0x0000
    44d04326:	0000                	.insn	2, 0x0000
    44d04328:	112944cf          	fnmadd.s	f9,f18,f18,f2,rmm
    44d0432c:	0000                	.insn	2, 0x0000
    44d0432e:	0000                	.insn	2, 0x0000
    44d04330:	112948cf          	fnmadd.s	f17,f18,f18,f2,rmm
    44d04334:	0000                	.insn	2, 0x0000
    44d04336:	0000                	.insn	2, 0x0000
    44d04338:	11294ccf          	fnmadd.s	f25,f18,f18,f2,rmm
    44d0433c:	0000                	.insn	2, 0x0000
    44d0433e:	0000                	.insn	2, 0x0000
    44d04340:	112950cf          	fnmadd.s	f1,f18,f18,f2,unknown
    44d04344:	0000                	.insn	2, 0x0000
    44d04346:	0000                	.insn	2, 0x0000
    44d04348:	112954cf          	fnmadd.s	f9,f18,f18,f2,unknown
    44d0434c:	0000                	.insn	2, 0x0000
    44d0434e:	0000                	.insn	2, 0x0000
    44d04350:	112958cf          	fnmadd.s	f17,f18,f18,f2,unknown
    44d04354:	0000                	.insn	2, 0x0000
    44d04356:	0000                	.insn	2, 0x0000
    44d04358:	11295ccf          	fnmadd.s	f25,f18,f18,f2,unknown
    44d0435c:	0000                	.insn	2, 0x0000
    44d0435e:	0000                	.insn	2, 0x0000
    44d04360:	112960cf          	fnmadd.s	f1,f18,f18,f2,unknown
    44d04364:	0000                	.insn	2, 0x0000
    44d04366:	0000                	.insn	2, 0x0000
    44d04368:	112964cf          	fnmadd.s	f9,f18,f18,f2,unknown
    44d0436c:	0000                	.insn	2, 0x0000
    44d0436e:	0000                	.insn	2, 0x0000
    44d04370:	112968cf          	fnmadd.s	f17,f18,f18,f2,unknown
    44d04374:	0000                	.insn	2, 0x0000
    44d04376:	0000                	.insn	2, 0x0000
    44d04378:	11296ccf          	fnmadd.s	f25,f18,f18,f2,unknown
    44d0437c:	0000                	.insn	2, 0x0000
    44d0437e:	0000                	.insn	2, 0x0000
    44d04380:	112970cf          	fnmadd.s	f1,f18,f18,f2
    44d04384:	0000                	.insn	2, 0x0000
    44d04386:	0000                	.insn	2, 0x0000
    44d04388:	112974cf          	fnmadd.s	f9,f18,f18,f2
    44d0438c:	0000                	.insn	2, 0x0000
    44d0438e:	0000                	.insn	2, 0x0000
    44d04390:	112978cf          	fnmadd.s	f17,f18,f18,f2
    44d04394:	0000                	.insn	2, 0x0000
    44d04396:	0000                	.insn	2, 0x0000
    44d04398:	11297ccf          	fnmadd.s	f25,f18,f18,f2
    44d0439c:	0000                	.insn	2, 0x0000
    44d0439e:	0000                	.insn	2, 0x0000
    44d043a0:	112980cf          	fnmadd.s	f1,f19,f18,f2,rne
    44d043a4:	0000                	.insn	2, 0x0000
    44d043a6:	0000                	.insn	2, 0x0000
    44d043a8:	112984cf          	fnmadd.s	f9,f19,f18,f2,rne
    44d043ac:	0000                	.insn	2, 0x0000
    44d043ae:	0000                	.insn	2, 0x0000
    44d043b0:	112988cf          	fnmadd.s	f17,f19,f18,f2,rne
    44d043b4:	0000                	.insn	2, 0x0000
    44d043b6:	0000                	.insn	2, 0x0000
    44d043b8:	11298ccf          	fnmadd.s	f25,f19,f18,f2,rne
    44d043bc:	0000                	.insn	2, 0x0000
    44d043be:	0000                	.insn	2, 0x0000
    44d043c0:	112990cf          	fnmadd.s	f1,f19,f18,f2,rtz
    44d043c4:	0000                	.insn	2, 0x0000
    44d043c6:	0000                	.insn	2, 0x0000
    44d043c8:	112994cf          	fnmadd.s	f9,f19,f18,f2,rtz
    44d043cc:	0000                	.insn	2, 0x0000
    44d043ce:	0000                	.insn	2, 0x0000
    44d043d0:	112998cf          	fnmadd.s	f17,f19,f18,f2,rtz
    44d043d4:	0000                	.insn	2, 0x0000
    44d043d6:	0000                	.insn	2, 0x0000
    44d043d8:	11299ccf          	fnmadd.s	f25,f19,f18,f2,rtz
    44d043dc:	0000                	.insn	2, 0x0000
    44d043de:	0000                	.insn	2, 0x0000
    44d043e0:	1129a0cf          	fnmadd.s	f1,f19,f18,f2,rdn
    44d043e4:	0000                	.insn	2, 0x0000
    44d043e6:	0000                	.insn	2, 0x0000
    44d043e8:	1129a4cf          	fnmadd.s	f9,f19,f18,f2,rdn
    44d043ec:	0000                	.insn	2, 0x0000
    44d043ee:	0000                	.insn	2, 0x0000
    44d043f0:	1129a8cf          	fnmadd.s	f17,f19,f18,f2,rdn
    44d043f4:	0000                	.insn	2, 0x0000
    44d043f6:	0000                	.insn	2, 0x0000
    44d043f8:	1129accf          	fnmadd.s	f25,f19,f18,f2,rdn
    44d043fc:	0000                	.insn	2, 0x0000
    44d043fe:	0000                	.insn	2, 0x0000
    44d04400:	1129b0cf          	fnmadd.s	f1,f19,f18,f2,rup
    44d04404:	0000                	.insn	2, 0x0000
    44d04406:	0000                	.insn	2, 0x0000
    44d04408:	1129b4cf          	fnmadd.s	f9,f19,f18,f2,rup
    44d0440c:	0000                	.insn	2, 0x0000
    44d0440e:	0000                	.insn	2, 0x0000
    44d04410:	1129b8cf          	fnmadd.s	f17,f19,f18,f2,rup
    44d04414:	0000                	.insn	2, 0x0000
    44d04416:	0000                	.insn	2, 0x0000
    44d04418:	1129bccf          	fnmadd.s	f25,f19,f18,f2,rup
    44d0441c:	0000                	.insn	2, 0x0000
    44d0441e:	0000                	.insn	2, 0x0000
    44d04420:	1129c0cf          	fnmadd.s	f1,f19,f18,f2,rmm
    44d04424:	0000                	.insn	2, 0x0000
    44d04426:	0000                	.insn	2, 0x0000
    44d04428:	1129c4cf          	fnmadd.s	f9,f19,f18,f2,rmm
    44d0442c:	0000                	.insn	2, 0x0000
    44d0442e:	0000                	.insn	2, 0x0000
    44d04430:	1129c8cf          	fnmadd.s	f17,f19,f18,f2,rmm
    44d04434:	0000                	.insn	2, 0x0000
    44d04436:	0000                	.insn	2, 0x0000
    44d04438:	1129cccf          	fnmadd.s	f25,f19,f18,f2,rmm
    44d0443c:	0000                	.insn	2, 0x0000
    44d0443e:	0000                	.insn	2, 0x0000
    44d04440:	d0df 1129 0000      	.insn	6, 0x1129d0df
    44d04446:	0000                	.insn	2, 0x0000
    44d04448:	d4df 1129 0000      	.insn	6, 0x1129d4df
    44d0444e:	0000                	.insn	2, 0x0000
    44d04450:	d8df 1129 0000      	.insn	6, 0x1129d8df
    44d04456:	0000                	.insn	2, 0x0000
    44d04458:	dcdf 1129 0000      	.insn	6, 0x1129dcdf
    44d0445e:	0000                	.insn	2, 0x0000
    44d04460:	e0df 1129 0000      	.insn	6, 0x1129e0df
    44d04466:	0000                	.insn	2, 0x0000
    44d04468:	e4df 1129 0000      	.insn	6, 0x1129e4df
    44d0446e:	0000                	.insn	2, 0x0000
    44d04470:	e8df 1129 0000      	.insn	6, 0x1129e8df
    44d04476:	0000                	.insn	2, 0x0000
    44d04478:	ecdf 1129 0000      	.insn	6, 0x1129ecdf
    44d0447e:	0000                	.insn	2, 0x0000
    44d04480:	f0df 1129 0000      	.insn	6, 0x1129f0df
    44d04486:	0000                	.insn	2, 0x0000
    44d04488:	f4df 1129 0000      	.insn	6, 0x1129f4df
    44d0448e:	0000                	.insn	2, 0x0000
    44d04490:	f8df 1129 0000      	.insn	6, 0x1129f8df
    44d04496:	0000                	.insn	2, 0x0000
    44d04498:	fcdf 1129 0000      	.insn	6, 0x1129fcdf
    44d0449e:	0000                	.insn	2, 0x0000
    44d044a0:	00df 112a 0000      	.insn	6, 0x112a00df
    44d044a6:	0000                	.insn	2, 0x0000
    44d044a8:	04df 112a 0000      	.insn	6, 0x112a04df
    44d044ae:	0000                	.insn	2, 0x0000
    44d044b0:	08df 112a 0000      	.insn	6, 0x112a08df
    44d044b6:	0000                	.insn	2, 0x0000
    44d044b8:	0cdf 112a 0000      	.insn	6, 0x112a0cdf
    44d044be:	0000                	.insn	2, 0x0000
    44d044c0:	10df 112a 0000      	.insn	6, 0x112a10df
    44d044c6:	0000                	.insn	2, 0x0000
    44d044c8:	14df 112a 0000      	.insn	6, 0x112a14df
    44d044ce:	0000                	.insn	2, 0x0000
    44d044d0:	18df 112a 0000      	.insn	6, 0x112a18df
    44d044d6:	0000                	.insn	2, 0x0000
    44d044d8:	1cdf 112a 0000      	.insn	6, 0x112a1cdf
    44d044de:	0000                	.insn	2, 0x0000
    44d044e0:	20df 112a 0000      	.insn	6, 0x112a20df
    44d044e6:	0000                	.insn	2, 0x0000
    44d044e8:	24df 112a 0000      	.insn	6, 0x112a24df
    44d044ee:	0000                	.insn	2, 0x0000
    44d044f0:	28df 112a 0000      	.insn	6, 0x112a28df
    44d044f6:	0000                	.insn	2, 0x0000
    44d044f8:	2cdf 112a 0000      	.insn	6, 0x112a2cdf
    44d044fe:	0000                	.insn	2, 0x0000
    44d04500:	30df 112a 0000      	.insn	6, 0x112a30df
    44d04506:	0000                	.insn	2, 0x0000
    44d04508:	34df 112a 0000      	.insn	6, 0x112a34df
    44d0450e:	0000                	.insn	2, 0x0000
    44d04510:	38df 112a 0000      	.insn	6, 0x112a38df
    44d04516:	0000                	.insn	2, 0x0000
    44d04518:	3cdf 112a 0000      	.insn	6, 0x112a3cdf
    44d0451e:	0000                	.insn	2, 0x0000
    44d04520:	40df 112a 0000      	.insn	6, 0x112a40df
    44d04526:	0000                	.insn	2, 0x0000
    44d04528:	44df 112a 0000      	.insn	6, 0x112a44df
    44d0452e:	0000                	.insn	2, 0x0000
    44d04530:	48df 112a 0000      	.insn	6, 0x112a48df
    44d04536:	0000                	.insn	2, 0x0000
    44d04538:	4cdf 112a 0000      	.insn	6, 0x112a4cdf
    44d0453e:	0000                	.insn	2, 0x0000
    44d04540:	50df 112a 0000      	.insn	6, 0x112a50df
    44d04546:	0000                	.insn	2, 0x0000
    44d04548:	54df 112a 0000      	.insn	6, 0x112a54df
    44d0454e:	0000                	.insn	2, 0x0000
    44d04550:	58df 112a 0000      	.insn	6, 0x112a58df
    44d04556:	0000                	.insn	2, 0x0000
    44d04558:	5cdf 112a 0000      	.insn	6, 0x112a5cdf
    44d0455e:	0000                	.insn	2, 0x0000
    44d04560:	60df 112a 0000      	.insn	6, 0x112a60df
    44d04566:	0000                	.insn	2, 0x0000
    44d04568:	64df 112a 0000      	.insn	6, 0x112a64df
    44d0456e:	0000                	.insn	2, 0x0000
    44d04570:	68df 112a 0000      	.insn	6, 0x112a68df
    44d04576:	0000                	.insn	2, 0x0000
    44d04578:	6cdf 112a 0000      	.insn	6, 0x112a6cdf
    44d0457e:	0000                	.insn	2, 0x0000
    44d04580:	70df 112a 0000      	.insn	6, 0x112a70df
    44d04586:	0000                	.insn	2, 0x0000
    44d04588:	74df 112a 0000      	.insn	6, 0x112a74df
    44d0458e:	0000                	.insn	2, 0x0000
    44d04590:	78df 112a 0000      	.insn	6, 0x112a78df
    44d04596:	0000                	.insn	2, 0x0000
    44d04598:	7cdf 112a 0000      	.insn	6, 0x112a7cdf
    44d0459e:	0000                	.insn	2, 0x0000
    44d045a0:	80df 112a 0000      	.insn	6, 0x112a80df
    44d045a6:	0000                	.insn	2, 0x0000
    44d045a8:	84df 112a 0000      	.insn	6, 0x112a84df
    44d045ae:	0000                	.insn	2, 0x0000
    44d045b0:	88df 112a 0000      	.insn	6, 0x112a88df
    44d045b6:	0000                	.insn	2, 0x0000
    44d045b8:	8cdf 112a 0000      	.insn	6, 0x112a8cdf
    44d045be:	0000                	.insn	2, 0x0000
    44d045c0:	90df 112a 0000      	.insn	6, 0x112a90df
    44d045c6:	0000                	.insn	2, 0x0000
    44d045c8:	94df 112a 0000      	.insn	6, 0x112a94df
    44d045ce:	0000                	.insn	2, 0x0000
    44d045d0:	98df 112a 0000      	.insn	6, 0x112a98df
    44d045d6:	0000                	.insn	2, 0x0000
    44d045d8:	9cdf 112a 0000      	.insn	6, 0x112a9cdf
    44d045de:	0000                	.insn	2, 0x0000
    44d045e0:	a0df 112a 0000      	.insn	6, 0x112aa0df
    44d045e6:	0000                	.insn	2, 0x0000
    44d045e8:	a4df 112a 0000      	.insn	6, 0x112aa4df
    44d045ee:	0000                	.insn	2, 0x0000
    44d045f0:	a8df 112a 0000      	.insn	6, 0x112aa8df
    44d045f6:	0000                	.insn	2, 0x0000
    44d045f8:	acdf 112a 0000      	.insn	6, 0x112aacdf
    44d045fe:	0000                	.insn	2, 0x0000
    44d04600:	b0df 112a 0000      	.insn	6, 0x112ab0df
    44d04606:	0000                	.insn	2, 0x0000
    44d04608:	b4df 112a 0000      	.insn	6, 0x112ab4df
    44d0460e:	0000                	.insn	2, 0x0000
    44d04610:	b8df 112a 0000      	.insn	6, 0x112ab8df
    44d04616:	0000                	.insn	2, 0x0000
    44d04618:	bcdf 112a 0000      	.insn	6, 0x112abcdf
    44d0461e:	0000                	.insn	2, 0x0000
    44d04620:	c0df 112a 0000      	.insn	6, 0x112ac0df
    44d04626:	0000                	.insn	2, 0x0000
    44d04628:	c4df 112a 0000      	.insn	6, 0x112ac4df
    44d0462e:	0000                	.insn	2, 0x0000
    44d04630:	c8df 112a 0000      	.insn	6, 0x112ac8df
    44d04636:	0000                	.insn	2, 0x0000
    44d04638:	ccdf 112a 0000      	.insn	6, 0x112accdf
    44d0463e:	0000                	.insn	2, 0x0000
    44d04640:	d0df 112a 0000      	.insn	6, 0x112ad0df
    44d04646:	0000                	.insn	2, 0x0000
    44d04648:	d4df 112a 0000      	.insn	6, 0x112ad4df
    44d0464e:	0000                	.insn	2, 0x0000
    44d04650:	d8df 112a 0000      	.insn	6, 0x112ad8df
    44d04656:	0000                	.insn	2, 0x0000
    44d04658:	dcdf 112a 0000      	.insn	6, 0x112adcdf
    44d0465e:	0000                	.insn	2, 0x0000
    44d04660:	e0df 112a 0000      	.insn	6, 0x112ae0df
    44d04666:	0000                	.insn	2, 0x0000
    44d04668:	e4df 112a 0000      	.insn	6, 0x112ae4df
    44d0466e:	0000                	.insn	2, 0x0000
    44d04670:	e8df 112a 0000      	.insn	6, 0x112ae8df
    44d04676:	0000                	.insn	2, 0x0000
    44d04678:	ecdf 112a 0000      	.insn	6, 0x112aecdf
    44d0467e:	0000                	.insn	2, 0x0000
    44d04680:	f0df 112a 0000      	.insn	6, 0x112af0df
    44d04686:	0000                	.insn	2, 0x0000
    44d04688:	f4df 112a 0000      	.insn	6, 0x112af4df
    44d0468e:	0000                	.insn	2, 0x0000
    44d04690:	f8df 112a 0000      	.insn	6, 0x112af8df
    44d04696:	0000                	.insn	2, 0x0000
    44d04698:	fcdf 112a 0000      	.insn	6, 0x112afcdf
    44d0469e:	0000                	.insn	2, 0x0000
    44d046a0:	00df 112b 0000      	.insn	6, 0x112b00df
    44d046a6:	0000                	.insn	2, 0x0000
    44d046a8:	04df 112b 0000      	.insn	6, 0x112b04df
    44d046ae:	0000                	.insn	2, 0x0000
    44d046b0:	08df 112b 0000      	.insn	6, 0x112b08df
    44d046b6:	0000                	.insn	2, 0x0000
    44d046b8:	0cdf 112b 0000      	.insn	6, 0x112b0cdf
    44d046be:	0000                	.insn	2, 0x0000
    44d046c0:	10df 112b 0000      	.insn	6, 0x112b10df
    44d046c6:	0000                	.insn	2, 0x0000
    44d046c8:	14df 112b 0000      	.insn	6, 0x112b14df
    44d046ce:	0000                	.insn	2, 0x0000
    44d046d0:	18df 112b 0000      	.insn	6, 0x112b18df
    44d046d6:	0000                	.insn	2, 0x0000
    44d046d8:	1cdf 112b 0000      	.insn	6, 0x112b1cdf
    44d046de:	0000                	.insn	2, 0x0000
    44d046e0:	20df 112b 0000      	.insn	6, 0x112b20df
    44d046e6:	0000                	.insn	2, 0x0000
    44d046e8:	24df 112b 0000      	.insn	6, 0x112b24df
    44d046ee:	0000                	.insn	2, 0x0000
    44d046f0:	28df 112b 0000      	.insn	6, 0x112b28df
    44d046f6:	0000                	.insn	2, 0x0000
    44d046f8:	2cdf 112b 0000      	.insn	6, 0x112b2cdf
    44d046fe:	0000                	.insn	2, 0x0000
    44d04700:	30df 112b 0000      	.insn	6, 0x112b30df
    44d04706:	0000                	.insn	2, 0x0000
    44d04708:	34df 112b 0000      	.insn	6, 0x112b34df
    44d0470e:	0000                	.insn	2, 0x0000
    44d04710:	38df 112b 0000      	.insn	6, 0x112b38df
    44d04716:	0000                	.insn	2, 0x0000
    44d04718:	3cdf 112b 0000      	.insn	6, 0x112b3cdf
    44d0471e:	0000                	.insn	2, 0x0000
    44d04720:	40df 112b 0000      	.insn	6, 0x112b40df
    44d04726:	0000                	.insn	2, 0x0000
    44d04728:	44df 112b 0000      	.insn	6, 0x112b44df
    44d0472e:	0000                	.insn	2, 0x0000
    44d04730:	48df 112b 0000      	.insn	6, 0x112b48df
    44d04736:	0000                	.insn	2, 0x0000
    44d04738:	4cdf 112b 0000      	.insn	6, 0x112b4cdf
    44d0473e:	0000                	.insn	2, 0x0000
    44d04740:	50df 112b 0000      	.insn	6, 0x112b50df
    44d04746:	0000                	.insn	2, 0x0000
    44d04748:	54df 112b 0000      	.insn	6, 0x112b54df
    44d0474e:	0000                	.insn	2, 0x0000
    44d04750:	58df 112b 0000      	.insn	6, 0x112b58df
    44d04756:	0000                	.insn	2, 0x0000
    44d04758:	5cdf 112b 0000      	.insn	6, 0x112b5cdf
    44d0475e:	0000                	.insn	2, 0x0000
    44d04760:	60df 112b 0000      	.insn	6, 0x112b60df
    44d04766:	0000                	.insn	2, 0x0000
    44d04768:	64df 112b 0000      	.insn	6, 0x112b64df
    44d0476e:	0000                	.insn	2, 0x0000
    44d04770:	68df 112b 0000      	.insn	6, 0x112b68df
    44d04776:	0000                	.insn	2, 0x0000
    44d04778:	6cdf 112b 0000      	.insn	6, 0x112b6cdf
    44d0477e:	0000                	.insn	2, 0x0000
    44d04780:	70df 112b 0000      	.insn	6, 0x112b70df
    44d04786:	0000                	.insn	2, 0x0000
    44d04788:	74df 112b 0000      	.insn	6, 0x112b74df
    44d0478e:	0000                	.insn	2, 0x0000
    44d04790:	78df 112b 0000      	.insn	6, 0x112b78df
    44d04796:	0000                	.insn	2, 0x0000
    44d04798:	7cdf 112b 0000      	.insn	6, 0x112b7cdf
    44d0479e:	0000                	.insn	2, 0x0000
    44d047a0:	80df 112b 0000      	.insn	6, 0x112b80df
    44d047a6:	0000                	.insn	2, 0x0000
    44d047a8:	84df 112b 0000      	.insn	6, 0x112b84df
    44d047ae:	0000                	.insn	2, 0x0000
    44d047b0:	88df 112b 0000      	.insn	6, 0x112b88df
    44d047b6:	0000                	.insn	2, 0x0000
    44d047b8:	8cdf 112b 0000      	.insn	6, 0x112b8cdf
    44d047be:	0000                	.insn	2, 0x0000
    44d047c0:	90df 112b 0000      	.insn	6, 0x112b90df
    44d047c6:	0000                	.insn	2, 0x0000
    44d047c8:	94df 112b 0000      	.insn	6, 0x112b94df
    44d047ce:	0000                	.insn	2, 0x0000
    44d047d0:	98df 112b 0000      	.insn	6, 0x112b98df
    44d047d6:	0000                	.insn	2, 0x0000
    44d047d8:	9cdf 112b 0000      	.insn	6, 0x112b9cdf
    44d047de:	0000                	.insn	2, 0x0000
    44d047e0:	a0df 112b 0000      	.insn	6, 0x112ba0df
    44d047e6:	0000                	.insn	2, 0x0000
    44d047e8:	a4df 112b 0000      	.insn	6, 0x112ba4df
    44d047ee:	0000                	.insn	2, 0x0000
    44d047f0:	a8df 112b 0000      	.insn	6, 0x112ba8df
    44d047f6:	0000                	.insn	2, 0x0000
    44d047f8:	acdf 112b 0000      	.insn	6, 0x112bacdf
    44d047fe:	0000                	.insn	2, 0x0000
    44d04800:	b0df 112b 0000      	.insn	6, 0x112bb0df
    44d04806:	0000                	.insn	2, 0x0000
    44d04808:	b4df 112b 0000      	.insn	6, 0x112bb4df
    44d0480e:	0000                	.insn	2, 0x0000
    44d04810:	b8df 112b 0000      	.insn	6, 0x112bb8df
    44d04816:	0000                	.insn	2, 0x0000
    44d04818:	bcdf 112b 0000      	.insn	6, 0x112bbcdf
    44d0481e:	0000                	.insn	2, 0x0000
    44d04820:	c0df 112b 0000      	.insn	6, 0x112bc0df
    44d04826:	0000                	.insn	2, 0x0000
    44d04828:	c4df 112b 0000      	.insn	6, 0x112bc4df
    44d0482e:	0000                	.insn	2, 0x0000
    44d04830:	c8df 112b 0000      	.insn	6, 0x112bc8df
    44d04836:	0000                	.insn	2, 0x0000
    44d04838:	ccdf 112b 0000      	.insn	6, 0x112bccdf
	...
    44d04c46:	0000                	.insn	2, 0x0000
    44d04c48:	112dd4cf          	fnmadd.s	f9,f27,f18,f2,unknown
    44d04c4c:	0000                	.insn	2, 0x0000
	...

Disassembly of section .__pagetable_map_os_0x0000000044235000:

0000000044235000 <__pagetable_map_os_0x0000000044235000>:
	...
    44235e60:	112f30cf          	fnmadd.s	f1,f30,f18,f2,rup
    44235e64:	0000                	.insn	2, 0x0000
	...

Disassembly of section .__pagetable_map_os_0x0000000044ce5000:

0000000044ce5000 <__pagetable_map_os_0x0000000044ce5000>:
	...
    44ce53d0:	110ef0c7          	fmsub.s	f1,f29,f16,f2
    44ce53d4:	0000                	.insn	2, 0x0000
	...

Disassembly of section .__pagetable_map_os_0x0000000041777000:

0000000041777000 <__pagetable_map_os_0x0000000041777000>:
	...
    417775f0:	110e2ccf          	fnmadd.s	f25,f28,f16,f2,rdn
    417775f4:	0000                	.insn	2, 0x0000
	...

Disassembly of section .__pagetable_map_os_0x0000000044ff3000:

0000000044ff3000 <__pagetable_map_os_0x0000000044ff3000>:
    44ff3000:	e801                	.insn	2, 0xe801
    44ff3002:	1109                	.insn	2, 0x1109
    44ff3004:	0000                	.insn	2, 0x0000
    44ff3006:	0000                	.insn	2, 0x0000
    44ff3008:	ec01                	.insn	2, 0xec01
    44ff300a:	10df 0000 0000      	.insn	6, 0x10df
	...
    44ff3018:	dc01                	.insn	2, 0xdc01
    44ff301a:	0000106b          	.insn	4, 0x106b
	...
    44ff3036:	0000                	.insn	2, 0x0000
    44ff3038:	0801                	.insn	2, 0x0801
    44ff303a:	113c                	.insn	2, 0x113c
    44ff303c:	0000                	.insn	2, 0x0000
    44ff303e:	0000                	.insn	2, 0x0000
    44ff3040:	0801                	.insn	2, 0x0801
    44ff3042:	00001073          	csrw	ustatus,x0
    44ff3046:	0000                	.insn	2, 0x0000
    44ff3048:	8c01                	.insn	2, 0x8c01
    44ff304a:	106a                	.insn	2, 0x106a
    44ff304c:	0000                	.insn	2, 0x0000
    44ff304e:	0000                	.insn	2, 0x0000
    44ff3050:	8401                	.insn	2, 0x8401
    44ff3052:	1105                	.insn	2, 0x1105
    44ff3054:	0000                	.insn	2, 0x0000
    44ff3056:	0000                	.insn	2, 0x0000
    44ff3058:	f401                	.insn	2, 0xf401
    44ff305a:	1109                	.insn	2, 0x1109
	...
    44ff30a8:	8c01                	.insn	2, 0x8c01
    44ff30aa:	1105                	.insn	2, 0x1105
	...
    44ff30b8:	0401                	.insn	2, 0x0401
    44ff30ba:	1058                	.insn	2, 0x1058
	...
    44ff30f0:	6801                	.insn	2, 0x6801
    44ff30f2:	00001137          	lui	x2,0x1
    44ff30f6:	0000                	.insn	2, 0x0000
    44ff30f8:	c401                	.insn	2, 0xc401
    44ff30fa:	1140                	.insn	2, 0x1140
	...
    44ff3128:	2401                	.insn	2, 0x2401
    44ff312a:	110e                	.insn	2, 0x110e
	...
    44ff3160:	9001                	.insn	2, 0x9001
    44ff3162:	110e                	.insn	2, 0x110e
	...
    44ff3248:	4001                	.insn	2, 0x4001
    44ff324a:	113d                	.insn	2, 0x113d
	...
    44ff3298:	a401                	.insn	2, 0xa401
    44ff329a:	10a0                	.insn	2, 0x10a0
	...
    44ff3468:	d401                	.insn	2, 0xd401
    44ff346a:	1069                	.insn	2, 0x1069
	...
    44ff34b8:	3801                	.insn	2, 0x3801
    44ff34ba:	112e                	.insn	2, 0x112e
	...
    44ff3aa0:	8c01                	.insn	2, 0x8c01
    44ff3aa2:	0000113f 00000000 	.insn	8, 0x113f
	...
    44ff3b56:	0000                	.insn	2, 0x0000
    44ff3b58:	f401                	.insn	2, 0xf401
    44ff3b5a:	113d                	.insn	2, 0x113d
	...
    44ff3df8:	d801                	.insn	2, 0xd801
    44ff3dfa:	0000113f 00000000 	.insn	8, 0x113f
	...
    44ff3e1e:	0000                	.insn	2, 0x0000
    44ff3e20:	bc01                	.insn	2, 0xbc01
    44ff3e22:	113c                	.insn	2, 0x113c
	...
    44ff3fb0:	4401                	.insn	2, 0x4401
    44ff3fb2:	1058                	.insn	2, 0x1058
    44ff3fb4:	0000                	.insn	2, 0x0000
	...

Disassembly of section .__pagetable_map_os_0x000000004427a000:

000000004427a000 <__pagetable_map_os_0x000000004427a000>:
	...
    4427a008:	10aaa4cf          	fnmadd.s	f9,f21,f10,f2,rdn
    4427a00c:	0000                	.insn	2, 0x0000
    4427a00e:	0000                	.insn	2, 0x0000
    4427a010:	104ff0cf          	fnmadd.s	f1,f31,f4,f2
    4427a014:	0000                	.insn	2, 0x0000
    4427a016:	0000                	.insn	2, 0x0000
    4427a018:	11321ccf          	fnmadd.s	f25,f4,f19,f2,rtz
    4427a01c:	0000                	.insn	2, 0x0000
    4427a01e:	0000                	.insn	2, 0x0000
    4427a020:	113f80cf          	fnmadd.s	f1,f31,f19,f2,rne
    4427a024:	0000                	.insn	2, 0x0000
    4427a026:	0000                	.insn	2, 0x0000
    4427a028:	64c9                	.insn	2, 0x64c9
    4427a02a:	110e                	.insn	2, 0x110e
	...
    4427a038:	112f30cf          	fnmadd.s	f1,f30,f18,f2,rup
    4427a03c:	0000                	.insn	2, 0x0000
    4427a03e:	0000                	.insn	2, 0x0000
    4427a040:	108f60cf          	fnmadd.s	f1,f30,f8,f2,unknown
    4427a044:	0000                	.insn	2, 0x0000
    4427a046:	0000                	.insn	2, 0x0000
    4427a048:	112f30cf          	fnmadd.s	f1,f30,f18,f2,rup
    4427a04c:	0000                	.insn	2, 0x0000
    4427a04e:	0000                	.insn	2, 0x0000
    4427a050:	105da8cf          	fnmadd.s	f17,f27,f5,f2,rdn
	...
    4427a060:	105820c7          	fmsub.s	f1,f16,f5,f2,rdn
	...
    4427a070:	111c88cf          	fnmadd.s	f17,f25,f17,f2,rne
	...
    4427a080:	110588cf          	fnmadd.s	f17,f11,f16,f2,rne
	...
    4427a090:	113be8cf          	fnmadd.s	f17,f23,f19,f2,unknown
	...
    4427a0c0:	113be4c7          	fmsub.s	f9,f23,f19,f2,unknown
	...
    4427a0d0:	113c18cf          	fnmadd.s	f17,f24,f19,f2,rtz
    4427a0d4:	0000                	.insn	2, 0x0000
    4427a0d6:	0000                	.insn	2, 0x0000
    4427a0d8:	113c1ccf          	fnmadd.s	f25,f24,f19,f2,rtz
    4427a0dc:	0000                	.insn	2, 0x0000
    4427a0de:	0000                	.insn	2, 0x0000
    4427a0e0:	112f30cf          	fnmadd.s	f1,f30,f18,f2,rup
    4427a0e4:	0000                	.insn	2, 0x0000
    4427a0e6:	0000                	.insn	2, 0x0000
    4427a0e8:	113bf4cf          	fnmadd.s	f9,f23,f19,f2
    4427a0ec:	0000                	.insn	2, 0x0000
    4427a0ee:	0000                	.insn	2, 0x0000
    4427a0f0:	113d3ccf          	fnmadd.s	f25,f26,f19,f2,rup
    4427a0f4:	0000                	.insn	2, 0x0000
    4427a0f6:	0000                	.insn	2, 0x0000
    4427a0f8:	113488cf          	fnmadd.s	f17,f9,f19,f2,rne
    4427a0fc:	0000                	.insn	2, 0x0000
    4427a0fe:	0000                	.insn	2, 0x0000
    4427a100:	113314cf          	fnmadd.s	f9,f6,f19,f2,rtz
	...
    4427a118:	112f30cf          	fnmadd.s	f1,f30,f18,f2,rup
	...
    4427a140:	112f30cf          	fnmadd.s	f1,f30,f18,f2,rup
    4427a144:	0000                	.insn	2, 0x0000
    4427a146:	0000                	.insn	2, 0x0000
    4427a148:	112f30cf          	fnmadd.s	f1,f30,f18,f2,rup
    4427a14c:	0000                	.insn	2, 0x0000
    4427a14e:	0000                	.insn	2, 0x0000
    4427a150:	110beccf          	fnmadd.s	f25,f23,f16,f2,unknown
	...
    4427a220:	111fa8cf          	fnmadd.s	f17,f31,f17,f2,rdn
	...
    4427a268:	10a678cf          	fnmadd.s	f17,f12,f10,f2
	...
    4427a298:	105840c7          	fmsub.s	f1,f16,f5,f2,rmm
	...
    4427a2e0:	112de0cf          	fnmadd.s	f1,f27,f18,f2,unknown
	...
    4427a2f0:	105fdccf          	fnmadd.s	f25,f31,f5,f2,unknown
	...
    4427a370:	113ed8cf          	fnmadd.s	f17,f29,f19,f2,unknown
	...
    4427a398:	112f30cf          	fnmadd.s	f1,f30,f18,f2,rup
	...
    4427a918:	113a40cf          	fnmadd.s	f1,f20,f19,f2,rmm
	...
    4427aa38:	113d4ccf          	fnmadd.s	f25,f26,f19,f2,rmm
	...
    4427af70:	11354ccf          	fnmadd.s	f25,f10,f19,f2,rmm
	...
    4427afd8:	112f30cf          	fnmadd.s	f1,f30,f18,f2,rup
	...
    4427afe8:	113260cf          	fnmadd.s	f1,f4,f19,f2,unknown
    4427afec:	0000                	.insn	2, 0x0000
	...

Disassembly of section .__pagetable_map_os_0x0000000044dda000:

0000000044dda000 <__pagetable_map_os_0x0000000044dda000>:
	...
    44dda1f8:	113d90cf          	fnmadd.s	f1,f27,f19,f2,rtz
    44dda1fc:	0000                	.insn	2, 0x0000
	...

Disassembly of section .__pagetable_map_os_0x00000000437fb000:

00000000437fb000 <__pagetable_map_os_0x00000000437fb000>:
	...
    437fb308:	108c04c7          	fmsub.s	f9,f24,f8,f2,rne
	...
    437fb330:	110deccf          	fnmadd.s	f25,f27,f16,f2,unknown
	...
    437fb350:	10cca8cf          	fnmadd.s	f17,f25,f12,f2,rdn
	...
    437fb380:	112f30cf          	fnmadd.s	f1,f30,f18,f2,rup
    437fb384:	0000                	.insn	2, 0x0000
    437fb386:	0000                	.insn	2, 0x0000
    437fb388:	105ac8cf          	fnmadd.s	f17,f21,f5,f2,rmm
	...
    437fb3a8:	1139d8c7          	fmsub.s	f17,f19,f19,f2,unknown
	...
    437fb3f8:	113a50cf          	fnmadd.s	f1,f20,f19,f2,unknown
	...
    437fb4b0:	112f30cf          	fnmadd.s	f1,f30,f18,f2,rup
	...
    437fb910:	108cb4cf          	fnmadd.s	f9,f25,f8,f2,rup
	...
    437fb9e8:	113618cf          	fnmadd.s	f17,f12,f19,f2,rtz
    437fb9ec:	0000                	.insn	2, 0x0000
	...

Disassembly of section .__pagetable_map_os_0x0000000041af7000:

0000000041af7000 <__pagetable_map_os_0x0000000041af7000>:
	...
    41af7620:	105dd8cf          	fnmadd.s	f17,f27,f5,f2,unknown
	...
    41af7650:	110a18cf          	fnmadd.s	f17,f20,f16,f2,rtz
	...
    41af7680:	10d374c7          	fmsub.s	f9,f6,f13,f2
	...
    41af7780:	112f30cf          	fnmadd.s	f1,f30,f18,f2,rup
	...
    41af77a0:	1140f8cf          	fnmadd.s	f17,f1,f20,f2
    41af77a4:	0000                	.insn	2, 0x0000
	...

Disassembly of section .__pagetable_map_os_0x0000000045031000:

0000000045031000 <__pagetable_map_os_0x0000000045031000>:
	...
    45031540:	113f04c7          	fmsub.s	f9,f30,f19,f2,rne
    45031544:	0000                	.insn	2, 0x0000
	...

Disassembly of section .__pagetable_map_os_0x0000000044161000:

0000000044161000 <__pagetable_map_os_0x0000000044161000>:
	...
    441618c0:	110660c7          	fmsub.s	f1,f12,f16,f2,unknown
	...
    44161dd8:	110a28cf          	fnmadd.s	f17,f20,f16,f2,rdn
    44161ddc:	0000                	.insn	2, 0x0000
	...

Disassembly of section .__pagetable_map_os_0x0000000041601000:

0000000041601000 <__pagetable_map_os_0x0000000041601000>:
	...
    41601ba0:	112f40cf          	fnmadd.s	f1,f30,f18,f2,rmm
    41601ba4:	0000                	.insn	2, 0x0000
	...

Disassembly of section .__pagetable_map_os_0x0000000044ff6000:

0000000044ff6000 <__pagetable_map_os_0x0000000044ff6000>:
	...
    44ff6610:	1105c0cf          	fnmadd.s	f1,f11,f16,f2,rmm
    44ff6614:	0000                	.insn	2, 0x0000
	...

Disassembly of section .__pagetable_map_os_0x0000000044f50000:

0000000044f50000 <__pagetable_map_os_0x0000000044f50000>:
	...
    44f505e0:	111fb8cf          	fnmadd.s	f17,f31,f17,f2,rup
	...
    44f509b0:	113420cf          	fnmadd.s	f1,f8,f19,f2,rdn
    44f509b4:	0000                	.insn	2, 0x0000
	...

Disassembly of section .__pagetable_map_os_0x0000000041611000:

0000000041611000 <__pagetable_map_os_0x0000000041611000>:
	...
    416117b8:	113a38cf          	fnmadd.s	f17,f20,f19,f2,rup
    416117bc:	0000                	.insn	2, 0x0000
	...

Disassembly of section .__pagetable_map_os_0x0000000041aa3000:

0000000041aa3000 <__pagetable_map_os_0x0000000041aa3000>:
	...
    41aa3c20:	112f30cf          	fnmadd.s	f1,f30,f18,f2,rup
    41aa3c24:	0000                	.insn	2, 0x0000
	...

Disassembly of section .__pagetable_map_os_0x00000000443a4000:

00000000443a4000 <__pagetable_map_os_0x00000000443a4000>:
	...
    443a42e0:	1069e8cf          	fnmadd.s	f17,f19,f6,f2,unknown
    443a42e4:	0000                	.insn	2, 0x0000
	...

Disassembly of section .__pagetable_map_os_0x0000000042829000:

0000000042829000 <__pagetable_map_os_0x0000000042829000>:
	...
    42829780:	10581ccf          	fnmadd.s	f25,f16,f5,f2,rtz
    42829784:	0000                	.insn	2, 0x0000
	...

Disassembly of section .__pagetable_map_os_0x0000000044389000:

0000000044389000 <__pagetable_map_os_0x0000000044389000>:
	...
    44389068:	112e9ccf          	fnmadd.s	f25,f29,f18,f2,rtz
    4438906c:	0000                	.insn	2, 0x0000
	...

Disassembly of section .__pagetable_map_os_0x0000000044163000:

0000000044163000 <__pagetable_map_os_0x0000000044163000>:
	...
    441636e0:	113d54cf          	fnmadd.s	f9,f26,f19,f2,unknown
    441636e4:	0000                	.insn	2, 0x0000
	...

Disassembly of section .__pagetable_map_os_0x0000000041cc2000:

0000000041cc2000 <__pagetable_map_os_0x0000000041cc2000>:
	...
    41cc26c0:	112f30cf          	fnmadd.s	f1,f30,f18,f2,rup
    41cc26c4:	0000                	.insn	2, 0x0000
	...

Disassembly of section .__pagetable_map_os_0x0000000044f2f000:

0000000044f2f000 <__pagetable_map_os_0x0000000044f2f000>:
	...
    44f2f370:	113f54cf          	fnmadd.s	f9,f30,f19,f2,unknown
    44f2f374:	0000                	.insn	2, 0x0000
	...

Disassembly of section .__pagetable_map_os_0x0000000044f02000:

0000000044f02000 <__pagetable_map_os_0x0000000044f02000>:
	...
    44f027d0:	1084c4cf          	fnmadd.s	f9,f9,f8,f2,rmm
	...
    44f02eb0:	113238cf          	fnmadd.s	f17,f4,f19,f2,rup
    44f02eb4:	0000                	.insn	2, 0x0000
	...

Disassembly of section .__pagetable_map_os_0x0000000044b8e000:

0000000044b8e000 <__pagetable_map_os_0x0000000044b8e000>:
	...
    44b8eed8:	1069d0cf          	fnmadd.s	f1,f19,f6,f2,unknown
    44b8eedc:	0000                	.insn	2, 0x0000
	...

Disassembly of section .__pagetable_map_os_0x0000000044fe3000:

0000000044fe3000 <__pagetable_map_os_0x0000000044fe3000>:
	...
    44fe3720:	113c90cf          	fnmadd.s	f1,f25,f19,f2,rtz
    44fe3724:	0000                	.insn	2, 0x0000
	...

Disassembly of section .__pagetable_map_os_0x0000000044f7d000:

0000000044f7d000 <__pagetable_map_os_0x0000000044f7d000>:
	...
    44f7d0d0:	113be0cf          	fnmadd.s	f1,f23,f19,f2,unknown
    44f7d0d4:	0000                	.insn	2, 0x0000
	...

Disassembly of section .__pagetable_map_os_0x000000004427d000:

000000004427d000 <__pagetable_map_os_0x000000004427d000>:
	...
    4427d298:	110990cf          	fnmadd.s	f1,f19,f16,f2,rtz
    4427d29c:	0000                	.insn	2, 0x0000
	...

Disassembly of section .__pagetable_map_os_0x0000000041a75000:

0000000041a75000 <__pagetable_map_os_0x0000000041a75000>:
	...
    41a75fe0:	108d5ccf          	fnmadd.s	f25,f26,f8,f2,unknown
    41a75fe4:	0000                	.insn	2, 0x0000
	...

Disassembly of section .__pagetable_map_os_0x0000000045035000:

0000000045035000 <__pagetable_map_os_0x0000000045035000>:
	...
    45035280:	f001                	.insn	2, 0xf001
    45035282:	0000113b          	sllw	x2,x0,x0
	...

Disassembly of section .__pagetable_map_os_0x0000000044efc000:

0000000044efc000 <__pagetable_map_os_0x0000000044efc000>:
	...
    44efc808:	111a14c7          	fmsub.s	f9,f20,f17,f2,rtz
	...
    44efc818:	10d378cf          	fnmadd.s	f17,f6,f13,f2
    44efc81c:	0000                	.insn	2, 0x0000
	...

Disassembly of section .__pagetable_map_os_0x00000000447f1000:

00000000447f1000 <__pagetable_map_os_0x00000000447f1000>:
	...
    447f1980:	00c1                	.insn	2, 0x00c1
    447f1982:	1060                	.insn	2, 0x1060
    447f1984:	0000                	.insn	2, 0x0000
	...

Disassembly of section .__pagetable_map_os_0x0000000044169000:

0000000044169000 <__pagetable_map_os_0x0000000044169000>:
	...
    44169058:	d801                	.insn	2, 0xd801
    4416905a:	0000104f          	fnmadd.s	f0,f0,f0,f0,rtz
	...

Disassembly of section .__pagetable_map_os_0x00000000413f6000:

00000000413f6000 <__pagetable_map_os_0x00000000413f6000>:
	...
    413f6f30:	1059c4cb          	fnmsub.s	f9,f19,f5,f2,rmm
    413f6f34:	0000                	.insn	2, 0x0000
	...

Disassembly of section .__pagetable_map_os_0x0000000044ef7000:

0000000044ef7000 <__pagetable_map_os_0x0000000044ef7000>:
	...
    44ef7550:	1001                	.insn	2, 0x1001
    44ef7552:	00000000113f 	.6byte	0x00000000113f

Disassembly of section .__pagetable_map_os_0x0000000044fc4000:

0000000044fc4000 <__pagetable_map_os_0x0000000044fc4000>:
	...
    44fc4df8:	30c9                	.insn	2, 0x30c9
    44fc4dfa:	113d                	.insn	2, 0x113d
    44fc4dfc:	0000                	.insn	2, 0x0000
	...

Disassembly of section .__pagetable_map_os_0x0000000045037000:

0000000045037000 <__pagetable_map_os_0x0000000045037000>:
	...
    45037560:	7801                	.insn	2, 0x7801
    45037562:	1134                	.insn	2, 0x1134
	...
    450375e0:	6401                	.insn	2, 0x6401
    450375e2:	1075                	.insn	2, 0x1075
	...
    45037a60:	5001                	.insn	2, 0x5001
    45037a62:	113d                	.insn	2, 0x113d
	...
    45037a78:	5c01                	.insn	2, 0x5c01
    45037a7a:	113c                	.insn	2, 0x113c
	...
    45037a90:	5801                	.insn	2, 0x5801
    45037a92:	112e                	.insn	2, 0x112e
    45037a94:	0000                	.insn	2, 0x0000
	...

Disassembly of section .__pagetable_map_os_0x0000000044f54000:

0000000044f54000 <__pagetable_map_os_0x0000000044f54000>:
	...
    44f54528:	fcc9                	.insn	2, 0xfcc9
    44f5452a:	113c                	.insn	2, 0x113c
    44f5452c:	0000                	.insn	2, 0x0000
	...

Disassembly of section .__pagetable_map_os_0x0000000044b96000:

0000000044b96000 <__pagetable_map_os_0x0000000044b96000>:
	...
    44b962a0:	112e14c7          	fmsub.s	f9,f28,f18,f2,rtz
    44b962a4:	0000                	.insn	2, 0x0000
	...

Disassembly of section .__pagetable_map_os_0x0000000044f17000:

0000000044f17000 <__pagetable_map_os_0x0000000044f17000>:
	...
    44f17410:	1105a8cf          	fnmadd.s	f17,f11,f16,f2,rdn
    44f17414:	0000                	.insn	2, 0x0000
	...

Disassembly of section .__pagetable_map_os_0x0000000044d1e000:

0000000044d1e000 <__pagetable_map_os_0x0000000044d1e000>:
	...
    44d1e5c8:	112ed8cf          	fnmadd.s	f17,f29,f18,f2,unknown
    44d1e5cc:	0000                	.insn	2, 0x0000
	...

Disassembly of section .__pagetable_map_os_0x0000000041d59000:

0000000041d59000 <__pagetable_map_os_0x0000000041d59000>:
	...
    41d59148:	107560cf          	fnmadd.s	f1,f10,f7,f2,unknown
    41d5914c:	0000                	.insn	2, 0x0000
	...

Disassembly of section .__pagetable_map_os_0x0000000044282000:

0000000044282000 <__pagetable_map_os_0x0000000044282000>:
	...
    44282fe8:	109800cf          	fnmadd.s	f1,f16,f9,f2,rne
    44282fec:	0000                	.insn	2, 0x0000
	...

Disassembly of section .__pagetable_map_os_0x00000000417f9000:

00000000417f9000 <__pagetable_map_os_0x00000000417f9000>:
	...
    417f9010:	c401                	.insn	2, 0xc401
    417f9012:	0000113b          	sllw	x2,x0,x0
	...
    417f9036:	0000                	.insn	2, 0x0000
    417f9038:	cc01                	.insn	2, 0xcc01
    417f903a:	1108                	.insn	2, 0x1108
	...
    417f9088:	a801                	.insn	2, 0xa801
    417f908a:	1082                	.insn	2, 0x1082
    417f908c:	0000                	.insn	2, 0x0000
	...

Disassembly of section .__pagetable_map_os_0x00000000420aa000:

00000000420aa000 <__pagetable_map_os_0x00000000420aa000>:
	...
    420aa5b8:	105800c7          	fmsub.s	f1,f16,f5,f2,rne
    420aa5bc:	0000                	.insn	2, 0x0000
	...

Disassembly of section .__pagetable_map_os_0x0000000044ef1000:

0000000044ef1000 <__pagetable_map_os_0x0000000044ef1000>:
	...
    44ef1420:	104ffcc7          	fmsub.s	f25,f31,f4,f2
	...
    44ef1430:	110e68c7          	fmsub.s	f17,f28,f16,f2,unknown
    44ef1434:	0000                	.insn	2, 0x0000
	...

Disassembly of section .__pagetable_map_os_0x0000000044233000:

0000000044233000 <__pagetable_map_os_0x0000000044233000>:
	...
    442330b8:	108aeccf          	fnmadd.s	f25,f21,f8,f2,unknown
    442330bc:	0000                	.insn	2, 0x0000
	...

Disassembly of section .__pagetable_map_os_0x0000000044fc6000:

0000000044fc6000 <__pagetable_map_os_0x0000000044fc6000>:
	...
    44fc6c08:	f401                	.insn	2, 0xf401
    44fc6c0a:	0000104f          	fnmadd.s	f0,f0,f0,f0,rtz
	...

Disassembly of section .__pagetable_map_os_0x00000000413fd000:

00000000413fd000 <__pagetable_map_os_0x00000000413fd000>:
	...
    413fd930:	111ff8c7          	fmsub.s	f17,f31,f17,f2
    413fd934:	0000                	.insn	2, 0x0000
	...

Disassembly of section .__pagetable_map_os_0x000000004219f000:

000000004219f000 <__pagetable_map_os_0x000000004219f000>:
	...
    4219f0b0:	0801                	.insn	2, 0x0801
    4219f0b2:	0000113b          	sllw	x2,x0,x0
	...

Disassembly of section .__pagetable_map_os_0x0000000044ec2000:

0000000044ec2000 <__pagetable_map_os_0x0000000044ec2000>:
	...
    44ec2288:	113cccc7          	fmsub.s	f25,f25,f19,f2,rmm
    44ec228c:	0000                	.insn	2, 0x0000
	...

Disassembly of section .__pagetable_map_os_0x0000000041613000:

0000000041613000 <__pagetable_map_os_0x0000000041613000>:
	...
    41613588:	3001                	.insn	2, 0x3001
    4161358a:	1132                	.insn	2, 0x1132
	...
    416137a0:	4401                	.insn	2, 0x4401
    416137a2:	106a                	.insn	2, 0x106a
    416137a4:	0000                	.insn	2, 0x0000
	...

Disassembly of section .__pagetable_map_os_0x0000000041a91000:

0000000041a91000 <__pagetable_map_os_0x0000000041a91000>:
	...
    41a91810:	111f9cc7          	fmsub.s	f25,f31,f17,f2,rtz
    41a91814:	0000                	.insn	2, 0x0000
	...

Disassembly of section .__pagetable_map_os_0x0000000044c8c000:

0000000044c8c000 <__pagetable_map_os_0x0000000044c8c000>:
	...
    44c8cb48:	112de4cf          	fnmadd.s	f9,f27,f18,f2,unknown
    44c8cb4c:	0000                	.insn	2, 0x0000
	...

Disassembly of section .__pagetable_map_os_0x0000000044bdc000:

0000000044bdc000 <__pagetable_map_os_0x0000000044bdc000>:
	...
    44bdcd98:	0c01                	.insn	2, 0x0c01
    44bdcd9a:	1058                	.insn	2, 0x1058
    44bdcd9c:	0000                	.insn	2, 0x0000
	...

Disassembly of section .__pagetable_map_os_0x0000000041603000:

0000000041603000 <__pagetable_map_os_0x0000000041603000>:
	...
    41603ae0:	113ce4c7          	fmsub.s	f9,f25,f19,f2,unknown
    41603ae4:	0000                	.insn	2, 0x0000
	...

Disassembly of section .__pagetable_map_os_0x0000000044fc2000:

0000000044fc2000 <__pagetable_map_os_0x0000000044fc2000>:
	...
    44fc2750:	5401                	.insn	2, 0x5401
    44fc2752:	1132                	.insn	2, 0x1132
    44fc2754:	0000                	.insn	2, 0x0000
	...

Disassembly of section .__pagetable_map_os_0x0000000044c95000:

0000000044c95000 <__pagetable_map_os_0x0000000044c95000>:
	...
    44c95518:	113cd0c7          	fmsub.s	f1,f25,f19,f2,unknown
    44c9551c:	0000                	.insn	2, 0x0000
	...

Disassembly of section .__pagetable_map_os_0x0000000044b91000:

0000000044b91000 <__pagetable_map_os_0x0000000044b91000>:
	...
    44b91fa0:	e401                	.insn	2, 0xe401
    44b91fa2:	113d                	.insn	2, 0x113d
    44b91fa4:	0000                	.insn	2, 0x0000
	...

Disassembly of section .__pagetable_map_os_0x0000000044f79000:

0000000044f79000 <__pagetable_map_os_0x0000000044f79000>:
	...
    44f79970:	1140d8cf          	fnmadd.s	f17,f1,f20,f2,unknown
    44f79974:	0000                	.insn	2, 0x0000
	...

Disassembly of section .__pagetable_map_os_0x0000000042978000:

0000000042978000 <__pagetable_map_os_0x0000000042978000>:
	...
    42978020:	7001                	.insn	2, 0x7001
    42978022:	113e                	.insn	2, 0x113e
    42978024:	0000                	.insn	2, 0x0000
	...

Disassembly of section .__pagetable_map_os_0x0000000044f9c000:

0000000044f9c000 <__pagetable_map_os_0x0000000044f9c000>:
	...
    44f9c6a0:	105d38cf          	fnmadd.s	f17,f26,f5,f2,rup
    44f9c6a4:	0000                	.insn	2, 0x0000
    44f9c6a6:	0000                	.insn	2, 0x0000
    44f9c6a8:	112f30cf          	fnmadd.s	f1,f30,f18,f2,rup
    44f9c6ac:	0000                	.insn	2, 0x0000
	...

Disassembly of section .__pagetable_map_os_0x0000000042c03000:

0000000042c03000 <__pagetable_map_os_0x0000000042c03000>:
	...
    42c03c98:	fc01                	.insn	2, 0xfc01
    42c03c9a:	0000113b          	sllw	x2,x0,x0
	...

Disassembly of section .__pagetable_map_os_0x0000000044eff000:

0000000044eff000 <__pagetable_map_os_0x0000000044eff000>:
	...
    44effa60:	112f30cf          	fnmadd.s	f1,f30,f18,f2,rup
    44effa64:	0000                	.insn	2, 0x0000
	...

Disassembly of section .__pagetable_map_os_0x000000004453a000:

000000004453a000 <__pagetable_map_os_0x000000004453a000>:
	...
    4453a7e0:	1c01                	.insn	2, 0x1c01
    4453a7e2:	110a                	.insn	2, 0x110a
	...
    4453aa80:	e001                	.insn	2, 0xe001
    4453aa82:	105f 0000 0000      	.insn	6, 0x105f
	...
    4453ab90:	bc01                	.insn	2, 0xbc01
    4453ab92:	113a                	.insn	2, 0x113a
    4453ab94:	0000                	.insn	2, 0x0000
	...

Disassembly of section .__pagetable_map_os_0x0000000044eaf000:

0000000044eaf000 <__pagetable_map_os_0x0000000044eaf000>:
	...
    44eaf3f8:	10a680cf          	fnmadd.s	f1,f13,f10,f2,rne
    44eaf3fc:	0000                	.insn	2, 0x0000
	...

Disassembly of section .__pagetable_map_os_0x0000000044287000:

0000000044287000 <__pagetable_map_os_0x0000000044287000>:
	...
    442875c0:	10a494cf          	fnmadd.s	f9,f9,f10,f2,rtz
    442875c4:	0000                	.insn	2, 0x0000
	...

Disassembly of section .__pagetable_map_os_0x00000000417f8000:

00000000417f8000 <__pagetable_map_os_0x00000000417f8000>:
	...
    417f8118:	105dc8cf          	fnmadd.s	f17,f27,f5,f2,rmm
    417f811c:	0000                	.insn	2, 0x0000
	...

Disassembly of section .__pagetable_map_os_0x0000000044288000:

0000000044288000 <__pagetable_map_os_0x0000000044288000>:
	...
    442884f0:	1c01                	.insn	2, 0x1c01
    442884f2:	0000110b          	.insn	4, 0x110b
	...
    44288f76:	0000                	.insn	2, 0x0000
    44288f78:	0401                	.insn	2, 0x0401
    44288f7a:	113c                	.insn	2, 0x113c
    44288f7c:	0000                	.insn	2, 0x0000
	...

Disassembly of section .__pagetable_map_os_0x0000000044f01000:

0000000044f01000 <__pagetable_map_os_0x0000000044f01000>:
	...
    44f01128:	113beccf          	fnmadd.s	f25,f23,f19,f2,unknown
    44f0112c:	0000                	.insn	2, 0x0000
	...

Disassembly of section .__pagetable_map_os_0x00000000442c7000:

00000000442c7000 <__pagetable_map_os_0x00000000442c7000>:
	...
    442c71e8:	112f30cf          	fnmadd.s	f1,f30,f18,f2,rup
    442c71ec:	0000                	.insn	2, 0x0000
	...

Disassembly of section .__pagetable_map_os_0x0000000044e82000:

0000000044e82000 <__pagetable_map_os_0x0000000044e82000>:
	...
    44e828d0:	0c01                	.insn	2, 0x0c01
    44e828d2:	113a                	.insn	2, 0x113a
    44e828d4:	0000                	.insn	2, 0x0000
	...

Disassembly of section .__pagetable_map_os_0x0000000044e83000:

0000000044e83000 <__pagetable_map_os_0x0000000044e83000>:
	...
    44e83c10:	111fb4cf          	fnmadd.s	f9,f31,f17,f2,rup
    44e83c14:	0000                	.insn	2, 0x0000
	...

Disassembly of section .__pagetable_map_os_0x0000000041a93000:

0000000041a93000 <__pagetable_map_os_0x0000000041a93000>:
	...
    41a93f50:	8401                	.insn	2, 0x8401
    41a93f52:	110e                	.insn	2, 0x110e
    41a93f54:	0000                	.insn	2, 0x0000
	...

Disassembly of section .__pagetable_map_os_0x00000000443a1000:

00000000443a1000 <__pagetable_map_os_0x00000000443a1000>:
	...
    443a16c8:	112f30cf          	fnmadd.s	f1,f30,f18,f2,rup
    443a16cc:	0000                	.insn	2, 0x0000
	...

Disassembly of section .__pagetable_map_os_0x00000000423e7000:

00000000423e7000 <__pagetable_map_os_0x00000000423e7000>:
	...
    423e7180:	cc01                	.insn	2, 0xcc01
    423e7182:	10c9                	.insn	2, 0x10c9
    423e7184:	0000                	.insn	2, 0x0000
	...

Disassembly of section .__pagetable_map_os_0x0000000043273000:

0000000043273000 <__pagetable_map_os_0x0000000043273000>:
	...
    432735e0:	105aa4cf          	fnmadd.s	f9,f21,f5,f2,rdn
    432735e4:	0000                	.insn	2, 0x0000
	...

Disassembly of section .__pagetable_map_os_0x0000000042355000:

0000000042355000 <__pagetable_map_os_0x0000000042355000>:
	...
    423553f8:	4401                	.insn	2, 0x4401
    423553fa:	0000112f          	.insn	4, 0x112f
	...

Disassembly of section .__pagetable_map_os_0x0000000044bd1000:

0000000044bd1000 <__pagetable_map_os_0x0000000044bd1000>:
	...
    44bd10e8:	111fc8cf          	fnmadd.s	f17,f31,f17,f2,rmm
    44bd10ec:	0000                	.insn	2, 0x0000
	...

Disassembly of section .__pagetable_map_os_0x0000000041a61000:

0000000041a61000 <__pagetable_map_os_0x0000000041a61000>:
	...
    41a61b20:	1001                	.insn	2, 0x1001
    41a61b22:	110a                	.insn	2, 0x110a
    41a61b24:	0000                	.insn	2, 0x0000
	...

Disassembly of section .__pagetable_map_os_0x0000000044284000:

0000000044284000 <__pagetable_map_os_0x0000000044284000>:
	...
    442843a0:	111fbccf          	fnmadd.s	f25,f31,f17,f2,rup
    442843a4:	0000                	.insn	2, 0x0000
	...

Disassembly of section .__pagetable_map_os_0x0000000044f59000:

0000000044f59000 <__pagetable_map_os_0x0000000044f59000>:
	...
    44f59d60:	7401                	.insn	2, 0x7401
    44f59d62:	10a5                	.insn	2, 0x10a5
    44f59d64:	0000                	.insn	2, 0x0000
	...

Disassembly of section .__pagetable_map_os_0x000000004295d000:

000000004295d000 <__pagetable_map_os_0x000000004295d000>:
	...
    4295dcd8:	112f30cf          	fnmadd.s	f1,f30,f18,f2,rup
    4295dcdc:	0000                	.insn	2, 0x0000
	...

Disassembly of section .__pagetable_map_os_0x0000000041bb8000:

0000000041bb8000 <__pagetable_map_os_0x0000000041bb8000>:
	...
    41bb8c80:	7401                	.insn	2, 0x7401
    41bb8c82:	104e                	.insn	2, 0x104e
    41bb8c84:	0000                	.insn	2, 0x0000
	...

Disassembly of section .__pagetable_map_os_0x000000004139d000:

000000004139d000 <__pagetable_map_os_0x000000004139d000>:
	...
    4139de80:	112f30cf          	fnmadd.s	f1,f30,f18,f2,rup
    4139de84:	0000                	.insn	2, 0x0000
	...

Disassembly of section .__pagetable_map_os_0x0000000041650000:

0000000041650000 <__pagetable_map_os_0x0000000041650000>:
	...
    416500a8:	ac01                	.insn	2, 0xac01
    416500aa:	105a                	.insn	2, 0x105a
    416500ac:	0000                	.insn	2, 0x0000
	...

Disassembly of section .__pagetable_map_os_0x00000000416ab000:

00000000416ab000 <__pagetable_map_os_0x00000000416ab000>:
	...
    416abb80:	113cdccf          	fnmadd.s	f25,f25,f19,f2,unknown
    416abb84:	0000                	.insn	2, 0x0000
	...

Disassembly of section .__pagetable_map_os_0x0000000044b7a000:

0000000044b7a000 <__pagetable_map_os_0x0000000044b7a000>:
	...
    44b7a440:	0001                	.insn	2, 0x0001
    44b7a442:	1141                	.insn	2, 0x1141
    44b7a444:	0000                	.insn	2, 0x0000
	...

Disassembly of section .__pagetable_map_os_0x0000000045040000:

0000000045040000 <__pagetable_map_os_0x0000000045040000>:
	...
    45040790:	110e04cf          	fnmadd.s	f9,f28,f16,f2,rne
    45040794:	0000                	.insn	2, 0x0000
	...

Disassembly of section .__pagetable_map_os_0x0000000041ba7000:

0000000041ba7000 <__pagetable_map_os_0x0000000041ba7000>:
	...
    41ba7cc8:	9401                	.insn	2, 0x9401
    41ba7cca:	113c                	.insn	2, 0x113c
    41ba7ccc:	0000                	.insn	2, 0x0000
	...

Disassembly of section .__pagetable_map_os_0x0000000044f25000:

0000000044f25000 <__pagetable_map_os_0x0000000044f25000>:
	...
    44f25a58:	110ee8cf          	fnmadd.s	f17,f29,f16,f2,unknown
    44f25a5c:	0000                	.insn	2, 0x0000
	...

Disassembly of section .__pagetable_map_os_0x0000000044f8a000:

0000000044f8a000 <__pagetable_map_os_0x0000000044f8a000>:
	...
    44f8a8c8:	9801                	.insn	2, 0x9801
    44f8a8ca:	105f 0000 0000      	.insn	6, 0x105f

Disassembly of section .__pagetable_map_os_0x00000000417e6000:

00000000417e6000 <__pagetable_map_os_0x00000000417e6000>:
	...
    417e66b8:	10a510cf          	fnmadd.s	f1,f10,f10,f2,rtz
    417e66bc:	0000                	.insn	2, 0x0000
	...

Disassembly of section .__pagetable_map_os_0x0000000044f47000:

0000000044f47000 <__pagetable_map_os_0x0000000044f47000>:
	...
    44f47fb0:	dc01                	.insn	2, 0xdc01
    44f47fb2:	108d                	.insn	2, 0x108d
    44f47fb4:	0000                	.insn	2, 0x0000
	...

Disassembly of section .__pagetable_map_os_0x0000000042377000:

0000000042377000 <__pagetable_map_os_0x0000000042377000>:
	...
    42377b88:	c401                	.insn	2, 0xc401
    42377b8a:	10a6                	.insn	2, 0x10a6
    42377b8c:	0000                	.insn	2, 0x0000
	...

Disassembly of section .__pagetable_map_os_0x00000000429b1000:

00000000429b1000 <__pagetable_map_os_0x00000000429b1000>:
	...
    429b1c80:	113c68cf          	fnmadd.s	f17,f24,f19,f2,unknown
    429b1c84:	0000                	.insn	2, 0x0000
    429b1c86:	0000                	.insn	2, 0x0000
    429b1c88:	113c6ccf          	fnmadd.s	f25,f24,f19,f2,unknown
    429b1c8c:	0000                	.insn	2, 0x0000
	...

Disassembly of section .__pagetable_map_os_0x0000000044f36000:

0000000044f36000 <__pagetable_map_os_0x0000000044f36000>:
	...
    44f36608:	c801                	.insn	2, 0xc801
    44f3660a:	1132                	.insn	2, 0x1132
	...
    44f36770:	b001                	.insn	2, 0xb001
    44f36772:	113c                	.insn	2, 0x113c
    44f36774:	0000                	.insn	2, 0x0000
	...

Disassembly of section .__pagetable_map_os_0x0000000044cb2000:

0000000044cb2000 <__pagetable_map_os_0x0000000044cb2000>:
	...
    44cb2710:	3401                	.insn	2, 0x3401
    44cb2712:	113d                	.insn	2, 0x113d
    44cb2714:	0000                	.insn	2, 0x0000
	...

Disassembly of section .__pagetable_map_os_0x0000000044f4d000:

0000000044f4d000 <__pagetable_map_os_0x0000000044f4d000>:
	...
    44f4d518:	112dd8d7          	vfmin.vf	v17,v18,f27,v0.t
    44f4d51c:	0000                	.insn	2, 0x0000
	...

Disassembly of section .__pagetable_map_os_0x0000000044f2c000:

0000000044f2c000 <__pagetable_map_os_0x0000000044f2c000>:
	...
    44f2c0f0:	3001                	.insn	2, 0x3001
    44f2c0f2:	113e                	.insn	2, 0x113e
    44f2c0f4:	0000                	.insn	2, 0x0000
	...

Disassembly of section .__pagetable_map_os_0x0000000044f8c000:

0000000044f8c000 <__pagetable_map_os_0x0000000044f8c000>:
	...
    44f8c7e0:	113d2cc7          	fmsub.s	f25,f26,f19,f2,rdn
    44f8c7e4:	0000                	.insn	2, 0x0000
	...

Disassembly of section .__pagetable_map_os_0x0000000044f00000:

0000000044f00000 <__pagetable_map_os_0x0000000044f00000>:
	...
    44f00718:	c001                	.insn	2, 0xc001
    44f0071a:	105f 0000 0000      	.insn	6, 0x105f

Disassembly of section .__pagetable_map_os_0x00000000417f0000:

00000000417f0000 <__pagetable_map_os_0x00000000417f0000>:
	...
    417f02d8:	10f800cf          	fnmadd.s	f1,f16,f15,f2,rne
    417f02dc:	0000                	.insn	2, 0x0000
	...

Disassembly of section .__pagetable_map_os_0x0000000044fe2000:

0000000044fe2000 <__pagetable_map_os_0x0000000044fe2000>:
	...
    44fe2828:	f001                	.insn	2, 0xf001
    44fe282a:	113c                	.insn	2, 0x113c
    44fe282c:	0000                	.insn	2, 0x0000
	...

Disassembly of section .__pagetable_map_os_0x0000000044f3c000:

0000000044f3c000 <__pagetable_map_os_0x0000000044f3c000>:
	...
    44f3c890:	109000c7          	fmsub.s	f1,f0,f9,f2,rne
    44f3c894:	0000                	.insn	2, 0x0000
	...

Disassembly of section .__pagetable_map_os_0x000000004415f000:

000000004415f000 <__pagetable_map_os_0x000000004415f000>:
	...
    4415f290:	3801                	.insn	2, 0x3801
    4415f292:	00000000113f 	.6byte	0x00000000113f

Disassembly of section .__pagetable_map_os_0x0000000044fce000:

0000000044fce000 <__pagetable_map_os_0x0000000044fce000>:
	...
    44fce7a8:	d001                	.insn	2, 0xd001
    44fce7aa:	110e                	.insn	2, 0x110e
    44fce7ac:	0000                	.insn	2, 0x0000
	...

Disassembly of section .__pagetable_map_os_0x00000000443b4000:

00000000443b4000 <__pagetable_map_os_0x00000000443b4000>:
	...
    443b4dd8:	111f98c7          	fmsub.s	f17,f31,f17,f2,rtz
    443b4ddc:	0000                	.insn	2, 0x0000
	...

Disassembly of section .__pagetable_map_os_0x0000000044fe1000:

0000000044fe1000 <__pagetable_map_os_0x0000000044fe1000>:
	...
    44fe1e80:	1001                	.insn	2, 0x1001
    44fe1e82:	0000110b          	.insn	4, 0x110b
	...

Disassembly of section .__pagetable_map_os_0x00000000442c4000:

00000000442c4000 <__pagetable_map_os_0x00000000442c4000>:
	...
    442c4d80:	7c01                	.insn	2, 0x7c01
    442c4d82:	1075                	.insn	2, 0x1075
    442c4d84:	0000                	.insn	2, 0x0000
	...

Disassembly of section .__pagetable_map_os_0x0000000041d5f000:

0000000041d5f000 <__pagetable_map_os_0x0000000041d5f000>:
	...
    41d5f5a8:	10a6ccd3          	fmul.s	f25,f13,f10,rmm
    41d5f5ac:	0000                	.insn	2, 0x0000
	...

Disassembly of section .__pagetable_map_os_0x00000000429b2000:

00000000429b2000 <__pagetable_map_os_0x00000000429b2000>:
	...
    429b2950:	b001                	.insn	2, 0xb001
    429b2952:	110e                	.insn	2, 0x110e
    429b2954:	0000                	.insn	2, 0x0000
	...

Disassembly of section .__pagetable_map_os_0x00000000443ac000:

00000000443ac000 <__pagetable_map_os_0x00000000443ac000>:
	...
    443ac438:	a401                	.insn	2, 0xa401
    443ac43a:	10a5                	.insn	2, 0x10a5
    443ac43c:	0000                	.insn	2, 0x0000
	...

Disassembly of section .__pagetable_map_os_0x0000000042969000:

0000000042969000 <__pagetable_map_os_0x0000000042969000>:
	...
    42969690:	113d14cf          	fnmadd.s	f9,f26,f19,f2,rtz
    42969694:	0000                	.insn	2, 0x0000
	...

Disassembly of section .__pagetable_map_os_0x000000004427b000:

000000004427b000 <__pagetable_map_os_0x000000004427b000>:
	...
    4427b950:	f001                	.insn	2, 0xf001
    4427b952:	1140                	.insn	2, 0x1140
    4427b954:	0000                	.insn	2, 0x0000
	...

Disassembly of section .__pagetable_map_os_0x000000004503c000:

000000004503c000 <__pagetable_map_os_0x000000004503c000>:
	...
    4503c1a8:	6801                	.insn	2, 0x6801
    4503c1aa:	1058                	.insn	2, 0x1058
    4503c1ac:	0000                	.insn	2, 0x0000
	...

Disassembly of section .__pagetable_map_os_0x000000004161a000:

000000004161a000 <__pagetable_map_os_0x000000004161a000>:
	...
    4161aa98:	113d20c7          	fmsub.s	f1,f26,f19,f2,rdn
    4161aa9c:	0000                	.insn	2, 0x0000
	...

Disassembly of section .__pagetable_map_os_0x0000000044fef000:

0000000044fef000 <__pagetable_map_os_0x0000000044fef000>:
	...
    44fefa48:	c001                	.insn	2, 0xc001
    44fefa4a:	00000000113f 	.6byte	0x00000000113f

Disassembly of section .__pagetable_map_os_0x0000000044ff0000:

0000000044ff0000 <__pagetable_map_os_0x0000000044ff0000>:
	...
    44ff0e50:	0c01                	.insn	2, 0x0c01
    44ff0e52:	113d                	.insn	2, 0x113d
    44ff0e54:	0000                	.insn	2, 0x0000
	...

Disassembly of section .__pagetable_map_os_0x0000000044f43000:

0000000044f43000 <__pagetable_map_os_0x0000000044f43000>:
	...
    44f43a28:	112e88c7          	fmsub.s	f17,f29,f18,f2,rne
    44f43a2c:	0000                	.insn	2, 0x0000
	...

Disassembly of section .__pagetable_map_os_0x00000000413ce000:

00000000413ce000 <__pagetable_map_os_0x00000000413ce000>:
	...
    413cec58:	b401                	.insn	2, 0xb401
    413cec5a:	10da                	.insn	2, 0x10da
    413cec5c:	0000                	.insn	2, 0x0000
	...

Disassembly of section .__pagetable_map_os_0x00000000436ad000:

00000000436ad000 <__pagetable_map_os_0x00000000436ad000>:
	...
    436ad180:	7401                	.insn	2, 0x7401
    436ad182:	1101                	.insn	2, 0x1101
    436ad184:	0000                	.insn	2, 0x0000
	...

Disassembly of section .__pagetable_map_os_0x000000004405d000:

000000004405d000 <__pagetable_map_os_0x000000004405d000>:
	...
    4405d988:	105c04c7          	fmsub.s	f9,f24,f5,f2,rne
    4405d98c:	0000                	.insn	2, 0x0000
	...

Disassembly of section .__pagetable_map_os_0x0000000044b83000:

0000000044b83000 <__pagetable_map_os_0x0000000044b83000>:
	...
    44b83358:	d801                	.insn	2, 0xd801
    44b8335a:	0000113b          	sllw	x2,x0,x0
	...

Disassembly of section .__pagetable_map_os_0x0000000044ef6000:

0000000044ef6000 <__pagetable_map_os_0x0000000044ef6000>:
	...
    44ef6730:	9001                	.insn	2, 0x9001
    44ef6732:	1108                	.insn	2, 0x1108
    44ef6734:	0000                	.insn	2, 0x0000
	...

Disassembly of section .__pagetable_map_os_0x0000000044224000:

0000000044224000 <__pagetable_map_os_0x0000000044224000>:
	...
    442240c0:	105fbcc7          	fmsub.s	f25,f31,f5,f2,rup
    442240c4:	0000                	.insn	2, 0x0000
	...

Disassembly of section .__pagetable_map_os_0x0000000044dd3000:

0000000044dd3000 <__pagetable_map_os_0x0000000044dd3000>:
	...
    44dd3300:	ac01                	.insn	2, 0xac01
    44dd3302:	113e                	.insn	2, 0x113e
    44dd3304:	0000                	.insn	2, 0x0000
	...

Disassembly of section .__pagetable_map_os_0x0000000044fab000:

0000000044fab000 <__pagetable_map_os_0x0000000044fab000>:
	...
    44fab560:	e001                	.insn	2, 0xe001
    44fab562:	1140                	.insn	2, 0x1140
    44fab564:	0000                	.insn	2, 0x0000
	...

Disassembly of section .__pagetable_map_os_0x0000000045038000:

0000000045038000 <__pagetable_map_os_0x0000000045038000>:
	...
    45038458:	113c28c7          	fmsub.s	f17,f24,f19,f2,rdn
    4503845c:	0000                	.insn	2, 0x0000
	...

Disassembly of section .__pagetable_map_os_0x00000000447f9000:

00000000447f9000 <__pagetable_map_os_0x00000000447f9000>:
	...
    447f94d8:	5001                	.insn	2, 0x5001
    447f94da:	108d                	.insn	2, 0x108d
    447f94dc:	0000                	.insn	2, 0x0000
	...

Disassembly of section .__pagetable_map_os_0x0000000042354000:

0000000042354000 <__pagetable_map_os_0x0000000042354000>:
	...
    42354da8:	c001                	.insn	2, 0xc001
    42354daa:	110e                	.insn	2, 0x110e
    42354dac:	0000                	.insn	2, 0x0000
	...

Disassembly of section .__pagetable_map_os_0x00000000443b0000:

00000000443b0000 <__pagetable_map_os_0x00000000443b0000>:
	...
    443b0918:	112f48c7          	fmsub.s	f17,f30,f18,f2,rmm
    443b091c:	0000                	.insn	2, 0x0000
	...

Disassembly of section .__pagetable_map_os_0x0000000044cfd000:

0000000044cfd000 <__pagetable_map_os_0x0000000044cfd000>:
	...
    44cfde50:	e401                	.insn	2, 0xe401
    44cfde52:	1140                	.insn	2, 0x1140
    44cfde54:	0000                	.insn	2, 0x0000
	...

Disassembly of section .__pagetable_map_os_0x0000000045039000:

0000000045039000 <__pagetable_map_os_0x0000000045039000>:
	...
    45039c30:	1801                	.insn	2, 0x1801
    45039c32:	112e                	.insn	2, 0x112e
    45039c34:	0000                	.insn	2, 0x0000
	...

Disassembly of section .__pagetable_map_os_0x0000000044b86000:

0000000044b86000 <__pagetable_map_os_0x0000000044b86000>:
	...
    44b86360:	113d5cc7          	fmsub.s	f25,f26,f19,f2,unknown
    44b86364:	0000                	.insn	2, 0x0000
	...

Disassembly of section .__pagetable_map_os_0x0000000044165000:

0000000044165000 <__pagetable_map_os_0x0000000044165000>:
	...
    44165848:	a801                	.insn	2, 0xa801
    4416584a:	105a                	.insn	2, 0x105a
    4416584c:	0000                	.insn	2, 0x0000
	...

Disassembly of section .__pagetable_map_os_0x00000000416aa000:

00000000416aa000 <__pagetable_map_os_0x00000000416aa000>:
	...
    416aacd0:	2001                	.insn	2, 0x2001
    416aacd2:	113a                	.insn	2, 0x113a
    416aacd4:	0000                	.insn	2, 0x0000
	...

Disassembly of section .__pagetable_map_os_0x0000000044e88000:

0000000044e88000 <__pagetable_map_os_0x0000000044e88000>:
	...
    44e88cf8:	10a674c7          	fmsub.s	f9,f12,f10,f2
    44e88cfc:	0000                	.insn	2, 0x0000
	...

Disassembly of section .__pagetable_map_os_0x0000000044382000:

0000000044382000 <__pagetable_map_os_0x0000000044382000>:
	...
    44382ce8:	1001                	.insn	2, 0x1001
    44382cea:	1058                	.insn	2, 0x1058
    44382cec:	0000                	.insn	2, 0x0000
	...

Disassembly of section .__pagetable_map_os_0x0000000041604000:

0000000041604000 <__pagetable_map_os_0x0000000041604000>:
	...
    41604998:	4c01                	.insn	2, 0x4c01
    4160499a:	0000113b          	sllw	x2,x0,x0
	...

Disassembly of section .__pagetable_map_os_0x0000000044ed3000:

0000000044ed3000 <__pagetable_map_os_0x0000000044ed3000>:
	...
    44ed3ec0:	111fb0c7          	fmsub.s	f1,f31,f17,f2,rup
    44ed3ec4:	0000                	.insn	2, 0x0000
	...

Disassembly of section .__pagetable_map_os_0x0000000044387000:

0000000044387000 <__pagetable_map_os_0x0000000044387000>:
	...
    44387f00:	ec01                	.insn	2, 0xec01
    44387f02:	110e                	.insn	2, 0x110e
    44387f04:	0000                	.insn	2, 0x0000
	...

Disassembly of section .__pagetable_map_os_0x00000000443bb000:

00000000443bb000 <__pagetable_map_os_0x00000000443bb000>:
	...
    443bbe18:	8c01                	.insn	2, 0x8c01
    443bbe1a:	110e                	.insn	2, 0x110e
    443bbe1c:	0000                	.insn	2, 0x0000
	...

Disassembly of section .__pagetable_map_os_0x00000000443a3000:

00000000443a3000 <__pagetable_map_os_0x00000000443a3000>:
	...
    443a3ef0:	110578cf          	fnmadd.s	f17,f10,f16,f2
    443a3ef4:	0000                	.insn	2, 0x0000
	...

Disassembly of section .__pagetable_map_os_0x0000000044eab000:

0000000044eab000 <__pagetable_map_os_0x0000000044eab000>:
	...
    44eabcf8:	8401                	.insn	2, 0x8401
    44eabcfa:	10e5                	.insn	2, 0x10e5
    44eabcfc:	0000                	.insn	2, 0x0000
	...

Disassembly of section .__pagetable_map_os_0x0000000043961000:

0000000043961000 <__pagetable_map_os_0x0000000043961000>:
	...
    43961c60:	7c01                	.insn	2, 0x7c01
    43961c62:	10a6                	.insn	2, 0x10a6
    43961c64:	0000                	.insn	2, 0x0000
	...

Disassembly of section .__pagetable_map_os_0x000000004299f000:

000000004299f000 <__pagetable_map_os_0x000000004299f000>:
	...
    4299ff68:	113d24cf          	fnmadd.s	f9,f26,f19,f2,rdn
    4299ff6c:	0000                	.insn	2, 0x0000
	...

Disassembly of section .__pagetable_map_os_0x0000000044406000:

0000000044406000 <__pagetable_map_os_0x0000000044406000>:
	...
    44406068:	dc01                	.insn	2, 0xdc01
    4440606a:	111f 0000 0000      	.insn	6, 0x111f

Disassembly of section .__pagetable_map_os_0x00000000447f7000:

00000000447f7000 <__pagetable_map_os_0x00000000447f7000>:
	...
    447f7170:	e401                	.insn	2, 0xe401
    447f7172:	00001113          	slli	x2,x0,0x0
	...

Disassembly of section .__pagetable_map_os_0x00000000444f9000:

00000000444f9000 <__pagetable_map_os_0x00000000444f9000>:
	...
    444f9750:	105818cf          	fnmadd.s	f17,f16,f5,f2,rtz
    444f9754:	0000                	.insn	2, 0x0000
	...

Disassembly of section .__pagetable_map_os_0x0000000044168000:

0000000044168000 <__pagetable_map_os_0x0000000044168000>:
	...
    44168e00:	c801                	.insn	2, 0xc801
    44168e02:	105f 0000 0000      	.insn	6, 0x105f
	...
    44168ff0:	0001                	.insn	2, 0x0001
    44168ff2:	113d                	.insn	2, 0x113d
    44168ff4:	0000                	.insn	2, 0x0000
	...

Disassembly of section .__pagetable_map_os_0x00000000417f2000:

00000000417f2000 <__pagetable_map_os_0x00000000417f2000>:
	...
    417f2768:	0801                	.insn	2, 0x0801
    417f276a:	113d                	.insn	2, 0x113d
    417f276c:	0000                	.insn	2, 0x0000
	...

Disassembly of section .__pagetable_map_os_0x0000000044f42000:

0000000044f42000 <__pagetable_map_os_0x0000000044f42000>:
	...
    44f42f98:	9c01                	.insn	2, 0x9c01
    44f42f9a:	00000000113f 	.6byte	0x00000000113f

Disassembly of section .__pagetable_map_os_0x0000000044fe7000:

0000000044fe7000 <__pagetable_map_os_0x0000000044fe7000>:
	...
    44fe7548:	113c2ccf          	fnmadd.s	f25,f24,f19,f2,rdn
    44fe754c:	0000                	.insn	2, 0x0000
	...

Disassembly of section .__pagetable_map_os_0x0000000044f40000:

0000000044f40000 <__pagetable_map_os_0x0000000044f40000>:
	...
    44f40510:	9801                	.insn	2, 0x9801
    44f40512:	106a                	.insn	2, 0x106a
	...
    44f408f0:	2c01                	.insn	2, 0x2c01
    44f408f2:	106e                	.insn	2, 0x106e
    44f408f4:	0000                	.insn	2, 0x0000
	...

Disassembly of section .__pagetable_map_os_0x0000000041aa6000:

0000000041aa6000 <__pagetable_map_os_0x0000000041aa6000>:
	...
    41aa6990:	7801                	.insn	2, 0x7801
    41aa6992:	1135                	.insn	2, 0x1135
    41aa6994:	0000                	.insn	2, 0x0000
	...

Disassembly of section .__pagetable_map_os_0x0000000044d5e000:

0000000044d5e000 <__pagetable_map_os_0x0000000044d5e000>:
	...
    44d5e238:	113c20cf          	fnmadd.s	f1,f24,f19,f2,rdn
    44d5e23c:	0000                	.insn	2, 0x0000
	...

Disassembly of section .__pagetable_map_os_0x0000000041b8b000:

0000000041b8b000 <__pagetable_map_os_0x0000000041b8b000>:
	...
    41b8b398:	f401                	.insn	2, 0xf401
    41b8b39a:	0000105b          	.insn	4, 0x105b
	...

Disassembly of section .__pagetable_map_os_0x00000000416fd000:

00000000416fd000 <__pagetable_map_os_0x00000000416fd000>:
	...
    416fdd58:	110e94cf          	fnmadd.s	f9,f29,f16,f2,rtz
    416fdd5c:	0000                	.insn	2, 0x0000
	...

Disassembly of section .__pagetable_map_os_0x0000000044f35000:

0000000044f35000 <__pagetable_map_os_0x0000000044f35000>:
	...
    44f35eb8:	a001                	.insn	2, 0xa001
    44f35eba:	111f 0000 0000      	.insn	6, 0x111f

Disassembly of section .__pagetable_map_os_0x00000000447e8000:

00000000447e8000 <__pagetable_map_os_0x00000000447e8000>:
	...
    447e83a0:	ac01                	.insn	2, 0xac01
    447e83a2:	10b9                	.insn	2, 0x10b9
    447e83a4:	0000                	.insn	2, 0x0000
	...

Disassembly of section .__pagetable_map_os_0x0000000042e6b000:

0000000042e6b000 <__pagetable_map_os_0x0000000042e6b000>:
	...
    42e6b738:	7001                	.insn	2, 0x7001
    42e6b73a:	108d                	.insn	2, 0x108d
    42e6b73c:	0000                	.insn	2, 0x0000
	...

Disassembly of section .__pagetable_map_os_0x000000004235c000:

000000004235c000 <__pagetable_map_os_0x000000004235c000>:
	...
    4235c318:	112ddccb          	fnmsub.s	f25,f27,f18,f2,unknown
    4235c31c:	0000                	.insn	2, 0x0000
	...

Disassembly of section .__pagetable_map_os_0x0000000044bd0000:

0000000044bd0000 <__pagetable_map_os_0x0000000044bd0000>:
    44bd0000:	d801                	.insn	2, 0xd801
    44bd0002:	1140                	.insn	2, 0x1140
    44bd0004:	0000                	.insn	2, 0x0000
	...

Disassembly of section .__pagetable_map_os_0x0000000045036000:

0000000045036000 <__pagetable_map_os_0x0000000045036000>:
    45036000:	c001                	.insn	2, 0xc001
    45036002:	1105                	.insn	2, 0x1105
    45036004:	0000                	.insn	2, 0x0000
	...

Disassembly of section .__pagetable_map_os_0x0000000044170000:

0000000044170000 <__pagetable_map_os_0x0000000044170000>:
    44170000:	107800cf          	fnmadd.s	f1,f16,f7,f2,rne
    44170004:	0000                	.insn	2, 0x0000
	...

Disassembly of section .__pagetable_map_os_0x0000000044efd000:

0000000044efd000 <__pagetable_map_os_0x0000000044efd000>:
    44efd000:	a801                	.insn	2, 0xa801
    44efd002:	111f 0000 0000      	.insn	6, 0x111f

Disassembly of section .__pagetable_map_os_0x00000000447ea000:

00000000447ea000 <__pagetable_map_os_0x00000000447ea000>:
    447ea000:	a801                	.insn	2, 0xa801
    447ea002:	1105                	.insn	2, 0x1105
    447ea004:	0000                	.insn	2, 0x0000
	...

Disassembly of section .__pagetable_map_os_0x000000004416a000:

000000004416a000 <__pagetable_map_os_0x000000004416a000>:
    4416a000:	7801                	.insn	2, 0x7801
    4416a002:	1105                	.insn	2, 0x1105
    4416a004:	0000                	.insn	2, 0x0000
	...

Disassembly of section .__pagetable_map_os_0x000000004415e000:

000000004415e000 <__pagetable_map_os_0x000000004415e000>:
    4415e000:	b0c2                	.insn	2, 0xb0c2
    4415e002:	1074                	.insn	2, 0x1074
    4415e004:	0000                	.insn	2, 0x0000
	...

Disassembly of section .__pagetable_map_os_0x00000000422bb000:

00000000422bb000 <__pagetable_map_os_0x00000000422bb000>:
    422bb000:	2001                	.insn	2, 0x2001
    422bb002:	1134                	.insn	2, 0x1134
    422bb004:	0000                	.insn	2, 0x0000
	...

Disassembly of section .__pagetable_map_os_0x0000000044d08000:

0000000044d08000 <__pagetable_map_os_0x0000000044d08000>:
    44d08000:	8001                	.insn	2, 0x8001
    44d08002:	10a6                	.insn	2, 0x10a6
    44d08004:	0000                	.insn	2, 0x0000
	...

Disassembly of section .__pagetable_map_os_0x00000000429a0000:

00000000429a0000 <__pagetable_map_os_0x00000000429a0000>:
    429a0000:	3801                	.insn	2, 0x3801
    429a0002:	113a                	.insn	2, 0x113a
    429a0004:	0000                	.insn	2, 0x0000
	...

Disassembly of section .__pagetable_map_os_0x0000000044e8e000:

0000000044e8e000 <__pagetable_map_os_0x0000000044e8e000>:
    44e8e000:	04c5                	.insn	2, 0x04c5
    44e8e002:	113d                	.insn	2, 0x113d
    44e8e004:	0000                	.insn	2, 0x0000
	...

Disassembly of section .__pagetable_map_os_0x0000000044efb000:

0000000044efb000 <__pagetable_map_os_0x0000000044efb000>:
    44efb000:	3801                	.insn	2, 0x3801
    44efb002:	105d                	.insn	2, 0x105d
    44efb004:	0000                	.insn	2, 0x0000
	...

Disassembly of section .__pagetable_map_os_0x000000004174e000:

000000004174e000 <__pagetable_map_os_0x000000004174e000>:
    4174e000:	b401                	.insn	2, 0xb401
    4174e002:	111f 0000 0000      	.insn	6, 0x111f

Disassembly of section .__pagetable_map_os_0x00000000447ed000:

00000000447ed000 <__pagetable_map_os_0x00000000447ed000>:
    447ed000:	9401                	.insn	2, 0x9401
    447ed002:	110e                	.insn	2, 0x110e
    447ed004:	0000                	.insn	2, 0x0000
	...

Disassembly of section .__pagetable_map_os_0x00000000443a5000:

00000000443a5000 <__pagetable_map_os_0x00000000443a5000>:
    443a5000:	24c9                	.insn	2, 0x24c9
    443a5002:	113c                	.insn	2, 0x113c
    443a5004:	0000                	.insn	2, 0x0000
	...

Disassembly of section .__pagetable_map_os_0x00000000423d5000:

00000000423d5000 <__pagetable_map_os_0x00000000423d5000>:
	...
    423d54e0:	e001                	.insn	2, 0xe001
    423d54e2:	0000105b          	.insn	4, 0x105b
	...

Disassembly of section .__pagetable_map_os_0x00000000416f8000:

00000000416f8000 <__pagetable_map_os_0x00000000416f8000>:
	...
    416f81c8:	f801                	.insn	2, 0xf801
    416f81ca:	00000000113f 	.6byte	0x00000000113f

Disassembly of section .__pagetable_map_os_0x0000000044ffe000:

0000000044ffe000 <__pagetable_map_os_0x0000000044ffe000>:
	...
    44ffea40:	0401                	.insn	2, 0x0401
    44ffea42:	112e                	.insn	2, 0x112e
    44ffea44:	0000                	.insn	2, 0x0000
	...

Disassembly of section .__pagetable_map_os_0x0000000044b81000:

0000000044b81000 <__pagetable_map_os_0x0000000044b81000>:
	...
    44b81088:	113cf4c3          	fmadd.s	f9,f25,f19,f2
    44b8108c:	0000                	.insn	2, 0x0000
	...

Disassembly of section .__pagetable_map_os_0x00000000416fc000:

00000000416fc000 <__pagetable_map_os_0x00000000416fc000>:
	...
    416fc450:	4001                	.insn	2, 0x4001
    416fc452:	106a                	.insn	2, 0x106a
    416fc454:	0000                	.insn	2, 0x0000
	...

Disassembly of section .__pagetable_map_os_0x0000000041a90000:

0000000041a90000 <__pagetable_map_os_0x0000000041a90000>:
	...
    41a901f0:	2c01                	.insn	2, 0x2c01
    41a901f2:	00001137          	lui	x2,0x1
	...

Disassembly of section .__pagetable_map_os_0x0000000044dcb000:

0000000044dcb000 <__pagetable_map_os_0x0000000044dcb000>:
	...
    44dcb1a8:	8001                	.insn	2, 0x8001
    44dcb1aa:	110e                	.insn	2, 0x110e
    44dcb1ac:	0000                	.insn	2, 0x0000
	...

Disassembly of section .__pagetable_map_os_0x00000000443a0000:

00000000443a0000 <__pagetable_map_os_0x00000000443a0000>:
	...
    443a0cb0:	111fc0e7          	.insn	4, 0x111fc0e7
    443a0cb4:	0000                	.insn	2, 0x0000
	...

Disassembly of section .__pagetable_map_os_0x0000000044efa000:

0000000044efa000 <__pagetable_map_os_0x0000000044efa000>:
    44efa000:	a401                	.insn	2, 0xa401
    44efa002:	10aa                	.insn	2, 0x10aa
    44efa004:	0000                	.insn	2, 0x0000
	...

Disassembly of section .__pagetable_map_os_0x0000000042aa9000:

0000000042aa9000 <__pagetable_map_os_0x0000000042aa9000>:
    42aa9000:	d801                	.insn	2, 0xd801
    42aa9002:	113e                	.insn	2, 0x113e
    42aa9004:	0000                	.insn	2, 0x0000
	...

Disassembly of section .__pagetable_map_os_0x0000000044fb6000:

0000000044fb6000 <__pagetable_map_os_0x0000000044fb6000>:
    44fb6000:	9401                	.insn	2, 0x9401
    44fb6002:	00000000113f 	.6byte	0x00000000113f

Disassembly of section .__pagetable_map_os_0x0000000044fe5000:

0000000044fe5000 <__pagetable_map_os_0x0000000044fe5000>:
    44fe5000:	113bd0c7          	fmsub.s	f1,f23,f19,f2,unknown
    44fe5004:	0000                	.insn	2, 0x0000
	...

Disassembly of section .__pagetable_map_os_0x00000000423d8000:

00000000423d8000 <__pagetable_map_os_0x00000000423d8000>:
    423d8000:	b401                	.insn	2, 0xb401
    423d8002:	108c                	.insn	2, 0x108c
    423d8004:	0000                	.insn	2, 0x0000
	...

Disassembly of section .__pagetable_map_os_0x000000004232d000:

000000004232d000 <__pagetable_map_os_0x000000004232d000>:
    4232d000:	4c01                	.insn	2, 0x4c01
    4232d002:	1135                	.insn	2, 0x1135
    4232d004:	0000                	.insn	2, 0x0000
	...

Disassembly of section .__pagetable_map_os_0x0000000044d53000:

0000000044d53000 <__pagetable_map_os_0x0000000044d53000>:
    44d53000:	2401                	.insn	2, 0x2401
    44d53002:	113d                	.insn	2, 0x113d
    44d53004:	0000                	.insn	2, 0x0000
	...

Disassembly of section .__pagetable_map_os_0x0000000044f49000:

0000000044f49000 <__pagetable_map_os_0x0000000044f49000>:
    44f49000:	113e98cf          	fnmadd.s	f17,f29,f19,f2,rtz
    44f49004:	0000                	.insn	2, 0x0000
	...

Disassembly of section .__pagetable_map_os_0x00000000413fc000:

00000000413fc000 <__pagetable_map_os_0x00000000413fc000>:
    413fc000:	1401                	.insn	2, 0x1401
    413fc002:	00001133          	sll	x2,x0,x0
	...

Disassembly of section .__pagetable_map_os_0x0000000044cc5000:

0000000044cc5000 <__pagetable_map_os_0x0000000044cc5000>:
    44cc5000:	4001                	.insn	2, 0x4001
    44cc5002:	113a                	.insn	2, 0x113a
    44cc5004:	0000                	.insn	2, 0x0000
	...

Disassembly of section .__pagetable_map_os_0x0000000044e90000:

0000000044e90000 <__pagetable_map_os_0x0000000044e90000>:
    44e90000:	a401                	.insn	2, 0xa401
    44e90002:	105a                	.insn	2, 0x105a
    44e90004:	0000                	.insn	2, 0x0000
	...

Disassembly of section .__pagetable_map_os_0x00000000416a9000:

00000000416a9000 <__pagetable_map_os_0x00000000416a9000>:
    416a9000:	111facc7          	fmsub.s	f25,f31,f17,f2,rdn
    416a9004:	0000                	.insn	2, 0x0000
	...

Disassembly of section .__pagetable_map_os_0x0000000041776000:

0000000041776000 <__pagetable_map_os_0x0000000041776000>:
    41776000:	c801                	.insn	2, 0xc801
    41776002:	111f 0000 0000      	.insn	6, 0x111f

Disassembly of section .__pagetable_map_os_0x00000000447f2000:

00000000447f2000 <__pagetable_map_os_0x00000000447f2000>:
    447f2000:	2801                	.insn	2, 0x2801
    447f2002:	110a                	.insn	2, 0x110a
    447f2004:	0000                	.insn	2, 0x0000
	...

Disassembly of section .__pagetable_map_os_0x000000004428a000:

000000004428a000 <__pagetable_map_os_0x000000004428a000>:
    4428a000:	a801                	.insn	2, 0xa801
    4428a002:	10cc                	.insn	2, 0x10cc
    4428a004:	0000                	.insn	2, 0x0000
	...

Disassembly of section .__pagetable_map_os_0x000000004332a000:

000000004332a000 <__pagetable_map_os_0x000000004332a000>:
    4332a000:	1106d0c7          	fmsub.s	f1,f13,f16,f2,unknown
    4332a004:	0000                	.insn	2, 0x0000
	...

Disassembly of section .__pagetable_map_os_0x0000000044f58000:

0000000044f58000 <__pagetable_map_os_0x0000000044f58000>:
	...
    44f58950:	8801                	.insn	2, 0x8801
    44f58952:	1069                	.insn	2, 0x1069
    44f58954:	0000                	.insn	2, 0x0000
	...

Disassembly of section .__pagetable_map_os_0x0000000041a62000:

0000000041a62000 <__pagetable_map_os_0x0000000041a62000>:
	...
    41a62790:	4001                	.insn	2, 0x4001
    41a62792:	112e                	.insn	2, 0x112e
    41a62794:	0000                	.insn	2, 0x0000
	...

Disassembly of section .__pagetable_map_os_0x0000000044b90000:

0000000044b90000 <__pagetable_map_os_0x0000000044b90000>:
	...
    44b90ee0:	d401                	.insn	2, 0xd401
    44b90ee2:	0000113b          	sllw	x2,x0,x0
	...

Disassembly of section .__pagetable_map_os_0x0000000044ef5000:

0000000044ef5000 <__pagetable_map_os_0x0000000044ef5000>:
	...
    44ef5228:	11407cc7          	fmsub.s	f25,f0,f20,f2
    44ef522c:	0000                	.insn	2, 0x0000
	...

Disassembly of section .__pagetable_map_os_0x0000000041602000:

0000000041602000 <__pagetable_map_os_0x0000000041602000>:
    41602000:	2401                	.insn	2, 0x2401
    41602002:	1131                	.insn	2, 0x1131
    41602004:	0000                	.insn	2, 0x0000
	...

Disassembly of section .__pagetable_map_os_0x0000000044c49000:

0000000044c49000 <__pagetable_map_os_0x0000000044c49000>:
    44c49000:	3c01                	.insn	2, 0x3c01
    44c49002:	113a                	.insn	2, 0x113a
    44c49004:	0000                	.insn	2, 0x0000
	...

Disassembly of section .__pagetable_map_os_0x0000000044e8f000:

0000000044e8f000 <__pagetable_map_os_0x0000000044e8f000>:
    44e8f000:	e401                	.insn	2, 0xe401
    44e8f002:	110e                	.insn	2, 0x110e
    44e8f004:	0000                	.insn	2, 0x0000
	...

Disassembly of section .__pagetable_map_os_0x00000000443b9000:

00000000443b9000 <__pagetable_map_os_0x00000000443b9000>:
    443b9000:	113d18d3          	fmul.s	f17,f26,f19,rtz
    443b9004:	0000                	.insn	2, 0x0000
	...

Disassembly of section .__pagetable_map_os_0x0000000041a7a000:

0000000041a7a000 <__pagetable_map_os_0x0000000041a7a000>:
    41a7a000:	dc01                	.insn	2, 0xdc01
    41a7a002:	105f 0000 0000      	.insn	6, 0x105f

Disassembly of section .__pagetable_map_os_0x00000000417f7000:

00000000417f7000 <__pagetable_map_os_0x00000000417f7000>:
    417f7000:	b801                	.insn	2, 0xb801
    417f7002:	111f 0000 0000      	.insn	6, 0x111f

Disassembly of section .__pagetable_map_os_0x00000000447ee000:

00000000447ee000 <__pagetable_map_os_0x00000000447ee000>:
    447ee000:	bc01                	.insn	2, 0xbc01
    447ee002:	111f 0000 0000      	.insn	6, 0x111f

Disassembly of section .__pagetable_map_os_0x00000000447ef000:

00000000447ef000 <__pagetable_map_os_0x00000000447ef000>:
    447ef000:	111fccc7          	fmsub.s	f25,f31,f17,f2,rmm
    447ef004:	0000                	.insn	2, 0x0000
	...

Disassembly of section .__pagetable_map_os_0x0000000044c87000:

0000000044c87000 <__pagetable_map_os_0x0000000044c87000>:
    44c87000:	1c01                	.insn	2, 0x1c01
    44c87002:	1058                	.insn	2, 0x1058
    44c87004:	0000                	.insn	2, 0x0000
	...

Disassembly of section .__pagetable_map_os_0x0000000041607000:

0000000041607000 <__pagetable_map_os_0x0000000041607000>:
    41607000:	9c01                	.insn	2, 0x9c01
    41607002:	112e                	.insn	2, 0x112e
    41607004:	0000                	.insn	2, 0x0000
	...

Disassembly of section .__pagetable_map_os_0x0000000044ba7000:

0000000044ba7000 <__pagetable_map_os_0x0000000044ba7000>:
    44ba7000:	8801                	.insn	2, 0x8801
    44ba7002:	111c                	.insn	2, 0x111c
    44ba7004:	0000                	.insn	2, 0x0000
	...

Disassembly of section .__pagetable_map_os_0x0000000044722000:

0000000044722000 <__pagetable_map_os_0x0000000044722000>:
    44722000:	105fd4e7          	.insn	4, 0x105fd4e7
    44722004:	0000                	.insn	2, 0x0000
	...

Disassembly of section .__pagetable_map_os_0x000000004503e000:

000000004503e000 <__pagetable_map_os_0x000000004503e000>:
    4503e000:	dc01                	.insn	2, 0xdc01
    4503e002:	113c                	.insn	2, 0x113c
    4503e004:	0000                	.insn	2, 0x0000
	...

Disassembly of section .__pagetable_map_os_0x0000000044f37000:

0000000044f37000 <__pagetable_map_os_0x0000000044f37000>:
    44f37000:	c801                	.insn	2, 0xc801
    44f37002:	105a                	.insn	2, 0x105a
    44f37004:	0000                	.insn	2, 0x0000
	...

Disassembly of section .__pagetable_map_os_0x00000000416b2000:

00000000416b2000 <__pagetable_map_os_0x00000000416b2000>:
    416b2000:	0401                	.insn	2, 0x0401
    416b2002:	110e                	.insn	2, 0x110e
    416b2004:	0000                	.insn	2, 0x0000
	...

Disassembly of section .__pagetable_map_os_0x0000000044381000:

0000000044381000 <__pagetable_map_os_0x0000000044381000>:
    44381000:	11134cc7          	fmsub.s	f25,f6,f17,f2,rmm
    44381004:	0000                	.insn	2, 0x0000
	...

Disassembly of section .__pagetable_map_os_0x0000000044f4f000:

0000000044f4f000 <__pagetable_map_os_0x0000000044f4f000>:
    44f4f000:	5401                	.insn	2, 0x5401
    44f4f002:	113d                	.insn	2, 0x113d
    44f4f004:	0000                	.insn	2, 0x0000
	...

Disassembly of section .__pagetable_map_os_0x0000000044f55000:

0000000044f55000 <__pagetable_map_os_0x0000000044f55000>:
    44f55000:	8801                	.insn	2, 0x8801
    44f55002:	1134                	.insn	2, 0x1134
    44f55004:	0000                	.insn	2, 0x0000
	...

Disassembly of section .__pagetable_map_os_0x0000000044d22000:

0000000044d22000 <__pagetable_map_os_0x0000000044d22000>:
    44d22000:	1801                	.insn	2, 0x1801
    44d22002:	1058                	.insn	2, 0x1058
    44d22004:	0000                	.insn	2, 0x0000
	...

Disassembly of section .__pagetable_map_os_0x0000000041606000:

0000000041606000 <__pagetable_map_os_0x0000000041606000>:
    41606000:	110580c7          	fmsub.s	f1,f11,f16,f2,rne
    41606004:	0000                	.insn	2, 0x0000
	...

Disassembly of section .__pagetable_map_os_0x0000000042925000:

0000000042925000 <__pagetable_map_os_0x0000000042925000>:
    42925000:	c801                	.insn	2, 0xc801
    42925002:	105d                	.insn	2, 0x105d
    42925004:	0000                	.insn	2, 0x0000
	...

Disassembly of section .__pagetable_map_os_0x0000000041772000:

0000000041772000 <__pagetable_map_os_0x0000000041772000>:
    41772000:	8801                	.insn	2, 0x8801
    41772002:	1105                	.insn	2, 0x1105
    41772004:	0000                	.insn	2, 0x0000
	...

Disassembly of section .__pagetable_map_os_0x0000000044162000:

0000000044162000 <__pagetable_map_os_0x0000000044162000>:
    44162000:	6401                	.insn	2, 0x6401
    44162002:	113c                	.insn	2, 0x113c
    44162004:	0000                	.insn	2, 0x0000
	...

Disassembly of section .__pagetable_map_os_0x0000000044f19000:

0000000044f19000 <__pagetable_map_os_0x0000000044f19000>:
    44f19000:	113cf8e7          	.insn	4, 0x113cf8e7
    44f19004:	0000                	.insn	2, 0x0000
	...

Disassembly of section .__pagetable_map_os_0x0000000044fd5000:

0000000044fd5000 <__pagetable_map_os_0x0000000044fd5000>:
    44fd5000:	c401                	.insn	2, 0xc401
    44fd5002:	1084                	.insn	2, 0x1084
    44fd5004:	0000                	.insn	2, 0x0000
	...

Disassembly of section .__pagetable_map_os_0x0000000042131000:

0000000042131000 <__pagetable_map_os_0x0000000042131000>:
    42131000:	d001                	.insn	2, 0xd001
    42131002:	1069                	.insn	2, 0x1069
    42131004:	0000                	.insn	2, 0x0000
	...

Disassembly of section .__pagetable_map_os_0x0000000041a74000:

0000000041a74000 <__pagetable_map_os_0x0000000041a74000>:
    41a74000:	ec01                	.insn	2, 0xec01
    41a74002:	1134                	.insn	2, 0x1134
    41a74004:	0000                	.insn	2, 0x0000
	...

Disassembly of section .__pagetable_map_os_0x0000000044d3b000:

0000000044d3b000 <__pagetable_map_os_0x0000000044d3b000>:
    44d3b000:	111fa4c7          	fmsub.s	f9,f31,f17,f2,rdn
    44d3b004:	0000                	.insn	2, 0x0000
	...

Disassembly of section .__pagetable_map_os_0x0000000044c8e000:

0000000044c8e000 <__pagetable_map_os_0x0000000044c8e000>:
    44c8e000:	1801                	.insn	2, 0x1801
    44c8e002:	110a                	.insn	2, 0x110a
    44c8e004:	0000                	.insn	2, 0x0000
	...

Disassembly of section .__pagetable_map_os_0x0000000044286000:

0000000044286000 <__pagetable_map_os_0x0000000044286000>:
    44286000:	6001                	.insn	2, 0x6001
    44286002:	1132                	.insn	2, 0x1132
    44286004:	0000                	.insn	2, 0x0000
	...

Disassembly of section .__pagetable_map_os_0x0000000044c98000:

0000000044c98000 <__pagetable_map_os_0x0000000044c98000>:
    44c98000:	9001                	.insn	2, 0x9001
    44c98002:	113c                	.insn	2, 0x113c
    44c98004:	0000                	.insn	2, 0x0000
	...

Disassembly of section .__pagetable_map_os_0x0000000044f24000:

0000000044f24000 <__pagetable_map_os_0x0000000044f24000>:
    44f24000:	113d10c7          	fmsub.s	f1,f26,f19,f2,rtz
    44f24004:	0000                	.insn	2, 0x0000
	...

Disassembly of section .__pagetable_map_os_0x0000000044ef8000:

0000000044ef8000 <__pagetable_map_os_0x0000000044ef8000>:
    44ef8000:	4c01                	.insn	2, 0x4c01
    44ef8002:	113d                	.insn	2, 0x113d
    44ef8004:	0000                	.insn	2, 0x0000
	...

Disassembly of section .__pagetable_map_os_0x0000000044f53000:

0000000044f53000 <__pagetable_map_os_0x0000000044f53000>:
    44f53000:	e401                	.insn	2, 0xe401
    44f53002:	112d                	.insn	2, 0x112d
    44f53004:	0000                	.insn	2, 0x0000
	...

Disassembly of section .__pagetable_map_os_0x0000000044b79000:

0000000044b79000 <__pagetable_map_os_0x0000000044b79000>:
    44b79000:	d801                	.insn	2, 0xd801
    44b79002:	112e                	.insn	2, 0x112e
    44b79004:	0000                	.insn	2, 0x0000
	...

Disassembly of section .__pagetable_map_os_0x0000000044bb6000:

0000000044bb6000 <__pagetable_map_os_0x0000000044bb6000>:
    44bb6000:	113d28c3          	fmadd.s	f17,f26,f19,f2,rdn
    44bb6004:	0000                	.insn	2, 0x0000
	...

Disassembly of section .__pagetable_map_os_0x000000004299e000:

000000004299e000 <__pagetable_map_os_0x000000004299e000>:
    4299e000:	6001                	.insn	2, 0x6001
    4299e002:	1075                	.insn	2, 0x1075
    4299e004:	0000                	.insn	2, 0x0000
	...

Disassembly of section .__pagetable_map_os_0x0000000041d58000:

0000000041d58000 <__pagetable_map_os_0x0000000041d58000>:
    41d58000:	a401                	.insn	2, 0xa401
    41d58002:	00000000113f 	.6byte	0x00000000113f

Disassembly of section .__pagetable_map_os_0x0000000044fe9000:

0000000044fe9000 <__pagetable_map_os_0x0000000044fe9000>:
    44fe9000:	10e800c3          	fmadd.s	f1,f16,f14,f2,rne
    44fe9004:	0000                	.insn	2, 0x0000
	...

Disassembly of section .__pagetable_map_os_0x000000004437b000:

000000004437b000 <__pagetable_map_os_0x000000004437b000>:
    4437b000:	2c01                	.insn	2, 0x2c01
    4437b002:	110e                	.insn	2, 0x110e
    4437b004:	0000                	.insn	2, 0x0000
	...

Disassembly of section .__pagetable_map_os_0x000000004438b000:

000000004438b000 <__pagetable_map_os_0x000000004438b000>:
    4438b000:	9001                	.insn	2, 0x9001
    4438b002:	1109                	.insn	2, 0x1109
    4438b004:	0000                	.insn	2, 0x0000
	...

Disassembly of section .__pagetable_map_os_0x0000000044264000:

0000000044264000 <__pagetable_map_os_0x0000000044264000>:
    44264000:	e801                	.insn	2, 0xe801
    44264002:	110e                	.insn	2, 0x110e
    44264004:	0000                	.insn	2, 0x0000
	...

Disassembly of section .__pagetable_map_os_0x00000000443ba000:

00000000443ba000 <__pagetable_map_os_0x00000000443ba000>:
    443ba000:	113d48c7          	fmsub.s	f17,f26,f19,f2,rmm
    443ba004:	0000                	.insn	2, 0x0000
	...

Disassembly of section .__pagetable_map_os_0x0000000042357000:

0000000042357000 <__pagetable_map_os_0x0000000042357000>:
    42357000:	ec01                	.insn	2, 0xec01
    42357002:	0000110b          	.insn	4, 0x110b
	...

Disassembly of section .__pagetable_map_os_0x00000000442fb000:

00000000442fb000 <__pagetable_map_os_0x00000000442fb000>:
    442fb000:	1001                	.insn	2, 0x1001
    442fb002:	10a5                	.insn	2, 0x10a5
    442fb004:	0000                	.insn	2, 0x0000
	...

Disassembly of section .__pagetable_map_os_0x0000000042944000:

0000000042944000 <__pagetable_map_os_0x0000000042944000>:
    42944000:	105000c7          	fmsub.s	f1,f0,f5,f2,rne
    42944004:	0000                	.insn	2, 0x0000
	...

Disassembly of section .__pagetable_map_os_0x0000000042358000:

0000000042358000 <__pagetable_map_os_0x0000000042358000>:
	...
    42358c00:	e801                	.insn	2, 0xe801
    42358c02:	0000113f 00000000 	.insn	8, 0x113f
	...
    42358fce:	0000                	.insn	2, 0x0000
    42358fd0:	d001                	.insn	2, 0xd001
    42358fd2:	1108                	.insn	2, 0x1108
    42358fd4:	0000                	.insn	2, 0x0000
	...

Disassembly of section .__pagetable_map_os_0x0000000044ffa000:

0000000044ffa000 <__pagetable_map_os_0x0000000044ffa000>:
	...
    44ffa1b8:	1401                	.insn	2, 0x1401
    44ffa1ba:	00000000113f 	.6byte	0x00000000113f

Disassembly of section .__pagetable_map_os_0x0000000044fc5000:

0000000044fc5000 <__pagetable_map_os_0x0000000044fc5000>:
	...
    44fc50c0:	10f000cb          	fnmsub.s	f1,f0,f15,f2,rne
    44fc50c4:	0000                	.insn	2, 0x0000
	...

Disassembly of section .__pagetable_map_os_0x0000000044234000:

0000000044234000 <__pagetable_map_os_0x0000000044234000>:
	...
    44234098:	f001                	.insn	2, 0xf001
    4423409a:	113d                	.insn	2, 0x113d
    4423409c:	0000                	.insn	2, 0x0000
	...

Disassembly of section .__pagetable_map_os_0x0000000044f7c000:

0000000044f7c000 <__pagetable_map_os_0x0000000044f7c000>:
	...
    44f7caf0:	6001                	.insn	2, 0x6001
    44f7caf2:	113c                	.insn	2, 0x113c
    44f7caf4:	0000                	.insn	2, 0x0000
	...

Disassembly of section .__pagetable_map_os_0x0000000044f18000:

0000000044f18000 <__pagetable_map_os_0x0000000044f18000>:
	...
    44f18068:	1134eccf          	fnmadd.s	f25,f9,f19,f2,unknown
    44f1806c:	0000                	.insn	2, 0x0000
	...

Disassembly of section .__pagetable_map_os_0x0000000044182000:

0000000044182000 <__pagetable_map_os_0x0000000044182000>:
	...
    44182cb0:	7801                	.insn	2, 0x7801
    44182cb2:	106a                	.insn	2, 0x106a
    44182cb4:	0000                	.insn	2, 0x0000
	...

Disassembly of section .__pagetable_map_os_0x0000000041a9e000:

0000000041a9e000 <__pagetable_map_os_0x0000000041a9e000>:
	...
    41a9e1b8:	a001                	.insn	2, 0xa001
    41a9e1ba:	00000000113f 	.6byte	0x00000000113f

Disassembly of section .__pagetable_map_os_0x0000000044fe8000:

0000000044fe8000 <__pagetable_map_os_0x0000000044fe8000>:
	...
    44fe8920:	8401                	.insn	2, 0x8401
    44fe8922:	111c                	.insn	2, 0x111c
    44fe8924:	0000                	.insn	2, 0x0000
	...

Disassembly of section .__pagetable_map_os_0x0000000044721000:

0000000044721000 <__pagetable_map_os_0x0000000044721000>:
	...
    44721b18:	10e5e4c7          	fmsub.s	f9,f11,f14,f2,unknown
    44721b1c:	0000                	.insn	2, 0x0000
	...

Disassembly of section .__pagetable_map_os_0x0000000041a95000:

0000000041a95000 <__pagetable_map_os_0x0000000041a95000>:
	...
    41a95ff8:	fc01                	.insn	2, 0xfc01
    41a95ffa:	1140                	.insn	2, 0x1140
    41a95ffc:	0000                	.insn	2, 0x0000
	...

Disassembly of section .__pagetable_map_os_0x000000004503f000:

000000004503f000 <__pagetable_map_os_0x000000004503f000>:
	...
    4503fff8:	b401                	.insn	2, 0xb401
    4503fffa:	105d                	.insn	2, 0x105d
    4503fffc:	0000                	.insn	2, 0x0000
	...

Disassembly of section .__pagetable_map_os_0x000000004176d000:

000000004176d000 <__pagetable_map_os_0x000000004176d000>:
	...
    4176dff8:	c401                	.insn	2, 0xc401
    4176dffa:	105f 0000 0000      	.insn	6, 0x105f

Disassembly of section .__pagetable_map_os_0x00000000417f1000:

00000000417f1000 <__pagetable_map_os_0x00000000417f1000>:
	...
    417f1ff0:	111ffcc7          	fmsub.s	f25,f31,f17,f2
    417f1ff4:	0000                	.insn	2, 0x0000
	...

Disassembly of section .__pagetable_map_os_0x0000000041a84000:

0000000041a84000 <__pagetable_map_os_0x0000000041a84000>:
	...
    41a84148:	4c01                	.insn	2, 0x4c01
    41a8414a:	112e                	.insn	2, 0x112e
    41a8414c:	0000                	.insn	2, 0x0000
	...

Disassembly of section .__pagetable_map_os_0x0000000044b93000:

0000000044b93000 <__pagetable_map_os_0x0000000044b93000>:
	...
    44b936d8:	b001                	.insn	2, 0xb001
    44b936da:	105a                	.insn	2, 0x105a
    44b936dc:	0000                	.insn	2, 0x0000
	...

Disassembly of section .__pagetable_map_os_0x00000000416ac000:

00000000416ac000 <__pagetable_map_os_0x00000000416ac000>:
	...
    416ac1e0:	0c01                	.insn	2, 0x0c01
    416ac1e2:	110a                	.insn	2, 0x110a
    416ac1e4:	0000                	.insn	2, 0x0000
	...

Disassembly of section .__pagetable_map_os_0x0000000044283000:

0000000044283000 <__pagetable_map_os_0x0000000044283000>:
	...
    44283f78:	112f6cc7          	fmsub.s	f25,f30,f18,f2,unknown
    44283f7c:	0000                	.insn	2, 0x0000
	...

Disassembly of section .__pagetable_map_os_0x000000004176b000:

000000004176b000 <__pagetable_map_os_0x000000004176b000>:
	...
    4176bda0:	1801                	.insn	2, 0x1801
    4176bda2:	110e                	.insn	2, 0x110e
    4176bda4:	0000                	.insn	2, 0x0000
	...

Disassembly of section .__pagetable_map_os_0x0000000044386000:

0000000044386000 <__pagetable_map_os_0x0000000044386000>:
	...
    44386d88:	cc01                	.insn	2, 0xcc01
    44386d8a:	110a                	.insn	2, 0x110a
    44386d8c:	0000                	.insn	2, 0x0000
	...

Disassembly of section .__pagetable_map_os_0x00000000442b3000:

00000000442b3000 <__pagetable_map_os_0x00000000442b3000>:
	...
    442b3ec0:	0401                	.insn	2, 0x0401
    442b3ec2:	113a                	.insn	2, 0x113a
    442b3ec4:	0000                	.insn	2, 0x0000
	...

Disassembly of section .__pagetable_map_os_0x0000000044e81000:

0000000044e81000 <__pagetable_map_os_0x0000000044e81000>:
	...
    44e81c90:	105824c7          	fmsub.s	f9,f16,f5,f2,rdn
    44e81c94:	0000                	.insn	2, 0x0000
	...

Disassembly of section .__pagetable_map_os_0x00000000442cc000:

00000000442cc000 <__pagetable_map_os_0x00000000442cc000>:
	...
    442cccc8:	8801                	.insn	2, 0x8801
    442cccca:	1108                	.insn	2, 0x1108
    442ccccc:	0000                	.insn	2, 0x0000
	...

Disassembly of section .__pagetable_map_os_0x0000000044222000:

0000000044222000 <__pagetable_map_os_0x0000000044222000>:
	...
    44222eb8:	0c01                	.insn	2, 0x0c01
    44222eba:	00000000113f 	.6byte	0x00000000113f

Disassembly of section .__pagetable_map_os_0x0000000044fc3000:

0000000044fc3000 <__pagetable_map_os_0x0000000044fc3000>:
	...
    44fc3f48:	1801                	.insn	2, 0x1801
    44fc3f4a:	000010db          	.insn	4, 0x10db
	...

Disassembly of section .__pagetable_map_os_0x00000000436c6000:

00000000436c6000 <__pagetable_map_os_0x00000000436c6000>:
	...
    436c6f98:	10702cc7          	fmsub.s	f25,f0,f7,f2,rdn
    436c6f9c:	0000                	.insn	2, 0x0000
	...

Disassembly of section .__pagetable_map_os_0x0000000041a63000:

0000000041a63000 <__pagetable_map_os_0x0000000041a63000>:
	...
    41a63300:	0801                	.insn	2, 0x0801
    41a63302:	112e                	.insn	2, 0x112e
    41a63304:	0000                	.insn	2, 0x0000
	...

Disassembly of section .__pagetable_map_os_0x0000000044b82000:

0000000044b82000 <__pagetable_map_os_0x0000000044b82000>:
	...
    44b82bc8:	e401                	.insn	2, 0xe401
    44b82bca:	111a                	.insn	2, 0x111a
    44b82bcc:	0000                	.insn	2, 0x0000
	...

Disassembly of section .__pagetable_map_os_0x00000000446b9000:

00000000446b9000 <__pagetable_map_os_0x00000000446b9000>:
	...
    446b9518:	f801                	.insn	2, 0xf801
    446b951a:	00001133          	sll	x2,x0,x0
	...

Disassembly of section .__pagetable_map_os_0x0000000044cfe000:

0000000044cfe000 <__pagetable_map_os_0x0000000044cfe000>:
	...
    44cfe1f0:	113d58c7          	fmsub.s	f17,f26,f19,f2,unknown
    44cfe1f4:	0000                	.insn	2, 0x0000
	...

Disassembly of section .__pagetable_map_os_0x0000000044ff1000:

0000000044ff1000 <__pagetable_map_os_0x0000000044ff1000>:
	...
    44ff1c70:	a801                	.insn	2, 0xa801
    44ff1c72:	10aa                	.insn	2, 0x10aa
    44ff1c74:	0000                	.insn	2, 0x0000
	...

Disassembly of section .__pagetable_map_os_0x0000000042aaa000:

0000000042aaa000 <__pagetable_map_os_0x0000000042aaa000>:
	...
    42aaa938:	1401                	.insn	2, 0x1401
    42aaa93a:	0000113b          	sllw	x2,x0,x0
	...

Disassembly of section .__pagetable_map_os_0x0000000044ec5000:

0000000044ec5000 <__pagetable_map_os_0x0000000044ec5000>:
	...
    44ec5950:	e801                	.insn	2, 0xe801
    44ec5952:	110a                	.insn	2, 0x110a
    44ec5954:	0000                	.insn	2, 0x0000
	...

Disassembly of section .__pagetable_map_os_0x00000000442ba000:

00000000442ba000 <__pagetable_map_os_0x00000000442ba000>:
	...
    442badc0:	113f94cf          	fnmadd.s	f9,f31,f19,f2,rtz
    442badc4:	0000                	.insn	2, 0x0000
	...

Disassembly of section .__pagetable_map_os_0x000000004161b000:

000000004161b000 <__pagetable_map_os_0x000000004161b000>:
	...
    4161b870:	2001                	.insn	2, 0x2001
    4161b872:	110e                	.insn	2, 0x110e
    4161b874:	0000                	.insn	2, 0x0000
	...

Disassembly of section .__pagetable_map_os_0x0000000044388000:

0000000044388000 <__pagetable_map_os_0x0000000044388000>:
	...
    443886f0:	8001                	.insn	2, 0x8001
    443886f2:	112e                	.insn	2, 0x112e
    443886f4:	0000                	.insn	2, 0x0000
	...

Disassembly of section .__pagetable_map_os_0x0000000044ba0000:

0000000044ba0000 <__pagetable_map_os_0x0000000044ba0000>:
	...
    44ba0f28:	0401                	.insn	2, 0x0401
    44ba0f2a:	110a                	.insn	2, 0x110a
    44ba0f2c:	0000                	.insn	2, 0x0000
	...

Disassembly of section .__pagetable_map_os_0x0000000044281000:

0000000044281000 <__pagetable_map_os_0x0000000044281000>:
	...
    44281d40:	113c64cf          	fnmadd.s	f9,f24,f19,f2,unknown
    44281d44:	0000                	.insn	2, 0x0000
	...

Disassembly of section .__pagetable_map_os_0x0000000044fcf000:

0000000044fcf000 <__pagetable_map_os_0x0000000044fcf000>:
	...
    44fcf7f0:	b001                	.insn	2, 0xb001
    44fcf7f2:	00001133          	sll	x2,x0,x0
	...

Disassembly of section .__pagetable_map_os_0x0000000044cec000:

0000000044cec000 <__pagetable_map_os_0x0000000044cec000>:
	...
    44cecb08:	e801                	.insn	2, 0xe801
    44cecb0a:	10df 0000 0000      	.insn	6, 0x10df

Disassembly of section .__pagetable_map_os_0x00000000437fa000:

00000000437fa000 <__pagetable_map_os_0x00000000437fa000>:
	...
    437fa310:	dc01                	.insn	2, 0xdc01
    437fa312:	110d                	.insn	2, 0x110d
    437fa314:	0000                	.insn	2, 0x0000
	...

Disassembly of section .__pagetable_map_os_0x0000000044377000:

0000000044377000 <__pagetable_map_os_0x0000000044377000>:
	...
    44377260:	113fa4cf          	fnmadd.s	f9,f31,f19,f2,rdn
    44377264:	0000                	.insn	2, 0x0000
	...

Disassembly of section .riscv.attributes:

0000000000000000 <.riscv.attributes>:
   0:	1841                	.insn	2, 0x1841
   2:	0002                	.insn	2, 0x0002
   4:	7200                	.insn	2, 0x7200
   6:	7369                	.insn	2, 0x7369
   8:	01007663          	bgeu	x0,x16,14 <INSTRUCTION_GUEST_PAGE_FAULT>
   c:	020e                	.insn	2, 0x020e
   e:	0000                	.insn	2, 0x0000
  10:	7205                	.insn	2, 0x7205
  12:	3676                	.insn	2, 0x3676
  14:	6934                	.insn	2, 0x6934
  16:	7032                	.insn	2, 0x7032
  18:	5f31                	.insn	2, 0x5f31
  1a:	326d                	.insn	2, 0x326d
  1c:	3070                	.insn	2, 0x3070
  1e:	615f 7032 5f31      	.insn	6, 0x5f317032615f
  24:	3266                	.insn	2, 0x3266
  26:	3270                	.insn	2, 0x3270
  28:	645f 7032 5f32      	.insn	6, 0x5f327032645f
  2e:	30703263          	.insn	4, 0x30703263
  32:	625f 7031 5f30      	.insn	6, 0x5f307031625f
  38:	3176                	.insn	2, 0x3176
  3a:	3070                	.insn	2, 0x3070
  3c:	685f 7031 5f30      	.insn	6, 0x5f307031685f
  42:	697a                	.insn	2, 0x697a
  44:	6d6f6263          	bltu	x30,x22,708 <XLEN+0x6c8>
  48:	7031                	.insn	2, 0x7031
  4a:	5f30                	.insn	2, 0x5f30
  4c:	697a                	.insn	2, 0x697a
  4e:	706f6263          	bltu	x30,x6,752 <XLEN+0x712>
  52:	7031                	.insn	2, 0x7031
  54:	5f30                	.insn	2, 0x5f30
  56:	697a                	.insn	2, 0x697a
  58:	7a6f6263          	bltu	x30,x6,7fc <XLEN+0x7bc>
  5c:	7031                	.insn	2, 0x7031
  5e:	5f30                	.insn	2, 0x5f30
  60:	697a                	.insn	2, 0x697a
  62:	646e6f63          	bltu	x28,x6,6c0 <XLEN+0x680>
  66:	7031                	.insn	2, 0x7031
  68:	5f30                	.insn	2, 0x5f30
  6a:	697a                	.insn	2, 0x697a
  6c:	32727363          	bgeu	x4,x7,392 <XLEN+0x352>
  70:	3070                	.insn	2, 0x3070
  72:	7a5f 6669 6e65      	.insn	6, 0x6e6566697a5f
  78:	32696563          	bltu	x18,x6,3a2 <XLEN+0x362>
  7c:	3070                	.insn	2, 0x3070
  7e:	7a5f 6869 6e69      	.insn	6, 0x6e6968697a5f
  84:	7074                	.insn	2, 0x7074
  86:	7561                	.insn	2, 0x7561
  88:	70326573          	csrrsi	x10,0x703,4
  8c:	5f30                	.insn	2, 0x5f30
  8e:	6d7a                	.insn	2, 0x6d7a
  90:	756d                	.insn	2, 0x756d
  92:	316c                	.insn	2, 0x316c
  94:	3070                	.insn	2, 0x3070
  96:	7a5f 6161 6f6d      	.insn	6, 0x6f6d61617a5f
  9c:	7031                	.insn	2, 0x7031
  9e:	5f30                	.insn	2, 0x5f30
  a0:	617a                	.insn	2, 0x617a
  a2:	726c                	.insn	2, 0x726c
  a4:	70316373          	csrrsi	x6,0x703,2
  a8:	5f30                	.insn	2, 0x5f30
  aa:	617a                	.insn	2, 0x617a
  ac:	31737277          	.insn	4, 0x31737277
  b0:	3070                	.insn	2, 0x3070
  b2:	7a5f 6166 7031      	.insn	6, 0x703161667a5f
  b8:	5f30                	.insn	2, 0x5f30
  ba:	667a                	.insn	2, 0x667a
  bc:	6662                	.insn	2, 0x6662
  be:	696d                	.insn	2, 0x696d
  c0:	316e                	.insn	2, 0x316e
  c2:	3070                	.insn	2, 0x3070
  c4:	7a5f 6866 7031      	.insn	6, 0x703168667a5f
  ca:	5f30                	.insn	2, 0x5f30
  cc:	667a                	.insn	2, 0x667a
  ce:	6d68                	.insn	2, 0x6d68
  d0:	6e69                	.insn	2, 0x6e69
  d2:	7031                	.insn	2, 0x7031
  d4:	5f30                	.insn	2, 0x5f30
  d6:	637a                	.insn	2, 0x637a
  d8:	3161                	.insn	2, 0x3161
  da:	3070                	.insn	2, 0x3070
  dc:	7a5f 6463 7031      	.insn	6, 0x703164637a5f
  e2:	5f30                	.insn	2, 0x5f30
  e4:	627a                	.insn	2, 0x627a
  e6:	3161                	.insn	2, 0x3161
  e8:	3070                	.insn	2, 0x3070
  ea:	7a5f 6262 7031      	.insn	6, 0x703162627a5f
  f0:	5f30                	.insn	2, 0x5f30
  f2:	627a                	.insn	2, 0x627a
  f4:	30703163          	.insn	4, 0x30703163
  f8:	7a5f 6b62 3162      	.insn	6, 0x31626b627a5f
  fe:	3070                	.insn	2, 0x3070
 100:	7a5f 6b62 3163      	.insn	6, 0x31636b627a5f
 106:	3070                	.insn	2, 0x3070
 108:	7a5f 6b62 3178      	.insn	6, 0x31786b627a5f
 10e:	3070                	.insn	2, 0x3070
 110:	7a5f 7362 7031      	.insn	6, 0x703173627a5f
 116:	5f30                	.insn	2, 0x5f30
 118:	6b7a                	.insn	2, 0x6b7a
 11a:	7031                	.insn	2, 0x7031
 11c:	5f30                	.insn	2, 0x5f30
 11e:	6b7a                	.insn	2, 0x6b7a
 120:	316e                	.insn	2, 0x316e
 122:	3070                	.insn	2, 0x3070
 124:	7a5f 6e6b 3164      	.insn	6, 0x31646e6b7a5f
 12a:	3070                	.insn	2, 0x3070
 12c:	7a5f 6e6b 3165      	.insn	6, 0x31656e6b7a5f
 132:	3070                	.insn	2, 0x3070
 134:	7a5f 6e6b 3168      	.insn	6, 0x31686e6b7a5f
 13a:	3070                	.insn	2, 0x3070
 13c:	7a5f 726b 7031      	.insn	6, 0x7031726b7a5f
 142:	5f30                	.insn	2, 0x5f30
 144:	6b7a                	.insn	2, 0x6b7a
 146:	3174                	.insn	2, 0x3174
 148:	3070                	.insn	2, 0x3070
 14a:	7a5f 6276 3162      	.insn	6, 0x316262767a5f
 150:	3070                	.insn	2, 0x3070
 152:	7a5f 6276 3163      	.insn	6, 0x316362767a5f
 158:	3070                	.insn	2, 0x3070
 15a:	7a5f 6576 3233      	.insn	6, 0x323365767a5f
 160:	3166                	.insn	2, 0x3166
 162:	3070                	.insn	2, 0x3070
 164:	7a5f 6576 3233      	.insn	6, 0x323365767a5f
 16a:	3178                	.insn	2, 0x3178
 16c:	3070                	.insn	2, 0x3070
 16e:	7a5f 6576 3436      	.insn	6, 0x343665767a5f
 174:	3164                	.insn	2, 0x3164
 176:	3070                	.insn	2, 0x3070
 178:	7a5f 6576 3436      	.insn	6, 0x343665767a5f
 17e:	3166                	.insn	2, 0x3166
 180:	3070                	.insn	2, 0x3070
 182:	7a5f 6576 3436      	.insn	6, 0x343665767a5f
 188:	3178                	.insn	2, 0x3178
 18a:	3070                	.insn	2, 0x3070
 18c:	7a5f 6676 6662      	.insn	6, 0x666266767a5f
 192:	696d                	.insn	2, 0x696d
 194:	316e                	.insn	2, 0x316e
 196:	3070                	.insn	2, 0x3070
 198:	7a5f 6676 6662      	.insn	6, 0x666266767a5f
 19e:	31616d77          	.insn	4, 0x31616d77
 1a2:	3070                	.insn	2, 0x3070
 1a4:	7a5f 6b76 3162      	.insn	6, 0x31626b767a5f
 1aa:	3070                	.insn	2, 0x3070
 1ac:	7a5f 6b76 3167      	.insn	6, 0x31676b767a5f
 1b2:	3070                	.insn	2, 0x3070
 1b4:	7a5f 6b76 316e      	.insn	6, 0x316e6b767a5f
 1ba:	3070                	.insn	2, 0x3070
 1bc:	7a5f 6b76 636e      	.insn	6, 0x636e6b767a5f
 1c2:	7031                	.insn	2, 0x7031
 1c4:	5f30                	.insn	2, 0x5f30
 1c6:	767a                	.insn	2, 0x767a
 1c8:	64656e6b          	.insn	4, 0x64656e6b
 1cc:	7031                	.insn	2, 0x7031
 1ce:	5f30                	.insn	2, 0x5f30
 1d0:	767a                	.insn	2, 0x767a
 1d2:	31676e6b          	.insn	4, 0x31676e6b
 1d6:	3070                	.insn	2, 0x3070
 1d8:	7a5f 6b76 686e      	.insn	6, 0x686e6b767a5f
 1de:	3162                	.insn	2, 0x3162
 1e0:	3070                	.insn	2, 0x3070
 1e2:	7a5f 6b76 3174      	.insn	6, 0x31746b767a5f
 1e8:	3070                	.insn	2, 0x3070
 1ea:	7a5f 6c76 3231      	.insn	6, 0x32316c767a5f
 1f0:	6238                	.insn	2, 0x6238
 1f2:	7031                	.insn	2, 0x7031
 1f4:	5f30                	.insn	2, 0x5f30
 1f6:	767a                	.insn	2, 0x767a
 1f8:	336c                	.insn	2, 0x336c
 1fa:	6232                	.insn	2, 0x6232
 1fc:	7031                	.insn	2, 0x7031
 1fe:	5f30                	.insn	2, 0x5f30
 200:	767a                	.insn	2, 0x767a
 202:	366c                	.insn	2, 0x366c
 204:	6234                	.insn	2, 0x6234
 206:	7031                	.insn	2, 0x7031
 208:	5f30                	.insn	2, 0x5f30
 20a:	6e697673          	csrrci	x12,0x6e6,18
 20e:	6176                	.insn	2, 0x6176
 210:	316c                	.insn	2, 0x316c
 212:	3070                	.insn	2, 0x3070
 214:	0800                	.insn	2, 0x0800
 216:	0a01                	.insn	2, 0x0a01
 218:	0b                	.byte	0x0b
