
/home/abdullah/RiescueC/riescue/10x_R/sstc/testsuite/sstc/user_sv48/tp_sstc_2:     file format elf64-littleriscv


Disassembly of section .runtime:

0000000041000000 <_start>:
    41000000:	00000093          	li	x1,0
    41000004:	00000113          	li	x2,0
    41000008:	00000193          	li	x3,0
    4100000c:	00000213          	li	x4,0
    41000010:	00000293          	li	x5,0
    41000014:	00000313          	li	x6,0
    41000018:	00000393          	li	x7,0
    4100001c:	00000413          	li	x8,0
    41000020:	00000493          	li	x9,0
    41000024:	00000513          	li	x10,0
    41000028:	00000593          	li	x11,0
    4100002c:	00000613          	li	x12,0
    41000030:	00000693          	li	x13,0
    41000034:	00000713          	li	x14,0
    41000038:	00000793          	li	x15,0
    4100003c:	00000813          	li	x16,0
    41000040:	00000893          	li	x17,0
    41000044:	00000913          	li	x18,0
    41000048:	00000993          	li	x19,0
    4100004c:	00000a13          	li	x20,0
    41000050:	00000a93          	li	x21,0
    41000054:	00000b13          	li	x22,0
    41000058:	00000b93          	li	x23,0
    4100005c:	00000c13          	li	x24,0
    41000060:	00000c93          	li	x25,0
    41000064:	00000d13          	li	x26,0
    41000068:	00000d93          	li	x27,0
    4100006c:	00000e13          	li	x28,0
    41000070:	00000e93          	li	x29,0
    41000074:	00000f13          	li	x30,0
    41000078:	00000f93          	li	x31,0

000000004100007c <loader__load_panic_address>:
    4100007c:	00001297          	auipc	x5,0x1
    41000080:	9e828293          	addi	x5,x5,-1560 # 41000a64 <eot__failed>
    41000084:	30529073          	csrw	mtvec,x5

0000000041000088 <loader__initialize_runtime>:
    41000088:	00000293          	li	x5,0
    4100008c:	3012a2f3          	csrrs	x5,misa,x5

0000000041000090 <loader__set_mstatus>:
    41000090:	000402b7          	lui	x5,0x40
    41000094:	00a2829b          	addiw	x5,x5,10 # 4000a <pma_region_0_size+0xa>
    41000098:	3002a2f3          	csrrs	x5,mstatus,x5
    4100009c:	44dff237          	lui	x4,0x44dff
    410000a0:	34021073          	csrw	mscratch,x4

00000000410000a4 <loader__setup_menvcfg>:
    410000a4:	00000297          	auipc	x5,0x0
    410000a8:	4a828293          	addi	x5,x5,1192 # 4100054c <trap_handler_m__trap_entry>
    410000ac:	30529073          	csrw	mtvec,x5

00000000410000b0 <loader__enable_paging>:
    410000b0:	fff900b7          	lui	x1,0xfff90
    410000b4:	09b0809b          	addiw	x1,x1,155 # fffffffffff9009b <SID_SSTC_02_HU_stack+0xfffffceb1003609b>
    410000b8:	02009093          	slli	x1,x1,0x20
    410000bc:	04308093          	addi	x1,x1,67
    410000c0:	00c09093          	slli	x1,x1,0xc
    410000c4:	46608093          	addi	x1,x1,1126
    410000c8:	18009073          	csrw	satp,x1

00000000410000cc <loader__done>:
    410000cc:	1c10006f          	j	41000a8c <scheduler__init>

00000000410000d0 <loader__panic>:
    410000d0:	1950006f          	j	41000a64 <eot__failed>

00000000410000d4 <syscalls__syscall_check_schedule_next_test>:
    410000d4:	00f0029b          	addiw	x5,x0,15
    410000d8:	01c29293          	slli	x5,x5,0x1c
    410000dc:	00128293          	addi	x5,x5,1
    410000e0:	01f29a63          	bne	x5,x31,410000f4 <syscalls__syscall_check_fail_test>
    410000e4:	00000317          	auipc	x6,0x0
    410000e8:	46830313          	addi	x6,x6,1128 # 4100054c <trap_handler_m__trap_entry>
    410000ec:	30531073          	csrw	mtvec,x6
    410000f0:	6a00006f          	j	41000790 <enter_scheduler>

00000000410000f4 <syscalls__syscall_check_fail_test>:
    410000f4:	00f0029b          	addiw	x5,x0,15
    410000f8:	01c29293          	slli	x5,x5,0x1c
    410000fc:	00228293          	addi	x5,x5,2
    41000100:	01f29a63          	bne	x5,x31,41000114 <syscalls__syscall_check_end_test_without_failure>
    41000104:	00000317          	auipc	x6,0x0
    41000108:	44830313          	addi	x6,x6,1096 # 4100054c <trap_handler_m__trap_entry>
    4100010c:	30531073          	csrw	mtvec,x6
    41000110:	6b00006f          	j	410007c0 <test_failed>

0000000041000114 <syscalls__syscall_check_end_test_without_failure>:
    41000114:	00f0029b          	addiw	x5,x0,15
    41000118:	01c29293          	slli	x5,x5,0x1c
    4100011c:	00328293          	addi	x5,x5,3
    41000120:	01f29a63          	bne	x5,x31,41000134 <syscalls__syscall_check_switch_machine_mode>
    41000124:	00000317          	auipc	x6,0x0
    41000128:	42830313          	addi	x6,x6,1064 # 4100054c <trap_handler_m__trap_entry>
    4100012c:	30531073          	csrw	mtvec,x6
    41000130:	69c0006f          	j	410007cc <os_end_test>

0000000041000134 <syscalls__syscall_check_switch_machine_mode>:
    41000134:	000f02b7          	lui	x5,0xf0
    41000138:	0012829b          	addiw	x5,x5,1 # f0001 <pma_region_0_size+0xb0001>
    4100013c:	00c29293          	slli	x5,x5,0xc
    41000140:	00128293          	addi	x5,x5,1
    41000144:	0a5f8463          	beq	x31,x5,410001ec <syscalls__os_fn_f0001001>

0000000041000148 <syscalls__syscall_check_switch_super_mode>:
    41000148:	000f02b7          	lui	x5,0xf0
    4100014c:	0012829b          	addiw	x5,x5,1 # f0001 <pma_region_0_size+0xb0001>
    41000150:	00c29293          	slli	x5,x5,0xc
    41000154:	00228293          	addi	x5,x5,2
    41000158:	0c5f8063          	beq	x31,x5,41000218 <syscalls__os_fn_f0001002>

000000004100015c <syscalls__syscall_check_switch_user_mode>:
    4100015c:	000f02b7          	lui	x5,0xf0
    41000160:	0012829b          	addiw	x5,x5,1 # f0001 <pma_region_0_size+0xb0001>
    41000164:	00c29293          	slli	x5,x5,0xc
    41000168:	00328293          	addi	x5,x5,3
    4100016c:	0c5f8e63          	beq	x31,x5,41000248 <syscalls__os_fn_f0001003>

0000000041000170 <syscalls__syscall_check_switch_test_mode>:
    41000170:	000f02b7          	lui	x5,0xf0
    41000174:	0012829b          	addiw	x5,x5,1 # f0001 <pma_region_0_size+0xb0001>
    41000178:	00c29293          	slli	x5,x5,0xc
    4100017c:	00428293          	addi	x5,x5,4
    41000180:	0c5f8863          	beq	x31,x5,41000250 <syscalls__os_fn_f0001004>

0000000041000184 <syscalls__syscall_machine_csr_rw>:
    41000184:	000f02b7          	lui	x5,0xf0
    41000188:	0012829b          	addiw	x5,x5,1 # f0001 <pma_region_0_size+0xb0001>
    4100018c:	00c29293          	slli	x5,x5,0xc
    41000190:	00528293          	addi	x5,x5,5
    41000194:	0e5f8263          	beq	x31,x5,41000278 <syscalls__os_fn_f0001005>

0000000041000198 <syscalls__syscall_supervisor_csr_rw>:
    41000198:	000f02b7          	lui	x5,0xf0
    4100019c:	0012829b          	addiw	x5,x5,1 # f0001 <pma_region_0_size+0xb0001>
    410001a0:	00c29293          	slli	x5,x5,0xc
    410001a4:	00628293          	addi	x5,x5,6
    410001a8:	0e5f8e63          	beq	x31,x5,410002a4 <syscalls__os_fn_f0001006>

00000000410001ac <syscalls__syscall_machine_pte_read>:
    410001ac:	000f02b7          	lui	x5,0xf0
    410001b0:	0012829b          	addiw	x5,x5,1 # f0001 <pma_region_0_size+0xb0001>
    410001b4:	00c29293          	slli	x5,x5,0xc
    410001b8:	00728293          	addi	x5,x5,7
    410001bc:	105f8c63          	beq	x31,x5,410002d4 <syscalls__os_fn_f0001007>

00000000410001c0 <syscalls__syscall_machine_pte_write>:
    410001c0:	000f02b7          	lui	x5,0xf0
    410001c4:	0012829b          	addiw	x5,x5,1 # f0001 <pma_region_0_size+0xb0001>
    410001c8:	00c29293          	slli	x5,x5,0xc
    410001cc:	00828293          	addi	x5,x5,8
    410001d0:	1e5f8863          	beq	x31,x5,410003c0 <syscalls__os_fn_f0001008>

00000000410001d4 <syscalls__syscall_check_get_hart_context>:
    410001d4:	000782b7          	lui	x5,0x78
    410001d8:	0012829b          	addiw	x5,x5,1 # 78001 <pma_region_0_size+0x38001>
    410001dc:	00d29293          	slli	x5,x5,0xd
    410001e0:	00128293          	addi	x5,x5,1
    410001e4:	2c5f8463          	beq	x31,x5,410004ac <syscalls__os_get_hart_context>
    410001e8:	4c00006f          	j	410006a8 <trap_handler_m__check_exception_label>

00000000410001ec <syscalls__os_fn_f0001001>:
    410001ec:	000022b7          	lui	x5,0x2
    410001f0:	8002829b          	addiw	x5,x5,-2048 # 1800 <pma_region_1_size+0x800>
    410001f4:	3002b073          	csrc	mstatus,x5
    410001f8:	000022b7          	lui	x5,0x2
    410001fc:	8002829b          	addiw	x5,x5,-2048 # 1800 <pma_region_1_size+0x800>
    41000200:	3002a073          	csrs	mstatus,x5
    41000204:	0010029b          	addiw	x5,x0,1
    41000208:	02729293          	slli	x5,x5,0x27
    4100020c:	3002b073          	csrc	mstatus,x5
    41000210:	411952b7          	lui	x5,0x41195
    41000214:	2a80006f          	j	410004bc <syscalls__ret_from_os_fn>

0000000041000218 <syscalls__os_fn_f0001002>:
    41000218:	000022b7          	lui	x5,0x2
    4100021c:	8002829b          	addiw	x5,x5,-2048 # 1800 <pma_region_1_size+0x800>
    41000220:	3002b073          	csrc	mstatus,x5
    41000224:	000012b7          	lui	x5,0x1
    41000228:	8002829b          	addiw	x5,x5,-2048 # 800 <XLEN+0x7c0>
    4100022c:	3002a073          	csrs	mstatus,x5
    41000230:	0010029b          	addiw	x5,x0,1
    41000234:	02729293          	slli	x5,x5,0x27
    41000238:	3002b073          	csrc	mstatus,x5
    4100023c:	12000073          	sfence.vma
    41000240:	410952b7          	lui	x5,0x41095
    41000244:	2780006f          	j	410004bc <syscalls__ret_from_os_fn>

0000000041000248 <syscalls__os_fn_f0001003>:
    41000248:	411152b7          	lui	x5,0x41115
    4100024c:	2700006f          	j	410004bc <syscalls__ret_from_os_fn>

0000000041000250 <syscalls__os_fn_f0001004>:
    41000250:	000022b7          	lui	x5,0x2
    41000254:	8002829b          	addiw	x5,x5,-2048 # 1800 <pma_region_1_size+0x800>
    41000258:	3002b073          	csrc	mstatus,x5
    4100025c:	00000293          	li	x5,0
    41000260:	3002a073          	csrs	mstatus,x5
    41000264:	0010029b          	addiw	x5,x0,1
    41000268:	02729293          	slli	x5,x5,0x27
    4100026c:	3002b073          	csrc	mstatus,x5
    41000270:	17823283          	ld	x5,376(x4) # 44dff178 <__section_hart_context+0x178>
    41000274:	2480006f          	j	410004bc <syscalls__ret_from_os_fn>

0000000041000278 <syscalls__os_fn_f0001005>:
    41000278:	000022b7          	lui	x5,0x2
    4100027c:	8002829b          	addiw	x5,x5,-2048 # 1800 <pma_region_1_size+0x800>
    41000280:	3002b073          	csrc	mstatus,x5
    41000284:	000022b7          	lui	x5,0x2
    41000288:	8002829b          	addiw	x5,x5,-2048 # 1800 <pma_region_1_size+0x800>
    4100028c:	3002a073          	csrs	mstatus,x5
    41000290:	0010029b          	addiw	x5,x0,1
    41000294:	02729293          	slli	x5,x5,0x27
    41000298:	3002b073          	csrc	mstatus,x5
    4100029c:	412152b7          	lui	x5,0x41215
    410002a0:	21c0006f          	j	410004bc <syscalls__ret_from_os_fn>

00000000410002a4 <syscalls__os_fn_f0001006>:
    410002a4:	000022b7          	lui	x5,0x2
    410002a8:	8002829b          	addiw	x5,x5,-2048 # 1800 <pma_region_1_size+0x800>
    410002ac:	3002b073          	csrc	mstatus,x5
    410002b0:	000012b7          	lui	x5,0x1
    410002b4:	8002829b          	addiw	x5,x5,-2048 # 800 <XLEN+0x7c0>
    410002b8:	3002a073          	csrs	mstatus,x5
    410002bc:	0010029b          	addiw	x5,x0,1
    410002c0:	02729293          	slli	x5,x5,0x27
    410002c4:	3002b073          	csrc	mstatus,x5
    410002c8:	12000073          	sfence.vma
    410002cc:	412162b7          	lui	x5,0x41216
    410002d0:	1ec0006f          	j	410004bc <syscalls__ret_from_os_fn>

00000000410002d4 <syscalls__os_fn_f0001007>:
    410002d4:	420fafb7          	lui	x31,0x420fa
    410002d8:	0b0f8f9b          	addiw	x31,x31,176 # 420fa0b0 <pte_access_flags_pa>
    410002dc:	000fbf83          	ld	x31,0(x31)
    410002e0:	420fa2b7          	lui	x5,0x420fa
    410002e4:	0b82829b          	addiw	x5,x5,184 # 420fa0b8 <pte_access_flags_pa+0x8>
    410002e8:	0002b283          	ld	x5,0(x5)
    410002ec:	420fae37          	lui	x28,0x420fa
    410002f0:	0c0e0e1b          	addiw	x28,x28,192 # 420fa0c0 <pte_access_flags_pa+0x10>
    410002f4:	000e3e03          	ld	x28,0(x28)

00000000410002f8 <syscalls__pte_walk_check_glevel_without_gstage_read>:
    410002f8:	fff00f93          	li	x31,-1
    410002fc:	0dfe1063          	bne	x28,x31,410003bc <syscalls__pte_walk_fail_read>
    41000300:	18002373          	csrr	x6,satp
    41000304:	03c35e93          	srli	x29,x6,0x3c
    41000308:	01431313          	slli	x6,x6,0x14
    4100030c:	01435313          	srli	x6,x6,0x14
    41000310:	00c31313          	slli	x6,x6,0xc
    41000314:	ff8e8e93          	addi	x29,x29,-8
    41000318:	003e9f13          	slli	x30,x29,0x3
    4100031c:	01df0eb3          	add	x29,x30,x29
    41000320:	01ee8e93          	addi	x29,x29,30
    41000324:	00000f13          	li	x30,0

0000000041000328 <syscalls__pte_walk_loop_read>:
    41000328:	420fafb7          	lui	x31,0x420fa
    4100032c:	0b0f8f9b          	addiw	x31,x31,176 # 420fa0b0 <pte_access_flags_pa>
    41000330:	000fbf83          	ld	x31,0(x31)
    41000334:	01dfdfb3          	srl	x31,x31,x29
    41000338:	1fffff93          	andi	x31,x31,511
    4100033c:	003f9f93          	slli	x31,x31,0x3
    41000340:	01f30333          	add	x6,x6,x31
    41000344:	005f0e63          	beq	x30,x5,41000360 <syscalls__pte_walk_done_read>
    41000348:	00033f83          	ld	x31,0(x6)
    4100034c:	00afdf93          	srli	x31,x31,0xa
    41000350:	00cf9313          	slli	x6,x31,0xc
    41000354:	001f0f13          	addi	x30,x30,1
    41000358:	ff7e8e93          	addi	x29,x29,-9
    4100035c:	fcdff06f          	j	41000328 <syscalls__pte_walk_loop_read>

0000000041000360 <syscalls__pte_walk_done_read>:
    41000360:	fff00f93          	li	x31,-1
    41000364:	05fe0263          	beq	x28,x31,410003a8 <syscalls__pte_walk_final_read>

0000000041000368 <syscalls__pte_walk_gstage_read>:
    41000368:	420fafb7          	lui	x31,0x420fa
    4100036c:	0b0f8f9b          	addiw	x31,x31,176 # 420fa0b0 <pte_access_flags_pa>
    41000370:	006fb023          	sd	x6,0(x31)
    41000374:	000e0293          	mv	x5,x28
    41000378:	fff00e13          	li	x28,-1
    4100037c:	68002373          	csrr	x6,hgatp
    41000380:	03c35e93          	srli	x29,x6,0x3c
    41000384:	01431313          	slli	x6,x6,0x14
    41000388:	01435313          	srli	x6,x6,0x14
    4100038c:	00c31313          	slli	x6,x6,0xc
    41000390:	ff8e8e93          	addi	x29,x29,-8
    41000394:	003e9f13          	slli	x30,x29,0x3
    41000398:	01df0eb3          	add	x29,x30,x29
    4100039c:	01ee8e93          	addi	x29,x29,30
    410003a0:	00000f13          	li	x30,0
    410003a4:	f85ff06f          	j	41000328 <syscalls__pte_walk_loop_read>

00000000410003a8 <syscalls__pte_walk_final_read>:
    410003a8:	00033383          	ld	x7,0(x6)
    410003ac:	341022f3          	csrr	x5,mepc
    410003b0:	00428293          	addi	x5,x5,4
    410003b4:	16523c23          	sd	x5,376(x4) # 178 <XLEN+0x138>
    410003b8:	e99ff06f          	j	41000250 <syscalls__os_fn_f0001004>

00000000410003bc <syscalls__pte_walk_fail_read>:
    410003bc:	4040006f          	j	410007c0 <test_failed>

00000000410003c0 <syscalls__os_fn_f0001008>:
    410003c0:	420fafb7          	lui	x31,0x420fa
    410003c4:	0b0f8f9b          	addiw	x31,x31,176 # 420fa0b0 <pte_access_flags_pa>
    410003c8:	000fbf83          	ld	x31,0(x31)
    410003cc:	420fa2b7          	lui	x5,0x420fa
    410003d0:	0b82829b          	addiw	x5,x5,184 # 420fa0b8 <pte_access_flags_pa+0x8>
    410003d4:	0002b283          	ld	x5,0(x5)
    410003d8:	420fae37          	lui	x28,0x420fa
    410003dc:	0c0e0e1b          	addiw	x28,x28,192 # 420fa0c0 <pte_access_flags_pa+0x10>
    410003e0:	000e3e03          	ld	x28,0(x28)

00000000410003e4 <syscalls__pte_walk_check_glevel_without_gstage_write>:
    410003e4:	fff00f93          	li	x31,-1
    410003e8:	0dfe1063          	bne	x28,x31,410004a8 <syscalls__pte_walk_fail_write>
    410003ec:	18002373          	csrr	x6,satp
    410003f0:	03c35e93          	srli	x29,x6,0x3c
    410003f4:	01431313          	slli	x6,x6,0x14
    410003f8:	01435313          	srli	x6,x6,0x14
    410003fc:	00c31313          	slli	x6,x6,0xc
    41000400:	ff8e8e93          	addi	x29,x29,-8
    41000404:	003e9f13          	slli	x30,x29,0x3
    41000408:	01df0eb3          	add	x29,x30,x29
    4100040c:	01ee8e93          	addi	x29,x29,30
    41000410:	00000f13          	li	x30,0

0000000041000414 <syscalls__pte_walk_loop_write>:
    41000414:	420fafb7          	lui	x31,0x420fa
    41000418:	0b0f8f9b          	addiw	x31,x31,176 # 420fa0b0 <pte_access_flags_pa>
    4100041c:	000fbf83          	ld	x31,0(x31)
    41000420:	01dfdfb3          	srl	x31,x31,x29
    41000424:	1fffff93          	andi	x31,x31,511
    41000428:	003f9f93          	slli	x31,x31,0x3
    4100042c:	01f30333          	add	x6,x6,x31
    41000430:	005f0e63          	beq	x30,x5,4100044c <syscalls__pte_walk_done_write>
    41000434:	00033f83          	ld	x31,0(x6)
    41000438:	00afdf93          	srli	x31,x31,0xa
    4100043c:	00cf9313          	slli	x6,x31,0xc
    41000440:	001f0f13          	addi	x30,x30,1
    41000444:	ff7e8e93          	addi	x29,x29,-9
    41000448:	fcdff06f          	j	41000414 <syscalls__pte_walk_loop_write>

000000004100044c <syscalls__pte_walk_done_write>:
    4100044c:	fff00f93          	li	x31,-1
    41000450:	05fe0263          	beq	x28,x31,41000494 <syscalls__pte_walk_final_write>

0000000041000454 <syscalls__pte_walk_gstage_write>:
    41000454:	420fafb7          	lui	x31,0x420fa
    41000458:	0b0f8f9b          	addiw	x31,x31,176 # 420fa0b0 <pte_access_flags_pa>
    4100045c:	006fb023          	sd	x6,0(x31)
    41000460:	000e0293          	mv	x5,x28
    41000464:	fff00e13          	li	x28,-1
    41000468:	68002373          	csrr	x6,hgatp
    4100046c:	03c35e93          	srli	x29,x6,0x3c
    41000470:	01431313          	slli	x6,x6,0x14
    41000474:	01435313          	srli	x6,x6,0x14
    41000478:	00c31313          	slli	x6,x6,0xc
    4100047c:	ff8e8e93          	addi	x29,x29,-8
    41000480:	003e9f13          	slli	x30,x29,0x3
    41000484:	01df0eb3          	add	x29,x30,x29
    41000488:	01ee8e93          	addi	x29,x29,30
    4100048c:	00000f13          	li	x30,0
    41000490:	f85ff06f          	j	41000414 <syscalls__pte_walk_loop_write>

0000000041000494 <syscalls__pte_walk_final_write>:
    41000494:	00733023          	sd	x7,0(x6)
    41000498:	341022f3          	csrr	x5,mepc
    4100049c:	00428293          	addi	x5,x5,4
    410004a0:	16523c23          	sd	x5,376(x4) # 178 <XLEN+0x138>
    410004a4:	dadff06f          	j	41000250 <syscalls__os_fn_f0001004>

00000000410004a8 <syscalls__pte_walk_fail_write>:
    410004a8:	3180006f          	j	410007c0 <test_failed>

00000000410004ac <syscalls__os_get_hart_context>:
    410004ac:	14002573          	csrr	x10,sscratch
    410004b0:	341022f3          	csrr	x5,mepc
    410004b4:	00428293          	addi	x5,x5,4
    410004b8:	0040006f          	j	410004bc <syscalls__ret_from_os_fn>

00000000410004bc <syscalls__ret_from_os_fn>:
    410004bc:	34102373          	csrr	x6,mepc
    410004c0:	00430313          	addi	x6,x6,4
    410004c4:	16623c23          	sd	x6,376(x4) # 178 <XLEN+0x138>
    410004c8:	34129073          	csrw	mepc,x5
    410004cc:	fff00f93          	li	x31,-1
    410004d0:	2a40006f          	j	41000774 <trap_handler_m__skip_xepc_write>

00000000410004d4 <trap_handler_m__invalid_interrupt>:
    410004d4:	2ec0006f          	j	410007c0 <test_failed>

00000000410004d8 <trap_handler_m__clear_all_interrupts>:
    410004d8:	34401073          	csrw	mip,x0
    410004dc:	30200073          	mret

00000000410004e0 <trap_handler_m___CLEAR_SSI>:
    410004e0:	00200293          	li	x5,2
    410004e4:	3442b073          	csrc	mip,x5
    410004e8:	30200073          	mret

00000000410004ec <trap_handler_m___CLEAR_MSI>:
    410004ec:	00800293          	li	x5,8
    410004f0:	3442b073          	csrc	mip,x5
    410004f4:	30200073          	mret

00000000410004f8 <trap_handler_m___CLEAR_STI>:
    410004f8:	02000293          	li	x5,32
    410004fc:	3442b073          	csrc	mip,x5
    41000500:	30200073          	mret

0000000041000504 <trap_handler_m___CLEAR_MTI>:
    41000504:	08000293          	li	x5,128
    41000508:	3442b073          	csrc	mip,x5
    4100050c:	30200073          	mret

0000000041000510 <trap_handler_m___CLEAR_SEI>:
    41000510:	20000293          	li	x5,512
    41000514:	3442b073          	csrc	mip,x5
    41000518:	30200073          	mret

000000004100051c <trap_handler_m___CLEAR_MEI>:
    4100051c:	000012b7          	lui	x5,0x1
    41000520:	8002829b          	addiw	x5,x5,-2048 # 800 <XLEN+0x7c0>
    41000524:	3442b073          	csrc	mip,x5
    41000528:	30200073          	mret

000000004100052c <trap_handler_m___CLEAR_COI>:
    4100052c:	000022b7          	lui	x5,0x2
    41000530:	3442b073          	csrc	mip,x5
    41000534:	30200073          	mret

0000000041000538 <trap_handler_m__clear_highest_priority_interrupt>:
    41000538:	344022f3          	csrr	x5,mip
    4100053c:	40500333          	neg	x6,x5
    41000540:	0062f2b3          	and	x5,x5,x6
    41000544:	3442b073          	csrc	mip,x5
    41000548:	30200073          	mret

000000004100054c <trap_handler_m__trap_entry>:
    4100054c:	0fc0006f          	j	41000648 <trap_handler_m__trap_handler>

0000000041000550 <trap_handler_m__interrupt_vector_table>:
    41000550:	f91ff06f          	j	410004e0 <trap_handler_m___CLEAR_SSI>
    41000554:	f81ff06f          	j	410004d4 <trap_handler_m__invalid_interrupt>
    41000558:	f95ff06f          	j	410004ec <trap_handler_m___CLEAR_MSI>
    4100055c:	f79ff06f          	j	410004d4 <trap_handler_m__invalid_interrupt>
    41000560:	f99ff06f          	j	410004f8 <trap_handler_m___CLEAR_STI>
    41000564:	f71ff06f          	j	410004d4 <trap_handler_m__invalid_interrupt>
    41000568:	f9dff06f          	j	41000504 <trap_handler_m___CLEAR_MTI>
    4100056c:	f69ff06f          	j	410004d4 <trap_handler_m__invalid_interrupt>
    41000570:	fa1ff06f          	j	41000510 <trap_handler_m___CLEAR_SEI>
    41000574:	f61ff06f          	j	410004d4 <trap_handler_m__invalid_interrupt>
    41000578:	fa5ff06f          	j	4100051c <trap_handler_m___CLEAR_MEI>
    4100057c:	f59ff06f          	j	410004d4 <trap_handler_m__invalid_interrupt>
    41000580:	fadff06f          	j	4100052c <trap_handler_m___CLEAR_COI>
    41000584:	f51ff06f          	j	410004d4 <trap_handler_m__invalid_interrupt>
    41000588:	f4dff06f          	j	410004d4 <trap_handler_m__invalid_interrupt>
    4100058c:	fadff06f          	j	41000538 <trap_handler_m__clear_highest_priority_interrupt>
    41000590:	fa9ff06f          	j	41000538 <trap_handler_m__clear_highest_priority_interrupt>
    41000594:	fa5ff06f          	j	41000538 <trap_handler_m__clear_highest_priority_interrupt>
    41000598:	fa1ff06f          	j	41000538 <trap_handler_m__clear_highest_priority_interrupt>
    4100059c:	f9dff06f          	j	41000538 <trap_handler_m__clear_highest_priority_interrupt>
    410005a0:	f99ff06f          	j	41000538 <trap_handler_m__clear_highest_priority_interrupt>
    410005a4:	f95ff06f          	j	41000538 <trap_handler_m__clear_highest_priority_interrupt>
    410005a8:	f91ff06f          	j	41000538 <trap_handler_m__clear_highest_priority_interrupt>
    410005ac:	f8dff06f          	j	41000538 <trap_handler_m__clear_highest_priority_interrupt>
    410005b0:	f89ff06f          	j	41000538 <trap_handler_m__clear_highest_priority_interrupt>
    410005b4:	f85ff06f          	j	41000538 <trap_handler_m__clear_highest_priority_interrupt>
    410005b8:	f81ff06f          	j	41000538 <trap_handler_m__clear_highest_priority_interrupt>
    410005bc:	f7dff06f          	j	41000538 <trap_handler_m__clear_highest_priority_interrupt>
    410005c0:	f79ff06f          	j	41000538 <trap_handler_m__clear_highest_priority_interrupt>
    410005c4:	f75ff06f          	j	41000538 <trap_handler_m__clear_highest_priority_interrupt>
    410005c8:	f71ff06f          	j	41000538 <trap_handler_m__clear_highest_priority_interrupt>
    410005cc:	f6dff06f          	j	41000538 <trap_handler_m__clear_highest_priority_interrupt>
    410005d0:	f69ff06f          	j	41000538 <trap_handler_m__clear_highest_priority_interrupt>
    410005d4:	f65ff06f          	j	41000538 <trap_handler_m__clear_highest_priority_interrupt>
    410005d8:	f61ff06f          	j	41000538 <trap_handler_m__clear_highest_priority_interrupt>
    410005dc:	f5dff06f          	j	41000538 <trap_handler_m__clear_highest_priority_interrupt>
    410005e0:	f59ff06f          	j	41000538 <trap_handler_m__clear_highest_priority_interrupt>
    410005e4:	f55ff06f          	j	41000538 <trap_handler_m__clear_highest_priority_interrupt>
    410005e8:	f51ff06f          	j	41000538 <trap_handler_m__clear_highest_priority_interrupt>
    410005ec:	f4dff06f          	j	41000538 <trap_handler_m__clear_highest_priority_interrupt>
    410005f0:	f49ff06f          	j	41000538 <trap_handler_m__clear_highest_priority_interrupt>
    410005f4:	f45ff06f          	j	41000538 <trap_handler_m__clear_highest_priority_interrupt>
    410005f8:	f41ff06f          	j	41000538 <trap_handler_m__clear_highest_priority_interrupt>
    410005fc:	f3dff06f          	j	41000538 <trap_handler_m__clear_highest_priority_interrupt>
    41000600:	f39ff06f          	j	41000538 <trap_handler_m__clear_highest_priority_interrupt>
    41000604:	f35ff06f          	j	41000538 <trap_handler_m__clear_highest_priority_interrupt>
    41000608:	f31ff06f          	j	41000538 <trap_handler_m__clear_highest_priority_interrupt>
    4100060c:	f2dff06f          	j	41000538 <trap_handler_m__clear_highest_priority_interrupt>
    41000610:	f29ff06f          	j	41000538 <trap_handler_m__clear_highest_priority_interrupt>
    41000614:	f25ff06f          	j	41000538 <trap_handler_m__clear_highest_priority_interrupt>
    41000618:	f21ff06f          	j	41000538 <trap_handler_m__clear_highest_priority_interrupt>
    4100061c:	f1dff06f          	j	41000538 <trap_handler_m__clear_highest_priority_interrupt>
    41000620:	f19ff06f          	j	41000538 <trap_handler_m__clear_highest_priority_interrupt>
    41000624:	f15ff06f          	j	41000538 <trap_handler_m__clear_highest_priority_interrupt>
    41000628:	f11ff06f          	j	41000538 <trap_handler_m__clear_highest_priority_interrupt>
    4100062c:	f0dff06f          	j	41000538 <trap_handler_m__clear_highest_priority_interrupt>
    41000630:	f09ff06f          	j	41000538 <trap_handler_m__clear_highest_priority_interrupt>
    41000634:	f05ff06f          	j	41000538 <trap_handler_m__clear_highest_priority_interrupt>
    41000638:	f01ff06f          	j	41000538 <trap_handler_m__clear_highest_priority_interrupt>
    4100063c:	efdff06f          	j	41000538 <trap_handler_m__clear_highest_priority_interrupt>
    41000640:	ef9ff06f          	j	41000538 <trap_handler_m__clear_highest_priority_interrupt>
    41000644:	ef5ff06f          	j	41000538 <trap_handler_m__clear_highest_priority_interrupt>

0000000041000648 <trap_handler_m__trap_handler>:
    41000648:	342022f3          	csrr	x5,mcause
    4100064c:	fff0031b          	addiw	x6,x0,-1
    41000650:	03f31313          	slli	x6,x6,0x3f
    41000654:	00537333          	and	x6,x6,x5
    41000658:	02030263          	beqz	x6,4100067c <trap_handler_m__exception_path>

000000004100065c <trap_handler_m__interrupt_handler>:
    4100065c:	fff0031b          	addiw	x6,x0,-1
    41000660:	03f31313          	slli	x6,x6,0x3f
    41000664:	0062c2b3          	xor	x5,x5,x6
    41000668:	00000317          	auipc	x6,0x0
    4100066c:	ee430313          	addi	x6,x6,-284 # 4100054c <trap_handler_m__trap_entry>
    41000670:	00229293          	slli	x5,x5,0x2
    41000674:	005302b3          	add	x5,x6,x5
    41000678:	00028067          	jr	x5 # 2000 <pma_region_1_size+0x1000>

000000004100067c <trap_handler_m__exception_path>:
    4100067c:	34021273          	csrrw	x4,mscratch,x4
    41000680:	00000297          	auipc	x5,0x0
    41000684:	10828293          	addi	x5,x5,264 # 41000788 <trap_handler_m__trap_panic>
    41000688:	30529073          	csrw	mtvec,x5
    4100068c:	0040006f          	j	41000690 <trap_handler_m__excp_entry>

0000000041000690 <trap_handler_m__excp_entry>:
    41000690:	34202373          	csrr	x6,mcause
    41000694:	00800293          	li	x5,8
    41000698:	00534863          	blt	x6,x5,410006a8 <trap_handler_m__check_exception_label>
    4100069c:	00b00293          	li	x5,11
    410006a0:	0062c463          	blt	x5,x6,410006a8 <trap_handler_m__check_exception_label>
    410006a4:	a31ff06f          	j	410000d4 <syscalls__syscall_check_schedule_next_test>

00000000410006a8 <trap_handler_m__check_exception_label>:
    410006a8:	04623c23          	sd	x6,88(x4) # 58 <XLEN+0x18>
    410006ac:	341022f3          	csrr	x5,mepc
    410006b0:	02523423          	sd	x5,40(x4) # 28 <SECURE_ACCESS_PROBABILITY+0xa>
    410006b4:	01820283          	lb	x5,24(x4) # 18 <STORE_GUEST_PAGE_FAULT+0x1>
    410006b8:	00029863          	bnez	x5,410006c8 <trap_handler_m__check_excp>
    410006bc:	00128293          	addi	x5,x5,1
    410006c0:	00520c23          	sb	x5,24(x4) # 18 <STORE_GUEST_PAGE_FAULT+0x1>
    410006c4:	0980006f          	j	4100075c <trap_handler_m__ecall_from_machine>

00000000410006c8 <trap_handler_m__check_excp>:
    410006c8:	06823283          	ld	x5,104(x4) # 68 <XLEN+0x28>
    410006cc:	06023423          	sd	x0,104(x4) # 68 <XLEN+0x28>
    410006d0:	00028663          	beqz	x5,410006dc <trap_handler_m__skip_mode_check>
    410006d4:	00100393          	li	x7,1
    410006d8:	0e729463          	bne	x5,x7,410007c0 <test_failed>

00000000410006dc <trap_handler_m__skip_mode_check>:
    410006dc:	05023283          	ld	x5,80(x4) # 50 <XLEN+0x10>
    410006e0:	04023823          	sd	x0,80(x4) # 50 <XLEN+0x10>
    410006e4:	0c531e63          	bne	x6,x5,410007c0 <test_failed>
    410006e8:	03823283          	ld	x5,56(x4) # 38 <SECURE_ACCESS_PROBABILITY+0x1a>
    410006ec:	02023c23          	sd	x0,56(x4) # 38 <SECURE_ACCESS_PROBABILITY+0x1a>
    410006f0:	06029463          	bnez	x5,41000758 <trap_handler_m__skip_gva_check>
    410006f4:	02023303          	ld	x6,32(x4) # 20 <SECURE_ACCESS_PROBABILITY+0x2>
    410006f8:	02023023          	sd	x0,32(x4) # 20 <SECURE_ACCESS_PROBABILITY+0x2>
    410006fc:	02823283          	ld	x5,40(x4) # 28 <SECURE_ACCESS_PROBABILITY+0xa>
    41000700:	02023423          	sd	x0,40(x4) # 28 <SECURE_ACCESS_PROBABILITY+0xa>
    41000704:	0a531e63          	bne	x6,x5,410007c0 <test_failed>
    41000708:	04023283          	ld	x5,64(x4) # 40 <XLEN>
    4100070c:	04023023          	sd	x0,64(x4) # 40 <XLEN>
    41000710:	00028663          	beqz	x5,4100071c <trap_handler_m__skip_nonzero_tval_check>

0000000041000714 <trap_handler_m__nonzero_tval_check>:
    41000714:	34302373          	csrr	x6,mtval
    41000718:	0a531463          	bne	x6,x5,410007c0 <test_failed>

000000004100071c <trap_handler_m__skip_nonzero_tval_check>:
    4100071c:	04823283          	ld	x5,72(x4) # 48 <XLEN+0x8>
    41000720:	04023423          	sd	x0,72(x4) # 48 <XLEN+0x8>
    41000724:	00028663          	beqz	x5,41000730 <trap_handler_m__skip_nonzero_htval_check>

0000000041000728 <trap_handler_m__nonzero_htval_check>:
    41000728:	34b02373          	csrr	x6,0x34b
    4100072c:	08531a63          	bne	x6,x5,410007c0 <test_failed>

0000000041000730 <trap_handler_m__skip_nonzero_htval_check>:
    41000730:	06023283          	ld	x5,96(x4) # 60 <XLEN+0x20>
    41000734:	06023023          	sd	x0,96(x4) # 60 <XLEN+0x20>
    41000738:	02028063          	beqz	x5,41000758 <trap_handler_m__skip_gva_check>

000000004100073c <trap_handler_m__gva_check>:
    4100073c:	30002373          	csrr	x6,mstatus
    41000740:	02635313          	srli	x6,x6,0x26
    41000744:	00137313          	andi	x6,x6,1
    41000748:	06030c63          	beqz	x6,410007c0 <test_failed>
    4100074c:	0010031b          	addiw	x6,x0,1
    41000750:	02631313          	slli	x6,x6,0x26
    41000754:	30033073          	csrc	mstatus,x6

0000000041000758 <trap_handler_m__skip_gva_check>:
    41000758:	0040006f          	j	4100075c <trap_handler_m__ecall_from_machine>

000000004100075c <trap_handler_m__ecall_from_machine>:
    4100075c:	03023283          	ld	x5,48(x4) # 30 <SECURE_ACCESS_PROBABILITY+0x12>
    41000760:	02023823          	sd	x0,48(x4) # 30 <SECURE_ACCESS_PROBABILITY+0x12>
    41000764:	07023303          	ld	x6,112(x4) # 70 <XLEN+0x30>
    41000768:	06023823          	sd	x0,112(x4) # 70 <XLEN+0x30>
    4100076c:	00031463          	bnez	x6,41000774 <trap_handler_m__skip_xepc_write>
    41000770:	34129073          	csrw	mepc,x5

0000000041000774 <trap_handler_m__skip_xepc_write>:
    41000774:	00000317          	auipc	x6,0x0
    41000778:	dd830313          	addi	x6,x6,-552 # 4100054c <trap_handler_m__trap_entry>
    4100077c:	30531073          	csrw	mtvec,x6
    41000780:	34021273          	csrrw	x4,mscratch,x4
    41000784:	30200073          	mret

0000000041000788 <trap_handler_m__trap_panic>:
    41000788:	00000193          	li	x3,0
    4100078c:	2b40006f          	j	41000a40 <eot__end_test>

0000000041000790 <enter_scheduler>:
    41000790:	0002f337          	lui	x6,0x2f
    41000794:	ab73031b          	addiw	x6,x6,-1353 # 2eab7 <__section_data_1+0x13ab7>
    41000798:	00e31313          	slli	x6,x6,0xe
    4100079c:	0de30313          	addi	x6,x6,222
    410007a0:	02628063          	beq	x5,x6,410007c0 <test_failed>
    410007a4:	00000513          	li	x10,0
    410007a8:	030000ef          	jal	410007d8 <rvcp_print_test_result>
    410007ac:	3180006f          	j	41000ac4 <scheduler__dispatch>

00000000410007b0 <test_passed>:
    410007b0:	34021273          	csrrw	x4,mscratch,x4
    410007b4:	00000513          	li	x10,0
    410007b8:	020000ef          	jal	410007d8 <rvcp_print_test_result>
    410007bc:	3080006f          	j	41000ac4 <scheduler__dispatch>

00000000410007c0 <test_failed>:
    410007c0:	34021273          	csrrw	x4,mscratch,x4
    410007c4:	00300193          	li	x3,3
    410007c8:	2780006f          	j	41000a40 <eot__end_test>

00000000410007cc <os_end_test>:
    410007cc:	34021273          	csrrw	x4,mscratch,x4
    410007d0:	00100193          	li	x3,1
    410007d4:	26c0006f          	j	41000a40 <eot__end_test>

00000000410007d8 <rvcp_print_test_result>:
    410007d8:	00050e13          	mv	x28,x10
    410007dc:	18823283          	ld	x5,392(x4) # 188 <XLEN+0x148>
    410007e0:	0010031b          	addiw	x6,x0,1
    410007e4:	02031313          	slli	x6,x6,0x20
    410007e8:	ffe30313          	addi	x6,x6,-2
    410007ec:	1c628063          	beq	x5,x6,410009ac <rvcp_print_test_result+0x1d4>
    410007f0:	0010031b          	addiw	x6,x0,1
    410007f4:	02031313          	slli	x6,x6,0x20
    410007f8:	fff30313          	addi	x6,x6,-1
    410007fc:	1a628863          	beq	x5,x6,410009ac <rvcp_print_test_result+0x1d4>
    41000800:	1a02c663          	bltz	x5,410009ac <rvcp_print_test_result+0x1d4>
    41000804:	00000317          	auipc	x6,0x0
    41000808:	3e830313          	addi	x6,x6,1000 # 41000bec <dtest_descriptor_table>
    4100080c:	00329393          	slli	x7,x5,0x3
    41000810:	00730333          	add	x6,x6,x7
    41000814:	00033e83          	ld	x29,0(x6)
    41000818:	420faf37          	lui	x30,0x420fa
    4100081c:	030f0f1b          	addiw	x30,x30,48 # 420fa030 <rvcp_prefix_str_pa>
    41000820:	000f4283          	lbu	x5,0(x30)
    41000824:	02028663          	beqz	x5,41000850 <rvcp_print_test_result+0x78>
    41000828:	1010031b          	addiw	x6,x0,257
    4100082c:	03031313          	slli	x6,x6,0x30
    41000830:	005362b3          	or	x5,x6,x5
    41000834:	0003f317          	auipc	x6,0x3f
    41000838:	7cc30313          	addi	x6,x6,1996 # 41040000 <tohost>
    4100083c:	00033383          	ld	x7,0(x6)
    41000840:	fe039ee3          	bnez	x7,4100083c <rvcp_print_test_result+0x64>
    41000844:	00533023          	sd	x5,0(x6)
    41000848:	001f0f13          	addi	x30,x30,1
    4100084c:	fd5ff06f          	j	41000820 <rvcp_print_test_result+0x48>
    41000850:	420faf37          	lui	x30,0x420fa
    41000854:	041f0f1b          	addiw	x30,x30,65 # 420fa041 <rvcp_testname_str_pa>
    41000858:	000f4283          	lbu	x5,0(x30)
    4100085c:	02028663          	beqz	x5,41000888 <rvcp_print_test_result+0xb0>
    41000860:	1010031b          	addiw	x6,x0,257
    41000864:	03031313          	slli	x6,x6,0x30
    41000868:	005362b3          	or	x5,x6,x5
    4100086c:	0003f317          	auipc	x6,0x3f
    41000870:	79430313          	addi	x6,x6,1940 # 41040000 <tohost>
    41000874:	00033383          	ld	x7,0(x6)
    41000878:	fe039ee3          	bnez	x7,41000874 <rvcp_print_test_result+0x9c>
    4100087c:	00533023          	sd	x5,0(x6)
    41000880:	001f0f13          	addi	x30,x30,1
    41000884:	fd5ff06f          	j	41000858 <rvcp_print_test_result+0x80>
    41000888:	420faf37          	lui	x30,0x420fa
    4100088c:	059f0f1b          	addiw	x30,x30,89 # 420fa059 <rvcp_space_str_pa>
    41000890:	000f4283          	lbu	x5,0(x30)
    41000894:	02028663          	beqz	x5,410008c0 <rvcp_print_test_result+0xe8>
    41000898:	1010031b          	addiw	x6,x0,257
    4100089c:	03031313          	slli	x6,x6,0x30
    410008a0:	005362b3          	or	x5,x6,x5
    410008a4:	0003f317          	auipc	x6,0x3f
    410008a8:	75c30313          	addi	x6,x6,1884 # 41040000 <tohost>
    410008ac:	00033383          	ld	x7,0(x6)
    410008b0:	fe039ee3          	bnez	x7,410008ac <rvcp_print_test_result+0xd4>
    410008b4:	00533023          	sd	x5,0(x6)
    410008b8:	001f0f13          	addi	x30,x30,1
    410008bc:	fd5ff06f          	j	41000890 <rvcp_print_test_result+0xb8>
    410008c0:	000e8f13          	mv	x30,x29
    410008c4:	000f4283          	lbu	x5,0(x30)
    410008c8:	02028663          	beqz	x5,410008f4 <rvcp_print_test_result+0x11c>
    410008cc:	1010031b          	addiw	x6,x0,257
    410008d0:	03031313          	slli	x6,x6,0x30
    410008d4:	005362b3          	or	x5,x6,x5
    410008d8:	0003f317          	auipc	x6,0x3f
    410008dc:	72830313          	addi	x6,x6,1832 # 41040000 <tohost>
    410008e0:	00033383          	ld	x7,0(x6)
    410008e4:	fe039ee3          	bnez	x7,410008e0 <rvcp_print_test_result+0x108>
    410008e8:	00533023          	sd	x5,0(x6)
    410008ec:	001f0f13          	addi	x30,x30,1
    410008f0:	fd5ff06f          	j	410008c4 <rvcp_print_test_result+0xec>
    410008f4:	420faf37          	lui	x30,0x420fa
    410008f8:	059f0f1b          	addiw	x30,x30,89 # 420fa059 <rvcp_space_str_pa>
    410008fc:	000f4283          	lbu	x5,0(x30)
    41000900:	02028663          	beqz	x5,4100092c <rvcp_print_test_result+0x154>
    41000904:	1010031b          	addiw	x6,x0,257
    41000908:	03031313          	slli	x6,x6,0x30
    4100090c:	005362b3          	or	x5,x6,x5
    41000910:	0003f317          	auipc	x6,0x3f
    41000914:	6f030313          	addi	x6,x6,1776 # 41040000 <tohost>
    41000918:	00033383          	ld	x7,0(x6)
    4100091c:	fe039ee3          	bnez	x7,41000918 <rvcp_print_test_result+0x140>
    41000920:	00533023          	sd	x5,0(x6)
    41000924:	001f0f13          	addi	x30,x30,1
    41000928:	fd5ff06f          	j	410008fc <rvcp_print_test_result+0x124>
    4100092c:	000e1863          	bnez	x28,4100093c <rvcp_print_test_result+0x164>
    41000930:	420faf37          	lui	x30,0x420fa
    41000934:	04bf0f1b          	addiw	x30,x30,75 # 420fa04b <rvcp_passed_str_pa>
    41000938:	00c0006f          	j	41000944 <rvcp_print_test_result+0x16c>
    4100093c:	420faf37          	lui	x30,0x420fa
    41000940:	052f0f1b          	addiw	x30,x30,82 # 420fa052 <rvcp_failed_str_pa>
    41000944:	000f4283          	lbu	x5,0(x30)
    41000948:	02028663          	beqz	x5,41000974 <rvcp_print_test_result+0x19c>
    4100094c:	1010031b          	addiw	x6,x0,257
    41000950:	03031313          	slli	x6,x6,0x30
    41000954:	005362b3          	or	x5,x6,x5
    41000958:	0003f317          	auipc	x6,0x3f
    4100095c:	6a830313          	addi	x6,x6,1704 # 41040000 <tohost>
    41000960:	00033383          	ld	x7,0(x6)
    41000964:	fe039ee3          	bnez	x7,41000960 <rvcp_print_test_result+0x188>
    41000968:	00533023          	sd	x5,0(x6)
    4100096c:	001f0f13          	addi	x30,x30,1
    41000970:	fd5ff06f          	j	41000944 <rvcp_print_test_result+0x16c>
    41000974:	420faf37          	lui	x30,0x420fa
    41000978:	05bf0f1b          	addiw	x30,x30,91 # 420fa05b <rvcp_newline_str_pa>
    4100097c:	000f4283          	lbu	x5,0(x30)
    41000980:	02028663          	beqz	x5,410009ac <rvcp_print_test_result+0x1d4>
    41000984:	1010031b          	addiw	x6,x0,257
    41000988:	03031313          	slli	x6,x6,0x30
    4100098c:	005362b3          	or	x5,x6,x5
    41000990:	0003f317          	auipc	x6,0x3f
    41000994:	67030313          	addi	x6,x6,1648 # 41040000 <tohost>
    41000998:	00033383          	ld	x7,0(x6)
    4100099c:	fe039ee3          	bnez	x7,41000998 <rvcp_print_test_result+0x1c0>
    410009a0:	00533023          	sd	x5,0(x6)
    410009a4:	001f0f13          	addi	x30,x30,1
    410009a8:	fd5ff06f          	j	4100097c <rvcp_print_test_result+0x1a4>
    410009ac:	00008067          	ret

00000000410009b0 <os_rng_orig>:
    410009b0:	f14023f3          	csrr	x7,mhartid
    410009b4:	00068313          	mv	x6,x13
    410009b8:	026383b3          	mul	x7,x7,x6
    410009bc:	00058313          	mv	x6,x11
    410009c0:	00730333          	add	x6,x6,x7
    410009c4:	00033283          	ld	x5,0(x6)
    410009c8:	01529313          	slli	x6,x5,0x15
    410009cc:	0062c2b3          	xor	x5,x5,x6
    410009d0:	0232d313          	srli	x6,x5,0x23
    410009d4:	0062c2b3          	xor	x5,x5,x6
    410009d8:	00429313          	slli	x6,x5,0x4
    410009dc:	0062c2b3          	xor	x5,x5,x6
    410009e0:	00058313          	mv	x6,x11
    410009e4:	00730333          	add	x6,x6,x7
    410009e8:	00533023          	sd	x5,0(x6)
    410009ec:	00060313          	mv	x6,x12
    410009f0:	0262f2b3          	remu	x5,x5,x6
    410009f4:	00028513          	mv	x10,x5
    410009f8:	00008067          	ret
    410009fc:	02a00513          	li	x10,42
    41000a00:	001965b7          	lui	x11,0x196
    41000a04:	60d5859b          	addiw	x11,x11,1549 # 19660d <pma_region_0_size+0x15660d>
    41000a08:	3c6ef637          	lui	x12,0x3c6ef
    41000a0c:	35f6061b          	addiw	x12,x12,863 # 3c6ef35f <SID_SSTC_03_U_stack+0x334f135f>
    41000a10:	02200693          	li	x13,34
    41000a14:	02b50533          	mul	x10,x10,x11
    41000a18:	00c50533          	add	x10,x10,x12
    41000a1c:	02d56533          	rem	x10,x10,x13
    41000a20:	00b00593          	li	x11,11
    41000a24:	02b56533          	rem	x10,x10,x11
    41000a28:	00008067          	ret
    41000a2c:	0000                	.insn	2, 0x0000
	...

0000000041000a30 <tohost_mutex>:
	...

0000000041000a38 <tohost_addr_mem>:
    41000a38:	0000                	.insn	2, 0x0000
    41000a3a:	4104                	.insn	2, 0x4104
    41000a3c:	0000                	.insn	2, 0x0000
	...

0000000041000a40 <eot__end_test>:
    41000a40:	00100293          	li	x5,1
    41000a44:	00328463          	beq	x5,x3,41000a4c <eot__passed>
    41000a48:	01c0006f          	j	41000a64 <eot__failed>

0000000041000a4c <eot__passed>:
    41000a4c:	0ff0000f          	fence
    41000a50:	00000297          	auipc	x5,0x0
    41000a54:	fe82b283          	ld	x5,-24(x5) # 41000a38 <tohost_addr_mem>
    41000a58:	00100313          	li	x6,1
    41000a5c:	0062a023          	sw	x6,0(x5)
    41000a60:	0240006f          	j	41000a84 <eot__halt>

0000000041000a64 <eot__failed>:
    41000a64:	00100513          	li	x10,1
    41000a68:	d71ff0ef          	jal	410007d8 <rvcp_print_test_result>
    41000a6c:	0ff0000f          	fence
    41000a70:	00000297          	auipc	x5,0x0
    41000a74:	fc82b283          	ld	x5,-56(x5) # 41000a38 <tohost_addr_mem>
    41000a78:	00300313          	li	x6,3
    41000a7c:	0062a023          	sw	x6,0(x5)
    41000a80:	0040006f          	j	41000a84 <eot__halt>

0000000041000a84 <eot__halt>:
    41000a84:	10500073          	wfi
    41000a88:	ffdff06f          	j	41000a84 <eot__halt>

0000000041000a8c <scheduler__init>:
    41000a8c:	00000297          	auipc	x5,0x0
    41000a90:	0d028293          	addi	x5,x5,208 # 41000b5c <scheduler__panic>
    41000a94:	305292f3          	csrrw	x5,mtvec,x5
    41000a98:	18523023          	sd	x5,384(x4) # 180 <XLEN+0x140>
    41000a9c:	01000293          	li	x5,16
    41000aa0:	18523823          	sd	x5,400(x4) # 190 <XLEN+0x150>
    41000aa4:	0010029b          	addiw	x5,x0,1
    41000aa8:	02029293          	slli	x5,x5,0x20
    41000aac:	ffe28293          	addi	x5,x5,-2
    41000ab0:	18523423          	sd	x5,392(x4) # 188 <XLEN+0x148>
    41000ab4:	00000317          	auipc	x6,0x0
    41000ab8:	1e830313          	addi	x6,x6,488 # 41000c9c <scheduler__test_setup_ptr>
    41000abc:	00033303          	ld	x6,0(x6)
    41000ac0:	0740006f          	j	41000b34 <scheduler__execute_test>

0000000041000ac4 <scheduler__dispatch>:
    41000ac4:	00000297          	auipc	x5,0x0
    41000ac8:	09828293          	addi	x5,x5,152 # 41000b5c <scheduler__panic>
    41000acc:	305292f3          	csrrw	x5,mtvec,x5
    41000ad0:	18523023          	sd	x5,384(x4) # 180 <XLEN+0x140>

0000000041000ad4 <scheduler__csr_read_randomization>:
    41000ad4:	143022f3          	csrr	x5,stval
    41000ad8:	343022f3          	csrr	x5,mtval
    41000adc:	142022f3          	csrr	x5,scause
    41000ae0:	143022f3          	csrr	x5,stval
    41000ae4:	10a022f3          	csrr	x5,0x10a
    41000ae8:	144022f3          	csrr	x5,sip
    41000aec:	304022f3          	csrr	x5,mie
    41000af0:	144022f3          	csrr	x5,sip
    41000af4:	f12022f3          	csrr	x5,marchid

0000000041000af8 <scheduler__load_num_runs>:
    41000af8:	19023303          	ld	x6,400(x4) # 190 <XLEN+0x150>
    41000afc:	04030c63          	beqz	x6,41000b54 <scheduler__finished>

0000000041000b00 <scheduler__decrement_num_runs>:
    41000b00:	fff30393          	addi	x7,x6,-1
    41000b04:	18723823          	sd	x7,400(x4) # 190 <XLEN+0x150>
    41000b08:	00000e17          	auipc	x28,0x0
    41000b0c:	154e0e13          	addi	x28,x28,340 # 41000c5c <dtest_index_map>
    41000b10:	00239e93          	slli	x29,x7,0x2
    41000b14:	01de0e33          	add	x28,x28,x29
    41000b18:	000e2e03          	lw	x28,0(x28)
    41000b1c:	19c23423          	sd	x28,392(x4) # 188 <XLEN+0x148>

0000000041000b20 <scheduler__calc_test_pointer>:
    41000b20:	00339293          	slli	x5,x7,0x3

0000000041000b24 <scheduler__load_test_addr>:
    41000b24:	00000317          	auipc	x6,0x0
    41000b28:	04830313          	addi	x6,x6,72 # 41000b6c <os_test_sequence>
    41000b2c:	006282b3          	add	x5,x5,x6
    41000b30:	0002b303          	ld	x6,0(x5)

0000000041000b34 <scheduler__execute_test>:
    41000b34:	18023283          	ld	x5,384(x4) # 180 <XLEN+0x140>
    41000b38:	30529073          	csrw	mtvec,x5
    41000b3c:	34021273          	csrrw	x4,mscratch,x4
    41000b40:	00000213          	li	x4,0
    41000b44:	14131073          	csrw	sepc,x6
    41000b48:	10000293          	li	x5,256
    41000b4c:	1002b073          	csrc	sstatus,x5
    41000b50:	10200073          	sret

0000000041000b54 <scheduler__finished>:
    41000b54:	00100193          	li	x3,1
    41000b58:	ee9ff06f          	j	41000a40 <eot__end_test>

0000000041000b5c <scheduler__panic>:
    41000b5c:	00000193          	li	x3,0
    41000b60:	ee1ff06f          	j	41000a40 <eot__end_test>

0000000041000b64 <num_runs>:
    41000b64:	0010                	.insn	2, 0x0010
    41000b66:	0000                	.insn	2, 0x0000
    41000b68:	0000                	.insn	2, 0x0000
	...

0000000041000b6c <os_test_sequence>:
    41000b6c:	6398                	.insn	2, 0x6398
    41000b6e:	4101                	.insn	2, 0x4101
    41000b70:	0000                	.insn	2, 0x0000
    41000b72:	0000                	.insn	2, 0x0000
    41000b74:	5f24                	.insn	2, 0x5f24
    41000b76:	4101                	.insn	2, 0x4101
    41000b78:	0000                	.insn	2, 0x0000
    41000b7a:	0000                	.insn	2, 0x0000
    41000b7c:	58f0                	.insn	2, 0x58f0
    41000b7e:	4101                	.insn	2, 0x4101
    41000b80:	0000                	.insn	2, 0x0000
    41000b82:	0000                	.insn	2, 0x0000
    41000b84:	5ca0                	.insn	2, 0x5ca0
    41000b86:	4101                	.insn	2, 0x4101
    41000b88:	0000                	.insn	2, 0x0000
    41000b8a:	0000                	.insn	2, 0x0000
    41000b8c:	615c                	.insn	2, 0x615c
    41000b8e:	4101                	.insn	2, 0x4101
    41000b90:	0000                	.insn	2, 0x0000
    41000b92:	0000                	.insn	2, 0x0000
    41000b94:	5f24                	.insn	2, 0x5f24
    41000b96:	4101                	.insn	2, 0x4101
    41000b98:	0000                	.insn	2, 0x0000
    41000b9a:	0000                	.insn	2, 0x0000
    41000b9c:	5ca0                	.insn	2, 0x5ca0
    41000b9e:	4101                	.insn	2, 0x4101
    41000ba0:	0000                	.insn	2, 0x0000
    41000ba2:	0000                	.insn	2, 0x0000
    41000ba4:	5ca0                	.insn	2, 0x5ca0
    41000ba6:	4101                	.insn	2, 0x4101
    41000ba8:	0000                	.insn	2, 0x0000
    41000baa:	0000                	.insn	2, 0x0000
    41000bac:	58f0                	.insn	2, 0x58f0
    41000bae:	4101                	.insn	2, 0x4101
    41000bb0:	0000                	.insn	2, 0x0000
    41000bb2:	0000                	.insn	2, 0x0000
    41000bb4:	5170                	.insn	2, 0x5170
    41000bb6:	4101                	.insn	2, 0x4101
    41000bb8:	0000                	.insn	2, 0x0000
    41000bba:	0000                	.insn	2, 0x0000
    41000bbc:	58f0                	.insn	2, 0x58f0
    41000bbe:	4101                	.insn	2, 0x4101
    41000bc0:	0000                	.insn	2, 0x0000
    41000bc2:	0000                	.insn	2, 0x0000
    41000bc4:	5f24                	.insn	2, 0x5f24
    41000bc6:	4101                	.insn	2, 0x4101
    41000bc8:	0000                	.insn	2, 0x0000
    41000bca:	0000                	.insn	2, 0x0000
    41000bcc:	5170                	.insn	2, 0x5170
    41000bce:	4101                	.insn	2, 0x4101
    41000bd0:	0000                	.insn	2, 0x0000
    41000bd2:	0000                	.insn	2, 0x0000
    41000bd4:	5170                	.insn	2, 0x5170
    41000bd6:	4101                	.insn	2, 0x4101
    41000bd8:	0000                	.insn	2, 0x0000
    41000bda:	0000                	.insn	2, 0x0000
    41000bdc:	615c                	.insn	2, 0x615c
    41000bde:	4101                	.insn	2, 0x4101
    41000be0:	0000                	.insn	2, 0x0000
    41000be2:	0000                	.insn	2, 0x0000
    41000be4:	615c                	.insn	2, 0x615c
    41000be6:	4101                	.insn	2, 0x4101
    41000be8:	0000                	.insn	2, 0x0000
	...

0000000041000bec <dtest_descriptor_table>:
    41000bec:	0c14                	.insn	2, 0x0c14
    41000bee:	4100                	.insn	2, 0x4100
    41000bf0:	0000                	.insn	2, 0x0000
    41000bf2:	0000                	.insn	2, 0x0000
    41000bf4:	0c20                	.insn	2, 0x0c20
    41000bf6:	4100                	.insn	2, 0x4100
    41000bf8:	0000                	.insn	2, 0x0000
    41000bfa:	0000                	.insn	2, 0x0000
    41000bfc:	41000c2f          	.insn	4, 0x41000c2f
    41000c00:	0000                	.insn	2, 0x0000
    41000c02:	0000                	.insn	2, 0x0000
    41000c04:	0c3d                	.insn	2, 0x0c3d
    41000c06:	4100                	.insn	2, 0x4100
    41000c08:	0000                	.insn	2, 0x0000
    41000c0a:	0000                	.insn	2, 0x0000
    41000c0c:	41000c4f          	fnmadd.s	f24,f0,f16,f8,rne
    41000c10:	0000                	.insn	2, 0x0000
	...

0000000041000c14 <dtest_name_0>:
    41000c14:	5f444953          	.insn	4, 0x5f444953
    41000c18:	43545353          	.insn	4, 0x43545353
    41000c1c:	305f 0031       	.insn	6, 0x49530031305f

0000000041000c20 <dtest_name_1>:
    41000c20:	5f444953          	.insn	4, 0x5f444953
    41000c24:	43545353          	.insn	4, 0x43545353
    41000c28:	305f 5f32 5548      	.insn	6, 0x55485f32305f
	...

0000000041000c2f <dtest_name_2>:
    41000c2f:	5f444953          	.insn	4, 0x5f444953
    41000c33:	43545353          	.insn	4, 0x43545353
    41000c37:	305f 5f33 0055      	.insn	6, 0x00555f33305f

0000000041000c3d <dtest_name_3>:
    41000c3d:	5f444953          	.insn	4, 0x5f444953
    41000c41:	43545353          	.insn	4, 0x43545353
    41000c45:	305f 5f34 4f4e      	.insn	6, 0x4f4e5f34305f
    41000c4b:	5f4e                	.insn	2, 0x5f4e
    41000c4d:	004d                	.insn	2, 0x004d

0000000041000c4f <dtest_name_4>:
    41000c4f:	5f444953          	.insn	4, 0x5f444953
    41000c53:	43545353          	.insn	4, 0x43545353
    41000c57:	305f 0036       	.insn	6, 0xff000036305f

0000000041000c5c <dtest_index_map>:
    41000c5c:	ffff                	.insn	2, 0xffff
    41000c5e:	ffff                	.insn	2, 0xffff
    41000c60:	00000003          	lb	x0,0(x0) # 0 <ALL_4KB_PAGES>
    41000c64:	0001                	.insn	2, 0x0001
    41000c66:	0000                	.insn	2, 0x0000
    41000c68:	0002                	.insn	2, 0x0002
    41000c6a:	0000                	.insn	2, 0x0000
    41000c6c:	0004                	.insn	2, 0x0004
    41000c6e:	0000                	.insn	2, 0x0000
    41000c70:	00000003          	lb	x0,0(x0) # 0 <ALL_4KB_PAGES>
    41000c74:	0002                	.insn	2, 0x0002
    41000c76:	0000                	.insn	2, 0x0000
    41000c78:	0002                	.insn	2, 0x0002
    41000c7a:	0000                	.insn	2, 0x0000
    41000c7c:	0001                	.insn	2, 0x0001
    41000c7e:	0000                	.insn	2, 0x0000
    41000c80:	0000                	.insn	2, 0x0000
    41000c82:	0000                	.insn	2, 0x0000
    41000c84:	0001                	.insn	2, 0x0001
    41000c86:	0000                	.insn	2, 0x0000
    41000c88:	00000003          	lb	x0,0(x0) # 0 <ALL_4KB_PAGES>
	...
    41000c94:	0004                	.insn	2, 0x0004
    41000c96:	0000                	.insn	2, 0x0000
    41000c98:	0004                	.insn	2, 0x0004
	...

0000000041000c9c <scheduler__test_setup_ptr>:
    41000c9c:	5160                	.insn	2, 0x5160
    41000c9e:	4101                	.insn	2, 0x4101
    41000ca0:	0000                	.insn	2, 0x0000
	...

0000000041000ca4 <scheduler__test_cleanup_ptr>:
    41000ca4:	6398                	.insn	2, 0x6398
    41000ca6:	4101                	.insn	2, 0x4101
    41000ca8:	0000                	.insn	2, 0x0000
	...

Disassembly of section .runtime_s:

0000000041011000 <trap_handler_s__invalid_interrupt>:
    41011000:	1740006f          	j	41011174 <trap_handler_s__test_failed>

0000000041011004 <trap_handler_s__clear_all_interrupts>:
    41011004:	14401073          	csrw	sip,x0
    41011008:	10200073          	sret

000000004101100c <trap_handler_s___CLEAR_SSI>:
    4101100c:	00200293          	li	x5,2
    41011010:	1442b073          	csrc	sip,x5
    41011014:	10200073          	sret

0000000041011018 <trap_handler_s___CLEAR_MSI>:
    41011018:	00800293          	li	x5,8
    4101101c:	1442b073          	csrc	sip,x5
    41011020:	10200073          	sret

0000000041011024 <trap_handler_s___CLEAR_STI>:
    41011024:	02000293          	li	x5,32
    41011028:	1442b073          	csrc	sip,x5
    4101102c:	10200073          	sret

0000000041011030 <trap_handler_s___CLEAR_MTI>:
    41011030:	08000293          	li	x5,128
    41011034:	1442b073          	csrc	sip,x5
    41011038:	10200073          	sret

000000004101103c <trap_handler_s___CLEAR_SEI>:
    4101103c:	20000293          	li	x5,512
    41011040:	1442b073          	csrc	sip,x5
    41011044:	10200073          	sret

0000000041011048 <trap_handler_s___CLEAR_MEI>:
    41011048:	000012b7          	lui	x5,0x1
    4101104c:	8002829b          	addiw	x5,x5,-2048 # 800 <XLEN+0x7c0>
    41011050:	1442b073          	csrc	sip,x5
    41011054:	10200073          	sret

0000000041011058 <trap_handler_s___CLEAR_COI>:
    41011058:	000022b7          	lui	x5,0x2
    4101105c:	1442b073          	csrc	sip,x5
    41011060:	10200073          	sret

0000000041011064 <trap_handler_s__clear_highest_priority_interrupt>:
    41011064:	144022f3          	csrr	x5,sip
    41011068:	40500333          	neg	x6,x5
    4101106c:	0062f2b3          	and	x5,x5,x6
    41011070:	1442b073          	csrc	sip,x5
    41011074:	10200073          	sret

0000000041011078 <trap_handler_s__trap_entry>:
    41011078:	10c0006f          	j	41011184 <trap_handler_s__trap_handler>

000000004101107c <trap_handler_s__interrupt_vector_table>:
    4101107c:	f91ff06f          	j	4101100c <trap_handler_s___CLEAR_SSI>
    41011080:	f81ff06f          	j	41011000 <trap_handler_s__invalid_interrupt>
    41011084:	f95ff06f          	j	41011018 <trap_handler_s___CLEAR_MSI>
    41011088:	f79ff06f          	j	41011000 <trap_handler_s__invalid_interrupt>
    4101108c:	f99ff06f          	j	41011024 <trap_handler_s___CLEAR_STI>
    41011090:	f71ff06f          	j	41011000 <trap_handler_s__invalid_interrupt>
    41011094:	f9dff06f          	j	41011030 <trap_handler_s___CLEAR_MTI>
    41011098:	f69ff06f          	j	41011000 <trap_handler_s__invalid_interrupt>
    4101109c:	fa1ff06f          	j	4101103c <trap_handler_s___CLEAR_SEI>
    410110a0:	f61ff06f          	j	41011000 <trap_handler_s__invalid_interrupt>
    410110a4:	fa5ff06f          	j	41011048 <trap_handler_s___CLEAR_MEI>
    410110a8:	f59ff06f          	j	41011000 <trap_handler_s__invalid_interrupt>
    410110ac:	fadff06f          	j	41011058 <trap_handler_s___CLEAR_COI>
    410110b0:	f51ff06f          	j	41011000 <trap_handler_s__invalid_interrupt>
    410110b4:	f4dff06f          	j	41011000 <trap_handler_s__invalid_interrupt>
    410110b8:	fadff06f          	j	41011064 <trap_handler_s__clear_highest_priority_interrupt>
    410110bc:	fa9ff06f          	j	41011064 <trap_handler_s__clear_highest_priority_interrupt>
    410110c0:	fa5ff06f          	j	41011064 <trap_handler_s__clear_highest_priority_interrupt>
    410110c4:	fa1ff06f          	j	41011064 <trap_handler_s__clear_highest_priority_interrupt>
    410110c8:	f9dff06f          	j	41011064 <trap_handler_s__clear_highest_priority_interrupt>
    410110cc:	f99ff06f          	j	41011064 <trap_handler_s__clear_highest_priority_interrupt>
    410110d0:	f95ff06f          	j	41011064 <trap_handler_s__clear_highest_priority_interrupt>
    410110d4:	f91ff06f          	j	41011064 <trap_handler_s__clear_highest_priority_interrupt>
    410110d8:	f8dff06f          	j	41011064 <trap_handler_s__clear_highest_priority_interrupt>
    410110dc:	f89ff06f          	j	41011064 <trap_handler_s__clear_highest_priority_interrupt>
    410110e0:	f85ff06f          	j	41011064 <trap_handler_s__clear_highest_priority_interrupt>
    410110e4:	f81ff06f          	j	41011064 <trap_handler_s__clear_highest_priority_interrupt>
    410110e8:	f7dff06f          	j	41011064 <trap_handler_s__clear_highest_priority_interrupt>
    410110ec:	f79ff06f          	j	41011064 <trap_handler_s__clear_highest_priority_interrupt>
    410110f0:	f75ff06f          	j	41011064 <trap_handler_s__clear_highest_priority_interrupt>
    410110f4:	f71ff06f          	j	41011064 <trap_handler_s__clear_highest_priority_interrupt>
    410110f8:	f6dff06f          	j	41011064 <trap_handler_s__clear_highest_priority_interrupt>
    410110fc:	f69ff06f          	j	41011064 <trap_handler_s__clear_highest_priority_interrupt>
    41011100:	f65ff06f          	j	41011064 <trap_handler_s__clear_highest_priority_interrupt>
    41011104:	f61ff06f          	j	41011064 <trap_handler_s__clear_highest_priority_interrupt>
    41011108:	f5dff06f          	j	41011064 <trap_handler_s__clear_highest_priority_interrupt>
    4101110c:	f59ff06f          	j	41011064 <trap_handler_s__clear_highest_priority_interrupt>
    41011110:	f55ff06f          	j	41011064 <trap_handler_s__clear_highest_priority_interrupt>
    41011114:	f51ff06f          	j	41011064 <trap_handler_s__clear_highest_priority_interrupt>
    41011118:	f4dff06f          	j	41011064 <trap_handler_s__clear_highest_priority_interrupt>
    4101111c:	f49ff06f          	j	41011064 <trap_handler_s__clear_highest_priority_interrupt>
    41011120:	f45ff06f          	j	41011064 <trap_handler_s__clear_highest_priority_interrupt>
    41011124:	f41ff06f          	j	41011064 <trap_handler_s__clear_highest_priority_interrupt>
    41011128:	f3dff06f          	j	41011064 <trap_handler_s__clear_highest_priority_interrupt>
    4101112c:	f39ff06f          	j	41011064 <trap_handler_s__clear_highest_priority_interrupt>
    41011130:	f35ff06f          	j	41011064 <trap_handler_s__clear_highest_priority_interrupt>
    41011134:	f31ff06f          	j	41011064 <trap_handler_s__clear_highest_priority_interrupt>
    41011138:	f2dff06f          	j	41011064 <trap_handler_s__clear_highest_priority_interrupt>
    4101113c:	f29ff06f          	j	41011064 <trap_handler_s__clear_highest_priority_interrupt>
    41011140:	f25ff06f          	j	41011064 <trap_handler_s__clear_highest_priority_interrupt>
    41011144:	f21ff06f          	j	41011064 <trap_handler_s__clear_highest_priority_interrupt>
    41011148:	f1dff06f          	j	41011064 <trap_handler_s__clear_highest_priority_interrupt>
    4101114c:	f19ff06f          	j	41011064 <trap_handler_s__clear_highest_priority_interrupt>
    41011150:	f15ff06f          	j	41011064 <trap_handler_s__clear_highest_priority_interrupt>
    41011154:	f11ff06f          	j	41011064 <trap_handler_s__clear_highest_priority_interrupt>
    41011158:	f0dff06f          	j	41011064 <trap_handler_s__clear_highest_priority_interrupt>
    4101115c:	f09ff06f          	j	41011064 <trap_handler_s__clear_highest_priority_interrupt>
    41011160:	f05ff06f          	j	41011064 <trap_handler_s__clear_highest_priority_interrupt>
    41011164:	f01ff06f          	j	41011064 <trap_handler_s__clear_highest_priority_interrupt>
    41011168:	efdff06f          	j	41011064 <trap_handler_s__clear_highest_priority_interrupt>
    4101116c:	ef9ff06f          	j	41011064 <trap_handler_s__clear_highest_priority_interrupt>
    41011170:	ef5ff06f          	j	41011064 <trap_handler_s__clear_highest_priority_interrupt>

0000000041011174 <trap_handler_s__test_failed>:
    41011174:	00f00f9b          	addiw	x31,x0,15
    41011178:	01cf9f93          	slli	x31,x31,0x1c
    4101117c:	002f8f93          	addi	x31,x31,2
    41011180:	00000073          	ecall

0000000041011184 <trap_handler_s__trap_handler>:
    41011184:	142022f3          	csrr	x5,scause
    41011188:	fff0031b          	addiw	x6,x0,-1
    4101118c:	03f31313          	slli	x6,x6,0x3f
    41011190:	00537333          	and	x6,x6,x5
    41011194:	02030263          	beqz	x6,410111b8 <trap_handler_s__exception_path>

0000000041011198 <trap_handler_s__interrupt_handler>:
    41011198:	fff0031b          	addiw	x6,x0,-1
    4101119c:	03f31313          	slli	x6,x6,0x3f
    410111a0:	0062c2b3          	xor	x5,x5,x6
    410111a4:	00000317          	auipc	x6,0x0
    410111a8:	ed430313          	addi	x6,x6,-300 # 41011078 <trap_handler_s__trap_entry>
    410111ac:	00229293          	slli	x5,x5,0x2
    410111b0:	005302b3          	add	x5,x6,x5
    410111b4:	00028067          	jr	x5 # 2000 <pma_region_1_size+0x1000>

00000000410111b8 <trap_handler_s__exception_path>:
    410111b8:	14021273          	csrrw	x4,sscratch,x4
    410111bc:	00000297          	auipc	x5,0x0
    410111c0:	0cc28293          	addi	x5,x5,204 # 41011288 <trap_handler_s__trap_panic>
    410111c4:	10529073          	csrw	stvec,x5
    410111c8:	0040006f          	j	410111cc <trap_handler_s__excp_entry>

00000000410111cc <trap_handler_s__excp_entry>:
    410111cc:	14202373          	csrr	x6,scause
    410111d0:	00800293          	li	x5,8
    410111d4:	00534863          	blt	x6,x5,410111e4 <trap_handler_s__check_exception_label>
    410111d8:	00b00293          	li	x5,11
    410111dc:	0062c463          	blt	x5,x6,410111e4 <trap_handler_s__check_exception_label>
    410111e0:	0a80006f          	j	41011288 <trap_handler_s__trap_panic>

00000000410111e4 <trap_handler_s__check_exception_label>:
    410111e4:	04623c23          	sd	x6,88(x4) # 58 <XLEN+0x18>
    410111e8:	141022f3          	csrr	x5,sepc
    410111ec:	02523423          	sd	x5,40(x4) # 28 <SECURE_ACCESS_PROBABILITY+0xa>
    410111f0:	01820283          	lb	x5,24(x4) # 18 <STORE_GUEST_PAGE_FAULT+0x1>
    410111f4:	00029863          	bnez	x5,41011204 <trap_handler_s__check_excp>
    410111f8:	00128293          	addi	x5,x5,1
    410111fc:	00520c23          	sb	x5,24(x4) # 18 <STORE_GUEST_PAGE_FAULT+0x1>
    41011200:	05c0006f          	j	4101125c <trap_handler_s__ecall_from_machine>

0000000041011204 <trap_handler_s__check_excp>:
    41011204:	06823283          	ld	x5,104(x4) # 68 <XLEN+0x28>
    41011208:	06023423          	sd	x0,104(x4) # 68 <XLEN+0x28>
    4101120c:	00028663          	beqz	x5,41011218 <trap_handler_s__skip_mode_check>
    41011210:	00300393          	li	x7,3
    41011214:	f67290e3          	bne	x5,x7,41011174 <trap_handler_s__test_failed>

0000000041011218 <trap_handler_s__skip_mode_check>:
    41011218:	05023283          	ld	x5,80(x4) # 50 <XLEN+0x10>
    4101121c:	04023823          	sd	x0,80(x4) # 50 <XLEN+0x10>
    41011220:	f4531ae3          	bne	x6,x5,41011174 <trap_handler_s__test_failed>
    41011224:	03823283          	ld	x5,56(x4) # 38 <SECURE_ACCESS_PROBABILITY+0x1a>
    41011228:	02023c23          	sd	x0,56(x4) # 38 <SECURE_ACCESS_PROBABILITY+0x1a>
    4101122c:	02029663          	bnez	x5,41011258 <trap_handler_s__skip_nonzero_tval_check>
    41011230:	02023303          	ld	x6,32(x4) # 20 <SECURE_ACCESS_PROBABILITY+0x2>
    41011234:	02023023          	sd	x0,32(x4) # 20 <SECURE_ACCESS_PROBABILITY+0x2>
    41011238:	02823283          	ld	x5,40(x4) # 28 <SECURE_ACCESS_PROBABILITY+0xa>
    4101123c:	02023423          	sd	x0,40(x4) # 28 <SECURE_ACCESS_PROBABILITY+0xa>
    41011240:	f2531ae3          	bne	x6,x5,41011174 <trap_handler_s__test_failed>
    41011244:	04023283          	ld	x5,64(x4) # 40 <XLEN>
    41011248:	04023023          	sd	x0,64(x4) # 40 <XLEN>
    4101124c:	00028663          	beqz	x5,41011258 <trap_handler_s__skip_nonzero_tval_check>

0000000041011250 <trap_handler_s__nonzero_tval_check>:
    41011250:	14302373          	csrr	x6,stval
    41011254:	f25310e3          	bne	x6,x5,41011174 <trap_handler_s__test_failed>

0000000041011258 <trap_handler_s__skip_nonzero_tval_check>:
    41011258:	0040006f          	j	4101125c <trap_handler_s__ecall_from_machine>

000000004101125c <trap_handler_s__ecall_from_machine>:
    4101125c:	03023283          	ld	x5,48(x4) # 30 <SECURE_ACCESS_PROBABILITY+0x12>
    41011260:	02023823          	sd	x0,48(x4) # 30 <SECURE_ACCESS_PROBABILITY+0x12>
    41011264:	07023303          	ld	x6,112(x4) # 70 <XLEN+0x30>
    41011268:	06023823          	sd	x0,112(x4) # 70 <XLEN+0x30>
    4101126c:	00031463          	bnez	x6,41011274 <trap_handler_s__skip_xepc_write>
    41011270:	14129073          	csrw	sepc,x5

0000000041011274 <trap_handler_s__skip_xepc_write>:
    41011274:	00000317          	auipc	x6,0x0
    41011278:	e0430313          	addi	x6,x6,-508 # 41011078 <trap_handler_s__trap_entry>
    4101127c:	10531073          	csrw	stvec,x6
    41011280:	14021273          	csrrw	x4,sscratch,x4
    41011284:	10200073          	sret

0000000041011288 <trap_handler_s__trap_panic>:
    41011288:	00000193          	li	x3,0
    4101128c:	00f00f9b          	addiw	x31,x0,15
    41011290:	01cf9f93          	slli	x31,x31,0x1c
    41011294:	002f8f93          	addi	x31,x31,2
    41011298:	00000073          	ecall

Disassembly of section .code:

0000000041015130 <passed>:
    41015130:	00f00f9b          	addiw	x31,x0,15
    41015134:	01cf9f93          	slli	x31,x31,0x1c
    41015138:	001f8f93          	addi	x31,x31,1
    4101513c:	00000073          	ecall

0000000041015140 <failed>:
    41015140:	00f00f9b          	addiw	x31,x0,15
    41015144:	01cf9f93          	slli	x31,x31,0x1c
    41015148:	002f8f93          	addi	x31,x31,2
    4101514c:	00000073          	ecall

0000000041015150 <end_test>:
    41015150:	00f00f9b          	addiw	x31,x0,15
    41015154:	01cf9f93          	slli	x31,x31,0x1c
    41015158:	003f8f93          	addi	x31,x31,3
    4101515c:	00000073          	ecall

0000000041015160 <test_setup>:
    41015160:	00f00f9b          	addiw	x31,x0,15
    41015164:	01cf9f93          	slli	x31,x31,0x1c
    41015168:	001f8f93          	addi	x31,x31,1
    4101516c:	00000073          	ecall

0000000041015170 <SID_SSTC_01>:
    41015170:	0000c137          	lui	x2,0xc
    41015174:	07808fb7          	lui	x31,0x7808
    41015178:	0c1f8f9b          	addiw	x31,x31,193 # 78080c1 <current_test_index+0x14bcf39>
    4101517c:	00df9f93          	slli	x31,x31,0xd
    41015180:	0a0f8f93          	addi	x31,x31,160
    41015184:	00100f13          	li	x30,1
    41015188:	01efb023          	sd	x30,0(x31)
    4101518c:	000f0fb7          	lui	x31,0xf0
    41015190:	001f8f9b          	addiw	x31,x31,1 # f0001 <pma_region_0_size+0xb0001>
    41015194:	00cf9f93          	slli	x31,x31,0xc
    41015198:	005f8f93          	addi	x31,x31,5
    4101519c:	00000073          	ecall
    410151a0:	00713023          	sd	x7,0(x2) # c000 <tp_csr_storage>
    410151a4:	07808fb7          	lui	x31,0x7808
    410151a8:	0c1f8f9b          	addiw	x31,x31,193 # 78080c1 <current_test_index+0x14bcf39>
    410151ac:	00df9f93          	slli	x31,x31,0xd
    410151b0:	0a0f8f93          	addi	x31,x31,160
    410151b4:	00200f13          	li	x30,2
    410151b8:	01efb023          	sd	x30,0(x31)
    410151bc:	000f0fb7          	lui	x31,0xf0
    410151c0:	001f8f9b          	addiw	x31,x31,1 # f0001 <pma_region_0_size+0xb0001>
    410151c4:	00cf9f93          	slli	x31,x31,0xc
    410151c8:	005f8f93          	addi	x31,x31,5
    410151cc:	00000073          	ecall
    410151d0:	00713423          	sd	x7,8(x2)
    410151d4:	07808fb7          	lui	x31,0x7808
    410151d8:	0c1f8f9b          	addiw	x31,x31,193 # 78080c1 <current_test_index+0x14bcf39>
    410151dc:	00df9f93          	slli	x31,x31,0xd
    410151e0:	0a0f8f93          	addi	x31,x31,160
    410151e4:	00300f13          	li	x30,3
    410151e8:	01efb023          	sd	x30,0(x31)
    410151ec:	000f0fb7          	lui	x31,0xf0
    410151f0:	001f8f9b          	addiw	x31,x31,1 # f0001 <pma_region_0_size+0xb0001>
    410151f4:	00cf9f93          	slli	x31,x31,0xc
    410151f8:	005f8f93          	addi	x31,x31,5
    410151fc:	00000073          	ecall
    41015200:	00713823          	sd	x7,16(x2)
    41015204:	005fe137          	lui	x2,0x5fe
    41015208:	e671011b          	addiw	x2,x2,-409 # 5fde67 <pma_region_0_size+0x5bde67>
    4101520c:	00d11113          	slli	x2,x2,0xd
    41015210:	000012b7          	lui	x5,0x1
    41015214:	00510133          	add	x2,x2,x5
    41015218:	ff017113          	andi	x2,x2,-16
    4101521c:	00200393          	li	x7,2
    41015220:	07808fb7          	lui	x31,0x7808
    41015224:	0c1f8f9b          	addiw	x31,x31,193 # 78080c1 <current_test_index+0x14bcf39>
    41015228:	00df9f93          	slli	x31,x31,0xd
    4101522c:	0a0f8f93          	addi	x31,x31,160
    41015230:	00400f13          	li	x30,4
    41015234:	01efb023          	sd	x30,0(x31)
    41015238:	000f0fb7          	lui	x31,0xf0
    4101523c:	001f8f9b          	addiw	x31,x31,1 # f0001 <pma_region_0_size+0xb0001>
    41015240:	00cf9f93          	slli	x31,x31,0xc
    41015244:	005f8f93          	addi	x31,x31,5
    41015248:	00000073          	ecall
    4101524c:	0634b237          	lui	x4,0x634b
    41015250:	00200e13          	li	x28,2
    41015254:	05c23823          	sd	x28,80(x4) # 634b050 <check_excp_expected_cause>
    41015258:	00000e17          	auipc	x28,0x0
    4101525c:	048e0e13          	addi	x28,x28,72 # 410152a0 <fault_label_0>
    41015260:	03c23023          	sd	x28,32(x4) # 20 <SECURE_ACCESS_PROBABILITY+0x2>
    41015264:	00000e13          	li	x28,0
    41015268:	05c23023          	sd	x28,64(x4) # 40 <XLEN>
    4101526c:	00000e13          	li	x28,0
    41015270:	05c23423          	sd	x28,72(x4) # 48 <XLEN+0x8>
    41015274:	00000e17          	auipc	x28,0x0
    41015278:	04ce0e13          	addi	x28,x28,76 # 410152c0 <excp_return_label_0>
    4101527c:	03c23823          	sd	x28,48(x4) # 30 <SECURE_ACCESS_PROBABILITY+0x12>
    41015280:	00000e13          	li	x28,0
    41015284:	03c23c23          	sd	x28,56(x4) # 38 <SECURE_ACCESS_PROBABILITY+0x1a>
    41015288:	00000e13          	li	x28,0
    4101528c:	07c23023          	sd	x28,96(x4) # 60 <XLEN+0x20>
    41015290:	00000e13          	li	x28,0
    41015294:	07c23423          	sd	x28,104(x4) # 68 <XLEN+0x28>
    41015298:	00000e13          	li	x28,0
    4101529c:	07c23823          	sd	x28,112(x4) # 70 <XLEN+0x30>

00000000410152a0 <fault_label_0>:
    410152a0:	c01023f3          	rdtime	x7
    410152a4:	00038413          	mv	x8,x7
    410152a8:	07808537          	lui	x10,0x7808
    410152ac:	0c15051b          	addiw	x10,x10,193 # 78080c1 <current_test_index+0x14bcf39>
    410152b0:	00d51513          	slli	x10,x10,0xd
    410152b4:	00850513          	addi	x10,x10,8
    410152b8:	00053583          	ld	x11,0(x10)
    410152bc:	00058067          	jr	x11

00000000410152c0 <excp_return_label_0>:
    410152c0:	0634b237          	lui	x4,0x634b
    410152c4:	00200e13          	li	x28,2
    410152c8:	05c23823          	sd	x28,80(x4) # 634b050 <check_excp_expected_cause>
    410152cc:	00000e17          	auipc	x28,0x0
    410152d0:	048e0e13          	addi	x28,x28,72 # 41015314 <fault_label_1>
    410152d4:	03c23023          	sd	x28,32(x4) # 20 <SECURE_ACCESS_PROBABILITY+0x2>
    410152d8:	00000e13          	li	x28,0
    410152dc:	05c23023          	sd	x28,64(x4) # 40 <XLEN>
    410152e0:	00000e13          	li	x28,0
    410152e4:	05c23423          	sd	x28,72(x4) # 48 <XLEN+0x8>
    410152e8:	00000e17          	auipc	x28,0x0
    410152ec:	04ce0e13          	addi	x28,x28,76 # 41015334 <excp_return_label_1>
    410152f0:	03c23823          	sd	x28,48(x4) # 30 <SECURE_ACCESS_PROBABILITY+0x12>
    410152f4:	00000e13          	li	x28,0
    410152f8:	03c23c23          	sd	x28,56(x4) # 38 <SECURE_ACCESS_PROBABILITY+0x1a>
    410152fc:	00000e13          	li	x28,0
    41015300:	07c23023          	sd	x28,96(x4) # 60 <XLEN+0x20>
    41015304:	00000e13          	li	x28,0
    41015308:	07c23423          	sd	x28,104(x4) # 68 <XLEN+0x28>
    4101530c:	00000e13          	li	x28,0
    41015310:	07c23823          	sd	x28,112(x4) # 70 <XLEN+0x30>

0000000041015314 <fault_label_1>:
    41015314:	14d023f3          	csrr	x7,stimecmp
    41015318:	00038a93          	mv	x21,x7
    4101531c:	078087b7          	lui	x15,0x7808
    41015320:	0c17879b          	addiw	x15,x15,193 # 78080c1 <current_test_index+0x14bcf39>
    41015324:	00d79793          	slli	x15,x15,0xd
    41015328:	00878793          	addi	x15,x15,8
    4101532c:	0007b383          	ld	x7,0(x15)
    41015330:	00038067          	jr	x7

0000000041015334 <excp_return_label_1>:
    41015334:	0634b237          	lui	x4,0x634b
    41015338:	00200e13          	li	x28,2
    4101533c:	05c23823          	sd	x28,80(x4) # 634b050 <check_excp_expected_cause>
    41015340:	00000e17          	auipc	x28,0x0
    41015344:	048e0e13          	addi	x28,x28,72 # 41015388 <fault_label_2>
    41015348:	03c23023          	sd	x28,32(x4) # 20 <SECURE_ACCESS_PROBABILITY+0x2>
    4101534c:	00000e13          	li	x28,0
    41015350:	05c23023          	sd	x28,64(x4) # 40 <XLEN>
    41015354:	00000e13          	li	x28,0
    41015358:	05c23423          	sd	x28,72(x4) # 48 <XLEN+0x8>
    4101535c:	00000e17          	auipc	x28,0x0
    41015360:	04ce0e13          	addi	x28,x28,76 # 410153a8 <excp_return_label_2>
    41015364:	03c23823          	sd	x28,48(x4) # 30 <SECURE_ACCESS_PROBABILITY+0x12>
    41015368:	00000e13          	li	x28,0
    4101536c:	03c23c23          	sd	x28,56(x4) # 38 <SECURE_ACCESS_PROBABILITY+0x1a>
    41015370:	00000e13          	li	x28,0
    41015374:	07c23023          	sd	x28,96(x4) # 60 <XLEN+0x20>
    41015378:	00000e13          	li	x28,0
    4101537c:	07c23423          	sd	x28,104(x4) # 68 <XLEN+0x28>
    41015380:	00000e13          	li	x28,0
    41015384:	07c23823          	sd	x28,112(x4) # 70 <XLEN+0x30>

0000000041015388 <fault_label_2>:
    41015388:	24d023f3          	csrr	x7,vstimecmp
    4101538c:	00038393          	mv	x7,x7
    41015390:	07808537          	lui	x10,0x7808
    41015394:	0c15051b          	addiw	x10,x10,193 # 78080c1 <current_test_index+0x14bcf39>
    41015398:	00d51513          	slli	x10,x10,0xd
    4101539c:	00850513          	addi	x10,x10,8
    410153a0:	00053a03          	ld	x20,0(x10)
    410153a4:	000a0067          	jr	x20

00000000410153a8 <excp_return_label_2>:
    410153a8:	00200393          	li	x7,2
    410153ac:	07808fb7          	lui	x31,0x7808
    410153b0:	0c1f8f9b          	addiw	x31,x31,193 # 78080c1 <current_test_index+0x14bcf39>
    410153b4:	00df9f93          	slli	x31,x31,0xd
    410153b8:	0a8f8f93          	addi	x31,x31,168
    410153bc:	00800f13          	li	x30,8
    410153c0:	01efb023          	sd	x30,0(x31)
    410153c4:	000f0fb7          	lui	x31,0xf0
    410153c8:	001f8f9b          	addiw	x31,x31,1 # f0001 <pma_region_0_size+0xb0001>
    410153cc:	00cf9f93          	slli	x31,x31,0xc
    410153d0:	006f8f93          	addi	x31,x31,6
    410153d4:	00000073          	ecall
    410153d8:	0634b237          	lui	x4,0x634b
    410153dc:	00200e13          	li	x28,2
    410153e0:	05c23823          	sd	x28,80(x4) # 634b050 <check_excp_expected_cause>
    410153e4:	00000e17          	auipc	x28,0x0
    410153e8:	048e0e13          	addi	x28,x28,72 # 4101542c <fault_label_3>
    410153ec:	03c23023          	sd	x28,32(x4) # 20 <SECURE_ACCESS_PROBABILITY+0x2>
    410153f0:	00000e13          	li	x28,0
    410153f4:	05c23023          	sd	x28,64(x4) # 40 <XLEN>
    410153f8:	00000e13          	li	x28,0
    410153fc:	05c23423          	sd	x28,72(x4) # 48 <XLEN+0x8>
    41015400:	00000e17          	auipc	x28,0x0
    41015404:	04ce0e13          	addi	x28,x28,76 # 4101544c <excp_return_label_3>
    41015408:	03c23823          	sd	x28,48(x4) # 30 <SECURE_ACCESS_PROBABILITY+0x12>
    4101540c:	00000e13          	li	x28,0
    41015410:	03c23c23          	sd	x28,56(x4) # 38 <SECURE_ACCESS_PROBABILITY+0x1a>
    41015414:	00000e13          	li	x28,0
    41015418:	07c23023          	sd	x28,96(x4) # 60 <XLEN+0x20>
    4101541c:	00000e13          	li	x28,0
    41015420:	07c23423          	sd	x28,104(x4) # 68 <XLEN+0x28>
    41015424:	00000e13          	li	x28,0
    41015428:	07c23823          	sd	x28,112(x4) # 70 <XLEN+0x30>

000000004101542c <fault_label_3>:
    4101542c:	c01023f3          	rdtime	x7
    41015430:	00038993          	mv	x19,x7
    41015434:	078085b7          	lui	x11,0x7808
    41015438:	0c15859b          	addiw	x11,x11,193 # 78080c1 <current_test_index+0x14bcf39>
    4101543c:	00d59593          	slli	x11,x11,0xd
    41015440:	00858593          	addi	x11,x11,8
    41015444:	0005b883          	ld	x17,0(x11)
    41015448:	00088067          	jr	x17

000000004101544c <excp_return_label_3>:
    4101544c:	0634b237          	lui	x4,0x634b
    41015450:	00200e13          	li	x28,2
    41015454:	05c23823          	sd	x28,80(x4) # 634b050 <check_excp_expected_cause>
    41015458:	00000e17          	auipc	x28,0x0
    4101545c:	048e0e13          	addi	x28,x28,72 # 410154a0 <fault_label_4>
    41015460:	03c23023          	sd	x28,32(x4) # 20 <SECURE_ACCESS_PROBABILITY+0x2>
    41015464:	00000e13          	li	x28,0
    41015468:	05c23023          	sd	x28,64(x4) # 40 <XLEN>
    4101546c:	00000e13          	li	x28,0
    41015470:	05c23423          	sd	x28,72(x4) # 48 <XLEN+0x8>
    41015474:	00000e17          	auipc	x28,0x0
    41015478:	04ce0e13          	addi	x28,x28,76 # 410154c0 <excp_return_label_4>
    4101547c:	03c23823          	sd	x28,48(x4) # 30 <SECURE_ACCESS_PROBABILITY+0x12>
    41015480:	00000e13          	li	x28,0
    41015484:	03c23c23          	sd	x28,56(x4) # 38 <SECURE_ACCESS_PROBABILITY+0x1a>
    41015488:	00000e13          	li	x28,0
    4101548c:	07c23023          	sd	x28,96(x4) # 60 <XLEN+0x20>
    41015490:	00000e13          	li	x28,0
    41015494:	07c23423          	sd	x28,104(x4) # 68 <XLEN+0x28>
    41015498:	00000e13          	li	x28,0
    4101549c:	07c23823          	sd	x28,112(x4) # 70 <XLEN+0x30>

00000000410154a0 <fault_label_4>:
    410154a0:	14d023f3          	csrr	x7,stimecmp
    410154a4:	00038793          	mv	x15,x7
    410154a8:	078084b7          	lui	x9,0x7808
    410154ac:	0c14849b          	addiw	x9,x9,193 # 78080c1 <current_test_index+0x14bcf39>
    410154b0:	00d49493          	slli	x9,x9,0xd
    410154b4:	00848493          	addi	x9,x9,8
    410154b8:	0004b503          	ld	x10,0(x9)
    410154bc:	00050067          	jr	x10

00000000410154c0 <excp_return_label_4>:
    410154c0:	0634b237          	lui	x4,0x634b
    410154c4:	00200e13          	li	x28,2
    410154c8:	05c23823          	sd	x28,80(x4) # 634b050 <check_excp_expected_cause>
    410154cc:	00000e17          	auipc	x28,0x0
    410154d0:	048e0e13          	addi	x28,x28,72 # 41015514 <fault_label_5>
    410154d4:	03c23023          	sd	x28,32(x4) # 20 <SECURE_ACCESS_PROBABILITY+0x2>
    410154d8:	00000e13          	li	x28,0
    410154dc:	05c23023          	sd	x28,64(x4) # 40 <XLEN>
    410154e0:	00000e13          	li	x28,0
    410154e4:	05c23423          	sd	x28,72(x4) # 48 <XLEN+0x8>
    410154e8:	00000e17          	auipc	x28,0x0
    410154ec:	04ce0e13          	addi	x28,x28,76 # 41015534 <excp_return_label_5>
    410154f0:	03c23823          	sd	x28,48(x4) # 30 <SECURE_ACCESS_PROBABILITY+0x12>
    410154f4:	00000e13          	li	x28,0
    410154f8:	03c23c23          	sd	x28,56(x4) # 38 <SECURE_ACCESS_PROBABILITY+0x1a>
    410154fc:	00000e13          	li	x28,0
    41015500:	07c23023          	sd	x28,96(x4) # 60 <XLEN+0x20>
    41015504:	00000e13          	li	x28,0
    41015508:	07c23423          	sd	x28,104(x4) # 68 <XLEN+0x28>
    4101550c:	00000e13          	li	x28,0
    41015510:	07c23823          	sd	x28,112(x4) # 70 <XLEN+0x30>

0000000041015514 <fault_label_5>:
    41015514:	24d023f3          	csrr	x7,vstimecmp
    41015518:	00038893          	mv	x17,x7
    4101551c:	07808937          	lui	x18,0x7808
    41015520:	0c19091b          	addiw	x18,x18,193 # 78080c1 <current_test_index+0x14bcf39>
    41015524:	00d91913          	slli	x18,x18,0xd
    41015528:	00890913          	addi	x18,x18,8
    4101552c:	00093f03          	ld	x30,0(x18)
    41015530:	000f0067          	jr	x30

0000000041015534 <excp_return_label_5>:
    41015534:	00200393          	li	x7,2
    41015538:	07808fb7          	lui	x31,0x7808
    4101553c:	0c1f8f9b          	addiw	x31,x31,193 # 78080c1 <current_test_index+0x14bcf39>
    41015540:	00df9f93          	slli	x31,x31,0xd
    41015544:	0a8f8f93          	addi	x31,x31,168
    41015548:	00c00f13          	li	x30,12
    4101554c:	01efb023          	sd	x30,0(x31)
    41015550:	000f0fb7          	lui	x31,0xf0
    41015554:	001f8f9b          	addiw	x31,x31,1 # f0001 <pma_region_0_size+0xb0001>
    41015558:	00cf9f93          	slli	x31,x31,0xc
    4101555c:	006f8f93          	addi	x31,x31,6
    41015560:	00000073          	ecall
    41015564:	0634b237          	lui	x4,0x634b
    41015568:	00200e13          	li	x28,2
    4101556c:	05c23823          	sd	x28,80(x4) # 634b050 <check_excp_expected_cause>
    41015570:	00000e17          	auipc	x28,0x0
    41015574:	048e0e13          	addi	x28,x28,72 # 410155b8 <fault_label_6>
    41015578:	03c23023          	sd	x28,32(x4) # 20 <SECURE_ACCESS_PROBABILITY+0x2>
    4101557c:	00000e13          	li	x28,0
    41015580:	05c23023          	sd	x28,64(x4) # 40 <XLEN>
    41015584:	00000e13          	li	x28,0
    41015588:	05c23423          	sd	x28,72(x4) # 48 <XLEN+0x8>
    4101558c:	00000e17          	auipc	x28,0x0
    41015590:	04ce0e13          	addi	x28,x28,76 # 410155d8 <excp_return_label_6>
    41015594:	03c23823          	sd	x28,48(x4) # 30 <SECURE_ACCESS_PROBABILITY+0x12>
    41015598:	00000e13          	li	x28,0
    4101559c:	03c23c23          	sd	x28,56(x4) # 38 <SECURE_ACCESS_PROBABILITY+0x1a>
    410155a0:	00000e13          	li	x28,0
    410155a4:	07c23023          	sd	x28,96(x4) # 60 <XLEN+0x20>
    410155a8:	00000e13          	li	x28,0
    410155ac:	07c23423          	sd	x28,104(x4) # 68 <XLEN+0x28>
    410155b0:	00000e13          	li	x28,0
    410155b4:	07c23823          	sd	x28,112(x4) # 70 <XLEN+0x30>

00000000410155b8 <fault_label_6>:
    410155b8:	c01023f3          	rdtime	x7
    410155bc:	00038493          	mv	x9,x7
    410155c0:	07808eb7          	lui	x29,0x7808
    410155c4:	0c1e8e9b          	addiw	x29,x29,193 # 78080c1 <current_test_index+0x14bcf39>
    410155c8:	00de9e93          	slli	x29,x29,0xd
    410155cc:	008e8e93          	addi	x29,x29,8
    410155d0:	000ebe83          	ld	x29,0(x29)
    410155d4:	000e8067          	jr	x29

00000000410155d8 <excp_return_label_6>:
    410155d8:	0634b237          	lui	x4,0x634b
    410155dc:	00200e13          	li	x28,2
    410155e0:	05c23823          	sd	x28,80(x4) # 634b050 <check_excp_expected_cause>
    410155e4:	00000e17          	auipc	x28,0x0
    410155e8:	048e0e13          	addi	x28,x28,72 # 4101562c <fault_label_7>
    410155ec:	03c23023          	sd	x28,32(x4) # 20 <SECURE_ACCESS_PROBABILITY+0x2>
    410155f0:	00000e13          	li	x28,0
    410155f4:	05c23023          	sd	x28,64(x4) # 40 <XLEN>
    410155f8:	00000e13          	li	x28,0
    410155fc:	05c23423          	sd	x28,72(x4) # 48 <XLEN+0x8>
    41015600:	00000e17          	auipc	x28,0x0
    41015604:	04ce0e13          	addi	x28,x28,76 # 4101564c <excp_return_label_7>
    41015608:	03c23823          	sd	x28,48(x4) # 30 <SECURE_ACCESS_PROBABILITY+0x12>
    4101560c:	00000e13          	li	x28,0
    41015610:	03c23c23          	sd	x28,56(x4) # 38 <SECURE_ACCESS_PROBABILITY+0x1a>
    41015614:	00000e13          	li	x28,0
    41015618:	07c23023          	sd	x28,96(x4) # 60 <XLEN+0x20>
    4101561c:	00000e13          	li	x28,0
    41015620:	07c23423          	sd	x28,104(x4) # 68 <XLEN+0x28>
    41015624:	00000e13          	li	x28,0
    41015628:	07c23823          	sd	x28,112(x4) # 70 <XLEN+0x30>

000000004101562c <fault_label_7>:
    4101562c:	14d023f3          	csrr	x7,stimecmp
    41015630:	00038493          	mv	x9,x7
    41015634:	078089b7          	lui	x19,0x7808
    41015638:	0c19899b          	addiw	x19,x19,193 # 78080c1 <current_test_index+0x14bcf39>
    4101563c:	00d99993          	slli	x19,x19,0xd
    41015640:	00898993          	addi	x19,x19,8
    41015644:	0009be03          	ld	x28,0(x19)
    41015648:	000e0067          	jr	x28

000000004101564c <excp_return_label_7>:
    4101564c:	0634b237          	lui	x4,0x634b
    41015650:	00200e13          	li	x28,2
    41015654:	05c23823          	sd	x28,80(x4) # 634b050 <check_excp_expected_cause>
    41015658:	00000e17          	auipc	x28,0x0
    4101565c:	048e0e13          	addi	x28,x28,72 # 410156a0 <fault_label_8>
    41015660:	03c23023          	sd	x28,32(x4) # 20 <SECURE_ACCESS_PROBABILITY+0x2>
    41015664:	00000e13          	li	x28,0
    41015668:	05c23023          	sd	x28,64(x4) # 40 <XLEN>
    4101566c:	00000e13          	li	x28,0
    41015670:	05c23423          	sd	x28,72(x4) # 48 <XLEN+0x8>
    41015674:	00000e17          	auipc	x28,0x0
    41015678:	04ce0e13          	addi	x28,x28,76 # 410156c0 <excp_return_label_8>
    4101567c:	03c23823          	sd	x28,48(x4) # 30 <SECURE_ACCESS_PROBABILITY+0x12>
    41015680:	00000e13          	li	x28,0
    41015684:	03c23c23          	sd	x28,56(x4) # 38 <SECURE_ACCESS_PROBABILITY+0x1a>
    41015688:	00000e13          	li	x28,0
    4101568c:	07c23023          	sd	x28,96(x4) # 60 <XLEN+0x20>
    41015690:	00000e13          	li	x28,0
    41015694:	07c23423          	sd	x28,104(x4) # 68 <XLEN+0x28>
    41015698:	00000e13          	li	x28,0
    4101569c:	07c23823          	sd	x28,112(x4) # 70 <XLEN+0x30>

00000000410156a0 <fault_label_8>:
    410156a0:	24d023f3          	csrr	x7,vstimecmp
    410156a4:	00038513          	mv	x10,x7
    410156a8:	07808a37          	lui	x20,0x7808
    410156ac:	0c1a0a1b          	addiw	x20,x20,193 # 78080c1 <current_test_index+0x14bcf39>
    410156b0:	00da1a13          	slli	x20,x20,0xd
    410156b4:	008a0a13          	addi	x20,x20,8
    410156b8:	000a3883          	ld	x17,0(x20)
    410156bc:	00088067          	jr	x17

00000000410156c0 <excp_return_label_8>:
    410156c0:	00200393          	li	x7,2
    410156c4:	07808fb7          	lui	x31,0x7808
    410156c8:	0c1f8f9b          	addiw	x31,x31,193 # 78080c1 <current_test_index+0x14bcf39>
    410156cc:	00df9f93          	slli	x31,x31,0xd
    410156d0:	0a8f8f93          	addi	x31,x31,168
    410156d4:	01000f13          	li	x30,16
    410156d8:	01efb023          	sd	x30,0(x31)
    410156dc:	000f0fb7          	lui	x31,0xf0
    410156e0:	001f8f9b          	addiw	x31,x31,1 # f0001 <pma_region_0_size+0xb0001>
    410156e4:	00cf9f93          	slli	x31,x31,0xc
    410156e8:	006f8f93          	addi	x31,x31,6
    410156ec:	00000073          	ecall
    410156f0:	0634b237          	lui	x4,0x634b
    410156f4:	00200e13          	li	x28,2
    410156f8:	05c23823          	sd	x28,80(x4) # 634b050 <check_excp_expected_cause>
    410156fc:	00000e17          	auipc	x28,0x0
    41015700:	048e0e13          	addi	x28,x28,72 # 41015744 <fault_label_9>
    41015704:	03c23023          	sd	x28,32(x4) # 20 <SECURE_ACCESS_PROBABILITY+0x2>
    41015708:	00000e13          	li	x28,0
    4101570c:	05c23023          	sd	x28,64(x4) # 40 <XLEN>
    41015710:	00000e13          	li	x28,0
    41015714:	05c23423          	sd	x28,72(x4) # 48 <XLEN+0x8>
    41015718:	00000e17          	auipc	x28,0x0
    4101571c:	04ce0e13          	addi	x28,x28,76 # 41015764 <excp_return_label_9>
    41015720:	03c23823          	sd	x28,48(x4) # 30 <SECURE_ACCESS_PROBABILITY+0x12>
    41015724:	00000e13          	li	x28,0
    41015728:	03c23c23          	sd	x28,56(x4) # 38 <SECURE_ACCESS_PROBABILITY+0x1a>
    4101572c:	00000e13          	li	x28,0
    41015730:	07c23023          	sd	x28,96(x4) # 60 <XLEN+0x20>
    41015734:	00000e13          	li	x28,0
    41015738:	07c23423          	sd	x28,104(x4) # 68 <XLEN+0x28>
    4101573c:	00000e13          	li	x28,0
    41015740:	07c23823          	sd	x28,112(x4) # 70 <XLEN+0x30>

0000000041015744 <fault_label_9>:
    41015744:	c01023f3          	rdtime	x7
    41015748:	00038c93          	mv	x25,x7
    4101574c:	07808637          	lui	x12,0x7808
    41015750:	0c16061b          	addiw	x12,x12,193 # 78080c1 <current_test_index+0x14bcf39>
    41015754:	00d61613          	slli	x12,x12,0xd
    41015758:	00860613          	addi	x12,x12,8
    4101575c:	00063303          	ld	x6,0(x12)
    41015760:	00030067          	jr	x6

0000000041015764 <excp_return_label_9>:
    41015764:	0634b237          	lui	x4,0x634b
    41015768:	00200e13          	li	x28,2
    4101576c:	05c23823          	sd	x28,80(x4) # 634b050 <check_excp_expected_cause>
    41015770:	00000e17          	auipc	x28,0x0
    41015774:	048e0e13          	addi	x28,x28,72 # 410157b8 <fault_label_10>
    41015778:	03c23023          	sd	x28,32(x4) # 20 <SECURE_ACCESS_PROBABILITY+0x2>
    4101577c:	00000e13          	li	x28,0
    41015780:	05c23023          	sd	x28,64(x4) # 40 <XLEN>
    41015784:	00000e13          	li	x28,0
    41015788:	05c23423          	sd	x28,72(x4) # 48 <XLEN+0x8>
    4101578c:	00000e17          	auipc	x28,0x0
    41015790:	04ce0e13          	addi	x28,x28,76 # 410157d8 <excp_return_label_10>
    41015794:	03c23823          	sd	x28,48(x4) # 30 <SECURE_ACCESS_PROBABILITY+0x12>
    41015798:	00000e13          	li	x28,0
    4101579c:	03c23c23          	sd	x28,56(x4) # 38 <SECURE_ACCESS_PROBABILITY+0x1a>
    410157a0:	00000e13          	li	x28,0
    410157a4:	07c23023          	sd	x28,96(x4) # 60 <XLEN+0x20>
    410157a8:	00000e13          	li	x28,0
    410157ac:	07c23423          	sd	x28,104(x4) # 68 <XLEN+0x28>
    410157b0:	00000e13          	li	x28,0
    410157b4:	07c23823          	sd	x28,112(x4) # 70 <XLEN+0x30>

00000000410157b8 <fault_label_10>:
    410157b8:	14d023f3          	csrr	x7,stimecmp
    410157bc:	00038593          	mv	x11,x7
    410157c0:	07808eb7          	lui	x29,0x7808
    410157c4:	0c1e8e9b          	addiw	x29,x29,193 # 78080c1 <current_test_index+0x14bcf39>
    410157c8:	00de9e93          	slli	x29,x29,0xd
    410157cc:	008e8e93          	addi	x29,x29,8
    410157d0:	000eba83          	ld	x21,0(x29)
    410157d4:	000a8067          	jr	x21

00000000410157d8 <excp_return_label_10>:
    410157d8:	0634b237          	lui	x4,0x634b
    410157dc:	00200e13          	li	x28,2
    410157e0:	05c23823          	sd	x28,80(x4) # 634b050 <check_excp_expected_cause>
    410157e4:	00000e17          	auipc	x28,0x0
    410157e8:	048e0e13          	addi	x28,x28,72 # 4101582c <fault_label_11>
    410157ec:	03c23023          	sd	x28,32(x4) # 20 <SECURE_ACCESS_PROBABILITY+0x2>
    410157f0:	00000e13          	li	x28,0
    410157f4:	05c23023          	sd	x28,64(x4) # 40 <XLEN>
    410157f8:	00000e13          	li	x28,0
    410157fc:	05c23423          	sd	x28,72(x4) # 48 <XLEN+0x8>
    41015800:	00000e17          	auipc	x28,0x0
    41015804:	04ce0e13          	addi	x28,x28,76 # 4101584c <excp_return_label_11>
    41015808:	03c23823          	sd	x28,48(x4) # 30 <SECURE_ACCESS_PROBABILITY+0x12>
    4101580c:	00000e13          	li	x28,0
    41015810:	03c23c23          	sd	x28,56(x4) # 38 <SECURE_ACCESS_PROBABILITY+0x1a>
    41015814:	00000e13          	li	x28,0
    41015818:	07c23023          	sd	x28,96(x4) # 60 <XLEN+0x20>
    4101581c:	00000e13          	li	x28,0
    41015820:	07c23423          	sd	x28,104(x4) # 68 <XLEN+0x28>
    41015824:	00000e13          	li	x28,0
    41015828:	07c23823          	sd	x28,112(x4) # 70 <XLEN+0x30>

000000004101582c <fault_label_11>:
    4101582c:	24d023f3          	csrr	x7,vstimecmp
    41015830:	00038f13          	mv	x30,x7
    41015834:	078089b7          	lui	x19,0x7808
    41015838:	0c19899b          	addiw	x19,x19,193 # 78080c1 <current_test_index+0x14bcf39>
    4101583c:	00d99993          	slli	x19,x19,0xd
    41015840:	00898993          	addi	x19,x19,8
    41015844:	0009b883          	ld	x17,0(x19)
    41015848:	00088067          	jr	x17

000000004101584c <excp_return_label_11>:
    4101584c:	0000c137          	lui	x2,0xc
    41015850:	00013383          	ld	x7,0(x2) # c000 <tp_csr_storage>
    41015854:	07808fb7          	lui	x31,0x7808
    41015858:	0c1f8f9b          	addiw	x31,x31,193 # 78080c1 <current_test_index+0x14bcf39>
    4101585c:	00df9f93          	slli	x31,x31,0xd
    41015860:	0a0f8f93          	addi	x31,x31,160
    41015864:	01400f13          	li	x30,20
    41015868:	01efb023          	sd	x30,0(x31)
    4101586c:	000f0fb7          	lui	x31,0xf0
    41015870:	001f8f9b          	addiw	x31,x31,1 # f0001 <pma_region_0_size+0xb0001>
    41015874:	00cf9f93          	slli	x31,x31,0xc
    41015878:	005f8f93          	addi	x31,x31,5
    4101587c:	00000073          	ecall
    41015880:	00813383          	ld	x7,8(x2)
    41015884:	07808fb7          	lui	x31,0x7808
    41015888:	0c1f8f9b          	addiw	x31,x31,193 # 78080c1 <current_test_index+0x14bcf39>
    4101588c:	00df9f93          	slli	x31,x31,0xd
    41015890:	0a0f8f93          	addi	x31,x31,160
    41015894:	01500f13          	li	x30,21
    41015898:	01efb023          	sd	x30,0(x31)
    4101589c:	000f0fb7          	lui	x31,0xf0
    410158a0:	001f8f9b          	addiw	x31,x31,1 # f0001 <pma_region_0_size+0xb0001>
    410158a4:	00cf9f93          	slli	x31,x31,0xc
    410158a8:	005f8f93          	addi	x31,x31,5
    410158ac:	00000073          	ecall
    410158b0:	01013383          	ld	x7,16(x2)
    410158b4:	07808fb7          	lui	x31,0x7808
    410158b8:	0c1f8f9b          	addiw	x31,x31,193 # 78080c1 <current_test_index+0x14bcf39>
    410158bc:	00df9f93          	slli	x31,x31,0xd
    410158c0:	0a0f8f93          	addi	x31,x31,160
    410158c4:	01600f13          	li	x30,22
    410158c8:	01efb023          	sd	x30,0(x31)
    410158cc:	000f0fb7          	lui	x31,0xf0
    410158d0:	001f8f9b          	addiw	x31,x31,1 # f0001 <pma_region_0_size+0xb0001>
    410158d4:	00cf9f93          	slli	x31,x31,0xc
    410158d8:	005f8f93          	addi	x31,x31,5
    410158dc:	00000073          	ecall

00000000410158e0 <SID_SSTC_01_passed>:
    410158e0:	00f00f9b          	addiw	x31,x0,15
    410158e4:	01cf9f93          	slli	x31,x31,0x1c
    410158e8:	001f8f93          	addi	x31,x31,1
    410158ec:	00000073          	ecall

00000000410158f0 <SID_SSTC_02_HU>:
    410158f0:	0000c137          	lui	x2,0xc
    410158f4:	07808fb7          	lui	x31,0x7808
    410158f8:	0c1f8f9b          	addiw	x31,x31,193 # 78080c1 <current_test_index+0x14bcf39>
    410158fc:	00df9f93          	slli	x31,x31,0xd
    41015900:	0a0f8f93          	addi	x31,x31,160
    41015904:	00100f13          	li	x30,1
    41015908:	01efb023          	sd	x30,0(x31)
    4101590c:	000f0fb7          	lui	x31,0xf0
    41015910:	001f8f9b          	addiw	x31,x31,1 # f0001 <pma_region_0_size+0xb0001>
    41015914:	00cf9f93          	slli	x31,x31,0xc
    41015918:	005f8f93          	addi	x31,x31,5
    4101591c:	00000073          	ecall
    41015920:	00713023          	sd	x7,0(x2) # c000 <tp_csr_storage>
    41015924:	07808fb7          	lui	x31,0x7808
    41015928:	0c1f8f9b          	addiw	x31,x31,193 # 78080c1 <current_test_index+0x14bcf39>
    4101592c:	00df9f93          	slli	x31,x31,0xd
    41015930:	0a0f8f93          	addi	x31,x31,160
    41015934:	00200f13          	li	x30,2
    41015938:	01efb023          	sd	x30,0(x31)
    4101593c:	000f0fb7          	lui	x31,0xf0
    41015940:	001f8f9b          	addiw	x31,x31,1 # f0001 <pma_region_0_size+0xb0001>
    41015944:	00cf9f93          	slli	x31,x31,0xc
    41015948:	005f8f93          	addi	x31,x31,5
    4101594c:	00000073          	ecall
    41015950:	00713423          	sd	x7,8(x2)
    41015954:	07808fb7          	lui	x31,0x7808
    41015958:	0c1f8f9b          	addiw	x31,x31,193 # 78080c1 <current_test_index+0x14bcf39>
    4101595c:	00df9f93          	slli	x31,x31,0xd
    41015960:	0a0f8f93          	addi	x31,x31,160
    41015964:	00300f13          	li	x30,3
    41015968:	01efb023          	sd	x30,0(x31)
    4101596c:	000f0fb7          	lui	x31,0xf0
    41015970:	001f8f9b          	addiw	x31,x31,1 # f0001 <pma_region_0_size+0xb0001>
    41015974:	00cf9f93          	slli	x31,x31,0xc
    41015978:	005f8f93          	addi	x31,x31,5
    4101597c:	00000073          	ecall
    41015980:	00713823          	sd	x7,16(x2)
    41015984:	18a78137          	lui	x2,0x18a78
    41015988:	fad1011b          	addiw	x2,x2,-83 # 18a77fad <SID_SSTC_03_U_stack+0xf879fad>
    4101598c:	00d11113          	slli	x2,x2,0xd
    41015990:	000012b7          	lui	x5,0x1
    41015994:	00510133          	add	x2,x2,x5
    41015998:	ff017113          	andi	x2,x2,-16
    4101599c:	00200393          	li	x7,2
    410159a0:	07808fb7          	lui	x31,0x7808
    410159a4:	0c1f8f9b          	addiw	x31,x31,193 # 78080c1 <current_test_index+0x14bcf39>
    410159a8:	00df9f93          	slli	x31,x31,0xd
    410159ac:	0a0f8f93          	addi	x31,x31,160
    410159b0:	01a00f13          	li	x30,26
    410159b4:	01efb023          	sd	x30,0(x31)
    410159b8:	000f0fb7          	lui	x31,0xf0
    410159bc:	001f8f9b          	addiw	x31,x31,1 # f0001 <pma_region_0_size+0xb0001>
    410159c0:	00cf9f93          	slli	x31,x31,0xc
    410159c4:	005f8f93          	addi	x31,x31,5
    410159c8:	00000073          	ecall
    410159cc:	00200393          	li	x7,2
    410159d0:	07808fb7          	lui	x31,0x7808
    410159d4:	0c1f8f9b          	addiw	x31,x31,193 # 78080c1 <current_test_index+0x14bcf39>
    410159d8:	00df9f93          	slli	x31,x31,0xd
    410159dc:	0a8f8f93          	addi	x31,x31,168
    410159e0:	01b00f13          	li	x30,27
    410159e4:	01efb023          	sd	x30,0(x31)
    410159e8:	000f0fb7          	lui	x31,0xf0
    410159ec:	001f8f9b          	addiw	x31,x31,1 # f0001 <pma_region_0_size+0xb0001>
    410159f0:	00cf9f93          	slli	x31,x31,0xc
    410159f4:	006f8f93          	addi	x31,x31,6
    410159f8:	00000073          	ecall
    410159fc:	0634b237          	lui	x4,0x634b
    41015a00:	00200e13          	li	x28,2
    41015a04:	05c23823          	sd	x28,80(x4) # 634b050 <check_excp_expected_cause>
    41015a08:	00000e17          	auipc	x28,0x0
    41015a0c:	048e0e13          	addi	x28,x28,72 # 41015a50 <fault_label_12>
    41015a10:	03c23023          	sd	x28,32(x4) # 20 <SECURE_ACCESS_PROBABILITY+0x2>
    41015a14:	00000e13          	li	x28,0
    41015a18:	05c23023          	sd	x28,64(x4) # 40 <XLEN>
    41015a1c:	00000e13          	li	x28,0
    41015a20:	05c23423          	sd	x28,72(x4) # 48 <XLEN+0x8>
    41015a24:	00000e17          	auipc	x28,0x0
    41015a28:	04ce0e13          	addi	x28,x28,76 # 41015a70 <excp_return_label_12>
    41015a2c:	03c23823          	sd	x28,48(x4) # 30 <SECURE_ACCESS_PROBABILITY+0x12>
    41015a30:	00000e13          	li	x28,0
    41015a34:	03c23c23          	sd	x28,56(x4) # 38 <SECURE_ACCESS_PROBABILITY+0x1a>
    41015a38:	00000e13          	li	x28,0
    41015a3c:	07c23023          	sd	x28,96(x4) # 60 <XLEN+0x20>
    41015a40:	00000e13          	li	x28,0
    41015a44:	07c23423          	sd	x28,104(x4) # 68 <XLEN+0x28>
    41015a48:	00000e13          	li	x28,0
    41015a4c:	07c23823          	sd	x28,112(x4) # 70 <XLEN+0x30>

0000000041015a50 <fault_label_12>:
    41015a50:	14d023f3          	csrr	x7,stimecmp
    41015a54:	00038613          	mv	x12,x7
    41015a58:	07808cb7          	lui	x25,0x7808
    41015a5c:	0c1c8c9b          	addiw	x25,x25,193 # 78080c1 <current_test_index+0x14bcf39>
    41015a60:	00dc9c93          	slli	x25,x25,0xd
    41015a64:	008c8c93          	addi	x25,x25,8
    41015a68:	000cb683          	ld	x13,0(x25)
    41015a6c:	00068067          	jr	x13

0000000041015a70 <excp_return_label_12>:
    41015a70:	0634b237          	lui	x4,0x634b
    41015a74:	00200e13          	li	x28,2
    41015a78:	05c23823          	sd	x28,80(x4) # 634b050 <check_excp_expected_cause>
    41015a7c:	00000e17          	auipc	x28,0x0
    41015a80:	048e0e13          	addi	x28,x28,72 # 41015ac4 <fault_label_13>
    41015a84:	03c23023          	sd	x28,32(x4) # 20 <SECURE_ACCESS_PROBABILITY+0x2>
    41015a88:	00000e13          	li	x28,0
    41015a8c:	05c23023          	sd	x28,64(x4) # 40 <XLEN>
    41015a90:	00000e13          	li	x28,0
    41015a94:	05c23423          	sd	x28,72(x4) # 48 <XLEN+0x8>
    41015a98:	00000e17          	auipc	x28,0x0
    41015a9c:	04ce0e13          	addi	x28,x28,76 # 41015ae4 <excp_return_label_13>
    41015aa0:	03c23823          	sd	x28,48(x4) # 30 <SECURE_ACCESS_PROBABILITY+0x12>
    41015aa4:	00000e13          	li	x28,0
    41015aa8:	03c23c23          	sd	x28,56(x4) # 38 <SECURE_ACCESS_PROBABILITY+0x1a>
    41015aac:	00000e13          	li	x28,0
    41015ab0:	07c23023          	sd	x28,96(x4) # 60 <XLEN+0x20>
    41015ab4:	00000e13          	li	x28,0
    41015ab8:	07c23423          	sd	x28,104(x4) # 68 <XLEN+0x28>
    41015abc:	00000e13          	li	x28,0
    41015ac0:	07c23823          	sd	x28,112(x4) # 70 <XLEN+0x30>

0000000041015ac4 <fault_label_13>:
    41015ac4:	c01023f3          	rdtime	x7
    41015ac8:	00038813          	mv	x16,x7
    41015acc:	078088b7          	lui	x17,0x7808
    41015ad0:	0c18889b          	addiw	x17,x17,193 # 78080c1 <current_test_index+0x14bcf39>
    41015ad4:	00d89893          	slli	x17,x17,0xd
    41015ad8:	00888893          	addi	x17,x17,8
    41015adc:	0008b303          	ld	x6,0(x17)
    41015ae0:	00030067          	jr	x6

0000000041015ae4 <excp_return_label_13>:
    41015ae4:	00200393          	li	x7,2
    41015ae8:	07808fb7          	lui	x31,0x7808
    41015aec:	0c1f8f9b          	addiw	x31,x31,193 # 78080c1 <current_test_index+0x14bcf39>
    41015af0:	00df9f93          	slli	x31,x31,0xd
    41015af4:	0a8f8f93          	addi	x31,x31,168
    41015af8:	00800f13          	li	x30,8
    41015afc:	01efb023          	sd	x30,0(x31)
    41015b00:	000f0fb7          	lui	x31,0xf0
    41015b04:	001f8f9b          	addiw	x31,x31,1 # f0001 <pma_region_0_size+0xb0001>
    41015b08:	00cf9f93          	slli	x31,x31,0xc
    41015b0c:	006f8f93          	addi	x31,x31,6
    41015b10:	00000073          	ecall
    41015b14:	0634b237          	lui	x4,0x634b
    41015b18:	00200e13          	li	x28,2
    41015b1c:	05c23823          	sd	x28,80(x4) # 634b050 <check_excp_expected_cause>
    41015b20:	00000e17          	auipc	x28,0x0
    41015b24:	048e0e13          	addi	x28,x28,72 # 41015b68 <fault_label_14>
    41015b28:	03c23023          	sd	x28,32(x4) # 20 <SECURE_ACCESS_PROBABILITY+0x2>
    41015b2c:	00000e13          	li	x28,0
    41015b30:	05c23023          	sd	x28,64(x4) # 40 <XLEN>
    41015b34:	00000e13          	li	x28,0
    41015b38:	05c23423          	sd	x28,72(x4) # 48 <XLEN+0x8>
    41015b3c:	00000e17          	auipc	x28,0x0
    41015b40:	04ce0e13          	addi	x28,x28,76 # 41015b88 <excp_return_label_14>
    41015b44:	03c23823          	sd	x28,48(x4) # 30 <SECURE_ACCESS_PROBABILITY+0x12>
    41015b48:	00000e13          	li	x28,0
    41015b4c:	03c23c23          	sd	x28,56(x4) # 38 <SECURE_ACCESS_PROBABILITY+0x1a>
    41015b50:	00000e13          	li	x28,0
    41015b54:	07c23023          	sd	x28,96(x4) # 60 <XLEN+0x20>
    41015b58:	00000e13          	li	x28,0
    41015b5c:	07c23423          	sd	x28,104(x4) # 68 <XLEN+0x28>
    41015b60:	00000e13          	li	x28,0
    41015b64:	07c23823          	sd	x28,112(x4) # 70 <XLEN+0x30>

0000000041015b68 <fault_label_14>:
    41015b68:	14d023f3          	csrr	x7,stimecmp
    41015b6c:	00038793          	mv	x15,x7
    41015b70:	07808bb7          	lui	x23,0x7808
    41015b74:	0c1b8b9b          	addiw	x23,x23,193 # 78080c1 <current_test_index+0x14bcf39>
    41015b78:	00db9b93          	slli	x23,x23,0xd
    41015b7c:	008b8b93          	addi	x23,x23,8
    41015b80:	000bb903          	ld	x18,0(x23)
    41015b84:	00090067          	jr	x18

0000000041015b88 <excp_return_label_14>:
    41015b88:	0634b237          	lui	x4,0x634b
    41015b8c:	00200e13          	li	x28,2
    41015b90:	05c23823          	sd	x28,80(x4) # 634b050 <check_excp_expected_cause>
    41015b94:	00000e17          	auipc	x28,0x0
    41015b98:	048e0e13          	addi	x28,x28,72 # 41015bdc <fault_label_15>
    41015b9c:	03c23023          	sd	x28,32(x4) # 20 <SECURE_ACCESS_PROBABILITY+0x2>
    41015ba0:	00000e13          	li	x28,0
    41015ba4:	05c23023          	sd	x28,64(x4) # 40 <XLEN>
    41015ba8:	00000e13          	li	x28,0
    41015bac:	05c23423          	sd	x28,72(x4) # 48 <XLEN+0x8>
    41015bb0:	00000e17          	auipc	x28,0x0
    41015bb4:	04ce0e13          	addi	x28,x28,76 # 41015bfc <excp_return_label_15>
    41015bb8:	03c23823          	sd	x28,48(x4) # 30 <SECURE_ACCESS_PROBABILITY+0x12>
    41015bbc:	00000e13          	li	x28,0
    41015bc0:	03c23c23          	sd	x28,56(x4) # 38 <SECURE_ACCESS_PROBABILITY+0x1a>
    41015bc4:	00000e13          	li	x28,0
    41015bc8:	07c23023          	sd	x28,96(x4) # 60 <XLEN+0x20>
    41015bcc:	00000e13          	li	x28,0
    41015bd0:	07c23423          	sd	x28,104(x4) # 68 <XLEN+0x28>
    41015bd4:	00000e13          	li	x28,0
    41015bd8:	07c23823          	sd	x28,112(x4) # 70 <XLEN+0x30>

0000000041015bdc <fault_label_15>:
    41015bdc:	c01023f3          	rdtime	x7
    41015be0:	00038713          	mv	x14,x7
    41015be4:	07808cb7          	lui	x25,0x7808
    41015be8:	0c1c8c9b          	addiw	x25,x25,193 # 78080c1 <current_test_index+0x14bcf39>
    41015bec:	00dc9c93          	slli	x25,x25,0xd
    41015bf0:	008c8c93          	addi	x25,x25,8
    41015bf4:	000cb683          	ld	x13,0(x25)
    41015bf8:	00068067          	jr	x13

0000000041015bfc <excp_return_label_15>:
    41015bfc:	0000c137          	lui	x2,0xc
    41015c00:	00013383          	ld	x7,0(x2) # c000 <tp_csr_storage>
    41015c04:	07808fb7          	lui	x31,0x7808
    41015c08:	0c1f8f9b          	addiw	x31,x31,193 # 78080c1 <current_test_index+0x14bcf39>
    41015c0c:	00df9f93          	slli	x31,x31,0xd
    41015c10:	0a0f8f93          	addi	x31,x31,160
    41015c14:	01400f13          	li	x30,20
    41015c18:	01efb023          	sd	x30,0(x31)
    41015c1c:	000f0fb7          	lui	x31,0xf0
    41015c20:	001f8f9b          	addiw	x31,x31,1 # f0001 <pma_region_0_size+0xb0001>
    41015c24:	00cf9f93          	slli	x31,x31,0xc
    41015c28:	005f8f93          	addi	x31,x31,5
    41015c2c:	00000073          	ecall
    41015c30:	00813383          	ld	x7,8(x2)
    41015c34:	07808fb7          	lui	x31,0x7808
    41015c38:	0c1f8f9b          	addiw	x31,x31,193 # 78080c1 <current_test_index+0x14bcf39>
    41015c3c:	00df9f93          	slli	x31,x31,0xd
    41015c40:	0a0f8f93          	addi	x31,x31,160
    41015c44:	01500f13          	li	x30,21
    41015c48:	01efb023          	sd	x30,0(x31)
    41015c4c:	000f0fb7          	lui	x31,0xf0
    41015c50:	001f8f9b          	addiw	x31,x31,1 # f0001 <pma_region_0_size+0xb0001>
    41015c54:	00cf9f93          	slli	x31,x31,0xc
    41015c58:	005f8f93          	addi	x31,x31,5
    41015c5c:	00000073          	ecall
    41015c60:	01013383          	ld	x7,16(x2)
    41015c64:	07808fb7          	lui	x31,0x7808
    41015c68:	0c1f8f9b          	addiw	x31,x31,193 # 78080c1 <current_test_index+0x14bcf39>
    41015c6c:	00df9f93          	slli	x31,x31,0xd
    41015c70:	0a0f8f93          	addi	x31,x31,160
    41015c74:	01600f13          	li	x30,22
    41015c78:	01efb023          	sd	x30,0(x31)
    41015c7c:	000f0fb7          	lui	x31,0xf0
    41015c80:	001f8f9b          	addiw	x31,x31,1 # f0001 <pma_region_0_size+0xb0001>
    41015c84:	00cf9f93          	slli	x31,x31,0xc
    41015c88:	005f8f93          	addi	x31,x31,5
    41015c8c:	00000073          	ecall

0000000041015c90 <SID_SSTC_02_HU_passed>:
    41015c90:	00f00f9b          	addiw	x31,x0,15
    41015c94:	01cf9f93          	slli	x31,x31,0x1c
    41015c98:	001f8f93          	addi	x31,x31,1
    41015c9c:	00000073          	ecall

0000000041015ca0 <SID_SSTC_03_U>:
    41015ca0:	0000c137          	lui	x2,0xc
    41015ca4:	07808fb7          	lui	x31,0x7808
    41015ca8:	0c1f8f9b          	addiw	x31,x31,193 # 78080c1 <current_test_index+0x14bcf39>
    41015cac:	00df9f93          	slli	x31,x31,0xd
    41015cb0:	0a0f8f93          	addi	x31,x31,160
    41015cb4:	00100f13          	li	x30,1
    41015cb8:	01efb023          	sd	x30,0(x31)
    41015cbc:	000f0fb7          	lui	x31,0xf0
    41015cc0:	001f8f9b          	addiw	x31,x31,1 # f0001 <pma_region_0_size+0xb0001>
    41015cc4:	00cf9f93          	slli	x31,x31,0xc
    41015cc8:	005f8f93          	addi	x31,x31,5
    41015ccc:	00000073          	ecall
    41015cd0:	00713023          	sd	x7,0(x2) # c000 <tp_csr_storage>
    41015cd4:	07808fb7          	lui	x31,0x7808
    41015cd8:	0c1f8f9b          	addiw	x31,x31,193 # 78080c1 <current_test_index+0x14bcf39>
    41015cdc:	00df9f93          	slli	x31,x31,0xd
    41015ce0:	0a0f8f93          	addi	x31,x31,160
    41015ce4:	00200f13          	li	x30,2
    41015ce8:	01efb023          	sd	x30,0(x31)
    41015cec:	000f0fb7          	lui	x31,0xf0
    41015cf0:	001f8f9b          	addiw	x31,x31,1 # f0001 <pma_region_0_size+0xb0001>
    41015cf4:	00cf9f93          	slli	x31,x31,0xc
    41015cf8:	005f8f93          	addi	x31,x31,5
    41015cfc:	00000073          	ecall
    41015d00:	00713423          	sd	x7,8(x2)
    41015d04:	07808fb7          	lui	x31,0x7808
    41015d08:	0c1f8f9b          	addiw	x31,x31,193 # 78080c1 <current_test_index+0x14bcf39>
    41015d0c:	00df9f93          	slli	x31,x31,0xd
    41015d10:	0a0f8f93          	addi	x31,x31,160
    41015d14:	00300f13          	li	x30,3
    41015d18:	01efb023          	sd	x30,0(x31)
    41015d1c:	000f0fb7          	lui	x31,0xf0
    41015d20:	001f8f9b          	addiw	x31,x31,1 # f0001 <pma_region_0_size+0xb0001>
    41015d24:	00cf9f93          	slli	x31,x31,0xc
    41015d28:	005f8f93          	addi	x31,x31,5
    41015d2c:	00000073          	ecall
    41015d30:	00713823          	sd	x7,16(x2)
    41015d34:	091fe137          	lui	x2,0x91fe
    41015d38:	000012b7          	lui	x5,0x1
    41015d3c:	00510133          	add	x2,x2,x5
    41015d40:	ff017113          	andi	x2,x2,-16
    41015d44:	00200393          	li	x7,2
    41015d48:	07808fb7          	lui	x31,0x7808
    41015d4c:	0c1f8f9b          	addiw	x31,x31,193 # 78080c1 <current_test_index+0x14bcf39>
    41015d50:	00df9f93          	slli	x31,x31,0xd
    41015d54:	0a0f8f93          	addi	x31,x31,160
    41015d58:	01a00f13          	li	x30,26
    41015d5c:	01efb023          	sd	x30,0(x31)
    41015d60:	000f0fb7          	lui	x31,0xf0
    41015d64:	001f8f9b          	addiw	x31,x31,1 # f0001 <pma_region_0_size+0xb0001>
    41015d68:	00cf9f93          	slli	x31,x31,0xc
    41015d6c:	005f8f93          	addi	x31,x31,5
    41015d70:	00000073          	ecall
    41015d74:	00200393          	li	x7,2
    41015d78:	07808fb7          	lui	x31,0x7808
    41015d7c:	0c1f8f9b          	addiw	x31,x31,193 # 78080c1 <current_test_index+0x14bcf39>
    41015d80:	00df9f93          	slli	x31,x31,0xd
    41015d84:	0a8f8f93          	addi	x31,x31,168
    41015d88:	00c00f13          	li	x30,12
    41015d8c:	01efb023          	sd	x30,0(x31)
    41015d90:	000f0fb7          	lui	x31,0xf0
    41015d94:	001f8f9b          	addiw	x31,x31,1 # f0001 <pma_region_0_size+0xb0001>
    41015d98:	00cf9f93          	slli	x31,x31,0xc
    41015d9c:	006f8f93          	addi	x31,x31,6
    41015da0:	00000073          	ecall
    41015da4:	00200393          	li	x7,2
    41015da8:	07808fb7          	lui	x31,0x7808
    41015dac:	0c1f8f9b          	addiw	x31,x31,193 # 78080c1 <current_test_index+0x14bcf39>
    41015db0:	00df9f93          	slli	x31,x31,0xd
    41015db4:	0a8f8f93          	addi	x31,x31,168
    41015db8:	01000f13          	li	x30,16
    41015dbc:	01efb023          	sd	x30,0(x31)
    41015dc0:	000f0fb7          	lui	x31,0xf0
    41015dc4:	001f8f9b          	addiw	x31,x31,1 # f0001 <pma_region_0_size+0xb0001>
    41015dc8:	00cf9f93          	slli	x31,x31,0xc
    41015dcc:	006f8f93          	addi	x31,x31,6
    41015dd0:	00000073          	ecall
    41015dd4:	0634b237          	lui	x4,0x634b
    41015dd8:	00200e13          	li	x28,2
    41015ddc:	05c23823          	sd	x28,80(x4) # 634b050 <check_excp_expected_cause>
    41015de0:	00000e17          	auipc	x28,0x0
    41015de4:	048e0e13          	addi	x28,x28,72 # 41015e28 <fault_label_16>
    41015de8:	03c23023          	sd	x28,32(x4) # 20 <SECURE_ACCESS_PROBABILITY+0x2>
    41015dec:	00000e13          	li	x28,0
    41015df0:	05c23023          	sd	x28,64(x4) # 40 <XLEN>
    41015df4:	00000e13          	li	x28,0
    41015df8:	05c23423          	sd	x28,72(x4) # 48 <XLEN+0x8>
    41015dfc:	00000e17          	auipc	x28,0x0
    41015e00:	04ce0e13          	addi	x28,x28,76 # 41015e48 <excp_return_label_16>
    41015e04:	03c23823          	sd	x28,48(x4) # 30 <SECURE_ACCESS_PROBABILITY+0x12>
    41015e08:	00000e13          	li	x28,0
    41015e0c:	03c23c23          	sd	x28,56(x4) # 38 <SECURE_ACCESS_PROBABILITY+0x1a>
    41015e10:	00000e13          	li	x28,0
    41015e14:	07c23023          	sd	x28,96(x4) # 60 <XLEN+0x20>
    41015e18:	00000e13          	li	x28,0
    41015e1c:	07c23423          	sd	x28,104(x4) # 68 <XLEN+0x28>
    41015e20:	00000e13          	li	x28,0
    41015e24:	07c23823          	sd	x28,112(x4) # 70 <XLEN+0x30>

0000000041015e28 <fault_label_16>:
    41015e28:	c01023f3          	rdtime	x7
    41015e2c:	00038913          	mv	x18,x7
    41015e30:	07808c37          	lui	x24,0x7808
    41015e34:	0c1c0c1b          	addiw	x24,x24,193 # 78080c1 <current_test_index+0x14bcf39>
    41015e38:	00dc1c13          	slli	x24,x24,0xd
    41015e3c:	008c0c13          	addi	x24,x24,8
    41015e40:	000c3f03          	ld	x30,0(x24)
    41015e44:	000f0067          	jr	x30

0000000041015e48 <excp_return_label_16>:
    41015e48:	00200393          	li	x7,2
    41015e4c:	07808fb7          	lui	x31,0x7808
    41015e50:	0c1f8f9b          	addiw	x31,x31,193 # 78080c1 <current_test_index+0x14bcf39>
    41015e54:	00df9f93          	slli	x31,x31,0xd
    41015e58:	0a8f8f93          	addi	x31,x31,168
    41015e5c:	00800f13          	li	x30,8
    41015e60:	01efb023          	sd	x30,0(x31)
    41015e64:	000f0fb7          	lui	x31,0xf0
    41015e68:	001f8f9b          	addiw	x31,x31,1 # f0001 <pma_region_0_size+0xb0001>
    41015e6c:	00cf9f93          	slli	x31,x31,0xc
    41015e70:	006f8f93          	addi	x31,x31,6
    41015e74:	00000073          	ecall
    41015e78:	c01023f3          	rdtime	x7
    41015e7c:	00038d13          	mv	x26,x7
    41015e80:	0000c137          	lui	x2,0xc
    41015e84:	00013383          	ld	x7,0(x2) # c000 <tp_csr_storage>
    41015e88:	07808fb7          	lui	x31,0x7808
    41015e8c:	0c1f8f9b          	addiw	x31,x31,193 # 78080c1 <current_test_index+0x14bcf39>
    41015e90:	00df9f93          	slli	x31,x31,0xd
    41015e94:	0a0f8f93          	addi	x31,x31,160
    41015e98:	01400f13          	li	x30,20
    41015e9c:	01efb023          	sd	x30,0(x31)
    41015ea0:	000f0fb7          	lui	x31,0xf0
    41015ea4:	001f8f9b          	addiw	x31,x31,1 # f0001 <pma_region_0_size+0xb0001>
    41015ea8:	00cf9f93          	slli	x31,x31,0xc
    41015eac:	005f8f93          	addi	x31,x31,5
    41015eb0:	00000073          	ecall
    41015eb4:	00813383          	ld	x7,8(x2)
    41015eb8:	07808fb7          	lui	x31,0x7808
    41015ebc:	0c1f8f9b          	addiw	x31,x31,193 # 78080c1 <current_test_index+0x14bcf39>
    41015ec0:	00df9f93          	slli	x31,x31,0xd
    41015ec4:	0a0f8f93          	addi	x31,x31,160
    41015ec8:	01500f13          	li	x30,21
    41015ecc:	01efb023          	sd	x30,0(x31)
    41015ed0:	000f0fb7          	lui	x31,0xf0
    41015ed4:	001f8f9b          	addiw	x31,x31,1 # f0001 <pma_region_0_size+0xb0001>
    41015ed8:	00cf9f93          	slli	x31,x31,0xc
    41015edc:	005f8f93          	addi	x31,x31,5
    41015ee0:	00000073          	ecall
    41015ee4:	01013383          	ld	x7,16(x2)
    41015ee8:	07808fb7          	lui	x31,0x7808
    41015eec:	0c1f8f9b          	addiw	x31,x31,193 # 78080c1 <current_test_index+0x14bcf39>
    41015ef0:	00df9f93          	slli	x31,x31,0xd
    41015ef4:	0a0f8f93          	addi	x31,x31,160
    41015ef8:	01600f13          	li	x30,22
    41015efc:	01efb023          	sd	x30,0(x31)
    41015f00:	000f0fb7          	lui	x31,0xf0
    41015f04:	001f8f9b          	addiw	x31,x31,1 # f0001 <pma_region_0_size+0xb0001>
    41015f08:	00cf9f93          	slli	x31,x31,0xc
    41015f0c:	005f8f93          	addi	x31,x31,5
    41015f10:	00000073          	ecall

0000000041015f14 <SID_SSTC_03_U_passed>:
    41015f14:	00f00f9b          	addiw	x31,x0,15
    41015f18:	01cf9f93          	slli	x31,x31,0x1c
    41015f1c:	001f8f93          	addi	x31,x31,1
    41015f20:	00000073          	ecall

0000000041015f24 <SID_SSTC_04_NON_M>:
    41015f24:	0000c137          	lui	x2,0xc
    41015f28:	07808fb7          	lui	x31,0x7808
    41015f2c:	0c1f8f9b          	addiw	x31,x31,193 # 78080c1 <current_test_index+0x14bcf39>
    41015f30:	00df9f93          	slli	x31,x31,0xd
    41015f34:	0a0f8f93          	addi	x31,x31,160
    41015f38:	03000f13          	li	x30,48
    41015f3c:	01efb023          	sd	x30,0(x31)
    41015f40:	000f0fb7          	lui	x31,0xf0
    41015f44:	001f8f9b          	addiw	x31,x31,1 # f0001 <pma_region_0_size+0xb0001>
    41015f48:	00cf9f93          	slli	x31,x31,0xc
    41015f4c:	005f8f93          	addi	x31,x31,5
    41015f50:	00000073          	ecall
    41015f54:	00713023          	sd	x7,0(x2) # c000 <tp_csr_storage>
    41015f58:	07808fb7          	lui	x31,0x7808
    41015f5c:	0c1f8f9b          	addiw	x31,x31,193 # 78080c1 <current_test_index+0x14bcf39>
    41015f60:	00df9f93          	slli	x31,x31,0xd
    41015f64:	0a0f8f93          	addi	x31,x31,160
    41015f68:	03100f13          	li	x30,49
    41015f6c:	01efb023          	sd	x30,0(x31)
    41015f70:	000f0fb7          	lui	x31,0xf0
    41015f74:	001f8f9b          	addiw	x31,x31,1 # f0001 <pma_region_0_size+0xb0001>
    41015f78:	00cf9f93          	slli	x31,x31,0xc
    41015f7c:	005f8f93          	addi	x31,x31,5
    41015f80:	00000073          	ecall
    41015f84:	00713423          	sd	x7,8(x2)
    41015f88:	00905137          	lui	x2,0x905
    41015f8c:	000012b7          	lui	x5,0x1
    41015f90:	00510133          	add	x2,x2,x5
    41015f94:	ff017113          	andi	x2,x2,-16
    41015f98:	fff0039b          	addiw	x7,x0,-1
    41015f9c:	03f39393          	slli	x7,x7,0x3f
    41015fa0:	07808fb7          	lui	x31,0x7808
    41015fa4:	0c1f8f9b          	addiw	x31,x31,193 # 78080c1 <current_test_index+0x14bcf39>
    41015fa8:	00df9f93          	slli	x31,x31,0xd
    41015fac:	0a0f8f93          	addi	x31,x31,160
    41015fb0:	03200f13          	li	x30,50
    41015fb4:	01efb023          	sd	x30,0(x31)
    41015fb8:	000f0fb7          	lui	x31,0xf0
    41015fbc:	001f8f9b          	addiw	x31,x31,1 # f0001 <pma_region_0_size+0xb0001>
    41015fc0:	00cf9f93          	slli	x31,x31,0xc
    41015fc4:	005f8f93          	addi	x31,x31,5
    41015fc8:	00000073          	ecall
    41015fcc:	0634b237          	lui	x4,0x634b
    41015fd0:	00200e13          	li	x28,2
    41015fd4:	05c23823          	sd	x28,80(x4) # 634b050 <check_excp_expected_cause>
    41015fd8:	00000e17          	auipc	x28,0x0
    41015fdc:	048e0e13          	addi	x28,x28,72 # 41016020 <fault_label_17>
    41015fe0:	03c23023          	sd	x28,32(x4) # 20 <SECURE_ACCESS_PROBABILITY+0x2>
    41015fe4:	00000e13          	li	x28,0
    41015fe8:	05c23023          	sd	x28,64(x4) # 40 <XLEN>
    41015fec:	00000e13          	li	x28,0
    41015ff0:	05c23423          	sd	x28,72(x4) # 48 <XLEN+0x8>
    41015ff4:	00000e17          	auipc	x28,0x0
    41015ff8:	04ce0e13          	addi	x28,x28,76 # 41016040 <excp_return_label_17>
    41015ffc:	03c23823          	sd	x28,48(x4) # 30 <SECURE_ACCESS_PROBABILITY+0x12>
    41016000:	00000e13          	li	x28,0
    41016004:	03c23c23          	sd	x28,56(x4) # 38 <SECURE_ACCESS_PROBABILITY+0x1a>
    41016008:	00000e13          	li	x28,0
    4101600c:	07c23023          	sd	x28,96(x4) # 60 <XLEN+0x20>
    41016010:	00000e13          	li	x28,0
    41016014:	07c23423          	sd	x28,104(x4) # 68 <XLEN+0x28>
    41016018:	00000e13          	li	x28,0
    4101601c:	07c23823          	sd	x28,112(x4) # 70 <XLEN+0x30>

0000000041016020 <fault_label_17>:
    41016020:	14d023f3          	csrr	x7,stimecmp
    41016024:	00038613          	mv	x12,x7
    41016028:	07808b37          	lui	x22,0x7808
    4101602c:	0c1b0b1b          	addiw	x22,x22,193 # 78080c1 <current_test_index+0x14bcf39>
    41016030:	00db1b13          	slli	x22,x22,0xd
    41016034:	008b0b13          	addi	x22,x22,8
    41016038:	000b3b03          	ld	x22,0(x22)
    4101603c:	000b0067          	jr	x22

0000000041016040 <excp_return_label_17>:
    41016040:	fff0039b          	addiw	x7,x0,-1
    41016044:	03f39393          	slli	x7,x7,0x3f
    41016048:	07808fb7          	lui	x31,0x7808
    4101604c:	0c1f8f9b          	addiw	x31,x31,193 # 78080c1 <current_test_index+0x14bcf39>
    41016050:	00df9f93          	slli	x31,x31,0xd
    41016054:	0a8f8f93          	addi	x31,x31,168
    41016058:	03400f13          	li	x30,52
    4101605c:	01efb023          	sd	x30,0(x31)
    41016060:	000f0fb7          	lui	x31,0xf0
    41016064:	001f8f9b          	addiw	x31,x31,1 # f0001 <pma_region_0_size+0xb0001>
    41016068:	00cf9f93          	slli	x31,x31,0xc
    4101606c:	006f8f93          	addi	x31,x31,6
    41016070:	00000073          	ecall
    41016074:	0634b237          	lui	x4,0x634b
    41016078:	00200e13          	li	x28,2
    4101607c:	05c23823          	sd	x28,80(x4) # 634b050 <check_excp_expected_cause>
    41016080:	00000e17          	auipc	x28,0x0
    41016084:	048e0e13          	addi	x28,x28,72 # 410160c8 <fault_label_18>
    41016088:	03c23023          	sd	x28,32(x4) # 20 <SECURE_ACCESS_PROBABILITY+0x2>
    4101608c:	00000e13          	li	x28,0
    41016090:	05c23023          	sd	x28,64(x4) # 40 <XLEN>
    41016094:	00000e13          	li	x28,0
    41016098:	05c23423          	sd	x28,72(x4) # 48 <XLEN+0x8>
    4101609c:	00000e17          	auipc	x28,0x0
    410160a0:	04ce0e13          	addi	x28,x28,76 # 410160e8 <excp_return_label_18>
    410160a4:	03c23823          	sd	x28,48(x4) # 30 <SECURE_ACCESS_PROBABILITY+0x12>
    410160a8:	00000e13          	li	x28,0
    410160ac:	03c23c23          	sd	x28,56(x4) # 38 <SECURE_ACCESS_PROBABILITY+0x1a>
    410160b0:	00000e13          	li	x28,0
    410160b4:	07c23023          	sd	x28,96(x4) # 60 <XLEN+0x20>
    410160b8:	00000e13          	li	x28,0
    410160bc:	07c23423          	sd	x28,104(x4) # 68 <XLEN+0x28>
    410160c0:	00000e13          	li	x28,0
    410160c4:	07c23823          	sd	x28,112(x4) # 70 <XLEN+0x30>

00000000410160c8 <fault_label_18>:
    410160c8:	14d023f3          	csrr	x7,stimecmp
    410160cc:	00038a93          	mv	x21,x7
    410160d0:	07808b37          	lui	x22,0x7808
    410160d4:	0c1b0b1b          	addiw	x22,x22,193 # 78080c1 <current_test_index+0x14bcf39>
    410160d8:	00db1b13          	slli	x22,x22,0xd
    410160dc:	008b0b13          	addi	x22,x22,8
    410160e0:	000b3d03          	ld	x26,0(x22)
    410160e4:	000d0067          	jr	x26

00000000410160e8 <excp_return_label_18>:
    410160e8:	0000c137          	lui	x2,0xc
    410160ec:	00013383          	ld	x7,0(x2) # c000 <tp_csr_storage>
    410160f0:	07808fb7          	lui	x31,0x7808
    410160f4:	0c1f8f9b          	addiw	x31,x31,193 # 78080c1 <current_test_index+0x14bcf39>
    410160f8:	00df9f93          	slli	x31,x31,0xd
    410160fc:	0a0f8f93          	addi	x31,x31,160
    41016100:	03600f13          	li	x30,54
    41016104:	01efb023          	sd	x30,0(x31)
    41016108:	000f0fb7          	lui	x31,0xf0
    4101610c:	001f8f9b          	addiw	x31,x31,1 # f0001 <pma_region_0_size+0xb0001>
    41016110:	00cf9f93          	slli	x31,x31,0xc
    41016114:	005f8f93          	addi	x31,x31,5
    41016118:	00000073          	ecall
    4101611c:	00813383          	ld	x7,8(x2)
    41016120:	07808fb7          	lui	x31,0x7808
    41016124:	0c1f8f9b          	addiw	x31,x31,193 # 78080c1 <current_test_index+0x14bcf39>
    41016128:	00df9f93          	slli	x31,x31,0xd
    4101612c:	0a0f8f93          	addi	x31,x31,160
    41016130:	03700f13          	li	x30,55
    41016134:	01efb023          	sd	x30,0(x31)
    41016138:	000f0fb7          	lui	x31,0xf0
    4101613c:	001f8f9b          	addiw	x31,x31,1 # f0001 <pma_region_0_size+0xb0001>
    41016140:	00cf9f93          	slli	x31,x31,0xc
    41016144:	005f8f93          	addi	x31,x31,5
    41016148:	00000073          	ecall

000000004101614c <SID_SSTC_04_NON_M_passed>:
    4101614c:	00f00f9b          	addiw	x31,x0,15
    41016150:	01cf9f93          	slli	x31,x31,0x1c
    41016154:	001f8f93          	addi	x31,x31,1
    41016158:	00000073          	ecall

000000004101615c <SID_SSTC_06>:
    4101615c:	0000c137          	lui	x2,0xc
    41016160:	07808fb7          	lui	x31,0x7808
    41016164:	0c1f8f9b          	addiw	x31,x31,193 # 78080c1 <current_test_index+0x14bcf39>
    41016168:	00df9f93          	slli	x31,x31,0xd
    4101616c:	0a0f8f93          	addi	x31,x31,160
    41016170:	03000f13          	li	x30,48
    41016174:	01efb023          	sd	x30,0(x31)
    41016178:	000f0fb7          	lui	x31,0xf0
    4101617c:	001f8f9b          	addiw	x31,x31,1 # f0001 <pma_region_0_size+0xb0001>
    41016180:	00cf9f93          	slli	x31,x31,0xc
    41016184:	005f8f93          	addi	x31,x31,5
    41016188:	00000073          	ecall
    4101618c:	00713023          	sd	x7,0(x2) # c000 <tp_csr_storage>
    41016190:	07808fb7          	lui	x31,0x7808
    41016194:	0c1f8f9b          	addiw	x31,x31,193 # 78080c1 <current_test_index+0x14bcf39>
    41016198:	00df9f93          	slli	x31,x31,0xd
    4101619c:	0a0f8f93          	addi	x31,x31,160
    410161a0:	03100f13          	li	x30,49
    410161a4:	01efb023          	sd	x30,0(x31)
    410161a8:	000f0fb7          	lui	x31,0xf0
    410161ac:	001f8f9b          	addiw	x31,x31,1 # f0001 <pma_region_0_size+0xb0001>
    410161b0:	00cf9f93          	slli	x31,x31,0xc
    410161b4:	005f8f93          	addi	x31,x31,5
    410161b8:	00000073          	ecall
    410161bc:	00713423          	sd	x7,8(x2)
    410161c0:	1c13b137          	lui	x2,0x1c13b
    410161c4:	b7f1011b          	addiw	x2,x2,-1153 # 1c13ab7f <SID_SSTC_03_U_stack+0x12f3cb7f>
    410161c8:	00c11113          	slli	x2,x2,0xc
    410161cc:	000012b7          	lui	x5,0x1
    410161d0:	00510133          	add	x2,x2,x5
    410161d4:	ff017113          	andi	x2,x2,-16
    410161d8:	fff0039b          	addiw	x7,x0,-1
    410161dc:	03f39393          	slli	x7,x7,0x3f
    410161e0:	07808fb7          	lui	x31,0x7808
    410161e4:	0c1f8f9b          	addiw	x31,x31,193 # 78080c1 <current_test_index+0x14bcf39>
    410161e8:	00df9f93          	slli	x31,x31,0xd
    410161ec:	0a0f8f93          	addi	x31,x31,160
    410161f0:	03200f13          	li	x30,50
    410161f4:	01efb023          	sd	x30,0(x31)
    410161f8:	000f0fb7          	lui	x31,0xf0
    410161fc:	001f8f9b          	addiw	x31,x31,1 # f0001 <pma_region_0_size+0xb0001>
    41016200:	00cf9f93          	slli	x31,x31,0xc
    41016204:	005f8f93          	addi	x31,x31,5
    41016208:	00000073          	ecall
    4101620c:	fff0039b          	addiw	x7,x0,-1
    41016210:	03f39393          	slli	x7,x7,0x3f
    41016214:	07808fb7          	lui	x31,0x7808
    41016218:	0c1f8f9b          	addiw	x31,x31,193 # 78080c1 <current_test_index+0x14bcf39>
    4101621c:	00df9f93          	slli	x31,x31,0xd
    41016220:	0a8f8f93          	addi	x31,x31,168
    41016224:	03400f13          	li	x30,52
    41016228:	01efb023          	sd	x30,0(x31)
    4101622c:	000f0fb7          	lui	x31,0xf0
    41016230:	001f8f9b          	addiw	x31,x31,1 # f0001 <pma_region_0_size+0xb0001>
    41016234:	00cf9f93          	slli	x31,x31,0xc
    41016238:	006f8f93          	addi	x31,x31,6
    4101623c:	00000073          	ecall
    41016240:	07808fb7          	lui	x31,0x7808
    41016244:	0c1f8f9b          	addiw	x31,x31,193 # 78080c1 <current_test_index+0x14bcf39>
    41016248:	00df9f93          	slli	x31,x31,0xd
    4101624c:	0a8f8f93          	addi	x31,x31,168
    41016250:	03c00f13          	li	x30,60
    41016254:	01efb023          	sd	x30,0(x31)
    41016258:	000f0fb7          	lui	x31,0xf0
    4101625c:	001f8f9b          	addiw	x31,x31,1 # f0001 <pma_region_0_size+0xb0001>
    41016260:	00cf9f93          	slli	x31,x31,0xc
    41016264:	006f8f93          	addi	x31,x31,6
    41016268:	00000073          	ecall
    4101626c:	00038f93          	mv	x31,x7
    41016270:	fff0099b          	addiw	x19,x0,-1
    41016274:	03f99993          	slli	x19,x19,0x3f
    41016278:	013ffd33          	and	x26,x31,x19
    4101627c:	00000913          	li	x18,0
    41016280:	012d0e63          	beq	x26,x18,4101629c <pass_label_0>
    41016284:	07808a37          	lui	x20,0x7808
    41016288:	0c1a0a1b          	addiw	x20,x20,193 # 78080c1 <current_test_index+0x14bcf39>
    4101628c:	00da1a13          	slli	x20,x20,0xd
    41016290:	008a0a13          	addi	x20,x20,8
    41016294:	000a3c03          	ld	x24,0(x20)
    41016298:	000c0067          	jr	x24

000000004101629c <pass_label_0>:
    4101629c:	fff0039b          	addiw	x7,x0,-1
    410162a0:	03f39393          	slli	x7,x7,0x3f
    410162a4:	07808fb7          	lui	x31,0x7808
    410162a8:	0c1f8f9b          	addiw	x31,x31,193 # 78080c1 <current_test_index+0x14bcf39>
    410162ac:	00df9f93          	slli	x31,x31,0xd
    410162b0:	0a8f8f93          	addi	x31,x31,168
    410162b4:	03d00f13          	li	x30,61
    410162b8:	01efb023          	sd	x30,0(x31)
    410162bc:	000f0fb7          	lui	x31,0xf0
    410162c0:	001f8f9b          	addiw	x31,x31,1 # f0001 <pma_region_0_size+0xb0001>
    410162c4:	00cf9f93          	slli	x31,x31,0xc
    410162c8:	006f8f93          	addi	x31,x31,6
    410162cc:	00000073          	ecall
    410162d0:	07808fb7          	lui	x31,0x7808
    410162d4:	0c1f8f9b          	addiw	x31,x31,193 # 78080c1 <current_test_index+0x14bcf39>
    410162d8:	00df9f93          	slli	x31,x31,0xd
    410162dc:	0a8f8f93          	addi	x31,x31,168
    410162e0:	03c00f13          	li	x30,60
    410162e4:	01efb023          	sd	x30,0(x31)
    410162e8:	000f0fb7          	lui	x31,0xf0
    410162ec:	001f8f9b          	addiw	x31,x31,1 # f0001 <pma_region_0_size+0xb0001>
    410162f0:	00cf9f93          	slli	x31,x31,0xc
    410162f4:	006f8f93          	addi	x31,x31,6
    410162f8:	00000073          	ecall
    410162fc:	00038613          	mv	x12,x7
    41016300:	013679b3          	and	x19,x12,x19
    41016304:	00000b93          	li	x23,0
    41016308:	01798e63          	beq	x19,x23,41016324 <pass_label_1>
    4101630c:	078083b7          	lui	x7,0x7808
    41016310:	0c13839b          	addiw	x7,x7,193 # 78080c1 <current_test_index+0x14bcf39>
    41016314:	00d39393          	slli	x7,x7,0xd
    41016318:	00838393          	addi	x7,x7,8
    4101631c:	0003b983          	ld	x19,0(x7)
    41016320:	00098067          	jr	x19

0000000041016324 <pass_label_1>:
    41016324:	0000c137          	lui	x2,0xc
    41016328:	00013383          	ld	x7,0(x2) # c000 <tp_csr_storage>
    4101632c:	07808fb7          	lui	x31,0x7808
    41016330:	0c1f8f9b          	addiw	x31,x31,193 # 78080c1 <current_test_index+0x14bcf39>
    41016334:	00df9f93          	slli	x31,x31,0xd
    41016338:	0a0f8f93          	addi	x31,x31,160
    4101633c:	03600f13          	li	x30,54
    41016340:	01efb023          	sd	x30,0(x31)
    41016344:	000f0fb7          	lui	x31,0xf0
    41016348:	001f8f9b          	addiw	x31,x31,1 # f0001 <pma_region_0_size+0xb0001>
    4101634c:	00cf9f93          	slli	x31,x31,0xc
    41016350:	005f8f93          	addi	x31,x31,5
    41016354:	00000073          	ecall
    41016358:	00813383          	ld	x7,8(x2)
    4101635c:	07808fb7          	lui	x31,0x7808
    41016360:	0c1f8f9b          	addiw	x31,x31,193 # 78080c1 <current_test_index+0x14bcf39>
    41016364:	00df9f93          	slli	x31,x31,0xd
    41016368:	0a0f8f93          	addi	x31,x31,160
    4101636c:	03700f13          	li	x30,55
    41016370:	01efb023          	sd	x30,0(x31)
    41016374:	000f0fb7          	lui	x31,0xf0
    41016378:	001f8f9b          	addiw	x31,x31,1 # f0001 <pma_region_0_size+0xb0001>
    4101637c:	00cf9f93          	slli	x31,x31,0xc
    41016380:	005f8f93          	addi	x31,x31,5
    41016384:	00000073          	ecall

0000000041016388 <SID_SSTC_06_passed>:
    41016388:	00f00f9b          	addiw	x31,x0,15
    4101638c:	01cf9f93          	slli	x31,x31,0x1c
    41016390:	001f8f93          	addi	x31,x31,1
    41016394:	00000073          	ecall

0000000041016398 <test_cleanup>:
    41016398:	00f00f9b          	addiw	x31,x0,15
    4101639c:	01cf9f93          	slli	x31,x31,0x1c
    410163a0:	001f8f93          	addi	x31,x31,1
    410163a4:	00000073          	ecall

00000000410163a8 <local_test_failed>:
    410163a8:	00f00f9b          	addiw	x31,x0,15
    410163ac:	01cf9f93          	slli	x31,x31,0x1c
    410163b0:	002f8f93          	addi	x31,x31,2
    410163b4:	00000073          	ecall

Disassembly of section .csr_machine_0:

0000000041215000 <csr_access_hcounteren_supervisor_key_20_write-0x98>:
    41215000:	420fafb7          	lui	x31,0x420fa
    41215004:	0a0f8f9b          	addiw	x31,x31,160 # 420fa0a0 <machine_csr_jump_table_flags_pa>
    41215008:	000fbf83          	ld	x31,0(x31)
    4121500c:	01400293          	li	x5,20
    41215010:	085f8463          	beq	x31,x5,41215098 <csr_access_hcounteren_supervisor_key_20_write>
    41215014:	00100293          	li	x5,1
    41215018:	085f8463          	beq	x31,x5,412150a0 <csr_access_hcounteren_supervisor_key_1_read>
    4121501c:	01500293          	li	x5,21
    41215020:	085f8463          	beq	x31,x5,412150a8 <csr_access_mcounteren_machine_key_21_write>
    41215024:	00200293          	li	x5,2
    41215028:	085f8463          	beq	x31,x5,412150b0 <csr_access_mcounteren_machine_key_2_read>
    4121502c:	01a00293          	li	x5,26
    41215030:	085f8463          	beq	x31,x5,412150b8 <csr_access_mcounteren_machine_key_26_set>
    41215034:	00400293          	li	x5,4
    41215038:	085f8463          	beq	x31,x5,412150c0 <csr_access_mcounteren_machine_key_4_clear>
    4121503c:	01600293          	li	x5,22
    41215040:	085f8463          	beq	x31,x5,412150c8 <csr_access_scounteren_supervisor_key_22_write>
    41215044:	00300293          	li	x5,3
    41215048:	085f8463          	beq	x31,x5,412150d0 <csr_access_scounteren_supervisor_key_3_read>
    4121504c:	03600293          	li	x5,54
    41215050:	085f8463          	beq	x31,x5,412150d8 <csr_access_henvcfg_supervisor_key_54_write>
    41215054:	03000293          	li	x5,48
    41215058:	085f8463          	beq	x31,x5,412150e0 <csr_access_henvcfg_supervisor_key_48_read>
    4121505c:	03700293          	li	x5,55
    41215060:	085f8463          	beq	x31,x5,412150e8 <csr_access_menvcfg_machine_key_55_write>
    41215064:	03100293          	li	x5,49
    41215068:	085f8463          	beq	x31,x5,412150f0 <csr_access_menvcfg_machine_key_49_read>
    4121506c:	03200293          	li	x5,50
    41215070:	085f8463          	beq	x31,x5,412150f8 <csr_access_menvcfg_machine_key_50_clear>
    41215074:	04000293          	li	x5,64
    41215078:	085f8463          	beq	x31,x5,41215100 <csr_access_mstatus_machine_key_64_set>
    4121507c:	03e00293          	li	x5,62
    41215080:	085f8463          	beq	x31,x5,41215108 <csr_access_mstatus_machine_key_62_clear>
    41215084:	04300293          	li	x5,67
    41215088:	085f8463          	beq	x31,x5,41215110 <csr_access_mtvec_machine_key_67_set>
    4121508c:	04200293          	li	x5,66
    41215090:	085f8463          	beq	x31,x5,41215118 <csr_access_mtvec_machine_key_66_clear>
    41215094:	08c0006f          	j	41215120 <end_machine_label>

0000000041215098 <csr_access_hcounteren_supervisor_key_20_write>:
    41215098:	60639073          	csrw	hcounteren,x7
    4121509c:	0840006f          	j	41215120 <end_machine_label>

00000000412150a0 <csr_access_hcounteren_supervisor_key_1_read>:
    412150a0:	606023f3          	csrr	x7,hcounteren
    412150a4:	07c0006f          	j	41215120 <end_machine_label>

00000000412150a8 <csr_access_mcounteren_machine_key_21_write>:
    412150a8:	30639073          	csrw	mcounteren,x7
    412150ac:	0740006f          	j	41215120 <end_machine_label>

00000000412150b0 <csr_access_mcounteren_machine_key_2_read>:
    412150b0:	306023f3          	csrr	x7,mcounteren
    412150b4:	06c0006f          	j	41215120 <end_machine_label>

00000000412150b8 <csr_access_mcounteren_machine_key_26_set>:
    412150b8:	3063a073          	csrs	mcounteren,x7
    412150bc:	0640006f          	j	41215120 <end_machine_label>

00000000412150c0 <csr_access_mcounteren_machine_key_4_clear>:
    412150c0:	3063b073          	csrc	mcounteren,x7
    412150c4:	05c0006f          	j	41215120 <end_machine_label>

00000000412150c8 <csr_access_scounteren_supervisor_key_22_write>:
    412150c8:	10639073          	csrw	scounteren,x7
    412150cc:	0540006f          	j	41215120 <end_machine_label>

00000000412150d0 <csr_access_scounteren_supervisor_key_3_read>:
    412150d0:	106023f3          	csrr	x7,scounteren
    412150d4:	04c0006f          	j	41215120 <end_machine_label>

00000000412150d8 <csr_access_henvcfg_supervisor_key_54_write>:
    412150d8:	60a39073          	csrw	henvcfg,x7
    412150dc:	0440006f          	j	41215120 <end_machine_label>

00000000412150e0 <csr_access_henvcfg_supervisor_key_48_read>:
    412150e0:	60a023f3          	csrr	x7,henvcfg
    412150e4:	03c0006f          	j	41215120 <end_machine_label>

00000000412150e8 <csr_access_menvcfg_machine_key_55_write>:
    412150e8:	30a39073          	csrw	0x30a,x7
    412150ec:	0340006f          	j	41215120 <end_machine_label>

00000000412150f0 <csr_access_menvcfg_machine_key_49_read>:
    412150f0:	30a023f3          	csrr	x7,0x30a
    412150f4:	02c0006f          	j	41215120 <end_machine_label>

00000000412150f8 <csr_access_menvcfg_machine_key_50_clear>:
    412150f8:	30a3b073          	csrc	0x30a,x7
    412150fc:	0240006f          	j	41215120 <end_machine_label>

0000000041215100 <csr_access_mstatus_machine_key_64_set>:
    41215100:	3003a073          	csrs	mstatus,x7
    41215104:	01c0006f          	j	41215120 <end_machine_label>

0000000041215108 <csr_access_mstatus_machine_key_62_clear>:
    41215108:	3003b073          	csrc	mstatus,x7
    4121510c:	0140006f          	j	41215120 <end_machine_label>

0000000041215110 <csr_access_mtvec_machine_key_67_set>:
    41215110:	3053a073          	csrs	mtvec,x7
    41215114:	00c0006f          	j	41215120 <end_machine_label>

0000000041215118 <csr_access_mtvec_machine_key_66_clear>:
    41215118:	3053b073          	csrc	mtvec,x7
    4121511c:	0040006f          	j	41215120 <end_machine_label>

0000000041215120 <end_machine_label>:
    41215120:	000f0fb7          	lui	x31,0xf0
    41215124:	001f8f9b          	addiw	x31,x31,1 # f0001 <pma_region_0_size+0xb0001>
    41215128:	00cf9f93          	slli	x31,x31,0xc
    4121512c:	004f8f93          	addi	x31,x31,4
    41215130:	00000073          	ecall

Disassembly of section .csr_super_0:

0000000041216000 <csr_access_hcounteren_supervisor_key_12_set-0x80>:
    41216000:	07808fb7          	lui	x31,0x7808
    41216004:	0c1f8f9b          	addiw	x31,x31,193 # 78080c1 <current_test_index+0x14bcf39>
    41216008:	00df9f93          	slli	x31,x31,0xd
    4121600c:	0a8f8f93          	addi	x31,x31,168
    41216010:	000fbf83          	ld	x31,0(x31)
    41216014:	00c00293          	li	x5,12
    41216018:	065f8463          	beq	x31,x5,41216080 <csr_access_hcounteren_supervisor_key_12_set>
    4121601c:	01b00293          	li	x5,27
    41216020:	065f8463          	beq	x31,x5,41216088 <csr_access_hcounteren_supervisor_key_27_clear>
    41216024:	00800293          	li	x5,8
    41216028:	065f8463          	beq	x31,x5,41216090 <csr_access_scounteren_supervisor_key_8_set>
    4121602c:	01000293          	li	x5,16
    41216030:	065f8463          	beq	x31,x5,41216098 <csr_access_scounteren_supervisor_key_16_clear>
    41216034:	00600293          	li	x5,6
    41216038:	065f8463          	beq	x31,x5,412160a0 <csr_access_stimecmp_supervisor_key_6_read>
    4121603c:	00700293          	li	x5,7
    41216040:	065f8463          	beq	x31,x5,412160a8 <csr_access_vstimecmp_supervisor_key_7_read>
    41216044:	03c00293          	li	x5,60
    41216048:	065f8463          	beq	x31,x5,412160b0 <csr_access_henvcfg_supervisor_key_60_read>
    4121604c:	03400293          	li	x5,52
    41216050:	065f8463          	beq	x31,x5,412160b8 <csr_access_henvcfg_supervisor_key_52_set>
    41216054:	03d00293          	li	x5,61
    41216058:	065f8463          	beq	x31,x5,412160c0 <csr_access_henvcfg_supervisor_key_61_clear>
    4121605c:	04100293          	li	x5,65
    41216060:	065f8463          	beq	x31,x5,412160c8 <csr_access_sstatus_supervisor_key_65_set>
    41216064:	03f00293          	li	x5,63
    41216068:	065f8463          	beq	x31,x5,412160d0 <csr_access_sstatus_supervisor_key_63_clear>
    4121606c:	04500293          	li	x5,69
    41216070:	065f8463          	beq	x31,x5,412160d8 <csr_access_stvec_supervisor_key_69_set>
    41216074:	04400293          	li	x5,68
    41216078:	065f8463          	beq	x31,x5,412160e0 <csr_access_stvec_supervisor_key_68_clear>
    4121607c:	06c0006f          	j	412160e8 <end_super_label>

0000000041216080 <csr_access_hcounteren_supervisor_key_12_set>:
    41216080:	6063a073          	csrs	hcounteren,x7
    41216084:	0640006f          	j	412160e8 <end_super_label>

0000000041216088 <csr_access_hcounteren_supervisor_key_27_clear>:
    41216088:	6063b073          	csrc	hcounteren,x7
    4121608c:	05c0006f          	j	412160e8 <end_super_label>

0000000041216090 <csr_access_scounteren_supervisor_key_8_set>:
    41216090:	1063a073          	csrs	scounteren,x7
    41216094:	0540006f          	j	412160e8 <end_super_label>

0000000041216098 <csr_access_scounteren_supervisor_key_16_clear>:
    41216098:	1063b073          	csrc	scounteren,x7
    4121609c:	04c0006f          	j	412160e8 <end_super_label>

00000000412160a0 <csr_access_stimecmp_supervisor_key_6_read>:
    412160a0:	14d023f3          	csrr	x7,stimecmp
    412160a4:	0440006f          	j	412160e8 <end_super_label>

00000000412160a8 <csr_access_vstimecmp_supervisor_key_7_read>:
    412160a8:	24d023f3          	csrr	x7,vstimecmp
    412160ac:	03c0006f          	j	412160e8 <end_super_label>

00000000412160b0 <csr_access_henvcfg_supervisor_key_60_read>:
    412160b0:	60a023f3          	csrr	x7,henvcfg
    412160b4:	0340006f          	j	412160e8 <end_super_label>

00000000412160b8 <csr_access_henvcfg_supervisor_key_52_set>:
    412160b8:	60a3a073          	csrs	henvcfg,x7
    412160bc:	02c0006f          	j	412160e8 <end_super_label>

00000000412160c0 <csr_access_henvcfg_supervisor_key_61_clear>:
    412160c0:	60a3b073          	csrc	henvcfg,x7
    412160c4:	0240006f          	j	412160e8 <end_super_label>

00000000412160c8 <csr_access_sstatus_supervisor_key_65_set>:
    412160c8:	1003a073          	csrs	sstatus,x7
    412160cc:	01c0006f          	j	412160e8 <end_super_label>

00000000412160d0 <csr_access_sstatus_supervisor_key_63_clear>:
    412160d0:	1003b073          	csrc	sstatus,x7
    412160d4:	0140006f          	j	412160e8 <end_super_label>

00000000412160d8 <csr_access_stvec_supervisor_key_69_set>:
    412160d8:	1053a073          	csrs	stvec,x7
    412160dc:	00c0006f          	j	412160e8 <end_super_label>

00000000412160e0 <csr_access_stvec_supervisor_key_68_clear>:
    412160e0:	1053b073          	csrc	stvec,x7
    412160e4:	0040006f          	j	412160e8 <end_super_label>

00000000412160e8 <end_super_label>:
    412160e8:	000f0fb7          	lui	x31,0xf0
    412160ec:	001f8f9b          	addiw	x31,x31,1 # f0001 <pma_region_0_size+0xb0001>
    412160f0:	00cf9f93          	slli	x31,x31,0xc
    412160f4:	004f8f93          	addi	x31,x31,4
    412160f8:	00000073          	ecall

Disassembly of section .os_data:

000000f010182000 <passed_addr_ptr>:
  f010182000:	5130                	.insn	2, 0x5130
  f010182002:	4101                	.insn	2, 0x4101
  f010182004:	0000                	.insn	2, 0x0000
	...

000000f010182008 <failed_addr_ptr>:
  f010182008:	5140                	.insn	2, 0x5140
  f01018200a:	4101                	.insn	2, 0x4101
  f01018200c:	0000                	.insn	2, 0x0000
	...

000000f010182010 <end_test_addr_ptr>:
  f010182010:	5150                	.insn	2, 0x5150
  f010182012:	4101                	.insn	2, 0x4101
  f010182014:	0000                	.insn	2, 0x0000
	...

000000f010182018 <os_passed_addr_ptr>:
  f010182018:	07b0                	.insn	2, 0x07b0
  f01018201a:	4100                	.insn	2, 0x4100
  f01018201c:	0000                	.insn	2, 0x0000
	...

000000f010182020 <os_failed_addr_ptr>:
  f010182020:	07c0                	.insn	2, 0x07c0
  f010182022:	4100                	.insn	2, 0x4100
  f010182024:	0000                	.insn	2, 0x0000
	...

000000f010182028 <os_end_test_addr_ptr>:
  f010182028:	07cc                	.insn	2, 0x07cc
  f01018202a:	4100                	.insn	2, 0x4100
  f01018202c:	0000                	.insn	2, 0x0000
	...

000000f010182030 <rvcp_prefix_str_data>:
  f010182030:	5652                	.insn	2, 0x5652
  f010182032:	203a5043          	fmadd.s	f0,f20,f3,f4,unknown
  f010182036:	6554                	.insn	2, 0x6554
  f010182038:	46207473          	csrrci	x8,0x462,0
  f01018203c:	6c69                	.insn	2, 0x6c69
  f01018203e:	2065                	.insn	2, 0x2065
	...

000000f010182041 <rvcp_testname_str_data>:
  f010182041:	7074                	.insn	2, 0x7074
  f010182043:	735f 7473 5f63      	.insn	6, 0x5f637473735f
  f010182049:	0032                	.insn	2, 0x0032

000000f01018204b <rvcp_passed_str_data>:
  f01018204b:	4150                	.insn	2, 0x4150
  f01018204d:	44455353          	fround.h	f6,f10,unknown
	...

000000f010182052 <rvcp_failed_str_data>:
  f010182052:	4146                	.insn	2, 0x4146
  f010182054:	4c49                	.insn	2, 0x4c49
  f010182056:	4445                	.insn	2, 0x4445
	...

000000f010182059 <rvcp_space_str_data>:
  f010182059:	0020                	.insn	2, 0x0020

000000f01018205b <rvcp_newline_str_data>:
  f01018205b:	000a                	.insn	2, 0x000a
  f01018205d:	0000                	.insn	2, 0x0000
	...

000000f010182060 <excp_ignored_count_mem>:
	...

000000f010182068 <machine_flags_mem>:
	...

000000f010182070 <user_flags_mem>:
	...

000000f010182078 <super_flags_mem>:
	...

000000f010182080 <machine_area_mem>:
	...

000000f010182088 <user_area_mem>:
	...

000000f010182090 <super_area_mem>:
	...

000000f010182098 <zero_data_mem>:
	...

000000f0101820a0 <machine_csr_jump_table_flags_mem>:
	...

000000f0101820a8 <super_csr_jump_table_flags_mem>:
	...

000000f0101820b0 <pte_access_flags_mem>:
	...

000000f0101820c8 <num_harts_ended_mem>:
	...

000000f0101820d0 <num_hard_fails_mem>:
	...

Disassembly of section .hart_context:

000000000634b000 <hart_context_0>:
 634b000:	0000                	.insn	2, 0x0000
 634b002:	f342                	.insn	2, 0xf342
 634b004:	00fe                	.insn	2, 0x00fe
	...
 634b016:	0000                	.insn	2, 0x0000
 634b018:	0001                	.insn	2, 0x0001
 634b01a:	0000                	.insn	2, 0x0000
 634b01c:	0000                	.insn	2, 0x0000
 634b01e:	0000                	.insn	2, 0x0000
 634b020:	ffff                	.insn	2, 0xffff
 634b022:	ffff                	.insn	2, 0xffff
 634b024:	ffff                	.insn	2, 0xffff
 634b026:	ffff                	.insn	2, 0xffff
 634b028:	ffff                	.insn	2, 0xffff
 634b02a:	ffff                	.insn	2, 0xffff
 634b02c:	ffff                	.insn	2, 0xffff
 634b02e:	ffff                	.insn	2, 0xffff
 634b030:	ffff                	.insn	2, 0xffff
 634b032:	ffff                	.insn	2, 0xffff
 634b034:	ffff                	.insn	2, 0xffff
 634b036:	ffff                	.insn	2, 0xffff
	...
 634b050:	00ff 0000 0000 0000 	.insn	10, 0x00ff00000000000000ff
 634b058:	00ff 
	...
 634b176:	0000                	.insn	2, 0x0000
 634b178:	ffff                	.insn	2, 0xffff
 634b17a:	ffff                	.insn	2, 0xffff
 634b17c:	ffff                	.insn	2, 0xffff
 634b17e:	ffff                	.insn	2, 0xffff
	...
 634b188:	ffff                	.insn	2, 0xffff
 634b18a:	ffff                	.insn	2, 0xffff
	...

Disassembly of section .hart_stack_0:

000000fef341f000 <hart_stack_0>:
	...

Disassembly of section .io_htif:

0000000041040000 <tohost>:
	...

0000000041040040 <fromhost>:
	...

Disassembly of section .tp_csr_storage:

000000000000c000 <.tp_csr_storage>:
    c000:	c0de                	.insn	2, 0xc0de
    c002:	c001                	.insn	2, 0xc001
    c004:	0000                	.insn	2, 0x0000
	...

Disassembly of section .SID_SSTC_01_stack:

0000000bfbcce000 <.SID_SSTC_01_stack>:
   bfbcce000:	c0de                	.insn	2, 0xc0de
   bfbcce002:	c001                	.insn	2, 0xc001
   bfbcce004:	0000                	.insn	2, 0x0000
	...

Disassembly of section .SID_SSTC_02_HU_stack:

00000314eff5a000 <.SID_SSTC_02_HU_stack>:
 314eff5a000:	c0de                	.insn	2, 0xc0de
 314eff5a002:	c001                	.insn	2, 0xc001
 314eff5a004:	0000                	.insn	2, 0x0000
	...

Disassembly of section .SID_SSTC_03_U_stack:

00000000091fe000 <.SID_SSTC_03_U_stack>:
 91fe000:	c0de                	.insn	2, 0xc0de
 91fe002:	c001                	.insn	2, 0xc001
 91fe004:	0000                	.insn	2, 0x0000
	...

Disassembly of section .SID_SSTC_04_NON_M_stack:

0000000000905000 <.SID_SSTC_04_NON_M_stack>:
  905000:	c0de                	.insn	2, 0xc0de
  905002:	c001                	.insn	2, 0xc001
  905004:	0000                	.insn	2, 0x0000
	...

Disassembly of section .SID_SSTC_06_stack:

000001c13ab7f000 <.SID_SSTC_06_stack>:
 1c13ab7f000:	c0de                	.insn	2, 0xc0de
 1c13ab7f002:	c001                	.insn	2, 0xc001
 1c13ab7f004:	0000                	.insn	2, 0x0000
	...

Disassembly of section .__pagetable_map_os_0x0000000043466000:

0000000043466000 <__pagetable_map_os_0x0000000043466000>:
    43466000:	5801                	.insn	2, 0x5801
    43466002:	1092                	.insn	2, 0x1092
    43466004:	0000                	.insn	2, 0x0000
    43466006:	0000                	.insn	2, 0x0000
    43466008:	e001                	.insn	2, 0xe001
    4346600a:	000010cf          	fnmadd.s	f1,f0,f0,f0,rtz
	...
    43466016:	0000                	.insn	2, 0x0000
    43466018:	dc01                	.insn	2, 0xdc01
    4346601a:	1089                	.insn	2, 0x1089
	...
    43466030:	f001                	.insn	2, 0xf001
    43466032:	1136                	.insn	2, 0x1136
    43466034:	0000                	.insn	2, 0x0000
	...

Disassembly of section .__pagetable_map_os_0x0000000042496000:

0000000042496000 <__pagetable_map_os_0x0000000042496000>:
    42496000:	3401                	.insn	2, 0x3401
    42496002:	10d1                	.insn	2, 0x10d1
    42496004:	0000                	.insn	2, 0x0000
    42496006:	0000                	.insn	2, 0x0000
    42496008:	b401                	.insn	2, 0xb401
    4249600a:	1140                	.insn	2, 0x1140
	...
    42496178:	0c01                	.insn	2, 0x0c01
    4249617a:	1099                	.insn	2, 0x1099
    4249617c:	0000                	.insn	2, 0x0000
	...

Disassembly of section .__pagetable_map_os_0x000000004502d000:

000000004502d000 <__pagetable_map_os_0x000000004502d000>:
	...
    4502d040:	ec01                	.insn	2, 0xec01
    4502d042:	1136                	.insn	2, 0x1136
    4502d044:	0000                	.insn	2, 0x0000
    4502d046:	0000                	.insn	2, 0x0000
    4502d048:	d801                	.insn	2, 0xd801
    4502d04a:	10d0                	.insn	2, 0x10d0
	...
    4502d0d0:	5001                	.insn	2, 0x5001
    4502d0d2:	108c                	.insn	2, 0x108c
    4502d0d4:	0000                	.insn	2, 0x0000
	...

Disassembly of section .__pagetable_map_os_0x0000000044dbb000:

0000000044dbb000 <__pagetable_map_os_0x0000000044dbb000>:
	...
    44dbb080:	40df 1040 0000      	.insn	6, 0x104040df
    44dbb086:	0000                	.insn	2, 0x0000
    44dbb088:	104044cf          	fnmadd.s	f9,f0,f4,f2,rmm
    44dbb08c:	0000                	.insn	2, 0x0000
    44dbb08e:	0000                	.insn	2, 0x0000
    44dbb090:	104048cf          	fnmadd.s	f17,f0,f4,f2,rmm
    44dbb094:	0000                	.insn	2, 0x0000
    44dbb096:	0000                	.insn	2, 0x0000
    44dbb098:	10404ccf          	fnmadd.s	f25,f0,f4,f2,rmm
    44dbb09c:	0000                	.insn	2, 0x0000
    44dbb09e:	0000                	.insn	2, 0x0000
    44dbb0a0:	104050cf          	fnmadd.s	f1,f0,f4,f2,unknown
    44dbb0a4:	0000                	.insn	2, 0x0000
    44dbb0a6:	0000                	.insn	2, 0x0000
    44dbb0a8:	00df 10c0 0000      	.insn	6, 0x10c000df
    44dbb0ae:	0000                	.insn	2, 0x0000
    44dbb0b0:	04df 10c0 0000      	.insn	6, 0x10c004df
    44dbb0b6:	0000                	.insn	2, 0x0000
    44dbb0b8:	08df 10c0 0000      	.insn	6, 0x10c008df
    44dbb0be:	0000                	.insn	2, 0x0000
    44dbb0c0:	0cdf 10c0 0000      	.insn	6, 0x10c00cdf
    44dbb0c6:	0000                	.insn	2, 0x0000
    44dbb0c8:	10df 10c0 0000      	.insn	6, 0x10c010df
    44dbb0ce:	0000                	.insn	2, 0x0000
    44dbb0d0:	14df 10c0 0000      	.insn	6, 0x10c014df
    44dbb0d6:	0000                	.insn	2, 0x0000
    44dbb0d8:	18df 10c0 0000      	.insn	6, 0x10c018df
    44dbb0de:	0000                	.insn	2, 0x0000
    44dbb0e0:	1cdf 10c0 0000      	.insn	6, 0x10c01cdf
    44dbb0e6:	0000                	.insn	2, 0x0000
    44dbb0e8:	20df 10c0 0000      	.insn	6, 0x10c020df
    44dbb0ee:	0000                	.insn	2, 0x0000
    44dbb0f0:	24df 10c0 0000      	.insn	6, 0x10c024df
    44dbb0f6:	0000                	.insn	2, 0x0000
    44dbb0f8:	28df 10c0 0000      	.insn	6, 0x10c028df
    44dbb0fe:	0000                	.insn	2, 0x0000
    44dbb100:	2cdf 10c0 0000      	.insn	6, 0x10c02cdf
    44dbb106:	0000                	.insn	2, 0x0000
    44dbb108:	30df 10c0 0000      	.insn	6, 0x10c030df
    44dbb10e:	0000                	.insn	2, 0x0000
    44dbb110:	34df 10c0 0000      	.insn	6, 0x10c034df
    44dbb116:	0000                	.insn	2, 0x0000
    44dbb118:	38df 10c0 0000      	.insn	6, 0x10c038df
    44dbb11e:	0000                	.insn	2, 0x0000
    44dbb120:	3cdf 10c0 0000      	.insn	6, 0x10c03cdf
    44dbb126:	0000                	.insn	2, 0x0000
    44dbb128:	40df 10c0 0000      	.insn	6, 0x10c040df
    44dbb12e:	0000                	.insn	2, 0x0000
    44dbb130:	44df 10c0 0000      	.insn	6, 0x10c044df
    44dbb136:	0000                	.insn	2, 0x0000
    44dbb138:	48df 10c0 0000      	.insn	6, 0x10c048df
    44dbb13e:	0000                	.insn	2, 0x0000
    44dbb140:	4cdf 10c0 0000      	.insn	6, 0x10c04cdf
    44dbb146:	0000                	.insn	2, 0x0000
    44dbb148:	50df 10c0 0000      	.insn	6, 0x10c050df
    44dbb14e:	0000                	.insn	2, 0x0000
    44dbb150:	54df 10c0 0000      	.insn	6, 0x10c054df
    44dbb156:	0000                	.insn	2, 0x0000
    44dbb158:	58df 10c0 0000      	.insn	6, 0x10c058df
    44dbb15e:	0000                	.insn	2, 0x0000
    44dbb160:	5cdf 10c0 0000      	.insn	6, 0x10c05cdf
    44dbb166:	0000                	.insn	2, 0x0000
    44dbb168:	60df 10c0 0000      	.insn	6, 0x10c060df
    44dbb16e:	0000                	.insn	2, 0x0000
    44dbb170:	64df 10c0 0000      	.insn	6, 0x10c064df
    44dbb176:	0000                	.insn	2, 0x0000
    44dbb178:	68df 10c0 0000      	.insn	6, 0x10c068df
    44dbb17e:	0000                	.insn	2, 0x0000
    44dbb180:	6cdf 10c0 0000      	.insn	6, 0x10c06cdf
    44dbb186:	0000                	.insn	2, 0x0000
    44dbb188:	70df 10c0 0000      	.insn	6, 0x10c070df
    44dbb18e:	0000                	.insn	2, 0x0000
    44dbb190:	74df 10c0 0000      	.insn	6, 0x10c074df
    44dbb196:	0000                	.insn	2, 0x0000
    44dbb198:	78df 10c0 0000      	.insn	6, 0x10c078df
    44dbb19e:	0000                	.insn	2, 0x0000
    44dbb1a0:	7cdf 10c0 0000      	.insn	6, 0x10c07cdf
    44dbb1a6:	0000                	.insn	2, 0x0000
    44dbb1a8:	80df 10c0 0000      	.insn	6, 0x10c080df
    44dbb1ae:	0000                	.insn	2, 0x0000
    44dbb1b0:	84df 10c0 0000      	.insn	6, 0x10c084df
    44dbb1b6:	0000                	.insn	2, 0x0000
    44dbb1b8:	88df 10c0 0000      	.insn	6, 0x10c088df
    44dbb1be:	0000                	.insn	2, 0x0000
    44dbb1c0:	8cdf 10c0 0000      	.insn	6, 0x10c08cdf
    44dbb1c6:	0000                	.insn	2, 0x0000
    44dbb1c8:	90df 10c0 0000      	.insn	6, 0x10c090df
    44dbb1ce:	0000                	.insn	2, 0x0000
    44dbb1d0:	94df 10c0 0000      	.insn	6, 0x10c094df
    44dbb1d6:	0000                	.insn	2, 0x0000
    44dbb1d8:	98df 10c0 0000      	.insn	6, 0x10c098df
    44dbb1de:	0000                	.insn	2, 0x0000
    44dbb1e0:	9cdf 10c0 0000      	.insn	6, 0x10c09cdf
    44dbb1e6:	0000                	.insn	2, 0x0000
    44dbb1e8:	a0df 10c0 0000      	.insn	6, 0x10c0a0df
    44dbb1ee:	0000                	.insn	2, 0x0000
    44dbb1f0:	a4df 10c0 0000      	.insn	6, 0x10c0a4df
    44dbb1f6:	0000                	.insn	2, 0x0000
    44dbb1f8:	a8df 10c0 0000      	.insn	6, 0x10c0a8df
    44dbb1fe:	0000                	.insn	2, 0x0000
    44dbb200:	00df 1041 0000      	.insn	6, 0x104100df
    44dbb206:	0000                	.insn	2, 0x0000
    44dbb208:	b0df 10c0 0000      	.insn	6, 0x10c0b0df
    44dbb20e:	0000                	.insn	2, 0x0000
    44dbb210:	b4df 10c0 0000      	.insn	6, 0x10c0b4df
    44dbb216:	0000                	.insn	2, 0x0000
    44dbb218:	b8df 10c0 0000      	.insn	6, 0x10c0b8df
    44dbb21e:	0000                	.insn	2, 0x0000
    44dbb220:	bcdf 10c0 0000      	.insn	6, 0x10c0bcdf
    44dbb226:	0000                	.insn	2, 0x0000
    44dbb228:	c0df 10c0 0000      	.insn	6, 0x10c0c0df
    44dbb22e:	0000                	.insn	2, 0x0000
    44dbb230:	c4df 10c0 0000      	.insn	6, 0x10c0c4df
    44dbb236:	0000                	.insn	2, 0x0000
    44dbb238:	c8df 10c0 0000      	.insn	6, 0x10c0c8df
    44dbb23e:	0000                	.insn	2, 0x0000
    44dbb240:	ccdf 10c0 0000      	.insn	6, 0x10c0ccdf
    44dbb246:	0000                	.insn	2, 0x0000
    44dbb248:	d0df 10c0 0000      	.insn	6, 0x10c0d0df
    44dbb24e:	0000                	.insn	2, 0x0000
    44dbb250:	d4df 10c0 0000      	.insn	6, 0x10c0d4df
    44dbb256:	0000                	.insn	2, 0x0000
    44dbb258:	d8df 10c0 0000      	.insn	6, 0x10c0d8df
    44dbb25e:	0000                	.insn	2, 0x0000
    44dbb260:	dcdf 10c0 0000      	.insn	6, 0x10c0dcdf
    44dbb266:	0000                	.insn	2, 0x0000
    44dbb268:	e0df 10c0 0000      	.insn	6, 0x10c0e0df
    44dbb26e:	0000                	.insn	2, 0x0000
    44dbb270:	e4df 10c0 0000      	.insn	6, 0x10c0e4df
    44dbb276:	0000                	.insn	2, 0x0000
    44dbb278:	e8df 10c0 0000      	.insn	6, 0x10c0e8df
    44dbb27e:	0000                	.insn	2, 0x0000
    44dbb280:	ecdf 10c0 0000      	.insn	6, 0x10c0ecdf
    44dbb286:	0000                	.insn	2, 0x0000
    44dbb288:	f0df 10c0 0000      	.insn	6, 0x10c0f0df
    44dbb28e:	0000                	.insn	2, 0x0000
    44dbb290:	f4df 10c0 0000      	.insn	6, 0x10c0f4df
    44dbb296:	0000                	.insn	2, 0x0000
    44dbb298:	f8df 10c0 0000      	.insn	6, 0x10c0f8df
    44dbb29e:	0000                	.insn	2, 0x0000
    44dbb2a0:	fcdf 10c0 0000      	.insn	6, 0x10c0fcdf
    44dbb2a6:	0000                	.insn	2, 0x0000
    44dbb2a8:	00df 10c1 0000      	.insn	6, 0x10c100df
    44dbb2ae:	0000                	.insn	2, 0x0000
    44dbb2b0:	04df 10c1 0000      	.insn	6, 0x10c104df
    44dbb2b6:	0000                	.insn	2, 0x0000
    44dbb2b8:	08df 10c1 0000      	.insn	6, 0x10c108df
    44dbb2be:	0000                	.insn	2, 0x0000
    44dbb2c0:	0cdf 10c1 0000      	.insn	6, 0x10c10cdf
    44dbb2c6:	0000                	.insn	2, 0x0000
    44dbb2c8:	10df 10c1 0000      	.insn	6, 0x10c110df
    44dbb2ce:	0000                	.insn	2, 0x0000
    44dbb2d0:	14df 10c1 0000      	.insn	6, 0x10c114df
    44dbb2d6:	0000                	.insn	2, 0x0000
    44dbb2d8:	18df 10c1 0000      	.insn	6, 0x10c118df
    44dbb2de:	0000                	.insn	2, 0x0000
    44dbb2e0:	1cdf 10c1 0000      	.insn	6, 0x10c11cdf
    44dbb2e6:	0000                	.insn	2, 0x0000
    44dbb2e8:	20df 10c1 0000      	.insn	6, 0x10c120df
    44dbb2ee:	0000                	.insn	2, 0x0000
    44dbb2f0:	24df 10c1 0000      	.insn	6, 0x10c124df
    44dbb2f6:	0000                	.insn	2, 0x0000
    44dbb2f8:	28df 10c1 0000      	.insn	6, 0x10c128df
    44dbb2fe:	0000                	.insn	2, 0x0000
    44dbb300:	2cdf 10c1 0000      	.insn	6, 0x10c12cdf
    44dbb306:	0000                	.insn	2, 0x0000
    44dbb308:	30df 10c1 0000      	.insn	6, 0x10c130df
    44dbb30e:	0000                	.insn	2, 0x0000
    44dbb310:	34df 10c1 0000      	.insn	6, 0x10c134df
    44dbb316:	0000                	.insn	2, 0x0000
    44dbb318:	38df 10c1 0000      	.insn	6, 0x10c138df
    44dbb31e:	0000                	.insn	2, 0x0000
    44dbb320:	3cdf 10c1 0000      	.insn	6, 0x10c13cdf
    44dbb326:	0000                	.insn	2, 0x0000
    44dbb328:	40df 10c1 0000      	.insn	6, 0x10c140df
    44dbb32e:	0000                	.insn	2, 0x0000
    44dbb330:	44df 10c1 0000      	.insn	6, 0x10c144df
    44dbb336:	0000                	.insn	2, 0x0000
    44dbb338:	48df 10c1 0000      	.insn	6, 0x10c148df
    44dbb33e:	0000                	.insn	2, 0x0000
    44dbb340:	4cdf 10c1 0000      	.insn	6, 0x10c14cdf
    44dbb346:	0000                	.insn	2, 0x0000
    44dbb348:	50df 10c1 0000      	.insn	6, 0x10c150df
    44dbb34e:	0000                	.insn	2, 0x0000
    44dbb350:	54df 10c1 0000      	.insn	6, 0x10c154df
    44dbb356:	0000                	.insn	2, 0x0000
    44dbb358:	58df 10c1 0000      	.insn	6, 0x10c158df
    44dbb35e:	0000                	.insn	2, 0x0000
    44dbb360:	5cdf 10c1 0000      	.insn	6, 0x10c15cdf
    44dbb366:	0000                	.insn	2, 0x0000
    44dbb368:	60df 10c1 0000      	.insn	6, 0x10c160df
    44dbb36e:	0000                	.insn	2, 0x0000
    44dbb370:	64df 10c1 0000      	.insn	6, 0x10c164df
    44dbb376:	0000                	.insn	2, 0x0000
    44dbb378:	68df 10c1 0000      	.insn	6, 0x10c168df
    44dbb37e:	0000                	.insn	2, 0x0000
    44dbb380:	6cdf 10c1 0000      	.insn	6, 0x10c16cdf
    44dbb386:	0000                	.insn	2, 0x0000
    44dbb388:	70df 10c1 0000      	.insn	6, 0x10c170df
    44dbb38e:	0000                	.insn	2, 0x0000
    44dbb390:	74df 10c1 0000      	.insn	6, 0x10c174df
    44dbb396:	0000                	.insn	2, 0x0000
    44dbb398:	78df 10c1 0000      	.insn	6, 0x10c178df
    44dbb39e:	0000                	.insn	2, 0x0000
    44dbb3a0:	7cdf 10c1 0000      	.insn	6, 0x10c17cdf
    44dbb3a6:	0000                	.insn	2, 0x0000
    44dbb3a8:	80df 10c1 0000      	.insn	6, 0x10c180df
    44dbb3ae:	0000                	.insn	2, 0x0000
    44dbb3b0:	84df 10c1 0000      	.insn	6, 0x10c184df
    44dbb3b6:	0000                	.insn	2, 0x0000
    44dbb3b8:	88df 10c1 0000      	.insn	6, 0x10c188df
    44dbb3be:	0000                	.insn	2, 0x0000
    44dbb3c0:	8cdf 10c1 0000      	.insn	6, 0x10c18cdf
    44dbb3c6:	0000                	.insn	2, 0x0000
    44dbb3c8:	90df 10c1 0000      	.insn	6, 0x10c190df
    44dbb3ce:	0000                	.insn	2, 0x0000
    44dbb3d0:	94df 10c1 0000      	.insn	6, 0x10c194df
    44dbb3d6:	0000                	.insn	2, 0x0000
    44dbb3d8:	98df 10c1 0000      	.insn	6, 0x10c198df
    44dbb3de:	0000                	.insn	2, 0x0000
    44dbb3e0:	9cdf 10c1 0000      	.insn	6, 0x10c19cdf
    44dbb3e6:	0000                	.insn	2, 0x0000
    44dbb3e8:	a0df 10c1 0000      	.insn	6, 0x10c1a0df
    44dbb3ee:	0000                	.insn	2, 0x0000
    44dbb3f0:	a4df 10c1 0000      	.insn	6, 0x10c1a4df
    44dbb3f6:	0000                	.insn	2, 0x0000
    44dbb3f8:	a8df 10c1 0000      	.insn	6, 0x10c1a8df
    44dbb3fe:	0000                	.insn	2, 0x0000
    44dbb400:	acdf 10c1 0000      	.insn	6, 0x10c1acdf
    44dbb406:	0000                	.insn	2, 0x0000
    44dbb408:	b0df 10c1 0000      	.insn	6, 0x10c1b0df
    44dbb40e:	0000                	.insn	2, 0x0000
    44dbb410:	b4df 10c1 0000      	.insn	6, 0x10c1b4df
    44dbb416:	0000                	.insn	2, 0x0000
    44dbb418:	b8df 10c1 0000      	.insn	6, 0x10c1b8df
    44dbb41e:	0000                	.insn	2, 0x0000
    44dbb420:	bcdf 10c1 0000      	.insn	6, 0x10c1bcdf
    44dbb426:	0000                	.insn	2, 0x0000
    44dbb428:	c0df 10c1 0000      	.insn	6, 0x10c1c0df
    44dbb42e:	0000                	.insn	2, 0x0000
    44dbb430:	c4df 10c1 0000      	.insn	6, 0x10c1c4df
    44dbb436:	0000                	.insn	2, 0x0000
    44dbb438:	c8df 10c1 0000      	.insn	6, 0x10c1c8df
    44dbb43e:	0000                	.insn	2, 0x0000
    44dbb440:	ccdf 10c1 0000      	.insn	6, 0x10c1ccdf
    44dbb446:	0000                	.insn	2, 0x0000
    44dbb448:	d0df 10c1 0000      	.insn	6, 0x10c1d0df
    44dbb44e:	0000                	.insn	2, 0x0000
    44dbb450:	d4df 10c1 0000      	.insn	6, 0x10c1d4df
    44dbb456:	0000                	.insn	2, 0x0000
    44dbb458:	d8df 10c1 0000      	.insn	6, 0x10c1d8df
    44dbb45e:	0000                	.insn	2, 0x0000
    44dbb460:	dcdf 10c1 0000      	.insn	6, 0x10c1dcdf
    44dbb466:	0000                	.insn	2, 0x0000
    44dbb468:	e0df 10c1 0000      	.insn	6, 0x10c1e0df
    44dbb46e:	0000                	.insn	2, 0x0000
    44dbb470:	e4df 10c1 0000      	.insn	6, 0x10c1e4df
    44dbb476:	0000                	.insn	2, 0x0000
    44dbb478:	e8df 10c1 0000      	.insn	6, 0x10c1e8df
    44dbb47e:	0000                	.insn	2, 0x0000
    44dbb480:	ecdf 10c1 0000      	.insn	6, 0x10c1ecdf
    44dbb486:	0000                	.insn	2, 0x0000
    44dbb488:	f0df 10c1 0000      	.insn	6, 0x10c1f0df
    44dbb48e:	0000                	.insn	2, 0x0000
    44dbb490:	f4df 10c1 0000      	.insn	6, 0x10c1f4df
    44dbb496:	0000                	.insn	2, 0x0000
    44dbb498:	f8df 10c1 0000      	.insn	6, 0x10c1f8df
    44dbb49e:	0000                	.insn	2, 0x0000
    44dbb4a0:	fcdf 10c1 0000      	.insn	6, 0x10c1fcdf
    44dbb4a6:	0000                	.insn	2, 0x0000
    44dbb4a8:	10c200cf          	fnmadd.s	f1,f4,f12,f2,rne
    44dbb4ac:	0000                	.insn	2, 0x0000
    44dbb4ae:	0000                	.insn	2, 0x0000
    44dbb4b0:	10c204cf          	fnmadd.s	f9,f4,f12,f2,rne
    44dbb4b4:	0000                	.insn	2, 0x0000
    44dbb4b6:	0000                	.insn	2, 0x0000
    44dbb4b8:	10c208cf          	fnmadd.s	f17,f4,f12,f2,rne
    44dbb4bc:	0000                	.insn	2, 0x0000
    44dbb4be:	0000                	.insn	2, 0x0000
    44dbb4c0:	10c20ccf          	fnmadd.s	f25,f4,f12,f2,rne
    44dbb4c4:	0000                	.insn	2, 0x0000
    44dbb4c6:	0000                	.insn	2, 0x0000
    44dbb4c8:	10c210cf          	fnmadd.s	f1,f4,f12,f2,rtz
    44dbb4cc:	0000                	.insn	2, 0x0000
    44dbb4ce:	0000                	.insn	2, 0x0000
    44dbb4d0:	10c214cf          	fnmadd.s	f9,f4,f12,f2,rtz
    44dbb4d4:	0000                	.insn	2, 0x0000
    44dbb4d6:	0000                	.insn	2, 0x0000
    44dbb4d8:	10c218cf          	fnmadd.s	f17,f4,f12,f2,rtz
    44dbb4dc:	0000                	.insn	2, 0x0000
    44dbb4de:	0000                	.insn	2, 0x0000
    44dbb4e0:	10c21ccf          	fnmadd.s	f25,f4,f12,f2,rtz
    44dbb4e4:	0000                	.insn	2, 0x0000
    44dbb4e6:	0000                	.insn	2, 0x0000
    44dbb4e8:	10c220cf          	fnmadd.s	f1,f4,f12,f2,rdn
    44dbb4ec:	0000                	.insn	2, 0x0000
    44dbb4ee:	0000                	.insn	2, 0x0000
    44dbb4f0:	10c224cf          	fnmadd.s	f9,f4,f12,f2,rdn
    44dbb4f4:	0000                	.insn	2, 0x0000
    44dbb4f6:	0000                	.insn	2, 0x0000
    44dbb4f8:	10c228cf          	fnmadd.s	f17,f4,f12,f2,rdn
    44dbb4fc:	0000                	.insn	2, 0x0000
    44dbb4fe:	0000                	.insn	2, 0x0000
    44dbb500:	10c22ccf          	fnmadd.s	f25,f4,f12,f2,rdn
    44dbb504:	0000                	.insn	2, 0x0000
    44dbb506:	0000                	.insn	2, 0x0000
    44dbb508:	10c230cf          	fnmadd.s	f1,f4,f12,f2,rup
    44dbb50c:	0000                	.insn	2, 0x0000
    44dbb50e:	0000                	.insn	2, 0x0000
    44dbb510:	10c234cf          	fnmadd.s	f9,f4,f12,f2,rup
    44dbb514:	0000                	.insn	2, 0x0000
    44dbb516:	0000                	.insn	2, 0x0000
    44dbb518:	10c238cf          	fnmadd.s	f17,f4,f12,f2,rup
    44dbb51c:	0000                	.insn	2, 0x0000
    44dbb51e:	0000                	.insn	2, 0x0000
    44dbb520:	10c23ccf          	fnmadd.s	f25,f4,f12,f2,rup
    44dbb524:	0000                	.insn	2, 0x0000
    44dbb526:	0000                	.insn	2, 0x0000
    44dbb528:	10c240cf          	fnmadd.s	f1,f4,f12,f2,rmm
    44dbb52c:	0000                	.insn	2, 0x0000
    44dbb52e:	0000                	.insn	2, 0x0000
    44dbb530:	10c244cf          	fnmadd.s	f9,f4,f12,f2,rmm
    44dbb534:	0000                	.insn	2, 0x0000
    44dbb536:	0000                	.insn	2, 0x0000
    44dbb538:	10c248cf          	fnmadd.s	f17,f4,f12,f2,rmm
    44dbb53c:	0000                	.insn	2, 0x0000
    44dbb53e:	0000                	.insn	2, 0x0000
    44dbb540:	10c24ccf          	fnmadd.s	f25,f4,f12,f2,rmm
    44dbb544:	0000                	.insn	2, 0x0000
    44dbb546:	0000                	.insn	2, 0x0000
    44dbb548:	10c250cf          	fnmadd.s	f1,f4,f12,f2,unknown
    44dbb54c:	0000                	.insn	2, 0x0000
    44dbb54e:	0000                	.insn	2, 0x0000
    44dbb550:	10c254cf          	fnmadd.s	f9,f4,f12,f2,unknown
    44dbb554:	0000                	.insn	2, 0x0000
    44dbb556:	0000                	.insn	2, 0x0000
    44dbb558:	10c258cf          	fnmadd.s	f17,f4,f12,f2,unknown
    44dbb55c:	0000                	.insn	2, 0x0000
    44dbb55e:	0000                	.insn	2, 0x0000
    44dbb560:	10c25ccf          	fnmadd.s	f25,f4,f12,f2,unknown
    44dbb564:	0000                	.insn	2, 0x0000
    44dbb566:	0000                	.insn	2, 0x0000
    44dbb568:	10c260cf          	fnmadd.s	f1,f4,f12,f2,unknown
    44dbb56c:	0000                	.insn	2, 0x0000
    44dbb56e:	0000                	.insn	2, 0x0000
    44dbb570:	10c264cf          	fnmadd.s	f9,f4,f12,f2,unknown
    44dbb574:	0000                	.insn	2, 0x0000
    44dbb576:	0000                	.insn	2, 0x0000
    44dbb578:	10c268cf          	fnmadd.s	f17,f4,f12,f2,unknown
    44dbb57c:	0000                	.insn	2, 0x0000
    44dbb57e:	0000                	.insn	2, 0x0000
    44dbb580:	10c26ccf          	fnmadd.s	f25,f4,f12,f2,unknown
    44dbb584:	0000                	.insn	2, 0x0000
    44dbb586:	0000                	.insn	2, 0x0000
    44dbb588:	10c270cf          	fnmadd.s	f1,f4,f12,f2
    44dbb58c:	0000                	.insn	2, 0x0000
    44dbb58e:	0000                	.insn	2, 0x0000
    44dbb590:	10c274cf          	fnmadd.s	f9,f4,f12,f2
    44dbb594:	0000                	.insn	2, 0x0000
    44dbb596:	0000                	.insn	2, 0x0000
    44dbb598:	10c278cf          	fnmadd.s	f17,f4,f12,f2
    44dbb59c:	0000                	.insn	2, 0x0000
    44dbb59e:	0000                	.insn	2, 0x0000
    44dbb5a0:	10c27ccf          	fnmadd.s	f25,f4,f12,f2
    44dbb5a4:	0000                	.insn	2, 0x0000
    44dbb5a6:	0000                	.insn	2, 0x0000
    44dbb5a8:	10c280cf          	fnmadd.s	f1,f5,f12,f2,rne
    44dbb5ac:	0000                	.insn	2, 0x0000
    44dbb5ae:	0000                	.insn	2, 0x0000
    44dbb5b0:	10c284cf          	fnmadd.s	f9,f5,f12,f2,rne
    44dbb5b4:	0000                	.insn	2, 0x0000
    44dbb5b6:	0000                	.insn	2, 0x0000
    44dbb5b8:	10c288cf          	fnmadd.s	f17,f5,f12,f2,rne
    44dbb5bc:	0000                	.insn	2, 0x0000
    44dbb5be:	0000                	.insn	2, 0x0000
    44dbb5c0:	10c28ccf          	fnmadd.s	f25,f5,f12,f2,rne
    44dbb5c4:	0000                	.insn	2, 0x0000
    44dbb5c6:	0000                	.insn	2, 0x0000
    44dbb5c8:	10c290cf          	fnmadd.s	f1,f5,f12,f2,rtz
    44dbb5cc:	0000                	.insn	2, 0x0000
    44dbb5ce:	0000                	.insn	2, 0x0000
    44dbb5d0:	10c294cf          	fnmadd.s	f9,f5,f12,f2,rtz
    44dbb5d4:	0000                	.insn	2, 0x0000
    44dbb5d6:	0000                	.insn	2, 0x0000
    44dbb5d8:	10c298cf          	fnmadd.s	f17,f5,f12,f2,rtz
    44dbb5dc:	0000                	.insn	2, 0x0000
    44dbb5de:	0000                	.insn	2, 0x0000
    44dbb5e0:	10c29ccf          	fnmadd.s	f25,f5,f12,f2,rtz
    44dbb5e4:	0000                	.insn	2, 0x0000
    44dbb5e6:	0000                	.insn	2, 0x0000
    44dbb5e8:	10c2a0cf          	fnmadd.s	f1,f5,f12,f2,rdn
    44dbb5ec:	0000                	.insn	2, 0x0000
    44dbb5ee:	0000                	.insn	2, 0x0000
    44dbb5f0:	10c2a4cf          	fnmadd.s	f9,f5,f12,f2,rdn
    44dbb5f4:	0000                	.insn	2, 0x0000
    44dbb5f6:	0000                	.insn	2, 0x0000
    44dbb5f8:	10c2a8cf          	fnmadd.s	f17,f5,f12,f2,rdn
    44dbb5fc:	0000                	.insn	2, 0x0000
    44dbb5fe:	0000                	.insn	2, 0x0000
    44dbb600:	10c2accf          	fnmadd.s	f25,f5,f12,f2,rdn
    44dbb604:	0000                	.insn	2, 0x0000
    44dbb606:	0000                	.insn	2, 0x0000
    44dbb608:	10c2b0cf          	fnmadd.s	f1,f5,f12,f2,rup
    44dbb60c:	0000                	.insn	2, 0x0000
    44dbb60e:	0000                	.insn	2, 0x0000
    44dbb610:	10c2b4cf          	fnmadd.s	f9,f5,f12,f2,rup
    44dbb614:	0000                	.insn	2, 0x0000
    44dbb616:	0000                	.insn	2, 0x0000
    44dbb618:	10c2b8cf          	fnmadd.s	f17,f5,f12,f2,rup
    44dbb61c:	0000                	.insn	2, 0x0000
    44dbb61e:	0000                	.insn	2, 0x0000
    44dbb620:	10c2bccf          	fnmadd.s	f25,f5,f12,f2,rup
    44dbb624:	0000                	.insn	2, 0x0000
    44dbb626:	0000                	.insn	2, 0x0000
    44dbb628:	10c2c0cf          	fnmadd.s	f1,f5,f12,f2,rmm
    44dbb62c:	0000                	.insn	2, 0x0000
    44dbb62e:	0000                	.insn	2, 0x0000
    44dbb630:	10c2c4cf          	fnmadd.s	f9,f5,f12,f2,rmm
    44dbb634:	0000                	.insn	2, 0x0000
    44dbb636:	0000                	.insn	2, 0x0000
    44dbb638:	10c2c8cf          	fnmadd.s	f17,f5,f12,f2,rmm
    44dbb63c:	0000                	.insn	2, 0x0000
    44dbb63e:	0000                	.insn	2, 0x0000
    44dbb640:	10c2cccf          	fnmadd.s	f25,f5,f12,f2,rmm
    44dbb644:	0000                	.insn	2, 0x0000
    44dbb646:	0000                	.insn	2, 0x0000
    44dbb648:	10c2d0cf          	fnmadd.s	f1,f5,f12,f2,unknown
    44dbb64c:	0000                	.insn	2, 0x0000
    44dbb64e:	0000                	.insn	2, 0x0000
    44dbb650:	10c2d4cf          	fnmadd.s	f9,f5,f12,f2,unknown
    44dbb654:	0000                	.insn	2, 0x0000
    44dbb656:	0000                	.insn	2, 0x0000
    44dbb658:	10c2d8cf          	fnmadd.s	f17,f5,f12,f2,unknown
    44dbb65c:	0000                	.insn	2, 0x0000
    44dbb65e:	0000                	.insn	2, 0x0000
    44dbb660:	10c2dccf          	fnmadd.s	f25,f5,f12,f2,unknown
    44dbb664:	0000                	.insn	2, 0x0000
    44dbb666:	0000                	.insn	2, 0x0000
    44dbb668:	10c2e0cf          	fnmadd.s	f1,f5,f12,f2,unknown
    44dbb66c:	0000                	.insn	2, 0x0000
    44dbb66e:	0000                	.insn	2, 0x0000
    44dbb670:	10c2e4cf          	fnmadd.s	f9,f5,f12,f2,unknown
    44dbb674:	0000                	.insn	2, 0x0000
    44dbb676:	0000                	.insn	2, 0x0000
    44dbb678:	10c2e8cf          	fnmadd.s	f17,f5,f12,f2,unknown
    44dbb67c:	0000                	.insn	2, 0x0000
    44dbb67e:	0000                	.insn	2, 0x0000
    44dbb680:	10c2eccf          	fnmadd.s	f25,f5,f12,f2,unknown
    44dbb684:	0000                	.insn	2, 0x0000
    44dbb686:	0000                	.insn	2, 0x0000
    44dbb688:	10c2f0cf          	fnmadd.s	f1,f5,f12,f2
    44dbb68c:	0000                	.insn	2, 0x0000
    44dbb68e:	0000                	.insn	2, 0x0000
    44dbb690:	10c2f4cf          	fnmadd.s	f9,f5,f12,f2
    44dbb694:	0000                	.insn	2, 0x0000
    44dbb696:	0000                	.insn	2, 0x0000
    44dbb698:	10c2f8cf          	fnmadd.s	f17,f5,f12,f2
    44dbb69c:	0000                	.insn	2, 0x0000
    44dbb69e:	0000                	.insn	2, 0x0000
    44dbb6a0:	10c2fccf          	fnmadd.s	f25,f5,f12,f2
    44dbb6a4:	0000                	.insn	2, 0x0000
    44dbb6a6:	0000                	.insn	2, 0x0000
    44dbb6a8:	10c300cf          	fnmadd.s	f1,f6,f12,f2,rne
    44dbb6ac:	0000                	.insn	2, 0x0000
    44dbb6ae:	0000                	.insn	2, 0x0000
    44dbb6b0:	10c304cf          	fnmadd.s	f9,f6,f12,f2,rne
    44dbb6b4:	0000                	.insn	2, 0x0000
    44dbb6b6:	0000                	.insn	2, 0x0000
    44dbb6b8:	10c308cf          	fnmadd.s	f17,f6,f12,f2,rne
    44dbb6bc:	0000                	.insn	2, 0x0000
    44dbb6be:	0000                	.insn	2, 0x0000
    44dbb6c0:	10c30ccf          	fnmadd.s	f25,f6,f12,f2,rne
    44dbb6c4:	0000                	.insn	2, 0x0000
    44dbb6c6:	0000                	.insn	2, 0x0000
    44dbb6c8:	10c310cf          	fnmadd.s	f1,f6,f12,f2,rtz
    44dbb6cc:	0000                	.insn	2, 0x0000
    44dbb6ce:	0000                	.insn	2, 0x0000
    44dbb6d0:	10c314cf          	fnmadd.s	f9,f6,f12,f2,rtz
    44dbb6d4:	0000                	.insn	2, 0x0000
    44dbb6d6:	0000                	.insn	2, 0x0000
    44dbb6d8:	10c318cf          	fnmadd.s	f17,f6,f12,f2,rtz
    44dbb6dc:	0000                	.insn	2, 0x0000
    44dbb6de:	0000                	.insn	2, 0x0000
    44dbb6e0:	10c31ccf          	fnmadd.s	f25,f6,f12,f2,rtz
    44dbb6e4:	0000                	.insn	2, 0x0000
    44dbb6e6:	0000                	.insn	2, 0x0000
    44dbb6e8:	10c320cf          	fnmadd.s	f1,f6,f12,f2,rdn
    44dbb6ec:	0000                	.insn	2, 0x0000
    44dbb6ee:	0000                	.insn	2, 0x0000
    44dbb6f0:	10c324cf          	fnmadd.s	f9,f6,f12,f2,rdn
    44dbb6f4:	0000                	.insn	2, 0x0000
    44dbb6f6:	0000                	.insn	2, 0x0000
    44dbb6f8:	10c328cf          	fnmadd.s	f17,f6,f12,f2,rdn
    44dbb6fc:	0000                	.insn	2, 0x0000
    44dbb6fe:	0000                	.insn	2, 0x0000
    44dbb700:	10c32ccf          	fnmadd.s	f25,f6,f12,f2,rdn
    44dbb704:	0000                	.insn	2, 0x0000
    44dbb706:	0000                	.insn	2, 0x0000
    44dbb708:	10c330cf          	fnmadd.s	f1,f6,f12,f2,rup
    44dbb70c:	0000                	.insn	2, 0x0000
    44dbb70e:	0000                	.insn	2, 0x0000
    44dbb710:	10c334cf          	fnmadd.s	f9,f6,f12,f2,rup
    44dbb714:	0000                	.insn	2, 0x0000
    44dbb716:	0000                	.insn	2, 0x0000
    44dbb718:	10c338cf          	fnmadd.s	f17,f6,f12,f2,rup
    44dbb71c:	0000                	.insn	2, 0x0000
    44dbb71e:	0000                	.insn	2, 0x0000
    44dbb720:	10c33ccf          	fnmadd.s	f25,f6,f12,f2,rup
    44dbb724:	0000                	.insn	2, 0x0000
    44dbb726:	0000                	.insn	2, 0x0000
    44dbb728:	10c340cf          	fnmadd.s	f1,f6,f12,f2,rmm
    44dbb72c:	0000                	.insn	2, 0x0000
    44dbb72e:	0000                	.insn	2, 0x0000
    44dbb730:	10c344cf          	fnmadd.s	f9,f6,f12,f2,rmm
    44dbb734:	0000                	.insn	2, 0x0000
    44dbb736:	0000                	.insn	2, 0x0000
    44dbb738:	10c348cf          	fnmadd.s	f17,f6,f12,f2,rmm
    44dbb73c:	0000                	.insn	2, 0x0000
    44dbb73e:	0000                	.insn	2, 0x0000
    44dbb740:	10c34ccf          	fnmadd.s	f25,f6,f12,f2,rmm
    44dbb744:	0000                	.insn	2, 0x0000
    44dbb746:	0000                	.insn	2, 0x0000
    44dbb748:	10c350cf          	fnmadd.s	f1,f6,f12,f2,unknown
    44dbb74c:	0000                	.insn	2, 0x0000
    44dbb74e:	0000                	.insn	2, 0x0000
    44dbb750:	10c354cf          	fnmadd.s	f9,f6,f12,f2,unknown
    44dbb754:	0000                	.insn	2, 0x0000
    44dbb756:	0000                	.insn	2, 0x0000
    44dbb758:	10c358cf          	fnmadd.s	f17,f6,f12,f2,unknown
    44dbb75c:	0000                	.insn	2, 0x0000
    44dbb75e:	0000                	.insn	2, 0x0000
    44dbb760:	10c35ccf          	fnmadd.s	f25,f6,f12,f2,unknown
    44dbb764:	0000                	.insn	2, 0x0000
    44dbb766:	0000                	.insn	2, 0x0000
    44dbb768:	10c360cf          	fnmadd.s	f1,f6,f12,f2,unknown
    44dbb76c:	0000                	.insn	2, 0x0000
    44dbb76e:	0000                	.insn	2, 0x0000
    44dbb770:	10c364cf          	fnmadd.s	f9,f6,f12,f2,unknown
    44dbb774:	0000                	.insn	2, 0x0000
    44dbb776:	0000                	.insn	2, 0x0000
    44dbb778:	10c368cf          	fnmadd.s	f17,f6,f12,f2,unknown
    44dbb77c:	0000                	.insn	2, 0x0000
    44dbb77e:	0000                	.insn	2, 0x0000
    44dbb780:	10c36ccf          	fnmadd.s	f25,f6,f12,f2,unknown
    44dbb784:	0000                	.insn	2, 0x0000
    44dbb786:	0000                	.insn	2, 0x0000
    44dbb788:	10c370cf          	fnmadd.s	f1,f6,f12,f2
    44dbb78c:	0000                	.insn	2, 0x0000
    44dbb78e:	0000                	.insn	2, 0x0000
    44dbb790:	10c374cf          	fnmadd.s	f9,f6,f12,f2
    44dbb794:	0000                	.insn	2, 0x0000
    44dbb796:	0000                	.insn	2, 0x0000
    44dbb798:	10c378cf          	fnmadd.s	f17,f6,f12,f2
    44dbb79c:	0000                	.insn	2, 0x0000
    44dbb79e:	0000                	.insn	2, 0x0000
    44dbb7a0:	10c37ccf          	fnmadd.s	f25,f6,f12,f2
    44dbb7a4:	0000                	.insn	2, 0x0000
    44dbb7a6:	0000                	.insn	2, 0x0000
    44dbb7a8:	10c380cf          	fnmadd.s	f1,f7,f12,f2,rne
    44dbb7ac:	0000                	.insn	2, 0x0000
    44dbb7ae:	0000                	.insn	2, 0x0000
    44dbb7b0:	10c384cf          	fnmadd.s	f9,f7,f12,f2,rne
    44dbb7b4:	0000                	.insn	2, 0x0000
    44dbb7b6:	0000                	.insn	2, 0x0000
    44dbb7b8:	10c388cf          	fnmadd.s	f17,f7,f12,f2,rne
    44dbb7bc:	0000                	.insn	2, 0x0000
    44dbb7be:	0000                	.insn	2, 0x0000
    44dbb7c0:	10c38ccf          	fnmadd.s	f25,f7,f12,f2,rne
    44dbb7c4:	0000                	.insn	2, 0x0000
    44dbb7c6:	0000                	.insn	2, 0x0000
    44dbb7c8:	10c390cf          	fnmadd.s	f1,f7,f12,f2,rtz
    44dbb7cc:	0000                	.insn	2, 0x0000
    44dbb7ce:	0000                	.insn	2, 0x0000
    44dbb7d0:	10c394cf          	fnmadd.s	f9,f7,f12,f2,rtz
    44dbb7d4:	0000                	.insn	2, 0x0000
    44dbb7d6:	0000                	.insn	2, 0x0000
    44dbb7d8:	10c398cf          	fnmadd.s	f17,f7,f12,f2,rtz
    44dbb7dc:	0000                	.insn	2, 0x0000
    44dbb7de:	0000                	.insn	2, 0x0000
    44dbb7e0:	10c39ccf          	fnmadd.s	f25,f7,f12,f2,rtz
    44dbb7e4:	0000                	.insn	2, 0x0000
    44dbb7e6:	0000                	.insn	2, 0x0000
    44dbb7e8:	10c3a0cf          	fnmadd.s	f1,f7,f12,f2,rdn
    44dbb7ec:	0000                	.insn	2, 0x0000
    44dbb7ee:	0000                	.insn	2, 0x0000
    44dbb7f0:	10c3a4cf          	fnmadd.s	f9,f7,f12,f2,rdn
    44dbb7f4:	0000                	.insn	2, 0x0000
    44dbb7f6:	0000                	.insn	2, 0x0000
    44dbb7f8:	10c3a8cf          	fnmadd.s	f17,f7,f12,f2,rdn
    44dbb7fc:	0000                	.insn	2, 0x0000
    44dbb7fe:	0000                	.insn	2, 0x0000
    44dbb800:	10c3accf          	fnmadd.s	f25,f7,f12,f2,rdn
    44dbb804:	0000                	.insn	2, 0x0000
    44dbb806:	0000                	.insn	2, 0x0000
    44dbb808:	10c3b0cf          	fnmadd.s	f1,f7,f12,f2,rup
    44dbb80c:	0000                	.insn	2, 0x0000
    44dbb80e:	0000                	.insn	2, 0x0000
    44dbb810:	10c3b4cf          	fnmadd.s	f9,f7,f12,f2,rup
    44dbb814:	0000                	.insn	2, 0x0000
    44dbb816:	0000                	.insn	2, 0x0000
    44dbb818:	10c3b8cf          	fnmadd.s	f17,f7,f12,f2,rup
    44dbb81c:	0000                	.insn	2, 0x0000
    44dbb81e:	0000                	.insn	2, 0x0000
    44dbb820:	10c3bccf          	fnmadd.s	f25,f7,f12,f2,rup
    44dbb824:	0000                	.insn	2, 0x0000
    44dbb826:	0000                	.insn	2, 0x0000
    44dbb828:	10c3c0cf          	fnmadd.s	f1,f7,f12,f2,rmm
    44dbb82c:	0000                	.insn	2, 0x0000
    44dbb82e:	0000                	.insn	2, 0x0000
    44dbb830:	10c3c4cf          	fnmadd.s	f9,f7,f12,f2,rmm
    44dbb834:	0000                	.insn	2, 0x0000
    44dbb836:	0000                	.insn	2, 0x0000
    44dbb838:	10c3c8cf          	fnmadd.s	f17,f7,f12,f2,rmm
    44dbb83c:	0000                	.insn	2, 0x0000
    44dbb83e:	0000                	.insn	2, 0x0000
    44dbb840:	10c3cccf          	fnmadd.s	f25,f7,f12,f2,rmm
    44dbb844:	0000                	.insn	2, 0x0000
    44dbb846:	0000                	.insn	2, 0x0000
    44dbb848:	10c3d0cf          	fnmadd.s	f1,f7,f12,f2,unknown
    44dbb84c:	0000                	.insn	2, 0x0000
    44dbb84e:	0000                	.insn	2, 0x0000
    44dbb850:	10c3d4cf          	fnmadd.s	f9,f7,f12,f2,unknown
    44dbb854:	0000                	.insn	2, 0x0000
    44dbb856:	0000                	.insn	2, 0x0000
    44dbb858:	10c3d8cf          	fnmadd.s	f17,f7,f12,f2,unknown
    44dbb85c:	0000                	.insn	2, 0x0000
    44dbb85e:	0000                	.insn	2, 0x0000
    44dbb860:	10c3dccf          	fnmadd.s	f25,f7,f12,f2,unknown
    44dbb864:	0000                	.insn	2, 0x0000
    44dbb866:	0000                	.insn	2, 0x0000
    44dbb868:	10c3e0cf          	fnmadd.s	f1,f7,f12,f2,unknown
    44dbb86c:	0000                	.insn	2, 0x0000
    44dbb86e:	0000                	.insn	2, 0x0000
    44dbb870:	10c3e4cf          	fnmadd.s	f9,f7,f12,f2,unknown
    44dbb874:	0000                	.insn	2, 0x0000
    44dbb876:	0000                	.insn	2, 0x0000
    44dbb878:	10c3e8cf          	fnmadd.s	f17,f7,f12,f2,unknown
    44dbb87c:	0000                	.insn	2, 0x0000
    44dbb87e:	0000                	.insn	2, 0x0000
    44dbb880:	10c3eccf          	fnmadd.s	f25,f7,f12,f2,unknown
    44dbb884:	0000                	.insn	2, 0x0000
    44dbb886:	0000                	.insn	2, 0x0000
    44dbb888:	10c3f0cf          	fnmadd.s	f1,f7,f12,f2
    44dbb88c:	0000                	.insn	2, 0x0000
    44dbb88e:	0000                	.insn	2, 0x0000
    44dbb890:	10c3f4cf          	fnmadd.s	f9,f7,f12,f2
    44dbb894:	0000                	.insn	2, 0x0000
    44dbb896:	0000                	.insn	2, 0x0000
    44dbb898:	10c3f8cf          	fnmadd.s	f17,f7,f12,f2
    44dbb89c:	0000                	.insn	2, 0x0000
    44dbb89e:	0000                	.insn	2, 0x0000
    44dbb8a0:	10c3fccf          	fnmadd.s	f25,f7,f12,f2
    44dbb8a4:	0000                	.insn	2, 0x0000
    44dbb8a6:	0000                	.insn	2, 0x0000
    44dbb8a8:	00df 10c4 0000      	.insn	6, 0x10c400df
    44dbb8ae:	0000                	.insn	2, 0x0000
    44dbb8b0:	04df 10c4 0000      	.insn	6, 0x10c404df
    44dbb8b6:	0000                	.insn	2, 0x0000
    44dbb8b8:	08df 10c4 0000      	.insn	6, 0x10c408df
    44dbb8be:	0000                	.insn	2, 0x0000
    44dbb8c0:	0cdf 10c4 0000      	.insn	6, 0x10c40cdf
    44dbb8c6:	0000                	.insn	2, 0x0000
    44dbb8c8:	10df 10c4 0000      	.insn	6, 0x10c410df
    44dbb8ce:	0000                	.insn	2, 0x0000
    44dbb8d0:	14df 10c4 0000      	.insn	6, 0x10c414df
    44dbb8d6:	0000                	.insn	2, 0x0000
    44dbb8d8:	18df 10c4 0000      	.insn	6, 0x10c418df
    44dbb8de:	0000                	.insn	2, 0x0000
    44dbb8e0:	1cdf 10c4 0000      	.insn	6, 0x10c41cdf
    44dbb8e6:	0000                	.insn	2, 0x0000
    44dbb8e8:	20df 10c4 0000      	.insn	6, 0x10c420df
    44dbb8ee:	0000                	.insn	2, 0x0000
    44dbb8f0:	24df 10c4 0000      	.insn	6, 0x10c424df
    44dbb8f6:	0000                	.insn	2, 0x0000
    44dbb8f8:	28df 10c4 0000      	.insn	6, 0x10c428df
    44dbb8fe:	0000                	.insn	2, 0x0000
    44dbb900:	2cdf 10c4 0000      	.insn	6, 0x10c42cdf
    44dbb906:	0000                	.insn	2, 0x0000
    44dbb908:	30df 10c4 0000      	.insn	6, 0x10c430df
    44dbb90e:	0000                	.insn	2, 0x0000
    44dbb910:	34df 10c4 0000      	.insn	6, 0x10c434df
    44dbb916:	0000                	.insn	2, 0x0000
    44dbb918:	38df 10c4 0000      	.insn	6, 0x10c438df
    44dbb91e:	0000                	.insn	2, 0x0000
    44dbb920:	3cdf 10c4 0000      	.insn	6, 0x10c43cdf
    44dbb926:	0000                	.insn	2, 0x0000
    44dbb928:	40df 10c4 0000      	.insn	6, 0x10c440df
    44dbb92e:	0000                	.insn	2, 0x0000
    44dbb930:	44df 10c4 0000      	.insn	6, 0x10c444df
    44dbb936:	0000                	.insn	2, 0x0000
    44dbb938:	48df 10c4 0000      	.insn	6, 0x10c448df
    44dbb93e:	0000                	.insn	2, 0x0000
    44dbb940:	4cdf 10c4 0000      	.insn	6, 0x10c44cdf
    44dbb946:	0000                	.insn	2, 0x0000
    44dbb948:	50df 10c4 0000      	.insn	6, 0x10c450df
    44dbb94e:	0000                	.insn	2, 0x0000
    44dbb950:	54df 10c4 0000      	.insn	6, 0x10c454df
    44dbb956:	0000                	.insn	2, 0x0000
    44dbb958:	58df 10c4 0000      	.insn	6, 0x10c458df
    44dbb95e:	0000                	.insn	2, 0x0000
    44dbb960:	5cdf 10c4 0000      	.insn	6, 0x10c45cdf
    44dbb966:	0000                	.insn	2, 0x0000
    44dbb968:	60df 10c4 0000      	.insn	6, 0x10c460df
    44dbb96e:	0000                	.insn	2, 0x0000
    44dbb970:	64df 10c4 0000      	.insn	6, 0x10c464df
    44dbb976:	0000                	.insn	2, 0x0000
    44dbb978:	68df 10c4 0000      	.insn	6, 0x10c468df
    44dbb97e:	0000                	.insn	2, 0x0000
    44dbb980:	6cdf 10c4 0000      	.insn	6, 0x10c46cdf
    44dbb986:	0000                	.insn	2, 0x0000
    44dbb988:	70df 10c4 0000      	.insn	6, 0x10c470df
    44dbb98e:	0000                	.insn	2, 0x0000
    44dbb990:	74df 10c4 0000      	.insn	6, 0x10c474df
    44dbb996:	0000                	.insn	2, 0x0000
    44dbb998:	78df 10c4 0000      	.insn	6, 0x10c478df
    44dbb99e:	0000                	.insn	2, 0x0000
    44dbb9a0:	7cdf 10c4 0000      	.insn	6, 0x10c47cdf
    44dbb9a6:	0000                	.insn	2, 0x0000
    44dbb9a8:	80df 10c4 0000      	.insn	6, 0x10c480df
    44dbb9ae:	0000                	.insn	2, 0x0000
    44dbb9b0:	84df 10c4 0000      	.insn	6, 0x10c484df
    44dbb9b6:	0000                	.insn	2, 0x0000
    44dbb9b8:	88df 10c4 0000      	.insn	6, 0x10c488df
    44dbb9be:	0000                	.insn	2, 0x0000
    44dbb9c0:	8cdf 10c4 0000      	.insn	6, 0x10c48cdf
    44dbb9c6:	0000                	.insn	2, 0x0000
    44dbb9c8:	90df 10c4 0000      	.insn	6, 0x10c490df
    44dbb9ce:	0000                	.insn	2, 0x0000
    44dbb9d0:	94df 10c4 0000      	.insn	6, 0x10c494df
    44dbb9d6:	0000                	.insn	2, 0x0000
    44dbb9d8:	98df 10c4 0000      	.insn	6, 0x10c498df
    44dbb9de:	0000                	.insn	2, 0x0000
    44dbb9e0:	9cdf 10c4 0000      	.insn	6, 0x10c49cdf
    44dbb9e6:	0000                	.insn	2, 0x0000
    44dbb9e8:	a0df 10c4 0000      	.insn	6, 0x10c4a0df
    44dbb9ee:	0000                	.insn	2, 0x0000
    44dbb9f0:	a4df 10c4 0000      	.insn	6, 0x10c4a4df
    44dbb9f6:	0000                	.insn	2, 0x0000
    44dbb9f8:	a8df 10c4 0000      	.insn	6, 0x10c4a8df
    44dbb9fe:	0000                	.insn	2, 0x0000
    44dbba00:	acdf 10c4 0000      	.insn	6, 0x10c4acdf
    44dbba06:	0000                	.insn	2, 0x0000
    44dbba08:	b0df 10c4 0000      	.insn	6, 0x10c4b0df
    44dbba0e:	0000                	.insn	2, 0x0000
    44dbba10:	b4df 10c4 0000      	.insn	6, 0x10c4b4df
    44dbba16:	0000                	.insn	2, 0x0000
    44dbba18:	b8df 10c4 0000      	.insn	6, 0x10c4b8df
    44dbba1e:	0000                	.insn	2, 0x0000
    44dbba20:	bcdf 10c4 0000      	.insn	6, 0x10c4bcdf
    44dbba26:	0000                	.insn	2, 0x0000
    44dbba28:	c0df 10c4 0000      	.insn	6, 0x10c4c0df
    44dbba2e:	0000                	.insn	2, 0x0000
    44dbba30:	c4df 10c4 0000      	.insn	6, 0x10c4c4df
    44dbba36:	0000                	.insn	2, 0x0000
    44dbba38:	c8df 10c4 0000      	.insn	6, 0x10c4c8df
    44dbba3e:	0000                	.insn	2, 0x0000
    44dbba40:	ccdf 10c4 0000      	.insn	6, 0x10c4ccdf
    44dbba46:	0000                	.insn	2, 0x0000
    44dbba48:	d0df 10c4 0000      	.insn	6, 0x10c4d0df
    44dbba4e:	0000                	.insn	2, 0x0000
    44dbba50:	d4df 10c4 0000      	.insn	6, 0x10c4d4df
    44dbba56:	0000                	.insn	2, 0x0000
    44dbba58:	d8df 10c4 0000      	.insn	6, 0x10c4d8df
    44dbba5e:	0000                	.insn	2, 0x0000
    44dbba60:	dcdf 10c4 0000      	.insn	6, 0x10c4dcdf
    44dbba66:	0000                	.insn	2, 0x0000
    44dbba68:	e0df 10c4 0000      	.insn	6, 0x10c4e0df
    44dbba6e:	0000                	.insn	2, 0x0000
    44dbba70:	e4df 10c4 0000      	.insn	6, 0x10c4e4df
    44dbba76:	0000                	.insn	2, 0x0000
    44dbba78:	e8df 10c4 0000      	.insn	6, 0x10c4e8df
    44dbba7e:	0000                	.insn	2, 0x0000
    44dbba80:	ecdf 10c4 0000      	.insn	6, 0x10c4ecdf
    44dbba86:	0000                	.insn	2, 0x0000
    44dbba88:	f0df 10c4 0000      	.insn	6, 0x10c4f0df
    44dbba8e:	0000                	.insn	2, 0x0000
    44dbba90:	f4df 10c4 0000      	.insn	6, 0x10c4f4df
    44dbba96:	0000                	.insn	2, 0x0000
    44dbba98:	f8df 10c4 0000      	.insn	6, 0x10c4f8df
    44dbba9e:	0000                	.insn	2, 0x0000
    44dbbaa0:	fcdf 10c4 0000      	.insn	6, 0x10c4fcdf
    44dbbaa6:	0000                	.insn	2, 0x0000
    44dbbaa8:	00df 10c5 0000      	.insn	6, 0x10c500df
    44dbbaae:	0000                	.insn	2, 0x0000
    44dbbab0:	04df 10c5 0000      	.insn	6, 0x10c504df
    44dbbab6:	0000                	.insn	2, 0x0000
    44dbbab8:	08df 10c5 0000      	.insn	6, 0x10c508df
    44dbbabe:	0000                	.insn	2, 0x0000
    44dbbac0:	0cdf 10c5 0000      	.insn	6, 0x10c50cdf
    44dbbac6:	0000                	.insn	2, 0x0000
    44dbbac8:	10df 10c5 0000      	.insn	6, 0x10c510df
    44dbbace:	0000                	.insn	2, 0x0000
    44dbbad0:	14df 10c5 0000      	.insn	6, 0x10c514df
    44dbbad6:	0000                	.insn	2, 0x0000
    44dbbad8:	18df 10c5 0000      	.insn	6, 0x10c518df
    44dbbade:	0000                	.insn	2, 0x0000
    44dbbae0:	1cdf 10c5 0000      	.insn	6, 0x10c51cdf
    44dbbae6:	0000                	.insn	2, 0x0000
    44dbbae8:	20df 10c5 0000      	.insn	6, 0x10c520df
    44dbbaee:	0000                	.insn	2, 0x0000
    44dbbaf0:	24df 10c5 0000      	.insn	6, 0x10c524df
    44dbbaf6:	0000                	.insn	2, 0x0000
    44dbbaf8:	28df 10c5 0000      	.insn	6, 0x10c528df
    44dbbafe:	0000                	.insn	2, 0x0000
    44dbbb00:	2cdf 10c5 0000      	.insn	6, 0x10c52cdf
    44dbbb06:	0000                	.insn	2, 0x0000
    44dbbb08:	30df 10c5 0000      	.insn	6, 0x10c530df
    44dbbb0e:	0000                	.insn	2, 0x0000
    44dbbb10:	34df 10c5 0000      	.insn	6, 0x10c534df
    44dbbb16:	0000                	.insn	2, 0x0000
    44dbbb18:	38df 10c5 0000      	.insn	6, 0x10c538df
    44dbbb1e:	0000                	.insn	2, 0x0000
    44dbbb20:	3cdf 10c5 0000      	.insn	6, 0x10c53cdf
    44dbbb26:	0000                	.insn	2, 0x0000
    44dbbb28:	40df 10c5 0000      	.insn	6, 0x10c540df
    44dbbb2e:	0000                	.insn	2, 0x0000
    44dbbb30:	44df 10c5 0000      	.insn	6, 0x10c544df
    44dbbb36:	0000                	.insn	2, 0x0000
    44dbbb38:	48df 10c5 0000      	.insn	6, 0x10c548df
    44dbbb3e:	0000                	.insn	2, 0x0000
    44dbbb40:	4cdf 10c5 0000      	.insn	6, 0x10c54cdf
    44dbbb46:	0000                	.insn	2, 0x0000
    44dbbb48:	50df 10c5 0000      	.insn	6, 0x10c550df
    44dbbb4e:	0000                	.insn	2, 0x0000
    44dbbb50:	54df 10c5 0000      	.insn	6, 0x10c554df
    44dbbb56:	0000                	.insn	2, 0x0000
    44dbbb58:	58df 10c5 0000      	.insn	6, 0x10c558df
    44dbbb5e:	0000                	.insn	2, 0x0000
    44dbbb60:	5cdf 10c5 0000      	.insn	6, 0x10c55cdf
    44dbbb66:	0000                	.insn	2, 0x0000
    44dbbb68:	60df 10c5 0000      	.insn	6, 0x10c560df
    44dbbb6e:	0000                	.insn	2, 0x0000
    44dbbb70:	64df 10c5 0000      	.insn	6, 0x10c564df
    44dbbb76:	0000                	.insn	2, 0x0000
    44dbbb78:	68df 10c5 0000      	.insn	6, 0x10c568df
    44dbbb7e:	0000                	.insn	2, 0x0000
    44dbbb80:	6cdf 10c5 0000      	.insn	6, 0x10c56cdf
    44dbbb86:	0000                	.insn	2, 0x0000
    44dbbb88:	70df 10c5 0000      	.insn	6, 0x10c570df
    44dbbb8e:	0000                	.insn	2, 0x0000
    44dbbb90:	74df 10c5 0000      	.insn	6, 0x10c574df
    44dbbb96:	0000                	.insn	2, 0x0000
    44dbbb98:	78df 10c5 0000      	.insn	6, 0x10c578df
    44dbbb9e:	0000                	.insn	2, 0x0000
    44dbbba0:	7cdf 10c5 0000      	.insn	6, 0x10c57cdf
    44dbbba6:	0000                	.insn	2, 0x0000
    44dbbba8:	80df 10c5 0000      	.insn	6, 0x10c580df
    44dbbbae:	0000                	.insn	2, 0x0000
    44dbbbb0:	84df 10c5 0000      	.insn	6, 0x10c584df
    44dbbbb6:	0000                	.insn	2, 0x0000
    44dbbbb8:	88df 10c5 0000      	.insn	6, 0x10c588df
    44dbbbbe:	0000                	.insn	2, 0x0000
    44dbbbc0:	8cdf 10c5 0000      	.insn	6, 0x10c58cdf
    44dbbbc6:	0000                	.insn	2, 0x0000
    44dbbbc8:	90df 10c5 0000      	.insn	6, 0x10c590df
    44dbbbce:	0000                	.insn	2, 0x0000
    44dbbbd0:	94df 10c5 0000      	.insn	6, 0x10c594df
    44dbbbd6:	0000                	.insn	2, 0x0000
    44dbbbd8:	98df 10c5 0000      	.insn	6, 0x10c598df
    44dbbbde:	0000                	.insn	2, 0x0000
    44dbbbe0:	9cdf 10c5 0000      	.insn	6, 0x10c59cdf
    44dbbbe6:	0000                	.insn	2, 0x0000
    44dbbbe8:	a0df 10c5 0000      	.insn	6, 0x10c5a0df
    44dbbbee:	0000                	.insn	2, 0x0000
    44dbbbf0:	a4df 10c5 0000      	.insn	6, 0x10c5a4df
    44dbbbf6:	0000                	.insn	2, 0x0000
    44dbbbf8:	a8df 10c5 0000      	.insn	6, 0x10c5a8df
    44dbbbfe:	0000                	.insn	2, 0x0000
    44dbbc00:	acdf 10c5 0000      	.insn	6, 0x10c5acdf
    44dbbc06:	0000                	.insn	2, 0x0000
    44dbbc08:	b0df 10c5 0000      	.insn	6, 0x10c5b0df
    44dbbc0e:	0000                	.insn	2, 0x0000
    44dbbc10:	b4df 10c5 0000      	.insn	6, 0x10c5b4df
    44dbbc16:	0000                	.insn	2, 0x0000
    44dbbc18:	b8df 10c5 0000      	.insn	6, 0x10c5b8df
    44dbbc1e:	0000                	.insn	2, 0x0000
    44dbbc20:	bcdf 10c5 0000      	.insn	6, 0x10c5bcdf
    44dbbc26:	0000                	.insn	2, 0x0000
    44dbbc28:	c0df 10c5 0000      	.insn	6, 0x10c5c0df
    44dbbc2e:	0000                	.insn	2, 0x0000
    44dbbc30:	c4df 10c5 0000      	.insn	6, 0x10c5c4df
    44dbbc36:	0000                	.insn	2, 0x0000
    44dbbc38:	c8df 10c5 0000      	.insn	6, 0x10c5c8df
    44dbbc3e:	0000                	.insn	2, 0x0000
    44dbbc40:	ccdf 10c5 0000      	.insn	6, 0x10c5ccdf
    44dbbc46:	0000                	.insn	2, 0x0000
    44dbbc48:	d0df 10c5 0000      	.insn	6, 0x10c5d0df
    44dbbc4e:	0000                	.insn	2, 0x0000
    44dbbc50:	d4df 10c5 0000      	.insn	6, 0x10c5d4df
    44dbbc56:	0000                	.insn	2, 0x0000
    44dbbc58:	d8df 10c5 0000      	.insn	6, 0x10c5d8df
    44dbbc5e:	0000                	.insn	2, 0x0000
    44dbbc60:	dcdf 10c5 0000      	.insn	6, 0x10c5dcdf
    44dbbc66:	0000                	.insn	2, 0x0000
    44dbbc68:	e0df 10c5 0000      	.insn	6, 0x10c5e0df
    44dbbc6e:	0000                	.insn	2, 0x0000
    44dbbc70:	e4df 10c5 0000      	.insn	6, 0x10c5e4df
    44dbbc76:	0000                	.insn	2, 0x0000
    44dbbc78:	e8df 10c5 0000      	.insn	6, 0x10c5e8df
    44dbbc7e:	0000                	.insn	2, 0x0000
    44dbbc80:	ecdf 10c5 0000      	.insn	6, 0x10c5ecdf
    44dbbc86:	0000                	.insn	2, 0x0000
    44dbbc88:	f0df 10c5 0000      	.insn	6, 0x10c5f0df
    44dbbc8e:	0000                	.insn	2, 0x0000
    44dbbc90:	f4df 10c5 0000      	.insn	6, 0x10c5f4df
    44dbbc96:	0000                	.insn	2, 0x0000
    44dbbc98:	f8df 10c5 0000      	.insn	6, 0x10c5f8df
    44dbbc9e:	0000                	.insn	2, 0x0000
    44dbbca0:	fcdf 10c5 0000      	.insn	6, 0x10c5fcdf
	...

Disassembly of section .__pagetable_map_os_0x0000000043436000:

0000000043436000 <__pagetable_map_os_0x0000000043436000>:
	...
    434360b0:	10c804cf          	fnmadd.s	f9,f16,f12,f2,rne
    434360b4:	0000                	.insn	2, 0x0000
	...

Disassembly of section .__pagetable_map_os_0x0000000042314000:

0000000042314000 <__pagetable_map_os_0x0000000042314000>:
	...
    42314330:	98df 10d1 0000      	.insn	6, 0x10d198df
	...

Disassembly of section .__pagetable_map_os_0x000000004344d000:

000000004344d000 <__pagetable_map_os_0x000000004344d000>:
    4344d000:	5c01                	.insn	2, 0x5c01
    4344d002:	1092                	.insn	2, 0x1092
	...
    4344d020:	1001                	.insn	2, 0x1001
    4344d022:	1135                	.insn	2, 0x1135
	...
    4344d188:	ac01                	.insn	2, 0xac01
    4344d18a:	1084                	.insn	2, 0x1084
	...
    4344d240:	1001                	.insn	2, 0x1001
    4344d242:	10d1                	.insn	2, 0x10d1
    4344d244:	0000                	.insn	2, 0x0000
	...

Disassembly of section .__pagetable_map_os_0x0000000042497000:

0000000042497000 <__pagetable_map_os_0x0000000042497000>:
	...
    42497060:	10ffb0d7          	.insn	4, 0x10ffb0d7
	...
    424970d0:	08df 1135 0000      	.insn	6, 0x113508df
    424970d6:	0000                	.insn	2, 0x0000
    424970d8:	0cdf 1135 0000      	.insn	6, 0x11350cdf
	...

Disassembly of section .__pagetable_map_os_0x000000004212b000:

000000004212b000 <__pagetable_map_os_0x000000004212b000>:
	...
    4212ba58:	fcdf 1137 0000      	.insn	6, 0x1137fcdf
	...

Disassembly of section .__pagetable_map_os_0x0000000043444000:

0000000043444000 <__pagetable_map_os_0x0000000043444000>:
	...
    43444ff0:	10d0b4d7          	.insn	4, 0x10d0b4d7
    43444ff4:	0000                	.insn	2, 0x0000
	...

Disassembly of section .__pagetable_map_os_0x0000000044d44000:

0000000044d44000 <__pagetable_map_os_0x0000000044d44000>:
	...
    44d44828:	1135ccd7          	vminu.vx	v25,v19,x11,v0.t
    44d4482c:	0000                	.insn	2, 0x0000
	...

Disassembly of section .__pagetable_map_os_0x0000000042643000:

0000000042643000 <__pagetable_map_os_0x0000000042643000>:
	...
    42643ef0:	6401                	.insn	2, 0x6401
    42643ef2:	00001097          	auipc	x1,0x1
	...

Disassembly of section .__pagetable_map_os_0x00000000425d9000:

00000000425d9000 <__pagetable_map_os_0x00000000425d9000>:
	...
    425d9670:	1135d8d7          	vfmin.vf	v17,v19,f11,v0.t
    425d9674:	0000                	.insn	2, 0x0000
	...

Disassembly of section .__pagetable_map_os_0x00000000433f8000:

00000000433f8000 <__pagetable_map_os_0x00000000433f8000>:
	...
    433f8e00:	dc01                	.insn	2, 0xdc01
    433f8e02:	00001137          	lui	x2,0x1
	...
    433f8fd6:	0000                	.insn	2, 0x0000
    433f8fd8:	d001                	.insn	2, 0xd001
    433f8fda:	1135                	.insn	2, 0x1135
    433f8fdc:	0000                	.insn	2, 0x0000
	...

Disassembly of section .__pagetable_map_os_0x0000000044df7000:

0000000044df7000 <__pagetable_map_os_0x0000000044df7000>:
	...
    44df7400:	dc01                	.insn	2, 0xdc01
    44df7402:	1135                	.insn	2, 0x1135
    44df7404:	0000                	.insn	2, 0x0000
	...

Disassembly of section .__pagetable_map_os_0x0000000044d77000:

0000000044d77000 <__pagetable_map_os_0x0000000044d77000>:
	...
    44d77c10:	e8df 1083 0000      	.insn	6, 0x1083e8df
    44d77c16:	0000                	.insn	2, 0x0000
    44d77c18:	ecdf 1083 0000      	.insn	6, 0x1083ecdf
	...

Disassembly of section .__pagetable_map_os_0x0000000044d74000:

0000000044d74000 <__pagetable_map_os_0x0000000044d74000>:
	...
    44d74cd0:	b401                	.insn	2, 0xb401
    44d74cd2:	1136                	.insn	2, 0x1136
    44d74cd4:	0000                	.insn	2, 0x0000
	...

Disassembly of section .__pagetable_map_os_0x0000000044dad000:

0000000044dad000 <__pagetable_map_os_0x0000000044dad000>:
	...
    44dad0f8:	10df 109c 0000      	.insn	6, 0x109c10df
	...

Disassembly of section .__pagetable_map_os_0x0000000044dbc000:

0000000044dbc000 <__pagetable_map_os_0x0000000044dbc000>:
	...
    44dbc298:	c001                	.insn	2, 0xc001
    44dbc29a:	1098                	.insn	2, 0x1098
    44dbc29c:	0000                	.insn	2, 0x0000
	...

Disassembly of section .__pagetable_map_os_0x0000000042630000:

0000000042630000 <__pagetable_map_os_0x0000000042630000>:
	...
    42630bf8:	0001                	.insn	2, 0x0001
    42630bfa:	10d0                	.insn	2, 0x10d0
    42630bfc:	0000                	.insn	2, 0x0000
	...

Disassembly of section .__pagetable_map_os_0x0000000043400000:

0000000043400000 <__pagetable_map_os_0x0000000043400000>:
	...
    43400ad0:	10d1a8d7          	vredminu.vs	v17,v13,v3,v0.t
    43400ad4:	0000                	.insn	2, 0x0000
	...

Disassembly of section .__pagetable_map_os_0x0000000042277000:

0000000042277000 <__pagetable_map_os_0x0000000042277000>:
	...
    42277820:	f401                	.insn	2, 0xf401
    42277822:	00001137          	lui	x2,0x1
	...

Disassembly of section .__pagetable_map_os_0x0000000044dfd000:

0000000044dfd000 <__pagetable_map_os_0x0000000044dfd000>:
	...
    44dfdea8:	6801                	.insn	2, 0x6801
    44dfdeaa:	108e                	.insn	2, 0x108e
    44dfdeac:	0000                	.insn	2, 0x0000
	...

Disassembly of section .__pagetable_map_os_0x000000004239a000:

000000004239a000 <__pagetable_map_os_0x000000004239a000>:
	...
    4239abf8:	11376cd7          	.insn	4, 0x11376cd7
    4239abfc:	0000                	.insn	2, 0x0000
	...
