
/home/abdullah/RiescueC/riescue/10x_R/paging/testsuite/paging/user_sv39/tp_paging_2:     file format elf64-littleriscv


Disassembly of section .runtime:

0000000041000000 <_start>:
    41000000:	00000093          	li	x1,0
    41000004:	00000113          	li	x2,0
    41000008:	00000193          	li	x3,0
    4100000c:	00000213          	li	x4,0
    41000010:	00000293          	li	x5,0
    41000014:	00000313          	li	x6,0
    41000018:	00000393          	li	x7,0
    4100001c:	00000413          	li	x8,0
    41000020:	00000493          	li	x9,0
    41000024:	00000513          	li	x10,0
    41000028:	00000593          	li	x11,0
    4100002c:	00000613          	li	x12,0
    41000030:	00000693          	li	x13,0
    41000034:	00000713          	li	x14,0
    41000038:	00000793          	li	x15,0
    4100003c:	00000813          	li	x16,0
    41000040:	00000893          	li	x17,0
    41000044:	00000913          	li	x18,0
    41000048:	00000993          	li	x19,0
    4100004c:	00000a13          	li	x20,0
    41000050:	00000a93          	li	x21,0
    41000054:	00000b13          	li	x22,0
    41000058:	00000b93          	li	x23,0
    4100005c:	00000c13          	li	x24,0
    41000060:	00000c93          	li	x25,0
    41000064:	00000d13          	li	x26,0
    41000068:	00000d93          	li	x27,0
    4100006c:	00000e13          	li	x28,0
    41000070:	00000e93          	li	x29,0
    41000074:	00000f13          	li	x30,0
    41000078:	00000f93          	li	x31,0

000000004100007c <loader__load_panic_address>:
    4100007c:	00001297          	auipc	x5,0x1
    41000080:	9e828293          	addi	x5,x5,-1560 # 41000a64 <eot__failed>
    41000084:	30529073          	csrw	mtvec,x5

0000000041000088 <loader__initialize_runtime>:
    41000088:	00000293          	li	x5,0
    4100008c:	3012a2f3          	csrrs	x5,misa,x5

0000000041000090 <loader__set_mstatus>:
    41000090:	000402b7          	lui	x5,0x40
    41000094:	00a2829b          	addiw	x5,x5,10 # 4000a <pma_region_0_size+0xa>
    41000098:	3002a2f3          	csrrs	x5,mstatus,x5
    4100009c:	44b76237          	lui	x4,0x44b76
    410000a0:	34021073          	csrw	mscratch,x4

00000000410000a4 <loader__setup_menvcfg>:
    410000a4:	00000297          	auipc	x5,0x0
    410000a8:	4a828293          	addi	x5,x5,1192 # 4100054c <trap_handler_m__trap_entry>
    410000ac:	30529073          	csrw	mtvec,x5

00000000410000b0 <loader__enable_paging>:
    410000b0:	fffc00b7          	lui	x1,0xfffc0
    410000b4:	0a90809b          	addiw	x1,x1,169 # fffffffffffc00a9 <mem8+0x154bdc00a9>
    410000b8:	01f09093          	slli	x1,x1,0x1f
    410000bc:	01108093          	addi	x1,x1,17
    410000c0:	00e09093          	slli	x1,x1,0xe
    410000c4:	81e08093          	addi	x1,x1,-2018
    410000c8:	18009073          	csrw	satp,x1

00000000410000cc <loader__done>:
    410000cc:	1c10006f          	j	41000a8c <scheduler__init>

00000000410000d0 <loader__panic>:
    410000d0:	1950006f          	j	41000a64 <eot__failed>

00000000410000d4 <syscalls__syscall_check_schedule_next_test>:
    410000d4:	00f0029b          	addiw	x5,x0,15
    410000d8:	01c29293          	slli	x5,x5,0x1c
    410000dc:	00128293          	addi	x5,x5,1
    410000e0:	01f29a63          	bne	x5,x31,410000f4 <syscalls__syscall_check_fail_test>
    410000e4:	00000317          	auipc	x6,0x0
    410000e8:	46830313          	addi	x6,x6,1128 # 4100054c <trap_handler_m__trap_entry>
    410000ec:	30531073          	csrw	mtvec,x6
    410000f0:	6a00006f          	j	41000790 <enter_scheduler>

00000000410000f4 <syscalls__syscall_check_fail_test>:
    410000f4:	00f0029b          	addiw	x5,x0,15
    410000f8:	01c29293          	slli	x5,x5,0x1c
    410000fc:	00228293          	addi	x5,x5,2
    41000100:	01f29a63          	bne	x5,x31,41000114 <syscalls__syscall_check_end_test_without_failure>
    41000104:	00000317          	auipc	x6,0x0
    41000108:	44830313          	addi	x6,x6,1096 # 4100054c <trap_handler_m__trap_entry>
    4100010c:	30531073          	csrw	mtvec,x6
    41000110:	6b00006f          	j	410007c0 <test_failed>

0000000041000114 <syscalls__syscall_check_end_test_without_failure>:
    41000114:	00f0029b          	addiw	x5,x0,15
    41000118:	01c29293          	slli	x5,x5,0x1c
    4100011c:	00328293          	addi	x5,x5,3
    41000120:	01f29a63          	bne	x5,x31,41000134 <syscalls__syscall_check_switch_machine_mode>
    41000124:	00000317          	auipc	x6,0x0
    41000128:	42830313          	addi	x6,x6,1064 # 4100054c <trap_handler_m__trap_entry>
    4100012c:	30531073          	csrw	mtvec,x6
    41000130:	69c0006f          	j	410007cc <os_end_test>

0000000041000134 <syscalls__syscall_check_switch_machine_mode>:
    41000134:	000f02b7          	lui	x5,0xf0
    41000138:	0012829b          	addiw	x5,x5,1 # f0001 <code_mem27+0x10001>
    4100013c:	00c29293          	slli	x5,x5,0xc
    41000140:	00128293          	addi	x5,x5,1
    41000144:	0a5f8463          	beq	x31,x5,410001ec <syscalls__os_fn_f0001001>

0000000041000148 <syscalls__syscall_check_switch_super_mode>:
    41000148:	000f02b7          	lui	x5,0xf0
    4100014c:	0012829b          	addiw	x5,x5,1 # f0001 <code_mem27+0x10001>
    41000150:	00c29293          	slli	x5,x5,0xc
    41000154:	00228293          	addi	x5,x5,2
    41000158:	0c5f8063          	beq	x31,x5,41000218 <syscalls__os_fn_f0001002>

000000004100015c <syscalls__syscall_check_switch_user_mode>:
    4100015c:	000f02b7          	lui	x5,0xf0
    41000160:	0012829b          	addiw	x5,x5,1 # f0001 <code_mem27+0x10001>
    41000164:	00c29293          	slli	x5,x5,0xc
    41000168:	00328293          	addi	x5,x5,3
    4100016c:	0c5f8e63          	beq	x31,x5,41000248 <syscalls__os_fn_f0001003>

0000000041000170 <syscalls__syscall_check_switch_test_mode>:
    41000170:	000f02b7          	lui	x5,0xf0
    41000174:	0012829b          	addiw	x5,x5,1 # f0001 <code_mem27+0x10001>
    41000178:	00c29293          	slli	x5,x5,0xc
    4100017c:	00428293          	addi	x5,x5,4
    41000180:	0c5f8863          	beq	x31,x5,41000250 <syscalls__os_fn_f0001004>

0000000041000184 <syscalls__syscall_machine_csr_rw>:
    41000184:	000f02b7          	lui	x5,0xf0
    41000188:	0012829b          	addiw	x5,x5,1 # f0001 <code_mem27+0x10001>
    4100018c:	00c29293          	slli	x5,x5,0xc
    41000190:	00528293          	addi	x5,x5,5
    41000194:	0e5f8263          	beq	x31,x5,41000278 <syscalls__os_fn_f0001005>

0000000041000198 <syscalls__syscall_supervisor_csr_rw>:
    41000198:	000f02b7          	lui	x5,0xf0
    4100019c:	0012829b          	addiw	x5,x5,1 # f0001 <code_mem27+0x10001>
    410001a0:	00c29293          	slli	x5,x5,0xc
    410001a4:	00628293          	addi	x5,x5,6
    410001a8:	0e5f8e63          	beq	x31,x5,410002a4 <syscalls__os_fn_f0001006>

00000000410001ac <syscalls__syscall_machine_pte_read>:
    410001ac:	000f02b7          	lui	x5,0xf0
    410001b0:	0012829b          	addiw	x5,x5,1 # f0001 <code_mem27+0x10001>
    410001b4:	00c29293          	slli	x5,x5,0xc
    410001b8:	00728293          	addi	x5,x5,7
    410001bc:	105f8c63          	beq	x31,x5,410002d4 <syscalls__os_fn_f0001007>

00000000410001c0 <syscalls__syscall_machine_pte_write>:
    410001c0:	000f02b7          	lui	x5,0xf0
    410001c4:	0012829b          	addiw	x5,x5,1 # f0001 <code_mem27+0x10001>
    410001c8:	00c29293          	slli	x5,x5,0xc
    410001cc:	00828293          	addi	x5,x5,8
    410001d0:	1e5f8863          	beq	x31,x5,410003c0 <syscalls__os_fn_f0001008>

00000000410001d4 <syscalls__syscall_check_get_hart_context>:
    410001d4:	000782b7          	lui	x5,0x78
    410001d8:	0012829b          	addiw	x5,x5,1 # 78001 <mem0+0x28001>
    410001dc:	00d29293          	slli	x5,x5,0xd
    410001e0:	00128293          	addi	x5,x5,1
    410001e4:	2c5f8463          	beq	x31,x5,410004ac <syscalls__os_get_hart_context>
    410001e8:	4c00006f          	j	410006a8 <trap_handler_m__check_exception_label>

00000000410001ec <syscalls__os_fn_f0001001>:
    410001ec:	000022b7          	lui	x5,0x2
    410001f0:	8002829b          	addiw	x5,x5,-2048 # 1800 <mem21__pt_level0+0x800>
    410001f4:	3002b073          	csrc	mstatus,x5
    410001f8:	000022b7          	lui	x5,0x2
    410001fc:	8002829b          	addiw	x5,x5,-2048 # 1800 <mem21__pt_level0+0x800>
    41000200:	3002a073          	csrs	mstatus,x5
    41000204:	0010029b          	addiw	x5,x0,1
    41000208:	02729293          	slli	x5,x5,0x27
    4100020c:	3002b073          	csrc	mstatus,x5
    41000210:	413092b7          	lui	x5,0x41309
    41000214:	2a80006f          	j	410004bc <syscalls__ret_from_os_fn>

0000000041000218 <syscalls__os_fn_f0001002>:
    41000218:	000022b7          	lui	x5,0x2
    4100021c:	8002829b          	addiw	x5,x5,-2048 # 1800 <mem21__pt_level0+0x800>
    41000220:	3002b073          	csrc	mstatus,x5
    41000224:	000012b7          	lui	x5,0x1
    41000228:	8002829b          	addiw	x5,x5,-2048 # 800 <XLEN+0x7c0>
    4100022c:	3002a073          	csrs	mstatus,x5
    41000230:	0010029b          	addiw	x5,x0,1
    41000234:	02729293          	slli	x5,x5,0x27
    41000238:	3002b073          	csrc	mstatus,x5
    4100023c:	12000073          	sfence.vma
    41000240:	412092b7          	lui	x5,0x41209
    41000244:	2780006f          	j	410004bc <syscalls__ret_from_os_fn>

0000000041000248 <syscalls__os_fn_f0001003>:
    41000248:	412892b7          	lui	x5,0x41289
    4100024c:	2700006f          	j	410004bc <syscalls__ret_from_os_fn>

0000000041000250 <syscalls__os_fn_f0001004>:
    41000250:	000022b7          	lui	x5,0x2
    41000254:	8002829b          	addiw	x5,x5,-2048 # 1800 <mem21__pt_level0+0x800>
    41000258:	3002b073          	csrc	mstatus,x5
    4100025c:	00000293          	li	x5,0
    41000260:	3002a073          	csrs	mstatus,x5
    41000264:	0010029b          	addiw	x5,x0,1
    41000268:	02729293          	slli	x5,x5,0x27
    4100026c:	3002b073          	csrc	mstatus,x5
    41000270:	17823283          	ld	x5,376(x4) # 44b76178 <__section_hart_context+0x178>
    41000274:	2480006f          	j	410004bc <syscalls__ret_from_os_fn>

0000000041000278 <syscalls__os_fn_f0001005>:
    41000278:	000022b7          	lui	x5,0x2
    4100027c:	8002829b          	addiw	x5,x5,-2048 # 1800 <mem21__pt_level0+0x800>
    41000280:	3002b073          	csrc	mstatus,x5
    41000284:	000022b7          	lui	x5,0x2
    41000288:	8002829b          	addiw	x5,x5,-2048 # 1800 <mem21__pt_level0+0x800>
    4100028c:	3002a073          	csrs	mstatus,x5
    41000290:	0010029b          	addiw	x5,x0,1
    41000294:	02729293          	slli	x5,x5,0x27
    41000298:	3002b073          	csrc	mstatus,x5
    4100029c:	413892b7          	lui	x5,0x41389
    410002a0:	21c0006f          	j	410004bc <syscalls__ret_from_os_fn>

00000000410002a4 <syscalls__os_fn_f0001006>:
    410002a4:	000022b7          	lui	x5,0x2
    410002a8:	8002829b          	addiw	x5,x5,-2048 # 1800 <mem21__pt_level0+0x800>
    410002ac:	3002b073          	csrc	mstatus,x5
    410002b0:	000012b7          	lui	x5,0x1
    410002b4:	8002829b          	addiw	x5,x5,-2048 # 800 <XLEN+0x7c0>
    410002b8:	3002a073          	csrs	mstatus,x5
    410002bc:	0010029b          	addiw	x5,x0,1
    410002c0:	02729293          	slli	x5,x5,0x27
    410002c4:	3002b073          	csrc	mstatus,x5
    410002c8:	12000073          	sfence.vma
    410002cc:	4138a2b7          	lui	x5,0x4138a
    410002d0:	1ec0006f          	j	410004bc <syscalls__ret_from_os_fn>

00000000410002d4 <syscalls__os_fn_f0001007>:
    410002d4:	447fefb7          	lui	x31,0x447fe
    410002d8:	0b0f8f9b          	addiw	x31,x31,176 # 447fe0b0 <pte_access_flags_pa>
    410002dc:	000fbf83          	ld	x31,0(x31)
    410002e0:	447fe2b7          	lui	x5,0x447fe
    410002e4:	0b82829b          	addiw	x5,x5,184 # 447fe0b8 <pte_access_flags_pa+0x8>
    410002e8:	0002b283          	ld	x5,0(x5)
    410002ec:	447fee37          	lui	x28,0x447fe
    410002f0:	0c0e0e1b          	addiw	x28,x28,192 # 447fe0c0 <pte_access_flags_pa+0x10>
    410002f4:	000e3e03          	ld	x28,0(x28)

00000000410002f8 <syscalls__pte_walk_check_glevel_without_gstage_read>:
    410002f8:	fff00f93          	li	x31,-1
    410002fc:	0dfe1063          	bne	x28,x31,410003bc <syscalls__pte_walk_fail_read>
    41000300:	18002373          	csrr	x6,satp
    41000304:	03c35e93          	srli	x29,x6,0x3c
    41000308:	01431313          	slli	x6,x6,0x14
    4100030c:	01435313          	srli	x6,x6,0x14
    41000310:	00c31313          	slli	x6,x6,0xc
    41000314:	ff8e8e93          	addi	x29,x29,-8
    41000318:	003e9f13          	slli	x30,x29,0x3
    4100031c:	01df0eb3          	add	x29,x30,x29
    41000320:	01ee8e93          	addi	x29,x29,30
    41000324:	00000f13          	li	x30,0

0000000041000328 <syscalls__pte_walk_loop_read>:
    41000328:	447fefb7          	lui	x31,0x447fe
    4100032c:	0b0f8f9b          	addiw	x31,x31,176 # 447fe0b0 <pte_access_flags_pa>
    41000330:	000fbf83          	ld	x31,0(x31)
    41000334:	01dfdfb3          	srl	x31,x31,x29
    41000338:	1fffff93          	andi	x31,x31,511
    4100033c:	003f9f93          	slli	x31,x31,0x3
    41000340:	01f30333          	add	x6,x6,x31
    41000344:	005f0e63          	beq	x30,x5,41000360 <syscalls__pte_walk_done_read>
    41000348:	00033f83          	ld	x31,0(x6)
    4100034c:	00afdf93          	srli	x31,x31,0xa
    41000350:	00cf9313          	slli	x6,x31,0xc
    41000354:	001f0f13          	addi	x30,x30,1
    41000358:	ff7e8e93          	addi	x29,x29,-9
    4100035c:	fcdff06f          	j	41000328 <syscalls__pte_walk_loop_read>

0000000041000360 <syscalls__pte_walk_done_read>:
    41000360:	fff00f93          	li	x31,-1
    41000364:	05fe0263          	beq	x28,x31,410003a8 <syscalls__pte_walk_final_read>

0000000041000368 <syscalls__pte_walk_gstage_read>:
    41000368:	447fefb7          	lui	x31,0x447fe
    4100036c:	0b0f8f9b          	addiw	x31,x31,176 # 447fe0b0 <pte_access_flags_pa>
    41000370:	006fb023          	sd	x6,0(x31)
    41000374:	000e0293          	mv	x5,x28
    41000378:	fff00e13          	li	x28,-1
    4100037c:	68002373          	csrr	x6,hgatp
    41000380:	03c35e93          	srli	x29,x6,0x3c
    41000384:	01431313          	slli	x6,x6,0x14
    41000388:	01435313          	srli	x6,x6,0x14
    4100038c:	00c31313          	slli	x6,x6,0xc
    41000390:	ff8e8e93          	addi	x29,x29,-8
    41000394:	003e9f13          	slli	x30,x29,0x3
    41000398:	01df0eb3          	add	x29,x30,x29
    4100039c:	01ee8e93          	addi	x29,x29,30
    410003a0:	00000f13          	li	x30,0
    410003a4:	f85ff06f          	j	41000328 <syscalls__pte_walk_loop_read>

00000000410003a8 <syscalls__pte_walk_final_read>:
    410003a8:	00033383          	ld	x7,0(x6)
    410003ac:	341022f3          	csrr	x5,mepc
    410003b0:	00428293          	addi	x5,x5,4
    410003b4:	16523c23          	sd	x5,376(x4) # 178 <XLEN+0x138>
    410003b8:	e99ff06f          	j	41000250 <syscalls__os_fn_f0001004>

00000000410003bc <syscalls__pte_walk_fail_read>:
    410003bc:	4040006f          	j	410007c0 <test_failed>

00000000410003c0 <syscalls__os_fn_f0001008>:
    410003c0:	447fefb7          	lui	x31,0x447fe
    410003c4:	0b0f8f9b          	addiw	x31,x31,176 # 447fe0b0 <pte_access_flags_pa>
    410003c8:	000fbf83          	ld	x31,0(x31)
    410003cc:	447fe2b7          	lui	x5,0x447fe
    410003d0:	0b82829b          	addiw	x5,x5,184 # 447fe0b8 <pte_access_flags_pa+0x8>
    410003d4:	0002b283          	ld	x5,0(x5)
    410003d8:	447fee37          	lui	x28,0x447fe
    410003dc:	0c0e0e1b          	addiw	x28,x28,192 # 447fe0c0 <pte_access_flags_pa+0x10>
    410003e0:	000e3e03          	ld	x28,0(x28)

00000000410003e4 <syscalls__pte_walk_check_glevel_without_gstage_write>:
    410003e4:	fff00f93          	li	x31,-1
    410003e8:	0dfe1063          	bne	x28,x31,410004a8 <syscalls__pte_walk_fail_write>
    410003ec:	18002373          	csrr	x6,satp
    410003f0:	03c35e93          	srli	x29,x6,0x3c
    410003f4:	01431313          	slli	x6,x6,0x14
    410003f8:	01435313          	srli	x6,x6,0x14
    410003fc:	00c31313          	slli	x6,x6,0xc
    41000400:	ff8e8e93          	addi	x29,x29,-8
    41000404:	003e9f13          	slli	x30,x29,0x3
    41000408:	01df0eb3          	add	x29,x30,x29
    4100040c:	01ee8e93          	addi	x29,x29,30
    41000410:	00000f13          	li	x30,0

0000000041000414 <syscalls__pte_walk_loop_write>:
    41000414:	447fefb7          	lui	x31,0x447fe
    41000418:	0b0f8f9b          	addiw	x31,x31,176 # 447fe0b0 <pte_access_flags_pa>
    4100041c:	000fbf83          	ld	x31,0(x31)
    41000420:	01dfdfb3          	srl	x31,x31,x29
    41000424:	1fffff93          	andi	x31,x31,511
    41000428:	003f9f93          	slli	x31,x31,0x3
    4100042c:	01f30333          	add	x6,x6,x31
    41000430:	005f0e63          	beq	x30,x5,4100044c <syscalls__pte_walk_done_write>
    41000434:	00033f83          	ld	x31,0(x6)
    41000438:	00afdf93          	srli	x31,x31,0xa
    4100043c:	00cf9313          	slli	x6,x31,0xc
    41000440:	001f0f13          	addi	x30,x30,1
    41000444:	ff7e8e93          	addi	x29,x29,-9
    41000448:	fcdff06f          	j	41000414 <syscalls__pte_walk_loop_write>

000000004100044c <syscalls__pte_walk_done_write>:
    4100044c:	fff00f93          	li	x31,-1
    41000450:	05fe0263          	beq	x28,x31,41000494 <syscalls__pte_walk_final_write>

0000000041000454 <syscalls__pte_walk_gstage_write>:
    41000454:	447fefb7          	lui	x31,0x447fe
    41000458:	0b0f8f9b          	addiw	x31,x31,176 # 447fe0b0 <pte_access_flags_pa>
    4100045c:	006fb023          	sd	x6,0(x31)
    41000460:	000e0293          	mv	x5,x28
    41000464:	fff00e13          	li	x28,-1
    41000468:	68002373          	csrr	x6,hgatp
    4100046c:	03c35e93          	srli	x29,x6,0x3c
    41000470:	01431313          	slli	x6,x6,0x14
    41000474:	01435313          	srli	x6,x6,0x14
    41000478:	00c31313          	slli	x6,x6,0xc
    4100047c:	ff8e8e93          	addi	x29,x29,-8
    41000480:	003e9f13          	slli	x30,x29,0x3
    41000484:	01df0eb3          	add	x29,x30,x29
    41000488:	01ee8e93          	addi	x29,x29,30
    4100048c:	00000f13          	li	x30,0
    41000490:	f85ff06f          	j	41000414 <syscalls__pte_walk_loop_write>

0000000041000494 <syscalls__pte_walk_final_write>:
    41000494:	00733023          	sd	x7,0(x6)
    41000498:	341022f3          	csrr	x5,mepc
    4100049c:	00428293          	addi	x5,x5,4
    410004a0:	16523c23          	sd	x5,376(x4) # 178 <XLEN+0x138>
    410004a4:	dadff06f          	j	41000250 <syscalls__os_fn_f0001004>

00000000410004a8 <syscalls__pte_walk_fail_write>:
    410004a8:	3180006f          	j	410007c0 <test_failed>

00000000410004ac <syscalls__os_get_hart_context>:
    410004ac:	14002573          	csrr	x10,sscratch
    410004b0:	341022f3          	csrr	x5,mepc
    410004b4:	00428293          	addi	x5,x5,4
    410004b8:	0040006f          	j	410004bc <syscalls__ret_from_os_fn>

00000000410004bc <syscalls__ret_from_os_fn>:
    410004bc:	34102373          	csrr	x6,mepc
    410004c0:	00430313          	addi	x6,x6,4
    410004c4:	16623c23          	sd	x6,376(x4) # 178 <XLEN+0x138>
    410004c8:	34129073          	csrw	mepc,x5
    410004cc:	fff00f93          	li	x31,-1
    410004d0:	2a40006f          	j	41000774 <trap_handler_m__skip_xepc_write>

00000000410004d4 <trap_handler_m__invalid_interrupt>:
    410004d4:	2ec0006f          	j	410007c0 <test_failed>

00000000410004d8 <trap_handler_m__clear_all_interrupts>:
    410004d8:	34401073          	csrw	mip,x0
    410004dc:	30200073          	mret

00000000410004e0 <trap_handler_m___CLEAR_SSI>:
    410004e0:	00200293          	li	x5,2
    410004e4:	3442b073          	csrc	mip,x5
    410004e8:	30200073          	mret

00000000410004ec <trap_handler_m___CLEAR_MSI>:
    410004ec:	00800293          	li	x5,8
    410004f0:	3442b073          	csrc	mip,x5
    410004f4:	30200073          	mret

00000000410004f8 <trap_handler_m___CLEAR_STI>:
    410004f8:	02000293          	li	x5,32
    410004fc:	3442b073          	csrc	mip,x5
    41000500:	30200073          	mret

0000000041000504 <trap_handler_m___CLEAR_MTI>:
    41000504:	08000293          	li	x5,128
    41000508:	3442b073          	csrc	mip,x5
    4100050c:	30200073          	mret

0000000041000510 <trap_handler_m___CLEAR_SEI>:
    41000510:	20000293          	li	x5,512
    41000514:	3442b073          	csrc	mip,x5
    41000518:	30200073          	mret

000000004100051c <trap_handler_m___CLEAR_MEI>:
    4100051c:	000012b7          	lui	x5,0x1
    41000520:	8002829b          	addiw	x5,x5,-2048 # 800 <XLEN+0x7c0>
    41000524:	3442b073          	csrc	mip,x5
    41000528:	30200073          	mret

000000004100052c <trap_handler_m___CLEAR_COI>:
    4100052c:	000022b7          	lui	x5,0x2
    41000530:	3442b073          	csrc	mip,x5
    41000534:	30200073          	mret

0000000041000538 <trap_handler_m__clear_highest_priority_interrupt>:
    41000538:	344022f3          	csrr	x5,mip
    4100053c:	40500333          	neg	x6,x5
    41000540:	0062f2b3          	and	x5,x5,x6
    41000544:	3442b073          	csrc	mip,x5
    41000548:	30200073          	mret

000000004100054c <trap_handler_m__trap_entry>:
    4100054c:	0fc0006f          	j	41000648 <trap_handler_m__trap_handler>

0000000041000550 <trap_handler_m__interrupt_vector_table>:
    41000550:	f91ff06f          	j	410004e0 <trap_handler_m___CLEAR_SSI>
    41000554:	f81ff06f          	j	410004d4 <trap_handler_m__invalid_interrupt>
    41000558:	f95ff06f          	j	410004ec <trap_handler_m___CLEAR_MSI>
    4100055c:	f79ff06f          	j	410004d4 <trap_handler_m__invalid_interrupt>
    41000560:	f99ff06f          	j	410004f8 <trap_handler_m___CLEAR_STI>
    41000564:	f71ff06f          	j	410004d4 <trap_handler_m__invalid_interrupt>
    41000568:	f9dff06f          	j	41000504 <trap_handler_m___CLEAR_MTI>
    4100056c:	f69ff06f          	j	410004d4 <trap_handler_m__invalid_interrupt>
    41000570:	fa1ff06f          	j	41000510 <trap_handler_m___CLEAR_SEI>
    41000574:	f61ff06f          	j	410004d4 <trap_handler_m__invalid_interrupt>
    41000578:	fa5ff06f          	j	4100051c <trap_handler_m___CLEAR_MEI>
    4100057c:	f59ff06f          	j	410004d4 <trap_handler_m__invalid_interrupt>
    41000580:	fadff06f          	j	4100052c <trap_handler_m___CLEAR_COI>
    41000584:	f51ff06f          	j	410004d4 <trap_handler_m__invalid_interrupt>
    41000588:	f4dff06f          	j	410004d4 <trap_handler_m__invalid_interrupt>
    4100058c:	fadff06f          	j	41000538 <trap_handler_m__clear_highest_priority_interrupt>
    41000590:	fa9ff06f          	j	41000538 <trap_handler_m__clear_highest_priority_interrupt>
    41000594:	fa5ff06f          	j	41000538 <trap_handler_m__clear_highest_priority_interrupt>
    41000598:	fa1ff06f          	j	41000538 <trap_handler_m__clear_highest_priority_interrupt>
    4100059c:	f9dff06f          	j	41000538 <trap_handler_m__clear_highest_priority_interrupt>
    410005a0:	f99ff06f          	j	41000538 <trap_handler_m__clear_highest_priority_interrupt>
    410005a4:	f95ff06f          	j	41000538 <trap_handler_m__clear_highest_priority_interrupt>
    410005a8:	f91ff06f          	j	41000538 <trap_handler_m__clear_highest_priority_interrupt>
    410005ac:	f8dff06f          	j	41000538 <trap_handler_m__clear_highest_priority_interrupt>
    410005b0:	f89ff06f          	j	41000538 <trap_handler_m__clear_highest_priority_interrupt>
    410005b4:	f85ff06f          	j	41000538 <trap_handler_m__clear_highest_priority_interrupt>
    410005b8:	f81ff06f          	j	41000538 <trap_handler_m__clear_highest_priority_interrupt>
    410005bc:	f7dff06f          	j	41000538 <trap_handler_m__clear_highest_priority_interrupt>
    410005c0:	f79ff06f          	j	41000538 <trap_handler_m__clear_highest_priority_interrupt>
    410005c4:	f75ff06f          	j	41000538 <trap_handler_m__clear_highest_priority_interrupt>
    410005c8:	f71ff06f          	j	41000538 <trap_handler_m__clear_highest_priority_interrupt>
    410005cc:	f6dff06f          	j	41000538 <trap_handler_m__clear_highest_priority_interrupt>
    410005d0:	f69ff06f          	j	41000538 <trap_handler_m__clear_highest_priority_interrupt>
    410005d4:	f65ff06f          	j	41000538 <trap_handler_m__clear_highest_priority_interrupt>
    410005d8:	f61ff06f          	j	41000538 <trap_handler_m__clear_highest_priority_interrupt>
    410005dc:	f5dff06f          	j	41000538 <trap_handler_m__clear_highest_priority_interrupt>
    410005e0:	f59ff06f          	j	41000538 <trap_handler_m__clear_highest_priority_interrupt>
    410005e4:	f55ff06f          	j	41000538 <trap_handler_m__clear_highest_priority_interrupt>
    410005e8:	f51ff06f          	j	41000538 <trap_handler_m__clear_highest_priority_interrupt>
    410005ec:	f4dff06f          	j	41000538 <trap_handler_m__clear_highest_priority_interrupt>
    410005f0:	f49ff06f          	j	41000538 <trap_handler_m__clear_highest_priority_interrupt>
    410005f4:	f45ff06f          	j	41000538 <trap_handler_m__clear_highest_priority_interrupt>
    410005f8:	f41ff06f          	j	41000538 <trap_handler_m__clear_highest_priority_interrupt>
    410005fc:	f3dff06f          	j	41000538 <trap_handler_m__clear_highest_priority_interrupt>
    41000600:	f39ff06f          	j	41000538 <trap_handler_m__clear_highest_priority_interrupt>
    41000604:	f35ff06f          	j	41000538 <trap_handler_m__clear_highest_priority_interrupt>
    41000608:	f31ff06f          	j	41000538 <trap_handler_m__clear_highest_priority_interrupt>
    4100060c:	f2dff06f          	j	41000538 <trap_handler_m__clear_highest_priority_interrupt>
    41000610:	f29ff06f          	j	41000538 <trap_handler_m__clear_highest_priority_interrupt>
    41000614:	f25ff06f          	j	41000538 <trap_handler_m__clear_highest_priority_interrupt>
    41000618:	f21ff06f          	j	41000538 <trap_handler_m__clear_highest_priority_interrupt>
    4100061c:	f1dff06f          	j	41000538 <trap_handler_m__clear_highest_priority_interrupt>
    41000620:	f19ff06f          	j	41000538 <trap_handler_m__clear_highest_priority_interrupt>
    41000624:	f15ff06f          	j	41000538 <trap_handler_m__clear_highest_priority_interrupt>
    41000628:	f11ff06f          	j	41000538 <trap_handler_m__clear_highest_priority_interrupt>
    4100062c:	f0dff06f          	j	41000538 <trap_handler_m__clear_highest_priority_interrupt>
    41000630:	f09ff06f          	j	41000538 <trap_handler_m__clear_highest_priority_interrupt>
    41000634:	f05ff06f          	j	41000538 <trap_handler_m__clear_highest_priority_interrupt>
    41000638:	f01ff06f          	j	41000538 <trap_handler_m__clear_highest_priority_interrupt>
    4100063c:	efdff06f          	j	41000538 <trap_handler_m__clear_highest_priority_interrupt>
    41000640:	ef9ff06f          	j	41000538 <trap_handler_m__clear_highest_priority_interrupt>
    41000644:	ef5ff06f          	j	41000538 <trap_handler_m__clear_highest_priority_interrupt>

0000000041000648 <trap_handler_m__trap_handler>:
    41000648:	342022f3          	csrr	x5,mcause
    4100064c:	fff0031b          	addiw	x6,x0,-1
    41000650:	03f31313          	slli	x6,x6,0x3f
    41000654:	00537333          	and	x6,x6,x5
    41000658:	02030263          	beqz	x6,4100067c <trap_handler_m__exception_path>

000000004100065c <trap_handler_m__interrupt_handler>:
    4100065c:	fff0031b          	addiw	x6,x0,-1
    41000660:	03f31313          	slli	x6,x6,0x3f
    41000664:	0062c2b3          	xor	x5,x5,x6
    41000668:	00000317          	auipc	x6,0x0
    4100066c:	ee430313          	addi	x6,x6,-284 # 4100054c <trap_handler_m__trap_entry>
    41000670:	00229293          	slli	x5,x5,0x2
    41000674:	005302b3          	add	x5,x6,x5
    41000678:	00028067          	jr	x5 # 2000 <mem18>

000000004100067c <trap_handler_m__exception_path>:
    4100067c:	34021273          	csrrw	x4,mscratch,x4
    41000680:	00000297          	auipc	x5,0x0
    41000684:	10828293          	addi	x5,x5,264 # 41000788 <trap_handler_m__trap_panic>
    41000688:	30529073          	csrw	mtvec,x5
    4100068c:	0040006f          	j	41000690 <trap_handler_m__excp_entry>

0000000041000690 <trap_handler_m__excp_entry>:
    41000690:	34202373          	csrr	x6,mcause
    41000694:	00800293          	li	x5,8
    41000698:	00534863          	blt	x6,x5,410006a8 <trap_handler_m__check_exception_label>
    4100069c:	00b00293          	li	x5,11
    410006a0:	0062c463          	blt	x5,x6,410006a8 <trap_handler_m__check_exception_label>
    410006a4:	a31ff06f          	j	410000d4 <syscalls__syscall_check_schedule_next_test>

00000000410006a8 <trap_handler_m__check_exception_label>:
    410006a8:	04623c23          	sd	x6,88(x4) # 58 <XLEN+0x18>
    410006ac:	341022f3          	csrr	x5,mepc
    410006b0:	02523423          	sd	x5,40(x4) # 28 <SECURE_ACCESS_PROBABILITY+0xa>
    410006b4:	01820283          	lb	x5,24(x4) # 18 <STORE_GUEST_PAGE_FAULT+0x1>
    410006b8:	00029863          	bnez	x5,410006c8 <trap_handler_m__check_excp>
    410006bc:	00128293          	addi	x5,x5,1
    410006c0:	00520c23          	sb	x5,24(x4) # 18 <STORE_GUEST_PAGE_FAULT+0x1>
    410006c4:	0980006f          	j	4100075c <trap_handler_m__ecall_from_machine>

00000000410006c8 <trap_handler_m__check_excp>:
    410006c8:	06823283          	ld	x5,104(x4) # 68 <XLEN+0x28>
    410006cc:	06023423          	sd	x0,104(x4) # 68 <XLEN+0x28>
    410006d0:	00028663          	beqz	x5,410006dc <trap_handler_m__skip_mode_check>
    410006d4:	00100393          	li	x7,1
    410006d8:	0e729463          	bne	x5,x7,410007c0 <test_failed>

00000000410006dc <trap_handler_m__skip_mode_check>:
    410006dc:	05023283          	ld	x5,80(x4) # 50 <XLEN+0x10>
    410006e0:	04023823          	sd	x0,80(x4) # 50 <XLEN+0x10>
    410006e4:	0c531e63          	bne	x6,x5,410007c0 <test_failed>
    410006e8:	03823283          	ld	x5,56(x4) # 38 <SECURE_ACCESS_PROBABILITY+0x1a>
    410006ec:	02023c23          	sd	x0,56(x4) # 38 <SECURE_ACCESS_PROBABILITY+0x1a>
    410006f0:	06029463          	bnez	x5,41000758 <trap_handler_m__skip_gva_check>
    410006f4:	02023303          	ld	x6,32(x4) # 20 <SECURE_ACCESS_PROBABILITY+0x2>
    410006f8:	02023023          	sd	x0,32(x4) # 20 <SECURE_ACCESS_PROBABILITY+0x2>
    410006fc:	02823283          	ld	x5,40(x4) # 28 <SECURE_ACCESS_PROBABILITY+0xa>
    41000700:	02023423          	sd	x0,40(x4) # 28 <SECURE_ACCESS_PROBABILITY+0xa>
    41000704:	0a531e63          	bne	x6,x5,410007c0 <test_failed>
    41000708:	04023283          	ld	x5,64(x4) # 40 <XLEN>
    4100070c:	04023023          	sd	x0,64(x4) # 40 <XLEN>
    41000710:	00028663          	beqz	x5,4100071c <trap_handler_m__skip_nonzero_tval_check>

0000000041000714 <trap_handler_m__nonzero_tval_check>:
    41000714:	34302373          	csrr	x6,mtval
    41000718:	0a531463          	bne	x6,x5,410007c0 <test_failed>

000000004100071c <trap_handler_m__skip_nonzero_tval_check>:
    4100071c:	04823283          	ld	x5,72(x4) # 48 <XLEN+0x8>
    41000720:	04023423          	sd	x0,72(x4) # 48 <XLEN+0x8>
    41000724:	00028663          	beqz	x5,41000730 <trap_handler_m__skip_nonzero_htval_check>

0000000041000728 <trap_handler_m__nonzero_htval_check>:
    41000728:	34b02373          	csrr	x6,0x34b
    4100072c:	08531a63          	bne	x6,x5,410007c0 <test_failed>

0000000041000730 <trap_handler_m__skip_nonzero_htval_check>:
    41000730:	06023283          	ld	x5,96(x4) # 60 <XLEN+0x20>
    41000734:	06023023          	sd	x0,96(x4) # 60 <XLEN+0x20>
    41000738:	02028063          	beqz	x5,41000758 <trap_handler_m__skip_gva_check>

000000004100073c <trap_handler_m__gva_check>:
    4100073c:	30002373          	csrr	x6,mstatus
    41000740:	02635313          	srli	x6,x6,0x26
    41000744:	00137313          	andi	x6,x6,1
    41000748:	06030c63          	beqz	x6,410007c0 <test_failed>
    4100074c:	0010031b          	addiw	x6,x0,1
    41000750:	02631313          	slli	x6,x6,0x26
    41000754:	30033073          	csrc	mstatus,x6

0000000041000758 <trap_handler_m__skip_gva_check>:
    41000758:	0040006f          	j	4100075c <trap_handler_m__ecall_from_machine>

000000004100075c <trap_handler_m__ecall_from_machine>:
    4100075c:	03023283          	ld	x5,48(x4) # 30 <SECURE_ACCESS_PROBABILITY+0x12>
    41000760:	02023823          	sd	x0,48(x4) # 30 <SECURE_ACCESS_PROBABILITY+0x12>
    41000764:	07023303          	ld	x6,112(x4) # 70 <XLEN+0x30>
    41000768:	06023823          	sd	x0,112(x4) # 70 <XLEN+0x30>
    4100076c:	00031463          	bnez	x6,41000774 <trap_handler_m__skip_xepc_write>
    41000770:	34129073          	csrw	mepc,x5

0000000041000774 <trap_handler_m__skip_xepc_write>:
    41000774:	00000317          	auipc	x6,0x0
    41000778:	dd830313          	addi	x6,x6,-552 # 4100054c <trap_handler_m__trap_entry>
    4100077c:	30531073          	csrw	mtvec,x6
    41000780:	34021273          	csrrw	x4,mscratch,x4
    41000784:	30200073          	mret

0000000041000788 <trap_handler_m__trap_panic>:
    41000788:	00000193          	li	x3,0
    4100078c:	2b40006f          	j	41000a40 <eot__end_test>

0000000041000790 <enter_scheduler>:
    41000790:	0002f337          	lui	x6,0x2f
    41000794:	ab73031b          	addiw	x6,x6,-1353 # 2eab7 <code_mem1+0x7ab7>
    41000798:	00e31313          	slli	x6,x6,0xe
    4100079c:	0de30313          	addi	x6,x6,222
    410007a0:	02628063          	beq	x5,x6,410007c0 <test_failed>
    410007a4:	00000513          	li	x10,0
    410007a8:	030000ef          	jal	410007d8 <rvcp_print_test_result>
    410007ac:	3180006f          	j	41000ac4 <scheduler__dispatch>

00000000410007b0 <test_passed>:
    410007b0:	34021273          	csrrw	x4,mscratch,x4
    410007b4:	00000513          	li	x10,0
    410007b8:	020000ef          	jal	410007d8 <rvcp_print_test_result>
    410007bc:	3080006f          	j	41000ac4 <scheduler__dispatch>

00000000410007c0 <test_failed>:
    410007c0:	34021273          	csrrw	x4,mscratch,x4
    410007c4:	00300193          	li	x3,3
    410007c8:	2780006f          	j	41000a40 <eot__end_test>

00000000410007cc <os_end_test>:
    410007cc:	34021273          	csrrw	x4,mscratch,x4
    410007d0:	00100193          	li	x3,1
    410007d4:	26c0006f          	j	41000a40 <eot__end_test>

00000000410007d8 <rvcp_print_test_result>:
    410007d8:	00050e13          	mv	x28,x10
    410007dc:	18823283          	ld	x5,392(x4) # 188 <XLEN+0x148>
    410007e0:	0010031b          	addiw	x6,x0,1
    410007e4:	02031313          	slli	x6,x6,0x20
    410007e8:	ffe30313          	addi	x6,x6,-2
    410007ec:	1c628063          	beq	x5,x6,410009ac <rvcp_print_test_result+0x1d4>
    410007f0:	0010031b          	addiw	x6,x0,1
    410007f4:	02031313          	slli	x6,x6,0x20
    410007f8:	fff30313          	addi	x6,x6,-1
    410007fc:	1a628863          	beq	x5,x6,410009ac <rvcp_print_test_result+0x1d4>
    41000800:	1a02c663          	bltz	x5,410009ac <rvcp_print_test_result+0x1d4>
    41000804:	00000317          	auipc	x6,0x0
    41000808:	3f830313          	addi	x6,x6,1016 # 41000bfc <dtest_descriptor_table>
    4100080c:	00329393          	slli	x7,x5,0x3
    41000810:	00730333          	add	x6,x6,x7
    41000814:	00033e83          	ld	x29,0(x6)
    41000818:	447fef37          	lui	x30,0x447fe
    4100081c:	030f0f1b          	addiw	x30,x30,48 # 447fe030 <rvcp_prefix_str_pa>
    41000820:	000f4283          	lbu	x5,0(x30)
    41000824:	02028663          	beqz	x5,41000850 <rvcp_print_test_result+0x78>
    41000828:	1010031b          	addiw	x6,x0,257
    4100082c:	03031313          	slli	x6,x6,0x30
    41000830:	005362b3          	or	x5,x6,x5
    41000834:	0003f317          	auipc	x6,0x3f
    41000838:	7cc30313          	addi	x6,x6,1996 # 41040000 <tohost>
    4100083c:	00033383          	ld	x7,0(x6)
    41000840:	fe039ee3          	bnez	x7,4100083c <rvcp_print_test_result+0x64>
    41000844:	00533023          	sd	x5,0(x6)
    41000848:	001f0f13          	addi	x30,x30,1
    4100084c:	fd5ff06f          	j	41000820 <rvcp_print_test_result+0x48>
    41000850:	447fef37          	lui	x30,0x447fe
    41000854:	041f0f1b          	addiw	x30,x30,65 # 447fe041 <rvcp_testname_str_pa>
    41000858:	000f4283          	lbu	x5,0(x30)
    4100085c:	02028663          	beqz	x5,41000888 <rvcp_print_test_result+0xb0>
    41000860:	1010031b          	addiw	x6,x0,257
    41000864:	03031313          	slli	x6,x6,0x30
    41000868:	005362b3          	or	x5,x6,x5
    4100086c:	0003f317          	auipc	x6,0x3f
    41000870:	79430313          	addi	x6,x6,1940 # 41040000 <tohost>
    41000874:	00033383          	ld	x7,0(x6)
    41000878:	fe039ee3          	bnez	x7,41000874 <rvcp_print_test_result+0x9c>
    4100087c:	00533023          	sd	x5,0(x6)
    41000880:	001f0f13          	addi	x30,x30,1
    41000884:	fd5ff06f          	j	41000858 <rvcp_print_test_result+0x80>
    41000888:	447fef37          	lui	x30,0x447fe
    4100088c:	05bf0f1b          	addiw	x30,x30,91 # 447fe05b <rvcp_space_str_pa>
    41000890:	000f4283          	lbu	x5,0(x30)
    41000894:	02028663          	beqz	x5,410008c0 <rvcp_print_test_result+0xe8>
    41000898:	1010031b          	addiw	x6,x0,257
    4100089c:	03031313          	slli	x6,x6,0x30
    410008a0:	005362b3          	or	x5,x6,x5
    410008a4:	0003f317          	auipc	x6,0x3f
    410008a8:	75c30313          	addi	x6,x6,1884 # 41040000 <tohost>
    410008ac:	00033383          	ld	x7,0(x6)
    410008b0:	fe039ee3          	bnez	x7,410008ac <rvcp_print_test_result+0xd4>
    410008b4:	00533023          	sd	x5,0(x6)
    410008b8:	001f0f13          	addi	x30,x30,1
    410008bc:	fd5ff06f          	j	41000890 <rvcp_print_test_result+0xb8>
    410008c0:	000e8f13          	mv	x30,x29
    410008c4:	000f4283          	lbu	x5,0(x30)
    410008c8:	02028663          	beqz	x5,410008f4 <rvcp_print_test_result+0x11c>
    410008cc:	1010031b          	addiw	x6,x0,257
    410008d0:	03031313          	slli	x6,x6,0x30
    410008d4:	005362b3          	or	x5,x6,x5
    410008d8:	0003f317          	auipc	x6,0x3f
    410008dc:	72830313          	addi	x6,x6,1832 # 41040000 <tohost>
    410008e0:	00033383          	ld	x7,0(x6)
    410008e4:	fe039ee3          	bnez	x7,410008e0 <rvcp_print_test_result+0x108>
    410008e8:	00533023          	sd	x5,0(x6)
    410008ec:	001f0f13          	addi	x30,x30,1
    410008f0:	fd5ff06f          	j	410008c4 <rvcp_print_test_result+0xec>
    410008f4:	447fef37          	lui	x30,0x447fe
    410008f8:	05bf0f1b          	addiw	x30,x30,91 # 447fe05b <rvcp_space_str_pa>
    410008fc:	000f4283          	lbu	x5,0(x30)
    41000900:	02028663          	beqz	x5,4100092c <rvcp_print_test_result+0x154>
    41000904:	1010031b          	addiw	x6,x0,257
    41000908:	03031313          	slli	x6,x6,0x30
    4100090c:	005362b3          	or	x5,x6,x5
    41000910:	0003f317          	auipc	x6,0x3f
    41000914:	6f030313          	addi	x6,x6,1776 # 41040000 <tohost>
    41000918:	00033383          	ld	x7,0(x6)
    4100091c:	fe039ee3          	bnez	x7,41000918 <rvcp_print_test_result+0x140>
    41000920:	00533023          	sd	x5,0(x6)
    41000924:	001f0f13          	addi	x30,x30,1
    41000928:	fd5ff06f          	j	410008fc <rvcp_print_test_result+0x124>
    4100092c:	000e1863          	bnez	x28,4100093c <rvcp_print_test_result+0x164>
    41000930:	447fef37          	lui	x30,0x447fe
    41000934:	04df0f1b          	addiw	x30,x30,77 # 447fe04d <rvcp_passed_str_pa>
    41000938:	00c0006f          	j	41000944 <rvcp_print_test_result+0x16c>
    4100093c:	447fef37          	lui	x30,0x447fe
    41000940:	054f0f1b          	addiw	x30,x30,84 # 447fe054 <rvcp_failed_str_pa>
    41000944:	000f4283          	lbu	x5,0(x30)
    41000948:	02028663          	beqz	x5,41000974 <rvcp_print_test_result+0x19c>
    4100094c:	1010031b          	addiw	x6,x0,257
    41000950:	03031313          	slli	x6,x6,0x30
    41000954:	005362b3          	or	x5,x6,x5
    41000958:	0003f317          	auipc	x6,0x3f
    4100095c:	6a830313          	addi	x6,x6,1704 # 41040000 <tohost>
    41000960:	00033383          	ld	x7,0(x6)
    41000964:	fe039ee3          	bnez	x7,41000960 <rvcp_print_test_result+0x188>
    41000968:	00533023          	sd	x5,0(x6)
    4100096c:	001f0f13          	addi	x30,x30,1
    41000970:	fd5ff06f          	j	41000944 <rvcp_print_test_result+0x16c>
    41000974:	447fef37          	lui	x30,0x447fe
    41000978:	05df0f1b          	addiw	x30,x30,93 # 447fe05d <rvcp_newline_str_pa>
    4100097c:	000f4283          	lbu	x5,0(x30)
    41000980:	02028663          	beqz	x5,410009ac <rvcp_print_test_result+0x1d4>
    41000984:	1010031b          	addiw	x6,x0,257
    41000988:	03031313          	slli	x6,x6,0x30
    4100098c:	005362b3          	or	x5,x6,x5
    41000990:	0003f317          	auipc	x6,0x3f
    41000994:	67030313          	addi	x6,x6,1648 # 41040000 <tohost>
    41000998:	00033383          	ld	x7,0(x6)
    4100099c:	fe039ee3          	bnez	x7,41000998 <rvcp_print_test_result+0x1c0>
    410009a0:	00533023          	sd	x5,0(x6)
    410009a4:	001f0f13          	addi	x30,x30,1
    410009a8:	fd5ff06f          	j	4100097c <rvcp_print_test_result+0x1a4>
    410009ac:	00008067          	ret

00000000410009b0 <os_rng_orig>:
    410009b0:	f14023f3          	csrr	x7,mhartid
    410009b4:	00068313          	mv	x6,x13
    410009b8:	026383b3          	mul	x7,x7,x6
    410009bc:	00058313          	mv	x6,x11
    410009c0:	00730333          	add	x6,x6,x7
    410009c4:	00033283          	ld	x5,0(x6)
    410009c8:	01529313          	slli	x6,x5,0x15
    410009cc:	0062c2b3          	xor	x5,x5,x6
    410009d0:	0232d313          	srli	x6,x5,0x23
    410009d4:	0062c2b3          	xor	x5,x5,x6
    410009d8:	00429313          	slli	x6,x5,0x4
    410009dc:	0062c2b3          	xor	x5,x5,x6
    410009e0:	00058313          	mv	x6,x11
    410009e4:	00730333          	add	x6,x6,x7
    410009e8:	00533023          	sd	x5,0(x6)
    410009ec:	00060313          	mv	x6,x12
    410009f0:	0262f2b3          	remu	x5,x5,x6
    410009f4:	00028513          	mv	x10,x5
    410009f8:	00008067          	ret
    410009fc:	02a00513          	li	x10,42
    41000a00:	001965b7          	lui	x11,0x196
    41000a04:	60d5859b          	addiw	x11,x11,1549 # 19660d <mem2+0x1660d>
    41000a08:	3c6ef637          	lui	x12,0x3c6ef
    41000a0c:	35f6061b          	addiw	x12,x12,863 # 3c6ef35f <SID_PBVMS_017_global_at_non_leaf_stack+0x2a57435f>
    41000a10:	02200693          	li	x13,34
    41000a14:	02b50533          	mul	x10,x10,x11
    41000a18:	00c50533          	add	x10,x10,x12
    41000a1c:	02d56533          	rem	x10,x10,x13
    41000a20:	00b00593          	li	x11,11
    41000a24:	02b56533          	rem	x10,x10,x11
    41000a28:	00008067          	ret
    41000a2c:	0000                	.insn	2, 0x0000
	...

0000000041000a30 <tohost_mutex>:
	...

0000000041000a38 <tohost_addr_mem>:
    41000a38:	0000                	.insn	2, 0x0000
    41000a3a:	4104                	.insn	2, 0x4104
    41000a3c:	0000                	.insn	2, 0x0000
	...

0000000041000a40 <eot__end_test>:
    41000a40:	00100293          	li	x5,1
    41000a44:	00328463          	beq	x5,x3,41000a4c <eot__passed>
    41000a48:	01c0006f          	j	41000a64 <eot__failed>

0000000041000a4c <eot__passed>:
    41000a4c:	0ff0000f          	fence
    41000a50:	00000297          	auipc	x5,0x0
    41000a54:	fe82b283          	ld	x5,-24(x5) # 41000a38 <tohost_addr_mem>
    41000a58:	00100313          	li	x6,1
    41000a5c:	0062a023          	sw	x6,0(x5)
    41000a60:	0240006f          	j	41000a84 <eot__halt>

0000000041000a64 <eot__failed>:
    41000a64:	00100513          	li	x10,1
    41000a68:	d71ff0ef          	jal	410007d8 <rvcp_print_test_result>
    41000a6c:	0ff0000f          	fence
    41000a70:	00000297          	auipc	x5,0x0
    41000a74:	fc82b283          	ld	x5,-56(x5) # 41000a38 <tohost_addr_mem>
    41000a78:	00300313          	li	x6,3
    41000a7c:	0062a023          	sw	x6,0(x5)
    41000a80:	0040006f          	j	41000a84 <eot__halt>

0000000041000a84 <eot__halt>:
    41000a84:	10500073          	wfi
    41000a88:	ffdff06f          	j	41000a84 <eot__halt>

0000000041000a8c <scheduler__init>:
    41000a8c:	00000297          	auipc	x5,0x0
    41000a90:	0c028293          	addi	x5,x5,192 # 41000b4c <scheduler__panic>
    41000a94:	305292f3          	csrrw	x5,mtvec,x5
    41000a98:	18523023          	sd	x5,384(x4) # 180 <XLEN+0x140>
    41000a9c:	01400293          	li	x5,20
    41000aa0:	18523823          	sd	x5,400(x4) # 190 <XLEN+0x150>
    41000aa4:	0010029b          	addiw	x5,x0,1
    41000aa8:	02029293          	slli	x5,x5,0x20
    41000aac:	ffe28293          	addi	x5,x5,-2
    41000ab0:	18523423          	sd	x5,392(x4) # 188 <XLEN+0x148>
    41000ab4:	00000317          	auipc	x6,0x0
    41000ab8:	50830313          	addi	x6,x6,1288 # 41000fbc <scheduler__test_setup_ptr>
    41000abc:	00033303          	ld	x6,0(x6)
    41000ac0:	0640006f          	j	41000b24 <scheduler__execute_test>

0000000041000ac4 <scheduler__dispatch>:
    41000ac4:	00000297          	auipc	x5,0x0
    41000ac8:	08828293          	addi	x5,x5,136 # 41000b4c <scheduler__panic>
    41000acc:	305292f3          	csrrw	x5,mtvec,x5
    41000ad0:	18523023          	sd	x5,384(x4) # 180 <XLEN+0x140>

0000000041000ad4 <scheduler__csr_read_randomization>:
    41000ad4:	141022f3          	csrr	x5,sepc
    41000ad8:	305022f3          	csrr	x5,mtvec
    41000adc:	144022f3          	csrr	x5,sip
    41000ae0:	143022f3          	csrr	x5,stval
    41000ae4:	106022f3          	csrr	x5,scounteren

0000000041000ae8 <scheduler__load_num_runs>:
    41000ae8:	19023303          	ld	x6,400(x4) # 190 <XLEN+0x150>
    41000aec:	04030c63          	beqz	x6,41000b44 <scheduler__finished>

0000000041000af0 <scheduler__decrement_num_runs>:
    41000af0:	fff30393          	addi	x7,x6,-1
    41000af4:	18723823          	sd	x7,400(x4) # 190 <XLEN+0x150>
    41000af8:	00000e17          	auipc	x28,0x0
    41000afc:	474e0e13          	addi	x28,x28,1140 # 41000f6c <dtest_index_map>
    41000b00:	00239e93          	slli	x29,x7,0x2
    41000b04:	01de0e33          	add	x28,x28,x29
    41000b08:	000e2e03          	lw	x28,0(x28)
    41000b0c:	19c23423          	sd	x28,392(x4) # 188 <XLEN+0x148>

0000000041000b10 <scheduler__calc_test_pointer>:
    41000b10:	00339293          	slli	x5,x7,0x3

0000000041000b14 <scheduler__load_test_addr>:
    41000b14:	00000317          	auipc	x6,0x0
    41000b18:	04830313          	addi	x6,x6,72 # 41000b5c <os_test_sequence>
    41000b1c:	006282b3          	add	x5,x5,x6
    41000b20:	0002b303          	ld	x6,0(x5)

0000000041000b24 <scheduler__execute_test>:
    41000b24:	18023283          	ld	x5,384(x4) # 180 <XLEN+0x140>
    41000b28:	30529073          	csrw	mtvec,x5
    41000b2c:	34021273          	csrrw	x4,mscratch,x4
    41000b30:	00000213          	li	x4,0
    41000b34:	14131073          	csrw	sepc,x6
    41000b38:	10000293          	li	x5,256
    41000b3c:	1002b073          	csrc	sstatus,x5
    41000b40:	10200073          	sret

0000000041000b44 <scheduler__finished>:
    41000b44:	00100193          	li	x3,1
    41000b48:	ef9ff06f          	j	41000a40 <eot__end_test>

0000000041000b4c <scheduler__panic>:
    41000b4c:	00000193          	li	x3,0
    41000b50:	ef1ff06f          	j	41000a40 <eot__end_test>

0000000041000b54 <num_runs>:
    41000b54:	0014                	.insn	2, 0x0014
    41000b56:	0000                	.insn	2, 0x0000
    41000b58:	0000                	.insn	2, 0x0000
	...

0000000041000b5c <os_test_sequence>:
    41000b5c:	6684                	.insn	2, 0x6684
    41000b5e:	4101                	.insn	2, 0x4101
    41000b60:	0000                	.insn	2, 0x0000
    41000b62:	0000                	.insn	2, 0x0000
    41000b64:	57fc                	.insn	2, 0x57fc
    41000b66:	4101                	.insn	2, 0x4101
    41000b68:	0000                	.insn	2, 0x0000
    41000b6a:	0000                	.insn	2, 0x0000
    41000b6c:	566c                	.insn	2, 0x566c
    41000b6e:	4101                	.insn	2, 0x4101
    41000b70:	0000                	.insn	2, 0x0000
    41000b72:	0000                	.insn	2, 0x0000
    41000b74:	6178                	.insn	2, 0x6178
    41000b76:	4101                	.insn	2, 0x4101
    41000b78:	0000                	.insn	2, 0x0000
    41000b7a:	0000                	.insn	2, 0x0000
    41000b7c:	5880                	.insn	2, 0x5880
    41000b7e:	4101                	.insn	2, 0x4101
    41000b80:	0000                	.insn	2, 0x0000
    41000b82:	0000                	.insn	2, 0x0000
    41000b84:	665c                	.insn	2, 0x665c
    41000b86:	4101                	.insn	2, 0x4101
    41000b88:	0000                	.insn	2, 0x0000
    41000b8a:	0000                	.insn	2, 0x0000
    41000b8c:	5524                	.insn	2, 0x5524
    41000b8e:	4101                	.insn	2, 0x4101
    41000b90:	0000                	.insn	2, 0x0000
    41000b92:	0000                	.insn	2, 0x0000
    41000b94:	5ac8                	.insn	2, 0x5ac8
    41000b96:	4101                	.insn	2, 0x4101
    41000b98:	0000                	.insn	2, 0x0000
    41000b9a:	0000                	.insn	2, 0x0000
    41000b9c:	5130                	.insn	2, 0x5130
    41000b9e:	4101                	.insn	2, 0x4101
    41000ba0:	0000                	.insn	2, 0x0000
    41000ba2:	0000                	.insn	2, 0x0000
    41000ba4:	5250                	.insn	2, 0x5250
    41000ba6:	4101                	.insn	2, 0x4101
    41000ba8:	0000                	.insn	2, 0x0000
    41000baa:	0000                	.insn	2, 0x0000
    41000bac:	5f44                	.insn	2, 0x5f44
    41000bae:	4101                	.insn	2, 0x4101
    41000bb0:	0000                	.insn	2, 0x0000
    41000bb2:	0000                	.insn	2, 0x0000
    41000bb4:	52f8                	.insn	2, 0x52f8
    41000bb6:	4101                	.insn	2, 0x4101
    41000bb8:	0000                	.insn	2, 0x0000
    41000bba:	0000                	.insn	2, 0x0000
    41000bbc:	5c44                	.insn	2, 0x5c44
    41000bbe:	4101                	.insn	2, 0x4101
    41000bc0:	0000                	.insn	2, 0x0000
    41000bc2:	0000                	.insn	2, 0x0000
    41000bc4:	62d0                	.insn	2, 0x62d0
    41000bc6:	4101                	.insn	2, 0x4101
    41000bc8:	0000                	.insn	2, 0x0000
    41000bca:	0000                	.insn	2, 0x0000
    41000bcc:	63d8                	.insn	2, 0x63d8
    41000bce:	4101                	.insn	2, 0x4101
    41000bd0:	0000                	.insn	2, 0x0000
    41000bd2:	0000                	.insn	2, 0x0000
    41000bd4:	6088                	.insn	2, 0x6088
    41000bd6:	4101                	.insn	2, 0x4101
    41000bd8:	0000                	.insn	2, 0x0000
    41000bda:	0000                	.insn	2, 0x0000
    41000bdc:	5d9c                	.insn	2, 0x5d9c
    41000bde:	4101                	.insn	2, 0x4101
    41000be0:	0000                	.insn	2, 0x0000
    41000be2:	0000                	.insn	2, 0x0000
    41000be4:	65b4                	.insn	2, 0x65b4
    41000be6:	4101                	.insn	2, 0x4101
    41000be8:	0000                	.insn	2, 0x0000
    41000bea:	0000                	.insn	2, 0x0000
    41000bec:	51cc                	.insn	2, 0x51cc
    41000bee:	4101                	.insn	2, 0x4101
    41000bf0:	0000                	.insn	2, 0x0000
    41000bf2:	0000                	.insn	2, 0x0000
    41000bf4:	5194                	.insn	2, 0x5194
    41000bf6:	4101                	.insn	2, 0x4101
    41000bf8:	0000                	.insn	2, 0x0000
	...

0000000041000bfc <dtest_descriptor_table>:
    41000bfc:	0c94                	.insn	2, 0x0c94
    41000bfe:	4100                	.insn	2, 0x4100
    41000c00:	0000                	.insn	2, 0x0000
    41000c02:	0000                	.insn	2, 0x0000
    41000c04:	0cc1                	.insn	2, 0x0cc1
    41000c06:	4100                	.insn	2, 0x4100
    41000c08:	0000                	.insn	2, 0x0000
    41000c0a:	0000                	.insn	2, 0x0000
    41000c0c:	41000ce7          	jalr	x25,1040(x0) # 410 <XLEN+0x3d0>
    41000c10:	0000                	.insn	2, 0x0000
    41000c12:	0000                	.insn	2, 0x0000
    41000c14:	0d10                	.insn	2, 0x0d10
    41000c16:	4100                	.insn	2, 0x4100
    41000c18:	0000                	.insn	2, 0x0000
    41000c1a:	0000                	.insn	2, 0x0000
    41000c1c:	0d36                	.insn	2, 0x0d36
    41000c1e:	4100                	.insn	2, 0x4100
    41000c20:	0000                	.insn	2, 0x0000
    41000c22:	0000                	.insn	2, 0x0000
    41000c24:	0d5e                	.insn	2, 0x0d5e
    41000c26:	4100                	.insn	2, 0x4100
    41000c28:	0000                	.insn	2, 0x0000
    41000c2a:	0000                	.insn	2, 0x0000
    41000c2c:	0d88                	.insn	2, 0x0d88
    41000c2e:	4100                	.insn	2, 0x4100
    41000c30:	0000                	.insn	2, 0x0000
    41000c32:	0000                	.insn	2, 0x0000
    41000c34:	41000daf          	.insn	4, 0x41000daf
    41000c38:	0000                	.insn	2, 0x0000
    41000c3a:	0000                	.insn	2, 0x0000
    41000c3c:	0dd6                	.insn	2, 0x0dd6
    41000c3e:	4100                	.insn	2, 0x4100
    41000c40:	0000                	.insn	2, 0x0000
    41000c42:	0000                	.insn	2, 0x0000
    41000c44:	0df4                	.insn	2, 0x0df4
    41000c46:	4100                	.insn	2, 0x4100
    41000c48:	0000                	.insn	2, 0x0000
    41000c4a:	0000                	.insn	2, 0x0000
    41000c4c:	0e16                	.insn	2, 0x0e16
    41000c4e:	4100                	.insn	2, 0x4100
    41000c50:	0000                	.insn	2, 0x0000
    41000c52:	0000                	.insn	2, 0x0000
    41000c54:	41000e37          	lui	x28,0x41000
    41000c58:	0000                	.insn	2, 0x0000
    41000c5a:	0000                	.insn	2, 0x0000
    41000c5c:	0e59                	.insn	2, 0x0e59
    41000c5e:	4100                	.insn	2, 0x4100
    41000c60:	0000                	.insn	2, 0x0000
    41000c62:	0000                	.insn	2, 0x0000
    41000c64:	0e7e                	.insn	2, 0x0e7e
    41000c66:	4100                	.insn	2, 0x4100
    41000c68:	0000                	.insn	2, 0x0000
    41000c6a:	0000                	.insn	2, 0x0000
    41000c6c:	41000ea3          	sb	x16,1053(x0) # 41d <XLEN+0x3dd>
    41000c70:	0000                	.insn	2, 0x0000
    41000c72:	0000                	.insn	2, 0x0000
    41000c74:	0ec8                	.insn	2, 0x0ec8
    41000c76:	4100                	.insn	2, 0x4100
    41000c78:	0000                	.insn	2, 0x0000
    41000c7a:	0000                	.insn	2, 0x0000
    41000c7c:	41000eeb          	.insn	4, 0x41000eeb
    41000c80:	0000                	.insn	2, 0x0000
    41000c82:	0000                	.insn	2, 0x0000
    41000c84:	0f10                	.insn	2, 0x0f10
    41000c86:	4100                	.insn	2, 0x4100
    41000c88:	0000                	.insn	2, 0x0000
    41000c8a:	0000                	.insn	2, 0x0000
    41000c8c:	0f40                	.insn	2, 0x0f40
    41000c8e:	4100                	.insn	2, 0x4100
    41000c90:	0000                	.insn	2, 0x0000
	...

0000000041000c94 <dtest_name_0>:
    41000c94:	5f444953          	.insn	4, 0x5f444953
    41000c98:	4250                	.insn	2, 0x4250
    41000c9a:	4d56                	.insn	2, 0x4d56
    41000c9c:	30305f53          	.insn	4, 0x30305f53
    41000ca0:	5f31                	.insn	2, 0x5f31
    41000ca2:	7470                	.insn	2, 0x7470
    41000ca4:	6f6e5f77          	.insn	4, 0x6f6e5f77
    41000ca8:	665f 7561 746c      	.insn	6, 0x746c7561665f
    41000cae:	6c615f73          	csrrwi	x30,0x6c6,2
    41000cb2:	5f6c                	.insn	2, 0x5f6c
    41000cb4:	6361                	.insn	2, 0x6361
    41000cb6:	73736563          	bltu	x6,x23,410013e0 <__section__runtime_1+0x3e0>
    41000cba:	745f 7079 7365      	.insn	6, 0x73657079745f
	...

0000000041000cc1 <dtest_name_1>:
    41000cc1:	5f444953          	.insn	4, 0x5f444953
    41000cc5:	4250                	.insn	2, 0x4250
    41000cc7:	4d56                	.insn	2, 0x4d56
    41000cc9:	30305f53          	.insn	4, 0x30305f53
    41000ccd:	74705f33          	.insn	4, 0x74705f33
    41000cd1:	6c615f77          	.insn	4, 0x6c615f77
    41000cd5:	5f6c                	.insn	2, 0x5f6c
    41000cd7:	7270                	.insn	2, 0x7270
    41000cd9:	7669                	.insn	2, 0x7669
    41000cdb:	6c69                	.insn	2, 0x6c69
    41000cdd:	6765                	.insn	2, 0x6765
    41000cdf:	5f65                	.insn	2, 0x5f65
    41000ce1:	6f6d                	.insn	2, 0x6f6d
    41000ce3:	6564                	.insn	2, 0x6564
    41000ce5:	          	.insn	4, 0x49530073

0000000041000ce7 <dtest_name_2>:
    41000ce7:	5f444953          	.insn	4, 0x5f444953
    41000ceb:	4250                	.insn	2, 0x4250
    41000ced:	4d56                	.insn	2, 0x4d56
    41000cef:	30305f53          	.insn	4, 0x30305f53
    41000cf3:	5f36                	.insn	2, 0x5f36
    41000cf5:	7470                	.insn	2, 0x7470
    41000cf7:	61705f77          	.insn	4, 0x61705f77
    41000cfb:	625f6567          	.insn	4, 0x625f6567
    41000cff:	646e756f          	jal	x10,410e8345 <__section__code_211+0x345>
    41000d03:	7261                	.insn	2, 0x7261
    41000d05:	5f79                	.insn	2, 0x5f79
    41000d07:	736f7263          	bgeu	x30,x22,4100142b <__section__runtime_1+0x42b>
    41000d0b:	676e6973          	csrrsi	x18,0x676,28
	...

0000000041000d10 <dtest_name_3>:
    41000d10:	5f444953          	.insn	4, 0x5f444953
    41000d14:	4250                	.insn	2, 0x4250
    41000d16:	4d56                	.insn	2, 0x4d56
    41000d18:	30305f53          	.insn	4, 0x30305f53
    41000d1c:	5f38                	.insn	2, 0x5f38
    41000d1e:	6176                	.insn	2, 0x6176
    41000d20:	735f 6769 5f6e      	.insn	6, 0x5f6e6769735f
    41000d26:	7865                	.insn	2, 0x7865
    41000d28:	6574                	.insn	2, 0x6574
    41000d2a:	736e                	.insn	2, 0x736e
    41000d2c:	6f69                	.insn	2, 0x6f69
    41000d2e:	5f6e                	.insn	2, 0x5f6e
    41000d30:	6166                	.insn	2, 0x6166
    41000d32:	6c75                	.insn	2, 0x6c75
    41000d34:	0074                	.insn	2, 0x0074

0000000041000d36 <dtest_name_4>:
    41000d36:	5f444953          	.insn	4, 0x5f444953
    41000d3a:	4250                	.insn	2, 0x4250
    41000d3c:	4d56                	.insn	2, 0x4d56
    41000d3e:	30305f53          	.insn	4, 0x30305f53
    41000d42:	5f39                	.insn	2, 0x5f39
    41000d44:	65707573          	csrrci	x10,hviprio2h,0
    41000d48:	7072                	.insn	2, 0x7072
    41000d4a:	6761                	.insn	2, 0x6761
    41000d4c:	5f65                	.insn	2, 0x5f65
    41000d4e:	6c61                	.insn	2, 0x6c61
    41000d50:	6769                	.insn	2, 0x6769
    41000d52:	6d6e                	.insn	2, 0x6d6e
    41000d54:	6e65                	.insn	2, 0x6e65
    41000d56:	5f74                	.insn	2, 0x5f74
    41000d58:	6166                	.insn	2, 0x6166
    41000d5a:	6c75                	.insn	2, 0x6c75
    41000d5c:	0074                	.insn	2, 0x0074

0000000041000d5e <dtest_name_5>:
    41000d5e:	5f444953          	.insn	4, 0x5f444953
    41000d62:	4250                	.insn	2, 0x4250
    41000d64:	4d56                	.insn	2, 0x4d56
    41000d66:	31305f53          	.insn	4, 0x31305f53
    41000d6a:	5f31                	.insn	2, 0x5f31
    41000d6c:	7470                	.insn	2, 0x7470
    41000d6e:	61665f77          	.insn	4, 0x61665f77
    41000d72:	6c75                	.insn	2, 0x6c75
    41000d74:	5f74                	.insn	2, 0x5f74
    41000d76:	6f62                	.insn	2, 0x6f62
    41000d78:	6e75                	.insn	2, 0x6e75
    41000d7a:	6164                	.insn	2, 0x6164
    41000d7c:	7972                	.insn	2, 0x7972
    41000d7e:	635f 6f72 7373      	.insn	6, 0x73736f72635f
    41000d84:	6e69                	.insn	2, 0x6e69
    41000d86:	          	jr	1173(x6)

0000000041000d88 <dtest_name_6>:
    41000d88:	5f444953          	.insn	4, 0x5f444953
    41000d8c:	4250                	.insn	2, 0x4250
    41000d8e:	4d56                	.insn	2, 0x4d56
    41000d90:	31305f53          	.insn	4, 0x31305f53
    41000d94:	5f32                	.insn	2, 0x5f32
    41000d96:	7470                	.insn	2, 0x7470
    41000d98:	61665f77          	.insn	4, 0x61665f77
    41000d9c:	6c75                	.insn	2, 0x6c75
    41000d9e:	5f74                	.insn	2, 0x5f74
    41000da0:	7270                	.insn	2, 0x7270
    41000da2:	6f69                	.insn	2, 0x6f69
    41000da4:	6972                	.insn	2, 0x6972
    41000da6:	6974                	.insn	2, 0x6974
    41000da8:	617a                	.insn	2, 0x617a
    41000daa:	6974                	.insn	2, 0x6974
    41000dac:	          	jal	x28,410072dc <__section__runtime_7+0x2dc>

0000000041000daf <dtest_name_7>:
    41000daf:	5f444953          	.insn	4, 0x5f444953
    41000db3:	4250                	.insn	2, 0x4250
    41000db5:	4d56                	.insn	2, 0x4d56
    41000db7:	31305f53          	.insn	4, 0x31305f53
    41000dbb:	74705f33          	.insn	4, 0x74705f33
    41000dbf:	65705f77          	.insn	4, 0x65705f77
    41000dc3:	6d72                	.insn	2, 0x6d72
    41000dc5:	7369                	.insn	2, 0x7369
    41000dc7:	6e6f6973          	csrrsi	x18,0x6e6,30
    41000dcb:	655f 636e 646f      	.insn	6, 0x646f636e655f
    41000dd1:	6e69                	.insn	2, 0x6e69
    41000dd3:	          	.insn	4, 0x53007367

0000000041000dd6 <dtest_name_8>:
    41000dd6:	5f444953          	.insn	4, 0x5f444953
    41000dda:	4250                	.insn	2, 0x4250
    41000ddc:	4d56                	.insn	2, 0x4d56
    41000dde:	31305f53          	.insn	4, 0x31305f53
    41000de2:	5f34                	.insn	2, 0x5f34
    41000de4:	736d                	.insn	2, 0x736d
    41000de6:	6174                	.insn	2, 0x6174
    41000de8:	7574                	.insn	2, 0x7574
    41000dea:	75735f73          	csrrwi	x30,0x757,6
    41000dee:	5f6d                	.insn	2, 0x5f6d
    41000df0:	786d                	.insn	2, 0x786d
    41000df2:	0072                	.insn	2, 0x0072

0000000041000df4 <dtest_name_9>:
    41000df4:	5f444953          	.insn	4, 0x5f444953
    41000df8:	4250                	.insn	2, 0x4250
    41000dfa:	4d56                	.insn	2, 0x4d56
    41000dfc:	31305f53          	.insn	4, 0x31305f53
    41000e00:	5f35                	.insn	2, 0x5f35
    41000e02:	626f6c67          	.insn	4, 0x626f6c67
    41000e06:	6c61                	.insn	2, 0x6c61
    41000e08:	625f 7469 685f      	.insn	6, 0x685f7469625f
    41000e0e:	756f6e6f          	jal	x28,410f7564 <__section__code_226+0x564>
    41000e12:	6572                	.insn	2, 0x6572
    41000e14:	0064                	.insn	2, 0x0064

0000000041000e16 <dtest_name_10>:
    41000e16:	5f444953          	.insn	4, 0x5f444953
    41000e1a:	4250                	.insn	2, 0x4250
    41000e1c:	4d56                	.insn	2, 0x4d56
    41000e1e:	31305f53          	.insn	4, 0x31305f53
    41000e22:	6c675f37          	lui	x30,0x6c675
    41000e26:	6c61626f          	jal	x4,410174ec <__section__code_2+0x4ec>
    41000e2a:	615f 5f74 6f6e      	.insn	6, 0x6f6e5f74615f
    41000e30:	5f6e                	.insn	2, 0x5f6e
    41000e32:	656c                	.insn	2, 0x656c
    41000e34:	6661                	.insn	2, 0x6661
	...

0000000041000e37 <dtest_name_11>:
    41000e37:	5f444953          	.insn	4, 0x5f444953
    41000e3b:	4250                	.insn	2, 0x4250
    41000e3d:	4d56                	.insn	2, 0x4d56
    41000e3f:	31305f53          	.insn	4, 0x31305f53
    41000e43:	5f38                	.insn	2, 0x5f38
    41000e45:	7372                	.insn	2, 0x7372
    41000e47:	69665f77          	.insn	4, 0x69665f77
    41000e4b:	6c65                	.insn	2, 0x6c65
    41000e4d:	7364                	.insn	2, 0x7364
    41000e4f:	775f 6972 6174      	.insn	6, 0x61746972775f
    41000e55:	6c62                	.insn	2, 0x6c62
    41000e57:	0065                	.insn	2, 0x0065

0000000041000e59 <dtest_name_12>:
    41000e59:	5f444953          	.insn	4, 0x5f444953
    41000e5d:	4250                	.insn	2, 0x4250
    41000e5f:	4d56                	.insn	2, 0x4d56
    41000e61:	32305f53          	.insn	4, 0x32305f53
    41000e65:	5f31                	.insn	2, 0x5f31
    41000e67:	70746173          	csrrsi	x2,0x707,8
    41000e6b:	765f 6c61 6469      	.insn	6, 0x64696c61765f
    41000e71:	745f 5f6f 6572      	.insn	6, 0x65725f6f745f
    41000e77:	76726573          	csrrsi	x10,0x767,4
    41000e7b:	6465                	.insn	2, 0x6465
	...

0000000041000e7e <dtest_name_13>:
    41000e7e:	5f444953          	.insn	4, 0x5f444953
    41000e82:	4250                	.insn	2, 0x4250
    41000e84:	4d56                	.insn	2, 0x4d56
    41000e86:	32305f53          	.insn	4, 0x32305f53
    41000e8a:	5f32                	.insn	2, 0x5f32
    41000e8c:	70746173          	csrrsi	x2,0x707,8
    41000e90:	635f 7273 615f      	.insn	6, 0x615f7273635f
    41000e96:	73656363          	bltu	x10,x22,410015bc <__section__runtime_1+0x5bc>
    41000e9a:	69626973          	csrrsi	x18,0x696,4
    41000e9e:	696c                	.insn	2, 0x696c
    41000ea0:	7974                	.insn	2, 0x7974
	...

0000000041000ea3 <dtest_name_14>:
    41000ea3:	5f444953          	.insn	4, 0x5f444953
    41000ea7:	4250                	.insn	2, 0x4250
    41000ea9:	4d56                	.insn	2, 0x4d56
    41000eab:	32305f53          	.insn	4, 0x32305f53
    41000eaf:	61735f33          	ror	x30,x6,x23
    41000eb3:	7074                	.insn	2, 0x7074
    41000eb5:	615f 6973 6c64      	.insn	6, 0x6c646973615f
    41000ebb:	6e65                	.insn	2, 0x6e65
    41000ebd:	645f 7369 6f63      	.insn	6, 0x6f637369645f
    41000ec3:	6576                	.insn	2, 0x6576
    41000ec5:	7972                	.insn	2, 0x7972
	...

0000000041000ec8 <dtest_name_15>:
    41000ec8:	5f444953          	.insn	4, 0x5f444953
    41000ecc:	4250                	.insn	2, 0x4250
    41000ece:	4d56                	.insn	2, 0x4d56
    41000ed0:	32305f53          	.insn	4, 0x32305f53
    41000ed4:	61735f37          	lui	x30,0x61735
    41000ed8:	7074                	.insn	2, 0x7074
    41000eda:	755f 6573 5f72      	.insn	6, 0x5f726573755f
    41000ee0:	6f6d                	.insn	2, 0x6f6d
    41000ee2:	6564                	.insn	2, 0x6564
    41000ee4:	665f 7561 746c      	.insn	6, 0x746c7561665f
	...

0000000041000eeb <dtest_name_16>:
    41000eeb:	5f444953          	.insn	4, 0x5f444953
    41000eef:	4250                	.insn	2, 0x4250
    41000ef1:	4d56                	.insn	2, 0x4d56
    41000ef3:	34305f53          	.insn	4, 0x34305f53
    41000ef7:	5f30                	.insn	2, 0x5f30
    41000ef9:	746e6f63          	bltu	x28,x6,41001657 <__section__runtime_1+0x657>
    41000efd:	7865                	.insn	2, 0x7865
    41000eff:	5f74                	.insn	2, 0x5f74
    41000f01:	6174                	.insn	2, 0x6174
    41000f03:	6c62                	.insn	2, 0x6c62
    41000f05:	5f65                	.insn	2, 0x5f65
    41000f07:	7265766f          	jal	x12,4105862d <__section__code_67+0x62d>
    41000f0b:	6c66                	.insn	2, 0x6c66
    41000f0d:	          	jal	x14,4100843d <__section__runtime_8+0x43d>

0000000041000f10 <dtest_name_17>:
    41000f10:	5f444953          	.insn	4, 0x5f444953
    41000f14:	4250                	.insn	2, 0x4250
    41000f16:	4d56                	.insn	2, 0x4d56
    41000f18:	34305f53          	.insn	4, 0x34305f53
    41000f1c:	5f32                	.insn	2, 0x5f32
    41000f1e:	6f6e6163          	bltu	x28,x22,41001600 <__section__runtime_1+0x600>
    41000f22:	696e                	.insn	2, 0x696e
    41000f24:	5f6c6163          	bltu	x24,x22,41001506 <__section__runtime_1+0x506>
    41000f28:	6f62                	.insn	2, 0x6f62
    41000f2a:	6e75                	.insn	2, 0x6e75
    41000f2c:	6164                	.insn	2, 0x6164
    41000f2e:	7972                	.insn	2, 0x7972
    41000f30:	635f 6f72 7373      	.insn	6, 0x73736f72635f
    41000f36:	6e69                	.insn	2, 0x6e69
    41000f38:	61665f67          	.insn	4, 0x61665f67
    41000f3c:	6c75                	.insn	2, 0x6c75
    41000f3e:	0074                	.insn	2, 0x0074

0000000041000f40 <dtest_name_18>:
    41000f40:	5f444953          	.insn	4, 0x5f444953
    41000f44:	4250                	.insn	2, 0x4250
    41000f46:	4d56                	.insn	2, 0x4d56
    41000f48:	34305f53          	.insn	4, 0x34305f53
    41000f4c:	65665f33          	.insn	4, 0x65665f33
    41000f50:	6374                	.insn	2, 0x6374
    41000f52:	5f68                	.insn	2, 0x5f68
    41000f54:	646e6977          	.insn	4, 0x646e6977
    41000f58:	735f776f          	jal	x14,410f8e8c <__section__code_227+0xe8c>
    41000f5c:	6970                	.insn	2, 0x6970
    41000f5e:	6c6c                	.insn	2, 0x6c6c
    41000f60:	705f 6761 5f65      	.insn	6, 0x5f656761705f
    41000f66:	736f7263          	bgeu	x30,x22,4100168a <__section__runtime_1+0x68a>
    41000f6a:	          	.insn	4, 0xffff0073

0000000041000f6c <dtest_index_map>:
    41000f6c:	ffff                	.insn	2, 0xffff
    41000f6e:	ffff                	.insn	2, 0xffff
    41000f70:	00000007          	vle8.v	v0,(x0),v0.t
    41000f74:	0006                	.insn	2, 0x0006
    41000f76:	0000                	.insn	2, 0x0000
    41000f78:	000e                	.insn	2, 0x000e
    41000f7a:	0000                	.insn	2, 0x0000
    41000f7c:	0008                	.insn	2, 0x0008
    41000f7e:	0000                	.insn	2, 0x0000
    41000f80:	0012                	.insn	2, 0x0012
    41000f82:	0000                	.insn	2, 0x0000
    41000f84:	0005                	.insn	2, 0x0005
    41000f86:	0000                	.insn	2, 0x0000
    41000f88:	0009                	.insn	2, 0x0009
    41000f8a:	0000                	.insn	2, 0x0000
    41000f8c:	0000                	.insn	2, 0x0000
    41000f8e:	0000                	.insn	2, 0x0000
    41000f90:	00000003          	lb	x0,0(x0) # 0 <ALL_4KB_PAGES>
    41000f94:	000c                	.insn	2, 0x000c
    41000f96:	0000                	.insn	2, 0x0000
    41000f98:	0004                	.insn	2, 0x0004
    41000f9a:	0000                	.insn	2, 0x0000
    41000f9c:	000a                	.insn	2, 0x000a
    41000f9e:	0000                	.insn	2, 0x0000
    41000fa0:	0000000f          	fence	unknown,unknown
    41000fa4:	0010                	.insn	2, 0x0010
    41000fa6:	0000                	.insn	2, 0x0000
    41000fa8:	000d                	.insn	2, 0x000d
    41000faa:	0000                	.insn	2, 0x0000
    41000fac:	0000000b          	.insn	4, 0x000b
    41000fb0:	0011                	.insn	2, 0x0011
    41000fb2:	0000                	.insn	2, 0x0000
    41000fb4:	0002                	.insn	2, 0x0002
    41000fb6:	0000                	.insn	2, 0x0000
    41000fb8:	0001                	.insn	2, 0x0001
	...

0000000041000fbc <scheduler__test_setup_ptr>:
    41000fbc:	5120                	.insn	2, 0x5120
    41000fbe:	4101                	.insn	2, 0x4101
    41000fc0:	0000                	.insn	2, 0x0000
	...

0000000041000fc4 <scheduler__test_cleanup_ptr>:
    41000fc4:	6684                	.insn	2, 0x6684
    41000fc6:	4101                	.insn	2, 0x4101
    41000fc8:	0000                	.insn	2, 0x0000
	...

Disassembly of section .runtime_s:

0000000041011000 <trap_handler_s__invalid_interrupt>:
    41011000:	1740006f          	j	41011174 <trap_handler_s__test_failed>

0000000041011004 <trap_handler_s__clear_all_interrupts>:
    41011004:	14401073          	csrw	sip,x0
    41011008:	10200073          	sret

000000004101100c <trap_handler_s___CLEAR_SSI>:
    4101100c:	00200293          	li	x5,2
    41011010:	1442b073          	csrc	sip,x5
    41011014:	10200073          	sret

0000000041011018 <trap_handler_s___CLEAR_MSI>:
    41011018:	00800293          	li	x5,8
    4101101c:	1442b073          	csrc	sip,x5
    41011020:	10200073          	sret

0000000041011024 <trap_handler_s___CLEAR_STI>:
    41011024:	02000293          	li	x5,32
    41011028:	1442b073          	csrc	sip,x5
    4101102c:	10200073          	sret

0000000041011030 <trap_handler_s___CLEAR_MTI>:
    41011030:	08000293          	li	x5,128
    41011034:	1442b073          	csrc	sip,x5
    41011038:	10200073          	sret

000000004101103c <trap_handler_s___CLEAR_SEI>:
    4101103c:	20000293          	li	x5,512
    41011040:	1442b073          	csrc	sip,x5
    41011044:	10200073          	sret

0000000041011048 <trap_handler_s___CLEAR_MEI>:
    41011048:	000012b7          	lui	x5,0x1
    4101104c:	8002829b          	addiw	x5,x5,-2048 # 800 <XLEN+0x7c0>
    41011050:	1442b073          	csrc	sip,x5
    41011054:	10200073          	sret

0000000041011058 <trap_handler_s___CLEAR_COI>:
    41011058:	000022b7          	lui	x5,0x2
    4101105c:	1442b073          	csrc	sip,x5
    41011060:	10200073          	sret

0000000041011064 <trap_handler_s__clear_highest_priority_interrupt>:
    41011064:	144022f3          	csrr	x5,sip
    41011068:	40500333          	neg	x6,x5
    4101106c:	0062f2b3          	and	x5,x5,x6
    41011070:	1442b073          	csrc	sip,x5
    41011074:	10200073          	sret

0000000041011078 <trap_handler_s__trap_entry>:
    41011078:	10c0006f          	j	41011184 <trap_handler_s__trap_handler>

000000004101107c <trap_handler_s__interrupt_vector_table>:
    4101107c:	f91ff06f          	j	4101100c <trap_handler_s___CLEAR_SSI>
    41011080:	f81ff06f          	j	41011000 <trap_handler_s__invalid_interrupt>
    41011084:	f95ff06f          	j	41011018 <trap_handler_s___CLEAR_MSI>
    41011088:	f79ff06f          	j	41011000 <trap_handler_s__invalid_interrupt>
    4101108c:	f99ff06f          	j	41011024 <trap_handler_s___CLEAR_STI>
    41011090:	f71ff06f          	j	41011000 <trap_handler_s__invalid_interrupt>
    41011094:	f9dff06f          	j	41011030 <trap_handler_s___CLEAR_MTI>
    41011098:	f69ff06f          	j	41011000 <trap_handler_s__invalid_interrupt>
    4101109c:	fa1ff06f          	j	4101103c <trap_handler_s___CLEAR_SEI>
    410110a0:	f61ff06f          	j	41011000 <trap_handler_s__invalid_interrupt>
    410110a4:	fa5ff06f          	j	41011048 <trap_handler_s___CLEAR_MEI>
    410110a8:	f59ff06f          	j	41011000 <trap_handler_s__invalid_interrupt>
    410110ac:	fadff06f          	j	41011058 <trap_handler_s___CLEAR_COI>
    410110b0:	f51ff06f          	j	41011000 <trap_handler_s__invalid_interrupt>
    410110b4:	f4dff06f          	j	41011000 <trap_handler_s__invalid_interrupt>
    410110b8:	fadff06f          	j	41011064 <trap_handler_s__clear_highest_priority_interrupt>
    410110bc:	fa9ff06f          	j	41011064 <trap_handler_s__clear_highest_priority_interrupt>
    410110c0:	fa5ff06f          	j	41011064 <trap_handler_s__clear_highest_priority_interrupt>
    410110c4:	fa1ff06f          	j	41011064 <trap_handler_s__clear_highest_priority_interrupt>
    410110c8:	f9dff06f          	j	41011064 <trap_handler_s__clear_highest_priority_interrupt>
    410110cc:	f99ff06f          	j	41011064 <trap_handler_s__clear_highest_priority_interrupt>
    410110d0:	f95ff06f          	j	41011064 <trap_handler_s__clear_highest_priority_interrupt>
    410110d4:	f91ff06f          	j	41011064 <trap_handler_s__clear_highest_priority_interrupt>
    410110d8:	f8dff06f          	j	41011064 <trap_handler_s__clear_highest_priority_interrupt>
    410110dc:	f89ff06f          	j	41011064 <trap_handler_s__clear_highest_priority_interrupt>
    410110e0:	f85ff06f          	j	41011064 <trap_handler_s__clear_highest_priority_interrupt>
    410110e4:	f81ff06f          	j	41011064 <trap_handler_s__clear_highest_priority_interrupt>
    410110e8:	f7dff06f          	j	41011064 <trap_handler_s__clear_highest_priority_interrupt>
    410110ec:	f79ff06f          	j	41011064 <trap_handler_s__clear_highest_priority_interrupt>
    410110f0:	f75ff06f          	j	41011064 <trap_handler_s__clear_highest_priority_interrupt>
    410110f4:	f71ff06f          	j	41011064 <trap_handler_s__clear_highest_priority_interrupt>
    410110f8:	f6dff06f          	j	41011064 <trap_handler_s__clear_highest_priority_interrupt>
    410110fc:	f69ff06f          	j	41011064 <trap_handler_s__clear_highest_priority_interrupt>
    41011100:	f65ff06f          	j	41011064 <trap_handler_s__clear_highest_priority_interrupt>
    41011104:	f61ff06f          	j	41011064 <trap_handler_s__clear_highest_priority_interrupt>
    41011108:	f5dff06f          	j	41011064 <trap_handler_s__clear_highest_priority_interrupt>
    4101110c:	f59ff06f          	j	41011064 <trap_handler_s__clear_highest_priority_interrupt>
    41011110:	f55ff06f          	j	41011064 <trap_handler_s__clear_highest_priority_interrupt>
    41011114:	f51ff06f          	j	41011064 <trap_handler_s__clear_highest_priority_interrupt>
    41011118:	f4dff06f          	j	41011064 <trap_handler_s__clear_highest_priority_interrupt>
    4101111c:	f49ff06f          	j	41011064 <trap_handler_s__clear_highest_priority_interrupt>
    41011120:	f45ff06f          	j	41011064 <trap_handler_s__clear_highest_priority_interrupt>
    41011124:	f41ff06f          	j	41011064 <trap_handler_s__clear_highest_priority_interrupt>
    41011128:	f3dff06f          	j	41011064 <trap_handler_s__clear_highest_priority_interrupt>
    4101112c:	f39ff06f          	j	41011064 <trap_handler_s__clear_highest_priority_interrupt>
    41011130:	f35ff06f          	j	41011064 <trap_handler_s__clear_highest_priority_interrupt>
    41011134:	f31ff06f          	j	41011064 <trap_handler_s__clear_highest_priority_interrupt>
    41011138:	f2dff06f          	j	41011064 <trap_handler_s__clear_highest_priority_interrupt>
    4101113c:	f29ff06f          	j	41011064 <trap_handler_s__clear_highest_priority_interrupt>
    41011140:	f25ff06f          	j	41011064 <trap_handler_s__clear_highest_priority_interrupt>
    41011144:	f21ff06f          	j	41011064 <trap_handler_s__clear_highest_priority_interrupt>
    41011148:	f1dff06f          	j	41011064 <trap_handler_s__clear_highest_priority_interrupt>
    4101114c:	f19ff06f          	j	41011064 <trap_handler_s__clear_highest_priority_interrupt>
    41011150:	f15ff06f          	j	41011064 <trap_handler_s__clear_highest_priority_interrupt>
    41011154:	f11ff06f          	j	41011064 <trap_handler_s__clear_highest_priority_interrupt>
    41011158:	f0dff06f          	j	41011064 <trap_handler_s__clear_highest_priority_interrupt>
    4101115c:	f09ff06f          	j	41011064 <trap_handler_s__clear_highest_priority_interrupt>
    41011160:	f05ff06f          	j	41011064 <trap_handler_s__clear_highest_priority_interrupt>
    41011164:	f01ff06f          	j	41011064 <trap_handler_s__clear_highest_priority_interrupt>
    41011168:	efdff06f          	j	41011064 <trap_handler_s__clear_highest_priority_interrupt>
    4101116c:	ef9ff06f          	j	41011064 <trap_handler_s__clear_highest_priority_interrupt>
    41011170:	ef5ff06f          	j	41011064 <trap_handler_s__clear_highest_priority_interrupt>

0000000041011174 <trap_handler_s__test_failed>:
    41011174:	00f00f9b          	addiw	x31,x0,15
    41011178:	01cf9f93          	slli	x31,x31,0x1c
    4101117c:	002f8f93          	addi	x31,x31,2
    41011180:	00000073          	ecall

0000000041011184 <trap_handler_s__trap_handler>:
    41011184:	142022f3          	csrr	x5,scause
    41011188:	fff0031b          	addiw	x6,x0,-1
    4101118c:	03f31313          	slli	x6,x6,0x3f
    41011190:	00537333          	and	x6,x6,x5
    41011194:	02030263          	beqz	x6,410111b8 <trap_handler_s__exception_path>

0000000041011198 <trap_handler_s__interrupt_handler>:
    41011198:	fff0031b          	addiw	x6,x0,-1
    4101119c:	03f31313          	slli	x6,x6,0x3f
    410111a0:	0062c2b3          	xor	x5,x5,x6
    410111a4:	00000317          	auipc	x6,0x0
    410111a8:	ed430313          	addi	x6,x6,-300 # 41011078 <trap_handler_s__trap_entry>
    410111ac:	00229293          	slli	x5,x5,0x2
    410111b0:	005302b3          	add	x5,x6,x5
    410111b4:	00028067          	jr	x5 # 2000 <mem18>

00000000410111b8 <trap_handler_s__exception_path>:
    410111b8:	14021273          	csrrw	x4,sscratch,x4
    410111bc:	00000297          	auipc	x5,0x0
    410111c0:	0cc28293          	addi	x5,x5,204 # 41011288 <trap_handler_s__trap_panic>
    410111c4:	10529073          	csrw	stvec,x5
    410111c8:	0040006f          	j	410111cc <trap_handler_s__excp_entry>

00000000410111cc <trap_handler_s__excp_entry>:
    410111cc:	14202373          	csrr	x6,scause
    410111d0:	00800293          	li	x5,8
    410111d4:	00534863          	blt	x6,x5,410111e4 <trap_handler_s__check_exception_label>
    410111d8:	00b00293          	li	x5,11
    410111dc:	0062c463          	blt	x5,x6,410111e4 <trap_handler_s__check_exception_label>
    410111e0:	0a80006f          	j	41011288 <trap_handler_s__trap_panic>

00000000410111e4 <trap_handler_s__check_exception_label>:
    410111e4:	04623c23          	sd	x6,88(x4) # 58 <XLEN+0x18>
    410111e8:	141022f3          	csrr	x5,sepc
    410111ec:	02523423          	sd	x5,40(x4) # 28 <SECURE_ACCESS_PROBABILITY+0xa>
    410111f0:	01820283          	lb	x5,24(x4) # 18 <STORE_GUEST_PAGE_FAULT+0x1>
    410111f4:	00029863          	bnez	x5,41011204 <trap_handler_s__check_excp>
    410111f8:	00128293          	addi	x5,x5,1
    410111fc:	00520c23          	sb	x5,24(x4) # 18 <STORE_GUEST_PAGE_FAULT+0x1>
    41011200:	05c0006f          	j	4101125c <trap_handler_s__ecall_from_machine>

0000000041011204 <trap_handler_s__check_excp>:
    41011204:	06823283          	ld	x5,104(x4) # 68 <XLEN+0x28>
    41011208:	06023423          	sd	x0,104(x4) # 68 <XLEN+0x28>
    4101120c:	00028663          	beqz	x5,41011218 <trap_handler_s__skip_mode_check>
    41011210:	00300393          	li	x7,3
    41011214:	f67290e3          	bne	x5,x7,41011174 <trap_handler_s__test_failed>

0000000041011218 <trap_handler_s__skip_mode_check>:
    41011218:	05023283          	ld	x5,80(x4) # 50 <XLEN+0x10>
    4101121c:	04023823          	sd	x0,80(x4) # 50 <XLEN+0x10>
    41011220:	f4531ae3          	bne	x6,x5,41011174 <trap_handler_s__test_failed>
    41011224:	03823283          	ld	x5,56(x4) # 38 <SECURE_ACCESS_PROBABILITY+0x1a>
    41011228:	02023c23          	sd	x0,56(x4) # 38 <SECURE_ACCESS_PROBABILITY+0x1a>
    4101122c:	02029663          	bnez	x5,41011258 <trap_handler_s__skip_nonzero_tval_check>
    41011230:	02023303          	ld	x6,32(x4) # 20 <SECURE_ACCESS_PROBABILITY+0x2>
    41011234:	02023023          	sd	x0,32(x4) # 20 <SECURE_ACCESS_PROBABILITY+0x2>
    41011238:	02823283          	ld	x5,40(x4) # 28 <SECURE_ACCESS_PROBABILITY+0xa>
    4101123c:	02023423          	sd	x0,40(x4) # 28 <SECURE_ACCESS_PROBABILITY+0xa>
    41011240:	f2531ae3          	bne	x6,x5,41011174 <trap_handler_s__test_failed>
    41011244:	04023283          	ld	x5,64(x4) # 40 <XLEN>
    41011248:	04023023          	sd	x0,64(x4) # 40 <XLEN>
    4101124c:	00028663          	beqz	x5,41011258 <trap_handler_s__skip_nonzero_tval_check>

0000000041011250 <trap_handler_s__nonzero_tval_check>:
    41011250:	14302373          	csrr	x6,stval
    41011254:	f25310e3          	bne	x6,x5,41011174 <trap_handler_s__test_failed>

0000000041011258 <trap_handler_s__skip_nonzero_tval_check>:
    41011258:	0040006f          	j	4101125c <trap_handler_s__ecall_from_machine>

000000004101125c <trap_handler_s__ecall_from_machine>:
    4101125c:	03023283          	ld	x5,48(x4) # 30 <SECURE_ACCESS_PROBABILITY+0x12>
    41011260:	02023823          	sd	x0,48(x4) # 30 <SECURE_ACCESS_PROBABILITY+0x12>
    41011264:	07023303          	ld	x6,112(x4) # 70 <XLEN+0x30>
    41011268:	06023823          	sd	x0,112(x4) # 70 <XLEN+0x30>
    4101126c:	00031463          	bnez	x6,41011274 <trap_handler_s__skip_xepc_write>
    41011270:	14129073          	csrw	sepc,x5

0000000041011274 <trap_handler_s__skip_xepc_write>:
    41011274:	00000317          	auipc	x6,0x0
    41011278:	e0430313          	addi	x6,x6,-508 # 41011078 <trap_handler_s__trap_entry>
    4101127c:	10531073          	csrw	stvec,x6
    41011280:	14021273          	csrrw	x4,sscratch,x4
    41011284:	10200073          	sret

0000000041011288 <trap_handler_s__trap_panic>:
    41011288:	00000193          	li	x3,0
    4101128c:	00f00f9b          	addiw	x31,x0,15
    41011290:	01cf9f93          	slli	x31,x31,0x1c
    41011294:	002f8f93          	addi	x31,x31,2
    41011298:	00000073          	ecall

Disassembly of section .code:

00000000410150f0 <passed>:
    410150f0:	00f00f9b          	addiw	x31,x0,15
    410150f4:	01cf9f93          	slli	x31,x31,0x1c
    410150f8:	001f8f93          	addi	x31,x31,1
    410150fc:	00000073          	ecall

0000000041015100 <failed>:
    41015100:	00f00f9b          	addiw	x31,x0,15
    41015104:	01cf9f93          	slli	x31,x31,0x1c
    41015108:	002f8f93          	addi	x31,x31,2
    4101510c:	00000073          	ecall

0000000041015110 <end_test>:
    41015110:	00f00f9b          	addiw	x31,x0,15
    41015114:	01cf9f93          	slli	x31,x31,0x1c
    41015118:	003f8f93          	addi	x31,x31,3
    4101511c:	00000073          	ecall

0000000041015120 <test_setup>:
    41015120:	00f00f9b          	addiw	x31,x0,15
    41015124:	01cf9f93          	slli	x31,x31,0x1c
    41015128:	001f8f93          	addi	x31,x31,1
    4101512c:	00000073          	ecall

0000000041015130 <SID_PBVMS_001_ptw_no_faults_all_access_types>:
    41015130:	00102137          	lui	x2,0x102
    41015134:	fd51011b          	addiw	x2,x2,-43 # 101fd5 <code_mem27+0x21fd5>
    41015138:	00c11113          	slli	x2,x2,0xc
    4101513c:	000012b7          	lui	x5,0x1
    41015140:	00510133          	add	x2,x2,x5
    41015144:	ff017113          	andi	x2,x2,-16
    41015148:	00050ab7          	lui	x21,0x50
    4101514c:	000aae03          	lw	x28,0(x21) # 50000 <mem0>
    41015150:	000506b7          	lui	x13,0x50
    41015154:	0005d8b7          	lui	x17,0x5d
    41015158:	e9d8889b          	addiw	x17,x17,-355 # 5ce9d <mem0+0xce9d>
    4101515c:	00d89893          	slli	x17,x17,0xd
    41015160:	ccd88893          	addi	x17,x17,-819
    41015164:	d018fdd3          	fcvt.s.wu	f27,x17
    41015168:	01b6b027          	fsd	f27,0(x13) # 50000 <mem0>
    4101516c:	00050ab7          	lui	x21,0x50
    41015170:	00000593          	li	x11,0
    41015174:	00ba8f33          	add	x30,x21,x11
    41015178:	000f282f          	amoadd.w	x16,x0,(x30)
    4101517c:	00027f37          	lui	x30,0x27
    41015180:	000f00e7          	jalr	x30 # 27000 <code_mem1>

0000000041015184 <SID_PBVMS_001_ptw_no_faults_all_access_types_passed>:
    41015184:	00f00f9b          	addiw	x31,x0,15
    41015188:	01cf9f93          	slli	x31,x31,0x1c
    4101518c:	001f8f93          	addi	x31,x31,1
    41015190:	00000073          	ecall

0000000041015194 <SID_PBVMS_003_ptw_all_privilege_modes>:
    41015194:	003f1137          	lui	x2,0x3f1
    41015198:	000012b7          	lui	x5,0x1
    4101519c:	00510133          	add	x2,x2,x5
    410151a0:	ff017113          	andi	x2,x2,-16
    410151a4:	00180fb7          	lui	x31,0x180
    410151a8:	000fbb87          	fld	f23,0(x31) # 180000 <mem2>
    410151ac:	00180b37          	lui	x22,0x180
    410151b0:	4da4ec37          	lui	x24,0x4da4e
    410151b4:	aeec0c1b          	addiw	x24,x24,-1298 # 4da4daee <pma_region_2_end+0x8a0caee>
    410151b8:	018b1023          	sh	x24,0(x22) # 180000 <mem2>

00000000410151bc <SID_PBVMS_003_ptw_all_privilege_modes_passed>:
    410151bc:	00f00f9b          	addiw	x31,x0,15
    410151c0:	01cf9f93          	slli	x31,x31,0x1c
    410151c4:	001f8f93          	addi	x31,x31,1
    410151c8:	00000073          	ecall

00000000410151cc <SID_PBVMS_006_ptw_page_boundary_crossing>:
    410151cc:	0000d137          	lui	x2,0xd
    410151d0:	2571011b          	addiw	x2,x2,599 # d257 <mem5+0x1257>
    410151d4:	01011113          	slli	x2,x2,0x10
    410151d8:	000012b7          	lui	x5,0x1
    410151dc:	00510133          	add	x2,x2,x5
    410151e0:	ff017113          	andi	x2,x2,-16
    410151e4:	03a00637          	lui	x12,0x3a00
    410151e8:	00001b37          	lui	x22,0x1
    410151ec:	ff8b0b1b          	addiw	x22,x22,-8 # ff8 <XLEN+0xfb8>
    410151f0:	01660c33          	add	x24,x12,x22
    410151f4:	000c3607          	fld	f12,0(x24)
    410151f8:	03a00f37          	lui	x30,0x3a00
    410151fc:	00001e37          	lui	x28,0x1
    41015200:	ff8e0e1b          	addiw	x28,x28,-8 # ff8 <XLEN+0xfb8>
    41015204:	01cf0433          	add	x8,x30,x28
    41015208:	0002f937          	lui	x18,0x2f
    4101520c:	c799091b          	addiw	x18,x18,-903 # 2ec79 <code_mem1+0x7c79>
    41015210:	00e91913          	slli	x18,x18,0xe
    41015214:	86f90913          	addi	x18,x18,-1937
    41015218:	01241023          	sh	x18,0(x8)
    4101521c:	03a00e37          	lui	x28,0x3a00
    41015220:	00001337          	lui	x6,0x1
    41015224:	ff83031b          	addiw	x6,x6,-8 # ff8 <XLEN+0xfb8>
    41015228:	006e07b3          	add	x15,x28,x6
    4101522c:	00001e37          	lui	x28,0x1
    41015230:	ff8e0e1b          	addiw	x28,x28,-8 # ff8 <XLEN+0xfb8>
    41015234:	01c7b5af          	amoadd.d	x11,x28,(x15)
    41015238:	002a74b7          	lui	x9,0x2a7
    4101523c:	000480e7          	jalr	x9 # 2a7000 <code_mem4>

0000000041015240 <SID_PBVMS_006_ptw_page_boundary_crossing_passed>:
    41015240:	00f00f9b          	addiw	x31,x0,15
    41015244:	01cf9f93          	slli	x31,x31,0x1c
    41015248:	001f8f93          	addi	x31,x31,1
    4101524c:	00000073          	ecall

0000000041015250 <SID_PBVMS_008_va_sign_extension_fault>:
    41015250:	00e1a137          	lui	x2,0xe1a
    41015254:	e7b1011b          	addiw	x2,x2,-389 # e19e7b <mem14+0x8f4e7b>
    41015258:	00d11113          	slli	x2,x2,0xd
    4101525c:	000012b7          	lui	x5,0x1
    41015260:	00510133          	add	x2,x2,x5
    41015264:	ff017113          	andi	x2,x2,-16
    41015268:	114c7237          	lui	x4,0x114c7
    4101526c:	00d00e13          	li	x28,13
    41015270:	05c23823          	sd	x28,80(x4) # 114c7050 <check_excp_expected_cause>
    41015274:	00000e17          	auipc	x28,0x0
    41015278:	058e0e13          	addi	x28,x28,88 # 410152cc <fault_label_0>
    4101527c:	03c23023          	sd	x28,32(x4) # 20 <SECURE_ACCESS_PROBABILITY+0x2>
    41015280:	00000e13          	li	x28,0
    41015284:	05c23023          	sd	x28,64(x4) # 40 <XLEN>
    41015288:	00000e13          	li	x28,0
    4101528c:	05c23423          	sd	x28,72(x4) # 48 <XLEN+0x8>
    41015290:	00000e17          	auipc	x28,0x0
    41015294:	058e0e13          	addi	x28,x28,88 # 410152e8 <SID_PBVMS_008_va_sign_extension_fault_passed>
    41015298:	03c23823          	sd	x28,48(x4) # 30 <SECURE_ACCESS_PROBABILITY+0x12>
    4101529c:	00000e13          	li	x28,0
    410152a0:	03c23c23          	sd	x28,56(x4) # 38 <SECURE_ACCESS_PROBABILITY+0x1a>
    410152a4:	00000e13          	li	x28,0
    410152a8:	07c23023          	sd	x28,96(x4) # 60 <XLEN+0x20>
    410152ac:	00000e13          	li	x28,0
    410152b0:	07c23423          	sd	x28,104(x4) # 68 <XLEN+0x28>
    410152b4:	00000e13          	li	x28,0
    410152b8:	07c23823          	sd	x28,112(x4) # 70 <XLEN+0x30>
    410152bc:	0000c737          	lui	x14,0xc
    410152c0:	fff00c9b          	addiw	x25,x0,-1
    410152c4:	03fc9c93          	slli	x25,x25,0x3f
    410152c8:	019706b3          	add	x13,x14,x25

00000000410152cc <fault_label_0>:
    410152cc:	00068f03          	lb	x30,0(x13)
    410152d0:	002ba4b7          	lui	x9,0x2ba
    410152d4:	1134849b          	addiw	x9,x9,275 # 2ba113 <hart_stack_0_end+0x10113>
    410152d8:	00e49493          	slli	x9,x9,0xe
    410152dc:	00848493          	addi	x9,x9,8
    410152e0:	0004bf03          	ld	x30,0(x9)
    410152e4:	000f0067          	jr	x30 # 3a00000 <mem3>

00000000410152e8 <SID_PBVMS_008_va_sign_extension_fault_passed>:
    410152e8:	00f00f9b          	addiw	x31,x0,15
    410152ec:	01cf9f93          	slli	x31,x31,0x1c
    410152f0:	001f8f93          	addi	x31,x31,1
    410152f4:	00000073          	ecall

00000000410152f8 <SID_PBVMS_009_superpage_alignment_fault>:
    410152f8:	00030137          	lui	x2,0x30
    410152fc:	000012b7          	lui	x5,0x1
    41015300:	00510133          	add	x2,x2,x5
    41015304:	ff017113          	andi	x2,x2,-16
    41015308:	002bafb7          	lui	x31,0x2ba
    4101530c:	113f8f9b          	addiw	x31,x31,275 # 2ba113 <hart_stack_0_end+0x10113>
    41015310:	00ef9f93          	slli	x31,x31,0xe
    41015314:	0b0f8f93          	addi	x31,x31,176
    41015318:	0010029b          	addiw	x5,x0,1
    4101531c:	01f29293          	slli	x5,x5,0x1f
    41015320:	005fb023          	sd	x5,0(x31)
    41015324:	00100293          	li	x5,1
    41015328:	005fb423          	sd	x5,8(x31)
    4101532c:	fff00293          	li	x5,-1
    41015330:	005fb823          	sd	x5,16(x31)
    41015334:	000f0fb7          	lui	x31,0xf0
    41015338:	001f8f9b          	addiw	x31,x31,1 # f0001 <code_mem27+0x10001>
    4101533c:	00cf9f93          	slli	x31,x31,0xc
    41015340:	007f8f93          	addi	x31,x31,7
    41015344:	00000073          	ecall
    41015348:	40000793          	li	x15,1024
    4101534c:	00f3e733          	or	x14,x7,x15
    41015350:	00070393          	mv	x7,x14
    41015354:	002bafb7          	lui	x31,0x2ba
    41015358:	113f8f9b          	addiw	x31,x31,275 # 2ba113 <hart_stack_0_end+0x10113>
    4101535c:	00ef9f93          	slli	x31,x31,0xe
    41015360:	0b0f8f93          	addi	x31,x31,176
    41015364:	0010029b          	addiw	x5,x0,1
    41015368:	01f29293          	slli	x5,x5,0x1f
    4101536c:	005fb023          	sd	x5,0(x31)
    41015370:	00100293          	li	x5,1
    41015374:	005fb423          	sd	x5,8(x31)
    41015378:	fff00293          	li	x5,-1
    4101537c:	005fb823          	sd	x5,16(x31)
    41015380:	000f0fb7          	lui	x31,0xf0
    41015384:	001f8f9b          	addiw	x31,x31,1 # f0001 <code_mem27+0x10001>
    41015388:	00cf9f93          	slli	x31,x31,0xc
    4101538c:	008f8f93          	addi	x31,x31,8
    41015390:	00000073          	ecall
    41015394:	114c7237          	lui	x4,0x114c7
    41015398:	00d00e13          	li	x28,13
    4101539c:	05c23823          	sd	x28,80(x4) # 114c7050 <check_excp_expected_cause>
    410153a0:	00000e17          	auipc	x28,0x0
    410153a4:	050e0e13          	addi	x28,x28,80 # 410153f0 <fault_label_1>
    410153a8:	03c23023          	sd	x28,32(x4) # 20 <SECURE_ACCESS_PROBABILITY+0x2>
    410153ac:	00000e13          	li	x28,0
    410153b0:	05c23023          	sd	x28,64(x4) # 40 <XLEN>
    410153b4:	00000e13          	li	x28,0
    410153b8:	05c23423          	sd	x28,72(x4) # 48 <XLEN+0x8>
    410153bc:	00000e17          	auipc	x28,0x0
    410153c0:	050e0e13          	addi	x28,x28,80 # 4101540c <excp_return_label_1>
    410153c4:	03c23823          	sd	x28,48(x4) # 30 <SECURE_ACCESS_PROBABILITY+0x12>
    410153c8:	00000e13          	li	x28,0
    410153cc:	03c23c23          	sd	x28,56(x4) # 38 <SECURE_ACCESS_PROBABILITY+0x1a>
    410153d0:	00000e13          	li	x28,0
    410153d4:	07c23023          	sd	x28,96(x4) # 60 <XLEN+0x20>
    410153d8:	00000e13          	li	x28,0
    410153dc:	07c23423          	sd	x28,104(x4) # 68 <XLEN+0x28>
    410153e0:	00000e13          	li	x28,0
    410153e4:	07c23823          	sd	x28,112(x4) # 70 <XLEN+0x30>
    410153e8:	0010069b          	addiw	x13,x0,1
    410153ec:	01f69693          	slli	x13,x13,0x1f

00000000410153f0 <fault_label_1>:
    410153f0:	0006af87          	flw	f31,0(x13)
    410153f4:	002ba437          	lui	x8,0x2ba
    410153f8:	1134041b          	addiw	x8,x8,275 # 2ba113 <hart_stack_0_end+0x10113>
    410153fc:	00e41413          	slli	x8,x8,0xe
    41015400:	00840413          	addi	x8,x8,8
    41015404:	00043c03          	ld	x24,0(x8)
    41015408:	000c0067          	jr	x24

000000004101540c <excp_return_label_1>:
    4101540c:	114c7237          	lui	x4,0x114c7
    41015410:	00f00e13          	li	x28,15
    41015414:	05c23823          	sd	x28,80(x4) # 114c7050 <check_excp_expected_cause>
    41015418:	00000e17          	auipc	x28,0x0
    4101541c:	060e0e13          	addi	x28,x28,96 # 41015478 <fault_label_2>
    41015420:	03c23023          	sd	x28,32(x4) # 20 <SECURE_ACCESS_PROBABILITY+0x2>
    41015424:	00000e13          	li	x28,0
    41015428:	05c23023          	sd	x28,64(x4) # 40 <XLEN>
    4101542c:	00000e13          	li	x28,0
    41015430:	05c23423          	sd	x28,72(x4) # 48 <XLEN+0x8>
    41015434:	00000e17          	auipc	x28,0x0
    41015438:	060e0e13          	addi	x28,x28,96 # 41015494 <excp_return_label_2>
    4101543c:	03c23823          	sd	x28,48(x4) # 30 <SECURE_ACCESS_PROBABILITY+0x12>
    41015440:	00000e13          	li	x28,0
    41015444:	03c23c23          	sd	x28,56(x4) # 38 <SECURE_ACCESS_PROBABILITY+0x1a>
    41015448:	00000e13          	li	x28,0
    4101544c:	07c23023          	sd	x28,96(x4) # 60 <XLEN+0x20>
    41015450:	00000e13          	li	x28,0
    41015454:	07c23423          	sd	x28,104(x4) # 68 <XLEN+0x28>
    41015458:	00000e13          	li	x28,0
    4101545c:	07c23823          	sd	x28,112(x4) # 70 <XLEN+0x30>
    41015460:	0010039b          	addiw	x7,x0,1
    41015464:	01f39393          	slli	x7,x7,0x1f
    41015468:	00003c37          	lui	x24,0x3
    4101546c:	6a7c0c1b          	addiw	x24,x24,1703 # 36a7 <_all_interrupts+0xbfd>
    41015470:	012c1c13          	slli	x24,x24,0x12
    41015474:	25dc0c13          	addi	x24,x24,605

0000000041015478 <fault_label_2>:
    41015478:	0183b023          	sd	x24,0(x7)
    4101547c:	002ba4b7          	lui	x9,0x2ba
    41015480:	1134849b          	addiw	x9,x9,275 # 2ba113 <hart_stack_0_end+0x10113>
    41015484:	00e49493          	slli	x9,x9,0xe
    41015488:	00848493          	addi	x9,x9,8
    4101548c:	0004b503          	ld	x10,0(x9)
    41015490:	00050067          	jr	x10

0000000041015494 <excp_return_label_2>:
    41015494:	114c7237          	lui	x4,0x114c7
    41015498:	00f00e13          	li	x28,15
    4101549c:	05c23823          	sd	x28,80(x4) # 114c7050 <check_excp_expected_cause>
    410154a0:	00000e17          	auipc	x28,0x0
    410154a4:	058e0e13          	addi	x28,x28,88 # 410154f8 <fault_label_3>
    410154a8:	03c23023          	sd	x28,32(x4) # 20 <SECURE_ACCESS_PROBABILITY+0x2>
    410154ac:	00000e13          	li	x28,0
    410154b0:	05c23023          	sd	x28,64(x4) # 40 <XLEN>
    410154b4:	00000e13          	li	x28,0
    410154b8:	05c23423          	sd	x28,72(x4) # 48 <XLEN+0x8>
    410154bc:	00000e17          	auipc	x28,0x0
    410154c0:	058e0e13          	addi	x28,x28,88 # 41015514 <SID_PBVMS_009_superpage_alignment_fault_passed>
    410154c4:	03c23823          	sd	x28,48(x4) # 30 <SECURE_ACCESS_PROBABILITY+0x12>
    410154c8:	00000e13          	li	x28,0
    410154cc:	03c23c23          	sd	x28,56(x4) # 38 <SECURE_ACCESS_PROBABILITY+0x1a>
    410154d0:	00000e13          	li	x28,0
    410154d4:	07c23023          	sd	x28,96(x4) # 60 <XLEN+0x20>
    410154d8:	00000e13          	li	x28,0
    410154dc:	07c23423          	sd	x28,104(x4) # 68 <XLEN+0x28>
    410154e0:	00000e13          	li	x28,0
    410154e4:	07c23823          	sd	x28,112(x4) # 70 <XLEN+0x30>
    410154e8:	00100c9b          	addiw	x25,x0,1
    410154ec:	01fc9c93          	slli	x25,x25,0x1f
    410154f0:	00000d13          	li	x26,0
    410154f4:	01ac8933          	add	x18,x25,x26

00000000410154f8 <fault_label_3>:
    410154f8:	00092aaf          	amoadd.w	x21,x0,(x18)
    410154fc:	002ba537          	lui	x10,0x2ba
    41015500:	1135051b          	addiw	x10,x10,275 # 2ba113 <hart_stack_0_end+0x10113>
    41015504:	00e51513          	slli	x10,x10,0xe
    41015508:	00850513          	addi	x10,x10,8
    4101550c:	00053303          	ld	x6,0(x10)
    41015510:	00030067          	jr	x6

0000000041015514 <SID_PBVMS_009_superpage_alignment_fault_passed>:
    41015514:	00f00f9b          	addiw	x31,x0,15
    41015518:	01cf9f93          	slli	x31,x31,0x1c
    4101551c:	001f8f93          	addi	x31,x31,1
    41015520:	00000073          	ecall

0000000041015524 <SID_PBVMS_011_ptw_fault_boundary_crossing>:
    41015524:	01610137          	lui	x2,0x1610
    41015528:	f691011b          	addiw	x2,x2,-151 # 160ff69 <SID_PBVMS_013_ptw_permission_encodings_stack+0x105f69>
    4101552c:	00c11113          	slli	x2,x2,0xc
    41015530:	000012b7          	lui	x5,0x1
    41015534:	00510133          	add	x2,x2,x5
    41015538:	ff017113          	andi	x2,x2,-16
    4101553c:	03c003b7          	lui	x7,0x3c00
    41015540:	0003cf03          	lbu	x30,0(x7) # 3c00000 <mem7>
    41015544:	114c7237          	lui	x4,0x114c7
    41015548:	00d00e13          	li	x28,13
    4101554c:	05c23823          	sd	x28,80(x4) # 114c7050 <check_excp_expected_cause>
    41015550:	00000e17          	auipc	x28,0x0
    41015554:	060e0e13          	addi	x28,x28,96 # 410155b0 <fault_label_4>
    41015558:	03c23023          	sd	x28,32(x4) # 20 <SECURE_ACCESS_PROBABILITY+0x2>
    4101555c:	00000e13          	li	x28,0
    41015560:	05c23023          	sd	x28,64(x4) # 40 <XLEN>
    41015564:	00000e13          	li	x28,0
    41015568:	05c23423          	sd	x28,72(x4) # 48 <XLEN+0x8>
    4101556c:	00000e17          	auipc	x28,0x0
    41015570:	060e0e13          	addi	x28,x28,96 # 410155cc <excp_return_label_4>
    41015574:	03c23823          	sd	x28,48(x4) # 30 <SECURE_ACCESS_PROBABILITY+0x12>
    41015578:	00000e13          	li	x28,0
    4101557c:	03c23c23          	sd	x28,56(x4) # 38 <SECURE_ACCESS_PROBABILITY+0x1a>
    41015580:	00000e13          	li	x28,0
    41015584:	07c23023          	sd	x28,96(x4) # 60 <XLEN+0x20>
    41015588:	00000e13          	li	x28,0
    4101558c:	07c23423          	sd	x28,104(x4) # 68 <XLEN+0x28>
    41015590:	00000e13          	li	x28,0
    41015594:	07c23823          	sd	x28,112(x4) # 70 <XLEN+0x30>
    41015598:	ffff5337          	lui	x6,0xffff5
    4101559c:	5a13031b          	addiw	x6,x6,1441 # ffffffffffff55a1 <mem8+0x154bdf55a1>
    410155a0:	01531313          	slli	x6,x6,0x15
    410155a4:	000019b7          	lui	x19,0x1
    410155a8:	ffa9899b          	addiw	x19,x19,-6 # ffa <XLEN+0xfba>
    410155ac:	01330833          	add	x16,x6,x19

00000000410155b0 <fault_label_4>:
    410155b0:	00083603          	ld	x12,0(x16)
    410155b4:	002ba737          	lui	x14,0x2ba
    410155b8:	1137071b          	addiw	x14,x14,275 # 2ba113 <hart_stack_0_end+0x10113>
    410155bc:	00e71713          	slli	x14,x14,0xe
    410155c0:	00870713          	addi	x14,x14,8
    410155c4:	00073803          	ld	x16,0(x14)
    410155c8:	00080067          	jr	x16

00000000410155cc <excp_return_label_4>:
    410155cc:	114c7237          	lui	x4,0x114c7
    410155d0:	00f00e13          	li	x28,15
    410155d4:	05c23823          	sd	x28,80(x4) # 114c7050 <check_excp_expected_cause>
    410155d8:	00000e17          	auipc	x28,0x0
    410155dc:	068e0e13          	addi	x28,x28,104 # 41015640 <fault_label_5>
    410155e0:	03c23023          	sd	x28,32(x4) # 20 <SECURE_ACCESS_PROBABILITY+0x2>
    410155e4:	00000e13          	li	x28,0
    410155e8:	05c23023          	sd	x28,64(x4) # 40 <XLEN>
    410155ec:	00000e13          	li	x28,0
    410155f0:	05c23423          	sd	x28,72(x4) # 48 <XLEN+0x8>
    410155f4:	00000e17          	auipc	x28,0x0
    410155f8:	068e0e13          	addi	x28,x28,104 # 4101565c <SID_PBVMS_011_ptw_fault_boundary_crossing_passed>
    410155fc:	03c23823          	sd	x28,48(x4) # 30 <SECURE_ACCESS_PROBABILITY+0x12>
    41015600:	00000e13          	li	x28,0
    41015604:	03c23c23          	sd	x28,56(x4) # 38 <SECURE_ACCESS_PROBABILITY+0x1a>
    41015608:	00000e13          	li	x28,0
    4101560c:	07c23023          	sd	x28,96(x4) # 60 <XLEN+0x20>
    41015610:	00000e13          	li	x28,0
    41015614:	07c23423          	sd	x28,104(x4) # 68 <XLEN+0x28>
    41015618:	00000e13          	li	x28,0
    4101561c:	07c23823          	sd	x28,112(x4) # 70 <XLEN+0x30>
    41015620:	ffff57b7          	lui	x15,0xffff5
    41015624:	5a17879b          	addiw	x15,x15,1441 # ffffffffffff55a1 <mem8+0x154bdf55a1>
    41015628:	01579793          	slli	x15,x15,0x15
    4101562c:	00001eb7          	lui	x29,0x1
    41015630:	ffae8e9b          	addiw	x29,x29,-6 # ffa <XLEN+0xfba>
    41015634:	01d78733          	add	x14,x15,x29
    41015638:	067d0437          	lui	x8,0x67d0
    4101563c:	dce4041b          	addiw	x8,x8,-562 # 67cfdce <code_mem24+0x822dce>

0000000041015640 <fault_label_5>:
    41015640:	00870023          	sb	x8,0(x14)
    41015644:	002bad37          	lui	x26,0x2ba
    41015648:	113d0d1b          	addiw	x26,x26,275 # 2ba113 <hart_stack_0_end+0x10113>
    4101564c:	00ed1d13          	slli	x26,x26,0xe
    41015650:	008d0d13          	addi	x26,x26,8
    41015654:	000d3983          	ld	x19,0(x26)
    41015658:	00098067          	jr	x19

000000004101565c <SID_PBVMS_011_ptw_fault_boundary_crossing_passed>:
    4101565c:	00f00f9b          	addiw	x31,x0,15
    41015660:	01cf9f93          	slli	x31,x31,0x1c
    41015664:	001f8f93          	addi	x31,x31,1
    41015668:	00000073          	ecall

000000004101566c <SID_PBVMS_012_ptw_fault_prioritization>:
    4101566c:	01f02137          	lui	x2,0x1f02
    41015670:	1191011b          	addiw	x2,x2,281 # 1f02119 <SID_PBVMS_013_ptw_permission_encodings_stack+0x9f8119>
    41015674:	00d11113          	slli	x2,x2,0xd
    41015678:	000012b7          	lui	x5,0x1
    4101567c:	00510133          	add	x2,x2,x5
    41015680:	ff017113          	andi	x2,x2,-16
    41015684:	114c7237          	lui	x4,0x114c7
    41015688:	00d00e13          	li	x28,13
    4101568c:	05c23823          	sd	x28,80(x4) # 114c7050 <check_excp_expected_cause>
    41015690:	00000e17          	auipc	x28,0x0
    41015694:	050e0e13          	addi	x28,x28,80 # 410156e0 <fault_label_6>
    41015698:	03c23023          	sd	x28,32(x4) # 20 <SECURE_ACCESS_PROBABILITY+0x2>
    4101569c:	00000e13          	li	x28,0
    410156a0:	05c23023          	sd	x28,64(x4) # 40 <XLEN>
    410156a4:	00000e13          	li	x28,0
    410156a8:	05c23423          	sd	x28,72(x4) # 48 <XLEN+0x8>
    410156ac:	00000e17          	auipc	x28,0x0
    410156b0:	050e0e13          	addi	x28,x28,80 # 410156fc <excp_return_label_6>
    410156b4:	03c23823          	sd	x28,48(x4) # 30 <SECURE_ACCESS_PROBABILITY+0x12>
    410156b8:	00000e13          	li	x28,0
    410156bc:	03c23c23          	sd	x28,56(x4) # 38 <SECURE_ACCESS_PROBABILITY+0x1a>
    410156c0:	00000e13          	li	x28,0
    410156c4:	07c23023          	sd	x28,96(x4) # 60 <XLEN+0x20>
    410156c8:	00000e13          	li	x28,0
    410156cc:	07c23423          	sd	x28,104(x4) # 68 <XLEN+0x28>
    410156d0:	00000e13          	li	x28,0
    410156d4:	07c23823          	sd	x28,112(x4) # 70 <XLEN+0x30>
    410156d8:	0250039b          	addiw	x7,x0,37
    410156dc:	01f39393          	slli	x7,x7,0x1f

00000000410156e0 <fault_label_6>:
    410156e0:	00038303          	lb	x6,0(x7)
    410156e4:	002ba9b7          	lui	x19,0x2ba
    410156e8:	1139899b          	addiw	x19,x19,275 # 2ba113 <hart_stack_0_end+0x10113>
    410156ec:	00e99993          	slli	x19,x19,0xe
    410156f0:	00898993          	addi	x19,x19,8
    410156f4:	0009be03          	ld	x28,0(x19)
    410156f8:	000e0067          	jr	x28

00000000410156fc <excp_return_label_6>:
    410156fc:	114c7237          	lui	x4,0x114c7
    41015700:	00d00e13          	li	x28,13
    41015704:	05c23823          	sd	x28,80(x4) # 114c7050 <check_excp_expected_cause>
    41015708:	00000e17          	auipc	x28,0x0
    4101570c:	050e0e13          	addi	x28,x28,80 # 41015758 <fault_label_7>
    41015710:	03c23023          	sd	x28,32(x4) # 20 <SECURE_ACCESS_PROBABILITY+0x2>
    41015714:	00000e13          	li	x28,0
    41015718:	05c23023          	sd	x28,64(x4) # 40 <XLEN>
    4101571c:	00000e13          	li	x28,0
    41015720:	05c23423          	sd	x28,72(x4) # 48 <XLEN+0x8>
    41015724:	00000e17          	auipc	x28,0x0
    41015728:	050e0e13          	addi	x28,x28,80 # 41015774 <excp_return_label_7>
    4101572c:	03c23823          	sd	x28,48(x4) # 30 <SECURE_ACCESS_PROBABILITY+0x12>
    41015730:	00000e13          	li	x28,0
    41015734:	03c23c23          	sd	x28,56(x4) # 38 <SECURE_ACCESS_PROBABILITY+0x1a>
    41015738:	00000e13          	li	x28,0
    4101573c:	07c23023          	sd	x28,96(x4) # 60 <XLEN+0x20>
    41015740:	00000e13          	li	x28,0
    41015744:	07c23423          	sd	x28,104(x4) # 68 <XLEN+0x28>
    41015748:	00000e13          	li	x28,0
    4101574c:	07c23823          	sd	x28,112(x4) # 70 <XLEN+0x30>
    41015750:	02f00f1b          	addiw	x30,x0,47
    41015754:	01ff1f13          	slli	x30,x30,0x1f

0000000041015758 <fault_label_7>:
    41015758:	000f1983          	lh	x19,0(x30)
    4101575c:	002bae37          	lui	x28,0x2ba
    41015760:	113e0e1b          	addiw	x28,x28,275 # 2ba113 <hart_stack_0_end+0x10113>
    41015764:	00ee1e13          	slli	x28,x28,0xe
    41015768:	008e0e13          	addi	x28,x28,8
    4101576c:	000e3583          	ld	x11,0(x28)
    41015770:	00058067          	jr	x11

0000000041015774 <excp_return_label_7>:
    41015774:	114c7237          	lui	x4,0x114c7
    41015778:	00d00e13          	li	x28,13
    4101577c:	05c23823          	sd	x28,80(x4) # 114c7050 <check_excp_expected_cause>
    41015780:	00000e17          	auipc	x28,0x0
    41015784:	050e0e13          	addi	x28,x28,80 # 410157d0 <fault_label_8>
    41015788:	03c23023          	sd	x28,32(x4) # 20 <SECURE_ACCESS_PROBABILITY+0x2>
    4101578c:	00000e13          	li	x28,0
    41015790:	05c23023          	sd	x28,64(x4) # 40 <XLEN>
    41015794:	00000e13          	li	x28,0
    41015798:	05c23423          	sd	x28,72(x4) # 48 <XLEN+0x8>
    4101579c:	00000e17          	auipc	x28,0x0
    410157a0:	050e0e13          	addi	x28,x28,80 # 410157ec <SID_PBVMS_012_ptw_fault_prioritization_passed>
    410157a4:	03c23823          	sd	x28,48(x4) # 30 <SECURE_ACCESS_PROBABILITY+0x12>
    410157a8:	00000e13          	li	x28,0
    410157ac:	03c23c23          	sd	x28,56(x4) # 38 <SECURE_ACCESS_PROBABILITY+0x1a>
    410157b0:	00000e13          	li	x28,0
    410157b4:	07c23023          	sd	x28,96(x4) # 60 <XLEN+0x20>
    410157b8:	00000e13          	li	x28,0
    410157bc:	07c23423          	sd	x28,104(x4) # 68 <XLEN+0x28>
    410157c0:	00000e13          	li	x28,0
    410157c4:	07c23823          	sd	x28,112(x4) # 70 <XLEN+0x30>
    410157c8:	06f0091b          	addiw	x18,x0,111
    410157cc:	01e91913          	slli	x18,x18,0x1e

00000000410157d0 <fault_label_8>:
    410157d0:	00093a83          	ld	x21,0(x18)
    410157d4:	002badb7          	lui	x27,0x2ba
    410157d8:	113d8d9b          	addiw	x27,x27,275 # 2ba113 <hart_stack_0_end+0x10113>
    410157dc:	00ed9d93          	slli	x27,x27,0xe
    410157e0:	008d8d93          	addi	x27,x27,8
    410157e4:	000db403          	ld	x8,0(x27)
    410157e8:	00040067          	jr	x8

00000000410157ec <SID_PBVMS_012_ptw_fault_prioritization_passed>:
    410157ec:	00f00f9b          	addiw	x31,x0,15
    410157f0:	01cf9f93          	slli	x31,x31,0x1c
    410157f4:	001f8f93          	addi	x31,x31,1
    410157f8:	00000073          	ecall

00000000410157fc <SID_PBVMS_013_ptw_permission_encodings>:
    410157fc:	0150a137          	lui	x2,0x150a
    41015800:	000012b7          	lui	x5,0x1
    41015804:	00510133          	add	x2,x2,x5
    41015808:	ff017113          	andi	x2,x2,-16
    4101580c:	0067cab7          	lui	x21,0x67c
    41015810:	13da8a9b          	addiw	x21,x21,317 # 67c13d <mem14+0x15713d>
    41015814:	00da9a93          	slli	x21,x21,0xd
    41015818:	000ad683          	lhu	x13,0(x21)
    4101581c:	0012b437          	lui	x8,0x12b
    41015820:	00043b07          	fld	f22,0(x8) # 12b000 <mem13>
    41015824:	0012bf37          	lui	x30,0x12b
    41015828:	00037937          	lui	x18,0x37
    4101582c:	3259091b          	addiw	x18,x18,805 # 37325 <SID_PBVMS_009_superpage_alignment_fault_stack+0x7325>
    41015830:	00e91913          	slli	x18,x18,0xe
    41015834:	f1190913          	addi	x18,x18,-239
    41015838:	d2090e53          	fcvt.d.w	f28,x18
    4101583c:	01cf3027          	fsd	f28,0(x30) # 12b000 <mem13>
    41015840:	0001c537          	lui	x10,0x1c
    41015844:	00050303          	lb	x6,0(x10) # 1c000 <mem15>
    41015848:	003d2d37          	lui	x26,0x3d2
    4101584c:	000d00e7          	jalr	x26 # 3d2000 <code_mem16>
    41015850:	00019d37          	lui	x26,0x19
    41015854:	000d5703          	lhu	x14,0(x26) # 19000 <mem17>
    41015858:	00019fb7          	lui	x31,0x19
    4101585c:	00050437          	lui	x8,0x50
    41015860:	9074041b          	addiw	x8,x8,-1785 # 4f907 <pma_region_0_size+0xf907>
    41015864:	00d41413          	slli	x8,x8,0xd
    41015868:	bb340413          	addi	x8,x8,-1101
    4101586c:	008fa023          	sw	x8,0(x31) # 19000 <mem17>

0000000041015870 <SID_PBVMS_013_ptw_permission_encodings_passed>:
    41015870:	00f00f9b          	addiw	x31,x0,15
    41015874:	01cf9f93          	slli	x31,x31,0x1c
    41015878:	001f8f93          	addi	x31,x31,1
    4101587c:	00000073          	ecall

0000000041015880 <SID_PBVMS_014_mstatus_sum_mxr>:
    41015880:	0001e137          	lui	x2,0x1e
    41015884:	002bafb7          	lui	x31,0x2ba
    41015888:	113f8f9b          	addiw	x31,x31,275 # 2ba113 <hart_stack_0_end+0x10113>
    4101588c:	00ef9f93          	slli	x31,x31,0xe
    41015890:	0a0f8f93          	addi	x31,x31,160
    41015894:	00100f13          	li	x30,1
    41015898:	01efb023          	sd	x30,0(x31)
    4101589c:	000f0fb7          	lui	x31,0xf0
    410158a0:	001f8f9b          	addiw	x31,x31,1 # f0001 <code_mem27+0x10001>
    410158a4:	00cf9f93          	slli	x31,x31,0xc
    410158a8:	005f8f93          	addi	x31,x31,5
    410158ac:	00000073          	ecall
    410158b0:	00713023          	sd	x7,0(x2) # 1e000 <tp_csr_storage>
    410158b4:	fe019137          	lui	x2,0xfe019
    410158b8:	16b1011b          	addiw	x2,x2,363 # fffffffffe01916b <mem8+0x1549e1916b>
    410158bc:	00d11113          	slli	x2,x2,0xd
    410158c0:	000012b7          	lui	x5,0x1
    410158c4:	00510133          	add	x2,x2,x5
    410158c8:	ff017113          	andi	x2,x2,-16
    410158cc:	000803b7          	lui	x7,0x80
    410158d0:	002bafb7          	lui	x31,0x2ba
    410158d4:	113f8f9b          	addiw	x31,x31,275 # 2ba113 <hart_stack_0_end+0x10113>
    410158d8:	00ef9f93          	slli	x31,x31,0xe
    410158dc:	0a0f8f93          	addi	x31,x31,160
    410158e0:	00200f13          	li	x30,2
    410158e4:	01efb023          	sd	x30,0(x31)
    410158e8:	000f0fb7          	lui	x31,0xf0
    410158ec:	001f8f9b          	addiw	x31,x31,1 # f0001 <code_mem27+0x10001>
    410158f0:	00cf9f93          	slli	x31,x31,0xc
    410158f4:	005f8f93          	addi	x31,x31,5
    410158f8:	00000073          	ecall
    410158fc:	000025b7          	lui	x11,0x2
    41015900:	0005e903          	lwu	x18,0(x11) # 2000 <mem18>
    41015904:	000803b7          	lui	x7,0x80
    41015908:	002bafb7          	lui	x31,0x2ba
    4101590c:	113f8f9b          	addiw	x31,x31,275 # 2ba113 <hart_stack_0_end+0x10113>
    41015910:	00ef9f93          	slli	x31,x31,0xe
    41015914:	0a0f8f93          	addi	x31,x31,160
    41015918:	00300f13          	li	x30,3
    4101591c:	01efb023          	sd	x30,0(x31)
    41015920:	000f0fb7          	lui	x31,0xf0
    41015924:	001f8f9b          	addiw	x31,x31,1 # f0001 <code_mem27+0x10001>
    41015928:	00cf9f93          	slli	x31,x31,0xc
    4101592c:	005f8f93          	addi	x31,x31,5
    41015930:	00000073          	ecall
    41015934:	114c7237          	lui	x4,0x114c7
    41015938:	00d00e13          	li	x28,13
    4101593c:	05c23823          	sd	x28,80(x4) # 114c7050 <check_excp_expected_cause>
    41015940:	00000e17          	auipc	x28,0x0
    41015944:	04ce0e13          	addi	x28,x28,76 # 4101598c <fault_label_9>
    41015948:	03c23023          	sd	x28,32(x4) # 20 <SECURE_ACCESS_PROBABILITY+0x2>
    4101594c:	00000e13          	li	x28,0
    41015950:	05c23023          	sd	x28,64(x4) # 40 <XLEN>
    41015954:	00000e13          	li	x28,0
    41015958:	05c23423          	sd	x28,72(x4) # 48 <XLEN+0x8>
    4101595c:	00000e17          	auipc	x28,0x0
    41015960:	04ce0e13          	addi	x28,x28,76 # 410159a8 <excp_return_label_9>
    41015964:	03c23823          	sd	x28,48(x4) # 30 <SECURE_ACCESS_PROBABILITY+0x12>
    41015968:	00000e13          	li	x28,0
    4101596c:	03c23c23          	sd	x28,56(x4) # 38 <SECURE_ACCESS_PROBABILITY+0x1a>
    41015970:	00000e13          	li	x28,0
    41015974:	07c23023          	sd	x28,96(x4) # 60 <XLEN+0x20>
    41015978:	00000e13          	li	x28,0
    4101597c:	07c23423          	sd	x28,104(x4) # 68 <XLEN+0x28>
    41015980:	00000e13          	li	x28,0
    41015984:	07c23823          	sd	x28,112(x4) # 70 <XLEN+0x30>
    41015988:	00002837          	lui	x16,0x2

000000004101598c <fault_label_9>:
    4101598c:	00083487          	fld	f9,0(x16) # 2000 <mem18>
    41015990:	002baeb7          	lui	x29,0x2ba
    41015994:	113e8e9b          	addiw	x29,x29,275 # 2ba113 <hart_stack_0_end+0x10113>
    41015998:	00ee9e93          	slli	x29,x29,0xe
    4101599c:	008e8e93          	addi	x29,x29,8
    410159a0:	000ebb83          	ld	x23,0(x29)
    410159a4:	000b8067          	jr	x23

00000000410159a8 <excp_return_label_9>:
    410159a8:	000403b7          	lui	x7,0x40
    410159ac:	002bafb7          	lui	x31,0x2ba
    410159b0:	113f8f9b          	addiw	x31,x31,275 # 2ba113 <hart_stack_0_end+0x10113>
    410159b4:	00ef9f93          	slli	x31,x31,0xe
    410159b8:	0a0f8f93          	addi	x31,x31,160
    410159bc:	00200f13          	li	x30,2
    410159c0:	01efb023          	sd	x30,0(x31)
    410159c4:	000f0fb7          	lui	x31,0xf0
    410159c8:	001f8f9b          	addiw	x31,x31,1 # f0001 <code_mem27+0x10001>
    410159cc:	00cf9f93          	slli	x31,x31,0xc
    410159d0:	005f8f93          	addi	x31,x31,5
    410159d4:	00000073          	ecall
    410159d8:	000085b7          	lui	x11,0x8
    410159dc:	0005a087          	flw	f1,0(x11) # 8000 <mem19>
    410159e0:	000403b7          	lui	x7,0x40
    410159e4:	002bafb7          	lui	x31,0x2ba
    410159e8:	113f8f9b          	addiw	x31,x31,275 # 2ba113 <hart_stack_0_end+0x10113>
    410159ec:	00ef9f93          	slli	x31,x31,0xe
    410159f0:	0a0f8f93          	addi	x31,x31,160
    410159f4:	00300f13          	li	x30,3
    410159f8:	01efb023          	sd	x30,0(x31)
    410159fc:	000f0fb7          	lui	x31,0xf0
    41015a00:	001f8f9b          	addiw	x31,x31,1 # f0001 <code_mem27+0x10001>
    41015a04:	00cf9f93          	slli	x31,x31,0xc
    41015a08:	005f8f93          	addi	x31,x31,5
    41015a0c:	00000073          	ecall
    41015a10:	114c7237          	lui	x4,0x114c7
    41015a14:	00d00e13          	li	x28,13
    41015a18:	05c23823          	sd	x28,80(x4) # 114c7050 <check_excp_expected_cause>
    41015a1c:	00000e17          	auipc	x28,0x0
    41015a20:	04ce0e13          	addi	x28,x28,76 # 41015a68 <fault_label_10>
    41015a24:	03c23023          	sd	x28,32(x4) # 20 <SECURE_ACCESS_PROBABILITY+0x2>
    41015a28:	00000e13          	li	x28,0
    41015a2c:	05c23023          	sd	x28,64(x4) # 40 <XLEN>
    41015a30:	00000e13          	li	x28,0
    41015a34:	05c23423          	sd	x28,72(x4) # 48 <XLEN+0x8>
    41015a38:	00000e17          	auipc	x28,0x0
    41015a3c:	04ce0e13          	addi	x28,x28,76 # 41015a84 <excp_return_label_10>
    41015a40:	03c23823          	sd	x28,48(x4) # 30 <SECURE_ACCESS_PROBABILITY+0x12>
    41015a44:	00000e13          	li	x28,0
    41015a48:	03c23c23          	sd	x28,56(x4) # 38 <SECURE_ACCESS_PROBABILITY+0x1a>
    41015a4c:	00000e13          	li	x28,0
    41015a50:	07c23023          	sd	x28,96(x4) # 60 <XLEN+0x20>
    41015a54:	00000e13          	li	x28,0
    41015a58:	07c23423          	sd	x28,104(x4) # 68 <XLEN+0x28>
    41015a5c:	00000e13          	li	x28,0
    41015a60:	07c23823          	sd	x28,112(x4) # 70 <XLEN+0x30>
    41015a64:	00008eb7          	lui	x29,0x8

0000000041015a68 <fault_label_10>:
    41015a68:	000eae03          	lw	x28,0(x29) # 8000 <mem19>
    41015a6c:	002ba637          	lui	x12,0x2ba
    41015a70:	1136061b          	addiw	x12,x12,275 # 2ba113 <hart_stack_0_end+0x10113>
    41015a74:	00e61613          	slli	x12,x12,0xe
    41015a78:	00860613          	addi	x12,x12,8
    41015a7c:	00063583          	ld	x11,0(x12)
    41015a80:	00058067          	jr	x11

0000000041015a84 <excp_return_label_10>:
    41015a84:	0001e137          	lui	x2,0x1e
    41015a88:	00013383          	ld	x7,0(x2) # 1e000 <tp_csr_storage>
    41015a8c:	002bafb7          	lui	x31,0x2ba
    41015a90:	113f8f9b          	addiw	x31,x31,275 # 2ba113 <hart_stack_0_end+0x10113>
    41015a94:	00ef9f93          	slli	x31,x31,0xe
    41015a98:	0a0f8f93          	addi	x31,x31,160
    41015a9c:	00600f13          	li	x30,6
    41015aa0:	01efb023          	sd	x30,0(x31)
    41015aa4:	000f0fb7          	lui	x31,0xf0
    41015aa8:	001f8f9b          	addiw	x31,x31,1 # f0001 <code_mem27+0x10001>
    41015aac:	00cf9f93          	slli	x31,x31,0xc
    41015ab0:	005f8f93          	addi	x31,x31,5
    41015ab4:	00000073          	ecall

0000000041015ab8 <SID_PBVMS_014_mstatus_sum_mxr_passed>:
    41015ab8:	00f00f9b          	addiw	x31,x0,15
    41015abc:	01cf9f93          	slli	x31,x31,0x1c
    41015ac0:	001f8f93          	addi	x31,x31,1
    41015ac4:	00000073          	ecall

0000000041015ac8 <SID_PBVMS_015_global_bit_honoured>:
    41015ac8:	0001e137          	lui	x2,0x1e
    41015acc:	002bafb7          	lui	x31,0x2ba
    41015ad0:	113f8f9b          	addiw	x31,x31,275 # 2ba113 <hart_stack_0_end+0x10113>
    41015ad4:	00ef9f93          	slli	x31,x31,0xe
    41015ad8:	0a0f8f93          	addi	x31,x31,160
    41015adc:	00700f13          	li	x30,7
    41015ae0:	01efb023          	sd	x30,0(x31)
    41015ae4:	000f0fb7          	lui	x31,0xf0
    41015ae8:	001f8f9b          	addiw	x31,x31,1 # f0001 <code_mem27+0x10001>
    41015aec:	00cf9f93          	slli	x31,x31,0xc
    41015af0:	005f8f93          	addi	x31,x31,5
    41015af4:	00000073          	ecall
    41015af8:	00713023          	sd	x7,0(x2) # 1e000 <tp_csr_storage>
    41015afc:	00fb1137          	lui	x2,0xfb1
    41015b00:	fb71011b          	addiw	x2,x2,-73 # fb0fb7 <mem14+0xa8bfb7>
    41015b04:	00d11113          	slli	x2,x2,0xd
    41015b08:	000012b7          	lui	x5,0x1
    41015b0c:	00510133          	add	x2,x2,x5
    41015b10:	ff017113          	andi	x2,x2,-16
    41015b14:	002bafb7          	lui	x31,0x2ba
    41015b18:	113f8f9b          	addiw	x31,x31,275 # 2ba113 <hart_stack_0_end+0x10113>
    41015b1c:	00ef9f93          	slli	x31,x31,0xe
    41015b20:	0a8f8f93          	addi	x31,x31,168
    41015b24:	00800f13          	li	x30,8
    41015b28:	01efb023          	sd	x30,0(x31)
    41015b2c:	000f0fb7          	lui	x31,0xf0
    41015b30:	001f8f9b          	addiw	x31,x31,1 # f0001 <code_mem27+0x10001>
    41015b34:	00cf9f93          	slli	x31,x31,0xc
    41015b38:	006f8f93          	addi	x31,x31,6
    41015b3c:	00000073          	ecall
    41015b40:	00038613          	mv	x12,x7
    41015b44:	00060713          	mv	x14,x12
    41015b48:	00f0039b          	addiw	x7,x0,15
    41015b4c:	02c39393          	slli	x7,x7,0x2c
    41015b50:	002bafb7          	lui	x31,0x2ba
    41015b54:	113f8f9b          	addiw	x31,x31,275 # 2ba113 <hart_stack_0_end+0x10113>
    41015b58:	00ef9f93          	slli	x31,x31,0xe
    41015b5c:	0a8f8f93          	addi	x31,x31,168
    41015b60:	00900f13          	li	x30,9
    41015b64:	01efb023          	sd	x30,0(x31)
    41015b68:	000f0fb7          	lui	x31,0xf0
    41015b6c:	001f8f9b          	addiw	x31,x31,1 # f0001 <code_mem27+0x10001>
    41015b70:	00cf9f93          	slli	x31,x31,0xc
    41015b74:	006f8f93          	addi	x31,x31,6
    41015b78:	00000073          	ecall
    41015b7c:	00023537          	lui	x10,0x23
    41015b80:	21b73c37          	lui	x24,0x21b73
    41015b84:	7a2c0c1b          	addiw	x24,x24,1954 # 21b737a2 <SID_PBVMS_017_global_at_non_leaf_stack+0xf9f87a2>
    41015b88:	01850023          	sb	x24,0(x10) # 23000 <mem20>
    41015b8c:	00f0039b          	addiw	x7,x0,15
    41015b90:	02c39393          	slli	x7,x7,0x2c
    41015b94:	002bafb7          	lui	x31,0x2ba
    41015b98:	113f8f9b          	addiw	x31,x31,275 # 2ba113 <hart_stack_0_end+0x10113>
    41015b9c:	00ef9f93          	slli	x31,x31,0xe
    41015ba0:	0a8f8f93          	addi	x31,x31,168
    41015ba4:	00a00f13          	li	x30,10
    41015ba8:	01efb023          	sd	x30,0(x31)
    41015bac:	000f0fb7          	lui	x31,0xf0
    41015bb0:	001f8f9b          	addiw	x31,x31,1 # f0001 <code_mem27+0x10001>
    41015bb4:	00cf9f93          	slli	x31,x31,0xc
    41015bb8:	006f8f93          	addi	x31,x31,6
    41015bbc:	00000073          	ecall
    41015bc0:	00023fb7          	lui	x31,0x23
    41015bc4:	000fd883          	lhu	x17,0(x31) # 23000 <mem20>
    41015bc8:	00070393          	mv	x7,x14
    41015bcc:	002bafb7          	lui	x31,0x2ba
    41015bd0:	113f8f9b          	addiw	x31,x31,275 # 2ba113 <hart_stack_0_end+0x10113>
    41015bd4:	00ef9f93          	slli	x31,x31,0xe
    41015bd8:	0a8f8f93          	addi	x31,x31,168
    41015bdc:	00b00f13          	li	x30,11
    41015be0:	01efb023          	sd	x30,0(x31)
    41015be4:	000f0fb7          	lui	x31,0xf0
    41015be8:	001f8f9b          	addiw	x31,x31,1 # f0001 <code_mem27+0x10001>
    41015bec:	00cf9f93          	slli	x31,x31,0xc
    41015bf0:	006f8f93          	addi	x31,x31,6
    41015bf4:	00000073          	ecall
    41015bf8:	00023e37          	lui	x28,0x23
    41015bfc:	000e0883          	lb	x17,0(x28) # 23000 <mem20>
    41015c00:	0001e137          	lui	x2,0x1e
    41015c04:	00013383          	ld	x7,0(x2) # 1e000 <tp_csr_storage>
    41015c08:	002bafb7          	lui	x31,0x2ba
    41015c0c:	113f8f9b          	addiw	x31,x31,275 # 2ba113 <hart_stack_0_end+0x10113>
    41015c10:	00ef9f93          	slli	x31,x31,0xe
    41015c14:	0a0f8f93          	addi	x31,x31,160
    41015c18:	00c00f13          	li	x30,12
    41015c1c:	01efb023          	sd	x30,0(x31)
    41015c20:	000f0fb7          	lui	x31,0xf0
    41015c24:	001f8f9b          	addiw	x31,x31,1 # f0001 <code_mem27+0x10001>
    41015c28:	00cf9f93          	slli	x31,x31,0xc
    41015c2c:	005f8f93          	addi	x31,x31,5
    41015c30:	00000073          	ecall

0000000041015c34 <SID_PBVMS_015_global_bit_honoured_passed>:
    41015c34:	00f00f9b          	addiw	x31,x0,15
    41015c38:	01cf9f93          	slli	x31,x31,0x1c
    41015c3c:	001f8f93          	addi	x31,x31,1
    41015c40:	00000073          	ecall

0000000041015c44 <SID_PBVMS_017_global_at_non_leaf>:
    41015c44:	0001e137          	lui	x2,0x1e
    41015c48:	002bafb7          	lui	x31,0x2ba
    41015c4c:	113f8f9b          	addiw	x31,x31,275 # 2ba113 <hart_stack_0_end+0x10113>
    41015c50:	00ef9f93          	slli	x31,x31,0xe
    41015c54:	0a0f8f93          	addi	x31,x31,160
    41015c58:	00700f13          	li	x30,7
    41015c5c:	01efb023          	sd	x30,0(x31)
    41015c60:	000f0fb7          	lui	x31,0xf0
    41015c64:	001f8f9b          	addiw	x31,x31,1 # f0001 <code_mem27+0x10001>
    41015c68:	00cf9f93          	slli	x31,x31,0xc
    41015c6c:	005f8f93          	addi	x31,x31,5
    41015c70:	00000073          	ecall
    41015c74:	00713023          	sd	x7,0(x2) # 1e000 <tp_csr_storage>
    41015c78:	1217b137          	lui	x2,0x1217b
    41015c7c:	000012b7          	lui	x5,0x1
    41015c80:	00510133          	add	x2,x2,x5
    41015c84:	ff017113          	andi	x2,x2,-16
    41015c88:	002bafb7          	lui	x31,0x2ba
    41015c8c:	113f8f9b          	addiw	x31,x31,275 # 2ba113 <hart_stack_0_end+0x10113>
    41015c90:	00ef9f93          	slli	x31,x31,0xe
    41015c94:	0b0f8f93          	addi	x31,x31,176
    41015c98:	f050029b          	addiw	x5,x0,-251
    41015c9c:	01e29293          	slli	x5,x5,0x1e
    41015ca0:	005fb023          	sd	x5,0(x31)
    41015ca4:	00100293          	li	x5,1
    41015ca8:	005fb423          	sd	x5,8(x31)
    41015cac:	fff00293          	li	x5,-1
    41015cb0:	005fb823          	sd	x5,16(x31)
    41015cb4:	000f0fb7          	lui	x31,0xf0
    41015cb8:	001f8f9b          	addiw	x31,x31,1 # f0001 <code_mem27+0x10001>
    41015cbc:	00cf9f93          	slli	x31,x31,0xc
    41015cc0:	007f8f93          	addi	x31,x31,7
    41015cc4:	00000073          	ecall
    41015cc8:	00038393          	mv	x7,x7
    41015ccc:	002bafb7          	lui	x31,0x2ba
    41015cd0:	113f8f9b          	addiw	x31,x31,275 # 2ba113 <hart_stack_0_end+0x10113>
    41015cd4:	00ef9f93          	slli	x31,x31,0xe
    41015cd8:	0b0f8f93          	addi	x31,x31,176
    41015cdc:	f050029b          	addiw	x5,x0,-251
    41015ce0:	01e29293          	slli	x5,x5,0x1e
    41015ce4:	005fb023          	sd	x5,0(x31)
    41015ce8:	00100293          	li	x5,1
    41015cec:	005fb423          	sd	x5,8(x31)
    41015cf0:	fff00293          	li	x5,-1
    41015cf4:	005fb823          	sd	x5,16(x31)
    41015cf8:	000f0fb7          	lui	x31,0xf0
    41015cfc:	001f8f9b          	addiw	x31,x31,1 # f0001 <code_mem27+0x10001>
    41015d00:	00cf9f93          	slli	x31,x31,0xc
    41015d04:	008f8f93          	addi	x31,x31,8
    41015d08:	00000073          	ecall
    41015d0c:	f050071b          	addiw	x14,x0,-251
    41015d10:	01e71713          	slli	x14,x14,0x1e
    41015d14:	00070f03          	lb	x30,0(x14)
    41015d18:	0ff0039b          	addiw	x7,x0,255
    41015d1c:	02c39393          	slli	x7,x7,0x2c
    41015d20:	002bafb7          	lui	x31,0x2ba
    41015d24:	113f8f9b          	addiw	x31,x31,275 # 2ba113 <hart_stack_0_end+0x10113>
    41015d28:	00ef9f93          	slli	x31,x31,0xe
    41015d2c:	0a8f8f93          	addi	x31,x31,168
    41015d30:	00900f13          	li	x30,9
    41015d34:	01efb023          	sd	x30,0(x31)
    41015d38:	000f0fb7          	lui	x31,0xf0
    41015d3c:	001f8f9b          	addiw	x31,x31,1 # f0001 <code_mem27+0x10001>
    41015d40:	00cf9f93          	slli	x31,x31,0xc
    41015d44:	006f8f93          	addi	x31,x31,6
    41015d48:	00000073          	ecall
    41015d4c:	f0500b1b          	addiw	x22,x0,-251
    41015d50:	01eb1b13          	slli	x22,x22,0x1e
    41015d54:	000b1483          	lh	x9,0(x22)
    41015d58:	0001e137          	lui	x2,0x1e
    41015d5c:	00013383          	ld	x7,0(x2) # 1e000 <tp_csr_storage>
    41015d60:	002bafb7          	lui	x31,0x2ba
    41015d64:	113f8f9b          	addiw	x31,x31,275 # 2ba113 <hart_stack_0_end+0x10113>
    41015d68:	00ef9f93          	slli	x31,x31,0xe
    41015d6c:	0a0f8f93          	addi	x31,x31,160
    41015d70:	00c00f13          	li	x30,12
    41015d74:	01efb023          	sd	x30,0(x31)
    41015d78:	000f0fb7          	lui	x31,0xf0
    41015d7c:	001f8f9b          	addiw	x31,x31,1 # f0001 <code_mem27+0x10001>
    41015d80:	00cf9f93          	slli	x31,x31,0xc
    41015d84:	005f8f93          	addi	x31,x31,5
    41015d88:	00000073          	ecall

0000000041015d8c <SID_PBVMS_017_global_at_non_leaf_passed>:
    41015d8c:	00f00f9b          	addiw	x31,x0,15
    41015d90:	01cf9f93          	slli	x31,x31,0x1c
    41015d94:	001f8f93          	addi	x31,x31,1
    41015d98:	00000073          	ecall

0000000041015d9c <SID_PBVMS_018_rsw_fields_writable>:
    41015d9c:	01bb7137          	lui	x2,0x1bb7
    41015da0:	3091011b          	addiw	x2,x2,777 # 1bb7309 <SID_PBVMS_013_ptw_permission_encodings_stack+0x6ad309>
    41015da4:	00c11113          	slli	x2,x2,0xc
    41015da8:	000012b7          	lui	x5,0x1
    41015dac:	00510133          	add	x2,x2,x5
    41015db0:	ff017113          	andi	x2,x2,-16
    41015db4:	002bafb7          	lui	x31,0x2ba
    41015db8:	113f8f9b          	addiw	x31,x31,275 # 2ba113 <hart_stack_0_end+0x10113>
    41015dbc:	00ef9f93          	slli	x31,x31,0xe
    41015dc0:	0b0f8f93          	addi	x31,x31,176
    41015dc4:	0010029b          	addiw	x5,x0,1
    41015dc8:	02329293          	slli	x5,x5,0x23
    41015dcc:	005fb023          	sd	x5,0(x31)
    41015dd0:	00200293          	li	x5,2
    41015dd4:	005fb423          	sd	x5,8(x31)
    41015dd8:	fff00293          	li	x5,-1
    41015ddc:	005fb823          	sd	x5,16(x31)
    41015de0:	000f0fb7          	lui	x31,0xf0
    41015de4:	001f8f9b          	addiw	x31,x31,1 # f0001 <code_mem27+0x10001>
    41015de8:	00cf9f93          	slli	x31,x31,0xc
    41015dec:	007f8f93          	addi	x31,x31,7
    41015df0:	00000073          	ecall
    41015df4:	30000513          	li	x10,768
    41015df8:	00a3ed33          	or	x26,x7,x10
    41015dfc:	000d0393          	mv	x7,x26
    41015e00:	002bafb7          	lui	x31,0x2ba
    41015e04:	113f8f9b          	addiw	x31,x31,275 # 2ba113 <hart_stack_0_end+0x10113>
    41015e08:	00ef9f93          	slli	x31,x31,0xe
    41015e0c:	0b0f8f93          	addi	x31,x31,176
    41015e10:	0010029b          	addiw	x5,x0,1
    41015e14:	02329293          	slli	x5,x5,0x23
    41015e18:	005fb023          	sd	x5,0(x31)
    41015e1c:	00200293          	li	x5,2
    41015e20:	005fb423          	sd	x5,8(x31)
    41015e24:	fff00293          	li	x5,-1
    41015e28:	005fb823          	sd	x5,16(x31)
    41015e2c:	000f0fb7          	lui	x31,0xf0
    41015e30:	001f8f9b          	addiw	x31,x31,1 # f0001 <code_mem27+0x10001>
    41015e34:	00cf9f93          	slli	x31,x31,0xc
    41015e38:	008f8f93          	addi	x31,x31,8
    41015e3c:	00000073          	ecall
    41015e40:	002bafb7          	lui	x31,0x2ba
    41015e44:	113f8f9b          	addiw	x31,x31,275 # 2ba113 <hart_stack_0_end+0x10113>
    41015e48:	00ef9f93          	slli	x31,x31,0xe
    41015e4c:	0b0f8f93          	addi	x31,x31,176
    41015e50:	0010029b          	addiw	x5,x0,1
    41015e54:	02329293          	slli	x5,x5,0x23
    41015e58:	005fb023          	sd	x5,0(x31)
    41015e5c:	00200293          	li	x5,2
    41015e60:	005fb423          	sd	x5,8(x31)
    41015e64:	fff00293          	li	x5,-1
    41015e68:	005fb823          	sd	x5,16(x31)
    41015e6c:	000f0fb7          	lui	x31,0xf0
    41015e70:	001f8f9b          	addiw	x31,x31,1 # f0001 <code_mem27+0x10001>
    41015e74:	00cf9f93          	slli	x31,x31,0xc
    41015e78:	007f8f93          	addi	x31,x31,7
    41015e7c:	00000073          	ecall
    41015e80:	00a3f7b3          	and	x15,x7,x10
    41015e84:	00a78e63          	beq	x15,x10,41015ea0 <pass_label_0>
    41015e88:	002baeb7          	lui	x29,0x2ba
    41015e8c:	113e8e9b          	addiw	x29,x29,275 # 2ba113 <hart_stack_0_end+0x10113>
    41015e90:	00ee9e93          	slli	x29,x29,0xe
    41015e94:	008e8e93          	addi	x29,x29,8
    41015e98:	000ebf03          	ld	x30,0(x29)
    41015e9c:	000f0067          	jr	x30

0000000041015ea0 <pass_label_0>:
    41015ea0:	002bafb7          	lui	x31,0x2ba
    41015ea4:	113f8f9b          	addiw	x31,x31,275 # 2ba113 <hart_stack_0_end+0x10113>
    41015ea8:	00ef9f93          	slli	x31,x31,0xe
    41015eac:	0b0f8f93          	addi	x31,x31,176
    41015eb0:	0010029b          	addiw	x5,x0,1
    41015eb4:	02329293          	slli	x5,x5,0x23
    41015eb8:	005fb023          	sd	x5,0(x31)
    41015ebc:	00100293          	li	x5,1
    41015ec0:	005fb423          	sd	x5,8(x31)
    41015ec4:	fff00293          	li	x5,-1
    41015ec8:	005fb823          	sd	x5,16(x31)
    41015ecc:	000f0fb7          	lui	x31,0xf0
    41015ed0:	001f8f9b          	addiw	x31,x31,1 # f0001 <code_mem27+0x10001>
    41015ed4:	00cf9f93          	slli	x31,x31,0xc
    41015ed8:	007f8f93          	addi	x31,x31,7
    41015edc:	00000073          	ecall
    41015ee0:	00a3eeb3          	or	x29,x7,x10
    41015ee4:	000e8393          	mv	x7,x29
    41015ee8:	002bafb7          	lui	x31,0x2ba
    41015eec:	113f8f9b          	addiw	x31,x31,275 # 2ba113 <hart_stack_0_end+0x10113>
    41015ef0:	00ef9f93          	slli	x31,x31,0xe
    41015ef4:	0b0f8f93          	addi	x31,x31,176
    41015ef8:	0010029b          	addiw	x5,x0,1
    41015efc:	02329293          	slli	x5,x5,0x23
    41015f00:	005fb023          	sd	x5,0(x31)
    41015f04:	00100293          	li	x5,1
    41015f08:	005fb423          	sd	x5,8(x31)
    41015f0c:	fff00293          	li	x5,-1
    41015f10:	005fb823          	sd	x5,16(x31)
    41015f14:	000f0fb7          	lui	x31,0xf0
    41015f18:	001f8f9b          	addiw	x31,x31,1 # f0001 <code_mem27+0x10001>
    41015f1c:	00cf9f93          	slli	x31,x31,0xc
    41015f20:	008f8f93          	addi	x31,x31,8
    41015f24:	00000073          	ecall
    41015f28:	00100a1b          	addiw	x20,x0,1
    41015f2c:	023a1a13          	slli	x20,x20,0x23
    41015f30:	000a5883          	lhu	x17,0(x20)

0000000041015f34 <SID_PBVMS_018_rsw_fields_writable_passed>:
    41015f34:	00f00f9b          	addiw	x31,x0,15
    41015f38:	01cf9f93          	slli	x31,x31,0x1c
    41015f3c:	001f8f93          	addi	x31,x31,1
    41015f40:	00000073          	ecall

0000000041015f44 <SID_PBVMS_021_satp_valid_to_reserved>:
    41015f44:	0001e137          	lui	x2,0x1e
    41015f48:	002bafb7          	lui	x31,0x2ba
    41015f4c:	113f8f9b          	addiw	x31,x31,275 # 2ba113 <hart_stack_0_end+0x10113>
    41015f50:	00ef9f93          	slli	x31,x31,0xe
    41015f54:	0a0f8f93          	addi	x31,x31,160
    41015f58:	00700f13          	li	x30,7
    41015f5c:	01efb023          	sd	x30,0(x31)
    41015f60:	000f0fb7          	lui	x31,0xf0
    41015f64:	001f8f9b          	addiw	x31,x31,1 # f0001 <code_mem27+0x10001>
    41015f68:	00cf9f93          	slli	x31,x31,0xc
    41015f6c:	005f8f93          	addi	x31,x31,5
    41015f70:	00000073          	ecall
    41015f74:	00713023          	sd	x7,0(x2) # 1e000 <tp_csr_storage>
    41015f78:	00065137          	lui	x2,0x65
    41015f7c:	7531011b          	addiw	x2,x2,1875 # 65753 <mem0+0x15753>
    41015f80:	00d11113          	slli	x2,x2,0xd
    41015f84:	000012b7          	lui	x5,0x1
    41015f88:	00510133          	add	x2,x2,x5
    41015f8c:	ff017113          	andi	x2,x2,-16
    41015f90:	002bafb7          	lui	x31,0x2ba
    41015f94:	113f8f9b          	addiw	x31,x31,275 # 2ba113 <hart_stack_0_end+0x10113>
    41015f98:	00ef9f93          	slli	x31,x31,0xe
    41015f9c:	0a8f8f93          	addi	x31,x31,168
    41015fa0:	00800f13          	li	x30,8
    41015fa4:	01efb023          	sd	x30,0(x31)
    41015fa8:	000f0fb7          	lui	x31,0xf0
    41015fac:	001f8f9b          	addiw	x31,x31,1 # f0001 <code_mem27+0x10001>
    41015fb0:	00cf9f93          	slli	x31,x31,0xc
    41015fb4:	006f8f93          	addi	x31,x31,6
    41015fb8:	00000073          	ecall
    41015fbc:	00038e93          	mv	x29,x7
    41015fc0:	00100a1b          	addiw	x20,x0,1
    41015fc4:	03da1a13          	slli	x20,x20,0x3d
    41015fc8:	000a0393          	mv	x7,x20
    41015fcc:	002bafb7          	lui	x31,0x2ba
    41015fd0:	113f8f9b          	addiw	x31,x31,275 # 2ba113 <hart_stack_0_end+0x10113>
    41015fd4:	00ef9f93          	slli	x31,x31,0xe
    41015fd8:	0a8f8f93          	addi	x31,x31,168
    41015fdc:	00b00f13          	li	x30,11
    41015fe0:	01efb023          	sd	x30,0(x31)
    41015fe4:	000f0fb7          	lui	x31,0xf0
    41015fe8:	001f8f9b          	addiw	x31,x31,1 # f0001 <code_mem27+0x10001>
    41015fec:	00cf9f93          	slli	x31,x31,0xc
    41015ff0:	006f8f93          	addi	x31,x31,6
    41015ff4:	00000073          	ecall
    41015ff8:	002bafb7          	lui	x31,0x2ba
    41015ffc:	113f8f9b          	addiw	x31,x31,275 # 2ba113 <hart_stack_0_end+0x10113>
    41016000:	00ef9f93          	slli	x31,x31,0xe
    41016004:	0a8f8f93          	addi	x31,x31,168
    41016008:	00800f13          	li	x30,8
    4101600c:	01efb023          	sd	x30,0(x31)
    41016010:	000f0fb7          	lui	x31,0xf0
    41016014:	001f8f9b          	addiw	x31,x31,1 # f0001 <code_mem27+0x10001>
    41016018:	00cf9f93          	slli	x31,x31,0xc
    4101601c:	006f8f93          	addi	x31,x31,6
    41016020:	00000073          	ecall
    41016024:	00038793          	mv	x15,x7
    41016028:	00fe8e63          	beq	x29,x15,41016044 <pass_label_1>
    4101602c:	002bacb7          	lui	x25,0x2ba
    41016030:	113c8c9b          	addiw	x25,x25,275 # 2ba113 <hart_stack_0_end+0x10113>
    41016034:	00ec9c93          	slli	x25,x25,0xe
    41016038:	008c8c93          	addi	x25,x25,8
    4101603c:	000cb783          	ld	x15,0(x25)
    41016040:	00078067          	jr	x15

0000000041016044 <pass_label_1>:
    41016044:	0001e137          	lui	x2,0x1e
    41016048:	00013383          	ld	x7,0(x2) # 1e000 <tp_csr_storage>
    4101604c:	002bafb7          	lui	x31,0x2ba
    41016050:	113f8f9b          	addiw	x31,x31,275 # 2ba113 <hart_stack_0_end+0x10113>
    41016054:	00ef9f93          	slli	x31,x31,0xe
    41016058:	0a0f8f93          	addi	x31,x31,160
    4101605c:	00c00f13          	li	x30,12
    41016060:	01efb023          	sd	x30,0(x31)
    41016064:	000f0fb7          	lui	x31,0xf0
    41016068:	001f8f9b          	addiw	x31,x31,1 # f0001 <code_mem27+0x10001>
    4101606c:	00cf9f93          	slli	x31,x31,0xc
    41016070:	005f8f93          	addi	x31,x31,5
    41016074:	00000073          	ecall

0000000041016078 <SID_PBVMS_021_satp_valid_to_reserved_passed>:
    41016078:	00f00f9b          	addiw	x31,x0,15
    4101607c:	01cf9f93          	slli	x31,x31,0x1c
    41016080:	001f8f93          	addi	x31,x31,1
    41016084:	00000073          	ecall

0000000041016088 <SID_PBVMS_022_satp_csr_accessibility>:
    41016088:	0001e137          	lui	x2,0x1e
    4101608c:	002bafb7          	lui	x31,0x2ba
    41016090:	113f8f9b          	addiw	x31,x31,275 # 2ba113 <hart_stack_0_end+0x10113>
    41016094:	00ef9f93          	slli	x31,x31,0xe
    41016098:	0a0f8f93          	addi	x31,x31,160
    4101609c:	00700f13          	li	x30,7
    410160a0:	01efb023          	sd	x30,0(x31)
    410160a4:	000f0fb7          	lui	x31,0xf0
    410160a8:	001f8f9b          	addiw	x31,x31,1 # f0001 <code_mem27+0x10001>
    410160ac:	00cf9f93          	slli	x31,x31,0xc
    410160b0:	005f8f93          	addi	x31,x31,5
    410160b4:	00000073          	ecall
    410160b8:	00713023          	sd	x7,0(x2) # 1e000 <tp_csr_storage>
    410160bc:	002e8137          	lui	x2,0x2e8
    410160c0:	87b1011b          	addiw	x2,x2,-1925 # 2e787b <hart_stack_0_end+0x3d87b>
    410160c4:	00c11113          	slli	x2,x2,0xc
    410160c8:	000012b7          	lui	x5,0x1
    410160cc:	00510133          	add	x2,x2,x5
    410160d0:	ff017113          	andi	x2,x2,-16
    410160d4:	002bafb7          	lui	x31,0x2ba
    410160d8:	113f8f9b          	addiw	x31,x31,275 # 2ba113 <hart_stack_0_end+0x10113>
    410160dc:	00ef9f93          	slli	x31,x31,0xe
    410160e0:	0a8f8f93          	addi	x31,x31,168
    410160e4:	00800f13          	li	x30,8
    410160e8:	01efb023          	sd	x30,0(x31)
    410160ec:	000f0fb7          	lui	x31,0xf0
    410160f0:	001f8f9b          	addiw	x31,x31,1 # f0001 <code_mem27+0x10001>
    410160f4:	00cf9f93          	slli	x31,x31,0xc
    410160f8:	006f8f93          	addi	x31,x31,6
    410160fc:	00000073          	ecall
    41016100:	00038313          	mv	x6,x7
    41016104:	00030393          	mv	x7,x6
    41016108:	002bafb7          	lui	x31,0x2ba
    4101610c:	113f8f9b          	addiw	x31,x31,275 # 2ba113 <hart_stack_0_end+0x10113>
    41016110:	00ef9f93          	slli	x31,x31,0xe
    41016114:	0a8f8f93          	addi	x31,x31,168
    41016118:	00b00f13          	li	x30,11
    4101611c:	01efb023          	sd	x30,0(x31)
    41016120:	000f0fb7          	lui	x31,0xf0
    41016124:	001f8f9b          	addiw	x31,x31,1 # f0001 <code_mem27+0x10001>
    41016128:	00cf9f93          	slli	x31,x31,0xc
    4101612c:	006f8f93          	addi	x31,x31,6
    41016130:	00000073          	ecall
    41016134:	0001e137          	lui	x2,0x1e
    41016138:	00013383          	ld	x7,0(x2) # 1e000 <tp_csr_storage>
    4101613c:	002bafb7          	lui	x31,0x2ba
    41016140:	113f8f9b          	addiw	x31,x31,275 # 2ba113 <hart_stack_0_end+0x10113>
    41016144:	00ef9f93          	slli	x31,x31,0xe
    41016148:	0a0f8f93          	addi	x31,x31,160
    4101614c:	00c00f13          	li	x30,12
    41016150:	01efb023          	sd	x30,0(x31)
    41016154:	000f0fb7          	lui	x31,0xf0
    41016158:	001f8f9b          	addiw	x31,x31,1 # f0001 <code_mem27+0x10001>
    4101615c:	00cf9f93          	slli	x31,x31,0xc
    41016160:	005f8f93          	addi	x31,x31,5
    41016164:	00000073          	ecall

0000000041016168 <SID_PBVMS_022_satp_csr_accessibility_passed>:
    41016168:	00f00f9b          	addiw	x31,x0,15
    4101616c:	01cf9f93          	slli	x31,x31,0x1c
    41016170:	001f8f93          	addi	x31,x31,1
    41016174:	00000073          	ecall

0000000041016178 <SID_PBVMS_023_satp_asidlen_discovery>:
    41016178:	0001e137          	lui	x2,0x1e
    4101617c:	002bafb7          	lui	x31,0x2ba
    41016180:	113f8f9b          	addiw	x31,x31,275 # 2ba113 <hart_stack_0_end+0x10113>
    41016184:	00ef9f93          	slli	x31,x31,0xe
    41016188:	0a0f8f93          	addi	x31,x31,160
    4101618c:	00700f13          	li	x30,7
    41016190:	01efb023          	sd	x30,0(x31)
    41016194:	000f0fb7          	lui	x31,0xf0
    41016198:	001f8f9b          	addiw	x31,x31,1 # f0001 <code_mem27+0x10001>
    4101619c:	00cf9f93          	slli	x31,x31,0xc
    410161a0:	005f8f93          	addi	x31,x31,5
    410161a4:	00000073          	ecall
    410161a8:	00713023          	sd	x7,0(x2) # 1e000 <tp_csr_storage>
    410161ac:	40e71137          	lui	x2,0x40e71
    410161b0:	000012b7          	lui	x5,0x1
    410161b4:	00510133          	add	x2,x2,x5
    410161b8:	ff017113          	andi	x2,x2,-16
    410161bc:	002bafb7          	lui	x31,0x2ba
    410161c0:	113f8f9b          	addiw	x31,x31,275 # 2ba113 <hart_stack_0_end+0x10113>
    410161c4:	00ef9f93          	slli	x31,x31,0xe
    410161c8:	0a8f8f93          	addi	x31,x31,168
    410161cc:	00800f13          	li	x30,8
    410161d0:	01efb023          	sd	x30,0(x31)
    410161d4:	000f0fb7          	lui	x31,0xf0
    410161d8:	001f8f9b          	addiw	x31,x31,1 # f0001 <code_mem27+0x10001>
    410161dc:	00cf9f93          	slli	x31,x31,0xc
    410161e0:	006f8f93          	addi	x31,x31,6
    410161e4:	00000073          	ecall
    410161e8:	00038593          	mv	x11,x7
    410161ec:	00010437          	lui	x8,0x10
    410161f0:	fff4041b          	addiw	x8,x8,-1 # ffff <mem5+0x3fff>
    410161f4:	02c41413          	slli	x8,x8,0x2c
    410161f8:	0085eab3          	or	x21,x11,x8
    410161fc:	000a8393          	mv	x7,x21
    41016200:	002bafb7          	lui	x31,0x2ba
    41016204:	113f8f9b          	addiw	x31,x31,275 # 2ba113 <hart_stack_0_end+0x10113>
    41016208:	00ef9f93          	slli	x31,x31,0xe
    4101620c:	0a8f8f93          	addi	x31,x31,168
    41016210:	00b00f13          	li	x30,11
    41016214:	01efb023          	sd	x30,0(x31)
    41016218:	000f0fb7          	lui	x31,0xf0
    4101621c:	001f8f9b          	addiw	x31,x31,1 # f0001 <code_mem27+0x10001>
    41016220:	00cf9f93          	slli	x31,x31,0xc
    41016224:	006f8f93          	addi	x31,x31,6
    41016228:	00000073          	ecall
    4101622c:	002bafb7          	lui	x31,0x2ba
    41016230:	113f8f9b          	addiw	x31,x31,275 # 2ba113 <hart_stack_0_end+0x10113>
    41016234:	00ef9f93          	slli	x31,x31,0xe
    41016238:	0a8f8f93          	addi	x31,x31,168
    4101623c:	00800f13          	li	x30,8
    41016240:	01efb023          	sd	x30,0(x31)
    41016244:	000f0fb7          	lui	x31,0xf0
    41016248:	001f8f9b          	addiw	x31,x31,1 # f0001 <code_mem27+0x10001>
    4101624c:	00cf9f93          	slli	x31,x31,0xc
    41016250:	006f8f93          	addi	x31,x31,6
    41016254:	00000073          	ecall
    41016258:	00038b93          	mv	x23,x7
    4101625c:	02c00713          	li	x14,44
    41016260:	00ebd633          	srl	x12,x23,x14
    41016264:	00010eb7          	lui	x29,0x10
    41016268:	fffe8e9b          	addiw	x29,x29,-1 # ffff <mem5+0x3fff>
    4101626c:	01d67733          	and	x14,x12,x29
    41016270:	01d70e63          	beq	x14,x29,4101628c <pass_label_2>
    41016274:	002ba537          	lui	x10,0x2ba
    41016278:	1135051b          	addiw	x10,x10,275 # 2ba113 <hart_stack_0_end+0x10113>
    4101627c:	00e51513          	slli	x10,x10,0xe
    41016280:	00850513          	addi	x10,x10,8
    41016284:	00053983          	ld	x19,0(x10)
    41016288:	00098067          	jr	x19

000000004101628c <pass_label_2>:
    4101628c:	0001e137          	lui	x2,0x1e
    41016290:	00013383          	ld	x7,0(x2) # 1e000 <tp_csr_storage>
    41016294:	002bafb7          	lui	x31,0x2ba
    41016298:	113f8f9b          	addiw	x31,x31,275 # 2ba113 <hart_stack_0_end+0x10113>
    4101629c:	00ef9f93          	slli	x31,x31,0xe
    410162a0:	0a0f8f93          	addi	x31,x31,160
    410162a4:	00c00f13          	li	x30,12
    410162a8:	01efb023          	sd	x30,0(x31)
    410162ac:	000f0fb7          	lui	x31,0xf0
    410162b0:	001f8f9b          	addiw	x31,x31,1 # f0001 <code_mem27+0x10001>
    410162b4:	00cf9f93          	slli	x31,x31,0xc
    410162b8:	005f8f93          	addi	x31,x31,5
    410162bc:	00000073          	ecall

00000000410162c0 <SID_PBVMS_023_satp_asidlen_discovery_passed>:
    410162c0:	00f00f9b          	addiw	x31,x0,15
    410162c4:	01cf9f93          	slli	x31,x31,0x1c
    410162c8:	001f8f93          	addi	x31,x31,1
    410162cc:	00000073          	ecall

00000000410162d0 <SID_PBVMS_027_satp_user_mode_fault>:
    410162d0:	5c0e6137          	lui	x2,0x5c0e6
    410162d4:	000012b7          	lui	x5,0x1
    410162d8:	00510133          	add	x2,x2,x5
    410162dc:	ff017113          	andi	x2,x2,-16
    410162e0:	114c7237          	lui	x4,0x114c7
    410162e4:	00200e13          	li	x28,2
    410162e8:	05c23823          	sd	x28,80(x4) # 114c7050 <check_excp_expected_cause>
    410162ec:	00000e17          	auipc	x28,0x0
    410162f0:	048e0e13          	addi	x28,x28,72 # 41016334 <fault_label_11>
    410162f4:	03c23023          	sd	x28,32(x4) # 20 <SECURE_ACCESS_PROBABILITY+0x2>
    410162f8:	00000e13          	li	x28,0
    410162fc:	05c23023          	sd	x28,64(x4) # 40 <XLEN>
    41016300:	00000e13          	li	x28,0
    41016304:	05c23423          	sd	x28,72(x4) # 48 <XLEN+0x8>
    41016308:	00000e17          	auipc	x28,0x0
    4101630c:	04ce0e13          	addi	x28,x28,76 # 41016354 <excp_return_label_11>
    41016310:	03c23823          	sd	x28,48(x4) # 30 <SECURE_ACCESS_PROBABILITY+0x12>
    41016314:	00000e13          	li	x28,0
    41016318:	03c23c23          	sd	x28,56(x4) # 38 <SECURE_ACCESS_PROBABILITY+0x1a>
    4101631c:	00000e13          	li	x28,0
    41016320:	07c23023          	sd	x28,96(x4) # 60 <XLEN+0x20>
    41016324:	00000e13          	li	x28,0
    41016328:	07c23423          	sd	x28,104(x4) # 68 <XLEN+0x28>
    4101632c:	00000e13          	li	x28,0
    41016330:	07c23823          	sd	x28,112(x4) # 70 <XLEN+0x30>

0000000041016334 <fault_label_11>:
    41016334:	180023f3          	csrr	x7,satp
    41016338:	00038513          	mv	x10,x7
    4101633c:	002ba5b7          	lui	x11,0x2ba
    41016340:	1135859b          	addiw	x11,x11,275 # 2ba113 <hart_stack_0_end+0x10113>
    41016344:	00e59593          	slli	x11,x11,0xe
    41016348:	00858593          	addi	x11,x11,8
    4101634c:	0005b303          	ld	x6,0(x11)
    41016350:	00030067          	jr	x6

0000000041016354 <excp_return_label_11>:
    41016354:	114c7237          	lui	x4,0x114c7
    41016358:	00200e13          	li	x28,2
    4101635c:	05c23823          	sd	x28,80(x4) # 114c7050 <check_excp_expected_cause>
    41016360:	00000e17          	auipc	x28,0x0
    41016364:	04ce0e13          	addi	x28,x28,76 # 410163ac <fault_label_12>
    41016368:	03c23023          	sd	x28,32(x4) # 20 <SECURE_ACCESS_PROBABILITY+0x2>
    4101636c:	00000e13          	li	x28,0
    41016370:	05c23023          	sd	x28,64(x4) # 40 <XLEN>
    41016374:	00000e13          	li	x28,0
    41016378:	05c23423          	sd	x28,72(x4) # 48 <XLEN+0x8>
    4101637c:	00000e17          	auipc	x28,0x0
    41016380:	04ce0e13          	addi	x28,x28,76 # 410163c8 <SID_PBVMS_027_satp_user_mode_fault_passed>
    41016384:	03c23823          	sd	x28,48(x4) # 30 <SECURE_ACCESS_PROBABILITY+0x12>
    41016388:	00000e13          	li	x28,0
    4101638c:	03c23c23          	sd	x28,56(x4) # 38 <SECURE_ACCESS_PROBABILITY+0x1a>
    41016390:	00000e13          	li	x28,0
    41016394:	07c23023          	sd	x28,96(x4) # 60 <XLEN+0x20>
    41016398:	00000e13          	li	x28,0
    4101639c:	07c23423          	sd	x28,104(x4) # 68 <XLEN+0x28>
    410163a0:	00000e13          	li	x28,0
    410163a4:	07c23823          	sd	x28,112(x4) # 70 <XLEN+0x30>
    410163a8:	00000393          	li	x7,0

00000000410163ac <fault_label_12>:
    410163ac:	180393f3          	csrrw	x7,satp,x7
    410163b0:	002ba7b7          	lui	x15,0x2ba
    410163b4:	1137879b          	addiw	x15,x15,275 # 2ba113 <hart_stack_0_end+0x10113>
    410163b8:	00e79793          	slli	x15,x15,0xe
    410163bc:	00878793          	addi	x15,x15,8
    410163c0:	0007b383          	ld	x7,0(x15)
    410163c4:	00038067          	jr	x7 # 40000 <pma_region_0_size>

00000000410163c8 <SID_PBVMS_027_satp_user_mode_fault_passed>:
    410163c8:	00f00f9b          	addiw	x31,x0,15
    410163cc:	01cf9f93          	slli	x31,x31,0x1c
    410163d0:	001f8f93          	addi	x31,x31,1
    410163d4:	00000073          	ecall

00000000410163d8 <SID_PBVMS_040_context_table_overflow>:
    410163d8:	0001e137          	lui	x2,0x1e
    410163dc:	002bafb7          	lui	x31,0x2ba
    410163e0:	113f8f9b          	addiw	x31,x31,275 # 2ba113 <hart_stack_0_end+0x10113>
    410163e4:	00ef9f93          	slli	x31,x31,0xe
    410163e8:	0a0f8f93          	addi	x31,x31,160
    410163ec:	00700f13          	li	x30,7
    410163f0:	01efb023          	sd	x30,0(x31)
    410163f4:	000f0fb7          	lui	x31,0xf0
    410163f8:	001f8f9b          	addiw	x31,x31,1 # f0001 <code_mem27+0x10001>
    410163fc:	00cf9f93          	slli	x31,x31,0xc
    41016400:	005f8f93          	addi	x31,x31,5
    41016404:	00000073          	ecall
    41016408:	00713023          	sd	x7,0(x2) # 1e000 <tp_csr_storage>
    4101640c:	00025137          	lui	x2,0x25
    41016410:	000012b7          	lui	x5,0x1
    41016414:	00510133          	add	x2,x2,x5
    41016418:	ff017113          	andi	x2,x2,-16
    4101641c:	0010039b          	addiw	x7,x0,1
    41016420:	02c39393          	slli	x7,x7,0x2c
    41016424:	002bafb7          	lui	x31,0x2ba
    41016428:	113f8f9b          	addiw	x31,x31,275 # 2ba113 <hart_stack_0_end+0x10113>
    4101642c:	00ef9f93          	slli	x31,x31,0xe
    41016430:	0a8f8f93          	addi	x31,x31,168
    41016434:	00900f13          	li	x30,9
    41016438:	01efb023          	sd	x30,0(x31)
    4101643c:	000f0fb7          	lui	x31,0xf0
    41016440:	001f8f9b          	addiw	x31,x31,1 # f0001 <code_mem27+0x10001>
    41016444:	00cf9f93          	slli	x31,x31,0xc
    41016448:	006f8f93          	addi	x31,x31,6
    4101644c:	00000073          	ecall
    41016450:	01479e37          	lui	x28,0x1479
    41016454:	000e1a83          	lh	x21,0(x28) # 1479000 <mem23>
    41016458:	05fadb37          	lui	x22,0x5fad
    4101645c:	000b00e7          	jalr	x22 # 5fad000 <code_mem24>
    41016460:	0010039b          	addiw	x7,x0,1
    41016464:	02d39393          	slli	x7,x7,0x2d
    41016468:	002bafb7          	lui	x31,0x2ba
    4101646c:	113f8f9b          	addiw	x31,x31,275 # 2ba113 <hart_stack_0_end+0x10113>
    41016470:	00ef9f93          	slli	x31,x31,0xe
    41016474:	0a8f8f93          	addi	x31,x31,168
    41016478:	00900f13          	li	x30,9
    4101647c:	01efb023          	sd	x30,0(x31)
    41016480:	000f0fb7          	lui	x31,0xf0
    41016484:	001f8f9b          	addiw	x31,x31,1 # f0001 <code_mem27+0x10001>
    41016488:	00cf9f93          	slli	x31,x31,0xc
    4101648c:	006f8f93          	addi	x31,x31,6
    41016490:	00000073          	ecall
    41016494:	01479837          	lui	x16,0x1479
    41016498:	00084d83          	lbu	x27,0(x16) # 1479000 <mem23>
    4101649c:	05fade37          	lui	x28,0x5fad
    410164a0:	000e00e7          	jalr	x28 # 5fad000 <code_mem24>
    410164a4:	0030039b          	addiw	x7,x0,3
    410164a8:	02c39393          	slli	x7,x7,0x2c
    410164ac:	002bafb7          	lui	x31,0x2ba
    410164b0:	113f8f9b          	addiw	x31,x31,275 # 2ba113 <hart_stack_0_end+0x10113>
    410164b4:	00ef9f93          	slli	x31,x31,0xe
    410164b8:	0a8f8f93          	addi	x31,x31,168
    410164bc:	00900f13          	li	x30,9
    410164c0:	01efb023          	sd	x30,0(x31)
    410164c4:	000f0fb7          	lui	x31,0xf0
    410164c8:	001f8f9b          	addiw	x31,x31,1 # f0001 <code_mem27+0x10001>
    410164cc:	00cf9f93          	slli	x31,x31,0xc
    410164d0:	006f8f93          	addi	x31,x31,6
    410164d4:	00000073          	ecall
    410164d8:	01479a37          	lui	x20,0x1479
    410164dc:	000a1683          	lh	x13,0(x20) # 1479000 <mem23>
    410164e0:	05faddb7          	lui	x27,0x5fad
    410164e4:	000d80e7          	jalr	x27 # 5fad000 <code_mem24>
    410164e8:	0010039b          	addiw	x7,x0,1
    410164ec:	02e39393          	slli	x7,x7,0x2e
    410164f0:	002bafb7          	lui	x31,0x2ba
    410164f4:	113f8f9b          	addiw	x31,x31,275 # 2ba113 <hart_stack_0_end+0x10113>
    410164f8:	00ef9f93          	slli	x31,x31,0xe
    410164fc:	0a8f8f93          	addi	x31,x31,168
    41016500:	00900f13          	li	x30,9
    41016504:	01efb023          	sd	x30,0(x31)
    41016508:	000f0fb7          	lui	x31,0xf0
    4101650c:	001f8f9b          	addiw	x31,x31,1 # f0001 <code_mem27+0x10001>
    41016510:	00cf9f93          	slli	x31,x31,0xc
    41016514:	006f8f93          	addi	x31,x31,6
    41016518:	00000073          	ecall
    4101651c:	01479db7          	lui	x27,0x1479
    41016520:	000d8703          	lb	x14,0(x27) # 1479000 <mem23>
    41016524:	05fad3b7          	lui	x7,0x5fad
    41016528:	000380e7          	jalr	x7 # 5fad000 <code_mem24>
    4101652c:	0010039b          	addiw	x7,x0,1
    41016530:	02c39393          	slli	x7,x7,0x2c
    41016534:	002bafb7          	lui	x31,0x2ba
    41016538:	113f8f9b          	addiw	x31,x31,275 # 2ba113 <hart_stack_0_end+0x10113>
    4101653c:	00ef9f93          	slli	x31,x31,0xe
    41016540:	0a8f8f93          	addi	x31,x31,168
    41016544:	00900f13          	li	x30,9
    41016548:	01efb023          	sd	x30,0(x31)
    4101654c:	000f0fb7          	lui	x31,0xf0
    41016550:	001f8f9b          	addiw	x31,x31,1 # f0001 <code_mem27+0x10001>
    41016554:	00cf9f93          	slli	x31,x31,0xc
    41016558:	006f8f93          	addi	x31,x31,6
    4101655c:	00000073          	ecall
    41016560:	014793b7          	lui	x7,0x1479
    41016564:	0003a707          	flw	f14,0(x7) # 1479000 <mem23>
    41016568:	05fadd37          	lui	x26,0x5fad
    4101656c:	000d00e7          	jalr	x26 # 5fad000 <code_mem24>
    41016570:	0001e137          	lui	x2,0x1e
    41016574:	00013383          	ld	x7,0(x2) # 1e000 <tp_csr_storage>
    41016578:	002bafb7          	lui	x31,0x2ba
    4101657c:	113f8f9b          	addiw	x31,x31,275 # 2ba113 <hart_stack_0_end+0x10113>
    41016580:	00ef9f93          	slli	x31,x31,0xe
    41016584:	0a0f8f93          	addi	x31,x31,160
    41016588:	00c00f13          	li	x30,12
    4101658c:	01efb023          	sd	x30,0(x31)
    41016590:	000f0fb7          	lui	x31,0xf0
    41016594:	001f8f9b          	addiw	x31,x31,1 # f0001 <code_mem27+0x10001>
    41016598:	00cf9f93          	slli	x31,x31,0xc
    4101659c:	005f8f93          	addi	x31,x31,5
    410165a0:	00000073          	ecall

00000000410165a4 <SID_PBVMS_040_context_table_overflow_passed>:
    410165a4:	00f00f9b          	addiw	x31,x0,15
    410165a8:	01cf9f93          	slli	x31,x31,0x1c
    410165ac:	001f8f93          	addi	x31,x31,1
    410165b0:	00000073          	ecall

00000000410165b4 <SID_PBVMS_042_canonical_boundary_crossing_fault>:
    410165b4:	0029d137          	lui	x2,0x29d
    410165b8:	000012b7          	lui	x5,0x1
    410165bc:	00510133          	add	x2,x2,x5
    410165c0:	ff017113          	andi	x2,x2,-16
    410165c4:	114c7237          	lui	x4,0x114c7
    410165c8:	00d00e13          	li	x28,13
    410165cc:	05c23823          	sd	x28,80(x4) # 114c7050 <check_excp_expected_cause>
    410165d0:	00000e17          	auipc	x28,0x0
    410165d4:	060e0e13          	addi	x28,x28,96 # 41016630 <fault_label_13>
    410165d8:	03c23023          	sd	x28,32(x4) # 20 <SECURE_ACCESS_PROBABILITY+0x2>
    410165dc:	00000e13          	li	x28,0
    410165e0:	05c23023          	sd	x28,64(x4) # 40 <XLEN>
    410165e4:	00000e13          	li	x28,0
    410165e8:	05c23423          	sd	x28,72(x4) # 48 <XLEN+0x8>
    410165ec:	00000e17          	auipc	x28,0x0
    410165f0:	060e0e13          	addi	x28,x28,96 # 4101664c <SID_PBVMS_042_canonical_boundary_crossing_fault_passed>
    410165f4:	03c23823          	sd	x28,48(x4) # 30 <SECURE_ACCESS_PROBABILITY+0x12>
    410165f8:	00000e13          	li	x28,0
    410165fc:	03c23c23          	sd	x28,56(x4) # 38 <SECURE_ACCESS_PROBABILITY+0x1a>
    41016600:	00000e13          	li	x28,0
    41016604:	07c23023          	sd	x28,96(x4) # 60 <XLEN+0x20>
    41016608:	00000e13          	li	x28,0
    4101660c:	07c23423          	sd	x28,104(x4) # 68 <XLEN+0x28>
    41016610:	00000e13          	li	x28,0
    41016614:	07c23823          	sd	x28,112(x4) # 70 <XLEN+0x30>
    41016618:	01e89337          	lui	x6,0x1e89
    4101661c:	6c93031b          	addiw	x6,x6,1737 # 1e896c9 <SID_PBVMS_013_ptw_permission_encodings_stack+0x97f6c9>
    41016620:	00d31313          	slli	x6,x6,0xd
    41016624:	fff00c9b          	addiw	x25,x0,-1
    41016628:	03fc9c93          	slli	x25,x25,0x3f
    4101662c:	01930d33          	add	x26,x6,x25

0000000041016630 <fault_label_13>:
    41016630:	000d2107          	flw	f2,0(x26)
    41016634:	002baa37          	lui	x20,0x2ba
    41016638:	113a0a1b          	addiw	x20,x20,275 # 2ba113 <hart_stack_0_end+0x10113>
    4101663c:	00ea1a13          	slli	x20,x20,0xe
    41016640:	008a0a13          	addi	x20,x20,8
    41016644:	000a3c03          	ld	x24,0(x20)
    41016648:	000c0067          	jr	x24

000000004101664c <SID_PBVMS_042_canonical_boundary_crossing_fault_passed>:
    4101664c:	00f00f9b          	addiw	x31,x0,15
    41016650:	01cf9f93          	slli	x31,x31,0x1c
    41016654:	001f8f93          	addi	x31,x31,1
    41016658:	00000073          	ecall

000000004101665c <SID_PBVMS_043_fetch_window_spill_page_cross>:
    4101665c:	00134137          	lui	x2,0x134
    41016660:	000012b7          	lui	x5,0x1
    41016664:	00510133          	add	x2,x2,x5
    41016668:	ff017113          	andi	x2,x2,-16
    4101666c:	000e0c37          	lui	x24,0xe0
    41016670:	000c00e7          	jalr	x24 # e0000 <code_mem27>

0000000041016674 <SID_PBVMS_043_fetch_window_spill_page_cross_passed>:
    41016674:	00f00f9b          	addiw	x31,x0,15
    41016678:	01cf9f93          	slli	x31,x31,0x1c
    4101667c:	001f8f93          	addi	x31,x31,1
    41016680:	00000073          	ecall

0000000041016684 <test_cleanup>:
    41016684:	00f00f9b          	addiw	x31,x0,15
    41016688:	01cf9f93          	slli	x31,x31,0x1c
    4101668c:	001f8f93          	addi	x31,x31,1
    41016690:	00000073          	ecall

0000000041016694 <local_test_failed>:
    41016694:	00f00f9b          	addiw	x31,x0,15
    41016698:	01cf9f93          	slli	x31,x31,0x1c
    4101669c:	002f8f93          	addi	x31,x31,2
    410166a0:	00000073          	ecall

Disassembly of section .csr_machine_0:

0000000041389000 <csr_access_mstatus_machine_key_6_write-0x50>:
    41389000:	447fefb7          	lui	x31,0x447fe
    41389004:	0a0f8f9b          	addiw	x31,x31,160 # 447fe0a0 <machine_csr_jump_table_flags_pa>
    41389008:	000fbf83          	ld	x31,0(x31)
    4138900c:	00600293          	li	x5,6
    41389010:	045f8063          	beq	x31,x5,41389050 <csr_access_mstatus_machine_key_6_write>
    41389014:	00100293          	li	x5,1
    41389018:	045f8063          	beq	x31,x5,41389058 <csr_access_mstatus_machine_key_1_read>
    4138901c:	00200293          	li	x5,2
    41389020:	045f8063          	beq	x31,x5,41389060 <csr_access_mstatus_machine_key_2_set>
    41389024:	00300293          	li	x5,3
    41389028:	045f8063          	beq	x31,x5,41389068 <csr_access_mstatus_machine_key_3_clear>
    4138902c:	00c00293          	li	x5,12
    41389030:	045f8063          	beq	x31,x5,41389070 <csr_access_satp_supervisor_key_12_write>
    41389034:	00700293          	li	x5,7
    41389038:	045f8063          	beq	x31,x5,41389078 <csr_access_satp_supervisor_key_7_read>
    4138903c:	01000293          	li	x5,16
    41389040:	045f8063          	beq	x31,x5,41389080 <csr_access_mtvec_machine_key_16_set>
    41389044:	00f00293          	li	x5,15
    41389048:	045f8063          	beq	x31,x5,41389088 <csr_access_mtvec_machine_key_15_clear>
    4138904c:	0440006f          	j	41389090 <end_machine_label>

0000000041389050 <csr_access_mstatus_machine_key_6_write>:
    41389050:	30039073          	csrw	mstatus,x7
    41389054:	03c0006f          	j	41389090 <end_machine_label>

0000000041389058 <csr_access_mstatus_machine_key_1_read>:
    41389058:	300023f3          	csrr	x7,mstatus
    4138905c:	0340006f          	j	41389090 <end_machine_label>

0000000041389060 <csr_access_mstatus_machine_key_2_set>:
    41389060:	3003a073          	csrs	mstatus,x7
    41389064:	02c0006f          	j	41389090 <end_machine_label>

0000000041389068 <csr_access_mstatus_machine_key_3_clear>:
    41389068:	3003b073          	csrc	mstatus,x7
    4138906c:	0240006f          	j	41389090 <end_machine_label>

0000000041389070 <csr_access_satp_supervisor_key_12_write>:
    41389070:	18039073          	csrw	satp,x7
    41389074:	01c0006f          	j	41389090 <end_machine_label>

0000000041389078 <csr_access_satp_supervisor_key_7_read>:
    41389078:	180023f3          	csrr	x7,satp
    4138907c:	0140006f          	j	41389090 <end_machine_label>

0000000041389080 <csr_access_mtvec_machine_key_16_set>:
    41389080:	3053a073          	csrs	mtvec,x7
    41389084:	00c0006f          	j	41389090 <end_machine_label>

0000000041389088 <csr_access_mtvec_machine_key_15_clear>:
    41389088:	3053b073          	csrc	mtvec,x7
    4138908c:	0040006f          	j	41389090 <end_machine_label>

0000000041389090 <end_machine_label>:
    41389090:	000f0fb7          	lui	x31,0xf0
    41389094:	001f8f9b          	addiw	x31,x31,1 # f0001 <code_mem27+0x10001>
    41389098:	00cf9f93          	slli	x31,x31,0xc
    4138909c:	004f8f93          	addi	x31,x31,4
    413890a0:	00000073          	ecall

Disassembly of section .csr_super_0:

000000004138a000 <csr_access_satp_supervisor_key_11_write-0x58>:
    4138a000:	002bafb7          	lui	x31,0x2ba
    4138a004:	113f8f9b          	addiw	x31,x31,275 # 2ba113 <hart_stack_0_end+0x10113>
    4138a008:	00ef9f93          	slli	x31,x31,0xe
    4138a00c:	0a8f8f93          	addi	x31,x31,168
    4138a010:	000fbf83          	ld	x31,0(x31)
    4138a014:	00800293          	li	x5,8
    4138a018:	045f8463          	beq	x31,x5,4138a060 <csr_access_satp_supervisor_key_8_read>
    4138a01c:	00b00293          	li	x5,11
    4138a020:	025f8c63          	beq	x31,x5,4138a058 <csr_access_satp_supervisor_key_11_write>
    4138a024:	00900293          	li	x5,9
    4138a028:	045f8063          	beq	x31,x5,4138a068 <csr_access_satp_supervisor_key_9_set>
    4138a02c:	00a00293          	li	x5,10
    4138a030:	045f8063          	beq	x31,x5,4138a070 <csr_access_satp_supervisor_key_10_clear>
    4138a034:	00e00293          	li	x5,14
    4138a038:	045f8063          	beq	x31,x5,4138a078 <csr_access_sstatus_supervisor_key_14_set>
    4138a03c:	00d00293          	li	x5,13
    4138a040:	045f8063          	beq	x31,x5,4138a080 <csr_access_sstatus_supervisor_key_13_clear>
    4138a044:	01200293          	li	x5,18
    4138a048:	045f8063          	beq	x31,x5,4138a088 <csr_access_stvec_supervisor_key_18_set>
    4138a04c:	01100293          	li	x5,17
    4138a050:	045f8063          	beq	x31,x5,4138a090 <csr_access_stvec_supervisor_key_17_clear>
    4138a054:	0440006f          	j	4138a098 <end_super_label>

000000004138a058 <csr_access_satp_supervisor_key_11_write>:
    4138a058:	18039073          	csrw	satp,x7
    4138a05c:	03c0006f          	j	4138a098 <end_super_label>

000000004138a060 <csr_access_satp_supervisor_key_8_read>:
    4138a060:	180023f3          	csrr	x7,satp
    4138a064:	0340006f          	j	4138a098 <end_super_label>

000000004138a068 <csr_access_satp_supervisor_key_9_set>:
    4138a068:	1803a073          	csrs	satp,x7
    4138a06c:	02c0006f          	j	4138a098 <end_super_label>

000000004138a070 <csr_access_satp_supervisor_key_10_clear>:
    4138a070:	1803b073          	csrc	satp,x7
    4138a074:	0240006f          	j	4138a098 <end_super_label>

000000004138a078 <csr_access_sstatus_supervisor_key_14_set>:
    4138a078:	1003a073          	csrs	sstatus,x7
    4138a07c:	01c0006f          	j	4138a098 <end_super_label>

000000004138a080 <csr_access_sstatus_supervisor_key_13_clear>:
    4138a080:	1003b073          	csrc	sstatus,x7
    4138a084:	0140006f          	j	4138a098 <end_super_label>

000000004138a088 <csr_access_stvec_supervisor_key_18_set>:
    4138a088:	1053a073          	csrs	stvec,x7
    4138a08c:	00c0006f          	j	4138a098 <end_super_label>

000000004138a090 <csr_access_stvec_supervisor_key_17_clear>:
    4138a090:	1053b073          	csrc	stvec,x7
    4138a094:	0040006f          	j	4138a098 <end_super_label>

000000004138a098 <end_super_label>:
    4138a098:	000f0fb7          	lui	x31,0xf0
    4138a09c:	001f8f9b          	addiw	x31,x31,1 # f0001 <code_mem27+0x10001>
    4138a0a0:	00cf9f93          	slli	x31,x31,0xc
    4138a0a4:	004f8f93          	addi	x31,x31,4
    4138a0a8:	00000073          	ecall

Disassembly of section .os_data:

0000000ae844c000 <passed_addr_ptr>:
   ae844c000:	50f0                	.insn	2, 0x50f0
   ae844c002:	4101                	.insn	2, 0x4101
   ae844c004:	0000                	.insn	2, 0x0000
	...

0000000ae844c008 <failed_addr_ptr>:
   ae844c008:	5100                	.insn	2, 0x5100
   ae844c00a:	4101                	.insn	2, 0x4101
   ae844c00c:	0000                	.insn	2, 0x0000
	...

0000000ae844c010 <end_test_addr_ptr>:
   ae844c010:	5110                	.insn	2, 0x5110
   ae844c012:	4101                	.insn	2, 0x4101
   ae844c014:	0000                	.insn	2, 0x0000
	...

0000000ae844c018 <os_passed_addr_ptr>:
   ae844c018:	07b0                	.insn	2, 0x07b0
   ae844c01a:	4100                	.insn	2, 0x4100
   ae844c01c:	0000                	.insn	2, 0x0000
	...

0000000ae844c020 <os_failed_addr_ptr>:
   ae844c020:	07c0                	.insn	2, 0x07c0
   ae844c022:	4100                	.insn	2, 0x4100
   ae844c024:	0000                	.insn	2, 0x0000
	...

0000000ae844c028 <os_end_test_addr_ptr>:
   ae844c028:	07cc                	.insn	2, 0x07cc
   ae844c02a:	4100                	.insn	2, 0x4100
   ae844c02c:	0000                	.insn	2, 0x0000
	...

0000000ae844c030 <rvcp_prefix_str_data>:
   ae844c030:	5652                	.insn	2, 0x5652
   ae844c032:	203a5043          	fmadd.s	f0,f20,f3,f4,unknown
   ae844c036:	6554                	.insn	2, 0x6554
   ae844c038:	46207473          	csrrci	x8,0x462,0
   ae844c03c:	6c69                	.insn	2, 0x6c69
   ae844c03e:	2065                	.insn	2, 0x2065
	...

0000000ae844c041 <rvcp_testname_str_data>:
   ae844c041:	7074                	.insn	2, 0x7074
   ae844c043:	705f 6761 6e69      	.insn	6, 0x6e696761705f
   ae844c049:	00325f67          	.insn	4, 0x00325f67

0000000ae844c04d <rvcp_passed_str_data>:
   ae844c04d:	4150                	.insn	2, 0x4150
   ae844c04f:	44455353          	fround.h	f6,f10,unknown
	...

0000000ae844c054 <rvcp_failed_str_data>:
   ae844c054:	4146                	.insn	2, 0x4146
   ae844c056:	4c49                	.insn	2, 0x4c49
   ae844c058:	4445                	.insn	2, 0x4445
	...

0000000ae844c05b <rvcp_space_str_data>:
   ae844c05b:	0020                	.insn	2, 0x0020

0000000ae844c05d <rvcp_newline_str_data>:
   ae844c05d:	000a                	.insn	2, 0x000a
	...

0000000ae844c060 <excp_ignored_count_mem>:
	...

0000000ae844c068 <machine_flags_mem>:
	...

0000000ae844c070 <user_flags_mem>:
	...

0000000ae844c078 <super_flags_mem>:
	...

0000000ae844c080 <machine_area_mem>:
	...

0000000ae844c088 <user_area_mem>:
	...

0000000ae844c090 <super_area_mem>:
	...

0000000ae844c098 <zero_data_mem>:
	...

0000000ae844c0a0 <machine_csr_jump_table_flags_mem>:
	...

0000000ae844c0a8 <super_csr_jump_table_flags_mem>:
	...

0000000ae844c0b0 <pte_access_flags_mem>:
	...

0000000ae844c0c8 <num_harts_ended_mem>:
	...

0000000ae844c0d0 <num_hard_fails_mem>:
	...

Disassembly of section .hart_context:

00000000114c7000 <hart_context_0>:
    114c7000:	a000                	.insn	2, 0xa000
    114c7002:	002a                	.insn	2, 0x002a
	...
    114c7018:	0001                	.insn	2, 0x0001
    114c701a:	0000                	.insn	2, 0x0000
    114c701c:	0000                	.insn	2, 0x0000
    114c701e:	0000                	.insn	2, 0x0000
    114c7020:	ffff                	.insn	2, 0xffff
    114c7022:	ffff                	.insn	2, 0xffff
    114c7024:	ffff                	.insn	2, 0xffff
    114c7026:	ffff                	.insn	2, 0xffff
    114c7028:	ffff                	.insn	2, 0xffff
    114c702a:	ffff                	.insn	2, 0xffff
    114c702c:	ffff                	.insn	2, 0xffff
    114c702e:	ffff                	.insn	2, 0xffff
    114c7030:	ffff                	.insn	2, 0xffff
    114c7032:	ffff                	.insn	2, 0xffff
    114c7034:	ffff                	.insn	2, 0xffff
    114c7036:	ffff                	.insn	2, 0xffff
	...
    114c7050:	00ff 0000 0000 0000 	.insn	10, 0x00ff00000000000000ff
    114c7058:	00ff 
	...
    114c7176:	0000                	.insn	2, 0x0000
    114c7178:	ffff                	.insn	2, 0xffff
    114c717a:	ffff                	.insn	2, 0xffff
    114c717c:	ffff                	.insn	2, 0xffff
    114c717e:	ffff                	.insn	2, 0xffff
	...
    114c7188:	ffff                	.insn	2, 0xffff
    114c718a:	ffff                	.insn	2, 0xffff
	...

Disassembly of section .hart_stack_0:

00000000002a9000 <hart_stack_0>:
	...

Disassembly of section .io_htif:

0000000041040000 <tohost>:
	...

0000000041040040 <fromhost>:
	...

Disassembly of section .code_mem1:

0000000000027000 <.code_mem1>:
   27000:	5c6e45b7          	lui	x11,0x5c6e4
   27004:	33a5859b          	addiw	x11,x11,826 # 5c6e433a <SID_PBVMS_027_satp_user_mode_fault_stack+0x5fe33a>
   27008:	00035f37          	lui	x30,0x35
   2700c:	78df0f1b          	addiw	x30,x30,1933 # 3578d <SID_PBVMS_009_superpage_alignment_fault_stack+0x578d>
   27010:	00ef1f13          	slli	x30,x30,0xe
   27014:	127f0f13          	addi	x30,x30,295
   27018:	01e58f3b          	addw	x30,x11,x30
   2701c:	000b0e37          	lui	x28,0xb0
   27020:	00008067          	ret

Disassembly of section .code_mem4:

00000000002a7000 <.code_mem4>:
  2a7000:	0004ebb7          	lui	x23,0x4e
  2a7004:	abbb8b9b          	addiw	x23,x23,-1349 # 4dabb <pma_region_0_size+0xdabb>
  2a7008:	00db9b93          	slli	x23,x23,0xd
  2a700c:	bd4b8b93          	addi	x23,x23,-1068
  2a7010:	0925ea37          	lui	x20,0x925e
  2a7014:	477a0a1b          	addiw	x20,x20,1143 # 925e477 <code_mem24+0x32b1477>
  2a7018:	034bfc3b          	remuw	x24,x23,x20
  2a701c:	00095737          	lui	x14,0x95
  2a7020:	c9d7071b          	addiw	x14,x14,-867 # 94c9d <mem0+0x44c9d>
  2a7024:	00c71713          	slli	x14,x14,0xc
  2a7028:	95370713          	addi	x14,x14,-1709
  2a702c:	000573b7          	lui	x7,0x57
  2a7030:	3313839b          	addiw	x7,x7,817 # 57331 <mem0+0x7331>
  2a7034:	00d39393          	slli	x7,x7,0xd
  2a7038:	67838393          	addi	x7,x7,1656
  2a703c:	0277033b          	mulw	x6,x14,x7
  2a7040:	288bcab7          	lui	x21,0x288bc
  2a7044:	784a8a9b          	addiw	x21,x21,1924 # 288bc784 <SID_PBVMS_017_global_at_non_leaf_stack+0x16741784>
  2a7048:	00100db7          	lui	x27,0x100
  2a704c:	ed9d8d9b          	addiw	x27,x27,-295 # ffed9 <code_mem27+0x1fed9>
  2a7050:	00cd9d93          	slli	x27,x27,0xc
  2a7054:	238d8d93          	addi	x27,x27,568
  2a7058:	d00aff53          	fcvt.s.w	f30,x21
  2a705c:	d03df5d3          	fcvt.s.lu	f11,x27
  2a7060:	08bf7f53          	fsub.s	f30,f30,f11
  2a7064:	6e406cb7          	lui	x25,0x6e406
  2a7068:	d96c8c9b          	addiw	x25,x25,-618 # 6e405d96 <mem26+0xa405d96>
  2a706c:	00052e37          	lui	x28,0x52
  2a7070:	b97e0e1b          	addiw	x28,x28,-1129 # 51b97 <mem0+0x1b97>
  2a7074:	00de1e13          	slli	x28,x28,0xd
  2a7078:	b92e0e13          	addi	x28,x28,-1134
  2a707c:	03cc9bb3          	mulh	x23,x25,x28
  2a7080:	00008067          	ret

Disassembly of section .code_mem16:

00000000003d2000 <.code_mem16>:
  3d2000:	000486b7          	lui	x13,0x48
  3d2004:	bed6869b          	addiw	x13,x13,-1043 # 47bed <pma_region_0_size+0x7bed>
  3d2008:	00d69693          	slli	x13,x13,0xd
  3d200c:	b7b68693          	addi	x13,x13,-1157
  3d2010:	2d6c8737          	lui	x14,0x2d6c8
  3d2014:	9827071b          	addiw	x14,x14,-1662 # 2d6c7982 <SID_PBVMS_017_global_at_non_leaf_stack+0x1b54c982>
  3d2018:	02e6d33b          	divuw	x6,x13,x14
  3d201c:	00008067          	ret

Disassembly of section .code_mem24:

0000000005fad000 <.code_mem24>:
 5fad000:	533c9537          	lui	x10,0x533c9
 5fad004:	1385051b          	addiw	x10,x10,312 # 533c9138 <pma_region_2_end+0xe388138>
 5fad008:	2c705bb7          	lui	x23,0x2c705
 5fad00c:	021b8b9b          	addiw	x23,x23,33 # 2c705021 <SID_PBVMS_017_global_at_non_leaf_stack+0x1a58a021>
 5fad010:	03754c3b          	divw	x24,x10,x23
 5fad014:	00008067          	ret

Disassembly of section .code_mem27:

00000000000e0000 <.code_mem27>:
   e0000:	000ffe37          	lui	x28,0xff
   e0004:	c3fe0e1b          	addiw	x28,x28,-961 # fec3f <code_mem27+0x1ec3f>
   e0008:	00ce1e13          	slli	x28,x28,0xc
   e000c:	6b6e0e13          	addi	x28,x28,1718
   e0010:	00072f37          	lui	x30,0x72
   e0014:	609f0f1b          	addiw	x30,x30,1545 # 72609 <mem0+0x22609>
   e0018:	00df1f13          	slli	x30,x30,0xd
   e001c:	ab5f0f13          	addi	x30,x30,-1355
   e0020:	d03e77d3          	fcvt.s.lu	f15,x28
   e0024:	d03f7b53          	fcvt.s.lu	f22,x30
   e0028:	0367f953          	fadd.d	f18,f15,f22
   e002c:	721556b7          	lui	x13,0x72155
   e0030:	e796869b          	addiw	x13,x13,-391 # 72154e79 <mem26+0xe154e79>
   e0034:	000ccb37          	lui	x22,0xcc
   e0038:	f87b0b1b          	addiw	x22,x22,-121 # cbf87 <mem0+0x7bf87>
   e003c:	00cb1b13          	slli	x22,x22,0xc
   e0040:	547b0b13          	addi	x22,x22,1351
   e0044:	d036f4d3          	fcvt.s.lu	f9,x13
   e0048:	d01b7953          	fcvt.s.wu	f18,x22
   e004c:	1924f9d3          	fdiv.s	f19,f9,f18
   e0050:	6a27ec37          	lui	x24,0x6a27e
   e0054:	0e2c0c1b          	addiw	x24,x24,226 # 6a27e0e2 <mem26+0x627e0e2>
   e0058:	0002fcb7          	lui	x25,0x2f
   e005c:	007c8c9b          	addiw	x25,x25,7 # 2f007 <code_mem1+0x8007>
   e0060:	00ec9c93          	slli	x25,x25,0xe
   e0064:	fd1c8c93          	addi	x25,x25,-47
   e0068:	d20c07d3          	fcvt.d.w	f15,x24
   e006c:	d00cffd3          	fcvt.s.w	f31,x25
   e0070:	11f7f6d3          	fmul.s	f13,f15,f31
   e0074:	00043f37          	lui	x30,0x43
   e0078:	3f3f0f1b          	addiw	x30,x30,1011 # 433f3 <pma_region_0_size+0x33f3>
   e007c:	00df1f13          	slli	x30,x30,0xd
   e0080:	e18f0f13          	addi	x30,x30,-488
   e0084:	0001dab7          	lui	x21,0x1d
   e0088:	02da8a9b          	addiw	x21,x21,45 # 1d02d <mem15+0x102d>
   e008c:	00fa9a93          	slli	x21,x21,0xf
   e0090:	564a8a93          	addi	x21,x21,1380
   e0094:	035f4bbb          	divw	x23,x30,x21
   e0098:	00008067          	ret

Disassembly of section .mem0:

0000000000050000 <.mem0>:
   50000:	c0de                	.insn	2, 0xc0de
   50002:	c001                	.insn	2, 0xc001
   50004:	0000                	.insn	2, 0x0000
	...

Disassembly of section .mem2:

0000000000180000 <.mem2>:
  180000:	c0de                	.insn	2, 0xc0de
  180002:	c001                	.insn	2, 0xc001
  180004:	0000                	.insn	2, 0x0000
	...

Disassembly of section .mem3:

0000000003a00000 <.mem3>:
 3a00000:	c0de                	.insn	2, 0xc0de
 3a00002:	c001                	.insn	2, 0xc001
 3a00004:	0000                	.insn	2, 0x0000
	...

Disassembly of section .mem5:

000000000000c000 <.mem5>:
    c000:	c0de                	.insn	2, 0xc0de
    c002:	c001                	.insn	2, 0xc001
    c004:	0000                	.insn	2, 0x0000
	...

Disassembly of section .mem6:

0000000080000000 <.mem6>:
    80000000:	c0de                	.insn	2, 0xc0de
    80000002:	c001                	.insn	2, 0xc001
    80000004:	0000                	.insn	2, 0x0000
	...

Disassembly of section .mem7:

0000000003c00000 <.mem7>:
 3c00000:	c0de                	.insn	2, 0xc0de
 3c00002:	c001                	.insn	2, 0xc001
 3c00004:	0000                	.insn	2, 0x0000
	...

Disassembly of section .mem8:

ffffffeab4200000 <.mem8>:
ffffffeab4200000:	c0de                	.insn	2, 0xc0de
ffffffeab4200002:	c001                	.insn	2, 0xc001
ffffffeab4200004:	0000                	.insn	2, 0x0000
	...

Disassembly of section .mem9:

0000001280000000 <.mem9>:
  1280000000:	c0de                	.insn	2, 0xc0de
  1280000002:	c001                	.insn	2, 0xc001
  1280000004:	0000                	.insn	2, 0x0000
	...

Disassembly of section .mem10:

0000001780000000 <.mem10>:
  1780000000:	c0de                	.insn	2, 0xc0de
  1780000002:	c001                	.insn	2, 0xc001
  1780000004:	0000                	.insn	2, 0x0000
	...

Disassembly of section .mem11:

0000001bc0000000 <.mem11>:
  1bc0000000:	c0de                	.insn	2, 0xc0de
  1bc0000002:	c001                	.insn	2, 0xc001
  1bc0000004:	0000                	.insn	2, 0x0000
	...

Disassembly of section .mem12:

0000000cf827a000 <.mem12>:
   cf827a000:	c0de                	.insn	2, 0xc0de
   cf827a002:	c001                	.insn	2, 0xc001
   cf827a004:	0000                	.insn	2, 0x0000
	...

Disassembly of section .mem13:

000000000012b000 <.mem13>:
  12b000:	c0de                	.insn	2, 0xc0de
  12b002:	c001                	.insn	2, 0xc001
  12b004:	0000                	.insn	2, 0x0000
	...

Disassembly of section .mem14:

0000000000525000 <.mem14>:
  525000:	c0de                	.insn	2, 0xc0de
  525002:	c001                	.insn	2, 0xc001
  525004:	0000                	.insn	2, 0x0000
	...

Disassembly of section .mem15:

000000000001c000 <.mem15>:
   1c000:	c0de                	.insn	2, 0xc0de
   1c002:	c001                	.insn	2, 0xc001
   1c004:	0000                	.insn	2, 0x0000
	...

Disassembly of section .mem17:

0000000000019000 <.mem17>:
   19000:	c0de                	.insn	2, 0xc0de
   19002:	c001                	.insn	2, 0xc001
   19004:	0000                	.insn	2, 0x0000
	...

Disassembly of section .mem18:

0000000000002000 <.mem18>:
    2000:	c0de                	.insn	2, 0xc0de
    2002:	c001                	.insn	2, 0xc001
    2004:	0000                	.insn	2, 0x0000
	...

Disassembly of section .mem19:

0000000000008000 <.mem19>:
    8000:	c0de                	.insn	2, 0xc0de
    8002:	c001                	.insn	2, 0xc001
    8004:	0000                	.insn	2, 0x0000
	...

Disassembly of section .mem20:

0000000000023000 <.mem20>:
   23000:	c0de                	.insn	2, 0xc0de
   23002:	c001                	.insn	2, 0xc001
   23004:	0000                	.insn	2, 0x0000
	...

Disassembly of section .mem21:

ffffffc140000000 <.mem21>:
ffffffc140000000:	c0de                	.insn	2, 0xc0de
ffffffc140000002:	c001                	.insn	2, 0xc001
ffffffc140000004:	0000                	.insn	2, 0x0000
	...

Disassembly of section .mem22:

0000000800000000 <.mem22>:
   800000000:	c0de                	.insn	2, 0xc0de
   800000002:	c001                	.insn	2, 0xc001
   800000004:	0000                	.insn	2, 0x0000
	...

Disassembly of section .mem23:

0000000001479000 <.mem23>:
 1479000:	c0de                	.insn	2, 0xc0de
 1479002:	c001                	.insn	2, 0xc001
 1479004:	0000                	.insn	2, 0x0000
	...

Disassembly of section .mem25:

0000003d12d92000 <.mem25>:
  3d12d92000:	c0de                	.insn	2, 0xc0de
  3d12d92002:	c001                	.insn	2, 0xc001
  3d12d92004:	0000                	.insn	2, 0x0000
	...

Disassembly of section .mem26:

0000000064000000 <.mem26>:
    64000000:	c0de                	.insn	2, 0xc0de
    64000002:	c001                	.insn	2, 0xc001
    64000004:	0000                	.insn	2, 0x0000
	...

Disassembly of section .tp_csr_storage:

000000000001e000 <.tp_csr_storage>:
   1e000:	c0de                	.insn	2, 0xc0de
   1e002:	c001                	.insn	2, 0xc001
   1e004:	0000                	.insn	2, 0x0000
	...

Disassembly of section .SID_PBVMS_001_ptw_no_faults_all_access_types_stack:

0000000101fd5000 <.SID_PBVMS_001_ptw_no_faults_all_access_types_stack>:
   101fd5000:	c0de                	.insn	2, 0xc0de
   101fd5002:	c001                	.insn	2, 0xc001
   101fd5004:	0000                	.insn	2, 0x0000
	...

Disassembly of section .SID_PBVMS_003_ptw_all_privilege_modes_stack:

00000000003f1000 <.SID_PBVMS_003_ptw_all_privilege_modes_stack>:
  3f1000:	c0de                	.insn	2, 0xc0de
  3f1002:	c001                	.insn	2, 0xc001
  3f1004:	0000                	.insn	2, 0x0000
	...

Disassembly of section .SID_PBVMS_006_ptw_page_boundary_crossing_stack:

00000000d2570000 <.SID_PBVMS_006_ptw_page_boundary_crossing_stack>:
    d2570000:	c0de                	.insn	2, 0xc0de
    d2570002:	c001                	.insn	2, 0xc001
    d2570004:	0000                	.insn	2, 0x0000
	...

Disassembly of section .SID_PBVMS_008_va_sign_extension_fault_stack:

0000001c33cf6000 <.SID_PBVMS_008_va_sign_extension_fault_stack>:
  1c33cf6000:	c0de                	.insn	2, 0xc0de
  1c33cf6002:	c001                	.insn	2, 0xc001
  1c33cf6004:	0000                	.insn	2, 0x0000
	...

Disassembly of section .SID_PBVMS_009_superpage_alignment_fault_stack:

0000000000030000 <.SID_PBVMS_009_superpage_alignment_fault_stack>:
   30000:	c0de                	.insn	2, 0xc0de
   30002:	c001                	.insn	2, 0xc001
   30004:	0000                	.insn	2, 0x0000
	...

Disassembly of section .SID_PBVMS_011_ptw_fault_boundary_crossing_stack:

000000160ff69000 <.SID_PBVMS_011_ptw_fault_boundary_crossing_stack>:
  160ff69000:	c0de                	.insn	2, 0xc0de
  160ff69002:	c001                	.insn	2, 0xc001
  160ff69004:	0000                	.insn	2, 0x0000
	...

Disassembly of section .SID_PBVMS_012_ptw_fault_prioritization_stack:

0000003e04232000 <.SID_PBVMS_012_ptw_fault_prioritization_stack>:
  3e04232000:	c0de                	.insn	2, 0xc0de
  3e04232002:	c001                	.insn	2, 0xc001
  3e04232004:	0000                	.insn	2, 0x0000
	...

Disassembly of section .SID_PBVMS_013_ptw_permission_encodings_stack:

000000000150a000 <.SID_PBVMS_013_ptw_permission_encodings_stack>:
 150a000:	c0de                	.insn	2, 0xc0de
 150a002:	c001                	.insn	2, 0xc001
 150a004:	0000                	.insn	2, 0x0000
	...

Disassembly of section .SID_PBVMS_014_mstatus_sum_mxr_stack:

ffffffc0322d6000 <.SID_PBVMS_014_mstatus_sum_mxr_stack>:
ffffffc0322d6000:	c0de                	.insn	2, 0xc0de
ffffffc0322d6002:	c001                	.insn	2, 0xc001
ffffffc0322d6004:	0000                	.insn	2, 0x0000
	...

Disassembly of section .SID_PBVMS_015_global_bit_honoured_stack:

0000001f61f6e000 <.SID_PBVMS_015_global_bit_honoured_stack>:
  1f61f6e000:	c0de                	.insn	2, 0xc0de
  1f61f6e002:	c001                	.insn	2, 0xc001
  1f61f6e004:	0000                	.insn	2, 0x0000
	...

Disassembly of section .SID_PBVMS_017_global_at_non_leaf_stack:

000000001217b000 <.SID_PBVMS_017_global_at_non_leaf_stack>:
    1217b000:	c0de                	.insn	2, 0xc0de
    1217b002:	c001                	.insn	2, 0xc001
    1217b004:	0000                	.insn	2, 0x0000
	...

Disassembly of section .SID_PBVMS_018_rsw_fields_writable_stack:

0000001bb7309000 <.SID_PBVMS_018_rsw_fields_writable_stack>:
  1bb7309000:	c0de                	.insn	2, 0xc0de
  1bb7309002:	c001                	.insn	2, 0xc001
  1bb7309004:	0000                	.insn	2, 0x0000
	...

Disassembly of section .SID_PBVMS_021_satp_valid_to_reserved_stack:

00000000caea6000 <.SID_PBVMS_021_satp_valid_to_reserved_stack>:
    caea6000:	c0de                	.insn	2, 0xc0de
    caea6002:	c001                	.insn	2, 0xc001
    caea6004:	0000                	.insn	2, 0x0000
	...

Disassembly of section .SID_PBVMS_022_satp_csr_accessibility_stack:

00000002e787b000 <.SID_PBVMS_022_satp_csr_accessibility_stack>:
   2e787b000:	c0de                	.insn	2, 0xc0de
   2e787b002:	c001                	.insn	2, 0xc001
   2e787b004:	0000                	.insn	2, 0x0000
	...

Disassembly of section .SID_PBVMS_023_satp_asidlen_discovery_stack:

0000000040e71000 <.SID_PBVMS_023_satp_asidlen_discovery_stack>:
    40e71000:	c0de                	.insn	2, 0xc0de
    40e71002:	c001                	.insn	2, 0xc001
    40e71004:	0000                	.insn	2, 0x0000
	...

Disassembly of section .SID_PBVMS_027_satp_user_mode_fault_stack:

000000005c0e6000 <.SID_PBVMS_027_satp_user_mode_fault_stack>:
    5c0e6000:	c0de                	.insn	2, 0xc0de
    5c0e6002:	c001                	.insn	2, 0xc001
    5c0e6004:	0000                	.insn	2, 0x0000
	...

Disassembly of section .SID_PBVMS_040_context_table_overflow_stack:

0000000000025000 <.SID_PBVMS_040_context_table_overflow_stack>:
   25000:	c0de                	.insn	2, 0xc0de
   25002:	c001                	.insn	2, 0xc001
   25004:	0000                	.insn	2, 0x0000
	...

Disassembly of section .SID_PBVMS_042_canonical_boundary_crossing_fault_stack:

000000000029d000 <.SID_PBVMS_042_canonical_boundary_crossing_fault_stack>:
  29d000:	c0de                	.insn	2, 0xc0de
  29d002:	c001                	.insn	2, 0xc001
  29d004:	0000                	.insn	2, 0x0000
	...

Disassembly of section .SID_PBVMS_043_fetch_window_spill_page_cross_stack:

0000000000134000 <.SID_PBVMS_043_fetch_window_spill_page_cross_stack>:
  134000:	c0de                	.insn	2, 0xc0de
  134002:	c001                	.insn	2, 0xc001
  134004:	0000                	.insn	2, 0x0000
	...

Disassembly of section .__pagetable_map_os_0x000000004381e000:

000000004381e000 <__pagetable_map_os_0x000000004381e000>:
    4381e000:	c801                	.insn	2, 0xc801
    4381e002:	00001117          	auipc	x2,0x1
    4381e006:	0000                	.insn	2, 0x0000
    4381e008:	fc01                	.insn	2, 0xfc01
    4381e00a:	00001107          	flh	f2,0(x0) # 0 <ALL_4KB_PAGES>
    4381e00e:	0000                	.insn	2, 0x0000
    4381e010:	5001                	.insn	2, 0x5001
    4381e012:	10e0                	.insn	2, 0x10e0
    4381e014:	0000                	.insn	2, 0x0000
    4381e016:	0000                	.insn	2, 0x0000
    4381e018:	3001                	.insn	2, 0x3001
    4381e01a:	1118                	.insn	2, 0x1118
    4381e01c:	0000                	.insn	2, 0x0000
    4381e01e:	0000                	.insn	2, 0x0000
    4381e020:	ac01                	.insn	2, 0xac01
    4381e022:	1132                	.insn	2, 0x1132
	...
    4381e038:	c801                	.insn	2, 0xc801
    4381e03a:	1060                	.insn	2, 0x1060
	...
    4381e058:	f001                	.insn	2, 0xf001
    4381e05a:	111f 0000 0000      	.insn	6, 0x111f
	...
    4381e070:	4401                	.insn	2, 0x4401
    4381e072:	105d                	.insn	2, 0x105d
	...
    4381e0b8:	0401                	.insn	2, 0x0401
    4381e0ba:	1140                	.insn	2, 0x1140
	...
    4381e100:	4c01                	.insn	2, 0x4c01
    4381e102:	00001117          	auipc	x2,0x1
    4381e106:	0000                	.insn	2, 0x0000
    4381e108:	e401                	.insn	2, 0xe401
    4381e10a:	1132                	.insn	2, 0x1132
	...
    4381e158:	bc01                	.insn	2, 0xbc01
    4381e15a:	112e                	.insn	2, 0x112e
	...
    4381e198:	0401                	.insn	2, 0x0401
    4381e19a:	1136                	.insn	2, 0x1136
	...
    4381e250:	c801                	.insn	2, 0xc801
    4381e252:	112e                	.insn	2, 0x112e
	...
    4381e2c0:	0c01                	.insn	2, 0x0c01
    4381e2c2:	10e0                	.insn	2, 0x10e0
	...
    4381e2f0:	c001                	.insn	2, 0xc001
    4381e2f2:	112e                	.insn	2, 0x112e
	...
    4381e370:	0001                	.insn	2, 0x0001
    4381e372:	0000112f          	.insn	4, 0x112f
    4381e376:	0000                	.insn	2, 0x0000
    4381e378:	6401                	.insn	2, 0x6401
    4381e37a:	0000111b          	slliw	x2,x0,0x0
    4381e37e:	0000                	.insn	2, 0x0000
    4381e380:	1c01                	.insn	2, 0x1c01
    4381e382:	000010c3          	fmadd.s	f1,f0,f0,f0,rtz
	...
    4381e3e6:	0000                	.insn	2, 0x0000
    4381e3e8:	3801                	.insn	2, 0x3801
    4381e3ea:	00001133          	sll	x2,x0,x0
	...
    4381e79e:	0000                	.insn	2, 0x0000
    4381e7a0:	c801                	.insn	2, 0xc801
    4381e7a2:	111f 0000 0000      	.insn	6, 0x111f
	...
    4381e7c0:	dc01                	.insn	2, 0xdc01
    4381e7c2:	1116                	.insn	2, 0x1116
	...
    4381e800:	2001                	.insn	2, 0x2001
    4381e802:	1130                	.insn	2, 0x1130
	...
    4381e828:	4801                	.insn	2, 0x4801
    4381e82a:	1118                	.insn	2, 0x1118
	...
    4381ed50:	e001                	.insn	2, 0xe001
    4381ed52:	112e                	.insn	2, 0x112e
    4381ed54:	0000                	.insn	2, 0x0000
	...

Disassembly of section .__pagetable_map_os_0x00000000441ff000:

00000000441ff000 <__pagetable_map_os_0x00000000441ff000>:
	...
    441ff038:	b401                	.insn	2, 0xb401
    441ff03a:	1132                	.insn	2, 0x1132
    441ff03c:	0000                	.insn	2, 0x0000
    441ff03e:	0000                	.insn	2, 0x0000
    441ff040:	4401                	.insn	2, 0x4401
    441ff042:	00001133          	sll	x2,x0,x0
    441ff046:	0000                	.insn	2, 0x0000
    441ff048:	1801                	.insn	2, 0x1801
    441ff04a:	00001133          	sll	x2,x0,x0
	...
    441ff0de:	0000                	.insn	2, 0x0000
    441ff0e0:	6801                	.insn	2, 0x6801
    441ff0e2:	0000111b          	slliw	x2,x0,0x0
	...
    441ff6fe:	0000                	.insn	2, 0x0000
    441ff700:	dc01                	.insn	2, 0xdc01
    441ff702:	112e                	.insn	2, 0x112e
	...
    441ff8d0:	d801                	.insn	2, 0xd801
    441ff8d2:	111f 0000 0000      	.insn	6, 0x111f
	...
    441ff900:	10d800db          	.insn	4, 0x10d800db
    441ff904:	0000                	.insn	2, 0x0000
	...

Disassembly of section .__pagetable_map_os_0x0000000044cd1000:

0000000044cd1000 <__pagetable_map_os_0x0000000044cd1000>:
	...
    44cd1080:	40df 1040 0000      	.insn	6, 0x104040df
    44cd1086:	0000                	.insn	2, 0x0000
    44cd1088:	104044cf          	fnmadd.s	f9,f0,f4,f2,rmm
    44cd108c:	0000                	.insn	2, 0x0000
    44cd108e:	0000                	.insn	2, 0x0000
    44cd1090:	104048cf          	fnmadd.s	f17,f0,f4,f2,rmm
    44cd1094:	0000                	.insn	2, 0x0000
    44cd1096:	0000                	.insn	2, 0x0000
    44cd1098:	10404ccf          	fnmadd.s	f25,f0,f4,f2,rmm
    44cd109c:	0000                	.insn	2, 0x0000
    44cd109e:	0000                	.insn	2, 0x0000
    44cd10a0:	104050cf          	fnmadd.s	f1,f0,f4,f2,unknown
    44cd10a4:	0000                	.insn	2, 0x0000
    44cd10a6:	0000                	.insn	2, 0x0000
    44cd10a8:	00df 1120 0000      	.insn	6, 0x112000df
    44cd10ae:	0000                	.insn	2, 0x0000
    44cd10b0:	04df 1120 0000      	.insn	6, 0x112004df
    44cd10b6:	0000                	.insn	2, 0x0000
    44cd10b8:	08df 1120 0000      	.insn	6, 0x112008df
    44cd10be:	0000                	.insn	2, 0x0000
    44cd10c0:	0cdf 1120 0000      	.insn	6, 0x11200cdf
    44cd10c6:	0000                	.insn	2, 0x0000
    44cd10c8:	10df 1120 0000      	.insn	6, 0x112010df
    44cd10ce:	0000                	.insn	2, 0x0000
    44cd10d0:	14df 1120 0000      	.insn	6, 0x112014df
    44cd10d6:	0000                	.insn	2, 0x0000
    44cd10d8:	18df 1120 0000      	.insn	6, 0x112018df
    44cd10de:	0000                	.insn	2, 0x0000
    44cd10e0:	1cdf 1120 0000      	.insn	6, 0x11201cdf
    44cd10e6:	0000                	.insn	2, 0x0000
    44cd10e8:	20df 1120 0000      	.insn	6, 0x112020df
    44cd10ee:	0000                	.insn	2, 0x0000
    44cd10f0:	24df 1120 0000      	.insn	6, 0x112024df
    44cd10f6:	0000                	.insn	2, 0x0000
    44cd10f8:	28df 1120 0000      	.insn	6, 0x112028df
    44cd10fe:	0000                	.insn	2, 0x0000
    44cd1100:	2cdf 1120 0000      	.insn	6, 0x11202cdf
    44cd1106:	0000                	.insn	2, 0x0000
    44cd1108:	30df 1120 0000      	.insn	6, 0x112030df
    44cd110e:	0000                	.insn	2, 0x0000
    44cd1110:	34df 1120 0000      	.insn	6, 0x112034df
    44cd1116:	0000                	.insn	2, 0x0000
    44cd1118:	38df 1120 0000      	.insn	6, 0x112038df
    44cd111e:	0000                	.insn	2, 0x0000
    44cd1120:	3cdf 1120 0000      	.insn	6, 0x11203cdf
    44cd1126:	0000                	.insn	2, 0x0000
    44cd1128:	40df 1120 0000      	.insn	6, 0x112040df
    44cd112e:	0000                	.insn	2, 0x0000
    44cd1130:	44df 1120 0000      	.insn	6, 0x112044df
    44cd1136:	0000                	.insn	2, 0x0000
    44cd1138:	48df 1120 0000      	.insn	6, 0x112048df
    44cd113e:	0000                	.insn	2, 0x0000
    44cd1140:	4cdf 1120 0000      	.insn	6, 0x11204cdf
    44cd1146:	0000                	.insn	2, 0x0000
    44cd1148:	50df 1120 0000      	.insn	6, 0x112050df
    44cd114e:	0000                	.insn	2, 0x0000
    44cd1150:	54df 1120 0000      	.insn	6, 0x112054df
    44cd1156:	0000                	.insn	2, 0x0000
    44cd1158:	58df 1120 0000      	.insn	6, 0x112058df
    44cd115e:	0000                	.insn	2, 0x0000
    44cd1160:	5cdf 1120 0000      	.insn	6, 0x11205cdf
    44cd1166:	0000                	.insn	2, 0x0000
    44cd1168:	60df 1120 0000      	.insn	6, 0x112060df
    44cd116e:	0000                	.insn	2, 0x0000
    44cd1170:	64df 1120 0000      	.insn	6, 0x112064df
    44cd1176:	0000                	.insn	2, 0x0000
    44cd1178:	68df 1120 0000      	.insn	6, 0x112068df
    44cd117e:	0000                	.insn	2, 0x0000
    44cd1180:	6cdf 1120 0000      	.insn	6, 0x11206cdf
    44cd1186:	0000                	.insn	2, 0x0000
    44cd1188:	70df 1120 0000      	.insn	6, 0x112070df
    44cd118e:	0000                	.insn	2, 0x0000
    44cd1190:	74df 1120 0000      	.insn	6, 0x112074df
    44cd1196:	0000                	.insn	2, 0x0000
    44cd1198:	78df 1120 0000      	.insn	6, 0x112078df
    44cd119e:	0000                	.insn	2, 0x0000
    44cd11a0:	7cdf 1120 0000      	.insn	6, 0x11207cdf
    44cd11a6:	0000                	.insn	2, 0x0000
    44cd11a8:	80df 1120 0000      	.insn	6, 0x112080df
    44cd11ae:	0000                	.insn	2, 0x0000
    44cd11b0:	84df 1120 0000      	.insn	6, 0x112084df
    44cd11b6:	0000                	.insn	2, 0x0000
    44cd11b8:	88df 1120 0000      	.insn	6, 0x112088df
    44cd11be:	0000                	.insn	2, 0x0000
    44cd11c0:	8cdf 1120 0000      	.insn	6, 0x11208cdf
    44cd11c6:	0000                	.insn	2, 0x0000
    44cd11c8:	90df 1120 0000      	.insn	6, 0x112090df
    44cd11ce:	0000                	.insn	2, 0x0000
    44cd11d0:	94df 1120 0000      	.insn	6, 0x112094df
    44cd11d6:	0000                	.insn	2, 0x0000
    44cd11d8:	98df 1120 0000      	.insn	6, 0x112098df
    44cd11de:	0000                	.insn	2, 0x0000
    44cd11e0:	9cdf 1120 0000      	.insn	6, 0x11209cdf
    44cd11e6:	0000                	.insn	2, 0x0000
    44cd11e8:	a0df 1120 0000      	.insn	6, 0x1120a0df
    44cd11ee:	0000                	.insn	2, 0x0000
    44cd11f0:	a4df 1120 0000      	.insn	6, 0x1120a4df
    44cd11f6:	0000                	.insn	2, 0x0000
    44cd11f8:	a8df 1120 0000      	.insn	6, 0x1120a8df
    44cd11fe:	0000                	.insn	2, 0x0000
    44cd1200:	00df 1041 0000      	.insn	6, 0x104100df
    44cd1206:	0000                	.insn	2, 0x0000
    44cd1208:	b0df 1120 0000      	.insn	6, 0x1120b0df
    44cd120e:	0000                	.insn	2, 0x0000
    44cd1210:	b4df 1120 0000      	.insn	6, 0x1120b4df
    44cd1216:	0000                	.insn	2, 0x0000
    44cd1218:	b8df 1120 0000      	.insn	6, 0x1120b8df
    44cd121e:	0000                	.insn	2, 0x0000
    44cd1220:	bcdf 1120 0000      	.insn	6, 0x1120bcdf
    44cd1226:	0000                	.insn	2, 0x0000
    44cd1228:	c0df 1120 0000      	.insn	6, 0x1120c0df
    44cd122e:	0000                	.insn	2, 0x0000
    44cd1230:	c4df 1120 0000      	.insn	6, 0x1120c4df
    44cd1236:	0000                	.insn	2, 0x0000
    44cd1238:	c8df 1120 0000      	.insn	6, 0x1120c8df
    44cd123e:	0000                	.insn	2, 0x0000
    44cd1240:	ccdf 1120 0000      	.insn	6, 0x1120ccdf
    44cd1246:	0000                	.insn	2, 0x0000
    44cd1248:	d0df 1120 0000      	.insn	6, 0x1120d0df
    44cd124e:	0000                	.insn	2, 0x0000
    44cd1250:	d4df 1120 0000      	.insn	6, 0x1120d4df
    44cd1256:	0000                	.insn	2, 0x0000
    44cd1258:	d8df 1120 0000      	.insn	6, 0x1120d8df
    44cd125e:	0000                	.insn	2, 0x0000
    44cd1260:	dcdf 1120 0000      	.insn	6, 0x1120dcdf
    44cd1266:	0000                	.insn	2, 0x0000
    44cd1268:	e0df 1120 0000      	.insn	6, 0x1120e0df
    44cd126e:	0000                	.insn	2, 0x0000
    44cd1270:	e4df 1120 0000      	.insn	6, 0x1120e4df
    44cd1276:	0000                	.insn	2, 0x0000
    44cd1278:	e8df 1120 0000      	.insn	6, 0x1120e8df
    44cd127e:	0000                	.insn	2, 0x0000
    44cd1280:	ecdf 1120 0000      	.insn	6, 0x1120ecdf
    44cd1286:	0000                	.insn	2, 0x0000
    44cd1288:	f0df 1120 0000      	.insn	6, 0x1120f0df
    44cd128e:	0000                	.insn	2, 0x0000
    44cd1290:	f4df 1120 0000      	.insn	6, 0x1120f4df
    44cd1296:	0000                	.insn	2, 0x0000
    44cd1298:	f8df 1120 0000      	.insn	6, 0x1120f8df
    44cd129e:	0000                	.insn	2, 0x0000
    44cd12a0:	fcdf 1120 0000      	.insn	6, 0x1120fcdf
    44cd12a6:	0000                	.insn	2, 0x0000
    44cd12a8:	00df 1121 0000      	.insn	6, 0x112100df
    44cd12ae:	0000                	.insn	2, 0x0000
    44cd12b0:	04df 1121 0000      	.insn	6, 0x112104df
    44cd12b6:	0000                	.insn	2, 0x0000
    44cd12b8:	08df 1121 0000      	.insn	6, 0x112108df
    44cd12be:	0000                	.insn	2, 0x0000
    44cd12c0:	0cdf 1121 0000      	.insn	6, 0x11210cdf
    44cd12c6:	0000                	.insn	2, 0x0000
    44cd12c8:	10df 1121 0000      	.insn	6, 0x112110df
    44cd12ce:	0000                	.insn	2, 0x0000
    44cd12d0:	14df 1121 0000      	.insn	6, 0x112114df
    44cd12d6:	0000                	.insn	2, 0x0000
    44cd12d8:	18df 1121 0000      	.insn	6, 0x112118df
    44cd12de:	0000                	.insn	2, 0x0000
    44cd12e0:	1cdf 1121 0000      	.insn	6, 0x11211cdf
    44cd12e6:	0000                	.insn	2, 0x0000
    44cd12e8:	20df 1121 0000      	.insn	6, 0x112120df
    44cd12ee:	0000                	.insn	2, 0x0000
    44cd12f0:	24df 1121 0000      	.insn	6, 0x112124df
    44cd12f6:	0000                	.insn	2, 0x0000
    44cd12f8:	28df 1121 0000      	.insn	6, 0x112128df
    44cd12fe:	0000                	.insn	2, 0x0000
    44cd1300:	2cdf 1121 0000      	.insn	6, 0x11212cdf
    44cd1306:	0000                	.insn	2, 0x0000
    44cd1308:	30df 1121 0000      	.insn	6, 0x112130df
    44cd130e:	0000                	.insn	2, 0x0000
    44cd1310:	34df 1121 0000      	.insn	6, 0x112134df
    44cd1316:	0000                	.insn	2, 0x0000
    44cd1318:	38df 1121 0000      	.insn	6, 0x112138df
    44cd131e:	0000                	.insn	2, 0x0000
    44cd1320:	3cdf 1121 0000      	.insn	6, 0x11213cdf
    44cd1326:	0000                	.insn	2, 0x0000
    44cd1328:	40df 1121 0000      	.insn	6, 0x112140df
    44cd132e:	0000                	.insn	2, 0x0000
    44cd1330:	44df 1121 0000      	.insn	6, 0x112144df
    44cd1336:	0000                	.insn	2, 0x0000
    44cd1338:	48df 1121 0000      	.insn	6, 0x112148df
    44cd133e:	0000                	.insn	2, 0x0000
    44cd1340:	4cdf 1121 0000      	.insn	6, 0x11214cdf
    44cd1346:	0000                	.insn	2, 0x0000
    44cd1348:	50df 1121 0000      	.insn	6, 0x112150df
    44cd134e:	0000                	.insn	2, 0x0000
    44cd1350:	54df 1121 0000      	.insn	6, 0x112154df
    44cd1356:	0000                	.insn	2, 0x0000
    44cd1358:	58df 1121 0000      	.insn	6, 0x112158df
    44cd135e:	0000                	.insn	2, 0x0000
    44cd1360:	5cdf 1121 0000      	.insn	6, 0x11215cdf
    44cd1366:	0000                	.insn	2, 0x0000
    44cd1368:	60df 1121 0000      	.insn	6, 0x112160df
    44cd136e:	0000                	.insn	2, 0x0000
    44cd1370:	64df 1121 0000      	.insn	6, 0x112164df
    44cd1376:	0000                	.insn	2, 0x0000
    44cd1378:	68df 1121 0000      	.insn	6, 0x112168df
    44cd137e:	0000                	.insn	2, 0x0000
    44cd1380:	6cdf 1121 0000      	.insn	6, 0x11216cdf
    44cd1386:	0000                	.insn	2, 0x0000
    44cd1388:	70df 1121 0000      	.insn	6, 0x112170df
    44cd138e:	0000                	.insn	2, 0x0000
    44cd1390:	74df 1121 0000      	.insn	6, 0x112174df
    44cd1396:	0000                	.insn	2, 0x0000
    44cd1398:	78df 1121 0000      	.insn	6, 0x112178df
    44cd139e:	0000                	.insn	2, 0x0000
    44cd13a0:	7cdf 1121 0000      	.insn	6, 0x11217cdf
    44cd13a6:	0000                	.insn	2, 0x0000
    44cd13a8:	80df 1121 0000      	.insn	6, 0x112180df
    44cd13ae:	0000                	.insn	2, 0x0000
    44cd13b0:	84df 1121 0000      	.insn	6, 0x112184df
    44cd13b6:	0000                	.insn	2, 0x0000
    44cd13b8:	88df 1121 0000      	.insn	6, 0x112188df
    44cd13be:	0000                	.insn	2, 0x0000
    44cd13c0:	8cdf 1121 0000      	.insn	6, 0x11218cdf
    44cd13c6:	0000                	.insn	2, 0x0000
    44cd13c8:	90df 1121 0000      	.insn	6, 0x112190df
    44cd13ce:	0000                	.insn	2, 0x0000
    44cd13d0:	94df 1121 0000      	.insn	6, 0x112194df
    44cd13d6:	0000                	.insn	2, 0x0000
    44cd13d8:	98df 1121 0000      	.insn	6, 0x112198df
    44cd13de:	0000                	.insn	2, 0x0000
    44cd13e0:	9cdf 1121 0000      	.insn	6, 0x11219cdf
    44cd13e6:	0000                	.insn	2, 0x0000
    44cd13e8:	a0df 1121 0000      	.insn	6, 0x1121a0df
    44cd13ee:	0000                	.insn	2, 0x0000
    44cd13f0:	a4df 1121 0000      	.insn	6, 0x1121a4df
    44cd13f6:	0000                	.insn	2, 0x0000
    44cd13f8:	a8df 1121 0000      	.insn	6, 0x1121a8df
    44cd13fe:	0000                	.insn	2, 0x0000
    44cd1400:	acdf 1121 0000      	.insn	6, 0x1121acdf
    44cd1406:	0000                	.insn	2, 0x0000
    44cd1408:	b0df 1121 0000      	.insn	6, 0x1121b0df
    44cd140e:	0000                	.insn	2, 0x0000
    44cd1410:	b4df 1121 0000      	.insn	6, 0x1121b4df
    44cd1416:	0000                	.insn	2, 0x0000
    44cd1418:	b8df 1121 0000      	.insn	6, 0x1121b8df
    44cd141e:	0000                	.insn	2, 0x0000
    44cd1420:	bcdf 1121 0000      	.insn	6, 0x1121bcdf
    44cd1426:	0000                	.insn	2, 0x0000
    44cd1428:	c0df 1121 0000      	.insn	6, 0x1121c0df
    44cd142e:	0000                	.insn	2, 0x0000
    44cd1430:	c4df 1121 0000      	.insn	6, 0x1121c4df
    44cd1436:	0000                	.insn	2, 0x0000
    44cd1438:	c8df 1121 0000      	.insn	6, 0x1121c8df
    44cd143e:	0000                	.insn	2, 0x0000
    44cd1440:	ccdf 1121 0000      	.insn	6, 0x1121ccdf
    44cd1446:	0000                	.insn	2, 0x0000
    44cd1448:	d0df 1121 0000      	.insn	6, 0x1121d0df
    44cd144e:	0000                	.insn	2, 0x0000
    44cd1450:	d4df 1121 0000      	.insn	6, 0x1121d4df
    44cd1456:	0000                	.insn	2, 0x0000
    44cd1458:	d8df 1121 0000      	.insn	6, 0x1121d8df
    44cd145e:	0000                	.insn	2, 0x0000
    44cd1460:	dcdf 1121 0000      	.insn	6, 0x1121dcdf
    44cd1466:	0000                	.insn	2, 0x0000
    44cd1468:	e0df 1121 0000      	.insn	6, 0x1121e0df
    44cd146e:	0000                	.insn	2, 0x0000
    44cd1470:	e4df 1121 0000      	.insn	6, 0x1121e4df
    44cd1476:	0000                	.insn	2, 0x0000
    44cd1478:	e8df 1121 0000      	.insn	6, 0x1121e8df
    44cd147e:	0000                	.insn	2, 0x0000
    44cd1480:	ecdf 1121 0000      	.insn	6, 0x1121ecdf
    44cd1486:	0000                	.insn	2, 0x0000
    44cd1488:	f0df 1121 0000      	.insn	6, 0x1121f0df
    44cd148e:	0000                	.insn	2, 0x0000
    44cd1490:	f4df 1121 0000      	.insn	6, 0x1121f4df
    44cd1496:	0000                	.insn	2, 0x0000
    44cd1498:	f8df 1121 0000      	.insn	6, 0x1121f8df
    44cd149e:	0000                	.insn	2, 0x0000
    44cd14a0:	fcdf 1121 0000      	.insn	6, 0x1121fcdf
    44cd14a6:	0000                	.insn	2, 0x0000
    44cd14a8:	00df 1122 0000      	.insn	6, 0x112200df
    44cd14ae:	0000                	.insn	2, 0x0000
    44cd14b0:	04df 1122 0000      	.insn	6, 0x112204df
    44cd14b6:	0000                	.insn	2, 0x0000
    44cd14b8:	08df 1122 0000      	.insn	6, 0x112208df
    44cd14be:	0000                	.insn	2, 0x0000
    44cd14c0:	0cdf 1122 0000      	.insn	6, 0x11220cdf
    44cd14c6:	0000                	.insn	2, 0x0000
    44cd14c8:	10df 1122 0000      	.insn	6, 0x112210df
    44cd14ce:	0000                	.insn	2, 0x0000
    44cd14d0:	14df 1122 0000      	.insn	6, 0x112214df
    44cd14d6:	0000                	.insn	2, 0x0000
    44cd14d8:	18df 1122 0000      	.insn	6, 0x112218df
    44cd14de:	0000                	.insn	2, 0x0000
    44cd14e0:	1cdf 1122 0000      	.insn	6, 0x11221cdf
    44cd14e6:	0000                	.insn	2, 0x0000
    44cd14e8:	20df 1122 0000      	.insn	6, 0x112220df
    44cd14ee:	0000                	.insn	2, 0x0000
    44cd14f0:	24df 1122 0000      	.insn	6, 0x112224df
    44cd14f6:	0000                	.insn	2, 0x0000
    44cd14f8:	28df 1122 0000      	.insn	6, 0x112228df
    44cd14fe:	0000                	.insn	2, 0x0000
    44cd1500:	2cdf 1122 0000      	.insn	6, 0x11222cdf
    44cd1506:	0000                	.insn	2, 0x0000
    44cd1508:	30df 1122 0000      	.insn	6, 0x112230df
    44cd150e:	0000                	.insn	2, 0x0000
    44cd1510:	34df 1122 0000      	.insn	6, 0x112234df
    44cd1516:	0000                	.insn	2, 0x0000
    44cd1518:	38df 1122 0000      	.insn	6, 0x112238df
    44cd151e:	0000                	.insn	2, 0x0000
    44cd1520:	3cdf 1122 0000      	.insn	6, 0x11223cdf
    44cd1526:	0000                	.insn	2, 0x0000
    44cd1528:	40df 1122 0000      	.insn	6, 0x112240df
    44cd152e:	0000                	.insn	2, 0x0000
    44cd1530:	44df 1122 0000      	.insn	6, 0x112244df
    44cd1536:	0000                	.insn	2, 0x0000
    44cd1538:	48df 1122 0000      	.insn	6, 0x112248df
    44cd153e:	0000                	.insn	2, 0x0000
    44cd1540:	4cdf 1122 0000      	.insn	6, 0x11224cdf
    44cd1546:	0000                	.insn	2, 0x0000
    44cd1548:	50df 1122 0000      	.insn	6, 0x112250df
    44cd154e:	0000                	.insn	2, 0x0000
    44cd1550:	54df 1122 0000      	.insn	6, 0x112254df
    44cd1556:	0000                	.insn	2, 0x0000
    44cd1558:	58df 1122 0000      	.insn	6, 0x112258df
    44cd155e:	0000                	.insn	2, 0x0000
    44cd1560:	5cdf 1122 0000      	.insn	6, 0x11225cdf
    44cd1566:	0000                	.insn	2, 0x0000
    44cd1568:	60df 1122 0000      	.insn	6, 0x112260df
    44cd156e:	0000                	.insn	2, 0x0000
    44cd1570:	64df 1122 0000      	.insn	6, 0x112264df
    44cd1576:	0000                	.insn	2, 0x0000
    44cd1578:	68df 1122 0000      	.insn	6, 0x112268df
    44cd157e:	0000                	.insn	2, 0x0000
    44cd1580:	6cdf 1122 0000      	.insn	6, 0x11226cdf
    44cd1586:	0000                	.insn	2, 0x0000
    44cd1588:	70df 1122 0000      	.insn	6, 0x112270df
    44cd158e:	0000                	.insn	2, 0x0000
    44cd1590:	74df 1122 0000      	.insn	6, 0x112274df
    44cd1596:	0000                	.insn	2, 0x0000
    44cd1598:	78df 1122 0000      	.insn	6, 0x112278df
    44cd159e:	0000                	.insn	2, 0x0000
    44cd15a0:	7cdf 1122 0000      	.insn	6, 0x11227cdf
    44cd15a6:	0000                	.insn	2, 0x0000
    44cd15a8:	80df 1122 0000      	.insn	6, 0x112280df
    44cd15ae:	0000                	.insn	2, 0x0000
    44cd15b0:	84df 1122 0000      	.insn	6, 0x112284df
    44cd15b6:	0000                	.insn	2, 0x0000
    44cd15b8:	88df 1122 0000      	.insn	6, 0x112288df
    44cd15be:	0000                	.insn	2, 0x0000
    44cd15c0:	8cdf 1122 0000      	.insn	6, 0x11228cdf
    44cd15c6:	0000                	.insn	2, 0x0000
    44cd15c8:	90df 1122 0000      	.insn	6, 0x112290df
    44cd15ce:	0000                	.insn	2, 0x0000
    44cd15d0:	94df 1122 0000      	.insn	6, 0x112294df
    44cd15d6:	0000                	.insn	2, 0x0000
    44cd15d8:	98df 1122 0000      	.insn	6, 0x112298df
    44cd15de:	0000                	.insn	2, 0x0000
    44cd15e0:	9cdf 1122 0000      	.insn	6, 0x11229cdf
    44cd15e6:	0000                	.insn	2, 0x0000
    44cd15e8:	a0df 1122 0000      	.insn	6, 0x1122a0df
    44cd15ee:	0000                	.insn	2, 0x0000
    44cd15f0:	a4df 1122 0000      	.insn	6, 0x1122a4df
    44cd15f6:	0000                	.insn	2, 0x0000
    44cd15f8:	a8df 1122 0000      	.insn	6, 0x1122a8df
    44cd15fe:	0000                	.insn	2, 0x0000
    44cd1600:	acdf 1122 0000      	.insn	6, 0x1122acdf
    44cd1606:	0000                	.insn	2, 0x0000
    44cd1608:	b0df 1122 0000      	.insn	6, 0x1122b0df
    44cd160e:	0000                	.insn	2, 0x0000
    44cd1610:	b4df 1122 0000      	.insn	6, 0x1122b4df
    44cd1616:	0000                	.insn	2, 0x0000
    44cd1618:	b8df 1122 0000      	.insn	6, 0x1122b8df
    44cd161e:	0000                	.insn	2, 0x0000
    44cd1620:	bcdf 1122 0000      	.insn	6, 0x1122bcdf
    44cd1626:	0000                	.insn	2, 0x0000
    44cd1628:	c0df 1122 0000      	.insn	6, 0x1122c0df
    44cd162e:	0000                	.insn	2, 0x0000
    44cd1630:	c4df 1122 0000      	.insn	6, 0x1122c4df
    44cd1636:	0000                	.insn	2, 0x0000
    44cd1638:	c8df 1122 0000      	.insn	6, 0x1122c8df
    44cd163e:	0000                	.insn	2, 0x0000
    44cd1640:	ccdf 1122 0000      	.insn	6, 0x1122ccdf
    44cd1646:	0000                	.insn	2, 0x0000
    44cd1648:	d0df 1122 0000      	.insn	6, 0x1122d0df
    44cd164e:	0000                	.insn	2, 0x0000
    44cd1650:	d4df 1122 0000      	.insn	6, 0x1122d4df
    44cd1656:	0000                	.insn	2, 0x0000
    44cd1658:	d8df 1122 0000      	.insn	6, 0x1122d8df
    44cd165e:	0000                	.insn	2, 0x0000
    44cd1660:	dcdf 1122 0000      	.insn	6, 0x1122dcdf
    44cd1666:	0000                	.insn	2, 0x0000
    44cd1668:	e0df 1122 0000      	.insn	6, 0x1122e0df
    44cd166e:	0000                	.insn	2, 0x0000
    44cd1670:	e4df 1122 0000      	.insn	6, 0x1122e4df
    44cd1676:	0000                	.insn	2, 0x0000
    44cd1678:	e8df 1122 0000      	.insn	6, 0x1122e8df
    44cd167e:	0000                	.insn	2, 0x0000
    44cd1680:	ecdf 1122 0000      	.insn	6, 0x1122ecdf
    44cd1686:	0000                	.insn	2, 0x0000
    44cd1688:	f0df 1122 0000      	.insn	6, 0x1122f0df
    44cd168e:	0000                	.insn	2, 0x0000
    44cd1690:	f4df 1122 0000      	.insn	6, 0x1122f4df
    44cd1696:	0000                	.insn	2, 0x0000
    44cd1698:	f8df 1122 0000      	.insn	6, 0x1122f8df
    44cd169e:	0000                	.insn	2, 0x0000
    44cd16a0:	fcdf 1122 0000      	.insn	6, 0x1122fcdf
    44cd16a6:	0000                	.insn	2, 0x0000
    44cd16a8:	00df 1123 0000      	.insn	6, 0x112300df
    44cd16ae:	0000                	.insn	2, 0x0000
    44cd16b0:	04df 1123 0000      	.insn	6, 0x112304df
    44cd16b6:	0000                	.insn	2, 0x0000
    44cd16b8:	08df 1123 0000      	.insn	6, 0x112308df
    44cd16be:	0000                	.insn	2, 0x0000
    44cd16c0:	0cdf 1123 0000      	.insn	6, 0x11230cdf
    44cd16c6:	0000                	.insn	2, 0x0000
    44cd16c8:	10df 1123 0000      	.insn	6, 0x112310df
    44cd16ce:	0000                	.insn	2, 0x0000
    44cd16d0:	14df 1123 0000      	.insn	6, 0x112314df
    44cd16d6:	0000                	.insn	2, 0x0000
    44cd16d8:	18df 1123 0000      	.insn	6, 0x112318df
    44cd16de:	0000                	.insn	2, 0x0000
    44cd16e0:	1cdf 1123 0000      	.insn	6, 0x11231cdf
    44cd16e6:	0000                	.insn	2, 0x0000
    44cd16e8:	20df 1123 0000      	.insn	6, 0x112320df
    44cd16ee:	0000                	.insn	2, 0x0000
    44cd16f0:	24df 1123 0000      	.insn	6, 0x112324df
    44cd16f6:	0000                	.insn	2, 0x0000
    44cd16f8:	28df 1123 0000      	.insn	6, 0x112328df
    44cd16fe:	0000                	.insn	2, 0x0000
    44cd1700:	2cdf 1123 0000      	.insn	6, 0x11232cdf
    44cd1706:	0000                	.insn	2, 0x0000
    44cd1708:	30df 1123 0000      	.insn	6, 0x112330df
    44cd170e:	0000                	.insn	2, 0x0000
    44cd1710:	34df 1123 0000      	.insn	6, 0x112334df
    44cd1716:	0000                	.insn	2, 0x0000
    44cd1718:	38df 1123 0000      	.insn	6, 0x112338df
    44cd171e:	0000                	.insn	2, 0x0000
    44cd1720:	3cdf 1123 0000      	.insn	6, 0x11233cdf
    44cd1726:	0000                	.insn	2, 0x0000
    44cd1728:	40df 1123 0000      	.insn	6, 0x112340df
    44cd172e:	0000                	.insn	2, 0x0000
    44cd1730:	44df 1123 0000      	.insn	6, 0x112344df
    44cd1736:	0000                	.insn	2, 0x0000
    44cd1738:	48df 1123 0000      	.insn	6, 0x112348df
    44cd173e:	0000                	.insn	2, 0x0000
    44cd1740:	4cdf 1123 0000      	.insn	6, 0x11234cdf
    44cd1746:	0000                	.insn	2, 0x0000
    44cd1748:	50df 1123 0000      	.insn	6, 0x112350df
    44cd174e:	0000                	.insn	2, 0x0000
    44cd1750:	54df 1123 0000      	.insn	6, 0x112354df
    44cd1756:	0000                	.insn	2, 0x0000
    44cd1758:	58df 1123 0000      	.insn	6, 0x112358df
    44cd175e:	0000                	.insn	2, 0x0000
    44cd1760:	5cdf 1123 0000      	.insn	6, 0x11235cdf
    44cd1766:	0000                	.insn	2, 0x0000
    44cd1768:	60df 1123 0000      	.insn	6, 0x112360df
    44cd176e:	0000                	.insn	2, 0x0000
    44cd1770:	64df 1123 0000      	.insn	6, 0x112364df
    44cd1776:	0000                	.insn	2, 0x0000
    44cd1778:	68df 1123 0000      	.insn	6, 0x112368df
    44cd177e:	0000                	.insn	2, 0x0000
    44cd1780:	6cdf 1123 0000      	.insn	6, 0x11236cdf
    44cd1786:	0000                	.insn	2, 0x0000
    44cd1788:	70df 1123 0000      	.insn	6, 0x112370df
    44cd178e:	0000                	.insn	2, 0x0000
    44cd1790:	74df 1123 0000      	.insn	6, 0x112374df
    44cd1796:	0000                	.insn	2, 0x0000
    44cd1798:	78df 1123 0000      	.insn	6, 0x112378df
    44cd179e:	0000                	.insn	2, 0x0000
    44cd17a0:	7cdf 1123 0000      	.insn	6, 0x11237cdf
    44cd17a6:	0000                	.insn	2, 0x0000
    44cd17a8:	80df 1123 0000      	.insn	6, 0x112380df
    44cd17ae:	0000                	.insn	2, 0x0000
    44cd17b0:	84df 1123 0000      	.insn	6, 0x112384df
    44cd17b6:	0000                	.insn	2, 0x0000
    44cd17b8:	88df 1123 0000      	.insn	6, 0x112388df
    44cd17be:	0000                	.insn	2, 0x0000
    44cd17c0:	8cdf 1123 0000      	.insn	6, 0x11238cdf
    44cd17c6:	0000                	.insn	2, 0x0000
    44cd17c8:	90df 1123 0000      	.insn	6, 0x112390df
    44cd17ce:	0000                	.insn	2, 0x0000
    44cd17d0:	94df 1123 0000      	.insn	6, 0x112394df
    44cd17d6:	0000                	.insn	2, 0x0000
    44cd17d8:	98df 1123 0000      	.insn	6, 0x112398df
    44cd17de:	0000                	.insn	2, 0x0000
    44cd17e0:	9cdf 1123 0000      	.insn	6, 0x11239cdf
    44cd17e6:	0000                	.insn	2, 0x0000
    44cd17e8:	a0df 1123 0000      	.insn	6, 0x1123a0df
    44cd17ee:	0000                	.insn	2, 0x0000
    44cd17f0:	a4df 1123 0000      	.insn	6, 0x1123a4df
    44cd17f6:	0000                	.insn	2, 0x0000
    44cd17f8:	a8df 1123 0000      	.insn	6, 0x1123a8df
    44cd17fe:	0000                	.insn	2, 0x0000
    44cd1800:	acdf 1123 0000      	.insn	6, 0x1123acdf
    44cd1806:	0000                	.insn	2, 0x0000
    44cd1808:	b0df 1123 0000      	.insn	6, 0x1123b0df
    44cd180e:	0000                	.insn	2, 0x0000
    44cd1810:	b4df 1123 0000      	.insn	6, 0x1123b4df
    44cd1816:	0000                	.insn	2, 0x0000
    44cd1818:	b8df 1123 0000      	.insn	6, 0x1123b8df
    44cd181e:	0000                	.insn	2, 0x0000
    44cd1820:	bcdf 1123 0000      	.insn	6, 0x1123bcdf
    44cd1826:	0000                	.insn	2, 0x0000
    44cd1828:	c0df 1123 0000      	.insn	6, 0x1123c0df
    44cd182e:	0000                	.insn	2, 0x0000
    44cd1830:	c4df 1123 0000      	.insn	6, 0x1123c4df
    44cd1836:	0000                	.insn	2, 0x0000
    44cd1838:	c8df 1123 0000      	.insn	6, 0x1123c8df
    44cd183e:	0000                	.insn	2, 0x0000
    44cd1840:	ccdf 1123 0000      	.insn	6, 0x1123ccdf
    44cd1846:	0000                	.insn	2, 0x0000
    44cd1848:	d0df 1123 0000      	.insn	6, 0x1123d0df
    44cd184e:	0000                	.insn	2, 0x0000
    44cd1850:	d4df 1123 0000      	.insn	6, 0x1123d4df
    44cd1856:	0000                	.insn	2, 0x0000
    44cd1858:	d8df 1123 0000      	.insn	6, 0x1123d8df
    44cd185e:	0000                	.insn	2, 0x0000
    44cd1860:	dcdf 1123 0000      	.insn	6, 0x1123dcdf
    44cd1866:	0000                	.insn	2, 0x0000
    44cd1868:	e0df 1123 0000      	.insn	6, 0x1123e0df
    44cd186e:	0000                	.insn	2, 0x0000
    44cd1870:	e4df 1123 0000      	.insn	6, 0x1123e4df
    44cd1876:	0000                	.insn	2, 0x0000
    44cd1878:	e8df 1123 0000      	.insn	6, 0x1123e8df
    44cd187e:	0000                	.insn	2, 0x0000
    44cd1880:	ecdf 1123 0000      	.insn	6, 0x1123ecdf
    44cd1886:	0000                	.insn	2, 0x0000
    44cd1888:	f0df 1123 0000      	.insn	6, 0x1123f0df
    44cd188e:	0000                	.insn	2, 0x0000
    44cd1890:	f4df 1123 0000      	.insn	6, 0x1123f4df
    44cd1896:	0000                	.insn	2, 0x0000
    44cd1898:	f8df 1123 0000      	.insn	6, 0x1123f8df
    44cd189e:	0000                	.insn	2, 0x0000
    44cd18a0:	fcdf 1123 0000      	.insn	6, 0x1123fcdf
    44cd18a6:	0000                	.insn	2, 0x0000
    44cd18a8:	00df 1124 0000      	.insn	6, 0x112400df
    44cd18ae:	0000                	.insn	2, 0x0000
    44cd18b0:	04df 1124 0000      	.insn	6, 0x112404df
    44cd18b6:	0000                	.insn	2, 0x0000
    44cd18b8:	08df 1124 0000      	.insn	6, 0x112408df
    44cd18be:	0000                	.insn	2, 0x0000
    44cd18c0:	0cdf 1124 0000      	.insn	6, 0x11240cdf
    44cd18c6:	0000                	.insn	2, 0x0000
    44cd18c8:	10df 1124 0000      	.insn	6, 0x112410df
    44cd18ce:	0000                	.insn	2, 0x0000
    44cd18d0:	14df 1124 0000      	.insn	6, 0x112414df
    44cd18d6:	0000                	.insn	2, 0x0000
    44cd18d8:	18df 1124 0000      	.insn	6, 0x112418df
    44cd18de:	0000                	.insn	2, 0x0000
    44cd18e0:	1cdf 1124 0000      	.insn	6, 0x11241cdf
    44cd18e6:	0000                	.insn	2, 0x0000
    44cd18e8:	20df 1124 0000      	.insn	6, 0x112420df
    44cd18ee:	0000                	.insn	2, 0x0000
    44cd18f0:	24df 1124 0000      	.insn	6, 0x112424df
    44cd18f6:	0000                	.insn	2, 0x0000
    44cd18f8:	28df 1124 0000      	.insn	6, 0x112428df
    44cd18fe:	0000                	.insn	2, 0x0000
    44cd1900:	2cdf 1124 0000      	.insn	6, 0x11242cdf
    44cd1906:	0000                	.insn	2, 0x0000
    44cd1908:	30df 1124 0000      	.insn	6, 0x112430df
    44cd190e:	0000                	.insn	2, 0x0000
    44cd1910:	34df 1124 0000      	.insn	6, 0x112434df
    44cd1916:	0000                	.insn	2, 0x0000
    44cd1918:	38df 1124 0000      	.insn	6, 0x112438df
    44cd191e:	0000                	.insn	2, 0x0000
    44cd1920:	3cdf 1124 0000      	.insn	6, 0x11243cdf
    44cd1926:	0000                	.insn	2, 0x0000
    44cd1928:	40df 1124 0000      	.insn	6, 0x112440df
    44cd192e:	0000                	.insn	2, 0x0000
    44cd1930:	44df 1124 0000      	.insn	6, 0x112444df
    44cd1936:	0000                	.insn	2, 0x0000
    44cd1938:	48df 1124 0000      	.insn	6, 0x112448df
    44cd193e:	0000                	.insn	2, 0x0000
    44cd1940:	4cdf 1124 0000      	.insn	6, 0x11244cdf
    44cd1946:	0000                	.insn	2, 0x0000
    44cd1948:	50df 1124 0000      	.insn	6, 0x112450df
    44cd194e:	0000                	.insn	2, 0x0000
    44cd1950:	54df 1124 0000      	.insn	6, 0x112454df
    44cd1956:	0000                	.insn	2, 0x0000
    44cd1958:	58df 1124 0000      	.insn	6, 0x112458df
    44cd195e:	0000                	.insn	2, 0x0000
    44cd1960:	5cdf 1124 0000      	.insn	6, 0x11245cdf
    44cd1966:	0000                	.insn	2, 0x0000
    44cd1968:	60df 1124 0000      	.insn	6, 0x112460df
    44cd196e:	0000                	.insn	2, 0x0000
    44cd1970:	64df 1124 0000      	.insn	6, 0x112464df
    44cd1976:	0000                	.insn	2, 0x0000
    44cd1978:	68df 1124 0000      	.insn	6, 0x112468df
    44cd197e:	0000                	.insn	2, 0x0000
    44cd1980:	6cdf 1124 0000      	.insn	6, 0x11246cdf
    44cd1986:	0000                	.insn	2, 0x0000
    44cd1988:	70df 1124 0000      	.insn	6, 0x112470df
    44cd198e:	0000                	.insn	2, 0x0000
    44cd1990:	74df 1124 0000      	.insn	6, 0x112474df
    44cd1996:	0000                	.insn	2, 0x0000
    44cd1998:	78df 1124 0000      	.insn	6, 0x112478df
    44cd199e:	0000                	.insn	2, 0x0000
    44cd19a0:	7cdf 1124 0000      	.insn	6, 0x11247cdf
    44cd19a6:	0000                	.insn	2, 0x0000
    44cd19a8:	80df 1124 0000      	.insn	6, 0x112480df
    44cd19ae:	0000                	.insn	2, 0x0000
    44cd19b0:	84df 1124 0000      	.insn	6, 0x112484df
    44cd19b6:	0000                	.insn	2, 0x0000
    44cd19b8:	88df 1124 0000      	.insn	6, 0x112488df
    44cd19be:	0000                	.insn	2, 0x0000
    44cd19c0:	8cdf 1124 0000      	.insn	6, 0x11248cdf
    44cd19c6:	0000                	.insn	2, 0x0000
    44cd19c8:	90df 1124 0000      	.insn	6, 0x112490df
    44cd19ce:	0000                	.insn	2, 0x0000
    44cd19d0:	94df 1124 0000      	.insn	6, 0x112494df
    44cd19d6:	0000                	.insn	2, 0x0000
    44cd19d8:	98df 1124 0000      	.insn	6, 0x112498df
    44cd19de:	0000                	.insn	2, 0x0000
    44cd19e0:	9cdf 1124 0000      	.insn	6, 0x11249cdf
    44cd19e6:	0000                	.insn	2, 0x0000
    44cd19e8:	a0df 1124 0000      	.insn	6, 0x1124a0df
    44cd19ee:	0000                	.insn	2, 0x0000
    44cd19f0:	a4df 1124 0000      	.insn	6, 0x1124a4df
    44cd19f6:	0000                	.insn	2, 0x0000
    44cd19f8:	a8df 1124 0000      	.insn	6, 0x1124a8df
    44cd19fe:	0000                	.insn	2, 0x0000
    44cd1a00:	acdf 1124 0000      	.insn	6, 0x1124acdf
    44cd1a06:	0000                	.insn	2, 0x0000
    44cd1a08:	b0df 1124 0000      	.insn	6, 0x1124b0df
    44cd1a0e:	0000                	.insn	2, 0x0000
    44cd1a10:	b4df 1124 0000      	.insn	6, 0x1124b4df
    44cd1a16:	0000                	.insn	2, 0x0000
    44cd1a18:	b8df 1124 0000      	.insn	6, 0x1124b8df
    44cd1a1e:	0000                	.insn	2, 0x0000
    44cd1a20:	bcdf 1124 0000      	.insn	6, 0x1124bcdf
    44cd1a26:	0000                	.insn	2, 0x0000
    44cd1a28:	c0df 1124 0000      	.insn	6, 0x1124c0df
    44cd1a2e:	0000                	.insn	2, 0x0000
    44cd1a30:	c4df 1124 0000      	.insn	6, 0x1124c4df
    44cd1a36:	0000                	.insn	2, 0x0000
    44cd1a38:	c8df 1124 0000      	.insn	6, 0x1124c8df
    44cd1a3e:	0000                	.insn	2, 0x0000
    44cd1a40:	ccdf 1124 0000      	.insn	6, 0x1124ccdf
    44cd1a46:	0000                	.insn	2, 0x0000
    44cd1a48:	d0df 1124 0000      	.insn	6, 0x1124d0df
    44cd1a4e:	0000                	.insn	2, 0x0000
    44cd1a50:	d4df 1124 0000      	.insn	6, 0x1124d4df
    44cd1a56:	0000                	.insn	2, 0x0000
    44cd1a58:	d8df 1124 0000      	.insn	6, 0x1124d8df
    44cd1a5e:	0000                	.insn	2, 0x0000
    44cd1a60:	dcdf 1124 0000      	.insn	6, 0x1124dcdf
    44cd1a66:	0000                	.insn	2, 0x0000
    44cd1a68:	e0df 1124 0000      	.insn	6, 0x1124e0df
    44cd1a6e:	0000                	.insn	2, 0x0000
    44cd1a70:	e4df 1124 0000      	.insn	6, 0x1124e4df
    44cd1a76:	0000                	.insn	2, 0x0000
    44cd1a78:	e8df 1124 0000      	.insn	6, 0x1124e8df
    44cd1a7e:	0000                	.insn	2, 0x0000
    44cd1a80:	ecdf 1124 0000      	.insn	6, 0x1124ecdf
    44cd1a86:	0000                	.insn	2, 0x0000
    44cd1a88:	f0df 1124 0000      	.insn	6, 0x1124f0df
    44cd1a8e:	0000                	.insn	2, 0x0000
    44cd1a90:	f4df 1124 0000      	.insn	6, 0x1124f4df
    44cd1a96:	0000                	.insn	2, 0x0000
    44cd1a98:	f8df 1124 0000      	.insn	6, 0x1124f8df
    44cd1a9e:	0000                	.insn	2, 0x0000
    44cd1aa0:	fcdf 1124 0000      	.insn	6, 0x1124fcdf
    44cd1aa6:	0000                	.insn	2, 0x0000
    44cd1aa8:	00df 1125 0000      	.insn	6, 0x112500df
    44cd1aae:	0000                	.insn	2, 0x0000
    44cd1ab0:	04df 1125 0000      	.insn	6, 0x112504df
    44cd1ab6:	0000                	.insn	2, 0x0000
    44cd1ab8:	08df 1125 0000      	.insn	6, 0x112508df
    44cd1abe:	0000                	.insn	2, 0x0000
    44cd1ac0:	0cdf 1125 0000      	.insn	6, 0x11250cdf
    44cd1ac6:	0000                	.insn	2, 0x0000
    44cd1ac8:	10df 1125 0000      	.insn	6, 0x112510df
    44cd1ace:	0000                	.insn	2, 0x0000
    44cd1ad0:	14df 1125 0000      	.insn	6, 0x112514df
    44cd1ad6:	0000                	.insn	2, 0x0000
    44cd1ad8:	18df 1125 0000      	.insn	6, 0x112518df
    44cd1ade:	0000                	.insn	2, 0x0000
    44cd1ae0:	1cdf 1125 0000      	.insn	6, 0x11251cdf
    44cd1ae6:	0000                	.insn	2, 0x0000
    44cd1ae8:	20df 1125 0000      	.insn	6, 0x112520df
    44cd1aee:	0000                	.insn	2, 0x0000
    44cd1af0:	24df 1125 0000      	.insn	6, 0x112524df
    44cd1af6:	0000                	.insn	2, 0x0000
    44cd1af8:	28df 1125 0000      	.insn	6, 0x112528df
    44cd1afe:	0000                	.insn	2, 0x0000
    44cd1b00:	2cdf 1125 0000      	.insn	6, 0x11252cdf
    44cd1b06:	0000                	.insn	2, 0x0000
    44cd1b08:	30df 1125 0000      	.insn	6, 0x112530df
    44cd1b0e:	0000                	.insn	2, 0x0000
    44cd1b10:	34df 1125 0000      	.insn	6, 0x112534df
    44cd1b16:	0000                	.insn	2, 0x0000
    44cd1b18:	38df 1125 0000      	.insn	6, 0x112538df
    44cd1b1e:	0000                	.insn	2, 0x0000
    44cd1b20:	3cdf 1125 0000      	.insn	6, 0x11253cdf
    44cd1b26:	0000                	.insn	2, 0x0000
    44cd1b28:	40df 1125 0000      	.insn	6, 0x112540df
    44cd1b2e:	0000                	.insn	2, 0x0000
    44cd1b30:	44df 1125 0000      	.insn	6, 0x112544df
    44cd1b36:	0000                	.insn	2, 0x0000
    44cd1b38:	48df 1125 0000      	.insn	6, 0x112548df
    44cd1b3e:	0000                	.insn	2, 0x0000
    44cd1b40:	4cdf 1125 0000      	.insn	6, 0x11254cdf
    44cd1b46:	0000                	.insn	2, 0x0000
    44cd1b48:	50df 1125 0000      	.insn	6, 0x112550df
    44cd1b4e:	0000                	.insn	2, 0x0000
    44cd1b50:	54df 1125 0000      	.insn	6, 0x112554df
    44cd1b56:	0000                	.insn	2, 0x0000
    44cd1b58:	58df 1125 0000      	.insn	6, 0x112558df
    44cd1b5e:	0000                	.insn	2, 0x0000
    44cd1b60:	5cdf 1125 0000      	.insn	6, 0x11255cdf
    44cd1b66:	0000                	.insn	2, 0x0000
    44cd1b68:	60df 1125 0000      	.insn	6, 0x112560df
    44cd1b6e:	0000                	.insn	2, 0x0000
    44cd1b70:	64df 1125 0000      	.insn	6, 0x112564df
    44cd1b76:	0000                	.insn	2, 0x0000
    44cd1b78:	68df 1125 0000      	.insn	6, 0x112568df
    44cd1b7e:	0000                	.insn	2, 0x0000
    44cd1b80:	6cdf 1125 0000      	.insn	6, 0x11256cdf
    44cd1b86:	0000                	.insn	2, 0x0000
    44cd1b88:	70df 1125 0000      	.insn	6, 0x112570df
    44cd1b8e:	0000                	.insn	2, 0x0000
    44cd1b90:	74df 1125 0000      	.insn	6, 0x112574df
    44cd1b96:	0000                	.insn	2, 0x0000
    44cd1b98:	78df 1125 0000      	.insn	6, 0x112578df
    44cd1b9e:	0000                	.insn	2, 0x0000
    44cd1ba0:	7cdf 1125 0000      	.insn	6, 0x11257cdf
    44cd1ba6:	0000                	.insn	2, 0x0000
    44cd1ba8:	80df 1125 0000      	.insn	6, 0x112580df
    44cd1bae:	0000                	.insn	2, 0x0000
    44cd1bb0:	84df 1125 0000      	.insn	6, 0x112584df
    44cd1bb6:	0000                	.insn	2, 0x0000
    44cd1bb8:	88df 1125 0000      	.insn	6, 0x112588df
    44cd1bbe:	0000                	.insn	2, 0x0000
    44cd1bc0:	8cdf 1125 0000      	.insn	6, 0x11258cdf
    44cd1bc6:	0000                	.insn	2, 0x0000
    44cd1bc8:	90df 1125 0000      	.insn	6, 0x112590df
    44cd1bce:	0000                	.insn	2, 0x0000
    44cd1bd0:	94df 1125 0000      	.insn	6, 0x112594df
    44cd1bd6:	0000                	.insn	2, 0x0000
    44cd1bd8:	98df 1125 0000      	.insn	6, 0x112598df
    44cd1bde:	0000                	.insn	2, 0x0000
    44cd1be0:	9cdf 1125 0000      	.insn	6, 0x11259cdf
    44cd1be6:	0000                	.insn	2, 0x0000
    44cd1be8:	a0df 1125 0000      	.insn	6, 0x1125a0df
    44cd1bee:	0000                	.insn	2, 0x0000
    44cd1bf0:	a4df 1125 0000      	.insn	6, 0x1125a4df
    44cd1bf6:	0000                	.insn	2, 0x0000
    44cd1bf8:	a8df 1125 0000      	.insn	6, 0x1125a8df
    44cd1bfe:	0000                	.insn	2, 0x0000
    44cd1c00:	acdf 1125 0000      	.insn	6, 0x1125acdf
    44cd1c06:	0000                	.insn	2, 0x0000
    44cd1c08:	b0df 1125 0000      	.insn	6, 0x1125b0df
    44cd1c0e:	0000                	.insn	2, 0x0000
    44cd1c10:	b4df 1125 0000      	.insn	6, 0x1125b4df
    44cd1c16:	0000                	.insn	2, 0x0000
    44cd1c18:	b8df 1125 0000      	.insn	6, 0x1125b8df
    44cd1c1e:	0000                	.insn	2, 0x0000
    44cd1c20:	bcdf 1125 0000      	.insn	6, 0x1125bcdf
    44cd1c26:	0000                	.insn	2, 0x0000
    44cd1c28:	c0df 1125 0000      	.insn	6, 0x1125c0df
    44cd1c2e:	0000                	.insn	2, 0x0000
    44cd1c30:	c4df 1125 0000      	.insn	6, 0x1125c4df
    44cd1c36:	0000                	.insn	2, 0x0000
    44cd1c38:	c8df 1125 0000      	.insn	6, 0x1125c8df
    44cd1c3e:	0000                	.insn	2, 0x0000
    44cd1c40:	ccdf 1125 0000      	.insn	6, 0x1125ccdf
    44cd1c46:	0000                	.insn	2, 0x0000
    44cd1c48:	d0df 1125 0000      	.insn	6, 0x1125d0df
    44cd1c4e:	0000                	.insn	2, 0x0000
    44cd1c50:	d4df 1125 0000      	.insn	6, 0x1125d4df
    44cd1c56:	0000                	.insn	2, 0x0000
    44cd1c58:	d8df 1125 0000      	.insn	6, 0x1125d8df
    44cd1c5e:	0000                	.insn	2, 0x0000
    44cd1c60:	dcdf 1125 0000      	.insn	6, 0x1125dcdf
    44cd1c66:	0000                	.insn	2, 0x0000
    44cd1c68:	e0df 1125 0000      	.insn	6, 0x1125e0df
    44cd1c6e:	0000                	.insn	2, 0x0000
    44cd1c70:	e4df 1125 0000      	.insn	6, 0x1125e4df
    44cd1c76:	0000                	.insn	2, 0x0000
    44cd1c78:	e8df 1125 0000      	.insn	6, 0x1125e8df
    44cd1c7e:	0000                	.insn	2, 0x0000
    44cd1c80:	ecdf 1125 0000      	.insn	6, 0x1125ecdf
    44cd1c86:	0000                	.insn	2, 0x0000
    44cd1c88:	f0df 1125 0000      	.insn	6, 0x1125f0df
    44cd1c8e:	0000                	.insn	2, 0x0000
    44cd1c90:	f4df 1125 0000      	.insn	6, 0x1125f4df
    44cd1c96:	0000                	.insn	2, 0x0000
    44cd1c98:	f8df 1125 0000      	.insn	6, 0x1125f8df
    44cd1c9e:	0000                	.insn	2, 0x0000
    44cd1ca0:	fcdf 1125 0000      	.insn	6, 0x1125fcdf
    44cd1ca6:	0000                	.insn	2, 0x0000
    44cd1ca8:	00df 1126 0000      	.insn	6, 0x112600df
    44cd1cae:	0000                	.insn	2, 0x0000
    44cd1cb0:	04df 1126 0000      	.insn	6, 0x112604df
    44cd1cb6:	0000                	.insn	2, 0x0000
    44cd1cb8:	08df 1126 0000      	.insn	6, 0x112608df
    44cd1cbe:	0000                	.insn	2, 0x0000
    44cd1cc0:	0cdf 1126 0000      	.insn	6, 0x11260cdf
    44cd1cc6:	0000                	.insn	2, 0x0000
    44cd1cc8:	10df 1126 0000      	.insn	6, 0x112610df
    44cd1cce:	0000                	.insn	2, 0x0000
    44cd1cd0:	14df 1126 0000      	.insn	6, 0x112614df
    44cd1cd6:	0000                	.insn	2, 0x0000
    44cd1cd8:	18df 1126 0000      	.insn	6, 0x112618df
    44cd1cde:	0000                	.insn	2, 0x0000
    44cd1ce0:	1cdf 1126 0000      	.insn	6, 0x11261cdf
    44cd1ce6:	0000                	.insn	2, 0x0000
    44cd1ce8:	20df 1126 0000      	.insn	6, 0x112620df
    44cd1cee:	0000                	.insn	2, 0x0000
    44cd1cf0:	24df 1126 0000      	.insn	6, 0x112624df
    44cd1cf6:	0000                	.insn	2, 0x0000
    44cd1cf8:	28df 1126 0000      	.insn	6, 0x112628df
    44cd1cfe:	0000                	.insn	2, 0x0000
    44cd1d00:	2cdf 1126 0000      	.insn	6, 0x11262cdf
    44cd1d06:	0000                	.insn	2, 0x0000
    44cd1d08:	30df 1126 0000      	.insn	6, 0x112630df
    44cd1d0e:	0000                	.insn	2, 0x0000
    44cd1d10:	34df 1126 0000      	.insn	6, 0x112634df
    44cd1d16:	0000                	.insn	2, 0x0000
    44cd1d18:	38df 1126 0000      	.insn	6, 0x112638df
    44cd1d1e:	0000                	.insn	2, 0x0000
    44cd1d20:	3cdf 1126 0000      	.insn	6, 0x11263cdf
    44cd1d26:	0000                	.insn	2, 0x0000
    44cd1d28:	40df 1126 0000      	.insn	6, 0x112640df
    44cd1d2e:	0000                	.insn	2, 0x0000
    44cd1d30:	44df 1126 0000      	.insn	6, 0x112644df
    44cd1d36:	0000                	.insn	2, 0x0000
    44cd1d38:	48df 1126 0000      	.insn	6, 0x112648df
    44cd1d3e:	0000                	.insn	2, 0x0000
    44cd1d40:	4cdf 1126 0000      	.insn	6, 0x11264cdf
    44cd1d46:	0000                	.insn	2, 0x0000
    44cd1d48:	50df 1126 0000      	.insn	6, 0x112650df
    44cd1d4e:	0000                	.insn	2, 0x0000
    44cd1d50:	54df 1126 0000      	.insn	6, 0x112654df
    44cd1d56:	0000                	.insn	2, 0x0000
    44cd1d58:	58df 1126 0000      	.insn	6, 0x112658df
    44cd1d5e:	0000                	.insn	2, 0x0000
    44cd1d60:	5cdf 1126 0000      	.insn	6, 0x11265cdf
    44cd1d66:	0000                	.insn	2, 0x0000
    44cd1d68:	60df 1126 0000      	.insn	6, 0x112660df
    44cd1d6e:	0000                	.insn	2, 0x0000
    44cd1d70:	64df 1126 0000      	.insn	6, 0x112664df
    44cd1d76:	0000                	.insn	2, 0x0000
    44cd1d78:	68df 1126 0000      	.insn	6, 0x112668df
    44cd1d7e:	0000                	.insn	2, 0x0000
    44cd1d80:	6cdf 1126 0000      	.insn	6, 0x11266cdf
    44cd1d86:	0000                	.insn	2, 0x0000
    44cd1d88:	70df 1126 0000      	.insn	6, 0x112670df
    44cd1d8e:	0000                	.insn	2, 0x0000
    44cd1d90:	74df 1126 0000      	.insn	6, 0x112674df
    44cd1d96:	0000                	.insn	2, 0x0000
    44cd1d98:	78df 1126 0000      	.insn	6, 0x112678df
    44cd1d9e:	0000                	.insn	2, 0x0000
    44cd1da0:	7cdf 1126 0000      	.insn	6, 0x11267cdf
    44cd1da6:	0000                	.insn	2, 0x0000
    44cd1da8:	80df 1126 0000      	.insn	6, 0x112680df
    44cd1dae:	0000                	.insn	2, 0x0000
    44cd1db0:	84df 1126 0000      	.insn	6, 0x112684df
    44cd1db6:	0000                	.insn	2, 0x0000
    44cd1db8:	88df 1126 0000      	.insn	6, 0x112688df
    44cd1dbe:	0000                	.insn	2, 0x0000
    44cd1dc0:	8cdf 1126 0000      	.insn	6, 0x11268cdf
    44cd1dc6:	0000                	.insn	2, 0x0000
    44cd1dc8:	90df 1126 0000      	.insn	6, 0x112690df
    44cd1dce:	0000                	.insn	2, 0x0000
    44cd1dd0:	94df 1126 0000      	.insn	6, 0x112694df
    44cd1dd6:	0000                	.insn	2, 0x0000
    44cd1dd8:	98df 1126 0000      	.insn	6, 0x112698df
    44cd1dde:	0000                	.insn	2, 0x0000
    44cd1de0:	9cdf 1126 0000      	.insn	6, 0x11269cdf
    44cd1de6:	0000                	.insn	2, 0x0000
    44cd1de8:	a0df 1126 0000      	.insn	6, 0x1126a0df
    44cd1dee:	0000                	.insn	2, 0x0000
    44cd1df0:	a4df 1126 0000      	.insn	6, 0x1126a4df
    44cd1df6:	0000                	.insn	2, 0x0000
    44cd1df8:	a8df 1126 0000      	.insn	6, 0x1126a8df
    44cd1dfe:	0000                	.insn	2, 0x0000
    44cd1e00:	acdf 1126 0000      	.insn	6, 0x1126acdf
    44cd1e06:	0000                	.insn	2, 0x0000
    44cd1e08:	b0df 1126 0000      	.insn	6, 0x1126b0df
    44cd1e0e:	0000                	.insn	2, 0x0000
    44cd1e10:	b4df 1126 0000      	.insn	6, 0x1126b4df
    44cd1e16:	0000                	.insn	2, 0x0000
    44cd1e18:	b8df 1126 0000      	.insn	6, 0x1126b8df
    44cd1e1e:	0000                	.insn	2, 0x0000
    44cd1e20:	bcdf 1126 0000      	.insn	6, 0x1126bcdf
    44cd1e26:	0000                	.insn	2, 0x0000
    44cd1e28:	c0df 1126 0000      	.insn	6, 0x1126c0df
    44cd1e2e:	0000                	.insn	2, 0x0000
    44cd1e30:	c4df 1126 0000      	.insn	6, 0x1126c4df
    44cd1e36:	0000                	.insn	2, 0x0000
    44cd1e38:	c8df 1126 0000      	.insn	6, 0x1126c8df
    44cd1e3e:	0000                	.insn	2, 0x0000
    44cd1e40:	ccdf 1126 0000      	.insn	6, 0x1126ccdf
    44cd1e46:	0000                	.insn	2, 0x0000
    44cd1e48:	d0df 1126 0000      	.insn	6, 0x1126d0df
    44cd1e4e:	0000                	.insn	2, 0x0000
    44cd1e50:	d4df 1126 0000      	.insn	6, 0x1126d4df
    44cd1e56:	0000                	.insn	2, 0x0000
    44cd1e58:	d8df 1126 0000      	.insn	6, 0x1126d8df
    44cd1e5e:	0000                	.insn	2, 0x0000
    44cd1e60:	dcdf 1126 0000      	.insn	6, 0x1126dcdf
    44cd1e66:	0000                	.insn	2, 0x0000
    44cd1e68:	e0df 1126 0000      	.insn	6, 0x1126e0df
    44cd1e6e:	0000                	.insn	2, 0x0000
    44cd1e70:	e4df 1126 0000      	.insn	6, 0x1126e4df
    44cd1e76:	0000                	.insn	2, 0x0000
    44cd1e78:	e8df 1126 0000      	.insn	6, 0x1126e8df
    44cd1e7e:	0000                	.insn	2, 0x0000
    44cd1e80:	ecdf 1126 0000      	.insn	6, 0x1126ecdf
    44cd1e86:	0000                	.insn	2, 0x0000
    44cd1e88:	f0df 1126 0000      	.insn	6, 0x1126f0df
    44cd1e8e:	0000                	.insn	2, 0x0000
    44cd1e90:	f4df 1126 0000      	.insn	6, 0x1126f4df
    44cd1e96:	0000                	.insn	2, 0x0000
    44cd1e98:	f8df 1126 0000      	.insn	6, 0x1126f8df
    44cd1e9e:	0000                	.insn	2, 0x0000
    44cd1ea0:	fcdf 1126 0000      	.insn	6, 0x1126fcdf
    44cd1ea6:	0000                	.insn	2, 0x0000
    44cd1ea8:	00df 1127 0000      	.insn	6, 0x112700df
    44cd1eae:	0000                	.insn	2, 0x0000
    44cd1eb0:	04df 1127 0000      	.insn	6, 0x112704df
    44cd1eb6:	0000                	.insn	2, 0x0000
    44cd1eb8:	08df 1127 0000      	.insn	6, 0x112708df
    44cd1ebe:	0000                	.insn	2, 0x0000
    44cd1ec0:	0cdf 1127 0000      	.insn	6, 0x11270cdf
    44cd1ec6:	0000                	.insn	2, 0x0000
    44cd1ec8:	10df 1127 0000      	.insn	6, 0x112710df
    44cd1ece:	0000                	.insn	2, 0x0000
    44cd1ed0:	14df 1127 0000      	.insn	6, 0x112714df
    44cd1ed6:	0000                	.insn	2, 0x0000
    44cd1ed8:	18df 1127 0000      	.insn	6, 0x112718df
    44cd1ede:	0000                	.insn	2, 0x0000
    44cd1ee0:	1cdf 1127 0000      	.insn	6, 0x11271cdf
    44cd1ee6:	0000                	.insn	2, 0x0000
    44cd1ee8:	20df 1127 0000      	.insn	6, 0x112720df
    44cd1eee:	0000                	.insn	2, 0x0000
    44cd1ef0:	24df 1127 0000      	.insn	6, 0x112724df
    44cd1ef6:	0000                	.insn	2, 0x0000
    44cd1ef8:	28df 1127 0000      	.insn	6, 0x112728df
    44cd1efe:	0000                	.insn	2, 0x0000
    44cd1f00:	2cdf 1127 0000      	.insn	6, 0x11272cdf
    44cd1f06:	0000                	.insn	2, 0x0000
    44cd1f08:	30df 1127 0000      	.insn	6, 0x112730df
    44cd1f0e:	0000                	.insn	2, 0x0000
    44cd1f10:	34df 1127 0000      	.insn	6, 0x112734df
    44cd1f16:	0000                	.insn	2, 0x0000
    44cd1f18:	38df 1127 0000      	.insn	6, 0x112738df
    44cd1f1e:	0000                	.insn	2, 0x0000
    44cd1f20:	3cdf 1127 0000      	.insn	6, 0x11273cdf
    44cd1f26:	0000                	.insn	2, 0x0000
    44cd1f28:	40df 1127 0000      	.insn	6, 0x112740df
    44cd1f2e:	0000                	.insn	2, 0x0000
    44cd1f30:	44df 1127 0000      	.insn	6, 0x112744df
    44cd1f36:	0000                	.insn	2, 0x0000
    44cd1f38:	48df 1127 0000      	.insn	6, 0x112748df
    44cd1f3e:	0000                	.insn	2, 0x0000
    44cd1f40:	4cdf 1127 0000      	.insn	6, 0x11274cdf
    44cd1f46:	0000                	.insn	2, 0x0000
    44cd1f48:	50df 1127 0000      	.insn	6, 0x112750df
    44cd1f4e:	0000                	.insn	2, 0x0000
    44cd1f50:	54df 1127 0000      	.insn	6, 0x112754df
    44cd1f56:	0000                	.insn	2, 0x0000
    44cd1f58:	58df 1127 0000      	.insn	6, 0x112758df
    44cd1f5e:	0000                	.insn	2, 0x0000
    44cd1f60:	5cdf 1127 0000      	.insn	6, 0x11275cdf
    44cd1f66:	0000                	.insn	2, 0x0000
    44cd1f68:	60df 1127 0000      	.insn	6, 0x112760df
    44cd1f6e:	0000                	.insn	2, 0x0000
    44cd1f70:	64df 1127 0000      	.insn	6, 0x112764df
    44cd1f76:	0000                	.insn	2, 0x0000
    44cd1f78:	68df 1127 0000      	.insn	6, 0x112768df
    44cd1f7e:	0000                	.insn	2, 0x0000
    44cd1f80:	6cdf 1127 0000      	.insn	6, 0x11276cdf
    44cd1f86:	0000                	.insn	2, 0x0000
    44cd1f88:	70df 1127 0000      	.insn	6, 0x112770df
    44cd1f8e:	0000                	.insn	2, 0x0000
    44cd1f90:	74df 1127 0000      	.insn	6, 0x112774df
    44cd1f96:	0000                	.insn	2, 0x0000
    44cd1f98:	78df 1127 0000      	.insn	6, 0x112778df
    44cd1f9e:	0000                	.insn	2, 0x0000
    44cd1fa0:	7cdf 1127 0000      	.insn	6, 0x11277cdf
    44cd1fa6:	0000                	.insn	2, 0x0000
    44cd1fa8:	80df 1127 0000      	.insn	6, 0x112780df
    44cd1fae:	0000                	.insn	2, 0x0000
    44cd1fb0:	84df 1127 0000      	.insn	6, 0x112784df
    44cd1fb6:	0000                	.insn	2, 0x0000
    44cd1fb8:	88df 1127 0000      	.insn	6, 0x112788df
    44cd1fbe:	0000                	.insn	2, 0x0000
    44cd1fc0:	8cdf 1127 0000      	.insn	6, 0x11278cdf
    44cd1fc6:	0000                	.insn	2, 0x0000
    44cd1fc8:	90df 1127 0000      	.insn	6, 0x112790df
    44cd1fce:	0000                	.insn	2, 0x0000
    44cd1fd0:	94df 1127 0000      	.insn	6, 0x112794df
    44cd1fd6:	0000                	.insn	2, 0x0000
    44cd1fd8:	98df 1127 0000      	.insn	6, 0x112798df
    44cd1fde:	0000                	.insn	2, 0x0000
    44cd1fe0:	9cdf 1127 0000      	.insn	6, 0x11279cdf
    44cd1fe6:	0000                	.insn	2, 0x0000
    44cd1fe8:	a0df 1127 0000      	.insn	6, 0x1127a0df
    44cd1fee:	0000                	.insn	2, 0x0000
    44cd1ff0:	a4df 1127 0000      	.insn	6, 0x1127a4df
    44cd1ff6:	0000                	.insn	2, 0x0000
    44cd1ff8:	a8df 1127 0000      	.insn	6, 0x1127a8df
	...

Disassembly of section .__pagetable_map_os_0x0000000044cc6000:

0000000044cc6000 <__pagetable_map_os_0x0000000044cc6000>:
    44cc6000:	acdf 1127 0000      	.insn	6, 0x1127acdf
    44cc6006:	0000                	.insn	2, 0x0000
    44cc6008:	b0df 1127 0000      	.insn	6, 0x1127b0df
    44cc600e:	0000                	.insn	2, 0x0000
    44cc6010:	b4df 1127 0000      	.insn	6, 0x1127b4df
    44cc6016:	0000                	.insn	2, 0x0000
    44cc6018:	b8df 1127 0000      	.insn	6, 0x1127b8df
    44cc601e:	0000                	.insn	2, 0x0000
    44cc6020:	bcdf 1127 0000      	.insn	6, 0x1127bcdf
    44cc6026:	0000                	.insn	2, 0x0000
    44cc6028:	c0df 1127 0000      	.insn	6, 0x1127c0df
    44cc602e:	0000                	.insn	2, 0x0000
    44cc6030:	c4df 1127 0000      	.insn	6, 0x1127c4df
    44cc6036:	0000                	.insn	2, 0x0000
    44cc6038:	c8df 1127 0000      	.insn	6, 0x1127c8df
    44cc603e:	0000                	.insn	2, 0x0000
    44cc6040:	ccdf 1127 0000      	.insn	6, 0x1127ccdf
    44cc6046:	0000                	.insn	2, 0x0000
    44cc6048:	1127d0cf          	fnmadd.s	f1,f15,f18,f2,unknown
    44cc604c:	0000                	.insn	2, 0x0000
    44cc604e:	0000                	.insn	2, 0x0000
    44cc6050:	1127d4cf          	fnmadd.s	f9,f15,f18,f2,unknown
    44cc6054:	0000                	.insn	2, 0x0000
    44cc6056:	0000                	.insn	2, 0x0000
    44cc6058:	1127d8cf          	fnmadd.s	f17,f15,f18,f2,unknown
    44cc605c:	0000                	.insn	2, 0x0000
    44cc605e:	0000                	.insn	2, 0x0000
    44cc6060:	1127dccf          	fnmadd.s	f25,f15,f18,f2,unknown
    44cc6064:	0000                	.insn	2, 0x0000
    44cc6066:	0000                	.insn	2, 0x0000
    44cc6068:	1127e0cf          	fnmadd.s	f1,f15,f18,f2,unknown
    44cc606c:	0000                	.insn	2, 0x0000
    44cc606e:	0000                	.insn	2, 0x0000
    44cc6070:	1127e4cf          	fnmadd.s	f9,f15,f18,f2,unknown
    44cc6074:	0000                	.insn	2, 0x0000
    44cc6076:	0000                	.insn	2, 0x0000
    44cc6078:	1127e8cf          	fnmadd.s	f17,f15,f18,f2,unknown
    44cc607c:	0000                	.insn	2, 0x0000
    44cc607e:	0000                	.insn	2, 0x0000
    44cc6080:	1127eccf          	fnmadd.s	f25,f15,f18,f2,unknown
    44cc6084:	0000                	.insn	2, 0x0000
    44cc6086:	0000                	.insn	2, 0x0000
    44cc6088:	1127f0cf          	fnmadd.s	f1,f15,f18,f2
    44cc608c:	0000                	.insn	2, 0x0000
    44cc608e:	0000                	.insn	2, 0x0000
    44cc6090:	1127f4cf          	fnmadd.s	f9,f15,f18,f2
    44cc6094:	0000                	.insn	2, 0x0000
    44cc6096:	0000                	.insn	2, 0x0000
    44cc6098:	1127f8cf          	fnmadd.s	f17,f15,f18,f2
    44cc609c:	0000                	.insn	2, 0x0000
    44cc609e:	0000                	.insn	2, 0x0000
    44cc60a0:	1127fccf          	fnmadd.s	f25,f15,f18,f2
    44cc60a4:	0000                	.insn	2, 0x0000
    44cc60a6:	0000                	.insn	2, 0x0000
    44cc60a8:	112800cf          	fnmadd.s	f1,f16,f18,f2,rne
    44cc60ac:	0000                	.insn	2, 0x0000
    44cc60ae:	0000                	.insn	2, 0x0000
    44cc60b0:	112804cf          	fnmadd.s	f9,f16,f18,f2,rne
    44cc60b4:	0000                	.insn	2, 0x0000
    44cc60b6:	0000                	.insn	2, 0x0000
    44cc60b8:	112808cf          	fnmadd.s	f17,f16,f18,f2,rne
    44cc60bc:	0000                	.insn	2, 0x0000
    44cc60be:	0000                	.insn	2, 0x0000
    44cc60c0:	11280ccf          	fnmadd.s	f25,f16,f18,f2,rne
    44cc60c4:	0000                	.insn	2, 0x0000
    44cc60c6:	0000                	.insn	2, 0x0000
    44cc60c8:	112810cf          	fnmadd.s	f1,f16,f18,f2,rtz
    44cc60cc:	0000                	.insn	2, 0x0000
    44cc60ce:	0000                	.insn	2, 0x0000
    44cc60d0:	112814cf          	fnmadd.s	f9,f16,f18,f2,rtz
    44cc60d4:	0000                	.insn	2, 0x0000
    44cc60d6:	0000                	.insn	2, 0x0000
    44cc60d8:	112818cf          	fnmadd.s	f17,f16,f18,f2,rtz
    44cc60dc:	0000                	.insn	2, 0x0000
    44cc60de:	0000                	.insn	2, 0x0000
    44cc60e0:	11281ccf          	fnmadd.s	f25,f16,f18,f2,rtz
    44cc60e4:	0000                	.insn	2, 0x0000
    44cc60e6:	0000                	.insn	2, 0x0000
    44cc60e8:	112820cf          	fnmadd.s	f1,f16,f18,f2,rdn
    44cc60ec:	0000                	.insn	2, 0x0000
    44cc60ee:	0000                	.insn	2, 0x0000
    44cc60f0:	112824cf          	fnmadd.s	f9,f16,f18,f2,rdn
    44cc60f4:	0000                	.insn	2, 0x0000
    44cc60f6:	0000                	.insn	2, 0x0000
    44cc60f8:	112828cf          	fnmadd.s	f17,f16,f18,f2,rdn
    44cc60fc:	0000                	.insn	2, 0x0000
    44cc60fe:	0000                	.insn	2, 0x0000
    44cc6100:	11282ccf          	fnmadd.s	f25,f16,f18,f2,rdn
    44cc6104:	0000                	.insn	2, 0x0000
    44cc6106:	0000                	.insn	2, 0x0000
    44cc6108:	112830cf          	fnmadd.s	f1,f16,f18,f2,rup
    44cc610c:	0000                	.insn	2, 0x0000
    44cc610e:	0000                	.insn	2, 0x0000
    44cc6110:	112834cf          	fnmadd.s	f9,f16,f18,f2,rup
    44cc6114:	0000                	.insn	2, 0x0000
    44cc6116:	0000                	.insn	2, 0x0000
    44cc6118:	112838cf          	fnmadd.s	f17,f16,f18,f2,rup
    44cc611c:	0000                	.insn	2, 0x0000
    44cc611e:	0000                	.insn	2, 0x0000
    44cc6120:	11283ccf          	fnmadd.s	f25,f16,f18,f2,rup
    44cc6124:	0000                	.insn	2, 0x0000
    44cc6126:	0000                	.insn	2, 0x0000
    44cc6128:	112840cf          	fnmadd.s	f1,f16,f18,f2,rmm
    44cc612c:	0000                	.insn	2, 0x0000
    44cc612e:	0000                	.insn	2, 0x0000
    44cc6130:	112844cf          	fnmadd.s	f9,f16,f18,f2,rmm
    44cc6134:	0000                	.insn	2, 0x0000
    44cc6136:	0000                	.insn	2, 0x0000
    44cc6138:	112848cf          	fnmadd.s	f17,f16,f18,f2,rmm
    44cc613c:	0000                	.insn	2, 0x0000
    44cc613e:	0000                	.insn	2, 0x0000
    44cc6140:	11284ccf          	fnmadd.s	f25,f16,f18,f2,rmm
    44cc6144:	0000                	.insn	2, 0x0000
    44cc6146:	0000                	.insn	2, 0x0000
    44cc6148:	112850cf          	fnmadd.s	f1,f16,f18,f2,unknown
    44cc614c:	0000                	.insn	2, 0x0000
    44cc614e:	0000                	.insn	2, 0x0000
    44cc6150:	112854cf          	fnmadd.s	f9,f16,f18,f2,unknown
    44cc6154:	0000                	.insn	2, 0x0000
    44cc6156:	0000                	.insn	2, 0x0000
    44cc6158:	112858cf          	fnmadd.s	f17,f16,f18,f2,unknown
    44cc615c:	0000                	.insn	2, 0x0000
    44cc615e:	0000                	.insn	2, 0x0000
    44cc6160:	11285ccf          	fnmadd.s	f25,f16,f18,f2,unknown
    44cc6164:	0000                	.insn	2, 0x0000
    44cc6166:	0000                	.insn	2, 0x0000
    44cc6168:	112860cf          	fnmadd.s	f1,f16,f18,f2,unknown
    44cc616c:	0000                	.insn	2, 0x0000
    44cc616e:	0000                	.insn	2, 0x0000
    44cc6170:	112864cf          	fnmadd.s	f9,f16,f18,f2,unknown
    44cc6174:	0000                	.insn	2, 0x0000
    44cc6176:	0000                	.insn	2, 0x0000
    44cc6178:	112868cf          	fnmadd.s	f17,f16,f18,f2,unknown
    44cc617c:	0000                	.insn	2, 0x0000
    44cc617e:	0000                	.insn	2, 0x0000
    44cc6180:	11286ccf          	fnmadd.s	f25,f16,f18,f2,unknown
    44cc6184:	0000                	.insn	2, 0x0000
    44cc6186:	0000                	.insn	2, 0x0000
    44cc6188:	112870cf          	fnmadd.s	f1,f16,f18,f2
    44cc618c:	0000                	.insn	2, 0x0000
    44cc618e:	0000                	.insn	2, 0x0000
    44cc6190:	112874cf          	fnmadd.s	f9,f16,f18,f2
    44cc6194:	0000                	.insn	2, 0x0000
    44cc6196:	0000                	.insn	2, 0x0000
    44cc6198:	112878cf          	fnmadd.s	f17,f16,f18,f2
    44cc619c:	0000                	.insn	2, 0x0000
    44cc619e:	0000                	.insn	2, 0x0000
    44cc61a0:	11287ccf          	fnmadd.s	f25,f16,f18,f2
    44cc61a4:	0000                	.insn	2, 0x0000
    44cc61a6:	0000                	.insn	2, 0x0000
    44cc61a8:	112880cf          	fnmadd.s	f1,f17,f18,f2,rne
    44cc61ac:	0000                	.insn	2, 0x0000
    44cc61ae:	0000                	.insn	2, 0x0000
    44cc61b0:	112884cf          	fnmadd.s	f9,f17,f18,f2,rne
    44cc61b4:	0000                	.insn	2, 0x0000
    44cc61b6:	0000                	.insn	2, 0x0000
    44cc61b8:	112888cf          	fnmadd.s	f17,f17,f18,f2,rne
    44cc61bc:	0000                	.insn	2, 0x0000
    44cc61be:	0000                	.insn	2, 0x0000
    44cc61c0:	11288ccf          	fnmadd.s	f25,f17,f18,f2,rne
    44cc61c4:	0000                	.insn	2, 0x0000
    44cc61c6:	0000                	.insn	2, 0x0000
    44cc61c8:	112890cf          	fnmadd.s	f1,f17,f18,f2,rtz
    44cc61cc:	0000                	.insn	2, 0x0000
    44cc61ce:	0000                	.insn	2, 0x0000
    44cc61d0:	112894cf          	fnmadd.s	f9,f17,f18,f2,rtz
    44cc61d4:	0000                	.insn	2, 0x0000
    44cc61d6:	0000                	.insn	2, 0x0000
    44cc61d8:	112898cf          	fnmadd.s	f17,f17,f18,f2,rtz
    44cc61dc:	0000                	.insn	2, 0x0000
    44cc61de:	0000                	.insn	2, 0x0000
    44cc61e0:	11289ccf          	fnmadd.s	f25,f17,f18,f2,rtz
    44cc61e4:	0000                	.insn	2, 0x0000
    44cc61e6:	0000                	.insn	2, 0x0000
    44cc61e8:	1128a0cf          	fnmadd.s	f1,f17,f18,f2,rdn
    44cc61ec:	0000                	.insn	2, 0x0000
    44cc61ee:	0000                	.insn	2, 0x0000
    44cc61f0:	1128a4cf          	fnmadd.s	f9,f17,f18,f2,rdn
    44cc61f4:	0000                	.insn	2, 0x0000
    44cc61f6:	0000                	.insn	2, 0x0000
    44cc61f8:	1128a8cf          	fnmadd.s	f17,f17,f18,f2,rdn
    44cc61fc:	0000                	.insn	2, 0x0000
    44cc61fe:	0000                	.insn	2, 0x0000
    44cc6200:	1128accf          	fnmadd.s	f25,f17,f18,f2,rdn
    44cc6204:	0000                	.insn	2, 0x0000
    44cc6206:	0000                	.insn	2, 0x0000
    44cc6208:	1128b0cf          	fnmadd.s	f1,f17,f18,f2,rup
    44cc620c:	0000                	.insn	2, 0x0000
    44cc620e:	0000                	.insn	2, 0x0000
    44cc6210:	1128b4cf          	fnmadd.s	f9,f17,f18,f2,rup
    44cc6214:	0000                	.insn	2, 0x0000
    44cc6216:	0000                	.insn	2, 0x0000
    44cc6218:	1128b8cf          	fnmadd.s	f17,f17,f18,f2,rup
    44cc621c:	0000                	.insn	2, 0x0000
    44cc621e:	0000                	.insn	2, 0x0000
    44cc6220:	1128bccf          	fnmadd.s	f25,f17,f18,f2,rup
    44cc6224:	0000                	.insn	2, 0x0000
    44cc6226:	0000                	.insn	2, 0x0000
    44cc6228:	1128c0cf          	fnmadd.s	f1,f17,f18,f2,rmm
    44cc622c:	0000                	.insn	2, 0x0000
    44cc622e:	0000                	.insn	2, 0x0000
    44cc6230:	1128c4cf          	fnmadd.s	f9,f17,f18,f2,rmm
    44cc6234:	0000                	.insn	2, 0x0000
    44cc6236:	0000                	.insn	2, 0x0000
    44cc6238:	1128c8cf          	fnmadd.s	f17,f17,f18,f2,rmm
    44cc623c:	0000                	.insn	2, 0x0000
    44cc623e:	0000                	.insn	2, 0x0000
    44cc6240:	1128cccf          	fnmadd.s	f25,f17,f18,f2,rmm
    44cc6244:	0000                	.insn	2, 0x0000
    44cc6246:	0000                	.insn	2, 0x0000
    44cc6248:	1128d0cf          	fnmadd.s	f1,f17,f18,f2,unknown
    44cc624c:	0000                	.insn	2, 0x0000
    44cc624e:	0000                	.insn	2, 0x0000
    44cc6250:	1128d4cf          	fnmadd.s	f9,f17,f18,f2,unknown
    44cc6254:	0000                	.insn	2, 0x0000
    44cc6256:	0000                	.insn	2, 0x0000
    44cc6258:	1128d8cf          	fnmadd.s	f17,f17,f18,f2,unknown
    44cc625c:	0000                	.insn	2, 0x0000
    44cc625e:	0000                	.insn	2, 0x0000
    44cc6260:	1128dccf          	fnmadd.s	f25,f17,f18,f2,unknown
    44cc6264:	0000                	.insn	2, 0x0000
    44cc6266:	0000                	.insn	2, 0x0000
    44cc6268:	1128e0cf          	fnmadd.s	f1,f17,f18,f2,unknown
    44cc626c:	0000                	.insn	2, 0x0000
    44cc626e:	0000                	.insn	2, 0x0000
    44cc6270:	1128e4cf          	fnmadd.s	f9,f17,f18,f2,unknown
    44cc6274:	0000                	.insn	2, 0x0000
    44cc6276:	0000                	.insn	2, 0x0000
    44cc6278:	1128e8cf          	fnmadd.s	f17,f17,f18,f2,unknown
    44cc627c:	0000                	.insn	2, 0x0000
    44cc627e:	0000                	.insn	2, 0x0000
    44cc6280:	1128eccf          	fnmadd.s	f25,f17,f18,f2,unknown
    44cc6284:	0000                	.insn	2, 0x0000
    44cc6286:	0000                	.insn	2, 0x0000
    44cc6288:	1128f0cf          	fnmadd.s	f1,f17,f18,f2
    44cc628c:	0000                	.insn	2, 0x0000
    44cc628e:	0000                	.insn	2, 0x0000
    44cc6290:	1128f4cf          	fnmadd.s	f9,f17,f18,f2
    44cc6294:	0000                	.insn	2, 0x0000
    44cc6296:	0000                	.insn	2, 0x0000
    44cc6298:	1128f8cf          	fnmadd.s	f17,f17,f18,f2
    44cc629c:	0000                	.insn	2, 0x0000
    44cc629e:	0000                	.insn	2, 0x0000
    44cc62a0:	1128fccf          	fnmadd.s	f25,f17,f18,f2
    44cc62a4:	0000                	.insn	2, 0x0000
    44cc62a6:	0000                	.insn	2, 0x0000
    44cc62a8:	112900cf          	fnmadd.s	f1,f18,f18,f2,rne
    44cc62ac:	0000                	.insn	2, 0x0000
    44cc62ae:	0000                	.insn	2, 0x0000
    44cc62b0:	112904cf          	fnmadd.s	f9,f18,f18,f2,rne
    44cc62b4:	0000                	.insn	2, 0x0000
    44cc62b6:	0000                	.insn	2, 0x0000
    44cc62b8:	112908cf          	fnmadd.s	f17,f18,f18,f2,rne
    44cc62bc:	0000                	.insn	2, 0x0000
    44cc62be:	0000                	.insn	2, 0x0000
    44cc62c0:	11290ccf          	fnmadd.s	f25,f18,f18,f2,rne
    44cc62c4:	0000                	.insn	2, 0x0000
    44cc62c6:	0000                	.insn	2, 0x0000
    44cc62c8:	112910cf          	fnmadd.s	f1,f18,f18,f2,rtz
    44cc62cc:	0000                	.insn	2, 0x0000
    44cc62ce:	0000                	.insn	2, 0x0000
    44cc62d0:	112914cf          	fnmadd.s	f9,f18,f18,f2,rtz
    44cc62d4:	0000                	.insn	2, 0x0000
    44cc62d6:	0000                	.insn	2, 0x0000
    44cc62d8:	112918cf          	fnmadd.s	f17,f18,f18,f2,rtz
    44cc62dc:	0000                	.insn	2, 0x0000
    44cc62de:	0000                	.insn	2, 0x0000
    44cc62e0:	11291ccf          	fnmadd.s	f25,f18,f18,f2,rtz
    44cc62e4:	0000                	.insn	2, 0x0000
    44cc62e6:	0000                	.insn	2, 0x0000
    44cc62e8:	112920cf          	fnmadd.s	f1,f18,f18,f2,rdn
    44cc62ec:	0000                	.insn	2, 0x0000
    44cc62ee:	0000                	.insn	2, 0x0000
    44cc62f0:	112924cf          	fnmadd.s	f9,f18,f18,f2,rdn
    44cc62f4:	0000                	.insn	2, 0x0000
    44cc62f6:	0000                	.insn	2, 0x0000
    44cc62f8:	112928cf          	fnmadd.s	f17,f18,f18,f2,rdn
    44cc62fc:	0000                	.insn	2, 0x0000
    44cc62fe:	0000                	.insn	2, 0x0000
    44cc6300:	11292ccf          	fnmadd.s	f25,f18,f18,f2,rdn
    44cc6304:	0000                	.insn	2, 0x0000
    44cc6306:	0000                	.insn	2, 0x0000
    44cc6308:	112930cf          	fnmadd.s	f1,f18,f18,f2,rup
    44cc630c:	0000                	.insn	2, 0x0000
    44cc630e:	0000                	.insn	2, 0x0000
    44cc6310:	112934cf          	fnmadd.s	f9,f18,f18,f2,rup
    44cc6314:	0000                	.insn	2, 0x0000
    44cc6316:	0000                	.insn	2, 0x0000
    44cc6318:	112938cf          	fnmadd.s	f17,f18,f18,f2,rup
    44cc631c:	0000                	.insn	2, 0x0000
    44cc631e:	0000                	.insn	2, 0x0000
    44cc6320:	11293ccf          	fnmadd.s	f25,f18,f18,f2,rup
    44cc6324:	0000                	.insn	2, 0x0000
    44cc6326:	0000                	.insn	2, 0x0000
    44cc6328:	112940cf          	fnmadd.s	f1,f18,f18,f2,rmm
    44cc632c:	0000                	.insn	2, 0x0000
    44cc632e:	0000                	.insn	2, 0x0000
    44cc6330:	112944cf          	fnmadd.s	f9,f18,f18,f2,rmm
    44cc6334:	0000                	.insn	2, 0x0000
    44cc6336:	0000                	.insn	2, 0x0000
    44cc6338:	112948cf          	fnmadd.s	f17,f18,f18,f2,rmm
    44cc633c:	0000                	.insn	2, 0x0000
    44cc633e:	0000                	.insn	2, 0x0000
    44cc6340:	11294ccf          	fnmadd.s	f25,f18,f18,f2,rmm
    44cc6344:	0000                	.insn	2, 0x0000
    44cc6346:	0000                	.insn	2, 0x0000
    44cc6348:	112950cf          	fnmadd.s	f1,f18,f18,f2,unknown
    44cc634c:	0000                	.insn	2, 0x0000
    44cc634e:	0000                	.insn	2, 0x0000
    44cc6350:	112954cf          	fnmadd.s	f9,f18,f18,f2,unknown
    44cc6354:	0000                	.insn	2, 0x0000
    44cc6356:	0000                	.insn	2, 0x0000
    44cc6358:	112958cf          	fnmadd.s	f17,f18,f18,f2,unknown
    44cc635c:	0000                	.insn	2, 0x0000
    44cc635e:	0000                	.insn	2, 0x0000
    44cc6360:	11295ccf          	fnmadd.s	f25,f18,f18,f2,unknown
    44cc6364:	0000                	.insn	2, 0x0000
    44cc6366:	0000                	.insn	2, 0x0000
    44cc6368:	112960cf          	fnmadd.s	f1,f18,f18,f2,unknown
    44cc636c:	0000                	.insn	2, 0x0000
    44cc636e:	0000                	.insn	2, 0x0000
    44cc6370:	112964cf          	fnmadd.s	f9,f18,f18,f2,unknown
    44cc6374:	0000                	.insn	2, 0x0000
    44cc6376:	0000                	.insn	2, 0x0000
    44cc6378:	112968cf          	fnmadd.s	f17,f18,f18,f2,unknown
    44cc637c:	0000                	.insn	2, 0x0000
    44cc637e:	0000                	.insn	2, 0x0000
    44cc6380:	11296ccf          	fnmadd.s	f25,f18,f18,f2,unknown
    44cc6384:	0000                	.insn	2, 0x0000
    44cc6386:	0000                	.insn	2, 0x0000
    44cc6388:	112970cf          	fnmadd.s	f1,f18,f18,f2
    44cc638c:	0000                	.insn	2, 0x0000
    44cc638e:	0000                	.insn	2, 0x0000
    44cc6390:	112974cf          	fnmadd.s	f9,f18,f18,f2
    44cc6394:	0000                	.insn	2, 0x0000
    44cc6396:	0000                	.insn	2, 0x0000
    44cc6398:	112978cf          	fnmadd.s	f17,f18,f18,f2
    44cc639c:	0000                	.insn	2, 0x0000
    44cc639e:	0000                	.insn	2, 0x0000
    44cc63a0:	11297ccf          	fnmadd.s	f25,f18,f18,f2
    44cc63a4:	0000                	.insn	2, 0x0000
    44cc63a6:	0000                	.insn	2, 0x0000
    44cc63a8:	112980cf          	fnmadd.s	f1,f19,f18,f2,rne
    44cc63ac:	0000                	.insn	2, 0x0000
    44cc63ae:	0000                	.insn	2, 0x0000
    44cc63b0:	112984cf          	fnmadd.s	f9,f19,f18,f2,rne
    44cc63b4:	0000                	.insn	2, 0x0000
    44cc63b6:	0000                	.insn	2, 0x0000
    44cc63b8:	112988cf          	fnmadd.s	f17,f19,f18,f2,rne
    44cc63bc:	0000                	.insn	2, 0x0000
    44cc63be:	0000                	.insn	2, 0x0000
    44cc63c0:	11298ccf          	fnmadd.s	f25,f19,f18,f2,rne
    44cc63c4:	0000                	.insn	2, 0x0000
    44cc63c6:	0000                	.insn	2, 0x0000
    44cc63c8:	112990cf          	fnmadd.s	f1,f19,f18,f2,rtz
    44cc63cc:	0000                	.insn	2, 0x0000
    44cc63ce:	0000                	.insn	2, 0x0000
    44cc63d0:	112994cf          	fnmadd.s	f9,f19,f18,f2,rtz
    44cc63d4:	0000                	.insn	2, 0x0000
    44cc63d6:	0000                	.insn	2, 0x0000
    44cc63d8:	112998cf          	fnmadd.s	f17,f19,f18,f2,rtz
    44cc63dc:	0000                	.insn	2, 0x0000
    44cc63de:	0000                	.insn	2, 0x0000
    44cc63e0:	11299ccf          	fnmadd.s	f25,f19,f18,f2,rtz
    44cc63e4:	0000                	.insn	2, 0x0000
    44cc63e6:	0000                	.insn	2, 0x0000
    44cc63e8:	1129a0cf          	fnmadd.s	f1,f19,f18,f2,rdn
    44cc63ec:	0000                	.insn	2, 0x0000
    44cc63ee:	0000                	.insn	2, 0x0000
    44cc63f0:	1129a4cf          	fnmadd.s	f9,f19,f18,f2,rdn
    44cc63f4:	0000                	.insn	2, 0x0000
    44cc63f6:	0000                	.insn	2, 0x0000
    44cc63f8:	1129a8cf          	fnmadd.s	f17,f19,f18,f2,rdn
    44cc63fc:	0000                	.insn	2, 0x0000
    44cc63fe:	0000                	.insn	2, 0x0000
    44cc6400:	1129accf          	fnmadd.s	f25,f19,f18,f2,rdn
    44cc6404:	0000                	.insn	2, 0x0000
    44cc6406:	0000                	.insn	2, 0x0000
    44cc6408:	1129b0cf          	fnmadd.s	f1,f19,f18,f2,rup
    44cc640c:	0000                	.insn	2, 0x0000
    44cc640e:	0000                	.insn	2, 0x0000
    44cc6410:	1129b4cf          	fnmadd.s	f9,f19,f18,f2,rup
    44cc6414:	0000                	.insn	2, 0x0000
    44cc6416:	0000                	.insn	2, 0x0000
    44cc6418:	1129b8cf          	fnmadd.s	f17,f19,f18,f2,rup
    44cc641c:	0000                	.insn	2, 0x0000
    44cc641e:	0000                	.insn	2, 0x0000
    44cc6420:	1129bccf          	fnmadd.s	f25,f19,f18,f2,rup
    44cc6424:	0000                	.insn	2, 0x0000
    44cc6426:	0000                	.insn	2, 0x0000
    44cc6428:	1129c0cf          	fnmadd.s	f1,f19,f18,f2,rmm
    44cc642c:	0000                	.insn	2, 0x0000
    44cc642e:	0000                	.insn	2, 0x0000
    44cc6430:	1129c4cf          	fnmadd.s	f9,f19,f18,f2,rmm
    44cc6434:	0000                	.insn	2, 0x0000
    44cc6436:	0000                	.insn	2, 0x0000
    44cc6438:	1129c8cf          	fnmadd.s	f17,f19,f18,f2,rmm
    44cc643c:	0000                	.insn	2, 0x0000
    44cc643e:	0000                	.insn	2, 0x0000
    44cc6440:	1129cccf          	fnmadd.s	f25,f19,f18,f2,rmm
    44cc6444:	0000                	.insn	2, 0x0000
    44cc6446:	0000                	.insn	2, 0x0000
    44cc6448:	d0df 1129 0000      	.insn	6, 0x1129d0df
    44cc644e:	0000                	.insn	2, 0x0000
    44cc6450:	d4df 1129 0000      	.insn	6, 0x1129d4df
    44cc6456:	0000                	.insn	2, 0x0000
    44cc6458:	d8df 1129 0000      	.insn	6, 0x1129d8df
    44cc645e:	0000                	.insn	2, 0x0000
    44cc6460:	dcdf 1129 0000      	.insn	6, 0x1129dcdf
    44cc6466:	0000                	.insn	2, 0x0000
    44cc6468:	e0df 1129 0000      	.insn	6, 0x1129e0df
    44cc646e:	0000                	.insn	2, 0x0000
    44cc6470:	e4df 1129 0000      	.insn	6, 0x1129e4df
    44cc6476:	0000                	.insn	2, 0x0000
    44cc6478:	e8df 1129 0000      	.insn	6, 0x1129e8df
    44cc647e:	0000                	.insn	2, 0x0000
    44cc6480:	ecdf 1129 0000      	.insn	6, 0x1129ecdf
    44cc6486:	0000                	.insn	2, 0x0000
    44cc6488:	f0df 1129 0000      	.insn	6, 0x1129f0df
    44cc648e:	0000                	.insn	2, 0x0000
    44cc6490:	f4df 1129 0000      	.insn	6, 0x1129f4df
    44cc6496:	0000                	.insn	2, 0x0000
    44cc6498:	f8df 1129 0000      	.insn	6, 0x1129f8df
    44cc649e:	0000                	.insn	2, 0x0000
    44cc64a0:	fcdf 1129 0000      	.insn	6, 0x1129fcdf
    44cc64a6:	0000                	.insn	2, 0x0000
    44cc64a8:	00df 112a 0000      	.insn	6, 0x112a00df
    44cc64ae:	0000                	.insn	2, 0x0000
    44cc64b0:	04df 112a 0000      	.insn	6, 0x112a04df
    44cc64b6:	0000                	.insn	2, 0x0000
    44cc64b8:	08df 112a 0000      	.insn	6, 0x112a08df
    44cc64be:	0000                	.insn	2, 0x0000
    44cc64c0:	0cdf 112a 0000      	.insn	6, 0x112a0cdf
    44cc64c6:	0000                	.insn	2, 0x0000
    44cc64c8:	10df 112a 0000      	.insn	6, 0x112a10df
    44cc64ce:	0000                	.insn	2, 0x0000
    44cc64d0:	14df 112a 0000      	.insn	6, 0x112a14df
    44cc64d6:	0000                	.insn	2, 0x0000
    44cc64d8:	18df 112a 0000      	.insn	6, 0x112a18df
    44cc64de:	0000                	.insn	2, 0x0000
    44cc64e0:	1cdf 112a 0000      	.insn	6, 0x112a1cdf
    44cc64e6:	0000                	.insn	2, 0x0000
    44cc64e8:	20df 112a 0000      	.insn	6, 0x112a20df
    44cc64ee:	0000                	.insn	2, 0x0000
    44cc64f0:	24df 112a 0000      	.insn	6, 0x112a24df
    44cc64f6:	0000                	.insn	2, 0x0000
    44cc64f8:	28df 112a 0000      	.insn	6, 0x112a28df
    44cc64fe:	0000                	.insn	2, 0x0000
    44cc6500:	2cdf 112a 0000      	.insn	6, 0x112a2cdf
    44cc6506:	0000                	.insn	2, 0x0000
    44cc6508:	30df 112a 0000      	.insn	6, 0x112a30df
    44cc650e:	0000                	.insn	2, 0x0000
    44cc6510:	34df 112a 0000      	.insn	6, 0x112a34df
    44cc6516:	0000                	.insn	2, 0x0000
    44cc6518:	38df 112a 0000      	.insn	6, 0x112a38df
    44cc651e:	0000                	.insn	2, 0x0000
    44cc6520:	3cdf 112a 0000      	.insn	6, 0x112a3cdf
    44cc6526:	0000                	.insn	2, 0x0000
    44cc6528:	40df 112a 0000      	.insn	6, 0x112a40df
    44cc652e:	0000                	.insn	2, 0x0000
    44cc6530:	44df 112a 0000      	.insn	6, 0x112a44df
    44cc6536:	0000                	.insn	2, 0x0000
    44cc6538:	48df 112a 0000      	.insn	6, 0x112a48df
    44cc653e:	0000                	.insn	2, 0x0000
    44cc6540:	4cdf 112a 0000      	.insn	6, 0x112a4cdf
    44cc6546:	0000                	.insn	2, 0x0000
    44cc6548:	50df 112a 0000      	.insn	6, 0x112a50df
    44cc654e:	0000                	.insn	2, 0x0000
    44cc6550:	54df 112a 0000      	.insn	6, 0x112a54df
    44cc6556:	0000                	.insn	2, 0x0000
    44cc6558:	58df 112a 0000      	.insn	6, 0x112a58df
    44cc655e:	0000                	.insn	2, 0x0000
    44cc6560:	5cdf 112a 0000      	.insn	6, 0x112a5cdf
    44cc6566:	0000                	.insn	2, 0x0000
    44cc6568:	60df 112a 0000      	.insn	6, 0x112a60df
    44cc656e:	0000                	.insn	2, 0x0000
    44cc6570:	64df 112a 0000      	.insn	6, 0x112a64df
    44cc6576:	0000                	.insn	2, 0x0000
    44cc6578:	68df 112a 0000      	.insn	6, 0x112a68df
    44cc657e:	0000                	.insn	2, 0x0000
    44cc6580:	6cdf 112a 0000      	.insn	6, 0x112a6cdf
    44cc6586:	0000                	.insn	2, 0x0000
    44cc6588:	70df 112a 0000      	.insn	6, 0x112a70df
    44cc658e:	0000                	.insn	2, 0x0000
    44cc6590:	74df 112a 0000      	.insn	6, 0x112a74df
    44cc6596:	0000                	.insn	2, 0x0000
    44cc6598:	78df 112a 0000      	.insn	6, 0x112a78df
    44cc659e:	0000                	.insn	2, 0x0000
    44cc65a0:	7cdf 112a 0000      	.insn	6, 0x112a7cdf
    44cc65a6:	0000                	.insn	2, 0x0000
    44cc65a8:	80df 112a 0000      	.insn	6, 0x112a80df
    44cc65ae:	0000                	.insn	2, 0x0000
    44cc65b0:	84df 112a 0000      	.insn	6, 0x112a84df
    44cc65b6:	0000                	.insn	2, 0x0000
    44cc65b8:	88df 112a 0000      	.insn	6, 0x112a88df
    44cc65be:	0000                	.insn	2, 0x0000
    44cc65c0:	8cdf 112a 0000      	.insn	6, 0x112a8cdf
    44cc65c6:	0000                	.insn	2, 0x0000
    44cc65c8:	90df 112a 0000      	.insn	6, 0x112a90df
    44cc65ce:	0000                	.insn	2, 0x0000
    44cc65d0:	94df 112a 0000      	.insn	6, 0x112a94df
    44cc65d6:	0000                	.insn	2, 0x0000
    44cc65d8:	98df 112a 0000      	.insn	6, 0x112a98df
    44cc65de:	0000                	.insn	2, 0x0000
    44cc65e0:	9cdf 112a 0000      	.insn	6, 0x112a9cdf
    44cc65e6:	0000                	.insn	2, 0x0000
    44cc65e8:	a0df 112a 0000      	.insn	6, 0x112aa0df
    44cc65ee:	0000                	.insn	2, 0x0000
    44cc65f0:	a4df 112a 0000      	.insn	6, 0x112aa4df
    44cc65f6:	0000                	.insn	2, 0x0000
    44cc65f8:	a8df 112a 0000      	.insn	6, 0x112aa8df
    44cc65fe:	0000                	.insn	2, 0x0000
    44cc6600:	acdf 112a 0000      	.insn	6, 0x112aacdf
    44cc6606:	0000                	.insn	2, 0x0000
    44cc6608:	b0df 112a 0000      	.insn	6, 0x112ab0df
    44cc660e:	0000                	.insn	2, 0x0000
    44cc6610:	b4df 112a 0000      	.insn	6, 0x112ab4df
    44cc6616:	0000                	.insn	2, 0x0000
    44cc6618:	b8df 112a 0000      	.insn	6, 0x112ab8df
    44cc661e:	0000                	.insn	2, 0x0000
    44cc6620:	bcdf 112a 0000      	.insn	6, 0x112abcdf
    44cc6626:	0000                	.insn	2, 0x0000
    44cc6628:	c0df 112a 0000      	.insn	6, 0x112ac0df
    44cc662e:	0000                	.insn	2, 0x0000
    44cc6630:	c4df 112a 0000      	.insn	6, 0x112ac4df
    44cc6636:	0000                	.insn	2, 0x0000
    44cc6638:	c8df 112a 0000      	.insn	6, 0x112ac8df
    44cc663e:	0000                	.insn	2, 0x0000
    44cc6640:	ccdf 112a 0000      	.insn	6, 0x112accdf
    44cc6646:	0000                	.insn	2, 0x0000
    44cc6648:	d0df 112a 0000      	.insn	6, 0x112ad0df
    44cc664e:	0000                	.insn	2, 0x0000
    44cc6650:	d4df 112a 0000      	.insn	6, 0x112ad4df
    44cc6656:	0000                	.insn	2, 0x0000
    44cc6658:	d8df 112a 0000      	.insn	6, 0x112ad8df
    44cc665e:	0000                	.insn	2, 0x0000
    44cc6660:	dcdf 112a 0000      	.insn	6, 0x112adcdf
    44cc6666:	0000                	.insn	2, 0x0000
    44cc6668:	e0df 112a 0000      	.insn	6, 0x112ae0df
    44cc666e:	0000                	.insn	2, 0x0000
    44cc6670:	e4df 112a 0000      	.insn	6, 0x112ae4df
    44cc6676:	0000                	.insn	2, 0x0000
    44cc6678:	e8df 112a 0000      	.insn	6, 0x112ae8df
    44cc667e:	0000                	.insn	2, 0x0000
    44cc6680:	ecdf 112a 0000      	.insn	6, 0x112aecdf
    44cc6686:	0000                	.insn	2, 0x0000
    44cc6688:	f0df 112a 0000      	.insn	6, 0x112af0df
    44cc668e:	0000                	.insn	2, 0x0000
    44cc6690:	f4df 112a 0000      	.insn	6, 0x112af4df
    44cc6696:	0000                	.insn	2, 0x0000
    44cc6698:	f8df 112a 0000      	.insn	6, 0x112af8df
    44cc669e:	0000                	.insn	2, 0x0000
    44cc66a0:	fcdf 112a 0000      	.insn	6, 0x112afcdf
    44cc66a6:	0000                	.insn	2, 0x0000
    44cc66a8:	00df 112b 0000      	.insn	6, 0x112b00df
    44cc66ae:	0000                	.insn	2, 0x0000
    44cc66b0:	04df 112b 0000      	.insn	6, 0x112b04df
    44cc66b6:	0000                	.insn	2, 0x0000
    44cc66b8:	08df 112b 0000      	.insn	6, 0x112b08df
    44cc66be:	0000                	.insn	2, 0x0000
    44cc66c0:	0cdf 112b 0000      	.insn	6, 0x112b0cdf
    44cc66c6:	0000                	.insn	2, 0x0000
    44cc66c8:	10df 112b 0000      	.insn	6, 0x112b10df
    44cc66ce:	0000                	.insn	2, 0x0000
    44cc66d0:	14df 112b 0000      	.insn	6, 0x112b14df
    44cc66d6:	0000                	.insn	2, 0x0000
    44cc66d8:	18df 112b 0000      	.insn	6, 0x112b18df
    44cc66de:	0000                	.insn	2, 0x0000
    44cc66e0:	1cdf 112b 0000      	.insn	6, 0x112b1cdf
    44cc66e6:	0000                	.insn	2, 0x0000
    44cc66e8:	20df 112b 0000      	.insn	6, 0x112b20df
    44cc66ee:	0000                	.insn	2, 0x0000
    44cc66f0:	24df 112b 0000      	.insn	6, 0x112b24df
    44cc66f6:	0000                	.insn	2, 0x0000
    44cc66f8:	28df 112b 0000      	.insn	6, 0x112b28df
    44cc66fe:	0000                	.insn	2, 0x0000
    44cc6700:	2cdf 112b 0000      	.insn	6, 0x112b2cdf
    44cc6706:	0000                	.insn	2, 0x0000
    44cc6708:	30df 112b 0000      	.insn	6, 0x112b30df
    44cc670e:	0000                	.insn	2, 0x0000
    44cc6710:	34df 112b 0000      	.insn	6, 0x112b34df
    44cc6716:	0000                	.insn	2, 0x0000
    44cc6718:	38df 112b 0000      	.insn	6, 0x112b38df
    44cc671e:	0000                	.insn	2, 0x0000
    44cc6720:	3cdf 112b 0000      	.insn	6, 0x112b3cdf
    44cc6726:	0000                	.insn	2, 0x0000
    44cc6728:	40df 112b 0000      	.insn	6, 0x112b40df
    44cc672e:	0000                	.insn	2, 0x0000
    44cc6730:	44df 112b 0000      	.insn	6, 0x112b44df
    44cc6736:	0000                	.insn	2, 0x0000
    44cc6738:	48df 112b 0000      	.insn	6, 0x112b48df
    44cc673e:	0000                	.insn	2, 0x0000
    44cc6740:	4cdf 112b 0000      	.insn	6, 0x112b4cdf
    44cc6746:	0000                	.insn	2, 0x0000
    44cc6748:	50df 112b 0000      	.insn	6, 0x112b50df
    44cc674e:	0000                	.insn	2, 0x0000
    44cc6750:	54df 112b 0000      	.insn	6, 0x112b54df
    44cc6756:	0000                	.insn	2, 0x0000
    44cc6758:	58df 112b 0000      	.insn	6, 0x112b58df
    44cc675e:	0000                	.insn	2, 0x0000
    44cc6760:	5cdf 112b 0000      	.insn	6, 0x112b5cdf
    44cc6766:	0000                	.insn	2, 0x0000
    44cc6768:	60df 112b 0000      	.insn	6, 0x112b60df
    44cc676e:	0000                	.insn	2, 0x0000
    44cc6770:	64df 112b 0000      	.insn	6, 0x112b64df
    44cc6776:	0000                	.insn	2, 0x0000
    44cc6778:	68df 112b 0000      	.insn	6, 0x112b68df
    44cc677e:	0000                	.insn	2, 0x0000
    44cc6780:	6cdf 112b 0000      	.insn	6, 0x112b6cdf
    44cc6786:	0000                	.insn	2, 0x0000
    44cc6788:	70df 112b 0000      	.insn	6, 0x112b70df
    44cc678e:	0000                	.insn	2, 0x0000
    44cc6790:	74df 112b 0000      	.insn	6, 0x112b74df
    44cc6796:	0000                	.insn	2, 0x0000
    44cc6798:	78df 112b 0000      	.insn	6, 0x112b78df
    44cc679e:	0000                	.insn	2, 0x0000
    44cc67a0:	7cdf 112b 0000      	.insn	6, 0x112b7cdf
    44cc67a6:	0000                	.insn	2, 0x0000
    44cc67a8:	80df 112b 0000      	.insn	6, 0x112b80df
    44cc67ae:	0000                	.insn	2, 0x0000
    44cc67b0:	84df 112b 0000      	.insn	6, 0x112b84df
    44cc67b6:	0000                	.insn	2, 0x0000
    44cc67b8:	88df 112b 0000      	.insn	6, 0x112b88df
    44cc67be:	0000                	.insn	2, 0x0000
    44cc67c0:	8cdf 112b 0000      	.insn	6, 0x112b8cdf
    44cc67c6:	0000                	.insn	2, 0x0000
    44cc67c8:	90df 112b 0000      	.insn	6, 0x112b90df
    44cc67ce:	0000                	.insn	2, 0x0000
    44cc67d0:	94df 112b 0000      	.insn	6, 0x112b94df
    44cc67d6:	0000                	.insn	2, 0x0000
    44cc67d8:	98df 112b 0000      	.insn	6, 0x112b98df
    44cc67de:	0000                	.insn	2, 0x0000
    44cc67e0:	9cdf 112b 0000      	.insn	6, 0x112b9cdf
    44cc67e6:	0000                	.insn	2, 0x0000
    44cc67e8:	a0df 112b 0000      	.insn	6, 0x112ba0df
    44cc67ee:	0000                	.insn	2, 0x0000
    44cc67f0:	a4df 112b 0000      	.insn	6, 0x112ba4df
    44cc67f6:	0000                	.insn	2, 0x0000
    44cc67f8:	a8df 112b 0000      	.insn	6, 0x112ba8df
    44cc67fe:	0000                	.insn	2, 0x0000
    44cc6800:	acdf 112b 0000      	.insn	6, 0x112bacdf
    44cc6806:	0000                	.insn	2, 0x0000
    44cc6808:	b0df 112b 0000      	.insn	6, 0x112bb0df
    44cc680e:	0000                	.insn	2, 0x0000
    44cc6810:	b4df 112b 0000      	.insn	6, 0x112bb4df
    44cc6816:	0000                	.insn	2, 0x0000
    44cc6818:	b8df 112b 0000      	.insn	6, 0x112bb8df
    44cc681e:	0000                	.insn	2, 0x0000
    44cc6820:	bcdf 112b 0000      	.insn	6, 0x112bbcdf
    44cc6826:	0000                	.insn	2, 0x0000
    44cc6828:	c0df 112b 0000      	.insn	6, 0x112bc0df
    44cc682e:	0000                	.insn	2, 0x0000
    44cc6830:	c4df 112b 0000      	.insn	6, 0x112bc4df
    44cc6836:	0000                	.insn	2, 0x0000
    44cc6838:	c8df 112b 0000      	.insn	6, 0x112bc8df
    44cc683e:	0000                	.insn	2, 0x0000
    44cc6840:	ccdf 112b 0000      	.insn	6, 0x112bccdf
	...
    44cc6c4e:	0000                	.insn	2, 0x0000
    44cc6c50:	112dd4cf          	fnmadd.s	f9,f27,f18,f2,unknown
    44cc6c54:	0000                	.insn	2, 0x0000
	...

Disassembly of section .__pagetable_map_os_0x00000000446da000:

00000000446da000 <__pagetable_map_os_0x00000000446da000>:
	...
    446da0f0:	78df 10e0 0000      	.insn	6, 0x10e078df
	...

Disassembly of section .__pagetable_map_os_0x0000000044cad000:

0000000044cad000 <__pagetable_map_os_0x0000000044cad000>:
	...
    44cad388:	113328d7          	vredminu.vs	v17,v19,v6,v0.t
    44cad38c:	0000                	.insn	2, 0x0000
	...

Disassembly of section .__pagetable_map_os_0x0000000044bb7000:

0000000044bb7000 <__pagetable_map_os_0x0000000044bb7000>:
	...
    44bb7730:	10e03cd7          	.insn	4, 0x10e03cd7
    44bb7734:	0000                	.insn	2, 0x0000
	...

Disassembly of section .__pagetable_map_os_0x00000000447f6000:

00000000447f6000 <__pagetable_map_os_0x00000000447f6000>:
	...
    447f6548:	50df 10e0 0000      	.insn	6, 0x10e050df
	...

Disassembly of section .__pagetable_map_os_0x0000000045001000:

0000000045001000 <__pagetable_map_os_0x0000000045001000>:
	...
    45001218:	d801                	.insn	2, 0xd801
    4500121a:	112e                	.insn	2, 0x112e
    4500121c:	0000                	.insn	2, 0x0000
	...

Disassembly of section .__pagetable_map_os_0x0000000044bb6000:

0000000044bb6000 <__pagetable_map_os_0x0000000044bb6000>:
	...
    44bb6bc0:	c8df 1134 0000      	.insn	6, 0x1134c8df
    44bb6bc6:	0000                	.insn	2, 0x0000
    44bb6bc8:	ccdf 1134 0000      	.insn	6, 0x1134ccdf
	...

Disassembly of section .__pagetable_map_os_0x0000000044baf000:

0000000044baf000 <__pagetable_map_os_0x0000000044baf000>:
	...
    44bafa10:	d401                	.insn	2, 0xd401
    44bafa12:	112e                	.insn	2, 0x112e
    44bafa14:	0000                	.insn	2, 0x0000
	...

Disassembly of section .__pagetable_map_os_0x0000000044bb5000:

0000000044bb5000 <__pagetable_map_os_0x0000000044bb5000>:
	...
    44bb5260:	f8df 111f 0000      	.insn	6, 0x111ff8df
    44bb5266:	0000                	.insn	2, 0x0000
    44bb5268:	fcdf 111f 0000      	.insn	6, 0x111ffcdf
	...

Disassembly of section .__pagetable_map_os_0x00000000445f2000:

00000000445f2000 <__pagetable_map_os_0x00000000445f2000>:
    445f2000:	2c01                	.insn	2, 0x2c01
    445f2002:	00001133          	sll	x2,x0,x0
    445f2006:	0000                	.insn	2, 0x0000
    445f2008:	1c01                	.insn	2, 0x1c01
    445f200a:	111f 0000 0000      	.insn	6, 0x111f
    445f2010:	5c01                	.insn	2, 0x5c01
    445f2012:	000010c3          	fmadd.s	f1,f0,f0,f0,rtz
	...
    445f204e:	0000                	.insn	2, 0x0000
    445f2050:	5c01                	.insn	2, 0x5c01
    445f2052:	10ac                	.insn	2, 0x10ac
	...
    445f20e8:	00df 1108 0000      	.insn	6, 0x110800df
    445f20ee:	0000                	.insn	2, 0x0000
    445f20f0:	10d000d7          	vminu.vv	v1,v13,v0,v0.t
    445f20f4:	0000                	.insn	2, 0x0000
    445f20f6:	0000                	.insn	2, 0x0000
    445f20f8:	4c01                	.insn	2, 0x4c01
    445f20fa:	000010c3          	fmadd.s	f1,f0,f0,f0,rtz
	...
    445f2176:	0000                	.insn	2, 0x0000
    445f2178:	e801                	.insn	2, 0xe801
    445f217a:	112e                	.insn	2, 0x112e
	...
    445f2418:	ec01                	.insn	2, 0xec01
    445f241a:	112e                	.insn	2, 0x112e
	...
    445f2450:	4401                	.insn	2, 0x4401
    445f2452:	10e0                	.insn	2, 0x10e0
	...
    445f2480:	1001                	.insn	2, 0x1001
    445f2482:	1059                	.insn	2, 0x1059
    445f2484:	0000                	.insn	2, 0x0000
	...

Disassembly of section .__pagetable_map_os_0x0000000043811000:

0000000043811000 <__pagetable_map_os_0x0000000043811000>:
	...
    43811638:	d8df 112d 0000      	.insn	6, 0x112dd8df
	...

Disassembly of section .__pagetable_map_os_0x00000000447c7000:

00000000447c7000 <__pagetable_map_os_0x00000000447c7000>:
	...
    447c74e8:	11365cd7          	vfmin.vf	v25,v19,f12,v0.t
	...
    447c7538:	44df 10c2 0000      	.insn	6, 0x10c244df
	...
    447c7546:	0000                	.insn	2, 0x0000
    447c7548:	24df 1131 0000      	.insn	6, 0x113124df
	...
    447c7e8e:	0000                	.insn	2, 0x0000
    447c7e90:	e4df 112d 0000      	.insn	6, 0x112de4df
	...
    447c7f86:	0000                	.insn	2, 0x0000
    447c7f88:	111f10d7          	vfmin.vv	v1,v17,v30,v0.t
    447c7f8c:	0000                	.insn	2, 0x0000
	...

Disassembly of section .__pagetable_map_os_0x0000000044ccb000:

0000000044ccb000 <__pagetable_map_os_0x0000000044ccb000>:
	...
    44ccb008:	48df 1133 0000      	.insn	6, 0x113348df
    44ccb00e:	0000                	.insn	2, 0x0000
    44ccb010:	e4d9                	.insn	2, 0xe4d9
    44ccb012:	1082                	.insn	2, 0x1082
	...
    44ccb040:	10e088d3          	fmul.s	f17,f1,f14,rne
	...
    44ccb050:	e4df 10c3 0000      	.insn	6, 0x10c3e4df
	...
    44ccb05e:	0000                	.insn	2, 0x0000
    44ccb060:	112f14db          	.insn	4, 0x112f14db
	...
    44ccb088:	78df 10e0 0000      	.insn	6, 0x10e078df
    44ccb08e:	0000                	.insn	2, 0x0000
    44ccb090:	78df 10e0 0000      	.insn	6, 0x10e078df
	...
    44ccb0c6:	0000                	.insn	2, 0x0000
    44ccb0c8:	54df 1136 0000      	.insn	6, 0x113654df
	...
    44ccb0d6:	0000                	.insn	2, 0x0000
    44ccb0d8:	78df 10e0 0000      	.insn	6, 0x10e078df
    44ccb0de:	0000                	.insn	2, 0x0000
    44ccb0e0:	112eb8db          	.insn	4, 0x112eb8db
	...
    44ccb0f0:	112ec4d7          	vminu.vx	v9,v18,x29,v0.t
	...
    44ccb118:	10b81cf7          	.insn	4, 0x10b81cf7
	...
    44ccb128:	111f18d7          	vfmin.vv	v17,v17,v30,v0.t
	...
    44ccb138:	14df 1133 0000      	.insn	6, 0x113314df
	...
    44ccb17e:	0000                	.insn	2, 0x0000
    44ccb180:	1107f8d7          	vsetvli	x17,x15,272
	...
    44ccb280:	04df 1107 0000      	.insn	6, 0x110704df
	...
    44ccb6fe:	0000                	.insn	2, 0x0000
    44ccb700:	54df 1133 0000      	.insn	6, 0x113354df
	...
    44ccb91e:	0000                	.insn	2, 0x0000
    44ccb920:	64df 111b 0000      	.insn	6, 0x111b64df
	...
    44ccb92e:	0000                	.insn	2, 0x0000
    44ccb930:	e8df 111f 0000      	.insn	6, 0x111fe8df
	...
    44ccb956:	0000                	.insn	2, 0x0000
    44ccb958:	111f24d7          	vredminu.vs	v9,v17,v30,v0.t
	...
    44ccb9a0:	10c0c0d7          	vminu.vx	v1,v12,x1,v0.t
	...
    44ccbb08:	c0df 112e 0000      	.insn	6, 0x112ec0df
	...
    44ccbbfe:	0000                	.insn	2, 0x0000
    44ccbc00:	112ed0d7          	vfmin.vf	v1,v18,f29,v0.t
    44ccbc04:	0000                	.insn	2, 0x0000
	...

Disassembly of section .__pagetable_map_os_0x0000000044bba000:

0000000044bba000 <__pagetable_map_os_0x0000000044bba000>:
	...
    44bbad68:	5cdf 10a8 0000      	.insn	6, 0x10a85cdf
	...

Disassembly of section .__pagetable_map_os_0x00000000430d7000:

00000000430d7000 <__pagetable_map_os_0x00000000430d7000>:
	...
    430d7928:	90d9                	.insn	2, 0x90d9
    430d792a:	111f 0000 0000      	.insn	6, 0x111f

Disassembly of section .__pagetable_map_os_0x0000000042b17000:

0000000042b17000 <__pagetable_map_os_0x0000000042b17000>:
	...
    42b173c8:	fcdf 10c3 0000      	.insn	6, 0x10c3fcdf
	...
    42b1784e:	0000                	.insn	2, 0x0000
    42b17850:	10e038d7          	.insn	4, 0x10e038d7
    42b17854:	0000                	.insn	2, 0x0000
	...

Disassembly of section .__pagetable_map_os_0x0000000041644000:

0000000041644000 <__pagetable_map_os_0x0000000041644000>:
	...
    41644bd8:	111f94d7          	vfmin.vv	v9,v17,v31,v0.t
    41644bdc:	0000                	.insn	2, 0x0000
	...

Disassembly of section .__pagetable_map_os_0x00000000430d3000:

00000000430d3000 <__pagetable_map_os_0x00000000430d3000>:
	...
    430d33d8:	48df 1118 0000      	.insn	6, 0x111848df
	...
    430d38be:	0000                	.insn	2, 0x0000
    430d38c0:	78df 10e0 0000      	.insn	6, 0x10e078df
	...
    430d3ebe:	0000                	.insn	2, 0x0000
    430d3ec0:	c8df 112e 0000      	.insn	6, 0x112ec8df
	...

Disassembly of section .__pagetable_map_os_0x0000000044bbb000:

0000000044bbb000 <__pagetable_map_os_0x0000000044bbb000>:
	...
    44bbb550:	54df 10e0 0000      	.insn	6, 0x10e054df
	...

Disassembly of section .__pagetable_map_os_0x0000000043814000:

0000000043814000 <__pagetable_map_os_0x0000000043814000>:
    43814000:	00df 1078 0000      	.insn	6, 0x107800df
	...

Disassembly of section .__pagetable_map_os_0x0000000044bb8000:

0000000044bb8000 <__pagetable_map_os_0x0000000044bb8000>:
	...
    44bb8d08:	00d1                	.insn	2, 0x00d1
    44bb8d0a:	1138                	.insn	2, 0x1138
    44bb8d0c:	0000                	.insn	2, 0x0000
	...

Disassembly of section .__pagetable_map_os_0x0000000044bb2000:

0000000044bb2000 <__pagetable_map_os_0x0000000044bb2000>:
    44bb2000:	5401                	.insn	2, 0x5401
    44bb2002:	10e0                	.insn	2, 0x10e0
    44bb2004:	0000                	.insn	2, 0x0000
	...

Disassembly of section .__pagetable_map_os_0x0000000043815000:

0000000043815000 <__pagetable_map_os_0x0000000043815000>:
    43815000:	4cd2                	.insn	2, 0x4cd2
    43815002:	00001107          	flh	f2,0(x0) # 0 <ALL_4KB_PAGES>
	...

Disassembly of section .__pagetable_map_os_0x0000000044bb0000:

0000000044bb0000 <__pagetable_map_os_0x0000000044bb0000>:
    44bb0000:	e401                	.insn	2, 0xe401
    44bb0002:	000010c3          	fmadd.s	f1,f0,f0,f0,rtz
	...

Disassembly of section .__pagetable_map_os_0x00000000430f9000:

00000000430f9000 <__pagetable_map_os_0x00000000430f9000>:
    430f9000:	1cd5                	.insn	2, 0x1cd5
    430f9002:	1140                	.insn	2, 0x1140
    430f9004:	0000                	.insn	2, 0x0000
	...

Disassembly of section .__pagetable_map_os_0x00000000446d9000:

00000000446d9000 <__pagetable_map_os_0x00000000446d9000>:
    446d9000:	9c01                	.insn	2, 0x9c01
    446d9002:	00001107          	flh	f2,0(x0) # 0 <ALL_4KB_PAGES>
	...

Disassembly of section .__pagetable_map_os_0x00000000441e7000:

00000000441e7000 <__pagetable_map_os_0x00000000441e7000>:
    441e7000:	f0d9                	.insn	2, 0xf0d9
    441e7002:	111e                	.insn	2, 0x111e
    441e7004:	0000                	.insn	2, 0x0000
	...

Disassembly of section .__pagetable_map_os_0x0000000044d81000:

0000000044d81000 <__pagetable_map_os_0x0000000044d81000>:
	...
    44d81e08:	4401                	.insn	2, 0x4401
    44d81e0a:	00001107          	flh	f2,0(x0) # 0 <ALL_4KB_PAGES>
	...

Disassembly of section .__pagetable_map_os_0x00000000441d1000:

00000000441d1000 <__pagetable_map_os_0x00000000441d1000>:
	...
    441d13d0:	113660d3          	fmul.s	f1,f12,f19,unknown
    441d13d4:	0000                	.insn	2, 0x0000
	...

Disassembly of section .__pagetable_map_os_0x0000000044612000:

0000000044612000 <__pagetable_map_os_0x0000000044612000>:
    44612000:	4801                	.insn	2, 0x4801
    44612002:	00001133          	sll	x2,x0,x0
	...

Disassembly of section .__pagetable_map_os_0x0000000044cd2000:

0000000044cd2000 <__pagetable_map_os_0x0000000044cd2000>:
    44cd2000:	68df 1134 0000      	.insn	6, 0x113468df
	...

Disassembly of section .__pagetable_map_os_0x00000000445d3000:

00000000445d3000 <__pagetable_map_os_0x00000000445d3000>:
    445d3000:	e801                	.insn	2, 0xe801
    445d3002:	111f 0000 0000      	.insn	6, 0x111f

Disassembly of section .__pagetable_map_os_0x00000000447fa000:

00000000447fa000 <__pagetable_map_os_0x00000000447fa000>:
    447fa000:	1117ccd7          	vminu.vx	v25,v17,x15,v0.t
    447fa004:	0000                	.insn	2, 0x0000
	...

Disassembly of section .__pagetable_map_os_0x00000000447f2000:

00000000447f2000 <__pagetable_map_os_0x00000000447f2000>:
	...
    447f24b0:	2001                	.insn	2, 0x2001
    447f24b2:	00001137          	lui	x2,0x1
	...

Disassembly of section .__pagetable_map_os_0x0000000044dc8000:

0000000044dc8000 <__pagetable_map_os_0x0000000044dc8000>:
	...
    44dc8c90:	111f98d7          	vfmin.vv	v17,v17,v31,v0.t
    44dc8c94:	0000                	.insn	2, 0x0000
	...

Disassembly of section .__pagetable_map_os_0x0000000044cab000:

0000000044cab000 <__pagetable_map_os_0x0000000044cab000>:
	...
    44cab078:	e001                	.insn	2, 0xe001
    44cab07a:	00001057          	vfadd.vv	v0,v0,v0,v0.t
	...

Disassembly of section .__pagetable_map_os_0x00000000415f8000:

00000000415f8000 <__pagetable_map_os_0x00000000415f8000>:
	...
    415f8ea8:	10e034d7          	.insn	4, 0x10e034d7
    415f8eac:	0000                	.insn	2, 0x0000
	...

Disassembly of section .__pagetable_map_os_0x000000004460c000:

000000004460c000 <__pagetable_map_os_0x000000004460c000>:
	...
    4460c2b8:	9001                	.insn	2, 0x9001
    4460c2ba:	1140                	.insn	2, 0x1140
	...
    4460c490:	2801                	.insn	2, 0x2801
    4460c492:	111a                	.insn	2, 0x111a
    4460c494:	0000                	.insn	2, 0x0000
	...

Disassembly of section .__pagetable_map_os_0x000000004468a000:

000000004468a000 <__pagetable_map_os_0x000000004468a000>:
	...
    4468ab80:	10ad14d7          	vfmin.vv	v9,v10,v26,v0.t
    4468ab84:	0000                	.insn	2, 0x0000
	...

Disassembly of section .__pagetable_map_os_0x0000000045024000:

0000000045024000 <__pagetable_map_os_0x0000000045024000>:
	...
    45024530:	113350d7          	vfmin.vf	v1,v19,f6,v0.t
    45024534:	0000                	.insn	2, 0x0000
	...

Disassembly of section .__pagetable_map_os_0x00000000430c7000:

00000000430c7000 <__pagetable_map_os_0x00000000430c7000>:
	...
    430c7cf0:	3801                	.insn	2, 0x3801
    430c7cf2:	1118                	.insn	2, 0x1118
    430c7cf4:	0000                	.insn	2, 0x0000
	...

Disassembly of section .__pagetable_map_os_0x000000004460e000:

000000004460e000 <__pagetable_map_os_0x000000004460e000>:
	...
    4460e7b0:	113128d7          	vredminu.vs	v17,v19,v2,v0.t
    4460e7b4:	0000                	.insn	2, 0x0000
	...

Disassembly of section .__pagetable_map_os_0x0000000043803000:

0000000043803000 <__pagetable_map_os_0x0000000043803000>:
	...
    438033f8:	e401                	.insn	2, 0xe401
    438033fa:	112e                	.insn	2, 0x112e
    438033fc:	0000                	.insn	2, 0x0000
	...

Disassembly of section .__pagetable_map_os_0x0000000044bb9000:

0000000044bb9000 <__pagetable_map_os_0x0000000044bb9000>:
	...
    44bb9b48:	10c314d7          	vfmin.vv	v9,v12,v6,v0.t
    44bb9b4c:	0000                	.insn	2, 0x0000
	...

Disassembly of section .__pagetable_map_os_0x00000000445b7000:

00000000445b7000 <__pagetable_map_os_0x00000000445b7000>:
	...
    445b7108:	2001                	.insn	2, 0x2001
    445b710a:	111f 0000 0000      	.insn	6, 0x111f

Disassembly of section .__pagetable_map_os_0x00000000447c8000:

00000000447c8000 <__pagetable_map_os_0x00000000447c8000>:
	...
    447c8190:	10c240d7          	vminu.vx	v1,v12,x4,v0.t
    447c8194:	0000                	.insn	2, 0x0000
	...

Disassembly of section .__pagetable_map_os_0x0000000044c08000:

0000000044c08000 <__pagetable_map_os_0x0000000044c08000>:
	...
    44c08c88:	e001                	.insn	2, 0xe001
    44c08c8a:	1132                	.insn	2, 0x1132
    44c08c8c:	0000                	.insn	2, 0x0000
	...

Disassembly of section .__pagetable_map_os_0x0000000044cb8000:

0000000044cb8000 <__pagetable_map_os_0x0000000044cb8000>:
	...
    44cb86b0:	1134d0d7          	vfmin.vf	v1,v19,f9,v0.t
    44cb86b4:	0000                	.insn	2, 0x0000
	...

Disassembly of section .__pagetable_map_os_0x0000000044cce000:

0000000044cce000 <__pagetable_map_os_0x0000000044cce000>:
	...
    44cce878:	5401                	.insn	2, 0x5401
    44cce87a:	00001137          	lui	x2,0x1
	...

Disassembly of section .__pagetable_map_os_0x0000000044dd5000:

0000000044dd5000 <__pagetable_map_os_0x0000000044dd5000>:
	...
    44dd5b70:	10c38cd7          	vminu.vv	v25,v12,v7,v0.t
    44dd5b74:	0000                	.insn	2, 0x0000
	...

Disassembly of section .__pagetable_map_os_0x0000000044bc0000:

0000000044bc0000 <__pagetable_map_os_0x0000000044bc0000>:
	...
    44bc0dc8:	8c01                	.insn	2, 0x8c01
    44bc0dca:	10a1                	.insn	2, 0x10a1
    44bc0dcc:	0000                	.insn	2, 0x0000
	...

Disassembly of section .__pagetable_map_os_0x0000000042863000:

0000000042863000 <__pagetable_map_os_0x0000000042863000>:
	...
    42863848:	110798d7          	vfmin.vv	v17,v16,v15,v0.t
    4286384c:	0000                	.insn	2, 0x0000
	...

Disassembly of section .__pagetable_map_os_0x00000000447fc000:

00000000447fc000 <__pagetable_map_os_0x00000000447fc000>:
	...
    447fc9e0:	1001                	.insn	2, 0x1001
    447fc9e2:	00001137          	lui	x2,0x1
	...

Disassembly of section .__pagetable_map_os_0x0000000044dc4000:

0000000044dc4000 <__pagetable_map_os_0x0000000044dc4000>:
	...
    44dc43d8:	113658d7          	vfmin.vf	v17,v19,f12,v0.t
    44dc43dc:	0000                	.insn	2, 0x0000
	...

Disassembly of section .__pagetable_map_os_0x0000000041832000:

0000000041832000 <__pagetable_map_os_0x0000000041832000>:
	...
    418326e8:	b001                	.insn	2, 0xb001
    418326ea:	1132                	.insn	2, 0x1132
	...
    41832c98:	3401                	.insn	2, 0x3401
    41832c9a:	1118                	.insn	2, 0x1118
    41832c9c:	0000                	.insn	2, 0x0000
	...

Disassembly of section .__pagetable_map_os_0x000000004460d000:

000000004460d000 <__pagetable_map_os_0x000000004460d000>:
	...
    4460da38:	78df 10e0 0000      	.insn	6, 0x10e078df
	...

Disassembly of section .__pagetable_map_os_0x0000000044cac000:

0000000044cac000 <__pagetable_map_os_0x0000000044cac000>:
	...
    44cac9f0:	9cdf 1107 0000      	.insn	6, 0x11079cdf
	...

Disassembly of section .__pagetable_map_os_0x0000000044cb9000:

0000000044cb9000 <__pagetable_map_os_0x0000000044cb9000>:
	...
    44cb9e48:	d801                	.insn	2, 0xd801
    44cb9e4a:	000010c3          	fmadd.s	f1,f0,f0,f0,rtz
	...

Disassembly of section .__pagetable_map_os_0x00000000430f6000:

00000000430f6000 <__pagetable_map_os_0x00000000430f6000>:
	...
    430f6db0:	78df 10e0 0000      	.insn	6, 0x10e078df
	...

Disassembly of section .__pagetable_map_os_0x0000000041751000:

0000000041751000 <__pagetable_map_os_0x0000000041751000>:
	...
    41751418:	3001                	.insn	2, 0x3001
    4175141a:	00001133          	sll	x2,x0,x0
	...

Disassembly of section .__pagetable_map_os_0x0000000044ccc000:

0000000044ccc000 <__pagetable_map_os_0x0000000044ccc000>:
	...
    44cccf30:	4cdf 1117 0000      	.insn	6, 0x11174cdf
	...

Disassembly of section .riscv.attributes:

0000000000000000 <.riscv.attributes>:
   0:	1841                	.insn	2, 0x1841
   2:	0002                	.insn	2, 0x0002
   4:	7200                	.insn	2, 0x7200
   6:	7369                	.insn	2, 0x7369
   8:	01007663          	bgeu	x0,x16,14 <INSTRUCTION_GUEST_PAGE_FAULT>
   c:	020e                	.insn	2, 0x020e
   e:	0000                	.insn	2, 0x0000
  10:	7205                	.insn	2, 0x7205
  12:	3676                	.insn	2, 0x3676
  14:	6934                	.insn	2, 0x6934
  16:	7032                	.insn	2, 0x7032
  18:	5f31                	.insn	2, 0x5f31
  1a:	326d                	.insn	2, 0x326d
  1c:	3070                	.insn	2, 0x3070
  1e:	615f 7032 5f31      	.insn	6, 0x5f317032615f
  24:	3266                	.insn	2, 0x3266
  26:	3270                	.insn	2, 0x3270
  28:	645f 7032 5f32      	.insn	6, 0x5f327032645f
  2e:	30703263          	.insn	4, 0x30703263
  32:	625f 7031 5f30      	.insn	6, 0x5f307031625f
  38:	3176                	.insn	2, 0x3176
  3a:	3070                	.insn	2, 0x3070
  3c:	685f 7031 5f30      	.insn	6, 0x5f307031685f
  42:	697a                	.insn	2, 0x697a
  44:	6d6f6263          	bltu	x30,x22,708 <XLEN+0x6c8>
  48:	7031                	.insn	2, 0x7031
  4a:	5f30                	.insn	2, 0x5f30
  4c:	697a                	.insn	2, 0x697a
  4e:	706f6263          	bltu	x30,x6,752 <XLEN+0x712>
  52:	7031                	.insn	2, 0x7031
  54:	5f30                	.insn	2, 0x5f30
  56:	697a                	.insn	2, 0x697a
  58:	7a6f6263          	bltu	x30,x6,7fc <XLEN+0x7bc>
  5c:	7031                	.insn	2, 0x7031
  5e:	5f30                	.insn	2, 0x5f30
  60:	697a                	.insn	2, 0x697a
  62:	646e6f63          	bltu	x28,x6,6c0 <XLEN+0x680>
  66:	7031                	.insn	2, 0x7031
  68:	5f30                	.insn	2, 0x5f30
  6a:	697a                	.insn	2, 0x697a
  6c:	32727363          	bgeu	x4,x7,392 <XLEN+0x352>
  70:	3070                	.insn	2, 0x3070
  72:	7a5f 6669 6e65      	.insn	6, 0x6e6566697a5f
  78:	32696563          	bltu	x18,x6,3a2 <XLEN+0x362>
  7c:	3070                	.insn	2, 0x3070
  7e:	7a5f 6869 6e69      	.insn	6, 0x6e6968697a5f
  84:	7074                	.insn	2, 0x7074
  86:	7561                	.insn	2, 0x7561
  88:	70326573          	csrrsi	x10,0x703,4
  8c:	5f30                	.insn	2, 0x5f30
  8e:	6d7a                	.insn	2, 0x6d7a
  90:	756d                	.insn	2, 0x756d
  92:	316c                	.insn	2, 0x316c
  94:	3070                	.insn	2, 0x3070
  96:	7a5f 6161 6f6d      	.insn	6, 0x6f6d61617a5f
  9c:	7031                	.insn	2, 0x7031
  9e:	5f30                	.insn	2, 0x5f30
  a0:	617a                	.insn	2, 0x617a
  a2:	726c                	.insn	2, 0x726c
  a4:	70316373          	csrrsi	x6,0x703,2
  a8:	5f30                	.insn	2, 0x5f30
  aa:	617a                	.insn	2, 0x617a
  ac:	31737277          	.insn	4, 0x31737277
  b0:	3070                	.insn	2, 0x3070
  b2:	7a5f 6166 7031      	.insn	6, 0x703161667a5f
  b8:	5f30                	.insn	2, 0x5f30
  ba:	667a                	.insn	2, 0x667a
  bc:	6662                	.insn	2, 0x6662
  be:	696d                	.insn	2, 0x696d
  c0:	316e                	.insn	2, 0x316e
  c2:	3070                	.insn	2, 0x3070
  c4:	7a5f 6866 7031      	.insn	6, 0x703168667a5f
  ca:	5f30                	.insn	2, 0x5f30
  cc:	667a                	.insn	2, 0x667a
  ce:	6d68                	.insn	2, 0x6d68
  d0:	6e69                	.insn	2, 0x6e69
  d2:	7031                	.insn	2, 0x7031
  d4:	5f30                	.insn	2, 0x5f30
  d6:	637a                	.insn	2, 0x637a
  d8:	3161                	.insn	2, 0x3161
  da:	3070                	.insn	2, 0x3070
  dc:	7a5f 6463 7031      	.insn	6, 0x703164637a5f
  e2:	5f30                	.insn	2, 0x5f30
  e4:	627a                	.insn	2, 0x627a
  e6:	3161                	.insn	2, 0x3161
  e8:	3070                	.insn	2, 0x3070
  ea:	7a5f 6262 7031      	.insn	6, 0x703162627a5f
  f0:	5f30                	.insn	2, 0x5f30
  f2:	627a                	.insn	2, 0x627a
  f4:	30703163          	.insn	4, 0x30703163
  f8:	7a5f 6b62 3162      	.insn	6, 0x31626b627a5f
  fe:	3070                	.insn	2, 0x3070
 100:	7a5f 6b62 3163      	.insn	6, 0x31636b627a5f
 106:	3070                	.insn	2, 0x3070
 108:	7a5f 6b62 3178      	.insn	6, 0x31786b627a5f
 10e:	3070                	.insn	2, 0x3070
 110:	7a5f 7362 7031      	.insn	6, 0x703173627a5f
 116:	5f30                	.insn	2, 0x5f30
 118:	6b7a                	.insn	2, 0x6b7a
 11a:	7031                	.insn	2, 0x7031
 11c:	5f30                	.insn	2, 0x5f30
 11e:	6b7a                	.insn	2, 0x6b7a
 120:	316e                	.insn	2, 0x316e
 122:	3070                	.insn	2, 0x3070
 124:	7a5f 6e6b 3164      	.insn	6, 0x31646e6b7a5f
 12a:	3070                	.insn	2, 0x3070
 12c:	7a5f 6e6b 3165      	.insn	6, 0x31656e6b7a5f
 132:	3070                	.insn	2, 0x3070
 134:	7a5f 6e6b 3168      	.insn	6, 0x31686e6b7a5f
 13a:	3070                	.insn	2, 0x3070
 13c:	7a5f 726b 7031      	.insn	6, 0x7031726b7a5f
 142:	5f30                	.insn	2, 0x5f30
 144:	6b7a                	.insn	2, 0x6b7a
 146:	3174                	.insn	2, 0x3174
 148:	3070                	.insn	2, 0x3070
 14a:	7a5f 6276 3162      	.insn	6, 0x316262767a5f
 150:	3070                	.insn	2, 0x3070
 152:	7a5f 6276 3163      	.insn	6, 0x316362767a5f
 158:	3070                	.insn	2, 0x3070
 15a:	7a5f 6576 3233      	.insn	6, 0x323365767a5f
 160:	3166                	.insn	2, 0x3166
 162:	3070                	.insn	2, 0x3070
 164:	7a5f 6576 3233      	.insn	6, 0x323365767a5f
 16a:	3178                	.insn	2, 0x3178
 16c:	3070                	.insn	2, 0x3070
 16e:	7a5f 6576 3436      	.insn	6, 0x343665767a5f
 174:	3164                	.insn	2, 0x3164
 176:	3070                	.insn	2, 0x3070
 178:	7a5f 6576 3436      	.insn	6, 0x343665767a5f
 17e:	3166                	.insn	2, 0x3166
 180:	3070                	.insn	2, 0x3070
 182:	7a5f 6576 3436      	.insn	6, 0x343665767a5f
 188:	3178                	.insn	2, 0x3178
 18a:	3070                	.insn	2, 0x3070
 18c:	7a5f 6676 6662      	.insn	6, 0x666266767a5f
 192:	696d                	.insn	2, 0x696d
 194:	316e                	.insn	2, 0x316e
 196:	3070                	.insn	2, 0x3070
 198:	7a5f 6676 6662      	.insn	6, 0x666266767a5f
 19e:	31616d77          	.insn	4, 0x31616d77
 1a2:	3070                	.insn	2, 0x3070
 1a4:	7a5f 6b76 3162      	.insn	6, 0x31626b767a5f
 1aa:	3070                	.insn	2, 0x3070
 1ac:	7a5f 6b76 3167      	.insn	6, 0x31676b767a5f
 1b2:	3070                	.insn	2, 0x3070
 1b4:	7a5f 6b76 316e      	.insn	6, 0x316e6b767a5f
 1ba:	3070                	.insn	2, 0x3070
 1bc:	7a5f 6b76 636e      	.insn	6, 0x636e6b767a5f
 1c2:	7031                	.insn	2, 0x7031
 1c4:	5f30                	.insn	2, 0x5f30
 1c6:	767a                	.insn	2, 0x767a
 1c8:	64656e6b          	.insn	4, 0x64656e6b
 1cc:	7031                	.insn	2, 0x7031
 1ce:	5f30                	.insn	2, 0x5f30
 1d0:	767a                	.insn	2, 0x767a
 1d2:	31676e6b          	.insn	4, 0x31676e6b
 1d6:	3070                	.insn	2, 0x3070
 1d8:	7a5f 6b76 686e      	.insn	6, 0x686e6b767a5f
 1de:	3162                	.insn	2, 0x3162
 1e0:	3070                	.insn	2, 0x3070
 1e2:	7a5f 6b76 3174      	.insn	6, 0x31746b767a5f
 1e8:	3070                	.insn	2, 0x3070
 1ea:	7a5f 6c76 3231      	.insn	6, 0x32316c767a5f
 1f0:	6238                	.insn	2, 0x6238
 1f2:	7031                	.insn	2, 0x7031
 1f4:	5f30                	.insn	2, 0x5f30
 1f6:	767a                	.insn	2, 0x767a
 1f8:	336c                	.insn	2, 0x336c
 1fa:	6232                	.insn	2, 0x6232
 1fc:	7031                	.insn	2, 0x7031
 1fe:	5f30                	.insn	2, 0x5f30
 200:	767a                	.insn	2, 0x767a
 202:	366c                	.insn	2, 0x366c
 204:	6234                	.insn	2, 0x6234
 206:	7031                	.insn	2, 0x7031
 208:	5f30                	.insn	2, 0x5f30
 20a:	6e697673          	csrrci	x12,0x6e6,18
 20e:	6176                	.insn	2, 0x6176
 210:	316c                	.insn	2, 0x316c
 212:	3070                	.insn	2, 0x3070
 214:	0800                	.insn	2, 0x0800
 216:	0a01                	.insn	2, 0x0a01
 218:	0b                	.byte	0x0b
