
/home/abdullah/RiescueC/riescue/10x_R/svinval/testsuite/svinval/super_sv57/tp_svinval_2:     file format elf64-littleriscv


Disassembly of section .runtime:

0000000041000000 <_start>:
    41000000:	00000093          	li	x1,0
    41000004:	00000113          	li	x2,0
    41000008:	00000193          	li	x3,0
    4100000c:	00000213          	li	x4,0
    41000010:	00000293          	li	x5,0
    41000014:	00000313          	li	x6,0
    41000018:	00000393          	li	x7,0
    4100001c:	00000413          	li	x8,0
    41000020:	00000493          	li	x9,0
    41000024:	00000513          	li	x10,0
    41000028:	00000593          	li	x11,0
    4100002c:	00000613          	li	x12,0
    41000030:	00000693          	li	x13,0
    41000034:	00000713          	li	x14,0
    41000038:	00000793          	li	x15,0
    4100003c:	00000813          	li	x16,0
    41000040:	00000893          	li	x17,0
    41000044:	00000913          	li	x18,0
    41000048:	00000993          	li	x19,0
    4100004c:	00000a13          	li	x20,0
    41000050:	00000a93          	li	x21,0
    41000054:	00000b13          	li	x22,0
    41000058:	00000b93          	li	x23,0
    4100005c:	00000c13          	li	x24,0
    41000060:	00000c93          	li	x25,0
    41000064:	00000d13          	li	x26,0
    41000068:	00000d93          	li	x27,0
    4100006c:	00000e13          	li	x28,0
    41000070:	00000e93          	li	x29,0
    41000074:	00000f13          	li	x30,0
    41000078:	00000f93          	li	x31,0

000000004100007c <loader__load_panic_address>:
    4100007c:	00001297          	auipc	x5,0x1
    41000080:	9b828293          	addi	x5,x5,-1608 # 41000a34 <eot__failed>
    41000084:	30529073          	csrw	mtvec,x5

0000000041000088 <loader__initialize_runtime>:
    41000088:	00000293          	li	x5,0
    4100008c:	3012a2f3          	csrrs	x5,misa,x5

0000000041000090 <loader__set_mstatus>:
    41000090:	000402b7          	lui	x5,0x40
    41000094:	00a2829b          	addiw	x5,x5,10 # 4000a <pma_region_0_size+0xa>
    41000098:	3002a2f3          	csrrs	x5,mstatus,x5
    4100009c:	412fb237          	lui	x4,0x412fb
    410000a0:	34021073          	csrw	mscratch,x4

00000000410000a4 <loader__setup_menvcfg>:
    410000a4:	00000297          	auipc	x5,0x0
    410000a8:	47c28293          	addi	x5,x5,1148 # 41000520 <trap_handler_m__trap_entry>
    410000ac:	30529073          	csrw	mtvec,x5

00000000410000b0 <loader__enable_paging>:
    410000b0:	fffa00b7          	lui	x1,0xfffa0
    410000b4:	01d0809b          	addiw	x1,x1,29 # fffffffffffa001d <mem3+0x16fffffff9e01d>
    410000b8:	02009093          	slli	x1,x1,0x20
    410000bc:	04308093          	addi	x1,x1,67
    410000c0:	00c09093          	slli	x1,x1,0xc
    410000c4:	a0208093          	addi	x1,x1,-1534
    410000c8:	18009073          	csrw	satp,x1

00000000410000cc <loader__done>:
    410000cc:	1910006f          	j	41000a5c <scheduler__init>

00000000410000d0 <loader__panic>:
    410000d0:	1650006f          	j	41000a34 <eot__failed>

00000000410000d4 <syscalls__syscall_check_schedule_next_test>:
    410000d4:	00f0029b          	addiw	x5,x0,15
    410000d8:	01c29293          	slli	x5,x5,0x1c
    410000dc:	00128293          	addi	x5,x5,1
    410000e0:	01f29a63          	bne	x5,x31,410000f4 <syscalls__syscall_check_fail_test>
    410000e4:	00000317          	auipc	x6,0x0
    410000e8:	43c30313          	addi	x6,x6,1084 # 41000520 <trap_handler_m__trap_entry>
    410000ec:	30531073          	csrw	mtvec,x6
    410000f0:	6740006f          	j	41000764 <enter_scheduler>

00000000410000f4 <syscalls__syscall_check_fail_test>:
    410000f4:	00f0029b          	addiw	x5,x0,15
    410000f8:	01c29293          	slli	x5,x5,0x1c
    410000fc:	00228293          	addi	x5,x5,2
    41000100:	01f29a63          	bne	x5,x31,41000114 <syscalls__syscall_check_end_test_without_failure>
    41000104:	00000317          	auipc	x6,0x0
    41000108:	41c30313          	addi	x6,x6,1052 # 41000520 <trap_handler_m__trap_entry>
    4100010c:	30531073          	csrw	mtvec,x6
    41000110:	6840006f          	j	41000794 <test_failed>

0000000041000114 <syscalls__syscall_check_end_test_without_failure>:
    41000114:	00f0029b          	addiw	x5,x0,15
    41000118:	01c29293          	slli	x5,x5,0x1c
    4100011c:	00328293          	addi	x5,x5,3
    41000120:	01f29a63          	bne	x5,x31,41000134 <syscalls__syscall_check_switch_machine_mode>
    41000124:	00000317          	auipc	x6,0x0
    41000128:	3fc30313          	addi	x6,x6,1020 # 41000520 <trap_handler_m__trap_entry>
    4100012c:	30531073          	csrw	mtvec,x6
    41000130:	6700006f          	j	410007a0 <os_end_test>

0000000041000134 <syscalls__syscall_check_switch_machine_mode>:
    41000134:	000f02b7          	lui	x5,0xf0
    41000138:	0012829b          	addiw	x5,x5,1 # f0001 <mem3__pt_level2+0x3d001>
    4100013c:	00c29293          	slli	x5,x5,0xc
    41000140:	00128293          	addi	x5,x5,1
    41000144:	0a5f8463          	beq	x31,x5,410001ec <syscalls__os_fn_f0001001>

0000000041000148 <syscalls__syscall_check_switch_super_mode>:
    41000148:	000f02b7          	lui	x5,0xf0
    4100014c:	0012829b          	addiw	x5,x5,1 # f0001 <mem3__pt_level2+0x3d001>
    41000150:	00c29293          	slli	x5,x5,0xc
    41000154:	00228293          	addi	x5,x5,2
    41000158:	0c5f8063          	beq	x31,x5,41000218 <syscalls__os_fn_f0001002>

000000004100015c <syscalls__syscall_check_switch_user_mode>:
    4100015c:	000f02b7          	lui	x5,0xf0
    41000160:	0012829b          	addiw	x5,x5,1 # f0001 <mem3__pt_level2+0x3d001>
    41000164:	00c29293          	slli	x5,x5,0xc
    41000168:	00328293          	addi	x5,x5,3
    4100016c:	0a5f8a63          	beq	x31,x5,41000220 <syscalls__os_fn_f0001003>

0000000041000170 <syscalls__syscall_check_switch_test_mode>:
    41000170:	000f02b7          	lui	x5,0xf0
    41000174:	0012829b          	addiw	x5,x5,1 # f0001 <mem3__pt_level2+0x3d001>
    41000178:	00c29293          	slli	x5,x5,0xc
    4100017c:	00428293          	addi	x5,x5,4
    41000180:	0c5f8463          	beq	x31,x5,41000248 <syscalls__os_fn_f0001004>

0000000041000184 <syscalls__syscall_machine_csr_rw>:
    41000184:	000f02b7          	lui	x5,0xf0
    41000188:	0012829b          	addiw	x5,x5,1 # f0001 <mem3__pt_level2+0x3d001>
    4100018c:	00c29293          	slli	x5,x5,0xc
    41000190:	00528293          	addi	x5,x5,5
    41000194:	0e5f8063          	beq	x31,x5,41000274 <syscalls__os_fn_f0001005>

0000000041000198 <syscalls__syscall_supervisor_csr_rw>:
    41000198:	000f02b7          	lui	x5,0xf0
    4100019c:	0012829b          	addiw	x5,x5,1 # f0001 <mem3__pt_level2+0x3d001>
    410001a0:	00c29293          	slli	x5,x5,0xc
    410001a4:	00628293          	addi	x5,x5,6
    410001a8:	0e5f8c63          	beq	x31,x5,410002a0 <syscalls__os_fn_f0001006>

00000000410001ac <syscalls__syscall_machine_pte_read>:
    410001ac:	000f02b7          	lui	x5,0xf0
    410001b0:	0012829b          	addiw	x5,x5,1 # f0001 <mem3__pt_level2+0x3d001>
    410001b4:	00c29293          	slli	x5,x5,0xc
    410001b8:	00728293          	addi	x5,x5,7
    410001bc:	0e5f8663          	beq	x31,x5,410002a8 <syscalls__os_fn_f0001007>

00000000410001c0 <syscalls__syscall_machine_pte_write>:
    410001c0:	000f02b7          	lui	x5,0xf0
    410001c4:	0012829b          	addiw	x5,x5,1 # f0001 <mem3__pt_level2+0x3d001>
    410001c8:	00c29293          	slli	x5,x5,0xc
    410001cc:	00828293          	addi	x5,x5,8
    410001d0:	1c5f8263          	beq	x31,x5,41000394 <syscalls__os_fn_f0001008>

00000000410001d4 <syscalls__syscall_check_get_hart_context>:
    410001d4:	000782b7          	lui	x5,0x78
    410001d8:	0012829b          	addiw	x5,x5,1 # 78001 <mem7__pt_level1+0x22001>
    410001dc:	00d29293          	slli	x5,x5,0xd
    410001e0:	00128293          	addi	x5,x5,1
    410001e4:	285f8e63          	beq	x31,x5,41000480 <syscalls__os_get_hart_context>
    410001e8:	4940006f          	j	4100067c <trap_handler_m__check_exception_label>

00000000410001ec <syscalls__os_fn_f0001001>:
    410001ec:	000022b7          	lui	x5,0x2
    410001f0:	8002829b          	addiw	x5,x5,-2048 # 1800 <mem0__pt_level4+0x7f8>
    410001f4:	3002b073          	csrc	mstatus,x5
    410001f8:	000022b7          	lui	x5,0x2
    410001fc:	8002829b          	addiw	x5,x5,-2048 # 1800 <mem0__pt_level4+0x7f8>
    41000200:	3002a073          	csrs	mstatus,x5
    41000204:	0010029b          	addiw	x5,x0,1
    41000208:	02729293          	slli	x5,x5,0x27
    4100020c:	3002b073          	csrc	mstatus,x5
    41000210:	411942b7          	lui	x5,0x41194
    41000214:	27c0006f          	j	41000490 <syscalls__ret_from_os_fn>

0000000041000218 <syscalls__os_fn_f0001002>:
    41000218:	410942b7          	lui	x5,0x41094
    4100021c:	2740006f          	j	41000490 <syscalls__ret_from_os_fn>

0000000041000220 <syscalls__os_fn_f0001003>:
    41000220:	000022b7          	lui	x5,0x2
    41000224:	8002829b          	addiw	x5,x5,-2048 # 1800 <mem0__pt_level4+0x7f8>
    41000228:	3002b073          	csrc	mstatus,x5
    4100022c:	00000293          	li	x5,0
    41000230:	3002a073          	csrs	mstatus,x5
    41000234:	0010029b          	addiw	x5,x0,1
    41000238:	02729293          	slli	x5,x5,0x27
    4100023c:	3002b073          	csrc	mstatus,x5
    41000240:	411142b7          	lui	x5,0x41114
    41000244:	24c0006f          	j	41000490 <syscalls__ret_from_os_fn>

0000000041000248 <syscalls__os_fn_f0001004>:
    41000248:	000022b7          	lui	x5,0x2
    4100024c:	8002829b          	addiw	x5,x5,-2048 # 1800 <mem0__pt_level4+0x7f8>
    41000250:	3002b073          	csrc	mstatus,x5
    41000254:	000012b7          	lui	x5,0x1
    41000258:	8002829b          	addiw	x5,x5,-2048 # 800 <XLEN+0x7c0>
    4100025c:	3002a073          	csrs	mstatus,x5
    41000260:	0010029b          	addiw	x5,x0,1
    41000264:	02729293          	slli	x5,x5,0x27
    41000268:	3002b073          	csrc	mstatus,x5
    4100026c:	17823283          	ld	x5,376(x4) # 412fb178 <__section_hart_context+0x178>
    41000270:	2200006f          	j	41000490 <syscalls__ret_from_os_fn>

0000000041000274 <syscalls__os_fn_f0001005>:
    41000274:	000022b7          	lui	x5,0x2
    41000278:	8002829b          	addiw	x5,x5,-2048 # 1800 <mem0__pt_level4+0x7f8>
    4100027c:	3002b073          	csrc	mstatus,x5
    41000280:	000022b7          	lui	x5,0x2
    41000284:	8002829b          	addiw	x5,x5,-2048 # 1800 <mem0__pt_level4+0x7f8>
    41000288:	3002a073          	csrs	mstatus,x5
    4100028c:	0010029b          	addiw	x5,x0,1
    41000290:	02729293          	slli	x5,x5,0x27
    41000294:	3002b073          	csrc	mstatus,x5
    41000298:	412142b7          	lui	x5,0x41214
    4100029c:	1f40006f          	j	41000490 <syscalls__ret_from_os_fn>

00000000410002a0 <syscalls__os_fn_f0001006>:
    410002a0:	412152b7          	lui	x5,0x41215
    410002a4:	1ec0006f          	j	41000490 <syscalls__ret_from_os_fn>

00000000410002a8 <syscalls__os_fn_f0001007>:
    410002a8:	435d0fb7          	lui	x31,0x435d0
    410002ac:	0b0f8f9b          	addiw	x31,x31,176 # 435d00b0 <pte_access_flags_pa>
    410002b0:	000fbf83          	ld	x31,0(x31)
    410002b4:	435d02b7          	lui	x5,0x435d0
    410002b8:	0b82829b          	addiw	x5,x5,184 # 435d00b8 <pte_access_flags_pa+0x8>
    410002bc:	0002b283          	ld	x5,0(x5)
    410002c0:	435d0e37          	lui	x28,0x435d0
    410002c4:	0c0e0e1b          	addiw	x28,x28,192 # 435d00c0 <pte_access_flags_pa+0x10>
    410002c8:	000e3e03          	ld	x28,0(x28)

00000000410002cc <syscalls__pte_walk_check_glevel_without_gstage_read>:
    410002cc:	fff00f93          	li	x31,-1
    410002d0:	0dfe1063          	bne	x28,x31,41000390 <syscalls__pte_walk_fail_read>
    410002d4:	18002373          	csrr	x6,satp
    410002d8:	03c35e93          	srli	x29,x6,0x3c
    410002dc:	01431313          	slli	x6,x6,0x14
    410002e0:	01435313          	srli	x6,x6,0x14
    410002e4:	00c31313          	slli	x6,x6,0xc
    410002e8:	ff8e8e93          	addi	x29,x29,-8
    410002ec:	003e9f13          	slli	x30,x29,0x3
    410002f0:	01df0eb3          	add	x29,x30,x29
    410002f4:	01ee8e93          	addi	x29,x29,30
    410002f8:	00000f13          	li	x30,0

00000000410002fc <syscalls__pte_walk_loop_read>:
    410002fc:	435d0fb7          	lui	x31,0x435d0
    41000300:	0b0f8f9b          	addiw	x31,x31,176 # 435d00b0 <pte_access_flags_pa>
    41000304:	000fbf83          	ld	x31,0(x31)
    41000308:	01dfdfb3          	srl	x31,x31,x29
    4100030c:	1fffff93          	andi	x31,x31,511
    41000310:	003f9f93          	slli	x31,x31,0x3
    41000314:	01f30333          	add	x6,x6,x31
    41000318:	005f0e63          	beq	x30,x5,41000334 <syscalls__pte_walk_done_read>
    4100031c:	00033f83          	ld	x31,0(x6)
    41000320:	00afdf93          	srli	x31,x31,0xa
    41000324:	00cf9313          	slli	x6,x31,0xc
    41000328:	001f0f13          	addi	x30,x30,1
    4100032c:	ff7e8e93          	addi	x29,x29,-9
    41000330:	fcdff06f          	j	410002fc <syscalls__pte_walk_loop_read>

0000000041000334 <syscalls__pte_walk_done_read>:
    41000334:	fff00f93          	li	x31,-1
    41000338:	05fe0263          	beq	x28,x31,4100037c <syscalls__pte_walk_final_read>

000000004100033c <syscalls__pte_walk_gstage_read>:
    4100033c:	435d0fb7          	lui	x31,0x435d0
    41000340:	0b0f8f9b          	addiw	x31,x31,176 # 435d00b0 <pte_access_flags_pa>
    41000344:	006fb023          	sd	x6,0(x31)
    41000348:	000e0293          	mv	x5,x28
    4100034c:	fff00e13          	li	x28,-1
    41000350:	68002373          	csrr	x6,hgatp
    41000354:	03c35e93          	srli	x29,x6,0x3c
    41000358:	01431313          	slli	x6,x6,0x14
    4100035c:	01435313          	srli	x6,x6,0x14
    41000360:	00c31313          	slli	x6,x6,0xc
    41000364:	ff8e8e93          	addi	x29,x29,-8
    41000368:	003e9f13          	slli	x30,x29,0x3
    4100036c:	01df0eb3          	add	x29,x30,x29
    41000370:	01ee8e93          	addi	x29,x29,30
    41000374:	00000f13          	li	x30,0
    41000378:	f85ff06f          	j	410002fc <syscalls__pte_walk_loop_read>

000000004100037c <syscalls__pte_walk_final_read>:
    4100037c:	00033383          	ld	x7,0(x6)
    41000380:	341022f3          	csrr	x5,mepc
    41000384:	00428293          	addi	x5,x5,4
    41000388:	16523c23          	sd	x5,376(x4) # 178 <XLEN+0x138>
    4100038c:	ebdff06f          	j	41000248 <syscalls__os_fn_f0001004>

0000000041000390 <syscalls__pte_walk_fail_read>:
    41000390:	4040006f          	j	41000794 <test_failed>

0000000041000394 <syscalls__os_fn_f0001008>:
    41000394:	435d0fb7          	lui	x31,0x435d0
    41000398:	0b0f8f9b          	addiw	x31,x31,176 # 435d00b0 <pte_access_flags_pa>
    4100039c:	000fbf83          	ld	x31,0(x31)
    410003a0:	435d02b7          	lui	x5,0x435d0
    410003a4:	0b82829b          	addiw	x5,x5,184 # 435d00b8 <pte_access_flags_pa+0x8>
    410003a8:	0002b283          	ld	x5,0(x5)
    410003ac:	435d0e37          	lui	x28,0x435d0
    410003b0:	0c0e0e1b          	addiw	x28,x28,192 # 435d00c0 <pte_access_flags_pa+0x10>
    410003b4:	000e3e03          	ld	x28,0(x28)

00000000410003b8 <syscalls__pte_walk_check_glevel_without_gstage_write>:
    410003b8:	fff00f93          	li	x31,-1
    410003bc:	0dfe1063          	bne	x28,x31,4100047c <syscalls__pte_walk_fail_write>
    410003c0:	18002373          	csrr	x6,satp
    410003c4:	03c35e93          	srli	x29,x6,0x3c
    410003c8:	01431313          	slli	x6,x6,0x14
    410003cc:	01435313          	srli	x6,x6,0x14
    410003d0:	00c31313          	slli	x6,x6,0xc
    410003d4:	ff8e8e93          	addi	x29,x29,-8
    410003d8:	003e9f13          	slli	x30,x29,0x3
    410003dc:	01df0eb3          	add	x29,x30,x29
    410003e0:	01ee8e93          	addi	x29,x29,30
    410003e4:	00000f13          	li	x30,0

00000000410003e8 <syscalls__pte_walk_loop_write>:
    410003e8:	435d0fb7          	lui	x31,0x435d0
    410003ec:	0b0f8f9b          	addiw	x31,x31,176 # 435d00b0 <pte_access_flags_pa>
    410003f0:	000fbf83          	ld	x31,0(x31)
    410003f4:	01dfdfb3          	srl	x31,x31,x29
    410003f8:	1fffff93          	andi	x31,x31,511
    410003fc:	003f9f93          	slli	x31,x31,0x3
    41000400:	01f30333          	add	x6,x6,x31
    41000404:	005f0e63          	beq	x30,x5,41000420 <syscalls__pte_walk_done_write>
    41000408:	00033f83          	ld	x31,0(x6)
    4100040c:	00afdf93          	srli	x31,x31,0xa
    41000410:	00cf9313          	slli	x6,x31,0xc
    41000414:	001f0f13          	addi	x30,x30,1
    41000418:	ff7e8e93          	addi	x29,x29,-9
    4100041c:	fcdff06f          	j	410003e8 <syscalls__pte_walk_loop_write>

0000000041000420 <syscalls__pte_walk_done_write>:
    41000420:	fff00f93          	li	x31,-1
    41000424:	05fe0263          	beq	x28,x31,41000468 <syscalls__pte_walk_final_write>

0000000041000428 <syscalls__pte_walk_gstage_write>:
    41000428:	435d0fb7          	lui	x31,0x435d0
    4100042c:	0b0f8f9b          	addiw	x31,x31,176 # 435d00b0 <pte_access_flags_pa>
    41000430:	006fb023          	sd	x6,0(x31)
    41000434:	000e0293          	mv	x5,x28
    41000438:	fff00e13          	li	x28,-1
    4100043c:	68002373          	csrr	x6,hgatp
    41000440:	03c35e93          	srli	x29,x6,0x3c
    41000444:	01431313          	slli	x6,x6,0x14
    41000448:	01435313          	srli	x6,x6,0x14
    4100044c:	00c31313          	slli	x6,x6,0xc
    41000450:	ff8e8e93          	addi	x29,x29,-8
    41000454:	003e9f13          	slli	x30,x29,0x3
    41000458:	01df0eb3          	add	x29,x30,x29
    4100045c:	01ee8e93          	addi	x29,x29,30
    41000460:	00000f13          	li	x30,0
    41000464:	f85ff06f          	j	410003e8 <syscalls__pte_walk_loop_write>

0000000041000468 <syscalls__pte_walk_final_write>:
    41000468:	00733023          	sd	x7,0(x6)
    4100046c:	341022f3          	csrr	x5,mepc
    41000470:	00428293          	addi	x5,x5,4
    41000474:	16523c23          	sd	x5,376(x4) # 178 <XLEN+0x138>
    41000478:	dd1ff06f          	j	41000248 <syscalls__os_fn_f0001004>

000000004100047c <syscalls__pte_walk_fail_write>:
    4100047c:	3180006f          	j	41000794 <test_failed>

0000000041000480 <syscalls__os_get_hart_context>:
    41000480:	14002573          	csrr	x10,sscratch
    41000484:	341022f3          	csrr	x5,mepc
    41000488:	00428293          	addi	x5,x5,4
    4100048c:	0040006f          	j	41000490 <syscalls__ret_from_os_fn>

0000000041000490 <syscalls__ret_from_os_fn>:
    41000490:	34102373          	csrr	x6,mepc
    41000494:	00430313          	addi	x6,x6,4
    41000498:	16623c23          	sd	x6,376(x4) # 178 <XLEN+0x138>
    4100049c:	34129073          	csrw	mepc,x5
    410004a0:	fff00f93          	li	x31,-1
    410004a4:	2a40006f          	j	41000748 <trap_handler_m__skip_xepc_write>

00000000410004a8 <trap_handler_m__invalid_interrupt>:
    410004a8:	2ec0006f          	j	41000794 <test_failed>

00000000410004ac <trap_handler_m__clear_all_interrupts>:
    410004ac:	34401073          	csrw	mip,x0
    410004b0:	30200073          	mret

00000000410004b4 <trap_handler_m___CLEAR_SSI>:
    410004b4:	00200293          	li	x5,2
    410004b8:	3442b073          	csrc	mip,x5
    410004bc:	30200073          	mret

00000000410004c0 <trap_handler_m___CLEAR_MSI>:
    410004c0:	00800293          	li	x5,8
    410004c4:	3442b073          	csrc	mip,x5
    410004c8:	30200073          	mret

00000000410004cc <trap_handler_m___CLEAR_STI>:
    410004cc:	02000293          	li	x5,32
    410004d0:	3442b073          	csrc	mip,x5
    410004d4:	30200073          	mret

00000000410004d8 <trap_handler_m___CLEAR_MTI>:
    410004d8:	08000293          	li	x5,128
    410004dc:	3442b073          	csrc	mip,x5
    410004e0:	30200073          	mret

00000000410004e4 <trap_handler_m___CLEAR_SEI>:
    410004e4:	20000293          	li	x5,512
    410004e8:	3442b073          	csrc	mip,x5
    410004ec:	30200073          	mret

00000000410004f0 <trap_handler_m___CLEAR_MEI>:
    410004f0:	000012b7          	lui	x5,0x1
    410004f4:	8002829b          	addiw	x5,x5,-2048 # 800 <XLEN+0x7c0>
    410004f8:	3442b073          	csrc	mip,x5
    410004fc:	30200073          	mret

0000000041000500 <trap_handler_m___CLEAR_COI>:
    41000500:	000022b7          	lui	x5,0x2
    41000504:	3442b073          	csrc	mip,x5
    41000508:	30200073          	mret

000000004100050c <trap_handler_m__clear_highest_priority_interrupt>:
    4100050c:	344022f3          	csrr	x5,mip
    41000510:	40500333          	neg	x6,x5
    41000514:	0062f2b3          	and	x5,x5,x6
    41000518:	3442b073          	csrc	mip,x5
    4100051c:	30200073          	mret

0000000041000520 <trap_handler_m__trap_entry>:
    41000520:	0fc0006f          	j	4100061c <trap_handler_m__trap_handler>

0000000041000524 <trap_handler_m__interrupt_vector_table>:
    41000524:	f91ff06f          	j	410004b4 <trap_handler_m___CLEAR_SSI>
    41000528:	f81ff06f          	j	410004a8 <trap_handler_m__invalid_interrupt>
    4100052c:	f95ff06f          	j	410004c0 <trap_handler_m___CLEAR_MSI>
    41000530:	f79ff06f          	j	410004a8 <trap_handler_m__invalid_interrupt>
    41000534:	f99ff06f          	j	410004cc <trap_handler_m___CLEAR_STI>
    41000538:	f71ff06f          	j	410004a8 <trap_handler_m__invalid_interrupt>
    4100053c:	f9dff06f          	j	410004d8 <trap_handler_m___CLEAR_MTI>
    41000540:	f69ff06f          	j	410004a8 <trap_handler_m__invalid_interrupt>
    41000544:	fa1ff06f          	j	410004e4 <trap_handler_m___CLEAR_SEI>
    41000548:	f61ff06f          	j	410004a8 <trap_handler_m__invalid_interrupt>
    4100054c:	fa5ff06f          	j	410004f0 <trap_handler_m___CLEAR_MEI>
    41000550:	f59ff06f          	j	410004a8 <trap_handler_m__invalid_interrupt>
    41000554:	fadff06f          	j	41000500 <trap_handler_m___CLEAR_COI>
    41000558:	f51ff06f          	j	410004a8 <trap_handler_m__invalid_interrupt>
    4100055c:	f4dff06f          	j	410004a8 <trap_handler_m__invalid_interrupt>
    41000560:	fadff06f          	j	4100050c <trap_handler_m__clear_highest_priority_interrupt>
    41000564:	fa9ff06f          	j	4100050c <trap_handler_m__clear_highest_priority_interrupt>
    41000568:	fa5ff06f          	j	4100050c <trap_handler_m__clear_highest_priority_interrupt>
    4100056c:	fa1ff06f          	j	4100050c <trap_handler_m__clear_highest_priority_interrupt>
    41000570:	f9dff06f          	j	4100050c <trap_handler_m__clear_highest_priority_interrupt>
    41000574:	f99ff06f          	j	4100050c <trap_handler_m__clear_highest_priority_interrupt>
    41000578:	f95ff06f          	j	4100050c <trap_handler_m__clear_highest_priority_interrupt>
    4100057c:	f91ff06f          	j	4100050c <trap_handler_m__clear_highest_priority_interrupt>
    41000580:	f8dff06f          	j	4100050c <trap_handler_m__clear_highest_priority_interrupt>
    41000584:	f89ff06f          	j	4100050c <trap_handler_m__clear_highest_priority_interrupt>
    41000588:	f85ff06f          	j	4100050c <trap_handler_m__clear_highest_priority_interrupt>
    4100058c:	f81ff06f          	j	4100050c <trap_handler_m__clear_highest_priority_interrupt>
    41000590:	f7dff06f          	j	4100050c <trap_handler_m__clear_highest_priority_interrupt>
    41000594:	f79ff06f          	j	4100050c <trap_handler_m__clear_highest_priority_interrupt>
    41000598:	f75ff06f          	j	4100050c <trap_handler_m__clear_highest_priority_interrupt>
    4100059c:	f71ff06f          	j	4100050c <trap_handler_m__clear_highest_priority_interrupt>
    410005a0:	f6dff06f          	j	4100050c <trap_handler_m__clear_highest_priority_interrupt>
    410005a4:	f69ff06f          	j	4100050c <trap_handler_m__clear_highest_priority_interrupt>
    410005a8:	f65ff06f          	j	4100050c <trap_handler_m__clear_highest_priority_interrupt>
    410005ac:	f61ff06f          	j	4100050c <trap_handler_m__clear_highest_priority_interrupt>
    410005b0:	f5dff06f          	j	4100050c <trap_handler_m__clear_highest_priority_interrupt>
    410005b4:	f59ff06f          	j	4100050c <trap_handler_m__clear_highest_priority_interrupt>
    410005b8:	f55ff06f          	j	4100050c <trap_handler_m__clear_highest_priority_interrupt>
    410005bc:	f51ff06f          	j	4100050c <trap_handler_m__clear_highest_priority_interrupt>
    410005c0:	f4dff06f          	j	4100050c <trap_handler_m__clear_highest_priority_interrupt>
    410005c4:	f49ff06f          	j	4100050c <trap_handler_m__clear_highest_priority_interrupt>
    410005c8:	f45ff06f          	j	4100050c <trap_handler_m__clear_highest_priority_interrupt>
    410005cc:	f41ff06f          	j	4100050c <trap_handler_m__clear_highest_priority_interrupt>
    410005d0:	f3dff06f          	j	4100050c <trap_handler_m__clear_highest_priority_interrupt>
    410005d4:	f39ff06f          	j	4100050c <trap_handler_m__clear_highest_priority_interrupt>
    410005d8:	f35ff06f          	j	4100050c <trap_handler_m__clear_highest_priority_interrupt>
    410005dc:	f31ff06f          	j	4100050c <trap_handler_m__clear_highest_priority_interrupt>
    410005e0:	f2dff06f          	j	4100050c <trap_handler_m__clear_highest_priority_interrupt>
    410005e4:	f29ff06f          	j	4100050c <trap_handler_m__clear_highest_priority_interrupt>
    410005e8:	f25ff06f          	j	4100050c <trap_handler_m__clear_highest_priority_interrupt>
    410005ec:	f21ff06f          	j	4100050c <trap_handler_m__clear_highest_priority_interrupt>
    410005f0:	f1dff06f          	j	4100050c <trap_handler_m__clear_highest_priority_interrupt>
    410005f4:	f19ff06f          	j	4100050c <trap_handler_m__clear_highest_priority_interrupt>
    410005f8:	f15ff06f          	j	4100050c <trap_handler_m__clear_highest_priority_interrupt>
    410005fc:	f11ff06f          	j	4100050c <trap_handler_m__clear_highest_priority_interrupt>
    41000600:	f0dff06f          	j	4100050c <trap_handler_m__clear_highest_priority_interrupt>
    41000604:	f09ff06f          	j	4100050c <trap_handler_m__clear_highest_priority_interrupt>
    41000608:	f05ff06f          	j	4100050c <trap_handler_m__clear_highest_priority_interrupt>
    4100060c:	f01ff06f          	j	4100050c <trap_handler_m__clear_highest_priority_interrupt>
    41000610:	efdff06f          	j	4100050c <trap_handler_m__clear_highest_priority_interrupt>
    41000614:	ef9ff06f          	j	4100050c <trap_handler_m__clear_highest_priority_interrupt>
    41000618:	ef5ff06f          	j	4100050c <trap_handler_m__clear_highest_priority_interrupt>

000000004100061c <trap_handler_m__trap_handler>:
    4100061c:	342022f3          	csrr	x5,mcause
    41000620:	fff0031b          	addiw	x6,x0,-1
    41000624:	03f31313          	slli	x6,x6,0x3f
    41000628:	00537333          	and	x6,x6,x5
    4100062c:	02030263          	beqz	x6,41000650 <trap_handler_m__exception_path>

0000000041000630 <trap_handler_m__interrupt_handler>:
    41000630:	fff0031b          	addiw	x6,x0,-1
    41000634:	03f31313          	slli	x6,x6,0x3f
    41000638:	0062c2b3          	xor	x5,x5,x6
    4100063c:	00000317          	auipc	x6,0x0
    41000640:	ee430313          	addi	x6,x6,-284 # 41000520 <trap_handler_m__trap_entry>
    41000644:	00229293          	slli	x5,x5,0x2
    41000648:	005302b3          	add	x5,x6,x5
    4100064c:	00028067          	jr	x5 # 2000 <SID_SVINVAL_04_invalidation_sequence_2_multiple_vas_stack>

0000000041000650 <trap_handler_m__exception_path>:
    41000650:	34021273          	csrrw	x4,mscratch,x4
    41000654:	00000297          	auipc	x5,0x0
    41000658:	10828293          	addi	x5,x5,264 # 4100075c <trap_handler_m__trap_panic>
    4100065c:	30529073          	csrw	mtvec,x5
    41000660:	0040006f          	j	41000664 <trap_handler_m__excp_entry>

0000000041000664 <trap_handler_m__excp_entry>:
    41000664:	34202373          	csrr	x6,mcause
    41000668:	00800293          	li	x5,8
    4100066c:	00534863          	blt	x6,x5,4100067c <trap_handler_m__check_exception_label>
    41000670:	00b00293          	li	x5,11
    41000674:	0062c463          	blt	x5,x6,4100067c <trap_handler_m__check_exception_label>
    41000678:	a5dff06f          	j	410000d4 <syscalls__syscall_check_schedule_next_test>

000000004100067c <trap_handler_m__check_exception_label>:
    4100067c:	04623c23          	sd	x6,88(x4) # 58 <XLEN+0x18>
    41000680:	341022f3          	csrr	x5,mepc
    41000684:	02523423          	sd	x5,40(x4) # 28 <SECURE_ACCESS_PROBABILITY+0xa>
    41000688:	01820283          	lb	x5,24(x4) # 18 <STORE_GUEST_PAGE_FAULT+0x1>
    4100068c:	00029863          	bnez	x5,4100069c <trap_handler_m__check_excp>
    41000690:	00128293          	addi	x5,x5,1
    41000694:	00520c23          	sb	x5,24(x4) # 18 <STORE_GUEST_PAGE_FAULT+0x1>
    41000698:	0980006f          	j	41000730 <trap_handler_m__ecall_from_machine>

000000004100069c <trap_handler_m__check_excp>:
    4100069c:	06823283          	ld	x5,104(x4) # 68 <XLEN+0x28>
    410006a0:	06023423          	sd	x0,104(x4) # 68 <XLEN+0x28>
    410006a4:	00028663          	beqz	x5,410006b0 <trap_handler_m__skip_mode_check>
    410006a8:	00100393          	li	x7,1
    410006ac:	0e729463          	bne	x5,x7,41000794 <test_failed>

00000000410006b0 <trap_handler_m__skip_mode_check>:
    410006b0:	05023283          	ld	x5,80(x4) # 50 <XLEN+0x10>
    410006b4:	04023823          	sd	x0,80(x4) # 50 <XLEN+0x10>
    410006b8:	0c531e63          	bne	x6,x5,41000794 <test_failed>
    410006bc:	03823283          	ld	x5,56(x4) # 38 <SECURE_ACCESS_PROBABILITY+0x1a>
    410006c0:	02023c23          	sd	x0,56(x4) # 38 <SECURE_ACCESS_PROBABILITY+0x1a>
    410006c4:	06029463          	bnez	x5,4100072c <trap_handler_m__skip_gva_check>
    410006c8:	02023303          	ld	x6,32(x4) # 20 <SECURE_ACCESS_PROBABILITY+0x2>
    410006cc:	02023023          	sd	x0,32(x4) # 20 <SECURE_ACCESS_PROBABILITY+0x2>
    410006d0:	02823283          	ld	x5,40(x4) # 28 <SECURE_ACCESS_PROBABILITY+0xa>
    410006d4:	02023423          	sd	x0,40(x4) # 28 <SECURE_ACCESS_PROBABILITY+0xa>
    410006d8:	0a531e63          	bne	x6,x5,41000794 <test_failed>
    410006dc:	04023283          	ld	x5,64(x4) # 40 <XLEN>
    410006e0:	04023023          	sd	x0,64(x4) # 40 <XLEN>
    410006e4:	00028663          	beqz	x5,410006f0 <trap_handler_m__skip_nonzero_tval_check>

00000000410006e8 <trap_handler_m__nonzero_tval_check>:
    410006e8:	34302373          	csrr	x6,mtval
    410006ec:	0a531463          	bne	x6,x5,41000794 <test_failed>

00000000410006f0 <trap_handler_m__skip_nonzero_tval_check>:
    410006f0:	04823283          	ld	x5,72(x4) # 48 <XLEN+0x8>
    410006f4:	04023423          	sd	x0,72(x4) # 48 <XLEN+0x8>
    410006f8:	00028663          	beqz	x5,41000704 <trap_handler_m__skip_nonzero_htval_check>

00000000410006fc <trap_handler_m__nonzero_htval_check>:
    410006fc:	34b02373          	csrr	x6,0x34b
    41000700:	08531a63          	bne	x6,x5,41000794 <test_failed>

0000000041000704 <trap_handler_m__skip_nonzero_htval_check>:
    41000704:	06023283          	ld	x5,96(x4) # 60 <XLEN+0x20>
    41000708:	06023023          	sd	x0,96(x4) # 60 <XLEN+0x20>
    4100070c:	02028063          	beqz	x5,4100072c <trap_handler_m__skip_gva_check>

0000000041000710 <trap_handler_m__gva_check>:
    41000710:	30002373          	csrr	x6,mstatus
    41000714:	02635313          	srli	x6,x6,0x26
    41000718:	00137313          	andi	x6,x6,1
    4100071c:	06030c63          	beqz	x6,41000794 <test_failed>
    41000720:	0010031b          	addiw	x6,x0,1
    41000724:	02631313          	slli	x6,x6,0x26
    41000728:	30033073          	csrc	mstatus,x6

000000004100072c <trap_handler_m__skip_gva_check>:
    4100072c:	0040006f          	j	41000730 <trap_handler_m__ecall_from_machine>

0000000041000730 <trap_handler_m__ecall_from_machine>:
    41000730:	03023283          	ld	x5,48(x4) # 30 <SECURE_ACCESS_PROBABILITY+0x12>
    41000734:	02023823          	sd	x0,48(x4) # 30 <SECURE_ACCESS_PROBABILITY+0x12>
    41000738:	07023303          	ld	x6,112(x4) # 70 <XLEN+0x30>
    4100073c:	06023823          	sd	x0,112(x4) # 70 <XLEN+0x30>
    41000740:	00031463          	bnez	x6,41000748 <trap_handler_m__skip_xepc_write>
    41000744:	34129073          	csrw	mepc,x5

0000000041000748 <trap_handler_m__skip_xepc_write>:
    41000748:	00000317          	auipc	x6,0x0
    4100074c:	dd830313          	addi	x6,x6,-552 # 41000520 <trap_handler_m__trap_entry>
    41000750:	30531073          	csrw	mtvec,x6
    41000754:	34021273          	csrrw	x4,mscratch,x4
    41000758:	30200073          	mret

000000004100075c <trap_handler_m__trap_panic>:
    4100075c:	00000193          	li	x3,0
    41000760:	2b00006f          	j	41000a10 <eot__end_test>

0000000041000764 <enter_scheduler>:
    41000764:	0002f337          	lui	x6,0x2f
    41000768:	ab73031b          	addiw	x6,x6,-1353 # 2eab7 <mem4__pt_level0+0x22a97>
    4100076c:	00e31313          	slli	x6,x6,0xe
    41000770:	0de30313          	addi	x6,x6,222
    41000774:	02628063          	beq	x5,x6,41000794 <test_failed>
    41000778:	00000513          	li	x10,0
    4100077c:	030000ef          	jal	410007ac <rvcp_print_test_result>
    41000780:	3140006f          	j	41000a94 <scheduler__dispatch>

0000000041000784 <test_passed>:
    41000784:	34021273          	csrrw	x4,mscratch,x4
    41000788:	00000513          	li	x10,0
    4100078c:	020000ef          	jal	410007ac <rvcp_print_test_result>
    41000790:	3040006f          	j	41000a94 <scheduler__dispatch>

0000000041000794 <test_failed>:
    41000794:	34021273          	csrrw	x4,mscratch,x4
    41000798:	00300193          	li	x3,3
    4100079c:	2740006f          	j	41000a10 <eot__end_test>

00000000410007a0 <os_end_test>:
    410007a0:	34021273          	csrrw	x4,mscratch,x4
    410007a4:	00100193          	li	x3,1
    410007a8:	2680006f          	j	41000a10 <eot__end_test>

00000000410007ac <rvcp_print_test_result>:
    410007ac:	00050e13          	mv	x28,x10
    410007b0:	18823283          	ld	x5,392(x4) # 188 <XLEN+0x148>
    410007b4:	0010031b          	addiw	x6,x0,1
    410007b8:	02031313          	slli	x6,x6,0x20
    410007bc:	ffe30313          	addi	x6,x6,-2
    410007c0:	1c628063          	beq	x5,x6,41000980 <rvcp_print_test_result+0x1d4>
    410007c4:	0010031b          	addiw	x6,x0,1
    410007c8:	02031313          	slli	x6,x6,0x20
    410007cc:	fff30313          	addi	x6,x6,-1
    410007d0:	1a628863          	beq	x5,x6,41000980 <rvcp_print_test_result+0x1d4>
    410007d4:	1a02c663          	bltz	x5,41000980 <rvcp_print_test_result+0x1d4>
    410007d8:	00000317          	auipc	x6,0x0
    410007dc:	3ac30313          	addi	x6,x6,940 # 41000b84 <dtest_descriptor_table>
    410007e0:	00329393          	slli	x7,x5,0x3
    410007e4:	00730333          	add	x6,x6,x7
    410007e8:	00033e83          	ld	x29,0(x6)
    410007ec:	435d0f37          	lui	x30,0x435d0
    410007f0:	030f0f1b          	addiw	x30,x30,48 # 435d0030 <rvcp_prefix_str_pa>
    410007f4:	000f4283          	lbu	x5,0(x30)
    410007f8:	02028663          	beqz	x5,41000824 <rvcp_print_test_result+0x78>
    410007fc:	1010031b          	addiw	x6,x0,257
    41000800:	03031313          	slli	x6,x6,0x30
    41000804:	005362b3          	or	x5,x6,x5
    41000808:	0003f317          	auipc	x6,0x3f
    4100080c:	7f830313          	addi	x6,x6,2040 # 41040000 <tohost>
    41000810:	00033383          	ld	x7,0(x6)
    41000814:	fe039ee3          	bnez	x7,41000810 <rvcp_print_test_result+0x64>
    41000818:	00533023          	sd	x5,0(x6)
    4100081c:	001f0f13          	addi	x30,x30,1
    41000820:	fd5ff06f          	j	410007f4 <rvcp_print_test_result+0x48>
    41000824:	435d0f37          	lui	x30,0x435d0
    41000828:	041f0f1b          	addiw	x30,x30,65 # 435d0041 <rvcp_testname_str_pa>
    4100082c:	000f4283          	lbu	x5,0(x30)
    41000830:	02028663          	beqz	x5,4100085c <rvcp_print_test_result+0xb0>
    41000834:	1010031b          	addiw	x6,x0,257
    41000838:	03031313          	slli	x6,x6,0x30
    4100083c:	005362b3          	or	x5,x6,x5
    41000840:	0003f317          	auipc	x6,0x3f
    41000844:	7c030313          	addi	x6,x6,1984 # 41040000 <tohost>
    41000848:	00033383          	ld	x7,0(x6)
    4100084c:	fe039ee3          	bnez	x7,41000848 <rvcp_print_test_result+0x9c>
    41000850:	00533023          	sd	x5,0(x6)
    41000854:	001f0f13          	addi	x30,x30,1
    41000858:	fd5ff06f          	j	4100082c <rvcp_print_test_result+0x80>
    4100085c:	435d0f37          	lui	x30,0x435d0
    41000860:	05cf0f1b          	addiw	x30,x30,92 # 435d005c <rvcp_space_str_pa>
    41000864:	000f4283          	lbu	x5,0(x30)
    41000868:	02028663          	beqz	x5,41000894 <rvcp_print_test_result+0xe8>
    4100086c:	1010031b          	addiw	x6,x0,257
    41000870:	03031313          	slli	x6,x6,0x30
    41000874:	005362b3          	or	x5,x6,x5
    41000878:	0003f317          	auipc	x6,0x3f
    4100087c:	78830313          	addi	x6,x6,1928 # 41040000 <tohost>
    41000880:	00033383          	ld	x7,0(x6)
    41000884:	fe039ee3          	bnez	x7,41000880 <rvcp_print_test_result+0xd4>
    41000888:	00533023          	sd	x5,0(x6)
    4100088c:	001f0f13          	addi	x30,x30,1
    41000890:	fd5ff06f          	j	41000864 <rvcp_print_test_result+0xb8>
    41000894:	000e8f13          	mv	x30,x29
    41000898:	000f4283          	lbu	x5,0(x30)
    4100089c:	02028663          	beqz	x5,410008c8 <rvcp_print_test_result+0x11c>
    410008a0:	1010031b          	addiw	x6,x0,257
    410008a4:	03031313          	slli	x6,x6,0x30
    410008a8:	005362b3          	or	x5,x6,x5
    410008ac:	0003f317          	auipc	x6,0x3f
    410008b0:	75430313          	addi	x6,x6,1876 # 41040000 <tohost>
    410008b4:	00033383          	ld	x7,0(x6)
    410008b8:	fe039ee3          	bnez	x7,410008b4 <rvcp_print_test_result+0x108>
    410008bc:	00533023          	sd	x5,0(x6)
    410008c0:	001f0f13          	addi	x30,x30,1
    410008c4:	fd5ff06f          	j	41000898 <rvcp_print_test_result+0xec>
    410008c8:	435d0f37          	lui	x30,0x435d0
    410008cc:	05cf0f1b          	addiw	x30,x30,92 # 435d005c <rvcp_space_str_pa>
    410008d0:	000f4283          	lbu	x5,0(x30)
    410008d4:	02028663          	beqz	x5,41000900 <rvcp_print_test_result+0x154>
    410008d8:	1010031b          	addiw	x6,x0,257
    410008dc:	03031313          	slli	x6,x6,0x30
    410008e0:	005362b3          	or	x5,x6,x5
    410008e4:	0003f317          	auipc	x6,0x3f
    410008e8:	71c30313          	addi	x6,x6,1820 # 41040000 <tohost>
    410008ec:	00033383          	ld	x7,0(x6)
    410008f0:	fe039ee3          	bnez	x7,410008ec <rvcp_print_test_result+0x140>
    410008f4:	00533023          	sd	x5,0(x6)
    410008f8:	001f0f13          	addi	x30,x30,1
    410008fc:	fd5ff06f          	j	410008d0 <rvcp_print_test_result+0x124>
    41000900:	000e1863          	bnez	x28,41000910 <rvcp_print_test_result+0x164>
    41000904:	435d0f37          	lui	x30,0x435d0
    41000908:	04ef0f1b          	addiw	x30,x30,78 # 435d004e <rvcp_passed_str_pa>
    4100090c:	00c0006f          	j	41000918 <rvcp_print_test_result+0x16c>
    41000910:	435d0f37          	lui	x30,0x435d0
    41000914:	055f0f1b          	addiw	x30,x30,85 # 435d0055 <rvcp_failed_str_pa>
    41000918:	000f4283          	lbu	x5,0(x30)
    4100091c:	02028663          	beqz	x5,41000948 <rvcp_print_test_result+0x19c>
    41000920:	1010031b          	addiw	x6,x0,257
    41000924:	03031313          	slli	x6,x6,0x30
    41000928:	005362b3          	or	x5,x6,x5
    4100092c:	0003f317          	auipc	x6,0x3f
    41000930:	6d430313          	addi	x6,x6,1748 # 41040000 <tohost>
    41000934:	00033383          	ld	x7,0(x6)
    41000938:	fe039ee3          	bnez	x7,41000934 <rvcp_print_test_result+0x188>
    4100093c:	00533023          	sd	x5,0(x6)
    41000940:	001f0f13          	addi	x30,x30,1
    41000944:	fd5ff06f          	j	41000918 <rvcp_print_test_result+0x16c>
    41000948:	435d0f37          	lui	x30,0x435d0
    4100094c:	05ef0f1b          	addiw	x30,x30,94 # 435d005e <rvcp_newline_str_pa>
    41000950:	000f4283          	lbu	x5,0(x30)
    41000954:	02028663          	beqz	x5,41000980 <rvcp_print_test_result+0x1d4>
    41000958:	1010031b          	addiw	x6,x0,257
    4100095c:	03031313          	slli	x6,x6,0x30
    41000960:	005362b3          	or	x5,x6,x5
    41000964:	0003f317          	auipc	x6,0x3f
    41000968:	69c30313          	addi	x6,x6,1692 # 41040000 <tohost>
    4100096c:	00033383          	ld	x7,0(x6)
    41000970:	fe039ee3          	bnez	x7,4100096c <rvcp_print_test_result+0x1c0>
    41000974:	00533023          	sd	x5,0(x6)
    41000978:	001f0f13          	addi	x30,x30,1
    4100097c:	fd5ff06f          	j	41000950 <rvcp_print_test_result+0x1a4>
    41000980:	00008067          	ret

0000000041000984 <os_rng_orig>:
    41000984:	f14023f3          	csrr	x7,mhartid
    41000988:	00068313          	mv	x6,x13
    4100098c:	026383b3          	mul	x7,x7,x6
    41000990:	00058313          	mv	x6,x11
    41000994:	00730333          	add	x6,x6,x7
    41000998:	00033283          	ld	x5,0(x6)
    4100099c:	01529313          	slli	x6,x5,0x15
    410009a0:	0062c2b3          	xor	x5,x5,x6
    410009a4:	0232d313          	srli	x6,x5,0x23
    410009a8:	0062c2b3          	xor	x5,x5,x6
    410009ac:	00429313          	slli	x6,x5,0x4
    410009b0:	0062c2b3          	xor	x5,x5,x6
    410009b4:	00058313          	mv	x6,x11
    410009b8:	00730333          	add	x6,x6,x7
    410009bc:	00533023          	sd	x5,0(x6)
    410009c0:	00060313          	mv	x6,x12
    410009c4:	0262f2b3          	remu	x5,x5,x6
    410009c8:	00028513          	mv	x10,x5
    410009cc:	00008067          	ret
    410009d0:	02a00513          	li	x10,42
    410009d4:	001965b7          	lui	x11,0x196
    410009d8:	60d5859b          	addiw	x11,x11,1549 # 19660d <mem1__pt_level1+0x7560d>
    410009dc:	3c6ef637          	lui	x12,0x3c6ef
    410009e0:	35f6061b          	addiw	x12,x12,863 # 3c6ef35f <mem4__pt_level4+0x2cad33f>
    410009e4:	02200693          	li	x13,34
    410009e8:	02b50533          	mul	x10,x10,x11
    410009ec:	00c50533          	add	x10,x10,x12
    410009f0:	02d56533          	rem	x10,x10,x13
    410009f4:	00b00593          	li	x11,11
    410009f8:	02b56533          	rem	x10,x10,x11
    410009fc:	00008067          	ret

0000000041000a00 <tohost_mutex>:
	...

0000000041000a08 <tohost_addr_mem>:
    41000a08:	0000                	.insn	2, 0x0000
    41000a0a:	4104                	.insn	2, 0x4104
    41000a0c:	0000                	.insn	2, 0x0000
	...

0000000041000a10 <eot__end_test>:
    41000a10:	00100293          	li	x5,1
    41000a14:	00328463          	beq	x5,x3,41000a1c <eot__passed>
    41000a18:	01c0006f          	j	41000a34 <eot__failed>

0000000041000a1c <eot__passed>:
    41000a1c:	0ff0000f          	fence
    41000a20:	00000297          	auipc	x5,0x0
    41000a24:	fe82b283          	ld	x5,-24(x5) # 41000a08 <tohost_addr_mem>
    41000a28:	00100313          	li	x6,1
    41000a2c:	0062a023          	sw	x6,0(x5)
    41000a30:	0240006f          	j	41000a54 <eot__halt>

0000000041000a34 <eot__failed>:
    41000a34:	00100513          	li	x10,1
    41000a38:	d75ff0ef          	jal	410007ac <rvcp_print_test_result>
    41000a3c:	0ff0000f          	fence
    41000a40:	00000297          	auipc	x5,0x0
    41000a44:	fc82b283          	ld	x5,-56(x5) # 41000a08 <tohost_addr_mem>
    41000a48:	00300313          	li	x6,3
    41000a4c:	0062a023          	sw	x6,0(x5)
    41000a50:	0040006f          	j	41000a54 <eot__halt>

0000000041000a54 <eot__halt>:
    41000a54:	10500073          	wfi
    41000a58:	ffdff06f          	j	41000a54 <eot__halt>

0000000041000a5c <scheduler__init>:
    41000a5c:	00000297          	auipc	x5,0x0
    41000a60:	0c028293          	addi	x5,x5,192 # 41000b1c <scheduler__panic>
    41000a64:	305292f3          	csrrw	x5,mtvec,x5
    41000a68:	18523023          	sd	x5,384(x4) # 180 <XLEN+0x140>
    41000a6c:	00b00293          	li	x5,11
    41000a70:	18523823          	sd	x5,400(x4) # 190 <XLEN+0x150>
    41000a74:	0010029b          	addiw	x5,x0,1
    41000a78:	02029293          	slli	x5,x5,0x20
    41000a7c:	ffe28293          	addi	x5,x5,-2
    41000a80:	18523423          	sd	x5,392(x4) # 188 <XLEN+0x148>
    41000a84:	00000317          	auipc	x6,0x0
    41000a88:	32030313          	addi	x6,x6,800 # 41000da4 <scheduler__test_setup_ptr>
    41000a8c:	00033303          	ld	x6,0(x6)
    41000a90:	0640006f          	j	41000af4 <scheduler__execute_test>

0000000041000a94 <scheduler__dispatch>:
    41000a94:	00000297          	auipc	x5,0x0
    41000a98:	08828293          	addi	x5,x5,136 # 41000b1c <scheduler__panic>
    41000a9c:	305292f3          	csrrw	x5,mtvec,x5
    41000aa0:	18523023          	sd	x5,384(x4) # 180 <XLEN+0x140>

0000000041000aa4 <scheduler__csr_read_randomization>:
    41000aa4:	141022f3          	csrr	x5,sepc
    41000aa8:	143022f3          	csrr	x5,stval
    41000aac:	143022f3          	csrr	x5,stval
    41000ab0:	141022f3          	csrr	x5,sepc
    41000ab4:	f12022f3          	csrr	x5,marchid

0000000041000ab8 <scheduler__load_num_runs>:
    41000ab8:	19023303          	ld	x6,400(x4) # 190 <XLEN+0x150>
    41000abc:	04030c63          	beqz	x6,41000b14 <scheduler__finished>

0000000041000ac0 <scheduler__decrement_num_runs>:
    41000ac0:	fff30393          	addi	x7,x6,-1
    41000ac4:	18723823          	sd	x7,400(x4) # 190 <XLEN+0x150>
    41000ac8:	00000e17          	auipc	x28,0x0
    41000acc:	2b0e0e13          	addi	x28,x28,688 # 41000d78 <dtest_index_map>
    41000ad0:	00239e93          	slli	x29,x7,0x2
    41000ad4:	01de0e33          	add	x28,x28,x29
    41000ad8:	000e2e03          	lw	x28,0(x28)
    41000adc:	19c23423          	sd	x28,392(x4) # 188 <XLEN+0x148>

0000000041000ae0 <scheduler__calc_test_pointer>:
    41000ae0:	00339293          	slli	x5,x7,0x3

0000000041000ae4 <scheduler__load_test_addr>:
    41000ae4:	00000317          	auipc	x6,0x0
    41000ae8:	04830313          	addi	x6,x6,72 # 41000b2c <os_test_sequence>
    41000aec:	006282b3          	add	x5,x5,x6
    41000af0:	0002b303          	ld	x6,0(x5)

0000000041000af4 <scheduler__execute_test>:
    41000af4:	18023283          	ld	x5,384(x4) # 180 <XLEN+0x140>
    41000af8:	30529073          	csrw	mtvec,x5
    41000afc:	34021273          	csrrw	x4,mscratch,x4
    41000b00:	00000213          	li	x4,0
    41000b04:	14131073          	csrw	sepc,x6
    41000b08:	10000293          	li	x5,256
    41000b0c:	1002a073          	csrs	sstatus,x5
    41000b10:	10200073          	sret

0000000041000b14 <scheduler__finished>:
    41000b14:	00100193          	li	x3,1
    41000b18:	ef9ff06f          	j	41000a10 <eot__end_test>

0000000041000b1c <scheduler__panic>:
    41000b1c:	00000193          	li	x3,0
    41000b20:	ef1ff06f          	j	41000a10 <eot__end_test>

0000000041000b24 <num_runs>:
    41000b24:	0000000b          	.insn	4, 0x000b
    41000b28:	0000                	.insn	2, 0x0000
	...

0000000041000b2c <os_test_sequence>:
    41000b2c:	4d40                	.insn	2, 0x4d40
    41000b2e:	4101                	.insn	2, 0x4101
    41000b30:	0000                	.insn	2, 0x0000
    41000b32:	0000                	.insn	2, 0x0000
    41000b34:	4b28                	.insn	2, 0x4b28
    41000b36:	4101                	.insn	2, 0x4101
    41000b38:	0000                	.insn	2, 0x0000
    41000b3a:	0000                	.insn	2, 0x0000
    41000b3c:	4d0c                	.insn	2, 0x4d0c
    41000b3e:	4101                	.insn	2, 0x4101
    41000b40:	0000                	.insn	2, 0x0000
    41000b42:	0000                	.insn	2, 0x0000
    41000b44:	480c                	.insn	2, 0x480c
    41000b46:	4101                	.insn	2, 0x4101
    41000b48:	0000                	.insn	2, 0x0000
    41000b4a:	0000                	.insn	2, 0x0000
    41000b4c:	4a10                	.insn	2, 0x4a10
    41000b4e:	4101                	.insn	2, 0x4101
    41000b50:	0000                	.insn	2, 0x0000
    41000b52:	0000                	.insn	2, 0x0000
    41000b54:	4c50                	.insn	2, 0x4c50
    41000b56:	4101                	.insn	2, 0x4101
    41000b58:	0000                	.insn	2, 0x0000
    41000b5a:	0000                	.insn	2, 0x0000
    41000b5c:	4c80                	.insn	2, 0x4c80
    41000b5e:	4101                	.insn	2, 0x4101
    41000b60:	0000                	.insn	2, 0x0000
    41000b62:	0000                	.insn	2, 0x0000
    41000b64:	42f0                	.insn	2, 0x42f0
    41000b66:	4101                	.insn	2, 0x4101
    41000b68:	0000                	.insn	2, 0x0000
    41000b6a:	0000                	.insn	2, 0x0000
    41000b6c:	4cc0                	.insn	2, 0x4cc0
    41000b6e:	4101                	.insn	2, 0x4101
    41000b70:	0000                	.insn	2, 0x0000
    41000b72:	0000                	.insn	2, 0x0000
    41000b74:	413c                	.insn	2, 0x413c
    41000b76:	4101                	.insn	2, 0x4101
    41000b78:	0000                	.insn	2, 0x0000
    41000b7a:	0000                	.insn	2, 0x0000
    41000b7c:	40f0                	.insn	2, 0x40f0
    41000b7e:	4101                	.insn	2, 0x4101
    41000b80:	0000                	.insn	2, 0x0000
	...

0000000041000b84 <dtest_descriptor_table>:
    41000b84:	0bd4                	.insn	2, 0x0bd4
    41000b86:	4100                	.insn	2, 0x4100
    41000b88:	0000                	.insn	2, 0x0000
    41000b8a:	0000                	.insn	2, 0x0000
    41000b8c:	41000bf3          	.insn	4, 0x41000bf3
    41000b90:	0000                	.insn	2, 0x0000
    41000b92:	0000                	.insn	2, 0x0000
    41000b94:	0c1a                	.insn	2, 0x0c1a
    41000b96:	4100                	.insn	2, 0x4100
    41000b98:	0000                	.insn	2, 0x0000
    41000b9a:	0000                	.insn	2, 0x0000
    41000b9c:	0c4e                	.insn	2, 0x0c4e
    41000b9e:	4100                	.insn	2, 0x4100
    41000ba0:	0000                	.insn	2, 0x0000
    41000ba2:	0000                	.insn	2, 0x0000
    41000ba4:	0c7a                	.insn	2, 0x0c7a
    41000ba6:	4100                	.insn	2, 0x4100
    41000ba8:	0000                	.insn	2, 0x0000
    41000baa:	0000                	.insn	2, 0x0000
    41000bac:	0ca1                	.insn	2, 0x0ca1
    41000bae:	4100                	.insn	2, 0x4100
    41000bb0:	0000                	.insn	2, 0x0000
    41000bb2:	0000                	.insn	2, 0x0000
    41000bb4:	0cce                	.insn	2, 0x0cce
    41000bb6:	4100                	.insn	2, 0x4100
    41000bb8:	0000                	.insn	2, 0x0000
    41000bba:	0000                	.insn	2, 0x0000
    41000bbc:	0cf8                	.insn	2, 0x0cf8
    41000bbe:	4100                	.insn	2, 0x4100
    41000bc0:	0000                	.insn	2, 0x0000
    41000bc2:	0000                	.insn	2, 0x0000
    41000bc4:	0d22                	.insn	2, 0x0d22
    41000bc6:	4100                	.insn	2, 0x4100
    41000bc8:	0000                	.insn	2, 0x0000
    41000bca:	0000                	.insn	2, 0x0000
    41000bcc:	41000d4f          	fnmadd.s	f26,f0,f16,f8,rne
    41000bd0:	0000                	.insn	2, 0x0000
	...

0000000041000bd4 <dtest_name_0>:
    41000bd4:	5f444953          	.insn	4, 0x5f444953
    41000bd8:	4e495653          	.insn	4, 0x4e495653
    41000bdc:	4156                	.insn	2, 0x4156
    41000bde:	5f4c                	.insn	2, 0x5f4c
    41000be0:	3130                	.insn	2, 0x3130
    41000be2:	6f5f 6370 646f      	.insn	6, 0x646f63706f5f
    41000be8:	5f65                	.insn	2, 0x5f65
    41000bea:	65766f63          	bltu	x12,x23,41001248 <__section__runtime_1+0x248>
    41000bee:	6172                	.insn	2, 0x6172
    41000bf0:	          	.insn	4, 0x53006567

0000000041000bf3 <dtest_name_1>:
    41000bf3:	5f444953          	.insn	4, 0x5f444953
    41000bf7:	4e495653          	.insn	4, 0x4e495653
    41000bfb:	4156                	.insn	2, 0x4156
    41000bfd:	5f4c                	.insn	2, 0x5f4c
    41000bff:	3330                	.insn	2, 0x3330
    41000c01:	695f 766e 6c61      	.insn	6, 0x6c61766e695f
    41000c07:	6469                	.insn	2, 0x6469
    41000c09:	7461                	.insn	2, 0x7461
    41000c0b:	6f69                	.insn	2, 0x6f69
    41000c0d:	5f6e                	.insn	2, 0x5f6e
    41000c0f:	75716573          	csrrsi	x10,0x757,2
    41000c13:	6e65                	.insn	2, 0x6e65
    41000c15:	315f6563          	bltu	x30,x21,41000f1f <scheduler__test_cleanup_ptr+0x173>
	...

0000000041000c1a <dtest_name_2>:
    41000c1a:	5f444953          	.insn	4, 0x5f444953
    41000c1e:	4e495653          	.insn	4, 0x4e495653
    41000c22:	4156                	.insn	2, 0x4156
    41000c24:	5f4c                	.insn	2, 0x5f4c
    41000c26:	3430                	.insn	2, 0x3430
    41000c28:	695f 766e 6c61      	.insn	6, 0x6c61766e695f
    41000c2e:	6469                	.insn	2, 0x6469
    41000c30:	7461                	.insn	2, 0x7461
    41000c32:	6f69                	.insn	2, 0x6f69
    41000c34:	5f6e                	.insn	2, 0x5f6e
    41000c36:	75716573          	csrrsi	x10,0x757,2
    41000c3a:	6e65                	.insn	2, 0x6e65
    41000c3c:	325f6563          	bltu	x30,x5,41000f66 <scheduler__test_cleanup_ptr+0x1ba>
    41000c40:	6d5f 6c75 6974      	.insn	6, 0x69746c756d5f
    41000c46:	6c70                	.insn	2, 0x6c70
    41000c48:	5f65                	.insn	2, 0x5f65
    41000c4a:	6176                	.insn	2, 0x6176
    41000c4c:	          	.insn	4, 0x49530073

0000000041000c4e <dtest_name_3>:
    41000c4e:	5f444953          	.insn	4, 0x5f444953
    41000c52:	4e495653          	.insn	4, 0x4e495653
    41000c56:	4156                	.insn	2, 0x4156
    41000c58:	5f4c                	.insn	2, 0x5f4c
    41000c5a:	3530                	.insn	2, 0x3530
    41000c5c:	6e5f 6e6f 635f      	.insn	6, 0x635f6e6f6e5f
    41000c62:	65736e6f          	jal	x28,41037ab8 <__section__code_35+0xab8>
    41000c66:	69747563          	bgeu	x8,x23,410012f0 <__section__runtime_1+0x2f0>
    41000c6a:	6576                	.insn	2, 0x6576
    41000c6c:	695f 766e 6c61      	.insn	6, 0x6c61766e695f
    41000c72:	6469                	.insn	2, 0x6469
    41000c74:	7461                	.insn	2, 0x7461
    41000c76:	6f69                	.insn	2, 0x6f69
    41000c78:	006e                	.insn	2, 0x006e

0000000041000c7a <dtest_name_4>:
    41000c7a:	5f444953          	.insn	4, 0x5f444953
    41000c7e:	4e495653          	.insn	4, 0x4e495653
    41000c82:	4156                	.insn	2, 0x4156
    41000c84:	5f4c                	.insn	2, 0x5f4c
    41000c86:	3730                	.insn	2, 0x3730
    41000c88:	665f 7561 746c      	.insn	6, 0x746c7561665f
    41000c8e:	695f 5f6e 6d73      	.insn	6, 0x6d735f6e695f
    41000c94:	5f65646f          	jal	x8,4105728a <__section__code_67+0x28a>
    41000c98:	68746977          	.insn	4, 0x68746977
    41000c9c:	745f 6d76       	.insn	6, 0x53006d76745f

0000000041000ca1 <dtest_name_5>:
    41000ca1:	5f444953          	.insn	4, 0x5f444953
    41000ca5:	4e495653          	.insn	4, 0x4e495653
    41000ca9:	4156                	.insn	2, 0x4156
    41000cab:	5f4c                	.insn	2, 0x5f4c
    41000cad:	3930                	.insn	2, 0x3930
    41000caf:	745f 6d76 735f      	.insn	6, 0x735f6d76745f
    41000cb5:	6566                	.insn	2, 0x6566
    41000cb7:	636e                	.insn	2, 0x636e
    41000cb9:	5f65                	.insn	2, 0x5f65
    41000cbb:	766e6973          	csrrsi	x18,0x766,28
    41000cbf:	6c61                	.insn	2, 0x6c61
    41000cc1:	735f 6566 636e      	.insn	6, 0x636e6566735f
    41000cc7:	5f65                	.insn	2, 0x5f65
    41000cc9:	6c66                	.insn	2, 0x6c66
    41000ccb:	          	jal	x14,410081fb <__section__runtime_8+0x1fb>

0000000041000cce <dtest_name_6>:
    41000cce:	5f444953          	.insn	4, 0x5f444953
    41000cd2:	4e495653          	.insn	4, 0x4e495653
    41000cd6:	4156                	.insn	2, 0x4156
    41000cd8:	5f4c                	.insn	2, 0x5f4c
    41000cda:	3231                	.insn	2, 0x3231
    41000cdc:	735f 6e69 6176      	.insn	6, 0x61766e69735f
    41000ce2:	5f6c                	.insn	2, 0x5f6c
    41000ce4:	6d76                	.insn	2, 0x6d76
    41000ce6:	5f61                	.insn	2, 0x5f61
    41000ce8:	6f63706f          	j	410383de <__section__code_36+0x3de>
    41000cec:	6564                	.insn	2, 0x6564
    41000cee:	785f 5f30 6f6e      	.insn	6, 0x6f6e5f30785f
    41000cf4:	786e                	.insn	2, 0x786e
    41000cf6:	0030                	.insn	2, 0x0030

0000000041000cf8 <dtest_name_7>:
    41000cf8:	5f444953          	.insn	4, 0x5f444953
    41000cfc:	4e495653          	.insn	4, 0x4e495653
    41000d00:	4156                	.insn	2, 0x4156
    41000d02:	5f4c                	.insn	2, 0x5f4c
    41000d04:	3331                	.insn	2, 0x3331
    41000d06:	735f 6e69 6176      	.insn	6, 0x61766e69735f
    41000d0c:	5f6c                	.insn	2, 0x5f6c
    41000d0e:	6d76                	.insn	2, 0x6d76
    41000d10:	5f61                	.insn	2, 0x5f61
    41000d12:	6f63706f          	j	41038408 <__section__code_36+0x408>
    41000d16:	6564                	.insn	2, 0x6564
    41000d18:	6e5f 6e6f 3078      	.insn	6, 0x30786e6f6e5f
    41000d1e:	785f 0030       	.insn	6, 0x49530030785f

0000000041000d22 <dtest_name_8>:
    41000d22:	5f444953          	.insn	4, 0x5f444953
    41000d26:	4e495653          	.insn	4, 0x4e495653
    41000d2a:	4156                	.insn	2, 0x4156
    41000d2c:	5f4c                	.insn	2, 0x5f4c
    41000d2e:	3431                	.insn	2, 0x3431
    41000d30:	735f 6e69 6176      	.insn	6, 0x61766e69735f
    41000d36:	5f6c                	.insn	2, 0x5f6c
    41000d38:	6d76                	.insn	2, 0x6d76
    41000d3a:	5f61                	.insn	2, 0x5f61
    41000d3c:	6f63706f          	j	41038432 <__section__code_36+0x432>
    41000d40:	6564                	.insn	2, 0x6564
    41000d42:	6e5f 6e6f 3078      	.insn	6, 0x30786e6f6e5f
    41000d48:	6e5f 6e6f 3078      	.insn	6, 0x30786e6f6e5f
	...

0000000041000d4f <dtest_name_9>:
    41000d4f:	5f444953          	.insn	4, 0x5f444953
    41000d53:	4e495653          	.insn	4, 0x4e495653
    41000d57:	4156                	.insn	2, 0x4156
    41000d59:	5f4c                	.insn	2, 0x5f4c
    41000d5b:	3531                	.insn	2, 0x3531
    41000d5d:	735f 6e69 6176      	.insn	6, 0x61766e69735f
    41000d63:	5f6c                	.insn	2, 0x5f6c
    41000d65:	6d76                	.insn	2, 0x6d76
    41000d67:	5f61                	.insn	2, 0x5f61
    41000d69:	6f63706f          	j	4103845f <__section__code_36+0x45f>
    41000d6d:	6564                	.insn	2, 0x6564
    41000d6f:	785f 5f30 3078      	.insn	6, 0x30785f30785f
    41000d75:	0000                	.insn	2, 0x0000
	...

0000000041000d78 <dtest_index_map>:
    41000d78:	ffff                	.insn	2, 0xffff
    41000d7a:	ffff                	.insn	2, 0xffff
    41000d7c:	0005                	.insn	2, 0x0005
    41000d7e:	0000                	.insn	2, 0x0000
    41000d80:	0009                	.insn	2, 0x0009
    41000d82:	0000                	.insn	2, 0x0000
    41000d84:	00000003          	lb	x0,0(x0) # 0 <ALL_4KB_PAGES>
    41000d88:	0004                	.insn	2, 0x0004
    41000d8a:	0000                	.insn	2, 0x0000
    41000d8c:	0006                	.insn	2, 0x0006
    41000d8e:	0000                	.insn	2, 0x0000
    41000d90:	00000007          	vle8.v	v0,(x0),v0.t
    41000d94:	0002                	.insn	2, 0x0002
    41000d96:	0000                	.insn	2, 0x0000
    41000d98:	0008                	.insn	2, 0x0008
    41000d9a:	0000                	.insn	2, 0x0000
    41000d9c:	0001                	.insn	2, 0x0001
    41000d9e:	0000                	.insn	2, 0x0000
    41000da0:	0000                	.insn	2, 0x0000
	...

0000000041000da4 <scheduler__test_setup_ptr>:
    41000da4:	40e0                	.insn	2, 0x40e0
    41000da6:	4101                	.insn	2, 0x4101
    41000da8:	0000                	.insn	2, 0x0000
	...

0000000041000dac <scheduler__test_cleanup_ptr>:
    41000dac:	4d40                	.insn	2, 0x4d40
    41000dae:	4101                	.insn	2, 0x4101
    41000db0:	0000                	.insn	2, 0x0000
	...

Disassembly of section .runtime_s:

0000000041010000 <trap_handler_s__invalid_interrupt>:
    41010000:	1740006f          	j	41010174 <trap_handler_s__test_failed>

0000000041010004 <trap_handler_s__clear_all_interrupts>:
    41010004:	14401073          	csrw	sip,x0
    41010008:	10200073          	sret

000000004101000c <trap_handler_s___CLEAR_SSI>:
    4101000c:	00200293          	li	x5,2
    41010010:	1442b073          	csrc	sip,x5
    41010014:	10200073          	sret

0000000041010018 <trap_handler_s___CLEAR_MSI>:
    41010018:	00800293          	li	x5,8
    4101001c:	1442b073          	csrc	sip,x5
    41010020:	10200073          	sret

0000000041010024 <trap_handler_s___CLEAR_STI>:
    41010024:	02000293          	li	x5,32
    41010028:	1442b073          	csrc	sip,x5
    4101002c:	10200073          	sret

0000000041010030 <trap_handler_s___CLEAR_MTI>:
    41010030:	08000293          	li	x5,128
    41010034:	1442b073          	csrc	sip,x5
    41010038:	10200073          	sret

000000004101003c <trap_handler_s___CLEAR_SEI>:
    4101003c:	20000293          	li	x5,512
    41010040:	1442b073          	csrc	sip,x5
    41010044:	10200073          	sret

0000000041010048 <trap_handler_s___CLEAR_MEI>:
    41010048:	000012b7          	lui	x5,0x1
    4101004c:	8002829b          	addiw	x5,x5,-2048 # 800 <XLEN+0x7c0>
    41010050:	1442b073          	csrc	sip,x5
    41010054:	10200073          	sret

0000000041010058 <trap_handler_s___CLEAR_COI>:
    41010058:	000022b7          	lui	x5,0x2
    4101005c:	1442b073          	csrc	sip,x5
    41010060:	10200073          	sret

0000000041010064 <trap_handler_s__clear_highest_priority_interrupt>:
    41010064:	144022f3          	csrr	x5,sip
    41010068:	40500333          	neg	x6,x5
    4101006c:	0062f2b3          	and	x5,x5,x6
    41010070:	1442b073          	csrc	sip,x5
    41010074:	10200073          	sret

0000000041010078 <trap_handler_s__trap_entry>:
    41010078:	10c0006f          	j	41010184 <trap_handler_s__trap_handler>

000000004101007c <trap_handler_s__interrupt_vector_table>:
    4101007c:	f91ff06f          	j	4101000c <trap_handler_s___CLEAR_SSI>
    41010080:	f81ff06f          	j	41010000 <trap_handler_s__invalid_interrupt>
    41010084:	f95ff06f          	j	41010018 <trap_handler_s___CLEAR_MSI>
    41010088:	f79ff06f          	j	41010000 <trap_handler_s__invalid_interrupt>
    4101008c:	f99ff06f          	j	41010024 <trap_handler_s___CLEAR_STI>
    41010090:	f71ff06f          	j	41010000 <trap_handler_s__invalid_interrupt>
    41010094:	f9dff06f          	j	41010030 <trap_handler_s___CLEAR_MTI>
    41010098:	f69ff06f          	j	41010000 <trap_handler_s__invalid_interrupt>
    4101009c:	fa1ff06f          	j	4101003c <trap_handler_s___CLEAR_SEI>
    410100a0:	f61ff06f          	j	41010000 <trap_handler_s__invalid_interrupt>
    410100a4:	fa5ff06f          	j	41010048 <trap_handler_s___CLEAR_MEI>
    410100a8:	f59ff06f          	j	41010000 <trap_handler_s__invalid_interrupt>
    410100ac:	fadff06f          	j	41010058 <trap_handler_s___CLEAR_COI>
    410100b0:	f51ff06f          	j	41010000 <trap_handler_s__invalid_interrupt>
    410100b4:	f4dff06f          	j	41010000 <trap_handler_s__invalid_interrupt>
    410100b8:	fadff06f          	j	41010064 <trap_handler_s__clear_highest_priority_interrupt>
    410100bc:	fa9ff06f          	j	41010064 <trap_handler_s__clear_highest_priority_interrupt>
    410100c0:	fa5ff06f          	j	41010064 <trap_handler_s__clear_highest_priority_interrupt>
    410100c4:	fa1ff06f          	j	41010064 <trap_handler_s__clear_highest_priority_interrupt>
    410100c8:	f9dff06f          	j	41010064 <trap_handler_s__clear_highest_priority_interrupt>
    410100cc:	f99ff06f          	j	41010064 <trap_handler_s__clear_highest_priority_interrupt>
    410100d0:	f95ff06f          	j	41010064 <trap_handler_s__clear_highest_priority_interrupt>
    410100d4:	f91ff06f          	j	41010064 <trap_handler_s__clear_highest_priority_interrupt>
    410100d8:	f8dff06f          	j	41010064 <trap_handler_s__clear_highest_priority_interrupt>
    410100dc:	f89ff06f          	j	41010064 <trap_handler_s__clear_highest_priority_interrupt>
    410100e0:	f85ff06f          	j	41010064 <trap_handler_s__clear_highest_priority_interrupt>
    410100e4:	f81ff06f          	j	41010064 <trap_handler_s__clear_highest_priority_interrupt>
    410100e8:	f7dff06f          	j	41010064 <trap_handler_s__clear_highest_priority_interrupt>
    410100ec:	f79ff06f          	j	41010064 <trap_handler_s__clear_highest_priority_interrupt>
    410100f0:	f75ff06f          	j	41010064 <trap_handler_s__clear_highest_priority_interrupt>
    410100f4:	f71ff06f          	j	41010064 <trap_handler_s__clear_highest_priority_interrupt>
    410100f8:	f6dff06f          	j	41010064 <trap_handler_s__clear_highest_priority_interrupt>
    410100fc:	f69ff06f          	j	41010064 <trap_handler_s__clear_highest_priority_interrupt>
    41010100:	f65ff06f          	j	41010064 <trap_handler_s__clear_highest_priority_interrupt>
    41010104:	f61ff06f          	j	41010064 <trap_handler_s__clear_highest_priority_interrupt>
    41010108:	f5dff06f          	j	41010064 <trap_handler_s__clear_highest_priority_interrupt>
    4101010c:	f59ff06f          	j	41010064 <trap_handler_s__clear_highest_priority_interrupt>
    41010110:	f55ff06f          	j	41010064 <trap_handler_s__clear_highest_priority_interrupt>
    41010114:	f51ff06f          	j	41010064 <trap_handler_s__clear_highest_priority_interrupt>
    41010118:	f4dff06f          	j	41010064 <trap_handler_s__clear_highest_priority_interrupt>
    4101011c:	f49ff06f          	j	41010064 <trap_handler_s__clear_highest_priority_interrupt>
    41010120:	f45ff06f          	j	41010064 <trap_handler_s__clear_highest_priority_interrupt>
    41010124:	f41ff06f          	j	41010064 <trap_handler_s__clear_highest_priority_interrupt>
    41010128:	f3dff06f          	j	41010064 <trap_handler_s__clear_highest_priority_interrupt>
    4101012c:	f39ff06f          	j	41010064 <trap_handler_s__clear_highest_priority_interrupt>
    41010130:	f35ff06f          	j	41010064 <trap_handler_s__clear_highest_priority_interrupt>
    41010134:	f31ff06f          	j	41010064 <trap_handler_s__clear_highest_priority_interrupt>
    41010138:	f2dff06f          	j	41010064 <trap_handler_s__clear_highest_priority_interrupt>
    4101013c:	f29ff06f          	j	41010064 <trap_handler_s__clear_highest_priority_interrupt>
    41010140:	f25ff06f          	j	41010064 <trap_handler_s__clear_highest_priority_interrupt>
    41010144:	f21ff06f          	j	41010064 <trap_handler_s__clear_highest_priority_interrupt>
    41010148:	f1dff06f          	j	41010064 <trap_handler_s__clear_highest_priority_interrupt>
    4101014c:	f19ff06f          	j	41010064 <trap_handler_s__clear_highest_priority_interrupt>
    41010150:	f15ff06f          	j	41010064 <trap_handler_s__clear_highest_priority_interrupt>
    41010154:	f11ff06f          	j	41010064 <trap_handler_s__clear_highest_priority_interrupt>
    41010158:	f0dff06f          	j	41010064 <trap_handler_s__clear_highest_priority_interrupt>
    4101015c:	f09ff06f          	j	41010064 <trap_handler_s__clear_highest_priority_interrupt>
    41010160:	f05ff06f          	j	41010064 <trap_handler_s__clear_highest_priority_interrupt>
    41010164:	f01ff06f          	j	41010064 <trap_handler_s__clear_highest_priority_interrupt>
    41010168:	efdff06f          	j	41010064 <trap_handler_s__clear_highest_priority_interrupt>
    4101016c:	ef9ff06f          	j	41010064 <trap_handler_s__clear_highest_priority_interrupt>
    41010170:	ef5ff06f          	j	41010064 <trap_handler_s__clear_highest_priority_interrupt>

0000000041010174 <trap_handler_s__test_failed>:
    41010174:	00f00f9b          	addiw	x31,x0,15
    41010178:	01cf9f93          	slli	x31,x31,0x1c
    4101017c:	002f8f93          	addi	x31,x31,2
    41010180:	00000073          	ecall

0000000041010184 <trap_handler_s__trap_handler>:
    41010184:	142022f3          	csrr	x5,scause
    41010188:	fff0031b          	addiw	x6,x0,-1
    4101018c:	03f31313          	slli	x6,x6,0x3f
    41010190:	00537333          	and	x6,x6,x5
    41010194:	02030263          	beqz	x6,410101b8 <trap_handler_s__exception_path>

0000000041010198 <trap_handler_s__interrupt_handler>:
    41010198:	fff0031b          	addiw	x6,x0,-1
    4101019c:	03f31313          	slli	x6,x6,0x3f
    410101a0:	0062c2b3          	xor	x5,x5,x6
    410101a4:	00000317          	auipc	x6,0x0
    410101a8:	ed430313          	addi	x6,x6,-300 # 41010078 <trap_handler_s__trap_entry>
    410101ac:	00229293          	slli	x5,x5,0x2
    410101b0:	005302b3          	add	x5,x6,x5
    410101b4:	00028067          	jr	x5 # 2000 <SID_SVINVAL_04_invalidation_sequence_2_multiple_vas_stack>

00000000410101b8 <trap_handler_s__exception_path>:
    410101b8:	14021273          	csrrw	x4,sscratch,x4
    410101bc:	00000297          	auipc	x5,0x0
    410101c0:	0cc28293          	addi	x5,x5,204 # 41010288 <trap_handler_s__trap_panic>
    410101c4:	10529073          	csrw	stvec,x5
    410101c8:	0040006f          	j	410101cc <trap_handler_s__excp_entry>

00000000410101cc <trap_handler_s__excp_entry>:
    410101cc:	14202373          	csrr	x6,scause
    410101d0:	00800293          	li	x5,8
    410101d4:	00534863          	blt	x6,x5,410101e4 <trap_handler_s__check_exception_label>
    410101d8:	00b00293          	li	x5,11
    410101dc:	0062c463          	blt	x5,x6,410101e4 <trap_handler_s__check_exception_label>
    410101e0:	0a80006f          	j	41010288 <trap_handler_s__trap_panic>

00000000410101e4 <trap_handler_s__check_exception_label>:
    410101e4:	04623c23          	sd	x6,88(x4) # 58 <XLEN+0x18>
    410101e8:	141022f3          	csrr	x5,sepc
    410101ec:	02523423          	sd	x5,40(x4) # 28 <SECURE_ACCESS_PROBABILITY+0xa>
    410101f0:	01820283          	lb	x5,24(x4) # 18 <STORE_GUEST_PAGE_FAULT+0x1>
    410101f4:	00029863          	bnez	x5,41010204 <trap_handler_s__check_excp>
    410101f8:	00128293          	addi	x5,x5,1
    410101fc:	00520c23          	sb	x5,24(x4) # 18 <STORE_GUEST_PAGE_FAULT+0x1>
    41010200:	05c0006f          	j	4101025c <trap_handler_s__ecall_from_machine>

0000000041010204 <trap_handler_s__check_excp>:
    41010204:	06823283          	ld	x5,104(x4) # 68 <XLEN+0x28>
    41010208:	06023423          	sd	x0,104(x4) # 68 <XLEN+0x28>
    4101020c:	00028663          	beqz	x5,41010218 <trap_handler_s__skip_mode_check>
    41010210:	00300393          	li	x7,3
    41010214:	f67290e3          	bne	x5,x7,41010174 <trap_handler_s__test_failed>

0000000041010218 <trap_handler_s__skip_mode_check>:
    41010218:	05023283          	ld	x5,80(x4) # 50 <XLEN+0x10>
    4101021c:	04023823          	sd	x0,80(x4) # 50 <XLEN+0x10>
    41010220:	f4531ae3          	bne	x6,x5,41010174 <trap_handler_s__test_failed>
    41010224:	03823283          	ld	x5,56(x4) # 38 <SECURE_ACCESS_PROBABILITY+0x1a>
    41010228:	02023c23          	sd	x0,56(x4) # 38 <SECURE_ACCESS_PROBABILITY+0x1a>
    4101022c:	02029663          	bnez	x5,41010258 <trap_handler_s__skip_nonzero_tval_check>
    41010230:	02023303          	ld	x6,32(x4) # 20 <SECURE_ACCESS_PROBABILITY+0x2>
    41010234:	02023023          	sd	x0,32(x4) # 20 <SECURE_ACCESS_PROBABILITY+0x2>
    41010238:	02823283          	ld	x5,40(x4) # 28 <SECURE_ACCESS_PROBABILITY+0xa>
    4101023c:	02023423          	sd	x0,40(x4) # 28 <SECURE_ACCESS_PROBABILITY+0xa>
    41010240:	f2531ae3          	bne	x6,x5,41010174 <trap_handler_s__test_failed>
    41010244:	04023283          	ld	x5,64(x4) # 40 <XLEN>
    41010248:	04023023          	sd	x0,64(x4) # 40 <XLEN>
    4101024c:	00028663          	beqz	x5,41010258 <trap_handler_s__skip_nonzero_tval_check>

0000000041010250 <trap_handler_s__nonzero_tval_check>:
    41010250:	14302373          	csrr	x6,stval
    41010254:	f25310e3          	bne	x6,x5,41010174 <trap_handler_s__test_failed>

0000000041010258 <trap_handler_s__skip_nonzero_tval_check>:
    41010258:	0040006f          	j	4101025c <trap_handler_s__ecall_from_machine>

000000004101025c <trap_handler_s__ecall_from_machine>:
    4101025c:	03023283          	ld	x5,48(x4) # 30 <SECURE_ACCESS_PROBABILITY+0x12>
    41010260:	02023823          	sd	x0,48(x4) # 30 <SECURE_ACCESS_PROBABILITY+0x12>
    41010264:	07023303          	ld	x6,112(x4) # 70 <XLEN+0x30>
    41010268:	06023823          	sd	x0,112(x4) # 70 <XLEN+0x30>
    4101026c:	00031463          	bnez	x6,41010274 <trap_handler_s__skip_xepc_write>
    41010270:	14129073          	csrw	sepc,x5

0000000041010274 <trap_handler_s__skip_xepc_write>:
    41010274:	00000317          	auipc	x6,0x0
    41010278:	e0430313          	addi	x6,x6,-508 # 41010078 <trap_handler_s__trap_entry>
    4101027c:	10531073          	csrw	stvec,x6
    41010280:	14021273          	csrrw	x4,sscratch,x4
    41010284:	10200073          	sret

0000000041010288 <trap_handler_s__trap_panic>:
    41010288:	00000193          	li	x3,0
    4101028c:	00f00f9b          	addiw	x31,x0,15
    41010290:	01cf9f93          	slli	x31,x31,0x1c
    41010294:	002f8f93          	addi	x31,x31,2
    41010298:	00000073          	ecall

Disassembly of section .code:

00000000410140b0 <passed>:
    410140b0:	00f00f9b          	addiw	x31,x0,15
    410140b4:	01cf9f93          	slli	x31,x31,0x1c
    410140b8:	001f8f93          	addi	x31,x31,1
    410140bc:	00000073          	ecall

00000000410140c0 <failed>:
    410140c0:	00f00f9b          	addiw	x31,x0,15
    410140c4:	01cf9f93          	slli	x31,x31,0x1c
    410140c8:	002f8f93          	addi	x31,x31,2
    410140cc:	00000073          	ecall

00000000410140d0 <end_test>:
    410140d0:	00f00f9b          	addiw	x31,x0,15
    410140d4:	01cf9f93          	slli	x31,x31,0x1c
    410140d8:	003f8f93          	addi	x31,x31,3
    410140dc:	00000073          	ecall

00000000410140e0 <test_setup>:
    410140e0:	00f00f9b          	addiw	x31,x0,15
    410140e4:	01cf9f93          	slli	x31,x31,0x1c
    410140e8:	001f8f93          	addi	x31,x31,1
    410140ec:	00000073          	ecall

00000000410140f0 <SID_SVINVAL_01_opcode_coverage>:
    410140f0:	39478137          	lui	x2,0x39478
    410140f4:	000012b7          	lui	x5,0x1
    410140f8:	00510133          	add	x2,x2,x5
    410140fc:	ff017113          	andi	x2,x2,-16
    41014100:	0010039b          	addiw	x7,x0,1
    41014104:	03039393          	slli	x7,x7,0x30
    41014108:	16038073          	sinval.vma	x7,x0
    4101410c:	18000073          	sfence.w.inval
    41014110:	18100073          	sfence.inval.ir
    41014114:	00100493          	li	x9,1
    41014118:	00948a63          	beq	x9,x9,4101412c <SID_SVINVAL_01_opcode_coverage_passed>
    4101411c:	0004e537          	lui	x10,0x4e
    41014120:	0085051b          	addiw	x10,x10,8 # 4e008 <failed_addr>
    41014124:	00053a03          	ld	x20,0(x10)
    41014128:	000a0067          	jr	x20

000000004101412c <SID_SVINVAL_01_opcode_coverage_passed>:
    4101412c:	00f00f9b          	addiw	x31,x0,15
    41014130:	01cf9f93          	slli	x31,x31,0x1c
    41014134:	001f8f93          	addi	x31,x31,1
    41014138:	00000073          	ecall

000000004101413c <SID_SVINVAL_03_invalidation_sequence_1>:
    4101413c:	005cf137          	lui	x2,0x5cf
    41014140:	6371011b          	addiw	x2,x2,1591 # 5cf637 <mem6__pt_level3+0x1dd637>
    41014144:	00d11113          	slli	x2,x2,0xd
    41014148:	61510113          	addi	x2,x2,1557
    4101414c:	00f11113          	slli	x2,x2,0xf
    41014150:	000012b7          	lui	x5,0x1
    41014154:	00510133          	add	x2,x2,x5
    41014158:	ff017113          	andi	x2,x2,-16
    4101415c:	04d00c9b          	addiw	x25,x0,77
    41014160:	031c9c93          	slli	x25,x25,0x31
    41014164:	000cb603          	ld	x12,0(x25)
    41014168:	0000e637          	lui	x12,0xe
    4101416c:	ead6061b          	addiw	x12,x12,-339 # dead <mem4__pt_level0+0x1e8d>
    41014170:	64c0d237          	lui	x4,0x64c0d
    41014174:	2dd2021b          	addiw	x4,x4,733 # 64c0d2dd <pma_region_2_end+0x1fbcc2dd>
    41014178:	00d21213          	slli	x4,x4,0xd
    4101417c:	00f00e13          	li	x28,15
    41014180:	05c23823          	sd	x28,80(x4) # 50 <XLEN+0x10>
    41014184:	00000e17          	auipc	x28,0x0
    41014188:	054e0e13          	addi	x28,x28,84 # 410141d8 <fault_label_0>
    4101418c:	03c23023          	sd	x28,32(x4) # 20 <SECURE_ACCESS_PROBABILITY+0x2>
    41014190:	00000e13          	li	x28,0
    41014194:	05c23023          	sd	x28,64(x4) # 40 <XLEN>
    41014198:	00000e13          	li	x28,0
    4101419c:	05c23423          	sd	x28,72(x4) # 48 <XLEN+0x8>
    410141a0:	00000e17          	auipc	x28,0x0
    410141a4:	04ce0e13          	addi	x28,x28,76 # 410141ec <excp_return_label_0>
    410141a8:	03c23823          	sd	x28,48(x4) # 30 <SECURE_ACCESS_PROBABILITY+0x12>
    410141ac:	00000e13          	li	x28,0
    410141b0:	03c23c23          	sd	x28,56(x4) # 38 <SECURE_ACCESS_PROBABILITY+0x1a>
    410141b4:	00000e13          	li	x28,0
    410141b8:	07c23023          	sd	x28,96(x4) # 60 <XLEN+0x20>
    410141bc:	00000e13          	li	x28,0
    410141c0:	07c23423          	sd	x28,104(x4) # 68 <XLEN+0x28>
    410141c4:	00000e13          	li	x28,0
    410141c8:	07c23823          	sd	x28,112(x4) # 70 <XLEN+0x30>
    410141cc:	04d0039b          	addiw	x7,x0,77
    410141d0:	03139393          	slli	x7,x7,0x31
    410141d4:	d02679d3          	fcvt.s.l	f19,x12

00000000410141d8 <fault_label_0>:
    410141d8:	0133a027          	fsw	f19,0(x7)
    410141dc:	0004ef37          	lui	x30,0x4e
    410141e0:	008f0f1b          	addiw	x30,x30,8 # 4e008 <failed_addr>
    410141e4:	000f3683          	ld	x13,0(x30)
    410141e8:	00068067          	jr	x13

00000000410141ec <excp_return_label_0>:
    410141ec:	0004efb7          	lui	x31,0x4e
    410141f0:	0b0f8f9b          	addiw	x31,x31,176 # 4e0b0 <pte_access_flags>
    410141f4:	04d0029b          	addiw	x5,x0,77
    410141f8:	03129293          	slli	x5,x5,0x31
    410141fc:	005fb023          	sd	x5,0(x31)
    41014200:	00400293          	li	x5,4
    41014204:	005fb423          	sd	x5,8(x31)
    41014208:	fff00293          	li	x5,-1
    4101420c:	005fb823          	sd	x5,16(x31)
    41014210:	000f0fb7          	lui	x31,0xf0
    41014214:	001f8f9b          	addiw	x31,x31,1 # f0001 <mem3__pt_level2+0x3d001>
    41014218:	00cf9f93          	slli	x31,x31,0xc
    4101421c:	007f8f93          	addi	x31,x31,7
    41014220:	00000073          	ecall
    41014224:	00038b93          	mv	x23,x7
    41014228:	00400c93          	li	x25,4
    4101422c:	0193eab3          	or	x21,x7,x25
    41014230:	000a8393          	mv	x7,x21
    41014234:	0004efb7          	lui	x31,0x4e
    41014238:	0b0f8f9b          	addiw	x31,x31,176 # 4e0b0 <pte_access_flags>
    4101423c:	04d0029b          	addiw	x5,x0,77
    41014240:	03129293          	slli	x5,x5,0x31
    41014244:	005fb023          	sd	x5,0(x31)
    41014248:	00400293          	li	x5,4
    4101424c:	005fb423          	sd	x5,8(x31)
    41014250:	fff00293          	li	x5,-1
    41014254:	005fb823          	sd	x5,16(x31)
    41014258:	000f0fb7          	lui	x31,0xf0
    4101425c:	001f8f9b          	addiw	x31,x31,1 # f0001 <mem3__pt_level2+0x3d001>
    41014260:	00cf9f93          	slli	x31,x31,0xc
    41014264:	008f8f93          	addi	x31,x31,8
    41014268:	00000073          	ecall
    4101426c:	18000073          	sfence.w.inval
    41014270:	04d0039b          	addiw	x7,x0,77
    41014274:	03139393          	slli	x7,x7,0x31
    41014278:	16038073          	sinval.vma	x7,x0
    4101427c:	18100073          	sfence.inval.ir
    41014280:	04d00e1b          	addiw	x28,x0,77
    41014284:	031e1e13          	slli	x28,x28,0x31
    41014288:	d02679d3          	fcvt.s.l	f19,x12
    4101428c:	013e2027          	fsw	f19,0(x28)
    41014290:	0004efb7          	lui	x31,0x4e
    41014294:	0b0f8f9b          	addiw	x31,x31,176 # 4e0b0 <pte_access_flags>
    41014298:	04d0029b          	addiw	x5,x0,77
    4101429c:	03129293          	slli	x5,x5,0x31
    410142a0:	005fb023          	sd	x5,0(x31)
    410142a4:	00400293          	li	x5,4
    410142a8:	005fb423          	sd	x5,8(x31)
    410142ac:	fff00293          	li	x5,-1
    410142b0:	005fb823          	sd	x5,16(x31)
    410142b4:	000f0fb7          	lui	x31,0xf0
    410142b8:	001f8f9b          	addiw	x31,x31,1 # f0001 <mem3__pt_level2+0x3d001>
    410142bc:	00cf9f93          	slli	x31,x31,0xc
    410142c0:	007f8f93          	addi	x31,x31,7
    410142c4:	00000073          	ecall
    410142c8:	00038a13          	mv	x20,x7
    410142cc:	014b9a63          	bne	x23,x20,410142e0 <SID_SVINVAL_03_invalidation_sequence_1_passed>
    410142d0:	0004ef37          	lui	x30,0x4e
    410142d4:	008f0f1b          	addiw	x30,x30,8 # 4e008 <failed_addr>
    410142d8:	000f3d83          	ld	x27,0(x30)
    410142dc:	000d8067          	jr	x27

00000000410142e0 <SID_SVINVAL_03_invalidation_sequence_1_passed>:
    410142e0:	00f00f9b          	addiw	x31,x0,15
    410142e4:	01cf9f93          	slli	x31,x31,0x1c
    410142e8:	001f8f93          	addi	x31,x31,1
    410142ec:	00000073          	ecall

00000000410142f0 <SID_SVINVAL_04_invalidation_sequence_2_multiple_vas>:
    410142f0:	00002137          	lui	x2,0x2
    410142f4:	000012b7          	lui	x5,0x1
    410142f8:	00510133          	add	x2,x2,x5
    410142fc:	ff017113          	andi	x2,x2,-16
    41014300:	09100b1b          	addiw	x22,x0,145
    41014304:	024b1b13          	slli	x22,x22,0x24
    41014308:	001b0b13          	addi	x22,x22,1
    4101430c:	00cb1b13          	slli	x22,x22,0xc
    41014310:	000b2307          	flw	f6,0(x22)
    41014314:	fe900c1b          	addiw	x24,x0,-23
    41014318:	023c1c13          	slli	x24,x24,0x23
    4101431c:	001c0c13          	addi	x24,x24,1
    41014320:	00dc1c13          	slli	x24,x24,0xd
    41014324:	000c5583          	lhu	x11,0(x24)
    41014328:	0010071b          	addiw	x14,x0,1
    4101432c:	02471713          	slli	x14,x14,0x24
    41014330:	00170713          	addi	x14,x14,1
    41014334:	00e71713          	slli	x14,x14,0xe
    41014338:	00070783          	lb	x15,0(x14)
    4101433c:	0000e437          	lui	x8,0xe
    41014340:	ead4041b          	addiw	x8,x8,-339 # dead <mem4__pt_level0+0x1e8d>
    41014344:	64c0d237          	lui	x4,0x64c0d
    41014348:	2dd2021b          	addiw	x4,x4,733 # 64c0d2dd <pma_region_2_end+0x1fbcc2dd>
    4101434c:	00d21213          	slli	x4,x4,0xd
    41014350:	00f00e13          	li	x28,15
    41014354:	05c23823          	sd	x28,80(x4) # 50 <XLEN+0x10>
    41014358:	00000e17          	auipc	x28,0x0
    4101435c:	058e0e13          	addi	x28,x28,88 # 410143b0 <fault_label_1>
    41014360:	03c23023          	sd	x28,32(x4) # 20 <SECURE_ACCESS_PROBABILITY+0x2>
    41014364:	00000e13          	li	x28,0
    41014368:	05c23023          	sd	x28,64(x4) # 40 <XLEN>
    4101436c:	00000e13          	li	x28,0
    41014370:	05c23423          	sd	x28,72(x4) # 48 <XLEN+0x8>
    41014374:	00000e17          	auipc	x28,0x0
    41014378:	050e0e13          	addi	x28,x28,80 # 410143c4 <excp_return_label_1>
    4101437c:	03c23823          	sd	x28,48(x4) # 30 <SECURE_ACCESS_PROBABILITY+0x12>
    41014380:	00000e13          	li	x28,0
    41014384:	03c23c23          	sd	x28,56(x4) # 38 <SECURE_ACCESS_PROBABILITY+0x1a>
    41014388:	00000e13          	li	x28,0
    4101438c:	07c23023          	sd	x28,96(x4) # 60 <XLEN+0x20>
    41014390:	00000e13          	li	x28,0
    41014394:	07c23423          	sd	x28,104(x4) # 68 <XLEN+0x28>
    41014398:	00000e13          	li	x28,0
    4101439c:	07c23823          	sd	x28,112(x4) # 70 <XLEN+0x30>
    410143a0:	0910069b          	addiw	x13,x0,145
    410143a4:	02469693          	slli	x13,x13,0x24
    410143a8:	00168693          	addi	x13,x13,1
    410143ac:	00c69693          	slli	x13,x13,0xc

00000000410143b0 <fault_label_1>:
    410143b0:	00868023          	sb	x8,0(x13)
    410143b4:	0004eab7          	lui	x21,0x4e
    410143b8:	008a8a9b          	addiw	x21,x21,8 # 4e008 <failed_addr>
    410143bc:	000ab803          	ld	x16,0(x21)
    410143c0:	00080067          	jr	x16

00000000410143c4 <excp_return_label_1>:
    410143c4:	64c0d237          	lui	x4,0x64c0d
    410143c8:	2dd2021b          	addiw	x4,x4,733 # 64c0d2dd <pma_region_2_end+0x1fbcc2dd>
    410143cc:	00d21213          	slli	x4,x4,0xd
    410143d0:	00f00e13          	li	x28,15
    410143d4:	05c23823          	sd	x28,80(x4) # 50 <XLEN+0x10>
    410143d8:	00000e17          	auipc	x28,0x0
    410143dc:	058e0e13          	addi	x28,x28,88 # 41014430 <fault_label_2>
    410143e0:	03c23023          	sd	x28,32(x4) # 20 <SECURE_ACCESS_PROBABILITY+0x2>
    410143e4:	00000e13          	li	x28,0
    410143e8:	05c23023          	sd	x28,64(x4) # 40 <XLEN>
    410143ec:	00000e13          	li	x28,0
    410143f0:	05c23423          	sd	x28,72(x4) # 48 <XLEN+0x8>
    410143f4:	00000e17          	auipc	x28,0x0
    410143f8:	050e0e13          	addi	x28,x28,80 # 41014444 <excp_return_label_2>
    410143fc:	03c23823          	sd	x28,48(x4) # 30 <SECURE_ACCESS_PROBABILITY+0x12>
    41014400:	00000e13          	li	x28,0
    41014404:	03c23c23          	sd	x28,56(x4) # 38 <SECURE_ACCESS_PROBABILITY+0x1a>
    41014408:	00000e13          	li	x28,0
    4101440c:	07c23023          	sd	x28,96(x4) # 60 <XLEN+0x20>
    41014410:	00000e13          	li	x28,0
    41014414:	07c23423          	sd	x28,104(x4) # 68 <XLEN+0x28>
    41014418:	00000e13          	li	x28,0
    4101441c:	07c23823          	sd	x28,112(x4) # 70 <XLEN+0x30>
    41014420:	fe90061b          	addiw	x12,x0,-23
    41014424:	02361613          	slli	x12,x12,0x23
    41014428:	00160613          	addi	x12,x12,1
    4101442c:	00d61613          	slli	x12,x12,0xd

0000000041014430 <fault_label_2>:
    41014430:	00861023          	sh	x8,0(x12)
    41014434:	0004eb37          	lui	x22,0x4e
    41014438:	008b0b1b          	addiw	x22,x22,8 # 4e008 <failed_addr>
    4101443c:	000b3c03          	ld	x24,0(x22)
    41014440:	000c0067          	jr	x24

0000000041014444 <excp_return_label_2>:
    41014444:	64c0d237          	lui	x4,0x64c0d
    41014448:	2dd2021b          	addiw	x4,x4,733 # 64c0d2dd <pma_region_2_end+0x1fbcc2dd>
    4101444c:	00d21213          	slli	x4,x4,0xd
    41014450:	00f00e13          	li	x28,15
    41014454:	05c23823          	sd	x28,80(x4) # 50 <XLEN+0x10>
    41014458:	00000e17          	auipc	x28,0x0
    4101445c:	058e0e13          	addi	x28,x28,88 # 410144b0 <fault_label_3>
    41014460:	03c23023          	sd	x28,32(x4) # 20 <SECURE_ACCESS_PROBABILITY+0x2>
    41014464:	00000e13          	li	x28,0
    41014468:	05c23023          	sd	x28,64(x4) # 40 <XLEN>
    4101446c:	00000e13          	li	x28,0
    41014470:	05c23423          	sd	x28,72(x4) # 48 <XLEN+0x8>
    41014474:	00000e17          	auipc	x28,0x0
    41014478:	050e0e13          	addi	x28,x28,80 # 410144c4 <excp_return_label_3>
    4101447c:	03c23823          	sd	x28,48(x4) # 30 <SECURE_ACCESS_PROBABILITY+0x12>
    41014480:	00000e13          	li	x28,0
    41014484:	03c23c23          	sd	x28,56(x4) # 38 <SECURE_ACCESS_PROBABILITY+0x1a>
    41014488:	00000e13          	li	x28,0
    4101448c:	07c23023          	sd	x28,96(x4) # 60 <XLEN+0x20>
    41014490:	00000e13          	li	x28,0
    41014494:	07c23423          	sd	x28,104(x4) # 68 <XLEN+0x28>
    41014498:	00000e13          	li	x28,0
    4101449c:	07c23823          	sd	x28,112(x4) # 70 <XLEN+0x30>
    410144a0:	00100d9b          	addiw	x27,x0,1
    410144a4:	024d9d93          	slli	x27,x27,0x24
    410144a8:	001d8d93          	addi	x27,x27,1
    410144ac:	00ed9d93          	slli	x27,x27,0xe

00000000410144b0 <fault_label_3>:
    410144b0:	008da023          	sw	x8,0(x27)
    410144b4:	0004e737          	lui	x14,0x4e
    410144b8:	0087071b          	addiw	x14,x14,8 # 4e008 <failed_addr>
    410144bc:	00073b03          	ld	x22,0(x14)
    410144c0:	000b0067          	jr	x22

00000000410144c4 <excp_return_label_3>:
    410144c4:	0004efb7          	lui	x31,0x4e
    410144c8:	0b0f8f9b          	addiw	x31,x31,176 # 4e0b0 <pte_access_flags>
    410144cc:	0910029b          	addiw	x5,x0,145
    410144d0:	02429293          	slli	x5,x5,0x24
    410144d4:	00128293          	addi	x5,x5,1 # 1001 <pma_region_1_size+0x1>
    410144d8:	00c29293          	slli	x5,x5,0xc
    410144dc:	005fb023          	sd	x5,0(x31)
    410144e0:	00400293          	li	x5,4
    410144e4:	005fb423          	sd	x5,8(x31)
    410144e8:	fff00293          	li	x5,-1
    410144ec:	005fb823          	sd	x5,16(x31)
    410144f0:	000f0fb7          	lui	x31,0xf0
    410144f4:	001f8f9b          	addiw	x31,x31,1 # f0001 <mem3__pt_level2+0x3d001>
    410144f8:	00cf9f93          	slli	x31,x31,0xc
    410144fc:	007f8f93          	addi	x31,x31,7
    41014500:	00000073          	ecall
    41014504:	00038713          	mv	x14,x7
    41014508:	00400993          	li	x19,4
    4101450c:	0133e7b3          	or	x15,x7,x19
    41014510:	00078393          	mv	x7,x15
    41014514:	0004efb7          	lui	x31,0x4e
    41014518:	0b0f8f9b          	addiw	x31,x31,176 # 4e0b0 <pte_access_flags>
    4101451c:	0910029b          	addiw	x5,x0,145
    41014520:	02429293          	slli	x5,x5,0x24
    41014524:	00128293          	addi	x5,x5,1
    41014528:	00c29293          	slli	x5,x5,0xc
    4101452c:	005fb023          	sd	x5,0(x31)
    41014530:	00400293          	li	x5,4
    41014534:	005fb423          	sd	x5,8(x31)
    41014538:	fff00293          	li	x5,-1
    4101453c:	005fb823          	sd	x5,16(x31)
    41014540:	000f0fb7          	lui	x31,0xf0
    41014544:	001f8f9b          	addiw	x31,x31,1 # f0001 <mem3__pt_level2+0x3d001>
    41014548:	00cf9f93          	slli	x31,x31,0xc
    4101454c:	008f8f93          	addi	x31,x31,8
    41014550:	00000073          	ecall
    41014554:	0004efb7          	lui	x31,0x4e
    41014558:	0b0f8f9b          	addiw	x31,x31,176 # 4e0b0 <pte_access_flags>
    4101455c:	fe90029b          	addiw	x5,x0,-23
    41014560:	02329293          	slli	x5,x5,0x23
    41014564:	00128293          	addi	x5,x5,1
    41014568:	00d29293          	slli	x5,x5,0xd
    4101456c:	005fb023          	sd	x5,0(x31)
    41014570:	00400293          	li	x5,4
    41014574:	005fb423          	sd	x5,8(x31)
    41014578:	fff00293          	li	x5,-1
    4101457c:	005fb823          	sd	x5,16(x31)
    41014580:	000f0fb7          	lui	x31,0xf0
    41014584:	001f8f9b          	addiw	x31,x31,1 # f0001 <mem3__pt_level2+0x3d001>
    41014588:	00cf9f93          	slli	x31,x31,0xc
    4101458c:	007f8f93          	addi	x31,x31,7
    41014590:	00000073          	ecall
    41014594:	00038c13          	mv	x24,x7
    41014598:	00400813          	li	x16,4
    4101459c:	0103ef33          	or	x30,x7,x16
    410145a0:	000f0393          	mv	x7,x30
    410145a4:	0004efb7          	lui	x31,0x4e
    410145a8:	0b0f8f9b          	addiw	x31,x31,176 # 4e0b0 <pte_access_flags>
    410145ac:	fe90029b          	addiw	x5,x0,-23
    410145b0:	02329293          	slli	x5,x5,0x23
    410145b4:	00128293          	addi	x5,x5,1
    410145b8:	00d29293          	slli	x5,x5,0xd
    410145bc:	005fb023          	sd	x5,0(x31)
    410145c0:	00400293          	li	x5,4
    410145c4:	005fb423          	sd	x5,8(x31)
    410145c8:	fff00293          	li	x5,-1
    410145cc:	005fb823          	sd	x5,16(x31)
    410145d0:	000f0fb7          	lui	x31,0xf0
    410145d4:	001f8f9b          	addiw	x31,x31,1 # f0001 <mem3__pt_level2+0x3d001>
    410145d8:	00cf9f93          	slli	x31,x31,0xc
    410145dc:	008f8f93          	addi	x31,x31,8
    410145e0:	00000073          	ecall
    410145e4:	0004efb7          	lui	x31,0x4e
    410145e8:	0b0f8f9b          	addiw	x31,x31,176 # 4e0b0 <pte_access_flags>
    410145ec:	0010029b          	addiw	x5,x0,1
    410145f0:	02429293          	slli	x5,x5,0x24
    410145f4:	00128293          	addi	x5,x5,1
    410145f8:	00e29293          	slli	x5,x5,0xe
    410145fc:	005fb023          	sd	x5,0(x31)
    41014600:	00400293          	li	x5,4
    41014604:	005fb423          	sd	x5,8(x31)
    41014608:	fff00293          	li	x5,-1
    4101460c:	005fb823          	sd	x5,16(x31)
    41014610:	000f0fb7          	lui	x31,0xf0
    41014614:	001f8f9b          	addiw	x31,x31,1 # f0001 <mem3__pt_level2+0x3d001>
    41014618:	00cf9f93          	slli	x31,x31,0xc
    4101461c:	007f8f93          	addi	x31,x31,7
    41014620:	00000073          	ecall
    41014624:	00038613          	mv	x12,x7
    41014628:	00400f93          	li	x31,4
    4101462c:	01f3edb3          	or	x27,x7,x31
    41014630:	000d8393          	mv	x7,x27
    41014634:	0004efb7          	lui	x31,0x4e
    41014638:	0b0f8f9b          	addiw	x31,x31,176 # 4e0b0 <pte_access_flags>
    4101463c:	0010029b          	addiw	x5,x0,1
    41014640:	02429293          	slli	x5,x5,0x24
    41014644:	00128293          	addi	x5,x5,1
    41014648:	00e29293          	slli	x5,x5,0xe
    4101464c:	005fb023          	sd	x5,0(x31)
    41014650:	00400293          	li	x5,4
    41014654:	005fb423          	sd	x5,8(x31)
    41014658:	fff00293          	li	x5,-1
    4101465c:	005fb823          	sd	x5,16(x31)
    41014660:	000f0fb7          	lui	x31,0xf0
    41014664:	001f8f9b          	addiw	x31,x31,1 # f0001 <mem3__pt_level2+0x3d001>
    41014668:	00cf9f93          	slli	x31,x31,0xc
    4101466c:	008f8f93          	addi	x31,x31,8
    41014670:	00000073          	ecall
    41014674:	18000073          	sfence.w.inval
    41014678:	09100a1b          	addiw	x20,x0,145
    4101467c:	024a1a13          	slli	x20,x20,0x24
    41014680:	001a0a13          	addi	x20,x20,1
    41014684:	00ca1a13          	slli	x20,x20,0xc
    41014688:	160a0073          	sinval.vma	x20,x0
    4101468c:	fe900a9b          	addiw	x21,x0,-23
    41014690:	023a9a93          	slli	x21,x21,0x23
    41014694:	001a8a93          	addi	x21,x21,1
    41014698:	00da9a93          	slli	x21,x21,0xd
    4101469c:	160a8073          	sinval.vma	x21,x0
    410146a0:	0010079b          	addiw	x15,x0,1
    410146a4:	02479793          	slli	x15,x15,0x24
    410146a8:	00178793          	addi	x15,x15,1
    410146ac:	00e79793          	slli	x15,x15,0xe
    410146b0:	16078073          	sinval.vma	x15,x0
    410146b4:	18100073          	sfence.inval.ir
    410146b8:	09100a9b          	addiw	x21,x0,145
    410146bc:	024a9a93          	slli	x21,x21,0x24
    410146c0:	001a8a93          	addi	x21,x21,1
    410146c4:	00ca9a93          	slli	x21,x21,0xc
    410146c8:	008a9023          	sh	x8,0(x21)
    410146cc:	fe900f9b          	addiw	x31,x0,-23
    410146d0:	023f9f93          	slli	x31,x31,0x23
    410146d4:	001f8f93          	addi	x31,x31,1
    410146d8:	00df9f93          	slli	x31,x31,0xd
    410146dc:	008fa023          	sw	x8,0(x31)
    410146e0:	00100d1b          	addiw	x26,x0,1
    410146e4:	024d1d13          	slli	x26,x26,0x24
    410146e8:	001d0d13          	addi	x26,x26,1
    410146ec:	00ed1d13          	slli	x26,x26,0xe
    410146f0:	008d2023          	sw	x8,0(x26)
    410146f4:	0004efb7          	lui	x31,0x4e
    410146f8:	0b0f8f9b          	addiw	x31,x31,176 # 4e0b0 <pte_access_flags>
    410146fc:	0910029b          	addiw	x5,x0,145
    41014700:	02429293          	slli	x5,x5,0x24
    41014704:	00128293          	addi	x5,x5,1
    41014708:	00c29293          	slli	x5,x5,0xc
    4101470c:	005fb023          	sd	x5,0(x31)
    41014710:	00400293          	li	x5,4
    41014714:	005fb423          	sd	x5,8(x31)
    41014718:	fff00293          	li	x5,-1
    4101471c:	005fb823          	sd	x5,16(x31)
    41014720:	000f0fb7          	lui	x31,0xf0
    41014724:	001f8f9b          	addiw	x31,x31,1 # f0001 <mem3__pt_level2+0x3d001>
    41014728:	00cf9f93          	slli	x31,x31,0xc
    4101472c:	007f8f93          	addi	x31,x31,7
    41014730:	00000073          	ecall
    41014734:	00038413          	mv	x8,x7
    41014738:	0004efb7          	lui	x31,0x4e
    4101473c:	0b0f8f9b          	addiw	x31,x31,176 # 4e0b0 <pte_access_flags>
    41014740:	fe90029b          	addiw	x5,x0,-23
    41014744:	02329293          	slli	x5,x5,0x23
    41014748:	00128293          	addi	x5,x5,1
    4101474c:	00d29293          	slli	x5,x5,0xd
    41014750:	005fb023          	sd	x5,0(x31)
    41014754:	00400293          	li	x5,4
    41014758:	005fb423          	sd	x5,8(x31)
    4101475c:	fff00293          	li	x5,-1
    41014760:	005fb823          	sd	x5,16(x31)
    41014764:	000f0fb7          	lui	x31,0xf0
    41014768:	001f8f9b          	addiw	x31,x31,1 # f0001 <mem3__pt_level2+0x3d001>
    4101476c:	00cf9f93          	slli	x31,x31,0xc
    41014770:	007f8f93          	addi	x31,x31,7
    41014774:	00000073          	ecall
    41014778:	00038b13          	mv	x22,x7
    4101477c:	0004efb7          	lui	x31,0x4e
    41014780:	0b0f8f9b          	addiw	x31,x31,176 # 4e0b0 <pte_access_flags>
    41014784:	0010029b          	addiw	x5,x0,1
    41014788:	02429293          	slli	x5,x5,0x24
    4101478c:	00128293          	addi	x5,x5,1
    41014790:	00e29293          	slli	x5,x5,0xe
    41014794:	005fb023          	sd	x5,0(x31)
    41014798:	00400293          	li	x5,4
    4101479c:	005fb423          	sd	x5,8(x31)
    410147a0:	fff00293          	li	x5,-1
    410147a4:	005fb823          	sd	x5,16(x31)
    410147a8:	000f0fb7          	lui	x31,0xf0
    410147ac:	001f8f9b          	addiw	x31,x31,1 # f0001 <mem3__pt_level2+0x3d001>
    410147b0:	00cf9f93          	slli	x31,x31,0xc
    410147b4:	007f8f93          	addi	x31,x31,7
    410147b8:	00000073          	ecall
    410147bc:	00038a13          	mv	x20,x7
    410147c0:	00871a63          	bne	x14,x8,410147d4 <pass_label_2>
    410147c4:	0004eab7          	lui	x21,0x4e
    410147c8:	008a8a9b          	addiw	x21,x21,8 # 4e008 <failed_addr>
    410147cc:	000abf83          	ld	x31,0(x21)
    410147d0:	000f8067          	jr	x31

00000000410147d4 <pass_label_2>:
    410147d4:	016c1a63          	bne	x24,x22,410147e8 <pass_label_3>
    410147d8:	0004e9b7          	lui	x19,0x4e
    410147dc:	0089899b          	addiw	x19,x19,8 # 4e008 <failed_addr>
    410147e0:	0009bc03          	ld	x24,0(x19)
    410147e4:	000c0067          	jr	x24

00000000410147e8 <pass_label_3>:
    410147e8:	01461a63          	bne	x12,x20,410147fc <SID_SVINVAL_04_invalidation_sequence_2_multiple_vas_passed>
    410147ec:	0004e7b7          	lui	x15,0x4e
    410147f0:	0087879b          	addiw	x15,x15,8 # 4e008 <failed_addr>
    410147f4:	0007bd03          	ld	x26,0(x15)
    410147f8:	000d0067          	jr	x26

00000000410147fc <SID_SVINVAL_04_invalidation_sequence_2_multiple_vas_passed>:
    410147fc:	00f00f9b          	addiw	x31,x0,15
    41014800:	01cf9f93          	slli	x31,x31,0x1c
    41014804:	001f8f93          	addi	x31,x31,1
    41014808:	00000073          	ecall

000000004101480c <SID_SVINVAL_05_non_consecutive_invalidation>:
    4101480c:	023fa137          	lui	x2,0x23fa
    41014810:	5191011b          	addiw	x2,x2,1305 # 23fa519 <SID_SVINVAL_13_sinval_vma_opcode_nonx0_x0_stack+0x114a519>
    41014814:	00c11113          	slli	x2,x2,0xc
    41014818:	000012b7          	lui	x5,0x1
    4101481c:	00510133          	add	x2,x2,x5
    41014820:	ff017113          	andi	x2,x2,-16
    41014824:	0630079b          	addiw	x15,x0,99
    41014828:	03179793          	slli	x15,x15,0x31
    4101482c:	0007af03          	lw	x30,0(x15)
    41014830:	0000e737          	lui	x14,0xe
    41014834:	ead7071b          	addiw	x14,x14,-339 # dead <mem4__pt_level0+0x1e8d>
    41014838:	64c0d237          	lui	x4,0x64c0d
    4101483c:	2dd2021b          	addiw	x4,x4,733 # 64c0d2dd <pma_region_2_end+0x1fbcc2dd>
    41014840:	00d21213          	slli	x4,x4,0xd
    41014844:	00f00e13          	li	x28,15
    41014848:	05c23823          	sd	x28,80(x4) # 50 <XLEN+0x10>
    4101484c:	00000e17          	auipc	x28,0x0
    41014850:	054e0e13          	addi	x28,x28,84 # 410148a0 <fault_label_4>
    41014854:	03c23023          	sd	x28,32(x4) # 20 <SECURE_ACCESS_PROBABILITY+0x2>
    41014858:	00000e13          	li	x28,0
    4101485c:	05c23023          	sd	x28,64(x4) # 40 <XLEN>
    41014860:	00000e13          	li	x28,0
    41014864:	05c23423          	sd	x28,72(x4) # 48 <XLEN+0x8>
    41014868:	00000e17          	auipc	x28,0x0
    4101486c:	04ce0e13          	addi	x28,x28,76 # 410148b4 <excp_return_label_4>
    41014870:	03c23823          	sd	x28,48(x4) # 30 <SECURE_ACCESS_PROBABILITY+0x12>
    41014874:	00000e13          	li	x28,0
    41014878:	03c23c23          	sd	x28,56(x4) # 38 <SECURE_ACCESS_PROBABILITY+0x1a>
    4101487c:	00000e13          	li	x28,0
    41014880:	07c23023          	sd	x28,96(x4) # 60 <XLEN+0x20>
    41014884:	00000e13          	li	x28,0
    41014888:	07c23423          	sd	x28,104(x4) # 68 <XLEN+0x28>
    4101488c:	00000e13          	li	x28,0
    41014890:	07c23823          	sd	x28,112(x4) # 70 <XLEN+0x30>
    41014894:	06300b9b          	addiw	x23,x0,99
    41014898:	031b9b93          	slli	x23,x23,0x31
    4101489c:	d20708d3          	fcvt.d.w	f17,x14

00000000410148a0 <fault_label_4>:
    410148a0:	011bb027          	fsd	f17,0(x23)
    410148a4:	0004e9b7          	lui	x19,0x4e
    410148a8:	0089899b          	addiw	x19,x19,8 # 4e008 <failed_addr>
    410148ac:	0009b783          	ld	x15,0(x19)
    410148b0:	00078067          	jr	x15

00000000410148b4 <excp_return_label_4>:
    410148b4:	0004efb7          	lui	x31,0x4e
    410148b8:	0b0f8f9b          	addiw	x31,x31,176 # 4e0b0 <pte_access_flags>
    410148bc:	0630029b          	addiw	x5,x0,99
    410148c0:	03129293          	slli	x5,x5,0x31
    410148c4:	005fb023          	sd	x5,0(x31)
    410148c8:	00400293          	li	x5,4
    410148cc:	005fb423          	sd	x5,8(x31)
    410148d0:	fff00293          	li	x5,-1
    410148d4:	005fb823          	sd	x5,16(x31)
    410148d8:	000f0fb7          	lui	x31,0xf0
    410148dc:	001f8f9b          	addiw	x31,x31,1 # f0001 <mem3__pt_level2+0x3d001>
    410148e0:	00cf9f93          	slli	x31,x31,0xc
    410148e4:	007f8f93          	addi	x31,x31,7
    410148e8:	00000073          	ecall
    410148ec:	00038513          	mv	x10,x7
    410148f0:	00400a93          	li	x21,4
    410148f4:	0153eab3          	or	x21,x7,x21
    410148f8:	000a8393          	mv	x7,x21
    410148fc:	0004efb7          	lui	x31,0x4e
    41014900:	0b0f8f9b          	addiw	x31,x31,176 # 4e0b0 <pte_access_flags>
    41014904:	0630029b          	addiw	x5,x0,99
    41014908:	03129293          	slli	x5,x5,0x31
    4101490c:	005fb023          	sd	x5,0(x31)
    41014910:	00400293          	li	x5,4
    41014914:	005fb423          	sd	x5,8(x31)
    41014918:	fff00293          	li	x5,-1
    4101491c:	005fb823          	sd	x5,16(x31)
    41014920:	000f0fb7          	lui	x31,0xf0
    41014924:	001f8f9b          	addiw	x31,x31,1 # f0001 <mem3__pt_level2+0x3d001>
    41014928:	00cf9f93          	slli	x31,x31,0xc
    4101492c:	008f8f93          	addi	x31,x31,8
    41014930:	00000073          	ecall
    41014934:	18000073          	sfence.w.inval
    41014938:	000a9337          	lui	x6,0xa9
    4101493c:	acb3031b          	addiw	x6,x6,-1333 # a8acb <mem1__pt_level4+0x1e5fb>
    41014940:	00c31313          	slli	x6,x6,0xc
    41014944:	51630313          	addi	x6,x6,1302
    41014948:	38c8a8b7          	lui	x17,0x38c8a
    4101494c:	b3b8889b          	addiw	x17,x17,-1221 # 38c89b3b <mem5__pt_level1+0x217c0b3b>
    41014950:	d0237cd3          	fcvt.s.l	f25,x6
    41014954:	d018f253          	fcvt.s.wu	f4,x17
    41014958:	104cf153          	fmul.s	f2,f25,f4
    4101495c:	0630099b          	addiw	x19,x0,99
    41014960:	03199993          	slli	x19,x19,0x31
    41014964:	16098073          	sinval.vma	x19,x0
    41014968:	000f13b7          	lui	x7,0xf1
    4101496c:	caf3839b          	addiw	x7,x7,-849 # f0caf <mem3__pt_level2+0x3dcaf>
    41014970:	00c39393          	slli	x7,x7,0xc
    41014974:	ef338393          	addi	x7,x7,-269
    41014978:	531d64b7          	lui	x9,0x531d6
    4101497c:	4634849b          	addiw	x9,x9,1123 # 531d6463 <pma_region_2_end+0xe195463>
    41014980:	00068c37          	lui	x24,0x68
    41014984:	479c0c1b          	addiw	x24,x24,1145 # 68479 <mem7__pt_level1+0x12479>
    41014988:	00dc1c13          	slli	x24,x24,0xd
    4101498c:	bb5c0c13          	addi	x24,x24,-1099
    41014990:	d023fb53          	fcvt.s.l	f22,x7
    41014994:	d024f553          	fcvt.s.l	f10,x9
    41014998:	d00c7e53          	fcvt.s.w	f28,x24
    4101499c:	e2ab7b4b          	fnmsub.d	f22,f22,f10,f28
    410149a0:	18100073          	sfence.inval.ir
    410149a4:	0630069b          	addiw	x13,x0,99
    410149a8:	03169693          	slli	x13,x13,0x31
    410149ac:	00e6a023          	sw	x14,0(x13)
    410149b0:	0004efb7          	lui	x31,0x4e
    410149b4:	0b0f8f9b          	addiw	x31,x31,176 # 4e0b0 <pte_access_flags>
    410149b8:	0630029b          	addiw	x5,x0,99
    410149bc:	03129293          	slli	x5,x5,0x31
    410149c0:	005fb023          	sd	x5,0(x31)
    410149c4:	00400293          	li	x5,4
    410149c8:	005fb423          	sd	x5,8(x31)
    410149cc:	fff00293          	li	x5,-1
    410149d0:	005fb823          	sd	x5,16(x31)
    410149d4:	000f0fb7          	lui	x31,0xf0
    410149d8:	001f8f9b          	addiw	x31,x31,1 # f0001 <mem3__pt_level2+0x3d001>
    410149dc:	00cf9f93          	slli	x31,x31,0xc
    410149e0:	007f8f93          	addi	x31,x31,7
    410149e4:	00000073          	ecall
    410149e8:	00038393          	mv	x7,x7
    410149ec:	00751a63          	bne	x10,x7,41014a00 <SID_SVINVAL_05_non_consecutive_invalidation_passed>
    410149f0:	0004eab7          	lui	x21,0x4e
    410149f4:	008a8a9b          	addiw	x21,x21,8 # 4e008 <failed_addr>
    410149f8:	000ab903          	ld	x18,0(x21)
    410149fc:	00090067          	jr	x18

0000000041014a00 <SID_SVINVAL_05_non_consecutive_invalidation_passed>:
    41014a00:	00f00f9b          	addiw	x31,x0,15
    41014a04:	01cf9f93          	slli	x31,x31,0x1c
    41014a08:	001f8f93          	addi	x31,x31,1
    41014a0c:	00000073          	ecall

0000000041014a10 <SID_SVINVAL_07_fault_in_smode_with_tvm>:
    41014a10:	12934137          	lui	x2,0x12934
    41014a14:	0004efb7          	lui	x31,0x4e
    41014a18:	0a0f8f9b          	addiw	x31,x31,160 # 4e0a0 <machine_csr_jump_table_flags>
    41014a1c:	00100f13          	li	x30,1
    41014a20:	01efb023          	sd	x30,0(x31)
    41014a24:	000f0fb7          	lui	x31,0xf0
    41014a28:	001f8f9b          	addiw	x31,x31,1 # f0001 <mem3__pt_level2+0x3d001>
    41014a2c:	00cf9f93          	slli	x31,x31,0xc
    41014a30:	005f8f93          	addi	x31,x31,5
    41014a34:	00000073          	ecall
    41014a38:	00713023          	sd	x7,0(x2) # 12934000 <tp_csr_storage>
    41014a3c:	40044137          	lui	x2,0x40044
    41014a40:	000012b7          	lui	x5,0x1
    41014a44:	00510133          	add	x2,x2,x5
    41014a48:	ff017113          	andi	x2,x2,-16
    41014a4c:	001003b7          	lui	x7,0x100
    41014a50:	0004efb7          	lui	x31,0x4e
    41014a54:	0a0f8f9b          	addiw	x31,x31,160 # 4e0a0 <machine_csr_jump_table_flags>
    41014a58:	00200f13          	li	x30,2
    41014a5c:	01efb023          	sd	x30,0(x31)
    41014a60:	000f0fb7          	lui	x31,0xf0
    41014a64:	001f8f9b          	addiw	x31,x31,1 # f0001 <mem3__pt_level2+0x3d001>
    41014a68:	00cf9f93          	slli	x31,x31,0xc
    41014a6c:	005f8f93          	addi	x31,x31,5
    41014a70:	00000073          	ecall
    41014a74:	0010081b          	addiw	x16,x0,1
    41014a78:	03181813          	slli	x16,x16,0x31
    41014a7c:	64c0d237          	lui	x4,0x64c0d
    41014a80:	2dd2021b          	addiw	x4,x4,733 # 64c0d2dd <pma_region_2_end+0x1fbcc2dd>
    41014a84:	00d21213          	slli	x4,x4,0xd
    41014a88:	00200e13          	li	x28,2
    41014a8c:	05c23823          	sd	x28,80(x4) # 50 <XLEN+0x10>
    41014a90:	00000e17          	auipc	x28,0x0
    41014a94:	048e0e13          	addi	x28,x28,72 # 41014ad8 <fault_label_5>
    41014a98:	03c23023          	sd	x28,32(x4) # 20 <SECURE_ACCESS_PROBABILITY+0x2>
    41014a9c:	00000e13          	li	x28,0
    41014aa0:	05c23023          	sd	x28,64(x4) # 40 <XLEN>
    41014aa4:	00000e13          	li	x28,0
    41014aa8:	05c23423          	sd	x28,72(x4) # 48 <XLEN+0x8>
    41014aac:	00000e17          	auipc	x28,0x0
    41014ab0:	040e0e13          	addi	x28,x28,64 # 41014aec <excp_return_label_5>
    41014ab4:	03c23823          	sd	x28,48(x4) # 30 <SECURE_ACCESS_PROBABILITY+0x12>
    41014ab8:	00000e13          	li	x28,0
    41014abc:	03c23c23          	sd	x28,56(x4) # 38 <SECURE_ACCESS_PROBABILITY+0x1a>
    41014ac0:	00000e13          	li	x28,0
    41014ac4:	07c23023          	sd	x28,96(x4) # 60 <XLEN+0x20>
    41014ac8:	00000e13          	li	x28,0
    41014acc:	07c23423          	sd	x28,104(x4) # 68 <XLEN+0x28>
    41014ad0:	00000e13          	li	x28,0
    41014ad4:	07c23823          	sd	x28,112(x4) # 70 <XLEN+0x30>

0000000041014ad8 <fault_label_5>:
    41014ad8:	16080073          	sinval.vma	x16,x0
    41014adc:	0004e737          	lui	x14,0x4e
    41014ae0:	0087071b          	addiw	x14,x14,8 # 4e008 <failed_addr>
    41014ae4:	00073683          	ld	x13,0(x14)
    41014ae8:	00068067          	jr	x13

0000000041014aec <excp_return_label_5>:
    41014aec:	12934137          	lui	x2,0x12934
    41014af0:	00013383          	ld	x7,0(x2) # 12934000 <tp_csr_storage>
    41014af4:	0004efb7          	lui	x31,0x4e
    41014af8:	0a0f8f9b          	addiw	x31,x31,160 # 4e0a0 <machine_csr_jump_table_flags>
    41014afc:	00300f13          	li	x30,3
    41014b00:	01efb023          	sd	x30,0(x31)
    41014b04:	000f0fb7          	lui	x31,0xf0
    41014b08:	001f8f9b          	addiw	x31,x31,1 # f0001 <mem3__pt_level2+0x3d001>
    41014b0c:	00cf9f93          	slli	x31,x31,0xc
    41014b10:	005f8f93          	addi	x31,x31,5
    41014b14:	00000073          	ecall

0000000041014b18 <SID_SVINVAL_07_fault_in_smode_with_tvm_passed>:
    41014b18:	00f00f9b          	addiw	x31,x0,15
    41014b1c:	01cf9f93          	slli	x31,x31,0x1c
    41014b20:	001f8f93          	addi	x31,x31,1
    41014b24:	00000073          	ecall

0000000041014b28 <SID_SVINVAL_09_tvm_sfence_sinval_sfence_flow>:
    41014b28:	12934137          	lui	x2,0x12934
    41014b2c:	0004efb7          	lui	x31,0x4e
    41014b30:	0a0f8f9b          	addiw	x31,x31,160 # 4e0a0 <machine_csr_jump_table_flags>
    41014b34:	00100f13          	li	x30,1
    41014b38:	01efb023          	sd	x30,0(x31)
    41014b3c:	000f0fb7          	lui	x31,0xf0
    41014b40:	001f8f9b          	addiw	x31,x31,1 # f0001 <mem3__pt_level2+0x3d001>
    41014b44:	00cf9f93          	slli	x31,x31,0xc
    41014b48:	005f8f93          	addi	x31,x31,5
    41014b4c:	00000073          	ecall
    41014b50:	00713023          	sd	x7,0(x2) # 12934000 <tp_csr_storage>
    41014b54:	36043137          	lui	x2,0x36043
    41014b58:	d611011b          	addiw	x2,x2,-671 # 36042d61 <mem5__pt_level1+0x1eb79d61>
    41014b5c:	00d11113          	slli	x2,x2,0xd
    41014b60:	000012b7          	lui	x5,0x1
    41014b64:	00510133          	add	x2,x2,x5
    41014b68:	ff017113          	andi	x2,x2,-16
    41014b6c:	001003b7          	lui	x7,0x100
    41014b70:	0004efb7          	lui	x31,0x4e
    41014b74:	0a0f8f9b          	addiw	x31,x31,160 # 4e0a0 <machine_csr_jump_table_flags>
    41014b78:	00200f13          	li	x30,2
    41014b7c:	01efb023          	sd	x30,0(x31)
    41014b80:	000f0fb7          	lui	x31,0xf0
    41014b84:	001f8f9b          	addiw	x31,x31,1 # f0001 <mem3__pt_level2+0x3d001>
    41014b88:	00cf9f93          	slli	x31,x31,0xc
    41014b8c:	005f8f93          	addi	x31,x31,5
    41014b90:	00000073          	ecall
    41014b94:	18000073          	sfence.w.inval
    41014b98:	0030049b          	addiw	x9,x0,3
    41014b9c:	03249493          	slli	x9,x9,0x32
    41014ba0:	64c0d237          	lui	x4,0x64c0d
    41014ba4:	2dd2021b          	addiw	x4,x4,733 # 64c0d2dd <pma_region_2_end+0x1fbcc2dd>
    41014ba8:	00d21213          	slli	x4,x4,0xd
    41014bac:	00200e13          	li	x28,2
    41014bb0:	05c23823          	sd	x28,80(x4) # 50 <XLEN+0x10>
    41014bb4:	00000e17          	auipc	x28,0x0
    41014bb8:	048e0e13          	addi	x28,x28,72 # 41014bfc <fault_label_6>
    41014bbc:	03c23023          	sd	x28,32(x4) # 20 <SECURE_ACCESS_PROBABILITY+0x2>
    41014bc0:	00000e13          	li	x28,0
    41014bc4:	05c23023          	sd	x28,64(x4) # 40 <XLEN>
    41014bc8:	00000e13          	li	x28,0
    41014bcc:	05c23423          	sd	x28,72(x4) # 48 <XLEN+0x8>
    41014bd0:	00000e17          	auipc	x28,0x0
    41014bd4:	040e0e13          	addi	x28,x28,64 # 41014c10 <excp_return_label_6>
    41014bd8:	03c23823          	sd	x28,48(x4) # 30 <SECURE_ACCESS_PROBABILITY+0x12>
    41014bdc:	00000e13          	li	x28,0
    41014be0:	03c23c23          	sd	x28,56(x4) # 38 <SECURE_ACCESS_PROBABILITY+0x1a>
    41014be4:	00000e13          	li	x28,0
    41014be8:	07c23023          	sd	x28,96(x4) # 60 <XLEN+0x20>
    41014bec:	00000e13          	li	x28,0
    41014bf0:	07c23423          	sd	x28,104(x4) # 68 <XLEN+0x28>
    41014bf4:	00000e13          	li	x28,0
    41014bf8:	07c23823          	sd	x28,112(x4) # 70 <XLEN+0x30>

0000000041014bfc <fault_label_6>:
    41014bfc:	16048073          	sinval.vma	x9,x0
    41014c00:	0004eab7          	lui	x21,0x4e
    41014c04:	008a8a9b          	addiw	x21,x21,8 # 4e008 <failed_addr>
    41014c08:	000abf83          	ld	x31,0(x21)
    41014c0c:	000f8067          	jr	x31

0000000041014c10 <excp_return_label_6>:
    41014c10:	18100073          	sfence.inval.ir
    41014c14:	12934137          	lui	x2,0x12934
    41014c18:	00013383          	ld	x7,0(x2) # 12934000 <tp_csr_storage>
    41014c1c:	0004efb7          	lui	x31,0x4e
    41014c20:	0a0f8f9b          	addiw	x31,x31,160 # 4e0a0 <machine_csr_jump_table_flags>
    41014c24:	00300f13          	li	x30,3
    41014c28:	01efb023          	sd	x30,0(x31)
    41014c2c:	000f0fb7          	lui	x31,0xf0
    41014c30:	001f8f9b          	addiw	x31,x31,1 # f0001 <mem3__pt_level2+0x3d001>
    41014c34:	00cf9f93          	slli	x31,x31,0xc
    41014c38:	005f8f93          	addi	x31,x31,5
    41014c3c:	00000073          	ecall

0000000041014c40 <SID_SVINVAL_09_tvm_sfence_sinval_sfence_flow_passed>:
    41014c40:	00f00f9b          	addiw	x31,x0,15
    41014c44:	01cf9f93          	slli	x31,x31,0x1c
    41014c48:	001f8f93          	addi	x31,x31,1
    41014c4c:	00000073          	ecall

0000000041014c50 <SID_SVINVAL_12_sinval_vma_opcode_x0_nonx0>:
    41014c50:	03f7e137          	lui	x2,0x3f7e
    41014c54:	000012b7          	lui	x5,0x1
    41014c58:	00510133          	add	x2,x2,x5
    41014c5c:	ff017113          	andi	x2,x2,-16
    41014c60:	00100f13          	li	x30,1
    41014c64:	18000073          	sfence.w.inval
    41014c68:	17e00073          	sinval.vma	x0,x30
    41014c6c:	18100073          	sfence.inval.ir

0000000041014c70 <SID_SVINVAL_12_sinval_vma_opcode_x0_nonx0_passed>:
    41014c70:	00f00f9b          	addiw	x31,x0,15
    41014c74:	01cf9f93          	slli	x31,x31,0x1c
    41014c78:	001f8f93          	addi	x31,x31,1
    41014c7c:	00000073          	ecall

0000000041014c80 <SID_SVINVAL_13_sinval_vma_opcode_nonx0_x0>:
    41014c80:	012b0137          	lui	x2,0x12b0
    41014c84:	000012b7          	lui	x5,0x1
    41014c88:	00510133          	add	x2,x2,x5
    41014c8c:	ff017113          	andi	x2,x2,-16
    41014c90:	18000073          	sfence.w.inval
    41014c94:	000d43b7          	lui	x7,0xd4
    41014c98:	7433839b          	addiw	x7,x7,1859 # d4743 <mem3__pt_level2+0x21743>
    41014c9c:	00c39393          	slli	x7,x7,0xc
    41014ca0:	2d738393          	addi	x7,x7,727
    41014ca4:	00c39393          	slli	x7,x7,0xc
    41014ca8:	16038073          	sinval.vma	x7,x0
    41014cac:	18100073          	sfence.inval.ir

0000000041014cb0 <SID_SVINVAL_13_sinval_vma_opcode_nonx0_x0_passed>:
    41014cb0:	00f00f9b          	addiw	x31,x0,15
    41014cb4:	01cf9f93          	slli	x31,x31,0x1c
    41014cb8:	001f8f93          	addi	x31,x31,1
    41014cbc:	00000073          	ecall

0000000041014cc0 <SID_SVINVAL_14_sinval_vma_opcode_nonx0_nonx0>:
    41014cc0:	004de137          	lui	x2,0x4de
    41014cc4:	5471011b          	addiw	x2,x2,1351 # 4de547 <mem6__pt_level3+0xec547>
    41014cc8:	00c11113          	slli	x2,x2,0xc
    41014ccc:	cf110113          	addi	x2,x2,-783
    41014cd0:	00c11113          	slli	x2,x2,0xc
    41014cd4:	000012b7          	lui	x5,0x1
    41014cd8:	00510133          	add	x2,x2,x5
    41014cdc:	ff017113          	andi	x2,x2,-16
    41014ce0:	00100393          	li	x7,1
    41014ce4:	18000073          	sfence.w.inval
    41014ce8:	02aa0937          	lui	x18,0x2aa0
    41014cec:	ab99091b          	addiw	x18,x18,-1351 # 2a9fab9 <SID_SVINVAL_13_sinval_vma_opcode_nonx0_x0_stack+0x17efab9>
    41014cf0:	00f91913          	slli	x18,x18,0xf
    41014cf4:	16790073          	sinval.vma	x18,x7
    41014cf8:	18100073          	sfence.inval.ir

0000000041014cfc <SID_SVINVAL_14_sinval_vma_opcode_nonx0_nonx0_passed>:
    41014cfc:	00f00f9b          	addiw	x31,x0,15
    41014d00:	01cf9f93          	slli	x31,x31,0x1c
    41014d04:	001f8f93          	addi	x31,x31,1
    41014d08:	00000073          	ecall

0000000041014d0c <SID_SVINVAL_15_sinval_vma_opcode_x0_x0>:
    41014d0c:	005bd137          	lui	x2,0x5bd
    41014d10:	4b31011b          	addiw	x2,x2,1203 # 5bd4b3 <mem6__pt_level3+0x1cb4b3>
    41014d14:	00c11113          	slli	x2,x2,0xc
    41014d18:	000012b7          	lui	x5,0x1
    41014d1c:	00510133          	add	x2,x2,x5
    41014d20:	ff017113          	andi	x2,x2,-16
    41014d24:	18000073          	sfence.w.inval
    41014d28:	16000073          	sinval.vma	x0,x0
    41014d2c:	18100073          	sfence.inval.ir

0000000041014d30 <SID_SVINVAL_15_sinval_vma_opcode_x0_x0_passed>:
    41014d30:	00f00f9b          	addiw	x31,x0,15
    41014d34:	01cf9f93          	slli	x31,x31,0x1c
    41014d38:	001f8f93          	addi	x31,x31,1
    41014d3c:	00000073          	ecall

0000000041014d40 <test_cleanup>:
    41014d40:	00f00f9b          	addiw	x31,x0,15
    41014d44:	01cf9f93          	slli	x31,x31,0x1c
    41014d48:	001f8f93          	addi	x31,x31,1
    41014d4c:	00000073          	ecall

0000000041014d50 <local_test_failed>:
    41014d50:	00f00f9b          	addiw	x31,x0,15
    41014d54:	01cf9f93          	slli	x31,x31,0x1c
    41014d58:	002f8f93          	addi	x31,x31,2
    41014d5c:	00000073          	ecall

Disassembly of section .csr_machine_0:

0000000041214000 <csr_access_mstatus_machine_key_3_write-0x40>:
    41214000:	435d0fb7          	lui	x31,0x435d0
    41214004:	0a0f8f9b          	addiw	x31,x31,160 # 435d00a0 <machine_csr_jump_table_flags_pa>
    41214008:	000fbf83          	ld	x31,0(x31)
    4121400c:	00300293          	li	x5,3
    41214010:	025f8863          	beq	x31,x5,41214040 <csr_access_mstatus_machine_key_3_write>
    41214014:	00100293          	li	x5,1
    41214018:	025f8863          	beq	x31,x5,41214048 <csr_access_mstatus_machine_key_1_read>
    4121401c:	00200293          	li	x5,2
    41214020:	025f8863          	beq	x31,x5,41214050 <csr_access_mstatus_machine_key_2_set>
    41214024:	00400293          	li	x5,4
    41214028:	025f8863          	beq	x31,x5,41214058 <csr_access_mstatus_machine_key_4_clear>
    4121402c:	00600293          	li	x5,6
    41214030:	025f8863          	beq	x31,x5,41214060 <csr_access_mtvec_machine_key_6_set>
    41214034:	00500293          	li	x5,5
    41214038:	025f8863          	beq	x31,x5,41214068 <csr_access_mtvec_machine_key_5_clear>
    4121403c:	0340006f          	j	41214070 <end_machine_label>

0000000041214040 <csr_access_mstatus_machine_key_3_write>:
    41214040:	30039073          	csrw	mstatus,x7
    41214044:	02c0006f          	j	41214070 <end_machine_label>

0000000041214048 <csr_access_mstatus_machine_key_1_read>:
    41214048:	300023f3          	csrr	x7,mstatus
    4121404c:	0240006f          	j	41214070 <end_machine_label>

0000000041214050 <csr_access_mstatus_machine_key_2_set>:
    41214050:	3003a073          	csrs	mstatus,x7
    41214054:	01c0006f          	j	41214070 <end_machine_label>

0000000041214058 <csr_access_mstatus_machine_key_4_clear>:
    41214058:	3003b073          	csrc	mstatus,x7
    4121405c:	0140006f          	j	41214070 <end_machine_label>

0000000041214060 <csr_access_mtvec_machine_key_6_set>:
    41214060:	3053a073          	csrs	mtvec,x7
    41214064:	00c0006f          	j	41214070 <end_machine_label>

0000000041214068 <csr_access_mtvec_machine_key_5_clear>:
    41214068:	3053b073          	csrc	mtvec,x7
    4121406c:	0040006f          	j	41214070 <end_machine_label>

0000000041214070 <end_machine_label>:
    41214070:	000f0fb7          	lui	x31,0xf0
    41214074:	001f8f9b          	addiw	x31,x31,1 # f0001 <mem3__pt_level2+0x3d001>
    41214078:	00cf9f93          	slli	x31,x31,0xc
    4121407c:	004f8f93          	addi	x31,x31,4
    41214080:	00000073          	ecall

Disassembly of section .csr_super_0:

0000000041215000 <end_super_label-0x10>:
    41215000:	0004efb7          	lui	x31,0x4e
    41215004:	0a8f8f9b          	addiw	x31,x31,168 # 4e0a8 <super_csr_jump_table_flags>
    41215008:	000fbf83          	ld	x31,0(x31)
    4121500c:	0040006f          	j	41215010 <end_super_label>

0000000041215010 <end_super_label>:
    41215010:	000f0fb7          	lui	x31,0xf0
    41215014:	001f8f9b          	addiw	x31,x31,1 # f0001 <mem3__pt_level2+0x3d001>
    41215018:	00cf9f93          	slli	x31,x31,0xc
    4121501c:	004f8f93          	addi	x31,x31,4
    41215020:	00000073          	ecall

Disassembly of section .os_data:

000000000004e000 <passed_addr_ptr>:
   4e000:	40b0                	.insn	2, 0x40b0
   4e002:	4101                	.insn	2, 0x4101
   4e004:	0000                	.insn	2, 0x0000
	...

000000000004e008 <failed_addr_ptr>:
   4e008:	40c0                	.insn	2, 0x40c0
   4e00a:	4101                	.insn	2, 0x4101
   4e00c:	0000                	.insn	2, 0x0000
	...

000000000004e010 <end_test_addr_ptr>:
   4e010:	40d0                	.insn	2, 0x40d0
   4e012:	4101                	.insn	2, 0x4101
   4e014:	0000                	.insn	2, 0x0000
	...

000000000004e018 <os_passed_addr_ptr>:
   4e018:	0784                	.insn	2, 0x0784
   4e01a:	4100                	.insn	2, 0x4100
   4e01c:	0000                	.insn	2, 0x0000
	...

000000000004e020 <os_failed_addr_ptr>:
   4e020:	0794                	.insn	2, 0x0794
   4e022:	4100                	.insn	2, 0x4100
   4e024:	0000                	.insn	2, 0x0000
	...

000000000004e028 <os_end_test_addr_ptr>:
   4e028:	07a0                	.insn	2, 0x07a0
   4e02a:	4100                	.insn	2, 0x4100
   4e02c:	0000                	.insn	2, 0x0000
	...

000000000004e030 <rvcp_prefix_str_data>:
   4e030:	5652                	.insn	2, 0x5652
   4e032:	203a5043          	fmadd.s	f0,f20,f3,f4,unknown
   4e036:	6554                	.insn	2, 0x6554
   4e038:	46207473          	csrrci	x8,0x462,0
   4e03c:	6c69                	.insn	2, 0x6c69
   4e03e:	2065                	.insn	2, 0x2065
	...

000000000004e041 <rvcp_testname_str_data>:
   4e041:	7074                	.insn	2, 0x7074
   4e043:	735f 6976 766e      	.insn	6, 0x766e6976735f
   4e049:	6c61                	.insn	2, 0x6c61
   4e04b:	325f        	.insn	6, 0x53415000325f

000000000004e04e <rvcp_passed_str_data>:
   4e04e:	4150                	.insn	2, 0x4150
   4e050:	44455353          	fround.h	f6,f10,unknown
	...

000000000004e055 <rvcp_failed_str_data>:
   4e055:	4146                	.insn	2, 0x4146
   4e057:	4c49                	.insn	2, 0x4c49
   4e059:	4445                	.insn	2, 0x4445
	...

000000000004e05c <rvcp_space_str_data>:
   4e05c:	0020                	.insn	2, 0x0020

000000000004e05e <rvcp_newline_str_data>:
   4e05e:	000a                	.insn	2, 0x000a

000000000004e060 <excp_ignored_count_mem>:
	...

000000000004e068 <machine_flags_mem>:
	...

000000000004e070 <user_flags_mem>:
	...

000000000004e078 <super_flags_mem>:
	...

000000000004e080 <machine_area_mem>:
	...

000000000004e088 <user_area_mem>:
	...

000000000004e090 <super_area_mem>:
	...

000000000004e098 <zero_data_mem>:
	...

000000000004e0a0 <machine_csr_jump_table_flags_mem>:
	...

000000000004e0a8 <super_csr_jump_table_flags_mem>:
	...

000000000004e0b0 <pte_access_flags_mem>:
	...

000000000004e0c8 <num_harts_ended_mem>:
	...

000000000004e0d0 <num_hard_fails_mem>:
	...

Disassembly of section .hart_context:

00000c981a5ba000 <hart_context_0>:
 c981a5ba000:	f000                	.insn	2, 0xf000
 c981a5ba002:	6e31                	.insn	2, 0x6e31
 c981a5ba004:	00000017          	auipc	x0,0x0
	...
 c981a5ba018:	0001                	.insn	2, 0x0001
 c981a5ba01a:	0000                	.insn	2, 0x0000
 c981a5ba01c:	0000                	.insn	2, 0x0000
 c981a5ba01e:	0000                	.insn	2, 0x0000
 c981a5ba020:	ffff                	.insn	2, 0xffff
 c981a5ba022:	ffff                	.insn	2, 0xffff
 c981a5ba024:	ffff                	.insn	2, 0xffff
 c981a5ba026:	ffff                	.insn	2, 0xffff
 c981a5ba028:	ffff                	.insn	2, 0xffff
 c981a5ba02a:	ffff                	.insn	2, 0xffff
 c981a5ba02c:	ffff                	.insn	2, 0xffff
 c981a5ba02e:	ffff                	.insn	2, 0xffff
 c981a5ba030:	ffff                	.insn	2, 0xffff
 c981a5ba032:	ffff                	.insn	2, 0xffff
 c981a5ba034:	ffff                	.insn	2, 0xffff
 c981a5ba036:	ffff                	.insn	2, 0xffff
	...
 c981a5ba050:	00ff 0000 0000 0000 	.insn	10, 0x00ff00000000000000ff
 c981a5ba058:	00ff 
	...
 c981a5ba176:	0000                	.insn	2, 0x0000
 c981a5ba178:	ffff                	.insn	2, 0xffff
 c981a5ba17a:	ffff                	.insn	2, 0xffff
 c981a5ba17c:	ffff                	.insn	2, 0xffff
 c981a5ba17e:	ffff                	.insn	2, 0xffff
	...
 c981a5ba188:	ffff                	.insn	2, 0xffff
 c981a5ba18a:	ffff                	.insn	2, 0xffff
	...

Disassembly of section .hart_stack_0:

000000176e31e000 <hart_stack_0>:
	...

Disassembly of section .io_htif:

0000000041040000 <tohost>:
	...

0000000041040040 <fromhost>:
	...

Disassembly of section .mem0:

0001000000000000 <.mem0>:
   1000000000000:	c0de                	.insn	2, 0xc0de
   1000000000002:	c001                	.insn	2, 0xc001
   1000000000004:	0000                	.insn	2, 0x0000
	...

Disassembly of section .mem1:

009a000000000000 <.mem1>:
  9a000000000000:	c0de                	.insn	2, 0xc0de
  9a000000000002:	c001                	.insn	2, 0xc001
  9a000000000004:	0000                	.insn	2, 0x0000
	...

Disassembly of section .mem2:

0091000000001000 <.mem2>:
  91000000001000:	c0de                	.insn	2, 0xc0de
  91000000001002:	c001                	.insn	2, 0xc001
  91000000001004:	0000                	.insn	2, 0x0000
	...

Disassembly of section .mem3:

ffe9000000002000 <.mem3>:
ffe9000000002000:	c0de                	.insn	2, 0xc0de
ffe9000000002002:	c001                	.insn	2, 0xc001
ffe9000000002004:	0000                	.insn	2, 0x0000
	...

Disassembly of section .mem4:

0004000000004000 <.mem4>:
   4000000004000:	c0de                	.insn	2, 0xc0de
   4000000004002:	c001                	.insn	2, 0xc001
   4000000004004:	0000                	.insn	2, 0x0000
	...

Disassembly of section .mem5:

00c6000000000000 <.mem5>:
  c6000000000000:	c0de                	.insn	2, 0xc0de
  c6000000000002:	c001                	.insn	2, 0xc001
  c6000000000004:	0000                	.insn	2, 0x0000
	...

Disassembly of section .mem6:

0002000000000000 <.mem6>:
   2000000000000:	c0de                	.insn	2, 0xc0de
   2000000000002:	c001                	.insn	2, 0xc001
   2000000000004:	0000                	.insn	2, 0x0000
	...

Disassembly of section .mem7:

000c000000000000 <.mem7>:
   c000000000000:	c0de                	.insn	2, 0xc0de
   c000000000002:	c001                	.insn	2, 0xc001
   c000000000004:	0000                	.insn	2, 0x0000
	...

Disassembly of section .mem8:

00000000a2b80000 <.mem8>:
    a2b80000:	c0de                	.insn	2, 0xc0de
    a2b80002:	c001                	.insn	2, 0xc001
    a2b80004:	0000                	.insn	2, 0x0000
	...

Disassembly of section .mem9:

00000d47432d7000 <.mem9>:
 d47432d7000:	c0de                	.insn	2, 0xc0de
 d47432d7002:	c001                	.insn	2, 0xc001
 d47432d7004:	0000                	.insn	2, 0x0000
	...

Disassembly of section .mem10:

00000154fd5c8000 <.mem10>:
 154fd5c8000:	c0de                	.insn	2, 0xc0de
 154fd5c8002:	c001                	.insn	2, 0xc001
 154fd5c8004:	0000                	.insn	2, 0x0000
	...

Disassembly of section .tp_csr_storage:

0000000012934000 <.tp_csr_storage>:
    12934000:	c0de                	.insn	2, 0xc0de
    12934002:	c001                	.insn	2, 0xc001
    12934004:	0000                	.insn	2, 0x0000
	...

Disassembly of section .SID_SVINVAL_01_opcode_coverage_stack:

0000000039478000 <.SID_SVINVAL_01_opcode_coverage_stack>:
    39478000:	c0de                	.insn	2, 0xc0de
    39478002:	c001                	.insn	2, 0xc001
    39478004:	0000                	.insn	2, 0x0000
	...

Disassembly of section .SID_SVINVAL_03_invalidation_sequence_1_stack:

0005cf63730a8000 <.SID_SVINVAL_03_invalidation_sequence_1_stack>:
   5cf63730a8000:	c0de                	.insn	2, 0xc0de
   5cf63730a8002:	c001                	.insn	2, 0xc001
   5cf63730a8004:	0000                	.insn	2, 0x0000
	...

Disassembly of section .SID_SVINVAL_04_invalidation_sequence_2_multiple_vas_stack:

0000000000002000 <.SID_SVINVAL_04_invalidation_sequence_2_multiple_vas_stack>:
    2000:	c0de                	.insn	2, 0xc0de
    2002:	c001                	.insn	2, 0xc001
    2004:	0000                	.insn	2, 0x0000
	...

Disassembly of section .SID_SVINVAL_05_non_consecutive_invalidation_stack:

00000023fa519000 <.SID_SVINVAL_05_non_consecutive_invalidation_stack>:
  23fa519000:	c0de                	.insn	2, 0xc0de
  23fa519002:	c001                	.insn	2, 0xc001
  23fa519004:	0000                	.insn	2, 0x0000
	...

Disassembly of section .SID_SVINVAL_07_fault_in_smode_with_tvm_stack:

0000000040044000 <.SID_SVINVAL_07_fault_in_smode_with_tvm_stack>:
    40044000:	c0de                	.insn	2, 0xc0de
    40044002:	c001                	.insn	2, 0xc001
    40044004:	0000                	.insn	2, 0x0000
	...

Disassembly of section .SID_SVINVAL_09_tvm_sfence_sinval_sfence_flow_stack:

000006c085ac2000 <.SID_SVINVAL_09_tvm_sfence_sinval_sfence_flow_stack>:
 6c085ac2000:	c0de                	.insn	2, 0xc0de
 6c085ac2002:	c001                	.insn	2, 0xc001
 6c085ac2004:	0000                	.insn	2, 0x0000
	...

Disassembly of section .SID_SVINVAL_12_sinval_vma_opcode_x0_nonx0_stack:

0000000003f7e000 <.SID_SVINVAL_12_sinval_vma_opcode_x0_nonx0_stack>:
 3f7e000:	c0de                	.insn	2, 0xc0de
 3f7e002:	c001                	.insn	2, 0xc001
 3f7e004:	0000                	.insn	2, 0x0000
	...

Disassembly of section .SID_SVINVAL_13_sinval_vma_opcode_nonx0_x0_stack:

00000000012b0000 <.SID_SVINVAL_13_sinval_vma_opcode_nonx0_x0_stack>:
 12b0000:	c0de                	.insn	2, 0xc0de
 12b0002:	c001                	.insn	2, 0xc001
 12b0004:	0000                	.insn	2, 0x0000
	...

Disassembly of section .SID_SVINVAL_14_sinval_vma_opcode_nonx0_nonx0_stack:

00004de546cf1000 <.SID_SVINVAL_14_sinval_vma_opcode_nonx0_nonx0_stack>:
    4de546cf1000:	c0de                	.insn	2, 0xc0de
    4de546cf1002:	c001                	.insn	2, 0xc001
    4de546cf1004:	0000                	.insn	2, 0x0000
	...

Disassembly of section .SID_SVINVAL_15_sinval_vma_opcode_x0_x0_stack:

00000005bd4b3000 <.SID_SVINVAL_15_sinval_vma_opcode_x0_x0_stack>:
   5bd4b3000:	c0de                	.insn	2, 0xc0de
   5bd4b3002:	c001                	.insn	2, 0xc001
   5bd4b3004:	0000                	.insn	2, 0x0000
	...

Disassembly of section .__pagetable_map_os_0x0000000042a02000:

0000000042a02000 <__pagetable_map_os_0x0000000042a02000>:
    42a02000:	a001                	.insn	2, 0xa001
    42a02002:	10f9                	.insn	2, 0x10f9
    42a02004:	0000                	.insn	2, 0x0000
    42a02006:	0000                	.insn	2, 0x0000
    42a02008:	2801                	.insn	2, 0x2801
    42a0200a:	10dd                	.insn	2, 0x10dd
    42a0200c:	0000                	.insn	2, 0x0000
    42a0200e:	0000                	.insn	2, 0x0000
    42a02010:	9c01                	.insn	2, 0x9c01
    42a02012:	10fe                	.insn	2, 0x10fe
	...
    42a02020:	ac01                	.insn	2, 0xac01
    42a02022:	000010cb          	fnmsub.s	f1,f0,f0,f0,rtz
    42a02026:	0000                	.insn	2, 0x0000
    42a02028:	dc01                	.insn	2, 0xdc01
    42a0202a:	10c5                	.insn	2, 0x10c5
	...
    42a02060:	6401                	.insn	2, 0x6401
    42a02062:	10e6                	.insn	2, 0x10e6
	...
    42a02488:	3001                	.insn	2, 0x3001
    42a0248a:	10f9                	.insn	2, 0x10f9
	...
    42a024d0:	5c01                	.insn	2, 0x5c01
    42a024d2:	0000104b          	fnmsub.s	f0,f0,f0,f0,rtz
	...
    42a0262e:	0000                	.insn	2, 0x0000
    42a02630:	3801                	.insn	2, 0x3801
    42a02632:	10e6                	.insn	2, 0x10e6
	...
    42a02f48:	6401                	.insn	2, 0x6401
    42a02f4a:	0000104b          	fnmsub.s	f0,f0,f0,f0,rtz
	...

Disassembly of section .__pagetable_map_os_0x0000000043e68000:

0000000043e68000 <__pagetable_map_os_0x0000000043e68000>:
    43e68000:	c001                	.insn	2, 0xc001
    43e68002:	0000104b          	fnmsub.s	f0,f0,f0,f0,rtz
	...
    43e6800e:	0000                	.insn	2, 0x0000
    43e68010:	2401                	.insn	2, 0x2401
    43e68012:	10e9                	.insn	2, 0x10e9
	...
    43e68068:	8c01                	.insn	2, 0x8c01
    43e6806a:	10fa                	.insn	2, 0x10fa
	...
    43e680a8:	8c01                	.insn	2, 0x8c01
    43e680aa:	10f9                	.insn	2, 0x10f9
	...
    43e680c8:	9401                	.insn	2, 0x9401
    43e680ca:	10fa                	.insn	2, 0x10fa
    43e680cc:	0000                	.insn	2, 0x0000
    43e680ce:	0000                	.insn	2, 0x0000
    43e680d0:	ac01                	.insn	2, 0xac01
    43e680d2:	10f9                	.insn	2, 0x10f9
	...
    43e68218:	e001                	.insn	2, 0xe001
    43e6821a:	10c5                	.insn	2, 0x10c5
	...
    43e68260:	6401                	.insn	2, 0x6401
    43e68262:	10f9                	.insn	2, 0x10f9
	...
    43e684d8:	7401                	.insn	2, 0x7401
    43e684da:	10e6                	.insn	2, 0x10e6
	...
    43e68808:	4c01                	.insn	2, 0x4c01
    43e6880a:	10f9                	.insn	2, 0x10f9
    43e6880c:	0000                	.insn	2, 0x0000
	...

Disassembly of section .__pagetable_map_os_0x00000000412f0000:

00000000412f0000 <__pagetable_map_os_0x00000000412f0000>:
    412f0000:	d001                	.insn	2, 0xd001
    412f0002:	000010ef          	jal	412f1002 <__pagetable_map_os_0x00000000412f0000+0x1002>
    412f0006:	0000                	.insn	2, 0x0000
    412f0008:	8001                	.insn	2, 0x8001
    412f000a:	0000104b          	fnmsub.s	f0,f0,f0,f0,rtz
    412f000e:	0000                	.insn	2, 0x0000
    412f0010:	8801                	.insn	2, 0x8801
    412f0012:	10fa                	.insn	2, 0x10fa
    412f0014:	0000                	.insn	2, 0x0000
    412f0016:	0000                	.insn	2, 0x0000
    412f0018:	4c01                	.insn	2, 0x4c01
    412f001a:	10e6                	.insn	2, 0x10e6
	...
    412f0028:	3801                	.insn	2, 0x3801
    412f002a:	10f0                	.insn	2, 0x10f0
	...
    412f0060:	4801                	.insn	2, 0x4801
    412f0062:	10e6                	.insn	2, 0x10e6
	...
    412f00b0:	a401                	.insn	2, 0xa401
    412f00b2:	10f9                	.insn	2, 0x10f9
	...
    412f00c0:	6001                	.insn	2, 0x6001
    412f00c2:	10f0                	.insn	2, 0x10f0
	...
    412f00d0:	2801                	.insn	2, 0x2801
    412f00d2:	10f0                	.insn	2, 0x10f0
	...
    412f0110:	a001                	.insn	2, 0xa001
    412f0112:	0000104b          	fnmsub.s	f0,f0,f0,f0,rtz
	...
    412f02e6:	0000                	.insn	2, 0x0000
    412f02e8:	3401                	.insn	2, 0x3401
    412f02ea:	000010fb          	.insn	4, 0x10fb
    412f02ee:	0000                	.insn	2, 0x0000
    412f02f0:	4801                	.insn	2, 0x4801
    412f02f2:	10ee                	.insn	2, 0x10ee
	...
    412f0478:	0401                	.insn	2, 0x0401
    412f047a:	10df 0000 0000      	.insn	6, 0x10df
	...
    412f0498:	3c01                	.insn	2, 0x3c01
    412f049a:	10f0                	.insn	2, 0x10f0
    412f049c:	0000                	.insn	2, 0x0000
	...

Disassembly of section .__pagetable_map_os_0x00000000412e0000:

00000000412e0000 <__pagetable_map_os_0x00000000412e0000>:
    412e0000:	9c01                	.insn	2, 0x9c01
    412e0002:	0000104b          	fnmsub.s	f0,f0,f0,f0,rtz
	...
    412e003e:	0000                	.insn	2, 0x0000
    412e0040:	1c01                	.insn	2, 0x1c01
    412e0042:	10f4                	.insn	2, 0x10f4
    412e0044:	0000                	.insn	2, 0x0000
    412e0046:	0000                	.insn	2, 0x0000
    412e0048:	3c01                	.insn	2, 0x3c01
    412e004a:	000010c3          	fmadd.s	f1,f0,f0,f0,rtz
	...
    412e00a6:	0000                	.insn	2, 0x0000
    412e00a8:	4c01                	.insn	2, 0x4c01
    412e00aa:	10c9                	.insn	2, 0x10c9
	...
    412e0be0:	9001                	.insn	2, 0x9001
    412e0be2:	10f6                	.insn	2, 0x10f6
    412e0be4:	0000                	.insn	2, 0x0000
	...

Disassembly of section .__pagetable_map_os_0x0000000043d07000:

0000000043d07000 <__pagetable_map_os_0x0000000043d07000>:
	...
    43d07080:	104040cf          	fnmadd.s	f1,f0,f4,f2,rmm
    43d07084:	0000                	.insn	2, 0x0000
    43d07086:	0000                	.insn	2, 0x0000
    43d07088:	104044cf          	fnmadd.s	f9,f0,f4,f2,rmm
    43d0708c:	0000                	.insn	2, 0x0000
    43d0708e:	0000                	.insn	2, 0x0000
    43d07090:	104048cf          	fnmadd.s	f17,f0,f4,f2,rmm
    43d07094:	0000                	.insn	2, 0x0000
    43d07096:	0000                	.insn	2, 0x0000
    43d07098:	10404ccf          	fnmadd.s	f25,f0,f4,f2,rmm
    43d0709c:	0000                	.insn	2, 0x0000
    43d0709e:	0000                	.insn	2, 0x0000
    43d070a0:	10a000cf          	fnmadd.s	f1,f0,f10,f2,rne
    43d070a4:	0000                	.insn	2, 0x0000
    43d070a6:	0000                	.insn	2, 0x0000
    43d070a8:	10a004cf          	fnmadd.s	f9,f0,f10,f2,rne
    43d070ac:	0000                	.insn	2, 0x0000
    43d070ae:	0000                	.insn	2, 0x0000
    43d070b0:	10a008cf          	fnmadd.s	f17,f0,f10,f2,rne
    43d070b4:	0000                	.insn	2, 0x0000
    43d070b6:	0000                	.insn	2, 0x0000
    43d070b8:	10a00ccf          	fnmadd.s	f25,f0,f10,f2,rne
    43d070bc:	0000                	.insn	2, 0x0000
    43d070be:	0000                	.insn	2, 0x0000
    43d070c0:	10a010cf          	fnmadd.s	f1,f0,f10,f2,rtz
    43d070c4:	0000                	.insn	2, 0x0000
    43d070c6:	0000                	.insn	2, 0x0000
    43d070c8:	10a014cf          	fnmadd.s	f9,f0,f10,f2,rtz
    43d070cc:	0000                	.insn	2, 0x0000
    43d070ce:	0000                	.insn	2, 0x0000
    43d070d0:	10a018cf          	fnmadd.s	f17,f0,f10,f2,rtz
    43d070d4:	0000                	.insn	2, 0x0000
    43d070d6:	0000                	.insn	2, 0x0000
    43d070d8:	10a01ccf          	fnmadd.s	f25,f0,f10,f2,rtz
    43d070dc:	0000                	.insn	2, 0x0000
    43d070de:	0000                	.insn	2, 0x0000
    43d070e0:	10a020cf          	fnmadd.s	f1,f0,f10,f2,rdn
    43d070e4:	0000                	.insn	2, 0x0000
    43d070e6:	0000                	.insn	2, 0x0000
    43d070e8:	10a024cf          	fnmadd.s	f9,f0,f10,f2,rdn
    43d070ec:	0000                	.insn	2, 0x0000
    43d070ee:	0000                	.insn	2, 0x0000
    43d070f0:	10a028cf          	fnmadd.s	f17,f0,f10,f2,rdn
    43d070f4:	0000                	.insn	2, 0x0000
    43d070f6:	0000                	.insn	2, 0x0000
    43d070f8:	10a02ccf          	fnmadd.s	f25,f0,f10,f2,rdn
    43d070fc:	0000                	.insn	2, 0x0000
    43d070fe:	0000                	.insn	2, 0x0000
    43d07100:	10a030cf          	fnmadd.s	f1,f0,f10,f2,rup
    43d07104:	0000                	.insn	2, 0x0000
    43d07106:	0000                	.insn	2, 0x0000
    43d07108:	10a034cf          	fnmadd.s	f9,f0,f10,f2,rup
    43d0710c:	0000                	.insn	2, 0x0000
    43d0710e:	0000                	.insn	2, 0x0000
    43d07110:	10a038cf          	fnmadd.s	f17,f0,f10,f2,rup
    43d07114:	0000                	.insn	2, 0x0000
    43d07116:	0000                	.insn	2, 0x0000
    43d07118:	10a03ccf          	fnmadd.s	f25,f0,f10,f2,rup
    43d0711c:	0000                	.insn	2, 0x0000
    43d0711e:	0000                	.insn	2, 0x0000
    43d07120:	10a040cf          	fnmadd.s	f1,f0,f10,f2,rmm
    43d07124:	0000                	.insn	2, 0x0000
    43d07126:	0000                	.insn	2, 0x0000
    43d07128:	10a044cf          	fnmadd.s	f9,f0,f10,f2,rmm
    43d0712c:	0000                	.insn	2, 0x0000
    43d0712e:	0000                	.insn	2, 0x0000
    43d07130:	10a048cf          	fnmadd.s	f17,f0,f10,f2,rmm
    43d07134:	0000                	.insn	2, 0x0000
    43d07136:	0000                	.insn	2, 0x0000
    43d07138:	10a04ccf          	fnmadd.s	f25,f0,f10,f2,rmm
    43d0713c:	0000                	.insn	2, 0x0000
    43d0713e:	0000                	.insn	2, 0x0000
    43d07140:	10a050cf          	fnmadd.s	f1,f0,f10,f2,unknown
    43d07144:	0000                	.insn	2, 0x0000
    43d07146:	0000                	.insn	2, 0x0000
    43d07148:	10a054cf          	fnmadd.s	f9,f0,f10,f2,unknown
    43d0714c:	0000                	.insn	2, 0x0000
    43d0714e:	0000                	.insn	2, 0x0000
    43d07150:	10a058cf          	fnmadd.s	f17,f0,f10,f2,unknown
    43d07154:	0000                	.insn	2, 0x0000
    43d07156:	0000                	.insn	2, 0x0000
    43d07158:	10a05ccf          	fnmadd.s	f25,f0,f10,f2,unknown
    43d0715c:	0000                	.insn	2, 0x0000
    43d0715e:	0000                	.insn	2, 0x0000
    43d07160:	10a060cf          	fnmadd.s	f1,f0,f10,f2,unknown
    43d07164:	0000                	.insn	2, 0x0000
    43d07166:	0000                	.insn	2, 0x0000
    43d07168:	10a064cf          	fnmadd.s	f9,f0,f10,f2,unknown
    43d0716c:	0000                	.insn	2, 0x0000
    43d0716e:	0000                	.insn	2, 0x0000
    43d07170:	10a068cf          	fnmadd.s	f17,f0,f10,f2,unknown
    43d07174:	0000                	.insn	2, 0x0000
    43d07176:	0000                	.insn	2, 0x0000
    43d07178:	10a06ccf          	fnmadd.s	f25,f0,f10,f2,unknown
    43d0717c:	0000                	.insn	2, 0x0000
    43d0717e:	0000                	.insn	2, 0x0000
    43d07180:	10a070cf          	fnmadd.s	f1,f0,f10,f2
    43d07184:	0000                	.insn	2, 0x0000
    43d07186:	0000                	.insn	2, 0x0000
    43d07188:	10a074cf          	fnmadd.s	f9,f0,f10,f2
    43d0718c:	0000                	.insn	2, 0x0000
    43d0718e:	0000                	.insn	2, 0x0000
    43d07190:	10a078cf          	fnmadd.s	f17,f0,f10,f2
    43d07194:	0000                	.insn	2, 0x0000
    43d07196:	0000                	.insn	2, 0x0000
    43d07198:	10a07ccf          	fnmadd.s	f25,f0,f10,f2
    43d0719c:	0000                	.insn	2, 0x0000
    43d0719e:	0000                	.insn	2, 0x0000
    43d071a0:	10a080cf          	fnmadd.s	f1,f1,f10,f2,rne
    43d071a4:	0000                	.insn	2, 0x0000
    43d071a6:	0000                	.insn	2, 0x0000
    43d071a8:	10a084cf          	fnmadd.s	f9,f1,f10,f2,rne
    43d071ac:	0000                	.insn	2, 0x0000
    43d071ae:	0000                	.insn	2, 0x0000
    43d071b0:	10a088cf          	fnmadd.s	f17,f1,f10,f2,rne
    43d071b4:	0000                	.insn	2, 0x0000
    43d071b6:	0000                	.insn	2, 0x0000
    43d071b8:	10a08ccf          	fnmadd.s	f25,f1,f10,f2,rne
    43d071bc:	0000                	.insn	2, 0x0000
    43d071be:	0000                	.insn	2, 0x0000
    43d071c0:	10a090cf          	fnmadd.s	f1,f1,f10,f2,rtz
    43d071c4:	0000                	.insn	2, 0x0000
    43d071c6:	0000                	.insn	2, 0x0000
    43d071c8:	10a094cf          	fnmadd.s	f9,f1,f10,f2,rtz
    43d071cc:	0000                	.insn	2, 0x0000
    43d071ce:	0000                	.insn	2, 0x0000
    43d071d0:	10a098cf          	fnmadd.s	f17,f1,f10,f2,rtz
    43d071d4:	0000                	.insn	2, 0x0000
    43d071d6:	0000                	.insn	2, 0x0000
    43d071d8:	10a09ccf          	fnmadd.s	f25,f1,f10,f2,rtz
    43d071dc:	0000                	.insn	2, 0x0000
    43d071de:	0000                	.insn	2, 0x0000
    43d071e0:	10a0a0cf          	fnmadd.s	f1,f1,f10,f2,rdn
    43d071e4:	0000                	.insn	2, 0x0000
    43d071e6:	0000                	.insn	2, 0x0000
    43d071e8:	10a0a4cf          	fnmadd.s	f9,f1,f10,f2,rdn
    43d071ec:	0000                	.insn	2, 0x0000
    43d071ee:	0000                	.insn	2, 0x0000
    43d071f0:	10a0a8cf          	fnmadd.s	f17,f1,f10,f2,rdn
    43d071f4:	0000                	.insn	2, 0x0000
    43d071f6:	0000                	.insn	2, 0x0000
    43d071f8:	10a0accf          	fnmadd.s	f25,f1,f10,f2,rdn
    43d071fc:	0000                	.insn	2, 0x0000
    43d071fe:	0000                	.insn	2, 0x0000
    43d07200:	104100cf          	fnmadd.s	f1,f2,f4,f2,rne
    43d07204:	0000                	.insn	2, 0x0000
    43d07206:	0000                	.insn	2, 0x0000
    43d07208:	10a0b4cf          	fnmadd.s	f9,f1,f10,f2,rup
    43d0720c:	0000                	.insn	2, 0x0000
    43d0720e:	0000                	.insn	2, 0x0000
    43d07210:	10a0b8cf          	fnmadd.s	f17,f1,f10,f2,rup
    43d07214:	0000                	.insn	2, 0x0000
    43d07216:	0000                	.insn	2, 0x0000
    43d07218:	10a0bccf          	fnmadd.s	f25,f1,f10,f2,rup
    43d0721c:	0000                	.insn	2, 0x0000
    43d0721e:	0000                	.insn	2, 0x0000
    43d07220:	10a0c0cf          	fnmadd.s	f1,f1,f10,f2,rmm
    43d07224:	0000                	.insn	2, 0x0000
    43d07226:	0000                	.insn	2, 0x0000
    43d07228:	10a0c4cf          	fnmadd.s	f9,f1,f10,f2,rmm
    43d0722c:	0000                	.insn	2, 0x0000
    43d0722e:	0000                	.insn	2, 0x0000
    43d07230:	10a0c8cf          	fnmadd.s	f17,f1,f10,f2,rmm
    43d07234:	0000                	.insn	2, 0x0000
    43d07236:	0000                	.insn	2, 0x0000
    43d07238:	10a0cccf          	fnmadd.s	f25,f1,f10,f2,rmm
    43d0723c:	0000                	.insn	2, 0x0000
    43d0723e:	0000                	.insn	2, 0x0000
    43d07240:	10a0d0cf          	fnmadd.s	f1,f1,f10,f2,unknown
    43d07244:	0000                	.insn	2, 0x0000
    43d07246:	0000                	.insn	2, 0x0000
    43d07248:	10a0d4cf          	fnmadd.s	f9,f1,f10,f2,unknown
    43d0724c:	0000                	.insn	2, 0x0000
    43d0724e:	0000                	.insn	2, 0x0000
    43d07250:	10a0d8cf          	fnmadd.s	f17,f1,f10,f2,unknown
    43d07254:	0000                	.insn	2, 0x0000
    43d07256:	0000                	.insn	2, 0x0000
    43d07258:	10a0dccf          	fnmadd.s	f25,f1,f10,f2,unknown
    43d0725c:	0000                	.insn	2, 0x0000
    43d0725e:	0000                	.insn	2, 0x0000
    43d07260:	10a0e0cf          	fnmadd.s	f1,f1,f10,f2,unknown
    43d07264:	0000                	.insn	2, 0x0000
    43d07266:	0000                	.insn	2, 0x0000
    43d07268:	10a0e4cf          	fnmadd.s	f9,f1,f10,f2,unknown
    43d0726c:	0000                	.insn	2, 0x0000
    43d0726e:	0000                	.insn	2, 0x0000
    43d07270:	10a0e8cf          	fnmadd.s	f17,f1,f10,f2,unknown
    43d07274:	0000                	.insn	2, 0x0000
    43d07276:	0000                	.insn	2, 0x0000
    43d07278:	10a0eccf          	fnmadd.s	f25,f1,f10,f2,unknown
    43d0727c:	0000                	.insn	2, 0x0000
    43d0727e:	0000                	.insn	2, 0x0000
    43d07280:	10a0f0cf          	fnmadd.s	f1,f1,f10,f2
    43d07284:	0000                	.insn	2, 0x0000
    43d07286:	0000                	.insn	2, 0x0000
    43d07288:	10a0f4cf          	fnmadd.s	f9,f1,f10,f2
    43d0728c:	0000                	.insn	2, 0x0000
    43d0728e:	0000                	.insn	2, 0x0000
    43d07290:	10a0f8cf          	fnmadd.s	f17,f1,f10,f2
    43d07294:	0000                	.insn	2, 0x0000
    43d07296:	0000                	.insn	2, 0x0000
    43d07298:	10a0fccf          	fnmadd.s	f25,f1,f10,f2
    43d0729c:	0000                	.insn	2, 0x0000
    43d0729e:	0000                	.insn	2, 0x0000
    43d072a0:	10a100cf          	fnmadd.s	f1,f2,f10,f2,rne
    43d072a4:	0000                	.insn	2, 0x0000
    43d072a6:	0000                	.insn	2, 0x0000
    43d072a8:	10a104cf          	fnmadd.s	f9,f2,f10,f2,rne
    43d072ac:	0000                	.insn	2, 0x0000
    43d072ae:	0000                	.insn	2, 0x0000
    43d072b0:	10a108cf          	fnmadd.s	f17,f2,f10,f2,rne
    43d072b4:	0000                	.insn	2, 0x0000
    43d072b6:	0000                	.insn	2, 0x0000
    43d072b8:	10a10ccf          	fnmadd.s	f25,f2,f10,f2,rne
    43d072bc:	0000                	.insn	2, 0x0000
    43d072be:	0000                	.insn	2, 0x0000
    43d072c0:	10a110cf          	fnmadd.s	f1,f2,f10,f2,rtz
    43d072c4:	0000                	.insn	2, 0x0000
    43d072c6:	0000                	.insn	2, 0x0000
    43d072c8:	10a114cf          	fnmadd.s	f9,f2,f10,f2,rtz
    43d072cc:	0000                	.insn	2, 0x0000
    43d072ce:	0000                	.insn	2, 0x0000
    43d072d0:	10a118cf          	fnmadd.s	f17,f2,f10,f2,rtz
    43d072d4:	0000                	.insn	2, 0x0000
    43d072d6:	0000                	.insn	2, 0x0000
    43d072d8:	10a11ccf          	fnmadd.s	f25,f2,f10,f2,rtz
    43d072dc:	0000                	.insn	2, 0x0000
    43d072de:	0000                	.insn	2, 0x0000
    43d072e0:	10a120cf          	fnmadd.s	f1,f2,f10,f2,rdn
    43d072e4:	0000                	.insn	2, 0x0000
    43d072e6:	0000                	.insn	2, 0x0000
    43d072e8:	10a124cf          	fnmadd.s	f9,f2,f10,f2,rdn
    43d072ec:	0000                	.insn	2, 0x0000
    43d072ee:	0000                	.insn	2, 0x0000
    43d072f0:	10a128cf          	fnmadd.s	f17,f2,f10,f2,rdn
    43d072f4:	0000                	.insn	2, 0x0000
    43d072f6:	0000                	.insn	2, 0x0000
    43d072f8:	10a12ccf          	fnmadd.s	f25,f2,f10,f2,rdn
    43d072fc:	0000                	.insn	2, 0x0000
    43d072fe:	0000                	.insn	2, 0x0000
    43d07300:	10a130cf          	fnmadd.s	f1,f2,f10,f2,rup
    43d07304:	0000                	.insn	2, 0x0000
    43d07306:	0000                	.insn	2, 0x0000
    43d07308:	10a134cf          	fnmadd.s	f9,f2,f10,f2,rup
    43d0730c:	0000                	.insn	2, 0x0000
    43d0730e:	0000                	.insn	2, 0x0000
    43d07310:	10a138cf          	fnmadd.s	f17,f2,f10,f2,rup
    43d07314:	0000                	.insn	2, 0x0000
    43d07316:	0000                	.insn	2, 0x0000
    43d07318:	10a13ccf          	fnmadd.s	f25,f2,f10,f2,rup
    43d0731c:	0000                	.insn	2, 0x0000
    43d0731e:	0000                	.insn	2, 0x0000
    43d07320:	10a140cf          	fnmadd.s	f1,f2,f10,f2,rmm
    43d07324:	0000                	.insn	2, 0x0000
    43d07326:	0000                	.insn	2, 0x0000
    43d07328:	10a144cf          	fnmadd.s	f9,f2,f10,f2,rmm
    43d0732c:	0000                	.insn	2, 0x0000
    43d0732e:	0000                	.insn	2, 0x0000
    43d07330:	10a148cf          	fnmadd.s	f17,f2,f10,f2,rmm
    43d07334:	0000                	.insn	2, 0x0000
    43d07336:	0000                	.insn	2, 0x0000
    43d07338:	10a14ccf          	fnmadd.s	f25,f2,f10,f2,rmm
    43d0733c:	0000                	.insn	2, 0x0000
    43d0733e:	0000                	.insn	2, 0x0000
    43d07340:	10a150cf          	fnmadd.s	f1,f2,f10,f2,unknown
    43d07344:	0000                	.insn	2, 0x0000
    43d07346:	0000                	.insn	2, 0x0000
    43d07348:	10a154cf          	fnmadd.s	f9,f2,f10,f2,unknown
    43d0734c:	0000                	.insn	2, 0x0000
    43d0734e:	0000                	.insn	2, 0x0000
    43d07350:	10a158cf          	fnmadd.s	f17,f2,f10,f2,unknown
    43d07354:	0000                	.insn	2, 0x0000
    43d07356:	0000                	.insn	2, 0x0000
    43d07358:	10a15ccf          	fnmadd.s	f25,f2,f10,f2,unknown
    43d0735c:	0000                	.insn	2, 0x0000
    43d0735e:	0000                	.insn	2, 0x0000
    43d07360:	10a160cf          	fnmadd.s	f1,f2,f10,f2,unknown
    43d07364:	0000                	.insn	2, 0x0000
    43d07366:	0000                	.insn	2, 0x0000
    43d07368:	10a164cf          	fnmadd.s	f9,f2,f10,f2,unknown
    43d0736c:	0000                	.insn	2, 0x0000
    43d0736e:	0000                	.insn	2, 0x0000
    43d07370:	10a168cf          	fnmadd.s	f17,f2,f10,f2,unknown
    43d07374:	0000                	.insn	2, 0x0000
    43d07376:	0000                	.insn	2, 0x0000
    43d07378:	10a16ccf          	fnmadd.s	f25,f2,f10,f2,unknown
    43d0737c:	0000                	.insn	2, 0x0000
    43d0737e:	0000                	.insn	2, 0x0000
    43d07380:	10a170cf          	fnmadd.s	f1,f2,f10,f2
    43d07384:	0000                	.insn	2, 0x0000
    43d07386:	0000                	.insn	2, 0x0000
    43d07388:	10a174cf          	fnmadd.s	f9,f2,f10,f2
    43d0738c:	0000                	.insn	2, 0x0000
    43d0738e:	0000                	.insn	2, 0x0000
    43d07390:	10a178cf          	fnmadd.s	f17,f2,f10,f2
    43d07394:	0000                	.insn	2, 0x0000
    43d07396:	0000                	.insn	2, 0x0000
    43d07398:	10a17ccf          	fnmadd.s	f25,f2,f10,f2
    43d0739c:	0000                	.insn	2, 0x0000
    43d0739e:	0000                	.insn	2, 0x0000
    43d073a0:	10a180cf          	fnmadd.s	f1,f3,f10,f2,rne
    43d073a4:	0000                	.insn	2, 0x0000
    43d073a6:	0000                	.insn	2, 0x0000
    43d073a8:	10a184cf          	fnmadd.s	f9,f3,f10,f2,rne
    43d073ac:	0000                	.insn	2, 0x0000
    43d073ae:	0000                	.insn	2, 0x0000
    43d073b0:	10a188cf          	fnmadd.s	f17,f3,f10,f2,rne
    43d073b4:	0000                	.insn	2, 0x0000
    43d073b6:	0000                	.insn	2, 0x0000
    43d073b8:	10a18ccf          	fnmadd.s	f25,f3,f10,f2,rne
    43d073bc:	0000                	.insn	2, 0x0000
    43d073be:	0000                	.insn	2, 0x0000
    43d073c0:	10a190cf          	fnmadd.s	f1,f3,f10,f2,rtz
    43d073c4:	0000                	.insn	2, 0x0000
    43d073c6:	0000                	.insn	2, 0x0000
    43d073c8:	10a194cf          	fnmadd.s	f9,f3,f10,f2,rtz
    43d073cc:	0000                	.insn	2, 0x0000
    43d073ce:	0000                	.insn	2, 0x0000
    43d073d0:	10a198cf          	fnmadd.s	f17,f3,f10,f2,rtz
    43d073d4:	0000                	.insn	2, 0x0000
    43d073d6:	0000                	.insn	2, 0x0000
    43d073d8:	10a19ccf          	fnmadd.s	f25,f3,f10,f2,rtz
    43d073dc:	0000                	.insn	2, 0x0000
    43d073de:	0000                	.insn	2, 0x0000
    43d073e0:	10a1a0cf          	fnmadd.s	f1,f3,f10,f2,rdn
    43d073e4:	0000                	.insn	2, 0x0000
    43d073e6:	0000                	.insn	2, 0x0000
    43d073e8:	10a1a4cf          	fnmadd.s	f9,f3,f10,f2,rdn
    43d073ec:	0000                	.insn	2, 0x0000
    43d073ee:	0000                	.insn	2, 0x0000
    43d073f0:	10a1a8cf          	fnmadd.s	f17,f3,f10,f2,rdn
    43d073f4:	0000                	.insn	2, 0x0000
    43d073f6:	0000                	.insn	2, 0x0000
    43d073f8:	10a1accf          	fnmadd.s	f25,f3,f10,f2,rdn
    43d073fc:	0000                	.insn	2, 0x0000
    43d073fe:	0000                	.insn	2, 0x0000
    43d07400:	10a1b0cf          	fnmadd.s	f1,f3,f10,f2,rup
    43d07404:	0000                	.insn	2, 0x0000
    43d07406:	0000                	.insn	2, 0x0000
    43d07408:	10a1b4cf          	fnmadd.s	f9,f3,f10,f2,rup
    43d0740c:	0000                	.insn	2, 0x0000
    43d0740e:	0000                	.insn	2, 0x0000
    43d07410:	10a1b8cf          	fnmadd.s	f17,f3,f10,f2,rup
    43d07414:	0000                	.insn	2, 0x0000
    43d07416:	0000                	.insn	2, 0x0000
    43d07418:	10a1bccf          	fnmadd.s	f25,f3,f10,f2,rup
    43d0741c:	0000                	.insn	2, 0x0000
    43d0741e:	0000                	.insn	2, 0x0000
    43d07420:	10a1c0cf          	fnmadd.s	f1,f3,f10,f2,rmm
    43d07424:	0000                	.insn	2, 0x0000
    43d07426:	0000                	.insn	2, 0x0000
    43d07428:	10a1c4cf          	fnmadd.s	f9,f3,f10,f2,rmm
    43d0742c:	0000                	.insn	2, 0x0000
    43d0742e:	0000                	.insn	2, 0x0000
    43d07430:	10a1c8cf          	fnmadd.s	f17,f3,f10,f2,rmm
    43d07434:	0000                	.insn	2, 0x0000
    43d07436:	0000                	.insn	2, 0x0000
    43d07438:	10a1cccf          	fnmadd.s	f25,f3,f10,f2,rmm
    43d0743c:	0000                	.insn	2, 0x0000
    43d0743e:	0000                	.insn	2, 0x0000
    43d07440:	10a1d0cf          	fnmadd.s	f1,f3,f10,f2,unknown
    43d07444:	0000                	.insn	2, 0x0000
    43d07446:	0000                	.insn	2, 0x0000
    43d07448:	10a1d4cf          	fnmadd.s	f9,f3,f10,f2,unknown
    43d0744c:	0000                	.insn	2, 0x0000
    43d0744e:	0000                	.insn	2, 0x0000
    43d07450:	10a1d8cf          	fnmadd.s	f17,f3,f10,f2,unknown
    43d07454:	0000                	.insn	2, 0x0000
    43d07456:	0000                	.insn	2, 0x0000
    43d07458:	10a1dccf          	fnmadd.s	f25,f3,f10,f2,unknown
    43d0745c:	0000                	.insn	2, 0x0000
    43d0745e:	0000                	.insn	2, 0x0000
    43d07460:	10a1e0cf          	fnmadd.s	f1,f3,f10,f2,unknown
    43d07464:	0000                	.insn	2, 0x0000
    43d07466:	0000                	.insn	2, 0x0000
    43d07468:	10a1e4cf          	fnmadd.s	f9,f3,f10,f2,unknown
    43d0746c:	0000                	.insn	2, 0x0000
    43d0746e:	0000                	.insn	2, 0x0000
    43d07470:	10a1e8cf          	fnmadd.s	f17,f3,f10,f2,unknown
    43d07474:	0000                	.insn	2, 0x0000
    43d07476:	0000                	.insn	2, 0x0000
    43d07478:	10a1eccf          	fnmadd.s	f25,f3,f10,f2,unknown
    43d0747c:	0000                	.insn	2, 0x0000
    43d0747e:	0000                	.insn	2, 0x0000
    43d07480:	10a1f0cf          	fnmadd.s	f1,f3,f10,f2
    43d07484:	0000                	.insn	2, 0x0000
    43d07486:	0000                	.insn	2, 0x0000
    43d07488:	10a1f4cf          	fnmadd.s	f9,f3,f10,f2
    43d0748c:	0000                	.insn	2, 0x0000
    43d0748e:	0000                	.insn	2, 0x0000
    43d07490:	10a1f8cf          	fnmadd.s	f17,f3,f10,f2
    43d07494:	0000                	.insn	2, 0x0000
    43d07496:	0000                	.insn	2, 0x0000
    43d07498:	10a1fccf          	fnmadd.s	f25,f3,f10,f2
    43d0749c:	0000                	.insn	2, 0x0000
    43d0749e:	0000                	.insn	2, 0x0000
    43d074a0:	10a200cf          	fnmadd.s	f1,f4,f10,f2,rne
    43d074a4:	0000                	.insn	2, 0x0000
    43d074a6:	0000                	.insn	2, 0x0000
    43d074a8:	10a204cf          	fnmadd.s	f9,f4,f10,f2,rne
    43d074ac:	0000                	.insn	2, 0x0000
    43d074ae:	0000                	.insn	2, 0x0000
    43d074b0:	10a208cf          	fnmadd.s	f17,f4,f10,f2,rne
    43d074b4:	0000                	.insn	2, 0x0000
    43d074b6:	0000                	.insn	2, 0x0000
    43d074b8:	10a20ccf          	fnmadd.s	f25,f4,f10,f2,rne
    43d074bc:	0000                	.insn	2, 0x0000
    43d074be:	0000                	.insn	2, 0x0000
    43d074c0:	10a210cf          	fnmadd.s	f1,f4,f10,f2,rtz
    43d074c4:	0000                	.insn	2, 0x0000
    43d074c6:	0000                	.insn	2, 0x0000
    43d074c8:	10a214cf          	fnmadd.s	f9,f4,f10,f2,rtz
    43d074cc:	0000                	.insn	2, 0x0000
    43d074ce:	0000                	.insn	2, 0x0000
    43d074d0:	10a218cf          	fnmadd.s	f17,f4,f10,f2,rtz
    43d074d4:	0000                	.insn	2, 0x0000
    43d074d6:	0000                	.insn	2, 0x0000
    43d074d8:	10a21ccf          	fnmadd.s	f25,f4,f10,f2,rtz
    43d074dc:	0000                	.insn	2, 0x0000
    43d074de:	0000                	.insn	2, 0x0000
    43d074e0:	10a220cf          	fnmadd.s	f1,f4,f10,f2,rdn
    43d074e4:	0000                	.insn	2, 0x0000
    43d074e6:	0000                	.insn	2, 0x0000
    43d074e8:	10a224cf          	fnmadd.s	f9,f4,f10,f2,rdn
    43d074ec:	0000                	.insn	2, 0x0000
    43d074ee:	0000                	.insn	2, 0x0000
    43d074f0:	10a228cf          	fnmadd.s	f17,f4,f10,f2,rdn
    43d074f4:	0000                	.insn	2, 0x0000
    43d074f6:	0000                	.insn	2, 0x0000
    43d074f8:	10a22ccf          	fnmadd.s	f25,f4,f10,f2,rdn
    43d074fc:	0000                	.insn	2, 0x0000
    43d074fe:	0000                	.insn	2, 0x0000
    43d07500:	10a230cf          	fnmadd.s	f1,f4,f10,f2,rup
    43d07504:	0000                	.insn	2, 0x0000
    43d07506:	0000                	.insn	2, 0x0000
    43d07508:	10a234cf          	fnmadd.s	f9,f4,f10,f2,rup
    43d0750c:	0000                	.insn	2, 0x0000
    43d0750e:	0000                	.insn	2, 0x0000
    43d07510:	10a238cf          	fnmadd.s	f17,f4,f10,f2,rup
    43d07514:	0000                	.insn	2, 0x0000
    43d07516:	0000                	.insn	2, 0x0000
    43d07518:	10a23ccf          	fnmadd.s	f25,f4,f10,f2,rup
    43d0751c:	0000                	.insn	2, 0x0000
    43d0751e:	0000                	.insn	2, 0x0000
    43d07520:	10a240cf          	fnmadd.s	f1,f4,f10,f2,rmm
    43d07524:	0000                	.insn	2, 0x0000
    43d07526:	0000                	.insn	2, 0x0000
    43d07528:	10a244cf          	fnmadd.s	f9,f4,f10,f2,rmm
    43d0752c:	0000                	.insn	2, 0x0000
    43d0752e:	0000                	.insn	2, 0x0000
    43d07530:	10a248cf          	fnmadd.s	f17,f4,f10,f2,rmm
    43d07534:	0000                	.insn	2, 0x0000
    43d07536:	0000                	.insn	2, 0x0000
    43d07538:	10a24ccf          	fnmadd.s	f25,f4,f10,f2,rmm
    43d0753c:	0000                	.insn	2, 0x0000
    43d0753e:	0000                	.insn	2, 0x0000
    43d07540:	10a250cf          	fnmadd.s	f1,f4,f10,f2,unknown
    43d07544:	0000                	.insn	2, 0x0000
    43d07546:	0000                	.insn	2, 0x0000
    43d07548:	10a254cf          	fnmadd.s	f9,f4,f10,f2,unknown
    43d0754c:	0000                	.insn	2, 0x0000
    43d0754e:	0000                	.insn	2, 0x0000
    43d07550:	10a258cf          	fnmadd.s	f17,f4,f10,f2,unknown
    43d07554:	0000                	.insn	2, 0x0000
    43d07556:	0000                	.insn	2, 0x0000
    43d07558:	10a25ccf          	fnmadd.s	f25,f4,f10,f2,unknown
    43d0755c:	0000                	.insn	2, 0x0000
    43d0755e:	0000                	.insn	2, 0x0000
    43d07560:	10a260cf          	fnmadd.s	f1,f4,f10,f2,unknown
    43d07564:	0000                	.insn	2, 0x0000
    43d07566:	0000                	.insn	2, 0x0000
    43d07568:	10a264cf          	fnmadd.s	f9,f4,f10,f2,unknown
    43d0756c:	0000                	.insn	2, 0x0000
    43d0756e:	0000                	.insn	2, 0x0000
    43d07570:	10a268cf          	fnmadd.s	f17,f4,f10,f2,unknown
    43d07574:	0000                	.insn	2, 0x0000
    43d07576:	0000                	.insn	2, 0x0000
    43d07578:	10a26ccf          	fnmadd.s	f25,f4,f10,f2,unknown
    43d0757c:	0000                	.insn	2, 0x0000
    43d0757e:	0000                	.insn	2, 0x0000
    43d07580:	10a270cf          	fnmadd.s	f1,f4,f10,f2
    43d07584:	0000                	.insn	2, 0x0000
    43d07586:	0000                	.insn	2, 0x0000
    43d07588:	10a274cf          	fnmadd.s	f9,f4,f10,f2
    43d0758c:	0000                	.insn	2, 0x0000
    43d0758e:	0000                	.insn	2, 0x0000
    43d07590:	10a278cf          	fnmadd.s	f17,f4,f10,f2
    43d07594:	0000                	.insn	2, 0x0000
    43d07596:	0000                	.insn	2, 0x0000
    43d07598:	10a27ccf          	fnmadd.s	f25,f4,f10,f2
    43d0759c:	0000                	.insn	2, 0x0000
    43d0759e:	0000                	.insn	2, 0x0000
    43d075a0:	10a280cf          	fnmadd.s	f1,f5,f10,f2,rne
    43d075a4:	0000                	.insn	2, 0x0000
    43d075a6:	0000                	.insn	2, 0x0000
    43d075a8:	10a284cf          	fnmadd.s	f9,f5,f10,f2,rne
    43d075ac:	0000                	.insn	2, 0x0000
    43d075ae:	0000                	.insn	2, 0x0000
    43d075b0:	10a288cf          	fnmadd.s	f17,f5,f10,f2,rne
    43d075b4:	0000                	.insn	2, 0x0000
    43d075b6:	0000                	.insn	2, 0x0000
    43d075b8:	10a28ccf          	fnmadd.s	f25,f5,f10,f2,rne
    43d075bc:	0000                	.insn	2, 0x0000
    43d075be:	0000                	.insn	2, 0x0000
    43d075c0:	10a290cf          	fnmadd.s	f1,f5,f10,f2,rtz
    43d075c4:	0000                	.insn	2, 0x0000
    43d075c6:	0000                	.insn	2, 0x0000
    43d075c8:	10a294cf          	fnmadd.s	f9,f5,f10,f2,rtz
    43d075cc:	0000                	.insn	2, 0x0000
    43d075ce:	0000                	.insn	2, 0x0000
    43d075d0:	10a298cf          	fnmadd.s	f17,f5,f10,f2,rtz
    43d075d4:	0000                	.insn	2, 0x0000
    43d075d6:	0000                	.insn	2, 0x0000
    43d075d8:	10a29ccf          	fnmadd.s	f25,f5,f10,f2,rtz
    43d075dc:	0000                	.insn	2, 0x0000
    43d075de:	0000                	.insn	2, 0x0000
    43d075e0:	10a2a0cf          	fnmadd.s	f1,f5,f10,f2,rdn
    43d075e4:	0000                	.insn	2, 0x0000
    43d075e6:	0000                	.insn	2, 0x0000
    43d075e8:	10a2a4cf          	fnmadd.s	f9,f5,f10,f2,rdn
    43d075ec:	0000                	.insn	2, 0x0000
    43d075ee:	0000                	.insn	2, 0x0000
    43d075f0:	10a2a8cf          	fnmadd.s	f17,f5,f10,f2,rdn
    43d075f4:	0000                	.insn	2, 0x0000
    43d075f6:	0000                	.insn	2, 0x0000
    43d075f8:	10a2accf          	fnmadd.s	f25,f5,f10,f2,rdn
    43d075fc:	0000                	.insn	2, 0x0000
    43d075fe:	0000                	.insn	2, 0x0000
    43d07600:	10a2b0cf          	fnmadd.s	f1,f5,f10,f2,rup
    43d07604:	0000                	.insn	2, 0x0000
    43d07606:	0000                	.insn	2, 0x0000
    43d07608:	10a2b4cf          	fnmadd.s	f9,f5,f10,f2,rup
    43d0760c:	0000                	.insn	2, 0x0000
    43d0760e:	0000                	.insn	2, 0x0000
    43d07610:	10a2b8cf          	fnmadd.s	f17,f5,f10,f2,rup
    43d07614:	0000                	.insn	2, 0x0000
    43d07616:	0000                	.insn	2, 0x0000
    43d07618:	10a2bccf          	fnmadd.s	f25,f5,f10,f2,rup
    43d0761c:	0000                	.insn	2, 0x0000
    43d0761e:	0000                	.insn	2, 0x0000
    43d07620:	10a2c0cf          	fnmadd.s	f1,f5,f10,f2,rmm
    43d07624:	0000                	.insn	2, 0x0000
    43d07626:	0000                	.insn	2, 0x0000
    43d07628:	10a2c4cf          	fnmadd.s	f9,f5,f10,f2,rmm
    43d0762c:	0000                	.insn	2, 0x0000
    43d0762e:	0000                	.insn	2, 0x0000
    43d07630:	10a2c8cf          	fnmadd.s	f17,f5,f10,f2,rmm
    43d07634:	0000                	.insn	2, 0x0000
    43d07636:	0000                	.insn	2, 0x0000
    43d07638:	10a2cccf          	fnmadd.s	f25,f5,f10,f2,rmm
    43d0763c:	0000                	.insn	2, 0x0000
    43d0763e:	0000                	.insn	2, 0x0000
    43d07640:	10a2d0cf          	fnmadd.s	f1,f5,f10,f2,unknown
    43d07644:	0000                	.insn	2, 0x0000
    43d07646:	0000                	.insn	2, 0x0000
    43d07648:	10a2d4cf          	fnmadd.s	f9,f5,f10,f2,unknown
    43d0764c:	0000                	.insn	2, 0x0000
    43d0764e:	0000                	.insn	2, 0x0000
    43d07650:	10a2d8cf          	fnmadd.s	f17,f5,f10,f2,unknown
    43d07654:	0000                	.insn	2, 0x0000
    43d07656:	0000                	.insn	2, 0x0000
    43d07658:	10a2dccf          	fnmadd.s	f25,f5,f10,f2,unknown
    43d0765c:	0000                	.insn	2, 0x0000
    43d0765e:	0000                	.insn	2, 0x0000
    43d07660:	10a2e0cf          	fnmadd.s	f1,f5,f10,f2,unknown
    43d07664:	0000                	.insn	2, 0x0000
    43d07666:	0000                	.insn	2, 0x0000
    43d07668:	10a2e4cf          	fnmadd.s	f9,f5,f10,f2,unknown
    43d0766c:	0000                	.insn	2, 0x0000
    43d0766e:	0000                	.insn	2, 0x0000
    43d07670:	10a2e8cf          	fnmadd.s	f17,f5,f10,f2,unknown
    43d07674:	0000                	.insn	2, 0x0000
    43d07676:	0000                	.insn	2, 0x0000
    43d07678:	10a2eccf          	fnmadd.s	f25,f5,f10,f2,unknown
    43d0767c:	0000                	.insn	2, 0x0000
    43d0767e:	0000                	.insn	2, 0x0000
    43d07680:	10a2f0cf          	fnmadd.s	f1,f5,f10,f2
    43d07684:	0000                	.insn	2, 0x0000
    43d07686:	0000                	.insn	2, 0x0000
    43d07688:	10a2f4cf          	fnmadd.s	f9,f5,f10,f2
    43d0768c:	0000                	.insn	2, 0x0000
    43d0768e:	0000                	.insn	2, 0x0000
    43d07690:	10a2f8cf          	fnmadd.s	f17,f5,f10,f2
    43d07694:	0000                	.insn	2, 0x0000
    43d07696:	0000                	.insn	2, 0x0000
    43d07698:	10a2fccf          	fnmadd.s	f25,f5,f10,f2
    43d0769c:	0000                	.insn	2, 0x0000
    43d0769e:	0000                	.insn	2, 0x0000
    43d076a0:	10a300cf          	fnmadd.s	f1,f6,f10,f2,rne
    43d076a4:	0000                	.insn	2, 0x0000
    43d076a6:	0000                	.insn	2, 0x0000
    43d076a8:	10a304cf          	fnmadd.s	f9,f6,f10,f2,rne
    43d076ac:	0000                	.insn	2, 0x0000
    43d076ae:	0000                	.insn	2, 0x0000
    43d076b0:	10a308cf          	fnmadd.s	f17,f6,f10,f2,rne
    43d076b4:	0000                	.insn	2, 0x0000
    43d076b6:	0000                	.insn	2, 0x0000
    43d076b8:	10a30ccf          	fnmadd.s	f25,f6,f10,f2,rne
    43d076bc:	0000                	.insn	2, 0x0000
    43d076be:	0000                	.insn	2, 0x0000
    43d076c0:	10a310cf          	fnmadd.s	f1,f6,f10,f2,rtz
    43d076c4:	0000                	.insn	2, 0x0000
    43d076c6:	0000                	.insn	2, 0x0000
    43d076c8:	10a314cf          	fnmadd.s	f9,f6,f10,f2,rtz
    43d076cc:	0000                	.insn	2, 0x0000
    43d076ce:	0000                	.insn	2, 0x0000
    43d076d0:	10a318cf          	fnmadd.s	f17,f6,f10,f2,rtz
    43d076d4:	0000                	.insn	2, 0x0000
    43d076d6:	0000                	.insn	2, 0x0000
    43d076d8:	10a31ccf          	fnmadd.s	f25,f6,f10,f2,rtz
    43d076dc:	0000                	.insn	2, 0x0000
    43d076de:	0000                	.insn	2, 0x0000
    43d076e0:	10a320cf          	fnmadd.s	f1,f6,f10,f2,rdn
    43d076e4:	0000                	.insn	2, 0x0000
    43d076e6:	0000                	.insn	2, 0x0000
    43d076e8:	10a324cf          	fnmadd.s	f9,f6,f10,f2,rdn
    43d076ec:	0000                	.insn	2, 0x0000
    43d076ee:	0000                	.insn	2, 0x0000
    43d076f0:	10a328cf          	fnmadd.s	f17,f6,f10,f2,rdn
    43d076f4:	0000                	.insn	2, 0x0000
    43d076f6:	0000                	.insn	2, 0x0000
    43d076f8:	10a32ccf          	fnmadd.s	f25,f6,f10,f2,rdn
    43d076fc:	0000                	.insn	2, 0x0000
    43d076fe:	0000                	.insn	2, 0x0000
    43d07700:	10a330cf          	fnmadd.s	f1,f6,f10,f2,rup
    43d07704:	0000                	.insn	2, 0x0000
    43d07706:	0000                	.insn	2, 0x0000
    43d07708:	10a334cf          	fnmadd.s	f9,f6,f10,f2,rup
    43d0770c:	0000                	.insn	2, 0x0000
    43d0770e:	0000                	.insn	2, 0x0000
    43d07710:	10a338cf          	fnmadd.s	f17,f6,f10,f2,rup
    43d07714:	0000                	.insn	2, 0x0000
    43d07716:	0000                	.insn	2, 0x0000
    43d07718:	10a33ccf          	fnmadd.s	f25,f6,f10,f2,rup
    43d0771c:	0000                	.insn	2, 0x0000
    43d0771e:	0000                	.insn	2, 0x0000
    43d07720:	10a340cf          	fnmadd.s	f1,f6,f10,f2,rmm
    43d07724:	0000                	.insn	2, 0x0000
    43d07726:	0000                	.insn	2, 0x0000
    43d07728:	10a344cf          	fnmadd.s	f9,f6,f10,f2,rmm
    43d0772c:	0000                	.insn	2, 0x0000
    43d0772e:	0000                	.insn	2, 0x0000
    43d07730:	10a348cf          	fnmadd.s	f17,f6,f10,f2,rmm
    43d07734:	0000                	.insn	2, 0x0000
    43d07736:	0000                	.insn	2, 0x0000
    43d07738:	10a34ccf          	fnmadd.s	f25,f6,f10,f2,rmm
    43d0773c:	0000                	.insn	2, 0x0000
    43d0773e:	0000                	.insn	2, 0x0000
    43d07740:	10a350cf          	fnmadd.s	f1,f6,f10,f2,unknown
    43d07744:	0000                	.insn	2, 0x0000
    43d07746:	0000                	.insn	2, 0x0000
    43d07748:	10a354cf          	fnmadd.s	f9,f6,f10,f2,unknown
    43d0774c:	0000                	.insn	2, 0x0000
    43d0774e:	0000                	.insn	2, 0x0000
    43d07750:	10a358cf          	fnmadd.s	f17,f6,f10,f2,unknown
    43d07754:	0000                	.insn	2, 0x0000
    43d07756:	0000                	.insn	2, 0x0000
    43d07758:	10a35ccf          	fnmadd.s	f25,f6,f10,f2,unknown
    43d0775c:	0000                	.insn	2, 0x0000
    43d0775e:	0000                	.insn	2, 0x0000
    43d07760:	10a360cf          	fnmadd.s	f1,f6,f10,f2,unknown
    43d07764:	0000                	.insn	2, 0x0000
    43d07766:	0000                	.insn	2, 0x0000
    43d07768:	10a364cf          	fnmadd.s	f9,f6,f10,f2,unknown
    43d0776c:	0000                	.insn	2, 0x0000
    43d0776e:	0000                	.insn	2, 0x0000
    43d07770:	10a368cf          	fnmadd.s	f17,f6,f10,f2,unknown
    43d07774:	0000                	.insn	2, 0x0000
    43d07776:	0000                	.insn	2, 0x0000
    43d07778:	10a36ccf          	fnmadd.s	f25,f6,f10,f2,unknown
    43d0777c:	0000                	.insn	2, 0x0000
    43d0777e:	0000                	.insn	2, 0x0000
    43d07780:	10a370cf          	fnmadd.s	f1,f6,f10,f2
    43d07784:	0000                	.insn	2, 0x0000
    43d07786:	0000                	.insn	2, 0x0000
    43d07788:	10a374cf          	fnmadd.s	f9,f6,f10,f2
    43d0778c:	0000                	.insn	2, 0x0000
    43d0778e:	0000                	.insn	2, 0x0000
    43d07790:	10a378cf          	fnmadd.s	f17,f6,f10,f2
    43d07794:	0000                	.insn	2, 0x0000
    43d07796:	0000                	.insn	2, 0x0000
    43d07798:	10a37ccf          	fnmadd.s	f25,f6,f10,f2
    43d0779c:	0000                	.insn	2, 0x0000
    43d0779e:	0000                	.insn	2, 0x0000
    43d077a0:	10a380cf          	fnmadd.s	f1,f7,f10,f2,rne
    43d077a4:	0000                	.insn	2, 0x0000
    43d077a6:	0000                	.insn	2, 0x0000
    43d077a8:	10a384cf          	fnmadd.s	f9,f7,f10,f2,rne
    43d077ac:	0000                	.insn	2, 0x0000
    43d077ae:	0000                	.insn	2, 0x0000
    43d077b0:	10a388cf          	fnmadd.s	f17,f7,f10,f2,rne
    43d077b4:	0000                	.insn	2, 0x0000
    43d077b6:	0000                	.insn	2, 0x0000
    43d077b8:	10a38ccf          	fnmadd.s	f25,f7,f10,f2,rne
    43d077bc:	0000                	.insn	2, 0x0000
    43d077be:	0000                	.insn	2, 0x0000
    43d077c0:	10a390cf          	fnmadd.s	f1,f7,f10,f2,rtz
    43d077c4:	0000                	.insn	2, 0x0000
    43d077c6:	0000                	.insn	2, 0x0000
    43d077c8:	10a394cf          	fnmadd.s	f9,f7,f10,f2,rtz
    43d077cc:	0000                	.insn	2, 0x0000
    43d077ce:	0000                	.insn	2, 0x0000
    43d077d0:	10a398cf          	fnmadd.s	f17,f7,f10,f2,rtz
    43d077d4:	0000                	.insn	2, 0x0000
    43d077d6:	0000                	.insn	2, 0x0000
    43d077d8:	10a39ccf          	fnmadd.s	f25,f7,f10,f2,rtz
    43d077dc:	0000                	.insn	2, 0x0000
    43d077de:	0000                	.insn	2, 0x0000
    43d077e0:	10a3a0cf          	fnmadd.s	f1,f7,f10,f2,rdn
    43d077e4:	0000                	.insn	2, 0x0000
    43d077e6:	0000                	.insn	2, 0x0000
    43d077e8:	10a3a4cf          	fnmadd.s	f9,f7,f10,f2,rdn
    43d077ec:	0000                	.insn	2, 0x0000
    43d077ee:	0000                	.insn	2, 0x0000
    43d077f0:	10a3a8cf          	fnmadd.s	f17,f7,f10,f2,rdn
    43d077f4:	0000                	.insn	2, 0x0000
    43d077f6:	0000                	.insn	2, 0x0000
    43d077f8:	10a3accf          	fnmadd.s	f25,f7,f10,f2,rdn
    43d077fc:	0000                	.insn	2, 0x0000
    43d077fe:	0000                	.insn	2, 0x0000
    43d07800:	10a3b0cf          	fnmadd.s	f1,f7,f10,f2,rup
    43d07804:	0000                	.insn	2, 0x0000
    43d07806:	0000                	.insn	2, 0x0000
    43d07808:	10a3b4cf          	fnmadd.s	f9,f7,f10,f2,rup
    43d0780c:	0000                	.insn	2, 0x0000
    43d0780e:	0000                	.insn	2, 0x0000
    43d07810:	10a3b8cf          	fnmadd.s	f17,f7,f10,f2,rup
    43d07814:	0000                	.insn	2, 0x0000
    43d07816:	0000                	.insn	2, 0x0000
    43d07818:	10a3bccf          	fnmadd.s	f25,f7,f10,f2,rup
    43d0781c:	0000                	.insn	2, 0x0000
    43d0781e:	0000                	.insn	2, 0x0000
    43d07820:	10a3c0cf          	fnmadd.s	f1,f7,f10,f2,rmm
    43d07824:	0000                	.insn	2, 0x0000
    43d07826:	0000                	.insn	2, 0x0000
    43d07828:	10a3c4cf          	fnmadd.s	f9,f7,f10,f2,rmm
    43d0782c:	0000                	.insn	2, 0x0000
    43d0782e:	0000                	.insn	2, 0x0000
    43d07830:	10a3c8cf          	fnmadd.s	f17,f7,f10,f2,rmm
    43d07834:	0000                	.insn	2, 0x0000
    43d07836:	0000                	.insn	2, 0x0000
    43d07838:	10a3cccf          	fnmadd.s	f25,f7,f10,f2,rmm
    43d0783c:	0000                	.insn	2, 0x0000
    43d0783e:	0000                	.insn	2, 0x0000
    43d07840:	10a3d0cf          	fnmadd.s	f1,f7,f10,f2,unknown
    43d07844:	0000                	.insn	2, 0x0000
    43d07846:	0000                	.insn	2, 0x0000
    43d07848:	10a3d4cf          	fnmadd.s	f9,f7,f10,f2,unknown
    43d0784c:	0000                	.insn	2, 0x0000
    43d0784e:	0000                	.insn	2, 0x0000
    43d07850:	10a3d8cf          	fnmadd.s	f17,f7,f10,f2,unknown
    43d07854:	0000                	.insn	2, 0x0000
    43d07856:	0000                	.insn	2, 0x0000
    43d07858:	10a3dccf          	fnmadd.s	f25,f7,f10,f2,unknown
    43d0785c:	0000                	.insn	2, 0x0000
    43d0785e:	0000                	.insn	2, 0x0000
    43d07860:	10a3e0cf          	fnmadd.s	f1,f7,f10,f2,unknown
    43d07864:	0000                	.insn	2, 0x0000
    43d07866:	0000                	.insn	2, 0x0000
    43d07868:	10a3e4cf          	fnmadd.s	f9,f7,f10,f2,unknown
    43d0786c:	0000                	.insn	2, 0x0000
    43d0786e:	0000                	.insn	2, 0x0000
    43d07870:	10a3e8cf          	fnmadd.s	f17,f7,f10,f2,unknown
    43d07874:	0000                	.insn	2, 0x0000
    43d07876:	0000                	.insn	2, 0x0000
    43d07878:	10a3eccf          	fnmadd.s	f25,f7,f10,f2,unknown
    43d0787c:	0000                	.insn	2, 0x0000
    43d0787e:	0000                	.insn	2, 0x0000
    43d07880:	10a3f0cf          	fnmadd.s	f1,f7,f10,f2
    43d07884:	0000                	.insn	2, 0x0000
    43d07886:	0000                	.insn	2, 0x0000
    43d07888:	10a3f4cf          	fnmadd.s	f9,f7,f10,f2
    43d0788c:	0000                	.insn	2, 0x0000
    43d0788e:	0000                	.insn	2, 0x0000
    43d07890:	10a3f8cf          	fnmadd.s	f17,f7,f10,f2
    43d07894:	0000                	.insn	2, 0x0000
    43d07896:	0000                	.insn	2, 0x0000
    43d07898:	10a3fccf          	fnmadd.s	f25,f7,f10,f2
    43d0789c:	0000                	.insn	2, 0x0000
    43d0789e:	0000                	.insn	2, 0x0000
    43d078a0:	00df 10a4 0000      	.insn	6, 0x10a400df
    43d078a6:	0000                	.insn	2, 0x0000
    43d078a8:	04df 10a4 0000      	.insn	6, 0x10a404df
    43d078ae:	0000                	.insn	2, 0x0000
    43d078b0:	08df 10a4 0000      	.insn	6, 0x10a408df
    43d078b6:	0000                	.insn	2, 0x0000
    43d078b8:	0cdf 10a4 0000      	.insn	6, 0x10a40cdf
    43d078be:	0000                	.insn	2, 0x0000
    43d078c0:	10df 10a4 0000      	.insn	6, 0x10a410df
    43d078c6:	0000                	.insn	2, 0x0000
    43d078c8:	14df 10a4 0000      	.insn	6, 0x10a414df
    43d078ce:	0000                	.insn	2, 0x0000
    43d078d0:	18df 10a4 0000      	.insn	6, 0x10a418df
    43d078d6:	0000                	.insn	2, 0x0000
    43d078d8:	1cdf 10a4 0000      	.insn	6, 0x10a41cdf
    43d078de:	0000                	.insn	2, 0x0000
    43d078e0:	20df 10a4 0000      	.insn	6, 0x10a420df
    43d078e6:	0000                	.insn	2, 0x0000
    43d078e8:	24df 10a4 0000      	.insn	6, 0x10a424df
    43d078ee:	0000                	.insn	2, 0x0000
    43d078f0:	28df 10a4 0000      	.insn	6, 0x10a428df
    43d078f6:	0000                	.insn	2, 0x0000
    43d078f8:	2cdf 10a4 0000      	.insn	6, 0x10a42cdf
    43d078fe:	0000                	.insn	2, 0x0000
    43d07900:	30df 10a4 0000      	.insn	6, 0x10a430df
    43d07906:	0000                	.insn	2, 0x0000
    43d07908:	34df 10a4 0000      	.insn	6, 0x10a434df
    43d0790e:	0000                	.insn	2, 0x0000
    43d07910:	38df 10a4 0000      	.insn	6, 0x10a438df
    43d07916:	0000                	.insn	2, 0x0000
    43d07918:	3cdf 10a4 0000      	.insn	6, 0x10a43cdf
    43d0791e:	0000                	.insn	2, 0x0000
    43d07920:	40df 10a4 0000      	.insn	6, 0x10a440df
    43d07926:	0000                	.insn	2, 0x0000
    43d07928:	44df 10a4 0000      	.insn	6, 0x10a444df
    43d0792e:	0000                	.insn	2, 0x0000
    43d07930:	48df 10a4 0000      	.insn	6, 0x10a448df
    43d07936:	0000                	.insn	2, 0x0000
    43d07938:	4cdf 10a4 0000      	.insn	6, 0x10a44cdf
    43d0793e:	0000                	.insn	2, 0x0000
    43d07940:	50df 10a4 0000      	.insn	6, 0x10a450df
    43d07946:	0000                	.insn	2, 0x0000
    43d07948:	54df 10a4 0000      	.insn	6, 0x10a454df
    43d0794e:	0000                	.insn	2, 0x0000
    43d07950:	58df 10a4 0000      	.insn	6, 0x10a458df
    43d07956:	0000                	.insn	2, 0x0000
    43d07958:	5cdf 10a4 0000      	.insn	6, 0x10a45cdf
    43d0795e:	0000                	.insn	2, 0x0000
    43d07960:	60df 10a4 0000      	.insn	6, 0x10a460df
    43d07966:	0000                	.insn	2, 0x0000
    43d07968:	64df 10a4 0000      	.insn	6, 0x10a464df
    43d0796e:	0000                	.insn	2, 0x0000
    43d07970:	68df 10a4 0000      	.insn	6, 0x10a468df
    43d07976:	0000                	.insn	2, 0x0000
    43d07978:	6cdf 10a4 0000      	.insn	6, 0x10a46cdf
    43d0797e:	0000                	.insn	2, 0x0000
    43d07980:	70df 10a4 0000      	.insn	6, 0x10a470df
    43d07986:	0000                	.insn	2, 0x0000
    43d07988:	74df 10a4 0000      	.insn	6, 0x10a474df
    43d0798e:	0000                	.insn	2, 0x0000
    43d07990:	78df 10a4 0000      	.insn	6, 0x10a478df
    43d07996:	0000                	.insn	2, 0x0000
    43d07998:	7cdf 10a4 0000      	.insn	6, 0x10a47cdf
    43d0799e:	0000                	.insn	2, 0x0000
    43d079a0:	80df 10a4 0000      	.insn	6, 0x10a480df
    43d079a6:	0000                	.insn	2, 0x0000
    43d079a8:	84df 10a4 0000      	.insn	6, 0x10a484df
    43d079ae:	0000                	.insn	2, 0x0000
    43d079b0:	88df 10a4 0000      	.insn	6, 0x10a488df
    43d079b6:	0000                	.insn	2, 0x0000
    43d079b8:	8cdf 10a4 0000      	.insn	6, 0x10a48cdf
    43d079be:	0000                	.insn	2, 0x0000
    43d079c0:	90df 10a4 0000      	.insn	6, 0x10a490df
    43d079c6:	0000                	.insn	2, 0x0000
    43d079c8:	94df 10a4 0000      	.insn	6, 0x10a494df
    43d079ce:	0000                	.insn	2, 0x0000
    43d079d0:	98df 10a4 0000      	.insn	6, 0x10a498df
    43d079d6:	0000                	.insn	2, 0x0000
    43d079d8:	9cdf 10a4 0000      	.insn	6, 0x10a49cdf
    43d079de:	0000                	.insn	2, 0x0000
    43d079e0:	a0df 10a4 0000      	.insn	6, 0x10a4a0df
    43d079e6:	0000                	.insn	2, 0x0000
    43d079e8:	a4df 10a4 0000      	.insn	6, 0x10a4a4df
    43d079ee:	0000                	.insn	2, 0x0000
    43d079f0:	a8df 10a4 0000      	.insn	6, 0x10a4a8df
    43d079f6:	0000                	.insn	2, 0x0000
    43d079f8:	acdf 10a4 0000      	.insn	6, 0x10a4acdf
    43d079fe:	0000                	.insn	2, 0x0000
    43d07a00:	b0df 10a4 0000      	.insn	6, 0x10a4b0df
    43d07a06:	0000                	.insn	2, 0x0000
    43d07a08:	b4df 10a4 0000      	.insn	6, 0x10a4b4df
    43d07a0e:	0000                	.insn	2, 0x0000
    43d07a10:	b8df 10a4 0000      	.insn	6, 0x10a4b8df
    43d07a16:	0000                	.insn	2, 0x0000
    43d07a18:	bcdf 10a4 0000      	.insn	6, 0x10a4bcdf
    43d07a1e:	0000                	.insn	2, 0x0000
    43d07a20:	c0df 10a4 0000      	.insn	6, 0x10a4c0df
    43d07a26:	0000                	.insn	2, 0x0000
    43d07a28:	c4df 10a4 0000      	.insn	6, 0x10a4c4df
    43d07a2e:	0000                	.insn	2, 0x0000
    43d07a30:	c8df 10a4 0000      	.insn	6, 0x10a4c8df
    43d07a36:	0000                	.insn	2, 0x0000
    43d07a38:	ccdf 10a4 0000      	.insn	6, 0x10a4ccdf
    43d07a3e:	0000                	.insn	2, 0x0000
    43d07a40:	d0df 10a4 0000      	.insn	6, 0x10a4d0df
    43d07a46:	0000                	.insn	2, 0x0000
    43d07a48:	d4df 10a4 0000      	.insn	6, 0x10a4d4df
    43d07a4e:	0000                	.insn	2, 0x0000
    43d07a50:	d8df 10a4 0000      	.insn	6, 0x10a4d8df
    43d07a56:	0000                	.insn	2, 0x0000
    43d07a58:	dcdf 10a4 0000      	.insn	6, 0x10a4dcdf
    43d07a5e:	0000                	.insn	2, 0x0000
    43d07a60:	e0df 10a4 0000      	.insn	6, 0x10a4e0df
    43d07a66:	0000                	.insn	2, 0x0000
    43d07a68:	e4df 10a4 0000      	.insn	6, 0x10a4e4df
    43d07a6e:	0000                	.insn	2, 0x0000
    43d07a70:	e8df 10a4 0000      	.insn	6, 0x10a4e8df
    43d07a76:	0000                	.insn	2, 0x0000
    43d07a78:	ecdf 10a4 0000      	.insn	6, 0x10a4ecdf
    43d07a7e:	0000                	.insn	2, 0x0000
    43d07a80:	f0df 10a4 0000      	.insn	6, 0x10a4f0df
    43d07a86:	0000                	.insn	2, 0x0000
    43d07a88:	f4df 10a4 0000      	.insn	6, 0x10a4f4df
    43d07a8e:	0000                	.insn	2, 0x0000
    43d07a90:	f8df 10a4 0000      	.insn	6, 0x10a4f8df
    43d07a96:	0000                	.insn	2, 0x0000
    43d07a98:	fcdf 10a4 0000      	.insn	6, 0x10a4fcdf
    43d07a9e:	0000                	.insn	2, 0x0000
    43d07aa0:	00df 10a5 0000      	.insn	6, 0x10a500df
    43d07aa6:	0000                	.insn	2, 0x0000
    43d07aa8:	04df 10a5 0000      	.insn	6, 0x10a504df
    43d07aae:	0000                	.insn	2, 0x0000
    43d07ab0:	08df 10a5 0000      	.insn	6, 0x10a508df
    43d07ab6:	0000                	.insn	2, 0x0000
    43d07ab8:	0cdf 10a5 0000      	.insn	6, 0x10a50cdf
    43d07abe:	0000                	.insn	2, 0x0000
    43d07ac0:	10df 10a5 0000      	.insn	6, 0x10a510df
    43d07ac6:	0000                	.insn	2, 0x0000
    43d07ac8:	14df 10a5 0000      	.insn	6, 0x10a514df
    43d07ace:	0000                	.insn	2, 0x0000
    43d07ad0:	18df 10a5 0000      	.insn	6, 0x10a518df
    43d07ad6:	0000                	.insn	2, 0x0000
    43d07ad8:	1cdf 10a5 0000      	.insn	6, 0x10a51cdf
    43d07ade:	0000                	.insn	2, 0x0000
    43d07ae0:	20df 10a5 0000      	.insn	6, 0x10a520df
    43d07ae6:	0000                	.insn	2, 0x0000
    43d07ae8:	24df 10a5 0000      	.insn	6, 0x10a524df
    43d07aee:	0000                	.insn	2, 0x0000
    43d07af0:	28df 10a5 0000      	.insn	6, 0x10a528df
    43d07af6:	0000                	.insn	2, 0x0000
    43d07af8:	2cdf 10a5 0000      	.insn	6, 0x10a52cdf
    43d07afe:	0000                	.insn	2, 0x0000
    43d07b00:	30df 10a5 0000      	.insn	6, 0x10a530df
    43d07b06:	0000                	.insn	2, 0x0000
    43d07b08:	34df 10a5 0000      	.insn	6, 0x10a534df
    43d07b0e:	0000                	.insn	2, 0x0000
    43d07b10:	38df 10a5 0000      	.insn	6, 0x10a538df
    43d07b16:	0000                	.insn	2, 0x0000
    43d07b18:	3cdf 10a5 0000      	.insn	6, 0x10a53cdf
    43d07b1e:	0000                	.insn	2, 0x0000
    43d07b20:	40df 10a5 0000      	.insn	6, 0x10a540df
    43d07b26:	0000                	.insn	2, 0x0000
    43d07b28:	44df 10a5 0000      	.insn	6, 0x10a544df
    43d07b2e:	0000                	.insn	2, 0x0000
    43d07b30:	48df 10a5 0000      	.insn	6, 0x10a548df
    43d07b36:	0000                	.insn	2, 0x0000
    43d07b38:	4cdf 10a5 0000      	.insn	6, 0x10a54cdf
    43d07b3e:	0000                	.insn	2, 0x0000
    43d07b40:	50df 10a5 0000      	.insn	6, 0x10a550df
    43d07b46:	0000                	.insn	2, 0x0000
    43d07b48:	54df 10a5 0000      	.insn	6, 0x10a554df
    43d07b4e:	0000                	.insn	2, 0x0000
    43d07b50:	58df 10a5 0000      	.insn	6, 0x10a558df
    43d07b56:	0000                	.insn	2, 0x0000
    43d07b58:	5cdf 10a5 0000      	.insn	6, 0x10a55cdf
    43d07b5e:	0000                	.insn	2, 0x0000
    43d07b60:	60df 10a5 0000      	.insn	6, 0x10a560df
    43d07b66:	0000                	.insn	2, 0x0000
    43d07b68:	64df 10a5 0000      	.insn	6, 0x10a564df
    43d07b6e:	0000                	.insn	2, 0x0000
    43d07b70:	68df 10a5 0000      	.insn	6, 0x10a568df
    43d07b76:	0000                	.insn	2, 0x0000
    43d07b78:	6cdf 10a5 0000      	.insn	6, 0x10a56cdf
    43d07b7e:	0000                	.insn	2, 0x0000
    43d07b80:	70df 10a5 0000      	.insn	6, 0x10a570df
    43d07b86:	0000                	.insn	2, 0x0000
    43d07b88:	74df 10a5 0000      	.insn	6, 0x10a574df
    43d07b8e:	0000                	.insn	2, 0x0000
    43d07b90:	78df 10a5 0000      	.insn	6, 0x10a578df
    43d07b96:	0000                	.insn	2, 0x0000
    43d07b98:	7cdf 10a5 0000      	.insn	6, 0x10a57cdf
    43d07b9e:	0000                	.insn	2, 0x0000
    43d07ba0:	80df 10a5 0000      	.insn	6, 0x10a580df
    43d07ba6:	0000                	.insn	2, 0x0000
    43d07ba8:	84df 10a5 0000      	.insn	6, 0x10a584df
    43d07bae:	0000                	.insn	2, 0x0000
    43d07bb0:	88df 10a5 0000      	.insn	6, 0x10a588df
    43d07bb6:	0000                	.insn	2, 0x0000
    43d07bb8:	8cdf 10a5 0000      	.insn	6, 0x10a58cdf
    43d07bbe:	0000                	.insn	2, 0x0000
    43d07bc0:	90df 10a5 0000      	.insn	6, 0x10a590df
    43d07bc6:	0000                	.insn	2, 0x0000
    43d07bc8:	94df 10a5 0000      	.insn	6, 0x10a594df
    43d07bce:	0000                	.insn	2, 0x0000
    43d07bd0:	98df 10a5 0000      	.insn	6, 0x10a598df
    43d07bd6:	0000                	.insn	2, 0x0000
    43d07bd8:	9cdf 10a5 0000      	.insn	6, 0x10a59cdf
    43d07bde:	0000                	.insn	2, 0x0000
    43d07be0:	a0df 10a5 0000      	.insn	6, 0x10a5a0df
    43d07be6:	0000                	.insn	2, 0x0000
    43d07be8:	a4df 10a5 0000      	.insn	6, 0x10a5a4df
    43d07bee:	0000                	.insn	2, 0x0000
    43d07bf0:	a8df 10a5 0000      	.insn	6, 0x10a5a8df
    43d07bf6:	0000                	.insn	2, 0x0000
    43d07bf8:	acdf 10a5 0000      	.insn	6, 0x10a5acdf
    43d07bfe:	0000                	.insn	2, 0x0000
    43d07c00:	b0df 10a5 0000      	.insn	6, 0x10a5b0df
    43d07c06:	0000                	.insn	2, 0x0000
    43d07c08:	b4df 10a5 0000      	.insn	6, 0x10a5b4df
    43d07c0e:	0000                	.insn	2, 0x0000
    43d07c10:	b8df 10a5 0000      	.insn	6, 0x10a5b8df
    43d07c16:	0000                	.insn	2, 0x0000
    43d07c18:	bcdf 10a5 0000      	.insn	6, 0x10a5bcdf
    43d07c1e:	0000                	.insn	2, 0x0000
    43d07c20:	c0df 10a5 0000      	.insn	6, 0x10a5c0df
    43d07c26:	0000                	.insn	2, 0x0000
    43d07c28:	c4df 10a5 0000      	.insn	6, 0x10a5c4df
    43d07c2e:	0000                	.insn	2, 0x0000
    43d07c30:	c8df 10a5 0000      	.insn	6, 0x10a5c8df
    43d07c36:	0000                	.insn	2, 0x0000
    43d07c38:	ccdf 10a5 0000      	.insn	6, 0x10a5ccdf
    43d07c3e:	0000                	.insn	2, 0x0000
    43d07c40:	d0df 10a5 0000      	.insn	6, 0x10a5d0df
    43d07c46:	0000                	.insn	2, 0x0000
    43d07c48:	d4df 10a5 0000      	.insn	6, 0x10a5d4df
    43d07c4e:	0000                	.insn	2, 0x0000
    43d07c50:	d8df 10a5 0000      	.insn	6, 0x10a5d8df
    43d07c56:	0000                	.insn	2, 0x0000
    43d07c58:	dcdf 10a5 0000      	.insn	6, 0x10a5dcdf
    43d07c5e:	0000                	.insn	2, 0x0000
    43d07c60:	e0df 10a5 0000      	.insn	6, 0x10a5e0df
    43d07c66:	0000                	.insn	2, 0x0000
    43d07c68:	e4df 10a5 0000      	.insn	6, 0x10a5e4df
    43d07c6e:	0000                	.insn	2, 0x0000
    43d07c70:	e8df 10a5 0000      	.insn	6, 0x10a5e8df
    43d07c76:	0000                	.insn	2, 0x0000
    43d07c78:	ecdf 10a5 0000      	.insn	6, 0x10a5ecdf
    43d07c7e:	0000                	.insn	2, 0x0000
    43d07c80:	f0df 10a5 0000      	.insn	6, 0x10a5f0df
    43d07c86:	0000                	.insn	2, 0x0000
    43d07c88:	f4df 10a5 0000      	.insn	6, 0x10a5f4df
    43d07c8e:	0000                	.insn	2, 0x0000
    43d07c90:	f8df 10a5 0000      	.insn	6, 0x10a5f8df
    43d07c96:	0000                	.insn	2, 0x0000
    43d07c98:	fcdf 10a5 0000      	.insn	6, 0x10a5fcdf
	...

Disassembly of section .__pagetable_map_os_0x00000000430cf000:

00000000430cf000 <__pagetable_map_os_0x00000000430cf000>:
	...
    430cf0a8:	10a804cf          	fnmadd.s	f9,f16,f10,f2,rne
    430cf0ac:	0000                	.insn	2, 0x0000
	...

Disassembly of section .__pagetable_map_os_0x0000000043253000:

0000000043253000 <__pagetable_map_os_0x0000000043253000>:
	...
    43253010:	10a808cf          	fnmadd.s	f17,f16,f10,f2,rne
    43253014:	0000                	.insn	2, 0x0000
	...

Disassembly of section .__pagetable_map_os_0x00000000412e7000:

00000000412e7000 <__pagetable_map_os_0x00000000412e7000>:
	...
    412e7220:	10fa90c7          	fmsub.s	f1,f21,f15,f2,rtz
    412e7224:	0000                	.insn	2, 0x0000
	...

Disassembly of section .__pagetable_map_os_0x0000000043da4000:

0000000043da4000 <__pagetable_map_os_0x0000000043da4000>:
	...
    43da45d8:	10a808cf          	fnmadd.s	f17,f16,f10,f2,rne
    43da45dc:	0000                	.insn	2, 0x0000
	...

Disassembly of section .__pagetable_map_os_0x0000000043bf4000:

0000000043bf4000 <__pagetable_map_os_0x0000000043bf4000>:
    43bf4000:	8801                	.insn	2, 0x8801
    43bf4002:	10f9                	.insn	2, 0x10f9
    43bf4004:	0000                	.insn	2, 0x0000
    43bf4006:	0000                	.insn	2, 0x0000
    43bf4008:	3c01                	.insn	2, 0x3c01
    43bf400a:	1085                	.insn	2, 0x1085
	...
    43bf4030:	0401                	.insn	2, 0x0401
    43bf4032:	10e8                	.insn	2, 0x10e8
    43bf4034:	0000                	.insn	2, 0x0000
    43bf4036:	0000                	.insn	2, 0x0000
    43bf4038:	2c01                	.insn	2, 0x2c01
    43bf403a:	10f0                	.insn	2, 0x10f0
    43bf403c:	0000                	.insn	2, 0x0000
    43bf403e:	0000                	.insn	2, 0x0000
    43bf4040:	6001                	.insn	2, 0x6001
    43bf4042:	10fa                	.insn	2, 0x10fa
    43bf4044:	0000                	.insn	2, 0x0000
    43bf4046:	0000                	.insn	2, 0x0000
    43bf4048:	7801                	.insn	2, 0x7801
    43bf404a:	10df 0000 0000      	.insn	6, 0x10df
	...
    43bf40f8:	7001                	.insn	2, 0x7001
    43bf40fa:	10f9                	.insn	2, 0x10f9
	...
    43bf4310:	7401                	.insn	2, 0x7401
    43bf4312:	10f9                	.insn	2, 0x10f9
	...
    43bf43f0:	8401                	.insn	2, 0x8401
    43bf43f2:	107e                	.insn	2, 0x107e
    43bf43f4:	0000                	.insn	2, 0x0000
    43bf43f6:	0000                	.insn	2, 0x0000
    43bf43f8:	6401                	.insn	2, 0x6401
    43bf43fa:	10d9                	.insn	2, 0x10d9
	...
    43bf44a0:	9401                	.insn	2, 0x9401
    43bf44a2:	10f9                	.insn	2, 0x10f9
	...
    43bf45d0:	3801                	.insn	2, 0x3801
    43bf45d2:	000010cb          	fnmsub.s	f1,f0,f0,f0,rtz
	...
    43bf4e4e:	0000                	.insn	2, 0x0000
    43bf4e50:	9001                	.insn	2, 0x9001
    43bf4e52:	10ed                	.insn	2, 0x10ed
	...
    43bf4e68:	7c01                	.insn	2, 0x7c01
    43bf4e6a:	10f9                	.insn	2, 0x10f9
    43bf4e6c:	0000                	.insn	2, 0x0000
	...

Disassembly of section .__pagetable_map_os_0x0000000043e62000:

0000000043e62000 <__pagetable_map_os_0x0000000043e62000>:
	...
    43e62008:	10a808cf          	fnmadd.s	f17,f16,f10,f2,rne
    43e6200c:	0000                	.insn	2, 0x0000
    43e6200e:	0000                	.insn	2, 0x0000
    43e62010:	10fb38c7          	fmsub.s	f17,f22,f15,f2,rup
	...
    43e62020:	10f930cf          	fnmadd.s	f1,f18,f15,f2,rup
	...
    43e62048:	10e874cf          	fnmadd.s	f9,f16,f14,f2
	...
    43e62060:	10f848cf          	fnmadd.s	f17,f16,f15,f2,rmm
	...
    43e62178:	107e68cf          	fnmadd.s	f17,f28,f7,f2,unknown
	...
    43e621d8:	104b5ccf          	fnmadd.s	f25,f22,f4,f2,unknown
	...
    43e621e8:	10f63ccf          	fnmadd.s	f25,f12,f15,f2,rup
	...
    43e62248:	10f574cf          	fnmadd.s	f9,f10,f15,f2
	...
    43e62270:	10d740cf          	fnmadd.s	f1,f14,f13,f2,rmm
    43e62274:	0000                	.insn	2, 0x0000
    43e62276:	0000                	.insn	2, 0x0000
    43e62278:	10d744cf          	fnmadd.s	f9,f14,f13,f2,rmm
	...
    43e622b0:	10e650cf          	fnmadd.s	f1,f12,f14,f2,unknown
	...
    43e62450:	10a808cf          	fnmadd.s	f17,f16,f10,f2,rne
	...
    43e62580:	10f030cf          	fnmadd.s	f1,f0,f15,f2,rup
	...
    43e62598:	10f9d0cf          	fnmadd.s	f1,f19,f15,f2,unknown
	...
    43e62908:	10f048cf          	fnmadd.s	f17,f0,f15,f2,rmm
	...
    43e62d08:	113fb4cf          	fnmadd.s	f9,f31,f19,f2,rup
	...
    43e62f58:	10f954cf          	fnmadd.s	f9,f18,f15,f2,unknown
	...
    43e62fa0:	10a808cf          	fnmadd.s	f17,f16,f10,f2,rne
    43e62fa4:	0000                	.insn	2, 0x0000
	...

Disassembly of section .__pagetable_map_os_0x0000000043e65000:

0000000043e65000 <__pagetable_map_os_0x0000000043e65000>:
	...
    43e659a0:	10e134c7          	fmsub.s	f9,f2,f14,f2,rup
    43e659a4:	0000                	.insn	2, 0x0000
	...

Disassembly of section .__pagetable_map_os_0x0000000043b64000:

0000000043b64000 <__pagetable_map_os_0x0000000043b64000>:
	...
    43b643c0:	10f9b8c7          	fmsub.s	f17,f19,f15,f2,rup
    43b643c4:	0000                	.insn	2, 0x0000
	...

Disassembly of section .__pagetable_map_os_0x0000000043e5c000:

0000000043e5c000 <__pagetable_map_os_0x0000000043e5c000>:
	...
    43e5cbf0:	10f984c7          	fmsub.s	f9,f19,f15,f2,rne
	...
    43e5cda8:	10a808cf          	fnmadd.s	f17,f16,f10,f2,rne
    43e5cdac:	0000                	.insn	2, 0x0000
	...

Disassembly of section .__pagetable_map_os_0x00000000437de000:

00000000437de000 <__pagetable_map_os_0x00000000437de000>:
	...
    437de580:	104b7cc7          	fmsub.s	f25,f22,f4,f2
    437de584:	0000                	.insn	2, 0x0000
	...

Disassembly of section .__pagetable_map_os_0x0000000043a01000:

0000000043a01000 <__pagetable_map_os_0x0000000043a01000>:
	...
    43a01a90:	10a818cf          	fnmadd.s	f17,f16,f10,f2,rtz
    43a01a94:	0000                	.insn	2, 0x0000
	...

Disassembly of section .__pagetable_map_os_0x0000000043e98000:

0000000043e98000 <__pagetable_map_os_0x0000000043e98000>:
	...
    43e98da8:	10e8d4cf          	fnmadd.s	f9,f17,f14,f2,unknown
    43e98dac:	0000                	.insn	2, 0x0000
	...

Disassembly of section .__pagetable_map_os_0x0000000041fa1000:

0000000041fa1000 <__pagetable_map_os_0x0000000041fa1000>:
	...
    41fa1f30:	10a808cf          	fnmadd.s	f17,f16,f10,f2,rne
    41fa1f34:	0000                	.insn	2, 0x0000
	...

Disassembly of section .__pagetable_map_os_0x0000000043c0b000:

0000000043c0b000 <__pagetable_map_os_0x0000000043c0b000>:
	...
    43c0ba10:	104b64cf          	fnmadd.s	f9,f22,f4,f2,unknown
    43c0ba14:	0000                	.insn	2, 0x0000
	...

Disassembly of section .__pagetable_map_os_0x0000000043659000:

0000000043659000 <__pagetable_map_os_0x0000000043659000>:
	...
    43659ad8:	10f8f8cf          	fnmadd.s	f17,f17,f15,f2
    43659adc:	0000                	.insn	2, 0x0000
	...

Disassembly of section .__pagetable_map_os_0x0000000043e5f000:

0000000043e5f000 <__pagetable_map_os_0x0000000043e5f000>:
	...
    43e5f210:	10a808cf          	fnmadd.s	f17,f16,f10,f2,rne
    43e5f214:	0000                	.insn	2, 0x0000
	...

Disassembly of section .__pagetable_map_os_0x000000004214f000:

000000004214f000 <__pagetable_map_os_0x000000004214f000>:
	...
    4214fde0:	10dea0cf          	fnmadd.s	f1,f29,f13,f2,rdn
	...
    4214ff90:	10fe9ccf          	fnmadd.s	f25,f29,f15,f2,rtz
    4214ff94:	0000                	.insn	2, 0x0000
	...

Disassembly of section .__pagetable_map_os_0x00000000432ce000:

00000000432ce000 <__pagetable_map_os_0x00000000432ce000>:
	...
    432ce648:	10f9a8cf          	fnmadd.s	f17,f19,f15,f2,rdn
    432ce64c:	0000                	.insn	2, 0x0000
	...

Disassembly of section .__pagetable_map_os_0x0000000043e5d000:

0000000043e5d000 <__pagetable_map_os_0x0000000043e5d000>:
	...
    43e5d1e8:	10e7fccf          	fnmadd.s	f25,f15,f14,f2
    43e5d1ec:	0000                	.insn	2, 0x0000
	...

Disassembly of section .__pagetable_map_os_0x0000000043ecd000:

0000000043ecd000 <__pagetable_map_os_0x0000000043ecd000>:
	...
    43ecdb88:	4c01                	.insn	2, 0x4c01
    43ecdb8a:	000010ef          	jal	43eceb8a <SID_SVINVAL_04_invalidation_sequence_2_multiple_vas_stack_pa+0xb8a>
	...

Disassembly of section .__pagetable_map_os_0x0000000043bd3000:

0000000043bd3000 <__pagetable_map_os_0x0000000043bd3000>:
	...
    43bd38f0:	10f06ccf          	fnmadd.s	f25,f0,f15,f2,unknown
    43bd38f4:	0000                	.insn	2, 0x0000
	...

Disassembly of section .__pagetable_map_os_0x0000000043ea2000:

0000000043ea2000 <__pagetable_map_os_0x0000000043ea2000>:
	...
    43ea28a8:	9c01                	.insn	2, 0x9c01
    43ea28aa:	10de                	.insn	2, 0x10de
    43ea28ac:	0000                	.insn	2, 0x0000
	...

Disassembly of section .__pagetable_map_os_0x00000000437a7000:

00000000437a7000 <__pagetable_map_os_0x00000000437a7000>:
	...
    437a7c00:	10f058c7          	fmsub.s	f17,f0,f15,f2,unknown
    437a7c04:	0000                	.insn	2, 0x0000
	...

Disassembly of section .__pagetable_map_os_0x00000000437c1000:

00000000437c1000 <__pagetable_map_os_0x00000000437c1000>:
	...
    437c1e90:	0001                	.insn	2, 0x0001
    437c1e92:	10ee                	.insn	2, 0x10ee
    437c1e94:	0000                	.insn	2, 0x0000
	...

Disassembly of section .__pagetable_map_os_0x0000000043b80000:

0000000043b80000 <__pagetable_map_os_0x0000000043b80000>:
	...
    43b808c8:	113bd8c7          	fmsub.s	f17,f23,f19,f2,unknown
    43b808cc:	0000                	.insn	2, 0x0000
	...

Disassembly of section .__pagetable_map_os_0x0000000043e69000:

0000000043e69000 <__pagetable_map_os_0x0000000043e69000>:
	...
    43e69f50:	0801                	.insn	2, 0x0801
    43e69f52:	10f0                	.insn	2, 0x10f0
    43e69f54:	0000                	.insn	2, 0x0000
	...

Disassembly of section .__pagetable_map_os_0x0000000043c02000:

0000000043c02000 <__pagetable_map_os_0x0000000043c02000>:
	...
    43c02598:	10f024c7          	fmsub.s	f9,f0,f15,f2,rdn
    43c0259c:	0000                	.insn	2, 0x0000
	...

Disassembly of section .__pagetable_map_os_0x0000000043992000:

0000000043992000 <__pagetable_map_os_0x0000000043992000>:
	...
    43992420:	8c01                	.insn	2, 0x8c01
    43992422:	0000104b          	fnmsub.s	f0,f0,f0,f0,rtz
	...
    439926c6:	0000                	.insn	2, 0x0000
    439926c8:	5001                	.insn	2, 0x5001
    439926ca:	000010fb          	.insn	4, 0x10fb
	...

Disassembly of section .__pagetable_map_os_0x00000000412e3000:

00000000412e3000 <__pagetable_map_os_0x00000000412e3000>:
	...
    412e3378:	10dd28cf          	fnmadd.s	f17,f26,f13,f2,rdn
    412e337c:	0000                	.insn	2, 0x0000
	...

Disassembly of section .__pagetable_map_os_0x0000000043ed4000:

0000000043ed4000 <__pagetable_map_os_0x0000000043ed4000>:
	...
    43ed4f48:	10a808cf          	fnmadd.s	f17,f16,f10,f2,rne
    43ed4f4c:	0000                	.insn	2, 0x0000
	...

Disassembly of section .__pagetable_map_os_0x0000000043c0a000:

0000000043c0a000 <__pagetable_map_os_0x0000000043c0a000>:
	...
    43c0ae88:	bc01                	.insn	2, 0xbc01
    43c0ae8a:	107e                	.insn	2, 0x107e
    43c0ae8c:	0000                	.insn	2, 0x0000
	...

Disassembly of section .__pagetable_map_os_0x0000000041faf000:

0000000041faf000 <__pagetable_map_os_0x0000000041faf000>:
	...
    41faffe8:	10c698cf          	fnmadd.s	f17,f13,f12,f2,rtz
    41faffec:	0000                	.insn	2, 0x0000
	...

Disassembly of section .__pagetable_map_os_0x00000000412e8000:

00000000412e8000 <__pagetable_map_os_0x00000000412e8000>:
	...
    412e8598:	5001                	.insn	2, 0x5001
    412e859a:	10c9                	.insn	2, 0x10c9
    412e859c:	0000                	.insn	2, 0x0000
	...

Disassembly of section .__pagetable_map_os_0x0000000043254000:

0000000043254000 <__pagetable_map_os_0x0000000043254000>:
	...
    43254be0:	10fa74cf          	fnmadd.s	f9,f20,f15,f2
    43254be4:	0000                	.insn	2, 0x0000
	...

Disassembly of section .__pagetable_map_os_0x0000000043993000:

0000000043993000 <__pagetable_map_os_0x0000000043993000>:
	...
    43993818:	1001                	.insn	2, 0x1001
    4399381a:	10f0                	.insn	2, 0x10f0
    4399381c:	0000                	.insn	2, 0x0000
	...

Disassembly of section .__pagetable_map_os_0x0000000043c04000:

0000000043c04000 <__pagetable_map_os_0x0000000043c04000>:
	...
    43c04028:	10e138cf          	fnmadd.s	f17,f2,f14,f2,rup
    43c0402c:	0000                	.insn	2, 0x0000
	...

Disassembly of section .__pagetable_map_os_0x0000000043c18000:

0000000043c18000 <__pagetable_map_os_0x0000000043c18000>:
	...
    43c18328:	ec01                	.insn	2, 0xec01
    43c1832a:	000010f7          	.insn	4, 0x10f7
	...

Disassembly of section .__pagetable_map_os_0x0000000043dfb000:

0000000043dfb000 <__pagetable_map_os_0x0000000043dfb000>:
	...
    43dfbe48:	10cbaccf          	fnmadd.s	f25,f23,f12,f2,rdn
    43dfbe4c:	0000                	.insn	2, 0x0000
	...

Disassembly of section .__pagetable_map_os_0x0000000043c0e000:

0000000043c0e000 <__pagetable_map_os_0x0000000043c0e000>:
	...
    43c0e858:	a801                	.insn	2, 0xa801
    43c0e85a:	1119                	.insn	2, 0x1119
    43c0e85c:	0000                	.insn	2, 0x0000
	...

Disassembly of section .__pagetable_map_os_0x000000004466a000:

000000004466a000 <__pagetable_map_os_0x000000004466a000>:
	...
    4466a528:	10e638cf          	fnmadd.s	f17,f12,f14,f2,rup
    4466a52c:	0000                	.insn	2, 0x0000
	...

Disassembly of section .__pagetable_map_os_0x0000000043c0f000:

0000000043c0f000 <__pagetable_map_os_0x0000000043c0f000>:
	...
    43c0f5e8:	fc01                	.insn	2, 0xfc01
    43c0f5ea:	10f8                	.insn	2, 0x10f8
    43c0f5ec:	0000                	.insn	2, 0x0000
	...

Disassembly of section .__pagetable_map_os_0x0000000043e3f000:

0000000043e3f000 <__pagetable_map_os_0x0000000043e3f000>:
	...
    43e3fb60:	10f844cf          	fnmadd.s	f9,f16,f15,f2,rmm
    43e3fb64:	0000                	.insn	2, 0x0000
	...

Disassembly of section .__pagetable_map_os_0x0000000043b92000:

0000000043b92000 <__pagetable_map_os_0x0000000043b92000>:
	...
    43b928f0:	8401                	.insn	2, 0x8401
    43b928f2:	000010cb          	fnmsub.s	f1,f0,f0,f0,rtz
	...

Disassembly of section .__pagetable_map_os_0x00000000432e1000:

00000000432e1000 <__pagetable_map_os_0x00000000432e1000>:
	...
    432e1e00:	10e664cf          	fnmadd.s	f9,f12,f14,f2,unknown
    432e1e04:	0000                	.insn	2, 0x0000
	...

Disassembly of section .__pagetable_map_os_0x0000000043e63000:

0000000043e63000 <__pagetable_map_os_0x0000000043e63000>:
	...
    43e63a98:	4401                	.insn	2, 0x4401
    43e63a9a:	10f0                	.insn	2, 0x10f0
    43e63a9c:	0000                	.insn	2, 0x0000
	...

Disassembly of section .__pagetable_map_os_0x0000000043c11000:

0000000043c11000 <__pagetable_map_os_0x0000000043c11000>:
	...
    43c11588:	9c01                	.insn	2, 0x9c01
    43c1158a:	10e6                	.insn	2, 0x10e6
    43c1158c:	0000                	.insn	2, 0x0000
	...

Disassembly of section .__pagetable_map_os_0x00000000439a7000:

00000000439a7000 <__pagetable_map_os_0x00000000439a7000>:
	...
    439a7b40:	10fb40cf          	fnmadd.s	f1,f22,f15,f2,rmm
    439a7b44:	0000                	.insn	2, 0x0000
    439a7b46:	0000                	.insn	2, 0x0000
    439a7b48:	10fb44cf          	fnmadd.s	f9,f22,f15,f2,rmm
    439a7b4c:	0000                	.insn	2, 0x0000
	...

Disassembly of section .__pagetable_map_os_0x0000000043ea5000:

0000000043ea5000 <__pagetable_map_os_0x0000000043ea5000>:
	...
    43ea5300:	7801                	.insn	2, 0x7801
    43ea5302:	0000104b          	fnmsub.s	f0,f0,f0,f0,rtz
	...

Disassembly of section .__pagetable_map_os_0x00000000412de000:

00000000412de000 <__pagetable_map_os_0x00000000412de000>:
	...
    412de690:	3001                	.insn	2, 0x3001
    412de692:	000010fb          	.insn	4, 0x10fb
	...

Disassembly of section .__pagetable_map_os_0x0000000043ecc000:

0000000043ecc000 <__pagetable_map_os_0x0000000043ecc000>:
	...
    43eccdd0:	104beccf          	fnmadd.s	f25,f23,f4,f2,unknown
    43eccdd4:	0000                	.insn	2, 0x0000
	...

Disassembly of section .__pagetable_map_os_0x0000000043e6b000:

0000000043e6b000 <__pagetable_map_os_0x0000000043e6b000>:
	...
    43e6b8e8:	5c01                	.insn	2, 0x5c01
    43e6b8ea:	10c9                	.insn	2, 0x10c9
    43e6b8ec:	0000                	.insn	2, 0x0000
	...

Disassembly of section .__pagetable_map_os_0x0000000043257000:

0000000043257000 <__pagetable_map_os_0x0000000043257000>:
	...
    432570c8:	5c01                	.insn	2, 0x5c01
    432570ca:	10e6                	.insn	2, 0x10e6
    432570cc:	0000                	.insn	2, 0x0000
	...

Disassembly of section .__pagetable_map_os_0x0000000043997000:

0000000043997000 <__pagetable_map_os_0x0000000043997000>:
	...
    439976b8:	10f7e8c7          	fmsub.s	f17,f15,f15,f2,unknown
    439976bc:	0000                	.insn	2, 0x0000
	...

Disassembly of section .__pagetable_map_os_0x0000000043a49000:

0000000043a49000 <__pagetable_map_os_0x0000000043a49000>:
	...
    43a49a98:	7801                	.insn	2, 0x7801
    43a49a9a:	10de                	.insn	2, 0x10de
    43a49a9c:	0000                	.insn	2, 0x0000
	...

Disassembly of section .__pagetable_map_os_0x000000004379e000:

000000004379e000 <__pagetable_map_os_0x000000004379e000>:
	...
    4379ef50:	b001                	.insn	2, 0xb001
    4379ef52:	00000000113f 	.6byte	0x00000000113f

Disassembly of section .__pagetable_map_os_0x0000000044fec000:

0000000044fec000 <__pagetable_map_os_0x0000000044fec000>:
	...
    44fece40:	10f070c7          	fmsub.s	f1,f0,f15,f2
    44fece44:	0000                	.insn	2, 0x0000
	...

Disassembly of section .__pagetable_map_os_0x0000000043ea3000:

0000000043ea3000 <__pagetable_map_os_0x0000000043ea3000>:
	...
    43ea3810:	2801                	.insn	2, 0x2801
    43ea3812:	10e9                	.insn	2, 0x10e9
    43ea3814:	0000                	.insn	2, 0x0000
	...

Disassembly of section .__pagetable_map_os_0x0000000043a4a000:

0000000043a4a000 <__pagetable_map_os_0x0000000043a4a000>:
	...
    43a4a168:	7801                	.insn	2, 0x7801
    43a4a16a:	10f9                	.insn	2, 0x10f9
    43a4a16c:	0000                	.insn	2, 0x0000
	...

Disassembly of section .__pagetable_map_os_0x0000000043e5e000:

0000000043e5e000 <__pagetable_map_os_0x0000000043e5e000>:
	...
    43e5e610:	10f92cc7          	fmsub.s	f25,f18,f15,f2,rdn
    43e5e614:	0000                	.insn	2, 0x0000
	...

Disassembly of section .__pagetable_map_os_0x000000004399d000:

000000004399d000 <__pagetable_map_os_0x000000004399d000>:
	...
    4399dca8:	f401                	.insn	2, 0xf401
    4399dcaa:	10d9                	.insn	2, 0x10d9
    4399dcac:	0000                	.insn	2, 0x0000
	...

Disassembly of section .__pagetable_map_os_0x000000004367d000:

000000004367d000 <__pagetable_map_os_0x000000004367d000>:
	...
    4367d1b0:	f801                	.insn	2, 0xf801
    4367d1b2:	10ed                	.insn	2, 0x10ed
    4367d1b4:	0000                	.insn	2, 0x0000
	...

Disassembly of section .__pagetable_map_os_0x0000000043b7e000:

0000000043b7e000 <__pagetable_map_os_0x0000000043b7e000>:
	...
    43b7e788:	10fa68c7          	fmsub.s	f17,f20,f15,f2,unknown
    43b7e78c:	0000                	.insn	2, 0x0000
	...

Disassembly of section .__pagetable_map_os_0x0000000043e59000:

0000000043e59000 <__pagetable_map_os_0x0000000043e59000>:
	...
    43e59388:	7401                	.insn	2, 0x7401
    43e5938a:	10f0                	.insn	2, 0x10f0
    43e5938c:	0000                	.insn	2, 0x0000
	...

Disassembly of section .__pagetable_map_os_0x0000000043c1d000:

0000000043c1d000 <__pagetable_map_os_0x0000000043c1d000>:
	...
    43c1d700:	5001                	.insn	2, 0x5001
    43c1d702:	10f0                	.insn	2, 0x10f0
    43c1d704:	0000                	.insn	2, 0x0000
	...

Disassembly of section .__pagetable_map_os_0x0000000043c14000:

0000000043c14000 <__pagetable_map_os_0x0000000043c14000>:
	...
    43c14d58:	10fa40cf          	fnmadd.s	f1,f20,f15,f2,rmm
    43c14d5c:	0000                	.insn	2, 0x0000
	...

Disassembly of section .__pagetable_map_os_0x0000000043178000:

0000000043178000 <__pagetable_map_os_0x0000000043178000>:
	...
    43178d40:	ec01                	.insn	2, 0xec01
    43178d42:	10ca                	.insn	2, 0x10ca
    43178d44:	0000                	.insn	2, 0x0000
	...

Disassembly of section .__pagetable_map_os_0x00000000432bb000:

00000000432bb000 <__pagetable_map_os_0x00000000432bb000>:
	...
    432bb9d0:	4001                	.insn	2, 0x4001
    432bb9d2:	10c6                	.insn	2, 0x10c6
    432bb9d4:	0000                	.insn	2, 0x0000
	...

Disassembly of section .__pagetable_map_os_0x0000000043190000:

0000000043190000 <__pagetable_map_os_0x0000000043190000>:
	...
    43190700:	10f958cf          	fnmadd.s	f17,f18,f15,f2,unknown
    43190704:	0000                	.insn	2, 0x0000
	...

Disassembly of section .__pagetable_map_os_0x0000000043e53000:

0000000043e53000 <__pagetable_map_os_0x0000000043e53000>:
	...
    43e53430:	0c01                	.insn	2, 0x0c01
    43e53432:	10ee                	.insn	2, 0x10ee
    43e53434:	0000                	.insn	2, 0x0000
	...

Disassembly of section .__pagetable_map_os_0x0000000043b83000:

0000000043b83000 <__pagetable_map_os_0x0000000043b83000>:
	...
    43b83200:	e001                	.insn	2, 0xe001
    43b83202:	10ed                	.insn	2, 0x10ed
    43b83204:	0000                	.insn	2, 0x0000
	...

Disassembly of section .__pagetable_map_os_0x0000000043b78000:

0000000043b78000 <__pagetable_map_os_0x0000000043b78000>:
	...
    43b78cc8:	10fbdccf          	fnmadd.s	f25,f23,f15,f2,unknown
    43b78ccc:	0000                	.insn	2, 0x0000
	...

Disassembly of section .__pagetable_map_os_0x000000004374a000:

000000004374a000 <__pagetable_map_os_0x000000004374a000>:
    4374a000:	1801                	.insn	2, 0x1801
    4374a002:	10a8                	.insn	2, 0x10a8
    4374a004:	0000                	.insn	2, 0x0000
	...

Disassembly of section .__pagetable_map_os_0x0000000042a06000:

0000000042a06000 <__pagetable_map_os_0x0000000042a06000>:
    42a06000:	9801                	.insn	2, 0x9801
    42a06002:	10c6                	.insn	2, 0x10c6
    42a06004:	0000                	.insn	2, 0x0000
	...

Disassembly of section .__pagetable_map_os_0x00000000431a6000:

00000000431a6000 <__pagetable_map_os_0x00000000431a6000>:
    431a6000:	4001                	.insn	2, 0x4001
    431a6002:	10fa                	.insn	2, 0x10fa
    431a6004:	0000                	.insn	2, 0x0000
	...

Disassembly of section .__pagetable_map_os_0x0000000043e90000:

0000000043e90000 <__pagetable_map_os_0x0000000043e90000>:
    43e90000:	10f99cc7          	fmsub.s	f25,f19,f15,f2,rtz
    43e90004:	0000                	.insn	2, 0x0000
	...

Disassembly of section .__pagetable_map_os_0x00000000412d7000:

00000000412d7000 <__pagetable_map_os_0x00000000412d7000>:
    412d7000:	d401                	.insn	2, 0xd401
    412d7002:	10e8                	.insn	2, 0x10e8
    412d7004:	0000                	.insn	2, 0x0000
	...

Disassembly of section .__pagetable_map_os_0x0000000043a35000:

0000000043a35000 <__pagetable_map_os_0x0000000043a35000>:
    43a35000:	4801                	.insn	2, 0x4801
    43a35002:	10f0                	.insn	2, 0x10f0
    43a35004:	0000                	.insn	2, 0x0000
	...

Disassembly of section .__pagetable_map_os_0x0000000043c12000:

0000000043c12000 <__pagetable_map_os_0x0000000043c12000>:
    43c12000:	5801                	.insn	2, 0x5801
    43c12002:	10f9                	.insn	2, 0x10f9
    43c12004:	0000                	.insn	2, 0x0000
	...

Disassembly of section .__pagetable_map_os_0x0000000043e56000:

0000000043e56000 <__pagetable_map_os_0x0000000043e56000>:
    43e56000:	104b70c3          	fmadd.s	f1,f22,f4,f2
    43e56004:	0000                	.insn	2, 0x0000
	...

Disassembly of section .__pagetable_map_os_0x0000000043e4c000:

0000000043e4c000 <__pagetable_map_os_0x0000000043e4c000>:
    43e4c000:	3c01                	.insn	2, 0x3c01
    43e4c002:	10f6                	.insn	2, 0x10f6
    43e4c004:	0000                	.insn	2, 0x0000
	...

Disassembly of section .__pagetable_map_os_0x0000000043d8f000:

0000000043d8f000 <__pagetable_map_os_0x0000000043d8f000>:
    43d8f000:	7401                	.insn	2, 0x7401
    43d8f002:	10fa                	.insn	2, 0x10fa
    43d8f004:	0000                	.insn	2, 0x0000
	...

Disassembly of section .__pagetable_map_os_0x0000000043e9d000:

0000000043e9d000 <__pagetable_map_os_0x0000000043e9d000>:
    43e9d000:	3801                	.insn	2, 0x3801
    43e9d002:	10e1                	.insn	2, 0x10e1
    43e9d004:	0000                	.insn	2, 0x0000
	...

Disassembly of section .__pagetable_map_os_0x000000004384e000:

000000004384e000 <__pagetable_map_os_0x000000004384e000>:
	...
    4384e008:	104b84c3          	fmadd.s	f9,f23,f4,f2,rne
    4384e00c:	0000                	.insn	2, 0x0000
	...

Disassembly of section .__pagetable_map_os_0x00000000412d9000:

00000000412d9000 <__pagetable_map_os_0x00000000412d9000>:
    412d9000:	d001                	.insn	2, 0xd001
    412d9002:	10f9                	.insn	2, 0x10f9
    412d9004:	0000                	.insn	2, 0x0000
	...

Disassembly of section .__pagetable_map_os_0x0000000043e74000:

0000000043e74000 <__pagetable_map_os_0x0000000043e74000>:
    43e74000:	f801                	.insn	2, 0xf801
    43e74002:	10f8                	.insn	2, 0x10f8
    43e74004:	0000                	.insn	2, 0x0000
	...

Disassembly of section .__pagetable_map_os_0x0000000043e3e000:

0000000043e3e000 <__pagetable_map_os_0x0000000043e3e000>:
    43e3e000:	6801                	.insn	2, 0x6801
    43e3e002:	107e                	.insn	2, 0x107e
    43e3e004:	0000                	.insn	2, 0x0000
	...

Disassembly of section .__pagetable_map_os_0x0000000041f9a000:

0000000041f9a000 <__pagetable_map_os_0x0000000041f9a000>:
	...
    41f9a010:	113bdcc3          	fmadd.s	f25,f23,f19,f2,unknown
    41f9a014:	0000                	.insn	2, 0x0000
	...

Disassembly of section .__pagetable_map_os_0x00000000432eb000:

00000000432eb000 <__pagetable_map_os_0x00000000432eb000>:
    432eb000:	b401                	.insn	2, 0xb401
    432eb002:	00000000113f 	.6byte	0x00000000113f

Disassembly of section .__pagetable_map_os_0x0000000044fed000:

0000000044fed000 <__pagetable_map_os_0x0000000044fed000>:
    44fed000:	3001                	.insn	2, 0x3001
    44fed002:	10f0                	.insn	2, 0x10f0
    44fed004:	0000                	.insn	2, 0x0000
	...

Disassembly of section .__pagetable_map_os_0x0000000043c0c000:

0000000043c0c000 <__pagetable_map_os_0x0000000043c0c000>:
    43c0c000:	4801                	.insn	2, 0x4801
    43c0c002:	10f8                	.insn	2, 0x10f8
    43c0c004:	0000                	.insn	2, 0x0000
	...

Disassembly of section .__pagetable_map_os_0x0000000043e12000:

0000000043e12000 <__pagetable_map_os_0x0000000043e12000>:
	...
    43e12020:	10fb3cc3          	fmadd.s	f25,f22,f15,f2,rup
    43e12024:	0000                	.insn	2, 0x0000
	...

Disassembly of section .__pagetable_map_os_0x000000004398e000:

000000004398e000 <__pagetable_map_os_0x000000004398e000>:
    4398e000:	a001                	.insn	2, 0xa001
    4398e002:	10de                	.insn	2, 0x10de
    4398e004:	0000                	.insn	2, 0x0000
	...

Disassembly of section .__pagetable_map_os_0x00000000437a8000:

00000000437a8000 <__pagetable_map_os_0x00000000437a8000>:
    437a8000:	a801                	.insn	2, 0xa801
    437a8002:	10f9                	.insn	2, 0x10f9
    437a8004:	0000                	.insn	2, 0x0000
	...

Disassembly of section .__pagetable_map_os_0x0000000043e6a000:

0000000043e6a000 <__pagetable_map_os_0x0000000043e6a000>:
    43e6a000:	fc01                	.insn	2, 0xfc01
    43e6a002:	000010e7          	.insn	4, 0x10e7
	...

Disassembly of section .__pagetable_map_os_0x00000000439ff000:

00000000439ff000 <__pagetable_map_os_0x00000000439ff000>:
    439ff000:	104b6cc3          	fmadd.s	f25,f22,f4,f2,unknown
    439ff004:	0000                	.insn	2, 0x0000
	...

Disassembly of section .__pagetable_map_os_0x0000000043fa7000:

0000000043fa7000 <__pagetable_map_os_0x0000000043fa7000>:
    43fa7000:	7401                	.insn	2, 0x7401
    43fa7002:	10e8                	.insn	2, 0x10e8
    43fa7004:	0000                	.insn	2, 0x0000
	...

Disassembly of section .__pagetable_map_os_0x0000000043a1d000:

0000000043a1d000 <__pagetable_map_os_0x0000000043a1d000>:
    43a1d000:	4401                	.insn	2, 0x4401
    43a1d002:	10f8                	.insn	2, 0x10f8
    43a1d004:	0000                	.insn	2, 0x0000
	...

Disassembly of section .__pagetable_map_os_0x0000000043e11000:

0000000043e11000 <__pagetable_map_os_0x0000000043e11000>:
    43e11000:	5401                	.insn	2, 0x5401
    43e11002:	10f9                	.insn	2, 0x10f9
    43e11004:	0000                	.insn	2, 0x0000
	...

Disassembly of section .__pagetable_map_os_0x0000000043e55000:

0000000043e55000 <__pagetable_map_os_0x0000000043e55000>:
    43e55000:	10ee24c7          	fmsub.s	f9,f28,f14,f2,rdn
    43e55004:	0000                	.insn	2, 0x0000
	...

Disassembly of section .__pagetable_map_os_0x0000000043999000:

0000000043999000 <__pagetable_map_os_0x0000000043999000>:
    43999000:	7401                	.insn	2, 0x7401
    43999002:	10f5                	.insn	2, 0x10f5
    43999004:	0000                	.insn	2, 0x0000
	...

Disassembly of section .__pagetable_map_os_0x0000000043d5d000:

0000000043d5d000 <__pagetable_map_os_0x0000000043d5d000>:
    43d5d000:	5001                	.insn	2, 0x5001
    43d5d002:	10e6                	.insn	2, 0x10e6
    43d5d004:	0000                	.insn	2, 0x0000
	...

Disassembly of section .__pagetable_map_os_0x0000000043994000:

0000000043994000 <__pagetable_map_os_0x0000000043994000>:
    43994000:	dc01                	.insn	2, 0xdc01
    43994002:	000010fb          	.insn	4, 0x10fb
	...

Disassembly of section .__pagetable_map_os_0x0000000043ef7000:

0000000043ef7000 <__pagetable_map_os_0x0000000043ef7000>:
    43ef7000:	104b74c7          	fmsub.s	f9,f22,f4,f2
    43ef7004:	0000                	.insn	2, 0x0000
	...

Disassembly of section .__pagetable_map_os_0x0000000043177000:

0000000043177000 <__pagetable_map_os_0x0000000043177000>:
	...
    43177cf0:	6801                	.insn	2, 0x6801
    43177cf2:	0000104b          	fnmsub.s	f0,f0,f0,f0,rtz
	...

Disassembly of section .__pagetable_map_os_0x00000000412da000:

00000000412da000 <__pagetable_map_os_0x00000000412da000>:
	...
    412dac68:	9801                	.insn	2, 0x9801
    412dac6a:	10f9                	.insn	2, 0x10f9
    412dac6c:	0000                	.insn	2, 0x0000
	...

Disassembly of section .__pagetable_map_os_0x0000000043e66000:

0000000043e66000 <__pagetable_map_os_0x0000000043e66000>:
	...
    43e66cc0:	4c01                	.insn	2, 0x4c01
    43e66cc2:	10f0                	.insn	2, 0x10f0
    43e66cc4:	0000                	.insn	2, 0x0000
	...

Disassembly of section .__pagetable_map_os_0x0000000043c13000:

0000000043c13000 <__pagetable_map_os_0x0000000043c13000>:
	...
    43c13540:	1122b8c7          	fmsub.s	f17,f5,f18,f2,rup
    43c13544:	0000                	.insn	2, 0x0000
	...
