
/home/abdullah/RiescueC/riescue/10x_R/exceptions/testsuite/exceptions/super_disable/tp_exceptions_1:     file format elf64-littleriscv


Disassembly of section .runtime:

0000000041000000 <_start>:
    41000000:	00000093          	li	x1,0
    41000004:	00000113          	li	x2,0
    41000008:	00000193          	li	x3,0
    4100000c:	00000213          	li	x4,0
    41000010:	00000293          	li	x5,0
    41000014:	00000313          	li	x6,0
    41000018:	00000393          	li	x7,0
    4100001c:	00000413          	li	x8,0
    41000020:	00000493          	li	x9,0
    41000024:	00000513          	li	x10,0
    41000028:	00000593          	li	x11,0
    4100002c:	00000613          	li	x12,0
    41000030:	00000693          	li	x13,0
    41000034:	00000713          	li	x14,0
    41000038:	00000793          	li	x15,0
    4100003c:	00000813          	li	x16,0
    41000040:	00000893          	li	x17,0
    41000044:	00000913          	li	x18,0
    41000048:	00000993          	li	x19,0
    4100004c:	00000a13          	li	x20,0
    41000050:	00000a93          	li	x21,0
    41000054:	00000b13          	li	x22,0
    41000058:	00000b93          	li	x23,0
    4100005c:	00000c13          	li	x24,0
    41000060:	00000c93          	li	x25,0
    41000064:	00000d13          	li	x26,0
    41000068:	00000d93          	li	x27,0
    4100006c:	00000e13          	li	x28,0
    41000070:	00000e93          	li	x29,0
    41000074:	00000f13          	li	x30,0
    41000078:	00000f93          	li	x31,0

000000004100007c <loader__load_panic_address>:
    4100007c:	00001297          	auipc	x5,0x1
    41000080:	95828293          	addi	x5,x5,-1704 # 410009d4 <eot__failed>
    41000084:	30529073          	csrw	mtvec,x5

0000000041000088 <loader__initialize_runtime>:
    41000088:	00000293          	li	x5,0
    4100008c:	3012a2f3          	csrrs	x5,misa,x5

0000000041000090 <loader__set_mstatus>:
    41000090:	000402b7          	lui	x5,0x40
    41000094:	00a2829b          	addiw	x5,x5,10 # 4000a <pma_region_0_size+0xa>
    41000098:	3002a2f3          	csrrs	x5,mstatus,x5
    4100009c:	41238237          	lui	x4,0x41238
    410000a0:	34021073          	csrw	mscratch,x4

00000000410000a4 <loader__setup_menvcfg>:
    410000a4:	00000297          	auipc	x5,0x0
    410000a8:	41828293          	addi	x5,x5,1048 # 410004bc <trap_handler_m__trap_entry>
    410000ac:	30529073          	csrw	mtvec,x5

00000000410000b0 <loader__done>:
    410000b0:	14d0006f          	j	410009fc <scheduler__init>

00000000410000b4 <loader__panic>:
    410000b4:	1210006f          	j	410009d4 <eot__failed>

00000000410000b8 <syscalls__syscall_check_schedule_next_test>:
    410000b8:	00f0029b          	addiw	x5,x0,15
    410000bc:	01c29293          	slli	x5,x5,0x1c
    410000c0:	00128293          	addi	x5,x5,1
    410000c4:	01f29a63          	bne	x5,x31,410000d8 <syscalls__syscall_check_fail_test>
    410000c8:	00000317          	auipc	x6,0x0
    410000cc:	3f430313          	addi	x6,x6,1012 # 410004bc <trap_handler_m__trap_entry>
    410000d0:	30531073          	csrw	mtvec,x6
    410000d4:	62c0006f          	j	41000700 <enter_scheduler>

00000000410000d8 <syscalls__syscall_check_fail_test>:
    410000d8:	00f0029b          	addiw	x5,x0,15
    410000dc:	01c29293          	slli	x5,x5,0x1c
    410000e0:	00228293          	addi	x5,x5,2
    410000e4:	01f29a63          	bne	x5,x31,410000f8 <syscalls__syscall_check_end_test_without_failure>
    410000e8:	00000317          	auipc	x6,0x0
    410000ec:	3d430313          	addi	x6,x6,980 # 410004bc <trap_handler_m__trap_entry>
    410000f0:	30531073          	csrw	mtvec,x6
    410000f4:	63c0006f          	j	41000730 <test_failed>

00000000410000f8 <syscalls__syscall_check_end_test_without_failure>:
    410000f8:	00f0029b          	addiw	x5,x0,15
    410000fc:	01c29293          	slli	x5,x5,0x1c
    41000100:	00328293          	addi	x5,x5,3
    41000104:	01f29a63          	bne	x5,x31,41000118 <syscalls__syscall_check_switch_machine_mode>
    41000108:	00000317          	auipc	x6,0x0
    4100010c:	3b430313          	addi	x6,x6,948 # 410004bc <trap_handler_m__trap_entry>
    41000110:	30531073          	csrw	mtvec,x6
    41000114:	6280006f          	j	4100073c <os_end_test>

0000000041000118 <syscalls__syscall_check_switch_machine_mode>:
    41000118:	000f02b7          	lui	x5,0xf0
    4100011c:	0012829b          	addiw	x5,x5,1 # f0001 <pma_region_0_size+0xb0001>
    41000120:	00c29293          	slli	x5,x5,0xc
    41000124:	00128293          	addi	x5,x5,1
    41000128:	0a5f8463          	beq	x31,x5,410001d0 <syscalls__os_fn_f0001001>

000000004100012c <syscalls__syscall_check_switch_super_mode>:
    4100012c:	000f02b7          	lui	x5,0xf0
    41000130:	0012829b          	addiw	x5,x5,1 # f0001 <pma_region_0_size+0xb0001>
    41000134:	00c29293          	slli	x5,x5,0xc
    41000138:	00228293          	addi	x5,x5,2
    4100013c:	0c5f8063          	beq	x31,x5,410001fc <syscalls__os_fn_f0001002>

0000000041000140 <syscalls__syscall_check_switch_user_mode>:
    41000140:	000f02b7          	lui	x5,0xf0
    41000144:	0012829b          	addiw	x5,x5,1 # f0001 <pma_region_0_size+0xb0001>
    41000148:	00c29293          	slli	x5,x5,0xc
    4100014c:	00328293          	addi	x5,x5,3
    41000150:	0a5f8a63          	beq	x31,x5,41000204 <syscalls__os_fn_f0001003>

0000000041000154 <syscalls__syscall_check_switch_test_mode>:
    41000154:	000f02b7          	lui	x5,0xf0
    41000158:	0012829b          	addiw	x5,x5,1 # f0001 <pma_region_0_size+0xb0001>
    4100015c:	00c29293          	slli	x5,x5,0xc
    41000160:	00428293          	addi	x5,x5,4
    41000164:	0c5f8463          	beq	x31,x5,4100022c <syscalls__os_fn_f0001004>

0000000041000168 <syscalls__syscall_machine_csr_rw>:
    41000168:	000f02b7          	lui	x5,0xf0
    4100016c:	0012829b          	addiw	x5,x5,1 # f0001 <pma_region_0_size+0xb0001>
    41000170:	00c29293          	slli	x5,x5,0xc
    41000174:	00528293          	addi	x5,x5,5
    41000178:	0e5f8063          	beq	x31,x5,41000258 <syscalls__os_fn_f0001005>

000000004100017c <syscalls__syscall_supervisor_csr_rw>:
    4100017c:	000f02b7          	lui	x5,0xf0
    41000180:	0012829b          	addiw	x5,x5,1 # f0001 <pma_region_0_size+0xb0001>
    41000184:	00c29293          	slli	x5,x5,0xc
    41000188:	00628293          	addi	x5,x5,6
    4100018c:	0e5f8c63          	beq	x31,x5,41000284 <syscalls__os_fn_f0001006>

0000000041000190 <syscalls__syscall_machine_pte_read>:
    41000190:	000f02b7          	lui	x5,0xf0
    41000194:	0012829b          	addiw	x5,x5,1 # f0001 <pma_region_0_size+0xb0001>
    41000198:	00c29293          	slli	x5,x5,0xc
    4100019c:	00728293          	addi	x5,x5,7
    410001a0:	0e5f8663          	beq	x31,x5,4100028c <syscalls__os_fn_f0001007>

00000000410001a4 <syscalls__syscall_machine_pte_write>:
    410001a4:	000f02b7          	lui	x5,0xf0
    410001a8:	0012829b          	addiw	x5,x5,1 # f0001 <pma_region_0_size+0xb0001>
    410001ac:	00c29293          	slli	x5,x5,0xc
    410001b0:	00828293          	addi	x5,x5,8
    410001b4:	1a5f8063          	beq	x31,x5,41000354 <syscalls__os_fn_f0001008>

00000000410001b8 <syscalls__syscall_check_get_hart_context>:
    410001b8:	000782b7          	lui	x5,0x78
    410001bc:	0012829b          	addiw	x5,x5,1 # 78001 <pma_region_0_size+0x38001>
    410001c0:	00d29293          	slli	x5,x5,0xd
    410001c4:	00128293          	addi	x5,x5,1
    410001c8:	245f8a63          	beq	x31,x5,4100041c <syscalls__os_get_hart_context>
    410001cc:	44c0006f          	j	41000618 <trap_handler_m__check_exception_label>

00000000410001d0 <syscalls__os_fn_f0001001>:
    410001d0:	000022b7          	lui	x5,0x2
    410001d4:	8002829b          	addiw	x5,x5,-2048 # 1800 <pma_region_1_size+0x800>
    410001d8:	3002b073          	csrc	mstatus,x5
    410001dc:	000022b7          	lui	x5,0x2
    410001e0:	8002829b          	addiw	x5,x5,-2048 # 1800 <pma_region_1_size+0x800>
    410001e4:	3002a073          	csrs	mstatus,x5
    410001e8:	0010029b          	addiw	x5,x0,1
    410001ec:	02729293          	slli	x5,x5,0x27
    410001f0:	3002b073          	csrc	mstatus,x5
    410001f4:	411942b7          	lui	x5,0x41194
    410001f8:	2340006f          	j	4100042c <syscalls__ret_from_os_fn>

00000000410001fc <syscalls__os_fn_f0001002>:
    410001fc:	410942b7          	lui	x5,0x41094
    41000200:	22c0006f          	j	4100042c <syscalls__ret_from_os_fn>

0000000041000204 <syscalls__os_fn_f0001003>:
    41000204:	000022b7          	lui	x5,0x2
    41000208:	8002829b          	addiw	x5,x5,-2048 # 1800 <pma_region_1_size+0x800>
    4100020c:	3002b073          	csrc	mstatus,x5
    41000210:	00000293          	li	x5,0
    41000214:	3002a073          	csrs	mstatus,x5
    41000218:	0010029b          	addiw	x5,x0,1
    4100021c:	02729293          	slli	x5,x5,0x27
    41000220:	3002b073          	csrc	mstatus,x5
    41000224:	411142b7          	lui	x5,0x41114
    41000228:	2040006f          	j	4100042c <syscalls__ret_from_os_fn>

000000004100022c <syscalls__os_fn_f0001004>:
    4100022c:	000022b7          	lui	x5,0x2
    41000230:	8002829b          	addiw	x5,x5,-2048 # 1800 <pma_region_1_size+0x800>
    41000234:	3002b073          	csrc	mstatus,x5
    41000238:	000012b7          	lui	x5,0x1
    4100023c:	8002829b          	addiw	x5,x5,-2048 # 800 <XLEN+0x7c0>
    41000240:	3002a073          	csrs	mstatus,x5
    41000244:	0010029b          	addiw	x5,x0,1
    41000248:	02729293          	slli	x5,x5,0x27
    4100024c:	3002b073          	csrc	mstatus,x5
    41000250:	17823283          	ld	x5,376(x4) # 41238178 <os_save_ecall_fn_epc>
    41000254:	1d80006f          	j	4100042c <syscalls__ret_from_os_fn>

0000000041000258 <syscalls__os_fn_f0001005>:
    41000258:	000022b7          	lui	x5,0x2
    4100025c:	8002829b          	addiw	x5,x5,-2048 # 1800 <pma_region_1_size+0x800>
    41000260:	3002b073          	csrc	mstatus,x5
    41000264:	000022b7          	lui	x5,0x2
    41000268:	8002829b          	addiw	x5,x5,-2048 # 1800 <pma_region_1_size+0x800>
    4100026c:	3002a073          	csrs	mstatus,x5
    41000270:	0010029b          	addiw	x5,x0,1
    41000274:	02729293          	slli	x5,x5,0x27
    41000278:	3002b073          	csrc	mstatus,x5
    4100027c:	412142b7          	lui	x5,0x41214
    41000280:	1ac0006f          	j	4100042c <syscalls__ret_from_os_fn>

0000000041000284 <syscalls__os_fn_f0001006>:
    41000284:	412152b7          	lui	x5,0x41215
    41000288:	1a40006f          	j	4100042c <syscalls__ret_from_os_fn>

000000004100028c <syscalls__os_fn_f0001007>:
    4100028c:	41232fb7          	lui	x31,0x41232
    41000290:	0b8f8f9b          	addiw	x31,x31,184 # 412320b8 <pte_access_flags>
    41000294:	000fbf83          	ld	x31,0(x31)
    41000298:	412322b7          	lui	x5,0x41232
    4100029c:	0c02829b          	addiw	x5,x5,192 # 412320c0 <pte_access_flags+0x8>
    410002a0:	0002b283          	ld	x5,0(x5)
    410002a4:	41232e37          	lui	x28,0x41232
    410002a8:	0c8e0e1b          	addiw	x28,x28,200 # 412320c8 <pte_access_flags+0x10>
    410002ac:	000e3e03          	ld	x28,0(x28)

00000000410002b0 <syscalls__pte_walk_check_paging_disabled_nonvirt_target_level_read>:
    410002b0:	0a029063          	bnez	x5,41000350 <syscalls__pte_walk_fail_read>

00000000410002b4 <syscalls__pte_walk_check_glevel_without_gstage_read>:
    410002b4:	fff00f93          	li	x31,-1
    410002b8:	09fe1c63          	bne	x28,x31,41000350 <syscalls__pte_walk_fail_read>

00000000410002bc <syscalls__pte_walk_loop_read>:
    410002bc:	41232fb7          	lui	x31,0x41232
    410002c0:	0b8f8f9b          	addiw	x31,x31,184 # 412320b8 <pte_access_flags>
    410002c4:	000fbf83          	ld	x31,0(x31)
    410002c8:	01dfdfb3          	srl	x31,x31,x29
    410002cc:	1fffff93          	andi	x31,x31,511
    410002d0:	003f9f93          	slli	x31,x31,0x3
    410002d4:	01f30333          	add	x6,x6,x31
    410002d8:	005f0e63          	beq	x30,x5,410002f4 <syscalls__pte_walk_done_read>
    410002dc:	00033f83          	ld	x31,0(x6)
    410002e0:	00afdf93          	srli	x31,x31,0xa
    410002e4:	00cf9313          	slli	x6,x31,0xc
    410002e8:	001f0f13          	addi	x30,x30,1
    410002ec:	ff7e8e93          	addi	x29,x29,-9
    410002f0:	fcdff06f          	j	410002bc <syscalls__pte_walk_loop_read>

00000000410002f4 <syscalls__pte_walk_done_read>:
    410002f4:	fff00f93          	li	x31,-1
    410002f8:	05fe0263          	beq	x28,x31,4100033c <syscalls__pte_walk_final_read>

00000000410002fc <syscalls__pte_walk_gstage_read>:
    410002fc:	41232fb7          	lui	x31,0x41232
    41000300:	0b8f8f9b          	addiw	x31,x31,184 # 412320b8 <pte_access_flags>
    41000304:	006fb023          	sd	x6,0(x31)
    41000308:	000e0293          	mv	x5,x28
    4100030c:	fff00e13          	li	x28,-1
    41000310:	68002373          	csrr	x6,hgatp
    41000314:	03c35e93          	srli	x29,x6,0x3c
    41000318:	01431313          	slli	x6,x6,0x14
    4100031c:	01435313          	srli	x6,x6,0x14
    41000320:	00c31313          	slli	x6,x6,0xc
    41000324:	ff8e8e93          	addi	x29,x29,-8
    41000328:	003e9f13          	slli	x30,x29,0x3
    4100032c:	01df0eb3          	add	x29,x30,x29
    41000330:	01ee8e93          	addi	x29,x29,30
    41000334:	00000f13          	li	x30,0
    41000338:	f85ff06f          	j	410002bc <syscalls__pte_walk_loop_read>

000000004100033c <syscalls__pte_walk_final_read>:
    4100033c:	00033383          	ld	x7,0(x6)
    41000340:	341022f3          	csrr	x5,mepc
    41000344:	00428293          	addi	x5,x5,4
    41000348:	16523c23          	sd	x5,376(x4) # 178 <XLEN+0x138>
    4100034c:	ee1ff06f          	j	4100022c <syscalls__os_fn_f0001004>

0000000041000350 <syscalls__pte_walk_fail_read>:
    41000350:	3e00006f          	j	41000730 <test_failed>

0000000041000354 <syscalls__os_fn_f0001008>:
    41000354:	41232fb7          	lui	x31,0x41232
    41000358:	0b8f8f9b          	addiw	x31,x31,184 # 412320b8 <pte_access_flags>
    4100035c:	000fbf83          	ld	x31,0(x31)
    41000360:	412322b7          	lui	x5,0x41232
    41000364:	0c02829b          	addiw	x5,x5,192 # 412320c0 <pte_access_flags+0x8>
    41000368:	0002b283          	ld	x5,0(x5)
    4100036c:	41232e37          	lui	x28,0x41232
    41000370:	0c8e0e1b          	addiw	x28,x28,200 # 412320c8 <pte_access_flags+0x10>
    41000374:	000e3e03          	ld	x28,0(x28)

0000000041000378 <syscalls__pte_walk_check_paging_disabled_nonvirt_target_level_write>:
    41000378:	0a029063          	bnez	x5,41000418 <syscalls__pte_walk_fail_write>

000000004100037c <syscalls__pte_walk_check_glevel_without_gstage_write>:
    4100037c:	fff00f93          	li	x31,-1
    41000380:	09fe1c63          	bne	x28,x31,41000418 <syscalls__pte_walk_fail_write>

0000000041000384 <syscalls__pte_walk_loop_write>:
    41000384:	41232fb7          	lui	x31,0x41232
    41000388:	0b8f8f9b          	addiw	x31,x31,184 # 412320b8 <pte_access_flags>
    4100038c:	000fbf83          	ld	x31,0(x31)
    41000390:	01dfdfb3          	srl	x31,x31,x29
    41000394:	1fffff93          	andi	x31,x31,511
    41000398:	003f9f93          	slli	x31,x31,0x3
    4100039c:	01f30333          	add	x6,x6,x31
    410003a0:	005f0e63          	beq	x30,x5,410003bc <syscalls__pte_walk_done_write>
    410003a4:	00033f83          	ld	x31,0(x6)
    410003a8:	00afdf93          	srli	x31,x31,0xa
    410003ac:	00cf9313          	slli	x6,x31,0xc
    410003b0:	001f0f13          	addi	x30,x30,1
    410003b4:	ff7e8e93          	addi	x29,x29,-9
    410003b8:	fcdff06f          	j	41000384 <syscalls__pte_walk_loop_write>

00000000410003bc <syscalls__pte_walk_done_write>:
    410003bc:	fff00f93          	li	x31,-1
    410003c0:	05fe0263          	beq	x28,x31,41000404 <syscalls__pte_walk_final_write>

00000000410003c4 <syscalls__pte_walk_gstage_write>:
    410003c4:	41232fb7          	lui	x31,0x41232
    410003c8:	0b8f8f9b          	addiw	x31,x31,184 # 412320b8 <pte_access_flags>
    410003cc:	006fb023          	sd	x6,0(x31)
    410003d0:	000e0293          	mv	x5,x28
    410003d4:	fff00e13          	li	x28,-1
    410003d8:	68002373          	csrr	x6,hgatp
    410003dc:	03c35e93          	srli	x29,x6,0x3c
    410003e0:	01431313          	slli	x6,x6,0x14
    410003e4:	01435313          	srli	x6,x6,0x14
    410003e8:	00c31313          	slli	x6,x6,0xc
    410003ec:	ff8e8e93          	addi	x29,x29,-8
    410003f0:	003e9f13          	slli	x30,x29,0x3
    410003f4:	01df0eb3          	add	x29,x30,x29
    410003f8:	01ee8e93          	addi	x29,x29,30
    410003fc:	00000f13          	li	x30,0
    41000400:	f85ff06f          	j	41000384 <syscalls__pte_walk_loop_write>

0000000041000404 <syscalls__pte_walk_final_write>:
    41000404:	00733023          	sd	x7,0(x6)
    41000408:	341022f3          	csrr	x5,mepc
    4100040c:	00428293          	addi	x5,x5,4
    41000410:	16523c23          	sd	x5,376(x4) # 178 <XLEN+0x138>
    41000414:	e19ff06f          	j	4100022c <syscalls__os_fn_f0001004>

0000000041000418 <syscalls__pte_walk_fail_write>:
    41000418:	3180006f          	j	41000730 <test_failed>

000000004100041c <syscalls__os_get_hart_context>:
    4100041c:	00020513          	mv	x10,x4
    41000420:	341022f3          	csrr	x5,mepc
    41000424:	00428293          	addi	x5,x5,4
    41000428:	0040006f          	j	4100042c <syscalls__ret_from_os_fn>

000000004100042c <syscalls__ret_from_os_fn>:
    4100042c:	34102373          	csrr	x6,mepc
    41000430:	00430313          	addi	x6,x6,4
    41000434:	16623c23          	sd	x6,376(x4) # 178 <XLEN+0x138>
    41000438:	34129073          	csrw	mepc,x5
    4100043c:	fff00f93          	li	x31,-1
    41000440:	2a40006f          	j	410006e4 <trap_handler_m__skip_xepc_write>

0000000041000444 <trap_handler_m__invalid_interrupt>:
    41000444:	2ec0006f          	j	41000730 <test_failed>

0000000041000448 <trap_handler_m__clear_all_interrupts>:
    41000448:	34401073          	csrw	mip,x0
    4100044c:	30200073          	mret

0000000041000450 <trap_handler_m___CLEAR_SSI>:
    41000450:	00200293          	li	x5,2
    41000454:	3442b073          	csrc	mip,x5
    41000458:	30200073          	mret

000000004100045c <trap_handler_m___CLEAR_MSI>:
    4100045c:	00800293          	li	x5,8
    41000460:	3442b073          	csrc	mip,x5
    41000464:	30200073          	mret

0000000041000468 <trap_handler_m___CLEAR_STI>:
    41000468:	02000293          	li	x5,32
    4100046c:	3442b073          	csrc	mip,x5
    41000470:	30200073          	mret

0000000041000474 <trap_handler_m___CLEAR_MTI>:
    41000474:	08000293          	li	x5,128
    41000478:	3442b073          	csrc	mip,x5
    4100047c:	30200073          	mret

0000000041000480 <trap_handler_m___CLEAR_SEI>:
    41000480:	20000293          	li	x5,512
    41000484:	3442b073          	csrc	mip,x5
    41000488:	30200073          	mret

000000004100048c <trap_handler_m___CLEAR_MEI>:
    4100048c:	000012b7          	lui	x5,0x1
    41000490:	8002829b          	addiw	x5,x5,-2048 # 800 <XLEN+0x7c0>
    41000494:	3442b073          	csrc	mip,x5
    41000498:	30200073          	mret

000000004100049c <trap_handler_m___CLEAR_COI>:
    4100049c:	000022b7          	lui	x5,0x2
    410004a0:	3442b073          	csrc	mip,x5
    410004a4:	30200073          	mret

00000000410004a8 <trap_handler_m__clear_highest_priority_interrupt>:
    410004a8:	344022f3          	csrr	x5,mip
    410004ac:	40500333          	neg	x6,x5
    410004b0:	0062f2b3          	and	x5,x5,x6
    410004b4:	3442b073          	csrc	mip,x5
    410004b8:	30200073          	mret

00000000410004bc <trap_handler_m__trap_entry>:
    410004bc:	0fc0006f          	j	410005b8 <trap_handler_m__trap_handler>

00000000410004c0 <trap_handler_m__interrupt_vector_table>:
    410004c0:	f91ff06f          	j	41000450 <trap_handler_m___CLEAR_SSI>
    410004c4:	f81ff06f          	j	41000444 <trap_handler_m__invalid_interrupt>
    410004c8:	f95ff06f          	j	4100045c <trap_handler_m___CLEAR_MSI>
    410004cc:	f79ff06f          	j	41000444 <trap_handler_m__invalid_interrupt>
    410004d0:	f99ff06f          	j	41000468 <trap_handler_m___CLEAR_STI>
    410004d4:	f71ff06f          	j	41000444 <trap_handler_m__invalid_interrupt>
    410004d8:	f9dff06f          	j	41000474 <trap_handler_m___CLEAR_MTI>
    410004dc:	f69ff06f          	j	41000444 <trap_handler_m__invalid_interrupt>
    410004e0:	fa1ff06f          	j	41000480 <trap_handler_m___CLEAR_SEI>
    410004e4:	f61ff06f          	j	41000444 <trap_handler_m__invalid_interrupt>
    410004e8:	fa5ff06f          	j	4100048c <trap_handler_m___CLEAR_MEI>
    410004ec:	f59ff06f          	j	41000444 <trap_handler_m__invalid_interrupt>
    410004f0:	fadff06f          	j	4100049c <trap_handler_m___CLEAR_COI>
    410004f4:	f51ff06f          	j	41000444 <trap_handler_m__invalid_interrupt>
    410004f8:	f4dff06f          	j	41000444 <trap_handler_m__invalid_interrupt>
    410004fc:	fadff06f          	j	410004a8 <trap_handler_m__clear_highest_priority_interrupt>
    41000500:	fa9ff06f          	j	410004a8 <trap_handler_m__clear_highest_priority_interrupt>
    41000504:	fa5ff06f          	j	410004a8 <trap_handler_m__clear_highest_priority_interrupt>
    41000508:	fa1ff06f          	j	410004a8 <trap_handler_m__clear_highest_priority_interrupt>
    4100050c:	f9dff06f          	j	410004a8 <trap_handler_m__clear_highest_priority_interrupt>
    41000510:	f99ff06f          	j	410004a8 <trap_handler_m__clear_highest_priority_interrupt>
    41000514:	f95ff06f          	j	410004a8 <trap_handler_m__clear_highest_priority_interrupt>
    41000518:	f91ff06f          	j	410004a8 <trap_handler_m__clear_highest_priority_interrupt>
    4100051c:	f8dff06f          	j	410004a8 <trap_handler_m__clear_highest_priority_interrupt>
    41000520:	f89ff06f          	j	410004a8 <trap_handler_m__clear_highest_priority_interrupt>
    41000524:	f85ff06f          	j	410004a8 <trap_handler_m__clear_highest_priority_interrupt>
    41000528:	f81ff06f          	j	410004a8 <trap_handler_m__clear_highest_priority_interrupt>
    4100052c:	f7dff06f          	j	410004a8 <trap_handler_m__clear_highest_priority_interrupt>
    41000530:	f79ff06f          	j	410004a8 <trap_handler_m__clear_highest_priority_interrupt>
    41000534:	f75ff06f          	j	410004a8 <trap_handler_m__clear_highest_priority_interrupt>
    41000538:	f71ff06f          	j	410004a8 <trap_handler_m__clear_highest_priority_interrupt>
    4100053c:	f6dff06f          	j	410004a8 <trap_handler_m__clear_highest_priority_interrupt>
    41000540:	f69ff06f          	j	410004a8 <trap_handler_m__clear_highest_priority_interrupt>
    41000544:	f65ff06f          	j	410004a8 <trap_handler_m__clear_highest_priority_interrupt>
    41000548:	f61ff06f          	j	410004a8 <trap_handler_m__clear_highest_priority_interrupt>
    4100054c:	f5dff06f          	j	410004a8 <trap_handler_m__clear_highest_priority_interrupt>
    41000550:	f59ff06f          	j	410004a8 <trap_handler_m__clear_highest_priority_interrupt>
    41000554:	f55ff06f          	j	410004a8 <trap_handler_m__clear_highest_priority_interrupt>
    41000558:	f51ff06f          	j	410004a8 <trap_handler_m__clear_highest_priority_interrupt>
    4100055c:	f4dff06f          	j	410004a8 <trap_handler_m__clear_highest_priority_interrupt>
    41000560:	f49ff06f          	j	410004a8 <trap_handler_m__clear_highest_priority_interrupt>
    41000564:	f45ff06f          	j	410004a8 <trap_handler_m__clear_highest_priority_interrupt>
    41000568:	f41ff06f          	j	410004a8 <trap_handler_m__clear_highest_priority_interrupt>
    4100056c:	f3dff06f          	j	410004a8 <trap_handler_m__clear_highest_priority_interrupt>
    41000570:	f39ff06f          	j	410004a8 <trap_handler_m__clear_highest_priority_interrupt>
    41000574:	f35ff06f          	j	410004a8 <trap_handler_m__clear_highest_priority_interrupt>
    41000578:	f31ff06f          	j	410004a8 <trap_handler_m__clear_highest_priority_interrupt>
    4100057c:	f2dff06f          	j	410004a8 <trap_handler_m__clear_highest_priority_interrupt>
    41000580:	f29ff06f          	j	410004a8 <trap_handler_m__clear_highest_priority_interrupt>
    41000584:	f25ff06f          	j	410004a8 <trap_handler_m__clear_highest_priority_interrupt>
    41000588:	f21ff06f          	j	410004a8 <trap_handler_m__clear_highest_priority_interrupt>
    4100058c:	f1dff06f          	j	410004a8 <trap_handler_m__clear_highest_priority_interrupt>
    41000590:	f19ff06f          	j	410004a8 <trap_handler_m__clear_highest_priority_interrupt>
    41000594:	f15ff06f          	j	410004a8 <trap_handler_m__clear_highest_priority_interrupt>
    41000598:	f11ff06f          	j	410004a8 <trap_handler_m__clear_highest_priority_interrupt>
    4100059c:	f0dff06f          	j	410004a8 <trap_handler_m__clear_highest_priority_interrupt>
    410005a0:	f09ff06f          	j	410004a8 <trap_handler_m__clear_highest_priority_interrupt>
    410005a4:	f05ff06f          	j	410004a8 <trap_handler_m__clear_highest_priority_interrupt>
    410005a8:	f01ff06f          	j	410004a8 <trap_handler_m__clear_highest_priority_interrupt>
    410005ac:	efdff06f          	j	410004a8 <trap_handler_m__clear_highest_priority_interrupt>
    410005b0:	ef9ff06f          	j	410004a8 <trap_handler_m__clear_highest_priority_interrupt>
    410005b4:	ef5ff06f          	j	410004a8 <trap_handler_m__clear_highest_priority_interrupt>

00000000410005b8 <trap_handler_m__trap_handler>:
    410005b8:	342022f3          	csrr	x5,mcause
    410005bc:	fff0031b          	addiw	x6,x0,-1
    410005c0:	03f31313          	slli	x6,x6,0x3f
    410005c4:	00537333          	and	x6,x6,x5
    410005c8:	02030263          	beqz	x6,410005ec <trap_handler_m__exception_path>

00000000410005cc <trap_handler_m__interrupt_handler>:
    410005cc:	fff0031b          	addiw	x6,x0,-1
    410005d0:	03f31313          	slli	x6,x6,0x3f
    410005d4:	0062c2b3          	xor	x5,x5,x6
    410005d8:	00000317          	auipc	x6,0x0
    410005dc:	ee430313          	addi	x6,x6,-284 # 410004bc <trap_handler_m__trap_entry>
    410005e0:	00229293          	slli	x5,x5,0x2
    410005e4:	005302b3          	add	x5,x6,x5
    410005e8:	00028067          	jr	x5 # 2000 <pma_region_1_size+0x1000>

00000000410005ec <trap_handler_m__exception_path>:
    410005ec:	34021273          	csrrw	x4,mscratch,x4
    410005f0:	00000297          	auipc	x5,0x0
    410005f4:	10828293          	addi	x5,x5,264 # 410006f8 <trap_handler_m__trap_panic>
    410005f8:	30529073          	csrw	mtvec,x5
    410005fc:	0040006f          	j	41000600 <trap_handler_m__excp_entry>

0000000041000600 <trap_handler_m__excp_entry>:
    41000600:	34202373          	csrr	x6,mcause
    41000604:	00800293          	li	x5,8
    41000608:	00534863          	blt	x6,x5,41000618 <trap_handler_m__check_exception_label>
    4100060c:	00b00293          	li	x5,11
    41000610:	0062c463          	blt	x5,x6,41000618 <trap_handler_m__check_exception_label>
    41000614:	aa5ff06f          	j	410000b8 <syscalls__syscall_check_schedule_next_test>

0000000041000618 <trap_handler_m__check_exception_label>:
    41000618:	04623c23          	sd	x6,88(x4) # 58 <XLEN+0x18>
    4100061c:	341022f3          	csrr	x5,mepc
    41000620:	02523423          	sd	x5,40(x4) # 28 <SECURE_ACCESS_PROBABILITY+0xa>
    41000624:	01820283          	lb	x5,24(x4) # 18 <STORE_GUEST_PAGE_FAULT+0x1>
    41000628:	00029863          	bnez	x5,41000638 <trap_handler_m__check_excp>
    4100062c:	00128293          	addi	x5,x5,1
    41000630:	00520c23          	sb	x5,24(x4) # 18 <STORE_GUEST_PAGE_FAULT+0x1>
    41000634:	0980006f          	j	410006cc <trap_handler_m__ecall_from_machine>

0000000041000638 <trap_handler_m__check_excp>:
    41000638:	06823283          	ld	x5,104(x4) # 68 <XLEN+0x28>
    4100063c:	06023423          	sd	x0,104(x4) # 68 <XLEN+0x28>
    41000640:	00028663          	beqz	x5,4100064c <trap_handler_m__skip_mode_check>
    41000644:	00100393          	li	x7,1
    41000648:	0e729463          	bne	x5,x7,41000730 <test_failed>

000000004100064c <trap_handler_m__skip_mode_check>:
    4100064c:	05023283          	ld	x5,80(x4) # 50 <XLEN+0x10>
    41000650:	04023823          	sd	x0,80(x4) # 50 <XLEN+0x10>
    41000654:	0c531e63          	bne	x6,x5,41000730 <test_failed>
    41000658:	03823283          	ld	x5,56(x4) # 38 <SECURE_ACCESS_PROBABILITY+0x1a>
    4100065c:	02023c23          	sd	x0,56(x4) # 38 <SECURE_ACCESS_PROBABILITY+0x1a>
    41000660:	06029463          	bnez	x5,410006c8 <trap_handler_m__skip_gva_check>
    41000664:	02023303          	ld	x6,32(x4) # 20 <SECURE_ACCESS_PROBABILITY+0x2>
    41000668:	02023023          	sd	x0,32(x4) # 20 <SECURE_ACCESS_PROBABILITY+0x2>
    4100066c:	02823283          	ld	x5,40(x4) # 28 <SECURE_ACCESS_PROBABILITY+0xa>
    41000670:	02023423          	sd	x0,40(x4) # 28 <SECURE_ACCESS_PROBABILITY+0xa>
    41000674:	0a531e63          	bne	x6,x5,41000730 <test_failed>
    41000678:	04023283          	ld	x5,64(x4) # 40 <XLEN>
    4100067c:	04023023          	sd	x0,64(x4) # 40 <XLEN>
    41000680:	00028663          	beqz	x5,4100068c <trap_handler_m__skip_nonzero_tval_check>

0000000041000684 <trap_handler_m__nonzero_tval_check>:
    41000684:	34302373          	csrr	x6,mtval
    41000688:	0a531463          	bne	x6,x5,41000730 <test_failed>

000000004100068c <trap_handler_m__skip_nonzero_tval_check>:
    4100068c:	04823283          	ld	x5,72(x4) # 48 <XLEN+0x8>
    41000690:	04023423          	sd	x0,72(x4) # 48 <XLEN+0x8>
    41000694:	00028663          	beqz	x5,410006a0 <trap_handler_m__skip_nonzero_htval_check>

0000000041000698 <trap_handler_m__nonzero_htval_check>:
    41000698:	34b02373          	csrr	x6,0x34b
    4100069c:	08531a63          	bne	x6,x5,41000730 <test_failed>

00000000410006a0 <trap_handler_m__skip_nonzero_htval_check>:
    410006a0:	06023283          	ld	x5,96(x4) # 60 <XLEN+0x20>
    410006a4:	06023023          	sd	x0,96(x4) # 60 <XLEN+0x20>
    410006a8:	02028063          	beqz	x5,410006c8 <trap_handler_m__skip_gva_check>

00000000410006ac <trap_handler_m__gva_check>:
    410006ac:	30002373          	csrr	x6,mstatus
    410006b0:	02635313          	srli	x6,x6,0x26
    410006b4:	00137313          	andi	x6,x6,1
    410006b8:	06030c63          	beqz	x6,41000730 <test_failed>
    410006bc:	0010031b          	addiw	x6,x0,1
    410006c0:	02631313          	slli	x6,x6,0x26
    410006c4:	30033073          	csrc	mstatus,x6

00000000410006c8 <trap_handler_m__skip_gva_check>:
    410006c8:	0040006f          	j	410006cc <trap_handler_m__ecall_from_machine>

00000000410006cc <trap_handler_m__ecall_from_machine>:
    410006cc:	03023283          	ld	x5,48(x4) # 30 <SECURE_ACCESS_PROBABILITY+0x12>
    410006d0:	02023823          	sd	x0,48(x4) # 30 <SECURE_ACCESS_PROBABILITY+0x12>
    410006d4:	07023303          	ld	x6,112(x4) # 70 <XLEN+0x30>
    410006d8:	06023823          	sd	x0,112(x4) # 70 <XLEN+0x30>
    410006dc:	00031463          	bnez	x6,410006e4 <trap_handler_m__skip_xepc_write>
    410006e0:	34129073          	csrw	mepc,x5

00000000410006e4 <trap_handler_m__skip_xepc_write>:
    410006e4:	00000317          	auipc	x6,0x0
    410006e8:	dd830313          	addi	x6,x6,-552 # 410004bc <trap_handler_m__trap_entry>
    410006ec:	30531073          	csrw	mtvec,x6
    410006f0:	34021273          	csrrw	x4,mscratch,x4
    410006f4:	30200073          	mret

00000000410006f8 <trap_handler_m__trap_panic>:
    410006f8:	00000193          	li	x3,0
    410006fc:	2b40006f          	j	410009b0 <eot__end_test>

0000000041000700 <enter_scheduler>:
    41000700:	0002f337          	lui	x6,0x2f
    41000704:	ab73031b          	addiw	x6,x6,-1353 # 2eab7 <_all_interrupts+0x2c00d>
    41000708:	00e31313          	slli	x6,x6,0xe
    4100070c:	0de30313          	addi	x6,x6,222
    41000710:	02628063          	beq	x5,x6,41000730 <test_failed>
    41000714:	00000513          	li	x10,0
    41000718:	030000ef          	jal	41000748 <rvcp_print_test_result>
    4100071c:	3180006f          	j	41000a34 <scheduler__dispatch>

0000000041000720 <test_passed>:
    41000720:	34021273          	csrrw	x4,mscratch,x4
    41000724:	00000513          	li	x10,0
    41000728:	020000ef          	jal	41000748 <rvcp_print_test_result>
    4100072c:	3080006f          	j	41000a34 <scheduler__dispatch>

0000000041000730 <test_failed>:
    41000730:	34021273          	csrrw	x4,mscratch,x4
    41000734:	00300193          	li	x3,3
    41000738:	2780006f          	j	410009b0 <eot__end_test>

000000004100073c <os_end_test>:
    4100073c:	34021273          	csrrw	x4,mscratch,x4
    41000740:	00100193          	li	x3,1
    41000744:	26c0006f          	j	410009b0 <eot__end_test>

0000000041000748 <rvcp_print_test_result>:
    41000748:	00050e13          	mv	x28,x10
    4100074c:	18823283          	ld	x5,392(x4) # 188 <XLEN+0x148>
    41000750:	0010031b          	addiw	x6,x0,1
    41000754:	02031313          	slli	x6,x6,0x20
    41000758:	ffe30313          	addi	x6,x6,-2
    4100075c:	1c628063          	beq	x5,x6,4100091c <rvcp_print_test_result+0x1d4>
    41000760:	0010031b          	addiw	x6,x0,1
    41000764:	02031313          	slli	x6,x6,0x20
    41000768:	fff30313          	addi	x6,x6,-1
    4100076c:	1a628863          	beq	x5,x6,4100091c <rvcp_print_test_result+0x1d4>
    41000770:	1a02c663          	bltz	x5,4100091c <rvcp_print_test_result+0x1d4>
    41000774:	00000317          	auipc	x6,0x0
    41000778:	3d830313          	addi	x6,x6,984 # 41000b4c <dtest_descriptor_table>
    4100077c:	00329393          	slli	x7,x5,0x3
    41000780:	00730333          	add	x6,x6,x7
    41000784:	00033e83          	ld	x29,0(x6)
    41000788:	41232f37          	lui	x30,0x41232
    4100078c:	030f0f1b          	addiw	x30,x30,48 # 41232030 <rvcp_prefix_str>
    41000790:	000f4283          	lbu	x5,0(x30)
    41000794:	02028663          	beqz	x5,410007c0 <rvcp_print_test_result+0x78>
    41000798:	1010031b          	addiw	x6,x0,257
    4100079c:	03031313          	slli	x6,x6,0x30
    410007a0:	005362b3          	or	x5,x6,x5
    410007a4:	00040317          	auipc	x6,0x40
    410007a8:	85c30313          	addi	x6,x6,-1956 # 41040000 <tohost>
    410007ac:	00033383          	ld	x7,0(x6)
    410007b0:	fe039ee3          	bnez	x7,410007ac <rvcp_print_test_result+0x64>
    410007b4:	00533023          	sd	x5,0(x6)
    410007b8:	001f0f13          	addi	x30,x30,1
    410007bc:	fd5ff06f          	j	41000790 <rvcp_print_test_result+0x48>
    410007c0:	41232f37          	lui	x30,0x41232
    410007c4:	041f0f1b          	addiw	x30,x30,65 # 41232041 <rvcp_testname_str>
    410007c8:	000f4283          	lbu	x5,0(x30)
    410007cc:	02028663          	beqz	x5,410007f8 <rvcp_print_test_result+0xb0>
    410007d0:	1010031b          	addiw	x6,x0,257
    410007d4:	03031313          	slli	x6,x6,0x30
    410007d8:	005362b3          	or	x5,x6,x5
    410007dc:	00040317          	auipc	x6,0x40
    410007e0:	82430313          	addi	x6,x6,-2012 # 41040000 <tohost>
    410007e4:	00033383          	ld	x7,0(x6)
    410007e8:	fe039ee3          	bnez	x7,410007e4 <rvcp_print_test_result+0x9c>
    410007ec:	00533023          	sd	x5,0(x6)
    410007f0:	001f0f13          	addi	x30,x30,1
    410007f4:	fd5ff06f          	j	410007c8 <rvcp_print_test_result+0x80>
    410007f8:	41232f37          	lui	x30,0x41232
    410007fc:	05ff0f1b          	addiw	x30,x30,95 # 4123205f <rvcp_space_str>
    41000800:	000f4283          	lbu	x5,0(x30)
    41000804:	02028663          	beqz	x5,41000830 <rvcp_print_test_result+0xe8>
    41000808:	1010031b          	addiw	x6,x0,257
    4100080c:	03031313          	slli	x6,x6,0x30
    41000810:	005362b3          	or	x5,x6,x5
    41000814:	0003f317          	auipc	x6,0x3f
    41000818:	7ec30313          	addi	x6,x6,2028 # 41040000 <tohost>
    4100081c:	00033383          	ld	x7,0(x6)
    41000820:	fe039ee3          	bnez	x7,4100081c <rvcp_print_test_result+0xd4>
    41000824:	00533023          	sd	x5,0(x6)
    41000828:	001f0f13          	addi	x30,x30,1
    4100082c:	fd5ff06f          	j	41000800 <rvcp_print_test_result+0xb8>
    41000830:	000e8f13          	mv	x30,x29
    41000834:	000f4283          	lbu	x5,0(x30)
    41000838:	02028663          	beqz	x5,41000864 <rvcp_print_test_result+0x11c>
    4100083c:	1010031b          	addiw	x6,x0,257
    41000840:	03031313          	slli	x6,x6,0x30
    41000844:	005362b3          	or	x5,x6,x5
    41000848:	0003f317          	auipc	x6,0x3f
    4100084c:	7b830313          	addi	x6,x6,1976 # 41040000 <tohost>
    41000850:	00033383          	ld	x7,0(x6)
    41000854:	fe039ee3          	bnez	x7,41000850 <rvcp_print_test_result+0x108>
    41000858:	00533023          	sd	x5,0(x6)
    4100085c:	001f0f13          	addi	x30,x30,1
    41000860:	fd5ff06f          	j	41000834 <rvcp_print_test_result+0xec>
    41000864:	41232f37          	lui	x30,0x41232
    41000868:	05ff0f1b          	addiw	x30,x30,95 # 4123205f <rvcp_space_str>
    4100086c:	000f4283          	lbu	x5,0(x30)
    41000870:	02028663          	beqz	x5,4100089c <rvcp_print_test_result+0x154>
    41000874:	1010031b          	addiw	x6,x0,257
    41000878:	03031313          	slli	x6,x6,0x30
    4100087c:	005362b3          	or	x5,x6,x5
    41000880:	0003f317          	auipc	x6,0x3f
    41000884:	78030313          	addi	x6,x6,1920 # 41040000 <tohost>
    41000888:	00033383          	ld	x7,0(x6)
    4100088c:	fe039ee3          	bnez	x7,41000888 <rvcp_print_test_result+0x140>
    41000890:	00533023          	sd	x5,0(x6)
    41000894:	001f0f13          	addi	x30,x30,1
    41000898:	fd5ff06f          	j	4100086c <rvcp_print_test_result+0x124>
    4100089c:	000e1863          	bnez	x28,410008ac <rvcp_print_test_result+0x164>
    410008a0:	41232f37          	lui	x30,0x41232
    410008a4:	051f0f1b          	addiw	x30,x30,81 # 41232051 <rvcp_passed_str>
    410008a8:	00c0006f          	j	410008b4 <rvcp_print_test_result+0x16c>
    410008ac:	41232f37          	lui	x30,0x41232
    410008b0:	058f0f1b          	addiw	x30,x30,88 # 41232058 <rvcp_failed_str>
    410008b4:	000f4283          	lbu	x5,0(x30)
    410008b8:	02028663          	beqz	x5,410008e4 <rvcp_print_test_result+0x19c>
    410008bc:	1010031b          	addiw	x6,x0,257
    410008c0:	03031313          	slli	x6,x6,0x30
    410008c4:	005362b3          	or	x5,x6,x5
    410008c8:	0003f317          	auipc	x6,0x3f
    410008cc:	73830313          	addi	x6,x6,1848 # 41040000 <tohost>
    410008d0:	00033383          	ld	x7,0(x6)
    410008d4:	fe039ee3          	bnez	x7,410008d0 <rvcp_print_test_result+0x188>
    410008d8:	00533023          	sd	x5,0(x6)
    410008dc:	001f0f13          	addi	x30,x30,1
    410008e0:	fd5ff06f          	j	410008b4 <rvcp_print_test_result+0x16c>
    410008e4:	41232f37          	lui	x30,0x41232
    410008e8:	061f0f1b          	addiw	x30,x30,97 # 41232061 <rvcp_newline_str>
    410008ec:	000f4283          	lbu	x5,0(x30)
    410008f0:	02028663          	beqz	x5,4100091c <rvcp_print_test_result+0x1d4>
    410008f4:	1010031b          	addiw	x6,x0,257
    410008f8:	03031313          	slli	x6,x6,0x30
    410008fc:	005362b3          	or	x5,x6,x5
    41000900:	0003f317          	auipc	x6,0x3f
    41000904:	70030313          	addi	x6,x6,1792 # 41040000 <tohost>
    41000908:	00033383          	ld	x7,0(x6)
    4100090c:	fe039ee3          	bnez	x7,41000908 <rvcp_print_test_result+0x1c0>
    41000910:	00533023          	sd	x5,0(x6)
    41000914:	001f0f13          	addi	x30,x30,1
    41000918:	fd5ff06f          	j	410008ec <rvcp_print_test_result+0x1a4>
    4100091c:	00008067          	ret

0000000041000920 <os_rng_orig>:
    41000920:	f14023f3          	csrr	x7,mhartid
    41000924:	00068313          	mv	x6,x13
    41000928:	026383b3          	mul	x7,x7,x6
    4100092c:	00058313          	mv	x6,x11
    41000930:	00730333          	add	x6,x6,x7
    41000934:	00033283          	ld	x5,0(x6)
    41000938:	01529313          	slli	x6,x5,0x15
    4100093c:	0062c2b3          	xor	x5,x5,x6
    41000940:	0232d313          	srli	x6,x5,0x23
    41000944:	0062c2b3          	xor	x5,x5,x6
    41000948:	00429313          	slli	x6,x5,0x4
    4100094c:	0062c2b3          	xor	x5,x5,x6
    41000950:	00058313          	mv	x6,x11
    41000954:	00730333          	add	x6,x6,x7
    41000958:	00533023          	sd	x5,0(x6)
    4100095c:	00060313          	mv	x6,x12
    41000960:	0262f2b3          	remu	x5,x5,x6
    41000964:	00028513          	mv	x10,x5
    41000968:	00008067          	ret
    4100096c:	02a00513          	li	x10,42
    41000970:	001965b7          	lui	x11,0x196
    41000974:	60d5859b          	addiw	x11,x11,1549 # 19660d <pma_region_0_size+0x15660d>
    41000978:	3c6ef637          	lui	x12,0x3c6ef
    4100097c:	35f6061b          	addiw	x12,x12,863 # 3c6ef35f <pma_region_2_size+0x386ef35f>
    41000980:	02200693          	li	x13,34
    41000984:	02b50533          	mul	x10,x10,x11
    41000988:	00c50533          	add	x10,x10,x12
    4100098c:	02d56533          	rem	x10,x10,x13
    41000990:	00b00593          	li	x11,11
    41000994:	02b56533          	rem	x10,x10,x11
    41000998:	00008067          	ret
    4100099c:	0000                	.insn	2, 0x0000
	...

00000000410009a0 <tohost_mutex>:
	...

00000000410009a8 <tohost_addr_mem>:
    410009a8:	0000                	.insn	2, 0x0000
    410009aa:	4104                	.insn	2, 0x4104
    410009ac:	0000                	.insn	2, 0x0000
	...

00000000410009b0 <eot__end_test>:
    410009b0:	00100293          	li	x5,1
    410009b4:	00328463          	beq	x5,x3,410009bc <eot__passed>
    410009b8:	01c0006f          	j	410009d4 <eot__failed>

00000000410009bc <eot__passed>:
    410009bc:	0ff0000f          	fence
    410009c0:	00000297          	auipc	x5,0x0
    410009c4:	fe82b283          	ld	x5,-24(x5) # 410009a8 <tohost_addr_mem>
    410009c8:	00100313          	li	x6,1
    410009cc:	0062a023          	sw	x6,0(x5)
    410009d0:	0240006f          	j	410009f4 <eot__halt>

00000000410009d4 <eot__failed>:
    410009d4:	00100513          	li	x10,1
    410009d8:	d71ff0ef          	jal	41000748 <rvcp_print_test_result>
    410009dc:	0ff0000f          	fence
    410009e0:	00000297          	auipc	x5,0x0
    410009e4:	fc82b283          	ld	x5,-56(x5) # 410009a8 <tohost_addr_mem>
    410009e8:	00300313          	li	x6,3
    410009ec:	0062a023          	sw	x6,0(x5)
    410009f0:	0040006f          	j	410009f4 <eot__halt>

00000000410009f4 <eot__halt>:
    410009f4:	10500073          	wfi
    410009f8:	ffdff06f          	j	410009f4 <eot__halt>

00000000410009fc <scheduler__init>:
    410009fc:	00000297          	auipc	x5,0x0
    41000a00:	0c028293          	addi	x5,x5,192 # 41000abc <scheduler__panic>
    41000a04:	305292f3          	csrrw	x5,mtvec,x5
    41000a08:	18523023          	sd	x5,384(x4) # 180 <XLEN+0x140>
    41000a0c:	01000293          	li	x5,16
    41000a10:	18523823          	sd	x5,400(x4) # 190 <XLEN+0x150>
    41000a14:	0010029b          	addiw	x5,x0,1
    41000a18:	02029293          	slli	x5,x5,0x20
    41000a1c:	ffe28293          	addi	x5,x5,-2
    41000a20:	18523423          	sd	x5,392(x4) # 188 <XLEN+0x148>
    41000a24:	00000317          	auipc	x6,0x0
    41000a28:	2b030313          	addi	x6,x6,688 # 41000cd4 <scheduler__test_setup_ptr>
    41000a2c:	00033303          	ld	x6,0(x6)
    41000a30:	0640006f          	j	41000a94 <scheduler__execute_test>

0000000041000a34 <scheduler__dispatch>:
    41000a34:	00000297          	auipc	x5,0x0
    41000a38:	08828293          	addi	x5,x5,136 # 41000abc <scheduler__panic>
    41000a3c:	305292f3          	csrrw	x5,mtvec,x5
    41000a40:	18523023          	sd	x5,384(x4) # 180 <XLEN+0x140>

0000000041000a44 <scheduler__csr_read_randomization>:
    41000a44:	f13022f3          	csrr	x5,mimpid
    41000a48:	f13022f3          	csrr	x5,mimpid
    41000a4c:	f15022f3          	csrr	x5,0xf15
    41000a50:	104022f3          	csrr	x5,sie
    41000a54:	144022f3          	csrr	x5,sip

0000000041000a58 <scheduler__load_num_runs>:
    41000a58:	19023303          	ld	x6,400(x4) # 190 <XLEN+0x150>
    41000a5c:	04030c63          	beqz	x6,41000ab4 <scheduler__finished>

0000000041000a60 <scheduler__decrement_num_runs>:
    41000a60:	fff30393          	addi	x7,x6,-1
    41000a64:	18723823          	sd	x7,400(x4) # 190 <XLEN+0x150>
    41000a68:	00000e17          	auipc	x28,0x0
    41000a6c:	228e0e13          	addi	x28,x28,552 # 41000c90 <dtest_index_map>
    41000a70:	00239e93          	slli	x29,x7,0x2
    41000a74:	01de0e33          	add	x28,x28,x29
    41000a78:	000e2e03          	lw	x28,0(x28)
    41000a7c:	19c23423          	sd	x28,392(x4) # 188 <XLEN+0x148>

0000000041000a80 <scheduler__calc_test_pointer>:
    41000a80:	00339293          	slli	x5,x7,0x3

0000000041000a84 <scheduler__load_test_addr>:
    41000a84:	00000317          	auipc	x6,0x0
    41000a88:	04830313          	addi	x6,x6,72 # 41000acc <os_test_sequence>
    41000a8c:	006282b3          	add	x5,x5,x6
    41000a90:	0002b303          	ld	x6,0(x5)

0000000041000a94 <scheduler__execute_test>:
    41000a94:	18023283          	ld	x5,384(x4) # 180 <XLEN+0x140>
    41000a98:	30529073          	csrw	mtvec,x5
    41000a9c:	34021273          	csrrw	x4,mscratch,x4
    41000aa0:	00000213          	li	x4,0
    41000aa4:	14131073          	csrw	sepc,x6
    41000aa8:	10000293          	li	x5,256
    41000aac:	1002a073          	csrs	sstatus,x5
    41000ab0:	10200073          	sret

0000000041000ab4 <scheduler__finished>:
    41000ab4:	00100193          	li	x3,1
    41000ab8:	ef9ff06f          	j	410009b0 <eot__end_test>

0000000041000abc <scheduler__panic>:
    41000abc:	00000193          	li	x3,0
    41000ac0:	ef1ff06f          	j	410009b0 <eot__end_test>

0000000041000ac4 <num_runs>:
    41000ac4:	0010                	.insn	2, 0x0010
    41000ac6:	0000                	.insn	2, 0x0000
    41000ac8:	0000                	.insn	2, 0x0000
	...

0000000041000acc <os_test_sequence>:
    41000acc:	5894                	.insn	2, 0x5894
    41000ace:	4101                	.insn	2, 0x4101
    41000ad0:	0000                	.insn	2, 0x0000
    41000ad2:	0000                	.insn	2, 0x0000
    41000ad4:	57f8                	.insn	2, 0x57f8
    41000ad6:	4101                	.insn	2, 0x4101
    41000ad8:	0000                	.insn	2, 0x0000
    41000ada:	0000                	.insn	2, 0x0000
    41000adc:	5494                	.insn	2, 0x5494
    41000ade:	4101                	.insn	2, 0x4101
    41000ae0:	0000                	.insn	2, 0x0000
    41000ae2:	0000                	.insn	2, 0x0000
    41000ae4:	4040                	.insn	2, 0x4040
    41000ae6:	4101                	.insn	2, 0x4101
    41000ae8:	0000                	.insn	2, 0x0000
    41000aea:	0000                	.insn	2, 0x0000
    41000aec:	57c8                	.insn	2, 0x57c8
    41000aee:	4101                	.insn	2, 0x4101
    41000af0:	0000                	.insn	2, 0x0000
    41000af2:	0000                	.insn	2, 0x0000
    41000af4:	4f34                	.insn	2, 0x4f34
    41000af6:	4101                	.insn	2, 0x4101
    41000af8:	0000                	.insn	2, 0x0000
    41000afa:	0000                	.insn	2, 0x0000
    41000afc:	4d6c                	.insn	2, 0x4d6c
    41000afe:	4101                	.insn	2, 0x4101
    41000b00:	0000                	.insn	2, 0x0000
    41000b02:	0000                	.insn	2, 0x0000
    41000b04:	473c                	.insn	2, 0x473c
    41000b06:	4101                	.insn	2, 0x4101
    41000b08:	0000                	.insn	2, 0x0000
    41000b0a:	0000                	.insn	2, 0x0000
    41000b0c:	5378                	.insn	2, 0x5378
    41000b0e:	4101                	.insn	2, 0x4101
    41000b10:	0000                	.insn	2, 0x0000
    41000b12:	0000                	.insn	2, 0x0000
    41000b14:	519c                	.insn	2, 0x519c
    41000b16:	4101                	.insn	2, 0x4101
    41000b18:	0000                	.insn	2, 0x0000
    41000b1a:	0000                	.insn	2, 0x0000
    41000b1c:	55bc                	.insn	2, 0x55bc
    41000b1e:	4101                	.insn	2, 0x4101
    41000b20:	0000                	.insn	2, 0x0000
    41000b22:	0000                	.insn	2, 0x0000
    41000b24:	4aa4                	.insn	2, 0x4aa4
    41000b26:	4101                	.insn	2, 0x4101
    41000b28:	0000                	.insn	2, 0x0000
    41000b2a:	0000                	.insn	2, 0x0000
    41000b2c:	4214                	.insn	2, 0x4214
    41000b2e:	4101                	.insn	2, 0x4101
    41000b30:	0000                	.insn	2, 0x0000
    41000b32:	0000                	.insn	2, 0x0000
    41000b34:	5714                	.insn	2, 0x5714
    41000b36:	4101                	.insn	2, 0x4101
    41000b38:	0000                	.insn	2, 0x0000
    41000b3a:	0000                	.insn	2, 0x0000
    41000b3c:	540c                	.insn	2, 0x540c
    41000b3e:	4101                	.insn	2, 0x4101
    41000b40:	0000                	.insn	2, 0x0000
    41000b42:	0000                	.insn	2, 0x0000
    41000b44:	43d4                	.insn	2, 0x43d4
    41000b46:	4101                	.insn	2, 0x4101
    41000b48:	0000                	.insn	2, 0x0000
	...

0000000041000b4c <dtest_descriptor_table>:
    41000b4c:	0bc4                	.insn	2, 0x0bc4
    41000b4e:	4100                	.insn	2, 0x4100
    41000b50:	0000                	.insn	2, 0x0000
    41000b52:	0000                	.insn	2, 0x0000
    41000b54:	0bd4                	.insn	2, 0x0bd4
    41000b56:	4100                	.insn	2, 0x4100
    41000b58:	0000                	.insn	2, 0x0000
    41000b5a:	0000                	.insn	2, 0x0000
    41000b5c:	0be1                	.insn	2, 0x0be1
    41000b5e:	4100                	.insn	2, 0x4100
    41000b60:	0000                	.insn	2, 0x0000
    41000b62:	0000                	.insn	2, 0x0000
    41000b64:	0bee                	.insn	2, 0x0bee
    41000b66:	4100                	.insn	2, 0x4100
    41000b68:	0000                	.insn	2, 0x0000
    41000b6a:	0000                	.insn	2, 0x0000
    41000b6c:	41000bfb          	.insn	4, 0x41000bfb
    41000b70:	0000                	.insn	2, 0x0000
    41000b72:	0000                	.insn	2, 0x0000
    41000b74:	0c08                	.insn	2, 0x0c08
    41000b76:	4100                	.insn	2, 0x4100
    41000b78:	0000                	.insn	2, 0x0000
    41000b7a:	0000                	.insn	2, 0x0000
    41000b7c:	0c15                	.insn	2, 0x0c15
    41000b7e:	4100                	.insn	2, 0x4100
    41000b80:	0000                	.insn	2, 0x0000
    41000b82:	0000                	.insn	2, 0x0000
    41000b84:	0c22                	.insn	2, 0x0c22
    41000b86:	4100                	.insn	2, 0x4100
    41000b88:	0000                	.insn	2, 0x0000
    41000b8a:	0000                	.insn	2, 0x0000
    41000b8c:	0c31                	.insn	2, 0x0c31
    41000b8e:	4100                	.insn	2, 0x4100
    41000b90:	0000                	.insn	2, 0x0000
    41000b92:	0000                	.insn	2, 0x0000
    41000b94:	0c3e                	.insn	2, 0x0c3e
    41000b96:	4100                	.insn	2, 0x4100
    41000b98:	0000                	.insn	2, 0x0000
    41000b9a:	0000                	.insn	2, 0x0000
    41000b9c:	41000c4b          	fnmsub.s	f24,f0,f16,f8,rne
    41000ba0:	0000                	.insn	2, 0x0000
    41000ba2:	0000                	.insn	2, 0x0000
    41000ba4:	0c5a                	.insn	2, 0x0c5a
    41000ba6:	4100                	.insn	2, 0x4100
    41000ba8:	0000                	.insn	2, 0x0000
    41000baa:	0000                	.insn	2, 0x0000
    41000bac:	0c69                	.insn	2, 0x0c69
    41000bae:	4100                	.insn	2, 0x4100
    41000bb0:	0000                	.insn	2, 0x0000
    41000bb2:	0000                	.insn	2, 0x0000
    41000bb4:	0c76                	.insn	2, 0x0c76
    41000bb6:	4100                	.insn	2, 0x4100
    41000bb8:	0000                	.insn	2, 0x0000
    41000bba:	0000                	.insn	2, 0x0000
    41000bbc:	41000c83          	lb	x25,1040(x0) # 410 <XLEN+0x3d0>
    41000bc0:	0000                	.insn	2, 0x0000
	...

0000000041000bc4 <dtest_name_0>:
    41000bc4:	5f444953          	.insn	4, 0x5f444953
    41000bc8:	5845                	.insn	2, 0x5845
    41000bca:	5f504543          	.insn	4, 0x5f504543
    41000bce:	3430                	.insn	2, 0x3430
    41000bd0:	535f 0055       	.insn	6, 0x49530055535f

0000000041000bd4 <dtest_name_1>:
    41000bd4:	5f444953          	.insn	4, 0x5f444953
    41000bd8:	5845                	.insn	2, 0x5845
    41000bda:	5f504543          	.insn	4, 0x5f504543
    41000bde:	3530                	.insn	2, 0x3530
	...

0000000041000be1 <dtest_name_2>:
    41000be1:	5f444953          	.insn	4, 0x5f444953
    41000be5:	5845                	.insn	2, 0x5845
    41000be7:	5f504543          	.insn	4, 0x5f504543
    41000beb:	3630                	.insn	2, 0x3630
	...

0000000041000bee <dtest_name_3>:
    41000bee:	5f444953          	.insn	4, 0x5f444953
    41000bf2:	5845                	.insn	2, 0x5845
    41000bf4:	5f504543          	.insn	4, 0x5f504543
    41000bf8:	3730                	.insn	2, 0x3730
	...

0000000041000bfb <dtest_name_4>:
    41000bfb:	5f444953          	.insn	4, 0x5f444953
    41000bff:	5845                	.insn	2, 0x5845
    41000c01:	5f504543          	.insn	4, 0x5f504543
    41000c05:	3830                	.insn	2, 0x3830
	...

0000000041000c08 <dtest_name_5>:
    41000c08:	5f444953          	.insn	4, 0x5f444953
    41000c0c:	5845                	.insn	2, 0x5845
    41000c0e:	5f504543          	.insn	4, 0x5f504543
    41000c12:	3031                	.insn	2, 0x3031
	...

0000000041000c15 <dtest_name_6>:
    41000c15:	5f444953          	.insn	4, 0x5f444953
    41000c19:	5845                	.insn	2, 0x5845
    41000c1b:	5f504543          	.insn	4, 0x5f504543
    41000c1f:	3231                	.insn	2, 0x3231
	...

0000000041000c22 <dtest_name_7>:
    41000c22:	5f444953          	.insn	4, 0x5f444953
    41000c26:	5845                	.insn	2, 0x5845
    41000c28:	5f504543          	.insn	4, 0x5f504543
    41000c2c:	3531                	.insn	2, 0x3531
    41000c2e:	535f        	.insn	6, 0x44495300535f

0000000041000c31 <dtest_name_8>:
    41000c31:	5f444953          	.insn	4, 0x5f444953
    41000c35:	5845                	.insn	2, 0x5845
    41000c37:	5f504543          	.insn	4, 0x5f504543
    41000c3b:	3631                	.insn	2, 0x3631
	...

0000000041000c3e <dtest_name_9>:
    41000c3e:	5f444953          	.insn	4, 0x5f444953
    41000c42:	5845                	.insn	2, 0x5845
    41000c44:	5f504543          	.insn	4, 0x5f504543
    41000c48:	3731                	.insn	2, 0x3731
	...

0000000041000c4b <dtest_name_10>:
    41000c4b:	5f444953          	.insn	4, 0x5f444953
    41000c4f:	5845                	.insn	2, 0x5845
    41000c51:	5f504543          	.insn	4, 0x5f504543
    41000c55:	535f3233          	.insn	4, 0x535f3233
	...

0000000041000c5a <dtest_name_11>:
    41000c5a:	5f444953          	.insn	4, 0x5f444953
    41000c5e:	5845                	.insn	2, 0x5845
    41000c60:	5f504543          	.insn	4, 0x5f504543
    41000c64:	535f3333          	.insn	4, 0x535f3333
	...

0000000041000c69 <dtest_name_12>:
    41000c69:	5f444953          	.insn	4, 0x5f444953
    41000c6d:	5845                	.insn	2, 0x5845
    41000c6f:	5f504543          	.insn	4, 0x5f504543
    41000c73:	          	.insn	4, 0x53003533

0000000041000c76 <dtest_name_13>:
    41000c76:	5f444953          	.insn	4, 0x5f444953
    41000c7a:	5845                	.insn	2, 0x5845
    41000c7c:	5f504543          	.insn	4, 0x5f504543
    41000c80:	          	.insn	4, 0x53003733

0000000041000c83 <dtest_name_14>:
    41000c83:	5f444953          	.insn	4, 0x5f444953
    41000c87:	5845                	.insn	2, 0x5845
    41000c89:	5f504543          	.insn	4, 0x5f504543
    41000c8d:	          	.insn	4, 0xff003833

0000000041000c90 <dtest_index_map>:
    41000c90:	ffff                	.insn	2, 0xffff
    41000c92:	ffff                	.insn	2, 0xffff
    41000c94:	000e                	.insn	2, 0x000e
    41000c96:	0000                	.insn	2, 0x0000
    41000c98:	000a                	.insn	2, 0x000a
    41000c9a:	0000                	.insn	2, 0x0000
    41000c9c:	0000                	.insn	2, 0x0000
    41000c9e:	0000                	.insn	2, 0x0000
    41000ca0:	000d                	.insn	2, 0x000d
    41000ca2:	0000                	.insn	2, 0x0000
    41000ca4:	0006                	.insn	2, 0x0006
    41000ca6:	0000                	.insn	2, 0x0000
    41000ca8:	0005                	.insn	2, 0x0005
    41000caa:	0000                	.insn	2, 0x0000
    41000cac:	00000003          	lb	x0,0(x0) # 0 <ALL_4KB_PAGES>
    41000cb0:	0008                	.insn	2, 0x0008
    41000cb2:	0000                	.insn	2, 0x0000
    41000cb4:	00000007          	vle8.v	v0,(x0),v0.t
    41000cb8:	0000000b          	.insn	4, 0x000b
    41000cbc:	0004                	.insn	2, 0x0004
    41000cbe:	0000                	.insn	2, 0x0000
    41000cc0:	0001                	.insn	2, 0x0001
    41000cc2:	0000                	.insn	2, 0x0000
    41000cc4:	000c                	.insn	2, 0x000c
    41000cc6:	0000                	.insn	2, 0x0000
    41000cc8:	0009                	.insn	2, 0x0009
    41000cca:	0000                	.insn	2, 0x0000
    41000ccc:	0002                	.insn	2, 0x0002
    41000cce:	0000                	.insn	2, 0x0000
    41000cd0:	0000                	.insn	2, 0x0000
	...

0000000041000cd4 <scheduler__test_setup_ptr>:
    41000cd4:	4030                	.insn	2, 0x4030
    41000cd6:	4101                	.insn	2, 0x4101
    41000cd8:	0000                	.insn	2, 0x0000
	...

0000000041000cdc <scheduler__test_cleanup_ptr>:
    41000cdc:	5894                	.insn	2, 0x5894
    41000cde:	4101                	.insn	2, 0x4101
    41000ce0:	0000                	.insn	2, 0x0000
	...

Disassembly of section .runtime_s:

0000000041010000 <trap_handler_s__invalid_interrupt>:
    41010000:	1740006f          	j	41010174 <trap_handler_s__test_failed>

0000000041010004 <trap_handler_s__clear_all_interrupts>:
    41010004:	14401073          	csrw	sip,x0
    41010008:	10200073          	sret

000000004101000c <trap_handler_s___CLEAR_SSI>:
    4101000c:	00200293          	li	x5,2
    41010010:	1442b073          	csrc	sip,x5
    41010014:	10200073          	sret

0000000041010018 <trap_handler_s___CLEAR_MSI>:
    41010018:	00800293          	li	x5,8
    4101001c:	1442b073          	csrc	sip,x5
    41010020:	10200073          	sret

0000000041010024 <trap_handler_s___CLEAR_STI>:
    41010024:	02000293          	li	x5,32
    41010028:	1442b073          	csrc	sip,x5
    4101002c:	10200073          	sret

0000000041010030 <trap_handler_s___CLEAR_MTI>:
    41010030:	08000293          	li	x5,128
    41010034:	1442b073          	csrc	sip,x5
    41010038:	10200073          	sret

000000004101003c <trap_handler_s___CLEAR_SEI>:
    4101003c:	20000293          	li	x5,512
    41010040:	1442b073          	csrc	sip,x5
    41010044:	10200073          	sret

0000000041010048 <trap_handler_s___CLEAR_MEI>:
    41010048:	000012b7          	lui	x5,0x1
    4101004c:	8002829b          	addiw	x5,x5,-2048 # 800 <XLEN+0x7c0>
    41010050:	1442b073          	csrc	sip,x5
    41010054:	10200073          	sret

0000000041010058 <trap_handler_s___CLEAR_COI>:
    41010058:	000022b7          	lui	x5,0x2
    4101005c:	1442b073          	csrc	sip,x5
    41010060:	10200073          	sret

0000000041010064 <trap_handler_s__clear_highest_priority_interrupt>:
    41010064:	144022f3          	csrr	x5,sip
    41010068:	40500333          	neg	x6,x5
    4101006c:	0062f2b3          	and	x5,x5,x6
    41010070:	1442b073          	csrc	sip,x5
    41010074:	10200073          	sret

0000000041010078 <trap_handler_s__trap_entry>:
    41010078:	10c0006f          	j	41010184 <trap_handler_s__trap_handler>

000000004101007c <trap_handler_s__interrupt_vector_table>:
    4101007c:	f91ff06f          	j	4101000c <trap_handler_s___CLEAR_SSI>
    41010080:	f81ff06f          	j	41010000 <trap_handler_s__invalid_interrupt>
    41010084:	f95ff06f          	j	41010018 <trap_handler_s___CLEAR_MSI>
    41010088:	f79ff06f          	j	41010000 <trap_handler_s__invalid_interrupt>
    4101008c:	f99ff06f          	j	41010024 <trap_handler_s___CLEAR_STI>
    41010090:	f71ff06f          	j	41010000 <trap_handler_s__invalid_interrupt>
    41010094:	f9dff06f          	j	41010030 <trap_handler_s___CLEAR_MTI>
    41010098:	f69ff06f          	j	41010000 <trap_handler_s__invalid_interrupt>
    4101009c:	fa1ff06f          	j	4101003c <trap_handler_s___CLEAR_SEI>
    410100a0:	f61ff06f          	j	41010000 <trap_handler_s__invalid_interrupt>
    410100a4:	fa5ff06f          	j	41010048 <trap_handler_s___CLEAR_MEI>
    410100a8:	f59ff06f          	j	41010000 <trap_handler_s__invalid_interrupt>
    410100ac:	fadff06f          	j	41010058 <trap_handler_s___CLEAR_COI>
    410100b0:	f51ff06f          	j	41010000 <trap_handler_s__invalid_interrupt>
    410100b4:	f4dff06f          	j	41010000 <trap_handler_s__invalid_interrupt>
    410100b8:	fadff06f          	j	41010064 <trap_handler_s__clear_highest_priority_interrupt>
    410100bc:	fa9ff06f          	j	41010064 <trap_handler_s__clear_highest_priority_interrupt>
    410100c0:	fa5ff06f          	j	41010064 <trap_handler_s__clear_highest_priority_interrupt>
    410100c4:	fa1ff06f          	j	41010064 <trap_handler_s__clear_highest_priority_interrupt>
    410100c8:	f9dff06f          	j	41010064 <trap_handler_s__clear_highest_priority_interrupt>
    410100cc:	f99ff06f          	j	41010064 <trap_handler_s__clear_highest_priority_interrupt>
    410100d0:	f95ff06f          	j	41010064 <trap_handler_s__clear_highest_priority_interrupt>
    410100d4:	f91ff06f          	j	41010064 <trap_handler_s__clear_highest_priority_interrupt>
    410100d8:	f8dff06f          	j	41010064 <trap_handler_s__clear_highest_priority_interrupt>
    410100dc:	f89ff06f          	j	41010064 <trap_handler_s__clear_highest_priority_interrupt>
    410100e0:	f85ff06f          	j	41010064 <trap_handler_s__clear_highest_priority_interrupt>
    410100e4:	f81ff06f          	j	41010064 <trap_handler_s__clear_highest_priority_interrupt>
    410100e8:	f7dff06f          	j	41010064 <trap_handler_s__clear_highest_priority_interrupt>
    410100ec:	f79ff06f          	j	41010064 <trap_handler_s__clear_highest_priority_interrupt>
    410100f0:	f75ff06f          	j	41010064 <trap_handler_s__clear_highest_priority_interrupt>
    410100f4:	f71ff06f          	j	41010064 <trap_handler_s__clear_highest_priority_interrupt>
    410100f8:	f6dff06f          	j	41010064 <trap_handler_s__clear_highest_priority_interrupt>
    410100fc:	f69ff06f          	j	41010064 <trap_handler_s__clear_highest_priority_interrupt>
    41010100:	f65ff06f          	j	41010064 <trap_handler_s__clear_highest_priority_interrupt>
    41010104:	f61ff06f          	j	41010064 <trap_handler_s__clear_highest_priority_interrupt>
    41010108:	f5dff06f          	j	41010064 <trap_handler_s__clear_highest_priority_interrupt>
    4101010c:	f59ff06f          	j	41010064 <trap_handler_s__clear_highest_priority_interrupt>
    41010110:	f55ff06f          	j	41010064 <trap_handler_s__clear_highest_priority_interrupt>
    41010114:	f51ff06f          	j	41010064 <trap_handler_s__clear_highest_priority_interrupt>
    41010118:	f4dff06f          	j	41010064 <trap_handler_s__clear_highest_priority_interrupt>
    4101011c:	f49ff06f          	j	41010064 <trap_handler_s__clear_highest_priority_interrupt>
    41010120:	f45ff06f          	j	41010064 <trap_handler_s__clear_highest_priority_interrupt>
    41010124:	f41ff06f          	j	41010064 <trap_handler_s__clear_highest_priority_interrupt>
    41010128:	f3dff06f          	j	41010064 <trap_handler_s__clear_highest_priority_interrupt>
    4101012c:	f39ff06f          	j	41010064 <trap_handler_s__clear_highest_priority_interrupt>
    41010130:	f35ff06f          	j	41010064 <trap_handler_s__clear_highest_priority_interrupt>
    41010134:	f31ff06f          	j	41010064 <trap_handler_s__clear_highest_priority_interrupt>
    41010138:	f2dff06f          	j	41010064 <trap_handler_s__clear_highest_priority_interrupt>
    4101013c:	f29ff06f          	j	41010064 <trap_handler_s__clear_highest_priority_interrupt>
    41010140:	f25ff06f          	j	41010064 <trap_handler_s__clear_highest_priority_interrupt>
    41010144:	f21ff06f          	j	41010064 <trap_handler_s__clear_highest_priority_interrupt>
    41010148:	f1dff06f          	j	41010064 <trap_handler_s__clear_highest_priority_interrupt>
    4101014c:	f19ff06f          	j	41010064 <trap_handler_s__clear_highest_priority_interrupt>
    41010150:	f15ff06f          	j	41010064 <trap_handler_s__clear_highest_priority_interrupt>
    41010154:	f11ff06f          	j	41010064 <trap_handler_s__clear_highest_priority_interrupt>
    41010158:	f0dff06f          	j	41010064 <trap_handler_s__clear_highest_priority_interrupt>
    4101015c:	f09ff06f          	j	41010064 <trap_handler_s__clear_highest_priority_interrupt>
    41010160:	f05ff06f          	j	41010064 <trap_handler_s__clear_highest_priority_interrupt>
    41010164:	f01ff06f          	j	41010064 <trap_handler_s__clear_highest_priority_interrupt>
    41010168:	efdff06f          	j	41010064 <trap_handler_s__clear_highest_priority_interrupt>
    4101016c:	ef9ff06f          	j	41010064 <trap_handler_s__clear_highest_priority_interrupt>
    41010170:	ef5ff06f          	j	41010064 <trap_handler_s__clear_highest_priority_interrupt>

0000000041010174 <trap_handler_s__test_failed>:
    41010174:	00f00f9b          	addiw	x31,x0,15
    41010178:	01cf9f93          	slli	x31,x31,0x1c
    4101017c:	002f8f93          	addi	x31,x31,2
    41010180:	00000073          	ecall

0000000041010184 <trap_handler_s__trap_handler>:
    41010184:	142022f3          	csrr	x5,scause
    41010188:	fff0031b          	addiw	x6,x0,-1
    4101018c:	03f31313          	slli	x6,x6,0x3f
    41010190:	00537333          	and	x6,x6,x5
    41010194:	02030263          	beqz	x6,410101b8 <trap_handler_s__exception_path>

0000000041010198 <trap_handler_s__interrupt_handler>:
    41010198:	fff0031b          	addiw	x6,x0,-1
    4101019c:	03f31313          	slli	x6,x6,0x3f
    410101a0:	0062c2b3          	xor	x5,x5,x6
    410101a4:	00000317          	auipc	x6,0x0
    410101a8:	ed430313          	addi	x6,x6,-300 # 41010078 <trap_handler_s__trap_entry>
    410101ac:	00229293          	slli	x5,x5,0x2
    410101b0:	005302b3          	add	x5,x6,x5
    410101b4:	00028067          	jr	x5 # 2000 <pma_region_1_size+0x1000>

00000000410101b8 <trap_handler_s__exception_path>:
    410101b8:	14021273          	csrrw	x4,sscratch,x4
    410101bc:	00000297          	auipc	x5,0x0
    410101c0:	0cc28293          	addi	x5,x5,204 # 41010288 <trap_handler_s__trap_panic>
    410101c4:	10529073          	csrw	stvec,x5
    410101c8:	0040006f          	j	410101cc <trap_handler_s__excp_entry>

00000000410101cc <trap_handler_s__excp_entry>:
    410101cc:	14202373          	csrr	x6,scause
    410101d0:	00800293          	li	x5,8
    410101d4:	00534863          	blt	x6,x5,410101e4 <trap_handler_s__check_exception_label>
    410101d8:	00b00293          	li	x5,11
    410101dc:	0062c463          	blt	x5,x6,410101e4 <trap_handler_s__check_exception_label>
    410101e0:	0a80006f          	j	41010288 <trap_handler_s__trap_panic>

00000000410101e4 <trap_handler_s__check_exception_label>:
    410101e4:	04623c23          	sd	x6,88(x4) # 58 <XLEN+0x18>
    410101e8:	141022f3          	csrr	x5,sepc
    410101ec:	02523423          	sd	x5,40(x4) # 28 <SECURE_ACCESS_PROBABILITY+0xa>
    410101f0:	01820283          	lb	x5,24(x4) # 18 <STORE_GUEST_PAGE_FAULT+0x1>
    410101f4:	00029863          	bnez	x5,41010204 <trap_handler_s__check_excp>
    410101f8:	00128293          	addi	x5,x5,1
    410101fc:	00520c23          	sb	x5,24(x4) # 18 <STORE_GUEST_PAGE_FAULT+0x1>
    41010200:	05c0006f          	j	4101025c <trap_handler_s__ecall_from_machine>

0000000041010204 <trap_handler_s__check_excp>:
    41010204:	06823283          	ld	x5,104(x4) # 68 <XLEN+0x28>
    41010208:	06023423          	sd	x0,104(x4) # 68 <XLEN+0x28>
    4101020c:	00028663          	beqz	x5,41010218 <trap_handler_s__skip_mode_check>
    41010210:	00300393          	li	x7,3
    41010214:	f67290e3          	bne	x5,x7,41010174 <trap_handler_s__test_failed>

0000000041010218 <trap_handler_s__skip_mode_check>:
    41010218:	05023283          	ld	x5,80(x4) # 50 <XLEN+0x10>
    4101021c:	04023823          	sd	x0,80(x4) # 50 <XLEN+0x10>
    41010220:	f4531ae3          	bne	x6,x5,41010174 <trap_handler_s__test_failed>
    41010224:	03823283          	ld	x5,56(x4) # 38 <SECURE_ACCESS_PROBABILITY+0x1a>
    41010228:	02023c23          	sd	x0,56(x4) # 38 <SECURE_ACCESS_PROBABILITY+0x1a>
    4101022c:	02029663          	bnez	x5,41010258 <trap_handler_s__skip_nonzero_tval_check>
    41010230:	02023303          	ld	x6,32(x4) # 20 <SECURE_ACCESS_PROBABILITY+0x2>
    41010234:	02023023          	sd	x0,32(x4) # 20 <SECURE_ACCESS_PROBABILITY+0x2>
    41010238:	02823283          	ld	x5,40(x4) # 28 <SECURE_ACCESS_PROBABILITY+0xa>
    4101023c:	02023423          	sd	x0,40(x4) # 28 <SECURE_ACCESS_PROBABILITY+0xa>
    41010240:	f2531ae3          	bne	x6,x5,41010174 <trap_handler_s__test_failed>
    41010244:	04023283          	ld	x5,64(x4) # 40 <XLEN>
    41010248:	04023023          	sd	x0,64(x4) # 40 <XLEN>
    4101024c:	00028663          	beqz	x5,41010258 <trap_handler_s__skip_nonzero_tval_check>

0000000041010250 <trap_handler_s__nonzero_tval_check>:
    41010250:	14302373          	csrr	x6,stval
    41010254:	f25310e3          	bne	x6,x5,41010174 <trap_handler_s__test_failed>

0000000041010258 <trap_handler_s__skip_nonzero_tval_check>:
    41010258:	0040006f          	j	4101025c <trap_handler_s__ecall_from_machine>

000000004101025c <trap_handler_s__ecall_from_machine>:
    4101025c:	03023283          	ld	x5,48(x4) # 30 <SECURE_ACCESS_PROBABILITY+0x12>
    41010260:	02023823          	sd	x0,48(x4) # 30 <SECURE_ACCESS_PROBABILITY+0x12>
    41010264:	07023303          	ld	x6,112(x4) # 70 <XLEN+0x30>
    41010268:	06023823          	sd	x0,112(x4) # 70 <XLEN+0x30>
    4101026c:	00031463          	bnez	x6,41010274 <trap_handler_s__skip_xepc_write>
    41010270:	14129073          	csrw	sepc,x5

0000000041010274 <trap_handler_s__skip_xepc_write>:
    41010274:	00000317          	auipc	x6,0x0
    41010278:	e0430313          	addi	x6,x6,-508 # 41010078 <trap_handler_s__trap_entry>
    4101027c:	10531073          	csrw	stvec,x6
    41010280:	14021273          	csrrw	x4,sscratch,x4
    41010284:	10200073          	sret

0000000041010288 <trap_handler_s__trap_panic>:
    41010288:	00000193          	li	x3,0
    4101028c:	00f00f9b          	addiw	x31,x0,15
    41010290:	01cf9f93          	slli	x31,x31,0x1c
    41010294:	002f8f93          	addi	x31,x31,2
    41010298:	00000073          	ecall

Disassembly of section .code:

0000000041014000 <passed>:
    41014000:	00f00f9b          	addiw	x31,x0,15
    41014004:	01cf9f93          	slli	x31,x31,0x1c
    41014008:	001f8f93          	addi	x31,x31,1
    4101400c:	00000073          	ecall

0000000041014010 <failed>:
    41014010:	00f00f9b          	addiw	x31,x0,15
    41014014:	01cf9f93          	slli	x31,x31,0x1c
    41014018:	002f8f93          	addi	x31,x31,2
    4101401c:	00000073          	ecall

0000000041014020 <end_test>:
    41014020:	00f00f9b          	addiw	x31,x0,15
    41014024:	01cf9f93          	slli	x31,x31,0x1c
    41014028:	003f8f93          	addi	x31,x31,3
    4101402c:	00000073          	ecall

0000000041014030 <test_setup>:
    41014030:	00f00f9b          	addiw	x31,x0,15
    41014034:	01cf9f93          	slli	x31,x31,0x1c
    41014038:	001f8f93          	addi	x31,x31,1
    4101403c:	00000073          	ecall

0000000041014040 <SID_EXCEP_04_SU>:
    41014040:	426fc137          	lui	x2,0x426fc
    41014044:	000012b7          	lui	x5,0x1
    41014048:	00510133          	add	x2,x2,x5
    4101404c:	ff017113          	andi	x2,x2,-16
    41014050:	41238237          	lui	x4,0x41238
    41014054:	00200e13          	li	x28,2
    41014058:	05c23823          	sd	x28,80(x4) # 41238050 <check_excp_expected_cause>
    4101405c:	00000e17          	auipc	x28,0x0
    41014060:	048e0e13          	addi	x28,x28,72 # 410140a4 <fault_label_0>
    41014064:	03c23023          	sd	x28,32(x4) # 20 <SECURE_ACCESS_PROBABILITY+0x2>
    41014068:	00000e13          	li	x28,0
    4101406c:	05c23023          	sd	x28,64(x4) # 40 <XLEN>
    41014070:	00000e13          	li	x28,0
    41014074:	05c23423          	sd	x28,72(x4) # 48 <XLEN+0x8>
    41014078:	00000e17          	auipc	x28,0x0
    4101407c:	044e0e13          	addi	x28,x28,68 # 410140bc <excp_return_label_0>
    41014080:	03c23823          	sd	x28,48(x4) # 30 <SECURE_ACCESS_PROBABILITY+0x12>
    41014084:	00000e13          	li	x28,0
    41014088:	03c23c23          	sd	x28,56(x4) # 38 <SECURE_ACCESS_PROBABILITY+0x1a>
    4101408c:	00000e13          	li	x28,0
    41014090:	07c23023          	sd	x28,96(x4) # 60 <XLEN+0x20>
    41014094:	00000e13          	li	x28,0
    41014098:	07c23423          	sd	x28,104(x4) # 68 <XLEN+0x28>
    4101409c:	00000e13          	li	x28,0
    410140a0:	07c23823          	sd	x28,112(x4) # 70 <XLEN+0x30>

00000000410140a4 <fault_label_0>:
    410140a4:	300023f3          	csrr	x7,mstatus
    410140a8:	00038393          	mv	x7,x7
    410140ac:	41232fb7          	lui	x31,0x41232
    410140b0:	008f8f9b          	addiw	x31,x31,8 # 41232008 <failed_addr>
    410140b4:	000fb483          	ld	x9,0(x31)
    410140b8:	00048067          	jr	x9

00000000410140bc <excp_return_label_0>:
    410140bc:	000018b7          	lui	x17,0x1
    410140c0:	2348889b          	addiw	x17,x17,564 # 1234 <pma_region_1_size+0x234>
    410140c4:	41238237          	lui	x4,0x41238
    410140c8:	00200e13          	li	x28,2
    410140cc:	05c23823          	sd	x28,80(x4) # 41238050 <check_excp_expected_cause>
    410140d0:	00000e17          	auipc	x28,0x0
    410140d4:	04ce0e13          	addi	x28,x28,76 # 4101411c <fault_label_1>
    410140d8:	03c23023          	sd	x28,32(x4) # 20 <SECURE_ACCESS_PROBABILITY+0x2>
    410140dc:	00000e13          	li	x28,0
    410140e0:	05c23023          	sd	x28,64(x4) # 40 <XLEN>
    410140e4:	00000e13          	li	x28,0
    410140e8:	05c23423          	sd	x28,72(x4) # 48 <XLEN+0x8>
    410140ec:	00000e17          	auipc	x28,0x0
    410140f0:	044e0e13          	addi	x28,x28,68 # 41014130 <excp_return_label_1>
    410140f4:	03c23823          	sd	x28,48(x4) # 30 <SECURE_ACCESS_PROBABILITY+0x12>
    410140f8:	00000e13          	li	x28,0
    410140fc:	03c23c23          	sd	x28,56(x4) # 38 <SECURE_ACCESS_PROBABILITY+0x1a>
    41014100:	00000e13          	li	x28,0
    41014104:	07c23023          	sd	x28,96(x4) # 60 <XLEN+0x20>
    41014108:	00000e13          	li	x28,0
    4101410c:	07c23423          	sd	x28,104(x4) # 68 <XLEN+0x28>
    41014110:	00000e13          	li	x28,0
    41014114:	07c23823          	sd	x28,112(x4) # 70 <XLEN+0x30>
    41014118:	00088393          	mv	x7,x17

000000004101411c <fault_label_1>:
    4101411c:	f11393f3          	csrrw	x7,mvendorid,x7
    41014120:	412325b7          	lui	x11,0x41232
    41014124:	0085859b          	addiw	x11,x11,8 # 41232008 <failed_addr>
    41014128:	0005bc83          	ld	x25,0(x11)
    4101412c:	000c8067          	jr	x25

0000000041014130 <excp_return_label_1>:
    41014130:	41238237          	lui	x4,0x41238
    41014134:	00200e13          	li	x28,2
    41014138:	05c23823          	sd	x28,80(x4) # 41238050 <check_excp_expected_cause>
    4101413c:	00000e17          	auipc	x28,0x0
    41014140:	048e0e13          	addi	x28,x28,72 # 41014184 <fault_label_2>
    41014144:	03c23023          	sd	x28,32(x4) # 20 <SECURE_ACCESS_PROBABILITY+0x2>
    41014148:	00000e13          	li	x28,0
    4101414c:	05c23023          	sd	x28,64(x4) # 40 <XLEN>
    41014150:	00000e13          	li	x28,0
    41014154:	05c23423          	sd	x28,72(x4) # 48 <XLEN+0x8>
    41014158:	00000e17          	auipc	x28,0x0
    4101415c:	040e0e13          	addi	x28,x28,64 # 41014198 <excp_return_label_2>
    41014160:	03c23823          	sd	x28,48(x4) # 30 <SECURE_ACCESS_PROBABILITY+0x12>
    41014164:	00000e13          	li	x28,0
    41014168:	03c23c23          	sd	x28,56(x4) # 38 <SECURE_ACCESS_PROBABILITY+0x1a>
    4101416c:	00000e13          	li	x28,0
    41014170:	07c23023          	sd	x28,96(x4) # 60 <XLEN+0x20>
    41014174:	00000e13          	li	x28,0
    41014178:	07c23423          	sd	x28,104(x4) # 68 <XLEN+0x28>
    4101417c:	00000e13          	li	x28,0
    41014180:	07c23823          	sd	x28,112(x4) # 70 <XLEN+0x30>

0000000041014184 <fault_label_2>:
    41014184:	000025f3          	csrr	x11,ustatus
    41014188:	41232c37          	lui	x24,0x41232
    4101418c:	008c0c1b          	addiw	x24,x24,8 # 41232008 <failed_addr>
    41014190:	000c3d83          	ld	x27,0(x24)
    41014194:	000d8067          	jr	x27

0000000041014198 <excp_return_label_2>:
    41014198:	00000593          	li	x11,0
    4101419c:	41238237          	lui	x4,0x41238
    410141a0:	00200e13          	li	x28,2
    410141a4:	05c23823          	sd	x28,80(x4) # 41238050 <check_excp_expected_cause>
    410141a8:	00000e17          	auipc	x28,0x0
    410141ac:	048e0e13          	addi	x28,x28,72 # 410141f0 <fault_label_3>
    410141b0:	03c23023          	sd	x28,32(x4) # 20 <SECURE_ACCESS_PROBABILITY+0x2>
    410141b4:	00000e13          	li	x28,0
    410141b8:	05c23023          	sd	x28,64(x4) # 40 <XLEN>
    410141bc:	00000e13          	li	x28,0
    410141c0:	05c23423          	sd	x28,72(x4) # 48 <XLEN+0x8>
    410141c4:	00000e17          	auipc	x28,0x0
    410141c8:	040e0e13          	addi	x28,x28,64 # 41014204 <SID_EXCEP_04_SU_passed>
    410141cc:	03c23823          	sd	x28,48(x4) # 30 <SECURE_ACCESS_PROBABILITY+0x12>
    410141d0:	00000e13          	li	x28,0
    410141d4:	03c23c23          	sd	x28,56(x4) # 38 <SECURE_ACCESS_PROBABILITY+0x1a>
    410141d8:	00000e13          	li	x28,0
    410141dc:	07c23023          	sd	x28,96(x4) # 60 <XLEN+0x20>
    410141e0:	00000e13          	li	x28,0
    410141e4:	07c23423          	sd	x28,104(x4) # 68 <XLEN+0x28>
    410141e8:	00000e13          	li	x28,0
    410141ec:	07c23823          	sd	x28,112(x4) # 70 <XLEN+0x30>

00000000410141f0 <fault_label_3>:
    410141f0:	c0059b73          	csrrw	x22,cycle,x11
    410141f4:	41232b37          	lui	x22,0x41232
    410141f8:	008b0b1b          	addiw	x22,x22,8 # 41232008 <failed_addr>
    410141fc:	000b3783          	ld	x15,0(x22)
    41014200:	00078067          	jr	x15

0000000041014204 <SID_EXCEP_04_SU_passed>:
    41014204:	00f00f9b          	addiw	x31,x0,15
    41014208:	01cf9f93          	slli	x31,x31,0x1c
    4101420c:	001f8f93          	addi	x31,x31,1
    41014210:	00000073          	ecall

0000000041014214 <SID_EXCEP_05>:
    41014214:	43215137          	lui	x2,0x43215
    41014218:	000012b7          	lui	x5,0x1
    4101421c:	00510133          	add	x2,x2,x5
    41014220:	ff017113          	andi	x2,x2,-16
    41014224:	41238237          	lui	x4,0x41238
    41014228:	00200e13          	li	x28,2
    4101422c:	05c23823          	sd	x28,80(x4) # 41238050 <check_excp_expected_cause>
    41014230:	00000e17          	auipc	x28,0x0
    41014234:	048e0e13          	addi	x28,x28,72 # 41014278 <fault_label_4>
    41014238:	03c23023          	sd	x28,32(x4) # 20 <SECURE_ACCESS_PROBABILITY+0x2>
    4101423c:	00000e13          	li	x28,0
    41014240:	05c23023          	sd	x28,64(x4) # 40 <XLEN>
    41014244:	00000e13          	li	x28,0
    41014248:	05c23423          	sd	x28,72(x4) # 48 <XLEN+0x8>
    4101424c:	00000e17          	auipc	x28,0x0
    41014250:	040e0e13          	addi	x28,x28,64 # 4101428c <excp_return_label_4>
    41014254:	03c23823          	sd	x28,48(x4) # 30 <SECURE_ACCESS_PROBABILITY+0x12>
    41014258:	00000e13          	li	x28,0
    4101425c:	03c23c23          	sd	x28,56(x4) # 38 <SECURE_ACCESS_PROBABILITY+0x1a>
    41014260:	00000e13          	li	x28,0
    41014264:	07c23023          	sd	x28,96(x4) # 60 <XLEN+0x20>
    41014268:	00000e13          	li	x28,0
    4101426c:	07c23423          	sd	x28,104(x4) # 68 <XLEN+0x28>
    41014270:	00000e13          	li	x28,0
    41014274:	07c23823          	sd	x28,112(x4) # 70 <XLEN+0x30>

0000000041014278 <fault_label_4>:
    41014278:	0000                	.insn	2, 0x0000
    4101427a:	0000                	.insn	2, 0x0000
    4101427c:	412324b7          	lui	x9,0x41232
    41014280:	0084849b          	addiw	x9,x9,8 # 41232008 <failed_addr>
    41014284:	0004bb03          	ld	x22,0(x9)
    41014288:	000b0067          	jr	x22

000000004101428c <excp_return_label_4>:
    4101428c:	41238237          	lui	x4,0x41238
    41014290:	00200e13          	li	x28,2
    41014294:	05c23823          	sd	x28,80(x4) # 41238050 <check_excp_expected_cause>
    41014298:	00000e17          	auipc	x28,0x0
    4101429c:	048e0e13          	addi	x28,x28,72 # 410142e0 <fault_label_5>
    410142a0:	03c23023          	sd	x28,32(x4) # 20 <SECURE_ACCESS_PROBABILITY+0x2>
    410142a4:	00000e13          	li	x28,0
    410142a8:	05c23023          	sd	x28,64(x4) # 40 <XLEN>
    410142ac:	00000e13          	li	x28,0
    410142b0:	05c23423          	sd	x28,72(x4) # 48 <XLEN+0x8>
    410142b4:	00000e17          	auipc	x28,0x0
    410142b8:	040e0e13          	addi	x28,x28,64 # 410142f4 <excp_return_label_5>
    410142bc:	03c23823          	sd	x28,48(x4) # 30 <SECURE_ACCESS_PROBABILITY+0x12>
    410142c0:	00000e13          	li	x28,0
    410142c4:	03c23c23          	sd	x28,56(x4) # 38 <SECURE_ACCESS_PROBABILITY+0x1a>
    410142c8:	00000e13          	li	x28,0
    410142cc:	07c23023          	sd	x28,96(x4) # 60 <XLEN+0x20>
    410142d0:	00000e13          	li	x28,0
    410142d4:	07c23423          	sd	x28,104(x4) # 68 <XLEN+0x28>
    410142d8:	00000e13          	li	x28,0
    410142dc:	07c23823          	sd	x28,112(x4) # 70 <XLEN+0x30>

00000000410142e0 <fault_label_5>:
    410142e0:	ffff                	.insn	2, 0xffff
    410142e2:	ffff                	.insn	2, 0xffff
    410142e4:	41232337          	lui	x6,0x41232
    410142e8:	0083031b          	addiw	x6,x6,8 # 41232008 <failed_addr>
    410142ec:	00033a03          	ld	x20,0(x6)
    410142f0:	000a0067          	jr	x20

00000000410142f4 <excp_return_label_5>:
    410142f4:	41238237          	lui	x4,0x41238
    410142f8:	00200e13          	li	x28,2
    410142fc:	05c23823          	sd	x28,80(x4) # 41238050 <check_excp_expected_cause>
    41014300:	00000e17          	auipc	x28,0x0
    41014304:	048e0e13          	addi	x28,x28,72 # 41014348 <fault_label_6>
    41014308:	03c23023          	sd	x28,32(x4) # 20 <SECURE_ACCESS_PROBABILITY+0x2>
    4101430c:	00000e13          	li	x28,0
    41014310:	05c23023          	sd	x28,64(x4) # 40 <XLEN>
    41014314:	00000e13          	li	x28,0
    41014318:	05c23423          	sd	x28,72(x4) # 48 <XLEN+0x8>
    4101431c:	00000e17          	auipc	x28,0x0
    41014320:	040e0e13          	addi	x28,x28,64 # 4101435c <excp_return_label_6>
    41014324:	03c23823          	sd	x28,48(x4) # 30 <SECURE_ACCESS_PROBABILITY+0x12>
    41014328:	00000e13          	li	x28,0
    4101432c:	03c23c23          	sd	x28,56(x4) # 38 <SECURE_ACCESS_PROBABILITY+0x1a>
    41014330:	00000e13          	li	x28,0
    41014334:	07c23023          	sd	x28,96(x4) # 60 <XLEN+0x20>
    41014338:	00000e13          	li	x28,0
    4101433c:	07c23423          	sd	x28,104(x4) # 68 <XLEN+0x28>
    41014340:	00000e13          	li	x28,0
    41014344:	07c23823          	sd	x28,112(x4) # 70 <XLEN+0x30>

0000000041014348 <fault_label_6>:
    41014348:	0000                	.insn	2, 0x0000
    4101434a:	dead                	.insn	2, 0xdead
    4101434c:	41232bb7          	lui	x23,0x41232
    41014350:	008b8b9b          	addiw	x23,x23,8 # 41232008 <failed_addr>
    41014354:	000bbf03          	ld	x30,0(x23)
    41014358:	000f0067          	jr	x30

000000004101435c <excp_return_label_6>:
    4101435c:	41238237          	lui	x4,0x41238
    41014360:	00200e13          	li	x28,2
    41014364:	05c23823          	sd	x28,80(x4) # 41238050 <check_excp_expected_cause>
    41014368:	00000e17          	auipc	x28,0x0
    4101436c:	048e0e13          	addi	x28,x28,72 # 410143b0 <fault_label_7>
    41014370:	03c23023          	sd	x28,32(x4) # 20 <SECURE_ACCESS_PROBABILITY+0x2>
    41014374:	00000e13          	li	x28,0
    41014378:	05c23023          	sd	x28,64(x4) # 40 <XLEN>
    4101437c:	00000e13          	li	x28,0
    41014380:	05c23423          	sd	x28,72(x4) # 48 <XLEN+0x8>
    41014384:	00000e17          	auipc	x28,0x0
    41014388:	040e0e13          	addi	x28,x28,64 # 410143c4 <SID_EXCEP_05_passed>
    4101438c:	03c23823          	sd	x28,48(x4) # 30 <SECURE_ACCESS_PROBABILITY+0x12>
    41014390:	00000e13          	li	x28,0
    41014394:	03c23c23          	sd	x28,56(x4) # 38 <SECURE_ACCESS_PROBABILITY+0x1a>
    41014398:	00000e13          	li	x28,0
    4101439c:	07c23023          	sd	x28,96(x4) # 60 <XLEN+0x20>
    410143a0:	00000e13          	li	x28,0
    410143a4:	07c23423          	sd	x28,104(x4) # 68 <XLEN+0x28>
    410143a8:	00000e13          	li	x28,0
    410143ac:	07c23823          	sd	x28,112(x4) # 70 <XLEN+0x30>

00000000410143b0 <fault_label_7>:
    410143b0:	007f 0000 2bb7 4123 	.insn	10, 0x8b9b41232bb70000007f
    410143b8:	8b9b 
    410143ba:	bf03008b          	.insn	4, 0xbf03008b
    410143be:	0067000b          	.insn	4, 0x0067000b
    410143c2:	          	.insn	4, 0x0f9b000f

00000000410143c4 <SID_EXCEP_05_passed>:
    410143c4:	00f00f9b          	addiw	x31,x0,15
    410143c8:	01cf9f93          	slli	x31,x31,0x1c
    410143cc:	001f8f93          	addi	x31,x31,1
    410143d0:	00000073          	ecall

00000000410143d4 <SID_EXCEP_06>:
    410143d4:	41228137          	lui	x2,0x41228
    410143d8:	41232fb7          	lui	x31,0x41232
    410143dc:	0a8f8f9b          	addiw	x31,x31,168 # 412320a8 <machine_csr_jump_table_flags>
    410143e0:	00300f13          	li	x30,3
    410143e4:	01efb023          	sd	x30,0(x31)
    410143e8:	000f0fb7          	lui	x31,0xf0
    410143ec:	001f8f9b          	addiw	x31,x31,1 # f0001 <pma_region_0_size+0xb0001>
    410143f0:	00cf9f93          	slli	x31,x31,0xc
    410143f4:	005f8f93          	addi	x31,x31,5
    410143f8:	00000073          	ecall
    410143fc:	00713023          	sd	x7,0(x2) # 41228000 <tp_csr_storage>
    41014400:	44a1c137          	lui	x2,0x44a1c
    41014404:	000012b7          	lui	x5,0x1
    41014408:	00510133          	add	x2,x2,x5
    4101440c:	ff017113          	andi	x2,x2,-16
    41014410:	00001437          	lui	x8,0x1
    41014414:	00040393          	mv	x7,x8
    41014418:	41232fb7          	lui	x31,0x41232
    4101441c:	0a8f8f9b          	addiw	x31,x31,168 # 412320a8 <machine_csr_jump_table_flags>
    41014420:	00400f13          	li	x30,4
    41014424:	01efb023          	sd	x30,0(x31)
    41014428:	000f0fb7          	lui	x31,0xf0
    4101442c:	001f8f9b          	addiw	x31,x31,1 # f0001 <pma_region_0_size+0xb0001>
    41014430:	00cf9f93          	slli	x31,x31,0xc
    41014434:	005f8f93          	addi	x31,x31,5
    41014438:	00000073          	ecall
    4101443c:	41238237          	lui	x4,0x41238
    41014440:	00200e13          	li	x28,2
    41014444:	05c23823          	sd	x28,80(x4) # 41238050 <check_excp_expected_cause>
    41014448:	00000e17          	auipc	x28,0x0
    4101444c:	048e0e13          	addi	x28,x28,72 # 41014490 <fault_label_8>
    41014450:	03c23023          	sd	x28,32(x4) # 20 <SECURE_ACCESS_PROBABILITY+0x2>
    41014454:	00000e13          	li	x28,0
    41014458:	05c23023          	sd	x28,64(x4) # 40 <XLEN>
    4101445c:	00000e13          	li	x28,0
    41014460:	05c23423          	sd	x28,72(x4) # 48 <XLEN+0x8>
    41014464:	00000e17          	auipc	x28,0x0
    41014468:	040e0e13          	addi	x28,x28,64 # 410144a4 <excp_return_label_8>
    4101446c:	03c23823          	sd	x28,48(x4) # 30 <SECURE_ACCESS_PROBABILITY+0x12>
    41014470:	00000e13          	li	x28,0
    41014474:	03c23c23          	sd	x28,56(x4) # 38 <SECURE_ACCESS_PROBABILITY+0x1a>
    41014478:	00000e13          	li	x28,0
    4101447c:	07c23023          	sd	x28,96(x4) # 60 <XLEN+0x20>
    41014480:	00000e13          	li	x28,0
    41014484:	07c23423          	sd	x28,104(x4) # 68 <XLEN+0x28>
    41014488:	00000e13          	li	x28,0
    4101448c:	07c23823          	sd	x28,112(x4) # 70 <XLEN+0x30>

0000000041014490 <fault_label_8>:
    41014490:	02c58533          	mul	x10,x11,x12
    41014494:	41232f37          	lui	x30,0x41232
    41014498:	008f0f1b          	addiw	x30,x30,8 # 41232008 <failed_addr>
    4101449c:	000f3b03          	ld	x22,0(x30)
    410144a0:	000b0067          	jr	x22

00000000410144a4 <excp_return_label_8>:
    410144a4:	00040393          	mv	x7,x8
    410144a8:	41232fb7          	lui	x31,0x41232
    410144ac:	0a8f8f9b          	addiw	x31,x31,168 # 412320a8 <machine_csr_jump_table_flags>
    410144b0:	00500f13          	li	x30,5
    410144b4:	01efb023          	sd	x30,0(x31)
    410144b8:	000f0fb7          	lui	x31,0xf0
    410144bc:	001f8f9b          	addiw	x31,x31,1 # f0001 <pma_region_0_size+0xb0001>
    410144c0:	00cf9f93          	slli	x31,x31,0xc
    410144c4:	005f8f93          	addi	x31,x31,5
    410144c8:	00000073          	ecall
    410144cc:	02000893          	li	x17,32
    410144d0:	00088393          	mv	x7,x17
    410144d4:	41232fb7          	lui	x31,0x41232
    410144d8:	0a8f8f9b          	addiw	x31,x31,168 # 412320a8 <machine_csr_jump_table_flags>
    410144dc:	00400f13          	li	x30,4
    410144e0:	01efb023          	sd	x30,0(x31)
    410144e4:	000f0fb7          	lui	x31,0xf0
    410144e8:	001f8f9b          	addiw	x31,x31,1 # f0001 <pma_region_0_size+0xb0001>
    410144ec:	00cf9f93          	slli	x31,x31,0xc
    410144f0:	005f8f93          	addi	x31,x31,5
    410144f4:	00000073          	ecall
    410144f8:	41238237          	lui	x4,0x41238
    410144fc:	00200e13          	li	x28,2
    41014500:	05c23823          	sd	x28,80(x4) # 41238050 <check_excp_expected_cause>
    41014504:	00000e17          	auipc	x28,0x0
    41014508:	048e0e13          	addi	x28,x28,72 # 4101454c <fault_label_9>
    4101450c:	03c23023          	sd	x28,32(x4) # 20 <SECURE_ACCESS_PROBABILITY+0x2>
    41014510:	00000e13          	li	x28,0
    41014514:	05c23023          	sd	x28,64(x4) # 40 <XLEN>
    41014518:	00000e13          	li	x28,0
    4101451c:	05c23423          	sd	x28,72(x4) # 48 <XLEN+0x8>
    41014520:	00000e17          	auipc	x28,0x0
    41014524:	040e0e13          	addi	x28,x28,64 # 41014560 <excp_return_label_9>
    41014528:	03c23823          	sd	x28,48(x4) # 30 <SECURE_ACCESS_PROBABILITY+0x12>
    4101452c:	00000e13          	li	x28,0
    41014530:	03c23c23          	sd	x28,56(x4) # 38 <SECURE_ACCESS_PROBABILITY+0x1a>
    41014534:	00000e13          	li	x28,0
    41014538:	07c23023          	sd	x28,96(x4) # 60 <XLEN+0x20>
    4101453c:	00000e13          	li	x28,0
    41014540:	07c23423          	sd	x28,104(x4) # 68 <XLEN+0x28>
    41014544:	00000e13          	li	x28,0
    41014548:	07c23823          	sd	x28,112(x4) # 70 <XLEN+0x30>

000000004101454c <fault_label_9>:
    4101454c:	00c5f553          	fadd.s	f10,f11,f12
    41014550:	41232437          	lui	x8,0x41232
    41014554:	0084041b          	addiw	x8,x8,8 # 41232008 <failed_addr>
    41014558:	00043783          	ld	x15,0(x8)
    4101455c:	00078067          	jr	x15

0000000041014560 <excp_return_label_9>:
    41014560:	00088393          	mv	x7,x17
    41014564:	41232fb7          	lui	x31,0x41232
    41014568:	0a8f8f9b          	addiw	x31,x31,168 # 412320a8 <machine_csr_jump_table_flags>
    4101456c:	00500f13          	li	x30,5
    41014570:	01efb023          	sd	x30,0(x31)
    41014574:	000f0fb7          	lui	x31,0xf0
    41014578:	001f8f9b          	addiw	x31,x31,1 # f0001 <pma_region_0_size+0xb0001>
    4101457c:	00cf9f93          	slli	x31,x31,0xc
    41014580:	005f8f93          	addi	x31,x31,5
    41014584:	00000073          	ecall
    41014588:	00800413          	li	x8,8
    4101458c:	00040393          	mv	x7,x8
    41014590:	41232fb7          	lui	x31,0x41232
    41014594:	0a8f8f9b          	addiw	x31,x31,168 # 412320a8 <machine_csr_jump_table_flags>
    41014598:	00400f13          	li	x30,4
    4101459c:	01efb023          	sd	x30,0(x31)
    410145a0:	000f0fb7          	lui	x31,0xf0
    410145a4:	001f8f9b          	addiw	x31,x31,1 # f0001 <pma_region_0_size+0xb0001>
    410145a8:	00cf9f93          	slli	x31,x31,0xc
    410145ac:	005f8f93          	addi	x31,x31,5
    410145b0:	00000073          	ecall
    410145b4:	41238237          	lui	x4,0x41238
    410145b8:	00200e13          	li	x28,2
    410145bc:	05c23823          	sd	x28,80(x4) # 41238050 <check_excp_expected_cause>
    410145c0:	00000e17          	auipc	x28,0x0
    410145c4:	048e0e13          	addi	x28,x28,72 # 41014608 <fault_label_10>
    410145c8:	03c23023          	sd	x28,32(x4) # 20 <SECURE_ACCESS_PROBABILITY+0x2>
    410145cc:	00000e13          	li	x28,0
    410145d0:	05c23023          	sd	x28,64(x4) # 40 <XLEN>
    410145d4:	00000e13          	li	x28,0
    410145d8:	05c23423          	sd	x28,72(x4) # 48 <XLEN+0x8>
    410145dc:	00000e17          	auipc	x28,0x0
    410145e0:	040e0e13          	addi	x28,x28,64 # 4101461c <excp_return_label_10>
    410145e4:	03c23823          	sd	x28,48(x4) # 30 <SECURE_ACCESS_PROBABILITY+0x12>
    410145e8:	00000e13          	li	x28,0
    410145ec:	03c23c23          	sd	x28,56(x4) # 38 <SECURE_ACCESS_PROBABILITY+0x1a>
    410145f0:	00000e13          	li	x28,0
    410145f4:	07c23023          	sd	x28,96(x4) # 60 <XLEN+0x20>
    410145f8:	00000e13          	li	x28,0
    410145fc:	07c23423          	sd	x28,104(x4) # 68 <XLEN+0x28>
    41014600:	00000e13          	li	x28,0
    41014604:	07c23823          	sd	x28,112(x4) # 70 <XLEN+0x30>

0000000041014608 <fault_label_10>:
    41014608:	02c5f553          	fadd.d	f10,f11,f12
    4101460c:	412325b7          	lui	x11,0x41232
    41014610:	0085859b          	addiw	x11,x11,8 # 41232008 <failed_addr>
    41014614:	0005ba83          	ld	x21,0(x11)
    41014618:	000a8067          	jr	x21

000000004101461c <excp_return_label_10>:
    4101461c:	00040393          	mv	x7,x8
    41014620:	41232fb7          	lui	x31,0x41232
    41014624:	0a8f8f9b          	addiw	x31,x31,168 # 412320a8 <machine_csr_jump_table_flags>
    41014628:	00500f13          	li	x30,5
    4101462c:	01efb023          	sd	x30,0(x31)
    41014630:	000f0fb7          	lui	x31,0xf0
    41014634:	001f8f9b          	addiw	x31,x31,1 # f0001 <pma_region_0_size+0xb0001>
    41014638:	00cf9f93          	slli	x31,x31,0xc
    4101463c:	005f8f93          	addi	x31,x31,5
    41014640:	00000073          	ecall
    41014644:	002004b7          	lui	x9,0x200
    41014648:	00048393          	mv	x7,x9
    4101464c:	41232fb7          	lui	x31,0x41232
    41014650:	0a8f8f9b          	addiw	x31,x31,168 # 412320a8 <machine_csr_jump_table_flags>
    41014654:	00400f13          	li	x30,4
    41014658:	01efb023          	sd	x30,0(x31)
    4101465c:	000f0fb7          	lui	x31,0xf0
    41014660:	001f8f9b          	addiw	x31,x31,1 # f0001 <pma_region_0_size+0xb0001>
    41014664:	00cf9f93          	slli	x31,x31,0xc
    41014668:	005f8f93          	addi	x31,x31,5
    4101466c:	00000073          	ecall
    41014670:	41238237          	lui	x4,0x41238
    41014674:	00200e13          	li	x28,2
    41014678:	05c23823          	sd	x28,80(x4) # 41238050 <check_excp_expected_cause>
    4101467c:	00000e17          	auipc	x28,0x0
    41014680:	048e0e13          	addi	x28,x28,72 # 410146c4 <fault_label_11>
    41014684:	03c23023          	sd	x28,32(x4) # 20 <SECURE_ACCESS_PROBABILITY+0x2>
    41014688:	00000e13          	li	x28,0
    4101468c:	05c23023          	sd	x28,64(x4) # 40 <XLEN>
    41014690:	00000e13          	li	x28,0
    41014694:	05c23423          	sd	x28,72(x4) # 48 <XLEN+0x8>
    41014698:	00000e17          	auipc	x28,0x0
    4101469c:	040e0e13          	addi	x28,x28,64 # 410146d8 <excp_return_label_11>
    410146a0:	03c23823          	sd	x28,48(x4) # 30 <SECURE_ACCESS_PROBABILITY+0x12>
    410146a4:	00000e13          	li	x28,0
    410146a8:	03c23c23          	sd	x28,56(x4) # 38 <SECURE_ACCESS_PROBABILITY+0x1a>
    410146ac:	00000e13          	li	x28,0
    410146b0:	07c23023          	sd	x28,96(x4) # 60 <XLEN+0x20>
    410146b4:	00000e13          	li	x28,0
    410146b8:	07c23423          	sd	x28,104(x4) # 68 <XLEN+0x28>
    410146bc:	00000e13          	li	x28,0
    410146c0:	07c23823          	sd	x28,112(x4) # 70 <XLEN+0x30>

00000000410146c4 <fault_label_11>:
    410146c4:	02110057          	vadd.vv	v0,v1,v2
    410146c8:	41232337          	lui	x6,0x41232
    410146cc:	0083031b          	addiw	x6,x6,8 # 41232008 <failed_addr>
    410146d0:	00033503          	ld	x10,0(x6)
    410146d4:	00050067          	jr	x10

00000000410146d8 <excp_return_label_11>:
    410146d8:	00048393          	mv	x7,x9
    410146dc:	41232fb7          	lui	x31,0x41232
    410146e0:	0a8f8f9b          	addiw	x31,x31,168 # 412320a8 <machine_csr_jump_table_flags>
    410146e4:	00500f13          	li	x30,5
    410146e8:	01efb023          	sd	x30,0(x31)
    410146ec:	000f0fb7          	lui	x31,0xf0
    410146f0:	001f8f9b          	addiw	x31,x31,1 # f0001 <pma_region_0_size+0xb0001>
    410146f4:	00cf9f93          	slli	x31,x31,0xc
    410146f8:	005f8f93          	addi	x31,x31,5
    410146fc:	00000073          	ecall
    41014700:	41228137          	lui	x2,0x41228
    41014704:	00013383          	ld	x7,0(x2) # 41228000 <tp_csr_storage>
    41014708:	41232fb7          	lui	x31,0x41232
    4101470c:	0a8f8f9b          	addiw	x31,x31,168 # 412320a8 <machine_csr_jump_table_flags>
    41014710:	00c00f13          	li	x30,12
    41014714:	01efb023          	sd	x30,0(x31)
    41014718:	000f0fb7          	lui	x31,0xf0
    4101471c:	001f8f9b          	addiw	x31,x31,1 # f0001 <pma_region_0_size+0xb0001>
    41014720:	00cf9f93          	slli	x31,x31,0xc
    41014724:	005f8f93          	addi	x31,x31,5
    41014728:	00000073          	ecall

000000004101472c <SID_EXCEP_06_passed>:
    4101472c:	00f00f9b          	addiw	x31,x0,15
    41014730:	01cf9f93          	slli	x31,x31,0x1c
    41014734:	001f8f93          	addi	x31,x31,1
    41014738:	00000073          	ecall

000000004101473c <SID_EXCEP_07>:
    4101473c:	41228137          	lui	x2,0x41228
    41014740:	41232fb7          	lui	x31,0x41232
    41014744:	0a8f8f9b          	addiw	x31,x31,168 # 412320a8 <machine_csr_jump_table_flags>
    41014748:	00300f13          	li	x30,3
    4101474c:	01efb023          	sd	x30,0(x31)
    41014750:	000f0fb7          	lui	x31,0xf0
    41014754:	001f8f9b          	addiw	x31,x31,1 # f0001 <pma_region_0_size+0xb0001>
    41014758:	00cf9f93          	slli	x31,x31,0xc
    4101475c:	005f8f93          	addi	x31,x31,5
    41014760:	00000073          	ecall
    41014764:	00713023          	sd	x7,0(x2) # 41228000 <tp_csr_storage>
    41014768:	41235137          	lui	x2,0x41235
    4101476c:	000012b7          	lui	x5,0x1
    41014770:	00510133          	add	x2,x2,x5
    41014774:	ff017113          	andi	x2,x2,-16
    41014778:	02000e93          	li	x29,32
    4101477c:	000e8393          	mv	x7,x29
    41014780:	41232fb7          	lui	x31,0x41232
    41014784:	0a8f8f9b          	addiw	x31,x31,168 # 412320a8 <machine_csr_jump_table_flags>
    41014788:	00400f13          	li	x30,4
    4101478c:	01efb023          	sd	x30,0(x31)
    41014790:	000f0fb7          	lui	x31,0xf0
    41014794:	001f8f9b          	addiw	x31,x31,1 # f0001 <pma_region_0_size+0xb0001>
    41014798:	00cf9f93          	slli	x31,x31,0xc
    4101479c:	005f8f93          	addi	x31,x31,5
    410147a0:	00000073          	ecall
    410147a4:	41238237          	lui	x4,0x41238
    410147a8:	00200e13          	li	x28,2
    410147ac:	05c23823          	sd	x28,80(x4) # 41238050 <check_excp_expected_cause>
    410147b0:	00000e17          	auipc	x28,0x0
    410147b4:	048e0e13          	addi	x28,x28,72 # 410147f8 <fault_label_12>
    410147b8:	03c23023          	sd	x28,32(x4) # 20 <SECURE_ACCESS_PROBABILITY+0x2>
    410147bc:	00000e13          	li	x28,0
    410147c0:	05c23023          	sd	x28,64(x4) # 40 <XLEN>
    410147c4:	00000e13          	li	x28,0
    410147c8:	05c23423          	sd	x28,72(x4) # 48 <XLEN+0x8>
    410147cc:	00000e17          	auipc	x28,0x0
    410147d0:	040e0e13          	addi	x28,x28,64 # 4101480c <excp_return_label_12>
    410147d4:	03c23823          	sd	x28,48(x4) # 30 <SECURE_ACCESS_PROBABILITY+0x12>
    410147d8:	00000e13          	li	x28,0
    410147dc:	03c23c23          	sd	x28,56(x4) # 38 <SECURE_ACCESS_PROBABILITY+0x1a>
    410147e0:	00000e13          	li	x28,0
    410147e4:	07c23023          	sd	x28,96(x4) # 60 <XLEN+0x20>
    410147e8:	00000e13          	li	x28,0
    410147ec:	07c23423          	sd	x28,104(x4) # 68 <XLEN+0x28>
    410147f0:	00000e13          	li	x28,0
    410147f4:	07c23823          	sd	x28,112(x4) # 70 <XLEN+0x30>

00000000410147f8 <fault_label_12>:
    410147f8:	02c5f553          	fadd.d	f10,f11,f12
    410147fc:	41232c37          	lui	x24,0x41232
    41014800:	008c0c1b          	addiw	x24,x24,8 # 41232008 <failed_addr>
    41014804:	000c3303          	ld	x6,0(x24)
    41014808:	00030067          	jr	x6

000000004101480c <excp_return_label_12>:
    4101480c:	000e8393          	mv	x7,x29
    41014810:	41232fb7          	lui	x31,0x41232
    41014814:	0a8f8f9b          	addiw	x31,x31,168 # 412320a8 <machine_csr_jump_table_flags>
    41014818:	00500f13          	li	x30,5
    4101481c:	01efb023          	sd	x30,0(x31)
    41014820:	000f0fb7          	lui	x31,0xf0
    41014824:	001f8f9b          	addiw	x31,x31,1 # f0001 <pma_region_0_size+0xb0001>
    41014828:	00cf9f93          	slli	x31,x31,0xc
    4101482c:	005f8f93          	addi	x31,x31,5
    41014830:	00000073          	ecall
    41014834:	02000a13          	li	x20,32
    41014838:	000a0393          	mv	x7,x20
    4101483c:	41232fb7          	lui	x31,0x41232
    41014840:	0a8f8f9b          	addiw	x31,x31,168 # 412320a8 <machine_csr_jump_table_flags>
    41014844:	00400f13          	li	x30,4
    41014848:	01efb023          	sd	x30,0(x31)
    4101484c:	000f0fb7          	lui	x31,0xf0
    41014850:	001f8f9b          	addiw	x31,x31,1 # f0001 <pma_region_0_size+0xb0001>
    41014854:	00cf9f93          	slli	x31,x31,0xc
    41014858:	005f8f93          	addi	x31,x31,5
    4101485c:	00000073          	ecall
    41014860:	41238237          	lui	x4,0x41238
    41014864:	00200e13          	li	x28,2
    41014868:	05c23823          	sd	x28,80(x4) # 41238050 <check_excp_expected_cause>
    4101486c:	00000e17          	auipc	x28,0x0
    41014870:	048e0e13          	addi	x28,x28,72 # 410148b4 <fault_label_13>
    41014874:	03c23023          	sd	x28,32(x4) # 20 <SECURE_ACCESS_PROBABILITY+0x2>
    41014878:	00000e13          	li	x28,0
    4101487c:	05c23023          	sd	x28,64(x4) # 40 <XLEN>
    41014880:	00000e13          	li	x28,0
    41014884:	05c23423          	sd	x28,72(x4) # 48 <XLEN+0x8>
    41014888:	00000e17          	auipc	x28,0x0
    4101488c:	040e0e13          	addi	x28,x28,64 # 410148c8 <excp_return_label_13>
    41014890:	03c23823          	sd	x28,48(x4) # 30 <SECURE_ACCESS_PROBABILITY+0x12>
    41014894:	00000e13          	li	x28,0
    41014898:	03c23c23          	sd	x28,56(x4) # 38 <SECURE_ACCESS_PROBABILITY+0x1a>
    4101489c:	00000e13          	li	x28,0
    410148a0:	07c23023          	sd	x28,96(x4) # 60 <XLEN+0x20>
    410148a4:	00000e13          	li	x28,0
    410148a8:	07c23423          	sd	x28,104(x4) # 68 <XLEN+0x28>
    410148ac:	00000e13          	li	x28,0
    410148b0:	07c23823          	sd	x28,112(x4) # 70 <XLEN+0x30>

00000000410148b4 <fault_label_13>:
    410148b4:	04c5f553          	fadd.h	f10,f11,f12
    410148b8:	41232c37          	lui	x24,0x41232
    410148bc:	008c0c1b          	addiw	x24,x24,8 # 41232008 <failed_addr>
    410148c0:	000c3703          	ld	x14,0(x24)
    410148c4:	00070067          	jr	x14

00000000410148c8 <excp_return_label_13>:
    410148c8:	000a0393          	mv	x7,x20
    410148cc:	41232fb7          	lui	x31,0x41232
    410148d0:	0a8f8f9b          	addiw	x31,x31,168 # 412320a8 <machine_csr_jump_table_flags>
    410148d4:	00500f13          	li	x30,5
    410148d8:	01efb023          	sd	x30,0(x31)
    410148dc:	000f0fb7          	lui	x31,0xf0
    410148e0:	001f8f9b          	addiw	x31,x31,1 # f0001 <pma_region_0_size+0xb0001>
    410148e4:	00cf9f93          	slli	x31,x31,0xc
    410148e8:	005f8f93          	addi	x31,x31,5
    410148ec:	00000073          	ecall
    410148f0:	02000b93          	li	x23,32
    410148f4:	000b8393          	mv	x7,x23
    410148f8:	41232fb7          	lui	x31,0x41232
    410148fc:	0a8f8f9b          	addiw	x31,x31,168 # 412320a8 <machine_csr_jump_table_flags>
    41014900:	00400f13          	li	x30,4
    41014904:	01efb023          	sd	x30,0(x31)
    41014908:	000f0fb7          	lui	x31,0xf0
    4101490c:	001f8f9b          	addiw	x31,x31,1 # f0001 <pma_region_0_size+0xb0001>
    41014910:	00cf9f93          	slli	x31,x31,0xc
    41014914:	005f8f93          	addi	x31,x31,5
    41014918:	00000073          	ecall
    4101491c:	41238237          	lui	x4,0x41238
    41014920:	00200e13          	li	x28,2
    41014924:	05c23823          	sd	x28,80(x4) # 41238050 <check_excp_expected_cause>
    41014928:	00000e17          	auipc	x28,0x0
    4101492c:	048e0e13          	addi	x28,x28,72 # 41014970 <fault_label_14>
    41014930:	03c23023          	sd	x28,32(x4) # 20 <SECURE_ACCESS_PROBABILITY+0x2>
    41014934:	00000e13          	li	x28,0
    41014938:	05c23023          	sd	x28,64(x4) # 40 <XLEN>
    4101493c:	00000e13          	li	x28,0
    41014940:	05c23423          	sd	x28,72(x4) # 48 <XLEN+0x8>
    41014944:	00000e17          	auipc	x28,0x0
    41014948:	040e0e13          	addi	x28,x28,64 # 41014984 <excp_return_label_14>
    4101494c:	03c23823          	sd	x28,48(x4) # 30 <SECURE_ACCESS_PROBABILITY+0x12>
    41014950:	00000e13          	li	x28,0
    41014954:	03c23c23          	sd	x28,56(x4) # 38 <SECURE_ACCESS_PROBABILITY+0x1a>
    41014958:	00000e13          	li	x28,0
    4101495c:	07c23023          	sd	x28,96(x4) # 60 <XLEN+0x20>
    41014960:	00000e13          	li	x28,0
    41014964:	07c23423          	sd	x28,104(x4) # 68 <XLEN+0x28>
    41014968:	00000e13          	li	x28,0
    4101496c:	07c23823          	sd	x28,112(x4) # 70 <XLEN+0x30>

0000000041014970 <fault_label_14>:
    41014970:	02111057          	vfadd.vv	v0,v1,v2
    41014974:	41232a37          	lui	x20,0x41232
    41014978:	008a0a1b          	addiw	x20,x20,8 # 41232008 <failed_addr>
    4101497c:	000a3403          	ld	x8,0(x20)
    41014980:	00040067          	jr	x8

0000000041014984 <excp_return_label_14>:
    41014984:	000b8393          	mv	x7,x23
    41014988:	41232fb7          	lui	x31,0x41232
    4101498c:	0a8f8f9b          	addiw	x31,x31,168 # 412320a8 <machine_csr_jump_table_flags>
    41014990:	00500f13          	li	x30,5
    41014994:	01efb023          	sd	x30,0(x31)
    41014998:	000f0fb7          	lui	x31,0xf0
    4101499c:	001f8f9b          	addiw	x31,x31,1 # f0001 <pma_region_0_size+0xb0001>
    410149a0:	00cf9f93          	slli	x31,x31,0xc
    410149a4:	005f8f93          	addi	x31,x31,5
    410149a8:	00000073          	ecall
    410149ac:	00200c37          	lui	x24,0x200
    410149b0:	000c0393          	mv	x7,x24
    410149b4:	41232fb7          	lui	x31,0x41232
    410149b8:	0a8f8f9b          	addiw	x31,x31,168 # 412320a8 <machine_csr_jump_table_flags>
    410149bc:	00400f13          	li	x30,4
    410149c0:	01efb023          	sd	x30,0(x31)
    410149c4:	000f0fb7          	lui	x31,0xf0
    410149c8:	001f8f9b          	addiw	x31,x31,1 # f0001 <pma_region_0_size+0xb0001>
    410149cc:	00cf9f93          	slli	x31,x31,0xc
    410149d0:	005f8f93          	addi	x31,x31,5
    410149d4:	00000073          	ecall
    410149d8:	41238237          	lui	x4,0x41238
    410149dc:	00200e13          	li	x28,2
    410149e0:	05c23823          	sd	x28,80(x4) # 41238050 <check_excp_expected_cause>
    410149e4:	00000e17          	auipc	x28,0x0
    410149e8:	048e0e13          	addi	x28,x28,72 # 41014a2c <fault_label_15>
    410149ec:	03c23023          	sd	x28,32(x4) # 20 <SECURE_ACCESS_PROBABILITY+0x2>
    410149f0:	00000e13          	li	x28,0
    410149f4:	05c23023          	sd	x28,64(x4) # 40 <XLEN>
    410149f8:	00000e13          	li	x28,0
    410149fc:	05c23423          	sd	x28,72(x4) # 48 <XLEN+0x8>
    41014a00:	00000e17          	auipc	x28,0x0
    41014a04:	040e0e13          	addi	x28,x28,64 # 41014a40 <excp_return_label_15>
    41014a08:	03c23823          	sd	x28,48(x4) # 30 <SECURE_ACCESS_PROBABILITY+0x12>
    41014a0c:	00000e13          	li	x28,0
    41014a10:	03c23c23          	sd	x28,56(x4) # 38 <SECURE_ACCESS_PROBABILITY+0x1a>
    41014a14:	00000e13          	li	x28,0
    41014a18:	07c23023          	sd	x28,96(x4) # 60 <XLEN+0x20>
    41014a1c:	00000e13          	li	x28,0
    41014a20:	07c23423          	sd	x28,104(x4) # 68 <XLEN+0x28>
    41014a24:	00000e13          	li	x28,0
    41014a28:	07c23823          	sd	x28,112(x4) # 70 <XLEN+0x30>

0000000041014a2c <fault_label_15>:
    41014a2c:	06110057          	vandn.vv	v0,v1,v2
    41014a30:	412328b7          	lui	x17,0x41232
    41014a34:	0088889b          	addiw	x17,x17,8 # 41232008 <failed_addr>
    41014a38:	0008b883          	ld	x17,0(x17)
    41014a3c:	00088067          	jr	x17

0000000041014a40 <excp_return_label_15>:
    41014a40:	000c0393          	mv	x7,x24
    41014a44:	41232fb7          	lui	x31,0x41232
    41014a48:	0a8f8f9b          	addiw	x31,x31,168 # 412320a8 <machine_csr_jump_table_flags>
    41014a4c:	00500f13          	li	x30,5
    41014a50:	01efb023          	sd	x30,0(x31)
    41014a54:	000f0fb7          	lui	x31,0xf0
    41014a58:	001f8f9b          	addiw	x31,x31,1 # f0001 <pma_region_0_size+0xb0001>
    41014a5c:	00cf9f93          	slli	x31,x31,0xc
    41014a60:	005f8f93          	addi	x31,x31,5
    41014a64:	00000073          	ecall
    41014a68:	41228137          	lui	x2,0x41228
    41014a6c:	00013383          	ld	x7,0(x2) # 41228000 <tp_csr_storage>
    41014a70:	41232fb7          	lui	x31,0x41232
    41014a74:	0a8f8f9b          	addiw	x31,x31,168 # 412320a8 <machine_csr_jump_table_flags>
    41014a78:	00c00f13          	li	x30,12
    41014a7c:	01efb023          	sd	x30,0(x31)
    41014a80:	000f0fb7          	lui	x31,0xf0
    41014a84:	001f8f9b          	addiw	x31,x31,1 # f0001 <pma_region_0_size+0xb0001>
    41014a88:	00cf9f93          	slli	x31,x31,0xc
    41014a8c:	005f8f93          	addi	x31,x31,5
    41014a90:	00000073          	ecall

0000000041014a94 <SID_EXCEP_07_passed>:
    41014a94:	00f00f9b          	addiw	x31,x0,15
    41014a98:	01cf9f93          	slli	x31,x31,0x1c
    41014a9c:	001f8f93          	addi	x31,x31,1
    41014aa0:	00000073          	ecall

0000000041014aa4 <SID_EXCEP_08>:
    41014aa4:	41228137          	lui	x2,0x41228
    41014aa8:	41232fb7          	lui	x31,0x41232
    41014aac:	0a8f8f9b          	addiw	x31,x31,168 # 412320a8 <machine_csr_jump_table_flags>
    41014ab0:	01700f13          	li	x30,23
    41014ab4:	01efb023          	sd	x30,0(x31)
    41014ab8:	000f0fb7          	lui	x31,0xf0
    41014abc:	001f8f9b          	addiw	x31,x31,1 # f0001 <pma_region_0_size+0xb0001>
    41014ac0:	00cf9f93          	slli	x31,x31,0xc
    41014ac4:	005f8f93          	addi	x31,x31,5
    41014ac8:	00000073          	ecall
    41014acc:	00713023          	sd	x7,0(x2) # 41228000 <tp_csr_storage>
    41014ad0:	41231137          	lui	x2,0x41231
    41014ad4:	000012b7          	lui	x5,0x1
    41014ad8:	00510133          	add	x2,x2,x5
    41014adc:	ff017113          	andi	x2,x2,-16
    41014ae0:	00006a37          	lui	x20,0x6
    41014ae4:	000a0393          	mv	x7,x20
    41014ae8:	41232fb7          	lui	x31,0x41232
    41014aec:	0a8f8f9b          	addiw	x31,x31,168 # 412320a8 <machine_csr_jump_table_flags>
    41014af0:	01800f13          	li	x30,24
    41014af4:	01efb023          	sd	x30,0(x31)
    41014af8:	000f0fb7          	lui	x31,0xf0
    41014afc:	001f8f9b          	addiw	x31,x31,1 # f0001 <pma_region_0_size+0xb0001>
    41014b00:	00cf9f93          	slli	x31,x31,0xc
    41014b04:	005f8f93          	addi	x31,x31,5
    41014b08:	00000073          	ecall
    41014b0c:	41238237          	lui	x4,0x41238
    41014b10:	00200e13          	li	x28,2
    41014b14:	05c23823          	sd	x28,80(x4) # 41238050 <check_excp_expected_cause>
    41014b18:	00000e17          	auipc	x28,0x0
    41014b1c:	048e0e13          	addi	x28,x28,72 # 41014b60 <fault_label_16>
    41014b20:	03c23023          	sd	x28,32(x4) # 20 <SECURE_ACCESS_PROBABILITY+0x2>
    41014b24:	00000e13          	li	x28,0
    41014b28:	05c23023          	sd	x28,64(x4) # 40 <XLEN>
    41014b2c:	00000e13          	li	x28,0
    41014b30:	05c23423          	sd	x28,72(x4) # 48 <XLEN+0x8>
    41014b34:	00000e17          	auipc	x28,0x0
    41014b38:	040e0e13          	addi	x28,x28,64 # 41014b74 <excp_return_label_16>
    41014b3c:	03c23823          	sd	x28,48(x4) # 30 <SECURE_ACCESS_PROBABILITY+0x12>
    41014b40:	00000e13          	li	x28,0
    41014b44:	03c23c23          	sd	x28,56(x4) # 38 <SECURE_ACCESS_PROBABILITY+0x1a>
    41014b48:	00000e13          	li	x28,0
    41014b4c:	07c23023          	sd	x28,96(x4) # 60 <XLEN+0x20>
    41014b50:	00000e13          	li	x28,0
    41014b54:	07c23423          	sd	x28,104(x4) # 68 <XLEN+0x28>
    41014b58:	00000e13          	li	x28,0
    41014b5c:	07c23823          	sd	x28,112(x4) # 70 <XLEN+0x30>

0000000041014b60 <fault_label_16>:
    41014b60:	00c5f553          	fadd.s	f10,f11,f12
    41014b64:	41232bb7          	lui	x23,0x41232
    41014b68:	008b8b9b          	addiw	x23,x23,8 # 41232008 <failed_addr>
    41014b6c:	000bbd03          	ld	x26,0(x23)
    41014b70:	000d0067          	jr	x26

0000000041014b74 <excp_return_label_16>:
    41014b74:	41238237          	lui	x4,0x41238
    41014b78:	00200e13          	li	x28,2
    41014b7c:	05c23823          	sd	x28,80(x4) # 41238050 <check_excp_expected_cause>
    41014b80:	00000e17          	auipc	x28,0x0
    41014b84:	048e0e13          	addi	x28,x28,72 # 41014bc8 <fault_label_17>
    41014b88:	03c23023          	sd	x28,32(x4) # 20 <SECURE_ACCESS_PROBABILITY+0x2>
    41014b8c:	00000e13          	li	x28,0
    41014b90:	05c23023          	sd	x28,64(x4) # 40 <XLEN>
    41014b94:	00000e13          	li	x28,0
    41014b98:	05c23423          	sd	x28,72(x4) # 48 <XLEN+0x8>
    41014b9c:	00000e17          	auipc	x28,0x0
    41014ba0:	040e0e13          	addi	x28,x28,64 # 41014bdc <excp_return_label_17>
    41014ba4:	03c23823          	sd	x28,48(x4) # 30 <SECURE_ACCESS_PROBABILITY+0x12>
    41014ba8:	00000e13          	li	x28,0
    41014bac:	03c23c23          	sd	x28,56(x4) # 38 <SECURE_ACCESS_PROBABILITY+0x1a>
    41014bb0:	00000e13          	li	x28,0
    41014bb4:	07c23023          	sd	x28,96(x4) # 60 <XLEN+0x20>
    41014bb8:	00000e13          	li	x28,0
    41014bbc:	07c23423          	sd	x28,104(x4) # 68 <XLEN+0x28>
    41014bc0:	00000e13          	li	x28,0
    41014bc4:	07c23823          	sd	x28,112(x4) # 70 <XLEN+0x30>

0000000041014bc8 <fault_label_17>:
    41014bc8:	00052507          	flw	f10,0(x10)
    41014bcc:	41232737          	lui	x14,0x41232
    41014bd0:	0087071b          	addiw	x14,x14,8 # 41232008 <failed_addr>
    41014bd4:	00073983          	ld	x19,0(x14)
    41014bd8:	00098067          	jr	x19

0000000041014bdc <excp_return_label_17>:
    41014bdc:	000067b7          	lui	x15,0x6
    41014be0:	00078393          	mv	x7,x15
    41014be4:	41232fb7          	lui	x31,0x41232
    41014be8:	0a8f8f9b          	addiw	x31,x31,168 # 412320a8 <machine_csr_jump_table_flags>
    41014bec:	01900f13          	li	x30,25
    41014bf0:	01efb023          	sd	x30,0(x31)
    41014bf4:	000f0fb7          	lui	x31,0xf0
    41014bf8:	001f8f9b          	addiw	x31,x31,1 # f0001 <pma_region_0_size+0xb0001>
    41014bfc:	00cf9f93          	slli	x31,x31,0xc
    41014c00:	005f8f93          	addi	x31,x31,5
    41014c04:	00000073          	ecall
    41014c08:	60000d13          	li	x26,1536
    41014c0c:	000d0393          	mv	x7,x26
    41014c10:	41232fb7          	lui	x31,0x41232
    41014c14:	0a8f8f9b          	addiw	x31,x31,168 # 412320a8 <machine_csr_jump_table_flags>
    41014c18:	01800f13          	li	x30,24
    41014c1c:	01efb023          	sd	x30,0(x31)
    41014c20:	000f0fb7          	lui	x31,0xf0
    41014c24:	001f8f9b          	addiw	x31,x31,1 # f0001 <pma_region_0_size+0xb0001>
    41014c28:	00cf9f93          	slli	x31,x31,0xc
    41014c2c:	005f8f93          	addi	x31,x31,5
    41014c30:	00000073          	ecall
    41014c34:	41238237          	lui	x4,0x41238
    41014c38:	00200e13          	li	x28,2
    41014c3c:	05c23823          	sd	x28,80(x4) # 41238050 <check_excp_expected_cause>
    41014c40:	00000e17          	auipc	x28,0x0
    41014c44:	048e0e13          	addi	x28,x28,72 # 41014c88 <fault_label_18>
    41014c48:	03c23023          	sd	x28,32(x4) # 20 <SECURE_ACCESS_PROBABILITY+0x2>
    41014c4c:	00000e13          	li	x28,0
    41014c50:	05c23023          	sd	x28,64(x4) # 40 <XLEN>
    41014c54:	00000e13          	li	x28,0
    41014c58:	05c23423          	sd	x28,72(x4) # 48 <XLEN+0x8>
    41014c5c:	00000e17          	auipc	x28,0x0
    41014c60:	040e0e13          	addi	x28,x28,64 # 41014c9c <excp_return_label_18>
    41014c64:	03c23823          	sd	x28,48(x4) # 30 <SECURE_ACCESS_PROBABILITY+0x12>
    41014c68:	00000e13          	li	x28,0
    41014c6c:	03c23c23          	sd	x28,56(x4) # 38 <SECURE_ACCESS_PROBABILITY+0x1a>
    41014c70:	00000e13          	li	x28,0
    41014c74:	07c23023          	sd	x28,96(x4) # 60 <XLEN+0x20>
    41014c78:	00000e13          	li	x28,0
    41014c7c:	07c23423          	sd	x28,104(x4) # 68 <XLEN+0x28>
    41014c80:	00000e13          	li	x28,0
    41014c84:	07c23823          	sd	x28,112(x4) # 70 <XLEN+0x30>

0000000041014c88 <fault_label_18>:
    41014c88:	02110057          	vadd.vv	v0,v1,v2
    41014c8c:	41232837          	lui	x16,0x41232
    41014c90:	0088081b          	addiw	x16,x16,8 # 41232008 <failed_addr>
    41014c94:	00083383          	ld	x7,0(x16)
    41014c98:	00038067          	jr	x7

0000000041014c9c <excp_return_label_18>:
    41014c9c:	41238237          	lui	x4,0x41238
    41014ca0:	00200e13          	li	x28,2
    41014ca4:	05c23823          	sd	x28,80(x4) # 41238050 <check_excp_expected_cause>
    41014ca8:	00000e17          	auipc	x28,0x0
    41014cac:	048e0e13          	addi	x28,x28,72 # 41014cf0 <fault_label_19>
    41014cb0:	03c23023          	sd	x28,32(x4) # 20 <SECURE_ACCESS_PROBABILITY+0x2>
    41014cb4:	00000e13          	li	x28,0
    41014cb8:	05c23023          	sd	x28,64(x4) # 40 <XLEN>
    41014cbc:	00000e13          	li	x28,0
    41014cc0:	05c23423          	sd	x28,72(x4) # 48 <XLEN+0x8>
    41014cc4:	00000e17          	auipc	x28,0x0
    41014cc8:	040e0e13          	addi	x28,x28,64 # 41014d04 <excp_return_label_19>
    41014ccc:	03c23823          	sd	x28,48(x4) # 30 <SECURE_ACCESS_PROBABILITY+0x12>
    41014cd0:	00000e13          	li	x28,0
    41014cd4:	03c23c23          	sd	x28,56(x4) # 38 <SECURE_ACCESS_PROBABILITY+0x1a>
    41014cd8:	00000e13          	li	x28,0
    41014cdc:	07c23023          	sd	x28,96(x4) # 60 <XLEN+0x20>
    41014ce0:	00000e13          	li	x28,0
    41014ce4:	07c23423          	sd	x28,104(x4) # 68 <XLEN+0x28>
    41014ce8:	00000e13          	li	x28,0
    41014cec:	07c23823          	sd	x28,112(x4) # 70 <XLEN+0x30>

0000000041014cf0 <fault_label_19>:
    41014cf0:	c2002e73          	csrr	x28,vl
    41014cf4:	41232ab7          	lui	x21,0x41232
    41014cf8:	008a8a9b          	addiw	x21,x21,8 # 41232008 <failed_addr>
    41014cfc:	000ab303          	ld	x6,0(x21)
    41014d00:	00030067          	jr	x6

0000000041014d04 <excp_return_label_19>:
    41014d04:	60000f13          	li	x30,1536
    41014d08:	000f0393          	mv	x7,x30
    41014d0c:	41232fb7          	lui	x31,0x41232
    41014d10:	0a8f8f9b          	addiw	x31,x31,168 # 412320a8 <machine_csr_jump_table_flags>
    41014d14:	01900f13          	li	x30,25
    41014d18:	01efb023          	sd	x30,0(x31)
    41014d1c:	000f0fb7          	lui	x31,0xf0
    41014d20:	001f8f9b          	addiw	x31,x31,1 # f0001 <pma_region_0_size+0xb0001>
    41014d24:	00cf9f93          	slli	x31,x31,0xc
    41014d28:	005f8f93          	addi	x31,x31,5
    41014d2c:	00000073          	ecall
    41014d30:	41228137          	lui	x2,0x41228
    41014d34:	00013383          	ld	x7,0(x2) # 41228000 <tp_csr_storage>
    41014d38:	41232fb7          	lui	x31,0x41232
    41014d3c:	0a8f8f9b          	addiw	x31,x31,168 # 412320a8 <machine_csr_jump_table_flags>
    41014d40:	01c00f13          	li	x30,28
    41014d44:	01efb023          	sd	x30,0(x31)
    41014d48:	000f0fb7          	lui	x31,0xf0
    41014d4c:	001f8f9b          	addiw	x31,x31,1 # f0001 <pma_region_0_size+0xb0001>
    41014d50:	00cf9f93          	slli	x31,x31,0xc
    41014d54:	005f8f93          	addi	x31,x31,5
    41014d58:	00000073          	ecall

0000000041014d5c <SID_EXCEP_08_passed>:
    41014d5c:	00f00f9b          	addiw	x31,x0,15
    41014d60:	01cf9f93          	slli	x31,x31,0x1c
    41014d64:	001f8f93          	addi	x31,x31,1
    41014d68:	00000073          	ecall

0000000041014d6c <SID_EXCEP_10>:
    41014d6c:	41228137          	lui	x2,0x41228
    41014d70:	41232fb7          	lui	x31,0x41232
    41014d74:	0a8f8f9b          	addiw	x31,x31,168 # 412320a8 <machine_csr_jump_table_flags>
    41014d78:	01d00f13          	li	x30,29
    41014d7c:	01efb023          	sd	x30,0(x31)
    41014d80:	000f0fb7          	lui	x31,0xf0
    41014d84:	001f8f9b          	addiw	x31,x31,1 # f0001 <pma_region_0_size+0xb0001>
    41014d88:	00cf9f93          	slli	x31,x31,0xc
    41014d8c:	005f8f93          	addi	x31,x31,5
    41014d90:	00000073          	ecall
    41014d94:	00713023          	sd	x7,0(x2) # 41228000 <tp_csr_storage>
    41014d98:	42bb8137          	lui	x2,0x42bb8
    41014d9c:	000012b7          	lui	x5,0x1
    41014da0:	00510133          	add	x2,x2,x5
    41014da4:	ff017113          	andi	x2,x2,-16
    41014da8:	0a000b93          	li	x23,160
    41014dac:	003b9df3          	fscsr	x27,x23
    41014db0:	41238237          	lui	x4,0x41238
    41014db4:	00200e13          	li	x28,2
    41014db8:	05c23823          	sd	x28,80(x4) # 41238050 <check_excp_expected_cause>
    41014dbc:	00000e17          	auipc	x28,0x0
    41014dc0:	048e0e13          	addi	x28,x28,72 # 41014e04 <fault_label_20>
    41014dc4:	03c23023          	sd	x28,32(x4) # 20 <SECURE_ACCESS_PROBABILITY+0x2>
    41014dc8:	00000e13          	li	x28,0
    41014dcc:	05c23023          	sd	x28,64(x4) # 40 <XLEN>
    41014dd0:	00000e13          	li	x28,0
    41014dd4:	05c23423          	sd	x28,72(x4) # 48 <XLEN+0x8>
    41014dd8:	00000e17          	auipc	x28,0x0
    41014ddc:	040e0e13          	addi	x28,x28,64 # 41014e18 <excp_return_label_20>
    41014de0:	03c23823          	sd	x28,48(x4) # 30 <SECURE_ACCESS_PROBABILITY+0x12>
    41014de4:	00000e13          	li	x28,0
    41014de8:	03c23c23          	sd	x28,56(x4) # 38 <SECURE_ACCESS_PROBABILITY+0x1a>
    41014dec:	00000e13          	li	x28,0
    41014df0:	07c23023          	sd	x28,96(x4) # 60 <XLEN+0x20>
    41014df4:	00000e13          	li	x28,0
    41014df8:	07c23423          	sd	x28,104(x4) # 68 <XLEN+0x28>
    41014dfc:	00000e13          	li	x28,0
    41014e00:	07c23823          	sd	x28,112(x4) # 70 <XLEN+0x30>

0000000041014e04 <fault_label_20>:
    41014e04:	00c5f553          	fadd.s	f10,f11,f12
    41014e08:	412324b7          	lui	x9,0x41232
    41014e0c:	0084849b          	addiw	x9,x9,8 # 41232008 <failed_addr>
    41014e10:	0004b603          	ld	x12,0(x9)
    41014e14:	00060067          	jr	x12

0000000041014e18 <excp_return_label_20>:
    41014e18:	0c000f13          	li	x30,192
    41014e1c:	003f14f3          	fscsr	x9,x30
    41014e20:	41238237          	lui	x4,0x41238
    41014e24:	00200e13          	li	x28,2
    41014e28:	05c23823          	sd	x28,80(x4) # 41238050 <check_excp_expected_cause>
    41014e2c:	00000e17          	auipc	x28,0x0
    41014e30:	048e0e13          	addi	x28,x28,72 # 41014e74 <fault_label_21>
    41014e34:	03c23023          	sd	x28,32(x4) # 20 <SECURE_ACCESS_PROBABILITY+0x2>
    41014e38:	00000e13          	li	x28,0
    41014e3c:	05c23023          	sd	x28,64(x4) # 40 <XLEN>
    41014e40:	00000e13          	li	x28,0
    41014e44:	05c23423          	sd	x28,72(x4) # 48 <XLEN+0x8>
    41014e48:	00000e17          	auipc	x28,0x0
    41014e4c:	040e0e13          	addi	x28,x28,64 # 41014e88 <excp_return_label_21>
    41014e50:	03c23823          	sd	x28,48(x4) # 30 <SECURE_ACCESS_PROBABILITY+0x12>
    41014e54:	00000e13          	li	x28,0
    41014e58:	03c23c23          	sd	x28,56(x4) # 38 <SECURE_ACCESS_PROBABILITY+0x1a>
    41014e5c:	00000e13          	li	x28,0
    41014e60:	07c23023          	sd	x28,96(x4) # 60 <XLEN+0x20>
    41014e64:	00000e13          	li	x28,0
    41014e68:	07c23423          	sd	x28,104(x4) # 68 <XLEN+0x28>
    41014e6c:	00000e13          	li	x28,0
    41014e70:	07c23823          	sd	x28,112(x4) # 70 <XLEN+0x30>

0000000041014e74 <fault_label_21>:
    41014e74:	00c5f553          	fadd.s	f10,f11,f12
    41014e78:	412328b7          	lui	x17,0x41232
    41014e7c:	0088889b          	addiw	x17,x17,8 # 41232008 <failed_addr>
    41014e80:	0008b503          	ld	x10,0(x17)
    41014e84:	00050067          	jr	x10

0000000041014e88 <excp_return_label_21>:
    41014e88:	0e000493          	li	x9,224
    41014e8c:	00349a73          	fscsr	x20,x9
    41014e90:	41238237          	lui	x4,0x41238
    41014e94:	00200e13          	li	x28,2
    41014e98:	05c23823          	sd	x28,80(x4) # 41238050 <check_excp_expected_cause>
    41014e9c:	00000e17          	auipc	x28,0x0
    41014ea0:	048e0e13          	addi	x28,x28,72 # 41014ee4 <fault_label_22>
    41014ea4:	03c23023          	sd	x28,32(x4) # 20 <SECURE_ACCESS_PROBABILITY+0x2>
    41014ea8:	00000e13          	li	x28,0
    41014eac:	05c23023          	sd	x28,64(x4) # 40 <XLEN>
    41014eb0:	00000e13          	li	x28,0
    41014eb4:	05c23423          	sd	x28,72(x4) # 48 <XLEN+0x8>
    41014eb8:	00000e17          	auipc	x28,0x0
    41014ebc:	040e0e13          	addi	x28,x28,64 # 41014ef8 <excp_return_label_22>
    41014ec0:	03c23823          	sd	x28,48(x4) # 30 <SECURE_ACCESS_PROBABILITY+0x12>
    41014ec4:	00000e13          	li	x28,0
    41014ec8:	03c23c23          	sd	x28,56(x4) # 38 <SECURE_ACCESS_PROBABILITY+0x1a>
    41014ecc:	00000e13          	li	x28,0
    41014ed0:	07c23023          	sd	x28,96(x4) # 60 <XLEN+0x20>
    41014ed4:	00000e13          	li	x28,0
    41014ed8:	07c23423          	sd	x28,104(x4) # 68 <XLEN+0x28>
    41014edc:	00000e13          	li	x28,0
    41014ee0:	07c23823          	sd	x28,112(x4) # 70 <XLEN+0x30>

0000000041014ee4 <fault_label_22>:
    41014ee4:	00c5f553          	fadd.s	f10,f11,f12
    41014ee8:	41232537          	lui	x10,0x41232
    41014eec:	0085051b          	addiw	x10,x10,8 # 41232008 <failed_addr>
    41014ef0:	00053883          	ld	x17,0(x10)
    41014ef4:	00088067          	jr	x17

0000000041014ef8 <excp_return_label_22>:
    41014ef8:	41228137          	lui	x2,0x41228
    41014efc:	00013383          	ld	x7,0(x2) # 41228000 <tp_csr_storage>
    41014f00:	41232fb7          	lui	x31,0x41232
    41014f04:	0a8f8f9b          	addiw	x31,x31,168 # 412320a8 <machine_csr_jump_table_flags>
    41014f08:	01e00f13          	li	x30,30
    41014f0c:	01efb023          	sd	x30,0(x31)
    41014f10:	000f0fb7          	lui	x31,0xf0
    41014f14:	001f8f9b          	addiw	x31,x31,1 # f0001 <pma_region_0_size+0xb0001>
    41014f18:	00cf9f93          	slli	x31,x31,0xc
    41014f1c:	005f8f93          	addi	x31,x31,5
    41014f20:	00000073          	ecall

0000000041014f24 <SID_EXCEP_10_passed>:
    41014f24:	00f00f9b          	addiw	x31,x0,15
    41014f28:	01cf9f93          	slli	x31,x31,0x1c
    41014f2c:	001f8f93          	addi	x31,x31,1
    41014f30:	00000073          	ecall

0000000041014f34 <SID_EXCEP_12>:
    41014f34:	41228137          	lui	x2,0x41228
    41014f38:	41232fb7          	lui	x31,0x41232
    41014f3c:	0a8f8f9b          	addiw	x31,x31,168 # 412320a8 <machine_csr_jump_table_flags>
    41014f40:	01700f13          	li	x30,23
    41014f44:	01efb023          	sd	x30,0(x31)
    41014f48:	000f0fb7          	lui	x31,0xf0
    41014f4c:	001f8f9b          	addiw	x31,x31,1 # f0001 <pma_region_0_size+0xb0001>
    41014f50:	00cf9f93          	slli	x31,x31,0xc
    41014f54:	005f8f93          	addi	x31,x31,5
    41014f58:	00000073          	ecall
    41014f5c:	00713023          	sd	x7,0(x2) # 41228000 <tp_csr_storage>
    41014f60:	430f1137          	lui	x2,0x430f1
    41014f64:	000012b7          	lui	x5,0x1
    41014f68:	00510133          	add	x2,x2,x5
    41014f6c:	ff017113          	andi	x2,x2,-16
    41014f70:	001009b7          	lui	x19,0x100
    41014f74:	00098393          	mv	x7,x19
    41014f78:	41232fb7          	lui	x31,0x41232
    41014f7c:	0a8f8f9b          	addiw	x31,x31,168 # 412320a8 <machine_csr_jump_table_flags>
    41014f80:	01900f13          	li	x30,25
    41014f84:	01efb023          	sd	x30,0(x31)
    41014f88:	000f0fb7          	lui	x31,0xf0
    41014f8c:	001f8f9b          	addiw	x31,x31,1 # f0001 <pma_region_0_size+0xb0001>
    41014f90:	00cf9f93          	slli	x31,x31,0xc
    41014f94:	005f8f93          	addi	x31,x31,5
    41014f98:	00000073          	ecall
    41014f9c:	41238237          	lui	x4,0x41238
    41014fa0:	00200e13          	li	x28,2
    41014fa4:	05c23823          	sd	x28,80(x4) # 41238050 <check_excp_expected_cause>
    41014fa8:	00000e17          	auipc	x28,0x0
    41014fac:	048e0e13          	addi	x28,x28,72 # 41014ff0 <fault_label_23>
    41014fb0:	03c23023          	sd	x28,32(x4) # 20 <SECURE_ACCESS_PROBABILITY+0x2>
    41014fb4:	00000e13          	li	x28,0
    41014fb8:	05c23023          	sd	x28,64(x4) # 40 <XLEN>
    41014fbc:	00000e13          	li	x28,0
    41014fc0:	05c23423          	sd	x28,72(x4) # 48 <XLEN+0x8>
    41014fc4:	00000e17          	auipc	x28,0x0
    41014fc8:	040e0e13          	addi	x28,x28,64 # 41015004 <excp_return_label_23>
    41014fcc:	03c23823          	sd	x28,48(x4) # 30 <SECURE_ACCESS_PROBABILITY+0x12>
    41014fd0:	00000e13          	li	x28,0
    41014fd4:	03c23c23          	sd	x28,56(x4) # 38 <SECURE_ACCESS_PROBABILITY+0x1a>
    41014fd8:	00000e13          	li	x28,0
    41014fdc:	07c23023          	sd	x28,96(x4) # 60 <XLEN+0x20>
    41014fe0:	00000e13          	li	x28,0
    41014fe4:	07c23423          	sd	x28,104(x4) # 68 <XLEN+0x28>
    41014fe8:	00000e13          	li	x28,0
    41014fec:	07c23823          	sd	x28,112(x4) # 70 <XLEN+0x30>

0000000041014ff0 <fault_label_23>:
    41014ff0:	18002c73          	csrr	x24,satp
    41014ff4:	41232f37          	lui	x30,0x41232
    41014ff8:	008f0f1b          	addiw	x30,x30,8 # 41232008 <failed_addr>
    41014ffc:	000f3683          	ld	x13,0(x30)
    41015000:	00068067          	jr	x13

0000000041015004 <excp_return_label_23>:
    41015004:	00000913          	li	x18,0
    41015008:	41238237          	lui	x4,0x41238
    4101500c:	00200e13          	li	x28,2
    41015010:	05c23823          	sd	x28,80(x4) # 41238050 <check_excp_expected_cause>
    41015014:	00000e17          	auipc	x28,0x0
    41015018:	048e0e13          	addi	x28,x28,72 # 4101505c <fault_label_24>
    4101501c:	03c23023          	sd	x28,32(x4) # 20 <SECURE_ACCESS_PROBABILITY+0x2>
    41015020:	00000e13          	li	x28,0
    41015024:	05c23023          	sd	x28,64(x4) # 40 <XLEN>
    41015028:	00000e13          	li	x28,0
    4101502c:	05c23423          	sd	x28,72(x4) # 48 <XLEN+0x8>
    41015030:	00000e17          	auipc	x28,0x0
    41015034:	040e0e13          	addi	x28,x28,64 # 41015070 <excp_return_label_24>
    41015038:	03c23823          	sd	x28,48(x4) # 30 <SECURE_ACCESS_PROBABILITY+0x12>
    4101503c:	00000e13          	li	x28,0
    41015040:	03c23c23          	sd	x28,56(x4) # 38 <SECURE_ACCESS_PROBABILITY+0x1a>
    41015044:	00000e13          	li	x28,0
    41015048:	07c23023          	sd	x28,96(x4) # 60 <XLEN+0x20>
    4101504c:	00000e13          	li	x28,0
    41015050:	07c23423          	sd	x28,104(x4) # 68 <XLEN+0x28>
    41015054:	00000e13          	li	x28,0
    41015058:	07c23823          	sd	x28,112(x4) # 70 <XLEN+0x30>

000000004101505c <fault_label_24>:
    4101505c:	180918f3          	csrrw	x17,satp,x18
    41015060:	41232fb7          	lui	x31,0x41232
    41015064:	008f8f9b          	addiw	x31,x31,8 # 41232008 <failed_addr>
    41015068:	000fbd83          	ld	x27,0(x31)
    4101506c:	000d8067          	jr	x27

0000000041015070 <excp_return_label_24>:
    41015070:	41238237          	lui	x4,0x41238
    41015074:	00200e13          	li	x28,2
    41015078:	05c23823          	sd	x28,80(x4) # 41238050 <check_excp_expected_cause>
    4101507c:	00000e17          	auipc	x28,0x0
    41015080:	048e0e13          	addi	x28,x28,72 # 410150c4 <fault_label_25>
    41015084:	03c23023          	sd	x28,32(x4) # 20 <SECURE_ACCESS_PROBABILITY+0x2>
    41015088:	00000e13          	li	x28,0
    4101508c:	05c23023          	sd	x28,64(x4) # 40 <XLEN>
    41015090:	00000e13          	li	x28,0
    41015094:	05c23423          	sd	x28,72(x4) # 48 <XLEN+0x8>
    41015098:	00000e17          	auipc	x28,0x0
    4101509c:	040e0e13          	addi	x28,x28,64 # 410150d8 <excp_return_label_25>
    410150a0:	03c23823          	sd	x28,48(x4) # 30 <SECURE_ACCESS_PROBABILITY+0x12>
    410150a4:	00000e13          	li	x28,0
    410150a8:	03c23c23          	sd	x28,56(x4) # 38 <SECURE_ACCESS_PROBABILITY+0x1a>
    410150ac:	00000e13          	li	x28,0
    410150b0:	07c23023          	sd	x28,96(x4) # 60 <XLEN+0x20>
    410150b4:	00000e13          	li	x28,0
    410150b8:	07c23423          	sd	x28,104(x4) # 68 <XLEN+0x28>
    410150bc:	00000e13          	li	x28,0
    410150c0:	07c23823          	sd	x28,112(x4) # 70 <XLEN+0x30>

00000000410150c4 <fault_label_25>:
    410150c4:	12000073          	sfence.vma
    410150c8:	41232eb7          	lui	x29,0x41232
    410150cc:	008e8e9b          	addiw	x29,x29,8 # 41232008 <failed_addr>
    410150d0:	000ebb83          	ld	x23,0(x29)
    410150d4:	000b8067          	jr	x23

00000000410150d8 <excp_return_label_25>:
    410150d8:	41238237          	lui	x4,0x41238
    410150dc:	00200e13          	li	x28,2
    410150e0:	05c23823          	sd	x28,80(x4) # 41238050 <check_excp_expected_cause>
    410150e4:	00000e17          	auipc	x28,0x0
    410150e8:	068e0e13          	addi	x28,x28,104 # 4101514c <fault_label_26>
    410150ec:	03c23023          	sd	x28,32(x4) # 20 <SECURE_ACCESS_PROBABILITY+0x2>
    410150f0:	00000e13          	li	x28,0
    410150f4:	05c23023          	sd	x28,64(x4) # 40 <XLEN>
    410150f8:	00000e13          	li	x28,0
    410150fc:	05c23423          	sd	x28,72(x4) # 48 <XLEN+0x8>
    41015100:	00000e17          	auipc	x28,0x0
    41015104:	060e0e13          	addi	x28,x28,96 # 41015160 <excp_return_label_26>
    41015108:	03c23823          	sd	x28,48(x4) # 30 <SECURE_ACCESS_PROBABILITY+0x12>
    4101510c:	00000e13          	li	x28,0
    41015110:	03c23c23          	sd	x28,56(x4) # 38 <SECURE_ACCESS_PROBABILITY+0x1a>
    41015114:	00000e13          	li	x28,0
    41015118:	07c23023          	sd	x28,96(x4) # 60 <XLEN+0x20>
    4101511c:	00000e13          	li	x28,0
    41015120:	07c23423          	sd	x28,104(x4) # 68 <XLEN+0x28>
    41015124:	00000e13          	li	x28,0
    41015128:	07c23823          	sd	x28,112(x4) # 70 <XLEN+0x30>
    4101512c:	00080f37          	lui	x30,0x80
    41015130:	347f0f1b          	addiw	x30,x30,839 # 80347 <pma_region_0_size+0x40347>
    41015134:	00cf1f13          	slli	x30,x30,0xc
    41015138:	8b9f0f13          	addi	x30,x30,-1863
    4101513c:	000f0437          	lui	x8,0xf0
    41015140:	ba94041b          	addiw	x8,x8,-1111 # efba9 <pma_region_0_size+0xafba9>
    41015144:	00c41413          	slli	x8,x8,0xc
    41015148:	1ff40413          	addi	x8,x8,511

000000004101514c <fault_label_26>:
    4101514c:	168f0073          	sinval.vma	x30,x8
    41015150:	412323b7          	lui	x7,0x41232
    41015154:	0083839b          	addiw	x7,x7,8 # 41232008 <failed_addr>
    41015158:	0003b803          	ld	x16,0(x7)
    4101515c:	00080067          	jr	x16

0000000041015160 <excp_return_label_26>:
    41015160:	41228137          	lui	x2,0x41228
    41015164:	00013383          	ld	x7,0(x2) # 41228000 <tp_csr_storage>
    41015168:	41232fb7          	lui	x31,0x41232
    4101516c:	0a8f8f9b          	addiw	x31,x31,168 # 412320a8 <machine_csr_jump_table_flags>
    41015170:	01c00f13          	li	x30,28
    41015174:	01efb023          	sd	x30,0(x31)
    41015178:	000f0fb7          	lui	x31,0xf0
    4101517c:	001f8f9b          	addiw	x31,x31,1 # f0001 <pma_region_0_size+0xb0001>
    41015180:	00cf9f93          	slli	x31,x31,0xc
    41015184:	005f8f93          	addi	x31,x31,5
    41015188:	00000073          	ecall

000000004101518c <SID_EXCEP_12_passed>:
    4101518c:	00f00f9b          	addiw	x31,x0,15
    41015190:	01cf9f93          	slli	x31,x31,0x1c
    41015194:	001f8f93          	addi	x31,x31,1
    41015198:	00000073          	ecall

000000004101519c <SID_EXCEP_15_S>:
    4101519c:	41228137          	lui	x2,0x41228
    410151a0:	41232fb7          	lui	x31,0x41232
    410151a4:	0a8f8f9b          	addiw	x31,x31,168 # 412320a8 <machine_csr_jump_table_flags>
    410151a8:	02200f13          	li	x30,34
    410151ac:	01efb023          	sd	x30,0(x31)
    410151b0:	000f0fb7          	lui	x31,0xf0
    410151b4:	001f8f9b          	addiw	x31,x31,1 # f0001 <pma_region_0_size+0xb0001>
    410151b8:	00cf9f93          	slli	x31,x31,0xc
    410151bc:	005f8f93          	addi	x31,x31,5
    410151c0:	00000073          	ecall
    410151c4:	00713023          	sd	x7,0(x2) # 41228000 <tp_csr_storage>
    410151c8:	4121b137          	lui	x2,0x4121b
    410151cc:	000012b7          	lui	x5,0x1
    410151d0:	00510133          	add	x2,x2,x5
    410151d4:	ff017113          	andi	x2,x2,-16
    410151d8:	00000e93          	li	x29,0
    410151dc:	000e8393          	mv	x7,x29
    410151e0:	41232fb7          	lui	x31,0x41232
    410151e4:	0a8f8f9b          	addiw	x31,x31,168 # 412320a8 <machine_csr_jump_table_flags>
    410151e8:	02300f13          	li	x30,35
    410151ec:	01efb023          	sd	x30,0(x31)
    410151f0:	000f0fb7          	lui	x31,0xf0
    410151f4:	001f8f9b          	addiw	x31,x31,1 # f0001 <pma_region_0_size+0xb0001>
    410151f8:	00cf9f93          	slli	x31,x31,0xc
    410151fc:	005f8f93          	addi	x31,x31,5
    41015200:	00000073          	ecall
    41015204:	41238237          	lui	x4,0x41238
    41015208:	00200e13          	li	x28,2
    4101520c:	05c23823          	sd	x28,80(x4) # 41238050 <check_excp_expected_cause>
    41015210:	00000e17          	auipc	x28,0x0
    41015214:	048e0e13          	addi	x28,x28,72 # 41015258 <fault_label_27>
    41015218:	03c23023          	sd	x28,32(x4) # 20 <SECURE_ACCESS_PROBABILITY+0x2>
    4101521c:	00000e13          	li	x28,0
    41015220:	05c23023          	sd	x28,64(x4) # 40 <XLEN>
    41015224:	00000e13          	li	x28,0
    41015228:	05c23423          	sd	x28,72(x4) # 48 <XLEN+0x8>
    4101522c:	00000e17          	auipc	x28,0x0
    41015230:	040e0e13          	addi	x28,x28,64 # 4101526c <excp_return_label_27>
    41015234:	03c23823          	sd	x28,48(x4) # 30 <SECURE_ACCESS_PROBABILITY+0x12>
    41015238:	00000e13          	li	x28,0
    4101523c:	03c23c23          	sd	x28,56(x4) # 38 <SECURE_ACCESS_PROBABILITY+0x1a>
    41015240:	00000e13          	li	x28,0
    41015244:	07c23023          	sd	x28,96(x4) # 60 <XLEN+0x20>
    41015248:	00000e13          	li	x28,0
    4101524c:	07c23423          	sd	x28,104(x4) # 68 <XLEN+0x28>
    41015250:	00000e13          	li	x28,0
    41015254:	07c23823          	sd	x28,112(x4) # 70 <XLEN+0x30>

0000000041015258 <fault_label_27>:
    41015258:	c00023f3          	rdcycle	x7
    4101525c:	412329b7          	lui	x19,0x41232
    41015260:	0089899b          	addiw	x19,x19,8 # 41232008 <failed_addr>
    41015264:	0009ba83          	ld	x21,0(x19)
    41015268:	000a8067          	jr	x21

000000004101526c <excp_return_label_27>:
    4101526c:	41238237          	lui	x4,0x41238
    41015270:	00200e13          	li	x28,2
    41015274:	05c23823          	sd	x28,80(x4) # 41238050 <check_excp_expected_cause>
    41015278:	00000e17          	auipc	x28,0x0
    4101527c:	048e0e13          	addi	x28,x28,72 # 410152c0 <fault_label_28>
    41015280:	03c23023          	sd	x28,32(x4) # 20 <SECURE_ACCESS_PROBABILITY+0x2>
    41015284:	00000e13          	li	x28,0
    41015288:	05c23023          	sd	x28,64(x4) # 40 <XLEN>
    4101528c:	00000e13          	li	x28,0
    41015290:	05c23423          	sd	x28,72(x4) # 48 <XLEN+0x8>
    41015294:	00000e17          	auipc	x28,0x0
    41015298:	040e0e13          	addi	x28,x28,64 # 410152d4 <excp_return_label_28>
    4101529c:	03c23823          	sd	x28,48(x4) # 30 <SECURE_ACCESS_PROBABILITY+0x12>
    410152a0:	00000e13          	li	x28,0
    410152a4:	03c23c23          	sd	x28,56(x4) # 38 <SECURE_ACCESS_PROBABILITY+0x1a>
    410152a8:	00000e13          	li	x28,0
    410152ac:	07c23023          	sd	x28,96(x4) # 60 <XLEN+0x20>
    410152b0:	00000e13          	li	x28,0
    410152b4:	07c23423          	sd	x28,104(x4) # 68 <XLEN+0x28>
    410152b8:	00000e13          	li	x28,0
    410152bc:	07c23823          	sd	x28,112(x4) # 70 <XLEN+0x30>

00000000410152c0 <fault_label_28>:
    410152c0:	c0102ff3          	rdtime	x31
    410152c4:	41232637          	lui	x12,0x41232
    410152c8:	0086061b          	addiw	x12,x12,8 # 41232008 <failed_addr>
    410152cc:	00063a03          	ld	x20,0(x12)
    410152d0:	000a0067          	jr	x20 # 6000 <_all_interrupts+0x3556>

00000000410152d4 <excp_return_label_28>:
    410152d4:	41238237          	lui	x4,0x41238
    410152d8:	00200e13          	li	x28,2
    410152dc:	05c23823          	sd	x28,80(x4) # 41238050 <check_excp_expected_cause>
    410152e0:	00000e17          	auipc	x28,0x0
    410152e4:	048e0e13          	addi	x28,x28,72 # 41015328 <fault_label_29>
    410152e8:	03c23023          	sd	x28,32(x4) # 20 <SECURE_ACCESS_PROBABILITY+0x2>
    410152ec:	00000e13          	li	x28,0
    410152f0:	05c23023          	sd	x28,64(x4) # 40 <XLEN>
    410152f4:	00000e13          	li	x28,0
    410152f8:	05c23423          	sd	x28,72(x4) # 48 <XLEN+0x8>
    410152fc:	00000e17          	auipc	x28,0x0
    41015300:	040e0e13          	addi	x28,x28,64 # 4101533c <excp_return_label_29>
    41015304:	03c23823          	sd	x28,48(x4) # 30 <SECURE_ACCESS_PROBABILITY+0x12>
    41015308:	00000e13          	li	x28,0
    4101530c:	03c23c23          	sd	x28,56(x4) # 38 <SECURE_ACCESS_PROBABILITY+0x1a>
    41015310:	00000e13          	li	x28,0
    41015314:	07c23023          	sd	x28,96(x4) # 60 <XLEN+0x20>
    41015318:	00000e13          	li	x28,0
    4101531c:	07c23423          	sd	x28,104(x4) # 68 <XLEN+0x28>
    41015320:	00000e13          	li	x28,0
    41015324:	07c23823          	sd	x28,112(x4) # 70 <XLEN+0x30>

0000000041015328 <fault_label_29>:
    41015328:	c0202e73          	rdinstret	x28
    4101532c:	41232fb7          	lui	x31,0x41232
    41015330:	008f8f9b          	addiw	x31,x31,8 # 41232008 <failed_addr>
    41015334:	000fbe03          	ld	x28,0(x31)
    41015338:	000e0067          	jr	x28

000000004101533c <excp_return_label_29>:
    4101533c:	41228137          	lui	x2,0x41228
    41015340:	00013383          	ld	x7,0(x2) # 41228000 <tp_csr_storage>
    41015344:	41232fb7          	lui	x31,0x41232
    41015348:	0a8f8f9b          	addiw	x31,x31,168 # 412320a8 <machine_csr_jump_table_flags>
    4101534c:	02400f13          	li	x30,36
    41015350:	01efb023          	sd	x30,0(x31)
    41015354:	000f0fb7          	lui	x31,0xf0
    41015358:	001f8f9b          	addiw	x31,x31,1 # f0001 <pma_region_0_size+0xb0001>
    4101535c:	00cf9f93          	slli	x31,x31,0xc
    41015360:	005f8f93          	addi	x31,x31,5
    41015364:	00000073          	ecall

0000000041015368 <SID_EXCEP_15_S_passed>:
    41015368:	00f00f9b          	addiw	x31,x0,15
    4101536c:	01cf9f93          	slli	x31,x31,0x1c
    41015370:	001f8f93          	addi	x31,x31,1
    41015374:	00000073          	ecall

0000000041015378 <SID_EXCEP_16>:
    41015378:	4312a137          	lui	x2,0x4312a
    4101537c:	000012b7          	lui	x5,0x1
    41015380:	00510133          	add	x2,x2,x5
    41015384:	ff017113          	andi	x2,x2,-16
    41015388:	41238237          	lui	x4,0x41238
    4101538c:	00200e13          	li	x28,2
    41015390:	05c23823          	sd	x28,80(x4) # 41238050 <check_excp_expected_cause>
    41015394:	00000e17          	auipc	x28,0x0
    41015398:	054e0e13          	addi	x28,x28,84 # 410153e8 <fault_label_30>
    4101539c:	03c23023          	sd	x28,32(x4) # 20 <SECURE_ACCESS_PROBABILITY+0x2>
    410153a0:	000c0e37          	lui	x28,0xc0
    410153a4:	001e0e1b          	addiw	x28,x28,1 # c0001 <pma_region_0_size+0x80001>
    410153a8:	00ce1e13          	slli	x28,x28,0xc
    410153ac:	073e0e13          	addi	x28,x28,115
    410153b0:	05c23023          	sd	x28,64(x4) # 40 <XLEN>
    410153b4:	00000e13          	li	x28,0
    410153b8:	05c23423          	sd	x28,72(x4) # 48 <XLEN+0x8>
    410153bc:	00000e17          	auipc	x28,0x0
    410153c0:	040e0e13          	addi	x28,x28,64 # 410153fc <SID_EXCEP_16_passed>
    410153c4:	03c23823          	sd	x28,48(x4) # 30 <SECURE_ACCESS_PROBABILITY+0x12>
    410153c8:	00000e13          	li	x28,0
    410153cc:	03c23c23          	sd	x28,56(x4) # 38 <SECURE_ACCESS_PROBABILITY+0x1a>
    410153d0:	00000e13          	li	x28,0
    410153d4:	07c23023          	sd	x28,96(x4) # 60 <XLEN+0x20>
    410153d8:	00000e13          	li	x28,0
    410153dc:	07c23423          	sd	x28,104(x4) # 68 <XLEN+0x28>
    410153e0:	00000e13          	li	x28,0
    410153e4:	07c23823          	sd	x28,112(x4) # 70 <XLEN+0x30>

00000000410153e8 <fault_label_30>:
    410153e8:	c0001073          	unimp
    410153ec:	41232db7          	lui	x27,0x41232
    410153f0:	008d8d9b          	addiw	x27,x27,8 # 41232008 <failed_addr>
    410153f4:	000dbf03          	ld	x30,0(x27)
    410153f8:	000f0067          	jr	x30

00000000410153fc <SID_EXCEP_16_passed>:
    410153fc:	00f00f9b          	addiw	x31,x0,15
    41015400:	01cf9f93          	slli	x31,x31,0x1c
    41015404:	001f8f93          	addi	x31,x31,1
    41015408:	00000073          	ecall

000000004101540c <SID_EXCEP_17>:
    4101540c:	4298a137          	lui	x2,0x4298a
    41015410:	000012b7          	lui	x5,0x1
    41015414:	00510133          	add	x2,x2,x5
    41015418:	ff017113          	andi	x2,x2,-16
    4101541c:	41238237          	lui	x4,0x41238
    41015420:	00900e13          	li	x28,9
    41015424:	05c23823          	sd	x28,80(x4) # 41238050 <check_excp_expected_cause>
    41015428:	00000e17          	auipc	x28,0x0
    4101542c:	048e0e13          	addi	x28,x28,72 # 41015470 <fault_label_31>
    41015430:	03c23023          	sd	x28,32(x4) # 20 <SECURE_ACCESS_PROBABILITY+0x2>
    41015434:	00000e13          	li	x28,0
    41015438:	05c23023          	sd	x28,64(x4) # 40 <XLEN>
    4101543c:	00000e13          	li	x28,0
    41015440:	05c23423          	sd	x28,72(x4) # 48 <XLEN+0x8>
    41015444:	00000e17          	auipc	x28,0x0
    41015448:	040e0e13          	addi	x28,x28,64 # 41015484 <SID_EXCEP_17_passed>
    4101544c:	03c23823          	sd	x28,48(x4) # 30 <SECURE_ACCESS_PROBABILITY+0x12>
    41015450:	00000e13          	li	x28,0
    41015454:	03c23c23          	sd	x28,56(x4) # 38 <SECURE_ACCESS_PROBABILITY+0x1a>
    41015458:	00000e13          	li	x28,0
    4101545c:	07c23023          	sd	x28,96(x4) # 60 <XLEN+0x20>
    41015460:	00000e13          	li	x28,0
    41015464:	07c23423          	sd	x28,104(x4) # 68 <XLEN+0x28>
    41015468:	00000e13          	li	x28,0
    4101546c:	07c23823          	sd	x28,112(x4) # 70 <XLEN+0x30>

0000000041015470 <fault_label_31>:
    41015470:	00000073          	ecall
    41015474:	412328b7          	lui	x17,0x41232
    41015478:	0088889b          	addiw	x17,x17,8 # 41232008 <failed_addr>
    4101547c:	0008b403          	ld	x8,0(x17)
    41015480:	00040067          	jr	x8

0000000041015484 <SID_EXCEP_17_passed>:
    41015484:	00f00f9b          	addiw	x31,x0,15
    41015488:	01cf9f93          	slli	x31,x31,0x1c
    4101548c:	001f8f93          	addi	x31,x31,1
    41015490:	00000073          	ecall

0000000041015494 <SID_EXCEP_32_S>:
    41015494:	41228137          	lui	x2,0x41228
    41015498:	41232fb7          	lui	x31,0x41232
    4101549c:	0a8f8f9b          	addiw	x31,x31,168 # 412320a8 <machine_csr_jump_table_flags>
    410154a0:	02500f13          	li	x30,37
    410154a4:	01efb023          	sd	x30,0(x31)
    410154a8:	000f0fb7          	lui	x31,0xf0
    410154ac:	001f8f9b          	addiw	x31,x31,1 # f0001 <pma_region_0_size+0xb0001>
    410154b0:	00cf9f93          	slli	x31,x31,0xc
    410154b4:	005f8f93          	addi	x31,x31,5
    410154b8:	00000073          	ecall
    410154bc:	00713023          	sd	x7,0(x2) # 41228000 <tp_csr_storage>
    410154c0:	44e69137          	lui	x2,0x44e69
    410154c4:	000012b7          	lui	x5,0x1
    410154c8:	00510133          	add	x2,x2,x5
    410154cc:	ff017113          	andi	x2,x2,-16
    410154d0:	00400a13          	li	x20,4
    410154d4:	000a0393          	mv	x7,x20
    410154d8:	41232fb7          	lui	x31,0x41232
    410154dc:	0a8f8f9b          	addiw	x31,x31,168 # 412320a8 <machine_csr_jump_table_flags>
    410154e0:	02600f13          	li	x30,38
    410154e4:	01efb023          	sd	x30,0(x31)
    410154e8:	000f0fb7          	lui	x31,0xf0
    410154ec:	001f8f9b          	addiw	x31,x31,1 # f0001 <pma_region_0_size+0xb0001>
    410154f0:	00cf9f93          	slli	x31,x31,0xc
    410154f4:	005f8f93          	addi	x31,x31,5
    410154f8:	00000073          	ecall
    410154fc:	41238237          	lui	x4,0x41238
    41015500:	00200e13          	li	x28,2
    41015504:	05c23823          	sd	x28,80(x4) # 41238050 <check_excp_expected_cause>
    41015508:	00000e17          	auipc	x28,0x0
    4101550c:	048e0e13          	addi	x28,x28,72 # 41015550 <fault_label_32>
    41015510:	03c23023          	sd	x28,32(x4) # 20 <SECURE_ACCESS_PROBABILITY+0x2>
    41015514:	00000e13          	li	x28,0
    41015518:	05c23023          	sd	x28,64(x4) # 40 <XLEN>
    4101551c:	00000e13          	li	x28,0
    41015520:	05c23423          	sd	x28,72(x4) # 48 <XLEN+0x8>
    41015524:	00000e17          	auipc	x28,0x0
    41015528:	040e0e13          	addi	x28,x28,64 # 41015564 <excp_return_label_32>
    4101552c:	03c23823          	sd	x28,48(x4) # 30 <SECURE_ACCESS_PROBABILITY+0x12>
    41015530:	00000e13          	li	x28,0
    41015534:	03c23c23          	sd	x28,56(x4) # 38 <SECURE_ACCESS_PROBABILITY+0x1a>
    41015538:	00000e13          	li	x28,0
    4101553c:	07c23023          	sd	x28,96(x4) # 60 <XLEN+0x20>
    41015540:	00000e13          	li	x28,0
    41015544:	07c23423          	sd	x28,104(x4) # 68 <XLEN+0x28>
    41015548:	00000e13          	li	x28,0
    4101554c:	07c23823          	sd	x28,112(x4) # 70 <XLEN+0x30>

0000000041015550 <fault_label_32>:
    41015550:	0000                	.insn	2, 0x0000
    41015552:	0000                	.insn	2, 0x0000
    41015554:	41232eb7          	lui	x29,0x41232
    41015558:	008e8e9b          	addiw	x29,x29,8 # 41232008 <failed_addr>
    4101555c:	000ebc03          	ld	x24,0(x29)
    41015560:	000c0067          	jr	x24 # 200000 <pma_region_0_size+0x1c0000>

0000000041015564 <excp_return_label_32>:
    41015564:	14202573          	csrr	x10,scause
    41015568:	00200c13          	li	x24,2
    4101556c:	01850a63          	beq	x10,x24,41015580 <pass_label_0>
    41015570:	412326b7          	lui	x13,0x41232
    41015574:	0086869b          	addiw	x13,x13,8 # 41232008 <failed_addr>
    41015578:	0006bd83          	ld	x27,0(x13)
    4101557c:	000d8067          	jr	x27

0000000041015580 <pass_label_0>:
    41015580:	41228137          	lui	x2,0x41228
    41015584:	00013383          	ld	x7,0(x2) # 41228000 <tp_csr_storage>
    41015588:	41232fb7          	lui	x31,0x41232
    4101558c:	0a8f8f9b          	addiw	x31,x31,168 # 412320a8 <machine_csr_jump_table_flags>
    41015590:	02700f13          	li	x30,39
    41015594:	01efb023          	sd	x30,0(x31)
    41015598:	000f0fb7          	lui	x31,0xf0
    4101559c:	001f8f9b          	addiw	x31,x31,1 # f0001 <pma_region_0_size+0xb0001>
    410155a0:	00cf9f93          	slli	x31,x31,0xc
    410155a4:	005f8f93          	addi	x31,x31,5
    410155a8:	00000073          	ecall

00000000410155ac <SID_EXCEP_32_S_passed>:
    410155ac:	00f00f9b          	addiw	x31,x0,15
    410155b0:	01cf9f93          	slli	x31,x31,0x1c
    410155b4:	001f8f93          	addi	x31,x31,1
    410155b8:	00000073          	ecall

00000000410155bc <SID_EXCEP_33_S>:
    410155bc:	41228137          	lui	x2,0x41228
    410155c0:	41232fb7          	lui	x31,0x41232
    410155c4:	0a8f8f9b          	addiw	x31,x31,168 # 412320a8 <machine_csr_jump_table_flags>
    410155c8:	02800f13          	li	x30,40
    410155cc:	01efb023          	sd	x30,0(x31)
    410155d0:	000f0fb7          	lui	x31,0xf0
    410155d4:	001f8f9b          	addiw	x31,x31,1 # f0001 <pma_region_0_size+0xb0001>
    410155d8:	00cf9f93          	slli	x31,x31,0xc
    410155dc:	005f8f93          	addi	x31,x31,5
    410155e0:	00000073          	ecall
    410155e4:	00713023          	sd	x7,0(x2) # 41228000 <tp_csr_storage>
    410155e8:	41223137          	lui	x2,0x41223
    410155ec:	000012b7          	lui	x5,0x1
    410155f0:	00510133          	add	x2,x2,x5
    410155f4:	ff017113          	andi	x2,x2,-16
    410155f8:	00100913          	li	x18,1
    410155fc:	105938f3          	csrrc	x17,stvec,x18
    41015600:	41238237          	lui	x4,0x41238
    41015604:	00200e13          	li	x28,2
    41015608:	05c23823          	sd	x28,80(x4) # 41238050 <check_excp_expected_cause>
    4101560c:	00000e17          	auipc	x28,0x0
    41015610:	048e0e13          	addi	x28,x28,72 # 41015654 <fault_label_33>
    41015614:	03c23023          	sd	x28,32(x4) # 20 <SECURE_ACCESS_PROBABILITY+0x2>
    41015618:	00000e13          	li	x28,0
    4101561c:	05c23023          	sd	x28,64(x4) # 40 <XLEN>
    41015620:	00000e13          	li	x28,0
    41015624:	05c23423          	sd	x28,72(x4) # 48 <XLEN+0x8>
    41015628:	00000e17          	auipc	x28,0x0
    4101562c:	040e0e13          	addi	x28,x28,64 # 41015668 <excp_return_label_33>
    41015630:	03c23823          	sd	x28,48(x4) # 30 <SECURE_ACCESS_PROBABILITY+0x12>
    41015634:	00000e13          	li	x28,0
    41015638:	03c23c23          	sd	x28,56(x4) # 38 <SECURE_ACCESS_PROBABILITY+0x1a>
    4101563c:	00000e13          	li	x28,0
    41015640:	07c23023          	sd	x28,96(x4) # 60 <XLEN+0x20>
    41015644:	00000e13          	li	x28,0
    41015648:	07c23423          	sd	x28,104(x4) # 68 <XLEN+0x28>
    4101564c:	00000e13          	li	x28,0
    41015650:	07c23823          	sd	x28,112(x4) # 70 <XLEN+0x30>

0000000041015654 <fault_label_33>:
    41015654:	c0001073          	unimp
    41015658:	41232bb7          	lui	x23,0x41232
    4101565c:	008b8b9b          	addiw	x23,x23,8 # 41232008 <failed_addr>
    41015660:	000bb903          	ld	x18,0(x23)
    41015664:	00090067          	jr	x18

0000000041015668 <excp_return_label_33>:
    41015668:	00100313          	li	x6,1
    4101566c:	10532cf3          	csrrs	x25,stvec,x6
    41015670:	41238237          	lui	x4,0x41238
    41015674:	00200e13          	li	x28,2
    41015678:	05c23823          	sd	x28,80(x4) # 41238050 <check_excp_expected_cause>
    4101567c:	00000e17          	auipc	x28,0x0
    41015680:	048e0e13          	addi	x28,x28,72 # 410156c4 <fault_label_34>
    41015684:	03c23023          	sd	x28,32(x4) # 20 <SECURE_ACCESS_PROBABILITY+0x2>
    41015688:	00000e13          	li	x28,0
    4101568c:	05c23023          	sd	x28,64(x4) # 40 <XLEN>
    41015690:	00000e13          	li	x28,0
    41015694:	05c23423          	sd	x28,72(x4) # 48 <XLEN+0x8>
    41015698:	00000e17          	auipc	x28,0x0
    4101569c:	040e0e13          	addi	x28,x28,64 # 410156d8 <excp_return_label_34>
    410156a0:	03c23823          	sd	x28,48(x4) # 30 <SECURE_ACCESS_PROBABILITY+0x12>
    410156a4:	00000e13          	li	x28,0
    410156a8:	03c23c23          	sd	x28,56(x4) # 38 <SECURE_ACCESS_PROBABILITY+0x1a>
    410156ac:	00000e13          	li	x28,0
    410156b0:	07c23023          	sd	x28,96(x4) # 60 <XLEN+0x20>
    410156b4:	00000e13          	li	x28,0
    410156b8:	07c23423          	sd	x28,104(x4) # 68 <XLEN+0x28>
    410156bc:	00000e13          	li	x28,0
    410156c0:	07c23823          	sd	x28,112(x4) # 70 <XLEN+0x30>

00000000410156c4 <fault_label_34>:
    410156c4:	c0001073          	unimp
    410156c8:	41232437          	lui	x8,0x41232
    410156cc:	0084041b          	addiw	x8,x8,8 # 41232008 <failed_addr>
    410156d0:	00043983          	ld	x19,0(x8)
    410156d4:	00098067          	jr	x19

00000000410156d8 <excp_return_label_34>:
    410156d8:	41228137          	lui	x2,0x41228
    410156dc:	00013383          	ld	x7,0(x2) # 41228000 <tp_csr_storage>
    410156e0:	41232fb7          	lui	x31,0x41232
    410156e4:	0a8f8f9b          	addiw	x31,x31,168 # 412320a8 <machine_csr_jump_table_flags>
    410156e8:	02900f13          	li	x30,41
    410156ec:	01efb023          	sd	x30,0(x31)
    410156f0:	000f0fb7          	lui	x31,0xf0
    410156f4:	001f8f9b          	addiw	x31,x31,1 # f0001 <pma_region_0_size+0xb0001>
    410156f8:	00cf9f93          	slli	x31,x31,0xc
    410156fc:	005f8f93          	addi	x31,x31,5
    41015700:	00000073          	ecall

0000000041015704 <SID_EXCEP_33_S_passed>:
    41015704:	00f00f9b          	addiw	x31,x0,15
    41015708:	01cf9f93          	slli	x31,x31,0x1c
    4101570c:	001f8f93          	addi	x31,x31,1
    41015710:	00000073          	ecall

0000000041015714 <SID_EXCEP_35>:
    41015714:	41228137          	lui	x2,0x41228
    41015718:	41232fb7          	lui	x31,0x41232
    4101571c:	0a8f8f9b          	addiw	x31,x31,168 # 412320a8 <machine_csr_jump_table_flags>
    41015720:	02200f13          	li	x30,34
    41015724:	01efb023          	sd	x30,0(x31)
    41015728:	000f0fb7          	lui	x31,0xf0
    4101572c:	001f8f9b          	addiw	x31,x31,1 # f0001 <pma_region_0_size+0xb0001>
    41015730:	00cf9f93          	slli	x31,x31,0xc
    41015734:	005f8f93          	addi	x31,x31,5
    41015738:	00000073          	ecall
    4101573c:	00713023          	sd	x7,0(x2) # 41228000 <tp_csr_storage>
    41015740:	42a1f137          	lui	x2,0x42a1f
    41015744:	000012b7          	lui	x5,0x1
    41015748:	00510133          	add	x2,x2,x5
    4101574c:	ff017113          	andi	x2,x2,-16
    41015750:	00100e13          	li	x28,1
    41015754:	000e0393          	mv	x7,x28
    41015758:	41232fb7          	lui	x31,0x41232
    4101575c:	0a8f8f9b          	addiw	x31,x31,168 # 412320a8 <machine_csr_jump_table_flags>
    41015760:	02b00f13          	li	x30,43
    41015764:	01efb023          	sd	x30,0(x31)
    41015768:	000f0fb7          	lui	x31,0xf0
    4101576c:	001f8f9b          	addiw	x31,x31,1 # f0001 <pma_region_0_size+0xb0001>
    41015770:	00cf9f93          	slli	x31,x31,0xc
    41015774:	005f8f93          	addi	x31,x31,5
    41015778:	00000073          	ecall
    4101577c:	c0002d73          	rdcycle	x26
    41015780:	c0003cf3          	csrrc	x25,cycle,x0
    41015784:	c0006df3          	csrrsi	x27,cycle,0
    41015788:	c00079f3          	csrrci	x19,cycle,0
    4101578c:	41228137          	lui	x2,0x41228
    41015790:	00013383          	ld	x7,0(x2) # 41228000 <tp_csr_storage>
    41015794:	41232fb7          	lui	x31,0x41232
    41015798:	0a8f8f9b          	addiw	x31,x31,168 # 412320a8 <machine_csr_jump_table_flags>
    4101579c:	02400f13          	li	x30,36
    410157a0:	01efb023          	sd	x30,0(x31)
    410157a4:	000f0fb7          	lui	x31,0xf0
    410157a8:	001f8f9b          	addiw	x31,x31,1 # f0001 <pma_region_0_size+0xb0001>
    410157ac:	00cf9f93          	slli	x31,x31,0xc
    410157b0:	005f8f93          	addi	x31,x31,5
    410157b4:	00000073          	ecall

00000000410157b8 <SID_EXCEP_35_passed>:
    410157b8:	00f00f9b          	addiw	x31,x0,15
    410157bc:	01cf9f93          	slli	x31,x31,0x1c
    410157c0:	001f8f93          	addi	x31,x31,1
    410157c4:	00000073          	ecall

00000000410157c8 <SID_EXCEP_37>:
    410157c8:	41224137          	lui	x2,0x41224
    410157cc:	000012b7          	lui	x5,0x1
    410157d0:	00510133          	add	x2,x2,x5
    410157d4:	ff017113          	andi	x2,x2,-16
    410157d8:	00000d17          	auipc	x26,0x0
    410157dc:	00dd0593          	addi	x11,x26,13 # 410157e5 <SID_EXCEP_37+0x1d>
    410157e0:	00058667          	jalr	x12,x11
    410157e4:	00000013          	nop

00000000410157e8 <SID_EXCEP_37_passed>:
    410157e8:	00f00f9b          	addiw	x31,x0,15
    410157ec:	01cf9f93          	slli	x31,x31,0x1c
    410157f0:	001f8f93          	addi	x31,x31,1
    410157f4:	00000073          	ecall

00000000410157f8 <SID_EXCEP_38>:
    410157f8:	41228137          	lui	x2,0x41228
    410157fc:	41232fb7          	lui	x31,0x41232
    41015800:	0a8f8f9b          	addiw	x31,x31,168 # 412320a8 <machine_csr_jump_table_flags>
    41015804:	01d00f13          	li	x30,29
    41015808:	01efb023          	sd	x30,0(x31)
    4101580c:	000f0fb7          	lui	x31,0xf0
    41015810:	001f8f9b          	addiw	x31,x31,1 # f0001 <pma_region_0_size+0xb0001>
    41015814:	00cf9f93          	slli	x31,x31,0xc
    41015818:	005f8f93          	addi	x31,x31,5
    4101581c:	00000073          	ecall
    41015820:	00713023          	sd	x7,0(x2) # 41228000 <tp_csr_storage>
    41015824:	4187e137          	lui	x2,0x4187e
    41015828:	000012b7          	lui	x5,0x1
    4101582c:	00510133          	add	x2,x2,x5
    41015830:	ff017113          	andi	x2,x2,-16
    41015834:	0a000b13          	li	x22,160
    41015838:	003b16f3          	fscsr	x13,x22
    4101583c:	00c58553          	fadd.s	f10,f11,f12,rne
    41015840:	0c000313          	li	x6,192
    41015844:	003316f3          	fscsr	x13,x6
    41015848:	10c59553          	fmul.s	f10,f11,f12,rtz
    4101584c:	0e000713          	li	x14,224
    41015850:	00371df3          	fscsr	x27,x14
    41015854:	08c5a553          	fsub.s	f10,f11,f12,rdn
    41015858:	41228137          	lui	x2,0x41228
    4101585c:	00013383          	ld	x7,0(x2) # 41228000 <tp_csr_storage>
    41015860:	41232fb7          	lui	x31,0x41232
    41015864:	0a8f8f9b          	addiw	x31,x31,168 # 412320a8 <machine_csr_jump_table_flags>
    41015868:	01e00f13          	li	x30,30
    4101586c:	01efb023          	sd	x30,0(x31)
    41015870:	000f0fb7          	lui	x31,0xf0
    41015874:	001f8f9b          	addiw	x31,x31,1 # f0001 <pma_region_0_size+0xb0001>
    41015878:	00cf9f93          	slli	x31,x31,0xc
    4101587c:	005f8f93          	addi	x31,x31,5
    41015880:	00000073          	ecall

0000000041015884 <SID_EXCEP_38_passed>:
    41015884:	00f00f9b          	addiw	x31,x0,15
    41015888:	01cf9f93          	slli	x31,x31,0x1c
    4101588c:	001f8f93          	addi	x31,x31,1
    41015890:	00000073          	ecall

0000000041015894 <test_cleanup>:
    41015894:	00f00f9b          	addiw	x31,x0,15
    41015898:	01cf9f93          	slli	x31,x31,0x1c
    4101589c:	001f8f93          	addi	x31,x31,1
    410158a0:	00000073          	ecall

00000000410158a4 <local_test_failed>:
    410158a4:	00f00f9b          	addiw	x31,x0,15
    410158a8:	01cf9f93          	slli	x31,x31,0x1c
    410158ac:	002f8f93          	addi	x31,x31,2
    410158b0:	00000073          	ecall

Disassembly of section .csr_machine_0:

0000000041214000 <csr_access_mstatus_machine_key_28_write-0xc8>:
    41214000:	41232fb7          	lui	x31,0x41232
    41214004:	0a8f8f9b          	addiw	x31,x31,168 # 412320a8 <machine_csr_jump_table_flags>
    41214008:	000fbf83          	ld	x31,0(x31)
    4121400c:	01c00293          	li	x5,28
    41214010:	0a5f8c63          	beq	x31,x5,412140c8 <csr_access_mstatus_machine_key_28_write>
    41214014:	00100293          	li	x5,1
    41214018:	0a5f8c63          	beq	x31,x5,412140d0 <csr_access_mstatus_machine_key_1_read>
    4121401c:	01700293          	li	x5,23
    41214020:	0a5f8c63          	beq	x31,x5,412140d8 <csr_access_mstatus_machine_key_23_read>
    41214024:	01900293          	li	x5,25
    41214028:	0a5f8c63          	beq	x31,x5,412140e0 <csr_access_mstatus_machine_key_25_set>
    4121402c:	01800293          	li	x5,24
    41214030:	0a5f8c63          	beq	x31,x5,412140e8 <csr_access_mstatus_machine_key_24_clear>
    41214034:	00200293          	li	x5,2
    41214038:	0a5f8c63          	beq	x31,x5,412140f0 <csr_access_mvendorid_machine_key_2_write>
    4121403c:	00c00293          	li	x5,12
    41214040:	0a5f8c63          	beq	x31,x5,412140f8 <csr_access_misa_machine_key_12_write>
    41214044:	00300293          	li	x5,3
    41214048:	0a5f8c63          	beq	x31,x5,41214100 <csr_access_misa_machine_key_3_read>
    4121404c:	00500293          	li	x5,5
    41214050:	0a5f8c63          	beq	x31,x5,41214108 <csr_access_misa_machine_key_5_set>
    41214054:	00400293          	li	x5,4
    41214058:	0a5f8c63          	beq	x31,x5,41214110 <csr_access_misa_machine_key_4_clear>
    4121405c:	01e00293          	li	x5,30
    41214060:	0a5f8c63          	beq	x31,x5,41214118 <csr_access_fcsr_user_key_30_write>
    41214064:	01d00293          	li	x5,29
    41214068:	0a5f8c63          	beq	x31,x5,41214120 <csr_access_fcsr_user_key_29_read>
    4121406c:	02300293          	li	x5,35
    41214070:	0a5f8c63          	beq	x31,x5,41214128 <csr_access_mcounteren_machine_key_35_write>
    41214074:	02400293          	li	x5,36
    41214078:	0a5f8c63          	beq	x31,x5,41214130 <csr_access_mcounteren_machine_key_36_write>
    4121407c:	02200293          	li	x5,34
    41214080:	0a5f8c63          	beq	x31,x5,41214138 <csr_access_mcounteren_machine_key_34_read>
    41214084:	02b00293          	li	x5,43
    41214088:	0a5f8c63          	beq	x31,x5,41214140 <csr_access_mcounteren_machine_key_43_set>
    4121408c:	02700293          	li	x5,39
    41214090:	0a5f8c63          	beq	x31,x5,41214148 <csr_access_medeleg_machine_key_39_write>
    41214094:	02500293          	li	x5,37
    41214098:	0a5f8c63          	beq	x31,x5,41214150 <csr_access_medeleg_machine_key_37_read>
    4121409c:	02600293          	li	x5,38
    412140a0:	0a5f8c63          	beq	x31,x5,41214158 <csr_access_medeleg_machine_key_38_set>
    412140a4:	02900293          	li	x5,41
    412140a8:	0a5f8c63          	beq	x31,x5,41214160 <csr_access_stvec_supervisor_key_41_write>
    412140ac:	02800293          	li	x5,40
    412140b0:	0a5f8c63          	beq	x31,x5,41214168 <csr_access_stvec_supervisor_key_40_read>
    412140b4:	02d00293          	li	x5,45
    412140b8:	0a5f8c63          	beq	x31,x5,41214170 <csr_access_mtvec_machine_key_45_set>
    412140bc:	02c00293          	li	x5,44
    412140c0:	0a5f8c63          	beq	x31,x5,41214178 <csr_access_mtvec_machine_key_44_clear>
    412140c4:	0bc0006f          	j	41214180 <end_machine_label>

00000000412140c8 <csr_access_mstatus_machine_key_28_write>:
    412140c8:	30039073          	csrw	mstatus,x7
    412140cc:	0b40006f          	j	41214180 <end_machine_label>

00000000412140d0 <csr_access_mstatus_machine_key_1_read>:
    412140d0:	300023f3          	csrr	x7,mstatus
    412140d4:	0ac0006f          	j	41214180 <end_machine_label>

00000000412140d8 <csr_access_mstatus_machine_key_23_read>:
    412140d8:	300023f3          	csrr	x7,mstatus
    412140dc:	0a40006f          	j	41214180 <end_machine_label>

00000000412140e0 <csr_access_mstatus_machine_key_25_set>:
    412140e0:	3003a073          	csrs	mstatus,x7
    412140e4:	09c0006f          	j	41214180 <end_machine_label>

00000000412140e8 <csr_access_mstatus_machine_key_24_clear>:
    412140e8:	3003b073          	csrc	mstatus,x7
    412140ec:	0940006f          	j	41214180 <end_machine_label>

00000000412140f0 <csr_access_mvendorid_machine_key_2_write>:
    412140f0:	f1139073          	csrw	mvendorid,x7
    412140f4:	08c0006f          	j	41214180 <end_machine_label>

00000000412140f8 <csr_access_misa_machine_key_12_write>:
    412140f8:	30139073          	csrw	misa,x7
    412140fc:	0840006f          	j	41214180 <end_machine_label>

0000000041214100 <csr_access_misa_machine_key_3_read>:
    41214100:	301023f3          	csrr	x7,misa
    41214104:	07c0006f          	j	41214180 <end_machine_label>

0000000041214108 <csr_access_misa_machine_key_5_set>:
    41214108:	3013a073          	csrs	misa,x7
    4121410c:	0740006f          	j	41214180 <end_machine_label>

0000000041214110 <csr_access_misa_machine_key_4_clear>:
    41214110:	3013b073          	csrc	misa,x7
    41214114:	06c0006f          	j	41214180 <end_machine_label>

0000000041214118 <csr_access_fcsr_user_key_30_write>:
    41214118:	00339073          	fscsr	x7
    4121411c:	0640006f          	j	41214180 <end_machine_label>

0000000041214120 <csr_access_fcsr_user_key_29_read>:
    41214120:	003023f3          	frcsr	x7
    41214124:	05c0006f          	j	41214180 <end_machine_label>

0000000041214128 <csr_access_mcounteren_machine_key_35_write>:
    41214128:	30639073          	csrw	mcounteren,x7
    4121412c:	0540006f          	j	41214180 <end_machine_label>

0000000041214130 <csr_access_mcounteren_machine_key_36_write>:
    41214130:	30639073          	csrw	mcounteren,x7
    41214134:	04c0006f          	j	41214180 <end_machine_label>

0000000041214138 <csr_access_mcounteren_machine_key_34_read>:
    41214138:	306023f3          	csrr	x7,mcounteren
    4121413c:	0440006f          	j	41214180 <end_machine_label>

0000000041214140 <csr_access_mcounteren_machine_key_43_set>:
    41214140:	3063a073          	csrs	mcounteren,x7
    41214144:	03c0006f          	j	41214180 <end_machine_label>

0000000041214148 <csr_access_medeleg_machine_key_39_write>:
    41214148:	30239073          	csrw	medeleg,x7
    4121414c:	0340006f          	j	41214180 <end_machine_label>

0000000041214150 <csr_access_medeleg_machine_key_37_read>:
    41214150:	302023f3          	csrr	x7,medeleg
    41214154:	02c0006f          	j	41214180 <end_machine_label>

0000000041214158 <csr_access_medeleg_machine_key_38_set>:
    41214158:	3023a073          	csrs	medeleg,x7
    4121415c:	0240006f          	j	41214180 <end_machine_label>

0000000041214160 <csr_access_stvec_supervisor_key_41_write>:
    41214160:	10539073          	csrw	stvec,x7
    41214164:	01c0006f          	j	41214180 <end_machine_label>

0000000041214168 <csr_access_stvec_supervisor_key_40_read>:
    41214168:	105023f3          	csrr	x7,stvec
    4121416c:	0140006f          	j	41214180 <end_machine_label>

0000000041214170 <csr_access_mtvec_machine_key_45_set>:
    41214170:	3053a073          	csrs	mtvec,x7
    41214174:	00c0006f          	j	41214180 <end_machine_label>

0000000041214178 <csr_access_mtvec_machine_key_44_clear>:
    41214178:	3053b073          	csrc	mtvec,x7
    4121417c:	0040006f          	j	41214180 <end_machine_label>

0000000041214180 <end_machine_label>:
    41214180:	000f0fb7          	lui	x31,0xf0
    41214184:	001f8f9b          	addiw	x31,x31,1 # f0001 <pma_region_0_size+0xb0001>
    41214188:	00cf9f93          	slli	x31,x31,0xc
    4121418c:	004f8f93          	addi	x31,x31,4
    41214190:	00000073          	ecall

Disassembly of section .csr_super_0:

0000000041215000 <end_super_label-0x10>:
    41215000:	41232fb7          	lui	x31,0x41232
    41215004:	0b0f8f9b          	addiw	x31,x31,176 # 412320b0 <super_csr_jump_table_flags>
    41215008:	000fbf83          	ld	x31,0(x31)
    4121500c:	0040006f          	j	41215010 <end_super_label>

0000000041215010 <end_super_label>:
    41215010:	000f0fb7          	lui	x31,0xf0
    41215014:	001f8f9b          	addiw	x31,x31,1 # f0001 <pma_region_0_size+0xb0001>
    41215018:	00cf9f93          	slli	x31,x31,0xc
    4121501c:	004f8f93          	addi	x31,x31,4
    41215020:	00000073          	ecall

Disassembly of section .os_data:

0000000041232000 <passed_addr_ptr>:
    41232000:	4000                	.insn	2, 0x4000
    41232002:	4101                	.insn	2, 0x4101
    41232004:	0000                	.insn	2, 0x0000
	...

0000000041232008 <failed_addr_ptr>:
    41232008:	4010                	.insn	2, 0x4010
    4123200a:	4101                	.insn	2, 0x4101
    4123200c:	0000                	.insn	2, 0x0000
	...

0000000041232010 <end_test_addr_ptr>:
    41232010:	4020                	.insn	2, 0x4020
    41232012:	4101                	.insn	2, 0x4101
    41232014:	0000                	.insn	2, 0x0000
	...

0000000041232018 <os_passed_addr_ptr>:
    41232018:	0720                	.insn	2, 0x0720
    4123201a:	4100                	.insn	2, 0x4100
    4123201c:	0000                	.insn	2, 0x0000
	...

0000000041232020 <os_failed_addr_ptr>:
    41232020:	0730                	.insn	2, 0x0730
    41232022:	4100                	.insn	2, 0x4100
    41232024:	0000                	.insn	2, 0x0000
	...

0000000041232028 <os_end_test_addr_ptr>:
    41232028:	073c                	.insn	2, 0x073c
    4123202a:	4100                	.insn	2, 0x4100
    4123202c:	0000                	.insn	2, 0x0000
	...

0000000041232030 <rvcp_prefix_str_data>:
    41232030:	5652                	.insn	2, 0x5652
    41232032:	203a5043          	fmadd.s	f0,f20,f3,f4,unknown
    41232036:	6554                	.insn	2, 0x6554
    41232038:	46207473          	csrrci	x8,0x462,0
    4123203c:	6c69                	.insn	2, 0x6c69
    4123203e:	2065                	.insn	2, 0x2065
	...

0000000041232041 <rvcp_testname_str_data>:
    41232041:	7074                	.insn	2, 0x7074
    41232043:	655f 6378 7065      	.insn	6, 0x70656378655f
    41232049:	6974                	.insn	2, 0x6974
    4123204b:	5f736e6f          	jal	x28,41268e41 <current_test_index+0x30cb9>
    4123204f:	0031                	.insn	2, 0x0031

0000000041232051 <rvcp_passed_str_data>:
    41232051:	4150                	.insn	2, 0x4150
    41232053:	44455353          	fround.h	f6,f10,unknown
	...

0000000041232058 <rvcp_failed_str_data>:
    41232058:	4146                	.insn	2, 0x4146
    4123205a:	4c49                	.insn	2, 0x4c49
    4123205c:	4445                	.insn	2, 0x4445
	...

000000004123205f <rvcp_space_str_data>:
    4123205f:	0020                	.insn	2, 0x0020

0000000041232061 <rvcp_newline_str_data>:
    41232061:	000a                	.insn	2, 0x000a
    41232063:	0000                	.insn	2, 0x0000
    41232065:	0000                	.insn	2, 0x0000
	...

0000000041232068 <excp_ignored_count_mem>:
	...

0000000041232070 <machine_flags_mem>:
	...

0000000041232078 <user_flags_mem>:
	...

0000000041232080 <super_flags_mem>:
	...

0000000041232088 <machine_area_mem>:
	...

0000000041232090 <user_area_mem>:
	...

0000000041232098 <super_area_mem>:
	...

00000000412320a0 <zero_data_mem>:
	...

00000000412320a8 <machine_csr_jump_table_flags_mem>:
	...

00000000412320b0 <super_csr_jump_table_flags_mem>:
	...

00000000412320b8 <pte_access_flags_mem>:
	...

00000000412320d0 <num_harts_ended_mem>:
	...

00000000412320d8 <num_hard_fails_mem>:
	...

Disassembly of section .hart_context:

0000000041238000 <hart_context_0>:
    41238000:	5000                	.insn	2, 0x5000
    41238002:	00004123          	.insn	4, 0x4123
	...
    41238016:	0000                	.insn	2, 0x0000
    41238018:	0001                	.insn	2, 0x0001
    4123801a:	0000                	.insn	2, 0x0000
    4123801c:	0000                	.insn	2, 0x0000
    4123801e:	0000                	.insn	2, 0x0000
    41238020:	ffff                	.insn	2, 0xffff
    41238022:	ffff                	.insn	2, 0xffff
    41238024:	ffff                	.insn	2, 0xffff
    41238026:	ffff                	.insn	2, 0xffff
    41238028:	ffff                	.insn	2, 0xffff
    4123802a:	ffff                	.insn	2, 0xffff
    4123802c:	ffff                	.insn	2, 0xffff
    4123802e:	ffff                	.insn	2, 0xffff
    41238030:	ffff                	.insn	2, 0xffff
    41238032:	ffff                	.insn	2, 0xffff
    41238034:	ffff                	.insn	2, 0xffff
    41238036:	ffff                	.insn	2, 0xffff
	...
    41238050:	00ff 0000 0000 0000 	.insn	10, 0x00ff00000000000000ff
    41238058:	00ff 
	...
    41238176:	0000                	.insn	2, 0x0000
    41238178:	ffff                	.insn	2, 0xffff
    4123817a:	ffff                	.insn	2, 0xffff
    4123817c:	ffff                	.insn	2, 0xffff
    4123817e:	ffff                	.insn	2, 0xffff
	...
    41238188:	ffff                	.insn	2, 0xffff
    4123818a:	ffff                	.insn	2, 0xffff
	...

Disassembly of section .hart_stack_0:

0000000041234000 <hart_stack_0>:
	...

Disassembly of section .io_htif:

0000000041040000 <tohost>:
	...

0000000041040040 <fromhost>:
	...

Disassembly of section .tp_csr_storage:

0000000041228000 <.tp_csr_storage>:
    41228000:	c0de                	.insn	2, 0xc0de
    41228002:	c001                	.insn	2, 0xc001
    41228004:	0000                	.insn	2, 0x0000
	...

Disassembly of section .SID_EXCEP_04_SU_stack:

00000000426fc000 <.SID_EXCEP_04_SU_stack>:
    426fc000:	c0de                	.insn	2, 0xc0de
    426fc002:	c001                	.insn	2, 0xc001
    426fc004:	0000                	.insn	2, 0x0000
	...

Disassembly of section .SID_EXCEP_05_stack:

0000000043215000 <.SID_EXCEP_05_stack>:
    43215000:	c0de                	.insn	2, 0xc0de
    43215002:	c001                	.insn	2, 0xc001
    43215004:	0000                	.insn	2, 0x0000
	...

Disassembly of section .SID_EXCEP_06_stack:

0000000044a1c000 <.SID_EXCEP_06_stack>:
    44a1c000:	c0de                	.insn	2, 0xc0de
    44a1c002:	c001                	.insn	2, 0xc001
    44a1c004:	0000                	.insn	2, 0x0000
	...

Disassembly of section .SID_EXCEP_07_stack:

0000000041235000 <.SID_EXCEP_07_stack>:
    41235000:	c0de                	.insn	2, 0xc0de
    41235002:	c001                	.insn	2, 0xc001
    41235004:	0000                	.insn	2, 0x0000
	...

Disassembly of section .SID_EXCEP_08_stack:

0000000041231000 <.SID_EXCEP_08_stack>:
    41231000:	c0de                	.insn	2, 0xc0de
    41231002:	c001                	.insn	2, 0xc001
    41231004:	0000                	.insn	2, 0x0000
	...

Disassembly of section .SID_EXCEP_10_stack:

0000000042bb8000 <.SID_EXCEP_10_stack>:
    42bb8000:	c0de                	.insn	2, 0xc0de
    42bb8002:	c001                	.insn	2, 0xc001
    42bb8004:	0000                	.insn	2, 0x0000
	...

Disassembly of section .SID_EXCEP_12_stack:

00000000430f1000 <.SID_EXCEP_12_stack>:
    430f1000:	c0de                	.insn	2, 0xc0de
    430f1002:	c001                	.insn	2, 0xc001
    430f1004:	0000                	.insn	2, 0x0000
	...

Disassembly of section .SID_EXCEP_15_S_stack:

000000004121b000 <.SID_EXCEP_15_S_stack>:
    4121b000:	c0de                	.insn	2, 0xc0de
    4121b002:	c001                	.insn	2, 0xc001
    4121b004:	0000                	.insn	2, 0x0000
	...

Disassembly of section .SID_EXCEP_16_stack:

000000004312a000 <.SID_EXCEP_16_stack>:
    4312a000:	c0de                	.insn	2, 0xc0de
    4312a002:	c001                	.insn	2, 0xc001
    4312a004:	0000                	.insn	2, 0x0000
	...

Disassembly of section .SID_EXCEP_17_stack:

000000004298a000 <.SID_EXCEP_17_stack>:
    4298a000:	c0de                	.insn	2, 0xc0de
    4298a002:	c001                	.insn	2, 0xc001
    4298a004:	0000                	.insn	2, 0x0000
	...

Disassembly of section .SID_EXCEP_32_S_stack:

0000000044e69000 <.SID_EXCEP_32_S_stack>:
    44e69000:	c0de                	.insn	2, 0xc0de
    44e69002:	c001                	.insn	2, 0xc001
    44e69004:	0000                	.insn	2, 0x0000
	...

Disassembly of section .SID_EXCEP_33_S_stack:

0000000041223000 <.SID_EXCEP_33_S_stack>:
    41223000:	c0de                	.insn	2, 0xc0de
    41223002:	c001                	.insn	2, 0xc001
    41223004:	0000                	.insn	2, 0x0000
	...

Disassembly of section .SID_EXCEP_35_stack:

0000000042a1f000 <.SID_EXCEP_35_stack>:
    42a1f000:	c0de                	.insn	2, 0xc0de
    42a1f002:	c001                	.insn	2, 0xc001
    42a1f004:	0000                	.insn	2, 0x0000
	...

Disassembly of section .SID_EXCEP_37_stack:

0000000041224000 <.SID_EXCEP_37_stack>:
    41224000:	c0de                	.insn	2, 0xc0de
    41224002:	c001                	.insn	2, 0xc001
    41224004:	0000                	.insn	2, 0x0000
	...

Disassembly of section .SID_EXCEP_38_stack:

000000004187e000 <.SID_EXCEP_38_stack>:
    4187e000:	c0de                	.insn	2, 0xc0de
    4187e002:	c001                	.insn	2, 0xc001
    4187e004:	0000                	.insn	2, 0x0000
	...
