
/home/abdullah/RiescueC/riescue/10x_R/hypervisor_exceptions/testsuite/hypervisor_exceptions/virtualized/user_sv57_gdisable/tp_hypervisor_exceptions_2:     file format elf64-littleriscv


Disassembly of section .runtime:

0000000041000000 <_start>:
    41000000:	00000093          	li	x1,0
    41000004:	00000113          	li	x2,0
    41000008:	00000193          	li	x3,0
    4100000c:	00000213          	li	x4,0
    41000010:	00000293          	li	x5,0
    41000014:	00000313          	li	x6,0
    41000018:	00000393          	li	x7,0
    4100001c:	00000413          	li	x8,0
    41000020:	00000493          	li	x9,0
    41000024:	00000513          	li	x10,0
    41000028:	00000593          	li	x11,0
    4100002c:	00000613          	li	x12,0
    41000030:	00000693          	li	x13,0
    41000034:	00000713          	li	x14,0
    41000038:	00000793          	li	x15,0
    4100003c:	00000813          	li	x16,0
    41000040:	00000893          	li	x17,0
    41000044:	00000913          	li	x18,0
    41000048:	00000993          	li	x19,0
    4100004c:	00000a13          	li	x20,0
    41000050:	00000a93          	li	x21,0
    41000054:	00000b13          	li	x22,0
    41000058:	00000b93          	li	x23,0
    4100005c:	00000c13          	li	x24,0
    41000060:	00000c93          	li	x25,0
    41000064:	00000d13          	li	x26,0
    41000068:	00000d93          	li	x27,0
    4100006c:	00000e13          	li	x28,0
    41000070:	00000e93          	li	x29,0
    41000074:	00000f13          	li	x30,0
    41000078:	00000f93          	li	x31,0

000000004100007c <loader__load_panic_address>:
    4100007c:	00001297          	auipc	x5,0x1
    41000080:	a8028293          	addi	x5,x5,-1408 # 41000afc <eot__failed>
    41000084:	30529073          	csrw	mtvec,x5

0000000041000088 <loader__initialize_runtime>:
    41000088:	00000293          	li	x5,0
    4100008c:	3012a2f3          	csrrs	x5,misa,x5

0000000041000090 <loader__set_mstatus>:
    41000090:	000402b7          	lui	x5,0x40
    41000094:	00a2829b          	addiw	x5,x5,10 # 4000a <pma_region_0_size+0xa>
    41000098:	3002a2f3          	csrrs	x5,mstatus,x5
    4100009c:	4309c237          	lui	x4,0x4309c
    410000a0:	34021073          	csrw	mscratch,x4
    410000a4:	40a44237          	lui	x4,0x40a44
    410000a8:	24021073          	csrw	vsscratch,x4
    410000ac:	4309c237          	lui	x4,0x4309c

00000000410000b0 <loader__setup_menvcfg>:
    410000b0:	00000297          	auipc	x5,0x0
    410000b4:	53828293          	addi	x5,x5,1336 # 410005e8 <trap_handler_m__trap_entry>
    410000b8:	30529073          	csrw	mtvec,x5

00000000410000bc <setup_vmm>:
    410000bc:	00000013          	nop

00000000410000c0 <setup_hedeleg>:
    410000c0:	ff5cd2b7          	lui	x5,0xff5cd
    410000c4:	c4d2829b          	addiw	x5,x5,-947 # ffffffffff5ccc4d <SID_HEXCEP_06_stack+0x42871f89bfc4d>
    410000c8:	00d29293          	slli	x5,x5,0xd
    410000cc:	d6528293          	addi	x5,x5,-667
    410000d0:	00c29293          	slli	x5,x5,0xc
    410000d4:	32728293          	addi	x5,x5,807
    410000d8:	00e29293          	slli	x5,x5,0xe
    410000dc:	05028293          	addi	x5,x5,80
    410000e0:	60229073          	csrw	hedeleg,x5

00000000410000e4 <setup_hideleg>:
    410000e4:	fff00293          	li	x5,-1
    410000e8:	60329073          	csrw	hideleg,x5

00000000410000ec <setup_henvcfg>:
    410000ec:	00000293          	li	x5,0
    410000f0:	60a29073          	csrw	henvcfg,x5
    410000f4:	00011297          	auipc	x5,0x11
    410000f8:	32c28293          	addi	x5,x5,812 # 41011420 <trap_handler_hs__trap_handler>
    410000fc:	10529073          	csrw	stvec,x5
    41000100:	e8b0029b          	addiw	x5,x0,-373
    41000104:	02829293          	slli	x5,x5,0x28
    41000108:	01128293          	addi	x5,x5,17
    4100010c:	00e29293          	slli	x5,x5,0xe
    41000110:	4c628293          	addi	x5,x5,1222
    41000114:	28029073          	csrw	vsatp,x5
    41000118:	200022f3          	csrr	x5,vsstatus
    4100011c:	00042337          	lui	x6,0x42
    41000120:	2003031b          	addiw	x6,x6,512 # 42200 <pma_region_0_size+0x2200>
    41000124:	0062e2b3          	or	x5,x5,x6
    41000128:	20029073          	csrw	vsstatus,x5

000000004100012c <loader__enable_paging>:
    4100012c:	fffa00b7          	lui	x1,0xfffa0
    41000130:	1730809b          	addiw	x1,x1,371 # fffffffffffa0173 <SID_HEXCEP_06_stack+0x42871f9393173>
    41000134:	01e09093          	slli	x1,x1,0x1e
    41000138:	01108093          	addi	x1,x1,17
    4100013c:	00e09093          	slli	x1,x1,0xe
    41000140:	4c608093          	addi	x1,x1,1222
    41000144:	18009073          	csrw	satp,x1

0000000041000148 <loader__done>:
    41000148:	1dd0006f          	j	41000b24 <scheduler__init>

000000004100014c <loader__panic>:
    4100014c:	1b10006f          	j	41000afc <eot__failed>

0000000041000150 <syscalls__syscall_check_schedule_next_test>:
    41000150:	00f0029b          	addiw	x5,x0,15
    41000154:	01c29293          	slli	x5,x5,0x1c
    41000158:	00128293          	addi	x5,x5,1
    4100015c:	01f29a63          	bne	x5,x31,41000170 <syscalls__syscall_check_fail_test>
    41000160:	00000317          	auipc	x6,0x0
    41000164:	48830313          	addi	x6,x6,1160 # 410005e8 <trap_handler_m__trap_entry>
    41000168:	30531073          	csrw	mtvec,x6
    4100016c:	6c00006f          	j	4100082c <enter_scheduler>

0000000041000170 <syscalls__syscall_check_fail_test>:
    41000170:	00f0029b          	addiw	x5,x0,15
    41000174:	01c29293          	slli	x5,x5,0x1c
    41000178:	00228293          	addi	x5,x5,2
    4100017c:	01f29a63          	bne	x5,x31,41000190 <syscalls__syscall_check_end_test_without_failure>
    41000180:	00000317          	auipc	x6,0x0
    41000184:	46830313          	addi	x6,x6,1128 # 410005e8 <trap_handler_m__trap_entry>
    41000188:	30531073          	csrw	mtvec,x6
    4100018c:	6d00006f          	j	4100085c <test_failed>

0000000041000190 <syscalls__syscall_check_end_test_without_failure>:
    41000190:	00f0029b          	addiw	x5,x0,15
    41000194:	01c29293          	slli	x5,x5,0x1c
    41000198:	00328293          	addi	x5,x5,3
    4100019c:	01f29a63          	bne	x5,x31,410001b0 <syscalls__syscall_check_switch_machine_mode>
    410001a0:	00000317          	auipc	x6,0x0
    410001a4:	44830313          	addi	x6,x6,1096 # 410005e8 <trap_handler_m__trap_entry>
    410001a8:	30531073          	csrw	mtvec,x6
    410001ac:	6bc0006f          	j	41000868 <os_end_test>

00000000410001b0 <syscalls__syscall_check_switch_machine_mode>:
    410001b0:	000f02b7          	lui	x5,0xf0
    410001b4:	0012829b          	addiw	x5,x5,1 # f0001 <SID_HEXCEP_09_hinval_vvma_vu_stack+0x25001>
    410001b8:	00c29293          	slli	x5,x5,0xc
    410001bc:	00128293          	addi	x5,x5,1
    410001c0:	0a5f8463          	beq	x31,x5,41000268 <syscalls__os_fn_f0001001>

00000000410001c4 <syscalls__syscall_check_switch_super_mode>:
    410001c4:	000f02b7          	lui	x5,0xf0
    410001c8:	0012829b          	addiw	x5,x5,1 # f0001 <SID_HEXCEP_09_hinval_vvma_vu_stack+0x25001>
    410001cc:	00c29293          	slli	x5,x5,0xc
    410001d0:	00228293          	addi	x5,x5,2
    410001d4:	0c5f8063          	beq	x31,x5,41000294 <syscalls__os_fn_f0001002>

00000000410001d8 <syscalls__syscall_check_switch_user_mode>:
    410001d8:	000f02b7          	lui	x5,0xf0
    410001dc:	0012829b          	addiw	x5,x5,1 # f0001 <SID_HEXCEP_09_hinval_vvma_vu_stack+0x25001>
    410001e0:	00c29293          	slli	x5,x5,0xc
    410001e4:	00328293          	addi	x5,x5,3
    410001e8:	0c5f8e63          	beq	x31,x5,410002c4 <syscalls__os_fn_f0001003>

00000000410001ec <syscalls__syscall_check_switch_test_mode>:
    410001ec:	000f02b7          	lui	x5,0xf0
    410001f0:	0012829b          	addiw	x5,x5,1 # f0001 <SID_HEXCEP_09_hinval_vvma_vu_stack+0x25001>
    410001f4:	00c29293          	slli	x5,x5,0xc
    410001f8:	00428293          	addi	x5,x5,4
    410001fc:	0e5f8863          	beq	x31,x5,410002ec <syscalls__os_fn_f0001004>

0000000041000200 <syscalls__syscall_machine_csr_rw>:
    41000200:	000f02b7          	lui	x5,0xf0
    41000204:	0012829b          	addiw	x5,x5,1 # f0001 <SID_HEXCEP_09_hinval_vvma_vu_stack+0x25001>
    41000208:	00c29293          	slli	x5,x5,0xc
    4100020c:	00528293          	addi	x5,x5,5
    41000210:	105f8263          	beq	x31,x5,41000314 <syscalls__os_fn_f0001005>

0000000041000214 <syscalls__syscall_supervisor_csr_rw>:
    41000214:	000f02b7          	lui	x5,0xf0
    41000218:	0012829b          	addiw	x5,x5,1 # f0001 <SID_HEXCEP_09_hinval_vvma_vu_stack+0x25001>
    4100021c:	00c29293          	slli	x5,x5,0xc
    41000220:	00628293          	addi	x5,x5,6
    41000224:	105f8e63          	beq	x31,x5,41000340 <syscalls__os_fn_f0001006>

0000000041000228 <syscalls__syscall_machine_pte_read>:
    41000228:	000f02b7          	lui	x5,0xf0
    4100022c:	0012829b          	addiw	x5,x5,1 # f0001 <SID_HEXCEP_09_hinval_vvma_vu_stack+0x25001>
    41000230:	00c29293          	slli	x5,x5,0xc
    41000234:	00728293          	addi	x5,x5,7
    41000238:	125f8c63          	beq	x31,x5,41000370 <syscalls__os_fn_f0001007>

000000004100023c <syscalls__syscall_machine_pte_write>:
    4100023c:	000f02b7          	lui	x5,0xf0
    41000240:	0012829b          	addiw	x5,x5,1 # f0001 <SID_HEXCEP_09_hinval_vvma_vu_stack+0x25001>
    41000244:	00c29293          	slli	x5,x5,0xc
    41000248:	00828293          	addi	x5,x5,8
    4100024c:	205f8863          	beq	x31,x5,4100045c <syscalls__os_fn_f0001008>

0000000041000250 <syscalls__syscall_check_get_hart_context>:
    41000250:	000782b7          	lui	x5,0x78
    41000254:	0012829b          	addiw	x5,x5,1 # 78001 <tp_csr_storage+0xc001>
    41000258:	00d29293          	slli	x5,x5,0xd
    4100025c:	00128293          	addi	x5,x5,1
    41000260:	2e5f8463          	beq	x31,x5,41000548 <syscalls__os_get_hart_context>
    41000264:	4e00006f          	j	41000744 <trap_handler_m__check_exception_label>

0000000041000268 <syscalls__os_fn_f0001001>:
    41000268:	000022b7          	lui	x5,0x2
    4100026c:	8002829b          	addiw	x5,x5,-2048 # 1800 <pma_region_1_size+0x800>
    41000270:	3002b073          	csrc	mstatus,x5
    41000274:	000022b7          	lui	x5,0x2
    41000278:	8002829b          	addiw	x5,x5,-2048 # 1800 <pma_region_1_size+0x800>
    4100027c:	3002a073          	csrs	mstatus,x5
    41000280:	0010029b          	addiw	x5,x0,1
    41000284:	02729293          	slli	x5,x5,0x27
    41000288:	3002b073          	csrc	mstatus,x5
    4100028c:	411952b7          	lui	x5,0x41195
    41000290:	2c80006f          	j	41000558 <syscalls__ret_from_os_fn>

0000000041000294 <syscalls__os_fn_f0001002>:
    41000294:	000022b7          	lui	x5,0x2
    41000298:	8002829b          	addiw	x5,x5,-2048 # 1800 <pma_region_1_size+0x800>
    4100029c:	3002b073          	csrc	mstatus,x5
    410002a0:	000012b7          	lui	x5,0x1
    410002a4:	8002829b          	addiw	x5,x5,-2048 # 800 <XLEN+0x7c0>
    410002a8:	3002a073          	csrs	mstatus,x5
    410002ac:	0010029b          	addiw	x5,x0,1
    410002b0:	02729293          	slli	x5,x5,0x27
    410002b4:	3002b073          	csrc	mstatus,x5
    410002b8:	12000073          	sfence.vma
    410002bc:	410952b7          	lui	x5,0x41095
    410002c0:	2980006f          	j	41000558 <syscalls__ret_from_os_fn>

00000000410002c4 <syscalls__os_fn_f0001003>:
    410002c4:	000022b7          	lui	x5,0x2
    410002c8:	8002829b          	addiw	x5,x5,-2048 # 1800 <pma_region_1_size+0x800>
    410002cc:	3002b073          	csrc	mstatus,x5
    410002d0:	00000293          	li	x5,0
    410002d4:	3002a073          	csrs	mstatus,x5
    410002d8:	0010029b          	addiw	x5,x0,1
    410002dc:	02729293          	slli	x5,x5,0x27
    410002e0:	3002b073          	csrc	mstatus,x5
    410002e4:	411152b7          	lui	x5,0x41115
    410002e8:	2700006f          	j	41000558 <syscalls__ret_from_os_fn>

00000000410002ec <syscalls__os_fn_f0001004>:
    410002ec:	000022b7          	lui	x5,0x2
    410002f0:	8002829b          	addiw	x5,x5,-2048 # 1800 <pma_region_1_size+0x800>
    410002f4:	3002b073          	csrc	mstatus,x5
    410002f8:	00000293          	li	x5,0
    410002fc:	3002a073          	csrs	mstatus,x5
    41000300:	0010029b          	addiw	x5,x0,1
    41000304:	02729293          	slli	x5,x5,0x27
    41000308:	3002a073          	csrs	mstatus,x5
    4100030c:	17823283          	ld	x5,376(x4) # 4309c178 <__section_hart_context+0x178>
    41000310:	2480006f          	j	41000558 <syscalls__ret_from_os_fn>

0000000041000314 <syscalls__os_fn_f0001005>:
    41000314:	000022b7          	lui	x5,0x2
    41000318:	8002829b          	addiw	x5,x5,-2048 # 1800 <pma_region_1_size+0x800>
    4100031c:	3002b073          	csrc	mstatus,x5
    41000320:	000022b7          	lui	x5,0x2
    41000324:	8002829b          	addiw	x5,x5,-2048 # 1800 <pma_region_1_size+0x800>
    41000328:	3002a073          	csrs	mstatus,x5
    4100032c:	0010029b          	addiw	x5,x0,1
    41000330:	02729293          	slli	x5,x5,0x27
    41000334:	3002b073          	csrc	mstatus,x5
    41000338:	412152b7          	lui	x5,0x41215
    4100033c:	21c0006f          	j	41000558 <syscalls__ret_from_os_fn>

0000000041000340 <syscalls__os_fn_f0001006>:
    41000340:	000022b7          	lui	x5,0x2
    41000344:	8002829b          	addiw	x5,x5,-2048 # 1800 <pma_region_1_size+0x800>
    41000348:	3002b073          	csrc	mstatus,x5
    4100034c:	000012b7          	lui	x5,0x1
    41000350:	8002829b          	addiw	x5,x5,-2048 # 800 <XLEN+0x7c0>
    41000354:	3002a073          	csrs	mstatus,x5
    41000358:	0010029b          	addiw	x5,x0,1
    4100035c:	02729293          	slli	x5,x5,0x27
    41000360:	3002b073          	csrc	mstatus,x5
    41000364:	12000073          	sfence.vma
    41000368:	412162b7          	lui	x5,0x41216
    4100036c:	1ec0006f          	j	41000558 <syscalls__ret_from_os_fn>

0000000041000370 <syscalls__os_fn_f0001007>:
    41000370:	4296afb7          	lui	x31,0x4296a
    41000374:	0c0f8f9b          	addiw	x31,x31,192 # 4296a0c0 <pte_access_flags_pa>
    41000378:	000fbf83          	ld	x31,0(x31)
    4100037c:	4296a2b7          	lui	x5,0x4296a
    41000380:	0c82829b          	addiw	x5,x5,200 # 4296a0c8 <pte_access_flags_pa+0x8>
    41000384:	0002b283          	ld	x5,0(x5)
    41000388:	4296ae37          	lui	x28,0x4296a
    4100038c:	0d0e0e1b          	addiw	x28,x28,208 # 4296a0d0 <pte_access_flags_pa+0x10>
    41000390:	000e3e03          	ld	x28,0(x28)

0000000041000394 <syscalls__pte_walk_check_glevel_without_gstage_read>:
    41000394:	fff00f93          	li	x31,-1
    41000398:	0dfe1063          	bne	x28,x31,41000458 <syscalls__pte_walk_fail_read>
    4100039c:	18002373          	csrr	x6,satp
    410003a0:	03c35e93          	srli	x29,x6,0x3c
    410003a4:	01431313          	slli	x6,x6,0x14
    410003a8:	01435313          	srli	x6,x6,0x14
    410003ac:	00c31313          	slli	x6,x6,0xc
    410003b0:	ff8e8e93          	addi	x29,x29,-8
    410003b4:	003e9f13          	slli	x30,x29,0x3
    410003b8:	01df0eb3          	add	x29,x30,x29
    410003bc:	01ee8e93          	addi	x29,x29,30
    410003c0:	00000f13          	li	x30,0

00000000410003c4 <syscalls__pte_walk_loop_read>:
    410003c4:	4296afb7          	lui	x31,0x4296a
    410003c8:	0c0f8f9b          	addiw	x31,x31,192 # 4296a0c0 <pte_access_flags_pa>
    410003cc:	000fbf83          	ld	x31,0(x31)
    410003d0:	01dfdfb3          	srl	x31,x31,x29
    410003d4:	1fffff93          	andi	x31,x31,511
    410003d8:	003f9f93          	slli	x31,x31,0x3
    410003dc:	01f30333          	add	x6,x6,x31
    410003e0:	005f0e63          	beq	x30,x5,410003fc <syscalls__pte_walk_done_read>
    410003e4:	00033f83          	ld	x31,0(x6)
    410003e8:	00afdf93          	srli	x31,x31,0xa
    410003ec:	00cf9313          	slli	x6,x31,0xc
    410003f0:	001f0f13          	addi	x30,x30,1
    410003f4:	ff7e8e93          	addi	x29,x29,-9
    410003f8:	fcdff06f          	j	410003c4 <syscalls__pte_walk_loop_read>

00000000410003fc <syscalls__pte_walk_done_read>:
    410003fc:	fff00f93          	li	x31,-1
    41000400:	05fe0263          	beq	x28,x31,41000444 <syscalls__pte_walk_final_read>

0000000041000404 <syscalls__pte_walk_gstage_read>:
    41000404:	4296afb7          	lui	x31,0x4296a
    41000408:	0c0f8f9b          	addiw	x31,x31,192 # 4296a0c0 <pte_access_flags_pa>
    4100040c:	006fb023          	sd	x6,0(x31)
    41000410:	000e0293          	mv	x5,x28
    41000414:	fff00e13          	li	x28,-1
    41000418:	68002373          	csrr	x6,hgatp
    4100041c:	03c35e93          	srli	x29,x6,0x3c
    41000420:	01431313          	slli	x6,x6,0x14
    41000424:	01435313          	srli	x6,x6,0x14
    41000428:	00c31313          	slli	x6,x6,0xc
    4100042c:	ff8e8e93          	addi	x29,x29,-8
    41000430:	003e9f13          	slli	x30,x29,0x3
    41000434:	01df0eb3          	add	x29,x30,x29
    41000438:	01ee8e93          	addi	x29,x29,30
    4100043c:	00000f13          	li	x30,0
    41000440:	f85ff06f          	j	410003c4 <syscalls__pte_walk_loop_read>

0000000041000444 <syscalls__pte_walk_final_read>:
    41000444:	00033383          	ld	x7,0(x6)
    41000448:	341022f3          	csrr	x5,mepc
    4100044c:	00428293          	addi	x5,x5,4
    41000450:	16523c23          	sd	x5,376(x4) # 178 <XLEN+0x138>
    41000454:	e99ff06f          	j	410002ec <syscalls__os_fn_f0001004>

0000000041000458 <syscalls__pte_walk_fail_read>:
    41000458:	4040006f          	j	4100085c <test_failed>

000000004100045c <syscalls__os_fn_f0001008>:
    4100045c:	4296afb7          	lui	x31,0x4296a
    41000460:	0c0f8f9b          	addiw	x31,x31,192 # 4296a0c0 <pte_access_flags_pa>
    41000464:	000fbf83          	ld	x31,0(x31)
    41000468:	4296a2b7          	lui	x5,0x4296a
    4100046c:	0c82829b          	addiw	x5,x5,200 # 4296a0c8 <pte_access_flags_pa+0x8>
    41000470:	0002b283          	ld	x5,0(x5)
    41000474:	4296ae37          	lui	x28,0x4296a
    41000478:	0d0e0e1b          	addiw	x28,x28,208 # 4296a0d0 <pte_access_flags_pa+0x10>
    4100047c:	000e3e03          	ld	x28,0(x28)

0000000041000480 <syscalls__pte_walk_check_glevel_without_gstage_write>:
    41000480:	fff00f93          	li	x31,-1
    41000484:	0dfe1063          	bne	x28,x31,41000544 <syscalls__pte_walk_fail_write>
    41000488:	18002373          	csrr	x6,satp
    4100048c:	03c35e93          	srli	x29,x6,0x3c
    41000490:	01431313          	slli	x6,x6,0x14
    41000494:	01435313          	srli	x6,x6,0x14
    41000498:	00c31313          	slli	x6,x6,0xc
    4100049c:	ff8e8e93          	addi	x29,x29,-8
    410004a0:	003e9f13          	slli	x30,x29,0x3
    410004a4:	01df0eb3          	add	x29,x30,x29
    410004a8:	01ee8e93          	addi	x29,x29,30
    410004ac:	00000f13          	li	x30,0

00000000410004b0 <syscalls__pte_walk_loop_write>:
    410004b0:	4296afb7          	lui	x31,0x4296a
    410004b4:	0c0f8f9b          	addiw	x31,x31,192 # 4296a0c0 <pte_access_flags_pa>
    410004b8:	000fbf83          	ld	x31,0(x31)
    410004bc:	01dfdfb3          	srl	x31,x31,x29
    410004c0:	1fffff93          	andi	x31,x31,511
    410004c4:	003f9f93          	slli	x31,x31,0x3
    410004c8:	01f30333          	add	x6,x6,x31
    410004cc:	005f0e63          	beq	x30,x5,410004e8 <syscalls__pte_walk_done_write>
    410004d0:	00033f83          	ld	x31,0(x6)
    410004d4:	00afdf93          	srli	x31,x31,0xa
    410004d8:	00cf9313          	slli	x6,x31,0xc
    410004dc:	001f0f13          	addi	x30,x30,1
    410004e0:	ff7e8e93          	addi	x29,x29,-9
    410004e4:	fcdff06f          	j	410004b0 <syscalls__pte_walk_loop_write>

00000000410004e8 <syscalls__pte_walk_done_write>:
    410004e8:	fff00f93          	li	x31,-1
    410004ec:	05fe0263          	beq	x28,x31,41000530 <syscalls__pte_walk_final_write>

00000000410004f0 <syscalls__pte_walk_gstage_write>:
    410004f0:	4296afb7          	lui	x31,0x4296a
    410004f4:	0c0f8f9b          	addiw	x31,x31,192 # 4296a0c0 <pte_access_flags_pa>
    410004f8:	006fb023          	sd	x6,0(x31)
    410004fc:	000e0293          	mv	x5,x28
    41000500:	fff00e13          	li	x28,-1
    41000504:	68002373          	csrr	x6,hgatp
    41000508:	03c35e93          	srli	x29,x6,0x3c
    4100050c:	01431313          	slli	x6,x6,0x14
    41000510:	01435313          	srli	x6,x6,0x14
    41000514:	00c31313          	slli	x6,x6,0xc
    41000518:	ff8e8e93          	addi	x29,x29,-8
    4100051c:	003e9f13          	slli	x30,x29,0x3
    41000520:	01df0eb3          	add	x29,x30,x29
    41000524:	01ee8e93          	addi	x29,x29,30
    41000528:	00000f13          	li	x30,0
    4100052c:	f85ff06f          	j	410004b0 <syscalls__pte_walk_loop_write>

0000000041000530 <syscalls__pte_walk_final_write>:
    41000530:	00733023          	sd	x7,0(x6)
    41000534:	341022f3          	csrr	x5,mepc
    41000538:	00428293          	addi	x5,x5,4
    4100053c:	16523c23          	sd	x5,376(x4) # 178 <XLEN+0x138>
    41000540:	dadff06f          	j	410002ec <syscalls__os_fn_f0001004>

0000000041000544 <syscalls__pte_walk_fail_write>:
    41000544:	3180006f          	j	4100085c <test_failed>

0000000041000548 <syscalls__os_get_hart_context>:
    41000548:	14002573          	csrr	x10,sscratch
    4100054c:	341022f3          	csrr	x5,mepc
    41000550:	00428293          	addi	x5,x5,4
    41000554:	0040006f          	j	41000558 <syscalls__ret_from_os_fn>

0000000041000558 <syscalls__ret_from_os_fn>:
    41000558:	34102373          	csrr	x6,mepc
    4100055c:	00430313          	addi	x6,x6,4
    41000560:	16623c23          	sd	x6,376(x4) # 178 <XLEN+0x138>
    41000564:	34129073          	csrw	mepc,x5
    41000568:	fff00f93          	li	x31,-1
    4100056c:	2a40006f          	j	41000810 <trap_handler_m__skip_xepc_write>

0000000041000570 <trap_handler_m__invalid_interrupt>:
    41000570:	2ec0006f          	j	4100085c <test_failed>

0000000041000574 <trap_handler_m__clear_all_interrupts>:
    41000574:	34401073          	csrw	mip,x0
    41000578:	30200073          	mret

000000004100057c <trap_handler_m___CLEAR_SSI>:
    4100057c:	00200293          	li	x5,2
    41000580:	3442b073          	csrc	mip,x5
    41000584:	30200073          	mret

0000000041000588 <trap_handler_m___CLEAR_MSI>:
    41000588:	00800293          	li	x5,8
    4100058c:	3442b073          	csrc	mip,x5
    41000590:	30200073          	mret

0000000041000594 <trap_handler_m___CLEAR_STI>:
    41000594:	02000293          	li	x5,32
    41000598:	3442b073          	csrc	mip,x5
    4100059c:	30200073          	mret

00000000410005a0 <trap_handler_m___CLEAR_MTI>:
    410005a0:	08000293          	li	x5,128
    410005a4:	3442b073          	csrc	mip,x5
    410005a8:	30200073          	mret

00000000410005ac <trap_handler_m___CLEAR_SEI>:
    410005ac:	20000293          	li	x5,512
    410005b0:	3442b073          	csrc	mip,x5
    410005b4:	30200073          	mret

00000000410005b8 <trap_handler_m___CLEAR_MEI>:
    410005b8:	000012b7          	lui	x5,0x1
    410005bc:	8002829b          	addiw	x5,x5,-2048 # 800 <XLEN+0x7c0>
    410005c0:	3442b073          	csrc	mip,x5
    410005c4:	30200073          	mret

00000000410005c8 <trap_handler_m___CLEAR_COI>:
    410005c8:	000022b7          	lui	x5,0x2
    410005cc:	3442b073          	csrc	mip,x5
    410005d0:	30200073          	mret

00000000410005d4 <trap_handler_m__clear_highest_priority_interrupt>:
    410005d4:	344022f3          	csrr	x5,mip
    410005d8:	40500333          	neg	x6,x5
    410005dc:	0062f2b3          	and	x5,x5,x6
    410005e0:	3442b073          	csrc	mip,x5
    410005e4:	30200073          	mret

00000000410005e8 <trap_handler_m__trap_entry>:
    410005e8:	0fc0006f          	j	410006e4 <trap_handler_m__trap_handler>

00000000410005ec <trap_handler_m__interrupt_vector_table>:
    410005ec:	f91ff06f          	j	4100057c <trap_handler_m___CLEAR_SSI>
    410005f0:	f81ff06f          	j	41000570 <trap_handler_m__invalid_interrupt>
    410005f4:	f95ff06f          	j	41000588 <trap_handler_m___CLEAR_MSI>
    410005f8:	f79ff06f          	j	41000570 <trap_handler_m__invalid_interrupt>
    410005fc:	f99ff06f          	j	41000594 <trap_handler_m___CLEAR_STI>
    41000600:	f71ff06f          	j	41000570 <trap_handler_m__invalid_interrupt>
    41000604:	f9dff06f          	j	410005a0 <trap_handler_m___CLEAR_MTI>
    41000608:	f69ff06f          	j	41000570 <trap_handler_m__invalid_interrupt>
    4100060c:	fa1ff06f          	j	410005ac <trap_handler_m___CLEAR_SEI>
    41000610:	f61ff06f          	j	41000570 <trap_handler_m__invalid_interrupt>
    41000614:	fa5ff06f          	j	410005b8 <trap_handler_m___CLEAR_MEI>
    41000618:	f59ff06f          	j	41000570 <trap_handler_m__invalid_interrupt>
    4100061c:	fadff06f          	j	410005c8 <trap_handler_m___CLEAR_COI>
    41000620:	f51ff06f          	j	41000570 <trap_handler_m__invalid_interrupt>
    41000624:	f4dff06f          	j	41000570 <trap_handler_m__invalid_interrupt>
    41000628:	fadff06f          	j	410005d4 <trap_handler_m__clear_highest_priority_interrupt>
    4100062c:	fa9ff06f          	j	410005d4 <trap_handler_m__clear_highest_priority_interrupt>
    41000630:	fa5ff06f          	j	410005d4 <trap_handler_m__clear_highest_priority_interrupt>
    41000634:	fa1ff06f          	j	410005d4 <trap_handler_m__clear_highest_priority_interrupt>
    41000638:	f9dff06f          	j	410005d4 <trap_handler_m__clear_highest_priority_interrupt>
    4100063c:	f99ff06f          	j	410005d4 <trap_handler_m__clear_highest_priority_interrupt>
    41000640:	f95ff06f          	j	410005d4 <trap_handler_m__clear_highest_priority_interrupt>
    41000644:	f91ff06f          	j	410005d4 <trap_handler_m__clear_highest_priority_interrupt>
    41000648:	f8dff06f          	j	410005d4 <trap_handler_m__clear_highest_priority_interrupt>
    4100064c:	f89ff06f          	j	410005d4 <trap_handler_m__clear_highest_priority_interrupt>
    41000650:	f85ff06f          	j	410005d4 <trap_handler_m__clear_highest_priority_interrupt>
    41000654:	f81ff06f          	j	410005d4 <trap_handler_m__clear_highest_priority_interrupt>
    41000658:	f7dff06f          	j	410005d4 <trap_handler_m__clear_highest_priority_interrupt>
    4100065c:	f79ff06f          	j	410005d4 <trap_handler_m__clear_highest_priority_interrupt>
    41000660:	f75ff06f          	j	410005d4 <trap_handler_m__clear_highest_priority_interrupt>
    41000664:	f71ff06f          	j	410005d4 <trap_handler_m__clear_highest_priority_interrupt>
    41000668:	f6dff06f          	j	410005d4 <trap_handler_m__clear_highest_priority_interrupt>
    4100066c:	f69ff06f          	j	410005d4 <trap_handler_m__clear_highest_priority_interrupt>
    41000670:	f65ff06f          	j	410005d4 <trap_handler_m__clear_highest_priority_interrupt>
    41000674:	f61ff06f          	j	410005d4 <trap_handler_m__clear_highest_priority_interrupt>
    41000678:	f5dff06f          	j	410005d4 <trap_handler_m__clear_highest_priority_interrupt>
    4100067c:	f59ff06f          	j	410005d4 <trap_handler_m__clear_highest_priority_interrupt>
    41000680:	f55ff06f          	j	410005d4 <trap_handler_m__clear_highest_priority_interrupt>
    41000684:	f51ff06f          	j	410005d4 <trap_handler_m__clear_highest_priority_interrupt>
    41000688:	f4dff06f          	j	410005d4 <trap_handler_m__clear_highest_priority_interrupt>
    4100068c:	f49ff06f          	j	410005d4 <trap_handler_m__clear_highest_priority_interrupt>
    41000690:	f45ff06f          	j	410005d4 <trap_handler_m__clear_highest_priority_interrupt>
    41000694:	f41ff06f          	j	410005d4 <trap_handler_m__clear_highest_priority_interrupt>
    41000698:	f3dff06f          	j	410005d4 <trap_handler_m__clear_highest_priority_interrupt>
    4100069c:	f39ff06f          	j	410005d4 <trap_handler_m__clear_highest_priority_interrupt>
    410006a0:	f35ff06f          	j	410005d4 <trap_handler_m__clear_highest_priority_interrupt>
    410006a4:	f31ff06f          	j	410005d4 <trap_handler_m__clear_highest_priority_interrupt>
    410006a8:	f2dff06f          	j	410005d4 <trap_handler_m__clear_highest_priority_interrupt>
    410006ac:	f29ff06f          	j	410005d4 <trap_handler_m__clear_highest_priority_interrupt>
    410006b0:	f25ff06f          	j	410005d4 <trap_handler_m__clear_highest_priority_interrupt>
    410006b4:	f21ff06f          	j	410005d4 <trap_handler_m__clear_highest_priority_interrupt>
    410006b8:	f1dff06f          	j	410005d4 <trap_handler_m__clear_highest_priority_interrupt>
    410006bc:	f19ff06f          	j	410005d4 <trap_handler_m__clear_highest_priority_interrupt>
    410006c0:	f15ff06f          	j	410005d4 <trap_handler_m__clear_highest_priority_interrupt>
    410006c4:	f11ff06f          	j	410005d4 <trap_handler_m__clear_highest_priority_interrupt>
    410006c8:	f0dff06f          	j	410005d4 <trap_handler_m__clear_highest_priority_interrupt>
    410006cc:	f09ff06f          	j	410005d4 <trap_handler_m__clear_highest_priority_interrupt>
    410006d0:	f05ff06f          	j	410005d4 <trap_handler_m__clear_highest_priority_interrupt>
    410006d4:	f01ff06f          	j	410005d4 <trap_handler_m__clear_highest_priority_interrupt>
    410006d8:	efdff06f          	j	410005d4 <trap_handler_m__clear_highest_priority_interrupt>
    410006dc:	ef9ff06f          	j	410005d4 <trap_handler_m__clear_highest_priority_interrupt>
    410006e0:	ef5ff06f          	j	410005d4 <trap_handler_m__clear_highest_priority_interrupt>

00000000410006e4 <trap_handler_m__trap_handler>:
    410006e4:	342022f3          	csrr	x5,mcause
    410006e8:	fff0031b          	addiw	x6,x0,-1
    410006ec:	03f31313          	slli	x6,x6,0x3f
    410006f0:	00537333          	and	x6,x6,x5
    410006f4:	02030263          	beqz	x6,41000718 <trap_handler_m__exception_path>

00000000410006f8 <trap_handler_m__interrupt_handler>:
    410006f8:	fff0031b          	addiw	x6,x0,-1
    410006fc:	03f31313          	slli	x6,x6,0x3f
    41000700:	0062c2b3          	xor	x5,x5,x6
    41000704:	00000317          	auipc	x6,0x0
    41000708:	ee430313          	addi	x6,x6,-284 # 410005e8 <trap_handler_m__trap_entry>
    4100070c:	00229293          	slli	x5,x5,0x2
    41000710:	005302b3          	add	x5,x6,x5
    41000714:	00028067          	jr	x5 # 2000 <mem3>

0000000041000718 <trap_handler_m__exception_path>:
    41000718:	34021273          	csrrw	x4,mscratch,x4
    4100071c:	00000297          	auipc	x5,0x0
    41000720:	10828293          	addi	x5,x5,264 # 41000824 <trap_handler_m__trap_panic>
    41000724:	30529073          	csrw	mtvec,x5
    41000728:	0040006f          	j	4100072c <trap_handler_m__excp_entry>

000000004100072c <trap_handler_m__excp_entry>:
    4100072c:	34202373          	csrr	x6,mcause
    41000730:	00800293          	li	x5,8
    41000734:	00534863          	blt	x6,x5,41000744 <trap_handler_m__check_exception_label>
    41000738:	00b00293          	li	x5,11
    4100073c:	0062c463          	blt	x5,x6,41000744 <trap_handler_m__check_exception_label>
    41000740:	a11ff06f          	j	41000150 <syscalls__syscall_check_schedule_next_test>

0000000041000744 <trap_handler_m__check_exception_label>:
    41000744:	04623c23          	sd	x6,88(x4) # 58 <XLEN+0x18>
    41000748:	341022f3          	csrr	x5,mepc
    4100074c:	02523423          	sd	x5,40(x4) # 28 <SECURE_ACCESS_PROBABILITY+0xa>
    41000750:	01820283          	lb	x5,24(x4) # 18 <STORE_GUEST_PAGE_FAULT+0x1>
    41000754:	00029863          	bnez	x5,41000764 <trap_handler_m__check_excp>
    41000758:	00128293          	addi	x5,x5,1
    4100075c:	00520c23          	sb	x5,24(x4) # 18 <STORE_GUEST_PAGE_FAULT+0x1>
    41000760:	0980006f          	j	410007f8 <trap_handler_m__ecall_from_machine>

0000000041000764 <trap_handler_m__check_excp>:
    41000764:	06823283          	ld	x5,104(x4) # 68 <XLEN+0x28>
    41000768:	06023423          	sd	x0,104(x4) # 68 <XLEN+0x28>
    4100076c:	00028663          	beqz	x5,41000778 <trap_handler_m__skip_mode_check>
    41000770:	00100393          	li	x7,1
    41000774:	0e729463          	bne	x5,x7,4100085c <test_failed>

0000000041000778 <trap_handler_m__skip_mode_check>:
    41000778:	05023283          	ld	x5,80(x4) # 50 <XLEN+0x10>
    4100077c:	04023823          	sd	x0,80(x4) # 50 <XLEN+0x10>
    41000780:	0c531e63          	bne	x6,x5,4100085c <test_failed>
    41000784:	03823283          	ld	x5,56(x4) # 38 <SECURE_ACCESS_PROBABILITY+0x1a>
    41000788:	02023c23          	sd	x0,56(x4) # 38 <SECURE_ACCESS_PROBABILITY+0x1a>
    4100078c:	06029463          	bnez	x5,410007f4 <trap_handler_m__skip_gva_check>
    41000790:	02023303          	ld	x6,32(x4) # 20 <SECURE_ACCESS_PROBABILITY+0x2>
    41000794:	02023023          	sd	x0,32(x4) # 20 <SECURE_ACCESS_PROBABILITY+0x2>
    41000798:	02823283          	ld	x5,40(x4) # 28 <SECURE_ACCESS_PROBABILITY+0xa>
    4100079c:	02023423          	sd	x0,40(x4) # 28 <SECURE_ACCESS_PROBABILITY+0xa>
    410007a0:	0a531e63          	bne	x6,x5,4100085c <test_failed>
    410007a4:	04023283          	ld	x5,64(x4) # 40 <XLEN>
    410007a8:	04023023          	sd	x0,64(x4) # 40 <XLEN>
    410007ac:	00028663          	beqz	x5,410007b8 <trap_handler_m__skip_nonzero_tval_check>

00000000410007b0 <trap_handler_m__nonzero_tval_check>:
    410007b0:	34302373          	csrr	x6,mtval
    410007b4:	0a531463          	bne	x6,x5,4100085c <test_failed>

00000000410007b8 <trap_handler_m__skip_nonzero_tval_check>:
    410007b8:	04823283          	ld	x5,72(x4) # 48 <XLEN+0x8>
    410007bc:	04023423          	sd	x0,72(x4) # 48 <XLEN+0x8>
    410007c0:	00028663          	beqz	x5,410007cc <trap_handler_m__skip_nonzero_htval_check>

00000000410007c4 <trap_handler_m__nonzero_htval_check>:
    410007c4:	34b02373          	csrr	x6,0x34b
    410007c8:	08531a63          	bne	x6,x5,4100085c <test_failed>

00000000410007cc <trap_handler_m__skip_nonzero_htval_check>:
    410007cc:	06023283          	ld	x5,96(x4) # 60 <XLEN+0x20>
    410007d0:	06023023          	sd	x0,96(x4) # 60 <XLEN+0x20>
    410007d4:	02028063          	beqz	x5,410007f4 <trap_handler_m__skip_gva_check>

00000000410007d8 <trap_handler_m__gva_check>:
    410007d8:	30002373          	csrr	x6,mstatus
    410007dc:	02635313          	srli	x6,x6,0x26
    410007e0:	00137313          	andi	x6,x6,1
    410007e4:	06030c63          	beqz	x6,4100085c <test_failed>
    410007e8:	0010031b          	addiw	x6,x0,1
    410007ec:	02631313          	slli	x6,x6,0x26
    410007f0:	30033073          	csrc	mstatus,x6

00000000410007f4 <trap_handler_m__skip_gva_check>:
    410007f4:	0040006f          	j	410007f8 <trap_handler_m__ecall_from_machine>

00000000410007f8 <trap_handler_m__ecall_from_machine>:
    410007f8:	03023283          	ld	x5,48(x4) # 30 <SECURE_ACCESS_PROBABILITY+0x12>
    410007fc:	02023823          	sd	x0,48(x4) # 30 <SECURE_ACCESS_PROBABILITY+0x12>
    41000800:	07023303          	ld	x6,112(x4) # 70 <XLEN+0x30>
    41000804:	06023823          	sd	x0,112(x4) # 70 <XLEN+0x30>
    41000808:	00031463          	bnez	x6,41000810 <trap_handler_m__skip_xepc_write>
    4100080c:	34129073          	csrw	mepc,x5

0000000041000810 <trap_handler_m__skip_xepc_write>:
    41000810:	00000317          	auipc	x6,0x0
    41000814:	dd830313          	addi	x6,x6,-552 # 410005e8 <trap_handler_m__trap_entry>
    41000818:	30531073          	csrw	mtvec,x6
    4100081c:	34021273          	csrrw	x4,mscratch,x4
    41000820:	30200073          	mret

0000000041000824 <trap_handler_m__trap_panic>:
    41000824:	00000193          	li	x3,0
    41000828:	2b00006f          	j	41000ad8 <eot__end_test>

000000004100082c <enter_scheduler>:
    4100082c:	0002f337          	lui	x6,0x2f
    41000830:	ab73031b          	addiw	x6,x6,-1353 # 2eab7 <mem0+0x11ab7>
    41000834:	00e31313          	slli	x6,x6,0xe
    41000838:	0de30313          	addi	x6,x6,222
    4100083c:	02628063          	beq	x5,x6,4100085c <test_failed>
    41000840:	00000513          	li	x10,0
    41000844:	030000ef          	jal	41000874 <rvcp_print_test_result>
    41000848:	3140006f          	j	41000b5c <scheduler__dispatch>

000000004100084c <test_passed>:
    4100084c:	34021273          	csrrw	x4,mscratch,x4
    41000850:	00000513          	li	x10,0
    41000854:	020000ef          	jal	41000874 <rvcp_print_test_result>
    41000858:	3040006f          	j	41000b5c <scheduler__dispatch>

000000004100085c <test_failed>:
    4100085c:	34021273          	csrrw	x4,mscratch,x4
    41000860:	00300193          	li	x3,3
    41000864:	2740006f          	j	41000ad8 <eot__end_test>

0000000041000868 <os_end_test>:
    41000868:	34021273          	csrrw	x4,mscratch,x4
    4100086c:	00100193          	li	x3,1
    41000870:	2680006f          	j	41000ad8 <eot__end_test>

0000000041000874 <rvcp_print_test_result>:
    41000874:	00050e13          	mv	x28,x10
    41000878:	18823283          	ld	x5,392(x4) # 188 <XLEN+0x148>
    4100087c:	0010031b          	addiw	x6,x0,1
    41000880:	02031313          	slli	x6,x6,0x20
    41000884:	ffe30313          	addi	x6,x6,-2
    41000888:	1c628063          	beq	x5,x6,41000a48 <rvcp_print_test_result+0x1d4>
    4100088c:	0010031b          	addiw	x6,x0,1
    41000890:	02031313          	slli	x6,x6,0x20
    41000894:	fff30313          	addi	x6,x6,-1
    41000898:	1a628863          	beq	x5,x6,41000a48 <rvcp_print_test_result+0x1d4>
    4100089c:	1a02c663          	bltz	x5,41000a48 <rvcp_print_test_result+0x1d4>
    410008a0:	00000317          	auipc	x6,0x0
    410008a4:	43c30313          	addi	x6,x6,1084 # 41000cdc <dtest_descriptor_table>
    410008a8:	00329393          	slli	x7,x5,0x3
    410008ac:	00730333          	add	x6,x6,x7
    410008b0:	00033e83          	ld	x29,0(x6)
    410008b4:	4296af37          	lui	x30,0x4296a
    410008b8:	030f0f1b          	addiw	x30,x30,48 # 4296a030 <rvcp_prefix_str_pa>
    410008bc:	000f4283          	lbu	x5,0(x30)
    410008c0:	02028663          	beqz	x5,410008ec <rvcp_print_test_result+0x78>
    410008c4:	1010031b          	addiw	x6,x0,257
    410008c8:	03031313          	slli	x6,x6,0x30
    410008cc:	005362b3          	or	x5,x6,x5
    410008d0:	0003f317          	auipc	x6,0x3f
    410008d4:	73030313          	addi	x6,x6,1840 # 41040000 <tohost>
    410008d8:	00033383          	ld	x7,0(x6)
    410008dc:	fe039ee3          	bnez	x7,410008d8 <rvcp_print_test_result+0x64>
    410008e0:	00533023          	sd	x5,0(x6)
    410008e4:	001f0f13          	addi	x30,x30,1
    410008e8:	fd5ff06f          	j	410008bc <rvcp_print_test_result+0x48>
    410008ec:	4296af37          	lui	x30,0x4296a
    410008f0:	041f0f1b          	addiw	x30,x30,65 # 4296a041 <rvcp_testname_str_pa>
    410008f4:	000f4283          	lbu	x5,0(x30)
    410008f8:	02028663          	beqz	x5,41000924 <rvcp_print_test_result+0xb0>
    410008fc:	1010031b          	addiw	x6,x0,257
    41000900:	03031313          	slli	x6,x6,0x30
    41000904:	005362b3          	or	x5,x6,x5
    41000908:	0003f317          	auipc	x6,0x3f
    4100090c:	6f830313          	addi	x6,x6,1784 # 41040000 <tohost>
    41000910:	00033383          	ld	x7,0(x6)
    41000914:	fe039ee3          	bnez	x7,41000910 <rvcp_print_test_result+0x9c>
    41000918:	00533023          	sd	x5,0(x6)
    4100091c:	001f0f13          	addi	x30,x30,1
    41000920:	fd5ff06f          	j	410008f4 <rvcp_print_test_result+0x80>
    41000924:	4296af37          	lui	x30,0x4296a
    41000928:	06af0f1b          	addiw	x30,x30,106 # 4296a06a <rvcp_space_str_pa>
    4100092c:	000f4283          	lbu	x5,0(x30)
    41000930:	02028663          	beqz	x5,4100095c <rvcp_print_test_result+0xe8>
    41000934:	1010031b          	addiw	x6,x0,257
    41000938:	03031313          	slli	x6,x6,0x30
    4100093c:	005362b3          	or	x5,x6,x5
    41000940:	0003f317          	auipc	x6,0x3f
    41000944:	6c030313          	addi	x6,x6,1728 # 41040000 <tohost>
    41000948:	00033383          	ld	x7,0(x6)
    4100094c:	fe039ee3          	bnez	x7,41000948 <rvcp_print_test_result+0xd4>
    41000950:	00533023          	sd	x5,0(x6)
    41000954:	001f0f13          	addi	x30,x30,1
    41000958:	fd5ff06f          	j	4100092c <rvcp_print_test_result+0xb8>
    4100095c:	000e8f13          	mv	x30,x29
    41000960:	000f4283          	lbu	x5,0(x30)
    41000964:	02028663          	beqz	x5,41000990 <rvcp_print_test_result+0x11c>
    41000968:	1010031b          	addiw	x6,x0,257
    4100096c:	03031313          	slli	x6,x6,0x30
    41000970:	005362b3          	or	x5,x6,x5
    41000974:	0003f317          	auipc	x6,0x3f
    41000978:	68c30313          	addi	x6,x6,1676 # 41040000 <tohost>
    4100097c:	00033383          	ld	x7,0(x6)
    41000980:	fe039ee3          	bnez	x7,4100097c <rvcp_print_test_result+0x108>
    41000984:	00533023          	sd	x5,0(x6)
    41000988:	001f0f13          	addi	x30,x30,1
    4100098c:	fd5ff06f          	j	41000960 <rvcp_print_test_result+0xec>
    41000990:	4296af37          	lui	x30,0x4296a
    41000994:	06af0f1b          	addiw	x30,x30,106 # 4296a06a <rvcp_space_str_pa>
    41000998:	000f4283          	lbu	x5,0(x30)
    4100099c:	02028663          	beqz	x5,410009c8 <rvcp_print_test_result+0x154>
    410009a0:	1010031b          	addiw	x6,x0,257
    410009a4:	03031313          	slli	x6,x6,0x30
    410009a8:	005362b3          	or	x5,x6,x5
    410009ac:	0003f317          	auipc	x6,0x3f
    410009b0:	65430313          	addi	x6,x6,1620 # 41040000 <tohost>
    410009b4:	00033383          	ld	x7,0(x6)
    410009b8:	fe039ee3          	bnez	x7,410009b4 <rvcp_print_test_result+0x140>
    410009bc:	00533023          	sd	x5,0(x6)
    410009c0:	001f0f13          	addi	x30,x30,1
    410009c4:	fd5ff06f          	j	41000998 <rvcp_print_test_result+0x124>
    410009c8:	000e1863          	bnez	x28,410009d8 <rvcp_print_test_result+0x164>
    410009cc:	4296af37          	lui	x30,0x4296a
    410009d0:	05cf0f1b          	addiw	x30,x30,92 # 4296a05c <rvcp_passed_str_pa>
    410009d4:	00c0006f          	j	410009e0 <rvcp_print_test_result+0x16c>
    410009d8:	4296af37          	lui	x30,0x4296a
    410009dc:	063f0f1b          	addiw	x30,x30,99 # 4296a063 <rvcp_failed_str_pa>
    410009e0:	000f4283          	lbu	x5,0(x30)
    410009e4:	02028663          	beqz	x5,41000a10 <rvcp_print_test_result+0x19c>
    410009e8:	1010031b          	addiw	x6,x0,257
    410009ec:	03031313          	slli	x6,x6,0x30
    410009f0:	005362b3          	or	x5,x6,x5
    410009f4:	0003f317          	auipc	x6,0x3f
    410009f8:	60c30313          	addi	x6,x6,1548 # 41040000 <tohost>
    410009fc:	00033383          	ld	x7,0(x6)
    41000a00:	fe039ee3          	bnez	x7,410009fc <rvcp_print_test_result+0x188>
    41000a04:	00533023          	sd	x5,0(x6)
    41000a08:	001f0f13          	addi	x30,x30,1
    41000a0c:	fd5ff06f          	j	410009e0 <rvcp_print_test_result+0x16c>
    41000a10:	4296af37          	lui	x30,0x4296a
    41000a14:	06cf0f1b          	addiw	x30,x30,108 # 4296a06c <rvcp_newline_str_pa>
    41000a18:	000f4283          	lbu	x5,0(x30)
    41000a1c:	02028663          	beqz	x5,41000a48 <rvcp_print_test_result+0x1d4>
    41000a20:	1010031b          	addiw	x6,x0,257
    41000a24:	03031313          	slli	x6,x6,0x30
    41000a28:	005362b3          	or	x5,x6,x5
    41000a2c:	0003f317          	auipc	x6,0x3f
    41000a30:	5d430313          	addi	x6,x6,1492 # 41040000 <tohost>
    41000a34:	00033383          	ld	x7,0(x6)
    41000a38:	fe039ee3          	bnez	x7,41000a34 <rvcp_print_test_result+0x1c0>
    41000a3c:	00533023          	sd	x5,0(x6)
    41000a40:	001f0f13          	addi	x30,x30,1
    41000a44:	fd5ff06f          	j	41000a18 <rvcp_print_test_result+0x1a4>
    41000a48:	00008067          	ret

0000000041000a4c <os_rng_orig>:
    41000a4c:	f14023f3          	csrr	x7,mhartid
    41000a50:	00068313          	mv	x6,x13
    41000a54:	026383b3          	mul	x7,x7,x6
    41000a58:	00058313          	mv	x6,x11
    41000a5c:	00730333          	add	x6,x6,x7
    41000a60:	00033283          	ld	x5,0(x6)
    41000a64:	01529313          	slli	x6,x5,0x15
    41000a68:	0062c2b3          	xor	x5,x5,x6
    41000a6c:	0232d313          	srli	x6,x5,0x23
    41000a70:	0062c2b3          	xor	x5,x5,x6
    41000a74:	00429313          	slli	x6,x5,0x4
    41000a78:	0062c2b3          	xor	x5,x5,x6
    41000a7c:	00058313          	mv	x6,x11
    41000a80:	00730333          	add	x6,x6,x7
    41000a84:	00533023          	sd	x5,0(x6)
    41000a88:	00060313          	mv	x6,x12
    41000a8c:	0262f2b3          	remu	x5,x5,x6
    41000a90:	00028513          	mv	x10,x5
    41000a94:	00008067          	ret
    41000a98:	02a00513          	li	x10,42
    41000a9c:	001965b7          	lui	x11,0x196
    41000aa0:	60d5859b          	addiw	x11,x11,1549 # 19660d <hart_stack_0_end+0x7860d>
    41000aa4:	3c6ef637          	lui	x12,0x3c6ef
    41000aa8:	35f6061b          	addiw	x12,x12,863 # 3c6ef35f <SID_HEXCEP_11_stack+0x66f135f>
    41000aac:	02200693          	li	x13,34
    41000ab0:	02b50533          	mul	x10,x10,x11
    41000ab4:	00c50533          	add	x10,x10,x12
    41000ab8:	02d56533          	rem	x10,x10,x13
    41000abc:	00b00593          	li	x11,11
    41000ac0:	02b56533          	rem	x10,x10,x11
    41000ac4:	00008067          	ret

0000000041000ac8 <tohost_mutex>:
	...

0000000041000ad0 <tohost_addr_mem>:
    41000ad0:	0000                	.insn	2, 0x0000
    41000ad2:	4104                	.insn	2, 0x4104
    41000ad4:	0000                	.insn	2, 0x0000
	...

0000000041000ad8 <eot__end_test>:
    41000ad8:	00100293          	li	x5,1
    41000adc:	00328463          	beq	x5,x3,41000ae4 <eot__passed>
    41000ae0:	01c0006f          	j	41000afc <eot__failed>

0000000041000ae4 <eot__passed>:
    41000ae4:	0ff0000f          	fence
    41000ae8:	00000297          	auipc	x5,0x0
    41000aec:	fe82b283          	ld	x5,-24(x5) # 41000ad0 <tohost_addr_mem>
    41000af0:	00100313          	li	x6,1
    41000af4:	0062a023          	sw	x6,0(x5)
    41000af8:	0240006f          	j	41000b1c <eot__halt>

0000000041000afc <eot__failed>:
    41000afc:	00100513          	li	x10,1
    41000b00:	d75ff0ef          	jal	41000874 <rvcp_print_test_result>
    41000b04:	0ff0000f          	fence
    41000b08:	00000297          	auipc	x5,0x0
    41000b0c:	fc82b283          	ld	x5,-56(x5) # 41000ad0 <tohost_addr_mem>
    41000b10:	00300313          	li	x6,3
    41000b14:	0062a023          	sw	x6,0(x5)
    41000b18:	0040006f          	j	41000b1c <eot__halt>

0000000041000b1c <eot__halt>:
    41000b1c:	10500073          	wfi
    41000b20:	ffdff06f          	j	41000b1c <eot__halt>

0000000041000b24 <scheduler__init>:
    41000b24:	00000297          	auipc	x5,0x0
    41000b28:	0cc28293          	addi	x5,x5,204 # 41000bf0 <scheduler__panic>
    41000b2c:	305292f3          	csrrw	x5,mtvec,x5
    41000b30:	18523023          	sd	x5,384(x4) # 180 <XLEN+0x140>
    41000b34:	01b00293          	li	x5,27
    41000b38:	18523823          	sd	x5,400(x4) # 190 <XLEN+0x150>
    41000b3c:	0010029b          	addiw	x5,x0,1
    41000b40:	02029293          	slli	x5,x5,0x20
    41000b44:	ffe28293          	addi	x5,x5,-2
    41000b48:	18523423          	sd	x5,392(x4) # 188 <XLEN+0x148>
    41000b4c:	00000317          	auipc	x6,0x0
    41000b50:	57830313          	addi	x6,x6,1400 # 410010c4 <scheduler__test_setup_ptr>
    41000b54:	00033303          	ld	x6,0(x6)
    41000b58:	0680006f          	j	41000bc0 <scheduler__execute_test>

0000000041000b5c <scheduler__dispatch>:
    41000b5c:	00000297          	auipc	x5,0x0
    41000b60:	09428293          	addi	x5,x5,148 # 41000bf0 <scheduler__panic>
    41000b64:	305292f3          	csrrw	x5,mtvec,x5
    41000b68:	18523023          	sd	x5,384(x4) # 180 <XLEN+0x140>

0000000041000b6c <scheduler__csr_read_randomization>:
    41000b6c:	f12022f3          	csrr	x5,marchid
    41000b70:	104022f3          	csrr	x5,sie
    41000b74:	304022f3          	csrr	x5,mie
    41000b78:	143022f3          	csrr	x5,stval
    41000b7c:	f15022f3          	csrr	x5,0xf15
    41000b80:	140022f3          	csrr	x5,sscratch

0000000041000b84 <scheduler__load_num_runs>:
    41000b84:	19023303          	ld	x6,400(x4) # 190 <XLEN+0x150>
    41000b88:	06030063          	beqz	x6,41000be8 <scheduler__finished>

0000000041000b8c <scheduler__decrement_num_runs>:
    41000b8c:	fff30393          	addi	x7,x6,-1
    41000b90:	18723823          	sd	x7,400(x4) # 190 <XLEN+0x150>
    41000b94:	00000e17          	auipc	x28,0x0
    41000b98:	4c0e0e13          	addi	x28,x28,1216 # 41001054 <dtest_index_map>
    41000b9c:	00239e93          	slli	x29,x7,0x2
    41000ba0:	01de0e33          	add	x28,x28,x29
    41000ba4:	000e2e03          	lw	x28,0(x28)
    41000ba8:	19c23423          	sd	x28,392(x4) # 188 <XLEN+0x148>

0000000041000bac <scheduler__calc_test_pointer>:
    41000bac:	00339293          	slli	x5,x7,0x3

0000000041000bb0 <scheduler__load_test_addr>:
    41000bb0:	00000317          	auipc	x6,0x0
    41000bb4:	05430313          	addi	x6,x6,84 # 41000c04 <os_test_sequence>
    41000bb8:	006282b3          	add	x5,x5,x6
    41000bbc:	0002b303          	ld	x6,0(x5)

0000000041000bc0 <scheduler__execute_test>:
    41000bc0:	18023283          	ld	x5,384(x4) # 180 <XLEN+0x140>
    41000bc4:	30529073          	csrw	mtvec,x5
    41000bc8:	34021273          	csrrw	x4,mscratch,x4
    41000bcc:	00000213          	li	x4,0
    41000bd0:	14131073          	csrw	sepc,x6
    41000bd4:	10000293          	li	x5,256
    41000bd8:	1002b073          	csrc	sstatus,x5
    41000bdc:	08000093          	li	x1,128
    41000be0:	6000a073          	csrs	hstatus,x1
    41000be4:	10200073          	sret

0000000041000be8 <scheduler__finished>:
    41000be8:	00100193          	li	x3,1
    41000bec:	eedff06f          	j	41000ad8 <eot__end_test>

0000000041000bf0 <scheduler__panic>:
    41000bf0:	00000193          	li	x3,0
    41000bf4:	ee5ff06f          	j	41000ad8 <eot__end_test>
    41000bf8:	0000                	.insn	2, 0x0000
	...

0000000041000bfc <num_runs>:
    41000bfc:	0000001b          	sext.w	x0,x0
    41000c00:	0000                	.insn	2, 0x0000
	...

0000000041000c04 <os_test_sequence>:
    41000c04:	ba48                	.insn	2, 0xba48
    41000c06:	4101                	.insn	2, 0x4101
    41000c08:	0000                	.insn	2, 0x0000
    41000c0a:	0000                	.insn	2, 0x0000
    41000c0c:	7ed0                	.insn	2, 0x7ed0
    41000c0e:	4101                	.insn	2, 0x4101
    41000c10:	0000                	.insn	2, 0x0000
    41000c12:	0000                	.insn	2, 0x0000
    41000c14:	af74                	.insn	2, 0xaf74
    41000c16:	4101                	.insn	2, 0x4101
    41000c18:	0000                	.insn	2, 0x0000
    41000c1a:	0000                	.insn	2, 0x0000
    41000c1c:	ab10                	.insn	2, 0xab10
    41000c1e:	4101                	.insn	2, 0x4101
    41000c20:	0000                	.insn	2, 0x0000
    41000c22:	0000                	.insn	2, 0x0000
    41000c24:	a810                	.insn	2, 0xa810
    41000c26:	4101                	.insn	2, 0x4101
    41000c28:	0000                	.insn	2, 0x0000
    41000c2a:	0000                	.insn	2, 0x0000
    41000c2c:	5160                	.insn	2, 0x5160
    41000c2e:	4101                	.insn	2, 0x4101
    41000c30:	0000                	.insn	2, 0x0000
    41000c32:	0000                	.insn	2, 0x0000
    41000c34:	b46c                	.insn	2, 0xb46c
    41000c36:	4101                	.insn	2, 0x4101
    41000c38:	0000                	.insn	2, 0x0000
    41000c3a:	0000                	.insn	2, 0x0000
    41000c3c:	8e08                	.insn	2, 0x8e08
    41000c3e:	4101                	.insn	2, 0x4101
    41000c40:	0000                	.insn	2, 0x0000
    41000c42:	0000                	.insn	2, 0x0000
    41000c44:	a020                	.insn	2, 0xa020
    41000c46:	4101                	.insn	2, 0x4101
    41000c48:	0000                	.insn	2, 0x0000
    41000c4a:	0000                	.insn	2, 0x0000
    41000c4c:	a69c                	.insn	2, 0xa69c
    41000c4e:	4101                	.insn	2, 0x4101
    41000c50:	0000                	.insn	2, 0x0000
    41000c52:	0000                	.insn	2, 0x0000
    41000c54:	a98c                	.insn	2, 0xa98c
    41000c56:	4101                	.insn	2, 0x4101
    41000c58:	0000                	.insn	2, 0x0000
    41000c5a:	0000                	.insn	2, 0x0000
    41000c5c:	ae00                	.insn	2, 0xae00
    41000c5e:	4101                	.insn	2, 0x4101
    41000c60:	0000                	.insn	2, 0x0000
    41000c62:	0000                	.insn	2, 0x0000
    41000c64:	b2f4                	.insn	2, 0xb2f4
    41000c66:	4101                	.insn	2, 0x4101
    41000c68:	0000                	.insn	2, 0x0000
    41000c6a:	0000                	.insn	2, 0x0000
    41000c6c:	a360                	.insn	2, 0xa360
    41000c6e:	4101                	.insn	2, 0x4101
    41000c70:	0000                	.insn	2, 0x0000
    41000c72:	0000                	.insn	2, 0x0000
    41000c74:	ac84                	.insn	2, 0xac84
    41000c76:	4101                	.insn	2, 0x4101
    41000c78:	0000                	.insn	2, 0x0000
    41000c7a:	0000                	.insn	2, 0x0000
    41000c7c:	a248                	.insn	2, 0xa248
    41000c7e:	4101                	.insn	2, 0x4101
    41000c80:	0000                	.insn	2, 0x0000
    41000c82:	0000                	.insn	2, 0x0000
    41000c84:	a3f4                	.insn	2, 0xa3f4
    41000c86:	4101                	.insn	2, 0x4101
    41000c88:	0000                	.insn	2, 0x0000
    41000c8a:	0000                	.insn	2, 0x0000
    41000c8c:	b18c                	.insn	2, 0xb18c
    41000c8e:	4101                	.insn	2, 0x4101
    41000c90:	0000                	.insn	2, 0x0000
    41000c92:	0000                	.insn	2, 0x0000
    41000c94:	b858                	.insn	2, 0xb858
    41000c96:	4101                	.insn	2, 0x4101
    41000c98:	0000                	.insn	2, 0x0000
    41000c9a:	0000                	.insn	2, 0x0000
    41000c9c:	9f90                	.insn	2, 0x9f90
    41000c9e:	4101                	.insn	2, 0x4101
    41000ca0:	0000                	.insn	2, 0x0000
    41000ca2:	0000                	.insn	2, 0x0000
    41000ca4:	a138                	.insn	2, 0xa138
    41000ca6:	4101                	.insn	2, 0x4101
    41000ca8:	0000                	.insn	2, 0x0000
    41000caa:	0000                	.insn	2, 0x0000
    41000cac:	a1c0                	.insn	2, 0xa1c0
    41000cae:	4101                	.insn	2, 0x4101
    41000cb0:	0000                	.insn	2, 0x0000
    41000cb2:	0000                	.insn	2, 0x0000
    41000cb4:	9d40                	.insn	2, 0x9d40
    41000cb6:	4101                	.insn	2, 0x4101
    41000cb8:	0000                	.insn	2, 0x0000
    41000cba:	0000                	.insn	2, 0x0000
    41000cbc:	a2d0                	.insn	2, 0xa2d0
    41000cbe:	4101                	.insn	2, 0x4101
    41000cc0:	0000                	.insn	2, 0x0000
    41000cc2:	0000                	.insn	2, 0x0000
    41000cc4:	b66c                	.insn	2, 0xb66c
    41000cc6:	4101                	.insn	2, 0x4101
    41000cc8:	0000                	.insn	2, 0x0000
    41000cca:	0000                	.insn	2, 0x0000
    41000ccc:	6fa0                	.insn	2, 0x6fa0
    41000cce:	4101                	.insn	2, 0x4101
    41000cd0:	0000                	.insn	2, 0x0000
    41000cd2:	0000                	.insn	2, 0x0000
    41000cd4:	657c                	.insn	2, 0x657c
    41000cd6:	4101                	.insn	2, 0x4101
    41000cd8:	0000                	.insn	2, 0x0000
	...

0000000041000cdc <dtest_descriptor_table>:
    41000cdc:	0dac                	.insn	2, 0x0dac
    41000cde:	4100                	.insn	2, 0x4100
    41000ce0:	0000                	.insn	2, 0x0000
    41000ce2:	0000                	.insn	2, 0x0000
    41000ce4:	0dba                	.insn	2, 0x0dba
    41000ce6:	4100                	.insn	2, 0x4100
    41000ce8:	0000                	.insn	2, 0x0000
    41000cea:	0000                	.insn	2, 0x0000
    41000cec:	0dc8                	.insn	2, 0x0dc8
    41000cee:	4100                	.insn	2, 0x4100
    41000cf0:	0000                	.insn	2, 0x0000
    41000cf2:	0000                	.insn	2, 0x0000
    41000cf4:	0de4                	.insn	2, 0x0de4
    41000cf6:	4100                	.insn	2, 0x4100
    41000cf8:	0000                	.insn	2, 0x0000
    41000cfa:	0000                	.insn	2, 0x0000
    41000cfc:	0e00                	.insn	2, 0x0e00
    41000cfe:	4100                	.insn	2, 0x4100
    41000d00:	0000                	.insn	2, 0x0000
    41000d02:	0000                	.insn	2, 0x0000
    41000d04:	0e1c                	.insn	2, 0x0e1c
    41000d06:	4100                	.insn	2, 0x4100
    41000d08:	0000                	.insn	2, 0x0000
    41000d0a:	0000                	.insn	2, 0x0000
    41000d0c:	0e2a                	.insn	2, 0x0e2a
    41000d0e:	4100                	.insn	2, 0x4100
    41000d10:	0000                	.insn	2, 0x0000
    41000d12:	0000                	.insn	2, 0x0000
    41000d14:	0e46                	.insn	2, 0x0e46
    41000d16:	4100                	.insn	2, 0x4100
    41000d18:	0000                	.insn	2, 0x0000
    41000d1a:	0000                	.insn	2, 0x0000
    41000d1c:	41000e5b          	.insn	4, 0x41000e5b
    41000d20:	0000                	.insn	2, 0x0000
    41000d22:	0000                	.insn	2, 0x0000
    41000d24:	0e71                	.insn	2, 0x0e71
    41000d26:	4100                	.insn	2, 0x4100
    41000d28:	0000                	.insn	2, 0x0000
    41000d2a:	0000                	.insn	2, 0x0000
    41000d2c:	0e8d                	.insn	2, 0x0e8d
    41000d2e:	4100                	.insn	2, 0x4100
    41000d30:	0000                	.insn	2, 0x0000
    41000d32:	0000                	.insn	2, 0x0000
    41000d34:	0eaa                	.insn	2, 0x0eaa
    41000d36:	4100                	.insn	2, 0x4100
    41000d38:	0000                	.insn	2, 0x0000
    41000d3a:	0000                	.insn	2, 0x0000
    41000d3c:	41000ec7          	fmsub.s	f29,f0,f16,f8,rne
    41000d40:	0000                	.insn	2, 0x0000
    41000d42:	0000                	.insn	2, 0x0000
    41000d44:	41000ee3          	beq	x0,x16,41001960 <scheduler__test_cleanup_ptr+0x894>
    41000d48:	0000                	.insn	2, 0x0000
    41000d4a:	0000                	.insn	2, 0x0000
    41000d4c:	0ef1                	.insn	2, 0x0ef1
    41000d4e:	4100                	.insn	2, 0x4100
    41000d50:	0000                	.insn	2, 0x0000
    41000d52:	0000                	.insn	2, 0x0000
    41000d54:	0f08                	.insn	2, 0x0f08
    41000d56:	4100                	.insn	2, 0x4100
    41000d58:	0000                	.insn	2, 0x0000
    41000d5a:	0000                	.insn	2, 0x0000
    41000d5c:	41000f23          	sb	x16,1054(x0) # 41e <XLEN+0x3de>
    41000d60:	0000                	.insn	2, 0x0000
    41000d62:	0000                	.insn	2, 0x0000
    41000d64:	0f3d                	.insn	2, 0x0f3d
    41000d66:	4100                	.insn	2, 0x4100
    41000d68:	0000                	.insn	2, 0x0000
    41000d6a:	0000                	.insn	2, 0x0000
    41000d6c:	0f54                	.insn	2, 0x0f54
    41000d6e:	4100                	.insn	2, 0x4100
    41000d70:	0000                	.insn	2, 0x0000
    41000d72:	0000                	.insn	2, 0x0000
    41000d74:	41000f6f          	jal	x30,41001184 <scheduler__test_cleanup_ptr+0xb8>
    41000d78:	0000                	.insn	2, 0x0000
    41000d7a:	0000                	.insn	2, 0x0000
    41000d7c:	0f89                	.insn	2, 0x0f89
    41000d7e:	4100                	.insn	2, 0x4100
    41000d80:	0000                	.insn	2, 0x0000
    41000d82:	0000                	.insn	2, 0x0000
    41000d84:	0fa6                	.insn	2, 0x0fa6
    41000d86:	4100                	.insn	2, 0x4100
    41000d88:	0000                	.insn	2, 0x0000
    41000d8a:	0000                	.insn	2, 0x0000
    41000d8c:	0fc2                	.insn	2, 0x0fc2
    41000d8e:	4100                	.insn	2, 0x4100
    41000d90:	0000                	.insn	2, 0x0000
    41000d92:	0000                	.insn	2, 0x0000
    41000d94:	0fde                	.insn	2, 0x0fde
    41000d96:	4100                	.insn	2, 0x4100
    41000d98:	0000                	.insn	2, 0x0000
    41000d9a:	0000                	.insn	2, 0x0000
    41000d9c:	1005                	.insn	2, 0x1005
    41000d9e:	4100                	.insn	2, 0x4100
    41000da0:	0000                	.insn	2, 0x0000
    41000da2:	0000                	.insn	2, 0x0000
    41000da4:	4100102b          	.insn	4, 0x4100102b
    41000da8:	0000                	.insn	2, 0x0000
	...

0000000041000dac <dtest_name_0>:
    41000dac:	5f444953          	.insn	4, 0x5f444953
    41000db0:	4548                	.insn	2, 0x4548
    41000db2:	4358                	.insn	2, 0x4358
    41000db4:	5045                	.insn	2, 0x5045
    41000db6:	305f 0035       	.insn	6, 0x49530035305f

0000000041000dba <dtest_name_1>:
    41000dba:	5f444953          	.insn	4, 0x5f444953
    41000dbe:	4548                	.insn	2, 0x4548
    41000dc0:	4358                	.insn	2, 0x4358
    41000dc2:	5045                	.insn	2, 0x5045
    41000dc4:	305f 0036       	.insn	6, 0x49530036305f

0000000041000dc8 <dtest_name_2>:
    41000dc8:	5f444953          	.insn	4, 0x5f444953
    41000dcc:	4548                	.insn	2, 0x4548
    41000dce:	4358                	.insn	2, 0x4358
    41000dd0:	5045                	.insn	2, 0x5045
    41000dd2:	305f 5f37 7576      	.insn	6, 0x75765f37305f
    41000dd8:	6d5f 646f 5f65      	.insn	6, 0x5f65646f6d5f
    41000dde:	65736163          	bltu	x6,x23,41001420 <scheduler__test_cleanup_ptr+0x354>
    41000de2:	0031                	.insn	2, 0x0031

0000000041000de4 <dtest_name_3>:
    41000de4:	5f444953          	.insn	4, 0x5f444953
    41000de8:	4548                	.insn	2, 0x4548
    41000dea:	4358                	.insn	2, 0x4358
    41000dec:	5045                	.insn	2, 0x5045
    41000dee:	305f 5f37 7576      	.insn	6, 0x75765f37305f
    41000df4:	6d5f 646f 5f65      	.insn	6, 0x5f65646f6d5f
    41000dfa:	65736163          	bltu	x6,x23,4100143c <scheduler__test_cleanup_ptr+0x370>
    41000dfe:	0032                	.insn	2, 0x0032

0000000041000e00 <dtest_name_4>:
    41000e00:	5f444953          	.insn	4, 0x5f444953
    41000e04:	4548                	.insn	2, 0x4548
    41000e06:	4358                	.insn	2, 0x4358
    41000e08:	5045                	.insn	2, 0x5045
    41000e0a:	305f 5f37 7576      	.insn	6, 0x75765f37305f
    41000e10:	6d5f 646f 5f65      	.insn	6, 0x5f65646f6d5f
    41000e16:	65736163          	bltu	x6,x23,41001458 <scheduler__test_cleanup_ptr+0x38c>
    41000e1a:	          	.insn	4, 0x49530033

0000000041000e1c <dtest_name_5>:
    41000e1c:	5f444953          	.insn	4, 0x5f444953
    41000e20:	4548                	.insn	2, 0x4548
    41000e22:	4358                	.insn	2, 0x4358
    41000e24:	5045                	.insn	2, 0x5045
    41000e26:	305f 0038       	.insn	6, 0x49530038305f

0000000041000e2a <dtest_name_6>:
    41000e2a:	5f444953          	.insn	4, 0x5f444953
    41000e2e:	4548                	.insn	2, 0x4548
    41000e30:	4358                	.insn	2, 0x4358
    41000e32:	5045                	.insn	2, 0x5045
    41000e34:	305f 5f39 726d      	.insn	6, 0x726d5f39305f
    41000e3a:	7465                	.insn	2, 0x7465
    41000e3c:	695f 5f6e 7376      	.insn	6, 0x73765f6e695f
    41000e42:	765f 0075       	.insn	6, 0x49530075765f

0000000041000e46 <dtest_name_7>:
    41000e46:	5f444953          	.insn	4, 0x5f444953
    41000e4a:	4548                	.insn	2, 0x4548
    41000e4c:	4358                	.insn	2, 0x4358
    41000e4e:	5045                	.insn	2, 0x5045
    41000e50:	305f 5f39 6677      	.insn	6, 0x66775f39305f
    41000e56:	5f69                	.insn	2, 0x5f69
    41000e58:	7576                	.insn	2, 0x7576
	...

0000000041000e5b <dtest_name_8>:
    41000e5b:	5f444953          	.insn	4, 0x5f444953
    41000e5f:	4548                	.insn	2, 0x4548
    41000e61:	4358                	.insn	2, 0x4358
    41000e63:	5045                	.insn	2, 0x5045
    41000e65:	305f 5f39 7273      	.insn	6, 0x72735f39305f
    41000e6b:	7465                	.insn	2, 0x7465
    41000e6d:	765f 0075       	.insn	6, 0x49530075765f

0000000041000e71 <dtest_name_9>:
    41000e71:	5f444953          	.insn	4, 0x5f444953
    41000e75:	4548                	.insn	2, 0x4548
    41000e77:	4358                	.insn	2, 0x4358
    41000e79:	5045                	.insn	2, 0x5045
    41000e7b:	305f 5f39 6673      	.insn	6, 0x66735f39305f
    41000e81:	6e65                	.insn	2, 0x6e65
    41000e83:	765f6563          	bltu	x30,x5,410015ed <scheduler__test_cleanup_ptr+0x521>
    41000e87:	616d                	.insn	2, 0x616d
    41000e89:	765f 0075       	.insn	6, 0x49530075765f

0000000041000e8d <dtest_name_10>:
    41000e8d:	5f444953          	.insn	4, 0x5f444953
    41000e91:	4548                	.insn	2, 0x4548
    41000e93:	4358                	.insn	2, 0x4358
    41000e95:	5045                	.insn	2, 0x5045
    41000e97:	305f 5f39 6968      	.insn	6, 0x69685f39305f
    41000e9d:	766e                	.insn	2, 0x766e
    41000e9f:	6c61                	.insn	2, 0x6c61
    41000ea1:	765f 6d76 5f61      	.insn	6, 0x5f616d76765f
    41000ea7:	7576                	.insn	2, 0x7576
	...

0000000041000eaa <dtest_name_11>:
    41000eaa:	5f444953          	.insn	4, 0x5f444953
    41000eae:	4548                	.insn	2, 0x4548
    41000eb0:	4358                	.insn	2, 0x4358
    41000eb2:	5045                	.insn	2, 0x5045
    41000eb4:	305f 5f39 6968      	.insn	6, 0x69685f39305f
    41000eba:	766e                	.insn	2, 0x766e
    41000ebc:	6c61                	.insn	2, 0x6c61
    41000ebe:	675f 6d76 5f61      	.insn	6, 0x5f616d76675f
    41000ec4:	7576                	.insn	2, 0x7576
	...

0000000041000ec7 <dtest_name_12>:
    41000ec7:	5f444953          	.insn	4, 0x5f444953
    41000ecb:	4548                	.insn	2, 0x4548
    41000ecd:	4358                	.insn	2, 0x4358
    41000ecf:	5045                	.insn	2, 0x5045
    41000ed1:	305f 5f39 6973      	.insn	6, 0x69735f39305f
    41000ed7:	766e                	.insn	2, 0x766e
    41000ed9:	6c61                	.insn	2, 0x6c61
    41000edb:	765f 616d 765f      	.insn	6, 0x765f616d765f
    41000ee1:	0075                	.insn	2, 0x0075

0000000041000ee3 <dtest_name_13>:
    41000ee3:	5f444953          	.insn	4, 0x5f444953
    41000ee7:	4548                	.insn	2, 0x4548
    41000ee9:	4358                	.insn	2, 0x4358
    41000eeb:	5045                	.insn	2, 0x5045
    41000eed:	315f 0031       	.insn	6, 0x49530031315f

0000000041000ef1 <dtest_name_14>:
    41000ef1:	5f444953          	.insn	4, 0x5f444953
    41000ef5:	4548                	.insn	2, 0x4548
    41000ef7:	4358                	.insn	2, 0x4358
    41000ef9:	5045                	.insn	2, 0x5045
    41000efb:	315f 5f36 7366      	.insn	6, 0x73665f36315f
    41000f01:	5f30                	.insn	2, 0x5f30
    41000f03:	6f62                	.insn	2, 0x6f62
    41000f05:	6874                	.insn	2, 0x6874
	...

0000000041000f08 <dtest_name_15>:
    41000f08:	5f444953          	.insn	4, 0x5f444953
    41000f0c:	4548                	.insn	2, 0x4548
    41000f0e:	4358                	.insn	2, 0x4358
    41000f10:	5045                	.insn	2, 0x5045
    41000f12:	315f 5f36 7376      	.insn	6, 0x73765f36315f
    41000f18:	74617473          	csrrci	x8,0x746,2
    41000f1c:	7375                	.insn	2, 0x7375
    41000f1e:	665f 3073       	.insn	6, 0x53003073665f

0000000041000f23 <dtest_name_16>:
    41000f23:	5f444953          	.insn	4, 0x5f444953
    41000f27:	4548                	.insn	2, 0x4548
    41000f29:	4358                	.insn	2, 0x4358
    41000f2b:	5045                	.insn	2, 0x5045
    41000f2d:	315f 5f36 7373      	.insn	6, 0x73735f36315f
    41000f33:	6174                	.insn	2, 0x6174
    41000f35:	7574                	.insn	2, 0x7574
    41000f37:	73665f73          	csrrwi	x30,mhpmevent22h,12
    41000f3b:	0030                	.insn	2, 0x0030

0000000041000f3d <dtest_name_17>:
    41000f3d:	5f444953          	.insn	4, 0x5f444953
    41000f41:	4548                	.insn	2, 0x4548
    41000f43:	4358                	.insn	2, 0x4358
    41000f45:	5045                	.insn	2, 0x5045
    41000f47:	315f 5f37 7376      	.insn	6, 0x73765f37315f
    41000f4d:	5f30                	.insn	2, 0x5f30
    41000f4f:	6f62                	.insn	2, 0x6f62
    41000f51:	6874                	.insn	2, 0x6874
	...

0000000041000f54 <dtest_name_18>:
    41000f54:	5f444953          	.insn	4, 0x5f444953
    41000f58:	4548                	.insn	2, 0x4548
    41000f5a:	4358                	.insn	2, 0x4358
    41000f5c:	5045                	.insn	2, 0x5045
    41000f5e:	315f 5f37 7376      	.insn	6, 0x73765f37315f
    41000f64:	74617473          	csrrci	x8,0x746,2
    41000f68:	7375                	.insn	2, 0x7375
    41000f6a:	765f 3073       	.insn	6, 0x53003073765f

0000000041000f6f <dtest_name_19>:
    41000f6f:	5f444953          	.insn	4, 0x5f444953
    41000f73:	4548                	.insn	2, 0x4548
    41000f75:	4358                	.insn	2, 0x4358
    41000f77:	5045                	.insn	2, 0x5045
    41000f79:	315f 5f37 7373      	.insn	6, 0x73735f37315f
    41000f7f:	6174                	.insn	2, 0x6174
    41000f81:	7574                	.insn	2, 0x7574
    41000f83:	73765f73          	csrrwi	x30,mhpmevent23h,12
    41000f87:	0030                	.insn	2, 0x0030

0000000041000f89 <dtest_name_20>:
    41000f89:	5f444953          	.insn	4, 0x5f444953
    41000f8d:	4548                	.insn	2, 0x4548
    41000f8f:	4358                	.insn	2, 0x4358
    41000f91:	5045                	.insn	2, 0x5045
    41000f93:	315f 5f39 696d      	.insn	6, 0x696d5f39315f
    41000f99:	696c6173          	csrrsi	x2,0x696,24
    41000f9d:	64656e67          	.insn	4, 0x64656e67
    41000fa1:	615f 6f6d       	.insn	6, 0x53006f6d615f

0000000041000fa6 <dtest_name_21>:
    41000fa6:	5f444953          	.insn	4, 0x5f444953
    41000faa:	4548                	.insn	2, 0x4548
    41000fac:	4358                	.insn	2, 0x4358
    41000fae:	5045                	.insn	2, 0x5045
    41000fb0:	315f 5f39 696d      	.insn	6, 0x696d5f39315f
    41000fb6:	696c6173          	csrrsi	x2,0x696,24
    41000fba:	64656e67          	.insn	4, 0x64656e67
    41000fbe:	6c5f 0072       	.insn	6, 0x495300726c5f

0000000041000fc2 <dtest_name_22>:
    41000fc2:	5f444953          	.insn	4, 0x5f444953
    41000fc6:	4548                	.insn	2, 0x4548
    41000fc8:	4358                	.insn	2, 0x4358
    41000fca:	5045                	.insn	2, 0x5045
    41000fcc:	315f 5f39 696d      	.insn	6, 0x696d5f39315f
    41000fd2:	696c6173          	csrrsi	x2,0x696,24
    41000fd6:	64656e67          	.insn	4, 0x64656e67
    41000fda:	735f 0063       	.insn	6, 0x49530063735f

0000000041000fde <dtest_name_23>:
    41000fde:	5f444953          	.insn	4, 0x5f444953
    41000fe2:	4548                	.insn	2, 0x4548
    41000fe4:	4358                	.insn	2, 0x4358
    41000fe6:	5045                	.insn	2, 0x5045
    41000fe8:	315f 5f39 696d      	.insn	6, 0x696d5f39315f
    41000fee:	696c6173          	csrrsi	x2,0x696,24
    41000ff2:	64656e67          	.insn	4, 0x64656e67
    41000ff6:	615f 6f6d 645f      	.insn	6, 0x645f6f6d615f
    41000ffc:	6c65                	.insn	2, 0x6c65
    41000ffe:	6765                	.insn	2, 0x6765
    41001000:	7461                	.insn	2, 0x7461
    41001002:	6465                	.insn	2, 0x6465
	...

0000000041001005 <dtest_name_24>:
    41001005:	5f444953          	.insn	4, 0x5f444953
    41001009:	4548                	.insn	2, 0x4548
    4100100b:	4358                	.insn	2, 0x4358
    4100100d:	5045                	.insn	2, 0x5045
    4100100f:	315f 5f39 696d      	.insn	6, 0x696d5f39315f
    41001015:	696c6173          	csrrsi	x2,0x696,24
    41001019:	64656e67          	.insn	4, 0x64656e67
    4100101d:	6c5f 5f72 6564      	.insn	6, 0x65645f726c5f
    41001023:	656c                	.insn	2, 0x656c
    41001025:	65746167          	.insn	4, 0x65746167
    41001029:	0064                	.insn	2, 0x0064

000000004100102b <dtest_name_25>:
    4100102b:	5f444953          	.insn	4, 0x5f444953
    4100102f:	4548                	.insn	2, 0x4548
    41001031:	4358                	.insn	2, 0x4358
    41001033:	5045                	.insn	2, 0x5045
    41001035:	315f 5f39 696d      	.insn	6, 0x696d5f39315f
    4100103b:	696c6173          	csrrsi	x2,0x696,24
    4100103f:	64656e67          	.insn	4, 0x64656e67
    41001043:	735f 5f63 6564      	.insn	6, 0x65645f63735f
    41001049:	656c                	.insn	2, 0x656c
    4100104b:	65746167          	.insn	4, 0x65746167
    4100104f:	0064                	.insn	2, 0x0064
    41001051:	0000                	.insn	2, 0x0000
	...

0000000041001054 <dtest_index_map>:
    41001054:	ffff                	.insn	2, 0xffff
    41001056:	ffff                	.insn	2, 0xffff
    41001058:	00000003          	lb	x0,0(x0) # 0 <ALL_4KB_PAGES>
    4100105c:	0014                	.insn	2, 0x0014
    4100105e:	0000                	.insn	2, 0x0000
    41001060:	0011                	.insn	2, 0x0011
    41001062:	0000                	.insn	2, 0x0000
    41001064:	0000000f          	fence	unknown,unknown
    41001068:	0000                	.insn	2, 0x0000
    4100106a:	0000                	.insn	2, 0x0000
    4100106c:	00000017          	auipc	x0,0x0
    41001070:	0004                	.insn	2, 0x0004
    41001072:	0000                	.insn	2, 0x0000
    41001074:	00000007          	vle8.v	v0,(x0),v0.t
    41001078:	000e                	.insn	2, 0x000e
    4100107a:	0000                	.insn	2, 0x0000
    4100107c:	0010                	.insn	2, 0x0010
    4100107e:	0000                	.insn	2, 0x0000
    41001080:	00000013          	nop
    41001084:	0016                	.insn	2, 0x0016
    41001086:	0000                	.insn	2, 0x0000
    41001088:	000c                	.insn	2, 0x000c
    4100108a:	0000                	.insn	2, 0x0000
    4100108c:	0012                	.insn	2, 0x0012
    4100108e:	0000                	.insn	2, 0x0000
    41001090:	000a                	.insn	2, 0x000a
    41001092:	0000                	.insn	2, 0x0000
    41001094:	000d                	.insn	2, 0x000d
    41001096:	0000                	.insn	2, 0x0000
    41001098:	0015                	.insn	2, 0x0015
    4100109a:	0000                	.insn	2, 0x0000
    4100109c:	0019                	.insn	2, 0x0019
    4100109e:	0000                	.insn	2, 0x0000
    410010a0:	0006                	.insn	2, 0x0006
    410010a2:	0000                	.insn	2, 0x0000
    410010a4:	0008                	.insn	2, 0x0008
    410010a6:	0000                	.insn	2, 0x0000
    410010a8:	0009                	.insn	2, 0x0009
    410010aa:	0000                	.insn	2, 0x0000
    410010ac:	0005                	.insn	2, 0x0005
    410010ae:	0000                	.insn	2, 0x0000
    410010b0:	0000000b          	.insn	4, 0x000b
    410010b4:	0018                	.insn	2, 0x0018
    410010b6:	0000                	.insn	2, 0x0000
    410010b8:	0002                	.insn	2, 0x0002
    410010ba:	0000                	.insn	2, 0x0000
    410010bc:	0001                	.insn	2, 0x0001
    410010be:	0000                	.insn	2, 0x0000
    410010c0:	0000                	.insn	2, 0x0000
	...

00000000410010c4 <scheduler__test_setup_ptr>:
    410010c4:	5150                	.insn	2, 0x5150
    410010c6:	4101                	.insn	2, 0x4101
    410010c8:	0000                	.insn	2, 0x0000
	...

00000000410010cc <scheduler__test_cleanup_ptr>:
    410010cc:	ba48                	.insn	2, 0xba48
    410010ce:	4101                	.insn	2, 0x4101
    410010d0:	0000                	.insn	2, 0x0000
	...

Disassembly of section .runtime_s:

0000000041011000 <trap_handler_s__invalid_interrupt>:
    41011000:	1740006f          	j	41011174 <trap_handler_s__test_failed>

0000000041011004 <trap_handler_s__clear_all_interrupts>:
    41011004:	14401073          	csrw	sip,x0
    41011008:	10200073          	sret

000000004101100c <trap_handler_s___CLEAR_SSI>:
    4101100c:	00200293          	li	x5,2
    41011010:	1442b073          	csrc	sip,x5
    41011014:	10200073          	sret

0000000041011018 <trap_handler_s___CLEAR_MSI>:
    41011018:	00800293          	li	x5,8
    4101101c:	1442b073          	csrc	sip,x5
    41011020:	10200073          	sret

0000000041011024 <trap_handler_s___CLEAR_STI>:
    41011024:	02000293          	li	x5,32
    41011028:	1442b073          	csrc	sip,x5
    4101102c:	10200073          	sret

0000000041011030 <trap_handler_s___CLEAR_MTI>:
    41011030:	08000293          	li	x5,128
    41011034:	1442b073          	csrc	sip,x5
    41011038:	10200073          	sret

000000004101103c <trap_handler_s___CLEAR_SEI>:
    4101103c:	20000293          	li	x5,512
    41011040:	1442b073          	csrc	sip,x5
    41011044:	10200073          	sret

0000000041011048 <trap_handler_s___CLEAR_MEI>:
    41011048:	000012b7          	lui	x5,0x1
    4101104c:	8002829b          	addiw	x5,x5,-2048 # 800 <XLEN+0x7c0>
    41011050:	1442b073          	csrc	sip,x5
    41011054:	10200073          	sret

0000000041011058 <trap_handler_s___CLEAR_COI>:
    41011058:	000022b7          	lui	x5,0x2
    4101105c:	1442b073          	csrc	sip,x5
    41011060:	10200073          	sret

0000000041011064 <trap_handler_s__clear_highest_priority_interrupt>:
    41011064:	144022f3          	csrr	x5,sip
    41011068:	40500333          	neg	x6,x5
    4101106c:	0062f2b3          	and	x5,x5,x6
    41011070:	1442b073          	csrc	sip,x5
    41011074:	10200073          	sret

0000000041011078 <trap_handler_s__trap_entry>:
    41011078:	10c0006f          	j	41011184 <trap_handler_s__trap_handler>

000000004101107c <trap_handler_s__interrupt_vector_table>:
    4101107c:	f91ff06f          	j	4101100c <trap_handler_s___CLEAR_SSI>
    41011080:	f81ff06f          	j	41011000 <trap_handler_s__invalid_interrupt>
    41011084:	f95ff06f          	j	41011018 <trap_handler_s___CLEAR_MSI>
    41011088:	f79ff06f          	j	41011000 <trap_handler_s__invalid_interrupt>
    4101108c:	f99ff06f          	j	41011024 <trap_handler_s___CLEAR_STI>
    41011090:	f71ff06f          	j	41011000 <trap_handler_s__invalid_interrupt>
    41011094:	f9dff06f          	j	41011030 <trap_handler_s___CLEAR_MTI>
    41011098:	f69ff06f          	j	41011000 <trap_handler_s__invalid_interrupt>
    4101109c:	fa1ff06f          	j	4101103c <trap_handler_s___CLEAR_SEI>
    410110a0:	f61ff06f          	j	41011000 <trap_handler_s__invalid_interrupt>
    410110a4:	fa5ff06f          	j	41011048 <trap_handler_s___CLEAR_MEI>
    410110a8:	f59ff06f          	j	41011000 <trap_handler_s__invalid_interrupt>
    410110ac:	fadff06f          	j	41011058 <trap_handler_s___CLEAR_COI>
    410110b0:	f51ff06f          	j	41011000 <trap_handler_s__invalid_interrupt>
    410110b4:	f4dff06f          	j	41011000 <trap_handler_s__invalid_interrupt>
    410110b8:	fadff06f          	j	41011064 <trap_handler_s__clear_highest_priority_interrupt>
    410110bc:	fa9ff06f          	j	41011064 <trap_handler_s__clear_highest_priority_interrupt>
    410110c0:	fa5ff06f          	j	41011064 <trap_handler_s__clear_highest_priority_interrupt>
    410110c4:	fa1ff06f          	j	41011064 <trap_handler_s__clear_highest_priority_interrupt>
    410110c8:	f9dff06f          	j	41011064 <trap_handler_s__clear_highest_priority_interrupt>
    410110cc:	f99ff06f          	j	41011064 <trap_handler_s__clear_highest_priority_interrupt>
    410110d0:	f95ff06f          	j	41011064 <trap_handler_s__clear_highest_priority_interrupt>
    410110d4:	f91ff06f          	j	41011064 <trap_handler_s__clear_highest_priority_interrupt>
    410110d8:	f8dff06f          	j	41011064 <trap_handler_s__clear_highest_priority_interrupt>
    410110dc:	f89ff06f          	j	41011064 <trap_handler_s__clear_highest_priority_interrupt>
    410110e0:	f85ff06f          	j	41011064 <trap_handler_s__clear_highest_priority_interrupt>
    410110e4:	f81ff06f          	j	41011064 <trap_handler_s__clear_highest_priority_interrupt>
    410110e8:	f7dff06f          	j	41011064 <trap_handler_s__clear_highest_priority_interrupt>
    410110ec:	f79ff06f          	j	41011064 <trap_handler_s__clear_highest_priority_interrupt>
    410110f0:	f75ff06f          	j	41011064 <trap_handler_s__clear_highest_priority_interrupt>
    410110f4:	f71ff06f          	j	41011064 <trap_handler_s__clear_highest_priority_interrupt>
    410110f8:	f6dff06f          	j	41011064 <trap_handler_s__clear_highest_priority_interrupt>
    410110fc:	f69ff06f          	j	41011064 <trap_handler_s__clear_highest_priority_interrupt>
    41011100:	f65ff06f          	j	41011064 <trap_handler_s__clear_highest_priority_interrupt>
    41011104:	f61ff06f          	j	41011064 <trap_handler_s__clear_highest_priority_interrupt>
    41011108:	f5dff06f          	j	41011064 <trap_handler_s__clear_highest_priority_interrupt>
    4101110c:	f59ff06f          	j	41011064 <trap_handler_s__clear_highest_priority_interrupt>
    41011110:	f55ff06f          	j	41011064 <trap_handler_s__clear_highest_priority_interrupt>
    41011114:	f51ff06f          	j	41011064 <trap_handler_s__clear_highest_priority_interrupt>
    41011118:	f4dff06f          	j	41011064 <trap_handler_s__clear_highest_priority_interrupt>
    4101111c:	f49ff06f          	j	41011064 <trap_handler_s__clear_highest_priority_interrupt>
    41011120:	f45ff06f          	j	41011064 <trap_handler_s__clear_highest_priority_interrupt>
    41011124:	f41ff06f          	j	41011064 <trap_handler_s__clear_highest_priority_interrupt>
    41011128:	f3dff06f          	j	41011064 <trap_handler_s__clear_highest_priority_interrupt>
    4101112c:	f39ff06f          	j	41011064 <trap_handler_s__clear_highest_priority_interrupt>
    41011130:	f35ff06f          	j	41011064 <trap_handler_s__clear_highest_priority_interrupt>
    41011134:	f31ff06f          	j	41011064 <trap_handler_s__clear_highest_priority_interrupt>
    41011138:	f2dff06f          	j	41011064 <trap_handler_s__clear_highest_priority_interrupt>
    4101113c:	f29ff06f          	j	41011064 <trap_handler_s__clear_highest_priority_interrupt>
    41011140:	f25ff06f          	j	41011064 <trap_handler_s__clear_highest_priority_interrupt>
    41011144:	f21ff06f          	j	41011064 <trap_handler_s__clear_highest_priority_interrupt>
    41011148:	f1dff06f          	j	41011064 <trap_handler_s__clear_highest_priority_interrupt>
    4101114c:	f19ff06f          	j	41011064 <trap_handler_s__clear_highest_priority_interrupt>
    41011150:	f15ff06f          	j	41011064 <trap_handler_s__clear_highest_priority_interrupt>
    41011154:	f11ff06f          	j	41011064 <trap_handler_s__clear_highest_priority_interrupt>
    41011158:	f0dff06f          	j	41011064 <trap_handler_s__clear_highest_priority_interrupt>
    4101115c:	f09ff06f          	j	41011064 <trap_handler_s__clear_highest_priority_interrupt>
    41011160:	f05ff06f          	j	41011064 <trap_handler_s__clear_highest_priority_interrupt>
    41011164:	f01ff06f          	j	41011064 <trap_handler_s__clear_highest_priority_interrupt>
    41011168:	efdff06f          	j	41011064 <trap_handler_s__clear_highest_priority_interrupt>
    4101116c:	ef9ff06f          	j	41011064 <trap_handler_s__clear_highest_priority_interrupt>
    41011170:	ef5ff06f          	j	41011064 <trap_handler_s__clear_highest_priority_interrupt>

0000000041011174 <trap_handler_s__test_failed>:
    41011174:	00f00f9b          	addiw	x31,x0,15
    41011178:	01cf9f93          	slli	x31,x31,0x1c
    4101117c:	002f8f93          	addi	x31,x31,2
    41011180:	00000073          	ecall

0000000041011184 <trap_handler_s__trap_handler>:
    41011184:	142022f3          	csrr	x5,scause
    41011188:	fff0031b          	addiw	x6,x0,-1
    4101118c:	03f31313          	slli	x6,x6,0x3f
    41011190:	00537333          	and	x6,x6,x5
    41011194:	02030263          	beqz	x6,410111b8 <trap_handler_s__exception_path>

0000000041011198 <trap_handler_s__interrupt_handler>:
    41011198:	fff0031b          	addiw	x6,x0,-1
    4101119c:	03f31313          	slli	x6,x6,0x3f
    410111a0:	0062c2b3          	xor	x5,x5,x6
    410111a4:	00000317          	auipc	x6,0x0
    410111a8:	ed430313          	addi	x6,x6,-300 # 41011078 <trap_handler_s__trap_entry>
    410111ac:	00229293          	slli	x5,x5,0x2
    410111b0:	005302b3          	add	x5,x6,x5
    410111b4:	00028067          	jr	x5 # 2000 <mem3>

00000000410111b8 <trap_handler_s__exception_path>:
    410111b8:	14021273          	csrrw	x4,sscratch,x4
    410111bc:	00000297          	auipc	x5,0x0
    410111c0:	0cc28293          	addi	x5,x5,204 # 41011288 <trap_handler_s__trap_panic>
    410111c4:	10529073          	csrw	stvec,x5
    410111c8:	0040006f          	j	410111cc <trap_handler_s__excp_entry>

00000000410111cc <trap_handler_s__excp_entry>:
    410111cc:	14202373          	csrr	x6,scause
    410111d0:	00800293          	li	x5,8
    410111d4:	00534863          	blt	x6,x5,410111e4 <trap_handler_s__check_exception_label>
    410111d8:	00b00293          	li	x5,11
    410111dc:	0062c463          	blt	x5,x6,410111e4 <trap_handler_s__check_exception_label>
    410111e0:	0a80006f          	j	41011288 <trap_handler_s__trap_panic>

00000000410111e4 <trap_handler_s__check_exception_label>:
    410111e4:	04623c23          	sd	x6,88(x4) # 58 <XLEN+0x18>
    410111e8:	141022f3          	csrr	x5,sepc
    410111ec:	02523423          	sd	x5,40(x4) # 28 <SECURE_ACCESS_PROBABILITY+0xa>
    410111f0:	01820283          	lb	x5,24(x4) # 18 <STORE_GUEST_PAGE_FAULT+0x1>
    410111f4:	00029863          	bnez	x5,41011204 <trap_handler_s__check_excp>
    410111f8:	00128293          	addi	x5,x5,1
    410111fc:	00520c23          	sb	x5,24(x4) # 18 <STORE_GUEST_PAGE_FAULT+0x1>
    41011200:	05c0006f          	j	4101125c <trap_handler_s__ecall_from_machine>

0000000041011204 <trap_handler_s__check_excp>:
    41011204:	06823283          	ld	x5,104(x4) # 68 <XLEN+0x28>
    41011208:	06023423          	sd	x0,104(x4) # 68 <XLEN+0x28>
    4101120c:	00028663          	beqz	x5,41011218 <trap_handler_s__skip_mode_check>
    41011210:	00300393          	li	x7,3
    41011214:	f67290e3          	bne	x5,x7,41011174 <trap_handler_s__test_failed>

0000000041011218 <trap_handler_s__skip_mode_check>:
    41011218:	05023283          	ld	x5,80(x4) # 50 <XLEN+0x10>
    4101121c:	04023823          	sd	x0,80(x4) # 50 <XLEN+0x10>
    41011220:	f4531ae3          	bne	x6,x5,41011174 <trap_handler_s__test_failed>
    41011224:	03823283          	ld	x5,56(x4) # 38 <SECURE_ACCESS_PROBABILITY+0x1a>
    41011228:	02023c23          	sd	x0,56(x4) # 38 <SECURE_ACCESS_PROBABILITY+0x1a>
    4101122c:	02029663          	bnez	x5,41011258 <trap_handler_s__skip_nonzero_tval_check>
    41011230:	02023303          	ld	x6,32(x4) # 20 <SECURE_ACCESS_PROBABILITY+0x2>
    41011234:	02023023          	sd	x0,32(x4) # 20 <SECURE_ACCESS_PROBABILITY+0x2>
    41011238:	02823283          	ld	x5,40(x4) # 28 <SECURE_ACCESS_PROBABILITY+0xa>
    4101123c:	02023423          	sd	x0,40(x4) # 28 <SECURE_ACCESS_PROBABILITY+0xa>
    41011240:	f2531ae3          	bne	x6,x5,41011174 <trap_handler_s__test_failed>
    41011244:	04023283          	ld	x5,64(x4) # 40 <XLEN>
    41011248:	04023023          	sd	x0,64(x4) # 40 <XLEN>
    4101124c:	00028663          	beqz	x5,41011258 <trap_handler_s__skip_nonzero_tval_check>

0000000041011250 <trap_handler_s__nonzero_tval_check>:
    41011250:	14302373          	csrr	x6,stval
    41011254:	f25310e3          	bne	x6,x5,41011174 <trap_handler_s__test_failed>

0000000041011258 <trap_handler_s__skip_nonzero_tval_check>:
    41011258:	0040006f          	j	4101125c <trap_handler_s__ecall_from_machine>

000000004101125c <trap_handler_s__ecall_from_machine>:
    4101125c:	03023283          	ld	x5,48(x4) # 30 <SECURE_ACCESS_PROBABILITY+0x12>
    41011260:	02023823          	sd	x0,48(x4) # 30 <SECURE_ACCESS_PROBABILITY+0x12>
    41011264:	07023303          	ld	x6,112(x4) # 70 <XLEN+0x30>
    41011268:	06023823          	sd	x0,112(x4) # 70 <XLEN+0x30>
    4101126c:	00031463          	bnez	x6,41011274 <trap_handler_s__skip_xepc_write>
    41011270:	14129073          	csrw	sepc,x5

0000000041011274 <trap_handler_s__skip_xepc_write>:
    41011274:	00000317          	auipc	x6,0x0
    41011278:	e0430313          	addi	x6,x6,-508 # 41011078 <trap_handler_s__trap_entry>
    4101127c:	10531073          	csrw	stvec,x6
    41011280:	14021273          	csrrw	x4,sscratch,x4
    41011284:	10200073          	sret

0000000041011288 <trap_handler_s__trap_panic>:
    41011288:	00000193          	li	x3,0
    4101128c:	00f00f9b          	addiw	x31,x0,15
    41011290:	01cf9f93          	slli	x31,x31,0x1c
    41011294:	002f8f93          	addi	x31,x31,2
    41011298:	00000073          	ecall

000000004101129c <trap_handler_hs__invalid_interrupt>:
    4101129c:	1740006f          	j	41011410 <trap_handler_hs__test_failed>

00000000410112a0 <trap_handler_hs__clear_all_interrupts>:
    410112a0:	14401073          	csrw	sip,x0
    410112a4:	10200073          	sret

00000000410112a8 <trap_handler_hs___CLEAR_SSI>:
    410112a8:	00200293          	li	x5,2
    410112ac:	1442b073          	csrc	sip,x5
    410112b0:	10200073          	sret

00000000410112b4 <trap_handler_hs___CLEAR_MSI>:
    410112b4:	00800293          	li	x5,8
    410112b8:	1442b073          	csrc	sip,x5
    410112bc:	10200073          	sret

00000000410112c0 <trap_handler_hs___CLEAR_STI>:
    410112c0:	02000293          	li	x5,32
    410112c4:	1442b073          	csrc	sip,x5
    410112c8:	10200073          	sret

00000000410112cc <trap_handler_hs___CLEAR_MTI>:
    410112cc:	08000293          	li	x5,128
    410112d0:	1442b073          	csrc	sip,x5
    410112d4:	10200073          	sret

00000000410112d8 <trap_handler_hs___CLEAR_SEI>:
    410112d8:	20000293          	li	x5,512
    410112dc:	1442b073          	csrc	sip,x5
    410112e0:	10200073          	sret

00000000410112e4 <trap_handler_hs___CLEAR_MEI>:
    410112e4:	000012b7          	lui	x5,0x1
    410112e8:	8002829b          	addiw	x5,x5,-2048 # 800 <XLEN+0x7c0>
    410112ec:	1442b073          	csrc	sip,x5
    410112f0:	10200073          	sret

00000000410112f4 <trap_handler_hs___CLEAR_COI>:
    410112f4:	000022b7          	lui	x5,0x2
    410112f8:	1442b073          	csrc	sip,x5
    410112fc:	10200073          	sret

0000000041011300 <trap_handler_hs__clear_highest_priority_interrupt>:
    41011300:	144022f3          	csrr	x5,sip
    41011304:	40500333          	neg	x6,x5
    41011308:	0062f2b3          	and	x5,x5,x6
    4101130c:	1442b073          	csrc	sip,x5
    41011310:	10200073          	sret

0000000041011314 <trap_handler_hs__trap_entry>:
    41011314:	10c0006f          	j	41011420 <trap_handler_hs__trap_handler>

0000000041011318 <trap_handler_hs__interrupt_vector_table>:
    41011318:	f91ff06f          	j	410112a8 <trap_handler_hs___CLEAR_SSI>
    4101131c:	f81ff06f          	j	4101129c <trap_handler_hs__invalid_interrupt>
    41011320:	f95ff06f          	j	410112b4 <trap_handler_hs___CLEAR_MSI>
    41011324:	f79ff06f          	j	4101129c <trap_handler_hs__invalid_interrupt>
    41011328:	f99ff06f          	j	410112c0 <trap_handler_hs___CLEAR_STI>
    4101132c:	f71ff06f          	j	4101129c <trap_handler_hs__invalid_interrupt>
    41011330:	f9dff06f          	j	410112cc <trap_handler_hs___CLEAR_MTI>
    41011334:	f69ff06f          	j	4101129c <trap_handler_hs__invalid_interrupt>
    41011338:	fa1ff06f          	j	410112d8 <trap_handler_hs___CLEAR_SEI>
    4101133c:	f61ff06f          	j	4101129c <trap_handler_hs__invalid_interrupt>
    41011340:	fa5ff06f          	j	410112e4 <trap_handler_hs___CLEAR_MEI>
    41011344:	f59ff06f          	j	4101129c <trap_handler_hs__invalid_interrupt>
    41011348:	fadff06f          	j	410112f4 <trap_handler_hs___CLEAR_COI>
    4101134c:	f51ff06f          	j	4101129c <trap_handler_hs__invalid_interrupt>
    41011350:	f4dff06f          	j	4101129c <trap_handler_hs__invalid_interrupt>
    41011354:	fadff06f          	j	41011300 <trap_handler_hs__clear_highest_priority_interrupt>
    41011358:	fa9ff06f          	j	41011300 <trap_handler_hs__clear_highest_priority_interrupt>
    4101135c:	fa5ff06f          	j	41011300 <trap_handler_hs__clear_highest_priority_interrupt>
    41011360:	fa1ff06f          	j	41011300 <trap_handler_hs__clear_highest_priority_interrupt>
    41011364:	f9dff06f          	j	41011300 <trap_handler_hs__clear_highest_priority_interrupt>
    41011368:	f99ff06f          	j	41011300 <trap_handler_hs__clear_highest_priority_interrupt>
    4101136c:	f95ff06f          	j	41011300 <trap_handler_hs__clear_highest_priority_interrupt>
    41011370:	f91ff06f          	j	41011300 <trap_handler_hs__clear_highest_priority_interrupt>
    41011374:	f8dff06f          	j	41011300 <trap_handler_hs__clear_highest_priority_interrupt>
    41011378:	f89ff06f          	j	41011300 <trap_handler_hs__clear_highest_priority_interrupt>
    4101137c:	f85ff06f          	j	41011300 <trap_handler_hs__clear_highest_priority_interrupt>
    41011380:	f81ff06f          	j	41011300 <trap_handler_hs__clear_highest_priority_interrupt>
    41011384:	f7dff06f          	j	41011300 <trap_handler_hs__clear_highest_priority_interrupt>
    41011388:	f79ff06f          	j	41011300 <trap_handler_hs__clear_highest_priority_interrupt>
    4101138c:	f75ff06f          	j	41011300 <trap_handler_hs__clear_highest_priority_interrupt>
    41011390:	f71ff06f          	j	41011300 <trap_handler_hs__clear_highest_priority_interrupt>
    41011394:	f6dff06f          	j	41011300 <trap_handler_hs__clear_highest_priority_interrupt>
    41011398:	f69ff06f          	j	41011300 <trap_handler_hs__clear_highest_priority_interrupt>
    4101139c:	f65ff06f          	j	41011300 <trap_handler_hs__clear_highest_priority_interrupt>
    410113a0:	f61ff06f          	j	41011300 <trap_handler_hs__clear_highest_priority_interrupt>
    410113a4:	f5dff06f          	j	41011300 <trap_handler_hs__clear_highest_priority_interrupt>
    410113a8:	f59ff06f          	j	41011300 <trap_handler_hs__clear_highest_priority_interrupt>
    410113ac:	f55ff06f          	j	41011300 <trap_handler_hs__clear_highest_priority_interrupt>
    410113b0:	f51ff06f          	j	41011300 <trap_handler_hs__clear_highest_priority_interrupt>
    410113b4:	f4dff06f          	j	41011300 <trap_handler_hs__clear_highest_priority_interrupt>
    410113b8:	f49ff06f          	j	41011300 <trap_handler_hs__clear_highest_priority_interrupt>
    410113bc:	f45ff06f          	j	41011300 <trap_handler_hs__clear_highest_priority_interrupt>
    410113c0:	f41ff06f          	j	41011300 <trap_handler_hs__clear_highest_priority_interrupt>
    410113c4:	f3dff06f          	j	41011300 <trap_handler_hs__clear_highest_priority_interrupt>
    410113c8:	f39ff06f          	j	41011300 <trap_handler_hs__clear_highest_priority_interrupt>
    410113cc:	f35ff06f          	j	41011300 <trap_handler_hs__clear_highest_priority_interrupt>
    410113d0:	f31ff06f          	j	41011300 <trap_handler_hs__clear_highest_priority_interrupt>
    410113d4:	f2dff06f          	j	41011300 <trap_handler_hs__clear_highest_priority_interrupt>
    410113d8:	f29ff06f          	j	41011300 <trap_handler_hs__clear_highest_priority_interrupt>
    410113dc:	f25ff06f          	j	41011300 <trap_handler_hs__clear_highest_priority_interrupt>
    410113e0:	f21ff06f          	j	41011300 <trap_handler_hs__clear_highest_priority_interrupt>
    410113e4:	f1dff06f          	j	41011300 <trap_handler_hs__clear_highest_priority_interrupt>
    410113e8:	f19ff06f          	j	41011300 <trap_handler_hs__clear_highest_priority_interrupt>
    410113ec:	f15ff06f          	j	41011300 <trap_handler_hs__clear_highest_priority_interrupt>
    410113f0:	f11ff06f          	j	41011300 <trap_handler_hs__clear_highest_priority_interrupt>
    410113f4:	f0dff06f          	j	41011300 <trap_handler_hs__clear_highest_priority_interrupt>
    410113f8:	f09ff06f          	j	41011300 <trap_handler_hs__clear_highest_priority_interrupt>
    410113fc:	f05ff06f          	j	41011300 <trap_handler_hs__clear_highest_priority_interrupt>
    41011400:	f01ff06f          	j	41011300 <trap_handler_hs__clear_highest_priority_interrupt>
    41011404:	efdff06f          	j	41011300 <trap_handler_hs__clear_highest_priority_interrupt>
    41011408:	ef9ff06f          	j	41011300 <trap_handler_hs__clear_highest_priority_interrupt>
    4101140c:	ef5ff06f          	j	41011300 <trap_handler_hs__clear_highest_priority_interrupt>

0000000041011410 <trap_handler_hs__test_failed>:
    41011410:	00f00f9b          	addiw	x31,x0,15
    41011414:	01cf9f93          	slli	x31,x31,0x1c
    41011418:	002f8f93          	addi	x31,x31,2
    4101141c:	00000073          	ecall

0000000041011420 <trap_handler_hs__trap_handler>:
    41011420:	142022f3          	csrr	x5,scause
    41011424:	fff0031b          	addiw	x6,x0,-1
    41011428:	03f31313          	slli	x6,x6,0x3f
    4101142c:	00537333          	and	x6,x6,x5
    41011430:	02030263          	beqz	x6,41011454 <trap_handler_hs__exception_path>

0000000041011434 <trap_handler_hs__interrupt_handler>:
    41011434:	fff0031b          	addiw	x6,x0,-1
    41011438:	03f31313          	slli	x6,x6,0x3f
    4101143c:	0062c2b3          	xor	x5,x5,x6
    41011440:	00000317          	auipc	x6,0x0
    41011444:	ed430313          	addi	x6,x6,-300 # 41011314 <trap_handler_hs__trap_entry>
    41011448:	00229293          	slli	x5,x5,0x2
    4101144c:	005302b3          	add	x5,x6,x5
    41011450:	00028067          	jr	x5 # 2000 <mem3>

0000000041011454 <trap_handler_hs__exception_path>:
    41011454:	14021273          	csrrw	x4,sscratch,x4
    41011458:	00000297          	auipc	x5,0x0
    4101145c:	10428293          	addi	x5,x5,260 # 4101155c <trap_handler_hs__trap_panic>
    41011460:	10529073          	csrw	stvec,x5
    41011464:	0040006f          	j	41011468 <trap_handler_hs__excp_entry>

0000000041011468 <trap_handler_hs__excp_entry>:
    41011468:	14202373          	csrr	x6,scause
    4101146c:	00800293          	li	x5,8
    41011470:	00534863          	blt	x6,x5,41011480 <trap_handler_hs__check_exception_label>
    41011474:	00b00293          	li	x5,11
    41011478:	0062c463          	blt	x5,x6,41011480 <trap_handler_hs__check_exception_label>
    4101147c:	0e00006f          	j	4101155c <trap_handler_hs__trap_panic>

0000000041011480 <trap_handler_hs__check_exception_label>:
    41011480:	04623c23          	sd	x6,88(x4) # 58 <XLEN+0x18>
    41011484:	141022f3          	csrr	x5,sepc
    41011488:	02523423          	sd	x5,40(x4) # 28 <SECURE_ACCESS_PROBABILITY+0xa>
    4101148c:	01820283          	lb	x5,24(x4) # 18 <STORE_GUEST_PAGE_FAULT+0x1>
    41011490:	00029863          	bnez	x5,410114a0 <trap_handler_hs__check_excp>
    41011494:	00128293          	addi	x5,x5,1
    41011498:	00520c23          	sb	x5,24(x4) # 18 <STORE_GUEST_PAGE_FAULT+0x1>
    4101149c:	0940006f          	j	41011530 <trap_handler_hs__ecall_from_machine>

00000000410114a0 <trap_handler_hs__check_excp>:
    410114a0:	06823283          	ld	x5,104(x4) # 68 <XLEN+0x28>
    410114a4:	06023423          	sd	x0,104(x4) # 68 <XLEN+0x28>
    410114a8:	00028663          	beqz	x5,410114b4 <trap_handler_hs__skip_mode_check>
    410114ac:	00200393          	li	x7,2
    410114b0:	f67290e3          	bne	x5,x7,41011410 <trap_handler_hs__test_failed>

00000000410114b4 <trap_handler_hs__skip_mode_check>:
    410114b4:	05023283          	ld	x5,80(x4) # 50 <XLEN+0x10>
    410114b8:	04023823          	sd	x0,80(x4) # 50 <XLEN+0x10>
    410114bc:	f4531ae3          	bne	x6,x5,41011410 <trap_handler_hs__test_failed>
    410114c0:	03823283          	ld	x5,56(x4) # 38 <SECURE_ACCESS_PROBABILITY+0x1a>
    410114c4:	02023c23          	sd	x0,56(x4) # 38 <SECURE_ACCESS_PROBABILITY+0x1a>
    410114c8:	06029263          	bnez	x5,4101152c <trap_handler_hs__skip_gva_check>
    410114cc:	02023303          	ld	x6,32(x4) # 20 <SECURE_ACCESS_PROBABILITY+0x2>
    410114d0:	02023023          	sd	x0,32(x4) # 20 <SECURE_ACCESS_PROBABILITY+0x2>
    410114d4:	02823283          	ld	x5,40(x4) # 28 <SECURE_ACCESS_PROBABILITY+0xa>
    410114d8:	02023423          	sd	x0,40(x4) # 28 <SECURE_ACCESS_PROBABILITY+0xa>
    410114dc:	f2531ae3          	bne	x6,x5,41011410 <trap_handler_hs__test_failed>
    410114e0:	04023283          	ld	x5,64(x4) # 40 <XLEN>
    410114e4:	04023023          	sd	x0,64(x4) # 40 <XLEN>
    410114e8:	00028663          	beqz	x5,410114f4 <trap_handler_hs__skip_nonzero_tval_check>

00000000410114ec <trap_handler_hs__nonzero_tval_check>:
    410114ec:	14302373          	csrr	x6,stval
    410114f0:	f25310e3          	bne	x6,x5,41011410 <trap_handler_hs__test_failed>

00000000410114f4 <trap_handler_hs__skip_nonzero_tval_check>:
    410114f4:	04823283          	ld	x5,72(x4) # 48 <XLEN+0x8>
    410114f8:	04023423          	sd	x0,72(x4) # 48 <XLEN+0x8>
    410114fc:	00028663          	beqz	x5,41011508 <trap_handler_hs__skip_nonzero_htval_check>

0000000041011500 <trap_handler_hs__nonzero_htval_check>:
    41011500:	64302373          	csrr	x6,htval
    41011504:	f05316e3          	bne	x6,x5,41011410 <trap_handler_hs__test_failed>

0000000041011508 <trap_handler_hs__skip_nonzero_htval_check>:
    41011508:	06023283          	ld	x5,96(x4) # 60 <XLEN+0x20>
    4101150c:	06023023          	sd	x0,96(x4) # 60 <XLEN+0x20>
    41011510:	00028e63          	beqz	x5,4101152c <trap_handler_hs__skip_gva_check>

0000000041011514 <trap_handler_hs__gva_check>:
    41011514:	60002373          	csrr	x6,hstatus
    41011518:	00635313          	srli	x6,x6,0x6
    4101151c:	00137313          	andi	x6,x6,1
    41011520:	ee0308e3          	beqz	x6,41011410 <trap_handler_hs__test_failed>
    41011524:	04000313          	li	x6,64
    41011528:	60033073          	csrc	hstatus,x6

000000004101152c <trap_handler_hs__skip_gva_check>:
    4101152c:	0040006f          	j	41011530 <trap_handler_hs__ecall_from_machine>

0000000041011530 <trap_handler_hs__ecall_from_machine>:
    41011530:	03023283          	ld	x5,48(x4) # 30 <SECURE_ACCESS_PROBABILITY+0x12>
    41011534:	02023823          	sd	x0,48(x4) # 30 <SECURE_ACCESS_PROBABILITY+0x12>
    41011538:	07023303          	ld	x6,112(x4) # 70 <XLEN+0x30>
    4101153c:	06023823          	sd	x0,112(x4) # 70 <XLEN+0x30>
    41011540:	00031463          	bnez	x6,41011548 <trap_handler_hs__skip_xepc_write>
    41011544:	14129073          	csrw	sepc,x5

0000000041011548 <trap_handler_hs__skip_xepc_write>:
    41011548:	00000317          	auipc	x6,0x0
    4101154c:	dcc30313          	addi	x6,x6,-564 # 41011314 <trap_handler_hs__trap_entry>
    41011550:	10531073          	csrw	stvec,x6
    41011554:	14021273          	csrrw	x4,sscratch,x4
    41011558:	10200073          	sret

000000004101155c <trap_handler_hs__trap_panic>:
    4101155c:	00000193          	li	x3,0
    41011560:	00f00f9b          	addiw	x31,x0,15
    41011564:	01cf9f93          	slli	x31,x31,0x1c
    41011568:	002f8f93          	addi	x31,x31,2
    4101156c:	00000073          	ecall

Disassembly of section .code:

0000000041015120 <passed>:
    41015120:	00f00f9b          	addiw	x31,x0,15
    41015124:	01cf9f93          	slli	x31,x31,0x1c
    41015128:	001f8f93          	addi	x31,x31,1
    4101512c:	00000073          	ecall

0000000041015130 <failed>:
    41015130:	00f00f9b          	addiw	x31,x0,15
    41015134:	01cf9f93          	slli	x31,x31,0x1c
    41015138:	002f8f93          	addi	x31,x31,2
    4101513c:	00000073          	ecall

0000000041015140 <end_test>:
    41015140:	00f00f9b          	addiw	x31,x0,15
    41015144:	01cf9f93          	slli	x31,x31,0x1c
    41015148:	003f8f93          	addi	x31,x31,3
    4101514c:	00000073          	ecall

0000000041015150 <test_setup>:
    41015150:	00f00f9b          	addiw	x31,x0,15
    41015154:	01cf9f93          	slli	x31,x31,0x1c
    41015158:	001f8f93          	addi	x31,x31,1
    4101515c:	00000073          	ecall

0000000041015160 <SID_HEXCEP_05>:
    41015160:	0006c137          	lui	x2,0x6c
    41015164:	069cefb7          	lui	x31,0x69ce
    41015168:	0b0f8f9b          	addiw	x31,x31,176 # 69ce0b0 <machine_csr_jump_table_flags>
    4101516c:	00100f13          	li	x30,1
    41015170:	01efb023          	sd	x30,0(x31)
    41015174:	000f0fb7          	lui	x31,0xf0
    41015178:	001f8f9b          	addiw	x31,x31,1 # f0001 <SID_HEXCEP_09_hinval_vvma_vu_stack+0x25001>
    4101517c:	00cf9f93          	slli	x31,x31,0xc
    41015180:	005f8f93          	addi	x31,x31,5
    41015184:	00000073          	ecall
    41015188:	00713023          	sd	x7,0(x2) # 6c000 <tp_csr_storage>
    4101518c:	00843137          	lui	x2,0x843
    41015190:	000012b7          	lui	x5,0x1
    41015194:	00510133          	add	x2,x2,x5
    41015198:	ff017113          	andi	x2,x2,-16
    4101519c:	001003b7          	lui	x7,0x100
    410151a0:	069cefb7          	lui	x31,0x69ce
    410151a4:	0b0f8f9b          	addiw	x31,x31,176 # 69ce0b0 <machine_csr_jump_table_flags>
    410151a8:	00200f13          	li	x30,2
    410151ac:	01efb023          	sd	x30,0(x31)
    410151b0:	000f0fb7          	lui	x31,0xf0
    410151b4:	001f8f9b          	addiw	x31,x31,1 # f0001 <SID_HEXCEP_09_hinval_vvma_vu_stack+0x25001>
    410151b8:	00cf9f93          	slli	x31,x31,0xc
    410151bc:	005f8f93          	addi	x31,x31,5
    410151c0:	00000073          	ecall
    410151c4:	00000493          	li	x9,0
    410151c8:	40a44237          	lui	x4,0x40a44
    410151cc:	01600e13          	li	x28,22
    410151d0:	05c23823          	sd	x28,80(x4) # 40a44050 <check_excp_expected_cause>
    410151d4:	00000e17          	auipc	x28,0x0
    410151d8:	04ce0e13          	addi	x28,x28,76 # 41015220 <fault_label_0>
    410151dc:	03c23023          	sd	x28,32(x4) # 20 <SECURE_ACCESS_PROBABILITY+0x2>
    410151e0:	00000e13          	li	x28,0
    410151e4:	05c23023          	sd	x28,64(x4) # 40 <XLEN>
    410151e8:	00000e13          	li	x28,0
    410151ec:	05c23423          	sd	x28,72(x4) # 48 <XLEN+0x8>
    410151f0:	00000e17          	auipc	x28,0x0
    410151f4:	044e0e13          	addi	x28,x28,68 # 41015234 <excp_return_label_0>
    410151f8:	03c23823          	sd	x28,48(x4) # 30 <SECURE_ACCESS_PROBABILITY+0x12>
    410151fc:	00000e13          	li	x28,0
    41015200:	03c23c23          	sd	x28,56(x4) # 38 <SECURE_ACCESS_PROBABILITY+0x1a>
    41015204:	00000e13          	li	x28,0
    41015208:	07c23023          	sd	x28,96(x4) # 60 <XLEN+0x20>
    4101520c:	00000e13          	li	x28,0
    41015210:	07c23423          	sd	x28,104(x4) # 68 <XLEN+0x28>
    41015214:	00000e13          	li	x28,0
    41015218:	07c23823          	sd	x28,112(x4) # 70 <XLEN+0x30>
    4101521c:	00000513          	li	x10,0

0000000041015220 <fault_label_0>:
    41015220:	200525f3          	csrrs	x11,vsstatus,x10
    41015224:	069ceab7          	lui	x21,0x69ce
    41015228:	008a8a9b          	addiw	x21,x21,8 # 69ce008 <failed_addr>
    4101522c:	000ab783          	ld	x15,0(x21)
    41015230:	00078067          	jr	x15

0000000041015234 <excp_return_label_0>:
    41015234:	40a44237          	lui	x4,0x40a44
    41015238:	01600e13          	li	x28,22
    4101523c:	05c23823          	sd	x28,80(x4) # 40a44050 <check_excp_expected_cause>
    41015240:	00000e17          	auipc	x28,0x0
    41015244:	048e0e13          	addi	x28,x28,72 # 41015288 <fault_label_1>
    41015248:	03c23023          	sd	x28,32(x4) # 20 <SECURE_ACCESS_PROBABILITY+0x2>
    4101524c:	00000e13          	li	x28,0
    41015250:	05c23023          	sd	x28,64(x4) # 40 <XLEN>
    41015254:	00000e13          	li	x28,0
    41015258:	05c23423          	sd	x28,72(x4) # 48 <XLEN+0x8>
    4101525c:	00000e17          	auipc	x28,0x0
    41015260:	040e0e13          	addi	x28,x28,64 # 4101529c <excp_return_label_1>
    41015264:	03c23823          	sd	x28,48(x4) # 30 <SECURE_ACCESS_PROBABILITY+0x12>
    41015268:	00000e13          	li	x28,0
    4101526c:	03c23c23          	sd	x28,56(x4) # 38 <SECURE_ACCESS_PROBABILITY+0x1a>
    41015270:	00000e13          	li	x28,0
    41015274:	07c23023          	sd	x28,96(x4) # 60 <XLEN+0x20>
    41015278:	00000e13          	li	x28,0
    4101527c:	07c23423          	sd	x28,104(x4) # 68 <XLEN+0x28>
    41015280:	00000e13          	li	x28,0
    41015284:	07c23823          	sd	x28,112(x4) # 70 <XLEN+0x30>

0000000041015288 <fault_label_1>:
    41015288:	20049af3          	csrrw	x21,vsstatus,x9
    4101528c:	069ce537          	lui	x10,0x69ce
    41015290:	0085051b          	addiw	x10,x10,8 # 69ce008 <failed_addr>
    41015294:	00053a03          	ld	x20,0(x10)
    41015298:	000a0067          	jr	x20

000000004101529c <excp_return_label_1>:
    4101529c:	40a44237          	lui	x4,0x40a44
    410152a0:	01600e13          	li	x28,22
    410152a4:	05c23823          	sd	x28,80(x4) # 40a44050 <check_excp_expected_cause>
    410152a8:	00000e17          	auipc	x28,0x0
    410152ac:	04ce0e13          	addi	x28,x28,76 # 410152f4 <fault_label_2>
    410152b0:	03c23023          	sd	x28,32(x4) # 20 <SECURE_ACCESS_PROBABILITY+0x2>
    410152b4:	00000e13          	li	x28,0
    410152b8:	05c23023          	sd	x28,64(x4) # 40 <XLEN>
    410152bc:	00000e13          	li	x28,0
    410152c0:	05c23423          	sd	x28,72(x4) # 48 <XLEN+0x8>
    410152c4:	00000e17          	auipc	x28,0x0
    410152c8:	044e0e13          	addi	x28,x28,68 # 41015308 <excp_return_label_2>
    410152cc:	03c23823          	sd	x28,48(x4) # 30 <SECURE_ACCESS_PROBABILITY+0x12>
    410152d0:	00000e13          	li	x28,0
    410152d4:	03c23c23          	sd	x28,56(x4) # 38 <SECURE_ACCESS_PROBABILITY+0x1a>
    410152d8:	00000e13          	li	x28,0
    410152dc:	07c23023          	sd	x28,96(x4) # 60 <XLEN+0x20>
    410152e0:	00000e13          	li	x28,0
    410152e4:	07c23423          	sd	x28,104(x4) # 68 <XLEN+0x28>
    410152e8:	00000e13          	li	x28,0
    410152ec:	07c23823          	sd	x28,112(x4) # 70 <XLEN+0x30>
    410152f0:	00000993          	li	x19,0

00000000410152f4 <fault_label_2>:
    410152f4:	2449a5f3          	csrrs	x11,vsip,x19
    410152f8:	069ce8b7          	lui	x17,0x69ce
    410152fc:	0088889b          	addiw	x17,x17,8 # 69ce008 <failed_addr>
    41015300:	0008ba83          	ld	x21,0(x17)
    41015304:	000a8067          	jr	x21

0000000041015308 <excp_return_label_2>:
    41015308:	40a44237          	lui	x4,0x40a44
    4101530c:	01600e13          	li	x28,22
    41015310:	05c23823          	sd	x28,80(x4) # 40a44050 <check_excp_expected_cause>
    41015314:	00000e17          	auipc	x28,0x0
    41015318:	048e0e13          	addi	x28,x28,72 # 4101535c <fault_label_3>
    4101531c:	03c23023          	sd	x28,32(x4) # 20 <SECURE_ACCESS_PROBABILITY+0x2>
    41015320:	00000e13          	li	x28,0
    41015324:	05c23023          	sd	x28,64(x4) # 40 <XLEN>
    41015328:	00000e13          	li	x28,0
    4101532c:	05c23423          	sd	x28,72(x4) # 48 <XLEN+0x8>
    41015330:	00000e17          	auipc	x28,0x0
    41015334:	040e0e13          	addi	x28,x28,64 # 41015370 <excp_return_label_3>
    41015338:	03c23823          	sd	x28,48(x4) # 30 <SECURE_ACCESS_PROBABILITY+0x12>
    4101533c:	00000e13          	li	x28,0
    41015340:	03c23c23          	sd	x28,56(x4) # 38 <SECURE_ACCESS_PROBABILITY+0x1a>
    41015344:	00000e13          	li	x28,0
    41015348:	07c23023          	sd	x28,96(x4) # 60 <XLEN+0x20>
    4101534c:	00000e13          	li	x28,0
    41015350:	07c23423          	sd	x28,104(x4) # 68 <XLEN+0x28>
    41015354:	00000e13          	li	x28,0
    41015358:	07c23823          	sd	x28,112(x4) # 70 <XLEN+0x30>

000000004101535c <fault_label_3>:
    4101535c:	24449473          	csrrw	x8,vsip,x9
    41015360:	069ce537          	lui	x10,0x69ce
    41015364:	0085051b          	addiw	x10,x10,8 # 69ce008 <failed_addr>
    41015368:	00053883          	ld	x17,0(x10)
    4101536c:	00088067          	jr	x17

0000000041015370 <excp_return_label_3>:
    41015370:	40a44237          	lui	x4,0x40a44
    41015374:	01600e13          	li	x28,22
    41015378:	05c23823          	sd	x28,80(x4) # 40a44050 <check_excp_expected_cause>
    4101537c:	00000e17          	auipc	x28,0x0
    41015380:	04ce0e13          	addi	x28,x28,76 # 410153c8 <fault_label_4>
    41015384:	03c23023          	sd	x28,32(x4) # 20 <SECURE_ACCESS_PROBABILITY+0x2>
    41015388:	00000e13          	li	x28,0
    4101538c:	05c23023          	sd	x28,64(x4) # 40 <XLEN>
    41015390:	00000e13          	li	x28,0
    41015394:	05c23423          	sd	x28,72(x4) # 48 <XLEN+0x8>
    41015398:	00000e17          	auipc	x28,0x0
    4101539c:	044e0e13          	addi	x28,x28,68 # 410153dc <excp_return_label_4>
    410153a0:	03c23823          	sd	x28,48(x4) # 30 <SECURE_ACCESS_PROBABILITY+0x12>
    410153a4:	00000e13          	li	x28,0
    410153a8:	03c23c23          	sd	x28,56(x4) # 38 <SECURE_ACCESS_PROBABILITY+0x1a>
    410153ac:	00000e13          	li	x28,0
    410153b0:	07c23023          	sd	x28,96(x4) # 60 <XLEN+0x20>
    410153b4:	00000e13          	li	x28,0
    410153b8:	07c23423          	sd	x28,104(x4) # 68 <XLEN+0x28>
    410153bc:	00000e13          	li	x28,0
    410153c0:	07c23823          	sd	x28,112(x4) # 70 <XLEN+0x30>
    410153c4:	00000913          	li	x18,0

00000000410153c8 <fault_label_4>:
    410153c8:	20492f73          	csrrs	x30,vsie,x18
    410153cc:	069ce437          	lui	x8,0x69ce
    410153d0:	0084041b          	addiw	x8,x8,8 # 69ce008 <failed_addr>
    410153d4:	00043e83          	ld	x29,0(x8)
    410153d8:	000e8067          	jr	x29

00000000410153dc <excp_return_label_4>:
    410153dc:	40a44237          	lui	x4,0x40a44
    410153e0:	01600e13          	li	x28,22
    410153e4:	05c23823          	sd	x28,80(x4) # 40a44050 <check_excp_expected_cause>
    410153e8:	00000e17          	auipc	x28,0x0
    410153ec:	048e0e13          	addi	x28,x28,72 # 41015430 <fault_label_5>
    410153f0:	03c23023          	sd	x28,32(x4) # 20 <SECURE_ACCESS_PROBABILITY+0x2>
    410153f4:	00000e13          	li	x28,0
    410153f8:	05c23023          	sd	x28,64(x4) # 40 <XLEN>
    410153fc:	00000e13          	li	x28,0
    41015400:	05c23423          	sd	x28,72(x4) # 48 <XLEN+0x8>
    41015404:	00000e17          	auipc	x28,0x0
    41015408:	040e0e13          	addi	x28,x28,64 # 41015444 <excp_return_label_5>
    4101540c:	03c23823          	sd	x28,48(x4) # 30 <SECURE_ACCESS_PROBABILITY+0x12>
    41015410:	00000e13          	li	x28,0
    41015414:	03c23c23          	sd	x28,56(x4) # 38 <SECURE_ACCESS_PROBABILITY+0x1a>
    41015418:	00000e13          	li	x28,0
    4101541c:	07c23023          	sd	x28,96(x4) # 60 <XLEN+0x20>
    41015420:	00000e13          	li	x28,0
    41015424:	07c23423          	sd	x28,104(x4) # 68 <XLEN+0x28>
    41015428:	00000e13          	li	x28,0
    4101542c:	07c23823          	sd	x28,112(x4) # 70 <XLEN+0x30>

0000000041015430 <fault_label_5>:
    41015430:	20449473          	csrrw	x8,vsie,x9
    41015434:	069ce9b7          	lui	x19,0x69ce
    41015438:	0089899b          	addiw	x19,x19,8 # 69ce008 <failed_addr>
    4101543c:	0009be03          	ld	x28,0(x19)
    41015440:	000e0067          	jr	x28

0000000041015444 <excp_return_label_5>:
    41015444:	40a44237          	lui	x4,0x40a44
    41015448:	01600e13          	li	x28,22
    4101544c:	05c23823          	sd	x28,80(x4) # 40a44050 <check_excp_expected_cause>
    41015450:	00000e17          	auipc	x28,0x0
    41015454:	04ce0e13          	addi	x28,x28,76 # 4101549c <fault_label_6>
    41015458:	03c23023          	sd	x28,32(x4) # 20 <SECURE_ACCESS_PROBABILITY+0x2>
    4101545c:	00000e13          	li	x28,0
    41015460:	05c23023          	sd	x28,64(x4) # 40 <XLEN>
    41015464:	00000e13          	li	x28,0
    41015468:	05c23423          	sd	x28,72(x4) # 48 <XLEN+0x8>
    4101546c:	00000e17          	auipc	x28,0x0
    41015470:	044e0e13          	addi	x28,x28,68 # 410154b0 <excp_return_label_6>
    41015474:	03c23823          	sd	x28,48(x4) # 30 <SECURE_ACCESS_PROBABILITY+0x12>
    41015478:	00000e13          	li	x28,0
    4101547c:	03c23c23          	sd	x28,56(x4) # 38 <SECURE_ACCESS_PROBABILITY+0x1a>
    41015480:	00000e13          	li	x28,0
    41015484:	07c23023          	sd	x28,96(x4) # 60 <XLEN+0x20>
    41015488:	00000e13          	li	x28,0
    4101548c:	07c23423          	sd	x28,104(x4) # 68 <XLEN+0x28>
    41015490:	00000e13          	li	x28,0
    41015494:	07c23823          	sd	x28,112(x4) # 70 <XLEN+0x30>
    41015498:	00000513          	li	x10,0

000000004101549c <fault_label_6>:
    4101549c:	20552a73          	csrrs	x20,vstvec,x10
    410154a0:	069ce8b7          	lui	x17,0x69ce
    410154a4:	0088889b          	addiw	x17,x17,8 # 69ce008 <failed_addr>
    410154a8:	0008bc83          	ld	x25,0(x17)
    410154ac:	000c8067          	jr	x25

00000000410154b0 <excp_return_label_6>:
    410154b0:	40a44237          	lui	x4,0x40a44
    410154b4:	01600e13          	li	x28,22
    410154b8:	05c23823          	sd	x28,80(x4) # 40a44050 <check_excp_expected_cause>
    410154bc:	00000e17          	auipc	x28,0x0
    410154c0:	048e0e13          	addi	x28,x28,72 # 41015504 <fault_label_7>
    410154c4:	03c23023          	sd	x28,32(x4) # 20 <SECURE_ACCESS_PROBABILITY+0x2>
    410154c8:	00000e13          	li	x28,0
    410154cc:	05c23023          	sd	x28,64(x4) # 40 <XLEN>
    410154d0:	00000e13          	li	x28,0
    410154d4:	05c23423          	sd	x28,72(x4) # 48 <XLEN+0x8>
    410154d8:	00000e17          	auipc	x28,0x0
    410154dc:	040e0e13          	addi	x28,x28,64 # 41015518 <excp_return_label_7>
    410154e0:	03c23823          	sd	x28,48(x4) # 30 <SECURE_ACCESS_PROBABILITY+0x12>
    410154e4:	00000e13          	li	x28,0
    410154e8:	03c23c23          	sd	x28,56(x4) # 38 <SECURE_ACCESS_PROBABILITY+0x1a>
    410154ec:	00000e13          	li	x28,0
    410154f0:	07c23023          	sd	x28,96(x4) # 60 <XLEN+0x20>
    410154f4:	00000e13          	li	x28,0
    410154f8:	07c23423          	sd	x28,104(x4) # 68 <XLEN+0x28>
    410154fc:	00000e13          	li	x28,0
    41015500:	07c23823          	sd	x28,112(x4) # 70 <XLEN+0x30>

0000000041015504 <fault_label_7>:
    41015504:	20549673          	csrrw	x12,vstvec,x9
    41015508:	069ce337          	lui	x6,0x69ce
    4101550c:	0083031b          	addiw	x6,x6,8 # 69ce008 <failed_addr>
    41015510:	00033583          	ld	x11,0(x6)
    41015514:	00058067          	jr	x11

0000000041015518 <excp_return_label_7>:
    41015518:	40a44237          	lui	x4,0x40a44
    4101551c:	01600e13          	li	x28,22
    41015520:	05c23823          	sd	x28,80(x4) # 40a44050 <check_excp_expected_cause>
    41015524:	00000e17          	auipc	x28,0x0
    41015528:	04ce0e13          	addi	x28,x28,76 # 41015570 <fault_label_8>
    4101552c:	03c23023          	sd	x28,32(x4) # 20 <SECURE_ACCESS_PROBABILITY+0x2>
    41015530:	00000e13          	li	x28,0
    41015534:	05c23023          	sd	x28,64(x4) # 40 <XLEN>
    41015538:	00000e13          	li	x28,0
    4101553c:	05c23423          	sd	x28,72(x4) # 48 <XLEN+0x8>
    41015540:	00000e17          	auipc	x28,0x0
    41015544:	044e0e13          	addi	x28,x28,68 # 41015584 <excp_return_label_8>
    41015548:	03c23823          	sd	x28,48(x4) # 30 <SECURE_ACCESS_PROBABILITY+0x12>
    4101554c:	00000e13          	li	x28,0
    41015550:	03c23c23          	sd	x28,56(x4) # 38 <SECURE_ACCESS_PROBABILITY+0x1a>
    41015554:	00000e13          	li	x28,0
    41015558:	07c23023          	sd	x28,96(x4) # 60 <XLEN+0x20>
    4101555c:	00000e13          	li	x28,0
    41015560:	07c23423          	sd	x28,104(x4) # 68 <XLEN+0x28>
    41015564:	00000e13          	li	x28,0
    41015568:	07c23823          	sd	x28,112(x4) # 70 <XLEN+0x30>
    4101556c:	00000e93          	li	x29,0

0000000041015570 <fault_label_8>:
    41015570:	240ea7f3          	csrrs	x15,vsscratch,x29
    41015574:	069cef37          	lui	x30,0x69ce
    41015578:	008f0f1b          	addiw	x30,x30,8 # 69ce008 <failed_addr>
    4101557c:	000f3983          	ld	x19,0(x30)
    41015580:	00098067          	jr	x19

0000000041015584 <excp_return_label_8>:
    41015584:	40a44237          	lui	x4,0x40a44
    41015588:	01600e13          	li	x28,22
    4101558c:	05c23823          	sd	x28,80(x4) # 40a44050 <check_excp_expected_cause>
    41015590:	00000e17          	auipc	x28,0x0
    41015594:	048e0e13          	addi	x28,x28,72 # 410155d8 <fault_label_9>
    41015598:	03c23023          	sd	x28,32(x4) # 20 <SECURE_ACCESS_PROBABILITY+0x2>
    4101559c:	00000e13          	li	x28,0
    410155a0:	05c23023          	sd	x28,64(x4) # 40 <XLEN>
    410155a4:	00000e13          	li	x28,0
    410155a8:	05c23423          	sd	x28,72(x4) # 48 <XLEN+0x8>
    410155ac:	00000e17          	auipc	x28,0x0
    410155b0:	040e0e13          	addi	x28,x28,64 # 410155ec <excp_return_label_9>
    410155b4:	03c23823          	sd	x28,48(x4) # 30 <SECURE_ACCESS_PROBABILITY+0x12>
    410155b8:	00000e13          	li	x28,0
    410155bc:	03c23c23          	sd	x28,56(x4) # 38 <SECURE_ACCESS_PROBABILITY+0x1a>
    410155c0:	00000e13          	li	x28,0
    410155c4:	07c23023          	sd	x28,96(x4) # 60 <XLEN+0x20>
    410155c8:	00000e13          	li	x28,0
    410155cc:	07c23423          	sd	x28,104(x4) # 68 <XLEN+0x28>
    410155d0:	00000e13          	li	x28,0
    410155d4:	07c23823          	sd	x28,112(x4) # 70 <XLEN+0x30>

00000000410155d8 <fault_label_9>:
    410155d8:	240498f3          	csrrw	x17,vsscratch,x9
    410155dc:	069cec37          	lui	x24,0x69ce
    410155e0:	008c0c1b          	addiw	x24,x24,8 # 69ce008 <failed_addr>
    410155e4:	000c3303          	ld	x6,0(x24)
    410155e8:	00030067          	jr	x6

00000000410155ec <excp_return_label_9>:
    410155ec:	40a44237          	lui	x4,0x40a44
    410155f0:	01600e13          	li	x28,22
    410155f4:	05c23823          	sd	x28,80(x4) # 40a44050 <check_excp_expected_cause>
    410155f8:	00000e17          	auipc	x28,0x0
    410155fc:	04ce0e13          	addi	x28,x28,76 # 41015644 <fault_label_10>
    41015600:	03c23023          	sd	x28,32(x4) # 20 <SECURE_ACCESS_PROBABILITY+0x2>
    41015604:	00000e13          	li	x28,0
    41015608:	05c23023          	sd	x28,64(x4) # 40 <XLEN>
    4101560c:	00000e13          	li	x28,0
    41015610:	05c23423          	sd	x28,72(x4) # 48 <XLEN+0x8>
    41015614:	00000e17          	auipc	x28,0x0
    41015618:	044e0e13          	addi	x28,x28,68 # 41015658 <excp_return_label_10>
    4101561c:	03c23823          	sd	x28,48(x4) # 30 <SECURE_ACCESS_PROBABILITY+0x12>
    41015620:	00000e13          	li	x28,0
    41015624:	03c23c23          	sd	x28,56(x4) # 38 <SECURE_ACCESS_PROBABILITY+0x1a>
    41015628:	00000e13          	li	x28,0
    4101562c:	07c23023          	sd	x28,96(x4) # 60 <XLEN+0x20>
    41015630:	00000e13          	li	x28,0
    41015634:	07c23423          	sd	x28,104(x4) # 68 <XLEN+0x28>
    41015638:	00000e13          	li	x28,0
    4101563c:	07c23823          	sd	x28,112(x4) # 70 <XLEN+0x30>
    41015640:	00000d13          	li	x26,0

0000000041015644 <fault_label_10>:
    41015644:	241d23f3          	csrrs	x7,vsepc,x26
    41015648:	069ceab7          	lui	x21,0x69ce
    4101564c:	008a8a9b          	addiw	x21,x21,8 # 69ce008 <failed_addr>
    41015650:	000ab683          	ld	x13,0(x21)
    41015654:	00068067          	jr	x13

0000000041015658 <excp_return_label_10>:
    41015658:	40a44237          	lui	x4,0x40a44
    4101565c:	01600e13          	li	x28,22
    41015660:	05c23823          	sd	x28,80(x4) # 40a44050 <check_excp_expected_cause>
    41015664:	00000e17          	auipc	x28,0x0
    41015668:	048e0e13          	addi	x28,x28,72 # 410156ac <fault_label_11>
    4101566c:	03c23023          	sd	x28,32(x4) # 20 <SECURE_ACCESS_PROBABILITY+0x2>
    41015670:	00000e13          	li	x28,0
    41015674:	05c23023          	sd	x28,64(x4) # 40 <XLEN>
    41015678:	00000e13          	li	x28,0
    4101567c:	05c23423          	sd	x28,72(x4) # 48 <XLEN+0x8>
    41015680:	00000e17          	auipc	x28,0x0
    41015684:	040e0e13          	addi	x28,x28,64 # 410156c0 <excp_return_label_11>
    41015688:	03c23823          	sd	x28,48(x4) # 30 <SECURE_ACCESS_PROBABILITY+0x12>
    4101568c:	00000e13          	li	x28,0
    41015690:	03c23c23          	sd	x28,56(x4) # 38 <SECURE_ACCESS_PROBABILITY+0x1a>
    41015694:	00000e13          	li	x28,0
    41015698:	07c23023          	sd	x28,96(x4) # 60 <XLEN+0x20>
    4101569c:	00000e13          	li	x28,0
    410156a0:	07c23423          	sd	x28,104(x4) # 68 <XLEN+0x28>
    410156a4:	00000e13          	li	x28,0
    410156a8:	07c23823          	sd	x28,112(x4) # 70 <XLEN+0x30>

00000000410156ac <fault_label_11>:
    410156ac:	24149ff3          	csrrw	x31,vsepc,x9
    410156b0:	069cecb7          	lui	x25,0x69ce
    410156b4:	008c8c9b          	addiw	x25,x25,8 # 69ce008 <failed_addr>
    410156b8:	000cb903          	ld	x18,0(x25)
    410156bc:	00090067          	jr	x18

00000000410156c0 <excp_return_label_11>:
    410156c0:	40a44237          	lui	x4,0x40a44
    410156c4:	01600e13          	li	x28,22
    410156c8:	05c23823          	sd	x28,80(x4) # 40a44050 <check_excp_expected_cause>
    410156cc:	00000e17          	auipc	x28,0x0
    410156d0:	04ce0e13          	addi	x28,x28,76 # 41015718 <fault_label_12>
    410156d4:	03c23023          	sd	x28,32(x4) # 20 <SECURE_ACCESS_PROBABILITY+0x2>
    410156d8:	00000e13          	li	x28,0
    410156dc:	05c23023          	sd	x28,64(x4) # 40 <XLEN>
    410156e0:	00000e13          	li	x28,0
    410156e4:	05c23423          	sd	x28,72(x4) # 48 <XLEN+0x8>
    410156e8:	00000e17          	auipc	x28,0x0
    410156ec:	044e0e13          	addi	x28,x28,68 # 4101572c <excp_return_label_12>
    410156f0:	03c23823          	sd	x28,48(x4) # 30 <SECURE_ACCESS_PROBABILITY+0x12>
    410156f4:	00000e13          	li	x28,0
    410156f8:	03c23c23          	sd	x28,56(x4) # 38 <SECURE_ACCESS_PROBABILITY+0x1a>
    410156fc:	00000e13          	li	x28,0
    41015700:	07c23023          	sd	x28,96(x4) # 60 <XLEN+0x20>
    41015704:	00000e13          	li	x28,0
    41015708:	07c23423          	sd	x28,104(x4) # 68 <XLEN+0x28>
    4101570c:	00000e13          	li	x28,0
    41015710:	07c23823          	sd	x28,112(x4) # 70 <XLEN+0x30>
    41015714:	00000d93          	li	x27,0

0000000041015718 <fault_label_12>:
    41015718:	242da373          	csrrs	x6,vscause,x27
    4101571c:	069ced37          	lui	x26,0x69ce
    41015720:	008d0d1b          	addiw	x26,x26,8 # 69ce008 <failed_addr>
    41015724:	000d3783          	ld	x15,0(x26)
    41015728:	00078067          	jr	x15

000000004101572c <excp_return_label_12>:
    4101572c:	40a44237          	lui	x4,0x40a44
    41015730:	01600e13          	li	x28,22
    41015734:	05c23823          	sd	x28,80(x4) # 40a44050 <check_excp_expected_cause>
    41015738:	00000e17          	auipc	x28,0x0
    4101573c:	048e0e13          	addi	x28,x28,72 # 41015780 <fault_label_13>
    41015740:	03c23023          	sd	x28,32(x4) # 20 <SECURE_ACCESS_PROBABILITY+0x2>
    41015744:	00000e13          	li	x28,0
    41015748:	05c23023          	sd	x28,64(x4) # 40 <XLEN>
    4101574c:	00000e13          	li	x28,0
    41015750:	05c23423          	sd	x28,72(x4) # 48 <XLEN+0x8>
    41015754:	00000e17          	auipc	x28,0x0
    41015758:	040e0e13          	addi	x28,x28,64 # 41015794 <excp_return_label_13>
    4101575c:	03c23823          	sd	x28,48(x4) # 30 <SECURE_ACCESS_PROBABILITY+0x12>
    41015760:	00000e13          	li	x28,0
    41015764:	03c23c23          	sd	x28,56(x4) # 38 <SECURE_ACCESS_PROBABILITY+0x1a>
    41015768:	00000e13          	li	x28,0
    4101576c:	07c23023          	sd	x28,96(x4) # 60 <XLEN+0x20>
    41015770:	00000e13          	li	x28,0
    41015774:	07c23423          	sd	x28,104(x4) # 68 <XLEN+0x28>
    41015778:	00000e13          	li	x28,0
    4101577c:	07c23823          	sd	x28,112(x4) # 70 <XLEN+0x30>

0000000041015780 <fault_label_13>:
    41015780:	24249af3          	csrrw	x21,vscause,x9
    41015784:	069ce337          	lui	x6,0x69ce
    41015788:	0083031b          	addiw	x6,x6,8 # 69ce008 <failed_addr>
    4101578c:	00033f83          	ld	x31,0(x6)
    41015790:	000f8067          	jr	x31

0000000041015794 <excp_return_label_13>:
    41015794:	40a44237          	lui	x4,0x40a44
    41015798:	01600e13          	li	x28,22
    4101579c:	05c23823          	sd	x28,80(x4) # 40a44050 <check_excp_expected_cause>
    410157a0:	00000e17          	auipc	x28,0x0
    410157a4:	04ce0e13          	addi	x28,x28,76 # 410157ec <fault_label_14>
    410157a8:	03c23023          	sd	x28,32(x4) # 20 <SECURE_ACCESS_PROBABILITY+0x2>
    410157ac:	00000e13          	li	x28,0
    410157b0:	05c23023          	sd	x28,64(x4) # 40 <XLEN>
    410157b4:	00000e13          	li	x28,0
    410157b8:	05c23423          	sd	x28,72(x4) # 48 <XLEN+0x8>
    410157bc:	00000e17          	auipc	x28,0x0
    410157c0:	044e0e13          	addi	x28,x28,68 # 41015800 <excp_return_label_14>
    410157c4:	03c23823          	sd	x28,48(x4) # 30 <SECURE_ACCESS_PROBABILITY+0x12>
    410157c8:	00000e13          	li	x28,0
    410157cc:	03c23c23          	sd	x28,56(x4) # 38 <SECURE_ACCESS_PROBABILITY+0x1a>
    410157d0:	00000e13          	li	x28,0
    410157d4:	07c23023          	sd	x28,96(x4) # 60 <XLEN+0x20>
    410157d8:	00000e13          	li	x28,0
    410157dc:	07c23423          	sd	x28,104(x4) # 68 <XLEN+0x28>
    410157e0:	00000e13          	li	x28,0
    410157e4:	07c23823          	sd	x28,112(x4) # 70 <XLEN+0x30>
    410157e8:	00000e13          	li	x28,0

00000000410157ec <fault_label_14>:
    410157ec:	243e23f3          	csrrs	x7,vstval,x28
    410157f0:	069cec37          	lui	x24,0x69ce
    410157f4:	008c0c1b          	addiw	x24,x24,8 # 69ce008 <failed_addr>
    410157f8:	000c3383          	ld	x7,0(x24)
    410157fc:	00038067          	jr	x7 # 100000 <SID_HEXCEP_09_hinval_vvma_vu_stack+0x35000>

0000000041015800 <excp_return_label_14>:
    41015800:	40a44237          	lui	x4,0x40a44
    41015804:	01600e13          	li	x28,22
    41015808:	05c23823          	sd	x28,80(x4) # 40a44050 <check_excp_expected_cause>
    4101580c:	00000e17          	auipc	x28,0x0
    41015810:	048e0e13          	addi	x28,x28,72 # 41015854 <fault_label_15>
    41015814:	03c23023          	sd	x28,32(x4) # 20 <SECURE_ACCESS_PROBABILITY+0x2>
    41015818:	00000e13          	li	x28,0
    4101581c:	05c23023          	sd	x28,64(x4) # 40 <XLEN>
    41015820:	00000e13          	li	x28,0
    41015824:	05c23423          	sd	x28,72(x4) # 48 <XLEN+0x8>
    41015828:	00000e17          	auipc	x28,0x0
    4101582c:	040e0e13          	addi	x28,x28,64 # 41015868 <excp_return_label_15>
    41015830:	03c23823          	sd	x28,48(x4) # 30 <SECURE_ACCESS_PROBABILITY+0x12>
    41015834:	00000e13          	li	x28,0
    41015838:	03c23c23          	sd	x28,56(x4) # 38 <SECURE_ACCESS_PROBABILITY+0x1a>
    4101583c:	00000e13          	li	x28,0
    41015840:	07c23023          	sd	x28,96(x4) # 60 <XLEN+0x20>
    41015844:	00000e13          	li	x28,0
    41015848:	07c23423          	sd	x28,104(x4) # 68 <XLEN+0x28>
    4101584c:	00000e13          	li	x28,0
    41015850:	07c23823          	sd	x28,112(x4) # 70 <XLEN+0x30>

0000000041015854 <fault_label_15>:
    41015854:	24349df3          	csrrw	x27,vstval,x9
    41015858:	069cedb7          	lui	x27,0x69ce
    4101585c:	008d8d9b          	addiw	x27,x27,8 # 69ce008 <failed_addr>
    41015860:	000db983          	ld	x19,0(x27)
    41015864:	00098067          	jr	x19

0000000041015868 <excp_return_label_15>:
    41015868:	40a44237          	lui	x4,0x40a44
    4101586c:	01600e13          	li	x28,22
    41015870:	05c23823          	sd	x28,80(x4) # 40a44050 <check_excp_expected_cause>
    41015874:	00000e17          	auipc	x28,0x0
    41015878:	04ce0e13          	addi	x28,x28,76 # 410158c0 <fault_label_16>
    4101587c:	03c23023          	sd	x28,32(x4) # 20 <SECURE_ACCESS_PROBABILITY+0x2>
    41015880:	00000e13          	li	x28,0
    41015884:	05c23023          	sd	x28,64(x4) # 40 <XLEN>
    41015888:	00000e13          	li	x28,0
    4101588c:	05c23423          	sd	x28,72(x4) # 48 <XLEN+0x8>
    41015890:	00000e17          	auipc	x28,0x0
    41015894:	044e0e13          	addi	x28,x28,68 # 410158d4 <excp_return_label_16>
    41015898:	03c23823          	sd	x28,48(x4) # 30 <SECURE_ACCESS_PROBABILITY+0x12>
    4101589c:	00000e13          	li	x28,0
    410158a0:	03c23c23          	sd	x28,56(x4) # 38 <SECURE_ACCESS_PROBABILITY+0x1a>
    410158a4:	00000e13          	li	x28,0
    410158a8:	07c23023          	sd	x28,96(x4) # 60 <XLEN+0x20>
    410158ac:	00000e13          	li	x28,0
    410158b0:	07c23423          	sd	x28,104(x4) # 68 <XLEN+0x28>
    410158b4:	00000e13          	li	x28,0
    410158b8:	07c23823          	sd	x28,112(x4) # 70 <XLEN+0x30>
    410158bc:	00000313          	li	x6,0

00000000410158c0 <fault_label_16>:
    410158c0:	280328f3          	csrrs	x17,vsatp,x6
    410158c4:	069ce6b7          	lui	x13,0x69ce
    410158c8:	0086869b          	addiw	x13,x13,8 # 69ce008 <failed_addr>
    410158cc:	0006b783          	ld	x15,0(x13)
    410158d0:	00078067          	jr	x15

00000000410158d4 <excp_return_label_16>:
    410158d4:	40a44237          	lui	x4,0x40a44
    410158d8:	01600e13          	li	x28,22
    410158dc:	05c23823          	sd	x28,80(x4) # 40a44050 <check_excp_expected_cause>
    410158e0:	00000e17          	auipc	x28,0x0
    410158e4:	048e0e13          	addi	x28,x28,72 # 41015928 <fault_label_17>
    410158e8:	03c23023          	sd	x28,32(x4) # 20 <SECURE_ACCESS_PROBABILITY+0x2>
    410158ec:	00000e13          	li	x28,0
    410158f0:	05c23023          	sd	x28,64(x4) # 40 <XLEN>
    410158f4:	00000e13          	li	x28,0
    410158f8:	05c23423          	sd	x28,72(x4) # 48 <XLEN+0x8>
    410158fc:	00000e17          	auipc	x28,0x0
    41015900:	040e0e13          	addi	x28,x28,64 # 4101593c <excp_return_label_17>
    41015904:	03c23823          	sd	x28,48(x4) # 30 <SECURE_ACCESS_PROBABILITY+0x12>
    41015908:	00000e13          	li	x28,0
    4101590c:	03c23c23          	sd	x28,56(x4) # 38 <SECURE_ACCESS_PROBABILITY+0x1a>
    41015910:	00000e13          	li	x28,0
    41015914:	07c23023          	sd	x28,96(x4) # 60 <XLEN+0x20>
    41015918:	00000e13          	li	x28,0
    4101591c:	07c23423          	sd	x28,104(x4) # 68 <XLEN+0x28>
    41015920:	00000e13          	li	x28,0
    41015924:	07c23823          	sd	x28,112(x4) # 70 <XLEN+0x30>

0000000041015928 <fault_label_17>:
    41015928:	28049573          	csrrw	x10,vsatp,x9
    4101592c:	069ce537          	lui	x10,0x69ce
    41015930:	0085051b          	addiw	x10,x10,8 # 69ce008 <failed_addr>
    41015934:	00053d03          	ld	x26,0(x10)
    41015938:	000d0067          	jr	x26

000000004101593c <excp_return_label_17>:
    4101593c:	40a44237          	lui	x4,0x40a44
    41015940:	01600e13          	li	x28,22
    41015944:	05c23823          	sd	x28,80(x4) # 40a44050 <check_excp_expected_cause>
    41015948:	00000e17          	auipc	x28,0x0
    4101594c:	04ce0e13          	addi	x28,x28,76 # 41015994 <fault_label_18>
    41015950:	03c23023          	sd	x28,32(x4) # 20 <SECURE_ACCESS_PROBABILITY+0x2>
    41015954:	00000e13          	li	x28,0
    41015958:	05c23023          	sd	x28,64(x4) # 40 <XLEN>
    4101595c:	00000e13          	li	x28,0
    41015960:	05c23423          	sd	x28,72(x4) # 48 <XLEN+0x8>
    41015964:	00000e17          	auipc	x28,0x0
    41015968:	044e0e13          	addi	x28,x28,68 # 410159a8 <excp_return_label_18>
    4101596c:	03c23823          	sd	x28,48(x4) # 30 <SECURE_ACCESS_PROBABILITY+0x12>
    41015970:	00000e13          	li	x28,0
    41015974:	03c23c23          	sd	x28,56(x4) # 38 <SECURE_ACCESS_PROBABILITY+0x1a>
    41015978:	00000e13          	li	x28,0
    4101597c:	07c23023          	sd	x28,96(x4) # 60 <XLEN+0x20>
    41015980:	00000e13          	li	x28,0
    41015984:	07c23423          	sd	x28,104(x4) # 68 <XLEN+0x28>
    41015988:	00000e13          	li	x28,0
    4101598c:	07c23823          	sd	x28,112(x4) # 70 <XLEN+0x30>
    41015990:	00000793          	li	x15,0

0000000041015994 <fault_label_18>:
    41015994:	6007ad73          	csrrs	x26,hstatus,x15
    41015998:	069cee37          	lui	x28,0x69ce
    4101599c:	008e0e1b          	addiw	x28,x28,8 # 69ce008 <failed_addr>
    410159a0:	000e3683          	ld	x13,0(x28)
    410159a4:	00068067          	jr	x13

00000000410159a8 <excp_return_label_18>:
    410159a8:	40a44237          	lui	x4,0x40a44
    410159ac:	01600e13          	li	x28,22
    410159b0:	05c23823          	sd	x28,80(x4) # 40a44050 <check_excp_expected_cause>
    410159b4:	00000e17          	auipc	x28,0x0
    410159b8:	048e0e13          	addi	x28,x28,72 # 410159fc <fault_label_19>
    410159bc:	03c23023          	sd	x28,32(x4) # 20 <SECURE_ACCESS_PROBABILITY+0x2>
    410159c0:	00000e13          	li	x28,0
    410159c4:	05c23023          	sd	x28,64(x4) # 40 <XLEN>
    410159c8:	00000e13          	li	x28,0
    410159cc:	05c23423          	sd	x28,72(x4) # 48 <XLEN+0x8>
    410159d0:	00000e17          	auipc	x28,0x0
    410159d4:	040e0e13          	addi	x28,x28,64 # 41015a10 <excp_return_label_19>
    410159d8:	03c23823          	sd	x28,48(x4) # 30 <SECURE_ACCESS_PROBABILITY+0x12>
    410159dc:	00000e13          	li	x28,0
    410159e0:	03c23c23          	sd	x28,56(x4) # 38 <SECURE_ACCESS_PROBABILITY+0x1a>
    410159e4:	00000e13          	li	x28,0
    410159e8:	07c23023          	sd	x28,96(x4) # 60 <XLEN+0x20>
    410159ec:	00000e13          	li	x28,0
    410159f0:	07c23423          	sd	x28,104(x4) # 68 <XLEN+0x28>
    410159f4:	00000e13          	li	x28,0
    410159f8:	07c23823          	sd	x28,112(x4) # 70 <XLEN+0x30>

00000000410159fc <fault_label_19>:
    410159fc:	60049df3          	csrrw	x27,hstatus,x9
    41015a00:	069ce5b7          	lui	x11,0x69ce
    41015a04:	0085859b          	addiw	x11,x11,8 # 69ce008 <failed_addr>
    41015a08:	0005b983          	ld	x19,0(x11)
    41015a0c:	00098067          	jr	x19

0000000041015a10 <excp_return_label_19>:
    41015a10:	40a44237          	lui	x4,0x40a44
    41015a14:	01600e13          	li	x28,22
    41015a18:	05c23823          	sd	x28,80(x4) # 40a44050 <check_excp_expected_cause>
    41015a1c:	00000e17          	auipc	x28,0x0
    41015a20:	04ce0e13          	addi	x28,x28,76 # 41015a68 <fault_label_20>
    41015a24:	03c23023          	sd	x28,32(x4) # 20 <SECURE_ACCESS_PROBABILITY+0x2>
    41015a28:	00000e13          	li	x28,0
    41015a2c:	05c23023          	sd	x28,64(x4) # 40 <XLEN>
    41015a30:	00000e13          	li	x28,0
    41015a34:	05c23423          	sd	x28,72(x4) # 48 <XLEN+0x8>
    41015a38:	00000e17          	auipc	x28,0x0
    41015a3c:	044e0e13          	addi	x28,x28,68 # 41015a7c <excp_return_label_20>
    41015a40:	03c23823          	sd	x28,48(x4) # 30 <SECURE_ACCESS_PROBABILITY+0x12>
    41015a44:	00000e13          	li	x28,0
    41015a48:	03c23c23          	sd	x28,56(x4) # 38 <SECURE_ACCESS_PROBABILITY+0x1a>
    41015a4c:	00000e13          	li	x28,0
    41015a50:	07c23023          	sd	x28,96(x4) # 60 <XLEN+0x20>
    41015a54:	00000e13          	li	x28,0
    41015a58:	07c23423          	sd	x28,104(x4) # 68 <XLEN+0x28>
    41015a5c:	00000e13          	li	x28,0
    41015a60:	07c23823          	sd	x28,112(x4) # 70 <XLEN+0x30>
    41015a64:	00000f13          	li	x30,0

0000000041015a68 <fault_label_20>:
    41015a68:	602f28f3          	csrrs	x17,hedeleg,x30
    41015a6c:	069ce7b7          	lui	x15,0x69ce
    41015a70:	0087879b          	addiw	x15,x15,8 # 69ce008 <failed_addr>
    41015a74:	0007bd03          	ld	x26,0(x15)
    41015a78:	000d0067          	jr	x26

0000000041015a7c <excp_return_label_20>:
    41015a7c:	40a44237          	lui	x4,0x40a44
    41015a80:	01600e13          	li	x28,22
    41015a84:	05c23823          	sd	x28,80(x4) # 40a44050 <check_excp_expected_cause>
    41015a88:	00000e17          	auipc	x28,0x0
    41015a8c:	048e0e13          	addi	x28,x28,72 # 41015ad0 <fault_label_21>
    41015a90:	03c23023          	sd	x28,32(x4) # 20 <SECURE_ACCESS_PROBABILITY+0x2>
    41015a94:	00000e13          	li	x28,0
    41015a98:	05c23023          	sd	x28,64(x4) # 40 <XLEN>
    41015a9c:	00000e13          	li	x28,0
    41015aa0:	05c23423          	sd	x28,72(x4) # 48 <XLEN+0x8>
    41015aa4:	00000e17          	auipc	x28,0x0
    41015aa8:	040e0e13          	addi	x28,x28,64 # 41015ae4 <excp_return_label_21>
    41015aac:	03c23823          	sd	x28,48(x4) # 30 <SECURE_ACCESS_PROBABILITY+0x12>
    41015ab0:	00000e13          	li	x28,0
    41015ab4:	03c23c23          	sd	x28,56(x4) # 38 <SECURE_ACCESS_PROBABILITY+0x1a>
    41015ab8:	00000e13          	li	x28,0
    41015abc:	07c23023          	sd	x28,96(x4) # 60 <XLEN+0x20>
    41015ac0:	00000e13          	li	x28,0
    41015ac4:	07c23423          	sd	x28,104(x4) # 68 <XLEN+0x28>
    41015ac8:	00000e13          	li	x28,0
    41015acc:	07c23823          	sd	x28,112(x4) # 70 <XLEN+0x30>

0000000041015ad0 <fault_label_21>:
    41015ad0:	60249ff3          	csrrw	x31,hedeleg,x9
    41015ad4:	069ce8b7          	lui	x17,0x69ce
    41015ad8:	0088889b          	addiw	x17,x17,8 # 69ce008 <failed_addr>
    41015adc:	0008b503          	ld	x10,0(x17)
    41015ae0:	00050067          	jr	x10

0000000041015ae4 <excp_return_label_21>:
    41015ae4:	40a44237          	lui	x4,0x40a44
    41015ae8:	01600e13          	li	x28,22
    41015aec:	05c23823          	sd	x28,80(x4) # 40a44050 <check_excp_expected_cause>
    41015af0:	00000e17          	auipc	x28,0x0
    41015af4:	04ce0e13          	addi	x28,x28,76 # 41015b3c <fault_label_22>
    41015af8:	03c23023          	sd	x28,32(x4) # 20 <SECURE_ACCESS_PROBABILITY+0x2>
    41015afc:	00000e13          	li	x28,0
    41015b00:	05c23023          	sd	x28,64(x4) # 40 <XLEN>
    41015b04:	00000e13          	li	x28,0
    41015b08:	05c23423          	sd	x28,72(x4) # 48 <XLEN+0x8>
    41015b0c:	00000e17          	auipc	x28,0x0
    41015b10:	044e0e13          	addi	x28,x28,68 # 41015b50 <excp_return_label_22>
    41015b14:	03c23823          	sd	x28,48(x4) # 30 <SECURE_ACCESS_PROBABILITY+0x12>
    41015b18:	00000e13          	li	x28,0
    41015b1c:	03c23c23          	sd	x28,56(x4) # 38 <SECURE_ACCESS_PROBABILITY+0x1a>
    41015b20:	00000e13          	li	x28,0
    41015b24:	07c23023          	sd	x28,96(x4) # 60 <XLEN+0x20>
    41015b28:	00000e13          	li	x28,0
    41015b2c:	07c23423          	sd	x28,104(x4) # 68 <XLEN+0x28>
    41015b30:	00000e13          	li	x28,0
    41015b34:	07c23823          	sd	x28,112(x4) # 70 <XLEN+0x30>
    41015b38:	00000e13          	li	x28,0

0000000041015b3c <fault_label_22>:
    41015b3c:	603e2c73          	csrrs	x24,hideleg,x28
    41015b40:	069ce7b7          	lui	x15,0x69ce
    41015b44:	0087879b          	addiw	x15,x15,8 # 69ce008 <failed_addr>
    41015b48:	0007bc03          	ld	x24,0(x15)
    41015b4c:	000c0067          	jr	x24

0000000041015b50 <excp_return_label_22>:
    41015b50:	40a44237          	lui	x4,0x40a44
    41015b54:	01600e13          	li	x28,22
    41015b58:	05c23823          	sd	x28,80(x4) # 40a44050 <check_excp_expected_cause>
    41015b5c:	00000e17          	auipc	x28,0x0
    41015b60:	048e0e13          	addi	x28,x28,72 # 41015ba4 <fault_label_23>
    41015b64:	03c23023          	sd	x28,32(x4) # 20 <SECURE_ACCESS_PROBABILITY+0x2>
    41015b68:	00000e13          	li	x28,0
    41015b6c:	05c23023          	sd	x28,64(x4) # 40 <XLEN>
    41015b70:	00000e13          	li	x28,0
    41015b74:	05c23423          	sd	x28,72(x4) # 48 <XLEN+0x8>
    41015b78:	00000e17          	auipc	x28,0x0
    41015b7c:	040e0e13          	addi	x28,x28,64 # 41015bb8 <excp_return_label_23>
    41015b80:	03c23823          	sd	x28,48(x4) # 30 <SECURE_ACCESS_PROBABILITY+0x12>
    41015b84:	00000e13          	li	x28,0
    41015b88:	03c23c23          	sd	x28,56(x4) # 38 <SECURE_ACCESS_PROBABILITY+0x1a>
    41015b8c:	00000e13          	li	x28,0
    41015b90:	07c23023          	sd	x28,96(x4) # 60 <XLEN+0x20>
    41015b94:	00000e13          	li	x28,0
    41015b98:	07c23423          	sd	x28,104(x4) # 68 <XLEN+0x28>
    41015b9c:	00000e13          	li	x28,0
    41015ba0:	07c23823          	sd	x28,112(x4) # 70 <XLEN+0x30>

0000000041015ba4 <fault_label_23>:
    41015ba4:	60349f73          	csrrw	x30,hideleg,x9
    41015ba8:	069cec37          	lui	x24,0x69ce
    41015bac:	008c0c1b          	addiw	x24,x24,8 # 69ce008 <failed_addr>
    41015bb0:	000c3d83          	ld	x27,0(x24)
    41015bb4:	000d8067          	jr	x27

0000000041015bb8 <excp_return_label_23>:
    41015bb8:	40a44237          	lui	x4,0x40a44
    41015bbc:	01600e13          	li	x28,22
    41015bc0:	05c23823          	sd	x28,80(x4) # 40a44050 <check_excp_expected_cause>
    41015bc4:	00000e17          	auipc	x28,0x0
    41015bc8:	04ce0e13          	addi	x28,x28,76 # 41015c10 <fault_label_24>
    41015bcc:	03c23023          	sd	x28,32(x4) # 20 <SECURE_ACCESS_PROBABILITY+0x2>
    41015bd0:	00000e13          	li	x28,0
    41015bd4:	05c23023          	sd	x28,64(x4) # 40 <XLEN>
    41015bd8:	00000e13          	li	x28,0
    41015bdc:	05c23423          	sd	x28,72(x4) # 48 <XLEN+0x8>
    41015be0:	00000e17          	auipc	x28,0x0
    41015be4:	044e0e13          	addi	x28,x28,68 # 41015c24 <excp_return_label_24>
    41015be8:	03c23823          	sd	x28,48(x4) # 30 <SECURE_ACCESS_PROBABILITY+0x12>
    41015bec:	00000e13          	li	x28,0
    41015bf0:	03c23c23          	sd	x28,56(x4) # 38 <SECURE_ACCESS_PROBABILITY+0x1a>
    41015bf4:	00000e13          	li	x28,0
    41015bf8:	07c23023          	sd	x28,96(x4) # 60 <XLEN+0x20>
    41015bfc:	00000e13          	li	x28,0
    41015c00:	07c23423          	sd	x28,104(x4) # 68 <XLEN+0x28>
    41015c04:	00000e13          	li	x28,0
    41015c08:	07c23823          	sd	x28,112(x4) # 70 <XLEN+0x30>
    41015c0c:	00000993          	li	x19,0

0000000041015c10 <fault_label_24>:
    41015c10:	6459af73          	csrrs	x30,hvip,x19
    41015c14:	069ceeb7          	lui	x29,0x69ce
    41015c18:	008e8e9b          	addiw	x29,x29,8 # 69ce008 <failed_addr>
    41015c1c:	000eb383          	ld	x7,0(x29)
    41015c20:	00038067          	jr	x7

0000000041015c24 <excp_return_label_24>:
    41015c24:	40a44237          	lui	x4,0x40a44
    41015c28:	01600e13          	li	x28,22
    41015c2c:	05c23823          	sd	x28,80(x4) # 40a44050 <check_excp_expected_cause>
    41015c30:	00000e17          	auipc	x28,0x0
    41015c34:	048e0e13          	addi	x28,x28,72 # 41015c78 <fault_label_25>
    41015c38:	03c23023          	sd	x28,32(x4) # 20 <SECURE_ACCESS_PROBABILITY+0x2>
    41015c3c:	00000e13          	li	x28,0
    41015c40:	05c23023          	sd	x28,64(x4) # 40 <XLEN>
    41015c44:	00000e13          	li	x28,0
    41015c48:	05c23423          	sd	x28,72(x4) # 48 <XLEN+0x8>
    41015c4c:	00000e17          	auipc	x28,0x0
    41015c50:	040e0e13          	addi	x28,x28,64 # 41015c8c <excp_return_label_25>
    41015c54:	03c23823          	sd	x28,48(x4) # 30 <SECURE_ACCESS_PROBABILITY+0x12>
    41015c58:	00000e13          	li	x28,0
    41015c5c:	03c23c23          	sd	x28,56(x4) # 38 <SECURE_ACCESS_PROBABILITY+0x1a>
    41015c60:	00000e13          	li	x28,0
    41015c64:	07c23023          	sd	x28,96(x4) # 60 <XLEN+0x20>
    41015c68:	00000e13          	li	x28,0
    41015c6c:	07c23423          	sd	x28,104(x4) # 68 <XLEN+0x28>
    41015c70:	00000e13          	li	x28,0
    41015c74:	07c23823          	sd	x28,112(x4) # 70 <XLEN+0x30>

0000000041015c78 <fault_label_25>:
    41015c78:	64549f73          	csrrw	x30,hvip,x9
    41015c7c:	069cea37          	lui	x20,0x69ce
    41015c80:	008a0a1b          	addiw	x20,x20,8 # 69ce008 <failed_addr>
    41015c84:	000a3d83          	ld	x27,0(x20)
    41015c88:	000d8067          	jr	x27

0000000041015c8c <excp_return_label_25>:
    41015c8c:	40a44237          	lui	x4,0x40a44
    41015c90:	01600e13          	li	x28,22
    41015c94:	05c23823          	sd	x28,80(x4) # 40a44050 <check_excp_expected_cause>
    41015c98:	00000e17          	auipc	x28,0x0
    41015c9c:	04ce0e13          	addi	x28,x28,76 # 41015ce4 <fault_label_26>
    41015ca0:	03c23023          	sd	x28,32(x4) # 20 <SECURE_ACCESS_PROBABILITY+0x2>
    41015ca4:	00000e13          	li	x28,0
    41015ca8:	05c23023          	sd	x28,64(x4) # 40 <XLEN>
    41015cac:	00000e13          	li	x28,0
    41015cb0:	05c23423          	sd	x28,72(x4) # 48 <XLEN+0x8>
    41015cb4:	00000e17          	auipc	x28,0x0
    41015cb8:	044e0e13          	addi	x28,x28,68 # 41015cf8 <excp_return_label_26>
    41015cbc:	03c23823          	sd	x28,48(x4) # 30 <SECURE_ACCESS_PROBABILITY+0x12>
    41015cc0:	00000e13          	li	x28,0
    41015cc4:	03c23c23          	sd	x28,56(x4) # 38 <SECURE_ACCESS_PROBABILITY+0x1a>
    41015cc8:	00000e13          	li	x28,0
    41015ccc:	07c23023          	sd	x28,96(x4) # 60 <XLEN+0x20>
    41015cd0:	00000e13          	li	x28,0
    41015cd4:	07c23423          	sd	x28,104(x4) # 68 <XLEN+0x28>
    41015cd8:	00000e13          	li	x28,0
    41015cdc:	07c23823          	sd	x28,112(x4) # 70 <XLEN+0x30>
    41015ce0:	00000a93          	li	x21,0

0000000041015ce4 <fault_label_26>:
    41015ce4:	644aaaf3          	csrrs	x21,hip,x21
    41015ce8:	069cee37          	lui	x28,0x69ce
    41015cec:	008e0e1b          	addiw	x28,x28,8 # 69ce008 <failed_addr>
    41015cf0:	000e3683          	ld	x13,0(x28)
    41015cf4:	00068067          	jr	x13

0000000041015cf8 <excp_return_label_26>:
    41015cf8:	40a44237          	lui	x4,0x40a44
    41015cfc:	01600e13          	li	x28,22
    41015d00:	05c23823          	sd	x28,80(x4) # 40a44050 <check_excp_expected_cause>
    41015d04:	00000e17          	auipc	x28,0x0
    41015d08:	048e0e13          	addi	x28,x28,72 # 41015d4c <fault_label_27>
    41015d0c:	03c23023          	sd	x28,32(x4) # 20 <SECURE_ACCESS_PROBABILITY+0x2>
    41015d10:	00000e13          	li	x28,0
    41015d14:	05c23023          	sd	x28,64(x4) # 40 <XLEN>
    41015d18:	00000e13          	li	x28,0
    41015d1c:	05c23423          	sd	x28,72(x4) # 48 <XLEN+0x8>
    41015d20:	00000e17          	auipc	x28,0x0
    41015d24:	040e0e13          	addi	x28,x28,64 # 41015d60 <excp_return_label_27>
    41015d28:	03c23823          	sd	x28,48(x4) # 30 <SECURE_ACCESS_PROBABILITY+0x12>
    41015d2c:	00000e13          	li	x28,0
    41015d30:	03c23c23          	sd	x28,56(x4) # 38 <SECURE_ACCESS_PROBABILITY+0x1a>
    41015d34:	00000e13          	li	x28,0
    41015d38:	07c23023          	sd	x28,96(x4) # 60 <XLEN+0x20>
    41015d3c:	00000e13          	li	x28,0
    41015d40:	07c23423          	sd	x28,104(x4) # 68 <XLEN+0x28>
    41015d44:	00000e13          	li	x28,0
    41015d48:	07c23823          	sd	x28,112(x4) # 70 <XLEN+0x30>

0000000041015d4c <fault_label_27>:
    41015d4c:	644495f3          	csrrw	x11,hip,x9
    41015d50:	069cee37          	lui	x28,0x69ce
    41015d54:	008e0e1b          	addiw	x28,x28,8 # 69ce008 <failed_addr>
    41015d58:	000e3e83          	ld	x29,0(x28)
    41015d5c:	000e8067          	jr	x29

0000000041015d60 <excp_return_label_27>:
    41015d60:	40a44237          	lui	x4,0x40a44
    41015d64:	01600e13          	li	x28,22
    41015d68:	05c23823          	sd	x28,80(x4) # 40a44050 <check_excp_expected_cause>
    41015d6c:	00000e17          	auipc	x28,0x0
    41015d70:	04ce0e13          	addi	x28,x28,76 # 41015db8 <fault_label_28>
    41015d74:	03c23023          	sd	x28,32(x4) # 20 <SECURE_ACCESS_PROBABILITY+0x2>
    41015d78:	00000e13          	li	x28,0
    41015d7c:	05c23023          	sd	x28,64(x4) # 40 <XLEN>
    41015d80:	00000e13          	li	x28,0
    41015d84:	05c23423          	sd	x28,72(x4) # 48 <XLEN+0x8>
    41015d88:	00000e17          	auipc	x28,0x0
    41015d8c:	044e0e13          	addi	x28,x28,68 # 41015dcc <excp_return_label_28>
    41015d90:	03c23823          	sd	x28,48(x4) # 30 <SECURE_ACCESS_PROBABILITY+0x12>
    41015d94:	00000e13          	li	x28,0
    41015d98:	03c23c23          	sd	x28,56(x4) # 38 <SECURE_ACCESS_PROBABILITY+0x1a>
    41015d9c:	00000e13          	li	x28,0
    41015da0:	07c23023          	sd	x28,96(x4) # 60 <XLEN+0x20>
    41015da4:	00000e13          	li	x28,0
    41015da8:	07c23423          	sd	x28,104(x4) # 68 <XLEN+0x28>
    41015dac:	00000e13          	li	x28,0
    41015db0:	07c23823          	sd	x28,112(x4) # 70 <XLEN+0x30>
    41015db4:	00000f13          	li	x30,0

0000000041015db8 <fault_label_28>:
    41015db8:	604f23f3          	csrrs	x7,hie,x30
    41015dbc:	069cea37          	lui	x20,0x69ce
    41015dc0:	008a0a1b          	addiw	x20,x20,8 # 69ce008 <failed_addr>
    41015dc4:	000a3e03          	ld	x28,0(x20)
    41015dc8:	000e0067          	jr	x28

0000000041015dcc <excp_return_label_28>:
    41015dcc:	40a44237          	lui	x4,0x40a44
    41015dd0:	01600e13          	li	x28,22
    41015dd4:	05c23823          	sd	x28,80(x4) # 40a44050 <check_excp_expected_cause>
    41015dd8:	00000e17          	auipc	x28,0x0
    41015ddc:	048e0e13          	addi	x28,x28,72 # 41015e20 <fault_label_29>
    41015de0:	03c23023          	sd	x28,32(x4) # 20 <SECURE_ACCESS_PROBABILITY+0x2>
    41015de4:	00000e13          	li	x28,0
    41015de8:	05c23023          	sd	x28,64(x4) # 40 <XLEN>
    41015dec:	00000e13          	li	x28,0
    41015df0:	05c23423          	sd	x28,72(x4) # 48 <XLEN+0x8>
    41015df4:	00000e17          	auipc	x28,0x0
    41015df8:	040e0e13          	addi	x28,x28,64 # 41015e34 <excp_return_label_29>
    41015dfc:	03c23823          	sd	x28,48(x4) # 30 <SECURE_ACCESS_PROBABILITY+0x12>
    41015e00:	00000e13          	li	x28,0
    41015e04:	03c23c23          	sd	x28,56(x4) # 38 <SECURE_ACCESS_PROBABILITY+0x1a>
    41015e08:	00000e13          	li	x28,0
    41015e0c:	07c23023          	sd	x28,96(x4) # 60 <XLEN+0x20>
    41015e10:	00000e13          	li	x28,0
    41015e14:	07c23423          	sd	x28,104(x4) # 68 <XLEN+0x28>
    41015e18:	00000e13          	li	x28,0
    41015e1c:	07c23823          	sd	x28,112(x4) # 70 <XLEN+0x30>

0000000041015e20 <fault_label_29>:
    41015e20:	604495f3          	csrrw	x11,hie,x9
    41015e24:	069ce6b7          	lui	x13,0x69ce
    41015e28:	0086869b          	addiw	x13,x13,8 # 69ce008 <failed_addr>
    41015e2c:	0006b783          	ld	x15,0(x13)
    41015e30:	00078067          	jr	x15

0000000041015e34 <excp_return_label_29>:
    41015e34:	40a44237          	lui	x4,0x40a44
    41015e38:	01600e13          	li	x28,22
    41015e3c:	05c23823          	sd	x28,80(x4) # 40a44050 <check_excp_expected_cause>
    41015e40:	00000e17          	auipc	x28,0x0
    41015e44:	04ce0e13          	addi	x28,x28,76 # 41015e8c <fault_label_30>
    41015e48:	03c23023          	sd	x28,32(x4) # 20 <SECURE_ACCESS_PROBABILITY+0x2>
    41015e4c:	00000e13          	li	x28,0
    41015e50:	05c23023          	sd	x28,64(x4) # 40 <XLEN>
    41015e54:	00000e13          	li	x28,0
    41015e58:	05c23423          	sd	x28,72(x4) # 48 <XLEN+0x8>
    41015e5c:	00000e17          	auipc	x28,0x0
    41015e60:	044e0e13          	addi	x28,x28,68 # 41015ea0 <excp_return_label_30>
    41015e64:	03c23823          	sd	x28,48(x4) # 30 <SECURE_ACCESS_PROBABILITY+0x12>
    41015e68:	00000e13          	li	x28,0
    41015e6c:	03c23c23          	sd	x28,56(x4) # 38 <SECURE_ACCESS_PROBABILITY+0x1a>
    41015e70:	00000e13          	li	x28,0
    41015e74:	07c23023          	sd	x28,96(x4) # 60 <XLEN+0x20>
    41015e78:	00000e13          	li	x28,0
    41015e7c:	07c23423          	sd	x28,104(x4) # 68 <XLEN+0x28>
    41015e80:	00000e13          	li	x28,0
    41015e84:	07c23823          	sd	x28,112(x4) # 70 <XLEN+0x30>
    41015e88:	00000d13          	li	x26,0

0000000041015e8c <fault_label_30>:
    41015e8c:	607d27f3          	csrrs	x15,hgeie,x26
    41015e90:	069cecb7          	lui	x25,0x69ce
    41015e94:	008c8c9b          	addiw	x25,x25,8 # 69ce008 <failed_addr>
    41015e98:	000cbe83          	ld	x29,0(x25)
    41015e9c:	000e8067          	jr	x29

0000000041015ea0 <excp_return_label_30>:
    41015ea0:	40a44237          	lui	x4,0x40a44
    41015ea4:	01600e13          	li	x28,22
    41015ea8:	05c23823          	sd	x28,80(x4) # 40a44050 <check_excp_expected_cause>
    41015eac:	00000e17          	auipc	x28,0x0
    41015eb0:	048e0e13          	addi	x28,x28,72 # 41015ef4 <fault_label_31>
    41015eb4:	03c23023          	sd	x28,32(x4) # 20 <SECURE_ACCESS_PROBABILITY+0x2>
    41015eb8:	00000e13          	li	x28,0
    41015ebc:	05c23023          	sd	x28,64(x4) # 40 <XLEN>
    41015ec0:	00000e13          	li	x28,0
    41015ec4:	05c23423          	sd	x28,72(x4) # 48 <XLEN+0x8>
    41015ec8:	00000e17          	auipc	x28,0x0
    41015ecc:	040e0e13          	addi	x28,x28,64 # 41015f08 <excp_return_label_31>
    41015ed0:	03c23823          	sd	x28,48(x4) # 30 <SECURE_ACCESS_PROBABILITY+0x12>
    41015ed4:	00000e13          	li	x28,0
    41015ed8:	03c23c23          	sd	x28,56(x4) # 38 <SECURE_ACCESS_PROBABILITY+0x1a>
    41015edc:	00000e13          	li	x28,0
    41015ee0:	07c23023          	sd	x28,96(x4) # 60 <XLEN+0x20>
    41015ee4:	00000e13          	li	x28,0
    41015ee8:	07c23423          	sd	x28,104(x4) # 68 <XLEN+0x28>
    41015eec:	00000e13          	li	x28,0
    41015ef0:	07c23823          	sd	x28,112(x4) # 70 <XLEN+0x30>

0000000041015ef4 <fault_label_31>:
    41015ef4:	607493f3          	csrrw	x7,hgeie,x9
    41015ef8:	069cec37          	lui	x24,0x69ce
    41015efc:	008c0c1b          	addiw	x24,x24,8 # 69ce008 <failed_addr>
    41015f00:	000c3c83          	ld	x25,0(x24)
    41015f04:	000c8067          	jr	x25

0000000041015f08 <excp_return_label_31>:
    41015f08:	40a44237          	lui	x4,0x40a44
    41015f0c:	01600e13          	li	x28,22
    41015f10:	05c23823          	sd	x28,80(x4) # 40a44050 <check_excp_expected_cause>
    41015f14:	00000e17          	auipc	x28,0x0
    41015f18:	04ce0e13          	addi	x28,x28,76 # 41015f60 <fault_label_32>
    41015f1c:	03c23023          	sd	x28,32(x4) # 20 <SECURE_ACCESS_PROBABILITY+0x2>
    41015f20:	00000e13          	li	x28,0
    41015f24:	05c23023          	sd	x28,64(x4) # 40 <XLEN>
    41015f28:	00000e13          	li	x28,0
    41015f2c:	05c23423          	sd	x28,72(x4) # 48 <XLEN+0x8>
    41015f30:	00000e17          	auipc	x28,0x0
    41015f34:	044e0e13          	addi	x28,x28,68 # 41015f74 <excp_return_label_32>
    41015f38:	03c23823          	sd	x28,48(x4) # 30 <SECURE_ACCESS_PROBABILITY+0x12>
    41015f3c:	00000e13          	li	x28,0
    41015f40:	03c23c23          	sd	x28,56(x4) # 38 <SECURE_ACCESS_PROBABILITY+0x1a>
    41015f44:	00000e13          	li	x28,0
    41015f48:	07c23023          	sd	x28,96(x4) # 60 <XLEN+0x20>
    41015f4c:	00000e13          	li	x28,0
    41015f50:	07c23423          	sd	x28,104(x4) # 68 <XLEN+0x28>
    41015f54:	00000e13          	li	x28,0
    41015f58:	07c23823          	sd	x28,112(x4) # 70 <XLEN+0x30>
    41015f5c:	00000d13          	li	x26,0

0000000041015f60 <fault_label_32>:
    41015f60:	60ad2b73          	csrrs	x22,henvcfg,x26
    41015f64:	069ce9b7          	lui	x19,0x69ce
    41015f68:	0089899b          	addiw	x19,x19,8 # 69ce008 <failed_addr>
    41015f6c:	0009bb03          	ld	x22,0(x19)
    41015f70:	000b0067          	jr	x22

0000000041015f74 <excp_return_label_32>:
    41015f74:	40a44237          	lui	x4,0x40a44
    41015f78:	01600e13          	li	x28,22
    41015f7c:	05c23823          	sd	x28,80(x4) # 40a44050 <check_excp_expected_cause>
    41015f80:	00000e17          	auipc	x28,0x0
    41015f84:	048e0e13          	addi	x28,x28,72 # 41015fc8 <fault_label_33>
    41015f88:	03c23023          	sd	x28,32(x4) # 20 <SECURE_ACCESS_PROBABILITY+0x2>
    41015f8c:	00000e13          	li	x28,0
    41015f90:	05c23023          	sd	x28,64(x4) # 40 <XLEN>
    41015f94:	00000e13          	li	x28,0
    41015f98:	05c23423          	sd	x28,72(x4) # 48 <XLEN+0x8>
    41015f9c:	00000e17          	auipc	x28,0x0
    41015fa0:	040e0e13          	addi	x28,x28,64 # 41015fdc <excp_return_label_33>
    41015fa4:	03c23823          	sd	x28,48(x4) # 30 <SECURE_ACCESS_PROBABILITY+0x12>
    41015fa8:	00000e13          	li	x28,0
    41015fac:	03c23c23          	sd	x28,56(x4) # 38 <SECURE_ACCESS_PROBABILITY+0x1a>
    41015fb0:	00000e13          	li	x28,0
    41015fb4:	07c23023          	sd	x28,96(x4) # 60 <XLEN+0x20>
    41015fb8:	00000e13          	li	x28,0
    41015fbc:	07c23423          	sd	x28,104(x4) # 68 <XLEN+0x28>
    41015fc0:	00000e13          	li	x28,0
    41015fc4:	07c23823          	sd	x28,112(x4) # 70 <XLEN+0x30>

0000000041015fc8 <fault_label_33>:
    41015fc8:	60a49773          	csrrw	x14,henvcfg,x9
    41015fcc:	069cefb7          	lui	x31,0x69ce
    41015fd0:	008f8f9b          	addiw	x31,x31,8 # 69ce008 <failed_addr>
    41015fd4:	000fb703          	ld	x14,0(x31)
    41015fd8:	00070067          	jr	x14

0000000041015fdc <excp_return_label_33>:
    41015fdc:	40a44237          	lui	x4,0x40a44
    41015fe0:	01600e13          	li	x28,22
    41015fe4:	05c23823          	sd	x28,80(x4) # 40a44050 <check_excp_expected_cause>
    41015fe8:	00000e17          	auipc	x28,0x0
    41015fec:	04ce0e13          	addi	x28,x28,76 # 41016034 <fault_label_34>
    41015ff0:	03c23023          	sd	x28,32(x4) # 20 <SECURE_ACCESS_PROBABILITY+0x2>
    41015ff4:	00000e13          	li	x28,0
    41015ff8:	05c23023          	sd	x28,64(x4) # 40 <XLEN>
    41015ffc:	00000e13          	li	x28,0
    41016000:	05c23423          	sd	x28,72(x4) # 48 <XLEN+0x8>
    41016004:	00000e17          	auipc	x28,0x0
    41016008:	044e0e13          	addi	x28,x28,68 # 41016048 <excp_return_label_34>
    4101600c:	03c23823          	sd	x28,48(x4) # 30 <SECURE_ACCESS_PROBABILITY+0x12>
    41016010:	00000e13          	li	x28,0
    41016014:	03c23c23          	sd	x28,56(x4) # 38 <SECURE_ACCESS_PROBABILITY+0x1a>
    41016018:	00000e13          	li	x28,0
    4101601c:	07c23023          	sd	x28,96(x4) # 60 <XLEN+0x20>
    41016020:	00000e13          	li	x28,0
    41016024:	07c23423          	sd	x28,104(x4) # 68 <XLEN+0x28>
    41016028:	00000e13          	li	x28,0
    4101602c:	07c23823          	sd	x28,112(x4) # 70 <XLEN+0x30>
    41016030:	00000613          	li	x12,0

0000000041016034 <fault_label_34>:
    41016034:	60662bf3          	csrrs	x23,hcounteren,x12
    41016038:	069ced37          	lui	x26,0x69ce
    4101603c:	008d0d1b          	addiw	x26,x26,8 # 69ce008 <failed_addr>
    41016040:	000d3f83          	ld	x31,0(x26)
    41016044:	000f8067          	jr	x31

0000000041016048 <excp_return_label_34>:
    41016048:	40a44237          	lui	x4,0x40a44
    4101604c:	01600e13          	li	x28,22
    41016050:	05c23823          	sd	x28,80(x4) # 40a44050 <check_excp_expected_cause>
    41016054:	00000e17          	auipc	x28,0x0
    41016058:	048e0e13          	addi	x28,x28,72 # 4101609c <fault_label_35>
    4101605c:	03c23023          	sd	x28,32(x4) # 20 <SECURE_ACCESS_PROBABILITY+0x2>
    41016060:	00000e13          	li	x28,0
    41016064:	05c23023          	sd	x28,64(x4) # 40 <XLEN>
    41016068:	00000e13          	li	x28,0
    4101606c:	05c23423          	sd	x28,72(x4) # 48 <XLEN+0x8>
    41016070:	00000e17          	auipc	x28,0x0
    41016074:	040e0e13          	addi	x28,x28,64 # 410160b0 <excp_return_label_35>
    41016078:	03c23823          	sd	x28,48(x4) # 30 <SECURE_ACCESS_PROBABILITY+0x12>
    4101607c:	00000e13          	li	x28,0
    41016080:	03c23c23          	sd	x28,56(x4) # 38 <SECURE_ACCESS_PROBABILITY+0x1a>
    41016084:	00000e13          	li	x28,0
    41016088:	07c23023          	sd	x28,96(x4) # 60 <XLEN+0x20>
    4101608c:	00000e13          	li	x28,0
    41016090:	07c23423          	sd	x28,104(x4) # 68 <XLEN+0x28>
    41016094:	00000e13          	li	x28,0
    41016098:	07c23823          	sd	x28,112(x4) # 70 <XLEN+0x30>

000000004101609c <fault_label_35>:
    4101609c:	60649473          	csrrw	x8,hcounteren,x9
    410160a0:	069cea37          	lui	x20,0x69ce
    410160a4:	008a0a1b          	addiw	x20,x20,8 # 69ce008 <failed_addr>
    410160a8:	000a3703          	ld	x14,0(x20)
    410160ac:	00070067          	jr	x14

00000000410160b0 <excp_return_label_35>:
    410160b0:	40a44237          	lui	x4,0x40a44
    410160b4:	01600e13          	li	x28,22
    410160b8:	05c23823          	sd	x28,80(x4) # 40a44050 <check_excp_expected_cause>
    410160bc:	00000e17          	auipc	x28,0x0
    410160c0:	04ce0e13          	addi	x28,x28,76 # 41016108 <fault_label_36>
    410160c4:	03c23023          	sd	x28,32(x4) # 20 <SECURE_ACCESS_PROBABILITY+0x2>
    410160c8:	00000e13          	li	x28,0
    410160cc:	05c23023          	sd	x28,64(x4) # 40 <XLEN>
    410160d0:	00000e13          	li	x28,0
    410160d4:	05c23423          	sd	x28,72(x4) # 48 <XLEN+0x8>
    410160d8:	00000e17          	auipc	x28,0x0
    410160dc:	044e0e13          	addi	x28,x28,68 # 4101611c <excp_return_label_36>
    410160e0:	03c23823          	sd	x28,48(x4) # 30 <SECURE_ACCESS_PROBABILITY+0x12>
    410160e4:	00000e13          	li	x28,0
    410160e8:	03c23c23          	sd	x28,56(x4) # 38 <SECURE_ACCESS_PROBABILITY+0x1a>
    410160ec:	00000e13          	li	x28,0
    410160f0:	07c23023          	sd	x28,96(x4) # 60 <XLEN+0x20>
    410160f4:	00000e13          	li	x28,0
    410160f8:	07c23423          	sd	x28,104(x4) # 68 <XLEN+0x28>
    410160fc:	00000e13          	li	x28,0
    41016100:	07c23823          	sd	x28,112(x4) # 70 <XLEN+0x30>
    41016104:	00000f13          	li	x30,0

0000000041016108 <fault_label_36>:
    41016108:	605f2473          	csrrs	x8,htimedelta,x30
    4101610c:	069ce8b7          	lui	x17,0x69ce
    41016110:	0088889b          	addiw	x17,x17,8 # 69ce008 <failed_addr>
    41016114:	0008b883          	ld	x17,0(x17)
    41016118:	00088067          	jr	x17

000000004101611c <excp_return_label_36>:
    4101611c:	40a44237          	lui	x4,0x40a44
    41016120:	01600e13          	li	x28,22
    41016124:	05c23823          	sd	x28,80(x4) # 40a44050 <check_excp_expected_cause>
    41016128:	00000e17          	auipc	x28,0x0
    4101612c:	048e0e13          	addi	x28,x28,72 # 41016170 <fault_label_37>
    41016130:	03c23023          	sd	x28,32(x4) # 20 <SECURE_ACCESS_PROBABILITY+0x2>
    41016134:	00000e13          	li	x28,0
    41016138:	05c23023          	sd	x28,64(x4) # 40 <XLEN>
    4101613c:	00000e13          	li	x28,0
    41016140:	05c23423          	sd	x28,72(x4) # 48 <XLEN+0x8>
    41016144:	00000e17          	auipc	x28,0x0
    41016148:	040e0e13          	addi	x28,x28,64 # 41016184 <excp_return_label_37>
    4101614c:	03c23823          	sd	x28,48(x4) # 30 <SECURE_ACCESS_PROBABILITY+0x12>
    41016150:	00000e13          	li	x28,0
    41016154:	03c23c23          	sd	x28,56(x4) # 38 <SECURE_ACCESS_PROBABILITY+0x1a>
    41016158:	00000e13          	li	x28,0
    4101615c:	07c23023          	sd	x28,96(x4) # 60 <XLEN+0x20>
    41016160:	00000e13          	li	x28,0
    41016164:	07c23423          	sd	x28,104(x4) # 68 <XLEN+0x28>
    41016168:	00000e13          	li	x28,0
    4101616c:	07c23823          	sd	x28,112(x4) # 70 <XLEN+0x30>

0000000041016170 <fault_label_37>:
    41016170:	60549673          	csrrw	x12,htimedelta,x9
    41016174:	069cedb7          	lui	x27,0x69ce
    41016178:	008d8d9b          	addiw	x27,x27,8 # 69ce008 <failed_addr>
    4101617c:	000db783          	ld	x15,0(x27)
    41016180:	00078067          	jr	x15

0000000041016184 <excp_return_label_37>:
    41016184:	40a44237          	lui	x4,0x40a44
    41016188:	01600e13          	li	x28,22
    4101618c:	05c23823          	sd	x28,80(x4) # 40a44050 <check_excp_expected_cause>
    41016190:	00000e17          	auipc	x28,0x0
    41016194:	04ce0e13          	addi	x28,x28,76 # 410161dc <fault_label_38>
    41016198:	03c23023          	sd	x28,32(x4) # 20 <SECURE_ACCESS_PROBABILITY+0x2>
    4101619c:	00000e13          	li	x28,0
    410161a0:	05c23023          	sd	x28,64(x4) # 40 <XLEN>
    410161a4:	00000e13          	li	x28,0
    410161a8:	05c23423          	sd	x28,72(x4) # 48 <XLEN+0x8>
    410161ac:	00000e17          	auipc	x28,0x0
    410161b0:	044e0e13          	addi	x28,x28,68 # 410161f0 <excp_return_label_38>
    410161b4:	03c23823          	sd	x28,48(x4) # 30 <SECURE_ACCESS_PROBABILITY+0x12>
    410161b8:	00000e13          	li	x28,0
    410161bc:	03c23c23          	sd	x28,56(x4) # 38 <SECURE_ACCESS_PROBABILITY+0x1a>
    410161c0:	00000e13          	li	x28,0
    410161c4:	07c23023          	sd	x28,96(x4) # 60 <XLEN+0x20>
    410161c8:	00000e13          	li	x28,0
    410161cc:	07c23423          	sd	x28,104(x4) # 68 <XLEN+0x28>
    410161d0:	00000e13          	li	x28,0
    410161d4:	07c23823          	sd	x28,112(x4) # 70 <XLEN+0x30>
    410161d8:	00000693          	li	x13,0

00000000410161dc <fault_label_38>:
    410161dc:	6436a5f3          	csrrs	x11,htval,x13
    410161e0:	069ce937          	lui	x18,0x69ce
    410161e4:	0089091b          	addiw	x18,x18,8 # 69ce008 <failed_addr>
    410161e8:	00093f83          	ld	x31,0(x18)
    410161ec:	000f8067          	jr	x31

00000000410161f0 <excp_return_label_38>:
    410161f0:	40a44237          	lui	x4,0x40a44
    410161f4:	01600e13          	li	x28,22
    410161f8:	05c23823          	sd	x28,80(x4) # 40a44050 <check_excp_expected_cause>
    410161fc:	00000e17          	auipc	x28,0x0
    41016200:	048e0e13          	addi	x28,x28,72 # 41016244 <fault_label_39>
    41016204:	03c23023          	sd	x28,32(x4) # 20 <SECURE_ACCESS_PROBABILITY+0x2>
    41016208:	00000e13          	li	x28,0
    4101620c:	05c23023          	sd	x28,64(x4) # 40 <XLEN>
    41016210:	00000e13          	li	x28,0
    41016214:	05c23423          	sd	x28,72(x4) # 48 <XLEN+0x8>
    41016218:	00000e17          	auipc	x28,0x0
    4101621c:	040e0e13          	addi	x28,x28,64 # 41016258 <excp_return_label_39>
    41016220:	03c23823          	sd	x28,48(x4) # 30 <SECURE_ACCESS_PROBABILITY+0x12>
    41016224:	00000e13          	li	x28,0
    41016228:	03c23c23          	sd	x28,56(x4) # 38 <SECURE_ACCESS_PROBABILITY+0x1a>
    4101622c:	00000e13          	li	x28,0
    41016230:	07c23023          	sd	x28,96(x4) # 60 <XLEN+0x20>
    41016234:	00000e13          	li	x28,0
    41016238:	07c23423          	sd	x28,104(x4) # 68 <XLEN+0x28>
    4101623c:	00000e13          	li	x28,0
    41016240:	07c23823          	sd	x28,112(x4) # 70 <XLEN+0x30>

0000000041016244 <fault_label_39>:
    41016244:	643495f3          	csrrw	x11,htval,x9
    41016248:	069ce5b7          	lui	x11,0x69ce
    4101624c:	0085859b          	addiw	x11,x11,8 # 69ce008 <failed_addr>
    41016250:	0005b303          	ld	x6,0(x11)
    41016254:	00030067          	jr	x6

0000000041016258 <excp_return_label_39>:
    41016258:	40a44237          	lui	x4,0x40a44
    4101625c:	01600e13          	li	x28,22
    41016260:	05c23823          	sd	x28,80(x4) # 40a44050 <check_excp_expected_cause>
    41016264:	00000e17          	auipc	x28,0x0
    41016268:	04ce0e13          	addi	x28,x28,76 # 410162b0 <fault_label_40>
    4101626c:	03c23023          	sd	x28,32(x4) # 20 <SECURE_ACCESS_PROBABILITY+0x2>
    41016270:	00000e13          	li	x28,0
    41016274:	05c23023          	sd	x28,64(x4) # 40 <XLEN>
    41016278:	00000e13          	li	x28,0
    4101627c:	05c23423          	sd	x28,72(x4) # 48 <XLEN+0x8>
    41016280:	00000e17          	auipc	x28,0x0
    41016284:	044e0e13          	addi	x28,x28,68 # 410162c4 <excp_return_label_40>
    41016288:	03c23823          	sd	x28,48(x4) # 30 <SECURE_ACCESS_PROBABILITY+0x12>
    4101628c:	00000e13          	li	x28,0
    41016290:	03c23c23          	sd	x28,56(x4) # 38 <SECURE_ACCESS_PROBABILITY+0x1a>
    41016294:	00000e13          	li	x28,0
    41016298:	07c23023          	sd	x28,96(x4) # 60 <XLEN+0x20>
    4101629c:	00000e13          	li	x28,0
    410162a0:	07c23423          	sd	x28,104(x4) # 68 <XLEN+0x28>
    410162a4:	00000e13          	li	x28,0
    410162a8:	07c23823          	sd	x28,112(x4) # 70 <XLEN+0x30>
    410162ac:	00000513          	li	x10,0

00000000410162b0 <fault_label_40>:
    410162b0:	64a52a73          	csrrs	x20,htinst,x10
    410162b4:	069ce737          	lui	x14,0x69ce
    410162b8:	0087071b          	addiw	x14,x14,8 # 69ce008 <failed_addr>
    410162bc:	00073c03          	ld	x24,0(x14)
    410162c0:	000c0067          	jr	x24

00000000410162c4 <excp_return_label_40>:
    410162c4:	40a44237          	lui	x4,0x40a44
    410162c8:	01600e13          	li	x28,22
    410162cc:	05c23823          	sd	x28,80(x4) # 40a44050 <check_excp_expected_cause>
    410162d0:	00000e17          	auipc	x28,0x0
    410162d4:	048e0e13          	addi	x28,x28,72 # 41016318 <fault_label_41>
    410162d8:	03c23023          	sd	x28,32(x4) # 20 <SECURE_ACCESS_PROBABILITY+0x2>
    410162dc:	00000e13          	li	x28,0
    410162e0:	05c23023          	sd	x28,64(x4) # 40 <XLEN>
    410162e4:	00000e13          	li	x28,0
    410162e8:	05c23423          	sd	x28,72(x4) # 48 <XLEN+0x8>
    410162ec:	00000e17          	auipc	x28,0x0
    410162f0:	040e0e13          	addi	x28,x28,64 # 4101632c <excp_return_label_41>
    410162f4:	03c23823          	sd	x28,48(x4) # 30 <SECURE_ACCESS_PROBABILITY+0x12>
    410162f8:	00000e13          	li	x28,0
    410162fc:	03c23c23          	sd	x28,56(x4) # 38 <SECURE_ACCESS_PROBABILITY+0x1a>
    41016300:	00000e13          	li	x28,0
    41016304:	07c23023          	sd	x28,96(x4) # 60 <XLEN+0x20>
    41016308:	00000e13          	li	x28,0
    4101630c:	07c23423          	sd	x28,104(x4) # 68 <XLEN+0x28>
    41016310:	00000e13          	li	x28,0
    41016314:	07c23823          	sd	x28,112(x4) # 70 <XLEN+0x30>

0000000041016318 <fault_label_41>:
    41016318:	64a49b73          	csrrw	x22,htinst,x9
    4101631c:	069cea37          	lui	x20,0x69ce
    41016320:	008a0a1b          	addiw	x20,x20,8 # 69ce008 <failed_addr>
    41016324:	000a3803          	ld	x16,0(x20)
    41016328:	00080067          	jr	x16

000000004101632c <excp_return_label_41>:
    4101632c:	40a44237          	lui	x4,0x40a44
    41016330:	01600e13          	li	x28,22
    41016334:	05c23823          	sd	x28,80(x4) # 40a44050 <check_excp_expected_cause>
    41016338:	00000e17          	auipc	x28,0x0
    4101633c:	04ce0e13          	addi	x28,x28,76 # 41016384 <fault_label_42>
    41016340:	03c23023          	sd	x28,32(x4) # 20 <SECURE_ACCESS_PROBABILITY+0x2>
    41016344:	00000e13          	li	x28,0
    41016348:	05c23023          	sd	x28,64(x4) # 40 <XLEN>
    4101634c:	00000e13          	li	x28,0
    41016350:	05c23423          	sd	x28,72(x4) # 48 <XLEN+0x8>
    41016354:	00000e17          	auipc	x28,0x0
    41016358:	044e0e13          	addi	x28,x28,68 # 41016398 <excp_return_label_42>
    4101635c:	03c23823          	sd	x28,48(x4) # 30 <SECURE_ACCESS_PROBABILITY+0x12>
    41016360:	00000e13          	li	x28,0
    41016364:	03c23c23          	sd	x28,56(x4) # 38 <SECURE_ACCESS_PROBABILITY+0x1a>
    41016368:	00000e13          	li	x28,0
    4101636c:	07c23023          	sd	x28,96(x4) # 60 <XLEN+0x20>
    41016370:	00000e13          	li	x28,0
    41016374:	07c23423          	sd	x28,104(x4) # 68 <XLEN+0x28>
    41016378:	00000e13          	li	x28,0
    4101637c:	07c23823          	sd	x28,112(x4) # 70 <XLEN+0x30>
    41016380:	00000e93          	li	x29,0

0000000041016384 <fault_label_42>:
    41016384:	680eacf3          	csrrs	x25,hgatp,x29
    41016388:	069ce3b7          	lui	x7,0x69ce
    4101638c:	0083839b          	addiw	x7,x7,8 # 69ce008 <failed_addr>
    41016390:	0003ba83          	ld	x21,0(x7)
    41016394:	000a8067          	jr	x21

0000000041016398 <excp_return_label_42>:
    41016398:	40a44237          	lui	x4,0x40a44
    4101639c:	01600e13          	li	x28,22
    410163a0:	05c23823          	sd	x28,80(x4) # 40a44050 <check_excp_expected_cause>
    410163a4:	00000e17          	auipc	x28,0x0
    410163a8:	048e0e13          	addi	x28,x28,72 # 410163ec <fault_label_43>
    410163ac:	03c23023          	sd	x28,32(x4) # 20 <SECURE_ACCESS_PROBABILITY+0x2>
    410163b0:	00000e13          	li	x28,0
    410163b4:	05c23023          	sd	x28,64(x4) # 40 <XLEN>
    410163b8:	00000e13          	li	x28,0
    410163bc:	05c23423          	sd	x28,72(x4) # 48 <XLEN+0x8>
    410163c0:	00000e17          	auipc	x28,0x0
    410163c4:	040e0e13          	addi	x28,x28,64 # 41016400 <excp_return_label_43>
    410163c8:	03c23823          	sd	x28,48(x4) # 30 <SECURE_ACCESS_PROBABILITY+0x12>
    410163cc:	00000e13          	li	x28,0
    410163d0:	03c23c23          	sd	x28,56(x4) # 38 <SECURE_ACCESS_PROBABILITY+0x1a>
    410163d4:	00000e13          	li	x28,0
    410163d8:	07c23023          	sd	x28,96(x4) # 60 <XLEN+0x20>
    410163dc:	00000e13          	li	x28,0
    410163e0:	07c23423          	sd	x28,104(x4) # 68 <XLEN+0x28>
    410163e4:	00000e13          	li	x28,0
    410163e8:	07c23823          	sd	x28,112(x4) # 70 <XLEN+0x30>

00000000410163ec <fault_label_43>:
    410163ec:	680499f3          	csrrw	x19,hgatp,x9
    410163f0:	069ceab7          	lui	x21,0x69ce
    410163f4:	008a8a9b          	addiw	x21,x21,8 # 69ce008 <failed_addr>
    410163f8:	000abe03          	ld	x28,0(x21)
    410163fc:	000e0067          	jr	x28

0000000041016400 <excp_return_label_43>:
    41016400:	40a44237          	lui	x4,0x40a44
    41016404:	01600e13          	li	x28,22
    41016408:	05c23823          	sd	x28,80(x4) # 40a44050 <check_excp_expected_cause>
    4101640c:	00000e17          	auipc	x28,0x0
    41016410:	04ce0e13          	addi	x28,x28,76 # 41016458 <fault_label_44>
    41016414:	03c23023          	sd	x28,32(x4) # 20 <SECURE_ACCESS_PROBABILITY+0x2>
    41016418:	00000e13          	li	x28,0
    4101641c:	05c23023          	sd	x28,64(x4) # 40 <XLEN>
    41016420:	00000e13          	li	x28,0
    41016424:	05c23423          	sd	x28,72(x4) # 48 <XLEN+0x8>
    41016428:	00000e17          	auipc	x28,0x0
    4101642c:	044e0e13          	addi	x28,x28,68 # 4101646c <excp_return_label_44>
    41016430:	03c23823          	sd	x28,48(x4) # 30 <SECURE_ACCESS_PROBABILITY+0x12>
    41016434:	00000e13          	li	x28,0
    41016438:	03c23c23          	sd	x28,56(x4) # 38 <SECURE_ACCESS_PROBABILITY+0x1a>
    4101643c:	00000e13          	li	x28,0
    41016440:	07c23023          	sd	x28,96(x4) # 60 <XLEN+0x20>
    41016444:	00000e13          	li	x28,0
    41016448:	07c23423          	sd	x28,104(x4) # 68 <XLEN+0x28>
    4101644c:	00000e13          	li	x28,0
    41016450:	07c23823          	sd	x28,112(x4) # 70 <XLEN+0x30>
    41016454:	00000593          	li	x11,0

0000000041016458 <fault_label_44>:
    41016458:	6a85a6f3          	csrrs	x13,hcontext,x11
    4101645c:	069ce8b7          	lui	x17,0x69ce
    41016460:	0088889b          	addiw	x17,x17,8 # 69ce008 <failed_addr>
    41016464:	0008bd83          	ld	x27,0(x17)
    41016468:	000d8067          	jr	x27

000000004101646c <excp_return_label_44>:
    4101646c:	40a44237          	lui	x4,0x40a44
    41016470:	01600e13          	li	x28,22
    41016474:	05c23823          	sd	x28,80(x4) # 40a44050 <check_excp_expected_cause>
    41016478:	00000e17          	auipc	x28,0x0
    4101647c:	048e0e13          	addi	x28,x28,72 # 410164c0 <fault_label_45>
    41016480:	03c23023          	sd	x28,32(x4) # 20 <SECURE_ACCESS_PROBABILITY+0x2>
    41016484:	00000e13          	li	x28,0
    41016488:	05c23023          	sd	x28,64(x4) # 40 <XLEN>
    4101648c:	00000e13          	li	x28,0
    41016490:	05c23423          	sd	x28,72(x4) # 48 <XLEN+0x8>
    41016494:	00000e17          	auipc	x28,0x0
    41016498:	040e0e13          	addi	x28,x28,64 # 410164d4 <excp_return_label_45>
    4101649c:	03c23823          	sd	x28,48(x4) # 30 <SECURE_ACCESS_PROBABILITY+0x12>
    410164a0:	00000e13          	li	x28,0
    410164a4:	03c23c23          	sd	x28,56(x4) # 38 <SECURE_ACCESS_PROBABILITY+0x1a>
    410164a8:	00000e13          	li	x28,0
    410164ac:	07c23023          	sd	x28,96(x4) # 60 <XLEN+0x20>
    410164b0:	00000e13          	li	x28,0
    410164b4:	07c23423          	sd	x28,104(x4) # 68 <XLEN+0x28>
    410164b8:	00000e13          	li	x28,0
    410164bc:	07c23823          	sd	x28,112(x4) # 70 <XLEN+0x30>

00000000410164c0 <fault_label_45>:
    410164c0:	6a8498f3          	csrrw	x17,hcontext,x9
    410164c4:	069ce7b7          	lui	x15,0x69ce
    410164c8:	0087879b          	addiw	x15,x15,8 # 69ce008 <failed_addr>
    410164cc:	0007b383          	ld	x7,0(x15)
    410164d0:	00038067          	jr	x7

00000000410164d4 <excp_return_label_45>:
    410164d4:	40a44237          	lui	x4,0x40a44
    410164d8:	01600e13          	li	x28,22
    410164dc:	05c23823          	sd	x28,80(x4) # 40a44050 <check_excp_expected_cause>
    410164e0:	00000e17          	auipc	x28,0x0
    410164e4:	048e0e13          	addi	x28,x28,72 # 41016528 <fault_label_46>
    410164e8:	03c23023          	sd	x28,32(x4) # 20 <SECURE_ACCESS_PROBABILITY+0x2>
    410164ec:	00000e13          	li	x28,0
    410164f0:	05c23023          	sd	x28,64(x4) # 40 <XLEN>
    410164f4:	00000e13          	li	x28,0
    410164f8:	05c23423          	sd	x28,72(x4) # 48 <XLEN+0x8>
    410164fc:	00000e17          	auipc	x28,0x0
    41016500:	044e0e13          	addi	x28,x28,68 # 41016540 <excp_return_label_46>
    41016504:	03c23823          	sd	x28,48(x4) # 30 <SECURE_ACCESS_PROBABILITY+0x12>
    41016508:	00000e13          	li	x28,0
    4101650c:	03c23c23          	sd	x28,56(x4) # 38 <SECURE_ACCESS_PROBABILITY+0x1a>
    41016510:	00000e13          	li	x28,0
    41016514:	07c23023          	sd	x28,96(x4) # 60 <XLEN+0x20>
    41016518:	00000e13          	li	x28,0
    4101651c:	07c23423          	sd	x28,104(x4) # 68 <XLEN+0x28>
    41016520:	00000e13          	li	x28,0
    41016524:	07c23823          	sd	x28,112(x4) # 70 <XLEN+0x30>

0000000041016528 <fault_label_46>:
    41016528:	e12023f3          	csrr	x7,hgeip
    4101652c:	00038493          	mv	x9,x7
    41016530:	069cebb7          	lui	x23,0x69ce
    41016534:	008b8b9b          	addiw	x23,x23,8 # 69ce008 <failed_addr>
    41016538:	000bb803          	ld	x16,0(x23)
    4101653c:	00080067          	jr	x16

0000000041016540 <excp_return_label_46>:
    41016540:	0006c137          	lui	x2,0x6c
    41016544:	00013383          	ld	x7,0(x2) # 6c000 <tp_csr_storage>
    41016548:	069cefb7          	lui	x31,0x69ce
    4101654c:	0b0f8f9b          	addiw	x31,x31,176 # 69ce0b0 <machine_csr_jump_table_flags>
    41016550:	00400f13          	li	x30,4
    41016554:	01efb023          	sd	x30,0(x31)
    41016558:	000f0fb7          	lui	x31,0xf0
    4101655c:	001f8f9b          	addiw	x31,x31,1 # f0001 <SID_HEXCEP_09_hinval_vvma_vu_stack+0x25001>
    41016560:	00cf9f93          	slli	x31,x31,0xc
    41016564:	005f8f93          	addi	x31,x31,5
    41016568:	00000073          	ecall

000000004101656c <SID_HEXCEP_05_passed>:
    4101656c:	00f00f9b          	addiw	x31,x0,15
    41016570:	01cf9f93          	slli	x31,x31,0x1c
    41016574:	001f8f93          	addi	x31,x31,1
    41016578:	00000073          	ecall

000000004101657c <SID_HEXCEP_06>:
    4101657c:	fbd79137          	lui	x2,0xfbd79
    41016580:	e071011b          	addiw	x2,x2,-505 # fffffffffbd78e07 <SID_HEXCEP_06_stack+0x42871f516be07>
    41016584:	00c11113          	slli	x2,x2,0xc
    41016588:	c0d10113          	addi	x2,x2,-1011
    4101658c:	00c11113          	slli	x2,x2,0xc
    41016590:	000012b7          	lui	x5,0x1
    41016594:	00510133          	add	x2,x2,x5
    41016598:	ff017113          	andi	x2,x2,-16
    4101659c:	00000d13          	li	x26,0
    410165a0:	40a44237          	lui	x4,0x40a44
    410165a4:	01600e13          	li	x28,22
    410165a8:	05c23823          	sd	x28,80(x4) # 40a44050 <check_excp_expected_cause>
    410165ac:	00000e17          	auipc	x28,0x0
    410165b0:	04ce0e13          	addi	x28,x28,76 # 410165f8 <fault_label_47>
    410165b4:	03c23023          	sd	x28,32(x4) # 20 <SECURE_ACCESS_PROBABILITY+0x2>
    410165b8:	00000e13          	li	x28,0
    410165bc:	05c23023          	sd	x28,64(x4) # 40 <XLEN>
    410165c0:	00000e13          	li	x28,0
    410165c4:	05c23423          	sd	x28,72(x4) # 48 <XLEN+0x8>
    410165c8:	00000e17          	auipc	x28,0x0
    410165cc:	044e0e13          	addi	x28,x28,68 # 4101660c <excp_return_label_47>
    410165d0:	03c23823          	sd	x28,48(x4) # 30 <SECURE_ACCESS_PROBABILITY+0x12>
    410165d4:	00000e13          	li	x28,0
    410165d8:	03c23c23          	sd	x28,56(x4) # 38 <SECURE_ACCESS_PROBABILITY+0x1a>
    410165dc:	00000e13          	li	x28,0
    410165e0:	07c23023          	sd	x28,96(x4) # 60 <XLEN+0x20>
    410165e4:	00000e13          	li	x28,0
    410165e8:	07c23423          	sd	x28,104(x4) # 68 <XLEN+0x28>
    410165ec:	00000e13          	li	x28,0
    410165f0:	07c23823          	sd	x28,112(x4) # 70 <XLEN+0x30>
    410165f4:	00000393          	li	x7,0

00000000410165f8 <fault_label_47>:
    410165f8:	1003a773          	csrrs	x14,sstatus,x7
    410165fc:	069ce5b7          	lui	x11,0x69ce
    41016600:	0085859b          	addiw	x11,x11,8 # 69ce008 <failed_addr>
    41016604:	0005b403          	ld	x8,0(x11)
    41016608:	00040067          	jr	x8

000000004101660c <excp_return_label_47>:
    4101660c:	40a44237          	lui	x4,0x40a44
    41016610:	01600e13          	li	x28,22
    41016614:	05c23823          	sd	x28,80(x4) # 40a44050 <check_excp_expected_cause>
    41016618:	00000e17          	auipc	x28,0x0
    4101661c:	048e0e13          	addi	x28,x28,72 # 41016660 <fault_label_48>
    41016620:	03c23023          	sd	x28,32(x4) # 20 <SECURE_ACCESS_PROBABILITY+0x2>
    41016624:	00000e13          	li	x28,0
    41016628:	05c23023          	sd	x28,64(x4) # 40 <XLEN>
    4101662c:	00000e13          	li	x28,0
    41016630:	05c23423          	sd	x28,72(x4) # 48 <XLEN+0x8>
    41016634:	00000e17          	auipc	x28,0x0
    41016638:	040e0e13          	addi	x28,x28,64 # 41016674 <excp_return_label_48>
    4101663c:	03c23823          	sd	x28,48(x4) # 30 <SECURE_ACCESS_PROBABILITY+0x12>
    41016640:	00000e13          	li	x28,0
    41016644:	03c23c23          	sd	x28,56(x4) # 38 <SECURE_ACCESS_PROBABILITY+0x1a>
    41016648:	00000e13          	li	x28,0
    4101664c:	07c23023          	sd	x28,96(x4) # 60 <XLEN+0x20>
    41016650:	00000e13          	li	x28,0
    41016654:	07c23423          	sd	x28,104(x4) # 68 <XLEN+0x28>
    41016658:	00000e13          	li	x28,0
    4101665c:	07c23823          	sd	x28,112(x4) # 70 <XLEN+0x30>

0000000041016660 <fault_label_48>:
    41016660:	100d1373          	csrrw	x6,sstatus,x26
    41016664:	069ceb37          	lui	x22,0x69ce
    41016668:	008b0b1b          	addiw	x22,x22,8 # 69ce008 <failed_addr>
    4101666c:	000b3383          	ld	x7,0(x22)
    41016670:	00038067          	jr	x7

0000000041016674 <excp_return_label_48>:
    41016674:	40a44237          	lui	x4,0x40a44
    41016678:	01600e13          	li	x28,22
    4101667c:	05c23823          	sd	x28,80(x4) # 40a44050 <check_excp_expected_cause>
    41016680:	00000e17          	auipc	x28,0x0
    41016684:	04ce0e13          	addi	x28,x28,76 # 410166cc <fault_label_49>
    41016688:	03c23023          	sd	x28,32(x4) # 20 <SECURE_ACCESS_PROBABILITY+0x2>
    4101668c:	00000e13          	li	x28,0
    41016690:	05c23023          	sd	x28,64(x4) # 40 <XLEN>
    41016694:	00000e13          	li	x28,0
    41016698:	05c23423          	sd	x28,72(x4) # 48 <XLEN+0x8>
    4101669c:	00000e17          	auipc	x28,0x0
    410166a0:	044e0e13          	addi	x28,x28,68 # 410166e0 <excp_return_label_49>
    410166a4:	03c23823          	sd	x28,48(x4) # 30 <SECURE_ACCESS_PROBABILITY+0x12>
    410166a8:	00000e13          	li	x28,0
    410166ac:	03c23c23          	sd	x28,56(x4) # 38 <SECURE_ACCESS_PROBABILITY+0x1a>
    410166b0:	00000e13          	li	x28,0
    410166b4:	07c23023          	sd	x28,96(x4) # 60 <XLEN+0x20>
    410166b8:	00000e13          	li	x28,0
    410166bc:	07c23423          	sd	x28,104(x4) # 68 <XLEN+0x28>
    410166c0:	00000e13          	li	x28,0
    410166c4:	07c23823          	sd	x28,112(x4) # 70 <XLEN+0x30>
    410166c8:	00000593          	li	x11,0

00000000410166cc <fault_label_49>:
    410166cc:	1445a3f3          	csrrs	x7,sip,x11
    410166d0:	069ce5b7          	lui	x11,0x69ce
    410166d4:	0085859b          	addiw	x11,x11,8 # 69ce008 <failed_addr>
    410166d8:	0005b683          	ld	x13,0(x11)
    410166dc:	00068067          	jr	x13

00000000410166e0 <excp_return_label_49>:
    410166e0:	40a44237          	lui	x4,0x40a44
    410166e4:	01600e13          	li	x28,22
    410166e8:	05c23823          	sd	x28,80(x4) # 40a44050 <check_excp_expected_cause>
    410166ec:	00000e17          	auipc	x28,0x0
    410166f0:	048e0e13          	addi	x28,x28,72 # 41016734 <fault_label_50>
    410166f4:	03c23023          	sd	x28,32(x4) # 20 <SECURE_ACCESS_PROBABILITY+0x2>
    410166f8:	00000e13          	li	x28,0
    410166fc:	05c23023          	sd	x28,64(x4) # 40 <XLEN>
    41016700:	00000e13          	li	x28,0
    41016704:	05c23423          	sd	x28,72(x4) # 48 <XLEN+0x8>
    41016708:	00000e17          	auipc	x28,0x0
    4101670c:	040e0e13          	addi	x28,x28,64 # 41016748 <excp_return_label_50>
    41016710:	03c23823          	sd	x28,48(x4) # 30 <SECURE_ACCESS_PROBABILITY+0x12>
    41016714:	00000e13          	li	x28,0
    41016718:	03c23c23          	sd	x28,56(x4) # 38 <SECURE_ACCESS_PROBABILITY+0x1a>
    4101671c:	00000e13          	li	x28,0
    41016720:	07c23023          	sd	x28,96(x4) # 60 <XLEN+0x20>
    41016724:	00000e13          	li	x28,0
    41016728:	07c23423          	sd	x28,104(x4) # 68 <XLEN+0x28>
    4101672c:	00000e13          	li	x28,0
    41016730:	07c23823          	sd	x28,112(x4) # 70 <XLEN+0x30>

0000000041016734 <fault_label_50>:
    41016734:	144d1af3          	csrrw	x21,sip,x26
    41016738:	069cec37          	lui	x24,0x69ce
    4101673c:	008c0c1b          	addiw	x24,x24,8 # 69ce008 <failed_addr>
    41016740:	000c3f83          	ld	x31,0(x24)
    41016744:	000f8067          	jr	x31

0000000041016748 <excp_return_label_50>:
    41016748:	40a44237          	lui	x4,0x40a44
    4101674c:	01600e13          	li	x28,22
    41016750:	05c23823          	sd	x28,80(x4) # 40a44050 <check_excp_expected_cause>
    41016754:	00000e17          	auipc	x28,0x0
    41016758:	04ce0e13          	addi	x28,x28,76 # 410167a0 <fault_label_51>
    4101675c:	03c23023          	sd	x28,32(x4) # 20 <SECURE_ACCESS_PROBABILITY+0x2>
    41016760:	00000e13          	li	x28,0
    41016764:	05c23023          	sd	x28,64(x4) # 40 <XLEN>
    41016768:	00000e13          	li	x28,0
    4101676c:	05c23423          	sd	x28,72(x4) # 48 <XLEN+0x8>
    41016770:	00000e17          	auipc	x28,0x0
    41016774:	044e0e13          	addi	x28,x28,68 # 410167b4 <excp_return_label_51>
    41016778:	03c23823          	sd	x28,48(x4) # 30 <SECURE_ACCESS_PROBABILITY+0x12>
    4101677c:	00000e13          	li	x28,0
    41016780:	03c23c23          	sd	x28,56(x4) # 38 <SECURE_ACCESS_PROBABILITY+0x1a>
    41016784:	00000e13          	li	x28,0
    41016788:	07c23023          	sd	x28,96(x4) # 60 <XLEN+0x20>
    4101678c:	00000e13          	li	x28,0
    41016790:	07c23423          	sd	x28,104(x4) # 68 <XLEN+0x28>
    41016794:	00000e13          	li	x28,0
    41016798:	07c23823          	sd	x28,112(x4) # 70 <XLEN+0x30>
    4101679c:	00000493          	li	x9,0

00000000410167a0 <fault_label_51>:
    410167a0:	1044acf3          	csrrs	x25,sie,x9
    410167a4:	069ce437          	lui	x8,0x69ce
    410167a8:	0084041b          	addiw	x8,x8,8 # 69ce008 <failed_addr>
    410167ac:	00043583          	ld	x11,0(x8)
    410167b0:	00058067          	jr	x11

00000000410167b4 <excp_return_label_51>:
    410167b4:	40a44237          	lui	x4,0x40a44
    410167b8:	01600e13          	li	x28,22
    410167bc:	05c23823          	sd	x28,80(x4) # 40a44050 <check_excp_expected_cause>
    410167c0:	00000e17          	auipc	x28,0x0
    410167c4:	048e0e13          	addi	x28,x28,72 # 41016808 <fault_label_52>
    410167c8:	03c23023          	sd	x28,32(x4) # 20 <SECURE_ACCESS_PROBABILITY+0x2>
    410167cc:	00000e13          	li	x28,0
    410167d0:	05c23023          	sd	x28,64(x4) # 40 <XLEN>
    410167d4:	00000e13          	li	x28,0
    410167d8:	05c23423          	sd	x28,72(x4) # 48 <XLEN+0x8>
    410167dc:	00000e17          	auipc	x28,0x0
    410167e0:	040e0e13          	addi	x28,x28,64 # 4101681c <excp_return_label_52>
    410167e4:	03c23823          	sd	x28,48(x4) # 30 <SECURE_ACCESS_PROBABILITY+0x12>
    410167e8:	00000e13          	li	x28,0
    410167ec:	03c23c23          	sd	x28,56(x4) # 38 <SECURE_ACCESS_PROBABILITY+0x1a>
    410167f0:	00000e13          	li	x28,0
    410167f4:	07c23023          	sd	x28,96(x4) # 60 <XLEN+0x20>
    410167f8:	00000e13          	li	x28,0
    410167fc:	07c23423          	sd	x28,104(x4) # 68 <XLEN+0x28>
    41016800:	00000e13          	li	x28,0
    41016804:	07c23823          	sd	x28,112(x4) # 70 <XLEN+0x30>

0000000041016808 <fault_label_52>:
    41016808:	104d15f3          	csrrw	x11,sie,x26
    4101680c:	069cec37          	lui	x24,0x69ce
    41016810:	008c0c1b          	addiw	x24,x24,8 # 69ce008 <failed_addr>
    41016814:	000c3583          	ld	x11,0(x24)
    41016818:	00058067          	jr	x11

000000004101681c <excp_return_label_52>:
    4101681c:	40a44237          	lui	x4,0x40a44
    41016820:	01600e13          	li	x28,22
    41016824:	05c23823          	sd	x28,80(x4) # 40a44050 <check_excp_expected_cause>
    41016828:	00000e17          	auipc	x28,0x0
    4101682c:	04ce0e13          	addi	x28,x28,76 # 41016874 <fault_label_53>
    41016830:	03c23023          	sd	x28,32(x4) # 20 <SECURE_ACCESS_PROBABILITY+0x2>
    41016834:	00000e13          	li	x28,0
    41016838:	05c23023          	sd	x28,64(x4) # 40 <XLEN>
    4101683c:	00000e13          	li	x28,0
    41016840:	05c23423          	sd	x28,72(x4) # 48 <XLEN+0x8>
    41016844:	00000e17          	auipc	x28,0x0
    41016848:	044e0e13          	addi	x28,x28,68 # 41016888 <excp_return_label_53>
    4101684c:	03c23823          	sd	x28,48(x4) # 30 <SECURE_ACCESS_PROBABILITY+0x12>
    41016850:	00000e13          	li	x28,0
    41016854:	03c23c23          	sd	x28,56(x4) # 38 <SECURE_ACCESS_PROBABILITY+0x1a>
    41016858:	00000e13          	li	x28,0
    4101685c:	07c23023          	sd	x28,96(x4) # 60 <XLEN+0x20>
    41016860:	00000e13          	li	x28,0
    41016864:	07c23423          	sd	x28,104(x4) # 68 <XLEN+0x28>
    41016868:	00000e13          	li	x28,0
    4101686c:	07c23823          	sd	x28,112(x4) # 70 <XLEN+0x30>
    41016870:	00000613          	li	x12,0

0000000041016874 <fault_label_53>:
    41016874:	10562df3          	csrrs	x27,stvec,x12
    41016878:	069cedb7          	lui	x27,0x69ce
    4101687c:	008d8d9b          	addiw	x27,x27,8 # 69ce008 <failed_addr>
    41016880:	000db303          	ld	x6,0(x27)
    41016884:	00030067          	jr	x6

0000000041016888 <excp_return_label_53>:
    41016888:	40a44237          	lui	x4,0x40a44
    4101688c:	01600e13          	li	x28,22
    41016890:	05c23823          	sd	x28,80(x4) # 40a44050 <check_excp_expected_cause>
    41016894:	00000e17          	auipc	x28,0x0
    41016898:	048e0e13          	addi	x28,x28,72 # 410168dc <fault_label_54>
    4101689c:	03c23023          	sd	x28,32(x4) # 20 <SECURE_ACCESS_PROBABILITY+0x2>
    410168a0:	00000e13          	li	x28,0
    410168a4:	05c23023          	sd	x28,64(x4) # 40 <XLEN>
    410168a8:	00000e13          	li	x28,0
    410168ac:	05c23423          	sd	x28,72(x4) # 48 <XLEN+0x8>
    410168b0:	00000e17          	auipc	x28,0x0
    410168b4:	040e0e13          	addi	x28,x28,64 # 410168f0 <excp_return_label_54>
    410168b8:	03c23823          	sd	x28,48(x4) # 30 <SECURE_ACCESS_PROBABILITY+0x12>
    410168bc:	00000e13          	li	x28,0
    410168c0:	03c23c23          	sd	x28,56(x4) # 38 <SECURE_ACCESS_PROBABILITY+0x1a>
    410168c4:	00000e13          	li	x28,0
    410168c8:	07c23023          	sd	x28,96(x4) # 60 <XLEN+0x20>
    410168cc:	00000e13          	li	x28,0
    410168d0:	07c23423          	sd	x28,104(x4) # 68 <XLEN+0x28>
    410168d4:	00000e13          	li	x28,0
    410168d8:	07c23823          	sd	x28,112(x4) # 70 <XLEN+0x30>

00000000410168dc <fault_label_54>:
    410168dc:	105d1473          	csrrw	x8,stvec,x26
    410168e0:	069cedb7          	lui	x27,0x69ce
    410168e4:	008d8d9b          	addiw	x27,x27,8 # 69ce008 <failed_addr>
    410168e8:	000db903          	ld	x18,0(x27)
    410168ec:	00090067          	jr	x18

00000000410168f0 <excp_return_label_54>:
    410168f0:	40a44237          	lui	x4,0x40a44
    410168f4:	01600e13          	li	x28,22
    410168f8:	05c23823          	sd	x28,80(x4) # 40a44050 <check_excp_expected_cause>
    410168fc:	00000e17          	auipc	x28,0x0
    41016900:	04ce0e13          	addi	x28,x28,76 # 41016948 <fault_label_55>
    41016904:	03c23023          	sd	x28,32(x4) # 20 <SECURE_ACCESS_PROBABILITY+0x2>
    41016908:	00000e13          	li	x28,0
    4101690c:	05c23023          	sd	x28,64(x4) # 40 <XLEN>
    41016910:	00000e13          	li	x28,0
    41016914:	05c23423          	sd	x28,72(x4) # 48 <XLEN+0x8>
    41016918:	00000e17          	auipc	x28,0x0
    4101691c:	044e0e13          	addi	x28,x28,68 # 4101695c <excp_return_label_55>
    41016920:	03c23823          	sd	x28,48(x4) # 30 <SECURE_ACCESS_PROBABILITY+0x12>
    41016924:	00000e13          	li	x28,0
    41016928:	03c23c23          	sd	x28,56(x4) # 38 <SECURE_ACCESS_PROBABILITY+0x1a>
    4101692c:	00000e13          	li	x28,0
    41016930:	07c23023          	sd	x28,96(x4) # 60 <XLEN+0x20>
    41016934:	00000e13          	li	x28,0
    41016938:	07c23423          	sd	x28,104(x4) # 68 <XLEN+0x28>
    4101693c:	00000e13          	li	x28,0
    41016940:	07c23823          	sd	x28,112(x4) # 70 <XLEN+0x30>
    41016944:	00000f93          	li	x31,0

0000000041016948 <fault_label_55>:
    41016948:	140fae73          	csrrs	x28,sscratch,x31
    4101694c:	069ce837          	lui	x16,0x69ce
    41016950:	0088081b          	addiw	x16,x16,8 # 69ce008 <failed_addr>
    41016954:	00083903          	ld	x18,0(x16)
    41016958:	00090067          	jr	x18

000000004101695c <excp_return_label_55>:
    4101695c:	40a44237          	lui	x4,0x40a44
    41016960:	01600e13          	li	x28,22
    41016964:	05c23823          	sd	x28,80(x4) # 40a44050 <check_excp_expected_cause>
    41016968:	00000e17          	auipc	x28,0x0
    4101696c:	048e0e13          	addi	x28,x28,72 # 410169b0 <fault_label_56>
    41016970:	03c23023          	sd	x28,32(x4) # 20 <SECURE_ACCESS_PROBABILITY+0x2>
    41016974:	00000e13          	li	x28,0
    41016978:	05c23023          	sd	x28,64(x4) # 40 <XLEN>
    4101697c:	00000e13          	li	x28,0
    41016980:	05c23423          	sd	x28,72(x4) # 48 <XLEN+0x8>
    41016984:	00000e17          	auipc	x28,0x0
    41016988:	040e0e13          	addi	x28,x28,64 # 410169c4 <excp_return_label_56>
    4101698c:	03c23823          	sd	x28,48(x4) # 30 <SECURE_ACCESS_PROBABILITY+0x12>
    41016990:	00000e13          	li	x28,0
    41016994:	03c23c23          	sd	x28,56(x4) # 38 <SECURE_ACCESS_PROBABILITY+0x1a>
    41016998:	00000e13          	li	x28,0
    4101699c:	07c23023          	sd	x28,96(x4) # 60 <XLEN+0x20>
    410169a0:	00000e13          	li	x28,0
    410169a4:	07c23423          	sd	x28,104(x4) # 68 <XLEN+0x28>
    410169a8:	00000e13          	li	x28,0
    410169ac:	07c23823          	sd	x28,112(x4) # 70 <XLEN+0x30>

00000000410169b0 <fault_label_56>:
    410169b0:	140d1ff3          	csrrw	x31,sscratch,x26
    410169b4:	069ce3b7          	lui	x7,0x69ce
    410169b8:	0083839b          	addiw	x7,x7,8 # 69ce008 <failed_addr>
    410169bc:	0003b983          	ld	x19,0(x7)
    410169c0:	00098067          	jr	x19

00000000410169c4 <excp_return_label_56>:
    410169c4:	40a44237          	lui	x4,0x40a44
    410169c8:	01600e13          	li	x28,22
    410169cc:	05c23823          	sd	x28,80(x4) # 40a44050 <check_excp_expected_cause>
    410169d0:	00000e17          	auipc	x28,0x0
    410169d4:	04ce0e13          	addi	x28,x28,76 # 41016a1c <fault_label_57>
    410169d8:	03c23023          	sd	x28,32(x4) # 20 <SECURE_ACCESS_PROBABILITY+0x2>
    410169dc:	00000e13          	li	x28,0
    410169e0:	05c23023          	sd	x28,64(x4) # 40 <XLEN>
    410169e4:	00000e13          	li	x28,0
    410169e8:	05c23423          	sd	x28,72(x4) # 48 <XLEN+0x8>
    410169ec:	00000e17          	auipc	x28,0x0
    410169f0:	044e0e13          	addi	x28,x28,68 # 41016a30 <excp_return_label_57>
    410169f4:	03c23823          	sd	x28,48(x4) # 30 <SECURE_ACCESS_PROBABILITY+0x12>
    410169f8:	00000e13          	li	x28,0
    410169fc:	03c23c23          	sd	x28,56(x4) # 38 <SECURE_ACCESS_PROBABILITY+0x1a>
    41016a00:	00000e13          	li	x28,0
    41016a04:	07c23023          	sd	x28,96(x4) # 60 <XLEN+0x20>
    41016a08:	00000e13          	li	x28,0
    41016a0c:	07c23423          	sd	x28,104(x4) # 68 <XLEN+0x28>
    41016a10:	00000e13          	li	x28,0
    41016a14:	07c23823          	sd	x28,112(x4) # 70 <XLEN+0x30>
    41016a18:	00000513          	li	x10,0

0000000041016a1c <fault_label_57>:
    41016a1c:	14152673          	csrrs	x12,sepc,x10
    41016a20:	069ceeb7          	lui	x29,0x69ce
    41016a24:	008e8e9b          	addiw	x29,x29,8 # 69ce008 <failed_addr>
    41016a28:	000ebe03          	ld	x28,0(x29)
    41016a2c:	000e0067          	jr	x28

0000000041016a30 <excp_return_label_57>:
    41016a30:	40a44237          	lui	x4,0x40a44
    41016a34:	01600e13          	li	x28,22
    41016a38:	05c23823          	sd	x28,80(x4) # 40a44050 <check_excp_expected_cause>
    41016a3c:	00000e17          	auipc	x28,0x0
    41016a40:	048e0e13          	addi	x28,x28,72 # 41016a84 <fault_label_58>
    41016a44:	03c23023          	sd	x28,32(x4) # 20 <SECURE_ACCESS_PROBABILITY+0x2>
    41016a48:	00000e13          	li	x28,0
    41016a4c:	05c23023          	sd	x28,64(x4) # 40 <XLEN>
    41016a50:	00000e13          	li	x28,0
    41016a54:	05c23423          	sd	x28,72(x4) # 48 <XLEN+0x8>
    41016a58:	00000e17          	auipc	x28,0x0
    41016a5c:	040e0e13          	addi	x28,x28,64 # 41016a98 <excp_return_label_58>
    41016a60:	03c23823          	sd	x28,48(x4) # 30 <SECURE_ACCESS_PROBABILITY+0x12>
    41016a64:	00000e13          	li	x28,0
    41016a68:	03c23c23          	sd	x28,56(x4) # 38 <SECURE_ACCESS_PROBABILITY+0x1a>
    41016a6c:	00000e13          	li	x28,0
    41016a70:	07c23023          	sd	x28,96(x4) # 60 <XLEN+0x20>
    41016a74:	00000e13          	li	x28,0
    41016a78:	07c23423          	sd	x28,104(x4) # 68 <XLEN+0x28>
    41016a7c:	00000e13          	li	x28,0
    41016a80:	07c23823          	sd	x28,112(x4) # 70 <XLEN+0x30>

0000000041016a84 <fault_label_58>:
    41016a84:	141d1ff3          	csrrw	x31,sepc,x26
    41016a88:	069cefb7          	lui	x31,0x69ce
    41016a8c:	008f8f9b          	addiw	x31,x31,8 # 69ce008 <failed_addr>
    41016a90:	000fb583          	ld	x11,0(x31)
    41016a94:	00058067          	jr	x11

0000000041016a98 <excp_return_label_58>:
    41016a98:	40a44237          	lui	x4,0x40a44
    41016a9c:	01600e13          	li	x28,22
    41016aa0:	05c23823          	sd	x28,80(x4) # 40a44050 <check_excp_expected_cause>
    41016aa4:	00000e17          	auipc	x28,0x0
    41016aa8:	04ce0e13          	addi	x28,x28,76 # 41016af0 <fault_label_59>
    41016aac:	03c23023          	sd	x28,32(x4) # 20 <SECURE_ACCESS_PROBABILITY+0x2>
    41016ab0:	00000e13          	li	x28,0
    41016ab4:	05c23023          	sd	x28,64(x4) # 40 <XLEN>
    41016ab8:	00000e13          	li	x28,0
    41016abc:	05c23423          	sd	x28,72(x4) # 48 <XLEN+0x8>
    41016ac0:	00000e17          	auipc	x28,0x0
    41016ac4:	044e0e13          	addi	x28,x28,68 # 41016b04 <excp_return_label_59>
    41016ac8:	03c23823          	sd	x28,48(x4) # 30 <SECURE_ACCESS_PROBABILITY+0x12>
    41016acc:	00000e13          	li	x28,0
    41016ad0:	03c23c23          	sd	x28,56(x4) # 38 <SECURE_ACCESS_PROBABILITY+0x1a>
    41016ad4:	00000e13          	li	x28,0
    41016ad8:	07c23023          	sd	x28,96(x4) # 60 <XLEN+0x20>
    41016adc:	00000e13          	li	x28,0
    41016ae0:	07c23423          	sd	x28,104(x4) # 68 <XLEN+0x28>
    41016ae4:	00000e13          	li	x28,0
    41016ae8:	07c23823          	sd	x28,112(x4) # 70 <XLEN+0x30>
    41016aec:	00000813          	li	x16,0

0000000041016af0 <fault_label_59>:
    41016af0:	142823f3          	csrrs	x7,scause,x16
    41016af4:	069cecb7          	lui	x25,0x69ce
    41016af8:	008c8c9b          	addiw	x25,x25,8 # 69ce008 <failed_addr>
    41016afc:	000cbf03          	ld	x30,0(x25)
    41016b00:	000f0067          	jr	x30

0000000041016b04 <excp_return_label_59>:
    41016b04:	40a44237          	lui	x4,0x40a44
    41016b08:	01600e13          	li	x28,22
    41016b0c:	05c23823          	sd	x28,80(x4) # 40a44050 <check_excp_expected_cause>
    41016b10:	00000e17          	auipc	x28,0x0
    41016b14:	048e0e13          	addi	x28,x28,72 # 41016b58 <fault_label_60>
    41016b18:	03c23023          	sd	x28,32(x4) # 20 <SECURE_ACCESS_PROBABILITY+0x2>
    41016b1c:	00000e13          	li	x28,0
    41016b20:	05c23023          	sd	x28,64(x4) # 40 <XLEN>
    41016b24:	00000e13          	li	x28,0
    41016b28:	05c23423          	sd	x28,72(x4) # 48 <XLEN+0x8>
    41016b2c:	00000e17          	auipc	x28,0x0
    41016b30:	040e0e13          	addi	x28,x28,64 # 41016b6c <excp_return_label_60>
    41016b34:	03c23823          	sd	x28,48(x4) # 30 <SECURE_ACCESS_PROBABILITY+0x12>
    41016b38:	00000e13          	li	x28,0
    41016b3c:	03c23c23          	sd	x28,56(x4) # 38 <SECURE_ACCESS_PROBABILITY+0x1a>
    41016b40:	00000e13          	li	x28,0
    41016b44:	07c23023          	sd	x28,96(x4) # 60 <XLEN+0x20>
    41016b48:	00000e13          	li	x28,0
    41016b4c:	07c23423          	sd	x28,104(x4) # 68 <XLEN+0x28>
    41016b50:	00000e13          	li	x28,0
    41016b54:	07c23823          	sd	x28,112(x4) # 70 <XLEN+0x30>

0000000041016b58 <fault_label_60>:
    41016b58:	142d1373          	csrrw	x6,scause,x26
    41016b5c:	069ce4b7          	lui	x9,0x69ce
    41016b60:	0084849b          	addiw	x9,x9,8 # 69ce008 <failed_addr>
    41016b64:	0004bc03          	ld	x24,0(x9)
    41016b68:	000c0067          	jr	x24

0000000041016b6c <excp_return_label_60>:
    41016b6c:	40a44237          	lui	x4,0x40a44
    41016b70:	01600e13          	li	x28,22
    41016b74:	05c23823          	sd	x28,80(x4) # 40a44050 <check_excp_expected_cause>
    41016b78:	00000e17          	auipc	x28,0x0
    41016b7c:	04ce0e13          	addi	x28,x28,76 # 41016bc4 <fault_label_61>
    41016b80:	03c23023          	sd	x28,32(x4) # 20 <SECURE_ACCESS_PROBABILITY+0x2>
    41016b84:	00000e13          	li	x28,0
    41016b88:	05c23023          	sd	x28,64(x4) # 40 <XLEN>
    41016b8c:	00000e13          	li	x28,0
    41016b90:	05c23423          	sd	x28,72(x4) # 48 <XLEN+0x8>
    41016b94:	00000e17          	auipc	x28,0x0
    41016b98:	044e0e13          	addi	x28,x28,68 # 41016bd8 <excp_return_label_61>
    41016b9c:	03c23823          	sd	x28,48(x4) # 30 <SECURE_ACCESS_PROBABILITY+0x12>
    41016ba0:	00000e13          	li	x28,0
    41016ba4:	03c23c23          	sd	x28,56(x4) # 38 <SECURE_ACCESS_PROBABILITY+0x1a>
    41016ba8:	00000e13          	li	x28,0
    41016bac:	07c23023          	sd	x28,96(x4) # 60 <XLEN+0x20>
    41016bb0:	00000e13          	li	x28,0
    41016bb4:	07c23423          	sd	x28,104(x4) # 68 <XLEN+0x28>
    41016bb8:	00000e13          	li	x28,0
    41016bbc:	07c23823          	sd	x28,112(x4) # 70 <XLEN+0x30>
    41016bc0:	00000393          	li	x7,0

0000000041016bc4 <fault_label_61>:
    41016bc4:	1433a673          	csrrs	x12,stval,x7
    41016bc8:	069ce337          	lui	x6,0x69ce
    41016bcc:	0083031b          	addiw	x6,x6,8 # 69ce008 <failed_addr>
    41016bd0:	00033783          	ld	x15,0(x6)
    41016bd4:	00078067          	jr	x15

0000000041016bd8 <excp_return_label_61>:
    41016bd8:	40a44237          	lui	x4,0x40a44
    41016bdc:	01600e13          	li	x28,22
    41016be0:	05c23823          	sd	x28,80(x4) # 40a44050 <check_excp_expected_cause>
    41016be4:	00000e17          	auipc	x28,0x0
    41016be8:	048e0e13          	addi	x28,x28,72 # 41016c2c <fault_label_62>
    41016bec:	03c23023          	sd	x28,32(x4) # 20 <SECURE_ACCESS_PROBABILITY+0x2>
    41016bf0:	00000e13          	li	x28,0
    41016bf4:	05c23023          	sd	x28,64(x4) # 40 <XLEN>
    41016bf8:	00000e13          	li	x28,0
    41016bfc:	05c23423          	sd	x28,72(x4) # 48 <XLEN+0x8>
    41016c00:	00000e17          	auipc	x28,0x0
    41016c04:	040e0e13          	addi	x28,x28,64 # 41016c40 <excp_return_label_62>
    41016c08:	03c23823          	sd	x28,48(x4) # 30 <SECURE_ACCESS_PROBABILITY+0x12>
    41016c0c:	00000e13          	li	x28,0
    41016c10:	03c23c23          	sd	x28,56(x4) # 38 <SECURE_ACCESS_PROBABILITY+0x1a>
    41016c14:	00000e13          	li	x28,0
    41016c18:	07c23023          	sd	x28,96(x4) # 60 <XLEN+0x20>
    41016c1c:	00000e13          	li	x28,0
    41016c20:	07c23423          	sd	x28,104(x4) # 68 <XLEN+0x28>
    41016c24:	00000e13          	li	x28,0
    41016c28:	07c23823          	sd	x28,112(x4) # 70 <XLEN+0x30>

0000000041016c2c <fault_label_62>:
    41016c2c:	143d1673          	csrrw	x12,stval,x26
    41016c30:	069cecb7          	lui	x25,0x69ce
    41016c34:	008c8c9b          	addiw	x25,x25,8 # 69ce008 <failed_addr>
    41016c38:	000cbb03          	ld	x22,0(x25)
    41016c3c:	000b0067          	jr	x22

0000000041016c40 <excp_return_label_62>:
    41016c40:	40a44237          	lui	x4,0x40a44
    41016c44:	01600e13          	li	x28,22
    41016c48:	05c23823          	sd	x28,80(x4) # 40a44050 <check_excp_expected_cause>
    41016c4c:	00000e17          	auipc	x28,0x0
    41016c50:	04ce0e13          	addi	x28,x28,76 # 41016c98 <fault_label_63>
    41016c54:	03c23023          	sd	x28,32(x4) # 20 <SECURE_ACCESS_PROBABILITY+0x2>
    41016c58:	00000e13          	li	x28,0
    41016c5c:	05c23023          	sd	x28,64(x4) # 40 <XLEN>
    41016c60:	00000e13          	li	x28,0
    41016c64:	05c23423          	sd	x28,72(x4) # 48 <XLEN+0x8>
    41016c68:	00000e17          	auipc	x28,0x0
    41016c6c:	044e0e13          	addi	x28,x28,68 # 41016cac <excp_return_label_63>
    41016c70:	03c23823          	sd	x28,48(x4) # 30 <SECURE_ACCESS_PROBABILITY+0x12>
    41016c74:	00000e13          	li	x28,0
    41016c78:	03c23c23          	sd	x28,56(x4) # 38 <SECURE_ACCESS_PROBABILITY+0x1a>
    41016c7c:	00000e13          	li	x28,0
    41016c80:	07c23023          	sd	x28,96(x4) # 60 <XLEN+0x20>
    41016c84:	00000e13          	li	x28,0
    41016c88:	07c23423          	sd	x28,104(x4) # 68 <XLEN+0x28>
    41016c8c:	00000e13          	li	x28,0
    41016c90:	07c23823          	sd	x28,112(x4) # 70 <XLEN+0x30>
    41016c94:	00000793          	li	x15,0

0000000041016c98 <fault_label_63>:
    41016c98:	1807aa73          	csrrs	x20,satp,x15
    41016c9c:	069ce9b7          	lui	x19,0x69ce
    41016ca0:	0089899b          	addiw	x19,x19,8 # 69ce008 <failed_addr>
    41016ca4:	0009bb83          	ld	x23,0(x19)
    41016ca8:	000b8067          	jr	x23

0000000041016cac <excp_return_label_63>:
    41016cac:	40a44237          	lui	x4,0x40a44
    41016cb0:	01600e13          	li	x28,22
    41016cb4:	05c23823          	sd	x28,80(x4) # 40a44050 <check_excp_expected_cause>
    41016cb8:	00000e17          	auipc	x28,0x0
    41016cbc:	048e0e13          	addi	x28,x28,72 # 41016d00 <fault_label_64>
    41016cc0:	03c23023          	sd	x28,32(x4) # 20 <SECURE_ACCESS_PROBABILITY+0x2>
    41016cc4:	00000e13          	li	x28,0
    41016cc8:	05c23023          	sd	x28,64(x4) # 40 <XLEN>
    41016ccc:	00000e13          	li	x28,0
    41016cd0:	05c23423          	sd	x28,72(x4) # 48 <XLEN+0x8>
    41016cd4:	00000e17          	auipc	x28,0x0
    41016cd8:	040e0e13          	addi	x28,x28,64 # 41016d14 <excp_return_label_64>
    41016cdc:	03c23823          	sd	x28,48(x4) # 30 <SECURE_ACCESS_PROBABILITY+0x12>
    41016ce0:	00000e13          	li	x28,0
    41016ce4:	03c23c23          	sd	x28,56(x4) # 38 <SECURE_ACCESS_PROBABILITY+0x1a>
    41016ce8:	00000e13          	li	x28,0
    41016cec:	07c23023          	sd	x28,96(x4) # 60 <XLEN+0x20>
    41016cf0:	00000e13          	li	x28,0
    41016cf4:	07c23423          	sd	x28,104(x4) # 68 <XLEN+0x28>
    41016cf8:	00000e13          	li	x28,0
    41016cfc:	07c23823          	sd	x28,112(x4) # 70 <XLEN+0x30>

0000000041016d00 <fault_label_64>:
    41016d00:	180d1473          	csrrw	x8,satp,x26
    41016d04:	069ce937          	lui	x18,0x69ce
    41016d08:	0089091b          	addiw	x18,x18,8 # 69ce008 <failed_addr>
    41016d0c:	00093503          	ld	x10,0(x18)
    41016d10:	00050067          	jr	x10

0000000041016d14 <excp_return_label_64>:
    41016d14:	40a44237          	lui	x4,0x40a44
    41016d18:	01600e13          	li	x28,22
    41016d1c:	05c23823          	sd	x28,80(x4) # 40a44050 <check_excp_expected_cause>
    41016d20:	00000e17          	auipc	x28,0x0
    41016d24:	04ce0e13          	addi	x28,x28,76 # 41016d6c <fault_label_65>
    41016d28:	03c23023          	sd	x28,32(x4) # 20 <SECURE_ACCESS_PROBABILITY+0x2>
    41016d2c:	00000e13          	li	x28,0
    41016d30:	05c23023          	sd	x28,64(x4) # 40 <XLEN>
    41016d34:	00000e13          	li	x28,0
    41016d38:	05c23423          	sd	x28,72(x4) # 48 <XLEN+0x8>
    41016d3c:	00000e17          	auipc	x28,0x0
    41016d40:	044e0e13          	addi	x28,x28,68 # 41016d80 <excp_return_label_65>
    41016d44:	03c23823          	sd	x28,48(x4) # 30 <SECURE_ACCESS_PROBABILITY+0x12>
    41016d48:	00000e13          	li	x28,0
    41016d4c:	03c23c23          	sd	x28,56(x4) # 38 <SECURE_ACCESS_PROBABILITY+0x1a>
    41016d50:	00000e13          	li	x28,0
    41016d54:	07c23023          	sd	x28,96(x4) # 60 <XLEN+0x20>
    41016d58:	00000e13          	li	x28,0
    41016d5c:	07c23423          	sd	x28,104(x4) # 68 <XLEN+0x28>
    41016d60:	00000e13          	li	x28,0
    41016d64:	07c23823          	sd	x28,112(x4) # 70 <XLEN+0x30>
    41016d68:	00000a93          	li	x21,0

0000000041016d6c <fault_label_65>:
    41016d6c:	106aa673          	csrrs	x12,scounteren,x21
    41016d70:	069ce437          	lui	x8,0x69ce
    41016d74:	0084041b          	addiw	x8,x8,8 # 69ce008 <failed_addr>
    41016d78:	00043583          	ld	x11,0(x8)
    41016d7c:	00058067          	jr	x11

0000000041016d80 <excp_return_label_65>:
    41016d80:	40a44237          	lui	x4,0x40a44
    41016d84:	01600e13          	li	x28,22
    41016d88:	05c23823          	sd	x28,80(x4) # 40a44050 <check_excp_expected_cause>
    41016d8c:	00000e17          	auipc	x28,0x0
    41016d90:	048e0e13          	addi	x28,x28,72 # 41016dd4 <fault_label_66>
    41016d94:	03c23023          	sd	x28,32(x4) # 20 <SECURE_ACCESS_PROBABILITY+0x2>
    41016d98:	00000e13          	li	x28,0
    41016d9c:	05c23023          	sd	x28,64(x4) # 40 <XLEN>
    41016da0:	00000e13          	li	x28,0
    41016da4:	05c23423          	sd	x28,72(x4) # 48 <XLEN+0x8>
    41016da8:	00000e17          	auipc	x28,0x0
    41016dac:	040e0e13          	addi	x28,x28,64 # 41016de8 <excp_return_label_66>
    41016db0:	03c23823          	sd	x28,48(x4) # 30 <SECURE_ACCESS_PROBABILITY+0x12>
    41016db4:	00000e13          	li	x28,0
    41016db8:	03c23c23          	sd	x28,56(x4) # 38 <SECURE_ACCESS_PROBABILITY+0x1a>
    41016dbc:	00000e13          	li	x28,0
    41016dc0:	07c23023          	sd	x28,96(x4) # 60 <XLEN+0x20>
    41016dc4:	00000e13          	li	x28,0
    41016dc8:	07c23423          	sd	x28,104(x4) # 68 <XLEN+0x28>
    41016dcc:	00000e13          	li	x28,0
    41016dd0:	07c23823          	sd	x28,112(x4) # 70 <XLEN+0x30>

0000000041016dd4 <fault_label_66>:
    41016dd4:	106d1a73          	csrrw	x20,scounteren,x26
    41016dd8:	069ce437          	lui	x8,0x69ce
    41016ddc:	0084041b          	addiw	x8,x8,8 # 69ce008 <failed_addr>
    41016de0:	00043703          	ld	x14,0(x8)
    41016de4:	00070067          	jr	x14

0000000041016de8 <excp_return_label_66>:
    41016de8:	40a44237          	lui	x4,0x40a44
    41016dec:	01600e13          	li	x28,22
    41016df0:	05c23823          	sd	x28,80(x4) # 40a44050 <check_excp_expected_cause>
    41016df4:	00000e17          	auipc	x28,0x0
    41016df8:	04ce0e13          	addi	x28,x28,76 # 41016e40 <fault_label_67>
    41016dfc:	03c23023          	sd	x28,32(x4) # 20 <SECURE_ACCESS_PROBABILITY+0x2>
    41016e00:	00000e13          	li	x28,0
    41016e04:	05c23023          	sd	x28,64(x4) # 40 <XLEN>
    41016e08:	00000e13          	li	x28,0
    41016e0c:	05c23423          	sd	x28,72(x4) # 48 <XLEN+0x8>
    41016e10:	00000e17          	auipc	x28,0x0
    41016e14:	044e0e13          	addi	x28,x28,68 # 41016e54 <excp_return_label_67>
    41016e18:	03c23823          	sd	x28,48(x4) # 30 <SECURE_ACCESS_PROBABILITY+0x12>
    41016e1c:	00000e13          	li	x28,0
    41016e20:	03c23c23          	sd	x28,56(x4) # 38 <SECURE_ACCESS_PROBABILITY+0x1a>
    41016e24:	00000e13          	li	x28,0
    41016e28:	07c23023          	sd	x28,96(x4) # 60 <XLEN+0x20>
    41016e2c:	00000e13          	li	x28,0
    41016e30:	07c23423          	sd	x28,104(x4) # 68 <XLEN+0x28>
    41016e34:	00000e13          	li	x28,0
    41016e38:	07c23823          	sd	x28,112(x4) # 70 <XLEN+0x30>
    41016e3c:	00000f13          	li	x30,0

0000000041016e40 <fault_label_67>:
    41016e40:	10af24f3          	csrrs	x9,0x10a,x30
    41016e44:	069ce737          	lui	x14,0x69ce
    41016e48:	0087071b          	addiw	x14,x14,8 # 69ce008 <failed_addr>
    41016e4c:	00073b83          	ld	x23,0(x14)
    41016e50:	000b8067          	jr	x23

0000000041016e54 <excp_return_label_67>:
    41016e54:	40a44237          	lui	x4,0x40a44
    41016e58:	01600e13          	li	x28,22
    41016e5c:	05c23823          	sd	x28,80(x4) # 40a44050 <check_excp_expected_cause>
    41016e60:	00000e17          	auipc	x28,0x0
    41016e64:	048e0e13          	addi	x28,x28,72 # 41016ea8 <fault_label_68>
    41016e68:	03c23023          	sd	x28,32(x4) # 20 <SECURE_ACCESS_PROBABILITY+0x2>
    41016e6c:	00000e13          	li	x28,0
    41016e70:	05c23023          	sd	x28,64(x4) # 40 <XLEN>
    41016e74:	00000e13          	li	x28,0
    41016e78:	05c23423          	sd	x28,72(x4) # 48 <XLEN+0x8>
    41016e7c:	00000e17          	auipc	x28,0x0
    41016e80:	040e0e13          	addi	x28,x28,64 # 41016ebc <excp_return_label_68>
    41016e84:	03c23823          	sd	x28,48(x4) # 30 <SECURE_ACCESS_PROBABILITY+0x12>
    41016e88:	00000e13          	li	x28,0
    41016e8c:	03c23c23          	sd	x28,56(x4) # 38 <SECURE_ACCESS_PROBABILITY+0x1a>
    41016e90:	00000e13          	li	x28,0
    41016e94:	07c23023          	sd	x28,96(x4) # 60 <XLEN+0x20>
    41016e98:	00000e13          	li	x28,0
    41016e9c:	07c23423          	sd	x28,104(x4) # 68 <XLEN+0x28>
    41016ea0:	00000e13          	li	x28,0
    41016ea4:	07c23823          	sd	x28,112(x4) # 70 <XLEN+0x30>

0000000041016ea8 <fault_label_68>:
    41016ea8:	10ad1df3          	csrrw	x27,0x10a,x26
    41016eac:	069ce337          	lui	x6,0x69ce
    41016eb0:	0083031b          	addiw	x6,x6,8 # 69ce008 <failed_addr>
    41016eb4:	00033e83          	ld	x29,0(x6)
    41016eb8:	000e8067          	jr	x29

0000000041016ebc <excp_return_label_68>:
    41016ebc:	40a44237          	lui	x4,0x40a44
    41016ec0:	01600e13          	li	x28,22
    41016ec4:	05c23823          	sd	x28,80(x4) # 40a44050 <check_excp_expected_cause>
    41016ec8:	00000e17          	auipc	x28,0x0
    41016ecc:	04ce0e13          	addi	x28,x28,76 # 41016f14 <fault_label_69>
    41016ed0:	03c23023          	sd	x28,32(x4) # 20 <SECURE_ACCESS_PROBABILITY+0x2>
    41016ed4:	00000e13          	li	x28,0
    41016ed8:	05c23023          	sd	x28,64(x4) # 40 <XLEN>
    41016edc:	00000e13          	li	x28,0
    41016ee0:	05c23423          	sd	x28,72(x4) # 48 <XLEN+0x8>
    41016ee4:	00000e17          	auipc	x28,0x0
    41016ee8:	044e0e13          	addi	x28,x28,68 # 41016f28 <excp_return_label_69>
    41016eec:	03c23823          	sd	x28,48(x4) # 30 <SECURE_ACCESS_PROBABILITY+0x12>
    41016ef0:	00000e13          	li	x28,0
    41016ef4:	03c23c23          	sd	x28,56(x4) # 38 <SECURE_ACCESS_PROBABILITY+0x1a>
    41016ef8:	00000e13          	li	x28,0
    41016efc:	07c23023          	sd	x28,96(x4) # 60 <XLEN+0x20>
    41016f00:	00000e13          	li	x28,0
    41016f04:	07c23423          	sd	x28,104(x4) # 68 <XLEN+0x28>
    41016f08:	00000e13          	li	x28,0
    41016f0c:	07c23823          	sd	x28,112(x4) # 70 <XLEN+0x30>
    41016f10:	00000f13          	li	x30,0

0000000041016f14 <fault_label_69>:
    41016f14:	5a8f2cf3          	csrrs	x25,scontext,x30
    41016f18:	069cebb7          	lui	x23,0x69ce
    41016f1c:	008b8b9b          	addiw	x23,x23,8 # 69ce008 <failed_addr>
    41016f20:	000bbd83          	ld	x27,0(x23)
    41016f24:	000d8067          	jr	x27

0000000041016f28 <excp_return_label_69>:
    41016f28:	40a44237          	lui	x4,0x40a44
    41016f2c:	01600e13          	li	x28,22
    41016f30:	05c23823          	sd	x28,80(x4) # 40a44050 <check_excp_expected_cause>
    41016f34:	00000e17          	auipc	x28,0x0
    41016f38:	048e0e13          	addi	x28,x28,72 # 41016f7c <fault_label_70>
    41016f3c:	03c23023          	sd	x28,32(x4) # 20 <SECURE_ACCESS_PROBABILITY+0x2>
    41016f40:	00000e13          	li	x28,0
    41016f44:	05c23023          	sd	x28,64(x4) # 40 <XLEN>
    41016f48:	00000e13          	li	x28,0
    41016f4c:	05c23423          	sd	x28,72(x4) # 48 <XLEN+0x8>
    41016f50:	00000e17          	auipc	x28,0x0
    41016f54:	040e0e13          	addi	x28,x28,64 # 41016f90 <SID_HEXCEP_06_passed>
    41016f58:	03c23823          	sd	x28,48(x4) # 30 <SECURE_ACCESS_PROBABILITY+0x12>
    41016f5c:	00000e13          	li	x28,0
    41016f60:	03c23c23          	sd	x28,56(x4) # 38 <SECURE_ACCESS_PROBABILITY+0x1a>
    41016f64:	00000e13          	li	x28,0
    41016f68:	07c23023          	sd	x28,96(x4) # 60 <XLEN+0x20>
    41016f6c:	00000e13          	li	x28,0
    41016f70:	07c23423          	sd	x28,104(x4) # 68 <XLEN+0x28>
    41016f74:	00000e13          	li	x28,0
    41016f78:	07c23823          	sd	x28,112(x4) # 70 <XLEN+0x30>

0000000041016f7c <fault_label_70>:
    41016f7c:	5a8d1cf3          	csrrw	x25,scontext,x26
    41016f80:	069ce537          	lui	x10,0x69ce
    41016f84:	0085051b          	addiw	x10,x10,8 # 69ce008 <failed_addr>
    41016f88:	00053783          	ld	x15,0(x10)
    41016f8c:	00078067          	jr	x15

0000000041016f90 <SID_HEXCEP_06_passed>:
    41016f90:	00f00f9b          	addiw	x31,x0,15
    41016f94:	01cf9f93          	slli	x31,x31,0x1c
    41016f98:	001f8f93          	addi	x31,x31,1
    41016f9c:	00000073          	ecall

0000000041016fa0 <SID_HEXCEP_07_vu_mode_case1>:
    41016fa0:	0006c137          	lui	x2,0x6c
    41016fa4:	069cefb7          	lui	x31,0x69ce
    41016fa8:	0b8f8f9b          	addiw	x31,x31,184 # 69ce0b8 <super_csr_jump_table_flags>
    41016fac:	00500f13          	li	x30,5
    41016fb0:	01efb023          	sd	x30,0(x31)
    41016fb4:	000f0fb7          	lui	x31,0xf0
    41016fb8:	001f8f9b          	addiw	x31,x31,1 # f0001 <SID_HEXCEP_09_hinval_vvma_vu_stack+0x25001>
    41016fbc:	00cf9f93          	slli	x31,x31,0xc
    41016fc0:	006f8f93          	addi	x31,x31,6
    41016fc4:	00000073          	ecall
    41016fc8:	00713023          	sd	x7,0(x2) # 6c000 <tp_csr_storage>
    41016fcc:	069cefb7          	lui	x31,0x69ce
    41016fd0:	0b0f8f9b          	addiw	x31,x31,176 # 69ce0b0 <machine_csr_jump_table_flags>
    41016fd4:	00600f13          	li	x30,6
    41016fd8:	01efb023          	sd	x30,0(x31)
    41016fdc:	000f0fb7          	lui	x31,0xf0
    41016fe0:	001f8f9b          	addiw	x31,x31,1 # f0001 <SID_HEXCEP_09_hinval_vvma_vu_stack+0x25001>
    41016fe4:	00cf9f93          	slli	x31,x31,0xc
    41016fe8:	005f8f93          	addi	x31,x31,5
    41016fec:	00000073          	ecall
    41016ff0:	00713423          	sd	x7,8(x2)
    41016ff4:	069cefb7          	lui	x31,0x69ce
    41016ff8:	0b8f8f9b          	addiw	x31,x31,184 # 69ce0b8 <super_csr_jump_table_flags>
    41016ffc:	00700f13          	li	x30,7
    41017000:	01efb023          	sd	x30,0(x31)
    41017004:	000f0fb7          	lui	x31,0xf0
    41017008:	001f8f9b          	addiw	x31,x31,1 # f0001 <SID_HEXCEP_09_hinval_vvma_vu_stack+0x25001>
    4101700c:	00cf9f93          	slli	x31,x31,0xc
    41017010:	006f8f93          	addi	x31,x31,6
    41017014:	00000073          	ecall
    41017018:	00713823          	sd	x7,16(x2)
    4101701c:	00862137          	lui	x2,0x862
    41017020:	9c51011b          	addiw	x2,x2,-1595 # 8619c5 <SID_HEXCEP_05_stack+0x1e9c5>
    41017024:	00d11113          	slli	x2,x2,0xd
    41017028:	000012b7          	lui	x5,0x1
    4101702c:	00510133          	add	x2,x2,x5
    41017030:	ff017113          	andi	x2,x2,-16
    41017034:	0010039b          	addiw	x7,x0,1
    41017038:	02039393          	slli	x7,x7,0x20
    4101703c:	fff38393          	addi	x7,x7,-1
    41017040:	069cefb7          	lui	x31,0x69ce
    41017044:	0b0f8f9b          	addiw	x31,x31,176 # 69ce0b0 <machine_csr_jump_table_flags>
    41017048:	00800f13          	li	x30,8
    4101704c:	01efb023          	sd	x30,0(x31)
    41017050:	000f0fb7          	lui	x31,0xf0
    41017054:	001f8f9b          	addiw	x31,x31,1 # f0001 <SID_HEXCEP_09_hinval_vvma_vu_stack+0x25001>
    41017058:	00cf9f93          	slli	x31,x31,0xc
    4101705c:	005f8f93          	addi	x31,x31,5
    41017060:	00000073          	ecall
    41017064:	0010039b          	addiw	x7,x0,1
    41017068:	02039393          	slli	x7,x7,0x20
    4101706c:	fff38393          	addi	x7,x7,-1
    41017070:	069cefb7          	lui	x31,0x69ce
    41017074:	0b8f8f9b          	addiw	x31,x31,184 # 69ce0b8 <super_csr_jump_table_flags>
    41017078:	00900f13          	li	x30,9
    4101707c:	01efb023          	sd	x30,0(x31)
    41017080:	000f0fb7          	lui	x31,0xf0
    41017084:	001f8f9b          	addiw	x31,x31,1 # f0001 <SID_HEXCEP_09_hinval_vvma_vu_stack+0x25001>
    41017088:	00cf9f93          	slli	x31,x31,0xc
    4101708c:	006f8f93          	addi	x31,x31,6
    41017090:	00000073          	ecall
    41017094:	0010039b          	addiw	x7,x0,1
    41017098:	02039393          	slli	x7,x7,0x20
    4101709c:	fff38393          	addi	x7,x7,-1
    410170a0:	069cefb7          	lui	x31,0x69ce
    410170a4:	0b8f8f9b          	addiw	x31,x31,184 # 69ce0b8 <super_csr_jump_table_flags>
    410170a8:	00a00f13          	li	x30,10
    410170ac:	01efb023          	sd	x30,0(x31)
    410170b0:	000f0fb7          	lui	x31,0xf0
    410170b4:	001f8f9b          	addiw	x31,x31,1 # f0001 <SID_HEXCEP_09_hinval_vvma_vu_stack+0x25001>
    410170b8:	00cf9f93          	slli	x31,x31,0xc
    410170bc:	006f8f93          	addi	x31,x31,6
    410170c0:	00000073          	ecall
    410170c4:	40a44237          	lui	x4,0x40a44
    410170c8:	01600e13          	li	x28,22
    410170cc:	05c23823          	sd	x28,80(x4) # 40a44050 <check_excp_expected_cause>
    410170d0:	00000e17          	auipc	x28,0x0
    410170d4:	048e0e13          	addi	x28,x28,72 # 41017118 <fault_label_71>
    410170d8:	03c23023          	sd	x28,32(x4) # 20 <SECURE_ACCESS_PROBABILITY+0x2>
    410170dc:	00000e13          	li	x28,0
    410170e0:	05c23023          	sd	x28,64(x4) # 40 <XLEN>
    410170e4:	00000e13          	li	x28,0
    410170e8:	05c23423          	sd	x28,72(x4) # 48 <XLEN+0x8>
    410170ec:	00000e17          	auipc	x28,0x0
    410170f0:	044e0e13          	addi	x28,x28,68 # 41017130 <excp_return_label_71>
    410170f4:	03c23823          	sd	x28,48(x4) # 30 <SECURE_ACCESS_PROBABILITY+0x12>
    410170f8:	00000e13          	li	x28,0
    410170fc:	03c23c23          	sd	x28,56(x4) # 38 <SECURE_ACCESS_PROBABILITY+0x1a>
    41017100:	00000e13          	li	x28,0
    41017104:	07c23023          	sd	x28,96(x4) # 60 <XLEN+0x20>
    41017108:	00000e13          	li	x28,0
    4101710c:	07c23423          	sd	x28,104(x4) # 68 <XLEN+0x28>
    41017110:	00000e13          	li	x28,0
    41017114:	07c23823          	sd	x28,112(x4) # 70 <XLEN+0x30>

0000000041017118 <fault_label_71>:
    41017118:	c00023f3          	rdcycle	x7
    4101711c:	00038e13          	mv	x28,x7
    41017120:	069cea37          	lui	x20,0x69ce
    41017124:	008a0a1b          	addiw	x20,x20,8 # 69ce008 <failed_addr>
    41017128:	000a3783          	ld	x15,0(x20)
    4101712c:	00078067          	jr	x15

0000000041017130 <excp_return_label_71>:
    41017130:	40a44237          	lui	x4,0x40a44
    41017134:	01600e13          	li	x28,22
    41017138:	05c23823          	sd	x28,80(x4) # 40a44050 <check_excp_expected_cause>
    4101713c:	00000e17          	auipc	x28,0x0
    41017140:	048e0e13          	addi	x28,x28,72 # 41017184 <fault_label_72>
    41017144:	03c23023          	sd	x28,32(x4) # 20 <SECURE_ACCESS_PROBABILITY+0x2>
    41017148:	00000e13          	li	x28,0
    4101714c:	05c23023          	sd	x28,64(x4) # 40 <XLEN>
    41017150:	00000e13          	li	x28,0
    41017154:	05c23423          	sd	x28,72(x4) # 48 <XLEN+0x8>
    41017158:	00000e17          	auipc	x28,0x0
    4101715c:	044e0e13          	addi	x28,x28,68 # 4101719c <excp_return_label_72>
    41017160:	03c23823          	sd	x28,48(x4) # 30 <SECURE_ACCESS_PROBABILITY+0x12>
    41017164:	00000e13          	li	x28,0
    41017168:	03c23c23          	sd	x28,56(x4) # 38 <SECURE_ACCESS_PROBABILITY+0x1a>
    4101716c:	00000e13          	li	x28,0
    41017170:	07c23023          	sd	x28,96(x4) # 60 <XLEN+0x20>
    41017174:	00000e13          	li	x28,0
    41017178:	07c23423          	sd	x28,104(x4) # 68 <XLEN+0x28>
    4101717c:	00000e13          	li	x28,0
    41017180:	07c23823          	sd	x28,112(x4) # 70 <XLEN+0x30>

0000000041017184 <fault_label_72>:
    41017184:	c01023f3          	rdtime	x7
    41017188:	00038c93          	mv	x25,x7
    4101718c:	069ce3b7          	lui	x7,0x69ce
    41017190:	0083839b          	addiw	x7,x7,8 # 69ce008 <failed_addr>
    41017194:	0003b303          	ld	x6,0(x7)
    41017198:	00030067          	jr	x6

000000004101719c <excp_return_label_72>:
    4101719c:	40a44237          	lui	x4,0x40a44
    410171a0:	01600e13          	li	x28,22
    410171a4:	05c23823          	sd	x28,80(x4) # 40a44050 <check_excp_expected_cause>
    410171a8:	00000e17          	auipc	x28,0x0
    410171ac:	048e0e13          	addi	x28,x28,72 # 410171f0 <fault_label_73>
    410171b0:	03c23023          	sd	x28,32(x4) # 20 <SECURE_ACCESS_PROBABILITY+0x2>
    410171b4:	00000e13          	li	x28,0
    410171b8:	05c23023          	sd	x28,64(x4) # 40 <XLEN>
    410171bc:	00000e13          	li	x28,0
    410171c0:	05c23423          	sd	x28,72(x4) # 48 <XLEN+0x8>
    410171c4:	00000e17          	auipc	x28,0x0
    410171c8:	044e0e13          	addi	x28,x28,68 # 41017208 <excp_return_label_73>
    410171cc:	03c23823          	sd	x28,48(x4) # 30 <SECURE_ACCESS_PROBABILITY+0x12>
    410171d0:	00000e13          	li	x28,0
    410171d4:	03c23c23          	sd	x28,56(x4) # 38 <SECURE_ACCESS_PROBABILITY+0x1a>
    410171d8:	00000e13          	li	x28,0
    410171dc:	07c23023          	sd	x28,96(x4) # 60 <XLEN+0x20>
    410171e0:	00000e13          	li	x28,0
    410171e4:	07c23423          	sd	x28,104(x4) # 68 <XLEN+0x28>
    410171e8:	00000e13          	li	x28,0
    410171ec:	07c23823          	sd	x28,112(x4) # 70 <XLEN+0x30>

00000000410171f0 <fault_label_73>:
    410171f0:	c02023f3          	rdinstret	x7
    410171f4:	00038613          	mv	x12,x7
    410171f8:	069ce4b7          	lui	x9,0x69ce
    410171fc:	0084849b          	addiw	x9,x9,8 # 69ce008 <failed_addr>
    41017200:	0004bc03          	ld	x24,0(x9)
    41017204:	000c0067          	jr	x24

0000000041017208 <excp_return_label_73>:
    41017208:	40a44237          	lui	x4,0x40a44
    4101720c:	01600e13          	li	x28,22
    41017210:	05c23823          	sd	x28,80(x4) # 40a44050 <check_excp_expected_cause>
    41017214:	00000e17          	auipc	x28,0x0
    41017218:	048e0e13          	addi	x28,x28,72 # 4101725c <fault_label_74>
    4101721c:	03c23023          	sd	x28,32(x4) # 20 <SECURE_ACCESS_PROBABILITY+0x2>
    41017220:	00000e13          	li	x28,0
    41017224:	05c23023          	sd	x28,64(x4) # 40 <XLEN>
    41017228:	00000e13          	li	x28,0
    4101722c:	05c23423          	sd	x28,72(x4) # 48 <XLEN+0x8>
    41017230:	00000e17          	auipc	x28,0x0
    41017234:	044e0e13          	addi	x28,x28,68 # 41017274 <excp_return_label_74>
    41017238:	03c23823          	sd	x28,48(x4) # 30 <SECURE_ACCESS_PROBABILITY+0x12>
    4101723c:	00000e13          	li	x28,0
    41017240:	03c23c23          	sd	x28,56(x4) # 38 <SECURE_ACCESS_PROBABILITY+0x1a>
    41017244:	00000e13          	li	x28,0
    41017248:	07c23023          	sd	x28,96(x4) # 60 <XLEN+0x20>
    4101724c:	00000e13          	li	x28,0
    41017250:	07c23423          	sd	x28,104(x4) # 68 <XLEN+0x28>
    41017254:	00000e13          	li	x28,0
    41017258:	07c23823          	sd	x28,112(x4) # 70 <XLEN+0x30>

000000004101725c <fault_label_74>:
    4101725c:	c03023f3          	csrr	x7,hpmcounter3
    41017260:	00038d93          	mv	x27,x7
    41017264:	069ce837          	lui	x16,0x69ce
    41017268:	0088081b          	addiw	x16,x16,8 # 69ce008 <failed_addr>
    4101726c:	00083683          	ld	x13,0(x16)
    41017270:	00068067          	jr	x13

0000000041017274 <excp_return_label_74>:
    41017274:	40a44237          	lui	x4,0x40a44
    41017278:	01600e13          	li	x28,22
    4101727c:	05c23823          	sd	x28,80(x4) # 40a44050 <check_excp_expected_cause>
    41017280:	00000e17          	auipc	x28,0x0
    41017284:	048e0e13          	addi	x28,x28,72 # 410172c8 <fault_label_75>
    41017288:	03c23023          	sd	x28,32(x4) # 20 <SECURE_ACCESS_PROBABILITY+0x2>
    4101728c:	00000e13          	li	x28,0
    41017290:	05c23023          	sd	x28,64(x4) # 40 <XLEN>
    41017294:	00000e13          	li	x28,0
    41017298:	05c23423          	sd	x28,72(x4) # 48 <XLEN+0x8>
    4101729c:	00000e17          	auipc	x28,0x0
    410172a0:	044e0e13          	addi	x28,x28,68 # 410172e0 <excp_return_label_75>
    410172a4:	03c23823          	sd	x28,48(x4) # 30 <SECURE_ACCESS_PROBABILITY+0x12>
    410172a8:	00000e13          	li	x28,0
    410172ac:	03c23c23          	sd	x28,56(x4) # 38 <SECURE_ACCESS_PROBABILITY+0x1a>
    410172b0:	00000e13          	li	x28,0
    410172b4:	07c23023          	sd	x28,96(x4) # 60 <XLEN+0x20>
    410172b8:	00000e13          	li	x28,0
    410172bc:	07c23423          	sd	x28,104(x4) # 68 <XLEN+0x28>
    410172c0:	00000e13          	li	x28,0
    410172c4:	07c23823          	sd	x28,112(x4) # 70 <XLEN+0x30>

00000000410172c8 <fault_label_75>:
    410172c8:	c04023f3          	csrr	x7,hpmcounter4
    410172cc:	00038793          	mv	x15,x7
    410172d0:	069ce6b7          	lui	x13,0x69ce
    410172d4:	0086869b          	addiw	x13,x13,8 # 69ce008 <failed_addr>
    410172d8:	0006b583          	ld	x11,0(x13)
    410172dc:	00058067          	jr	x11

00000000410172e0 <excp_return_label_75>:
    410172e0:	40a44237          	lui	x4,0x40a44
    410172e4:	01600e13          	li	x28,22
    410172e8:	05c23823          	sd	x28,80(x4) # 40a44050 <check_excp_expected_cause>
    410172ec:	00000e17          	auipc	x28,0x0
    410172f0:	048e0e13          	addi	x28,x28,72 # 41017334 <fault_label_76>
    410172f4:	03c23023          	sd	x28,32(x4) # 20 <SECURE_ACCESS_PROBABILITY+0x2>
    410172f8:	00000e13          	li	x28,0
    410172fc:	05c23023          	sd	x28,64(x4) # 40 <XLEN>
    41017300:	00000e13          	li	x28,0
    41017304:	05c23423          	sd	x28,72(x4) # 48 <XLEN+0x8>
    41017308:	00000e17          	auipc	x28,0x0
    4101730c:	044e0e13          	addi	x28,x28,68 # 4101734c <excp_return_label_76>
    41017310:	03c23823          	sd	x28,48(x4) # 30 <SECURE_ACCESS_PROBABILITY+0x12>
    41017314:	00000e13          	li	x28,0
    41017318:	03c23c23          	sd	x28,56(x4) # 38 <SECURE_ACCESS_PROBABILITY+0x1a>
    4101731c:	00000e13          	li	x28,0
    41017320:	07c23023          	sd	x28,96(x4) # 60 <XLEN+0x20>
    41017324:	00000e13          	li	x28,0
    41017328:	07c23423          	sd	x28,104(x4) # 68 <XLEN+0x28>
    4101732c:	00000e13          	li	x28,0
    41017330:	07c23823          	sd	x28,112(x4) # 70 <XLEN+0x30>

0000000041017334 <fault_label_76>:
    41017334:	c05023f3          	csrr	x7,hpmcounter5
    41017338:	00038b13          	mv	x22,x7
    4101733c:	069ce8b7          	lui	x17,0x69ce
    41017340:	0088889b          	addiw	x17,x17,8 # 69ce008 <failed_addr>
    41017344:	0008b903          	ld	x18,0(x17)
    41017348:	00090067          	jr	x18

000000004101734c <excp_return_label_76>:
    4101734c:	40a44237          	lui	x4,0x40a44
    41017350:	01600e13          	li	x28,22
    41017354:	05c23823          	sd	x28,80(x4) # 40a44050 <check_excp_expected_cause>
    41017358:	00000e17          	auipc	x28,0x0
    4101735c:	048e0e13          	addi	x28,x28,72 # 410173a0 <fault_label_77>
    41017360:	03c23023          	sd	x28,32(x4) # 20 <SECURE_ACCESS_PROBABILITY+0x2>
    41017364:	00000e13          	li	x28,0
    41017368:	05c23023          	sd	x28,64(x4) # 40 <XLEN>
    4101736c:	00000e13          	li	x28,0
    41017370:	05c23423          	sd	x28,72(x4) # 48 <XLEN+0x8>
    41017374:	00000e17          	auipc	x28,0x0
    41017378:	044e0e13          	addi	x28,x28,68 # 410173b8 <excp_return_label_77>
    4101737c:	03c23823          	sd	x28,48(x4) # 30 <SECURE_ACCESS_PROBABILITY+0x12>
    41017380:	00000e13          	li	x28,0
    41017384:	03c23c23          	sd	x28,56(x4) # 38 <SECURE_ACCESS_PROBABILITY+0x1a>
    41017388:	00000e13          	li	x28,0
    4101738c:	07c23023          	sd	x28,96(x4) # 60 <XLEN+0x20>
    41017390:	00000e13          	li	x28,0
    41017394:	07c23423          	sd	x28,104(x4) # 68 <XLEN+0x28>
    41017398:	00000e13          	li	x28,0
    4101739c:	07c23823          	sd	x28,112(x4) # 70 <XLEN+0x30>

00000000410173a0 <fault_label_77>:
    410173a0:	c06023f3          	csrr	x7,hpmcounter6
    410173a4:	00038413          	mv	x8,x7
    410173a8:	069ced37          	lui	x26,0x69ce
    410173ac:	008d0d1b          	addiw	x26,x26,8 # 69ce008 <failed_addr>
    410173b0:	000d3403          	ld	x8,0(x26)
    410173b4:	00040067          	jr	x8

00000000410173b8 <excp_return_label_77>:
    410173b8:	40a44237          	lui	x4,0x40a44
    410173bc:	01600e13          	li	x28,22
    410173c0:	05c23823          	sd	x28,80(x4) # 40a44050 <check_excp_expected_cause>
    410173c4:	00000e17          	auipc	x28,0x0
    410173c8:	048e0e13          	addi	x28,x28,72 # 4101740c <fault_label_78>
    410173cc:	03c23023          	sd	x28,32(x4) # 20 <SECURE_ACCESS_PROBABILITY+0x2>
    410173d0:	00000e13          	li	x28,0
    410173d4:	05c23023          	sd	x28,64(x4) # 40 <XLEN>
    410173d8:	00000e13          	li	x28,0
    410173dc:	05c23423          	sd	x28,72(x4) # 48 <XLEN+0x8>
    410173e0:	00000e17          	auipc	x28,0x0
    410173e4:	044e0e13          	addi	x28,x28,68 # 41017424 <excp_return_label_78>
    410173e8:	03c23823          	sd	x28,48(x4) # 30 <SECURE_ACCESS_PROBABILITY+0x12>
    410173ec:	00000e13          	li	x28,0
    410173f0:	03c23c23          	sd	x28,56(x4) # 38 <SECURE_ACCESS_PROBABILITY+0x1a>
    410173f4:	00000e13          	li	x28,0
    410173f8:	07c23023          	sd	x28,96(x4) # 60 <XLEN+0x20>
    410173fc:	00000e13          	li	x28,0
    41017400:	07c23423          	sd	x28,104(x4) # 68 <XLEN+0x28>
    41017404:	00000e13          	li	x28,0
    41017408:	07c23823          	sd	x28,112(x4) # 70 <XLEN+0x30>

000000004101740c <fault_label_78>:
    4101740c:	c07023f3          	csrr	x7,hpmcounter7
    41017410:	00038f93          	mv	x31,x7
    41017414:	069ceab7          	lui	x21,0x69ce
    41017418:	008a8a9b          	addiw	x21,x21,8 # 69ce008 <failed_addr>
    4101741c:	000abe03          	ld	x28,0(x21)
    41017420:	000e0067          	jr	x28

0000000041017424 <excp_return_label_78>:
    41017424:	40a44237          	lui	x4,0x40a44
    41017428:	01600e13          	li	x28,22
    4101742c:	05c23823          	sd	x28,80(x4) # 40a44050 <check_excp_expected_cause>
    41017430:	00000e17          	auipc	x28,0x0
    41017434:	048e0e13          	addi	x28,x28,72 # 41017478 <fault_label_79>
    41017438:	03c23023          	sd	x28,32(x4) # 20 <SECURE_ACCESS_PROBABILITY+0x2>
    4101743c:	00000e13          	li	x28,0
    41017440:	05c23023          	sd	x28,64(x4) # 40 <XLEN>
    41017444:	00000e13          	li	x28,0
    41017448:	05c23423          	sd	x28,72(x4) # 48 <XLEN+0x8>
    4101744c:	00000e17          	auipc	x28,0x0
    41017450:	044e0e13          	addi	x28,x28,68 # 41017490 <excp_return_label_79>
    41017454:	03c23823          	sd	x28,48(x4) # 30 <SECURE_ACCESS_PROBABILITY+0x12>
    41017458:	00000e13          	li	x28,0
    4101745c:	03c23c23          	sd	x28,56(x4) # 38 <SECURE_ACCESS_PROBABILITY+0x1a>
    41017460:	00000e13          	li	x28,0
    41017464:	07c23023          	sd	x28,96(x4) # 60 <XLEN+0x20>
    41017468:	00000e13          	li	x28,0
    4101746c:	07c23423          	sd	x28,104(x4) # 68 <XLEN+0x28>
    41017470:	00000e13          	li	x28,0
    41017474:	07c23823          	sd	x28,112(x4) # 70 <XLEN+0x30>

0000000041017478 <fault_label_79>:
    41017478:	c08023f3          	csrr	x7,hpmcounter8
    4101747c:	00038513          	mv	x10,x7
    41017480:	069ceb37          	lui	x22,0x69ce
    41017484:	008b0b1b          	addiw	x22,x22,8 # 69ce008 <failed_addr>
    41017488:	000b3a83          	ld	x21,0(x22)
    4101748c:	000a8067          	jr	x21

0000000041017490 <excp_return_label_79>:
    41017490:	40a44237          	lui	x4,0x40a44
    41017494:	01600e13          	li	x28,22
    41017498:	05c23823          	sd	x28,80(x4) # 40a44050 <check_excp_expected_cause>
    4101749c:	00000e17          	auipc	x28,0x0
    410174a0:	048e0e13          	addi	x28,x28,72 # 410174e4 <fault_label_80>
    410174a4:	03c23023          	sd	x28,32(x4) # 20 <SECURE_ACCESS_PROBABILITY+0x2>
    410174a8:	00000e13          	li	x28,0
    410174ac:	05c23023          	sd	x28,64(x4) # 40 <XLEN>
    410174b0:	00000e13          	li	x28,0
    410174b4:	05c23423          	sd	x28,72(x4) # 48 <XLEN+0x8>
    410174b8:	00000e17          	auipc	x28,0x0
    410174bc:	044e0e13          	addi	x28,x28,68 # 410174fc <excp_return_label_80>
    410174c0:	03c23823          	sd	x28,48(x4) # 30 <SECURE_ACCESS_PROBABILITY+0x12>
    410174c4:	00000e13          	li	x28,0
    410174c8:	03c23c23          	sd	x28,56(x4) # 38 <SECURE_ACCESS_PROBABILITY+0x1a>
    410174cc:	00000e13          	li	x28,0
    410174d0:	07c23023          	sd	x28,96(x4) # 60 <XLEN+0x20>
    410174d4:	00000e13          	li	x28,0
    410174d8:	07c23423          	sd	x28,104(x4) # 68 <XLEN+0x28>
    410174dc:	00000e13          	li	x28,0
    410174e0:	07c23823          	sd	x28,112(x4) # 70 <XLEN+0x30>

00000000410174e4 <fault_label_80>:
    410174e4:	c09023f3          	csrr	x7,hpmcounter9
    410174e8:	00038693          	mv	x13,x7
    410174ec:	069ce5b7          	lui	x11,0x69ce
    410174f0:	0085859b          	addiw	x11,x11,8 # 69ce008 <failed_addr>
    410174f4:	0005b483          	ld	x9,0(x11)
    410174f8:	00048067          	jr	x9

00000000410174fc <excp_return_label_80>:
    410174fc:	40a44237          	lui	x4,0x40a44
    41017500:	01600e13          	li	x28,22
    41017504:	05c23823          	sd	x28,80(x4) # 40a44050 <check_excp_expected_cause>
    41017508:	00000e17          	auipc	x28,0x0
    4101750c:	048e0e13          	addi	x28,x28,72 # 41017550 <fault_label_81>
    41017510:	03c23023          	sd	x28,32(x4) # 20 <SECURE_ACCESS_PROBABILITY+0x2>
    41017514:	00000e13          	li	x28,0
    41017518:	05c23023          	sd	x28,64(x4) # 40 <XLEN>
    4101751c:	00000e13          	li	x28,0
    41017520:	05c23423          	sd	x28,72(x4) # 48 <XLEN+0x8>
    41017524:	00000e17          	auipc	x28,0x0
    41017528:	044e0e13          	addi	x28,x28,68 # 41017568 <excp_return_label_81>
    4101752c:	03c23823          	sd	x28,48(x4) # 30 <SECURE_ACCESS_PROBABILITY+0x12>
    41017530:	00000e13          	li	x28,0
    41017534:	03c23c23          	sd	x28,56(x4) # 38 <SECURE_ACCESS_PROBABILITY+0x1a>
    41017538:	00000e13          	li	x28,0
    4101753c:	07c23023          	sd	x28,96(x4) # 60 <XLEN+0x20>
    41017540:	00000e13          	li	x28,0
    41017544:	07c23423          	sd	x28,104(x4) # 68 <XLEN+0x28>
    41017548:	00000e13          	li	x28,0
    4101754c:	07c23823          	sd	x28,112(x4) # 70 <XLEN+0x30>

0000000041017550 <fault_label_81>:
    41017550:	c0a023f3          	csrr	x7,hpmcounter10
    41017554:	00038f93          	mv	x31,x7
    41017558:	069ceab7          	lui	x21,0x69ce
    4101755c:	008a8a9b          	addiw	x21,x21,8 # 69ce008 <failed_addr>
    41017560:	000ab783          	ld	x15,0(x21)
    41017564:	00078067          	jr	x15

0000000041017568 <excp_return_label_81>:
    41017568:	40a44237          	lui	x4,0x40a44
    4101756c:	01600e13          	li	x28,22
    41017570:	05c23823          	sd	x28,80(x4) # 40a44050 <check_excp_expected_cause>
    41017574:	00000e17          	auipc	x28,0x0
    41017578:	048e0e13          	addi	x28,x28,72 # 410175bc <fault_label_82>
    4101757c:	03c23023          	sd	x28,32(x4) # 20 <SECURE_ACCESS_PROBABILITY+0x2>
    41017580:	00000e13          	li	x28,0
    41017584:	05c23023          	sd	x28,64(x4) # 40 <XLEN>
    41017588:	00000e13          	li	x28,0
    4101758c:	05c23423          	sd	x28,72(x4) # 48 <XLEN+0x8>
    41017590:	00000e17          	auipc	x28,0x0
    41017594:	044e0e13          	addi	x28,x28,68 # 410175d4 <excp_return_label_82>
    41017598:	03c23823          	sd	x28,48(x4) # 30 <SECURE_ACCESS_PROBABILITY+0x12>
    4101759c:	00000e13          	li	x28,0
    410175a0:	03c23c23          	sd	x28,56(x4) # 38 <SECURE_ACCESS_PROBABILITY+0x1a>
    410175a4:	00000e13          	li	x28,0
    410175a8:	07c23023          	sd	x28,96(x4) # 60 <XLEN+0x20>
    410175ac:	00000e13          	li	x28,0
    410175b0:	07c23423          	sd	x28,104(x4) # 68 <XLEN+0x28>
    410175b4:	00000e13          	li	x28,0
    410175b8:	07c23823          	sd	x28,112(x4) # 70 <XLEN+0x30>

00000000410175bc <fault_label_82>:
    410175bc:	c0b023f3          	csrr	x7,hpmcounter11
    410175c0:	00038c93          	mv	x25,x7
    410175c4:	069cefb7          	lui	x31,0x69ce
    410175c8:	008f8f9b          	addiw	x31,x31,8 # 69ce008 <failed_addr>
    410175cc:	000fbc83          	ld	x25,0(x31)
    410175d0:	000c8067          	jr	x25

00000000410175d4 <excp_return_label_82>:
    410175d4:	40a44237          	lui	x4,0x40a44
    410175d8:	01600e13          	li	x28,22
    410175dc:	05c23823          	sd	x28,80(x4) # 40a44050 <check_excp_expected_cause>
    410175e0:	00000e17          	auipc	x28,0x0
    410175e4:	048e0e13          	addi	x28,x28,72 # 41017628 <fault_label_83>
    410175e8:	03c23023          	sd	x28,32(x4) # 20 <SECURE_ACCESS_PROBABILITY+0x2>
    410175ec:	00000e13          	li	x28,0
    410175f0:	05c23023          	sd	x28,64(x4) # 40 <XLEN>
    410175f4:	00000e13          	li	x28,0
    410175f8:	05c23423          	sd	x28,72(x4) # 48 <XLEN+0x8>
    410175fc:	00000e17          	auipc	x28,0x0
    41017600:	044e0e13          	addi	x28,x28,68 # 41017640 <excp_return_label_83>
    41017604:	03c23823          	sd	x28,48(x4) # 30 <SECURE_ACCESS_PROBABILITY+0x12>
    41017608:	00000e13          	li	x28,0
    4101760c:	03c23c23          	sd	x28,56(x4) # 38 <SECURE_ACCESS_PROBABILITY+0x1a>
    41017610:	00000e13          	li	x28,0
    41017614:	07c23023          	sd	x28,96(x4) # 60 <XLEN+0x20>
    41017618:	00000e13          	li	x28,0
    4101761c:	07c23423          	sd	x28,104(x4) # 68 <XLEN+0x28>
    41017620:	00000e13          	li	x28,0
    41017624:	07c23823          	sd	x28,112(x4) # 70 <XLEN+0x30>

0000000041017628 <fault_label_83>:
    41017628:	c0c023f3          	csrr	x7,hpmcounter12
    4101762c:	00038313          	mv	x6,x7
    41017630:	069cecb7          	lui	x25,0x69ce
    41017634:	008c8c9b          	addiw	x25,x25,8 # 69ce008 <failed_addr>
    41017638:	000cbc83          	ld	x25,0(x25)
    4101763c:	000c8067          	jr	x25

0000000041017640 <excp_return_label_83>:
    41017640:	40a44237          	lui	x4,0x40a44
    41017644:	01600e13          	li	x28,22
    41017648:	05c23823          	sd	x28,80(x4) # 40a44050 <check_excp_expected_cause>
    4101764c:	00000e17          	auipc	x28,0x0
    41017650:	048e0e13          	addi	x28,x28,72 # 41017694 <fault_label_84>
    41017654:	03c23023          	sd	x28,32(x4) # 20 <SECURE_ACCESS_PROBABILITY+0x2>
    41017658:	00000e13          	li	x28,0
    4101765c:	05c23023          	sd	x28,64(x4) # 40 <XLEN>
    41017660:	00000e13          	li	x28,0
    41017664:	05c23423          	sd	x28,72(x4) # 48 <XLEN+0x8>
    41017668:	00000e17          	auipc	x28,0x0
    4101766c:	044e0e13          	addi	x28,x28,68 # 410176ac <excp_return_label_84>
    41017670:	03c23823          	sd	x28,48(x4) # 30 <SECURE_ACCESS_PROBABILITY+0x12>
    41017674:	00000e13          	li	x28,0
    41017678:	03c23c23          	sd	x28,56(x4) # 38 <SECURE_ACCESS_PROBABILITY+0x1a>
    4101767c:	00000e13          	li	x28,0
    41017680:	07c23023          	sd	x28,96(x4) # 60 <XLEN+0x20>
    41017684:	00000e13          	li	x28,0
    41017688:	07c23423          	sd	x28,104(x4) # 68 <XLEN+0x28>
    4101768c:	00000e13          	li	x28,0
    41017690:	07c23823          	sd	x28,112(x4) # 70 <XLEN+0x30>

0000000041017694 <fault_label_84>:
    41017694:	c0d023f3          	csrr	x7,hpmcounter13
    41017698:	00038413          	mv	x8,x7
    4101769c:	069cee37          	lui	x28,0x69ce
    410176a0:	008e0e1b          	addiw	x28,x28,8 # 69ce008 <failed_addr>
    410176a4:	000e3583          	ld	x11,0(x28)
    410176a8:	00058067          	jr	x11

00000000410176ac <excp_return_label_84>:
    410176ac:	40a44237          	lui	x4,0x40a44
    410176b0:	01600e13          	li	x28,22
    410176b4:	05c23823          	sd	x28,80(x4) # 40a44050 <check_excp_expected_cause>
    410176b8:	00000e17          	auipc	x28,0x0
    410176bc:	048e0e13          	addi	x28,x28,72 # 41017700 <fault_label_85>
    410176c0:	03c23023          	sd	x28,32(x4) # 20 <SECURE_ACCESS_PROBABILITY+0x2>
    410176c4:	00000e13          	li	x28,0
    410176c8:	05c23023          	sd	x28,64(x4) # 40 <XLEN>
    410176cc:	00000e13          	li	x28,0
    410176d0:	05c23423          	sd	x28,72(x4) # 48 <XLEN+0x8>
    410176d4:	00000e17          	auipc	x28,0x0
    410176d8:	044e0e13          	addi	x28,x28,68 # 41017718 <excp_return_label_85>
    410176dc:	03c23823          	sd	x28,48(x4) # 30 <SECURE_ACCESS_PROBABILITY+0x12>
    410176e0:	00000e13          	li	x28,0
    410176e4:	03c23c23          	sd	x28,56(x4) # 38 <SECURE_ACCESS_PROBABILITY+0x1a>
    410176e8:	00000e13          	li	x28,0
    410176ec:	07c23023          	sd	x28,96(x4) # 60 <XLEN+0x20>
    410176f0:	00000e13          	li	x28,0
    410176f4:	07c23423          	sd	x28,104(x4) # 68 <XLEN+0x28>
    410176f8:	00000e13          	li	x28,0
    410176fc:	07c23823          	sd	x28,112(x4) # 70 <XLEN+0x30>

0000000041017700 <fault_label_85>:
    41017700:	c0e023f3          	csrr	x7,hpmcounter14
    41017704:	00038713          	mv	x14,x7
    41017708:	069cefb7          	lui	x31,0x69ce
    4101770c:	008f8f9b          	addiw	x31,x31,8 # 69ce008 <failed_addr>
    41017710:	000fb303          	ld	x6,0(x31)
    41017714:	00030067          	jr	x6

0000000041017718 <excp_return_label_85>:
    41017718:	40a44237          	lui	x4,0x40a44
    4101771c:	01600e13          	li	x28,22
    41017720:	05c23823          	sd	x28,80(x4) # 40a44050 <check_excp_expected_cause>
    41017724:	00000e17          	auipc	x28,0x0
    41017728:	048e0e13          	addi	x28,x28,72 # 4101776c <fault_label_86>
    4101772c:	03c23023          	sd	x28,32(x4) # 20 <SECURE_ACCESS_PROBABILITY+0x2>
    41017730:	00000e13          	li	x28,0
    41017734:	05c23023          	sd	x28,64(x4) # 40 <XLEN>
    41017738:	00000e13          	li	x28,0
    4101773c:	05c23423          	sd	x28,72(x4) # 48 <XLEN+0x8>
    41017740:	00000e17          	auipc	x28,0x0
    41017744:	044e0e13          	addi	x28,x28,68 # 41017784 <excp_return_label_86>
    41017748:	03c23823          	sd	x28,48(x4) # 30 <SECURE_ACCESS_PROBABILITY+0x12>
    4101774c:	00000e13          	li	x28,0
    41017750:	03c23c23          	sd	x28,56(x4) # 38 <SECURE_ACCESS_PROBABILITY+0x1a>
    41017754:	00000e13          	li	x28,0
    41017758:	07c23023          	sd	x28,96(x4) # 60 <XLEN+0x20>
    4101775c:	00000e13          	li	x28,0
    41017760:	07c23423          	sd	x28,104(x4) # 68 <XLEN+0x28>
    41017764:	00000e13          	li	x28,0
    41017768:	07c23823          	sd	x28,112(x4) # 70 <XLEN+0x30>

000000004101776c <fault_label_86>:
    4101776c:	c0f023f3          	csrr	x7,hpmcounter15
    41017770:	00038b93          	mv	x23,x7
    41017774:	069ce6b7          	lui	x13,0x69ce
    41017778:	0086869b          	addiw	x13,x13,8 # 69ce008 <failed_addr>
    4101777c:	0006bc83          	ld	x25,0(x13)
    41017780:	000c8067          	jr	x25

0000000041017784 <excp_return_label_86>:
    41017784:	40a44237          	lui	x4,0x40a44
    41017788:	01600e13          	li	x28,22
    4101778c:	05c23823          	sd	x28,80(x4) # 40a44050 <check_excp_expected_cause>
    41017790:	00000e17          	auipc	x28,0x0
    41017794:	048e0e13          	addi	x28,x28,72 # 410177d8 <fault_label_87>
    41017798:	03c23023          	sd	x28,32(x4) # 20 <SECURE_ACCESS_PROBABILITY+0x2>
    4101779c:	00000e13          	li	x28,0
    410177a0:	05c23023          	sd	x28,64(x4) # 40 <XLEN>
    410177a4:	00000e13          	li	x28,0
    410177a8:	05c23423          	sd	x28,72(x4) # 48 <XLEN+0x8>
    410177ac:	00000e17          	auipc	x28,0x0
    410177b0:	044e0e13          	addi	x28,x28,68 # 410177f0 <excp_return_label_87>
    410177b4:	03c23823          	sd	x28,48(x4) # 30 <SECURE_ACCESS_PROBABILITY+0x12>
    410177b8:	00000e13          	li	x28,0
    410177bc:	03c23c23          	sd	x28,56(x4) # 38 <SECURE_ACCESS_PROBABILITY+0x1a>
    410177c0:	00000e13          	li	x28,0
    410177c4:	07c23023          	sd	x28,96(x4) # 60 <XLEN+0x20>
    410177c8:	00000e13          	li	x28,0
    410177cc:	07c23423          	sd	x28,104(x4) # 68 <XLEN+0x28>
    410177d0:	00000e13          	li	x28,0
    410177d4:	07c23823          	sd	x28,112(x4) # 70 <XLEN+0x30>

00000000410177d8 <fault_label_87>:
    410177d8:	c10023f3          	csrr	x7,hpmcounter16
    410177dc:	00038593          	mv	x11,x7
    410177e0:	069cec37          	lui	x24,0x69ce
    410177e4:	008c0c1b          	addiw	x24,x24,8 # 69ce008 <failed_addr>
    410177e8:	000c3a03          	ld	x20,0(x24)
    410177ec:	000a0067          	jr	x20

00000000410177f0 <excp_return_label_87>:
    410177f0:	40a44237          	lui	x4,0x40a44
    410177f4:	01600e13          	li	x28,22
    410177f8:	05c23823          	sd	x28,80(x4) # 40a44050 <check_excp_expected_cause>
    410177fc:	00000e17          	auipc	x28,0x0
    41017800:	048e0e13          	addi	x28,x28,72 # 41017844 <fault_label_88>
    41017804:	03c23023          	sd	x28,32(x4) # 20 <SECURE_ACCESS_PROBABILITY+0x2>
    41017808:	00000e13          	li	x28,0
    4101780c:	05c23023          	sd	x28,64(x4) # 40 <XLEN>
    41017810:	00000e13          	li	x28,0
    41017814:	05c23423          	sd	x28,72(x4) # 48 <XLEN+0x8>
    41017818:	00000e17          	auipc	x28,0x0
    4101781c:	044e0e13          	addi	x28,x28,68 # 4101785c <excp_return_label_88>
    41017820:	03c23823          	sd	x28,48(x4) # 30 <SECURE_ACCESS_PROBABILITY+0x12>
    41017824:	00000e13          	li	x28,0
    41017828:	03c23c23          	sd	x28,56(x4) # 38 <SECURE_ACCESS_PROBABILITY+0x1a>
    4101782c:	00000e13          	li	x28,0
    41017830:	07c23023          	sd	x28,96(x4) # 60 <XLEN+0x20>
    41017834:	00000e13          	li	x28,0
    41017838:	07c23423          	sd	x28,104(x4) # 68 <XLEN+0x28>
    4101783c:	00000e13          	li	x28,0
    41017840:	07c23823          	sd	x28,112(x4) # 70 <XLEN+0x30>

0000000041017844 <fault_label_88>:
    41017844:	c11023f3          	csrr	x7,hpmcounter17
    41017848:	00038c93          	mv	x25,x7
    4101784c:	069cecb7          	lui	x25,0x69ce
    41017850:	008c8c9b          	addiw	x25,x25,8 # 69ce008 <failed_addr>
    41017854:	000cbe03          	ld	x28,0(x25)
    41017858:	000e0067          	jr	x28

000000004101785c <excp_return_label_88>:
    4101785c:	40a44237          	lui	x4,0x40a44
    41017860:	01600e13          	li	x28,22
    41017864:	05c23823          	sd	x28,80(x4) # 40a44050 <check_excp_expected_cause>
    41017868:	00000e17          	auipc	x28,0x0
    4101786c:	048e0e13          	addi	x28,x28,72 # 410178b0 <fault_label_89>
    41017870:	03c23023          	sd	x28,32(x4) # 20 <SECURE_ACCESS_PROBABILITY+0x2>
    41017874:	00000e13          	li	x28,0
    41017878:	05c23023          	sd	x28,64(x4) # 40 <XLEN>
    4101787c:	00000e13          	li	x28,0
    41017880:	05c23423          	sd	x28,72(x4) # 48 <XLEN+0x8>
    41017884:	00000e17          	auipc	x28,0x0
    41017888:	044e0e13          	addi	x28,x28,68 # 410178c8 <excp_return_label_89>
    4101788c:	03c23823          	sd	x28,48(x4) # 30 <SECURE_ACCESS_PROBABILITY+0x12>
    41017890:	00000e13          	li	x28,0
    41017894:	03c23c23          	sd	x28,56(x4) # 38 <SECURE_ACCESS_PROBABILITY+0x1a>
    41017898:	00000e13          	li	x28,0
    4101789c:	07c23023          	sd	x28,96(x4) # 60 <XLEN+0x20>
    410178a0:	00000e13          	li	x28,0
    410178a4:	07c23423          	sd	x28,104(x4) # 68 <XLEN+0x28>
    410178a8:	00000e13          	li	x28,0
    410178ac:	07c23823          	sd	x28,112(x4) # 70 <XLEN+0x30>

00000000410178b0 <fault_label_89>:
    410178b0:	c12023f3          	csrr	x7,hpmcounter18
    410178b4:	00038493          	mv	x9,x7
    410178b8:	069ce9b7          	lui	x19,0x69ce
    410178bc:	0089899b          	addiw	x19,x19,8 # 69ce008 <failed_addr>
    410178c0:	0009bb83          	ld	x23,0(x19)
    410178c4:	000b8067          	jr	x23

00000000410178c8 <excp_return_label_89>:
    410178c8:	40a44237          	lui	x4,0x40a44
    410178cc:	01600e13          	li	x28,22
    410178d0:	05c23823          	sd	x28,80(x4) # 40a44050 <check_excp_expected_cause>
    410178d4:	00000e17          	auipc	x28,0x0
    410178d8:	048e0e13          	addi	x28,x28,72 # 4101791c <fault_label_90>
    410178dc:	03c23023          	sd	x28,32(x4) # 20 <SECURE_ACCESS_PROBABILITY+0x2>
    410178e0:	00000e13          	li	x28,0
    410178e4:	05c23023          	sd	x28,64(x4) # 40 <XLEN>
    410178e8:	00000e13          	li	x28,0
    410178ec:	05c23423          	sd	x28,72(x4) # 48 <XLEN+0x8>
    410178f0:	00000e17          	auipc	x28,0x0
    410178f4:	044e0e13          	addi	x28,x28,68 # 41017934 <excp_return_label_90>
    410178f8:	03c23823          	sd	x28,48(x4) # 30 <SECURE_ACCESS_PROBABILITY+0x12>
    410178fc:	00000e13          	li	x28,0
    41017900:	03c23c23          	sd	x28,56(x4) # 38 <SECURE_ACCESS_PROBABILITY+0x1a>
    41017904:	00000e13          	li	x28,0
    41017908:	07c23023          	sd	x28,96(x4) # 60 <XLEN+0x20>
    4101790c:	00000e13          	li	x28,0
    41017910:	07c23423          	sd	x28,104(x4) # 68 <XLEN+0x28>
    41017914:	00000e13          	li	x28,0
    41017918:	07c23823          	sd	x28,112(x4) # 70 <XLEN+0x30>

000000004101791c <fault_label_90>:
    4101791c:	c13023f3          	csrr	x7,hpmcounter19
    41017920:	00038d93          	mv	x27,x7
    41017924:	069cecb7          	lui	x25,0x69ce
    41017928:	008c8c9b          	addiw	x25,x25,8 # 69ce008 <failed_addr>
    4101792c:	000cb403          	ld	x8,0(x25)
    41017930:	00040067          	jr	x8

0000000041017934 <excp_return_label_90>:
    41017934:	40a44237          	lui	x4,0x40a44
    41017938:	01600e13          	li	x28,22
    4101793c:	05c23823          	sd	x28,80(x4) # 40a44050 <check_excp_expected_cause>
    41017940:	00000e17          	auipc	x28,0x0
    41017944:	048e0e13          	addi	x28,x28,72 # 41017988 <fault_label_91>
    41017948:	03c23023          	sd	x28,32(x4) # 20 <SECURE_ACCESS_PROBABILITY+0x2>
    4101794c:	00000e13          	li	x28,0
    41017950:	05c23023          	sd	x28,64(x4) # 40 <XLEN>
    41017954:	00000e13          	li	x28,0
    41017958:	05c23423          	sd	x28,72(x4) # 48 <XLEN+0x8>
    4101795c:	00000e17          	auipc	x28,0x0
    41017960:	044e0e13          	addi	x28,x28,68 # 410179a0 <excp_return_label_91>
    41017964:	03c23823          	sd	x28,48(x4) # 30 <SECURE_ACCESS_PROBABILITY+0x12>
    41017968:	00000e13          	li	x28,0
    4101796c:	03c23c23          	sd	x28,56(x4) # 38 <SECURE_ACCESS_PROBABILITY+0x1a>
    41017970:	00000e13          	li	x28,0
    41017974:	07c23023          	sd	x28,96(x4) # 60 <XLEN+0x20>
    41017978:	00000e13          	li	x28,0
    4101797c:	07c23423          	sd	x28,104(x4) # 68 <XLEN+0x28>
    41017980:	00000e13          	li	x28,0
    41017984:	07c23823          	sd	x28,112(x4) # 70 <XLEN+0x30>

0000000041017988 <fault_label_91>:
    41017988:	c14023f3          	csrr	x7,hpmcounter20
    4101798c:	00038a93          	mv	x21,x7
    41017990:	069cecb7          	lui	x25,0x69ce
    41017994:	008c8c9b          	addiw	x25,x25,8 # 69ce008 <failed_addr>
    41017998:	000cbf83          	ld	x31,0(x25)
    4101799c:	000f8067          	jr	x31

00000000410179a0 <excp_return_label_91>:
    410179a0:	40a44237          	lui	x4,0x40a44
    410179a4:	01600e13          	li	x28,22
    410179a8:	05c23823          	sd	x28,80(x4) # 40a44050 <check_excp_expected_cause>
    410179ac:	00000e17          	auipc	x28,0x0
    410179b0:	048e0e13          	addi	x28,x28,72 # 410179f4 <fault_label_92>
    410179b4:	03c23023          	sd	x28,32(x4) # 20 <SECURE_ACCESS_PROBABILITY+0x2>
    410179b8:	00000e13          	li	x28,0
    410179bc:	05c23023          	sd	x28,64(x4) # 40 <XLEN>
    410179c0:	00000e13          	li	x28,0
    410179c4:	05c23423          	sd	x28,72(x4) # 48 <XLEN+0x8>
    410179c8:	00000e17          	auipc	x28,0x0
    410179cc:	044e0e13          	addi	x28,x28,68 # 41017a0c <excp_return_label_92>
    410179d0:	03c23823          	sd	x28,48(x4) # 30 <SECURE_ACCESS_PROBABILITY+0x12>
    410179d4:	00000e13          	li	x28,0
    410179d8:	03c23c23          	sd	x28,56(x4) # 38 <SECURE_ACCESS_PROBABILITY+0x1a>
    410179dc:	00000e13          	li	x28,0
    410179e0:	07c23023          	sd	x28,96(x4) # 60 <XLEN+0x20>
    410179e4:	00000e13          	li	x28,0
    410179e8:	07c23423          	sd	x28,104(x4) # 68 <XLEN+0x28>
    410179ec:	00000e13          	li	x28,0
    410179f0:	07c23823          	sd	x28,112(x4) # 70 <XLEN+0x30>

00000000410179f4 <fault_label_92>:
    410179f4:	c15023f3          	csrr	x7,hpmcounter21
    410179f8:	00038793          	mv	x15,x7
    410179fc:	069ceeb7          	lui	x29,0x69ce
    41017a00:	008e8e9b          	addiw	x29,x29,8 # 69ce008 <failed_addr>
    41017a04:	000ebc83          	ld	x25,0(x29)
    41017a08:	000c8067          	jr	x25

0000000041017a0c <excp_return_label_92>:
    41017a0c:	40a44237          	lui	x4,0x40a44
    41017a10:	01600e13          	li	x28,22
    41017a14:	05c23823          	sd	x28,80(x4) # 40a44050 <check_excp_expected_cause>
    41017a18:	00000e17          	auipc	x28,0x0
    41017a1c:	048e0e13          	addi	x28,x28,72 # 41017a60 <fault_label_93>
    41017a20:	03c23023          	sd	x28,32(x4) # 20 <SECURE_ACCESS_PROBABILITY+0x2>
    41017a24:	00000e13          	li	x28,0
    41017a28:	05c23023          	sd	x28,64(x4) # 40 <XLEN>
    41017a2c:	00000e13          	li	x28,0
    41017a30:	05c23423          	sd	x28,72(x4) # 48 <XLEN+0x8>
    41017a34:	00000e17          	auipc	x28,0x0
    41017a38:	044e0e13          	addi	x28,x28,68 # 41017a78 <excp_return_label_93>
    41017a3c:	03c23823          	sd	x28,48(x4) # 30 <SECURE_ACCESS_PROBABILITY+0x12>
    41017a40:	00000e13          	li	x28,0
    41017a44:	03c23c23          	sd	x28,56(x4) # 38 <SECURE_ACCESS_PROBABILITY+0x1a>
    41017a48:	00000e13          	li	x28,0
    41017a4c:	07c23023          	sd	x28,96(x4) # 60 <XLEN+0x20>
    41017a50:	00000e13          	li	x28,0
    41017a54:	07c23423          	sd	x28,104(x4) # 68 <XLEN+0x28>
    41017a58:	00000e13          	li	x28,0
    41017a5c:	07c23823          	sd	x28,112(x4) # 70 <XLEN+0x30>

0000000041017a60 <fault_label_93>:
    41017a60:	c16023f3          	csrr	x7,hpmcounter22
    41017a64:	00038a13          	mv	x20,x7
    41017a68:	069ce8b7          	lui	x17,0x69ce
    41017a6c:	0088889b          	addiw	x17,x17,8 # 69ce008 <failed_addr>
    41017a70:	0008b903          	ld	x18,0(x17)
    41017a74:	00090067          	jr	x18

0000000041017a78 <excp_return_label_93>:
    41017a78:	40a44237          	lui	x4,0x40a44
    41017a7c:	01600e13          	li	x28,22
    41017a80:	05c23823          	sd	x28,80(x4) # 40a44050 <check_excp_expected_cause>
    41017a84:	00000e17          	auipc	x28,0x0
    41017a88:	048e0e13          	addi	x28,x28,72 # 41017acc <fault_label_94>
    41017a8c:	03c23023          	sd	x28,32(x4) # 20 <SECURE_ACCESS_PROBABILITY+0x2>
    41017a90:	00000e13          	li	x28,0
    41017a94:	05c23023          	sd	x28,64(x4) # 40 <XLEN>
    41017a98:	00000e13          	li	x28,0
    41017a9c:	05c23423          	sd	x28,72(x4) # 48 <XLEN+0x8>
    41017aa0:	00000e17          	auipc	x28,0x0
    41017aa4:	044e0e13          	addi	x28,x28,68 # 41017ae4 <excp_return_label_94>
    41017aa8:	03c23823          	sd	x28,48(x4) # 30 <SECURE_ACCESS_PROBABILITY+0x12>
    41017aac:	00000e13          	li	x28,0
    41017ab0:	03c23c23          	sd	x28,56(x4) # 38 <SECURE_ACCESS_PROBABILITY+0x1a>
    41017ab4:	00000e13          	li	x28,0
    41017ab8:	07c23023          	sd	x28,96(x4) # 60 <XLEN+0x20>
    41017abc:	00000e13          	li	x28,0
    41017ac0:	07c23423          	sd	x28,104(x4) # 68 <XLEN+0x28>
    41017ac4:	00000e13          	li	x28,0
    41017ac8:	07c23823          	sd	x28,112(x4) # 70 <XLEN+0x30>

0000000041017acc <fault_label_94>:
    41017acc:	c17023f3          	csrr	x7,hpmcounter23
    41017ad0:	00038593          	mv	x11,x7
    41017ad4:	069ce737          	lui	x14,0x69ce
    41017ad8:	0087071b          	addiw	x14,x14,8 # 69ce008 <failed_addr>
    41017adc:	00073583          	ld	x11,0(x14)
    41017ae0:	00058067          	jr	x11

0000000041017ae4 <excp_return_label_94>:
    41017ae4:	40a44237          	lui	x4,0x40a44
    41017ae8:	01600e13          	li	x28,22
    41017aec:	05c23823          	sd	x28,80(x4) # 40a44050 <check_excp_expected_cause>
    41017af0:	00000e17          	auipc	x28,0x0
    41017af4:	048e0e13          	addi	x28,x28,72 # 41017b38 <fault_label_95>
    41017af8:	03c23023          	sd	x28,32(x4) # 20 <SECURE_ACCESS_PROBABILITY+0x2>
    41017afc:	00000e13          	li	x28,0
    41017b00:	05c23023          	sd	x28,64(x4) # 40 <XLEN>
    41017b04:	00000e13          	li	x28,0
    41017b08:	05c23423          	sd	x28,72(x4) # 48 <XLEN+0x8>
    41017b0c:	00000e17          	auipc	x28,0x0
    41017b10:	044e0e13          	addi	x28,x28,68 # 41017b50 <excp_return_label_95>
    41017b14:	03c23823          	sd	x28,48(x4) # 30 <SECURE_ACCESS_PROBABILITY+0x12>
    41017b18:	00000e13          	li	x28,0
    41017b1c:	03c23c23          	sd	x28,56(x4) # 38 <SECURE_ACCESS_PROBABILITY+0x1a>
    41017b20:	00000e13          	li	x28,0
    41017b24:	07c23023          	sd	x28,96(x4) # 60 <XLEN+0x20>
    41017b28:	00000e13          	li	x28,0
    41017b2c:	07c23423          	sd	x28,104(x4) # 68 <XLEN+0x28>
    41017b30:	00000e13          	li	x28,0
    41017b34:	07c23823          	sd	x28,112(x4) # 70 <XLEN+0x30>

0000000041017b38 <fault_label_95>:
    41017b38:	c18023f3          	csrr	x7,hpmcounter24
    41017b3c:	00038893          	mv	x17,x7
    41017b40:	069cef37          	lui	x30,0x69ce
    41017b44:	008f0f1b          	addiw	x30,x30,8 # 69ce008 <failed_addr>
    41017b48:	000f3f03          	ld	x30,0(x30)
    41017b4c:	000f0067          	jr	x30

0000000041017b50 <excp_return_label_95>:
    41017b50:	40a44237          	lui	x4,0x40a44
    41017b54:	01600e13          	li	x28,22
    41017b58:	05c23823          	sd	x28,80(x4) # 40a44050 <check_excp_expected_cause>
    41017b5c:	00000e17          	auipc	x28,0x0
    41017b60:	048e0e13          	addi	x28,x28,72 # 41017ba4 <fault_label_96>
    41017b64:	03c23023          	sd	x28,32(x4) # 20 <SECURE_ACCESS_PROBABILITY+0x2>
    41017b68:	00000e13          	li	x28,0
    41017b6c:	05c23023          	sd	x28,64(x4) # 40 <XLEN>
    41017b70:	00000e13          	li	x28,0
    41017b74:	05c23423          	sd	x28,72(x4) # 48 <XLEN+0x8>
    41017b78:	00000e17          	auipc	x28,0x0
    41017b7c:	044e0e13          	addi	x28,x28,68 # 41017bbc <excp_return_label_96>
    41017b80:	03c23823          	sd	x28,48(x4) # 30 <SECURE_ACCESS_PROBABILITY+0x12>
    41017b84:	00000e13          	li	x28,0
    41017b88:	03c23c23          	sd	x28,56(x4) # 38 <SECURE_ACCESS_PROBABILITY+0x1a>
    41017b8c:	00000e13          	li	x28,0
    41017b90:	07c23023          	sd	x28,96(x4) # 60 <XLEN+0x20>
    41017b94:	00000e13          	li	x28,0
    41017b98:	07c23423          	sd	x28,104(x4) # 68 <XLEN+0x28>
    41017b9c:	00000e13          	li	x28,0
    41017ba0:	07c23823          	sd	x28,112(x4) # 70 <XLEN+0x30>

0000000041017ba4 <fault_label_96>:
    41017ba4:	c19023f3          	csrr	x7,hpmcounter25
    41017ba8:	00038a93          	mv	x21,x7
    41017bac:	069ce837          	lui	x16,0x69ce
    41017bb0:	0088081b          	addiw	x16,x16,8 # 69ce008 <failed_addr>
    41017bb4:	00083f83          	ld	x31,0(x16)
    41017bb8:	000f8067          	jr	x31

0000000041017bbc <excp_return_label_96>:
    41017bbc:	40a44237          	lui	x4,0x40a44
    41017bc0:	01600e13          	li	x28,22
    41017bc4:	05c23823          	sd	x28,80(x4) # 40a44050 <check_excp_expected_cause>
    41017bc8:	00000e17          	auipc	x28,0x0
    41017bcc:	048e0e13          	addi	x28,x28,72 # 41017c10 <fault_label_97>
    41017bd0:	03c23023          	sd	x28,32(x4) # 20 <SECURE_ACCESS_PROBABILITY+0x2>
    41017bd4:	00000e13          	li	x28,0
    41017bd8:	05c23023          	sd	x28,64(x4) # 40 <XLEN>
    41017bdc:	00000e13          	li	x28,0
    41017be0:	05c23423          	sd	x28,72(x4) # 48 <XLEN+0x8>
    41017be4:	00000e17          	auipc	x28,0x0
    41017be8:	044e0e13          	addi	x28,x28,68 # 41017c28 <excp_return_label_97>
    41017bec:	03c23823          	sd	x28,48(x4) # 30 <SECURE_ACCESS_PROBABILITY+0x12>
    41017bf0:	00000e13          	li	x28,0
    41017bf4:	03c23c23          	sd	x28,56(x4) # 38 <SECURE_ACCESS_PROBABILITY+0x1a>
    41017bf8:	00000e13          	li	x28,0
    41017bfc:	07c23023          	sd	x28,96(x4) # 60 <XLEN+0x20>
    41017c00:	00000e13          	li	x28,0
    41017c04:	07c23423          	sd	x28,104(x4) # 68 <XLEN+0x28>
    41017c08:	00000e13          	li	x28,0
    41017c0c:	07c23823          	sd	x28,112(x4) # 70 <XLEN+0x30>

0000000041017c10 <fault_label_97>:
    41017c10:	c1a023f3          	csrr	x7,hpmcounter26
    41017c14:	00038893          	mv	x17,x7
    41017c18:	069cecb7          	lui	x25,0x69ce
    41017c1c:	008c8c9b          	addiw	x25,x25,8 # 69ce008 <failed_addr>
    41017c20:	000cbe83          	ld	x29,0(x25)
    41017c24:	000e8067          	jr	x29

0000000041017c28 <excp_return_label_97>:
    41017c28:	40a44237          	lui	x4,0x40a44
    41017c2c:	01600e13          	li	x28,22
    41017c30:	05c23823          	sd	x28,80(x4) # 40a44050 <check_excp_expected_cause>
    41017c34:	00000e17          	auipc	x28,0x0
    41017c38:	048e0e13          	addi	x28,x28,72 # 41017c7c <fault_label_98>
    41017c3c:	03c23023          	sd	x28,32(x4) # 20 <SECURE_ACCESS_PROBABILITY+0x2>
    41017c40:	00000e13          	li	x28,0
    41017c44:	05c23023          	sd	x28,64(x4) # 40 <XLEN>
    41017c48:	00000e13          	li	x28,0
    41017c4c:	05c23423          	sd	x28,72(x4) # 48 <XLEN+0x8>
    41017c50:	00000e17          	auipc	x28,0x0
    41017c54:	044e0e13          	addi	x28,x28,68 # 41017c94 <excp_return_label_98>
    41017c58:	03c23823          	sd	x28,48(x4) # 30 <SECURE_ACCESS_PROBABILITY+0x12>
    41017c5c:	00000e13          	li	x28,0
    41017c60:	03c23c23          	sd	x28,56(x4) # 38 <SECURE_ACCESS_PROBABILITY+0x1a>
    41017c64:	00000e13          	li	x28,0
    41017c68:	07c23023          	sd	x28,96(x4) # 60 <XLEN+0x20>
    41017c6c:	00000e13          	li	x28,0
    41017c70:	07c23423          	sd	x28,104(x4) # 68 <XLEN+0x28>
    41017c74:	00000e13          	li	x28,0
    41017c78:	07c23823          	sd	x28,112(x4) # 70 <XLEN+0x30>

0000000041017c7c <fault_label_98>:
    41017c7c:	c1b023f3          	csrr	x7,hpmcounter27
    41017c80:	00038c13          	mv	x24,x7
    41017c84:	069ceab7          	lui	x21,0x69ce
    41017c88:	008a8a9b          	addiw	x21,x21,8 # 69ce008 <failed_addr>
    41017c8c:	000abf83          	ld	x31,0(x21)
    41017c90:	000f8067          	jr	x31

0000000041017c94 <excp_return_label_98>:
    41017c94:	40a44237          	lui	x4,0x40a44
    41017c98:	01600e13          	li	x28,22
    41017c9c:	05c23823          	sd	x28,80(x4) # 40a44050 <check_excp_expected_cause>
    41017ca0:	00000e17          	auipc	x28,0x0
    41017ca4:	048e0e13          	addi	x28,x28,72 # 41017ce8 <fault_label_99>
    41017ca8:	03c23023          	sd	x28,32(x4) # 20 <SECURE_ACCESS_PROBABILITY+0x2>
    41017cac:	00000e13          	li	x28,0
    41017cb0:	05c23023          	sd	x28,64(x4) # 40 <XLEN>
    41017cb4:	00000e13          	li	x28,0
    41017cb8:	05c23423          	sd	x28,72(x4) # 48 <XLEN+0x8>
    41017cbc:	00000e17          	auipc	x28,0x0
    41017cc0:	044e0e13          	addi	x28,x28,68 # 41017d00 <excp_return_label_99>
    41017cc4:	03c23823          	sd	x28,48(x4) # 30 <SECURE_ACCESS_PROBABILITY+0x12>
    41017cc8:	00000e13          	li	x28,0
    41017ccc:	03c23c23          	sd	x28,56(x4) # 38 <SECURE_ACCESS_PROBABILITY+0x1a>
    41017cd0:	00000e13          	li	x28,0
    41017cd4:	07c23023          	sd	x28,96(x4) # 60 <XLEN+0x20>
    41017cd8:	00000e13          	li	x28,0
    41017cdc:	07c23423          	sd	x28,104(x4) # 68 <XLEN+0x28>
    41017ce0:	00000e13          	li	x28,0
    41017ce4:	07c23823          	sd	x28,112(x4) # 70 <XLEN+0x30>

0000000041017ce8 <fault_label_99>:
    41017ce8:	c1c023f3          	csrr	x7,hpmcounter28
    41017cec:	00038513          	mv	x10,x7
    41017cf0:	069ce637          	lui	x12,0x69ce
    41017cf4:	0086061b          	addiw	x12,x12,8 # 69ce008 <failed_addr>
    41017cf8:	00063403          	ld	x8,0(x12)
    41017cfc:	00040067          	jr	x8

0000000041017d00 <excp_return_label_99>:
    41017d00:	40a44237          	lui	x4,0x40a44
    41017d04:	01600e13          	li	x28,22
    41017d08:	05c23823          	sd	x28,80(x4) # 40a44050 <check_excp_expected_cause>
    41017d0c:	00000e17          	auipc	x28,0x0
    41017d10:	048e0e13          	addi	x28,x28,72 # 41017d54 <fault_label_100>
    41017d14:	03c23023          	sd	x28,32(x4) # 20 <SECURE_ACCESS_PROBABILITY+0x2>
    41017d18:	00000e13          	li	x28,0
    41017d1c:	05c23023          	sd	x28,64(x4) # 40 <XLEN>
    41017d20:	00000e13          	li	x28,0
    41017d24:	05c23423          	sd	x28,72(x4) # 48 <XLEN+0x8>
    41017d28:	00000e17          	auipc	x28,0x0
    41017d2c:	044e0e13          	addi	x28,x28,68 # 41017d6c <excp_return_label_100>
    41017d30:	03c23823          	sd	x28,48(x4) # 30 <SECURE_ACCESS_PROBABILITY+0x12>
    41017d34:	00000e13          	li	x28,0
    41017d38:	03c23c23          	sd	x28,56(x4) # 38 <SECURE_ACCESS_PROBABILITY+0x1a>
    41017d3c:	00000e13          	li	x28,0
    41017d40:	07c23023          	sd	x28,96(x4) # 60 <XLEN+0x20>
    41017d44:	00000e13          	li	x28,0
    41017d48:	07c23423          	sd	x28,104(x4) # 68 <XLEN+0x28>
    41017d4c:	00000e13          	li	x28,0
    41017d50:	07c23823          	sd	x28,112(x4) # 70 <XLEN+0x30>

0000000041017d54 <fault_label_100>:
    41017d54:	c1d023f3          	csrr	x7,hpmcounter29
    41017d58:	00038d13          	mv	x26,x7
    41017d5c:	069ce737          	lui	x14,0x69ce
    41017d60:	0087071b          	addiw	x14,x14,8 # 69ce008 <failed_addr>
    41017d64:	00073a03          	ld	x20,0(x14)
    41017d68:	000a0067          	jr	x20

0000000041017d6c <excp_return_label_100>:
    41017d6c:	40a44237          	lui	x4,0x40a44
    41017d70:	01600e13          	li	x28,22
    41017d74:	05c23823          	sd	x28,80(x4) # 40a44050 <check_excp_expected_cause>
    41017d78:	00000e17          	auipc	x28,0x0
    41017d7c:	048e0e13          	addi	x28,x28,72 # 41017dc0 <fault_label_101>
    41017d80:	03c23023          	sd	x28,32(x4) # 20 <SECURE_ACCESS_PROBABILITY+0x2>
    41017d84:	00000e13          	li	x28,0
    41017d88:	05c23023          	sd	x28,64(x4) # 40 <XLEN>
    41017d8c:	00000e13          	li	x28,0
    41017d90:	05c23423          	sd	x28,72(x4) # 48 <XLEN+0x8>
    41017d94:	00000e17          	auipc	x28,0x0
    41017d98:	044e0e13          	addi	x28,x28,68 # 41017dd8 <excp_return_label_101>
    41017d9c:	03c23823          	sd	x28,48(x4) # 30 <SECURE_ACCESS_PROBABILITY+0x12>
    41017da0:	00000e13          	li	x28,0
    41017da4:	03c23c23          	sd	x28,56(x4) # 38 <SECURE_ACCESS_PROBABILITY+0x1a>
    41017da8:	00000e13          	li	x28,0
    41017dac:	07c23023          	sd	x28,96(x4) # 60 <XLEN+0x20>
    41017db0:	00000e13          	li	x28,0
    41017db4:	07c23423          	sd	x28,104(x4) # 68 <XLEN+0x28>
    41017db8:	00000e13          	li	x28,0
    41017dbc:	07c23823          	sd	x28,112(x4) # 70 <XLEN+0x30>

0000000041017dc0 <fault_label_101>:
    41017dc0:	c1e023f3          	csrr	x7,hpmcounter30
    41017dc4:	00038713          	mv	x14,x7
    41017dc8:	069ce6b7          	lui	x13,0x69ce
    41017dcc:	0086869b          	addiw	x13,x13,8 # 69ce008 <failed_addr>
    41017dd0:	0006b783          	ld	x15,0(x13)
    41017dd4:	00078067          	jr	x15

0000000041017dd8 <excp_return_label_101>:
    41017dd8:	40a44237          	lui	x4,0x40a44
    41017ddc:	01600e13          	li	x28,22
    41017de0:	05c23823          	sd	x28,80(x4) # 40a44050 <check_excp_expected_cause>
    41017de4:	00000e17          	auipc	x28,0x0
    41017de8:	048e0e13          	addi	x28,x28,72 # 41017e2c <fault_label_102>
    41017dec:	03c23023          	sd	x28,32(x4) # 20 <SECURE_ACCESS_PROBABILITY+0x2>
    41017df0:	00000e13          	li	x28,0
    41017df4:	05c23023          	sd	x28,64(x4) # 40 <XLEN>
    41017df8:	00000e13          	li	x28,0
    41017dfc:	05c23423          	sd	x28,72(x4) # 48 <XLEN+0x8>
    41017e00:	00000e17          	auipc	x28,0x0
    41017e04:	044e0e13          	addi	x28,x28,68 # 41017e44 <excp_return_label_102>
    41017e08:	03c23823          	sd	x28,48(x4) # 30 <SECURE_ACCESS_PROBABILITY+0x12>
    41017e0c:	00000e13          	li	x28,0
    41017e10:	03c23c23          	sd	x28,56(x4) # 38 <SECURE_ACCESS_PROBABILITY+0x1a>
    41017e14:	00000e13          	li	x28,0
    41017e18:	07c23023          	sd	x28,96(x4) # 60 <XLEN+0x20>
    41017e1c:	00000e13          	li	x28,0
    41017e20:	07c23423          	sd	x28,104(x4) # 68 <XLEN+0x28>
    41017e24:	00000e13          	li	x28,0
    41017e28:	07c23823          	sd	x28,112(x4) # 70 <XLEN+0x30>

0000000041017e2c <fault_label_102>:
    41017e2c:	c1f023f3          	csrr	x7,hpmcounter31
    41017e30:	00038793          	mv	x15,x7
    41017e34:	069ceab7          	lui	x21,0x69ce
    41017e38:	008a8a9b          	addiw	x21,x21,8 # 69ce008 <failed_addr>
    41017e3c:	000abd83          	ld	x27,0(x21)
    41017e40:	000d8067          	jr	x27

0000000041017e44 <excp_return_label_102>:
    41017e44:	0006c137          	lui	x2,0x6c
    41017e48:	00013383          	ld	x7,0(x2) # 6c000 <tp_csr_storage>
    41017e4c:	069cefb7          	lui	x31,0x69ce
    41017e50:	0b8f8f9b          	addiw	x31,x31,184 # 69ce0b8 <super_csr_jump_table_flags>
    41017e54:	02b00f13          	li	x30,43
    41017e58:	01efb023          	sd	x30,0(x31)
    41017e5c:	000f0fb7          	lui	x31,0xf0
    41017e60:	001f8f9b          	addiw	x31,x31,1 # f0001 <SID_HEXCEP_09_hinval_vvma_vu_stack+0x25001>
    41017e64:	00cf9f93          	slli	x31,x31,0xc
    41017e68:	006f8f93          	addi	x31,x31,6
    41017e6c:	00000073          	ecall
    41017e70:	00813383          	ld	x7,8(x2)
    41017e74:	069cefb7          	lui	x31,0x69ce
    41017e78:	0b0f8f9b          	addiw	x31,x31,176 # 69ce0b0 <machine_csr_jump_table_flags>
    41017e7c:	02c00f13          	li	x30,44
    41017e80:	01efb023          	sd	x30,0(x31)
    41017e84:	000f0fb7          	lui	x31,0xf0
    41017e88:	001f8f9b          	addiw	x31,x31,1 # f0001 <SID_HEXCEP_09_hinval_vvma_vu_stack+0x25001>
    41017e8c:	00cf9f93          	slli	x31,x31,0xc
    41017e90:	005f8f93          	addi	x31,x31,5
    41017e94:	00000073          	ecall
    41017e98:	01013383          	ld	x7,16(x2)
    41017e9c:	069cefb7          	lui	x31,0x69ce
    41017ea0:	0b8f8f9b          	addiw	x31,x31,184 # 69ce0b8 <super_csr_jump_table_flags>
    41017ea4:	02d00f13          	li	x30,45
    41017ea8:	01efb023          	sd	x30,0(x31)
    41017eac:	000f0fb7          	lui	x31,0xf0
    41017eb0:	001f8f9b          	addiw	x31,x31,1 # f0001 <SID_HEXCEP_09_hinval_vvma_vu_stack+0x25001>
    41017eb4:	00cf9f93          	slli	x31,x31,0xc
    41017eb8:	006f8f93          	addi	x31,x31,6
    41017ebc:	00000073          	ecall

0000000041017ec0 <SID_HEXCEP_07_vu_mode_case1_passed>:
    41017ec0:	00f00f9b          	addiw	x31,x0,15
    41017ec4:	01cf9f93          	slli	x31,x31,0x1c
    41017ec8:	001f8f93          	addi	x31,x31,1
    41017ecc:	00000073          	ecall

0000000041017ed0 <SID_HEXCEP_07_vu_mode_case2>:
    41017ed0:	0006c137          	lui	x2,0x6c
    41017ed4:	069cefb7          	lui	x31,0x69ce
    41017ed8:	0b8f8f9b          	addiw	x31,x31,184 # 69ce0b8 <super_csr_jump_table_flags>
    41017edc:	00500f13          	li	x30,5
    41017ee0:	01efb023          	sd	x30,0(x31)
    41017ee4:	000f0fb7          	lui	x31,0xf0
    41017ee8:	001f8f9b          	addiw	x31,x31,1 # f0001 <SID_HEXCEP_09_hinval_vvma_vu_stack+0x25001>
    41017eec:	00cf9f93          	slli	x31,x31,0xc
    41017ef0:	006f8f93          	addi	x31,x31,6
    41017ef4:	00000073          	ecall
    41017ef8:	00713023          	sd	x7,0(x2) # 6c000 <tp_csr_storage>
    41017efc:	069cefb7          	lui	x31,0x69ce
    41017f00:	0b0f8f9b          	addiw	x31,x31,176 # 69ce0b0 <machine_csr_jump_table_flags>
    41017f04:	00600f13          	li	x30,6
    41017f08:	01efb023          	sd	x30,0(x31)
    41017f0c:	000f0fb7          	lui	x31,0xf0
    41017f10:	001f8f9b          	addiw	x31,x31,1 # f0001 <SID_HEXCEP_09_hinval_vvma_vu_stack+0x25001>
    41017f14:	00cf9f93          	slli	x31,x31,0xc
    41017f18:	005f8f93          	addi	x31,x31,5
    41017f1c:	00000073          	ecall
    41017f20:	00713423          	sd	x7,8(x2)
    41017f24:	069cefb7          	lui	x31,0x69ce
    41017f28:	0b8f8f9b          	addiw	x31,x31,184 # 69ce0b8 <super_csr_jump_table_flags>
    41017f2c:	00700f13          	li	x30,7
    41017f30:	01efb023          	sd	x30,0(x31)
    41017f34:	000f0fb7          	lui	x31,0xf0
    41017f38:	001f8f9b          	addiw	x31,x31,1 # f0001 <SID_HEXCEP_09_hinval_vvma_vu_stack+0x25001>
    41017f3c:	00cf9f93          	slli	x31,x31,0xc
    41017f40:	006f8f93          	addi	x31,x31,6
    41017f44:	00000073          	ecall
    41017f48:	00713823          	sd	x7,16(x2)
    41017f4c:	1a4ac137          	lui	x2,0x1a4ac
    41017f50:	0f11011b          	addiw	x2,x2,241 # 1a4ac0f1 <SID_HEXCEP_16_fs0_both_stack+0x114400f1>
    41017f54:	00c11113          	slli	x2,x2,0xc
    41017f58:	2bf10113          	addi	x2,x2,703
    41017f5c:	00c11113          	slli	x2,x2,0xc
    41017f60:	000012b7          	lui	x5,0x1
    41017f64:	00510133          	add	x2,x2,x5
    41017f68:	ff017113          	andi	x2,x2,-16
    41017f6c:	0010039b          	addiw	x7,x0,1
    41017f70:	02039393          	slli	x7,x7,0x20
    41017f74:	fff38393          	addi	x7,x7,-1
    41017f78:	069cefb7          	lui	x31,0x69ce
    41017f7c:	0b0f8f9b          	addiw	x31,x31,176 # 69ce0b0 <machine_csr_jump_table_flags>
    41017f80:	00800f13          	li	x30,8
    41017f84:	01efb023          	sd	x30,0(x31)
    41017f88:	000f0fb7          	lui	x31,0xf0
    41017f8c:	001f8f9b          	addiw	x31,x31,1 # f0001 <SID_HEXCEP_09_hinval_vvma_vu_stack+0x25001>
    41017f90:	00cf9f93          	slli	x31,x31,0xc
    41017f94:	005f8f93          	addi	x31,x31,5
    41017f98:	00000073          	ecall
    41017f9c:	0010039b          	addiw	x7,x0,1
    41017fa0:	02039393          	slli	x7,x7,0x20
    41017fa4:	fff38393          	addi	x7,x7,-1
    41017fa8:	069cefb7          	lui	x31,0x69ce
    41017fac:	0b8f8f9b          	addiw	x31,x31,184 # 69ce0b8 <super_csr_jump_table_flags>
    41017fb0:	00900f13          	li	x30,9
    41017fb4:	01efb023          	sd	x30,0(x31)
    41017fb8:	000f0fb7          	lui	x31,0xf0
    41017fbc:	001f8f9b          	addiw	x31,x31,1 # f0001 <SID_HEXCEP_09_hinval_vvma_vu_stack+0x25001>
    41017fc0:	00cf9f93          	slli	x31,x31,0xc
    41017fc4:	006f8f93          	addi	x31,x31,6
    41017fc8:	00000073          	ecall
    41017fcc:	0010039b          	addiw	x7,x0,1
    41017fd0:	02039393          	slli	x7,x7,0x20
    41017fd4:	fff38393          	addi	x7,x7,-1
    41017fd8:	069cefb7          	lui	x31,0x69ce
    41017fdc:	0b8f8f9b          	addiw	x31,x31,184 # 69ce0b8 <super_csr_jump_table_flags>
    41017fe0:	03300f13          	li	x30,51
    41017fe4:	01efb023          	sd	x30,0(x31)
    41017fe8:	000f0fb7          	lui	x31,0xf0
    41017fec:	001f8f9b          	addiw	x31,x31,1 # f0001 <SID_HEXCEP_09_hinval_vvma_vu_stack+0x25001>
    41017ff0:	00cf9f93          	slli	x31,x31,0xc
    41017ff4:	006f8f93          	addi	x31,x31,6
    41017ff8:	00000073          	ecall
    41017ffc:	40a44237          	lui	x4,0x40a44
    41018000:	01600e13          	li	x28,22
    41018004:	05c23823          	sd	x28,80(x4) # 40a44050 <check_excp_expected_cause>
    41018008:	00000e17          	auipc	x28,0x0
    4101800c:	048e0e13          	addi	x28,x28,72 # 41018050 <fault_label_103>
    41018010:	03c23023          	sd	x28,32(x4) # 20 <SECURE_ACCESS_PROBABILITY+0x2>
    41018014:	00000e13          	li	x28,0
    41018018:	05c23023          	sd	x28,64(x4) # 40 <XLEN>
    4101801c:	00000e13          	li	x28,0
    41018020:	05c23423          	sd	x28,72(x4) # 48 <XLEN+0x8>
    41018024:	00000e17          	auipc	x28,0x0
    41018028:	044e0e13          	addi	x28,x28,68 # 41018068 <excp_return_label_103>
    4101802c:	03c23823          	sd	x28,48(x4) # 30 <SECURE_ACCESS_PROBABILITY+0x12>
    41018030:	00000e13          	li	x28,0
    41018034:	03c23c23          	sd	x28,56(x4) # 38 <SECURE_ACCESS_PROBABILITY+0x1a>
    41018038:	00000e13          	li	x28,0
    4101803c:	07c23023          	sd	x28,96(x4) # 60 <XLEN+0x20>
    41018040:	00000e13          	li	x28,0
    41018044:	07c23423          	sd	x28,104(x4) # 68 <XLEN+0x28>
    41018048:	00000e13          	li	x28,0
    4101804c:	07c23823          	sd	x28,112(x4) # 70 <XLEN+0x30>

0000000041018050 <fault_label_103>:
    41018050:	c00023f3          	rdcycle	x7
    41018054:	00038513          	mv	x10,x7
    41018058:	069ced37          	lui	x26,0x69ce
    4101805c:	008d0d1b          	addiw	x26,x26,8 # 69ce008 <failed_addr>
    41018060:	000d3983          	ld	x19,0(x26)
    41018064:	00098067          	jr	x19

0000000041018068 <excp_return_label_103>:
    41018068:	40a44237          	lui	x4,0x40a44
    4101806c:	01600e13          	li	x28,22
    41018070:	05c23823          	sd	x28,80(x4) # 40a44050 <check_excp_expected_cause>
    41018074:	00000e17          	auipc	x28,0x0
    41018078:	048e0e13          	addi	x28,x28,72 # 410180bc <fault_label_104>
    4101807c:	03c23023          	sd	x28,32(x4) # 20 <SECURE_ACCESS_PROBABILITY+0x2>
    41018080:	00000e13          	li	x28,0
    41018084:	05c23023          	sd	x28,64(x4) # 40 <XLEN>
    41018088:	00000e13          	li	x28,0
    4101808c:	05c23423          	sd	x28,72(x4) # 48 <XLEN+0x8>
    41018090:	00000e17          	auipc	x28,0x0
    41018094:	044e0e13          	addi	x28,x28,68 # 410180d4 <excp_return_label_104>
    41018098:	03c23823          	sd	x28,48(x4) # 30 <SECURE_ACCESS_PROBABILITY+0x12>
    4101809c:	00000e13          	li	x28,0
    410180a0:	03c23c23          	sd	x28,56(x4) # 38 <SECURE_ACCESS_PROBABILITY+0x1a>
    410180a4:	00000e13          	li	x28,0
    410180a8:	07c23023          	sd	x28,96(x4) # 60 <XLEN+0x20>
    410180ac:	00000e13          	li	x28,0
    410180b0:	07c23423          	sd	x28,104(x4) # 68 <XLEN+0x28>
    410180b4:	00000e13          	li	x28,0
    410180b8:	07c23823          	sd	x28,112(x4) # 70 <XLEN+0x30>

00000000410180bc <fault_label_104>:
    410180bc:	c01023f3          	rdtime	x7
    410180c0:	00038a93          	mv	x21,x7
    410180c4:	069ced37          	lui	x26,0x69ce
    410180c8:	008d0d1b          	addiw	x26,x26,8 # 69ce008 <failed_addr>
    410180cc:	000d3c03          	ld	x24,0(x26)
    410180d0:	000c0067          	jr	x24

00000000410180d4 <excp_return_label_104>:
    410180d4:	40a44237          	lui	x4,0x40a44
    410180d8:	01600e13          	li	x28,22
    410180dc:	05c23823          	sd	x28,80(x4) # 40a44050 <check_excp_expected_cause>
    410180e0:	00000e17          	auipc	x28,0x0
    410180e4:	048e0e13          	addi	x28,x28,72 # 41018128 <fault_label_105>
    410180e8:	03c23023          	sd	x28,32(x4) # 20 <SECURE_ACCESS_PROBABILITY+0x2>
    410180ec:	00000e13          	li	x28,0
    410180f0:	05c23023          	sd	x28,64(x4) # 40 <XLEN>
    410180f4:	00000e13          	li	x28,0
    410180f8:	05c23423          	sd	x28,72(x4) # 48 <XLEN+0x8>
    410180fc:	00000e17          	auipc	x28,0x0
    41018100:	044e0e13          	addi	x28,x28,68 # 41018140 <excp_return_label_105>
    41018104:	03c23823          	sd	x28,48(x4) # 30 <SECURE_ACCESS_PROBABILITY+0x12>
    41018108:	00000e13          	li	x28,0
    4101810c:	03c23c23          	sd	x28,56(x4) # 38 <SECURE_ACCESS_PROBABILITY+0x1a>
    41018110:	00000e13          	li	x28,0
    41018114:	07c23023          	sd	x28,96(x4) # 60 <XLEN+0x20>
    41018118:	00000e13          	li	x28,0
    4101811c:	07c23423          	sd	x28,104(x4) # 68 <XLEN+0x28>
    41018120:	00000e13          	li	x28,0
    41018124:	07c23823          	sd	x28,112(x4) # 70 <XLEN+0x30>

0000000041018128 <fault_label_105>:
    41018128:	c02023f3          	rdinstret	x7
    4101812c:	00038613          	mv	x12,x7
    41018130:	069ce3b7          	lui	x7,0x69ce
    41018134:	0083839b          	addiw	x7,x7,8 # 69ce008 <failed_addr>
    41018138:	0003bb03          	ld	x22,0(x7)
    4101813c:	000b0067          	jr	x22

0000000041018140 <excp_return_label_105>:
    41018140:	40a44237          	lui	x4,0x40a44
    41018144:	01600e13          	li	x28,22
    41018148:	05c23823          	sd	x28,80(x4) # 40a44050 <check_excp_expected_cause>
    4101814c:	00000e17          	auipc	x28,0x0
    41018150:	048e0e13          	addi	x28,x28,72 # 41018194 <fault_label_106>
    41018154:	03c23023          	sd	x28,32(x4) # 20 <SECURE_ACCESS_PROBABILITY+0x2>
    41018158:	00000e13          	li	x28,0
    4101815c:	05c23023          	sd	x28,64(x4) # 40 <XLEN>
    41018160:	00000e13          	li	x28,0
    41018164:	05c23423          	sd	x28,72(x4) # 48 <XLEN+0x8>
    41018168:	00000e17          	auipc	x28,0x0
    4101816c:	044e0e13          	addi	x28,x28,68 # 410181ac <excp_return_label_106>
    41018170:	03c23823          	sd	x28,48(x4) # 30 <SECURE_ACCESS_PROBABILITY+0x12>
    41018174:	00000e13          	li	x28,0
    41018178:	03c23c23          	sd	x28,56(x4) # 38 <SECURE_ACCESS_PROBABILITY+0x1a>
    4101817c:	00000e13          	li	x28,0
    41018180:	07c23023          	sd	x28,96(x4) # 60 <XLEN+0x20>
    41018184:	00000e13          	li	x28,0
    41018188:	07c23423          	sd	x28,104(x4) # 68 <XLEN+0x28>
    4101818c:	00000e13          	li	x28,0
    41018190:	07c23823          	sd	x28,112(x4) # 70 <XLEN+0x30>

0000000041018194 <fault_label_106>:
    41018194:	c03023f3          	csrr	x7,hpmcounter3
    41018198:	00038c93          	mv	x25,x7
    4101819c:	069ce5b7          	lui	x11,0x69ce
    410181a0:	0085859b          	addiw	x11,x11,8 # 69ce008 <failed_addr>
    410181a4:	0005b903          	ld	x18,0(x11)
    410181a8:	00090067          	jr	x18

00000000410181ac <excp_return_label_106>:
    410181ac:	40a44237          	lui	x4,0x40a44
    410181b0:	01600e13          	li	x28,22
    410181b4:	05c23823          	sd	x28,80(x4) # 40a44050 <check_excp_expected_cause>
    410181b8:	00000e17          	auipc	x28,0x0
    410181bc:	048e0e13          	addi	x28,x28,72 # 41018200 <fault_label_107>
    410181c0:	03c23023          	sd	x28,32(x4) # 20 <SECURE_ACCESS_PROBABILITY+0x2>
    410181c4:	00000e13          	li	x28,0
    410181c8:	05c23023          	sd	x28,64(x4) # 40 <XLEN>
    410181cc:	00000e13          	li	x28,0
    410181d0:	05c23423          	sd	x28,72(x4) # 48 <XLEN+0x8>
    410181d4:	00000e17          	auipc	x28,0x0
    410181d8:	044e0e13          	addi	x28,x28,68 # 41018218 <excp_return_label_107>
    410181dc:	03c23823          	sd	x28,48(x4) # 30 <SECURE_ACCESS_PROBABILITY+0x12>
    410181e0:	00000e13          	li	x28,0
    410181e4:	03c23c23          	sd	x28,56(x4) # 38 <SECURE_ACCESS_PROBABILITY+0x1a>
    410181e8:	00000e13          	li	x28,0
    410181ec:	07c23023          	sd	x28,96(x4) # 60 <XLEN+0x20>
    410181f0:	00000e13          	li	x28,0
    410181f4:	07c23423          	sd	x28,104(x4) # 68 <XLEN+0x28>
    410181f8:	00000e13          	li	x28,0
    410181fc:	07c23823          	sd	x28,112(x4) # 70 <XLEN+0x30>

0000000041018200 <fault_label_107>:
    41018200:	c04023f3          	csrr	x7,hpmcounter4
    41018204:	00038693          	mv	x13,x7
    41018208:	069ce737          	lui	x14,0x69ce
    4101820c:	0087071b          	addiw	x14,x14,8 # 69ce008 <failed_addr>
    41018210:	00073483          	ld	x9,0(x14)
    41018214:	00048067          	jr	x9

0000000041018218 <excp_return_label_107>:
    41018218:	40a44237          	lui	x4,0x40a44
    4101821c:	01600e13          	li	x28,22
    41018220:	05c23823          	sd	x28,80(x4) # 40a44050 <check_excp_expected_cause>
    41018224:	00000e17          	auipc	x28,0x0
    41018228:	048e0e13          	addi	x28,x28,72 # 4101826c <fault_label_108>
    4101822c:	03c23023          	sd	x28,32(x4) # 20 <SECURE_ACCESS_PROBABILITY+0x2>
    41018230:	00000e13          	li	x28,0
    41018234:	05c23023          	sd	x28,64(x4) # 40 <XLEN>
    41018238:	00000e13          	li	x28,0
    4101823c:	05c23423          	sd	x28,72(x4) # 48 <XLEN+0x8>
    41018240:	00000e17          	auipc	x28,0x0
    41018244:	044e0e13          	addi	x28,x28,68 # 41018284 <excp_return_label_108>
    41018248:	03c23823          	sd	x28,48(x4) # 30 <SECURE_ACCESS_PROBABILITY+0x12>
    4101824c:	00000e13          	li	x28,0
    41018250:	03c23c23          	sd	x28,56(x4) # 38 <SECURE_ACCESS_PROBABILITY+0x1a>
    41018254:	00000e13          	li	x28,0
    41018258:	07c23023          	sd	x28,96(x4) # 60 <XLEN+0x20>
    4101825c:	00000e13          	li	x28,0
    41018260:	07c23423          	sd	x28,104(x4) # 68 <XLEN+0x28>
    41018264:	00000e13          	li	x28,0
    41018268:	07c23823          	sd	x28,112(x4) # 70 <XLEN+0x30>

000000004101826c <fault_label_108>:
    4101826c:	c05023f3          	csrr	x7,hpmcounter5
    41018270:	00038c93          	mv	x25,x7
    41018274:	069cef37          	lui	x30,0x69ce
    41018278:	008f0f1b          	addiw	x30,x30,8 # 69ce008 <failed_addr>
    4101827c:	000f3683          	ld	x13,0(x30)
    41018280:	00068067          	jr	x13

0000000041018284 <excp_return_label_108>:
    41018284:	40a44237          	lui	x4,0x40a44
    41018288:	01600e13          	li	x28,22
    4101828c:	05c23823          	sd	x28,80(x4) # 40a44050 <check_excp_expected_cause>
    41018290:	00000e17          	auipc	x28,0x0
    41018294:	048e0e13          	addi	x28,x28,72 # 410182d8 <fault_label_109>
    41018298:	03c23023          	sd	x28,32(x4) # 20 <SECURE_ACCESS_PROBABILITY+0x2>
    4101829c:	00000e13          	li	x28,0
    410182a0:	05c23023          	sd	x28,64(x4) # 40 <XLEN>
    410182a4:	00000e13          	li	x28,0
    410182a8:	05c23423          	sd	x28,72(x4) # 48 <XLEN+0x8>
    410182ac:	00000e17          	auipc	x28,0x0
    410182b0:	044e0e13          	addi	x28,x28,68 # 410182f0 <excp_return_label_109>
    410182b4:	03c23823          	sd	x28,48(x4) # 30 <SECURE_ACCESS_PROBABILITY+0x12>
    410182b8:	00000e13          	li	x28,0
    410182bc:	03c23c23          	sd	x28,56(x4) # 38 <SECURE_ACCESS_PROBABILITY+0x1a>
    410182c0:	00000e13          	li	x28,0
    410182c4:	07c23023          	sd	x28,96(x4) # 60 <XLEN+0x20>
    410182c8:	00000e13          	li	x28,0
    410182cc:	07c23423          	sd	x28,104(x4) # 68 <XLEN+0x28>
    410182d0:	00000e13          	li	x28,0
    410182d4:	07c23823          	sd	x28,112(x4) # 70 <XLEN+0x30>

00000000410182d8 <fault_label_109>:
    410182d8:	c06023f3          	csrr	x7,hpmcounter6
    410182dc:	00038993          	mv	x19,x7
    410182e0:	069cebb7          	lui	x23,0x69ce
    410182e4:	008b8b9b          	addiw	x23,x23,8 # 69ce008 <failed_addr>
    410182e8:	000bb683          	ld	x13,0(x23)
    410182ec:	00068067          	jr	x13

00000000410182f0 <excp_return_label_109>:
    410182f0:	40a44237          	lui	x4,0x40a44
    410182f4:	01600e13          	li	x28,22
    410182f8:	05c23823          	sd	x28,80(x4) # 40a44050 <check_excp_expected_cause>
    410182fc:	00000e17          	auipc	x28,0x0
    41018300:	048e0e13          	addi	x28,x28,72 # 41018344 <fault_label_110>
    41018304:	03c23023          	sd	x28,32(x4) # 20 <SECURE_ACCESS_PROBABILITY+0x2>
    41018308:	00000e13          	li	x28,0
    4101830c:	05c23023          	sd	x28,64(x4) # 40 <XLEN>
    41018310:	00000e13          	li	x28,0
    41018314:	05c23423          	sd	x28,72(x4) # 48 <XLEN+0x8>
    41018318:	00000e17          	auipc	x28,0x0
    4101831c:	044e0e13          	addi	x28,x28,68 # 4101835c <excp_return_label_110>
    41018320:	03c23823          	sd	x28,48(x4) # 30 <SECURE_ACCESS_PROBABILITY+0x12>
    41018324:	00000e13          	li	x28,0
    41018328:	03c23c23          	sd	x28,56(x4) # 38 <SECURE_ACCESS_PROBABILITY+0x1a>
    4101832c:	00000e13          	li	x28,0
    41018330:	07c23023          	sd	x28,96(x4) # 60 <XLEN+0x20>
    41018334:	00000e13          	li	x28,0
    41018338:	07c23423          	sd	x28,104(x4) # 68 <XLEN+0x28>
    4101833c:	00000e13          	li	x28,0
    41018340:	07c23823          	sd	x28,112(x4) # 70 <XLEN+0x30>

0000000041018344 <fault_label_110>:
    41018344:	c07023f3          	csrr	x7,hpmcounter7
    41018348:	00038813          	mv	x16,x7
    4101834c:	069ce337          	lui	x6,0x69ce
    41018350:	0083031b          	addiw	x6,x6,8 # 69ce008 <failed_addr>
    41018354:	00033f03          	ld	x30,0(x6)
    41018358:	000f0067          	jr	x30

000000004101835c <excp_return_label_110>:
    4101835c:	40a44237          	lui	x4,0x40a44
    41018360:	01600e13          	li	x28,22
    41018364:	05c23823          	sd	x28,80(x4) # 40a44050 <check_excp_expected_cause>
    41018368:	00000e17          	auipc	x28,0x0
    4101836c:	048e0e13          	addi	x28,x28,72 # 410183b0 <fault_label_111>
    41018370:	03c23023          	sd	x28,32(x4) # 20 <SECURE_ACCESS_PROBABILITY+0x2>
    41018374:	00000e13          	li	x28,0
    41018378:	05c23023          	sd	x28,64(x4) # 40 <XLEN>
    4101837c:	00000e13          	li	x28,0
    41018380:	05c23423          	sd	x28,72(x4) # 48 <XLEN+0x8>
    41018384:	00000e17          	auipc	x28,0x0
    41018388:	044e0e13          	addi	x28,x28,68 # 410183c8 <excp_return_label_111>
    4101838c:	03c23823          	sd	x28,48(x4) # 30 <SECURE_ACCESS_PROBABILITY+0x12>
    41018390:	00000e13          	li	x28,0
    41018394:	03c23c23          	sd	x28,56(x4) # 38 <SECURE_ACCESS_PROBABILITY+0x1a>
    41018398:	00000e13          	li	x28,0
    4101839c:	07c23023          	sd	x28,96(x4) # 60 <XLEN+0x20>
    410183a0:	00000e13          	li	x28,0
    410183a4:	07c23423          	sd	x28,104(x4) # 68 <XLEN+0x28>
    410183a8:	00000e13          	li	x28,0
    410183ac:	07c23823          	sd	x28,112(x4) # 70 <XLEN+0x30>

00000000410183b0 <fault_label_111>:
    410183b0:	c08023f3          	csrr	x7,hpmcounter8
    410183b4:	00038693          	mv	x13,x7
    410183b8:	069ce937          	lui	x18,0x69ce
    410183bc:	0089091b          	addiw	x18,x18,8 # 69ce008 <failed_addr>
    410183c0:	00093683          	ld	x13,0(x18)
    410183c4:	00068067          	jr	x13

00000000410183c8 <excp_return_label_111>:
    410183c8:	40a44237          	lui	x4,0x40a44
    410183cc:	01600e13          	li	x28,22
    410183d0:	05c23823          	sd	x28,80(x4) # 40a44050 <check_excp_expected_cause>
    410183d4:	00000e17          	auipc	x28,0x0
    410183d8:	048e0e13          	addi	x28,x28,72 # 4101841c <fault_label_112>
    410183dc:	03c23023          	sd	x28,32(x4) # 20 <SECURE_ACCESS_PROBABILITY+0x2>
    410183e0:	00000e13          	li	x28,0
    410183e4:	05c23023          	sd	x28,64(x4) # 40 <XLEN>
    410183e8:	00000e13          	li	x28,0
    410183ec:	05c23423          	sd	x28,72(x4) # 48 <XLEN+0x8>
    410183f0:	00000e17          	auipc	x28,0x0
    410183f4:	044e0e13          	addi	x28,x28,68 # 41018434 <excp_return_label_112>
    410183f8:	03c23823          	sd	x28,48(x4) # 30 <SECURE_ACCESS_PROBABILITY+0x12>
    410183fc:	00000e13          	li	x28,0
    41018400:	03c23c23          	sd	x28,56(x4) # 38 <SECURE_ACCESS_PROBABILITY+0x1a>
    41018404:	00000e13          	li	x28,0
    41018408:	07c23023          	sd	x28,96(x4) # 60 <XLEN+0x20>
    4101840c:	00000e13          	li	x28,0
    41018410:	07c23423          	sd	x28,104(x4) # 68 <XLEN+0x28>
    41018414:	00000e13          	li	x28,0
    41018418:	07c23823          	sd	x28,112(x4) # 70 <XLEN+0x30>

000000004101841c <fault_label_112>:
    4101841c:	c09023f3          	csrr	x7,hpmcounter9
    41018420:	00038793          	mv	x15,x7
    41018424:	069ce6b7          	lui	x13,0x69ce
    41018428:	0086869b          	addiw	x13,x13,8 # 69ce008 <failed_addr>
    4101842c:	0006b903          	ld	x18,0(x13)
    41018430:	00090067          	jr	x18

0000000041018434 <excp_return_label_112>:
    41018434:	40a44237          	lui	x4,0x40a44
    41018438:	01600e13          	li	x28,22
    4101843c:	05c23823          	sd	x28,80(x4) # 40a44050 <check_excp_expected_cause>
    41018440:	00000e17          	auipc	x28,0x0
    41018444:	048e0e13          	addi	x28,x28,72 # 41018488 <fault_label_113>
    41018448:	03c23023          	sd	x28,32(x4) # 20 <SECURE_ACCESS_PROBABILITY+0x2>
    4101844c:	00000e13          	li	x28,0
    41018450:	05c23023          	sd	x28,64(x4) # 40 <XLEN>
    41018454:	00000e13          	li	x28,0
    41018458:	05c23423          	sd	x28,72(x4) # 48 <XLEN+0x8>
    4101845c:	00000e17          	auipc	x28,0x0
    41018460:	044e0e13          	addi	x28,x28,68 # 410184a0 <excp_return_label_113>
    41018464:	03c23823          	sd	x28,48(x4) # 30 <SECURE_ACCESS_PROBABILITY+0x12>
    41018468:	00000e13          	li	x28,0
    4101846c:	03c23c23          	sd	x28,56(x4) # 38 <SECURE_ACCESS_PROBABILITY+0x1a>
    41018470:	00000e13          	li	x28,0
    41018474:	07c23023          	sd	x28,96(x4) # 60 <XLEN+0x20>
    41018478:	00000e13          	li	x28,0
    4101847c:	07c23423          	sd	x28,104(x4) # 68 <XLEN+0x28>
    41018480:	00000e13          	li	x28,0
    41018484:	07c23823          	sd	x28,112(x4) # 70 <XLEN+0x30>

0000000041018488 <fault_label_113>:
    41018488:	c0a023f3          	csrr	x7,hpmcounter10
    4101848c:	00038493          	mv	x9,x7
    41018490:	069ced37          	lui	x26,0x69ce
    41018494:	008d0d1b          	addiw	x26,x26,8 # 69ce008 <failed_addr>
    41018498:	000d3b03          	ld	x22,0(x26)
    4101849c:	000b0067          	jr	x22

00000000410184a0 <excp_return_label_113>:
    410184a0:	40a44237          	lui	x4,0x40a44
    410184a4:	01600e13          	li	x28,22
    410184a8:	05c23823          	sd	x28,80(x4) # 40a44050 <check_excp_expected_cause>
    410184ac:	00000e17          	auipc	x28,0x0
    410184b0:	048e0e13          	addi	x28,x28,72 # 410184f4 <fault_label_114>
    410184b4:	03c23023          	sd	x28,32(x4) # 20 <SECURE_ACCESS_PROBABILITY+0x2>
    410184b8:	00000e13          	li	x28,0
    410184bc:	05c23023          	sd	x28,64(x4) # 40 <XLEN>
    410184c0:	00000e13          	li	x28,0
    410184c4:	05c23423          	sd	x28,72(x4) # 48 <XLEN+0x8>
    410184c8:	00000e17          	auipc	x28,0x0
    410184cc:	044e0e13          	addi	x28,x28,68 # 4101850c <excp_return_label_114>
    410184d0:	03c23823          	sd	x28,48(x4) # 30 <SECURE_ACCESS_PROBABILITY+0x12>
    410184d4:	00000e13          	li	x28,0
    410184d8:	03c23c23          	sd	x28,56(x4) # 38 <SECURE_ACCESS_PROBABILITY+0x1a>
    410184dc:	00000e13          	li	x28,0
    410184e0:	07c23023          	sd	x28,96(x4) # 60 <XLEN+0x20>
    410184e4:	00000e13          	li	x28,0
    410184e8:	07c23423          	sd	x28,104(x4) # 68 <XLEN+0x28>
    410184ec:	00000e13          	li	x28,0
    410184f0:	07c23823          	sd	x28,112(x4) # 70 <XLEN+0x30>

00000000410184f4 <fault_label_114>:
    410184f4:	c0b023f3          	csrr	x7,hpmcounter11
    410184f8:	00038993          	mv	x19,x7
    410184fc:	069cee37          	lui	x28,0x69ce
    41018500:	008e0e1b          	addiw	x28,x28,8 # 69ce008 <failed_addr>
    41018504:	000e3e03          	ld	x28,0(x28)
    41018508:	000e0067          	jr	x28

000000004101850c <excp_return_label_114>:
    4101850c:	40a44237          	lui	x4,0x40a44
    41018510:	01600e13          	li	x28,22
    41018514:	05c23823          	sd	x28,80(x4) # 40a44050 <check_excp_expected_cause>
    41018518:	00000e17          	auipc	x28,0x0
    4101851c:	048e0e13          	addi	x28,x28,72 # 41018560 <fault_label_115>
    41018520:	03c23023          	sd	x28,32(x4) # 20 <SECURE_ACCESS_PROBABILITY+0x2>
    41018524:	00000e13          	li	x28,0
    41018528:	05c23023          	sd	x28,64(x4) # 40 <XLEN>
    4101852c:	00000e13          	li	x28,0
    41018530:	05c23423          	sd	x28,72(x4) # 48 <XLEN+0x8>
    41018534:	00000e17          	auipc	x28,0x0
    41018538:	044e0e13          	addi	x28,x28,68 # 41018578 <excp_return_label_115>
    4101853c:	03c23823          	sd	x28,48(x4) # 30 <SECURE_ACCESS_PROBABILITY+0x12>
    41018540:	00000e13          	li	x28,0
    41018544:	03c23c23          	sd	x28,56(x4) # 38 <SECURE_ACCESS_PROBABILITY+0x1a>
    41018548:	00000e13          	li	x28,0
    4101854c:	07c23023          	sd	x28,96(x4) # 60 <XLEN+0x20>
    41018550:	00000e13          	li	x28,0
    41018554:	07c23423          	sd	x28,104(x4) # 68 <XLEN+0x28>
    41018558:	00000e13          	li	x28,0
    4101855c:	07c23823          	sd	x28,112(x4) # 70 <XLEN+0x30>

0000000041018560 <fault_label_115>:
    41018560:	c0c023f3          	csrr	x7,hpmcounter12
    41018564:	00038713          	mv	x14,x7
    41018568:	069cec37          	lui	x24,0x69ce
    4101856c:	008c0c1b          	addiw	x24,x24,8 # 69ce008 <failed_addr>
    41018570:	000c3783          	ld	x15,0(x24)
    41018574:	00078067          	jr	x15

0000000041018578 <excp_return_label_115>:
    41018578:	40a44237          	lui	x4,0x40a44
    4101857c:	01600e13          	li	x28,22
    41018580:	05c23823          	sd	x28,80(x4) # 40a44050 <check_excp_expected_cause>
    41018584:	00000e17          	auipc	x28,0x0
    41018588:	048e0e13          	addi	x28,x28,72 # 410185cc <fault_label_116>
    4101858c:	03c23023          	sd	x28,32(x4) # 20 <SECURE_ACCESS_PROBABILITY+0x2>
    41018590:	00000e13          	li	x28,0
    41018594:	05c23023          	sd	x28,64(x4) # 40 <XLEN>
    41018598:	00000e13          	li	x28,0
    4101859c:	05c23423          	sd	x28,72(x4) # 48 <XLEN+0x8>
    410185a0:	00000e17          	auipc	x28,0x0
    410185a4:	044e0e13          	addi	x28,x28,68 # 410185e4 <excp_return_label_116>
    410185a8:	03c23823          	sd	x28,48(x4) # 30 <SECURE_ACCESS_PROBABILITY+0x12>
    410185ac:	00000e13          	li	x28,0
    410185b0:	03c23c23          	sd	x28,56(x4) # 38 <SECURE_ACCESS_PROBABILITY+0x1a>
    410185b4:	00000e13          	li	x28,0
    410185b8:	07c23023          	sd	x28,96(x4) # 60 <XLEN+0x20>
    410185bc:	00000e13          	li	x28,0
    410185c0:	07c23423          	sd	x28,104(x4) # 68 <XLEN+0x28>
    410185c4:	00000e13          	li	x28,0
    410185c8:	07c23823          	sd	x28,112(x4) # 70 <XLEN+0x30>

00000000410185cc <fault_label_116>:
    410185cc:	c0d023f3          	csrr	x7,hpmcounter13
    410185d0:	00038913          	mv	x18,x7
    410185d4:	069ce6b7          	lui	x13,0x69ce
    410185d8:	0086869b          	addiw	x13,x13,8 # 69ce008 <failed_addr>
    410185dc:	0006b383          	ld	x7,0(x13)
    410185e0:	00038067          	jr	x7

00000000410185e4 <excp_return_label_116>:
    410185e4:	40a44237          	lui	x4,0x40a44
    410185e8:	01600e13          	li	x28,22
    410185ec:	05c23823          	sd	x28,80(x4) # 40a44050 <check_excp_expected_cause>
    410185f0:	00000e17          	auipc	x28,0x0
    410185f4:	048e0e13          	addi	x28,x28,72 # 41018638 <fault_label_117>
    410185f8:	03c23023          	sd	x28,32(x4) # 20 <SECURE_ACCESS_PROBABILITY+0x2>
    410185fc:	00000e13          	li	x28,0
    41018600:	05c23023          	sd	x28,64(x4) # 40 <XLEN>
    41018604:	00000e13          	li	x28,0
    41018608:	05c23423          	sd	x28,72(x4) # 48 <XLEN+0x8>
    4101860c:	00000e17          	auipc	x28,0x0
    41018610:	044e0e13          	addi	x28,x28,68 # 41018650 <excp_return_label_117>
    41018614:	03c23823          	sd	x28,48(x4) # 30 <SECURE_ACCESS_PROBABILITY+0x12>
    41018618:	00000e13          	li	x28,0
    4101861c:	03c23c23          	sd	x28,56(x4) # 38 <SECURE_ACCESS_PROBABILITY+0x1a>
    41018620:	00000e13          	li	x28,0
    41018624:	07c23023          	sd	x28,96(x4) # 60 <XLEN+0x20>
    41018628:	00000e13          	li	x28,0
    4101862c:	07c23423          	sd	x28,104(x4) # 68 <XLEN+0x28>
    41018630:	00000e13          	li	x28,0
    41018634:	07c23823          	sd	x28,112(x4) # 70 <XLEN+0x30>

0000000041018638 <fault_label_117>:
    41018638:	c0e023f3          	csrr	x7,hpmcounter14
    4101863c:	00038913          	mv	x18,x7
    41018640:	069ce937          	lui	x18,0x69ce
    41018644:	0089091b          	addiw	x18,x18,8 # 69ce008 <failed_addr>
    41018648:	00093303          	ld	x6,0(x18)
    4101864c:	00030067          	jr	x6

0000000041018650 <excp_return_label_117>:
    41018650:	40a44237          	lui	x4,0x40a44
    41018654:	01600e13          	li	x28,22
    41018658:	05c23823          	sd	x28,80(x4) # 40a44050 <check_excp_expected_cause>
    4101865c:	00000e17          	auipc	x28,0x0
    41018660:	048e0e13          	addi	x28,x28,72 # 410186a4 <fault_label_118>
    41018664:	03c23023          	sd	x28,32(x4) # 20 <SECURE_ACCESS_PROBABILITY+0x2>
    41018668:	00000e13          	li	x28,0
    4101866c:	05c23023          	sd	x28,64(x4) # 40 <XLEN>
    41018670:	00000e13          	li	x28,0
    41018674:	05c23423          	sd	x28,72(x4) # 48 <XLEN+0x8>
    41018678:	00000e17          	auipc	x28,0x0
    4101867c:	044e0e13          	addi	x28,x28,68 # 410186bc <excp_return_label_118>
    41018680:	03c23823          	sd	x28,48(x4) # 30 <SECURE_ACCESS_PROBABILITY+0x12>
    41018684:	00000e13          	li	x28,0
    41018688:	03c23c23          	sd	x28,56(x4) # 38 <SECURE_ACCESS_PROBABILITY+0x1a>
    4101868c:	00000e13          	li	x28,0
    41018690:	07c23023          	sd	x28,96(x4) # 60 <XLEN+0x20>
    41018694:	00000e13          	li	x28,0
    41018698:	07c23423          	sd	x28,104(x4) # 68 <XLEN+0x28>
    4101869c:	00000e13          	li	x28,0
    410186a0:	07c23823          	sd	x28,112(x4) # 70 <XLEN+0x30>

00000000410186a4 <fault_label_118>:
    410186a4:	c0f023f3          	csrr	x7,hpmcounter15
    410186a8:	00038d13          	mv	x26,x7
    410186ac:	069ce6b7          	lui	x13,0x69ce
    410186b0:	0086869b          	addiw	x13,x13,8 # 69ce008 <failed_addr>
    410186b4:	0006b583          	ld	x11,0(x13)
    410186b8:	00058067          	jr	x11

00000000410186bc <excp_return_label_118>:
    410186bc:	40a44237          	lui	x4,0x40a44
    410186c0:	01600e13          	li	x28,22
    410186c4:	05c23823          	sd	x28,80(x4) # 40a44050 <check_excp_expected_cause>
    410186c8:	00000e17          	auipc	x28,0x0
    410186cc:	048e0e13          	addi	x28,x28,72 # 41018710 <fault_label_119>
    410186d0:	03c23023          	sd	x28,32(x4) # 20 <SECURE_ACCESS_PROBABILITY+0x2>
    410186d4:	00000e13          	li	x28,0
    410186d8:	05c23023          	sd	x28,64(x4) # 40 <XLEN>
    410186dc:	00000e13          	li	x28,0
    410186e0:	05c23423          	sd	x28,72(x4) # 48 <XLEN+0x8>
    410186e4:	00000e17          	auipc	x28,0x0
    410186e8:	044e0e13          	addi	x28,x28,68 # 41018728 <excp_return_label_119>
    410186ec:	03c23823          	sd	x28,48(x4) # 30 <SECURE_ACCESS_PROBABILITY+0x12>
    410186f0:	00000e13          	li	x28,0
    410186f4:	03c23c23          	sd	x28,56(x4) # 38 <SECURE_ACCESS_PROBABILITY+0x1a>
    410186f8:	00000e13          	li	x28,0
    410186fc:	07c23023          	sd	x28,96(x4) # 60 <XLEN+0x20>
    41018700:	00000e13          	li	x28,0
    41018704:	07c23423          	sd	x28,104(x4) # 68 <XLEN+0x28>
    41018708:	00000e13          	li	x28,0
    4101870c:	07c23823          	sd	x28,112(x4) # 70 <XLEN+0x30>

0000000041018710 <fault_label_119>:
    41018710:	c10023f3          	csrr	x7,hpmcounter16
    41018714:	00038f13          	mv	x30,x7
    41018718:	069ceab7          	lui	x21,0x69ce
    4101871c:	008a8a9b          	addiw	x21,x21,8 # 69ce008 <failed_addr>
    41018720:	000abf83          	ld	x31,0(x21)
    41018724:	000f8067          	jr	x31

0000000041018728 <excp_return_label_119>:
    41018728:	40a44237          	lui	x4,0x40a44
    4101872c:	01600e13          	li	x28,22
    41018730:	05c23823          	sd	x28,80(x4) # 40a44050 <check_excp_expected_cause>
    41018734:	00000e17          	auipc	x28,0x0
    41018738:	048e0e13          	addi	x28,x28,72 # 4101877c <fault_label_120>
    4101873c:	03c23023          	sd	x28,32(x4) # 20 <SECURE_ACCESS_PROBABILITY+0x2>
    41018740:	00000e13          	li	x28,0
    41018744:	05c23023          	sd	x28,64(x4) # 40 <XLEN>
    41018748:	00000e13          	li	x28,0
    4101874c:	05c23423          	sd	x28,72(x4) # 48 <XLEN+0x8>
    41018750:	00000e17          	auipc	x28,0x0
    41018754:	044e0e13          	addi	x28,x28,68 # 41018794 <excp_return_label_120>
    41018758:	03c23823          	sd	x28,48(x4) # 30 <SECURE_ACCESS_PROBABILITY+0x12>
    4101875c:	00000e13          	li	x28,0
    41018760:	03c23c23          	sd	x28,56(x4) # 38 <SECURE_ACCESS_PROBABILITY+0x1a>
    41018764:	00000e13          	li	x28,0
    41018768:	07c23023          	sd	x28,96(x4) # 60 <XLEN+0x20>
    4101876c:	00000e13          	li	x28,0
    41018770:	07c23423          	sd	x28,104(x4) # 68 <XLEN+0x28>
    41018774:	00000e13          	li	x28,0
    41018778:	07c23823          	sd	x28,112(x4) # 70 <XLEN+0x30>

000000004101877c <fault_label_120>:
    4101877c:	c11023f3          	csrr	x7,hpmcounter17
    41018780:	00038c13          	mv	x24,x7
    41018784:	069ce6b7          	lui	x13,0x69ce
    41018788:	0086869b          	addiw	x13,x13,8 # 69ce008 <failed_addr>
    4101878c:	0006bb83          	ld	x23,0(x13)
    41018790:	000b8067          	jr	x23

0000000041018794 <excp_return_label_120>:
    41018794:	40a44237          	lui	x4,0x40a44
    41018798:	01600e13          	li	x28,22
    4101879c:	05c23823          	sd	x28,80(x4) # 40a44050 <check_excp_expected_cause>
    410187a0:	00000e17          	auipc	x28,0x0
    410187a4:	048e0e13          	addi	x28,x28,72 # 410187e8 <fault_label_121>
    410187a8:	03c23023          	sd	x28,32(x4) # 20 <SECURE_ACCESS_PROBABILITY+0x2>
    410187ac:	00000e13          	li	x28,0
    410187b0:	05c23023          	sd	x28,64(x4) # 40 <XLEN>
    410187b4:	00000e13          	li	x28,0
    410187b8:	05c23423          	sd	x28,72(x4) # 48 <XLEN+0x8>
    410187bc:	00000e17          	auipc	x28,0x0
    410187c0:	044e0e13          	addi	x28,x28,68 # 41018800 <excp_return_label_121>
    410187c4:	03c23823          	sd	x28,48(x4) # 30 <SECURE_ACCESS_PROBABILITY+0x12>
    410187c8:	00000e13          	li	x28,0
    410187cc:	03c23c23          	sd	x28,56(x4) # 38 <SECURE_ACCESS_PROBABILITY+0x1a>
    410187d0:	00000e13          	li	x28,0
    410187d4:	07c23023          	sd	x28,96(x4) # 60 <XLEN+0x20>
    410187d8:	00000e13          	li	x28,0
    410187dc:	07c23423          	sd	x28,104(x4) # 68 <XLEN+0x28>
    410187e0:	00000e13          	li	x28,0
    410187e4:	07c23823          	sd	x28,112(x4) # 70 <XLEN+0x30>

00000000410187e8 <fault_label_121>:
    410187e8:	c12023f3          	csrr	x7,hpmcounter18
    410187ec:	00038d13          	mv	x26,x7
    410187f0:	069ce737          	lui	x14,0x69ce
    410187f4:	0087071b          	addiw	x14,x14,8 # 69ce008 <failed_addr>
    410187f8:	00073b83          	ld	x23,0(x14)
    410187fc:	000b8067          	jr	x23

0000000041018800 <excp_return_label_121>:
    41018800:	40a44237          	lui	x4,0x40a44
    41018804:	01600e13          	li	x28,22
    41018808:	05c23823          	sd	x28,80(x4) # 40a44050 <check_excp_expected_cause>
    4101880c:	00000e17          	auipc	x28,0x0
    41018810:	048e0e13          	addi	x28,x28,72 # 41018854 <fault_label_122>
    41018814:	03c23023          	sd	x28,32(x4) # 20 <SECURE_ACCESS_PROBABILITY+0x2>
    41018818:	00000e13          	li	x28,0
    4101881c:	05c23023          	sd	x28,64(x4) # 40 <XLEN>
    41018820:	00000e13          	li	x28,0
    41018824:	05c23423          	sd	x28,72(x4) # 48 <XLEN+0x8>
    41018828:	00000e17          	auipc	x28,0x0
    4101882c:	044e0e13          	addi	x28,x28,68 # 4101886c <excp_return_label_122>
    41018830:	03c23823          	sd	x28,48(x4) # 30 <SECURE_ACCESS_PROBABILITY+0x12>
    41018834:	00000e13          	li	x28,0
    41018838:	03c23c23          	sd	x28,56(x4) # 38 <SECURE_ACCESS_PROBABILITY+0x1a>
    4101883c:	00000e13          	li	x28,0
    41018840:	07c23023          	sd	x28,96(x4) # 60 <XLEN+0x20>
    41018844:	00000e13          	li	x28,0
    41018848:	07c23423          	sd	x28,104(x4) # 68 <XLEN+0x28>
    4101884c:	00000e13          	li	x28,0
    41018850:	07c23823          	sd	x28,112(x4) # 70 <XLEN+0x30>

0000000041018854 <fault_label_122>:
    41018854:	c13023f3          	csrr	x7,hpmcounter19
    41018858:	00038693          	mv	x13,x7
    4101885c:	069ce737          	lui	x14,0x69ce
    41018860:	0087071b          	addiw	x14,x14,8 # 69ce008 <failed_addr>
    41018864:	00073a03          	ld	x20,0(x14)
    41018868:	000a0067          	jr	x20

000000004101886c <excp_return_label_122>:
    4101886c:	40a44237          	lui	x4,0x40a44
    41018870:	01600e13          	li	x28,22
    41018874:	05c23823          	sd	x28,80(x4) # 40a44050 <check_excp_expected_cause>
    41018878:	00000e17          	auipc	x28,0x0
    4101887c:	048e0e13          	addi	x28,x28,72 # 410188c0 <fault_label_123>
    41018880:	03c23023          	sd	x28,32(x4) # 20 <SECURE_ACCESS_PROBABILITY+0x2>
    41018884:	00000e13          	li	x28,0
    41018888:	05c23023          	sd	x28,64(x4) # 40 <XLEN>
    4101888c:	00000e13          	li	x28,0
    41018890:	05c23423          	sd	x28,72(x4) # 48 <XLEN+0x8>
    41018894:	00000e17          	auipc	x28,0x0
    41018898:	044e0e13          	addi	x28,x28,68 # 410188d8 <excp_return_label_123>
    4101889c:	03c23823          	sd	x28,48(x4) # 30 <SECURE_ACCESS_PROBABILITY+0x12>
    410188a0:	00000e13          	li	x28,0
    410188a4:	03c23c23          	sd	x28,56(x4) # 38 <SECURE_ACCESS_PROBABILITY+0x1a>
    410188a8:	00000e13          	li	x28,0
    410188ac:	07c23023          	sd	x28,96(x4) # 60 <XLEN+0x20>
    410188b0:	00000e13          	li	x28,0
    410188b4:	07c23423          	sd	x28,104(x4) # 68 <XLEN+0x28>
    410188b8:	00000e13          	li	x28,0
    410188bc:	07c23823          	sd	x28,112(x4) # 70 <XLEN+0x30>

00000000410188c0 <fault_label_123>:
    410188c0:	c14023f3          	csrr	x7,hpmcounter20
    410188c4:	00038f93          	mv	x31,x7
    410188c8:	069cea37          	lui	x20,0x69ce
    410188cc:	008a0a1b          	addiw	x20,x20,8 # 69ce008 <failed_addr>
    410188d0:	000a3c03          	ld	x24,0(x20)
    410188d4:	000c0067          	jr	x24

00000000410188d8 <excp_return_label_123>:
    410188d8:	40a44237          	lui	x4,0x40a44
    410188dc:	01600e13          	li	x28,22
    410188e0:	05c23823          	sd	x28,80(x4) # 40a44050 <check_excp_expected_cause>
    410188e4:	00000e17          	auipc	x28,0x0
    410188e8:	048e0e13          	addi	x28,x28,72 # 4101892c <fault_label_124>
    410188ec:	03c23023          	sd	x28,32(x4) # 20 <SECURE_ACCESS_PROBABILITY+0x2>
    410188f0:	00000e13          	li	x28,0
    410188f4:	05c23023          	sd	x28,64(x4) # 40 <XLEN>
    410188f8:	00000e13          	li	x28,0
    410188fc:	05c23423          	sd	x28,72(x4) # 48 <XLEN+0x8>
    41018900:	00000e17          	auipc	x28,0x0
    41018904:	044e0e13          	addi	x28,x28,68 # 41018944 <excp_return_label_124>
    41018908:	03c23823          	sd	x28,48(x4) # 30 <SECURE_ACCESS_PROBABILITY+0x12>
    4101890c:	00000e13          	li	x28,0
    41018910:	03c23c23          	sd	x28,56(x4) # 38 <SECURE_ACCESS_PROBABILITY+0x1a>
    41018914:	00000e13          	li	x28,0
    41018918:	07c23023          	sd	x28,96(x4) # 60 <XLEN+0x20>
    4101891c:	00000e13          	li	x28,0
    41018920:	07c23423          	sd	x28,104(x4) # 68 <XLEN+0x28>
    41018924:	00000e13          	li	x28,0
    41018928:	07c23823          	sd	x28,112(x4) # 70 <XLEN+0x30>

000000004101892c <fault_label_124>:
    4101892c:	c15023f3          	csrr	x7,hpmcounter21
    41018930:	00038e93          	mv	x29,x7
    41018934:	069cedb7          	lui	x27,0x69ce
    41018938:	008d8d9b          	addiw	x27,x27,8 # 69ce008 <failed_addr>
    4101893c:	000db903          	ld	x18,0(x27)
    41018940:	00090067          	jr	x18

0000000041018944 <excp_return_label_124>:
    41018944:	40a44237          	lui	x4,0x40a44
    41018948:	01600e13          	li	x28,22
    4101894c:	05c23823          	sd	x28,80(x4) # 40a44050 <check_excp_expected_cause>
    41018950:	00000e17          	auipc	x28,0x0
    41018954:	048e0e13          	addi	x28,x28,72 # 41018998 <fault_label_125>
    41018958:	03c23023          	sd	x28,32(x4) # 20 <SECURE_ACCESS_PROBABILITY+0x2>
    4101895c:	00000e13          	li	x28,0
    41018960:	05c23023          	sd	x28,64(x4) # 40 <XLEN>
    41018964:	00000e13          	li	x28,0
    41018968:	05c23423          	sd	x28,72(x4) # 48 <XLEN+0x8>
    4101896c:	00000e17          	auipc	x28,0x0
    41018970:	044e0e13          	addi	x28,x28,68 # 410189b0 <excp_return_label_125>
    41018974:	03c23823          	sd	x28,48(x4) # 30 <SECURE_ACCESS_PROBABILITY+0x12>
    41018978:	00000e13          	li	x28,0
    4101897c:	03c23c23          	sd	x28,56(x4) # 38 <SECURE_ACCESS_PROBABILITY+0x1a>
    41018980:	00000e13          	li	x28,0
    41018984:	07c23023          	sd	x28,96(x4) # 60 <XLEN+0x20>
    41018988:	00000e13          	li	x28,0
    4101898c:	07c23423          	sd	x28,104(x4) # 68 <XLEN+0x28>
    41018990:	00000e13          	li	x28,0
    41018994:	07c23823          	sd	x28,112(x4) # 70 <XLEN+0x30>

0000000041018998 <fault_label_125>:
    41018998:	c16023f3          	csrr	x7,hpmcounter22
    4101899c:	00038813          	mv	x16,x7
    410189a0:	069ce737          	lui	x14,0x69ce
    410189a4:	0087071b          	addiw	x14,x14,8 # 69ce008 <failed_addr>
    410189a8:	00073c83          	ld	x25,0(x14)
    410189ac:	000c8067          	jr	x25

00000000410189b0 <excp_return_label_125>:
    410189b0:	40a44237          	lui	x4,0x40a44
    410189b4:	01600e13          	li	x28,22
    410189b8:	05c23823          	sd	x28,80(x4) # 40a44050 <check_excp_expected_cause>
    410189bc:	00000e17          	auipc	x28,0x0
    410189c0:	048e0e13          	addi	x28,x28,72 # 41018a04 <fault_label_126>
    410189c4:	03c23023          	sd	x28,32(x4) # 20 <SECURE_ACCESS_PROBABILITY+0x2>
    410189c8:	00000e13          	li	x28,0
    410189cc:	05c23023          	sd	x28,64(x4) # 40 <XLEN>
    410189d0:	00000e13          	li	x28,0
    410189d4:	05c23423          	sd	x28,72(x4) # 48 <XLEN+0x8>
    410189d8:	00000e17          	auipc	x28,0x0
    410189dc:	044e0e13          	addi	x28,x28,68 # 41018a1c <excp_return_label_126>
    410189e0:	03c23823          	sd	x28,48(x4) # 30 <SECURE_ACCESS_PROBABILITY+0x12>
    410189e4:	00000e13          	li	x28,0
    410189e8:	03c23c23          	sd	x28,56(x4) # 38 <SECURE_ACCESS_PROBABILITY+0x1a>
    410189ec:	00000e13          	li	x28,0
    410189f0:	07c23023          	sd	x28,96(x4) # 60 <XLEN+0x20>
    410189f4:	00000e13          	li	x28,0
    410189f8:	07c23423          	sd	x28,104(x4) # 68 <XLEN+0x28>
    410189fc:	00000e13          	li	x28,0
    41018a00:	07c23823          	sd	x28,112(x4) # 70 <XLEN+0x30>

0000000041018a04 <fault_label_126>:
    41018a04:	c17023f3          	csrr	x7,hpmcounter23
    41018a08:	00038393          	mv	x7,x7
    41018a0c:	069ced37          	lui	x26,0x69ce
    41018a10:	008d0d1b          	addiw	x26,x26,8 # 69ce008 <failed_addr>
    41018a14:	000d3503          	ld	x10,0(x26)
    41018a18:	00050067          	jr	x10

0000000041018a1c <excp_return_label_126>:
    41018a1c:	40a44237          	lui	x4,0x40a44
    41018a20:	01600e13          	li	x28,22
    41018a24:	05c23823          	sd	x28,80(x4) # 40a44050 <check_excp_expected_cause>
    41018a28:	00000e17          	auipc	x28,0x0
    41018a2c:	048e0e13          	addi	x28,x28,72 # 41018a70 <fault_label_127>
    41018a30:	03c23023          	sd	x28,32(x4) # 20 <SECURE_ACCESS_PROBABILITY+0x2>
    41018a34:	00000e13          	li	x28,0
    41018a38:	05c23023          	sd	x28,64(x4) # 40 <XLEN>
    41018a3c:	00000e13          	li	x28,0
    41018a40:	05c23423          	sd	x28,72(x4) # 48 <XLEN+0x8>
    41018a44:	00000e17          	auipc	x28,0x0
    41018a48:	044e0e13          	addi	x28,x28,68 # 41018a88 <excp_return_label_127>
    41018a4c:	03c23823          	sd	x28,48(x4) # 30 <SECURE_ACCESS_PROBABILITY+0x12>
    41018a50:	00000e13          	li	x28,0
    41018a54:	03c23c23          	sd	x28,56(x4) # 38 <SECURE_ACCESS_PROBABILITY+0x1a>
    41018a58:	00000e13          	li	x28,0
    41018a5c:	07c23023          	sd	x28,96(x4) # 60 <XLEN+0x20>
    41018a60:	00000e13          	li	x28,0
    41018a64:	07c23423          	sd	x28,104(x4) # 68 <XLEN+0x28>
    41018a68:	00000e13          	li	x28,0
    41018a6c:	07c23823          	sd	x28,112(x4) # 70 <XLEN+0x30>

0000000041018a70 <fault_label_127>:
    41018a70:	c18023f3          	csrr	x7,hpmcounter24
    41018a74:	00038393          	mv	x7,x7
    41018a78:	069ce637          	lui	x12,0x69ce
    41018a7c:	0086061b          	addiw	x12,x12,8 # 69ce008 <failed_addr>
    41018a80:	00063c83          	ld	x25,0(x12)
    41018a84:	000c8067          	jr	x25

0000000041018a88 <excp_return_label_127>:
    41018a88:	40a44237          	lui	x4,0x40a44
    41018a8c:	01600e13          	li	x28,22
    41018a90:	05c23823          	sd	x28,80(x4) # 40a44050 <check_excp_expected_cause>
    41018a94:	00000e17          	auipc	x28,0x0
    41018a98:	048e0e13          	addi	x28,x28,72 # 41018adc <fault_label_128>
    41018a9c:	03c23023          	sd	x28,32(x4) # 20 <SECURE_ACCESS_PROBABILITY+0x2>
    41018aa0:	00000e13          	li	x28,0
    41018aa4:	05c23023          	sd	x28,64(x4) # 40 <XLEN>
    41018aa8:	00000e13          	li	x28,0
    41018aac:	05c23423          	sd	x28,72(x4) # 48 <XLEN+0x8>
    41018ab0:	00000e17          	auipc	x28,0x0
    41018ab4:	044e0e13          	addi	x28,x28,68 # 41018af4 <excp_return_label_128>
    41018ab8:	03c23823          	sd	x28,48(x4) # 30 <SECURE_ACCESS_PROBABILITY+0x12>
    41018abc:	00000e13          	li	x28,0
    41018ac0:	03c23c23          	sd	x28,56(x4) # 38 <SECURE_ACCESS_PROBABILITY+0x1a>
    41018ac4:	00000e13          	li	x28,0
    41018ac8:	07c23023          	sd	x28,96(x4) # 60 <XLEN+0x20>
    41018acc:	00000e13          	li	x28,0
    41018ad0:	07c23423          	sd	x28,104(x4) # 68 <XLEN+0x28>
    41018ad4:	00000e13          	li	x28,0
    41018ad8:	07c23823          	sd	x28,112(x4) # 70 <XLEN+0x30>

0000000041018adc <fault_label_128>:
    41018adc:	c19023f3          	csrr	x7,hpmcounter25
    41018ae0:	00038393          	mv	x7,x7
    41018ae4:	069ce737          	lui	x14,0x69ce
    41018ae8:	0087071b          	addiw	x14,x14,8 # 69ce008 <failed_addr>
    41018aec:	00073883          	ld	x17,0(x14)
    41018af0:	00088067          	jr	x17

0000000041018af4 <excp_return_label_128>:
    41018af4:	40a44237          	lui	x4,0x40a44
    41018af8:	01600e13          	li	x28,22
    41018afc:	05c23823          	sd	x28,80(x4) # 40a44050 <check_excp_expected_cause>
    41018b00:	00000e17          	auipc	x28,0x0
    41018b04:	048e0e13          	addi	x28,x28,72 # 41018b48 <fault_label_129>
    41018b08:	03c23023          	sd	x28,32(x4) # 20 <SECURE_ACCESS_PROBABILITY+0x2>
    41018b0c:	00000e13          	li	x28,0
    41018b10:	05c23023          	sd	x28,64(x4) # 40 <XLEN>
    41018b14:	00000e13          	li	x28,0
    41018b18:	05c23423          	sd	x28,72(x4) # 48 <XLEN+0x8>
    41018b1c:	00000e17          	auipc	x28,0x0
    41018b20:	044e0e13          	addi	x28,x28,68 # 41018b60 <excp_return_label_129>
    41018b24:	03c23823          	sd	x28,48(x4) # 30 <SECURE_ACCESS_PROBABILITY+0x12>
    41018b28:	00000e13          	li	x28,0
    41018b2c:	03c23c23          	sd	x28,56(x4) # 38 <SECURE_ACCESS_PROBABILITY+0x1a>
    41018b30:	00000e13          	li	x28,0
    41018b34:	07c23023          	sd	x28,96(x4) # 60 <XLEN+0x20>
    41018b38:	00000e13          	li	x28,0
    41018b3c:	07c23423          	sd	x28,104(x4) # 68 <XLEN+0x28>
    41018b40:	00000e13          	li	x28,0
    41018b44:	07c23823          	sd	x28,112(x4) # 70 <XLEN+0x30>

0000000041018b48 <fault_label_129>:
    41018b48:	c1a023f3          	csrr	x7,hpmcounter26
    41018b4c:	00038e13          	mv	x28,x7
    41018b50:	069cebb7          	lui	x23,0x69ce
    41018b54:	008b8b9b          	addiw	x23,x23,8 # 69ce008 <failed_addr>
    41018b58:	000bbc03          	ld	x24,0(x23)
    41018b5c:	000c0067          	jr	x24

0000000041018b60 <excp_return_label_129>:
    41018b60:	40a44237          	lui	x4,0x40a44
    41018b64:	01600e13          	li	x28,22
    41018b68:	05c23823          	sd	x28,80(x4) # 40a44050 <check_excp_expected_cause>
    41018b6c:	00000e17          	auipc	x28,0x0
    41018b70:	048e0e13          	addi	x28,x28,72 # 41018bb4 <fault_label_130>
    41018b74:	03c23023          	sd	x28,32(x4) # 20 <SECURE_ACCESS_PROBABILITY+0x2>
    41018b78:	00000e13          	li	x28,0
    41018b7c:	05c23023          	sd	x28,64(x4) # 40 <XLEN>
    41018b80:	00000e13          	li	x28,0
    41018b84:	05c23423          	sd	x28,72(x4) # 48 <XLEN+0x8>
    41018b88:	00000e17          	auipc	x28,0x0
    41018b8c:	044e0e13          	addi	x28,x28,68 # 41018bcc <excp_return_label_130>
    41018b90:	03c23823          	sd	x28,48(x4) # 30 <SECURE_ACCESS_PROBABILITY+0x12>
    41018b94:	00000e13          	li	x28,0
    41018b98:	03c23c23          	sd	x28,56(x4) # 38 <SECURE_ACCESS_PROBABILITY+0x1a>
    41018b9c:	00000e13          	li	x28,0
    41018ba0:	07c23023          	sd	x28,96(x4) # 60 <XLEN+0x20>
    41018ba4:	00000e13          	li	x28,0
    41018ba8:	07c23423          	sd	x28,104(x4) # 68 <XLEN+0x28>
    41018bac:	00000e13          	li	x28,0
    41018bb0:	07c23823          	sd	x28,112(x4) # 70 <XLEN+0x30>

0000000041018bb4 <fault_label_130>:
    41018bb4:	c1b023f3          	csrr	x7,hpmcounter27
    41018bb8:	00038f13          	mv	x30,x7
    41018bbc:	069cebb7          	lui	x23,0x69ce
    41018bc0:	008b8b9b          	addiw	x23,x23,8 # 69ce008 <failed_addr>
    41018bc4:	000bbe03          	ld	x28,0(x23)
    41018bc8:	000e0067          	jr	x28

0000000041018bcc <excp_return_label_130>:
    41018bcc:	40a44237          	lui	x4,0x40a44
    41018bd0:	01600e13          	li	x28,22
    41018bd4:	05c23823          	sd	x28,80(x4) # 40a44050 <check_excp_expected_cause>
    41018bd8:	00000e17          	auipc	x28,0x0
    41018bdc:	048e0e13          	addi	x28,x28,72 # 41018c20 <fault_label_131>
    41018be0:	03c23023          	sd	x28,32(x4) # 20 <SECURE_ACCESS_PROBABILITY+0x2>
    41018be4:	00000e13          	li	x28,0
    41018be8:	05c23023          	sd	x28,64(x4) # 40 <XLEN>
    41018bec:	00000e13          	li	x28,0
    41018bf0:	05c23423          	sd	x28,72(x4) # 48 <XLEN+0x8>
    41018bf4:	00000e17          	auipc	x28,0x0
    41018bf8:	044e0e13          	addi	x28,x28,68 # 41018c38 <excp_return_label_131>
    41018bfc:	03c23823          	sd	x28,48(x4) # 30 <SECURE_ACCESS_PROBABILITY+0x12>
    41018c00:	00000e13          	li	x28,0
    41018c04:	03c23c23          	sd	x28,56(x4) # 38 <SECURE_ACCESS_PROBABILITY+0x1a>
    41018c08:	00000e13          	li	x28,0
    41018c0c:	07c23023          	sd	x28,96(x4) # 60 <XLEN+0x20>
    41018c10:	00000e13          	li	x28,0
    41018c14:	07c23423          	sd	x28,104(x4) # 68 <XLEN+0x28>
    41018c18:	00000e13          	li	x28,0
    41018c1c:	07c23823          	sd	x28,112(x4) # 70 <XLEN+0x30>

0000000041018c20 <fault_label_131>:
    41018c20:	c1c023f3          	csrr	x7,hpmcounter28
    41018c24:	00038c13          	mv	x24,x7
    41018c28:	069cea37          	lui	x20,0x69ce
    41018c2c:	008a0a1b          	addiw	x20,x20,8 # 69ce008 <failed_addr>
    41018c30:	000a3d03          	ld	x26,0(x20)
    41018c34:	000d0067          	jr	x26

0000000041018c38 <excp_return_label_131>:
    41018c38:	40a44237          	lui	x4,0x40a44
    41018c3c:	01600e13          	li	x28,22
    41018c40:	05c23823          	sd	x28,80(x4) # 40a44050 <check_excp_expected_cause>
    41018c44:	00000e17          	auipc	x28,0x0
    41018c48:	048e0e13          	addi	x28,x28,72 # 41018c8c <fault_label_132>
    41018c4c:	03c23023          	sd	x28,32(x4) # 20 <SECURE_ACCESS_PROBABILITY+0x2>
    41018c50:	00000e13          	li	x28,0
    41018c54:	05c23023          	sd	x28,64(x4) # 40 <XLEN>
    41018c58:	00000e13          	li	x28,0
    41018c5c:	05c23423          	sd	x28,72(x4) # 48 <XLEN+0x8>
    41018c60:	00000e17          	auipc	x28,0x0
    41018c64:	044e0e13          	addi	x28,x28,68 # 41018ca4 <excp_return_label_132>
    41018c68:	03c23823          	sd	x28,48(x4) # 30 <SECURE_ACCESS_PROBABILITY+0x12>
    41018c6c:	00000e13          	li	x28,0
    41018c70:	03c23c23          	sd	x28,56(x4) # 38 <SECURE_ACCESS_PROBABILITY+0x1a>
    41018c74:	00000e13          	li	x28,0
    41018c78:	07c23023          	sd	x28,96(x4) # 60 <XLEN+0x20>
    41018c7c:	00000e13          	li	x28,0
    41018c80:	07c23423          	sd	x28,104(x4) # 68 <XLEN+0x28>
    41018c84:	00000e13          	li	x28,0
    41018c88:	07c23823          	sd	x28,112(x4) # 70 <XLEN+0x30>

0000000041018c8c <fault_label_132>:
    41018c8c:	c1d023f3          	csrr	x7,hpmcounter29
    41018c90:	00038313          	mv	x6,x7
    41018c94:	069ce737          	lui	x14,0x69ce
    41018c98:	0087071b          	addiw	x14,x14,8 # 69ce008 <failed_addr>
    41018c9c:	00073e83          	ld	x29,0(x14)
    41018ca0:	000e8067          	jr	x29

0000000041018ca4 <excp_return_label_132>:
    41018ca4:	40a44237          	lui	x4,0x40a44
    41018ca8:	01600e13          	li	x28,22
    41018cac:	05c23823          	sd	x28,80(x4) # 40a44050 <check_excp_expected_cause>
    41018cb0:	00000e17          	auipc	x28,0x0
    41018cb4:	048e0e13          	addi	x28,x28,72 # 41018cf8 <fault_label_133>
    41018cb8:	03c23023          	sd	x28,32(x4) # 20 <SECURE_ACCESS_PROBABILITY+0x2>
    41018cbc:	00000e13          	li	x28,0
    41018cc0:	05c23023          	sd	x28,64(x4) # 40 <XLEN>
    41018cc4:	00000e13          	li	x28,0
    41018cc8:	05c23423          	sd	x28,72(x4) # 48 <XLEN+0x8>
    41018ccc:	00000e17          	auipc	x28,0x0
    41018cd0:	044e0e13          	addi	x28,x28,68 # 41018d10 <excp_return_label_133>
    41018cd4:	03c23823          	sd	x28,48(x4) # 30 <SECURE_ACCESS_PROBABILITY+0x12>
    41018cd8:	00000e13          	li	x28,0
    41018cdc:	03c23c23          	sd	x28,56(x4) # 38 <SECURE_ACCESS_PROBABILITY+0x1a>
    41018ce0:	00000e13          	li	x28,0
    41018ce4:	07c23023          	sd	x28,96(x4) # 60 <XLEN+0x20>
    41018ce8:	00000e13          	li	x28,0
    41018cec:	07c23423          	sd	x28,104(x4) # 68 <XLEN+0x28>
    41018cf0:	00000e13          	li	x28,0
    41018cf4:	07c23823          	sd	x28,112(x4) # 70 <XLEN+0x30>

0000000041018cf8 <fault_label_133>:
    41018cf8:	c1e023f3          	csrr	x7,hpmcounter30
    41018cfc:	00038993          	mv	x19,x7
    41018d00:	069ce5b7          	lui	x11,0x69ce
    41018d04:	0085859b          	addiw	x11,x11,8 # 69ce008 <failed_addr>
    41018d08:	0005bc03          	ld	x24,0(x11)
    41018d0c:	000c0067          	jr	x24

0000000041018d10 <excp_return_label_133>:
    41018d10:	40a44237          	lui	x4,0x40a44
    41018d14:	01600e13          	li	x28,22
    41018d18:	05c23823          	sd	x28,80(x4) # 40a44050 <check_excp_expected_cause>
    41018d1c:	00000e17          	auipc	x28,0x0
    41018d20:	048e0e13          	addi	x28,x28,72 # 41018d64 <fault_label_134>
    41018d24:	03c23023          	sd	x28,32(x4) # 20 <SECURE_ACCESS_PROBABILITY+0x2>
    41018d28:	00000e13          	li	x28,0
    41018d2c:	05c23023          	sd	x28,64(x4) # 40 <XLEN>
    41018d30:	00000e13          	li	x28,0
    41018d34:	05c23423          	sd	x28,72(x4) # 48 <XLEN+0x8>
    41018d38:	00000e17          	auipc	x28,0x0
    41018d3c:	044e0e13          	addi	x28,x28,68 # 41018d7c <excp_return_label_134>
    41018d40:	03c23823          	sd	x28,48(x4) # 30 <SECURE_ACCESS_PROBABILITY+0x12>
    41018d44:	00000e13          	li	x28,0
    41018d48:	03c23c23          	sd	x28,56(x4) # 38 <SECURE_ACCESS_PROBABILITY+0x1a>
    41018d4c:	00000e13          	li	x28,0
    41018d50:	07c23023          	sd	x28,96(x4) # 60 <XLEN+0x20>
    41018d54:	00000e13          	li	x28,0
    41018d58:	07c23423          	sd	x28,104(x4) # 68 <XLEN+0x28>
    41018d5c:	00000e13          	li	x28,0
    41018d60:	07c23823          	sd	x28,112(x4) # 70 <XLEN+0x30>

0000000041018d64 <fault_label_134>:
    41018d64:	c1f023f3          	csrr	x7,hpmcounter31
    41018d68:	00038c13          	mv	x24,x7
    41018d6c:	069ce8b7          	lui	x17,0x69ce
    41018d70:	0088889b          	addiw	x17,x17,8 # 69ce008 <failed_addr>
    41018d74:	0008b783          	ld	x15,0(x17)
    41018d78:	00078067          	jr	x15

0000000041018d7c <excp_return_label_134>:
    41018d7c:	0006c137          	lui	x2,0x6c
    41018d80:	00013383          	ld	x7,0(x2) # 6c000 <tp_csr_storage>
    41018d84:	069cefb7          	lui	x31,0x69ce
    41018d88:	0b8f8f9b          	addiw	x31,x31,184 # 69ce0b8 <super_csr_jump_table_flags>
    41018d8c:	02b00f13          	li	x30,43
    41018d90:	01efb023          	sd	x30,0(x31)
    41018d94:	000f0fb7          	lui	x31,0xf0
    41018d98:	001f8f9b          	addiw	x31,x31,1 # f0001 <SID_HEXCEP_09_hinval_vvma_vu_stack+0x25001>
    41018d9c:	00cf9f93          	slli	x31,x31,0xc
    41018da0:	006f8f93          	addi	x31,x31,6
    41018da4:	00000073          	ecall
    41018da8:	00813383          	ld	x7,8(x2)
    41018dac:	069cefb7          	lui	x31,0x69ce
    41018db0:	0b0f8f9b          	addiw	x31,x31,176 # 69ce0b0 <machine_csr_jump_table_flags>
    41018db4:	02c00f13          	li	x30,44
    41018db8:	01efb023          	sd	x30,0(x31)
    41018dbc:	000f0fb7          	lui	x31,0xf0
    41018dc0:	001f8f9b          	addiw	x31,x31,1 # f0001 <SID_HEXCEP_09_hinval_vvma_vu_stack+0x25001>
    41018dc4:	00cf9f93          	slli	x31,x31,0xc
    41018dc8:	005f8f93          	addi	x31,x31,5
    41018dcc:	00000073          	ecall
    41018dd0:	01013383          	ld	x7,16(x2)
    41018dd4:	069cefb7          	lui	x31,0x69ce
    41018dd8:	0b8f8f9b          	addiw	x31,x31,184 # 69ce0b8 <super_csr_jump_table_flags>
    41018ddc:	02d00f13          	li	x30,45
    41018de0:	01efb023          	sd	x30,0(x31)
    41018de4:	000f0fb7          	lui	x31,0xf0
    41018de8:	001f8f9b          	addiw	x31,x31,1 # f0001 <SID_HEXCEP_09_hinval_vvma_vu_stack+0x25001>
    41018dec:	00cf9f93          	slli	x31,x31,0xc
    41018df0:	006f8f93          	addi	x31,x31,6
    41018df4:	00000073          	ecall

0000000041018df8 <SID_HEXCEP_07_vu_mode_case2_passed>:
    41018df8:	00f00f9b          	addiw	x31,x0,15
    41018dfc:	01cf9f93          	slli	x31,x31,0x1c
    41018e00:	001f8f93          	addi	x31,x31,1
    41018e04:	00000073          	ecall

0000000041018e08 <SID_HEXCEP_07_vu_mode_case3>:
    41018e08:	0006c137          	lui	x2,0x6c
    41018e0c:	069cefb7          	lui	x31,0x69ce
    41018e10:	0b8f8f9b          	addiw	x31,x31,184 # 69ce0b8 <super_csr_jump_table_flags>
    41018e14:	00500f13          	li	x30,5
    41018e18:	01efb023          	sd	x30,0(x31)
    41018e1c:	000f0fb7          	lui	x31,0xf0
    41018e20:	001f8f9b          	addiw	x31,x31,1 # f0001 <SID_HEXCEP_09_hinval_vvma_vu_stack+0x25001>
    41018e24:	00cf9f93          	slli	x31,x31,0xc
    41018e28:	006f8f93          	addi	x31,x31,6
    41018e2c:	00000073          	ecall
    41018e30:	00713023          	sd	x7,0(x2) # 6c000 <tp_csr_storage>
    41018e34:	069cefb7          	lui	x31,0x69ce
    41018e38:	0b0f8f9b          	addiw	x31,x31,176 # 69ce0b0 <machine_csr_jump_table_flags>
    41018e3c:	00600f13          	li	x30,6
    41018e40:	01efb023          	sd	x30,0(x31)
    41018e44:	000f0fb7          	lui	x31,0xf0
    41018e48:	001f8f9b          	addiw	x31,x31,1 # f0001 <SID_HEXCEP_09_hinval_vvma_vu_stack+0x25001>
    41018e4c:	00cf9f93          	slli	x31,x31,0xc
    41018e50:	005f8f93          	addi	x31,x31,5
    41018e54:	00000073          	ecall
    41018e58:	00713423          	sd	x7,8(x2)
    41018e5c:	069cefb7          	lui	x31,0x69ce
    41018e60:	0b8f8f9b          	addiw	x31,x31,184 # 69ce0b8 <super_csr_jump_table_flags>
    41018e64:	00700f13          	li	x30,7
    41018e68:	01efb023          	sd	x30,0(x31)
    41018e6c:	000f0fb7          	lui	x31,0xf0
    41018e70:	001f8f9b          	addiw	x31,x31,1 # f0001 <SID_HEXCEP_09_hinval_vvma_vu_stack+0x25001>
    41018e74:	00cf9f93          	slli	x31,x31,0xc
    41018e78:	006f8f93          	addi	x31,x31,6
    41018e7c:	00000073          	ecall
    41018e80:	00713823          	sd	x7,16(x2)
    41018e84:	003a3137          	lui	x2,0x3a3
    41018e88:	4ad1011b          	addiw	x2,x2,1197 # 3a34ad <hart_stack_0_end+0x2854ad>
    41018e8c:	00d11113          	slli	x2,x2,0xd
    41018e90:	d7d10113          	addi	x2,x2,-643
    41018e94:	00c11113          	slli	x2,x2,0xc
    41018e98:	000012b7          	lui	x5,0x1
    41018e9c:	00510133          	add	x2,x2,x5
    41018ea0:	ff017113          	andi	x2,x2,-16
    41018ea4:	0010039b          	addiw	x7,x0,1
    41018ea8:	02039393          	slli	x7,x7,0x20
    41018eac:	fff38393          	addi	x7,x7,-1
    41018eb0:	069cefb7          	lui	x31,0x69ce
    41018eb4:	0b0f8f9b          	addiw	x31,x31,176 # 69ce0b0 <machine_csr_jump_table_flags>
    41018eb8:	00800f13          	li	x30,8
    41018ebc:	01efb023          	sd	x30,0(x31)
    41018ec0:	000f0fb7          	lui	x31,0xf0
    41018ec4:	001f8f9b          	addiw	x31,x31,1 # f0001 <SID_HEXCEP_09_hinval_vvma_vu_stack+0x25001>
    41018ec8:	00cf9f93          	slli	x31,x31,0xc
    41018ecc:	005f8f93          	addi	x31,x31,5
    41018ed0:	00000073          	ecall
    41018ed4:	0010039b          	addiw	x7,x0,1
    41018ed8:	02039393          	slli	x7,x7,0x20
    41018edc:	fff38393          	addi	x7,x7,-1
    41018ee0:	069cefb7          	lui	x31,0x69ce
    41018ee4:	0b8f8f9b          	addiw	x31,x31,184 # 69ce0b8 <super_csr_jump_table_flags>
    41018ee8:	05b00f13          	li	x30,91
    41018eec:	01efb023          	sd	x30,0(x31)
    41018ef0:	000f0fb7          	lui	x31,0xf0
    41018ef4:	001f8f9b          	addiw	x31,x31,1 # f0001 <SID_HEXCEP_09_hinval_vvma_vu_stack+0x25001>
    41018ef8:	00cf9f93          	slli	x31,x31,0xc
    41018efc:	006f8f93          	addi	x31,x31,6
    41018f00:	00000073          	ecall
    41018f04:	0010039b          	addiw	x7,x0,1
    41018f08:	02039393          	slli	x7,x7,0x20
    41018f0c:	fff38393          	addi	x7,x7,-1
    41018f10:	069cefb7          	lui	x31,0x69ce
    41018f14:	0b8f8f9b          	addiw	x31,x31,184 # 69ce0b8 <super_csr_jump_table_flags>
    41018f18:	00a00f13          	li	x30,10
    41018f1c:	01efb023          	sd	x30,0(x31)
    41018f20:	000f0fb7          	lui	x31,0xf0
    41018f24:	001f8f9b          	addiw	x31,x31,1 # f0001 <SID_HEXCEP_09_hinval_vvma_vu_stack+0x25001>
    41018f28:	00cf9f93          	slli	x31,x31,0xc
    41018f2c:	006f8f93          	addi	x31,x31,6
    41018f30:	00000073          	ecall
    41018f34:	40a44237          	lui	x4,0x40a44
    41018f38:	01600e13          	li	x28,22
    41018f3c:	05c23823          	sd	x28,80(x4) # 40a44050 <check_excp_expected_cause>
    41018f40:	00000e17          	auipc	x28,0x0
    41018f44:	048e0e13          	addi	x28,x28,72 # 41018f88 <fault_label_135>
    41018f48:	03c23023          	sd	x28,32(x4) # 20 <SECURE_ACCESS_PROBABILITY+0x2>
    41018f4c:	00000e13          	li	x28,0
    41018f50:	05c23023          	sd	x28,64(x4) # 40 <XLEN>
    41018f54:	00000e13          	li	x28,0
    41018f58:	05c23423          	sd	x28,72(x4) # 48 <XLEN+0x8>
    41018f5c:	00000e17          	auipc	x28,0x0
    41018f60:	044e0e13          	addi	x28,x28,68 # 41018fa0 <excp_return_label_135>
    41018f64:	03c23823          	sd	x28,48(x4) # 30 <SECURE_ACCESS_PROBABILITY+0x12>
    41018f68:	00000e13          	li	x28,0
    41018f6c:	03c23c23          	sd	x28,56(x4) # 38 <SECURE_ACCESS_PROBABILITY+0x1a>
    41018f70:	00000e13          	li	x28,0
    41018f74:	07c23023          	sd	x28,96(x4) # 60 <XLEN+0x20>
    41018f78:	00000e13          	li	x28,0
    41018f7c:	07c23423          	sd	x28,104(x4) # 68 <XLEN+0x28>
    41018f80:	00000e13          	li	x28,0
    41018f84:	07c23823          	sd	x28,112(x4) # 70 <XLEN+0x30>

0000000041018f88 <fault_label_135>:
    41018f88:	c00023f3          	rdcycle	x7
    41018f8c:	00038893          	mv	x17,x7
    41018f90:	069cec37          	lui	x24,0x69ce
    41018f94:	008c0c1b          	addiw	x24,x24,8 # 69ce008 <failed_addr>
    41018f98:	000c3703          	ld	x14,0(x24)
    41018f9c:	00070067          	jr	x14

0000000041018fa0 <excp_return_label_135>:
    41018fa0:	40a44237          	lui	x4,0x40a44
    41018fa4:	01600e13          	li	x28,22
    41018fa8:	05c23823          	sd	x28,80(x4) # 40a44050 <check_excp_expected_cause>
    41018fac:	00000e17          	auipc	x28,0x0
    41018fb0:	048e0e13          	addi	x28,x28,72 # 41018ff4 <fault_label_136>
    41018fb4:	03c23023          	sd	x28,32(x4) # 20 <SECURE_ACCESS_PROBABILITY+0x2>
    41018fb8:	00000e13          	li	x28,0
    41018fbc:	05c23023          	sd	x28,64(x4) # 40 <XLEN>
    41018fc0:	00000e13          	li	x28,0
    41018fc4:	05c23423          	sd	x28,72(x4) # 48 <XLEN+0x8>
    41018fc8:	00000e17          	auipc	x28,0x0
    41018fcc:	044e0e13          	addi	x28,x28,68 # 4101900c <excp_return_label_136>
    41018fd0:	03c23823          	sd	x28,48(x4) # 30 <SECURE_ACCESS_PROBABILITY+0x12>
    41018fd4:	00000e13          	li	x28,0
    41018fd8:	03c23c23          	sd	x28,56(x4) # 38 <SECURE_ACCESS_PROBABILITY+0x1a>
    41018fdc:	00000e13          	li	x28,0
    41018fe0:	07c23023          	sd	x28,96(x4) # 60 <XLEN+0x20>
    41018fe4:	00000e13          	li	x28,0
    41018fe8:	07c23423          	sd	x28,104(x4) # 68 <XLEN+0x28>
    41018fec:	00000e13          	li	x28,0
    41018ff0:	07c23823          	sd	x28,112(x4) # 70 <XLEN+0x30>

0000000041018ff4 <fault_label_136>:
    41018ff4:	c01023f3          	rdtime	x7
    41018ff8:	00038893          	mv	x17,x7
    41018ffc:	069ced37          	lui	x26,0x69ce
    41019000:	008d0d1b          	addiw	x26,x26,8 # 69ce008 <failed_addr>
    41019004:	000d3803          	ld	x16,0(x26)
    41019008:	00080067          	jr	x16

000000004101900c <excp_return_label_136>:
    4101900c:	40a44237          	lui	x4,0x40a44
    41019010:	01600e13          	li	x28,22
    41019014:	05c23823          	sd	x28,80(x4) # 40a44050 <check_excp_expected_cause>
    41019018:	00000e17          	auipc	x28,0x0
    4101901c:	048e0e13          	addi	x28,x28,72 # 41019060 <fault_label_137>
    41019020:	03c23023          	sd	x28,32(x4) # 20 <SECURE_ACCESS_PROBABILITY+0x2>
    41019024:	00000e13          	li	x28,0
    41019028:	05c23023          	sd	x28,64(x4) # 40 <XLEN>
    4101902c:	00000e13          	li	x28,0
    41019030:	05c23423          	sd	x28,72(x4) # 48 <XLEN+0x8>
    41019034:	00000e17          	auipc	x28,0x0
    41019038:	044e0e13          	addi	x28,x28,68 # 41019078 <excp_return_label_137>
    4101903c:	03c23823          	sd	x28,48(x4) # 30 <SECURE_ACCESS_PROBABILITY+0x12>
    41019040:	00000e13          	li	x28,0
    41019044:	03c23c23          	sd	x28,56(x4) # 38 <SECURE_ACCESS_PROBABILITY+0x1a>
    41019048:	00000e13          	li	x28,0
    4101904c:	07c23023          	sd	x28,96(x4) # 60 <XLEN+0x20>
    41019050:	00000e13          	li	x28,0
    41019054:	07c23423          	sd	x28,104(x4) # 68 <XLEN+0x28>
    41019058:	00000e13          	li	x28,0
    4101905c:	07c23823          	sd	x28,112(x4) # 70 <XLEN+0x30>

0000000041019060 <fault_label_137>:
    41019060:	c02023f3          	rdinstret	x7
    41019064:	00038613          	mv	x12,x7
    41019068:	069ce6b7          	lui	x13,0x69ce
    4101906c:	0086869b          	addiw	x13,x13,8 # 69ce008 <failed_addr>
    41019070:	0006be03          	ld	x28,0(x13)
    41019074:	000e0067          	jr	x28

0000000041019078 <excp_return_label_137>:
    41019078:	40a44237          	lui	x4,0x40a44
    4101907c:	01600e13          	li	x28,22
    41019080:	05c23823          	sd	x28,80(x4) # 40a44050 <check_excp_expected_cause>
    41019084:	00000e17          	auipc	x28,0x0
    41019088:	048e0e13          	addi	x28,x28,72 # 410190cc <fault_label_138>
    4101908c:	03c23023          	sd	x28,32(x4) # 20 <SECURE_ACCESS_PROBABILITY+0x2>
    41019090:	00000e13          	li	x28,0
    41019094:	05c23023          	sd	x28,64(x4) # 40 <XLEN>
    41019098:	00000e13          	li	x28,0
    4101909c:	05c23423          	sd	x28,72(x4) # 48 <XLEN+0x8>
    410190a0:	00000e17          	auipc	x28,0x0
    410190a4:	044e0e13          	addi	x28,x28,68 # 410190e4 <excp_return_label_138>
    410190a8:	03c23823          	sd	x28,48(x4) # 30 <SECURE_ACCESS_PROBABILITY+0x12>
    410190ac:	00000e13          	li	x28,0
    410190b0:	03c23c23          	sd	x28,56(x4) # 38 <SECURE_ACCESS_PROBABILITY+0x1a>
    410190b4:	00000e13          	li	x28,0
    410190b8:	07c23023          	sd	x28,96(x4) # 60 <XLEN+0x20>
    410190bc:	00000e13          	li	x28,0
    410190c0:	07c23423          	sd	x28,104(x4) # 68 <XLEN+0x28>
    410190c4:	00000e13          	li	x28,0
    410190c8:	07c23823          	sd	x28,112(x4) # 70 <XLEN+0x30>

00000000410190cc <fault_label_138>:
    410190cc:	c03023f3          	csrr	x7,hpmcounter3
    410190d0:	00038613          	mv	x12,x7
    410190d4:	069ce9b7          	lui	x19,0x69ce
    410190d8:	0089899b          	addiw	x19,x19,8 # 69ce008 <failed_addr>
    410190dc:	0009bd83          	ld	x27,0(x19)
    410190e0:	000d8067          	jr	x27

00000000410190e4 <excp_return_label_138>:
    410190e4:	40a44237          	lui	x4,0x40a44
    410190e8:	01600e13          	li	x28,22
    410190ec:	05c23823          	sd	x28,80(x4) # 40a44050 <check_excp_expected_cause>
    410190f0:	00000e17          	auipc	x28,0x0
    410190f4:	048e0e13          	addi	x28,x28,72 # 41019138 <fault_label_139>
    410190f8:	03c23023          	sd	x28,32(x4) # 20 <SECURE_ACCESS_PROBABILITY+0x2>
    410190fc:	00000e13          	li	x28,0
    41019100:	05c23023          	sd	x28,64(x4) # 40 <XLEN>
    41019104:	00000e13          	li	x28,0
    41019108:	05c23423          	sd	x28,72(x4) # 48 <XLEN+0x8>
    4101910c:	00000e17          	auipc	x28,0x0
    41019110:	044e0e13          	addi	x28,x28,68 # 41019150 <excp_return_label_139>
    41019114:	03c23823          	sd	x28,48(x4) # 30 <SECURE_ACCESS_PROBABILITY+0x12>
    41019118:	00000e13          	li	x28,0
    4101911c:	03c23c23          	sd	x28,56(x4) # 38 <SECURE_ACCESS_PROBABILITY+0x1a>
    41019120:	00000e13          	li	x28,0
    41019124:	07c23023          	sd	x28,96(x4) # 60 <XLEN+0x20>
    41019128:	00000e13          	li	x28,0
    4101912c:	07c23423          	sd	x28,104(x4) # 68 <XLEN+0x28>
    41019130:	00000e13          	li	x28,0
    41019134:	07c23823          	sd	x28,112(x4) # 70 <XLEN+0x30>

0000000041019138 <fault_label_139>:
    41019138:	c04023f3          	csrr	x7,hpmcounter4
    4101913c:	00038c93          	mv	x25,x7
    41019140:	069cecb7          	lui	x25,0x69ce
    41019144:	008c8c9b          	addiw	x25,x25,8 # 69ce008 <failed_addr>
    41019148:	000cb383          	ld	x7,0(x25)
    4101914c:	00038067          	jr	x7

0000000041019150 <excp_return_label_139>:
    41019150:	40a44237          	lui	x4,0x40a44
    41019154:	01600e13          	li	x28,22
    41019158:	05c23823          	sd	x28,80(x4) # 40a44050 <check_excp_expected_cause>
    4101915c:	00000e17          	auipc	x28,0x0
    41019160:	048e0e13          	addi	x28,x28,72 # 410191a4 <fault_label_140>
    41019164:	03c23023          	sd	x28,32(x4) # 20 <SECURE_ACCESS_PROBABILITY+0x2>
    41019168:	00000e13          	li	x28,0
    4101916c:	05c23023          	sd	x28,64(x4) # 40 <XLEN>
    41019170:	00000e13          	li	x28,0
    41019174:	05c23423          	sd	x28,72(x4) # 48 <XLEN+0x8>
    41019178:	00000e17          	auipc	x28,0x0
    4101917c:	044e0e13          	addi	x28,x28,68 # 410191bc <excp_return_label_140>
    41019180:	03c23823          	sd	x28,48(x4) # 30 <SECURE_ACCESS_PROBABILITY+0x12>
    41019184:	00000e13          	li	x28,0
    41019188:	03c23c23          	sd	x28,56(x4) # 38 <SECURE_ACCESS_PROBABILITY+0x1a>
    4101918c:	00000e13          	li	x28,0
    41019190:	07c23023          	sd	x28,96(x4) # 60 <XLEN+0x20>
    41019194:	00000e13          	li	x28,0
    41019198:	07c23423          	sd	x28,104(x4) # 68 <XLEN+0x28>
    4101919c:	00000e13          	li	x28,0
    410191a0:	07c23823          	sd	x28,112(x4) # 70 <XLEN+0x30>

00000000410191a4 <fault_label_140>:
    410191a4:	c05023f3          	csrr	x7,hpmcounter5
    410191a8:	00038813          	mv	x16,x7
    410191ac:	069cecb7          	lui	x25,0x69ce
    410191b0:	008c8c9b          	addiw	x25,x25,8 # 69ce008 <failed_addr>
    410191b4:	000cb583          	ld	x11,0(x25)
    410191b8:	00058067          	jr	x11

00000000410191bc <excp_return_label_140>:
    410191bc:	40a44237          	lui	x4,0x40a44
    410191c0:	01600e13          	li	x28,22
    410191c4:	05c23823          	sd	x28,80(x4) # 40a44050 <check_excp_expected_cause>
    410191c8:	00000e17          	auipc	x28,0x0
    410191cc:	048e0e13          	addi	x28,x28,72 # 41019210 <fault_label_141>
    410191d0:	03c23023          	sd	x28,32(x4) # 20 <SECURE_ACCESS_PROBABILITY+0x2>
    410191d4:	00000e13          	li	x28,0
    410191d8:	05c23023          	sd	x28,64(x4) # 40 <XLEN>
    410191dc:	00000e13          	li	x28,0
    410191e0:	05c23423          	sd	x28,72(x4) # 48 <XLEN+0x8>
    410191e4:	00000e17          	auipc	x28,0x0
    410191e8:	044e0e13          	addi	x28,x28,68 # 41019228 <excp_return_label_141>
    410191ec:	03c23823          	sd	x28,48(x4) # 30 <SECURE_ACCESS_PROBABILITY+0x12>
    410191f0:	00000e13          	li	x28,0
    410191f4:	03c23c23          	sd	x28,56(x4) # 38 <SECURE_ACCESS_PROBABILITY+0x1a>
    410191f8:	00000e13          	li	x28,0
    410191fc:	07c23023          	sd	x28,96(x4) # 60 <XLEN+0x20>
    41019200:	00000e13          	li	x28,0
    41019204:	07c23423          	sd	x28,104(x4) # 68 <XLEN+0x28>
    41019208:	00000e13          	li	x28,0
    4101920c:	07c23823          	sd	x28,112(x4) # 70 <XLEN+0x30>

0000000041019210 <fault_label_141>:
    41019210:	c06023f3          	csrr	x7,hpmcounter6
    41019214:	00038713          	mv	x14,x7
    41019218:	069ce8b7          	lui	x17,0x69ce
    4101921c:	0088889b          	addiw	x17,x17,8 # 69ce008 <failed_addr>
    41019220:	0008b383          	ld	x7,0(x17)
    41019224:	00038067          	jr	x7

0000000041019228 <excp_return_label_141>:
    41019228:	40a44237          	lui	x4,0x40a44
    4101922c:	01600e13          	li	x28,22
    41019230:	05c23823          	sd	x28,80(x4) # 40a44050 <check_excp_expected_cause>
    41019234:	00000e17          	auipc	x28,0x0
    41019238:	048e0e13          	addi	x28,x28,72 # 4101927c <fault_label_142>
    4101923c:	03c23023          	sd	x28,32(x4) # 20 <SECURE_ACCESS_PROBABILITY+0x2>
    41019240:	00000e13          	li	x28,0
    41019244:	05c23023          	sd	x28,64(x4) # 40 <XLEN>
    41019248:	00000e13          	li	x28,0
    4101924c:	05c23423          	sd	x28,72(x4) # 48 <XLEN+0x8>
    41019250:	00000e17          	auipc	x28,0x0
    41019254:	044e0e13          	addi	x28,x28,68 # 41019294 <excp_return_label_142>
    41019258:	03c23823          	sd	x28,48(x4) # 30 <SECURE_ACCESS_PROBABILITY+0x12>
    4101925c:	00000e13          	li	x28,0
    41019260:	03c23c23          	sd	x28,56(x4) # 38 <SECURE_ACCESS_PROBABILITY+0x1a>
    41019264:	00000e13          	li	x28,0
    41019268:	07c23023          	sd	x28,96(x4) # 60 <XLEN+0x20>
    4101926c:	00000e13          	li	x28,0
    41019270:	07c23423          	sd	x28,104(x4) # 68 <XLEN+0x28>
    41019274:	00000e13          	li	x28,0
    41019278:	07c23823          	sd	x28,112(x4) # 70 <XLEN+0x30>

000000004101927c <fault_label_142>:
    4101927c:	c07023f3          	csrr	x7,hpmcounter7
    41019280:	00038313          	mv	x6,x7
    41019284:	069ce337          	lui	x6,0x69ce
    41019288:	0083031b          	addiw	x6,x6,8 # 69ce008 <failed_addr>
    4101928c:	00033803          	ld	x16,0(x6)
    41019290:	00080067          	jr	x16

0000000041019294 <excp_return_label_142>:
    41019294:	40a44237          	lui	x4,0x40a44
    41019298:	01600e13          	li	x28,22
    4101929c:	05c23823          	sd	x28,80(x4) # 40a44050 <check_excp_expected_cause>
    410192a0:	00000e17          	auipc	x28,0x0
    410192a4:	048e0e13          	addi	x28,x28,72 # 410192e8 <fault_label_143>
    410192a8:	03c23023          	sd	x28,32(x4) # 20 <SECURE_ACCESS_PROBABILITY+0x2>
    410192ac:	00000e13          	li	x28,0
    410192b0:	05c23023          	sd	x28,64(x4) # 40 <XLEN>
    410192b4:	00000e13          	li	x28,0
    410192b8:	05c23423          	sd	x28,72(x4) # 48 <XLEN+0x8>
    410192bc:	00000e17          	auipc	x28,0x0
    410192c0:	044e0e13          	addi	x28,x28,68 # 41019300 <excp_return_label_143>
    410192c4:	03c23823          	sd	x28,48(x4) # 30 <SECURE_ACCESS_PROBABILITY+0x12>
    410192c8:	00000e13          	li	x28,0
    410192cc:	03c23c23          	sd	x28,56(x4) # 38 <SECURE_ACCESS_PROBABILITY+0x1a>
    410192d0:	00000e13          	li	x28,0
    410192d4:	07c23023          	sd	x28,96(x4) # 60 <XLEN+0x20>
    410192d8:	00000e13          	li	x28,0
    410192dc:	07c23423          	sd	x28,104(x4) # 68 <XLEN+0x28>
    410192e0:	00000e13          	li	x28,0
    410192e4:	07c23823          	sd	x28,112(x4) # 70 <XLEN+0x30>

00000000410192e8 <fault_label_143>:
    410192e8:	c08023f3          	csrr	x7,hpmcounter8
    410192ec:	00038c13          	mv	x24,x7
    410192f0:	069ce837          	lui	x16,0x69ce
    410192f4:	0088081b          	addiw	x16,x16,8 # 69ce008 <failed_addr>
    410192f8:	00083a03          	ld	x20,0(x16)
    410192fc:	000a0067          	jr	x20

0000000041019300 <excp_return_label_143>:
    41019300:	40a44237          	lui	x4,0x40a44
    41019304:	01600e13          	li	x28,22
    41019308:	05c23823          	sd	x28,80(x4) # 40a44050 <check_excp_expected_cause>
    4101930c:	00000e17          	auipc	x28,0x0
    41019310:	048e0e13          	addi	x28,x28,72 # 41019354 <fault_label_144>
    41019314:	03c23023          	sd	x28,32(x4) # 20 <SECURE_ACCESS_PROBABILITY+0x2>
    41019318:	00000e13          	li	x28,0
    4101931c:	05c23023          	sd	x28,64(x4) # 40 <XLEN>
    41019320:	00000e13          	li	x28,0
    41019324:	05c23423          	sd	x28,72(x4) # 48 <XLEN+0x8>
    41019328:	00000e17          	auipc	x28,0x0
    4101932c:	044e0e13          	addi	x28,x28,68 # 4101936c <excp_return_label_144>
    41019330:	03c23823          	sd	x28,48(x4) # 30 <SECURE_ACCESS_PROBABILITY+0x12>
    41019334:	00000e13          	li	x28,0
    41019338:	03c23c23          	sd	x28,56(x4) # 38 <SECURE_ACCESS_PROBABILITY+0x1a>
    4101933c:	00000e13          	li	x28,0
    41019340:	07c23023          	sd	x28,96(x4) # 60 <XLEN+0x20>
    41019344:	00000e13          	li	x28,0
    41019348:	07c23423          	sd	x28,104(x4) # 68 <XLEN+0x28>
    4101934c:	00000e13          	li	x28,0
    41019350:	07c23823          	sd	x28,112(x4) # 70 <XLEN+0x30>

0000000041019354 <fault_label_144>:
    41019354:	c09023f3          	csrr	x7,hpmcounter9
    41019358:	00038693          	mv	x13,x7
    4101935c:	069cecb7          	lui	x25,0x69ce
    41019360:	008c8c9b          	addiw	x25,x25,8 # 69ce008 <failed_addr>
    41019364:	000cb483          	ld	x9,0(x25)
    41019368:	00048067          	jr	x9

000000004101936c <excp_return_label_144>:
    4101936c:	40a44237          	lui	x4,0x40a44
    41019370:	01600e13          	li	x28,22
    41019374:	05c23823          	sd	x28,80(x4) # 40a44050 <check_excp_expected_cause>
    41019378:	00000e17          	auipc	x28,0x0
    4101937c:	048e0e13          	addi	x28,x28,72 # 410193c0 <fault_label_145>
    41019380:	03c23023          	sd	x28,32(x4) # 20 <SECURE_ACCESS_PROBABILITY+0x2>
    41019384:	00000e13          	li	x28,0
    41019388:	05c23023          	sd	x28,64(x4) # 40 <XLEN>
    4101938c:	00000e13          	li	x28,0
    41019390:	05c23423          	sd	x28,72(x4) # 48 <XLEN+0x8>
    41019394:	00000e17          	auipc	x28,0x0
    41019398:	044e0e13          	addi	x28,x28,68 # 410193d8 <excp_return_label_145>
    4101939c:	03c23823          	sd	x28,48(x4) # 30 <SECURE_ACCESS_PROBABILITY+0x12>
    410193a0:	00000e13          	li	x28,0
    410193a4:	03c23c23          	sd	x28,56(x4) # 38 <SECURE_ACCESS_PROBABILITY+0x1a>
    410193a8:	00000e13          	li	x28,0
    410193ac:	07c23023          	sd	x28,96(x4) # 60 <XLEN+0x20>
    410193b0:	00000e13          	li	x28,0
    410193b4:	07c23423          	sd	x28,104(x4) # 68 <XLEN+0x28>
    410193b8:	00000e13          	li	x28,0
    410193bc:	07c23823          	sd	x28,112(x4) # 70 <XLEN+0x30>

00000000410193c0 <fault_label_145>:
    410193c0:	c0a023f3          	csrr	x7,hpmcounter10
    410193c4:	00038593          	mv	x11,x7
    410193c8:	069cef37          	lui	x30,0x69ce
    410193cc:	008f0f1b          	addiw	x30,x30,8 # 69ce008 <failed_addr>
    410193d0:	000f3983          	ld	x19,0(x30)
    410193d4:	00098067          	jr	x19

00000000410193d8 <excp_return_label_145>:
    410193d8:	40a44237          	lui	x4,0x40a44
    410193dc:	01600e13          	li	x28,22
    410193e0:	05c23823          	sd	x28,80(x4) # 40a44050 <check_excp_expected_cause>
    410193e4:	00000e17          	auipc	x28,0x0
    410193e8:	048e0e13          	addi	x28,x28,72 # 4101942c <fault_label_146>
    410193ec:	03c23023          	sd	x28,32(x4) # 20 <SECURE_ACCESS_PROBABILITY+0x2>
    410193f0:	00000e13          	li	x28,0
    410193f4:	05c23023          	sd	x28,64(x4) # 40 <XLEN>
    410193f8:	00000e13          	li	x28,0
    410193fc:	05c23423          	sd	x28,72(x4) # 48 <XLEN+0x8>
    41019400:	00000e17          	auipc	x28,0x0
    41019404:	044e0e13          	addi	x28,x28,68 # 41019444 <excp_return_label_146>
    41019408:	03c23823          	sd	x28,48(x4) # 30 <SECURE_ACCESS_PROBABILITY+0x12>
    4101940c:	00000e13          	li	x28,0
    41019410:	03c23c23          	sd	x28,56(x4) # 38 <SECURE_ACCESS_PROBABILITY+0x1a>
    41019414:	00000e13          	li	x28,0
    41019418:	07c23023          	sd	x28,96(x4) # 60 <XLEN+0x20>
    4101941c:	00000e13          	li	x28,0
    41019420:	07c23423          	sd	x28,104(x4) # 68 <XLEN+0x28>
    41019424:	00000e13          	li	x28,0
    41019428:	07c23823          	sd	x28,112(x4) # 70 <XLEN+0x30>

000000004101942c <fault_label_146>:
    4101942c:	c0b023f3          	csrr	x7,hpmcounter11
    41019430:	00038f93          	mv	x31,x7
    41019434:	069cef37          	lui	x30,0x69ce
    41019438:	008f0f1b          	addiw	x30,x30,8 # 69ce008 <failed_addr>
    4101943c:	000f3383          	ld	x7,0(x30)
    41019440:	00038067          	jr	x7

0000000041019444 <excp_return_label_146>:
    41019444:	40a44237          	lui	x4,0x40a44
    41019448:	01600e13          	li	x28,22
    4101944c:	05c23823          	sd	x28,80(x4) # 40a44050 <check_excp_expected_cause>
    41019450:	00000e17          	auipc	x28,0x0
    41019454:	048e0e13          	addi	x28,x28,72 # 41019498 <fault_label_147>
    41019458:	03c23023          	sd	x28,32(x4) # 20 <SECURE_ACCESS_PROBABILITY+0x2>
    4101945c:	00000e13          	li	x28,0
    41019460:	05c23023          	sd	x28,64(x4) # 40 <XLEN>
    41019464:	00000e13          	li	x28,0
    41019468:	05c23423          	sd	x28,72(x4) # 48 <XLEN+0x8>
    4101946c:	00000e17          	auipc	x28,0x0
    41019470:	044e0e13          	addi	x28,x28,68 # 410194b0 <excp_return_label_147>
    41019474:	03c23823          	sd	x28,48(x4) # 30 <SECURE_ACCESS_PROBABILITY+0x12>
    41019478:	00000e13          	li	x28,0
    4101947c:	03c23c23          	sd	x28,56(x4) # 38 <SECURE_ACCESS_PROBABILITY+0x1a>
    41019480:	00000e13          	li	x28,0
    41019484:	07c23023          	sd	x28,96(x4) # 60 <XLEN+0x20>
    41019488:	00000e13          	li	x28,0
    4101948c:	07c23423          	sd	x28,104(x4) # 68 <XLEN+0x28>
    41019490:	00000e13          	li	x28,0
    41019494:	07c23823          	sd	x28,112(x4) # 70 <XLEN+0x30>

0000000041019498 <fault_label_147>:
    41019498:	c0c023f3          	csrr	x7,hpmcounter12
    4101949c:	00038893          	mv	x17,x7
    410194a0:	069cefb7          	lui	x31,0x69ce
    410194a4:	008f8f9b          	addiw	x31,x31,8 # 69ce008 <failed_addr>
    410194a8:	000fb583          	ld	x11,0(x31)
    410194ac:	00058067          	jr	x11

00000000410194b0 <excp_return_label_147>:
    410194b0:	40a44237          	lui	x4,0x40a44
    410194b4:	01600e13          	li	x28,22
    410194b8:	05c23823          	sd	x28,80(x4) # 40a44050 <check_excp_expected_cause>
    410194bc:	00000e17          	auipc	x28,0x0
    410194c0:	048e0e13          	addi	x28,x28,72 # 41019504 <fault_label_148>
    410194c4:	03c23023          	sd	x28,32(x4) # 20 <SECURE_ACCESS_PROBABILITY+0x2>
    410194c8:	00000e13          	li	x28,0
    410194cc:	05c23023          	sd	x28,64(x4) # 40 <XLEN>
    410194d0:	00000e13          	li	x28,0
    410194d4:	05c23423          	sd	x28,72(x4) # 48 <XLEN+0x8>
    410194d8:	00000e17          	auipc	x28,0x0
    410194dc:	044e0e13          	addi	x28,x28,68 # 4101951c <excp_return_label_148>
    410194e0:	03c23823          	sd	x28,48(x4) # 30 <SECURE_ACCESS_PROBABILITY+0x12>
    410194e4:	00000e13          	li	x28,0
    410194e8:	03c23c23          	sd	x28,56(x4) # 38 <SECURE_ACCESS_PROBABILITY+0x1a>
    410194ec:	00000e13          	li	x28,0
    410194f0:	07c23023          	sd	x28,96(x4) # 60 <XLEN+0x20>
    410194f4:	00000e13          	li	x28,0
    410194f8:	07c23423          	sd	x28,104(x4) # 68 <XLEN+0x28>
    410194fc:	00000e13          	li	x28,0
    41019500:	07c23823          	sd	x28,112(x4) # 70 <XLEN+0x30>

0000000041019504 <fault_label_148>:
    41019504:	c0d023f3          	csrr	x7,hpmcounter13
    41019508:	00038813          	mv	x16,x7
    4101950c:	069cedb7          	lui	x27,0x69ce
    41019510:	008d8d9b          	addiw	x27,x27,8 # 69ce008 <failed_addr>
    41019514:	000db483          	ld	x9,0(x27)
    41019518:	00048067          	jr	x9

000000004101951c <excp_return_label_148>:
    4101951c:	40a44237          	lui	x4,0x40a44
    41019520:	01600e13          	li	x28,22
    41019524:	05c23823          	sd	x28,80(x4) # 40a44050 <check_excp_expected_cause>
    41019528:	00000e17          	auipc	x28,0x0
    4101952c:	048e0e13          	addi	x28,x28,72 # 41019570 <fault_label_149>
    41019530:	03c23023          	sd	x28,32(x4) # 20 <SECURE_ACCESS_PROBABILITY+0x2>
    41019534:	00000e13          	li	x28,0
    41019538:	05c23023          	sd	x28,64(x4) # 40 <XLEN>
    4101953c:	00000e13          	li	x28,0
    41019540:	05c23423          	sd	x28,72(x4) # 48 <XLEN+0x8>
    41019544:	00000e17          	auipc	x28,0x0
    41019548:	044e0e13          	addi	x28,x28,68 # 41019588 <excp_return_label_149>
    4101954c:	03c23823          	sd	x28,48(x4) # 30 <SECURE_ACCESS_PROBABILITY+0x12>
    41019550:	00000e13          	li	x28,0
    41019554:	03c23c23          	sd	x28,56(x4) # 38 <SECURE_ACCESS_PROBABILITY+0x1a>
    41019558:	00000e13          	li	x28,0
    4101955c:	07c23023          	sd	x28,96(x4) # 60 <XLEN+0x20>
    41019560:	00000e13          	li	x28,0
    41019564:	07c23423          	sd	x28,104(x4) # 68 <XLEN+0x28>
    41019568:	00000e13          	li	x28,0
    4101956c:	07c23823          	sd	x28,112(x4) # 70 <XLEN+0x30>

0000000041019570 <fault_label_149>:
    41019570:	c0e023f3          	csrr	x7,hpmcounter14
    41019574:	00038613          	mv	x12,x7
    41019578:	069cedb7          	lui	x27,0x69ce
    4101957c:	008d8d9b          	addiw	x27,x27,8 # 69ce008 <failed_addr>
    41019580:	000db383          	ld	x7,0(x27)
    41019584:	00038067          	jr	x7

0000000041019588 <excp_return_label_149>:
    41019588:	40a44237          	lui	x4,0x40a44
    4101958c:	01600e13          	li	x28,22
    41019590:	05c23823          	sd	x28,80(x4) # 40a44050 <check_excp_expected_cause>
    41019594:	00000e17          	auipc	x28,0x0
    41019598:	048e0e13          	addi	x28,x28,72 # 410195dc <fault_label_150>
    4101959c:	03c23023          	sd	x28,32(x4) # 20 <SECURE_ACCESS_PROBABILITY+0x2>
    410195a0:	00000e13          	li	x28,0
    410195a4:	05c23023          	sd	x28,64(x4) # 40 <XLEN>
    410195a8:	00000e13          	li	x28,0
    410195ac:	05c23423          	sd	x28,72(x4) # 48 <XLEN+0x8>
    410195b0:	00000e17          	auipc	x28,0x0
    410195b4:	044e0e13          	addi	x28,x28,68 # 410195f4 <excp_return_label_150>
    410195b8:	03c23823          	sd	x28,48(x4) # 30 <SECURE_ACCESS_PROBABILITY+0x12>
    410195bc:	00000e13          	li	x28,0
    410195c0:	03c23c23          	sd	x28,56(x4) # 38 <SECURE_ACCESS_PROBABILITY+0x1a>
    410195c4:	00000e13          	li	x28,0
    410195c8:	07c23023          	sd	x28,96(x4) # 60 <XLEN+0x20>
    410195cc:	00000e13          	li	x28,0
    410195d0:	07c23423          	sd	x28,104(x4) # 68 <XLEN+0x28>
    410195d4:	00000e13          	li	x28,0
    410195d8:	07c23823          	sd	x28,112(x4) # 70 <XLEN+0x30>

00000000410195dc <fault_label_150>:
    410195dc:	c0f023f3          	csrr	x7,hpmcounter15
    410195e0:	00038813          	mv	x16,x7
    410195e4:	069ce7b7          	lui	x15,0x69ce
    410195e8:	0087879b          	addiw	x15,x15,8 # 69ce008 <failed_addr>
    410195ec:	0007b803          	ld	x16,0(x15)
    410195f0:	00080067          	jr	x16

00000000410195f4 <excp_return_label_150>:
    410195f4:	40a44237          	lui	x4,0x40a44
    410195f8:	01600e13          	li	x28,22
    410195fc:	05c23823          	sd	x28,80(x4) # 40a44050 <check_excp_expected_cause>
    41019600:	00000e17          	auipc	x28,0x0
    41019604:	048e0e13          	addi	x28,x28,72 # 41019648 <fault_label_151>
    41019608:	03c23023          	sd	x28,32(x4) # 20 <SECURE_ACCESS_PROBABILITY+0x2>
    4101960c:	00000e13          	li	x28,0
    41019610:	05c23023          	sd	x28,64(x4) # 40 <XLEN>
    41019614:	00000e13          	li	x28,0
    41019618:	05c23423          	sd	x28,72(x4) # 48 <XLEN+0x8>
    4101961c:	00000e17          	auipc	x28,0x0
    41019620:	044e0e13          	addi	x28,x28,68 # 41019660 <excp_return_label_151>
    41019624:	03c23823          	sd	x28,48(x4) # 30 <SECURE_ACCESS_PROBABILITY+0x12>
    41019628:	00000e13          	li	x28,0
    4101962c:	03c23c23          	sd	x28,56(x4) # 38 <SECURE_ACCESS_PROBABILITY+0x1a>
    41019630:	00000e13          	li	x28,0
    41019634:	07c23023          	sd	x28,96(x4) # 60 <XLEN+0x20>
    41019638:	00000e13          	li	x28,0
    4101963c:	07c23423          	sd	x28,104(x4) # 68 <XLEN+0x28>
    41019640:	00000e13          	li	x28,0
    41019644:	07c23823          	sd	x28,112(x4) # 70 <XLEN+0x30>

0000000041019648 <fault_label_151>:
    41019648:	c10023f3          	csrr	x7,hpmcounter16
    4101964c:	00038793          	mv	x15,x7
    41019650:	069ced37          	lui	x26,0x69ce
    41019654:	008d0d1b          	addiw	x26,x26,8 # 69ce008 <failed_addr>
    41019658:	000d3f83          	ld	x31,0(x26)
    4101965c:	000f8067          	jr	x31

0000000041019660 <excp_return_label_151>:
    41019660:	40a44237          	lui	x4,0x40a44
    41019664:	01600e13          	li	x28,22
    41019668:	05c23823          	sd	x28,80(x4) # 40a44050 <check_excp_expected_cause>
    4101966c:	00000e17          	auipc	x28,0x0
    41019670:	048e0e13          	addi	x28,x28,72 # 410196b4 <fault_label_152>
    41019674:	03c23023          	sd	x28,32(x4) # 20 <SECURE_ACCESS_PROBABILITY+0x2>
    41019678:	00000e13          	li	x28,0
    4101967c:	05c23023          	sd	x28,64(x4) # 40 <XLEN>
    41019680:	00000e13          	li	x28,0
    41019684:	05c23423          	sd	x28,72(x4) # 48 <XLEN+0x8>
    41019688:	00000e17          	auipc	x28,0x0
    4101968c:	044e0e13          	addi	x28,x28,68 # 410196cc <excp_return_label_152>
    41019690:	03c23823          	sd	x28,48(x4) # 30 <SECURE_ACCESS_PROBABILITY+0x12>
    41019694:	00000e13          	li	x28,0
    41019698:	03c23c23          	sd	x28,56(x4) # 38 <SECURE_ACCESS_PROBABILITY+0x1a>
    4101969c:	00000e13          	li	x28,0
    410196a0:	07c23023          	sd	x28,96(x4) # 60 <XLEN+0x20>
    410196a4:	00000e13          	li	x28,0
    410196a8:	07c23423          	sd	x28,104(x4) # 68 <XLEN+0x28>
    410196ac:	00000e13          	li	x28,0
    410196b0:	07c23823          	sd	x28,112(x4) # 70 <XLEN+0x30>

00000000410196b4 <fault_label_152>:
    410196b4:	c11023f3          	csrr	x7,hpmcounter17
    410196b8:	00038613          	mv	x12,x7
    410196bc:	069ceeb7          	lui	x29,0x69ce
    410196c0:	008e8e9b          	addiw	x29,x29,8 # 69ce008 <failed_addr>
    410196c4:	000ebc83          	ld	x25,0(x29)
    410196c8:	000c8067          	jr	x25

00000000410196cc <excp_return_label_152>:
    410196cc:	40a44237          	lui	x4,0x40a44
    410196d0:	01600e13          	li	x28,22
    410196d4:	05c23823          	sd	x28,80(x4) # 40a44050 <check_excp_expected_cause>
    410196d8:	00000e17          	auipc	x28,0x0
    410196dc:	048e0e13          	addi	x28,x28,72 # 41019720 <fault_label_153>
    410196e0:	03c23023          	sd	x28,32(x4) # 20 <SECURE_ACCESS_PROBABILITY+0x2>
    410196e4:	00000e13          	li	x28,0
    410196e8:	05c23023          	sd	x28,64(x4) # 40 <XLEN>
    410196ec:	00000e13          	li	x28,0
    410196f0:	05c23423          	sd	x28,72(x4) # 48 <XLEN+0x8>
    410196f4:	00000e17          	auipc	x28,0x0
    410196f8:	044e0e13          	addi	x28,x28,68 # 41019738 <excp_return_label_153>
    410196fc:	03c23823          	sd	x28,48(x4) # 30 <SECURE_ACCESS_PROBABILITY+0x12>
    41019700:	00000e13          	li	x28,0
    41019704:	03c23c23          	sd	x28,56(x4) # 38 <SECURE_ACCESS_PROBABILITY+0x1a>
    41019708:	00000e13          	li	x28,0
    4101970c:	07c23023          	sd	x28,96(x4) # 60 <XLEN+0x20>
    41019710:	00000e13          	li	x28,0
    41019714:	07c23423          	sd	x28,104(x4) # 68 <XLEN+0x28>
    41019718:	00000e13          	li	x28,0
    4101971c:	07c23823          	sd	x28,112(x4) # 70 <XLEN+0x30>

0000000041019720 <fault_label_153>:
    41019720:	c12023f3          	csrr	x7,hpmcounter18
    41019724:	00038f93          	mv	x31,x7
    41019728:	069ce9b7          	lui	x19,0x69ce
    4101972c:	0089899b          	addiw	x19,x19,8 # 69ce008 <failed_addr>
    41019730:	0009b603          	ld	x12,0(x19)
    41019734:	00060067          	jr	x12

0000000041019738 <excp_return_label_153>:
    41019738:	40a44237          	lui	x4,0x40a44
    4101973c:	01600e13          	li	x28,22
    41019740:	05c23823          	sd	x28,80(x4) # 40a44050 <check_excp_expected_cause>
    41019744:	00000e17          	auipc	x28,0x0
    41019748:	048e0e13          	addi	x28,x28,72 # 4101978c <fault_label_154>
    4101974c:	03c23023          	sd	x28,32(x4) # 20 <SECURE_ACCESS_PROBABILITY+0x2>
    41019750:	00000e13          	li	x28,0
    41019754:	05c23023          	sd	x28,64(x4) # 40 <XLEN>
    41019758:	00000e13          	li	x28,0
    4101975c:	05c23423          	sd	x28,72(x4) # 48 <XLEN+0x8>
    41019760:	00000e17          	auipc	x28,0x0
    41019764:	044e0e13          	addi	x28,x28,68 # 410197a4 <excp_return_label_154>
    41019768:	03c23823          	sd	x28,48(x4) # 30 <SECURE_ACCESS_PROBABILITY+0x12>
    4101976c:	00000e13          	li	x28,0
    41019770:	03c23c23          	sd	x28,56(x4) # 38 <SECURE_ACCESS_PROBABILITY+0x1a>
    41019774:	00000e13          	li	x28,0
    41019778:	07c23023          	sd	x28,96(x4) # 60 <XLEN+0x20>
    4101977c:	00000e13          	li	x28,0
    41019780:	07c23423          	sd	x28,104(x4) # 68 <XLEN+0x28>
    41019784:	00000e13          	li	x28,0
    41019788:	07c23823          	sd	x28,112(x4) # 70 <XLEN+0x30>

000000004101978c <fault_label_154>:
    4101978c:	c13023f3          	csrr	x7,hpmcounter19
    41019790:	00038413          	mv	x8,x7
    41019794:	069ce6b7          	lui	x13,0x69ce
    41019798:	0086869b          	addiw	x13,x13,8 # 69ce008 <failed_addr>
    4101979c:	0006bd83          	ld	x27,0(x13)
    410197a0:	000d8067          	jr	x27

00000000410197a4 <excp_return_label_154>:
    410197a4:	40a44237          	lui	x4,0x40a44
    410197a8:	01600e13          	li	x28,22
    410197ac:	05c23823          	sd	x28,80(x4) # 40a44050 <check_excp_expected_cause>
    410197b0:	00000e17          	auipc	x28,0x0
    410197b4:	048e0e13          	addi	x28,x28,72 # 410197f8 <fault_label_155>
    410197b8:	03c23023          	sd	x28,32(x4) # 20 <SECURE_ACCESS_PROBABILITY+0x2>
    410197bc:	00000e13          	li	x28,0
    410197c0:	05c23023          	sd	x28,64(x4) # 40 <XLEN>
    410197c4:	00000e13          	li	x28,0
    410197c8:	05c23423          	sd	x28,72(x4) # 48 <XLEN+0x8>
    410197cc:	00000e17          	auipc	x28,0x0
    410197d0:	044e0e13          	addi	x28,x28,68 # 41019810 <excp_return_label_155>
    410197d4:	03c23823          	sd	x28,48(x4) # 30 <SECURE_ACCESS_PROBABILITY+0x12>
    410197d8:	00000e13          	li	x28,0
    410197dc:	03c23c23          	sd	x28,56(x4) # 38 <SECURE_ACCESS_PROBABILITY+0x1a>
    410197e0:	00000e13          	li	x28,0
    410197e4:	07c23023          	sd	x28,96(x4) # 60 <XLEN+0x20>
    410197e8:	00000e13          	li	x28,0
    410197ec:	07c23423          	sd	x28,104(x4) # 68 <XLEN+0x28>
    410197f0:	00000e13          	li	x28,0
    410197f4:	07c23823          	sd	x28,112(x4) # 70 <XLEN+0x30>

00000000410197f8 <fault_label_155>:
    410197f8:	c14023f3          	csrr	x7,hpmcounter20
    410197fc:	00038d13          	mv	x26,x7
    41019800:	069ce6b7          	lui	x13,0x69ce
    41019804:	0086869b          	addiw	x13,x13,8 # 69ce008 <failed_addr>
    41019808:	0006b803          	ld	x16,0(x13)
    4101980c:	00080067          	jr	x16

0000000041019810 <excp_return_label_155>:
    41019810:	40a44237          	lui	x4,0x40a44
    41019814:	01600e13          	li	x28,22
    41019818:	05c23823          	sd	x28,80(x4) # 40a44050 <check_excp_expected_cause>
    4101981c:	00000e17          	auipc	x28,0x0
    41019820:	048e0e13          	addi	x28,x28,72 # 41019864 <fault_label_156>
    41019824:	03c23023          	sd	x28,32(x4) # 20 <SECURE_ACCESS_PROBABILITY+0x2>
    41019828:	00000e13          	li	x28,0
    4101982c:	05c23023          	sd	x28,64(x4) # 40 <XLEN>
    41019830:	00000e13          	li	x28,0
    41019834:	05c23423          	sd	x28,72(x4) # 48 <XLEN+0x8>
    41019838:	00000e17          	auipc	x28,0x0
    4101983c:	044e0e13          	addi	x28,x28,68 # 4101987c <excp_return_label_156>
    41019840:	03c23823          	sd	x28,48(x4) # 30 <SECURE_ACCESS_PROBABILITY+0x12>
    41019844:	00000e13          	li	x28,0
    41019848:	03c23c23          	sd	x28,56(x4) # 38 <SECURE_ACCESS_PROBABILITY+0x1a>
    4101984c:	00000e13          	li	x28,0
    41019850:	07c23023          	sd	x28,96(x4) # 60 <XLEN+0x20>
    41019854:	00000e13          	li	x28,0
    41019858:	07c23423          	sd	x28,104(x4) # 68 <XLEN+0x28>
    4101985c:	00000e13          	li	x28,0
    41019860:	07c23823          	sd	x28,112(x4) # 70 <XLEN+0x30>

0000000041019864 <fault_label_156>:
    41019864:	c15023f3          	csrr	x7,hpmcounter21
    41019868:	00038413          	mv	x8,x7
    4101986c:	069cee37          	lui	x28,0x69ce
    41019870:	008e0e1b          	addiw	x28,x28,8 # 69ce008 <failed_addr>
    41019874:	000e3b03          	ld	x22,0(x28)
    41019878:	000b0067          	jr	x22

000000004101987c <excp_return_label_156>:
    4101987c:	40a44237          	lui	x4,0x40a44
    41019880:	01600e13          	li	x28,22
    41019884:	05c23823          	sd	x28,80(x4) # 40a44050 <check_excp_expected_cause>
    41019888:	00000e17          	auipc	x28,0x0
    4101988c:	048e0e13          	addi	x28,x28,72 # 410198d0 <fault_label_157>
    41019890:	03c23023          	sd	x28,32(x4) # 20 <SECURE_ACCESS_PROBABILITY+0x2>
    41019894:	00000e13          	li	x28,0
    41019898:	05c23023          	sd	x28,64(x4) # 40 <XLEN>
    4101989c:	00000e13          	li	x28,0
    410198a0:	05c23423          	sd	x28,72(x4) # 48 <XLEN+0x8>
    410198a4:	00000e17          	auipc	x28,0x0
    410198a8:	044e0e13          	addi	x28,x28,68 # 410198e8 <excp_return_label_157>
    410198ac:	03c23823          	sd	x28,48(x4) # 30 <SECURE_ACCESS_PROBABILITY+0x12>
    410198b0:	00000e13          	li	x28,0
    410198b4:	03c23c23          	sd	x28,56(x4) # 38 <SECURE_ACCESS_PROBABILITY+0x1a>
    410198b8:	00000e13          	li	x28,0
    410198bc:	07c23023          	sd	x28,96(x4) # 60 <XLEN+0x20>
    410198c0:	00000e13          	li	x28,0
    410198c4:	07c23423          	sd	x28,104(x4) # 68 <XLEN+0x28>
    410198c8:	00000e13          	li	x28,0
    410198cc:	07c23823          	sd	x28,112(x4) # 70 <XLEN+0x30>

00000000410198d0 <fault_label_157>:
    410198d0:	c16023f3          	csrr	x7,hpmcounter22
    410198d4:	00038513          	mv	x10,x7
    410198d8:	069ceeb7          	lui	x29,0x69ce
    410198dc:	008e8e9b          	addiw	x29,x29,8 # 69ce008 <failed_addr>
    410198e0:	000eba03          	ld	x20,0(x29)
    410198e4:	000a0067          	jr	x20

00000000410198e8 <excp_return_label_157>:
    410198e8:	40a44237          	lui	x4,0x40a44
    410198ec:	01600e13          	li	x28,22
    410198f0:	05c23823          	sd	x28,80(x4) # 40a44050 <check_excp_expected_cause>
    410198f4:	00000e17          	auipc	x28,0x0
    410198f8:	048e0e13          	addi	x28,x28,72 # 4101993c <fault_label_158>
    410198fc:	03c23023          	sd	x28,32(x4) # 20 <SECURE_ACCESS_PROBABILITY+0x2>
    41019900:	00000e13          	li	x28,0
    41019904:	05c23023          	sd	x28,64(x4) # 40 <XLEN>
    41019908:	00000e13          	li	x28,0
    4101990c:	05c23423          	sd	x28,72(x4) # 48 <XLEN+0x8>
    41019910:	00000e17          	auipc	x28,0x0
    41019914:	044e0e13          	addi	x28,x28,68 # 41019954 <excp_return_label_158>
    41019918:	03c23823          	sd	x28,48(x4) # 30 <SECURE_ACCESS_PROBABILITY+0x12>
    4101991c:	00000e13          	li	x28,0
    41019920:	03c23c23          	sd	x28,56(x4) # 38 <SECURE_ACCESS_PROBABILITY+0x1a>
    41019924:	00000e13          	li	x28,0
    41019928:	07c23023          	sd	x28,96(x4) # 60 <XLEN+0x20>
    4101992c:	00000e13          	li	x28,0
    41019930:	07c23423          	sd	x28,104(x4) # 68 <XLEN+0x28>
    41019934:	00000e13          	li	x28,0
    41019938:	07c23823          	sd	x28,112(x4) # 70 <XLEN+0x30>

000000004101993c <fault_label_158>:
    4101993c:	c17023f3          	csrr	x7,hpmcounter23
    41019940:	00038e93          	mv	x29,x7
    41019944:	069ce837          	lui	x16,0x69ce
    41019948:	0088081b          	addiw	x16,x16,8 # 69ce008 <failed_addr>
    4101994c:	00083e03          	ld	x28,0(x16)
    41019950:	000e0067          	jr	x28

0000000041019954 <excp_return_label_158>:
    41019954:	40a44237          	lui	x4,0x40a44
    41019958:	01600e13          	li	x28,22
    4101995c:	05c23823          	sd	x28,80(x4) # 40a44050 <check_excp_expected_cause>
    41019960:	00000e17          	auipc	x28,0x0
    41019964:	048e0e13          	addi	x28,x28,72 # 410199a8 <fault_label_159>
    41019968:	03c23023          	sd	x28,32(x4) # 20 <SECURE_ACCESS_PROBABILITY+0x2>
    4101996c:	00000e13          	li	x28,0
    41019970:	05c23023          	sd	x28,64(x4) # 40 <XLEN>
    41019974:	00000e13          	li	x28,0
    41019978:	05c23423          	sd	x28,72(x4) # 48 <XLEN+0x8>
    4101997c:	00000e17          	auipc	x28,0x0
    41019980:	044e0e13          	addi	x28,x28,68 # 410199c0 <excp_return_label_159>
    41019984:	03c23823          	sd	x28,48(x4) # 30 <SECURE_ACCESS_PROBABILITY+0x12>
    41019988:	00000e13          	li	x28,0
    4101998c:	03c23c23          	sd	x28,56(x4) # 38 <SECURE_ACCESS_PROBABILITY+0x1a>
    41019990:	00000e13          	li	x28,0
    41019994:	07c23023          	sd	x28,96(x4) # 60 <XLEN+0x20>
    41019998:	00000e13          	li	x28,0
    4101999c:	07c23423          	sd	x28,104(x4) # 68 <XLEN+0x28>
    410199a0:	00000e13          	li	x28,0
    410199a4:	07c23823          	sd	x28,112(x4) # 70 <XLEN+0x30>

00000000410199a8 <fault_label_159>:
    410199a8:	c18023f3          	csrr	x7,hpmcounter24
    410199ac:	00038f93          	mv	x31,x7
    410199b0:	069cef37          	lui	x30,0x69ce
    410199b4:	008f0f1b          	addiw	x30,x30,8 # 69ce008 <failed_addr>
    410199b8:	000f3703          	ld	x14,0(x30)
    410199bc:	00070067          	jr	x14

00000000410199c0 <excp_return_label_159>:
    410199c0:	40a44237          	lui	x4,0x40a44
    410199c4:	01600e13          	li	x28,22
    410199c8:	05c23823          	sd	x28,80(x4) # 40a44050 <check_excp_expected_cause>
    410199cc:	00000e17          	auipc	x28,0x0
    410199d0:	048e0e13          	addi	x28,x28,72 # 41019a14 <fault_label_160>
    410199d4:	03c23023          	sd	x28,32(x4) # 20 <SECURE_ACCESS_PROBABILITY+0x2>
    410199d8:	00000e13          	li	x28,0
    410199dc:	05c23023          	sd	x28,64(x4) # 40 <XLEN>
    410199e0:	00000e13          	li	x28,0
    410199e4:	05c23423          	sd	x28,72(x4) # 48 <XLEN+0x8>
    410199e8:	00000e17          	auipc	x28,0x0
    410199ec:	044e0e13          	addi	x28,x28,68 # 41019a2c <excp_return_label_160>
    410199f0:	03c23823          	sd	x28,48(x4) # 30 <SECURE_ACCESS_PROBABILITY+0x12>
    410199f4:	00000e13          	li	x28,0
    410199f8:	03c23c23          	sd	x28,56(x4) # 38 <SECURE_ACCESS_PROBABILITY+0x1a>
    410199fc:	00000e13          	li	x28,0
    41019a00:	07c23023          	sd	x28,96(x4) # 60 <XLEN+0x20>
    41019a04:	00000e13          	li	x28,0
    41019a08:	07c23423          	sd	x28,104(x4) # 68 <XLEN+0x28>
    41019a0c:	00000e13          	li	x28,0
    41019a10:	07c23823          	sd	x28,112(x4) # 70 <XLEN+0x30>

0000000041019a14 <fault_label_160>:
    41019a14:	c19023f3          	csrr	x7,hpmcounter25
    41019a18:	00038d93          	mv	x27,x7
    41019a1c:	069cea37          	lui	x20,0x69ce
    41019a20:	008a0a1b          	addiw	x20,x20,8 # 69ce008 <failed_addr>
    41019a24:	000a3d83          	ld	x27,0(x20)
    41019a28:	000d8067          	jr	x27

0000000041019a2c <excp_return_label_160>:
    41019a2c:	40a44237          	lui	x4,0x40a44
    41019a30:	01600e13          	li	x28,22
    41019a34:	05c23823          	sd	x28,80(x4) # 40a44050 <check_excp_expected_cause>
    41019a38:	00000e17          	auipc	x28,0x0
    41019a3c:	048e0e13          	addi	x28,x28,72 # 41019a80 <fault_label_161>
    41019a40:	03c23023          	sd	x28,32(x4) # 20 <SECURE_ACCESS_PROBABILITY+0x2>
    41019a44:	00000e13          	li	x28,0
    41019a48:	05c23023          	sd	x28,64(x4) # 40 <XLEN>
    41019a4c:	00000e13          	li	x28,0
    41019a50:	05c23423          	sd	x28,72(x4) # 48 <XLEN+0x8>
    41019a54:	00000e17          	auipc	x28,0x0
    41019a58:	044e0e13          	addi	x28,x28,68 # 41019a98 <excp_return_label_161>
    41019a5c:	03c23823          	sd	x28,48(x4) # 30 <SECURE_ACCESS_PROBABILITY+0x12>
    41019a60:	00000e13          	li	x28,0
    41019a64:	03c23c23          	sd	x28,56(x4) # 38 <SECURE_ACCESS_PROBABILITY+0x1a>
    41019a68:	00000e13          	li	x28,0
    41019a6c:	07c23023          	sd	x28,96(x4) # 60 <XLEN+0x20>
    41019a70:	00000e13          	li	x28,0
    41019a74:	07c23423          	sd	x28,104(x4) # 68 <XLEN+0x28>
    41019a78:	00000e13          	li	x28,0
    41019a7c:	07c23823          	sd	x28,112(x4) # 70 <XLEN+0x30>

0000000041019a80 <fault_label_161>:
    41019a80:	c1a023f3          	csrr	x7,hpmcounter26
    41019a84:	00038393          	mv	x7,x7
    41019a88:	069ce5b7          	lui	x11,0x69ce
    41019a8c:	0085859b          	addiw	x11,x11,8 # 69ce008 <failed_addr>
    41019a90:	0005bc83          	ld	x25,0(x11)
    41019a94:	000c8067          	jr	x25

0000000041019a98 <excp_return_label_161>:
    41019a98:	40a44237          	lui	x4,0x40a44
    41019a9c:	01600e13          	li	x28,22
    41019aa0:	05c23823          	sd	x28,80(x4) # 40a44050 <check_excp_expected_cause>
    41019aa4:	00000e17          	auipc	x28,0x0
    41019aa8:	048e0e13          	addi	x28,x28,72 # 41019aec <fault_label_162>
    41019aac:	03c23023          	sd	x28,32(x4) # 20 <SECURE_ACCESS_PROBABILITY+0x2>
    41019ab0:	00000e13          	li	x28,0
    41019ab4:	05c23023          	sd	x28,64(x4) # 40 <XLEN>
    41019ab8:	00000e13          	li	x28,0
    41019abc:	05c23423          	sd	x28,72(x4) # 48 <XLEN+0x8>
    41019ac0:	00000e17          	auipc	x28,0x0
    41019ac4:	044e0e13          	addi	x28,x28,68 # 41019b04 <excp_return_label_162>
    41019ac8:	03c23823          	sd	x28,48(x4) # 30 <SECURE_ACCESS_PROBABILITY+0x12>
    41019acc:	00000e13          	li	x28,0
    41019ad0:	03c23c23          	sd	x28,56(x4) # 38 <SECURE_ACCESS_PROBABILITY+0x1a>
    41019ad4:	00000e13          	li	x28,0
    41019ad8:	07c23023          	sd	x28,96(x4) # 60 <XLEN+0x20>
    41019adc:	00000e13          	li	x28,0
    41019ae0:	07c23423          	sd	x28,104(x4) # 68 <XLEN+0x28>
    41019ae4:	00000e13          	li	x28,0
    41019ae8:	07c23823          	sd	x28,112(x4) # 70 <XLEN+0x30>

0000000041019aec <fault_label_162>:
    41019aec:	c1b023f3          	csrr	x7,hpmcounter27
    41019af0:	00038593          	mv	x11,x7
    41019af4:	069cefb7          	lui	x31,0x69ce
    41019af8:	008f8f9b          	addiw	x31,x31,8 # 69ce008 <failed_addr>
    41019afc:	000fbf03          	ld	x30,0(x31)
    41019b00:	000f0067          	jr	x30

0000000041019b04 <excp_return_label_162>:
    41019b04:	40a44237          	lui	x4,0x40a44
    41019b08:	01600e13          	li	x28,22
    41019b0c:	05c23823          	sd	x28,80(x4) # 40a44050 <check_excp_expected_cause>
    41019b10:	00000e17          	auipc	x28,0x0
    41019b14:	048e0e13          	addi	x28,x28,72 # 41019b58 <fault_label_163>
    41019b18:	03c23023          	sd	x28,32(x4) # 20 <SECURE_ACCESS_PROBABILITY+0x2>
    41019b1c:	00000e13          	li	x28,0
    41019b20:	05c23023          	sd	x28,64(x4) # 40 <XLEN>
    41019b24:	00000e13          	li	x28,0
    41019b28:	05c23423          	sd	x28,72(x4) # 48 <XLEN+0x8>
    41019b2c:	00000e17          	auipc	x28,0x0
    41019b30:	044e0e13          	addi	x28,x28,68 # 41019b70 <excp_return_label_163>
    41019b34:	03c23823          	sd	x28,48(x4) # 30 <SECURE_ACCESS_PROBABILITY+0x12>
    41019b38:	00000e13          	li	x28,0
    41019b3c:	03c23c23          	sd	x28,56(x4) # 38 <SECURE_ACCESS_PROBABILITY+0x1a>
    41019b40:	00000e13          	li	x28,0
    41019b44:	07c23023          	sd	x28,96(x4) # 60 <XLEN+0x20>
    41019b48:	00000e13          	li	x28,0
    41019b4c:	07c23423          	sd	x28,104(x4) # 68 <XLEN+0x28>
    41019b50:	00000e13          	li	x28,0
    41019b54:	07c23823          	sd	x28,112(x4) # 70 <XLEN+0x30>

0000000041019b58 <fault_label_163>:
    41019b58:	c1c023f3          	csrr	x7,hpmcounter28
    41019b5c:	00038493          	mv	x9,x7
    41019b60:	069ce837          	lui	x16,0x69ce
    41019b64:	0088081b          	addiw	x16,x16,8 # 69ce008 <failed_addr>
    41019b68:	00083803          	ld	x16,0(x16)
    41019b6c:	00080067          	jr	x16

0000000041019b70 <excp_return_label_163>:
    41019b70:	40a44237          	lui	x4,0x40a44
    41019b74:	01600e13          	li	x28,22
    41019b78:	05c23823          	sd	x28,80(x4) # 40a44050 <check_excp_expected_cause>
    41019b7c:	00000e17          	auipc	x28,0x0
    41019b80:	048e0e13          	addi	x28,x28,72 # 41019bc4 <fault_label_164>
    41019b84:	03c23023          	sd	x28,32(x4) # 20 <SECURE_ACCESS_PROBABILITY+0x2>
    41019b88:	00000e13          	li	x28,0
    41019b8c:	05c23023          	sd	x28,64(x4) # 40 <XLEN>
    41019b90:	00000e13          	li	x28,0
    41019b94:	05c23423          	sd	x28,72(x4) # 48 <XLEN+0x8>
    41019b98:	00000e17          	auipc	x28,0x0
    41019b9c:	044e0e13          	addi	x28,x28,68 # 41019bdc <excp_return_label_164>
    41019ba0:	03c23823          	sd	x28,48(x4) # 30 <SECURE_ACCESS_PROBABILITY+0x12>
    41019ba4:	00000e13          	li	x28,0
    41019ba8:	03c23c23          	sd	x28,56(x4) # 38 <SECURE_ACCESS_PROBABILITY+0x1a>
    41019bac:	00000e13          	li	x28,0
    41019bb0:	07c23023          	sd	x28,96(x4) # 60 <XLEN+0x20>
    41019bb4:	00000e13          	li	x28,0
    41019bb8:	07c23423          	sd	x28,104(x4) # 68 <XLEN+0x28>
    41019bbc:	00000e13          	li	x28,0
    41019bc0:	07c23823          	sd	x28,112(x4) # 70 <XLEN+0x30>

0000000041019bc4 <fault_label_164>:
    41019bc4:	c1d023f3          	csrr	x7,hpmcounter29
    41019bc8:	00038c93          	mv	x25,x7
    41019bcc:	069cec37          	lui	x24,0x69ce
    41019bd0:	008c0c1b          	addiw	x24,x24,8 # 69ce008 <failed_addr>
    41019bd4:	000c3903          	ld	x18,0(x24)
    41019bd8:	00090067          	jr	x18

0000000041019bdc <excp_return_label_164>:
    41019bdc:	40a44237          	lui	x4,0x40a44
    41019be0:	01600e13          	li	x28,22
    41019be4:	05c23823          	sd	x28,80(x4) # 40a44050 <check_excp_expected_cause>
    41019be8:	00000e17          	auipc	x28,0x0
    41019bec:	048e0e13          	addi	x28,x28,72 # 41019c30 <fault_label_165>
    41019bf0:	03c23023          	sd	x28,32(x4) # 20 <SECURE_ACCESS_PROBABILITY+0x2>
    41019bf4:	00000e13          	li	x28,0
    41019bf8:	05c23023          	sd	x28,64(x4) # 40 <XLEN>
    41019bfc:	00000e13          	li	x28,0
    41019c00:	05c23423          	sd	x28,72(x4) # 48 <XLEN+0x8>
    41019c04:	00000e17          	auipc	x28,0x0
    41019c08:	044e0e13          	addi	x28,x28,68 # 41019c48 <excp_return_label_165>
    41019c0c:	03c23823          	sd	x28,48(x4) # 30 <SECURE_ACCESS_PROBABILITY+0x12>
    41019c10:	00000e13          	li	x28,0
    41019c14:	03c23c23          	sd	x28,56(x4) # 38 <SECURE_ACCESS_PROBABILITY+0x1a>
    41019c18:	00000e13          	li	x28,0
    41019c1c:	07c23023          	sd	x28,96(x4) # 60 <XLEN+0x20>
    41019c20:	00000e13          	li	x28,0
    41019c24:	07c23423          	sd	x28,104(x4) # 68 <XLEN+0x28>
    41019c28:	00000e13          	li	x28,0
    41019c2c:	07c23823          	sd	x28,112(x4) # 70 <XLEN+0x30>

0000000041019c30 <fault_label_165>:
    41019c30:	c1e023f3          	csrr	x7,hpmcounter30
    41019c34:	00038f13          	mv	x30,x7
    41019c38:	069cecb7          	lui	x25,0x69ce
    41019c3c:	008c8c9b          	addiw	x25,x25,8 # 69ce008 <failed_addr>
    41019c40:	000cbe03          	ld	x28,0(x25)
    41019c44:	000e0067          	jr	x28

0000000041019c48 <excp_return_label_165>:
    41019c48:	40a44237          	lui	x4,0x40a44
    41019c4c:	01600e13          	li	x28,22
    41019c50:	05c23823          	sd	x28,80(x4) # 40a44050 <check_excp_expected_cause>
    41019c54:	00000e17          	auipc	x28,0x0
    41019c58:	048e0e13          	addi	x28,x28,72 # 41019c9c <fault_label_166>
    41019c5c:	03c23023          	sd	x28,32(x4) # 20 <SECURE_ACCESS_PROBABILITY+0x2>
    41019c60:	00000e13          	li	x28,0
    41019c64:	05c23023          	sd	x28,64(x4) # 40 <XLEN>
    41019c68:	00000e13          	li	x28,0
    41019c6c:	05c23423          	sd	x28,72(x4) # 48 <XLEN+0x8>
    41019c70:	00000e17          	auipc	x28,0x0
    41019c74:	044e0e13          	addi	x28,x28,68 # 41019cb4 <excp_return_label_166>
    41019c78:	03c23823          	sd	x28,48(x4) # 30 <SECURE_ACCESS_PROBABILITY+0x12>
    41019c7c:	00000e13          	li	x28,0
    41019c80:	03c23c23          	sd	x28,56(x4) # 38 <SECURE_ACCESS_PROBABILITY+0x1a>
    41019c84:	00000e13          	li	x28,0
    41019c88:	07c23023          	sd	x28,96(x4) # 60 <XLEN+0x20>
    41019c8c:	00000e13          	li	x28,0
    41019c90:	07c23423          	sd	x28,104(x4) # 68 <XLEN+0x28>
    41019c94:	00000e13          	li	x28,0
    41019c98:	07c23823          	sd	x28,112(x4) # 70 <XLEN+0x30>

0000000041019c9c <fault_label_166>:
    41019c9c:	c1f023f3          	csrr	x7,hpmcounter31
    41019ca0:	00038d93          	mv	x27,x7
    41019ca4:	069ce6b7          	lui	x13,0x69ce
    41019ca8:	0086869b          	addiw	x13,x13,8 # 69ce008 <failed_addr>
    41019cac:	0006b483          	ld	x9,0(x13)
    41019cb0:	00048067          	jr	x9

0000000041019cb4 <excp_return_label_166>:
    41019cb4:	0006c137          	lui	x2,0x6c
    41019cb8:	00013383          	ld	x7,0(x2) # 6c000 <tp_csr_storage>
    41019cbc:	069cefb7          	lui	x31,0x69ce
    41019cc0:	0b8f8f9b          	addiw	x31,x31,184 # 69ce0b8 <super_csr_jump_table_flags>
    41019cc4:	02b00f13          	li	x30,43
    41019cc8:	01efb023          	sd	x30,0(x31)
    41019ccc:	000f0fb7          	lui	x31,0xf0
    41019cd0:	001f8f9b          	addiw	x31,x31,1 # f0001 <SID_HEXCEP_09_hinval_vvma_vu_stack+0x25001>
    41019cd4:	00cf9f93          	slli	x31,x31,0xc
    41019cd8:	006f8f93          	addi	x31,x31,6
    41019cdc:	00000073          	ecall
    41019ce0:	00813383          	ld	x7,8(x2)
    41019ce4:	069cefb7          	lui	x31,0x69ce
    41019ce8:	0b0f8f9b          	addiw	x31,x31,176 # 69ce0b0 <machine_csr_jump_table_flags>
    41019cec:	02c00f13          	li	x30,44
    41019cf0:	01efb023          	sd	x30,0(x31)
    41019cf4:	000f0fb7          	lui	x31,0xf0
    41019cf8:	001f8f9b          	addiw	x31,x31,1 # f0001 <SID_HEXCEP_09_hinval_vvma_vu_stack+0x25001>
    41019cfc:	00cf9f93          	slli	x31,x31,0xc
    41019d00:	005f8f93          	addi	x31,x31,5
    41019d04:	00000073          	ecall
    41019d08:	01013383          	ld	x7,16(x2)
    41019d0c:	069cefb7          	lui	x31,0x69ce
    41019d10:	0b8f8f9b          	addiw	x31,x31,184 # 69ce0b8 <super_csr_jump_table_flags>
    41019d14:	02d00f13          	li	x30,45
    41019d18:	01efb023          	sd	x30,0(x31)
    41019d1c:	000f0fb7          	lui	x31,0xf0
    41019d20:	001f8f9b          	addiw	x31,x31,1 # f0001 <SID_HEXCEP_09_hinval_vvma_vu_stack+0x25001>
    41019d24:	00cf9f93          	slli	x31,x31,0xc
    41019d28:	006f8f93          	addi	x31,x31,6
    41019d2c:	00000073          	ecall

0000000041019d30 <SID_HEXCEP_07_vu_mode_case3_passed>:
    41019d30:	00f00f9b          	addiw	x31,x0,15
    41019d34:	01cf9f93          	slli	x31,x31,0x1c
    41019d38:	001f8f93          	addi	x31,x31,1
    41019d3c:	00000073          	ecall

0000000041019d40 <SID_HEXCEP_08>:
    41019d40:	07e50137          	lui	x2,0x7e50
    41019d44:	000012b7          	lui	x5,0x1
    41019d48:	00510133          	add	x2,x2,x5
    41019d4c:	ff017113          	andi	x2,x2,-16
    41019d50:	40a44237          	lui	x4,0x40a44
    41019d54:	01600e13          	li	x28,22
    41019d58:	05c23823          	sd	x28,80(x4) # 40a44050 <check_excp_expected_cause>
    41019d5c:	00000e17          	auipc	x28,0x0
    41019d60:	04ce0e13          	addi	x28,x28,76 # 41019da8 <fault_label_167>
    41019d64:	03c23023          	sd	x28,32(x4) # 20 <SECURE_ACCESS_PROBABILITY+0x2>
    41019d68:	00000e13          	li	x28,0
    41019d6c:	05c23023          	sd	x28,64(x4) # 40 <XLEN>
    41019d70:	00000e13          	li	x28,0
    41019d74:	05c23423          	sd	x28,72(x4) # 48 <XLEN+0x8>
    41019d78:	00000e17          	auipc	x28,0x0
    41019d7c:	044e0e13          	addi	x28,x28,68 # 41019dbc <excp_return_label_167>
    41019d80:	03c23823          	sd	x28,48(x4) # 30 <SECURE_ACCESS_PROBABILITY+0x12>
    41019d84:	00000e13          	li	x28,0
    41019d88:	03c23c23          	sd	x28,56(x4) # 38 <SECURE_ACCESS_PROBABILITY+0x1a>
    41019d8c:	00000e13          	li	x28,0
    41019d90:	07c23023          	sd	x28,96(x4) # 60 <XLEN+0x20>
    41019d94:	00000e13          	li	x28,0
    41019d98:	07c23423          	sd	x28,104(x4) # 68 <XLEN+0x28>
    41019d9c:	00000e13          	li	x28,0
    41019da0:	07c23823          	sd	x28,112(x4) # 70 <XLEN+0x30>
    41019da4:	0001de37          	lui	x28,0x1d

0000000041019da8 <fault_label_167>:
    41019da8:	641e4673          	hlv.hu	x12,(x28)
    41019dac:	069cee37          	lui	x28,0x69ce
    41019db0:	008e0e1b          	addiw	x28,x28,8 # 69ce008 <failed_addr>
    41019db4:	000e3403          	ld	x8,0(x28)
    41019db8:	00040067          	jr	x8

0000000041019dbc <excp_return_label_167>:
    41019dbc:	40a44237          	lui	x4,0x40a44
    41019dc0:	01600e13          	li	x28,22
    41019dc4:	05c23823          	sd	x28,80(x4) # 40a44050 <check_excp_expected_cause>
    41019dc8:	00000e17          	auipc	x28,0x0
    41019dcc:	04ce0e13          	addi	x28,x28,76 # 41019e14 <fault_label_168>
    41019dd0:	03c23023          	sd	x28,32(x4) # 20 <SECURE_ACCESS_PROBABILITY+0x2>
    41019dd4:	00000e13          	li	x28,0
    41019dd8:	05c23023          	sd	x28,64(x4) # 40 <XLEN>
    41019ddc:	00000e13          	li	x28,0
    41019de0:	05c23423          	sd	x28,72(x4) # 48 <XLEN+0x8>
    41019de4:	00000e17          	auipc	x28,0x0
    41019de8:	044e0e13          	addi	x28,x28,68 # 41019e28 <excp_return_label_168>
    41019dec:	03c23823          	sd	x28,48(x4) # 30 <SECURE_ACCESS_PROBABILITY+0x12>
    41019df0:	00000e13          	li	x28,0
    41019df4:	03c23c23          	sd	x28,56(x4) # 38 <SECURE_ACCESS_PROBABILITY+0x1a>
    41019df8:	00000e13          	li	x28,0
    41019dfc:	07c23023          	sd	x28,96(x4) # 60 <XLEN+0x20>
    41019e00:	00000e13          	li	x28,0
    41019e04:	07c23423          	sd	x28,104(x4) # 68 <XLEN+0x28>
    41019e08:	00000e13          	li	x28,0
    41019e0c:	07c23823          	sd	x28,112(x4) # 70 <XLEN+0x30>
    41019e10:	0001d9b7          	lui	x19,0x1d

0000000041019e14 <fault_label_168>:
    41019e14:	6439c373          	hlvx.hu	x6,(x19)
    41019e18:	069cecb7          	lui	x25,0x69ce
    41019e1c:	008c8c9b          	addiw	x25,x25,8 # 69ce008 <failed_addr>
    41019e20:	000cbe83          	ld	x29,0(x25)
    41019e24:	000e8067          	jr	x29

0000000041019e28 <excp_return_label_168>:
    41019e28:	0ab00c93          	li	x25,171
    41019e2c:	40a44237          	lui	x4,0x40a44
    41019e30:	01600e13          	li	x28,22
    41019e34:	05c23823          	sd	x28,80(x4) # 40a44050 <check_excp_expected_cause>
    41019e38:	00000e17          	auipc	x28,0x0
    41019e3c:	04ce0e13          	addi	x28,x28,76 # 41019e84 <fault_label_169>
    41019e40:	03c23023          	sd	x28,32(x4) # 20 <SECURE_ACCESS_PROBABILITY+0x2>
    41019e44:	00000e13          	li	x28,0
    41019e48:	05c23023          	sd	x28,64(x4) # 40 <XLEN>
    41019e4c:	00000e13          	li	x28,0
    41019e50:	05c23423          	sd	x28,72(x4) # 48 <XLEN+0x8>
    41019e54:	00000e17          	auipc	x28,0x0
    41019e58:	044e0e13          	addi	x28,x28,68 # 41019e98 <excp_return_label_169>
    41019e5c:	03c23823          	sd	x28,48(x4) # 30 <SECURE_ACCESS_PROBABILITY+0x12>
    41019e60:	00000e13          	li	x28,0
    41019e64:	03c23c23          	sd	x28,56(x4) # 38 <SECURE_ACCESS_PROBABILITY+0x1a>
    41019e68:	00000e13          	li	x28,0
    41019e6c:	07c23023          	sd	x28,96(x4) # 60 <XLEN+0x20>
    41019e70:	00000e13          	li	x28,0
    41019e74:	07c23423          	sd	x28,104(x4) # 68 <XLEN+0x28>
    41019e78:	00000e13          	li	x28,0
    41019e7c:	07c23823          	sd	x28,112(x4) # 70 <XLEN+0x30>
    41019e80:	0001d437          	lui	x8,0x1d

0000000041019e84 <fault_label_169>:
    41019e84:	6b944073          	hsv.w	x25,(x8)
    41019e88:	069ce537          	lui	x10,0x69ce
    41019e8c:	0085051b          	addiw	x10,x10,8 # 69ce008 <failed_addr>
    41019e90:	00053403          	ld	x8,0(x10)
    41019e94:	00040067          	jr	x8 # 1d000 <mem0>

0000000041019e98 <excp_return_label_169>:
    41019e98:	40a44237          	lui	x4,0x40a44
    41019e9c:	01600e13          	li	x28,22
    41019ea0:	05c23823          	sd	x28,80(x4) # 40a44050 <check_excp_expected_cause>
    41019ea4:	00000e17          	auipc	x28,0x0
    41019ea8:	054e0e13          	addi	x28,x28,84 # 41019ef8 <fault_label_170>
    41019eac:	03c23023          	sd	x28,32(x4) # 20 <SECURE_ACCESS_PROBABILITY+0x2>
    41019eb0:	00000e13          	li	x28,0
    41019eb4:	05c23023          	sd	x28,64(x4) # 40 <XLEN>
    41019eb8:	00000e13          	li	x28,0
    41019ebc:	05c23423          	sd	x28,72(x4) # 48 <XLEN+0x8>
    41019ec0:	00000e17          	auipc	x28,0x0
    41019ec4:	04ce0e13          	addi	x28,x28,76 # 41019f0c <excp_return_label_170>
    41019ec8:	03c23823          	sd	x28,48(x4) # 30 <SECURE_ACCESS_PROBABILITY+0x12>
    41019ecc:	00000e13          	li	x28,0
    41019ed0:	03c23c23          	sd	x28,56(x4) # 38 <SECURE_ACCESS_PROBABILITY+0x1a>
    41019ed4:	00000e13          	li	x28,0
    41019ed8:	07c23023          	sd	x28,96(x4) # 60 <XLEN+0x20>
    41019edc:	00000e13          	li	x28,0
    41019ee0:	07c23423          	sd	x28,104(x4) # 68 <XLEN+0x28>
    41019ee4:	00000e13          	li	x28,0
    41019ee8:	07c23823          	sd	x28,112(x4) # 70 <XLEN+0x30>
    41019eec:	0001d637          	lui	x12,0x1d
    41019ef0:	00000d93          	li	x27,0
    41019ef4:	01b60cb3          	add	x25,x12,x27

0000000041019ef8 <fault_label_170>:
    41019ef8:	220c8073          	hfence.vvma	x25
    41019efc:	069ceab7          	lui	x21,0x69ce
    41019f00:	008a8a9b          	addiw	x21,x21,8 # 69ce008 <failed_addr>
    41019f04:	000abf03          	ld	x30,0(x21)
    41019f08:	000f0067          	jr	x30

0000000041019f0c <excp_return_label_170>:
    41019f0c:	40a44237          	lui	x4,0x40a44
    41019f10:	01600e13          	li	x28,22
    41019f14:	05c23823          	sd	x28,80(x4) # 40a44050 <check_excp_expected_cause>
    41019f18:	00000e17          	auipc	x28,0x0
    41019f1c:	054e0e13          	addi	x28,x28,84 # 41019f6c <fault_label_171>
    41019f20:	03c23023          	sd	x28,32(x4) # 20 <SECURE_ACCESS_PROBABILITY+0x2>
    41019f24:	00000e13          	li	x28,0
    41019f28:	05c23023          	sd	x28,64(x4) # 40 <XLEN>
    41019f2c:	00000e13          	li	x28,0
    41019f30:	05c23423          	sd	x28,72(x4) # 48 <XLEN+0x8>
    41019f34:	00000e17          	auipc	x28,0x0
    41019f38:	04ce0e13          	addi	x28,x28,76 # 41019f80 <SID_HEXCEP_08_passed>
    41019f3c:	03c23823          	sd	x28,48(x4) # 30 <SECURE_ACCESS_PROBABILITY+0x12>
    41019f40:	00000e13          	li	x28,0
    41019f44:	03c23c23          	sd	x28,56(x4) # 38 <SECURE_ACCESS_PROBABILITY+0x1a>
    41019f48:	00000e13          	li	x28,0
    41019f4c:	07c23023          	sd	x28,96(x4) # 60 <XLEN+0x20>
    41019f50:	00000e13          	li	x28,0
    41019f54:	07c23423          	sd	x28,104(x4) # 68 <XLEN+0x28>
    41019f58:	00000e13          	li	x28,0
    41019f5c:	07c23823          	sd	x28,112(x4) # 70 <XLEN+0x30>
    41019f60:	0001d937          	lui	x18,0x1d
    41019f64:	00000313          	li	x6,0
    41019f68:	00690e33          	add	x28,x18,x6

0000000041019f6c <fault_label_171>:
    41019f6c:	620e0073          	hfence.gvma	x28
    41019f70:	069ce3b7          	lui	x7,0x69ce
    41019f74:	0083839b          	addiw	x7,x7,8 # 69ce008 <failed_addr>
    41019f78:	0003b683          	ld	x13,0(x7)
    41019f7c:	00068067          	jr	x13

0000000041019f80 <SID_HEXCEP_08_passed>:
    41019f80:	00f00f9b          	addiw	x31,x0,15
    41019f84:	01cf9f93          	slli	x31,x31,0x1c
    41019f88:	001f8f93          	addi	x31,x31,1
    41019f8c:	00000073          	ecall

0000000041019f90 <SID_HEXCEP_09_mret_in_vs_vu>:
    41019f90:	0002f137          	lui	x2,0x2f
    41019f94:	b951011b          	addiw	x2,x2,-1131 # 2eb95 <mem0+0x11b95>
    41019f98:	01011113          	slli	x2,x2,0x10
    41019f9c:	000012b7          	lui	x5,0x1
    41019fa0:	00510133          	add	x2,x2,x5
    41019fa4:	ff017113          	andi	x2,x2,-16
    41019fa8:	40a44237          	lui	x4,0x40a44
    41019fac:	00200e13          	li	x28,2
    41019fb0:	05c23823          	sd	x28,80(x4) # 40a44050 <check_excp_expected_cause>
    41019fb4:	00000e17          	auipc	x28,0x0
    41019fb8:	048e0e13          	addi	x28,x28,72 # 41019ffc <fault_label_172>
    41019fbc:	03c23023          	sd	x28,32(x4) # 20 <SECURE_ACCESS_PROBABILITY+0x2>
    41019fc0:	00000e13          	li	x28,0
    41019fc4:	05c23023          	sd	x28,64(x4) # 40 <XLEN>
    41019fc8:	00000e13          	li	x28,0
    41019fcc:	05c23423          	sd	x28,72(x4) # 48 <XLEN+0x8>
    41019fd0:	00000e17          	auipc	x28,0x0
    41019fd4:	040e0e13          	addi	x28,x28,64 # 4101a010 <SID_HEXCEP_09_mret_in_vs_vu_passed>
    41019fd8:	03c23823          	sd	x28,48(x4) # 30 <SECURE_ACCESS_PROBABILITY+0x12>
    41019fdc:	00000e13          	li	x28,0
    41019fe0:	03c23c23          	sd	x28,56(x4) # 38 <SECURE_ACCESS_PROBABILITY+0x1a>
    41019fe4:	00000e13          	li	x28,0
    41019fe8:	07c23023          	sd	x28,96(x4) # 60 <XLEN+0x20>
    41019fec:	00000e13          	li	x28,0
    41019ff0:	07c23423          	sd	x28,104(x4) # 68 <XLEN+0x28>
    41019ff4:	00000e13          	li	x28,0
    41019ff8:	07c23823          	sd	x28,112(x4) # 70 <XLEN+0x30>

0000000041019ffc <fault_label_172>:
    41019ffc:	30200073          	mret
    4101a000:	069cecb7          	lui	x25,0x69ce
    4101a004:	008c8c9b          	addiw	x25,x25,8 # 69ce008 <failed_addr>
    4101a008:	000cbf83          	ld	x31,0(x25)
    4101a00c:	000f8067          	jr	x31

000000004101a010 <SID_HEXCEP_09_mret_in_vs_vu_passed>:
    4101a010:	00f00f9b          	addiw	x31,x0,15
    4101a014:	01cf9f93          	slli	x31,x31,0x1c
    4101a018:	001f8f93          	addi	x31,x31,1
    4101a01c:	00000073          	ecall

000000004101a020 <SID_HEXCEP_09_wfi_vu>:
    4101a020:	0006c137          	lui	x2,0x6c
    4101a024:	069cefb7          	lui	x31,0x69ce
    4101a028:	0b0f8f9b          	addiw	x31,x31,176 # 69ce0b0 <machine_csr_jump_table_flags>
    4101a02c:	00100f13          	li	x30,1
    4101a030:	01efb023          	sd	x30,0(x31)
    4101a034:	000f0fb7          	lui	x31,0xf0
    4101a038:	001f8f9b          	addiw	x31,x31,1 # f0001 <SID_HEXCEP_09_hinval_vvma_vu_stack+0x25001>
    4101a03c:	00cf9f93          	slli	x31,x31,0xc
    4101a040:	005f8f93          	addi	x31,x31,5
    4101a044:	00000073          	ecall
    4101a048:	00713023          	sd	x7,0(x2) # 6c000 <tp_csr_storage>
    4101a04c:	00a6d137          	lui	x2,0xa6d
    4101a050:	e7d1011b          	addiw	x2,x2,-387 # a6ce7d <SID_HEXCEP_05_stack+0x229e7d>
    4101a054:	00e11113          	slli	x2,x2,0xe
    4101a058:	eff10113          	addi	x2,x2,-257
    4101a05c:	00c11113          	slli	x2,x2,0xc
    4101a060:	000012b7          	lui	x5,0x1
    4101a064:	00510133          	add	x2,x2,x5
    4101a068:	ff017113          	andi	x2,x2,-16
    4101a06c:	002003b7          	lui	x7,0x200
    4101a070:	069cefb7          	lui	x31,0x69ce
    4101a074:	0b0f8f9b          	addiw	x31,x31,176 # 69ce0b0 <machine_csr_jump_table_flags>
    4101a078:	00200f13          	li	x30,2
    4101a07c:	01efb023          	sd	x30,0(x31)
    4101a080:	000f0fb7          	lui	x31,0xf0
    4101a084:	001f8f9b          	addiw	x31,x31,1 # f0001 <SID_HEXCEP_09_hinval_vvma_vu_stack+0x25001>
    4101a088:	00cf9f93          	slli	x31,x31,0xc
    4101a08c:	005f8f93          	addi	x31,x31,5
    4101a090:	00000073          	ecall
    4101a094:	40a44237          	lui	x4,0x40a44
    4101a098:	01600e13          	li	x28,22
    4101a09c:	05c23823          	sd	x28,80(x4) # 40a44050 <check_excp_expected_cause>
    4101a0a0:	00000e17          	auipc	x28,0x0
    4101a0a4:	048e0e13          	addi	x28,x28,72 # 4101a0e8 <fault_label_173>
    4101a0a8:	03c23023          	sd	x28,32(x4) # 20 <SECURE_ACCESS_PROBABILITY+0x2>
    4101a0ac:	00000e13          	li	x28,0
    4101a0b0:	05c23023          	sd	x28,64(x4) # 40 <XLEN>
    4101a0b4:	00000e13          	li	x28,0
    4101a0b8:	05c23423          	sd	x28,72(x4) # 48 <XLEN+0x8>
    4101a0bc:	00000e17          	auipc	x28,0x0
    4101a0c0:	040e0e13          	addi	x28,x28,64 # 4101a0fc <excp_return_label_173>
    4101a0c4:	03c23823          	sd	x28,48(x4) # 30 <SECURE_ACCESS_PROBABILITY+0x12>
    4101a0c8:	00000e13          	li	x28,0
    4101a0cc:	03c23c23          	sd	x28,56(x4) # 38 <SECURE_ACCESS_PROBABILITY+0x1a>
    4101a0d0:	00000e13          	li	x28,0
    4101a0d4:	07c23023          	sd	x28,96(x4) # 60 <XLEN+0x20>
    4101a0d8:	00000e13          	li	x28,0
    4101a0dc:	07c23423          	sd	x28,104(x4) # 68 <XLEN+0x28>
    4101a0e0:	00000e13          	li	x28,0
    4101a0e4:	07c23823          	sd	x28,112(x4) # 70 <XLEN+0x30>

000000004101a0e8 <fault_label_173>:
    4101a0e8:	10500073          	wfi
    4101a0ec:	069ce937          	lui	x18,0x69ce
    4101a0f0:	0089091b          	addiw	x18,x18,8 # 69ce008 <failed_addr>
    4101a0f4:	00093603          	ld	x12,0(x18)
    4101a0f8:	00060067          	jr	x12 # 1d000 <mem0>

000000004101a0fc <excp_return_label_173>:
    4101a0fc:	0006c137          	lui	x2,0x6c
    4101a100:	00013383          	ld	x7,0(x2) # 6c000 <tp_csr_storage>
    4101a104:	069cefb7          	lui	x31,0x69ce
    4101a108:	0b0f8f9b          	addiw	x31,x31,176 # 69ce0b0 <machine_csr_jump_table_flags>
    4101a10c:	00400f13          	li	x30,4
    4101a110:	01efb023          	sd	x30,0(x31)
    4101a114:	000f0fb7          	lui	x31,0xf0
    4101a118:	001f8f9b          	addiw	x31,x31,1 # f0001 <SID_HEXCEP_09_hinval_vvma_vu_stack+0x25001>
    4101a11c:	00cf9f93          	slli	x31,x31,0xc
    4101a120:	005f8f93          	addi	x31,x31,5
    4101a124:	00000073          	ecall

000000004101a128 <SID_HEXCEP_09_wfi_vu_passed>:
    4101a128:	00f00f9b          	addiw	x31,x0,15
    4101a12c:	01cf9f93          	slli	x31,x31,0x1c
    4101a130:	001f8f93          	addi	x31,x31,1
    4101a134:	00000073          	ecall

000000004101a138 <SID_HEXCEP_09_sret_vu>:
    4101a138:	40910137          	lui	x2,0x40910
    4101a13c:	000012b7          	lui	x5,0x1
    4101a140:	00510133          	add	x2,x2,x5
    4101a144:	ff017113          	andi	x2,x2,-16
    4101a148:	40a44237          	lui	x4,0x40a44
    4101a14c:	01600e13          	li	x28,22
    4101a150:	05c23823          	sd	x28,80(x4) # 40a44050 <check_excp_expected_cause>
    4101a154:	00000e17          	auipc	x28,0x0
    4101a158:	048e0e13          	addi	x28,x28,72 # 4101a19c <fault_label_174>
    4101a15c:	03c23023          	sd	x28,32(x4) # 20 <SECURE_ACCESS_PROBABILITY+0x2>
    4101a160:	00000e13          	li	x28,0
    4101a164:	05c23023          	sd	x28,64(x4) # 40 <XLEN>
    4101a168:	00000e13          	li	x28,0
    4101a16c:	05c23423          	sd	x28,72(x4) # 48 <XLEN+0x8>
    4101a170:	00000e17          	auipc	x28,0x0
    4101a174:	040e0e13          	addi	x28,x28,64 # 4101a1b0 <SID_HEXCEP_09_sret_vu_passed>
    4101a178:	03c23823          	sd	x28,48(x4) # 30 <SECURE_ACCESS_PROBABILITY+0x12>
    4101a17c:	00000e13          	li	x28,0
    4101a180:	03c23c23          	sd	x28,56(x4) # 38 <SECURE_ACCESS_PROBABILITY+0x1a>
    4101a184:	00000e13          	li	x28,0
    4101a188:	07c23023          	sd	x28,96(x4) # 60 <XLEN+0x20>
    4101a18c:	00000e13          	li	x28,0
    4101a190:	07c23423          	sd	x28,104(x4) # 68 <XLEN+0x28>
    4101a194:	00000e13          	li	x28,0
    4101a198:	07c23823          	sd	x28,112(x4) # 70 <XLEN+0x30>

000000004101a19c <fault_label_174>:
    4101a19c:	10200073          	sret
    4101a1a0:	069cef37          	lui	x30,0x69ce
    4101a1a4:	008f0f1b          	addiw	x30,x30,8 # 69ce008 <failed_addr>
    4101a1a8:	000f3f83          	ld	x31,0(x30)
    4101a1ac:	000f8067          	jr	x31

000000004101a1b0 <SID_HEXCEP_09_sret_vu_passed>:
    4101a1b0:	00f00f9b          	addiw	x31,x0,15
    4101a1b4:	01cf9f93          	slli	x31,x31,0x1c
    4101a1b8:	001f8f93          	addi	x31,x31,1
    4101a1bc:	00000073          	ecall

000000004101a1c0 <SID_HEXCEP_09_sfence_vma_vu>:
    4101a1c0:	00116137          	lui	x2,0x116
    4101a1c4:	000012b7          	lui	x5,0x1
    4101a1c8:	00510133          	add	x2,x2,x5
    4101a1cc:	ff017113          	andi	x2,x2,-16
    4101a1d0:	40a44237          	lui	x4,0x40a44
    4101a1d4:	01600e13          	li	x28,22
    4101a1d8:	05c23823          	sd	x28,80(x4) # 40a44050 <check_excp_expected_cause>
    4101a1dc:	00000e17          	auipc	x28,0x0
    4101a1e0:	048e0e13          	addi	x28,x28,72 # 4101a224 <fault_label_175>
    4101a1e4:	03c23023          	sd	x28,32(x4) # 20 <SECURE_ACCESS_PROBABILITY+0x2>
    4101a1e8:	00000e13          	li	x28,0
    4101a1ec:	05c23023          	sd	x28,64(x4) # 40 <XLEN>
    4101a1f0:	00000e13          	li	x28,0
    4101a1f4:	05c23423          	sd	x28,72(x4) # 48 <XLEN+0x8>
    4101a1f8:	00000e17          	auipc	x28,0x0
    4101a1fc:	040e0e13          	addi	x28,x28,64 # 4101a238 <SID_HEXCEP_09_sfence_vma_vu_passed>
    4101a200:	03c23823          	sd	x28,48(x4) # 30 <SECURE_ACCESS_PROBABILITY+0x12>
    4101a204:	00000e13          	li	x28,0
    4101a208:	03c23c23          	sd	x28,56(x4) # 38 <SECURE_ACCESS_PROBABILITY+0x1a>
    4101a20c:	00000e13          	li	x28,0
    4101a210:	07c23023          	sd	x28,96(x4) # 60 <XLEN+0x20>
    4101a214:	00000e13          	li	x28,0
    4101a218:	07c23423          	sd	x28,104(x4) # 68 <XLEN+0x28>
    4101a21c:	00000e13          	li	x28,0
    4101a220:	07c23823          	sd	x28,112(x4) # 70 <XLEN+0x30>

000000004101a224 <fault_label_175>:
    4101a224:	12000073          	sfence.vma
    4101a228:	069cefb7          	lui	x31,0x69ce
    4101a22c:	008f8f9b          	addiw	x31,x31,8 # 69ce008 <failed_addr>
    4101a230:	000fb903          	ld	x18,0(x31)
    4101a234:	00090067          	jr	x18

000000004101a238 <SID_HEXCEP_09_sfence_vma_vu_passed>:
    4101a238:	00f00f9b          	addiw	x31,x0,15
    4101a23c:	01cf9f93          	slli	x31,x31,0x1c
    4101a240:	001f8f93          	addi	x31,x31,1
    4101a244:	00000073          	ecall

000000004101a248 <SID_HEXCEP_09_hinval_vvma_vu>:
    4101a248:	000cb137          	lui	x2,0xcb
    4101a24c:	000012b7          	lui	x5,0x1
    4101a250:	00510133          	add	x2,x2,x5
    4101a254:	ff017113          	andi	x2,x2,-16
    4101a258:	40a44237          	lui	x4,0x40a44
    4101a25c:	01600e13          	li	x28,22
    4101a260:	05c23823          	sd	x28,80(x4) # 40a44050 <check_excp_expected_cause>
    4101a264:	00000e17          	auipc	x28,0x0
    4101a268:	048e0e13          	addi	x28,x28,72 # 4101a2ac <fault_label_176>
    4101a26c:	03c23023          	sd	x28,32(x4) # 20 <SECURE_ACCESS_PROBABILITY+0x2>
    4101a270:	00000e13          	li	x28,0
    4101a274:	05c23023          	sd	x28,64(x4) # 40 <XLEN>
    4101a278:	00000e13          	li	x28,0
    4101a27c:	05c23423          	sd	x28,72(x4) # 48 <XLEN+0x8>
    4101a280:	00000e17          	auipc	x28,0x0
    4101a284:	040e0e13          	addi	x28,x28,64 # 4101a2c0 <SID_HEXCEP_09_hinval_vvma_vu_passed>
    4101a288:	03c23823          	sd	x28,48(x4) # 30 <SECURE_ACCESS_PROBABILITY+0x12>
    4101a28c:	00000e13          	li	x28,0
    4101a290:	03c23c23          	sd	x28,56(x4) # 38 <SECURE_ACCESS_PROBABILITY+0x1a>
    4101a294:	00000e13          	li	x28,0
    4101a298:	07c23023          	sd	x28,96(x4) # 60 <XLEN+0x20>
    4101a29c:	00000e13          	li	x28,0
    4101a2a0:	07c23423          	sd	x28,104(x4) # 68 <XLEN+0x28>
    4101a2a4:	00000e13          	li	x28,0
    4101a2a8:	07c23823          	sd	x28,112(x4) # 70 <XLEN+0x30>

000000004101a2ac <fault_label_176>:
    4101a2ac:	26000073          	hinval.vvma	x0,x0
    4101a2b0:	069ce737          	lui	x14,0x69ce
    4101a2b4:	0087071b          	addiw	x14,x14,8 # 69ce008 <failed_addr>
    4101a2b8:	00073e03          	ld	x28,0(x14)
    4101a2bc:	000e0067          	jr	x28

000000004101a2c0 <SID_HEXCEP_09_hinval_vvma_vu_passed>:
    4101a2c0:	00f00f9b          	addiw	x31,x0,15
    4101a2c4:	01cf9f93          	slli	x31,x31,0x1c
    4101a2c8:	001f8f93          	addi	x31,x31,1
    4101a2cc:	00000073          	ecall

000000004101a2d0 <SID_HEXCEP_09_hinval_gvma_vu>:
    4101a2d0:	00d46137          	lui	x2,0xd46
    4101a2d4:	c8f1011b          	addiw	x2,x2,-881 # d45c8f <SID_HEXCEP_05_stack+0x502c8f>
    4101a2d8:	00c11113          	slli	x2,x2,0xc
    4101a2dc:	000012b7          	lui	x5,0x1
    4101a2e0:	00510133          	add	x2,x2,x5
    4101a2e4:	ff017113          	andi	x2,x2,-16
    4101a2e8:	40a44237          	lui	x4,0x40a44
    4101a2ec:	01600e13          	li	x28,22
    4101a2f0:	05c23823          	sd	x28,80(x4) # 40a44050 <check_excp_expected_cause>
    4101a2f4:	00000e17          	auipc	x28,0x0
    4101a2f8:	048e0e13          	addi	x28,x28,72 # 4101a33c <fault_label_177>
    4101a2fc:	03c23023          	sd	x28,32(x4) # 20 <SECURE_ACCESS_PROBABILITY+0x2>
    4101a300:	00000e13          	li	x28,0
    4101a304:	05c23023          	sd	x28,64(x4) # 40 <XLEN>
    4101a308:	00000e13          	li	x28,0
    4101a30c:	05c23423          	sd	x28,72(x4) # 48 <XLEN+0x8>
    4101a310:	00000e17          	auipc	x28,0x0
    4101a314:	040e0e13          	addi	x28,x28,64 # 4101a350 <SID_HEXCEP_09_hinval_gvma_vu_passed>
    4101a318:	03c23823          	sd	x28,48(x4) # 30 <SECURE_ACCESS_PROBABILITY+0x12>
    4101a31c:	00000e13          	li	x28,0
    4101a320:	03c23c23          	sd	x28,56(x4) # 38 <SECURE_ACCESS_PROBABILITY+0x1a>
    4101a324:	00000e13          	li	x28,0
    4101a328:	07c23023          	sd	x28,96(x4) # 60 <XLEN+0x20>
    4101a32c:	00000e13          	li	x28,0
    4101a330:	07c23423          	sd	x28,104(x4) # 68 <XLEN+0x28>
    4101a334:	00000e13          	li	x28,0
    4101a338:	07c23823          	sd	x28,112(x4) # 70 <XLEN+0x30>

000000004101a33c <fault_label_177>:
    4101a33c:	66000073          	hinval.gvma	x0,x0
    4101a340:	069ced37          	lui	x26,0x69ce
    4101a344:	008d0d1b          	addiw	x26,x26,8 # 69ce008 <failed_addr>
    4101a348:	000d3d03          	ld	x26,0(x26)
    4101a34c:	000d0067          	jr	x26

000000004101a350 <SID_HEXCEP_09_hinval_gvma_vu_passed>:
    4101a350:	00f00f9b          	addiw	x31,x0,15
    4101a354:	01cf9f93          	slli	x31,x31,0x1c
    4101a358:	001f8f93          	addi	x31,x31,1
    4101a35c:	00000073          	ecall

000000004101a360 <SID_HEXCEP_09_sinval_vma_vu>:
    4101a360:	00019137          	lui	x2,0x19
    4101a364:	000012b7          	lui	x5,0x1
    4101a368:	00510133          	add	x2,x2,x5
    4101a36c:	ff017113          	andi	x2,x2,-16
    4101a370:	40a44237          	lui	x4,0x40a44
    4101a374:	01600e13          	li	x28,22
    4101a378:	05c23823          	sd	x28,80(x4) # 40a44050 <check_excp_expected_cause>
    4101a37c:	00000e17          	auipc	x28,0x0
    4101a380:	054e0e13          	addi	x28,x28,84 # 4101a3d0 <fault_label_178>
    4101a384:	03c23023          	sd	x28,32(x4) # 20 <SECURE_ACCESS_PROBABILITY+0x2>
    4101a388:	00000e13          	li	x28,0
    4101a38c:	05c23023          	sd	x28,64(x4) # 40 <XLEN>
    4101a390:	00000e13          	li	x28,0
    4101a394:	05c23423          	sd	x28,72(x4) # 48 <XLEN+0x8>
    4101a398:	00000e17          	auipc	x28,0x0
    4101a39c:	04ce0e13          	addi	x28,x28,76 # 4101a3e4 <SID_HEXCEP_09_sinval_vma_vu_passed>
    4101a3a0:	03c23823          	sd	x28,48(x4) # 30 <SECURE_ACCESS_PROBABILITY+0x12>
    4101a3a4:	00000e13          	li	x28,0
    4101a3a8:	03c23c23          	sd	x28,56(x4) # 38 <SECURE_ACCESS_PROBABILITY+0x1a>
    4101a3ac:	00000e13          	li	x28,0
    4101a3b0:	07c23023          	sd	x28,96(x4) # 60 <XLEN+0x20>
    4101a3b4:	00000e13          	li	x28,0
    4101a3b8:	07c23423          	sd	x28,104(x4) # 68 <XLEN+0x28>
    4101a3bc:	00000e13          	li	x28,0
    4101a3c0:	07c23823          	sd	x28,112(x4) # 70 <XLEN+0x30>
    4101a3c4:	007f0eb7          	lui	x29,0x7f0
    4101a3c8:	00000513          	li	x10,0
    4101a3cc:	00ae83b3          	add	x7,x29,x10

000000004101a3d0 <fault_label_178>:
    4101a3d0:	16038073          	sinval.vma	x7,x0
    4101a3d4:	069ce6b7          	lui	x13,0x69ce
    4101a3d8:	0086869b          	addiw	x13,x13,8 # 69ce008 <failed_addr>
    4101a3dc:	0006bc03          	ld	x24,0(x13)
    4101a3e0:	000c0067          	jr	x24

000000004101a3e4 <SID_HEXCEP_09_sinval_vma_vu_passed>:
    4101a3e4:	00f00f9b          	addiw	x31,x0,15
    4101a3e8:	01cf9f93          	slli	x31,x31,0x1c
    4101a3ec:	001f8f93          	addi	x31,x31,1
    4101a3f0:	00000073          	ecall

000000004101a3f4 <SID_HEXCEP_11>:
    4101a3f4:	35ffe137          	lui	x2,0x35ffe
    4101a3f8:	000012b7          	lui	x5,0x1
    4101a3fc:	00510133          	add	x2,x2,x5
    4101a400:	ff017113          	andi	x2,x2,-16
    4101a404:	40a44237          	lui	x4,0x40a44
    4101a408:	00200e13          	li	x28,2
    4101a40c:	05c23823          	sd	x28,80(x4) # 40a44050 <check_excp_expected_cause>
    4101a410:	00000e17          	auipc	x28,0x0
    4101a414:	04ce0e13          	addi	x28,x28,76 # 4101a45c <fault_label_179>
    4101a418:	03c23023          	sd	x28,32(x4) # 20 <SECURE_ACCESS_PROBABILITY+0x2>
    4101a41c:	00000e13          	li	x28,0
    4101a420:	05c23023          	sd	x28,64(x4) # 40 <XLEN>
    4101a424:	00000e13          	li	x28,0
    4101a428:	05c23423          	sd	x28,72(x4) # 48 <XLEN+0x8>
    4101a42c:	00000e17          	auipc	x28,0x0
    4101a430:	044e0e13          	addi	x28,x28,68 # 4101a470 <excp_return_label_179>
    4101a434:	03c23823          	sd	x28,48(x4) # 30 <SECURE_ACCESS_PROBABILITY+0x12>
    4101a438:	00000e13          	li	x28,0
    4101a43c:	03c23c23          	sd	x28,56(x4) # 38 <SECURE_ACCESS_PROBABILITY+0x1a>
    4101a440:	00000e13          	li	x28,0
    4101a444:	07c23023          	sd	x28,96(x4) # 60 <XLEN+0x20>
    4101a448:	00000e13          	li	x28,0
    4101a44c:	07c23423          	sd	x28,104(x4) # 68 <XLEN+0x28>
    4101a450:	00000e13          	li	x28,0
    4101a454:	07c23823          	sd	x28,112(x4) # 70 <XLEN+0x30>
    4101a458:	00000913          	li	x18,0

000000004101a45c <fault_label_179>:
    4101a45c:	61592af3          	csrrs	x21,htimedeltah,x18
    4101a460:	069ceeb7          	lui	x29,0x69ce
    4101a464:	008e8e9b          	addiw	x29,x29,8 # 69ce008 <failed_addr>
    4101a468:	000eb783          	ld	x15,0(x29)
    4101a46c:	00078067          	jr	x15

000000004101a470 <excp_return_label_179>:
    4101a470:	40a44237          	lui	x4,0x40a44
    4101a474:	00200e13          	li	x28,2
    4101a478:	05c23823          	sd	x28,80(x4) # 40a44050 <check_excp_expected_cause>
    4101a47c:	00000e17          	auipc	x28,0x0
    4101a480:	04ce0e13          	addi	x28,x28,76 # 4101a4c8 <fault_label_180>
    4101a484:	03c23023          	sd	x28,32(x4) # 20 <SECURE_ACCESS_PROBABILITY+0x2>
    4101a488:	00000e13          	li	x28,0
    4101a48c:	05c23023          	sd	x28,64(x4) # 40 <XLEN>
    4101a490:	00000e13          	li	x28,0
    4101a494:	05c23423          	sd	x28,72(x4) # 48 <XLEN+0x8>
    4101a498:	00000e17          	auipc	x28,0x0
    4101a49c:	044e0e13          	addi	x28,x28,68 # 4101a4dc <excp_return_label_180>
    4101a4a0:	03c23823          	sd	x28,48(x4) # 30 <SECURE_ACCESS_PROBABILITY+0x12>
    4101a4a4:	00000e13          	li	x28,0
    4101a4a8:	03c23c23          	sd	x28,56(x4) # 38 <SECURE_ACCESS_PROBABILITY+0x1a>
    4101a4ac:	00000e13          	li	x28,0
    4101a4b0:	07c23023          	sd	x28,96(x4) # 60 <XLEN+0x20>
    4101a4b4:	00000e13          	li	x28,0
    4101a4b8:	07c23423          	sd	x28,104(x4) # 68 <XLEN+0x28>
    4101a4bc:	00000e13          	li	x28,0
    4101a4c0:	07c23823          	sd	x28,112(x4) # 70 <XLEN+0x30>
    4101a4c4:	00000513          	li	x10,0

000000004101a4c8 <fault_label_180>:
    4101a4c8:	61a52373          	csrrs	x6,henvcfgh,x10
    4101a4cc:	069ce9b7          	lui	x19,0x69ce
    4101a4d0:	0089899b          	addiw	x19,x19,8 # 69ce008 <failed_addr>
    4101a4d4:	0009bf03          	ld	x30,0(x19)
    4101a4d8:	000f0067          	jr	x30

000000004101a4dc <excp_return_label_180>:
    4101a4dc:	40a44237          	lui	x4,0x40a44
    4101a4e0:	00200e13          	li	x28,2
    4101a4e4:	05c23823          	sd	x28,80(x4) # 40a44050 <check_excp_expected_cause>
    4101a4e8:	00000e17          	auipc	x28,0x0
    4101a4ec:	04ce0e13          	addi	x28,x28,76 # 4101a534 <fault_label_181>
    4101a4f0:	03c23023          	sd	x28,32(x4) # 20 <SECURE_ACCESS_PROBABILITY+0x2>
    4101a4f4:	00000e13          	li	x28,0
    4101a4f8:	05c23023          	sd	x28,64(x4) # 40 <XLEN>
    4101a4fc:	00000e13          	li	x28,0
    4101a500:	05c23423          	sd	x28,72(x4) # 48 <XLEN+0x8>
    4101a504:	00000e17          	auipc	x28,0x0
    4101a508:	044e0e13          	addi	x28,x28,68 # 4101a548 <excp_return_label_181>
    4101a50c:	03c23823          	sd	x28,48(x4) # 30 <SECURE_ACCESS_PROBABILITY+0x12>
    4101a510:	00000e13          	li	x28,0
    4101a514:	03c23c23          	sd	x28,56(x4) # 38 <SECURE_ACCESS_PROBABILITY+0x1a>
    4101a518:	00000e13          	li	x28,0
    4101a51c:	07c23023          	sd	x28,96(x4) # 60 <XLEN+0x20>
    4101a520:	00000e13          	li	x28,0
    4101a524:	07c23423          	sd	x28,104(x4) # 68 <XLEN+0x28>
    4101a528:	00000e13          	li	x28,0
    4101a52c:	07c23823          	sd	x28,112(x4) # 70 <XLEN+0x30>
    4101a530:	00000d13          	li	x26,0

000000004101a534 <fault_label_181>:
    4101a534:	c80d23f3          	csrrs	x7,cycleh,x26
    4101a538:	069cec37          	lui	x24,0x69ce
    4101a53c:	008c0c1b          	addiw	x24,x24,8 # 69ce008 <failed_addr>
    4101a540:	000c3483          	ld	x9,0(x24)
    4101a544:	00048067          	jr	x9

000000004101a548 <excp_return_label_181>:
    4101a548:	40a44237          	lui	x4,0x40a44
    4101a54c:	00200e13          	li	x28,2
    4101a550:	05c23823          	sd	x28,80(x4) # 40a44050 <check_excp_expected_cause>
    4101a554:	00000e17          	auipc	x28,0x0
    4101a558:	04ce0e13          	addi	x28,x28,76 # 4101a5a0 <fault_label_182>
    4101a55c:	03c23023          	sd	x28,32(x4) # 20 <SECURE_ACCESS_PROBABILITY+0x2>
    4101a560:	00000e13          	li	x28,0
    4101a564:	05c23023          	sd	x28,64(x4) # 40 <XLEN>
    4101a568:	00000e13          	li	x28,0
    4101a56c:	05c23423          	sd	x28,72(x4) # 48 <XLEN+0x8>
    4101a570:	00000e17          	auipc	x28,0x0
    4101a574:	044e0e13          	addi	x28,x28,68 # 4101a5b4 <excp_return_label_182>
    4101a578:	03c23823          	sd	x28,48(x4) # 30 <SECURE_ACCESS_PROBABILITY+0x12>
    4101a57c:	00000e13          	li	x28,0
    4101a580:	03c23c23          	sd	x28,56(x4) # 38 <SECURE_ACCESS_PROBABILITY+0x1a>
    4101a584:	00000e13          	li	x28,0
    4101a588:	07c23023          	sd	x28,96(x4) # 60 <XLEN+0x20>
    4101a58c:	00000e13          	li	x28,0
    4101a590:	07c23423          	sd	x28,104(x4) # 68 <XLEN+0x28>
    4101a594:	00000e13          	li	x28,0
    4101a598:	07c23823          	sd	x28,112(x4) # 70 <XLEN+0x30>
    4101a59c:	00000793          	li	x15,0

000000004101a5a0 <fault_label_182>:
    4101a5a0:	c817ae73          	csrrs	x28,timeh,x15
    4101a5a4:	069ce9b7          	lui	x19,0x69ce
    4101a5a8:	0089899b          	addiw	x19,x19,8 # 69ce008 <failed_addr>
    4101a5ac:	0009ba83          	ld	x21,0(x19)
    4101a5b0:	000a8067          	jr	x21

000000004101a5b4 <excp_return_label_182>:
    4101a5b4:	40a44237          	lui	x4,0x40a44
    4101a5b8:	00200e13          	li	x28,2
    4101a5bc:	05c23823          	sd	x28,80(x4) # 40a44050 <check_excp_expected_cause>
    4101a5c0:	00000e17          	auipc	x28,0x0
    4101a5c4:	04ce0e13          	addi	x28,x28,76 # 4101a60c <fault_label_183>
    4101a5c8:	03c23023          	sd	x28,32(x4) # 20 <SECURE_ACCESS_PROBABILITY+0x2>
    4101a5cc:	00000e13          	li	x28,0
    4101a5d0:	05c23023          	sd	x28,64(x4) # 40 <XLEN>
    4101a5d4:	00000e13          	li	x28,0
    4101a5d8:	05c23423          	sd	x28,72(x4) # 48 <XLEN+0x8>
    4101a5dc:	00000e17          	auipc	x28,0x0
    4101a5e0:	044e0e13          	addi	x28,x28,68 # 4101a620 <excp_return_label_183>
    4101a5e4:	03c23823          	sd	x28,48(x4) # 30 <SECURE_ACCESS_PROBABILITY+0x12>
    4101a5e8:	00000e13          	li	x28,0
    4101a5ec:	03c23c23          	sd	x28,56(x4) # 38 <SECURE_ACCESS_PROBABILITY+0x1a>
    4101a5f0:	00000e13          	li	x28,0
    4101a5f4:	07c23023          	sd	x28,96(x4) # 60 <XLEN+0x20>
    4101a5f8:	00000e13          	li	x28,0
    4101a5fc:	07c23423          	sd	x28,104(x4) # 68 <XLEN+0x28>
    4101a600:	00000e13          	li	x28,0
    4101a604:	07c23823          	sd	x28,112(x4) # 70 <XLEN+0x30>
    4101a608:	00000893          	li	x17,0

000000004101a60c <fault_label_183>:
    4101a60c:	c828a7f3          	csrrs	x15,instreth,x17
    4101a610:	069cecb7          	lui	x25,0x69ce
    4101a614:	008c8c9b          	addiw	x25,x25,8 # 69ce008 <failed_addr>
    4101a618:	000cbf03          	ld	x30,0(x25)
    4101a61c:	000f0067          	jr	x30

000000004101a620 <excp_return_label_183>:
    4101a620:	40a44237          	lui	x4,0x40a44
    4101a624:	00200e13          	li	x28,2
    4101a628:	05c23823          	sd	x28,80(x4) # 40a44050 <check_excp_expected_cause>
    4101a62c:	00000e17          	auipc	x28,0x0
    4101a630:	04ce0e13          	addi	x28,x28,76 # 4101a678 <fault_label_184>
    4101a634:	03c23023          	sd	x28,32(x4) # 20 <SECURE_ACCESS_PROBABILITY+0x2>
    4101a638:	00000e13          	li	x28,0
    4101a63c:	05c23023          	sd	x28,64(x4) # 40 <XLEN>
    4101a640:	00000e13          	li	x28,0
    4101a644:	05c23423          	sd	x28,72(x4) # 48 <XLEN+0x8>
    4101a648:	00000e17          	auipc	x28,0x0
    4101a64c:	044e0e13          	addi	x28,x28,68 # 4101a68c <SID_HEXCEP_11_passed>
    4101a650:	03c23823          	sd	x28,48(x4) # 30 <SECURE_ACCESS_PROBABILITY+0x12>
    4101a654:	00000e13          	li	x28,0
    4101a658:	03c23c23          	sd	x28,56(x4) # 38 <SECURE_ACCESS_PROBABILITY+0x1a>
    4101a65c:	00000e13          	li	x28,0
    4101a660:	07c23023          	sd	x28,96(x4) # 60 <XLEN+0x20>
    4101a664:	00000e13          	li	x28,0
    4101a668:	07c23423          	sd	x28,104(x4) # 68 <XLEN+0x28>
    4101a66c:	00000e13          	li	x28,0
    4101a670:	07c23823          	sd	x28,112(x4) # 70 <XLEN+0x30>
    4101a674:	00000993          	li	x19,0

000000004101a678 <fault_label_184>:
    4101a678:	c839a773          	csrrs	x14,hpmcounter3h,x19
    4101a67c:	069ce3b7          	lui	x7,0x69ce
    4101a680:	0083839b          	addiw	x7,x7,8 # 69ce008 <failed_addr>
    4101a684:	0003bf03          	ld	x30,0(x7)
    4101a688:	000f0067          	jr	x30

000000004101a68c <SID_HEXCEP_11_passed>:
    4101a68c:	00f00f9b          	addiw	x31,x0,15
    4101a690:	01cf9f93          	slli	x31,x31,0x1c
    4101a694:	001f8f93          	addi	x31,x31,1
    4101a698:	00000073          	ecall

000000004101a69c <SID_HEXCEP_16_fs0_both>:
    4101a69c:	0006c137          	lui	x2,0x6c
    4101a6a0:	069cefb7          	lui	x31,0x69ce
    4101a6a4:	0b0f8f9b          	addiw	x31,x31,176 # 69ce0b0 <machine_csr_jump_table_flags>
    4101a6a8:	08300f13          	li	x30,131
    4101a6ac:	01efb023          	sd	x30,0(x31)
    4101a6b0:	000f0fb7          	lui	x31,0xf0
    4101a6b4:	001f8f9b          	addiw	x31,x31,1 # f0001 <SID_HEXCEP_09_hinval_vvma_vu_stack+0x25001>
    4101a6b8:	00cf9f93          	slli	x31,x31,0xc
    4101a6bc:	005f8f93          	addi	x31,x31,5
    4101a6c0:	00000073          	ecall
    4101a6c4:	00713023          	sd	x7,0(x2) # 6c000 <tp_csr_storage>
    4101a6c8:	069cefb7          	lui	x31,0x69ce
    4101a6cc:	0b8f8f9b          	addiw	x31,x31,184 # 69ce0b8 <super_csr_jump_table_flags>
    4101a6d0:	08400f13          	li	x30,132
    4101a6d4:	01efb023          	sd	x30,0(x31)
    4101a6d8:	000f0fb7          	lui	x31,0xf0
    4101a6dc:	001f8f9b          	addiw	x31,x31,1 # f0001 <SID_HEXCEP_09_hinval_vvma_vu_stack+0x25001>
    4101a6e0:	00cf9f93          	slli	x31,x31,0xc
    4101a6e4:	006f8f93          	addi	x31,x31,6
    4101a6e8:	00000073          	ecall
    4101a6ec:	00713423          	sd	x7,8(x2)
    4101a6f0:	0906c137          	lui	x2,0x906c
    4101a6f4:	000012b7          	lui	x5,0x1
    4101a6f8:	00510133          	add	x2,x2,x5
    4101a6fc:	ff017113          	andi	x2,x2,-16
    4101a700:	00006c37          	lui	x24,0x6
    4101a704:	00000d93          	li	x27,0
    4101a708:	000f0fb7          	lui	x31,0xf0
    4101a70c:	001f8f9b          	addiw	x31,x31,1 # f0001 <SID_HEXCEP_09_hinval_vvma_vu_stack+0x25001>
    4101a710:	00cf9f93          	slli	x31,x31,0xc
    4101a714:	002f8f93          	addi	x31,x31,2
    4101a718:	00000073          	ecall
    4101a71c:	000063b7          	lui	x7,0x6
    4101a720:	069cefb7          	lui	x31,0x69ce
    4101a724:	0b8f8f9b          	addiw	x31,x31,184 # 69ce0b8 <super_csr_jump_table_flags>
    4101a728:	08500f13          	li	x30,133
    4101a72c:	01efb023          	sd	x30,0(x31)
    4101a730:	000f0fb7          	lui	x31,0xf0
    4101a734:	001f8f9b          	addiw	x31,x31,1 # f0001 <SID_HEXCEP_09_hinval_vvma_vu_stack+0x25001>
    4101a738:	00cf9f93          	slli	x31,x31,0xc
    4101a73c:	006f8f93          	addi	x31,x31,6
    4101a740:	00000073          	ecall
    4101a744:	40a44237          	lui	x4,0x40a44
    4101a748:	00200e13          	li	x28,2
    4101a74c:	05c23823          	sd	x28,80(x4) # 40a44050 <check_excp_expected_cause>
    4101a750:	00000e17          	auipc	x28,0x0
    4101a754:	048e0e13          	addi	x28,x28,72 # 4101a798 <fault_label_185>
    4101a758:	03c23023          	sd	x28,32(x4) # 20 <SECURE_ACCESS_PROBABILITY+0x2>
    4101a75c:	00000e13          	li	x28,0
    4101a760:	05c23023          	sd	x28,64(x4) # 40 <XLEN>
    4101a764:	00000e13          	li	x28,0
    4101a768:	05c23423          	sd	x28,72(x4) # 48 <XLEN+0x8>
    4101a76c:	00000e17          	auipc	x28,0x0
    4101a770:	040e0e13          	addi	x28,x28,64 # 4101a7ac <excp_return_label_185>
    4101a774:	03c23823          	sd	x28,48(x4) # 30 <SECURE_ACCESS_PROBABILITY+0x12>
    4101a778:	00000e13          	li	x28,0
    4101a77c:	03c23c23          	sd	x28,56(x4) # 38 <SECURE_ACCESS_PROBABILITY+0x1a>
    4101a780:	00000e13          	li	x28,0
    4101a784:	07c23023          	sd	x28,96(x4) # 60 <XLEN+0x20>
    4101a788:	00000e13          	li	x28,0
    4101a78c:	07c23423          	sd	x28,104(x4) # 68 <XLEN+0x28>
    4101a790:	00000e13          	li	x28,0
    4101a794:	07c23823          	sd	x28,112(x4) # 70 <XLEN+0x30>

000000004101a798 <fault_label_185>:
    4101a798:	02007053          	fadd.d	f0,f0,f0
    4101a79c:	069ce837          	lui	x16,0x69ce
    4101a7a0:	0088081b          	addiw	x16,x16,8 # 69ce008 <failed_addr>
    4101a7a4:	00083483          	ld	x9,0(x16)
    4101a7a8:	00048067          	jr	x9

000000004101a7ac <excp_return_label_185>:
    4101a7ac:	0006c137          	lui	x2,0x6c
    4101a7b0:	00013383          	ld	x7,0(x2) # 6c000 <tp_csr_storage>
    4101a7b4:	069cefb7          	lui	x31,0x69ce
    4101a7b8:	0b0f8f9b          	addiw	x31,x31,176 # 69ce0b0 <machine_csr_jump_table_flags>
    4101a7bc:	08600f13          	li	x30,134
    4101a7c0:	01efb023          	sd	x30,0(x31)
    4101a7c4:	000f0fb7          	lui	x31,0xf0
    4101a7c8:	001f8f9b          	addiw	x31,x31,1 # f0001 <SID_HEXCEP_09_hinval_vvma_vu_stack+0x25001>
    4101a7cc:	00cf9f93          	slli	x31,x31,0xc
    4101a7d0:	005f8f93          	addi	x31,x31,5
    4101a7d4:	00000073          	ecall
    4101a7d8:	00813383          	ld	x7,8(x2)
    4101a7dc:	069cefb7          	lui	x31,0x69ce
    4101a7e0:	0b8f8f9b          	addiw	x31,x31,184 # 69ce0b8 <super_csr_jump_table_flags>
    4101a7e4:	08700f13          	li	x30,135
    4101a7e8:	01efb023          	sd	x30,0(x31)
    4101a7ec:	000f0fb7          	lui	x31,0xf0
    4101a7f0:	001f8f9b          	addiw	x31,x31,1 # f0001 <SID_HEXCEP_09_hinval_vvma_vu_stack+0x25001>
    4101a7f4:	00cf9f93          	slli	x31,x31,0xc
    4101a7f8:	006f8f93          	addi	x31,x31,6
    4101a7fc:	00000073          	ecall

000000004101a800 <SID_HEXCEP_16_fs0_both_passed>:
    4101a800:	00f00f9b          	addiw	x31,x0,15
    4101a804:	01cf9f93          	slli	x31,x31,0x1c
    4101a808:	001f8f93          	addi	x31,x31,1
    4101a80c:	00000073          	ecall

000000004101a810 <SID_HEXCEP_16_vsstatus_fs0>:
    4101a810:	0006c137          	lui	x2,0x6c
    4101a814:	069cefb7          	lui	x31,0x69ce
    4101a818:	0b0f8f9b          	addiw	x31,x31,176 # 69ce0b0 <machine_csr_jump_table_flags>
    4101a81c:	08300f13          	li	x30,131
    4101a820:	01efb023          	sd	x30,0(x31)
    4101a824:	000f0fb7          	lui	x31,0xf0
    4101a828:	001f8f9b          	addiw	x31,x31,1 # f0001 <SID_HEXCEP_09_hinval_vvma_vu_stack+0x25001>
    4101a82c:	00cf9f93          	slli	x31,x31,0xc
    4101a830:	005f8f93          	addi	x31,x31,5
    4101a834:	00000073          	ecall
    4101a838:	00713023          	sd	x7,0(x2) # 6c000 <tp_csr_storage>
    4101a83c:	069cefb7          	lui	x31,0x69ce
    4101a840:	0b8f8f9b          	addiw	x31,x31,184 # 69ce0b8 <super_csr_jump_table_flags>
    4101a844:	08400f13          	li	x30,132
    4101a848:	01efb023          	sd	x30,0(x31)
    4101a84c:	000f0fb7          	lui	x31,0xf0
    4101a850:	001f8f9b          	addiw	x31,x31,1 # f0001 <SID_HEXCEP_09_hinval_vvma_vu_stack+0x25001>
    4101a854:	00cf9f93          	slli	x31,x31,0xc
    4101a858:	006f8f93          	addi	x31,x31,6
    4101a85c:	00000073          	ecall
    4101a860:	00713423          	sd	x7,8(x2)
    4101a864:	00ed9137          	lui	x2,0xed9
    4101a868:	c8b1011b          	addiw	x2,x2,-885 # ed8c8b <SID_HEXCEP_05_stack+0x695c8b>
    4101a86c:	00d11113          	slli	x2,x2,0xd
    4101a870:	000012b7          	lui	x5,0x1
    4101a874:	00510133          	add	x2,x2,x5
    4101a878:	ff017113          	andi	x2,x2,-16
    4101a87c:	000027b7          	lui	x15,0x2
    4101a880:	00100d93          	li	x27,1
    4101a884:	000f0fb7          	lui	x31,0xf0
    4101a888:	001f8f9b          	addiw	x31,x31,1 # f0001 <SID_HEXCEP_09_hinval_vvma_vu_stack+0x25001>
    4101a88c:	00cf9f93          	slli	x31,x31,0xc
    4101a890:	002f8f93          	addi	x31,x31,2
    4101a894:	00000073          	ecall
    4101a898:	000063b7          	lui	x7,0x6
    4101a89c:	069cefb7          	lui	x31,0x69ce
    4101a8a0:	0b8f8f9b          	addiw	x31,x31,184 # 69ce0b8 <super_csr_jump_table_flags>
    4101a8a4:	08500f13          	li	x30,133
    4101a8a8:	01efb023          	sd	x30,0(x31)
    4101a8ac:	000f0fb7          	lui	x31,0xf0
    4101a8b0:	001f8f9b          	addiw	x31,x31,1 # f0001 <SID_HEXCEP_09_hinval_vvma_vu_stack+0x25001>
    4101a8b4:	00cf9f93          	slli	x31,x31,0xc
    4101a8b8:	006f8f93          	addi	x31,x31,6
    4101a8bc:	00000073          	ecall
    4101a8c0:	40a44237          	lui	x4,0x40a44
    4101a8c4:	00200e13          	li	x28,2
    4101a8c8:	05c23823          	sd	x28,80(x4) # 40a44050 <check_excp_expected_cause>
    4101a8cc:	00000e17          	auipc	x28,0x0
    4101a8d0:	048e0e13          	addi	x28,x28,72 # 4101a914 <fault_label_186>
    4101a8d4:	03c23023          	sd	x28,32(x4) # 20 <SECURE_ACCESS_PROBABILITY+0x2>
    4101a8d8:	00000e13          	li	x28,0
    4101a8dc:	05c23023          	sd	x28,64(x4) # 40 <XLEN>
    4101a8e0:	00000e13          	li	x28,0
    4101a8e4:	05c23423          	sd	x28,72(x4) # 48 <XLEN+0x8>
    4101a8e8:	00000e17          	auipc	x28,0x0
    4101a8ec:	040e0e13          	addi	x28,x28,64 # 4101a928 <excp_return_label_186>
    4101a8f0:	03c23823          	sd	x28,48(x4) # 30 <SECURE_ACCESS_PROBABILITY+0x12>
    4101a8f4:	00000e13          	li	x28,0
    4101a8f8:	03c23c23          	sd	x28,56(x4) # 38 <SECURE_ACCESS_PROBABILITY+0x1a>
    4101a8fc:	00000e13          	li	x28,0
    4101a900:	07c23023          	sd	x28,96(x4) # 60 <XLEN+0x20>
    4101a904:	00000e13          	li	x28,0
    4101a908:	07c23423          	sd	x28,104(x4) # 68 <XLEN+0x28>
    4101a90c:	00000e13          	li	x28,0
    4101a910:	07c23823          	sd	x28,112(x4) # 70 <XLEN+0x30>

000000004101a914 <fault_label_186>:
    4101a914:	02007053          	fadd.d	f0,f0,f0
    4101a918:	069ce937          	lui	x18,0x69ce
    4101a91c:	0089091b          	addiw	x18,x18,8 # 69ce008 <failed_addr>
    4101a920:	00093a03          	ld	x20,0(x18)
    4101a924:	000a0067          	jr	x20

000000004101a928 <excp_return_label_186>:
    4101a928:	0006c137          	lui	x2,0x6c
    4101a92c:	00013383          	ld	x7,0(x2) # 6c000 <tp_csr_storage>
    4101a930:	069cefb7          	lui	x31,0x69ce
    4101a934:	0b0f8f9b          	addiw	x31,x31,176 # 69ce0b0 <machine_csr_jump_table_flags>
    4101a938:	08600f13          	li	x30,134
    4101a93c:	01efb023          	sd	x30,0(x31)
    4101a940:	000f0fb7          	lui	x31,0xf0
    4101a944:	001f8f9b          	addiw	x31,x31,1 # f0001 <SID_HEXCEP_09_hinval_vvma_vu_stack+0x25001>
    4101a948:	00cf9f93          	slli	x31,x31,0xc
    4101a94c:	005f8f93          	addi	x31,x31,5
    4101a950:	00000073          	ecall
    4101a954:	00813383          	ld	x7,8(x2)
    4101a958:	069cefb7          	lui	x31,0x69ce
    4101a95c:	0b8f8f9b          	addiw	x31,x31,184 # 69ce0b8 <super_csr_jump_table_flags>
    4101a960:	08700f13          	li	x30,135
    4101a964:	01efb023          	sd	x30,0(x31)
    4101a968:	000f0fb7          	lui	x31,0xf0
    4101a96c:	001f8f9b          	addiw	x31,x31,1 # f0001 <SID_HEXCEP_09_hinval_vvma_vu_stack+0x25001>
    4101a970:	00cf9f93          	slli	x31,x31,0xc
    4101a974:	006f8f93          	addi	x31,x31,6
    4101a978:	00000073          	ecall

000000004101a97c <SID_HEXCEP_16_vsstatus_fs0_passed>:
    4101a97c:	00f00f9b          	addiw	x31,x0,15
    4101a980:	01cf9f93          	slli	x31,x31,0x1c
    4101a984:	001f8f93          	addi	x31,x31,1
    4101a988:	00000073          	ecall

000000004101a98c <SID_HEXCEP_16_sstatus_fs0>:
    4101a98c:	0006c137          	lui	x2,0x6c
    4101a990:	069cefb7          	lui	x31,0x69ce
    4101a994:	0b0f8f9b          	addiw	x31,x31,176 # 69ce0b0 <machine_csr_jump_table_flags>
    4101a998:	08300f13          	li	x30,131
    4101a99c:	01efb023          	sd	x30,0(x31)
    4101a9a0:	000f0fb7          	lui	x31,0xf0
    4101a9a4:	001f8f9b          	addiw	x31,x31,1 # f0001 <SID_HEXCEP_09_hinval_vvma_vu_stack+0x25001>
    4101a9a8:	00cf9f93          	slli	x31,x31,0xc
    4101a9ac:	005f8f93          	addi	x31,x31,5
    4101a9b0:	00000073          	ecall
    4101a9b4:	00713023          	sd	x7,0(x2) # 6c000 <tp_csr_storage>
    4101a9b8:	069cefb7          	lui	x31,0x69ce
    4101a9bc:	0b8f8f9b          	addiw	x31,x31,184 # 69ce0b8 <super_csr_jump_table_flags>
    4101a9c0:	08400f13          	li	x30,132
    4101a9c4:	01efb023          	sd	x30,0(x31)
    4101a9c8:	000f0fb7          	lui	x31,0xf0
    4101a9cc:	001f8f9b          	addiw	x31,x31,1 # f0001 <SID_HEXCEP_09_hinval_vvma_vu_stack+0x25001>
    4101a9d0:	00cf9f93          	slli	x31,x31,0xc
    4101a9d4:	006f8f93          	addi	x31,x31,6
    4101a9d8:	00000073          	ecall
    4101a9dc:	00713423          	sd	x7,8(x2)
    4101a9e0:	0ff40137          	lui	x2,0xff40
    4101a9e4:	3bf1011b          	addiw	x2,x2,959 # ff403bf <SID_HEXCEP_16_fs0_both_stack+0x6ed43bf>
    4101a9e8:	00c11113          	slli	x2,x2,0xc
    4101a9ec:	6f310113          	addi	x2,x2,1779
    4101a9f0:	00c11113          	slli	x2,x2,0xc
    4101a9f4:	000012b7          	lui	x5,0x1
    4101a9f8:	00510133          	add	x2,x2,x5
    4101a9fc:	ff017113          	andi	x2,x2,-16
    4101aa00:	00006e37          	lui	x28,0x6
    4101aa04:	00200d93          	li	x27,2
    4101aa08:	000f0fb7          	lui	x31,0xf0
    4101aa0c:	001f8f9b          	addiw	x31,x31,1 # f0001 <SID_HEXCEP_09_hinval_vvma_vu_stack+0x25001>
    4101aa10:	00cf9f93          	slli	x31,x31,0xc
    4101aa14:	002f8f93          	addi	x31,x31,2
    4101aa18:	00000073          	ecall
    4101aa1c:	000023b7          	lui	x7,0x2
    4101aa20:	069cefb7          	lui	x31,0x69ce
    4101aa24:	0b8f8f9b          	addiw	x31,x31,184 # 69ce0b8 <super_csr_jump_table_flags>
    4101aa28:	08f00f13          	li	x30,143
    4101aa2c:	01efb023          	sd	x30,0(x31)
    4101aa30:	000f0fb7          	lui	x31,0xf0
    4101aa34:	001f8f9b          	addiw	x31,x31,1 # f0001 <SID_HEXCEP_09_hinval_vvma_vu_stack+0x25001>
    4101aa38:	00cf9f93          	slli	x31,x31,0xc
    4101aa3c:	006f8f93          	addi	x31,x31,6
    4101aa40:	00000073          	ecall
    4101aa44:	40a44237          	lui	x4,0x40a44
    4101aa48:	00200e13          	li	x28,2
    4101aa4c:	05c23823          	sd	x28,80(x4) # 40a44050 <check_excp_expected_cause>
    4101aa50:	00000e17          	auipc	x28,0x0
    4101aa54:	048e0e13          	addi	x28,x28,72 # 4101aa98 <fault_label_187>
    4101aa58:	03c23023          	sd	x28,32(x4) # 20 <SECURE_ACCESS_PROBABILITY+0x2>
    4101aa5c:	00000e13          	li	x28,0
    4101aa60:	05c23023          	sd	x28,64(x4) # 40 <XLEN>
    4101aa64:	00000e13          	li	x28,0
    4101aa68:	05c23423          	sd	x28,72(x4) # 48 <XLEN+0x8>
    4101aa6c:	00000e17          	auipc	x28,0x0
    4101aa70:	040e0e13          	addi	x28,x28,64 # 4101aaac <excp_return_label_187>
    4101aa74:	03c23823          	sd	x28,48(x4) # 30 <SECURE_ACCESS_PROBABILITY+0x12>
    4101aa78:	00000e13          	li	x28,0
    4101aa7c:	03c23c23          	sd	x28,56(x4) # 38 <SECURE_ACCESS_PROBABILITY+0x1a>
    4101aa80:	00000e13          	li	x28,0
    4101aa84:	07c23023          	sd	x28,96(x4) # 60 <XLEN+0x20>
    4101aa88:	00000e13          	li	x28,0
    4101aa8c:	07c23423          	sd	x28,104(x4) # 68 <XLEN+0x28>
    4101aa90:	00000e13          	li	x28,0
    4101aa94:	07c23823          	sd	x28,112(x4) # 70 <XLEN+0x30>

000000004101aa98 <fault_label_187>:
    4101aa98:	02007053          	fadd.d	f0,f0,f0
    4101aa9c:	069ce837          	lui	x16,0x69ce
    4101aaa0:	0088081b          	addiw	x16,x16,8 # 69ce008 <failed_addr>
    4101aaa4:	00083e83          	ld	x29,0(x16)
    4101aaa8:	000e8067          	jr	x29

000000004101aaac <excp_return_label_187>:
    4101aaac:	0006c137          	lui	x2,0x6c
    4101aab0:	00013383          	ld	x7,0(x2) # 6c000 <tp_csr_storage>
    4101aab4:	069cefb7          	lui	x31,0x69ce
    4101aab8:	0b0f8f9b          	addiw	x31,x31,176 # 69ce0b0 <machine_csr_jump_table_flags>
    4101aabc:	08600f13          	li	x30,134
    4101aac0:	01efb023          	sd	x30,0(x31)
    4101aac4:	000f0fb7          	lui	x31,0xf0
    4101aac8:	001f8f9b          	addiw	x31,x31,1 # f0001 <SID_HEXCEP_09_hinval_vvma_vu_stack+0x25001>
    4101aacc:	00cf9f93          	slli	x31,x31,0xc
    4101aad0:	005f8f93          	addi	x31,x31,5
    4101aad4:	00000073          	ecall
    4101aad8:	00813383          	ld	x7,8(x2)
    4101aadc:	069cefb7          	lui	x31,0x69ce
    4101aae0:	0b8f8f9b          	addiw	x31,x31,184 # 69ce0b8 <super_csr_jump_table_flags>
    4101aae4:	08700f13          	li	x30,135
    4101aae8:	01efb023          	sd	x30,0(x31)
    4101aaec:	000f0fb7          	lui	x31,0xf0
    4101aaf0:	001f8f9b          	addiw	x31,x31,1 # f0001 <SID_HEXCEP_09_hinval_vvma_vu_stack+0x25001>
    4101aaf4:	00cf9f93          	slli	x31,x31,0xc
    4101aaf8:	006f8f93          	addi	x31,x31,6
    4101aafc:	00000073          	ecall

000000004101ab00 <SID_HEXCEP_16_sstatus_fs0_passed>:
    4101ab00:	00f00f9b          	addiw	x31,x0,15
    4101ab04:	01cf9f93          	slli	x31,x31,0x1c
    4101ab08:	001f8f93          	addi	x31,x31,1
    4101ab0c:	00000073          	ecall

000000004101ab10 <SID_HEXCEP_17_vs0_both>:
    4101ab10:	0006c137          	lui	x2,0x6c
    4101ab14:	069cefb7          	lui	x31,0x69ce
    4101ab18:	0b0f8f9b          	addiw	x31,x31,176 # 69ce0b0 <machine_csr_jump_table_flags>
    4101ab1c:	08300f13          	li	x30,131
    4101ab20:	01efb023          	sd	x30,0(x31)
    4101ab24:	000f0fb7          	lui	x31,0xf0
    4101ab28:	001f8f9b          	addiw	x31,x31,1 # f0001 <SID_HEXCEP_09_hinval_vvma_vu_stack+0x25001>
    4101ab2c:	00cf9f93          	slli	x31,x31,0xc
    4101ab30:	005f8f93          	addi	x31,x31,5
    4101ab34:	00000073          	ecall
    4101ab38:	00713023          	sd	x7,0(x2) # 6c000 <tp_csr_storage>
    4101ab3c:	069cefb7          	lui	x31,0x69ce
    4101ab40:	0b8f8f9b          	addiw	x31,x31,184 # 69ce0b8 <super_csr_jump_table_flags>
    4101ab44:	08400f13          	li	x30,132
    4101ab48:	01efb023          	sd	x30,0(x31)
    4101ab4c:	000f0fb7          	lui	x31,0xf0
    4101ab50:	001f8f9b          	addiw	x31,x31,1 # f0001 <SID_HEXCEP_09_hinval_vvma_vu_stack+0x25001>
    4101ab54:	00cf9f93          	slli	x31,x31,0xc
    4101ab58:	006f8f93          	addi	x31,x31,6
    4101ab5c:	00000073          	ecall
    4101ab60:	00713423          	sd	x7,8(x2)
    4101ab64:	015a7137          	lui	x2,0x15a7
    4101ab68:	000012b7          	lui	x5,0x1
    4101ab6c:	00510133          	add	x2,x2,x5
    4101ab70:	ff017113          	andi	x2,x2,-16
    4101ab74:	60000e13          	li	x28,1536
    4101ab78:	00300d93          	li	x27,3
    4101ab7c:	000f0fb7          	lui	x31,0xf0
    4101ab80:	001f8f9b          	addiw	x31,x31,1 # f0001 <SID_HEXCEP_09_hinval_vvma_vu_stack+0x25001>
    4101ab84:	00cf9f93          	slli	x31,x31,0xc
    4101ab88:	002f8f93          	addi	x31,x31,2
    4101ab8c:	00000073          	ecall
    4101ab90:	60000393          	li	x7,1536
    4101ab94:	069cefb7          	lui	x31,0x69ce
    4101ab98:	0b8f8f9b          	addiw	x31,x31,184 # 69ce0b8 <super_csr_jump_table_flags>
    4101ab9c:	08500f13          	li	x30,133
    4101aba0:	01efb023          	sd	x30,0(x31)
    4101aba4:	000f0fb7          	lui	x31,0xf0
    4101aba8:	001f8f9b          	addiw	x31,x31,1 # f0001 <SID_HEXCEP_09_hinval_vvma_vu_stack+0x25001>
    4101abac:	00cf9f93          	slli	x31,x31,0xc
    4101abb0:	006f8f93          	addi	x31,x31,6
    4101abb4:	00000073          	ecall
    4101abb8:	40a44237          	lui	x4,0x40a44
    4101abbc:	00200e13          	li	x28,2
    4101abc0:	05c23823          	sd	x28,80(x4) # 40a44050 <check_excp_expected_cause>
    4101abc4:	00000e17          	auipc	x28,0x0
    4101abc8:	048e0e13          	addi	x28,x28,72 # 4101ac0c <fault_label_188>
    4101abcc:	03c23023          	sd	x28,32(x4) # 20 <SECURE_ACCESS_PROBABILITY+0x2>
    4101abd0:	00000e13          	li	x28,0
    4101abd4:	05c23023          	sd	x28,64(x4) # 40 <XLEN>
    4101abd8:	00000e13          	li	x28,0
    4101abdc:	05c23423          	sd	x28,72(x4) # 48 <XLEN+0x8>
    4101abe0:	00000e17          	auipc	x28,0x0
    4101abe4:	040e0e13          	addi	x28,x28,64 # 4101ac20 <excp_return_label_188>
    4101abe8:	03c23823          	sd	x28,48(x4) # 30 <SECURE_ACCESS_PROBABILITY+0x12>
    4101abec:	00000e13          	li	x28,0
    4101abf0:	03c23c23          	sd	x28,56(x4) # 38 <SECURE_ACCESS_PROBABILITY+0x1a>
    4101abf4:	00000e13          	li	x28,0
    4101abf8:	07c23023          	sd	x28,96(x4) # 60 <XLEN+0x20>
    4101abfc:	00000e13          	li	x28,0
    4101ac00:	07c23423          	sd	x28,104(x4) # 68 <XLEN+0x28>
    4101ac04:	00000e13          	li	x28,0
    4101ac08:	07c23823          	sd	x28,112(x4) # 70 <XLEN+0x30>

000000004101ac0c <fault_label_188>:
    4101ac0c:	c100f057          	vsetivli	x0,1,e32,m1,tu,mu
    4101ac10:	069cec37          	lui	x24,0x69ce
    4101ac14:	008c0c1b          	addiw	x24,x24,8 # 69ce008 <failed_addr>
    4101ac18:	000c3483          	ld	x9,0(x24)
    4101ac1c:	00048067          	jr	x9

000000004101ac20 <excp_return_label_188>:
    4101ac20:	0006c137          	lui	x2,0x6c
    4101ac24:	00013383          	ld	x7,0(x2) # 6c000 <tp_csr_storage>
    4101ac28:	069cefb7          	lui	x31,0x69ce
    4101ac2c:	0b0f8f9b          	addiw	x31,x31,176 # 69ce0b0 <machine_csr_jump_table_flags>
    4101ac30:	08600f13          	li	x30,134
    4101ac34:	01efb023          	sd	x30,0(x31)
    4101ac38:	000f0fb7          	lui	x31,0xf0
    4101ac3c:	001f8f9b          	addiw	x31,x31,1 # f0001 <SID_HEXCEP_09_hinval_vvma_vu_stack+0x25001>
    4101ac40:	00cf9f93          	slli	x31,x31,0xc
    4101ac44:	005f8f93          	addi	x31,x31,5
    4101ac48:	00000073          	ecall
    4101ac4c:	00813383          	ld	x7,8(x2)
    4101ac50:	069cefb7          	lui	x31,0x69ce
    4101ac54:	0b8f8f9b          	addiw	x31,x31,184 # 69ce0b8 <super_csr_jump_table_flags>
    4101ac58:	08700f13          	li	x30,135
    4101ac5c:	01efb023          	sd	x30,0(x31)
    4101ac60:	000f0fb7          	lui	x31,0xf0
    4101ac64:	001f8f9b          	addiw	x31,x31,1 # f0001 <SID_HEXCEP_09_hinval_vvma_vu_stack+0x25001>
    4101ac68:	00cf9f93          	slli	x31,x31,0xc
    4101ac6c:	006f8f93          	addi	x31,x31,6
    4101ac70:	00000073          	ecall

000000004101ac74 <SID_HEXCEP_17_vs0_both_passed>:
    4101ac74:	00f00f9b          	addiw	x31,x0,15
    4101ac78:	01cf9f93          	slli	x31,x31,0x1c
    4101ac7c:	001f8f93          	addi	x31,x31,1
    4101ac80:	00000073          	ecall

000000004101ac84 <SID_HEXCEP_17_vsstatus_vs0>:
    4101ac84:	0006c137          	lui	x2,0x6c
    4101ac88:	069cefb7          	lui	x31,0x69ce
    4101ac8c:	0b0f8f9b          	addiw	x31,x31,176 # 69ce0b0 <machine_csr_jump_table_flags>
    4101ac90:	08300f13          	li	x30,131
    4101ac94:	01efb023          	sd	x30,0(x31)
    4101ac98:	000f0fb7          	lui	x31,0xf0
    4101ac9c:	001f8f9b          	addiw	x31,x31,1 # f0001 <SID_HEXCEP_09_hinval_vvma_vu_stack+0x25001>
    4101aca0:	00cf9f93          	slli	x31,x31,0xc
    4101aca4:	005f8f93          	addi	x31,x31,5
    4101aca8:	00000073          	ecall
    4101acac:	00713023          	sd	x7,0(x2) # 6c000 <tp_csr_storage>
    4101acb0:	069cefb7          	lui	x31,0x69ce
    4101acb4:	0b8f8f9b          	addiw	x31,x31,184 # 69ce0b8 <super_csr_jump_table_flags>
    4101acb8:	08400f13          	li	x30,132
    4101acbc:	01efb023          	sd	x30,0(x31)
    4101acc0:	000f0fb7          	lui	x31,0xf0
    4101acc4:	001f8f9b          	addiw	x31,x31,1 # f0001 <SID_HEXCEP_09_hinval_vvma_vu_stack+0x25001>
    4101acc8:	00cf9f93          	slli	x31,x31,0xc
    4101accc:	006f8f93          	addi	x31,x31,6
    4101acd0:	00000073          	ecall
    4101acd4:	00713423          	sd	x7,8(x2)
    4101acd8:	2f1c7137          	lui	x2,0x2f1c7
    4101acdc:	e7f1011b          	addiw	x2,x2,-385 # 2f1c6e7f <SID_HEXCEP_16_fs0_both_stack+0x2615ae7f>
    4101ace0:	00c11113          	slli	x2,x2,0xc
    4101ace4:	000012b7          	lui	x5,0x1
    4101ace8:	00510133          	add	x2,x2,x5
    4101acec:	ff017113          	andi	x2,x2,-16
    4101acf0:	20000b93          	li	x23,512
    4101acf4:	00400d93          	li	x27,4
    4101acf8:	000f0fb7          	lui	x31,0xf0
    4101acfc:	001f8f9b          	addiw	x31,x31,1 # f0001 <SID_HEXCEP_09_hinval_vvma_vu_stack+0x25001>
    4101ad00:	00cf9f93          	slli	x31,x31,0xc
    4101ad04:	002f8f93          	addi	x31,x31,2
    4101ad08:	00000073          	ecall
    4101ad0c:	60000393          	li	x7,1536
    4101ad10:	069cefb7          	lui	x31,0x69ce
    4101ad14:	0b8f8f9b          	addiw	x31,x31,184 # 69ce0b8 <super_csr_jump_table_flags>
    4101ad18:	08500f13          	li	x30,133
    4101ad1c:	01efb023          	sd	x30,0(x31)
    4101ad20:	000f0fb7          	lui	x31,0xf0
    4101ad24:	001f8f9b          	addiw	x31,x31,1 # f0001 <SID_HEXCEP_09_hinval_vvma_vu_stack+0x25001>
    4101ad28:	00cf9f93          	slli	x31,x31,0xc
    4101ad2c:	006f8f93          	addi	x31,x31,6
    4101ad30:	00000073          	ecall
    4101ad34:	40a44237          	lui	x4,0x40a44
    4101ad38:	00200e13          	li	x28,2
    4101ad3c:	05c23823          	sd	x28,80(x4) # 40a44050 <check_excp_expected_cause>
    4101ad40:	00000e17          	auipc	x28,0x0
    4101ad44:	048e0e13          	addi	x28,x28,72 # 4101ad88 <fault_label_189>
    4101ad48:	03c23023          	sd	x28,32(x4) # 20 <SECURE_ACCESS_PROBABILITY+0x2>
    4101ad4c:	00000e13          	li	x28,0
    4101ad50:	05c23023          	sd	x28,64(x4) # 40 <XLEN>
    4101ad54:	00000e13          	li	x28,0
    4101ad58:	05c23423          	sd	x28,72(x4) # 48 <XLEN+0x8>
    4101ad5c:	00000e17          	auipc	x28,0x0
    4101ad60:	040e0e13          	addi	x28,x28,64 # 4101ad9c <excp_return_label_189>
    4101ad64:	03c23823          	sd	x28,48(x4) # 30 <SECURE_ACCESS_PROBABILITY+0x12>
    4101ad68:	00000e13          	li	x28,0
    4101ad6c:	03c23c23          	sd	x28,56(x4) # 38 <SECURE_ACCESS_PROBABILITY+0x1a>
    4101ad70:	00000e13          	li	x28,0
    4101ad74:	07c23023          	sd	x28,96(x4) # 60 <XLEN+0x20>
    4101ad78:	00000e13          	li	x28,0
    4101ad7c:	07c23423          	sd	x28,104(x4) # 68 <XLEN+0x28>
    4101ad80:	00000e13          	li	x28,0
    4101ad84:	07c23823          	sd	x28,112(x4) # 70 <XLEN+0x30>

000000004101ad88 <fault_label_189>:
    4101ad88:	c100f057          	vsetivli	x0,1,e32,m1,tu,mu
    4101ad8c:	069ce6b7          	lui	x13,0x69ce
    4101ad90:	0086869b          	addiw	x13,x13,8 # 69ce008 <failed_addr>
    4101ad94:	0006ba03          	ld	x20,0(x13)
    4101ad98:	000a0067          	jr	x20

000000004101ad9c <excp_return_label_189>:
    4101ad9c:	0006c137          	lui	x2,0x6c
    4101ada0:	00013383          	ld	x7,0(x2) # 6c000 <tp_csr_storage>
    4101ada4:	069cefb7          	lui	x31,0x69ce
    4101ada8:	0b0f8f9b          	addiw	x31,x31,176 # 69ce0b0 <machine_csr_jump_table_flags>
    4101adac:	08600f13          	li	x30,134
    4101adb0:	01efb023          	sd	x30,0(x31)
    4101adb4:	000f0fb7          	lui	x31,0xf0
    4101adb8:	001f8f9b          	addiw	x31,x31,1 # f0001 <SID_HEXCEP_09_hinval_vvma_vu_stack+0x25001>
    4101adbc:	00cf9f93          	slli	x31,x31,0xc
    4101adc0:	005f8f93          	addi	x31,x31,5
    4101adc4:	00000073          	ecall
    4101adc8:	00813383          	ld	x7,8(x2)
    4101adcc:	069cefb7          	lui	x31,0x69ce
    4101add0:	0b8f8f9b          	addiw	x31,x31,184 # 69ce0b8 <super_csr_jump_table_flags>
    4101add4:	08700f13          	li	x30,135
    4101add8:	01efb023          	sd	x30,0(x31)
    4101addc:	000f0fb7          	lui	x31,0xf0
    4101ade0:	001f8f9b          	addiw	x31,x31,1 # f0001 <SID_HEXCEP_09_hinval_vvma_vu_stack+0x25001>
    4101ade4:	00cf9f93          	slli	x31,x31,0xc
    4101ade8:	006f8f93          	addi	x31,x31,6
    4101adec:	00000073          	ecall

000000004101adf0 <SID_HEXCEP_17_vsstatus_vs0_passed>:
    4101adf0:	00f00f9b          	addiw	x31,x0,15
    4101adf4:	01cf9f93          	slli	x31,x31,0x1c
    4101adf8:	001f8f93          	addi	x31,x31,1
    4101adfc:	00000073          	ecall

000000004101ae00 <SID_HEXCEP_17_sstatus_vs0>:
    4101ae00:	0006c137          	lui	x2,0x6c
    4101ae04:	069cefb7          	lui	x31,0x69ce
    4101ae08:	0b0f8f9b          	addiw	x31,x31,176 # 69ce0b0 <machine_csr_jump_table_flags>
    4101ae0c:	08300f13          	li	x30,131
    4101ae10:	01efb023          	sd	x30,0(x31)
    4101ae14:	000f0fb7          	lui	x31,0xf0
    4101ae18:	001f8f9b          	addiw	x31,x31,1 # f0001 <SID_HEXCEP_09_hinval_vvma_vu_stack+0x25001>
    4101ae1c:	00cf9f93          	slli	x31,x31,0xc
    4101ae20:	005f8f93          	addi	x31,x31,5
    4101ae24:	00000073          	ecall
    4101ae28:	00713023          	sd	x7,0(x2) # 6c000 <tp_csr_storage>
    4101ae2c:	069cefb7          	lui	x31,0x69ce
    4101ae30:	0b8f8f9b          	addiw	x31,x31,184 # 69ce0b8 <super_csr_jump_table_flags>
    4101ae34:	08400f13          	li	x30,132
    4101ae38:	01efb023          	sd	x30,0(x31)
    4101ae3c:	000f0fb7          	lui	x31,0xf0
    4101ae40:	001f8f9b          	addiw	x31,x31,1 # f0001 <SID_HEXCEP_09_hinval_vvma_vu_stack+0x25001>
    4101ae44:	00cf9f93          	slli	x31,x31,0xc
    4101ae48:	006f8f93          	addi	x31,x31,6
    4101ae4c:	00000073          	ecall
    4101ae50:	00713423          	sd	x7,8(x2)
    4101ae54:	0004f137          	lui	x2,0x4f
    4101ae58:	000012b7          	lui	x5,0x1
    4101ae5c:	00510133          	add	x2,x2,x5
    4101ae60:	ff017113          	andi	x2,x2,-16
    4101ae64:	60000d13          	li	x26,1536
    4101ae68:	00500d93          	li	x27,5
    4101ae6c:	000f0fb7          	lui	x31,0xf0
    4101ae70:	001f8f9b          	addiw	x31,x31,1 # f0001 <SID_HEXCEP_09_hinval_vvma_vu_stack+0x25001>
    4101ae74:	00cf9f93          	slli	x31,x31,0xc
    4101ae78:	002f8f93          	addi	x31,x31,2
    4101ae7c:	00000073          	ecall
    4101ae80:	20000393          	li	x7,512
    4101ae84:	069cefb7          	lui	x31,0x69ce
    4101ae88:	0b8f8f9b          	addiw	x31,x31,184 # 69ce0b8 <super_csr_jump_table_flags>
    4101ae8c:	08f00f13          	li	x30,143
    4101ae90:	01efb023          	sd	x30,0(x31)
    4101ae94:	000f0fb7          	lui	x31,0xf0
    4101ae98:	001f8f9b          	addiw	x31,x31,1 # f0001 <SID_HEXCEP_09_hinval_vvma_vu_stack+0x25001>
    4101ae9c:	00cf9f93          	slli	x31,x31,0xc
    4101aea0:	006f8f93          	addi	x31,x31,6
    4101aea4:	00000073          	ecall
    4101aea8:	40a44237          	lui	x4,0x40a44
    4101aeac:	00200e13          	li	x28,2
    4101aeb0:	05c23823          	sd	x28,80(x4) # 40a44050 <check_excp_expected_cause>
    4101aeb4:	00000e17          	auipc	x28,0x0
    4101aeb8:	048e0e13          	addi	x28,x28,72 # 4101aefc <fault_label_190>
    4101aebc:	03c23023          	sd	x28,32(x4) # 20 <SECURE_ACCESS_PROBABILITY+0x2>
    4101aec0:	00000e13          	li	x28,0
    4101aec4:	05c23023          	sd	x28,64(x4) # 40 <XLEN>
    4101aec8:	00000e13          	li	x28,0
    4101aecc:	05c23423          	sd	x28,72(x4) # 48 <XLEN+0x8>
    4101aed0:	00000e17          	auipc	x28,0x0
    4101aed4:	040e0e13          	addi	x28,x28,64 # 4101af10 <excp_return_label_190>
    4101aed8:	03c23823          	sd	x28,48(x4) # 30 <SECURE_ACCESS_PROBABILITY+0x12>
    4101aedc:	00000e13          	li	x28,0
    4101aee0:	03c23c23          	sd	x28,56(x4) # 38 <SECURE_ACCESS_PROBABILITY+0x1a>
    4101aee4:	00000e13          	li	x28,0
    4101aee8:	07c23023          	sd	x28,96(x4) # 60 <XLEN+0x20>
    4101aeec:	00000e13          	li	x28,0
    4101aef0:	07c23423          	sd	x28,104(x4) # 68 <XLEN+0x28>
    4101aef4:	00000e13          	li	x28,0
    4101aef8:	07c23823          	sd	x28,112(x4) # 70 <XLEN+0x30>

000000004101aefc <fault_label_190>:
    4101aefc:	c100f057          	vsetivli	x0,1,e32,m1,tu,mu
    4101af00:	069ce5b7          	lui	x11,0x69ce
    4101af04:	0085859b          	addiw	x11,x11,8 # 69ce008 <failed_addr>
    4101af08:	0005b583          	ld	x11,0(x11)
    4101af0c:	00058067          	jr	x11

000000004101af10 <excp_return_label_190>:
    4101af10:	0006c137          	lui	x2,0x6c
    4101af14:	00013383          	ld	x7,0(x2) # 6c000 <tp_csr_storage>
    4101af18:	069cefb7          	lui	x31,0x69ce
    4101af1c:	0b0f8f9b          	addiw	x31,x31,176 # 69ce0b0 <machine_csr_jump_table_flags>
    4101af20:	08600f13          	li	x30,134
    4101af24:	01efb023          	sd	x30,0(x31)
    4101af28:	000f0fb7          	lui	x31,0xf0
    4101af2c:	001f8f9b          	addiw	x31,x31,1 # f0001 <SID_HEXCEP_09_hinval_vvma_vu_stack+0x25001>
    4101af30:	00cf9f93          	slli	x31,x31,0xc
    4101af34:	005f8f93          	addi	x31,x31,5
    4101af38:	00000073          	ecall
    4101af3c:	00813383          	ld	x7,8(x2)
    4101af40:	069cefb7          	lui	x31,0x69ce
    4101af44:	0b8f8f9b          	addiw	x31,x31,184 # 69ce0b8 <super_csr_jump_table_flags>
    4101af48:	08700f13          	li	x30,135
    4101af4c:	01efb023          	sd	x30,0(x31)
    4101af50:	000f0fb7          	lui	x31,0xf0
    4101af54:	001f8f9b          	addiw	x31,x31,1 # f0001 <SID_HEXCEP_09_hinval_vvma_vu_stack+0x25001>
    4101af58:	00cf9f93          	slli	x31,x31,0xc
    4101af5c:	006f8f93          	addi	x31,x31,6
    4101af60:	00000073          	ecall

000000004101af64 <SID_HEXCEP_17_sstatus_vs0_passed>:
    4101af64:	00f00f9b          	addiw	x31,x0,15
    4101af68:	01cf9f93          	slli	x31,x31,0x1c
    4101af6c:	001f8f93          	addi	x31,x31,1
    4101af70:	00000073          	ecall

000000004101af74 <SID_HEXCEP_19_misaligned_amo>:
    4101af74:	0006c137          	lui	x2,0x6c
    4101af78:	069cefb7          	lui	x31,0x69ce
    4101af7c:	0b0f8f9b          	addiw	x31,x31,176 # 69ce0b0 <machine_csr_jump_table_flags>
    4101af80:	08300f13          	li	x30,131
    4101af84:	01efb023          	sd	x30,0(x31)
    4101af88:	000f0fb7          	lui	x31,0xf0
    4101af8c:	001f8f9b          	addiw	x31,x31,1 # f0001 <SID_HEXCEP_09_hinval_vvma_vu_stack+0x25001>
    4101af90:	00cf9f93          	slli	x31,x31,0xc
    4101af94:	005f8f93          	addi	x31,x31,5
    4101af98:	00000073          	ecall
    4101af9c:	00713023          	sd	x7,0(x2) # 6c000 <tp_csr_storage>
    4101afa0:	01c87137          	lui	x2,0x1c87
    4101afa4:	7371011b          	addiw	x2,x2,1847 # 1c87737 <SID_HEXCEP_17_vs0_both_stack+0x6e0737>
    4101afa8:	00e11113          	slli	x2,x2,0xe
    4101afac:	000012b7          	lui	x5,0x1
    4101afb0:	00510133          	add	x2,x2,x5
    4101afb4:	ff017113          	andi	x2,x2,-16
    4101afb8:	40a44237          	lui	x4,0x40a44
    4101afbc:	00700e13          	li	x28,7
    4101afc0:	05c23823          	sd	x28,80(x4) # 40a44050 <check_excp_expected_cause>
    4101afc4:	00000e17          	auipc	x28,0x0
    4101afc8:	068e0e13          	addi	x28,x28,104 # 4101b02c <fault_label_191>
    4101afcc:	03c23023          	sd	x28,32(x4) # 20 <SECURE_ACCESS_PROBABILITY+0x2>
    4101afd0:	00000e13          	li	x28,0
    4101afd4:	05c23023          	sd	x28,64(x4) # 40 <XLEN>
    4101afd8:	00000e13          	li	x28,0
    4101afdc:	05c23423          	sd	x28,72(x4) # 48 <XLEN+0x8>
    4101afe0:	00000e17          	auipc	x28,0x0
    4101afe4:	060e0e13          	addi	x28,x28,96 # 4101b040 <excp_return_label_191>
    4101afe8:	03c23823          	sd	x28,48(x4) # 30 <SECURE_ACCESS_PROBABILITY+0x12>
    4101afec:	00000e13          	li	x28,0
    4101aff0:	03c23c23          	sd	x28,56(x4) # 38 <SECURE_ACCESS_PROBABILITY+0x1a>
    4101aff4:	00000e13          	li	x28,0
    4101aff8:	07c23023          	sd	x28,96(x4) # 60 <XLEN+0x20>
    4101affc:	00000e13          	li	x28,0
    4101b000:	07c23423          	sd	x28,104(x4) # 68 <XLEN+0x28>
    4101b004:	00000e13          	li	x28,0
    4101b008:	07c23823          	sd	x28,112(x4) # 70 <XLEN+0x30>
    4101b00c:	0a76fb37          	lui	x22,0xa76f
    4101b010:	245b0b1b          	addiw	x22,x22,581 # a76f245 <SID_HEXCEP_16_fs0_both_stack+0x1703245>
    4101b014:	00fb1b13          	slli	x22,x22,0xf
    4101b018:	53db0b13          	addi	x22,x22,1341
    4101b01c:	00cb1b13          	slli	x22,x22,0xc
    4101b020:	00100d93          	li	x27,1
    4101b024:	01bb0433          	add	x8,x22,x27
    4101b028:	00100813          	li	x16,1

000000004101b02c <fault_label_191>:
    4101b02c:	010423af          	amoadd.w	x7,x16,(x8)
    4101b030:	069ce7b7          	lui	x15,0x69ce
    4101b034:	0087879b          	addiw	x15,x15,8 # 69ce008 <failed_addr>
    4101b038:	0007bc83          	ld	x25,0(x15)
    4101b03c:	000c8067          	jr	x25

000000004101b040 <excp_return_label_191>:
    4101b040:	40a44237          	lui	x4,0x40a44
    4101b044:	00700e13          	li	x28,7
    4101b048:	05c23823          	sd	x28,80(x4) # 40a44050 <check_excp_expected_cause>
    4101b04c:	00000e17          	auipc	x28,0x0
    4101b050:	068e0e13          	addi	x28,x28,104 # 4101b0b4 <fault_label_192>
    4101b054:	03c23023          	sd	x28,32(x4) # 20 <SECURE_ACCESS_PROBABILITY+0x2>
    4101b058:	00000e13          	li	x28,0
    4101b05c:	05c23023          	sd	x28,64(x4) # 40 <XLEN>
    4101b060:	00000e13          	li	x28,0
    4101b064:	05c23423          	sd	x28,72(x4) # 48 <XLEN+0x8>
    4101b068:	00000e17          	auipc	x28,0x0
    4101b06c:	060e0e13          	addi	x28,x28,96 # 4101b0c8 <excp_return_label_192>
    4101b070:	03c23823          	sd	x28,48(x4) # 30 <SECURE_ACCESS_PROBABILITY+0x12>
    4101b074:	00000e13          	li	x28,0
    4101b078:	03c23c23          	sd	x28,56(x4) # 38 <SECURE_ACCESS_PROBABILITY+0x1a>
    4101b07c:	00000e13          	li	x28,0
    4101b080:	07c23023          	sd	x28,96(x4) # 60 <XLEN+0x20>
    4101b084:	00000e13          	li	x28,0
    4101b088:	07c23423          	sd	x28,104(x4) # 68 <XLEN+0x28>
    4101b08c:	00000e13          	li	x28,0
    4101b090:	07c23823          	sd	x28,112(x4) # 70 <XLEN+0x30>
    4101b094:	0a76ff37          	lui	x30,0xa76f
    4101b098:	245f0f1b          	addiw	x30,x30,581 # a76f245 <SID_HEXCEP_16_fs0_both_stack+0x1703245>
    4101b09c:	00ff1f13          	slli	x30,x30,0xf
    4101b0a0:	53df0f13          	addi	x30,x30,1341
    4101b0a4:	00cf1f13          	slli	x30,x30,0xc
    4101b0a8:	00300893          	li	x17,3
    4101b0ac:	011f0fb3          	add	x31,x30,x17
    4101b0b0:	00300993          	li	x19,3

000000004101b0b4 <fault_label_192>:
    4101b0b4:	093fa4af          	amoswap.w	x9,x19,(x31)
    4101b0b8:	069ce637          	lui	x12,0x69ce
    4101b0bc:	0086061b          	addiw	x12,x12,8 # 69ce008 <failed_addr>
    4101b0c0:	00063683          	ld	x13,0(x12)
    4101b0c4:	00068067          	jr	x13

000000004101b0c8 <excp_return_label_192>:
    4101b0c8:	40a44237          	lui	x4,0x40a44
    4101b0cc:	00700e13          	li	x28,7
    4101b0d0:	05c23823          	sd	x28,80(x4) # 40a44050 <check_excp_expected_cause>
    4101b0d4:	00000e17          	auipc	x28,0x0
    4101b0d8:	068e0e13          	addi	x28,x28,104 # 4101b13c <fault_label_193>
    4101b0dc:	03c23023          	sd	x28,32(x4) # 20 <SECURE_ACCESS_PROBABILITY+0x2>
    4101b0e0:	00000e13          	li	x28,0
    4101b0e4:	05c23023          	sd	x28,64(x4) # 40 <XLEN>
    4101b0e8:	00000e13          	li	x28,0
    4101b0ec:	05c23423          	sd	x28,72(x4) # 48 <XLEN+0x8>
    4101b0f0:	00000e17          	auipc	x28,0x0
    4101b0f4:	060e0e13          	addi	x28,x28,96 # 4101b150 <excp_return_label_193>
    4101b0f8:	03c23823          	sd	x28,48(x4) # 30 <SECURE_ACCESS_PROBABILITY+0x12>
    4101b0fc:	00000e13          	li	x28,0
    4101b100:	03c23c23          	sd	x28,56(x4) # 38 <SECURE_ACCESS_PROBABILITY+0x1a>
    4101b104:	00000e13          	li	x28,0
    4101b108:	07c23023          	sd	x28,96(x4) # 60 <XLEN+0x20>
    4101b10c:	00000e13          	li	x28,0
    4101b110:	07c23423          	sd	x28,104(x4) # 68 <XLEN+0x28>
    4101b114:	00000e13          	li	x28,0
    4101b118:	07c23823          	sd	x28,112(x4) # 70 <XLEN+0x30>
    4101b11c:	0a76ffb7          	lui	x31,0xa76f
    4101b120:	245f8f9b          	addiw	x31,x31,581 # a76f245 <SID_HEXCEP_16_fs0_both_stack+0x1703245>
    4101b124:	00ff9f93          	slli	x31,x31,0xf
    4101b128:	53df8f93          	addi	x31,x31,1341
    4101b12c:	00cf9f93          	slli	x31,x31,0xc
    4101b130:	00400b13          	li	x22,4
    4101b134:	016f8eb3          	add	x29,x31,x22
    4101b138:	00400a93          	li	x21,4

000000004101b13c <fault_label_193>:
    4101b13c:	015ebdaf          	amoadd.d	x27,x21,(x29)
    4101b140:	069ce837          	lui	x16,0x69ce
    4101b144:	0088081b          	addiw	x16,x16,8 # 69ce008 <failed_addr>
    4101b148:	00083583          	ld	x11,0(x16)
    4101b14c:	00058067          	jr	x11

000000004101b150 <excp_return_label_193>:
    4101b150:	0006c137          	lui	x2,0x6c
    4101b154:	00013383          	ld	x7,0(x2) # 6c000 <tp_csr_storage>
    4101b158:	069cefb7          	lui	x31,0x69ce
    4101b15c:	0b0f8f9b          	addiw	x31,x31,176 # 69ce0b0 <machine_csr_jump_table_flags>
    4101b160:	08600f13          	li	x30,134
    4101b164:	01efb023          	sd	x30,0(x31)
    4101b168:	000f0fb7          	lui	x31,0xf0
    4101b16c:	001f8f9b          	addiw	x31,x31,1 # f0001 <SID_HEXCEP_09_hinval_vvma_vu_stack+0x25001>
    4101b170:	00cf9f93          	slli	x31,x31,0xc
    4101b174:	005f8f93          	addi	x31,x31,5
    4101b178:	00000073          	ecall

000000004101b17c <SID_HEXCEP_19_misaligned_amo_passed>:
    4101b17c:	00f00f9b          	addiw	x31,x0,15
    4101b180:	01cf9f93          	slli	x31,x31,0x1c
    4101b184:	001f8f93          	addi	x31,x31,1
    4101b188:	00000073          	ecall

000000004101b18c <SID_HEXCEP_19_misaligned_lr>:
    4101b18c:	0006c137          	lui	x2,0x6c
    4101b190:	069cefb7          	lui	x31,0x69ce
    4101b194:	0b0f8f9b          	addiw	x31,x31,176 # 69ce0b0 <machine_csr_jump_table_flags>
    4101b198:	08300f13          	li	x30,131
    4101b19c:	01efb023          	sd	x30,0(x31)
    4101b1a0:	000f0fb7          	lui	x31,0xf0
    4101b1a4:	001f8f9b          	addiw	x31,x31,1 # f0001 <SID_HEXCEP_09_hinval_vvma_vu_stack+0x25001>
    4101b1a8:	00cf9f93          	slli	x31,x31,0xc
    4101b1ac:	005f8f93          	addi	x31,x31,5
    4101b1b0:	00000073          	ecall
    4101b1b4:	00713023          	sd	x7,0(x2) # 6c000 <tp_csr_storage>
    4101b1b8:	0014a137          	lui	x2,0x14a
    4101b1bc:	d331011b          	addiw	x2,x2,-717 # 149d33 <hart_stack_0_end+0x2bd33>
    4101b1c0:	00f11113          	slli	x2,x2,0xf
    4101b1c4:	000012b7          	lui	x5,0x1
    4101b1c8:	00510133          	add	x2,x2,x5
    4101b1cc:	ff017113          	andi	x2,x2,-16
    4101b1d0:	40a44237          	lui	x4,0x40a44
    4101b1d4:	00500e13          	li	x28,5
    4101b1d8:	05c23823          	sd	x28,80(x4) # 40a44050 <check_excp_expected_cause>
    4101b1dc:	00000e17          	auipc	x28,0x0
    4101b1e0:	054e0e13          	addi	x28,x28,84 # 4101b230 <fault_label_194>
    4101b1e4:	03c23023          	sd	x28,32(x4) # 20 <SECURE_ACCESS_PROBABILITY+0x2>
    4101b1e8:	00000e13          	li	x28,0
    4101b1ec:	05c23023          	sd	x28,64(x4) # 40 <XLEN>
    4101b1f0:	00000e13          	li	x28,0
    4101b1f4:	05c23423          	sd	x28,72(x4) # 48 <XLEN+0x8>
    4101b1f8:	00000e17          	auipc	x28,0x0
    4101b1fc:	04ce0e13          	addi	x28,x28,76 # 4101b244 <excp_return_label_194>
    4101b200:	03c23823          	sd	x28,48(x4) # 30 <SECURE_ACCESS_PROBABILITY+0x12>
    4101b204:	00000e13          	li	x28,0
    4101b208:	03c23c23          	sd	x28,56(x4) # 38 <SECURE_ACCESS_PROBABILITY+0x1a>
    4101b20c:	00000e13          	li	x28,0
    4101b210:	07c23023          	sd	x28,96(x4) # 60 <XLEN+0x20>
    4101b214:	00000e13          	li	x28,0
    4101b218:	07c23423          	sd	x28,104(x4) # 68 <XLEN+0x28>
    4101b21c:	00000e13          	li	x28,0
    4101b220:	07c23823          	sd	x28,112(x4) # 70 <XLEN+0x30>
    4101b224:	00002837          	lui	x16,0x2
    4101b228:	00100a93          	li	x21,1
    4101b22c:	01580933          	add	x18,x16,x21

000000004101b230 <fault_label_194>:
    4101b230:	100925af          	lr.w	x11,(x18)
    4101b234:	069cecb7          	lui	x25,0x69ce
    4101b238:	008c8c9b          	addiw	x25,x25,8 # 69ce008 <failed_addr>
    4101b23c:	000cbc03          	ld	x24,0(x25)
    4101b240:	000c0067          	jr	x24

000000004101b244 <excp_return_label_194>:
    4101b244:	40a44237          	lui	x4,0x40a44
    4101b248:	00500e13          	li	x28,5
    4101b24c:	05c23823          	sd	x28,80(x4) # 40a44050 <check_excp_expected_cause>
    4101b250:	00000e17          	auipc	x28,0x0
    4101b254:	054e0e13          	addi	x28,x28,84 # 4101b2a4 <fault_label_195>
    4101b258:	03c23023          	sd	x28,32(x4) # 20 <SECURE_ACCESS_PROBABILITY+0x2>
    4101b25c:	00000e13          	li	x28,0
    4101b260:	05c23023          	sd	x28,64(x4) # 40 <XLEN>
    4101b264:	00000e13          	li	x28,0
    4101b268:	05c23423          	sd	x28,72(x4) # 48 <XLEN+0x8>
    4101b26c:	00000e17          	auipc	x28,0x0
    4101b270:	04ce0e13          	addi	x28,x28,76 # 4101b2b8 <excp_return_label_195>
    4101b274:	03c23823          	sd	x28,48(x4) # 30 <SECURE_ACCESS_PROBABILITY+0x12>
    4101b278:	00000e13          	li	x28,0
    4101b27c:	03c23c23          	sd	x28,56(x4) # 38 <SECURE_ACCESS_PROBABILITY+0x1a>
    4101b280:	00000e13          	li	x28,0
    4101b284:	07c23023          	sd	x28,96(x4) # 60 <XLEN+0x20>
    4101b288:	00000e13          	li	x28,0
    4101b28c:	07c23423          	sd	x28,104(x4) # 68 <XLEN+0x28>
    4101b290:	00000e13          	li	x28,0
    4101b294:	07c23823          	sd	x28,112(x4) # 70 <XLEN+0x30>
    4101b298:	000028b7          	lui	x17,0x2
    4101b29c:	00400d93          	li	x27,4
    4101b2a0:	01b88533          	add	x10,x17,x27

000000004101b2a4 <fault_label_195>:
    4101b2a4:	10053c2f          	lr.d	x24,(x10)
    4101b2a8:	069ceeb7          	lui	x29,0x69ce
    4101b2ac:	008e8e9b          	addiw	x29,x29,8 # 69ce008 <failed_addr>
    4101b2b0:	000ebc83          	ld	x25,0(x29)
    4101b2b4:	000c8067          	jr	x25

000000004101b2b8 <excp_return_label_195>:
    4101b2b8:	0006c137          	lui	x2,0x6c
    4101b2bc:	00013383          	ld	x7,0(x2) # 6c000 <tp_csr_storage>
    4101b2c0:	069cefb7          	lui	x31,0x69ce
    4101b2c4:	0b0f8f9b          	addiw	x31,x31,176 # 69ce0b0 <machine_csr_jump_table_flags>
    4101b2c8:	08600f13          	li	x30,134
    4101b2cc:	01efb023          	sd	x30,0(x31)
    4101b2d0:	000f0fb7          	lui	x31,0xf0
    4101b2d4:	001f8f9b          	addiw	x31,x31,1 # f0001 <SID_HEXCEP_09_hinval_vvma_vu_stack+0x25001>
    4101b2d8:	00cf9f93          	slli	x31,x31,0xc
    4101b2dc:	005f8f93          	addi	x31,x31,5
    4101b2e0:	00000073          	ecall

000000004101b2e4 <SID_HEXCEP_19_misaligned_lr_passed>:
    4101b2e4:	00f00f9b          	addiw	x31,x0,15
    4101b2e8:	01cf9f93          	slli	x31,x31,0x1c
    4101b2ec:	001f8f93          	addi	x31,x31,1
    4101b2f0:	00000073          	ecall

000000004101b2f4 <SID_HEXCEP_19_misaligned_sc>:
    4101b2f4:	0006c137          	lui	x2,0x6c
    4101b2f8:	069cefb7          	lui	x31,0x69ce
    4101b2fc:	0b0f8f9b          	addiw	x31,x31,176 # 69ce0b0 <machine_csr_jump_table_flags>
    4101b300:	08300f13          	li	x30,131
    4101b304:	01efb023          	sd	x30,0(x31)
    4101b308:	000f0fb7          	lui	x31,0xf0
    4101b30c:	001f8f9b          	addiw	x31,x31,1 # f0001 <SID_HEXCEP_09_hinval_vvma_vu_stack+0x25001>
    4101b310:	00cf9f93          	slli	x31,x31,0xc
    4101b314:	005f8f93          	addi	x31,x31,5
    4101b318:	00000073          	ecall
    4101b31c:	00713023          	sd	x7,0(x2) # 6c000 <tp_csr_storage>
    4101b320:	00060137          	lui	x2,0x60
    4101b324:	cd51011b          	addiw	x2,x2,-811 # 5fcd5 <SID_HEXCEP_17_sstatus_vs0_stack+0x10cd5>
    4101b328:	00d11113          	slli	x2,x2,0xd
    4101b32c:	4a310113          	addi	x2,x2,1187
    4101b330:	00c11113          	slli	x2,x2,0xc
    4101b334:	000012b7          	lui	x5,0x1
    4101b338:	00510133          	add	x2,x2,x5
    4101b33c:	ff017113          	andi	x2,x2,-16
    4101b340:	40a44237          	lui	x4,0x40a44
    4101b344:	00700e13          	li	x28,7
    4101b348:	05c23823          	sd	x28,80(x4) # 40a44050 <check_excp_expected_cause>
    4101b34c:	00000e17          	auipc	x28,0x0
    4101b350:	058e0e13          	addi	x28,x28,88 # 4101b3a4 <fault_label_196>
    4101b354:	03c23023          	sd	x28,32(x4) # 20 <SECURE_ACCESS_PROBABILITY+0x2>
    4101b358:	00000e13          	li	x28,0
    4101b35c:	05c23023          	sd	x28,64(x4) # 40 <XLEN>
    4101b360:	00000e13          	li	x28,0
    4101b364:	05c23423          	sd	x28,72(x4) # 48 <XLEN+0x8>
    4101b368:	00000e17          	auipc	x28,0x0
    4101b36c:	050e0e13          	addi	x28,x28,80 # 4101b3b8 <excp_return_label_196>
    4101b370:	03c23823          	sd	x28,48(x4) # 30 <SECURE_ACCESS_PROBABILITY+0x12>
    4101b374:	00000e13          	li	x28,0
    4101b378:	03c23c23          	sd	x28,56(x4) # 38 <SECURE_ACCESS_PROBABILITY+0x1a>
    4101b37c:	00000e13          	li	x28,0
    4101b380:	07c23023          	sd	x28,96(x4) # 60 <XLEN+0x20>
    4101b384:	00000e13          	li	x28,0
    4101b388:	07c23423          	sd	x28,104(x4) # 68 <XLEN+0x28>
    4101b38c:	00000e13          	li	x28,0
    4101b390:	07c23823          	sd	x28,112(x4) # 70 <XLEN+0x30>
    4101b394:	00102637          	lui	x12,0x102
    4101b398:	00100793          	li	x15,1
    4101b39c:	00f60933          	add	x18,x12,x15
    4101b3a0:	00100593          	li	x11,1

000000004101b3a4 <fault_label_196>:
    4101b3a4:	18b924af          	sc.w	x9,x11,(x18)
    4101b3a8:	069ce8b7          	lui	x17,0x69ce
    4101b3ac:	0088889b          	addiw	x17,x17,8 # 69ce008 <failed_addr>
    4101b3b0:	0008bd83          	ld	x27,0(x17)
    4101b3b4:	000d8067          	jr	x27

000000004101b3b8 <excp_return_label_196>:
    4101b3b8:	40a44237          	lui	x4,0x40a44
    4101b3bc:	00700e13          	li	x28,7
    4101b3c0:	05c23823          	sd	x28,80(x4) # 40a44050 <check_excp_expected_cause>
    4101b3c4:	00000e17          	auipc	x28,0x0
    4101b3c8:	058e0e13          	addi	x28,x28,88 # 4101b41c <fault_label_197>
    4101b3cc:	03c23023          	sd	x28,32(x4) # 20 <SECURE_ACCESS_PROBABILITY+0x2>
    4101b3d0:	00000e13          	li	x28,0
    4101b3d4:	05c23023          	sd	x28,64(x4) # 40 <XLEN>
    4101b3d8:	00000e13          	li	x28,0
    4101b3dc:	05c23423          	sd	x28,72(x4) # 48 <XLEN+0x8>
    4101b3e0:	00000e17          	auipc	x28,0x0
    4101b3e4:	050e0e13          	addi	x28,x28,80 # 4101b430 <excp_return_label_197>
    4101b3e8:	03c23823          	sd	x28,48(x4) # 30 <SECURE_ACCESS_PROBABILITY+0x12>
    4101b3ec:	00000e13          	li	x28,0
    4101b3f0:	03c23c23          	sd	x28,56(x4) # 38 <SECURE_ACCESS_PROBABILITY+0x1a>
    4101b3f4:	00000e13          	li	x28,0
    4101b3f8:	07c23023          	sd	x28,96(x4) # 60 <XLEN+0x20>
    4101b3fc:	00000e13          	li	x28,0
    4101b400:	07c23423          	sd	x28,104(x4) # 68 <XLEN+0x28>
    4101b404:	00000e13          	li	x28,0
    4101b408:	07c23823          	sd	x28,112(x4) # 70 <XLEN+0x30>
    4101b40c:	00102837          	lui	x16,0x102
    4101b410:	00400d93          	li	x27,4
    4101b414:	01b805b3          	add	x11,x16,x27
    4101b418:	00400c13          	li	x24,4

000000004101b41c <fault_label_197>:
    4101b41c:	1985b72f          	sc.d	x14,x24,(x11)
    4101b420:	069ced37          	lui	x26,0x69ce
    4101b424:	008d0d1b          	addiw	x26,x26,8 # 69ce008 <failed_addr>
    4101b428:	000d3683          	ld	x13,0(x26)
    4101b42c:	00068067          	jr	x13

000000004101b430 <excp_return_label_197>:
    4101b430:	0006c137          	lui	x2,0x6c
    4101b434:	00013383          	ld	x7,0(x2) # 6c000 <tp_csr_storage>
    4101b438:	069cefb7          	lui	x31,0x69ce
    4101b43c:	0b0f8f9b          	addiw	x31,x31,176 # 69ce0b0 <machine_csr_jump_table_flags>
    4101b440:	08600f13          	li	x30,134
    4101b444:	01efb023          	sd	x30,0(x31)
    4101b448:	000f0fb7          	lui	x31,0xf0
    4101b44c:	001f8f9b          	addiw	x31,x31,1 # f0001 <SID_HEXCEP_09_hinval_vvma_vu_stack+0x25001>
    4101b450:	00cf9f93          	slli	x31,x31,0xc
    4101b454:	005f8f93          	addi	x31,x31,5
    4101b458:	00000073          	ecall

000000004101b45c <SID_HEXCEP_19_misaligned_sc_passed>:
    4101b45c:	00f00f9b          	addiw	x31,x0,15
    4101b460:	01cf9f93          	slli	x31,x31,0x1c
    4101b464:	001f8f93          	addi	x31,x31,1
    4101b468:	00000073          	ecall

000000004101b46c <SID_HEXCEP_19_misaligned_amo_delegated>:
    4101b46c:	0006c137          	lui	x2,0x6c
    4101b470:	069cefb7          	lui	x31,0x69ce
    4101b474:	0b8f8f9b          	addiw	x31,x31,184 # 69ce0b8 <super_csr_jump_table_flags>
    4101b478:	0a700f13          	li	x30,167
    4101b47c:	01efb023          	sd	x30,0(x31)
    4101b480:	000f0fb7          	lui	x31,0xf0
    4101b484:	001f8f9b          	addiw	x31,x31,1 # f0001 <SID_HEXCEP_09_hinval_vvma_vu_stack+0x25001>
    4101b488:	00cf9f93          	slli	x31,x31,0xc
    4101b48c:	006f8f93          	addi	x31,x31,6
    4101b490:	00000073          	ecall
    4101b494:	00713023          	sd	x7,0(x2) # 6c000 <tp_csr_storage>
    4101b498:	069cefb7          	lui	x31,0x69ce
    4101b49c:	0b0f8f9b          	addiw	x31,x31,176 # 69ce0b0 <machine_csr_jump_table_flags>
    4101b4a0:	0a800f13          	li	x30,168
    4101b4a4:	01efb023          	sd	x30,0(x31)
    4101b4a8:	000f0fb7          	lui	x31,0xf0
    4101b4ac:	001f8f9b          	addiw	x31,x31,1 # f0001 <SID_HEXCEP_09_hinval_vvma_vu_stack+0x25001>
    4101b4b0:	00cf9f93          	slli	x31,x31,0xc
    4101b4b4:	005f8f93          	addi	x31,x31,5
    4101b4b8:	00000073          	ecall
    4101b4bc:	00713423          	sd	x7,8(x2)
    4101b4c0:	069cefb7          	lui	x31,0x69ce
    4101b4c4:	0b0f8f9b          	addiw	x31,x31,176 # 69ce0b0 <machine_csr_jump_table_flags>
    4101b4c8:	08300f13          	li	x30,131
    4101b4cc:	01efb023          	sd	x30,0(x31)
    4101b4d0:	000f0fb7          	lui	x31,0xf0
    4101b4d4:	001f8f9b          	addiw	x31,x31,1 # f0001 <SID_HEXCEP_09_hinval_vvma_vu_stack+0x25001>
    4101b4d8:	00cf9f93          	slli	x31,x31,0xc
    4101b4dc:	005f8f93          	addi	x31,x31,5
    4101b4e0:	00000073          	ecall
    4101b4e4:	00713823          	sd	x7,16(x2)
    4101b4e8:	003db137          	lui	x2,0x3db
    4101b4ec:	28f1011b          	addiw	x2,x2,655 # 3db28f <hart_stack_0_end+0x2bd28f>
    4101b4f0:	00c11113          	slli	x2,x2,0xc
    4101b4f4:	41f10113          	addi	x2,x2,1055
    4101b4f8:	00c11113          	slli	x2,x2,0xc
    4101b4fc:	000012b7          	lui	x5,0x1
    4101b500:	00510133          	add	x2,x2,x5
    4101b504:	ff017113          	andi	x2,x2,-16
    4101b508:	08000393          	li	x7,128
    4101b50c:	069cefb7          	lui	x31,0x69ce
    4101b510:	0b0f8f9b          	addiw	x31,x31,176 # 69ce0b0 <machine_csr_jump_table_flags>
    4101b514:	0aa00f13          	li	x30,170
    4101b518:	01efb023          	sd	x30,0(x31)
    4101b51c:	000f0fb7          	lui	x31,0xf0
    4101b520:	001f8f9b          	addiw	x31,x31,1 # f0001 <SID_HEXCEP_09_hinval_vvma_vu_stack+0x25001>
    4101b524:	00cf9f93          	slli	x31,x31,0xc
    4101b528:	005f8f93          	addi	x31,x31,5
    4101b52c:	00000073          	ecall
    4101b530:	08000393          	li	x7,128
    4101b534:	069cefb7          	lui	x31,0x69ce
    4101b538:	0b8f8f9b          	addiw	x31,x31,184 # 69ce0b8 <super_csr_jump_table_flags>
    4101b53c:	0ab00f13          	li	x30,171
    4101b540:	01efb023          	sd	x30,0(x31)
    4101b544:	000f0fb7          	lui	x31,0xf0
    4101b548:	001f8f9b          	addiw	x31,x31,1 # f0001 <SID_HEXCEP_09_hinval_vvma_vu_stack+0x25001>
    4101b54c:	00cf9f93          	slli	x31,x31,0xc
    4101b550:	006f8f93          	addi	x31,x31,6
    4101b554:	00000073          	ecall
    4101b558:	40a44237          	lui	x4,0x40a44
    4101b55c:	00700e13          	li	x28,7
    4101b560:	05c23823          	sd	x28,80(x4) # 40a44050 <check_excp_expected_cause>
    4101b564:	00000e17          	auipc	x28,0x0
    4101b568:	068e0e13          	addi	x28,x28,104 # 4101b5cc <fault_label_198>
    4101b56c:	03c23023          	sd	x28,32(x4) # 20 <SECURE_ACCESS_PROBABILITY+0x2>
    4101b570:	00000e13          	li	x28,0
    4101b574:	05c23023          	sd	x28,64(x4) # 40 <XLEN>
    4101b578:	00000e13          	li	x28,0
    4101b57c:	05c23423          	sd	x28,72(x4) # 48 <XLEN+0x8>
    4101b580:	00000e17          	auipc	x28,0x0
    4101b584:	060e0e13          	addi	x28,x28,96 # 4101b5e0 <excp_return_label_198>
    4101b588:	03c23823          	sd	x28,48(x4) # 30 <SECURE_ACCESS_PROBABILITY+0x12>
    4101b58c:	00000e13          	li	x28,0
    4101b590:	03c23c23          	sd	x28,56(x4) # 38 <SECURE_ACCESS_PROBABILITY+0x1a>
    4101b594:	00000e13          	li	x28,0
    4101b598:	07c23023          	sd	x28,96(x4) # 60 <XLEN+0x20>
    4101b59c:	00000e13          	li	x28,0
    4101b5a0:	07c23423          	sd	x28,104(x4) # 68 <XLEN+0x28>
    4101b5a4:	00000e13          	li	x28,0
    4101b5a8:	07c23823          	sd	x28,112(x4) # 70 <XLEN+0x30>
    4101b5ac:	0002d3b7          	lui	x7,0x2d
    4101b5b0:	fbd3839b          	addiw	x7,x7,-67 # 2cfbd <mem0+0xffbd>
    4101b5b4:	00e39393          	slli	x7,x7,0xe
    4101b5b8:	69b38393          	addi	x7,x7,1691
    4101b5bc:	00c39393          	slli	x7,x7,0xc
    4101b5c0:	00100593          	li	x11,1
    4101b5c4:	00b387b3          	add	x15,x7,x11
    4101b5c8:	00100893          	li	x17,1

000000004101b5cc <fault_label_198>:
    4101b5cc:	0117a8af          	amoadd.w	x17,x17,(x15)
    4101b5d0:	069cedb7          	lui	x27,0x69ce
    4101b5d4:	008d8d9b          	addiw	x27,x27,8 # 69ce008 <failed_addr>
    4101b5d8:	000dbf83          	ld	x31,0(x27)
    4101b5dc:	000f8067          	jr	x31

000000004101b5e0 <excp_return_label_198>:
    4101b5e0:	0006c137          	lui	x2,0x6c
    4101b5e4:	00013383          	ld	x7,0(x2) # 6c000 <tp_csr_storage>
    4101b5e8:	069cefb7          	lui	x31,0x69ce
    4101b5ec:	0b8f8f9b          	addiw	x31,x31,184 # 69ce0b8 <super_csr_jump_table_flags>
    4101b5f0:	0ac00f13          	li	x30,172
    4101b5f4:	01efb023          	sd	x30,0(x31)
    4101b5f8:	000f0fb7          	lui	x31,0xf0
    4101b5fc:	001f8f9b          	addiw	x31,x31,1 # f0001 <SID_HEXCEP_09_hinval_vvma_vu_stack+0x25001>
    4101b600:	00cf9f93          	slli	x31,x31,0xc
    4101b604:	006f8f93          	addi	x31,x31,6
    4101b608:	00000073          	ecall
    4101b60c:	00813383          	ld	x7,8(x2)
    4101b610:	069cefb7          	lui	x31,0x69ce
    4101b614:	0b0f8f9b          	addiw	x31,x31,176 # 69ce0b0 <machine_csr_jump_table_flags>
    4101b618:	0ad00f13          	li	x30,173
    4101b61c:	01efb023          	sd	x30,0(x31)
    4101b620:	000f0fb7          	lui	x31,0xf0
    4101b624:	001f8f9b          	addiw	x31,x31,1 # f0001 <SID_HEXCEP_09_hinval_vvma_vu_stack+0x25001>
    4101b628:	00cf9f93          	slli	x31,x31,0xc
    4101b62c:	005f8f93          	addi	x31,x31,5
    4101b630:	00000073          	ecall
    4101b634:	01013383          	ld	x7,16(x2)
    4101b638:	069cefb7          	lui	x31,0x69ce
    4101b63c:	0b0f8f9b          	addiw	x31,x31,176 # 69ce0b0 <machine_csr_jump_table_flags>
    4101b640:	08600f13          	li	x30,134
    4101b644:	01efb023          	sd	x30,0(x31)
    4101b648:	000f0fb7          	lui	x31,0xf0
    4101b64c:	001f8f9b          	addiw	x31,x31,1 # f0001 <SID_HEXCEP_09_hinval_vvma_vu_stack+0x25001>
    4101b650:	00cf9f93          	slli	x31,x31,0xc
    4101b654:	005f8f93          	addi	x31,x31,5
    4101b658:	00000073          	ecall

000000004101b65c <SID_HEXCEP_19_misaligned_amo_delegated_passed>:
    4101b65c:	00f00f9b          	addiw	x31,x0,15
    4101b660:	01cf9f93          	slli	x31,x31,0x1c
    4101b664:	001f8f93          	addi	x31,x31,1
    4101b668:	00000073          	ecall

000000004101b66c <SID_HEXCEP_19_misaligned_lr_delegated>:
    4101b66c:	0006c137          	lui	x2,0x6c
    4101b670:	069cefb7          	lui	x31,0x69ce
    4101b674:	0b8f8f9b          	addiw	x31,x31,184 # 69ce0b8 <super_csr_jump_table_flags>
    4101b678:	0a700f13          	li	x30,167
    4101b67c:	01efb023          	sd	x30,0(x31)
    4101b680:	000f0fb7          	lui	x31,0xf0
    4101b684:	001f8f9b          	addiw	x31,x31,1 # f0001 <SID_HEXCEP_09_hinval_vvma_vu_stack+0x25001>
    4101b688:	00cf9f93          	slli	x31,x31,0xc
    4101b68c:	006f8f93          	addi	x31,x31,6
    4101b690:	00000073          	ecall
    4101b694:	00713023          	sd	x7,0(x2) # 6c000 <tp_csr_storage>
    4101b698:	069cefb7          	lui	x31,0x69ce
    4101b69c:	0b0f8f9b          	addiw	x31,x31,176 # 69ce0b0 <machine_csr_jump_table_flags>
    4101b6a0:	0a800f13          	li	x30,168
    4101b6a4:	01efb023          	sd	x30,0(x31)
    4101b6a8:	000f0fb7          	lui	x31,0xf0
    4101b6ac:	001f8f9b          	addiw	x31,x31,1 # f0001 <SID_HEXCEP_09_hinval_vvma_vu_stack+0x25001>
    4101b6b0:	00cf9f93          	slli	x31,x31,0xc
    4101b6b4:	005f8f93          	addi	x31,x31,5
    4101b6b8:	00000073          	ecall
    4101b6bc:	00713423          	sd	x7,8(x2)
    4101b6c0:	069cefb7          	lui	x31,0x69ce
    4101b6c4:	0b0f8f9b          	addiw	x31,x31,176 # 69ce0b0 <machine_csr_jump_table_flags>
    4101b6c8:	08300f13          	li	x30,131
    4101b6cc:	01efb023          	sd	x30,0(x31)
    4101b6d0:	000f0fb7          	lui	x31,0xf0
    4101b6d4:	001f8f9b          	addiw	x31,x31,1 # f0001 <SID_HEXCEP_09_hinval_vvma_vu_stack+0x25001>
    4101b6d8:	00cf9f93          	slli	x31,x31,0xc
    4101b6dc:	005f8f93          	addi	x31,x31,5
    4101b6e0:	00000073          	ecall
    4101b6e4:	00713823          	sd	x7,16(x2)
    4101b6e8:	000a1137          	lui	x2,0xa1
    4101b6ec:	000012b7          	lui	x5,0x1
    4101b6f0:	00510133          	add	x2,x2,x5
    4101b6f4:	ff017113          	andi	x2,x2,-16
    4101b6f8:	02000393          	li	x7,32
    4101b6fc:	069cefb7          	lui	x31,0x69ce
    4101b700:	0b0f8f9b          	addiw	x31,x31,176 # 69ce0b0 <machine_csr_jump_table_flags>
    4101b704:	0aa00f13          	li	x30,170
    4101b708:	01efb023          	sd	x30,0(x31)
    4101b70c:	000f0fb7          	lui	x31,0xf0
    4101b710:	001f8f9b          	addiw	x31,x31,1 # f0001 <SID_HEXCEP_09_hinval_vvma_vu_stack+0x25001>
    4101b714:	00cf9f93          	slli	x31,x31,0xc
    4101b718:	005f8f93          	addi	x31,x31,5
    4101b71c:	00000073          	ecall
    4101b720:	02000393          	li	x7,32
    4101b724:	069cefb7          	lui	x31,0x69ce
    4101b728:	0b8f8f9b          	addiw	x31,x31,184 # 69ce0b8 <super_csr_jump_table_flags>
    4101b72c:	0ab00f13          	li	x30,171
    4101b730:	01efb023          	sd	x30,0(x31)
    4101b734:	000f0fb7          	lui	x31,0xf0
    4101b738:	001f8f9b          	addiw	x31,x31,1 # f0001 <SID_HEXCEP_09_hinval_vvma_vu_stack+0x25001>
    4101b73c:	00cf9f93          	slli	x31,x31,0xc
    4101b740:	006f8f93          	addi	x31,x31,6
    4101b744:	00000073          	ecall
    4101b748:	40a44237          	lui	x4,0x40a44
    4101b74c:	00500e13          	li	x28,5
    4101b750:	05c23823          	sd	x28,80(x4) # 40a44050 <check_excp_expected_cause>
    4101b754:	00000e17          	auipc	x28,0x0
    4101b758:	064e0e13          	addi	x28,x28,100 # 4101b7b8 <fault_label_199>
    4101b75c:	03c23023          	sd	x28,32(x4) # 20 <SECURE_ACCESS_PROBABILITY+0x2>
    4101b760:	00000e13          	li	x28,0
    4101b764:	05c23023          	sd	x28,64(x4) # 40 <XLEN>
    4101b768:	00000e13          	li	x28,0
    4101b76c:	05c23423          	sd	x28,72(x4) # 48 <XLEN+0x8>
    4101b770:	00000e17          	auipc	x28,0x0
    4101b774:	05ce0e13          	addi	x28,x28,92 # 4101b7cc <excp_return_label_199>
    4101b778:	03c23823          	sd	x28,48(x4) # 30 <SECURE_ACCESS_PROBABILITY+0x12>
    4101b77c:	00000e13          	li	x28,0
    4101b780:	03c23c23          	sd	x28,56(x4) # 38 <SECURE_ACCESS_PROBABILITY+0x1a>
    4101b784:	00000e13          	li	x28,0
    4101b788:	07c23023          	sd	x28,96(x4) # 60 <XLEN+0x20>
    4101b78c:	00000e13          	li	x28,0
    4101b790:	07c23423          	sd	x28,104(x4) # 68 <XLEN+0x28>
    4101b794:	00000e13          	li	x28,0
    4101b798:	07c23823          	sd	x28,112(x4) # 70 <XLEN+0x30>
    4101b79c:	007909b7          	lui	x19,0x790
    4101b7a0:	b119899b          	addiw	x19,x19,-1263 # 78fb11 <hart_stack_0_end+0x671b11>
    4101b7a4:	00e99993          	slli	x19,x19,0xe
    4101b7a8:	d1d98993          	addi	x19,x19,-739
    4101b7ac:	00c99993          	slli	x19,x19,0xc
    4101b7b0:	00100a13          	li	x20,1
    4101b7b4:	01498a33          	add	x20,x19,x20

000000004101b7b8 <fault_label_199>:
    4101b7b8:	100a23af          	lr.w	x7,(x20)
    4101b7bc:	069ce8b7          	lui	x17,0x69ce
    4101b7c0:	0088889b          	addiw	x17,x17,8 # 69ce008 <failed_addr>
    4101b7c4:	0008b783          	ld	x15,0(x17)
    4101b7c8:	00078067          	jr	x15

000000004101b7cc <excp_return_label_199>:
    4101b7cc:	0006c137          	lui	x2,0x6c
    4101b7d0:	00013383          	ld	x7,0(x2) # 6c000 <tp_csr_storage>
    4101b7d4:	069cefb7          	lui	x31,0x69ce
    4101b7d8:	0b8f8f9b          	addiw	x31,x31,184 # 69ce0b8 <super_csr_jump_table_flags>
    4101b7dc:	0ac00f13          	li	x30,172
    4101b7e0:	01efb023          	sd	x30,0(x31)
    4101b7e4:	000f0fb7          	lui	x31,0xf0
    4101b7e8:	001f8f9b          	addiw	x31,x31,1 # f0001 <SID_HEXCEP_09_hinval_vvma_vu_stack+0x25001>
    4101b7ec:	00cf9f93          	slli	x31,x31,0xc
    4101b7f0:	006f8f93          	addi	x31,x31,6
    4101b7f4:	00000073          	ecall
    4101b7f8:	00813383          	ld	x7,8(x2)
    4101b7fc:	069cefb7          	lui	x31,0x69ce
    4101b800:	0b0f8f9b          	addiw	x31,x31,176 # 69ce0b0 <machine_csr_jump_table_flags>
    4101b804:	0ad00f13          	li	x30,173
    4101b808:	01efb023          	sd	x30,0(x31)
    4101b80c:	000f0fb7          	lui	x31,0xf0
    4101b810:	001f8f9b          	addiw	x31,x31,1 # f0001 <SID_HEXCEP_09_hinval_vvma_vu_stack+0x25001>
    4101b814:	00cf9f93          	slli	x31,x31,0xc
    4101b818:	005f8f93          	addi	x31,x31,5
    4101b81c:	00000073          	ecall
    4101b820:	01013383          	ld	x7,16(x2)
    4101b824:	069cefb7          	lui	x31,0x69ce
    4101b828:	0b0f8f9b          	addiw	x31,x31,176 # 69ce0b0 <machine_csr_jump_table_flags>
    4101b82c:	08600f13          	li	x30,134
    4101b830:	01efb023          	sd	x30,0(x31)
    4101b834:	000f0fb7          	lui	x31,0xf0
    4101b838:	001f8f9b          	addiw	x31,x31,1 # f0001 <SID_HEXCEP_09_hinval_vvma_vu_stack+0x25001>
    4101b83c:	00cf9f93          	slli	x31,x31,0xc
    4101b840:	005f8f93          	addi	x31,x31,5
    4101b844:	00000073          	ecall

000000004101b848 <SID_HEXCEP_19_misaligned_lr_delegated_passed>:
    4101b848:	00f00f9b          	addiw	x31,x0,15
    4101b84c:	01cf9f93          	slli	x31,x31,0x1c
    4101b850:	001f8f93          	addi	x31,x31,1
    4101b854:	00000073          	ecall

000000004101b858 <SID_HEXCEP_19_misaligned_sc_delegated>:
    4101b858:	0006c137          	lui	x2,0x6c
    4101b85c:	069cefb7          	lui	x31,0x69ce
    4101b860:	0b8f8f9b          	addiw	x31,x31,184 # 69ce0b8 <super_csr_jump_table_flags>
    4101b864:	0a700f13          	li	x30,167
    4101b868:	01efb023          	sd	x30,0(x31)
    4101b86c:	000f0fb7          	lui	x31,0xf0
    4101b870:	001f8f9b          	addiw	x31,x31,1 # f0001 <SID_HEXCEP_09_hinval_vvma_vu_stack+0x25001>
    4101b874:	00cf9f93          	slli	x31,x31,0xc
    4101b878:	006f8f93          	addi	x31,x31,6
    4101b87c:	00000073          	ecall
    4101b880:	00713023          	sd	x7,0(x2) # 6c000 <tp_csr_storage>
    4101b884:	069cefb7          	lui	x31,0x69ce
    4101b888:	0b0f8f9b          	addiw	x31,x31,176 # 69ce0b0 <machine_csr_jump_table_flags>
    4101b88c:	0a800f13          	li	x30,168
    4101b890:	01efb023          	sd	x30,0(x31)
    4101b894:	000f0fb7          	lui	x31,0xf0
    4101b898:	001f8f9b          	addiw	x31,x31,1 # f0001 <SID_HEXCEP_09_hinval_vvma_vu_stack+0x25001>
    4101b89c:	00cf9f93          	slli	x31,x31,0xc
    4101b8a0:	005f8f93          	addi	x31,x31,5
    4101b8a4:	00000073          	ecall
    4101b8a8:	00713423          	sd	x7,8(x2)
    4101b8ac:	069cefb7          	lui	x31,0x69ce
    4101b8b0:	0b0f8f9b          	addiw	x31,x31,176 # 69ce0b0 <machine_csr_jump_table_flags>
    4101b8b4:	08300f13          	li	x30,131
    4101b8b8:	01efb023          	sd	x30,0(x31)
    4101b8bc:	000f0fb7          	lui	x31,0xf0
    4101b8c0:	001f8f9b          	addiw	x31,x31,1 # f0001 <SID_HEXCEP_09_hinval_vvma_vu_stack+0x25001>
    4101b8c4:	00cf9f93          	slli	x31,x31,0xc
    4101b8c8:	005f8f93          	addi	x31,x31,5
    4101b8cc:	00000073          	ecall
    4101b8d0:	00713823          	sd	x7,16(x2)
    4101b8d4:	2f882137          	lui	x2,0x2f882
    4101b8d8:	000012b7          	lui	x5,0x1
    4101b8dc:	00510133          	add	x2,x2,x5
    4101b8e0:	ff017113          	andi	x2,x2,-16
    4101b8e4:	08000393          	li	x7,128
    4101b8e8:	069cefb7          	lui	x31,0x69ce
    4101b8ec:	0b0f8f9b          	addiw	x31,x31,176 # 69ce0b0 <machine_csr_jump_table_flags>
    4101b8f0:	0aa00f13          	li	x30,170
    4101b8f4:	01efb023          	sd	x30,0(x31)
    4101b8f8:	000f0fb7          	lui	x31,0xf0
    4101b8fc:	001f8f9b          	addiw	x31,x31,1 # f0001 <SID_HEXCEP_09_hinval_vvma_vu_stack+0x25001>
    4101b900:	00cf9f93          	slli	x31,x31,0xc
    4101b904:	005f8f93          	addi	x31,x31,5
    4101b908:	00000073          	ecall
    4101b90c:	08000393          	li	x7,128
    4101b910:	069cefb7          	lui	x31,0x69ce
    4101b914:	0b8f8f9b          	addiw	x31,x31,184 # 69ce0b8 <super_csr_jump_table_flags>
    4101b918:	0ab00f13          	li	x30,171
    4101b91c:	01efb023          	sd	x30,0(x31)
    4101b920:	000f0fb7          	lui	x31,0xf0
    4101b924:	001f8f9b          	addiw	x31,x31,1 # f0001 <SID_HEXCEP_09_hinval_vvma_vu_stack+0x25001>
    4101b928:	00cf9f93          	slli	x31,x31,0xc
    4101b92c:	006f8f93          	addi	x31,x31,6
    4101b930:	00000073          	ecall
    4101b934:	40a44237          	lui	x4,0x40a44
    4101b938:	00700e13          	li	x28,7
    4101b93c:	05c23823          	sd	x28,80(x4) # 40a44050 <check_excp_expected_cause>
    4101b940:	00000e17          	auipc	x28,0x0
    4101b944:	068e0e13          	addi	x28,x28,104 # 4101b9a8 <fault_label_200>
    4101b948:	03c23023          	sd	x28,32(x4) # 20 <SECURE_ACCESS_PROBABILITY+0x2>
    4101b94c:	00000e13          	li	x28,0
    4101b950:	05c23023          	sd	x28,64(x4) # 40 <XLEN>
    4101b954:	00000e13          	li	x28,0
    4101b958:	05c23423          	sd	x28,72(x4) # 48 <XLEN+0x8>
    4101b95c:	00000e17          	auipc	x28,0x0
    4101b960:	060e0e13          	addi	x28,x28,96 # 4101b9bc <excp_return_label_200>
    4101b964:	03c23823          	sd	x28,48(x4) # 30 <SECURE_ACCESS_PROBABILITY+0x12>
    4101b968:	00000e13          	li	x28,0
    4101b96c:	03c23c23          	sd	x28,56(x4) # 38 <SECURE_ACCESS_PROBABILITY+0x1a>
    4101b970:	00000e13          	li	x28,0
    4101b974:	07c23023          	sd	x28,96(x4) # 60 <XLEN+0x20>
    4101b978:	00000e13          	li	x28,0
    4101b97c:	07c23423          	sd	x28,104(x4) # 68 <XLEN+0x28>
    4101b980:	00000e13          	li	x28,0
    4101b984:	07c23823          	sd	x28,112(x4) # 70 <XLEN+0x30>
    4101b988:	0a76ff37          	lui	x30,0xa76f
    4101b98c:	245f0f1b          	addiw	x30,x30,581 # a76f245 <SID_HEXCEP_16_fs0_both_stack+0x1703245>
    4101b990:	00ff1f13          	slli	x30,x30,0xf
    4101b994:	53bf0f13          	addi	x30,x30,1339
    4101b998:	00cf1f13          	slli	x30,x30,0xc
    4101b99c:	00100d13          	li	x26,1
    4101b9a0:	01af0bb3          	add	x23,x30,x26
    4101b9a4:	00100d93          	li	x27,1

000000004101b9a8 <fault_label_200>:
    4101b9a8:	19bbaf2f          	sc.w	x30,x27,(x23)
    4101b9ac:	069cebb7          	lui	x23,0x69ce
    4101b9b0:	008b8b9b          	addiw	x23,x23,8 # 69ce008 <failed_addr>
    4101b9b4:	000bb883          	ld	x17,0(x23)
    4101b9b8:	00088067          	jr	x17

000000004101b9bc <excp_return_label_200>:
    4101b9bc:	0006c137          	lui	x2,0x6c
    4101b9c0:	00013383          	ld	x7,0(x2) # 6c000 <tp_csr_storage>
    4101b9c4:	069cefb7          	lui	x31,0x69ce
    4101b9c8:	0b8f8f9b          	addiw	x31,x31,184 # 69ce0b8 <super_csr_jump_table_flags>
    4101b9cc:	0ac00f13          	li	x30,172
    4101b9d0:	01efb023          	sd	x30,0(x31)
    4101b9d4:	000f0fb7          	lui	x31,0xf0
    4101b9d8:	001f8f9b          	addiw	x31,x31,1 # f0001 <SID_HEXCEP_09_hinval_vvma_vu_stack+0x25001>
    4101b9dc:	00cf9f93          	slli	x31,x31,0xc
    4101b9e0:	006f8f93          	addi	x31,x31,6
    4101b9e4:	00000073          	ecall
    4101b9e8:	00813383          	ld	x7,8(x2)
    4101b9ec:	069cefb7          	lui	x31,0x69ce
    4101b9f0:	0b0f8f9b          	addiw	x31,x31,176 # 69ce0b0 <machine_csr_jump_table_flags>
    4101b9f4:	0ad00f13          	li	x30,173
    4101b9f8:	01efb023          	sd	x30,0(x31)
    4101b9fc:	000f0fb7          	lui	x31,0xf0
    4101ba00:	001f8f9b          	addiw	x31,x31,1 # f0001 <SID_HEXCEP_09_hinval_vvma_vu_stack+0x25001>
    4101ba04:	00cf9f93          	slli	x31,x31,0xc
    4101ba08:	005f8f93          	addi	x31,x31,5
    4101ba0c:	00000073          	ecall
    4101ba10:	01013383          	ld	x7,16(x2)
    4101ba14:	069cefb7          	lui	x31,0x69ce
    4101ba18:	0b0f8f9b          	addiw	x31,x31,176 # 69ce0b0 <machine_csr_jump_table_flags>
    4101ba1c:	08600f13          	li	x30,134
    4101ba20:	01efb023          	sd	x30,0(x31)
    4101ba24:	000f0fb7          	lui	x31,0xf0
    4101ba28:	001f8f9b          	addiw	x31,x31,1 # f0001 <SID_HEXCEP_09_hinval_vvma_vu_stack+0x25001>
    4101ba2c:	00cf9f93          	slli	x31,x31,0xc
    4101ba30:	005f8f93          	addi	x31,x31,5
    4101ba34:	00000073          	ecall

000000004101ba38 <SID_HEXCEP_19_misaligned_sc_delegated_passed>:
    4101ba38:	00f00f9b          	addiw	x31,x0,15
    4101ba3c:	01cf9f93          	slli	x31,x31,0x1c
    4101ba40:	001f8f93          	addi	x31,x31,1
    4101ba44:	00000073          	ecall

000000004101ba48 <test_cleanup>:
    4101ba48:	00f00f9b          	addiw	x31,x0,15
    4101ba4c:	01cf9f93          	slli	x31,x31,0x1c
    4101ba50:	001f8f93          	addi	x31,x31,1
    4101ba54:	00000073          	ecall

000000004101ba58 <local_test_failed>:
    4101ba58:	00f00f9b          	addiw	x31,x0,15
    4101ba5c:	01cf9f93          	slli	x31,x31,0x1c
    4101ba60:	002f8f93          	addi	x31,x31,2
    4101ba64:	00000073          	ecall

Disassembly of section .code_super_0:

0000000041095000 <supervisor_block_0_b6bcf519-0x34>:
    41095000:	00000f93          	li	x31,0
    41095004:	03fd8863          	beq	x27,x31,41095034 <supervisor_block_0_b6bcf519>
    41095008:	00100f93          	li	x31,1
    4109500c:	03fd8863          	beq	x27,x31,4109503c <supervisor_block_1_b6bcf519>
    41095010:	00200f93          	li	x31,2
    41095014:	03fd8863          	beq	x27,x31,41095044 <supervisor_block_2_b6bcf519>
    41095018:	00300f93          	li	x31,3
    4109501c:	03fd8863          	beq	x27,x31,4109504c <supervisor_block_3_b6bcf519>
    41095020:	00400f93          	li	x31,4
    41095024:	03fd8863          	beq	x27,x31,41095054 <supervisor_block_4_b6bcf519>
    41095028:	00500f93          	li	x31,5
    4109502c:	03fd8863          	beq	x27,x31,4109505c <supervisor_block_5_b6bcf519>
    41095030:	0340006f          	j	41095064 <end_supervisor_code_b6bcf519>

0000000041095034 <supervisor_block_0_b6bcf519>:
    41095034:	100c3ef3          	csrrc	x29,sstatus,x24
    41095038:	02c0006f          	j	41095064 <end_supervisor_code_b6bcf519>

000000004109503c <supervisor_block_1_b6bcf519>:
    4109503c:	1007a8f3          	csrrs	x17,sstatus,x15
    41095040:	0240006f          	j	41095064 <end_supervisor_code_b6bcf519>

0000000041095044 <supervisor_block_2_b6bcf519>:
    41095044:	100e3e73          	csrrc	x28,sstatus,x28
    41095048:	01c0006f          	j	41095064 <end_supervisor_code_b6bcf519>

000000004109504c <supervisor_block_3_b6bcf519>:
    4109504c:	100e3973          	csrrc	x18,sstatus,x28
    41095050:	0140006f          	j	41095064 <end_supervisor_code_b6bcf519>

0000000041095054 <supervisor_block_4_b6bcf519>:
    41095054:	100badf3          	csrrs	x27,sstatus,x23
    41095058:	00c0006f          	j	41095064 <end_supervisor_code_b6bcf519>

000000004109505c <supervisor_block_5_b6bcf519>:
    4109505c:	100d3b73          	csrrc	x22,sstatus,x26
    41095060:	0040006f          	j	41095064 <end_supervisor_code_b6bcf519>

0000000041095064 <end_supervisor_code_b6bcf519>:
    41095064:	000f0fb7          	lui	x31,0xf0
    41095068:	001f8f9b          	addiw	x31,x31,1 # f0001 <SID_HEXCEP_09_hinval_vvma_vu_stack+0x25001>
    4109506c:	00cf9f93          	slli	x31,x31,0xc
    41095070:	004f8f93          	addi	x31,x31,4
    41095074:	00000073          	ecall

Disassembly of section .csr_machine_0:

0000000041215000 <csr_access_mstatus_machine_key_4_write-0x80>:
    41215000:	4296afb7          	lui	x31,0x4296a
    41215004:	0b0f8f9b          	addiw	x31,x31,176 # 4296a0b0 <machine_csr_jump_table_flags_pa>
    41215008:	000fbf83          	ld	x31,0(x31)
    4121500c:	00400293          	li	x5,4
    41215010:	065f8863          	beq	x31,x5,41215080 <csr_access_mstatus_machine_key_4_write>
    41215014:	00100293          	li	x5,1
    41215018:	065f8863          	beq	x31,x5,41215088 <csr_access_mstatus_machine_key_1_read>
    4121501c:	0af00293          	li	x5,175
    41215020:	065f8863          	beq	x31,x5,41215090 <csr_access_mstatus_machine_key_175_set>
    41215024:	00200293          	li	x5,2
    41215028:	065f8863          	beq	x31,x5,41215098 <csr_access_mstatus_machine_key_2_clear>
    4121502c:	02c00293          	li	x5,44
    41215030:	065f8863          	beq	x31,x5,412150a0 <csr_access_mcounteren_machine_key_44_write>
    41215034:	00600293          	li	x5,6
    41215038:	065f8863          	beq	x31,x5,412150a8 <csr_access_mcounteren_machine_key_6_read>
    4121503c:	00800293          	li	x5,8
    41215040:	065f8863          	beq	x31,x5,412150b0 <csr_access_mcounteren_machine_key_8_set>
    41215044:	08600293          	li	x5,134
    41215048:	065f8863          	beq	x31,x5,412150b8 <csr_access_sstatus_supervisor_key_134_write>
    4121504c:	08300293          	li	x5,131
    41215050:	065f8863          	beq	x31,x5,412150c0 <csr_access_sstatus_supervisor_key_131_read>
    41215054:	0ad00293          	li	x5,173
    41215058:	065f8863          	beq	x31,x5,412150c8 <csr_access_medeleg_machine_key_173_write>
    4121505c:	0a800293          	li	x5,168
    41215060:	065f8863          	beq	x31,x5,412150d0 <csr_access_medeleg_machine_key_168_read>
    41215064:	0aa00293          	li	x5,170
    41215068:	065f8863          	beq	x31,x5,412150d8 <csr_access_medeleg_machine_key_170_set>
    4121506c:	0b200293          	li	x5,178
    41215070:	065f8863          	beq	x31,x5,412150e0 <csr_access_mtvec_machine_key_178_set>
    41215074:	0b100293          	li	x5,177
    41215078:	065f8863          	beq	x31,x5,412150e8 <csr_access_mtvec_machine_key_177_clear>
    4121507c:	0740006f          	j	412150f0 <end_machine_label>

0000000041215080 <csr_access_mstatus_machine_key_4_write>:
    41215080:	30039073          	csrw	mstatus,x7
    41215084:	06c0006f          	j	412150f0 <end_machine_label>

0000000041215088 <csr_access_mstatus_machine_key_1_read>:
    41215088:	300023f3          	csrr	x7,mstatus
    4121508c:	0640006f          	j	412150f0 <end_machine_label>

0000000041215090 <csr_access_mstatus_machine_key_175_set>:
    41215090:	3003a073          	csrs	mstatus,x7
    41215094:	05c0006f          	j	412150f0 <end_machine_label>

0000000041215098 <csr_access_mstatus_machine_key_2_clear>:
    41215098:	3003b073          	csrc	mstatus,x7
    4121509c:	0540006f          	j	412150f0 <end_machine_label>

00000000412150a0 <csr_access_mcounteren_machine_key_44_write>:
    412150a0:	30639073          	csrw	mcounteren,x7
    412150a4:	04c0006f          	j	412150f0 <end_machine_label>

00000000412150a8 <csr_access_mcounteren_machine_key_6_read>:
    412150a8:	306023f3          	csrr	x7,mcounteren
    412150ac:	0440006f          	j	412150f0 <end_machine_label>

00000000412150b0 <csr_access_mcounteren_machine_key_8_set>:
    412150b0:	3063a073          	csrs	mcounteren,x7
    412150b4:	03c0006f          	j	412150f0 <end_machine_label>

00000000412150b8 <csr_access_sstatus_supervisor_key_134_write>:
    412150b8:	10039073          	csrw	sstatus,x7
    412150bc:	0340006f          	j	412150f0 <end_machine_label>

00000000412150c0 <csr_access_sstatus_supervisor_key_131_read>:
    412150c0:	100023f3          	csrr	x7,sstatus
    412150c4:	02c0006f          	j	412150f0 <end_machine_label>

00000000412150c8 <csr_access_medeleg_machine_key_173_write>:
    412150c8:	30239073          	csrw	medeleg,x7
    412150cc:	0240006f          	j	412150f0 <end_machine_label>

00000000412150d0 <csr_access_medeleg_machine_key_168_read>:
    412150d0:	302023f3          	csrr	x7,medeleg
    412150d4:	01c0006f          	j	412150f0 <end_machine_label>

00000000412150d8 <csr_access_medeleg_machine_key_170_set>:
    412150d8:	3023a073          	csrs	medeleg,x7
    412150dc:	0140006f          	j	412150f0 <end_machine_label>

00000000412150e0 <csr_access_mtvec_machine_key_178_set>:
    412150e0:	3053a073          	csrs	mtvec,x7
    412150e4:	00c0006f          	j	412150f0 <end_machine_label>

00000000412150e8 <csr_access_mtvec_machine_key_177_clear>:
    412150e8:	3053b073          	csrc	mtvec,x7
    412150ec:	0040006f          	j	412150f0 <end_machine_label>

00000000412150f0 <end_machine_label>:
    412150f0:	000f0fb7          	lui	x31,0xf0
    412150f4:	001f8f9b          	addiw	x31,x31,1 # f0001 <SID_HEXCEP_09_hinval_vvma_vu_stack+0x25001>
    412150f8:	00cf9f93          	slli	x31,x31,0xc
    412150fc:	004f8f93          	addi	x31,x31,4
    41215100:	00000073          	ecall

Disassembly of section .csr_super_0:

0000000041216000 <csr_access_hgeip_supervisor_key_3_read-0x198>:
    41216000:	069cefb7          	lui	x31,0x69ce
    41216004:	0b8f8f9b          	addiw	x31,x31,184 # 69ce0b8 <super_csr_jump_table_flags>
    41216008:	000fbf83          	ld	x31,0(x31)
    4121600c:	00300293          	li	x5,3
    41216010:	185f8463          	beq	x31,x5,41216198 <csr_access_hgeip_supervisor_key_3_read>
    41216014:	00500293          	li	x5,5
    41216018:	185f8863          	beq	x31,x5,412161a8 <csr_access_hcounteren_supervisor_key_5_read>
    4121601c:	02b00293          	li	x5,43
    41216020:	185f8063          	beq	x31,x5,412161a0 <csr_access_hcounteren_supervisor_key_43_write>
    41216024:	05b00293          	li	x5,91
    41216028:	185f8463          	beq	x31,x5,412161b0 <csr_access_hcounteren_supervisor_key_91_set>
    4121602c:	00900293          	li	x5,9
    41216030:	185f8463          	beq	x31,x5,412161b8 <csr_access_hcounteren_supervisor_key_9_clear>
    41216034:	00700293          	li	x5,7
    41216038:	185f8863          	beq	x31,x5,412161c8 <csr_access_scounteren_supervisor_key_7_read>
    4121603c:	02d00293          	li	x5,45
    41216040:	185f8063          	beq	x31,x5,412161c0 <csr_access_scounteren_supervisor_key_45_write>
    41216044:	03300293          	li	x5,51
    41216048:	185f8463          	beq	x31,x5,412161d0 <csr_access_scounteren_supervisor_key_51_set>
    4121604c:	00a00293          	li	x5,10
    41216050:	185f8463          	beq	x31,x5,412161d8 <csr_access_scounteren_supervisor_key_10_clear>
    41216054:	00e00293          	li	x5,14
    41216058:	185f8463          	beq	x31,x5,412161e0 <csr_access_hpmcounter3_supervisor_key_14_read>
    4121605c:	00f00293          	li	x5,15
    41216060:	185f8463          	beq	x31,x5,412161e8 <csr_access_hpmcounter4_supervisor_key_15_read>
    41216064:	01000293          	li	x5,16
    41216068:	185f8463          	beq	x31,x5,412161f0 <csr_access_hpmcounter5_supervisor_key_16_read>
    4121606c:	01100293          	li	x5,17
    41216070:	185f8463          	beq	x31,x5,412161f8 <csr_access_hpmcounter6_supervisor_key_17_read>
    41216074:	01200293          	li	x5,18
    41216078:	185f8463          	beq	x31,x5,41216200 <csr_access_hpmcounter7_supervisor_key_18_read>
    4121607c:	01300293          	li	x5,19
    41216080:	185f8463          	beq	x31,x5,41216208 <csr_access_hpmcounter8_supervisor_key_19_read>
    41216084:	01400293          	li	x5,20
    41216088:	185f8463          	beq	x31,x5,41216210 <csr_access_hpmcounter9_supervisor_key_20_read>
    4121608c:	01500293          	li	x5,21
    41216090:	185f8463          	beq	x31,x5,41216218 <csr_access_hpmcounter10_supervisor_key_21_read>
    41216094:	01600293          	li	x5,22
    41216098:	185f8463          	beq	x31,x5,41216220 <csr_access_hpmcounter11_supervisor_key_22_read>
    4121609c:	01700293          	li	x5,23
    412160a0:	185f8463          	beq	x31,x5,41216228 <csr_access_hpmcounter12_supervisor_key_23_read>
    412160a4:	01800293          	li	x5,24
    412160a8:	185f8463          	beq	x31,x5,41216230 <csr_access_hpmcounter13_supervisor_key_24_read>
    412160ac:	01900293          	li	x5,25
    412160b0:	185f8463          	beq	x31,x5,41216238 <csr_access_hpmcounter14_supervisor_key_25_read>
    412160b4:	01a00293          	li	x5,26
    412160b8:	185f8463          	beq	x31,x5,41216240 <csr_access_hpmcounter15_supervisor_key_26_read>
    412160bc:	01b00293          	li	x5,27
    412160c0:	185f8463          	beq	x31,x5,41216248 <csr_access_hpmcounter16_supervisor_key_27_read>
    412160c4:	01c00293          	li	x5,28
    412160c8:	185f8463          	beq	x31,x5,41216250 <csr_access_hpmcounter17_supervisor_key_28_read>
    412160cc:	01d00293          	li	x5,29
    412160d0:	185f8463          	beq	x31,x5,41216258 <csr_access_hpmcounter18_supervisor_key_29_read>
    412160d4:	01e00293          	li	x5,30
    412160d8:	185f8463          	beq	x31,x5,41216260 <csr_access_hpmcounter19_supervisor_key_30_read>
    412160dc:	01f00293          	li	x5,31
    412160e0:	185f8463          	beq	x31,x5,41216268 <csr_access_hpmcounter20_supervisor_key_31_read>
    412160e4:	02000293          	li	x5,32
    412160e8:	185f8463          	beq	x31,x5,41216270 <csr_access_hpmcounter21_supervisor_key_32_read>
    412160ec:	02100293          	li	x5,33
    412160f0:	185f8463          	beq	x31,x5,41216278 <csr_access_hpmcounter22_supervisor_key_33_read>
    412160f4:	02200293          	li	x5,34
    412160f8:	185f8463          	beq	x31,x5,41216280 <csr_access_hpmcounter23_supervisor_key_34_read>
    412160fc:	02300293          	li	x5,35
    41216100:	185f8463          	beq	x31,x5,41216288 <csr_access_hpmcounter24_supervisor_key_35_read>
    41216104:	02400293          	li	x5,36
    41216108:	185f8463          	beq	x31,x5,41216290 <csr_access_hpmcounter25_supervisor_key_36_read>
    4121610c:	02500293          	li	x5,37
    41216110:	185f8463          	beq	x31,x5,41216298 <csr_access_hpmcounter26_supervisor_key_37_read>
    41216114:	02600293          	li	x5,38
    41216118:	185f8463          	beq	x31,x5,412162a0 <csr_access_hpmcounter27_supervisor_key_38_read>
    4121611c:	02700293          	li	x5,39
    41216120:	185f8463          	beq	x31,x5,412162a8 <csr_access_hpmcounter28_supervisor_key_39_read>
    41216124:	02800293          	li	x5,40
    41216128:	185f8463          	beq	x31,x5,412162b0 <csr_access_hpmcounter29_supervisor_key_40_read>
    4121612c:	02900293          	li	x5,41
    41216130:	185f8463          	beq	x31,x5,412162b8 <csr_access_hpmcounter30_supervisor_key_41_read>
    41216134:	02a00293          	li	x5,42
    41216138:	185f8463          	beq	x31,x5,412162c0 <csr_access_hpmcounter31_supervisor_key_42_read>
    4121613c:	0b000293          	li	x5,176
    41216140:	185f8463          	beq	x31,x5,412162c8 <csr_access_sstatus_supervisor_key_176_set>
    41216144:	0ae00293          	li	x5,174
    41216148:	185f8463          	beq	x31,x5,412162d0 <csr_access_sstatus_supervisor_key_174_clear>
    4121614c:	08400293          	li	x5,132
    41216150:	185f8863          	beq	x31,x5,412162e0 <csr_access_vsstatus_supervisor_key_132_read>
    41216154:	08700293          	li	x5,135
    41216158:	185f8063          	beq	x31,x5,412162d8 <csr_access_vsstatus_supervisor_key_135_write>
    4121615c:	08f00293          	li	x5,143
    41216160:	185f8463          	beq	x31,x5,412162e8 <csr_access_vsstatus_supervisor_key_143_set>
    41216164:	08500293          	li	x5,133
    41216168:	185f8463          	beq	x31,x5,412162f0 <csr_access_vsstatus_supervisor_key_133_clear>
    4121616c:	0a700293          	li	x5,167
    41216170:	185f8863          	beq	x31,x5,41216300 <csr_access_hedeleg_supervisor_key_167_read>
    41216174:	0ac00293          	li	x5,172
    41216178:	185f8063          	beq	x31,x5,412162f8 <csr_access_hedeleg_supervisor_key_172_write>
    4121617c:	0ab00293          	li	x5,171
    41216180:	185f8463          	beq	x31,x5,41216308 <csr_access_hedeleg_supervisor_key_171_set>
    41216184:	0b400293          	li	x5,180
    41216188:	185f8463          	beq	x31,x5,41216310 <csr_access_stvec_supervisor_key_180_set>
    4121618c:	0b300293          	li	x5,179
    41216190:	185f8463          	beq	x31,x5,41216318 <csr_access_stvec_supervisor_key_179_clear>
    41216194:	18c0006f          	j	41216320 <end_super_label>

0000000041216198 <csr_access_hgeip_supervisor_key_3_read>:
    41216198:	e12023f3          	csrr	x7,hgeip
    4121619c:	1840006f          	j	41216320 <end_super_label>

00000000412161a0 <csr_access_hcounteren_supervisor_key_43_write>:
    412161a0:	60639073          	csrw	hcounteren,x7
    412161a4:	17c0006f          	j	41216320 <end_super_label>

00000000412161a8 <csr_access_hcounteren_supervisor_key_5_read>:
    412161a8:	606023f3          	csrr	x7,hcounteren
    412161ac:	1740006f          	j	41216320 <end_super_label>

00000000412161b0 <csr_access_hcounteren_supervisor_key_91_set>:
    412161b0:	6063a073          	csrs	hcounteren,x7
    412161b4:	16c0006f          	j	41216320 <end_super_label>

00000000412161b8 <csr_access_hcounteren_supervisor_key_9_clear>:
    412161b8:	6063b073          	csrc	hcounteren,x7
    412161bc:	1640006f          	j	41216320 <end_super_label>

00000000412161c0 <csr_access_scounteren_supervisor_key_45_write>:
    412161c0:	10639073          	csrw	scounteren,x7
    412161c4:	15c0006f          	j	41216320 <end_super_label>

00000000412161c8 <csr_access_scounteren_supervisor_key_7_read>:
    412161c8:	106023f3          	csrr	x7,scounteren
    412161cc:	1540006f          	j	41216320 <end_super_label>

00000000412161d0 <csr_access_scounteren_supervisor_key_51_set>:
    412161d0:	1063a073          	csrs	scounteren,x7
    412161d4:	14c0006f          	j	41216320 <end_super_label>

00000000412161d8 <csr_access_scounteren_supervisor_key_10_clear>:
    412161d8:	1063b073          	csrc	scounteren,x7
    412161dc:	1440006f          	j	41216320 <end_super_label>

00000000412161e0 <csr_access_hpmcounter3_supervisor_key_14_read>:
    412161e0:	c03023f3          	csrr	x7,hpmcounter3
    412161e4:	13c0006f          	j	41216320 <end_super_label>

00000000412161e8 <csr_access_hpmcounter4_supervisor_key_15_read>:
    412161e8:	c04023f3          	csrr	x7,hpmcounter4
    412161ec:	1340006f          	j	41216320 <end_super_label>

00000000412161f0 <csr_access_hpmcounter5_supervisor_key_16_read>:
    412161f0:	c05023f3          	csrr	x7,hpmcounter5
    412161f4:	12c0006f          	j	41216320 <end_super_label>

00000000412161f8 <csr_access_hpmcounter6_supervisor_key_17_read>:
    412161f8:	c06023f3          	csrr	x7,hpmcounter6
    412161fc:	1240006f          	j	41216320 <end_super_label>

0000000041216200 <csr_access_hpmcounter7_supervisor_key_18_read>:
    41216200:	c07023f3          	csrr	x7,hpmcounter7
    41216204:	11c0006f          	j	41216320 <end_super_label>

0000000041216208 <csr_access_hpmcounter8_supervisor_key_19_read>:
    41216208:	c08023f3          	csrr	x7,hpmcounter8
    4121620c:	1140006f          	j	41216320 <end_super_label>

0000000041216210 <csr_access_hpmcounter9_supervisor_key_20_read>:
    41216210:	c09023f3          	csrr	x7,hpmcounter9
    41216214:	10c0006f          	j	41216320 <end_super_label>

0000000041216218 <csr_access_hpmcounter10_supervisor_key_21_read>:
    41216218:	c0a023f3          	csrr	x7,hpmcounter10
    4121621c:	1040006f          	j	41216320 <end_super_label>

0000000041216220 <csr_access_hpmcounter11_supervisor_key_22_read>:
    41216220:	c0b023f3          	csrr	x7,hpmcounter11
    41216224:	0fc0006f          	j	41216320 <end_super_label>

0000000041216228 <csr_access_hpmcounter12_supervisor_key_23_read>:
    41216228:	c0c023f3          	csrr	x7,hpmcounter12
    4121622c:	0f40006f          	j	41216320 <end_super_label>

0000000041216230 <csr_access_hpmcounter13_supervisor_key_24_read>:
    41216230:	c0d023f3          	csrr	x7,hpmcounter13
    41216234:	0ec0006f          	j	41216320 <end_super_label>

0000000041216238 <csr_access_hpmcounter14_supervisor_key_25_read>:
    41216238:	c0e023f3          	csrr	x7,hpmcounter14
    4121623c:	0e40006f          	j	41216320 <end_super_label>

0000000041216240 <csr_access_hpmcounter15_supervisor_key_26_read>:
    41216240:	c0f023f3          	csrr	x7,hpmcounter15
    41216244:	0dc0006f          	j	41216320 <end_super_label>

0000000041216248 <csr_access_hpmcounter16_supervisor_key_27_read>:
    41216248:	c10023f3          	csrr	x7,hpmcounter16
    4121624c:	0d40006f          	j	41216320 <end_super_label>

0000000041216250 <csr_access_hpmcounter17_supervisor_key_28_read>:
    41216250:	c11023f3          	csrr	x7,hpmcounter17
    41216254:	0cc0006f          	j	41216320 <end_super_label>

0000000041216258 <csr_access_hpmcounter18_supervisor_key_29_read>:
    41216258:	c12023f3          	csrr	x7,hpmcounter18
    4121625c:	0c40006f          	j	41216320 <end_super_label>

0000000041216260 <csr_access_hpmcounter19_supervisor_key_30_read>:
    41216260:	c13023f3          	csrr	x7,hpmcounter19
    41216264:	0bc0006f          	j	41216320 <end_super_label>

0000000041216268 <csr_access_hpmcounter20_supervisor_key_31_read>:
    41216268:	c14023f3          	csrr	x7,hpmcounter20
    4121626c:	0b40006f          	j	41216320 <end_super_label>

0000000041216270 <csr_access_hpmcounter21_supervisor_key_32_read>:
    41216270:	c15023f3          	csrr	x7,hpmcounter21
    41216274:	0ac0006f          	j	41216320 <end_super_label>

0000000041216278 <csr_access_hpmcounter22_supervisor_key_33_read>:
    41216278:	c16023f3          	csrr	x7,hpmcounter22
    4121627c:	0a40006f          	j	41216320 <end_super_label>

0000000041216280 <csr_access_hpmcounter23_supervisor_key_34_read>:
    41216280:	c17023f3          	csrr	x7,hpmcounter23
    41216284:	09c0006f          	j	41216320 <end_super_label>

0000000041216288 <csr_access_hpmcounter24_supervisor_key_35_read>:
    41216288:	c18023f3          	csrr	x7,hpmcounter24
    4121628c:	0940006f          	j	41216320 <end_super_label>

0000000041216290 <csr_access_hpmcounter25_supervisor_key_36_read>:
    41216290:	c19023f3          	csrr	x7,hpmcounter25
    41216294:	08c0006f          	j	41216320 <end_super_label>

0000000041216298 <csr_access_hpmcounter26_supervisor_key_37_read>:
    41216298:	c1a023f3          	csrr	x7,hpmcounter26
    4121629c:	0840006f          	j	41216320 <end_super_label>

00000000412162a0 <csr_access_hpmcounter27_supervisor_key_38_read>:
    412162a0:	c1b023f3          	csrr	x7,hpmcounter27
    412162a4:	07c0006f          	j	41216320 <end_super_label>

00000000412162a8 <csr_access_hpmcounter28_supervisor_key_39_read>:
    412162a8:	c1c023f3          	csrr	x7,hpmcounter28
    412162ac:	0740006f          	j	41216320 <end_super_label>

00000000412162b0 <csr_access_hpmcounter29_supervisor_key_40_read>:
    412162b0:	c1d023f3          	csrr	x7,hpmcounter29
    412162b4:	06c0006f          	j	41216320 <end_super_label>

00000000412162b8 <csr_access_hpmcounter30_supervisor_key_41_read>:
    412162b8:	c1e023f3          	csrr	x7,hpmcounter30
    412162bc:	0640006f          	j	41216320 <end_super_label>

00000000412162c0 <csr_access_hpmcounter31_supervisor_key_42_read>:
    412162c0:	c1f023f3          	csrr	x7,hpmcounter31
    412162c4:	05c0006f          	j	41216320 <end_super_label>

00000000412162c8 <csr_access_sstatus_supervisor_key_176_set>:
    412162c8:	1003a073          	csrs	sstatus,x7
    412162cc:	0540006f          	j	41216320 <end_super_label>

00000000412162d0 <csr_access_sstatus_supervisor_key_174_clear>:
    412162d0:	1003b073          	csrc	sstatus,x7
    412162d4:	04c0006f          	j	41216320 <end_super_label>

00000000412162d8 <csr_access_vsstatus_supervisor_key_135_write>:
    412162d8:	20039073          	csrw	vsstatus,x7
    412162dc:	0440006f          	j	41216320 <end_super_label>

00000000412162e0 <csr_access_vsstatus_supervisor_key_132_read>:
    412162e0:	200023f3          	csrr	x7,vsstatus
    412162e4:	03c0006f          	j	41216320 <end_super_label>

00000000412162e8 <csr_access_vsstatus_supervisor_key_143_set>:
    412162e8:	2003a073          	csrs	vsstatus,x7
    412162ec:	0340006f          	j	41216320 <end_super_label>

00000000412162f0 <csr_access_vsstatus_supervisor_key_133_clear>:
    412162f0:	2003b073          	csrc	vsstatus,x7
    412162f4:	02c0006f          	j	41216320 <end_super_label>

00000000412162f8 <csr_access_hedeleg_supervisor_key_172_write>:
    412162f8:	60239073          	csrw	hedeleg,x7
    412162fc:	0240006f          	j	41216320 <end_super_label>

0000000041216300 <csr_access_hedeleg_supervisor_key_167_read>:
    41216300:	602023f3          	csrr	x7,hedeleg
    41216304:	01c0006f          	j	41216320 <end_super_label>

0000000041216308 <csr_access_hedeleg_supervisor_key_171_set>:
    41216308:	6023a073          	csrs	hedeleg,x7
    4121630c:	0140006f          	j	41216320 <end_super_label>

0000000041216310 <csr_access_stvec_supervisor_key_180_set>:
    41216310:	1053a073          	csrs	stvec,x7
    41216314:	00c0006f          	j	41216320 <end_super_label>

0000000041216318 <csr_access_stvec_supervisor_key_179_clear>:
    41216318:	1053b073          	csrc	stvec,x7
    4121631c:	0040006f          	j	41216320 <end_super_label>

0000000041216320 <end_super_label>:
    41216320:	000f0fb7          	lui	x31,0xf0
    41216324:	001f8f9b          	addiw	x31,x31,1 # f0001 <SID_HEXCEP_09_hinval_vvma_vu_stack+0x25001>
    41216328:	00cf9f93          	slli	x31,x31,0xc
    4121632c:	004f8f93          	addi	x31,x31,4
    41216330:	00000073          	ecall

Disassembly of section .os_data:

00000000069ce000 <passed_addr_ptr>:
 69ce000:	5120                	.insn	2, 0x5120
 69ce002:	4101                	.insn	2, 0x4101
 69ce004:	0000                	.insn	2, 0x0000
	...

00000000069ce008 <failed_addr_ptr>:
 69ce008:	5130                	.insn	2, 0x5130
 69ce00a:	4101                	.insn	2, 0x4101
 69ce00c:	0000                	.insn	2, 0x0000
	...

00000000069ce010 <end_test_addr_ptr>:
 69ce010:	5140                	.insn	2, 0x5140
 69ce012:	4101                	.insn	2, 0x4101
 69ce014:	0000                	.insn	2, 0x0000
	...

00000000069ce018 <os_passed_addr_ptr>:
 69ce018:	084c                	.insn	2, 0x084c
 69ce01a:	4100                	.insn	2, 0x4100
 69ce01c:	0000                	.insn	2, 0x0000
	...

00000000069ce020 <os_failed_addr_ptr>:
 69ce020:	085c                	.insn	2, 0x085c
 69ce022:	4100                	.insn	2, 0x4100
 69ce024:	0000                	.insn	2, 0x0000
	...

00000000069ce028 <os_end_test_addr_ptr>:
 69ce028:	0868                	.insn	2, 0x0868
 69ce02a:	4100                	.insn	2, 0x4100
 69ce02c:	0000                	.insn	2, 0x0000
	...

00000000069ce030 <rvcp_prefix_str_data>:
 69ce030:	5652                	.insn	2, 0x5652
 69ce032:	203a5043          	fmadd.s	f0,f20,f3,f4,unknown
 69ce036:	6554                	.insn	2, 0x6554
 69ce038:	46207473          	csrrci	x8,0x462,0
 69ce03c:	6c69                	.insn	2, 0x6c69
 69ce03e:	2065                	.insn	2, 0x2065
	...

00000000069ce041 <rvcp_testname_str_data>:
 69ce041:	7074                	.insn	2, 0x7074
 69ce043:	685f 7079 7265      	.insn	6, 0x72657079685f
 69ce049:	6976                	.insn	2, 0x6976
 69ce04b:	5f726f73          	csrrsi	x30,0x5f7,4
 69ce04f:	7865                	.insn	2, 0x7865
 69ce051:	74706563          	bltu	x0,x7,69ce79b <num_hard_fails_mem+0x6bb>
 69ce055:	6f69                	.insn	2, 0x6f69
 69ce057:	736e                	.insn	2, 0x736e
 69ce059:	325f        	.insn	6, 0x53415000325f

00000000069ce05c <rvcp_passed_str_data>:
 69ce05c:	4150                	.insn	2, 0x4150
 69ce05e:	44455353          	fround.h	f6,f10,unknown
	...

00000000069ce063 <rvcp_failed_str_data>:
 69ce063:	4146                	.insn	2, 0x4146
 69ce065:	4c49                	.insn	2, 0x4c49
 69ce067:	4445                	.insn	2, 0x4445
	...

00000000069ce06a <rvcp_space_str_data>:
 69ce06a:	0020                	.insn	2, 0x0020

00000000069ce06c <rvcp_newline_str_data>:
 69ce06c:	000a                	.insn	2, 0x000a
	...

00000000069ce070 <excp_ignored_count_mem>:
	...

00000000069ce078 <machine_flags_mem>:
	...

00000000069ce080 <user_flags_mem>:
	...

00000000069ce088 <super_flags_mem>:
	...

00000000069ce090 <machine_area_mem>:
	...

00000000069ce098 <user_area_mem>:
	...

00000000069ce0a0 <super_area_mem>:
	...

00000000069ce0a8 <zero_data_mem>:
	...

00000000069ce0b0 <machine_csr_jump_table_flags_mem>:
	...

00000000069ce0b8 <super_csr_jump_table_flags_mem>:
	...

00000000069ce0c0 <pte_access_flags_mem>:
	...

00000000069ce0d8 <num_harts_ended_mem>:
	...

00000000069ce0e0 <num_hard_fails_mem>:
	...

Disassembly of section .hart_context:

0000000040a44000 <hart_context_0>:
    40a44000:	e000                	.insn	2, 0xe000
    40a44002:	0011                	.insn	2, 0x0011
	...
    40a44018:	0001                	.insn	2, 0x0001
    40a4401a:	0000                	.insn	2, 0x0000
    40a4401c:	0000                	.insn	2, 0x0000
    40a4401e:	0000                	.insn	2, 0x0000
    40a44020:	ffff                	.insn	2, 0xffff
    40a44022:	ffff                	.insn	2, 0xffff
    40a44024:	ffff                	.insn	2, 0xffff
    40a44026:	ffff                	.insn	2, 0xffff
    40a44028:	ffff                	.insn	2, 0xffff
    40a4402a:	ffff                	.insn	2, 0xffff
    40a4402c:	ffff                	.insn	2, 0xffff
    40a4402e:	ffff                	.insn	2, 0xffff
    40a44030:	ffff                	.insn	2, 0xffff
    40a44032:	ffff                	.insn	2, 0xffff
    40a44034:	ffff                	.insn	2, 0xffff
    40a44036:	ffff                	.insn	2, 0xffff
	...
    40a44050:	00ff 0000 0000 0000 	.insn	10, 0x00ff00000000000000ff
    40a44058:	00ff 
	...
    40a44176:	0000                	.insn	2, 0x0000
    40a44178:	ffff                	.insn	2, 0xffff
    40a4417a:	ffff                	.insn	2, 0xffff
    40a4417c:	ffff                	.insn	2, 0xffff
    40a4417e:	ffff                	.insn	2, 0xffff
	...
    40a44188:	ffff                	.insn	2, 0xffff
    40a4418a:	ffff                	.insn	2, 0xffff
	...

Disassembly of section .hart_stack_0:

000000000011d000 <hart_stack_0>:
	...

Disassembly of section .io_htif:

0000000041040000 <tohost>:
	...

0000000041040040 <fromhost>:
	...

Disassembly of section .mem0:

000000000001d000 <.mem0>:
   1d000:	c0de                	.insn	2, 0xc0de
   1d002:	c001                	.insn	2, 0xc001
   1d004:	0000                	.insn	2, 0x0000
	...

Disassembly of section .mem1:

00000000007f0000 <.mem1>:
  7f0000:	c0de                	.insn	2, 0xc0de
  7f0002:	c001                	.insn	2, 0xc001
  7f0004:	0000                	.insn	2, 0x0000
	...

Disassembly of section .mem2:

0053b7922853d000 <.mem2>:
  53b7922853d000:	c0de                	.insn	2, 0xc0de
  53b7922853d002:	c001                	.insn	2, 0xc001
  53b7922853d004:	0000                	.insn	2, 0x0000
	...

Disassembly of section .mem3:

0000000000002000 <.mem3>:
    2000:	c0de                	.insn	2, 0xc0de
    2002:	c001                	.insn	2, 0xc001
    2004:	0000                	.insn	2, 0x0000
	...

Disassembly of section .mem4:

0000000000102000 <.mem4>:
  102000:	c0de                	.insn	2, 0xc0de
  102002:	c001                	.insn	2, 0xc001
  102004:	0000                	.insn	2, 0x0000
	...

Disassembly of section .mem5:

00000b3ef469b000 <.mem5>:
 b3ef469b000:	c0de                	.insn	2, 0xc0de
 b3ef469b002:	c001                	.insn	2, 0xc001
 b3ef469b004:	0000                	.insn	2, 0x0000
	...

Disassembly of section .mem6:

0001e3ec43d1d000 <.mem6>:
   1e3ec43d1d000:	c0de                	.insn	2, 0xc0de
   1e3ec43d1d002:	c001                	.insn	2, 0xc001
   1e3ec43d1d004:	0000                	.insn	2, 0x0000
	...

Disassembly of section .mem7:

0053b7922853b000 <.mem7>:
  53b7922853b000:	c0de                	.insn	2, 0xc0de
  53b7922853b002:	c001                	.insn	2, 0xc001
  53b7922853b004:	0000                	.insn	2, 0x0000
	...

Disassembly of section .tp_csr_storage:

000000000006c000 <.tp_csr_storage>:
   6c000:	c0de                	.insn	2, 0xc0de
   6c002:	c001                	.insn	2, 0xc001
   6c004:	0000                	.insn	2, 0x0000
	...

Disassembly of section .SID_HEXCEP_05_stack:

0000000000843000 <.SID_HEXCEP_05_stack>:
  843000:	c0de                	.insn	2, 0xc0de
  843002:	c001                	.insn	2, 0xc001
  843004:	0000                	.insn	2, 0x0000
	...

Disassembly of section .SID_HEXCEP_06_stack:

fffbd78e06c0d000 <.SID_HEXCEP_06_stack>:
fffbd78e06c0d000:	c0de                	.insn	2, 0xc0de
fffbd78e06c0d002:	c001                	.insn	2, 0xc001
fffbd78e06c0d004:	0000                	.insn	2, 0x0000
	...

Disassembly of section .SID_HEXCEP_07_vu_mode_case1_stack:

00000010c338a000 <.SID_HEXCEP_07_vu_mode_case1_stack>:
  10c338a000:	c0de                	.insn	2, 0xc0de
  10c338a002:	c001                	.insn	2, 0xc001
  10c338a004:	0000                	.insn	2, 0x0000
	...

Disassembly of section .SID_HEXCEP_07_vu_mode_case2_stack:

001a4ac0f12bf000 <.SID_HEXCEP_07_vu_mode_case2_stack>:
  1a4ac0f12bf000:	c0de                	.insn	2, 0xc0de
  1a4ac0f12bf002:	c001                	.insn	2, 0xc001
  1a4ac0f12bf004:	0000                	.insn	2, 0x0000
	...

Disassembly of section .SID_HEXCEP_07_vu_mode_case3_stack:

0000746959d7d000 <.SID_HEXCEP_07_vu_mode_case3_stack>:
    746959d7d000:	c0de                	.insn	2, 0xc0de
    746959d7d002:	c001                	.insn	2, 0xc001
    746959d7d004:	0000                	.insn	2, 0x0000
	...

Disassembly of section .SID_HEXCEP_08_stack:

0000000007e50000 <.SID_HEXCEP_08_stack>:
 7e50000:	c0de                	.insn	2, 0xc0de
 7e50002:	c001                	.insn	2, 0xc001
 7e50004:	0000                	.insn	2, 0x0000
	...

Disassembly of section .SID_HEXCEP_09_mret_in_vs_vu_stack:

00000002eb950000 <.SID_HEXCEP_09_mret_in_vs_vu_stack>:
   2eb950000:	c0de                	.insn	2, 0xc0de
   2eb950002:	c001                	.insn	2, 0xc001
   2eb950004:	0000                	.insn	2, 0x0000
	...

Disassembly of section .SID_HEXCEP_09_wfi_vu_stack:

00029b39f3eff000 <.SID_HEXCEP_09_wfi_vu_stack>:
   29b39f3eff000:	c0de                	.insn	2, 0xc0de
   29b39f3eff002:	c001                	.insn	2, 0xc001
   29b39f3eff004:	0000                	.insn	2, 0x0000
	...

Disassembly of section .SID_HEXCEP_09_sret_vu_stack:

0000000040910000 <.SID_HEXCEP_09_sret_vu_stack>:
    40910000:	c0de                	.insn	2, 0xc0de
    40910002:	c001                	.insn	2, 0xc001
    40910004:	0000                	.insn	2, 0x0000
	...

Disassembly of section .SID_HEXCEP_09_sfence_vma_vu_stack:

0000000000116000 <.SID_HEXCEP_09_sfence_vma_vu_stack>:
  116000:	c0de                	.insn	2, 0xc0de
  116002:	c001                	.insn	2, 0xc001
  116004:	0000                	.insn	2, 0x0000
	...

Disassembly of section .SID_HEXCEP_09_hinval_vvma_vu_stack:

00000000000cb000 <.SID_HEXCEP_09_hinval_vvma_vu_stack>:
   cb000:	c0de                	.insn	2, 0xc0de
   cb002:	c001                	.insn	2, 0xc001
   cb004:	0000                	.insn	2, 0x0000
	...

Disassembly of section .SID_HEXCEP_09_hinval_gvma_vu_stack:

0000000d45c8f000 <.SID_HEXCEP_09_hinval_gvma_vu_stack>:
   d45c8f000:	c0de                	.insn	2, 0xc0de
   d45c8f002:	c001                	.insn	2, 0xc001
   d45c8f004:	0000                	.insn	2, 0x0000
	...

Disassembly of section .SID_HEXCEP_09_sinval_vma_vu_stack:

0000000000019000 <.SID_HEXCEP_09_sinval_vma_vu_stack>:
   19000:	c0de                	.insn	2, 0xc0de
   19002:	c001                	.insn	2, 0xc001
   19004:	0000                	.insn	2, 0x0000
	...

Disassembly of section .SID_HEXCEP_11_stack:

0000000035ffe000 <.SID_HEXCEP_11_stack>:
    35ffe000:	c0de                	.insn	2, 0xc0de
    35ffe002:	c001                	.insn	2, 0xc001
    35ffe004:	0000                	.insn	2, 0x0000
	...

Disassembly of section .SID_HEXCEP_16_fs0_both_stack:

000000000906c000 <.SID_HEXCEP_16_fs0_both_stack>:
 906c000:	c0de                	.insn	2, 0xc0de
 906c002:	c001                	.insn	2, 0xc001
 906c004:	0000                	.insn	2, 0x0000
	...

Disassembly of section .SID_HEXCEP_16_vsstatus_fs0_stack:

0000001db1916000 <.SID_HEXCEP_16_vsstatus_fs0_stack>:
  1db1916000:	c0de                	.insn	2, 0xc0de
  1db1916002:	c001                	.insn	2, 0xc001
  1db1916004:	0000                	.insn	2, 0x0000
	...

Disassembly of section .SID_HEXCEP_16_sstatus_fs0_stack:

000ff403bf6f3000 <.SID_HEXCEP_16_sstatus_fs0_stack>:
   ff403bf6f3000:	c0de                	.insn	2, 0xc0de
   ff403bf6f3002:	c001                	.insn	2, 0xc001
   ff403bf6f3004:	0000                	.insn	2, 0x0000
	...

Disassembly of section .SID_HEXCEP_17_vs0_both_stack:

00000000015a7000 <.SID_HEXCEP_17_vs0_both_stack>:
 15a7000:	c0de                	.insn	2, 0xc0de
 15a7002:	c001                	.insn	2, 0xc001
 15a7004:	0000                	.insn	2, 0x0000
	...

Disassembly of section .SID_HEXCEP_17_vsstatus_vs0_stack:

000002f1c6e7f000 <.SID_HEXCEP_17_vsstatus_vs0_stack>:
 2f1c6e7f000:	c0de                	.insn	2, 0xc0de
 2f1c6e7f002:	c001                	.insn	2, 0xc001
 2f1c6e7f004:	0000                	.insn	2, 0x0000
	...

Disassembly of section .SID_HEXCEP_17_sstatus_vs0_stack:

000000000004f000 <.SID_HEXCEP_17_sstatus_vs0_stack>:
   4f000:	c0de                	.insn	2, 0xc0de
   4f002:	c001                	.insn	2, 0xc001
   4f004:	0000                	.insn	2, 0x0000
	...

Disassembly of section .SID_HEXCEP_19_misaligned_amo_stack:

000000721dcdc000 <.SID_HEXCEP_19_misaligned_amo_stack>:
  721dcdc000:	c0de                	.insn	2, 0xc0de
  721dcdc002:	c001                	.insn	2, 0xc001
  721dcdc004:	0000                	.insn	2, 0x0000
	...

Disassembly of section .SID_HEXCEP_19_misaligned_lr_stack:

0000000a4e998000 <.SID_HEXCEP_19_misaligned_lr_stack>:
   a4e998000:	c0de                	.insn	2, 0xc0de
   a4e998002:	c001                	.insn	2, 0xc001
   a4e998004:	0000                	.insn	2, 0x0000
	...

Disassembly of section .SID_HEXCEP_19_misaligned_sc_stack:

00000bf9aa4a3000 <.SID_HEXCEP_19_misaligned_sc_stack>:
 bf9aa4a3000:	c0de                	.insn	2, 0xc0de
 bf9aa4a3002:	c001                	.insn	2, 0xc001
 bf9aa4a3004:	0000                	.insn	2, 0x0000
	...

Disassembly of section .SID_HEXCEP_19_misaligned_amo_delegated_stack:

00003db28f41f000 <.SID_HEXCEP_19_misaligned_amo_delegated_stack>:
    3db28f41f000:	c0de                	.insn	2, 0xc0de
    3db28f41f002:	c001                	.insn	2, 0xc001
    3db28f41f004:	0000                	.insn	2, 0x0000
	...

Disassembly of section .SID_HEXCEP_19_misaligned_lr_delegated_stack:

00000000000a1000 <.SID_HEXCEP_19_misaligned_lr_delegated_stack>:
   a1000:	c0de                	.insn	2, 0xc0de
   a1002:	c001                	.insn	2, 0xc001
   a1004:	0000                	.insn	2, 0x0000
	...

Disassembly of section .SID_HEXCEP_19_misaligned_sc_delegated_stack:

000000002f882000 <.SID_HEXCEP_19_misaligned_sc_delegated_stack>:
    2f882000:	c0de                	.insn	2, 0xc0de
    2f882002:	c001                	.insn	2, 0xc001
    2f882004:	0000                	.insn	2, 0x0000
	...

Disassembly of section .__pagetable_map_os_0x00000000444c6000:

00000000444c6000 <__pagetable_map_os_0x00000000444c6000>:
    444c6000:	7801                	.insn	2, 0x7801
    444c6002:	10b9                	.insn	2, 0x10b9
    444c6004:	0000                	.insn	2, 0x0000
    444c6006:	0000                	.insn	2, 0x0000
    444c6008:	0401                	.insn	2, 0x0401
    444c600a:	10b0                	.insn	2, 0x10b0
    444c600c:	0000                	.insn	2, 0x0000
    444c600e:	0000                	.insn	2, 0x0000
    444c6010:	f001                	.insn	2, 0xf001
    444c6012:	000010bb          	sllw	x1,x0,x0
	...
    444c6076:	0000                	.insn	2, 0x0000
    444c6078:	d801                	.insn	2, 0xd801
    444c607a:	112a                	.insn	2, 0x112a
	...
    444c60d0:	f801                	.insn	2, 0xf801
    444c60d2:	00001057          	vfadd.vv	v0,v0,v0,v0.t
	...
    444c6296:	0000                	.insn	2, 0x0000
    444c6298:	ec01                	.insn	2, 0xec01
    444c629a:	10cc                	.insn	2, 0x10cc
	...
    444c6fd8:	0801                	.insn	2, 0x0801
    444c6fda:	10b0                	.insn	2, 0x10b0
    444c6fdc:	0000                	.insn	2, 0x0000
	...

Disassembly of section .__pagetable_map_os_0x0000000042e5e000:

0000000042e5e000 <__pagetable_map_os_0x0000000042e5e000>:
    42e5e000:	2401                	.insn	2, 0x2401
    42e5e002:	111a                	.insn	2, 0x111a
	...
    42e5e028:	ec01                	.insn	2, 0xec01
    42e5e02a:	000010d7          	vfadd.vv	v1,v0,v0,v0.t
	...
    42e5e0ae:	0000                	.insn	2, 0x0000
    42e5e0b0:	b001                	.insn	2, 0xb001
    42e5e0b2:	10cc                	.insn	2, 0x10cc
    42e5e0b4:	0000                	.insn	2, 0x0000
    42e5e0b6:	0000                	.insn	2, 0x0000
    42e5e0b8:	a401                	.insn	2, 0xa401
    42e5e0ba:	10c2                	.insn	2, 0x10c2
	...
    42e5e3d8:	a801                	.insn	2, 0xa801
    42e5e3da:	000010d7          	vfadd.vv	v1,v0,v0,v0.t
	...
    42e5e73e:	0000                	.insn	2, 0x0000
    42e5e740:	c001                	.insn	2, 0xc001
    42e5e742:	10cd                	.insn	2, 0x10cd
    42e5e744:	0000                	.insn	2, 0x0000
	...

Disassembly of section .__pagetable_map_os_0x0000000044689000:

0000000044689000 <__pagetable_map_os_0x0000000044689000>:
    44689000:	d401                	.insn	2, 0xd401
    44689002:	10b9                	.insn	2, 0x10b9
    44689004:	0000                	.insn	2, 0x0000
    44689006:	0000                	.insn	2, 0x0000
    44689008:	3c01                	.insn	2, 0x3c01
    4468900a:	000010bf 00000000 	.insn	8, 0x10bf
	...
    44689056:	0000                	.insn	2, 0x0000
    44689058:	0801                	.insn	2, 0x0801
    4468905a:	1128                	.insn	2, 0x1128
	...
    44689148:	f001                	.insn	2, 0xf001
    4468914a:	1121                	.insn	2, 0x1121
	...
    446891a8:	e401                	.insn	2, 0xe401
    446891aa:	1119                	.insn	2, 0x1119
	...
    44689218:	7001                	.insn	2, 0x7001
    4468921a:	1128                	.insn	2, 0x1128
	...
    446893b0:	3001                	.insn	2, 0x3001
    446893b2:	1054                	.insn	2, 0x1054
	...
    44689e40:	4c01                	.insn	2, 0x4c01
    44689e42:	000010d7          	vfadd.vv	v1,v0,v0,v0.t
	...

Disassembly of section .__pagetable_map_os_0x0000000042fcf000:

0000000042fcf000 <__pagetable_map_os_0x0000000042fcf000>:
	...
    42fcf020:	8801                	.insn	2, 0x8801
    42fcf022:	10c2                	.insn	2, 0x10c2
    42fcf024:	0000                	.insn	2, 0x0000
    42fcf026:	0000                	.insn	2, 0x0000
    42fcf028:	7001                	.insn	2, 0x7001
    42fcf02a:	10bc                	.insn	2, 0x10bc
	...
    42fcf040:	d001                	.insn	2, 0xd001
    42fcf042:	1076                	.insn	2, 0x1076
    42fcf044:	0000                	.insn	2, 0x0000
    42fcf046:	0000                	.insn	2, 0x0000
    42fcf048:	a401                	.insn	2, 0xa401
    42fcf04a:	107e                	.insn	2, 0x107e
	...
    42fcf110:	0c01                	.insn	2, 0x0c01
    42fcf112:	10b0                	.insn	2, 0x10b0
    42fcf114:	0000                	.insn	2, 0x0000
	...

Disassembly of section .__pagetable_map_os_0x0000000041db4000:

0000000041db4000 <__pagetable_map_os_0x0000000041db4000>:
	...
    41db4080:	40df 1040 0000      	.insn	6, 0x104040df
    41db4086:	0000                	.insn	2, 0x0000
    41db4088:	104044cf          	fnmadd.s	f9,f0,f4,f2,rmm
    41db408c:	0000                	.insn	2, 0x0000
    41db408e:	0000                	.insn	2, 0x0000
    41db4090:	104048cf          	fnmadd.s	f17,f0,f4,f2,rmm
    41db4094:	0000                	.insn	2, 0x0000
    41db4096:	0000                	.insn	2, 0x0000
    41db4098:	10404ccf          	fnmadd.s	f25,f0,f4,f2,rmm
    41db409c:	0000                	.insn	2, 0x0000
    41db409e:	0000                	.insn	2, 0x0000
    41db40a0:	104050cf          	fnmadd.s	f1,f0,f4,f2,unknown
    41db40a4:	0000                	.insn	2, 0x0000
    41db40a6:	0000                	.insn	2, 0x0000
    41db40a8:	00df 10d8 0000      	.insn	6, 0x10d800df
    41db40ae:	0000                	.insn	2, 0x0000
    41db40b0:	04df 10d8 0000      	.insn	6, 0x10d804df
    41db40b6:	0000                	.insn	2, 0x0000
    41db40b8:	08df 10d8 0000      	.insn	6, 0x10d808df
    41db40be:	0000                	.insn	2, 0x0000
    41db40c0:	0cdf 10d8 0000      	.insn	6, 0x10d80cdf
    41db40c6:	0000                	.insn	2, 0x0000
    41db40c8:	10df 10d8 0000      	.insn	6, 0x10d810df
    41db40ce:	0000                	.insn	2, 0x0000
    41db40d0:	14df 10d8 0000      	.insn	6, 0x10d814df
    41db40d6:	0000                	.insn	2, 0x0000
    41db40d8:	18df 10d8 0000      	.insn	6, 0x10d818df
    41db40de:	0000                	.insn	2, 0x0000
    41db40e0:	1cdf 10d8 0000      	.insn	6, 0x10d81cdf
    41db40e6:	0000                	.insn	2, 0x0000
    41db40e8:	20df 10d8 0000      	.insn	6, 0x10d820df
    41db40ee:	0000                	.insn	2, 0x0000
    41db40f0:	24df 10d8 0000      	.insn	6, 0x10d824df
    41db40f6:	0000                	.insn	2, 0x0000
    41db40f8:	28df 10d8 0000      	.insn	6, 0x10d828df
    41db40fe:	0000                	.insn	2, 0x0000
    41db4100:	2cdf 10d8 0000      	.insn	6, 0x10d82cdf
    41db4106:	0000                	.insn	2, 0x0000
    41db4108:	30df 10d8 0000      	.insn	6, 0x10d830df
    41db410e:	0000                	.insn	2, 0x0000
    41db4110:	34df 10d8 0000      	.insn	6, 0x10d834df
    41db4116:	0000                	.insn	2, 0x0000
    41db4118:	38df 10d8 0000      	.insn	6, 0x10d838df
    41db411e:	0000                	.insn	2, 0x0000
    41db4120:	3cdf 10d8 0000      	.insn	6, 0x10d83cdf
    41db4126:	0000                	.insn	2, 0x0000
    41db4128:	40df 10d8 0000      	.insn	6, 0x10d840df
    41db412e:	0000                	.insn	2, 0x0000
    41db4130:	44df 10d8 0000      	.insn	6, 0x10d844df
    41db4136:	0000                	.insn	2, 0x0000
    41db4138:	48df 10d8 0000      	.insn	6, 0x10d848df
    41db413e:	0000                	.insn	2, 0x0000
    41db4140:	4cdf 10d8 0000      	.insn	6, 0x10d84cdf
    41db4146:	0000                	.insn	2, 0x0000
    41db4148:	50df 10d8 0000      	.insn	6, 0x10d850df
    41db414e:	0000                	.insn	2, 0x0000
    41db4150:	54df 10d8 0000      	.insn	6, 0x10d854df
    41db4156:	0000                	.insn	2, 0x0000
    41db4158:	58df 10d8 0000      	.insn	6, 0x10d858df
    41db415e:	0000                	.insn	2, 0x0000
    41db4160:	5cdf 10d8 0000      	.insn	6, 0x10d85cdf
    41db4166:	0000                	.insn	2, 0x0000
    41db4168:	60df 10d8 0000      	.insn	6, 0x10d860df
    41db416e:	0000                	.insn	2, 0x0000
    41db4170:	64df 10d8 0000      	.insn	6, 0x10d864df
    41db4176:	0000                	.insn	2, 0x0000
    41db4178:	68df 10d8 0000      	.insn	6, 0x10d868df
    41db417e:	0000                	.insn	2, 0x0000
    41db4180:	6cdf 10d8 0000      	.insn	6, 0x10d86cdf
    41db4186:	0000                	.insn	2, 0x0000
    41db4188:	70df 10d8 0000      	.insn	6, 0x10d870df
    41db418e:	0000                	.insn	2, 0x0000
    41db4190:	74df 10d8 0000      	.insn	6, 0x10d874df
    41db4196:	0000                	.insn	2, 0x0000
    41db4198:	78df 10d8 0000      	.insn	6, 0x10d878df
    41db419e:	0000                	.insn	2, 0x0000
    41db41a0:	7cdf 10d8 0000      	.insn	6, 0x10d87cdf
    41db41a6:	0000                	.insn	2, 0x0000
    41db41a8:	80df 10d8 0000      	.insn	6, 0x10d880df
    41db41ae:	0000                	.insn	2, 0x0000
    41db41b0:	84df 10d8 0000      	.insn	6, 0x10d884df
    41db41b6:	0000                	.insn	2, 0x0000
    41db41b8:	88df 10d8 0000      	.insn	6, 0x10d888df
    41db41be:	0000                	.insn	2, 0x0000
    41db41c0:	8cdf 10d8 0000      	.insn	6, 0x10d88cdf
    41db41c6:	0000                	.insn	2, 0x0000
    41db41c8:	90df 10d8 0000      	.insn	6, 0x10d890df
    41db41ce:	0000                	.insn	2, 0x0000
    41db41d0:	94df 10d8 0000      	.insn	6, 0x10d894df
    41db41d6:	0000                	.insn	2, 0x0000
    41db41d8:	98df 10d8 0000      	.insn	6, 0x10d898df
    41db41de:	0000                	.insn	2, 0x0000
    41db41e0:	9cdf 10d8 0000      	.insn	6, 0x10d89cdf
    41db41e6:	0000                	.insn	2, 0x0000
    41db41e8:	a0df 10d8 0000      	.insn	6, 0x10d8a0df
    41db41ee:	0000                	.insn	2, 0x0000
    41db41f0:	a4df 10d8 0000      	.insn	6, 0x10d8a4df
    41db41f6:	0000                	.insn	2, 0x0000
    41db41f8:	a8df 10d8 0000      	.insn	6, 0x10d8a8df
    41db41fe:	0000                	.insn	2, 0x0000
    41db4200:	00df 1041 0000      	.insn	6, 0x104100df
    41db4206:	0000                	.insn	2, 0x0000
    41db4208:	b0df 10d8 0000      	.insn	6, 0x10d8b0df
    41db420e:	0000                	.insn	2, 0x0000
    41db4210:	b4df 10d8 0000      	.insn	6, 0x10d8b4df
    41db4216:	0000                	.insn	2, 0x0000
    41db4218:	b8df 10d8 0000      	.insn	6, 0x10d8b8df
    41db421e:	0000                	.insn	2, 0x0000
    41db4220:	bcdf 10d8 0000      	.insn	6, 0x10d8bcdf
    41db4226:	0000                	.insn	2, 0x0000
    41db4228:	c0df 10d8 0000      	.insn	6, 0x10d8c0df
    41db422e:	0000                	.insn	2, 0x0000
    41db4230:	c4df 10d8 0000      	.insn	6, 0x10d8c4df
    41db4236:	0000                	.insn	2, 0x0000
    41db4238:	c8df 10d8 0000      	.insn	6, 0x10d8c8df
    41db423e:	0000                	.insn	2, 0x0000
    41db4240:	ccdf 10d8 0000      	.insn	6, 0x10d8ccdf
    41db4246:	0000                	.insn	2, 0x0000
    41db4248:	d0df 10d8 0000      	.insn	6, 0x10d8d0df
    41db424e:	0000                	.insn	2, 0x0000
    41db4250:	d4df 10d8 0000      	.insn	6, 0x10d8d4df
    41db4256:	0000                	.insn	2, 0x0000
    41db4258:	d8df 10d8 0000      	.insn	6, 0x10d8d8df
    41db425e:	0000                	.insn	2, 0x0000
    41db4260:	dcdf 10d8 0000      	.insn	6, 0x10d8dcdf
    41db4266:	0000                	.insn	2, 0x0000
    41db4268:	e0df 10d8 0000      	.insn	6, 0x10d8e0df
    41db426e:	0000                	.insn	2, 0x0000
    41db4270:	e4df 10d8 0000      	.insn	6, 0x10d8e4df
    41db4276:	0000                	.insn	2, 0x0000
    41db4278:	e8df 10d8 0000      	.insn	6, 0x10d8e8df
    41db427e:	0000                	.insn	2, 0x0000
    41db4280:	ecdf 10d8 0000      	.insn	6, 0x10d8ecdf
    41db4286:	0000                	.insn	2, 0x0000
    41db4288:	f0df 10d8 0000      	.insn	6, 0x10d8f0df
    41db428e:	0000                	.insn	2, 0x0000
    41db4290:	f4df 10d8 0000      	.insn	6, 0x10d8f4df
    41db4296:	0000                	.insn	2, 0x0000
    41db4298:	f8df 10d8 0000      	.insn	6, 0x10d8f8df
    41db429e:	0000                	.insn	2, 0x0000
    41db42a0:	fcdf 10d8 0000      	.insn	6, 0x10d8fcdf
    41db42a6:	0000                	.insn	2, 0x0000
    41db42a8:	00df 10d9 0000      	.insn	6, 0x10d900df
    41db42ae:	0000                	.insn	2, 0x0000
    41db42b0:	04df 10d9 0000      	.insn	6, 0x10d904df
    41db42b6:	0000                	.insn	2, 0x0000
    41db42b8:	08df 10d9 0000      	.insn	6, 0x10d908df
    41db42be:	0000                	.insn	2, 0x0000
    41db42c0:	0cdf 10d9 0000      	.insn	6, 0x10d90cdf
    41db42c6:	0000                	.insn	2, 0x0000
    41db42c8:	10df 10d9 0000      	.insn	6, 0x10d910df
    41db42ce:	0000                	.insn	2, 0x0000
    41db42d0:	14df 10d9 0000      	.insn	6, 0x10d914df
    41db42d6:	0000                	.insn	2, 0x0000
    41db42d8:	18df 10d9 0000      	.insn	6, 0x10d918df
    41db42de:	0000                	.insn	2, 0x0000
    41db42e0:	1cdf 10d9 0000      	.insn	6, 0x10d91cdf
    41db42e6:	0000                	.insn	2, 0x0000
    41db42e8:	20df 10d9 0000      	.insn	6, 0x10d920df
    41db42ee:	0000                	.insn	2, 0x0000
    41db42f0:	24df 10d9 0000      	.insn	6, 0x10d924df
    41db42f6:	0000                	.insn	2, 0x0000
    41db42f8:	28df 10d9 0000      	.insn	6, 0x10d928df
    41db42fe:	0000                	.insn	2, 0x0000
    41db4300:	2cdf 10d9 0000      	.insn	6, 0x10d92cdf
    41db4306:	0000                	.insn	2, 0x0000
    41db4308:	30df 10d9 0000      	.insn	6, 0x10d930df
    41db430e:	0000                	.insn	2, 0x0000
    41db4310:	34df 10d9 0000      	.insn	6, 0x10d934df
    41db4316:	0000                	.insn	2, 0x0000
    41db4318:	38df 10d9 0000      	.insn	6, 0x10d938df
    41db431e:	0000                	.insn	2, 0x0000
    41db4320:	3cdf 10d9 0000      	.insn	6, 0x10d93cdf
    41db4326:	0000                	.insn	2, 0x0000
    41db4328:	40df 10d9 0000      	.insn	6, 0x10d940df
    41db432e:	0000                	.insn	2, 0x0000
    41db4330:	44df 10d9 0000      	.insn	6, 0x10d944df
    41db4336:	0000                	.insn	2, 0x0000
    41db4338:	48df 10d9 0000      	.insn	6, 0x10d948df
    41db433e:	0000                	.insn	2, 0x0000
    41db4340:	4cdf 10d9 0000      	.insn	6, 0x10d94cdf
    41db4346:	0000                	.insn	2, 0x0000
    41db4348:	50df 10d9 0000      	.insn	6, 0x10d950df
    41db434e:	0000                	.insn	2, 0x0000
    41db4350:	54df 10d9 0000      	.insn	6, 0x10d954df
    41db4356:	0000                	.insn	2, 0x0000
    41db4358:	58df 10d9 0000      	.insn	6, 0x10d958df
    41db435e:	0000                	.insn	2, 0x0000
    41db4360:	5cdf 10d9 0000      	.insn	6, 0x10d95cdf
    41db4366:	0000                	.insn	2, 0x0000
    41db4368:	60df 10d9 0000      	.insn	6, 0x10d960df
    41db436e:	0000                	.insn	2, 0x0000
    41db4370:	64df 10d9 0000      	.insn	6, 0x10d964df
    41db4376:	0000                	.insn	2, 0x0000
    41db4378:	68df 10d9 0000      	.insn	6, 0x10d968df
    41db437e:	0000                	.insn	2, 0x0000
    41db4380:	6cdf 10d9 0000      	.insn	6, 0x10d96cdf
    41db4386:	0000                	.insn	2, 0x0000
    41db4388:	70df 10d9 0000      	.insn	6, 0x10d970df
    41db438e:	0000                	.insn	2, 0x0000
    41db4390:	74df 10d9 0000      	.insn	6, 0x10d974df
    41db4396:	0000                	.insn	2, 0x0000
    41db4398:	78df 10d9 0000      	.insn	6, 0x10d978df
    41db439e:	0000                	.insn	2, 0x0000
    41db43a0:	7cdf 10d9 0000      	.insn	6, 0x10d97cdf
    41db43a6:	0000                	.insn	2, 0x0000
    41db43a8:	80df 10d9 0000      	.insn	6, 0x10d980df
    41db43ae:	0000                	.insn	2, 0x0000
    41db43b0:	84df 10d9 0000      	.insn	6, 0x10d984df
    41db43b6:	0000                	.insn	2, 0x0000
    41db43b8:	88df 10d9 0000      	.insn	6, 0x10d988df
    41db43be:	0000                	.insn	2, 0x0000
    41db43c0:	8cdf 10d9 0000      	.insn	6, 0x10d98cdf
    41db43c6:	0000                	.insn	2, 0x0000
    41db43c8:	90df 10d9 0000      	.insn	6, 0x10d990df
    41db43ce:	0000                	.insn	2, 0x0000
    41db43d0:	94df 10d9 0000      	.insn	6, 0x10d994df
    41db43d6:	0000                	.insn	2, 0x0000
    41db43d8:	98df 10d9 0000      	.insn	6, 0x10d998df
    41db43de:	0000                	.insn	2, 0x0000
    41db43e0:	9cdf 10d9 0000      	.insn	6, 0x10d99cdf
    41db43e6:	0000                	.insn	2, 0x0000
    41db43e8:	a0df 10d9 0000      	.insn	6, 0x10d9a0df
    41db43ee:	0000                	.insn	2, 0x0000
    41db43f0:	a4df 10d9 0000      	.insn	6, 0x10d9a4df
    41db43f6:	0000                	.insn	2, 0x0000
    41db43f8:	a8df 10d9 0000      	.insn	6, 0x10d9a8df
    41db43fe:	0000                	.insn	2, 0x0000
    41db4400:	acdf 10d9 0000      	.insn	6, 0x10d9acdf
    41db4406:	0000                	.insn	2, 0x0000
    41db4408:	b0df 10d9 0000      	.insn	6, 0x10d9b0df
    41db440e:	0000                	.insn	2, 0x0000
    41db4410:	b4df 10d9 0000      	.insn	6, 0x10d9b4df
    41db4416:	0000                	.insn	2, 0x0000
    41db4418:	b8df 10d9 0000      	.insn	6, 0x10d9b8df
    41db441e:	0000                	.insn	2, 0x0000
    41db4420:	bcdf 10d9 0000      	.insn	6, 0x10d9bcdf
    41db4426:	0000                	.insn	2, 0x0000
    41db4428:	c0df 10d9 0000      	.insn	6, 0x10d9c0df
    41db442e:	0000                	.insn	2, 0x0000
    41db4430:	c4df 10d9 0000      	.insn	6, 0x10d9c4df
    41db4436:	0000                	.insn	2, 0x0000
    41db4438:	c8df 10d9 0000      	.insn	6, 0x10d9c8df
    41db443e:	0000                	.insn	2, 0x0000
    41db4440:	ccdf 10d9 0000      	.insn	6, 0x10d9ccdf
    41db4446:	0000                	.insn	2, 0x0000
    41db4448:	d0df 10d9 0000      	.insn	6, 0x10d9d0df
    41db444e:	0000                	.insn	2, 0x0000
    41db4450:	d4df 10d9 0000      	.insn	6, 0x10d9d4df
    41db4456:	0000                	.insn	2, 0x0000
    41db4458:	d8df 10d9 0000      	.insn	6, 0x10d9d8df
    41db445e:	0000                	.insn	2, 0x0000
    41db4460:	dcdf 10d9 0000      	.insn	6, 0x10d9dcdf
    41db4466:	0000                	.insn	2, 0x0000
    41db4468:	e0df 10d9 0000      	.insn	6, 0x10d9e0df
    41db446e:	0000                	.insn	2, 0x0000
    41db4470:	e4df 10d9 0000      	.insn	6, 0x10d9e4df
    41db4476:	0000                	.insn	2, 0x0000
    41db4478:	e8df 10d9 0000      	.insn	6, 0x10d9e8df
    41db447e:	0000                	.insn	2, 0x0000
    41db4480:	ecdf 10d9 0000      	.insn	6, 0x10d9ecdf
    41db4486:	0000                	.insn	2, 0x0000
    41db4488:	f0df 10d9 0000      	.insn	6, 0x10d9f0df
    41db448e:	0000                	.insn	2, 0x0000
    41db4490:	f4df 10d9 0000      	.insn	6, 0x10d9f4df
    41db4496:	0000                	.insn	2, 0x0000
    41db4498:	f8df 10d9 0000      	.insn	6, 0x10d9f8df
    41db449e:	0000                	.insn	2, 0x0000
    41db44a0:	fcdf 10d9 0000      	.insn	6, 0x10d9fcdf
    41db44a6:	0000                	.insn	2, 0x0000
    41db44a8:	10da00cf          	fnmadd.s	f1,f20,f13,f2,rne
    41db44ac:	0000                	.insn	2, 0x0000
    41db44ae:	0000                	.insn	2, 0x0000
    41db44b0:	10da04cf          	fnmadd.s	f9,f20,f13,f2,rne
    41db44b4:	0000                	.insn	2, 0x0000
    41db44b6:	0000                	.insn	2, 0x0000
    41db44b8:	10da08cf          	fnmadd.s	f17,f20,f13,f2,rne
    41db44bc:	0000                	.insn	2, 0x0000
    41db44be:	0000                	.insn	2, 0x0000
    41db44c0:	10da0ccf          	fnmadd.s	f25,f20,f13,f2,rne
    41db44c4:	0000                	.insn	2, 0x0000
    41db44c6:	0000                	.insn	2, 0x0000
    41db44c8:	10da10cf          	fnmadd.s	f1,f20,f13,f2,rtz
    41db44cc:	0000                	.insn	2, 0x0000
    41db44ce:	0000                	.insn	2, 0x0000
    41db44d0:	10da14cf          	fnmadd.s	f9,f20,f13,f2,rtz
    41db44d4:	0000                	.insn	2, 0x0000
    41db44d6:	0000                	.insn	2, 0x0000
    41db44d8:	10da18cf          	fnmadd.s	f17,f20,f13,f2,rtz
    41db44dc:	0000                	.insn	2, 0x0000
    41db44de:	0000                	.insn	2, 0x0000
    41db44e0:	10da1ccf          	fnmadd.s	f25,f20,f13,f2,rtz
    41db44e4:	0000                	.insn	2, 0x0000
    41db44e6:	0000                	.insn	2, 0x0000
    41db44e8:	10da20cf          	fnmadd.s	f1,f20,f13,f2,rdn
    41db44ec:	0000                	.insn	2, 0x0000
    41db44ee:	0000                	.insn	2, 0x0000
    41db44f0:	10da24cf          	fnmadd.s	f9,f20,f13,f2,rdn
    41db44f4:	0000                	.insn	2, 0x0000
    41db44f6:	0000                	.insn	2, 0x0000
    41db44f8:	10da28cf          	fnmadd.s	f17,f20,f13,f2,rdn
    41db44fc:	0000                	.insn	2, 0x0000
    41db44fe:	0000                	.insn	2, 0x0000
    41db4500:	10da2ccf          	fnmadd.s	f25,f20,f13,f2,rdn
    41db4504:	0000                	.insn	2, 0x0000
    41db4506:	0000                	.insn	2, 0x0000
    41db4508:	10da30cf          	fnmadd.s	f1,f20,f13,f2,rup
    41db450c:	0000                	.insn	2, 0x0000
    41db450e:	0000                	.insn	2, 0x0000
    41db4510:	10da34cf          	fnmadd.s	f9,f20,f13,f2,rup
    41db4514:	0000                	.insn	2, 0x0000
    41db4516:	0000                	.insn	2, 0x0000
    41db4518:	10da38cf          	fnmadd.s	f17,f20,f13,f2,rup
    41db451c:	0000                	.insn	2, 0x0000
    41db451e:	0000                	.insn	2, 0x0000
    41db4520:	10da3ccf          	fnmadd.s	f25,f20,f13,f2,rup
    41db4524:	0000                	.insn	2, 0x0000
    41db4526:	0000                	.insn	2, 0x0000
    41db4528:	10da40cf          	fnmadd.s	f1,f20,f13,f2,rmm
    41db452c:	0000                	.insn	2, 0x0000
    41db452e:	0000                	.insn	2, 0x0000
    41db4530:	10da44cf          	fnmadd.s	f9,f20,f13,f2,rmm
    41db4534:	0000                	.insn	2, 0x0000
    41db4536:	0000                	.insn	2, 0x0000
    41db4538:	10da48cf          	fnmadd.s	f17,f20,f13,f2,rmm
    41db453c:	0000                	.insn	2, 0x0000
    41db453e:	0000                	.insn	2, 0x0000
    41db4540:	10da4ccf          	fnmadd.s	f25,f20,f13,f2,rmm
    41db4544:	0000                	.insn	2, 0x0000
    41db4546:	0000                	.insn	2, 0x0000
    41db4548:	10da50cf          	fnmadd.s	f1,f20,f13,f2,unknown
    41db454c:	0000                	.insn	2, 0x0000
    41db454e:	0000                	.insn	2, 0x0000
    41db4550:	10da54cf          	fnmadd.s	f9,f20,f13,f2,unknown
    41db4554:	0000                	.insn	2, 0x0000
    41db4556:	0000                	.insn	2, 0x0000
    41db4558:	10da58cf          	fnmadd.s	f17,f20,f13,f2,unknown
    41db455c:	0000                	.insn	2, 0x0000
    41db455e:	0000                	.insn	2, 0x0000
    41db4560:	10da5ccf          	fnmadd.s	f25,f20,f13,f2,unknown
    41db4564:	0000                	.insn	2, 0x0000
    41db4566:	0000                	.insn	2, 0x0000
    41db4568:	10da60cf          	fnmadd.s	f1,f20,f13,f2,unknown
    41db456c:	0000                	.insn	2, 0x0000
    41db456e:	0000                	.insn	2, 0x0000
    41db4570:	10da64cf          	fnmadd.s	f9,f20,f13,f2,unknown
    41db4574:	0000                	.insn	2, 0x0000
    41db4576:	0000                	.insn	2, 0x0000
    41db4578:	10da68cf          	fnmadd.s	f17,f20,f13,f2,unknown
    41db457c:	0000                	.insn	2, 0x0000
    41db457e:	0000                	.insn	2, 0x0000
    41db4580:	10da6ccf          	fnmadd.s	f25,f20,f13,f2,unknown
    41db4584:	0000                	.insn	2, 0x0000
    41db4586:	0000                	.insn	2, 0x0000
    41db4588:	10da70cf          	fnmadd.s	f1,f20,f13,f2
    41db458c:	0000                	.insn	2, 0x0000
    41db458e:	0000                	.insn	2, 0x0000
    41db4590:	10da74cf          	fnmadd.s	f9,f20,f13,f2
    41db4594:	0000                	.insn	2, 0x0000
    41db4596:	0000                	.insn	2, 0x0000
    41db4598:	10da78cf          	fnmadd.s	f17,f20,f13,f2
    41db459c:	0000                	.insn	2, 0x0000
    41db459e:	0000                	.insn	2, 0x0000
    41db45a0:	10da7ccf          	fnmadd.s	f25,f20,f13,f2
    41db45a4:	0000                	.insn	2, 0x0000
    41db45a6:	0000                	.insn	2, 0x0000
    41db45a8:	10da80cf          	fnmadd.s	f1,f21,f13,f2,rne
    41db45ac:	0000                	.insn	2, 0x0000
    41db45ae:	0000                	.insn	2, 0x0000
    41db45b0:	10da84cf          	fnmadd.s	f9,f21,f13,f2,rne
    41db45b4:	0000                	.insn	2, 0x0000
    41db45b6:	0000                	.insn	2, 0x0000
    41db45b8:	10da88cf          	fnmadd.s	f17,f21,f13,f2,rne
    41db45bc:	0000                	.insn	2, 0x0000
    41db45be:	0000                	.insn	2, 0x0000
    41db45c0:	10da8ccf          	fnmadd.s	f25,f21,f13,f2,rne
    41db45c4:	0000                	.insn	2, 0x0000
    41db45c6:	0000                	.insn	2, 0x0000
    41db45c8:	10da90cf          	fnmadd.s	f1,f21,f13,f2,rtz
    41db45cc:	0000                	.insn	2, 0x0000
    41db45ce:	0000                	.insn	2, 0x0000
    41db45d0:	10da94cf          	fnmadd.s	f9,f21,f13,f2,rtz
    41db45d4:	0000                	.insn	2, 0x0000
    41db45d6:	0000                	.insn	2, 0x0000
    41db45d8:	10da98cf          	fnmadd.s	f17,f21,f13,f2,rtz
    41db45dc:	0000                	.insn	2, 0x0000
    41db45de:	0000                	.insn	2, 0x0000
    41db45e0:	10da9ccf          	fnmadd.s	f25,f21,f13,f2,rtz
    41db45e4:	0000                	.insn	2, 0x0000
    41db45e6:	0000                	.insn	2, 0x0000
    41db45e8:	10daa0cf          	fnmadd.s	f1,f21,f13,f2,rdn
    41db45ec:	0000                	.insn	2, 0x0000
    41db45ee:	0000                	.insn	2, 0x0000
    41db45f0:	10daa4cf          	fnmadd.s	f9,f21,f13,f2,rdn
    41db45f4:	0000                	.insn	2, 0x0000
    41db45f6:	0000                	.insn	2, 0x0000
    41db45f8:	10daa8cf          	fnmadd.s	f17,f21,f13,f2,rdn
    41db45fc:	0000                	.insn	2, 0x0000
    41db45fe:	0000                	.insn	2, 0x0000
    41db4600:	10daaccf          	fnmadd.s	f25,f21,f13,f2,rdn
    41db4604:	0000                	.insn	2, 0x0000
    41db4606:	0000                	.insn	2, 0x0000
    41db4608:	10dab0cf          	fnmadd.s	f1,f21,f13,f2,rup
    41db460c:	0000                	.insn	2, 0x0000
    41db460e:	0000                	.insn	2, 0x0000
    41db4610:	10dab4cf          	fnmadd.s	f9,f21,f13,f2,rup
    41db4614:	0000                	.insn	2, 0x0000
    41db4616:	0000                	.insn	2, 0x0000
    41db4618:	10dab8cf          	fnmadd.s	f17,f21,f13,f2,rup
    41db461c:	0000                	.insn	2, 0x0000
    41db461e:	0000                	.insn	2, 0x0000
    41db4620:	10dabccf          	fnmadd.s	f25,f21,f13,f2,rup
    41db4624:	0000                	.insn	2, 0x0000
    41db4626:	0000                	.insn	2, 0x0000
    41db4628:	10dac0cf          	fnmadd.s	f1,f21,f13,f2,rmm
    41db462c:	0000                	.insn	2, 0x0000
    41db462e:	0000                	.insn	2, 0x0000
    41db4630:	10dac4cf          	fnmadd.s	f9,f21,f13,f2,rmm
    41db4634:	0000                	.insn	2, 0x0000
    41db4636:	0000                	.insn	2, 0x0000
    41db4638:	10dac8cf          	fnmadd.s	f17,f21,f13,f2,rmm
    41db463c:	0000                	.insn	2, 0x0000
    41db463e:	0000                	.insn	2, 0x0000
    41db4640:	10dacccf          	fnmadd.s	f25,f21,f13,f2,rmm
    41db4644:	0000                	.insn	2, 0x0000
    41db4646:	0000                	.insn	2, 0x0000
    41db4648:	10dad0cf          	fnmadd.s	f1,f21,f13,f2,unknown
    41db464c:	0000                	.insn	2, 0x0000
    41db464e:	0000                	.insn	2, 0x0000
    41db4650:	10dad4cf          	fnmadd.s	f9,f21,f13,f2,unknown
    41db4654:	0000                	.insn	2, 0x0000
    41db4656:	0000                	.insn	2, 0x0000
    41db4658:	10dad8cf          	fnmadd.s	f17,f21,f13,f2,unknown
    41db465c:	0000                	.insn	2, 0x0000
    41db465e:	0000                	.insn	2, 0x0000
    41db4660:	10dadccf          	fnmadd.s	f25,f21,f13,f2,unknown
    41db4664:	0000                	.insn	2, 0x0000
    41db4666:	0000                	.insn	2, 0x0000
    41db4668:	10dae0cf          	fnmadd.s	f1,f21,f13,f2,unknown
    41db466c:	0000                	.insn	2, 0x0000
    41db466e:	0000                	.insn	2, 0x0000
    41db4670:	10dae4cf          	fnmadd.s	f9,f21,f13,f2,unknown
    41db4674:	0000                	.insn	2, 0x0000
    41db4676:	0000                	.insn	2, 0x0000
    41db4678:	10dae8cf          	fnmadd.s	f17,f21,f13,f2,unknown
    41db467c:	0000                	.insn	2, 0x0000
    41db467e:	0000                	.insn	2, 0x0000
    41db4680:	10daeccf          	fnmadd.s	f25,f21,f13,f2,unknown
    41db4684:	0000                	.insn	2, 0x0000
    41db4686:	0000                	.insn	2, 0x0000
    41db4688:	10daf0cf          	fnmadd.s	f1,f21,f13,f2
    41db468c:	0000                	.insn	2, 0x0000
    41db468e:	0000                	.insn	2, 0x0000
    41db4690:	10daf4cf          	fnmadd.s	f9,f21,f13,f2
    41db4694:	0000                	.insn	2, 0x0000
    41db4696:	0000                	.insn	2, 0x0000
    41db4698:	10daf8cf          	fnmadd.s	f17,f21,f13,f2
    41db469c:	0000                	.insn	2, 0x0000
    41db469e:	0000                	.insn	2, 0x0000
    41db46a0:	10dafccf          	fnmadd.s	f25,f21,f13,f2
    41db46a4:	0000                	.insn	2, 0x0000
    41db46a6:	0000                	.insn	2, 0x0000
    41db46a8:	10db00cf          	fnmadd.s	f1,f22,f13,f2,rne
    41db46ac:	0000                	.insn	2, 0x0000
    41db46ae:	0000                	.insn	2, 0x0000
    41db46b0:	10db04cf          	fnmadd.s	f9,f22,f13,f2,rne
    41db46b4:	0000                	.insn	2, 0x0000
    41db46b6:	0000                	.insn	2, 0x0000
    41db46b8:	10db08cf          	fnmadd.s	f17,f22,f13,f2,rne
    41db46bc:	0000                	.insn	2, 0x0000
    41db46be:	0000                	.insn	2, 0x0000
    41db46c0:	10db0ccf          	fnmadd.s	f25,f22,f13,f2,rne
    41db46c4:	0000                	.insn	2, 0x0000
    41db46c6:	0000                	.insn	2, 0x0000
    41db46c8:	10db10cf          	fnmadd.s	f1,f22,f13,f2,rtz
    41db46cc:	0000                	.insn	2, 0x0000
    41db46ce:	0000                	.insn	2, 0x0000
    41db46d0:	10db14cf          	fnmadd.s	f9,f22,f13,f2,rtz
    41db46d4:	0000                	.insn	2, 0x0000
    41db46d6:	0000                	.insn	2, 0x0000
    41db46d8:	10db18cf          	fnmadd.s	f17,f22,f13,f2,rtz
    41db46dc:	0000                	.insn	2, 0x0000
    41db46de:	0000                	.insn	2, 0x0000
    41db46e0:	10db1ccf          	fnmadd.s	f25,f22,f13,f2,rtz
    41db46e4:	0000                	.insn	2, 0x0000
    41db46e6:	0000                	.insn	2, 0x0000
    41db46e8:	10db20cf          	fnmadd.s	f1,f22,f13,f2,rdn
    41db46ec:	0000                	.insn	2, 0x0000
    41db46ee:	0000                	.insn	2, 0x0000
    41db46f0:	10db24cf          	fnmadd.s	f9,f22,f13,f2,rdn
    41db46f4:	0000                	.insn	2, 0x0000
    41db46f6:	0000                	.insn	2, 0x0000
    41db46f8:	10db28cf          	fnmadd.s	f17,f22,f13,f2,rdn
    41db46fc:	0000                	.insn	2, 0x0000
    41db46fe:	0000                	.insn	2, 0x0000
    41db4700:	10db2ccf          	fnmadd.s	f25,f22,f13,f2,rdn
    41db4704:	0000                	.insn	2, 0x0000
    41db4706:	0000                	.insn	2, 0x0000
    41db4708:	10db30cf          	fnmadd.s	f1,f22,f13,f2,rup
    41db470c:	0000                	.insn	2, 0x0000
    41db470e:	0000                	.insn	2, 0x0000
    41db4710:	10db34cf          	fnmadd.s	f9,f22,f13,f2,rup
    41db4714:	0000                	.insn	2, 0x0000
    41db4716:	0000                	.insn	2, 0x0000
    41db4718:	10db38cf          	fnmadd.s	f17,f22,f13,f2,rup
    41db471c:	0000                	.insn	2, 0x0000
    41db471e:	0000                	.insn	2, 0x0000
    41db4720:	10db3ccf          	fnmadd.s	f25,f22,f13,f2,rup
    41db4724:	0000                	.insn	2, 0x0000
    41db4726:	0000                	.insn	2, 0x0000
    41db4728:	10db40cf          	fnmadd.s	f1,f22,f13,f2,rmm
    41db472c:	0000                	.insn	2, 0x0000
    41db472e:	0000                	.insn	2, 0x0000
    41db4730:	10db44cf          	fnmadd.s	f9,f22,f13,f2,rmm
    41db4734:	0000                	.insn	2, 0x0000
    41db4736:	0000                	.insn	2, 0x0000
    41db4738:	10db48cf          	fnmadd.s	f17,f22,f13,f2,rmm
    41db473c:	0000                	.insn	2, 0x0000
    41db473e:	0000                	.insn	2, 0x0000
    41db4740:	10db4ccf          	fnmadd.s	f25,f22,f13,f2,rmm
    41db4744:	0000                	.insn	2, 0x0000
    41db4746:	0000                	.insn	2, 0x0000
    41db4748:	10db50cf          	fnmadd.s	f1,f22,f13,f2,unknown
    41db474c:	0000                	.insn	2, 0x0000
    41db474e:	0000                	.insn	2, 0x0000
    41db4750:	10db54cf          	fnmadd.s	f9,f22,f13,f2,unknown
    41db4754:	0000                	.insn	2, 0x0000
    41db4756:	0000                	.insn	2, 0x0000
    41db4758:	10db58cf          	fnmadd.s	f17,f22,f13,f2,unknown
    41db475c:	0000                	.insn	2, 0x0000
    41db475e:	0000                	.insn	2, 0x0000
    41db4760:	10db5ccf          	fnmadd.s	f25,f22,f13,f2,unknown
    41db4764:	0000                	.insn	2, 0x0000
    41db4766:	0000                	.insn	2, 0x0000
    41db4768:	10db60cf          	fnmadd.s	f1,f22,f13,f2,unknown
    41db476c:	0000                	.insn	2, 0x0000
    41db476e:	0000                	.insn	2, 0x0000
    41db4770:	10db64cf          	fnmadd.s	f9,f22,f13,f2,unknown
    41db4774:	0000                	.insn	2, 0x0000
    41db4776:	0000                	.insn	2, 0x0000
    41db4778:	10db68cf          	fnmadd.s	f17,f22,f13,f2,unknown
    41db477c:	0000                	.insn	2, 0x0000
    41db477e:	0000                	.insn	2, 0x0000
    41db4780:	10db6ccf          	fnmadd.s	f25,f22,f13,f2,unknown
    41db4784:	0000                	.insn	2, 0x0000
    41db4786:	0000                	.insn	2, 0x0000
    41db4788:	10db70cf          	fnmadd.s	f1,f22,f13,f2
    41db478c:	0000                	.insn	2, 0x0000
    41db478e:	0000                	.insn	2, 0x0000
    41db4790:	10db74cf          	fnmadd.s	f9,f22,f13,f2
    41db4794:	0000                	.insn	2, 0x0000
    41db4796:	0000                	.insn	2, 0x0000
    41db4798:	10db78cf          	fnmadd.s	f17,f22,f13,f2
    41db479c:	0000                	.insn	2, 0x0000
    41db479e:	0000                	.insn	2, 0x0000
    41db47a0:	10db7ccf          	fnmadd.s	f25,f22,f13,f2
    41db47a4:	0000                	.insn	2, 0x0000
    41db47a6:	0000                	.insn	2, 0x0000
    41db47a8:	10db80cf          	fnmadd.s	f1,f23,f13,f2,rne
    41db47ac:	0000                	.insn	2, 0x0000
    41db47ae:	0000                	.insn	2, 0x0000
    41db47b0:	10db84cf          	fnmadd.s	f9,f23,f13,f2,rne
    41db47b4:	0000                	.insn	2, 0x0000
    41db47b6:	0000                	.insn	2, 0x0000
    41db47b8:	10db88cf          	fnmadd.s	f17,f23,f13,f2,rne
    41db47bc:	0000                	.insn	2, 0x0000
    41db47be:	0000                	.insn	2, 0x0000
    41db47c0:	10db8ccf          	fnmadd.s	f25,f23,f13,f2,rne
    41db47c4:	0000                	.insn	2, 0x0000
    41db47c6:	0000                	.insn	2, 0x0000
    41db47c8:	10db90cf          	fnmadd.s	f1,f23,f13,f2,rtz
    41db47cc:	0000                	.insn	2, 0x0000
    41db47ce:	0000                	.insn	2, 0x0000
    41db47d0:	10db94cf          	fnmadd.s	f9,f23,f13,f2,rtz
    41db47d4:	0000                	.insn	2, 0x0000
    41db47d6:	0000                	.insn	2, 0x0000
    41db47d8:	10db98cf          	fnmadd.s	f17,f23,f13,f2,rtz
    41db47dc:	0000                	.insn	2, 0x0000
    41db47de:	0000                	.insn	2, 0x0000
    41db47e0:	10db9ccf          	fnmadd.s	f25,f23,f13,f2,rtz
    41db47e4:	0000                	.insn	2, 0x0000
    41db47e6:	0000                	.insn	2, 0x0000
    41db47e8:	10dba0cf          	fnmadd.s	f1,f23,f13,f2,rdn
    41db47ec:	0000                	.insn	2, 0x0000
    41db47ee:	0000                	.insn	2, 0x0000
    41db47f0:	10dba4cf          	fnmadd.s	f9,f23,f13,f2,rdn
    41db47f4:	0000                	.insn	2, 0x0000
    41db47f6:	0000                	.insn	2, 0x0000
    41db47f8:	10dba8cf          	fnmadd.s	f17,f23,f13,f2,rdn
    41db47fc:	0000                	.insn	2, 0x0000
    41db47fe:	0000                	.insn	2, 0x0000
    41db4800:	10dbaccf          	fnmadd.s	f25,f23,f13,f2,rdn
    41db4804:	0000                	.insn	2, 0x0000
    41db4806:	0000                	.insn	2, 0x0000
    41db4808:	10dbb0cf          	fnmadd.s	f1,f23,f13,f2,rup
    41db480c:	0000                	.insn	2, 0x0000
    41db480e:	0000                	.insn	2, 0x0000
    41db4810:	10dbb4cf          	fnmadd.s	f9,f23,f13,f2,rup
    41db4814:	0000                	.insn	2, 0x0000
    41db4816:	0000                	.insn	2, 0x0000
    41db4818:	10dbb8cf          	fnmadd.s	f17,f23,f13,f2,rup
    41db481c:	0000                	.insn	2, 0x0000
    41db481e:	0000                	.insn	2, 0x0000
    41db4820:	10dbbccf          	fnmadd.s	f25,f23,f13,f2,rup
    41db4824:	0000                	.insn	2, 0x0000
    41db4826:	0000                	.insn	2, 0x0000
    41db4828:	10dbc0cf          	fnmadd.s	f1,f23,f13,f2,rmm
    41db482c:	0000                	.insn	2, 0x0000
    41db482e:	0000                	.insn	2, 0x0000
    41db4830:	10dbc4cf          	fnmadd.s	f9,f23,f13,f2,rmm
    41db4834:	0000                	.insn	2, 0x0000
    41db4836:	0000                	.insn	2, 0x0000
    41db4838:	10dbc8cf          	fnmadd.s	f17,f23,f13,f2,rmm
    41db483c:	0000                	.insn	2, 0x0000
    41db483e:	0000                	.insn	2, 0x0000
    41db4840:	10dbcccf          	fnmadd.s	f25,f23,f13,f2,rmm
    41db4844:	0000                	.insn	2, 0x0000
    41db4846:	0000                	.insn	2, 0x0000
    41db4848:	10dbd0cf          	fnmadd.s	f1,f23,f13,f2,unknown
    41db484c:	0000                	.insn	2, 0x0000
    41db484e:	0000                	.insn	2, 0x0000
    41db4850:	10dbd4cf          	fnmadd.s	f9,f23,f13,f2,unknown
    41db4854:	0000                	.insn	2, 0x0000
    41db4856:	0000                	.insn	2, 0x0000
    41db4858:	10dbd8cf          	fnmadd.s	f17,f23,f13,f2,unknown
    41db485c:	0000                	.insn	2, 0x0000
    41db485e:	0000                	.insn	2, 0x0000
    41db4860:	10dbdccf          	fnmadd.s	f25,f23,f13,f2,unknown
    41db4864:	0000                	.insn	2, 0x0000
    41db4866:	0000                	.insn	2, 0x0000
    41db4868:	10dbe0cf          	fnmadd.s	f1,f23,f13,f2,unknown
    41db486c:	0000                	.insn	2, 0x0000
    41db486e:	0000                	.insn	2, 0x0000
    41db4870:	10dbe4cf          	fnmadd.s	f9,f23,f13,f2,unknown
    41db4874:	0000                	.insn	2, 0x0000
    41db4876:	0000                	.insn	2, 0x0000
    41db4878:	10dbe8cf          	fnmadd.s	f17,f23,f13,f2,unknown
    41db487c:	0000                	.insn	2, 0x0000
    41db487e:	0000                	.insn	2, 0x0000
    41db4880:	10dbeccf          	fnmadd.s	f25,f23,f13,f2,unknown
    41db4884:	0000                	.insn	2, 0x0000
    41db4886:	0000                	.insn	2, 0x0000
    41db4888:	10dbf0cf          	fnmadd.s	f1,f23,f13,f2
    41db488c:	0000                	.insn	2, 0x0000
    41db488e:	0000                	.insn	2, 0x0000
    41db4890:	10dbf4cf          	fnmadd.s	f9,f23,f13,f2
    41db4894:	0000                	.insn	2, 0x0000
    41db4896:	0000                	.insn	2, 0x0000
    41db4898:	10dbf8cf          	fnmadd.s	f17,f23,f13,f2
    41db489c:	0000                	.insn	2, 0x0000
    41db489e:	0000                	.insn	2, 0x0000
    41db48a0:	10dbfccf          	fnmadd.s	f25,f23,f13,f2
    41db48a4:	0000                	.insn	2, 0x0000
    41db48a6:	0000                	.insn	2, 0x0000
    41db48a8:	00df 10dc 0000      	.insn	6, 0x10dc00df
    41db48ae:	0000                	.insn	2, 0x0000
    41db48b0:	04df 10dc 0000      	.insn	6, 0x10dc04df
    41db48b6:	0000                	.insn	2, 0x0000
    41db48b8:	08df 10dc 0000      	.insn	6, 0x10dc08df
    41db48be:	0000                	.insn	2, 0x0000
    41db48c0:	0cdf 10dc 0000      	.insn	6, 0x10dc0cdf
    41db48c6:	0000                	.insn	2, 0x0000
    41db48c8:	10df 10dc 0000      	.insn	6, 0x10dc10df
    41db48ce:	0000                	.insn	2, 0x0000
    41db48d0:	14df 10dc 0000      	.insn	6, 0x10dc14df
    41db48d6:	0000                	.insn	2, 0x0000
    41db48d8:	18df 10dc 0000      	.insn	6, 0x10dc18df
    41db48de:	0000                	.insn	2, 0x0000
    41db48e0:	1cdf 10dc 0000      	.insn	6, 0x10dc1cdf
    41db48e6:	0000                	.insn	2, 0x0000
    41db48e8:	20df 10dc 0000      	.insn	6, 0x10dc20df
    41db48ee:	0000                	.insn	2, 0x0000
    41db48f0:	24df 10dc 0000      	.insn	6, 0x10dc24df
    41db48f6:	0000                	.insn	2, 0x0000
    41db48f8:	28df 10dc 0000      	.insn	6, 0x10dc28df
    41db48fe:	0000                	.insn	2, 0x0000
    41db4900:	2cdf 10dc 0000      	.insn	6, 0x10dc2cdf
    41db4906:	0000                	.insn	2, 0x0000
    41db4908:	30df 10dc 0000      	.insn	6, 0x10dc30df
    41db490e:	0000                	.insn	2, 0x0000
    41db4910:	34df 10dc 0000      	.insn	6, 0x10dc34df
    41db4916:	0000                	.insn	2, 0x0000
    41db4918:	38df 10dc 0000      	.insn	6, 0x10dc38df
    41db491e:	0000                	.insn	2, 0x0000
    41db4920:	3cdf 10dc 0000      	.insn	6, 0x10dc3cdf
    41db4926:	0000                	.insn	2, 0x0000
    41db4928:	40df 10dc 0000      	.insn	6, 0x10dc40df
    41db492e:	0000                	.insn	2, 0x0000
    41db4930:	44df 10dc 0000      	.insn	6, 0x10dc44df
    41db4936:	0000                	.insn	2, 0x0000
    41db4938:	48df 10dc 0000      	.insn	6, 0x10dc48df
    41db493e:	0000                	.insn	2, 0x0000
    41db4940:	4cdf 10dc 0000      	.insn	6, 0x10dc4cdf
    41db4946:	0000                	.insn	2, 0x0000
    41db4948:	50df 10dc 0000      	.insn	6, 0x10dc50df
    41db494e:	0000                	.insn	2, 0x0000
    41db4950:	54df 10dc 0000      	.insn	6, 0x10dc54df
    41db4956:	0000                	.insn	2, 0x0000
    41db4958:	58df 10dc 0000      	.insn	6, 0x10dc58df
    41db495e:	0000                	.insn	2, 0x0000
    41db4960:	5cdf 10dc 0000      	.insn	6, 0x10dc5cdf
    41db4966:	0000                	.insn	2, 0x0000
    41db4968:	60df 10dc 0000      	.insn	6, 0x10dc60df
    41db496e:	0000                	.insn	2, 0x0000
    41db4970:	64df 10dc 0000      	.insn	6, 0x10dc64df
    41db4976:	0000                	.insn	2, 0x0000
    41db4978:	68df 10dc 0000      	.insn	6, 0x10dc68df
    41db497e:	0000                	.insn	2, 0x0000
    41db4980:	6cdf 10dc 0000      	.insn	6, 0x10dc6cdf
    41db4986:	0000                	.insn	2, 0x0000
    41db4988:	70df 10dc 0000      	.insn	6, 0x10dc70df
    41db498e:	0000                	.insn	2, 0x0000
    41db4990:	74df 10dc 0000      	.insn	6, 0x10dc74df
    41db4996:	0000                	.insn	2, 0x0000
    41db4998:	78df 10dc 0000      	.insn	6, 0x10dc78df
    41db499e:	0000                	.insn	2, 0x0000
    41db49a0:	7cdf 10dc 0000      	.insn	6, 0x10dc7cdf
    41db49a6:	0000                	.insn	2, 0x0000
    41db49a8:	80df 10dc 0000      	.insn	6, 0x10dc80df
    41db49ae:	0000                	.insn	2, 0x0000
    41db49b0:	84df 10dc 0000      	.insn	6, 0x10dc84df
    41db49b6:	0000                	.insn	2, 0x0000
    41db49b8:	88df 10dc 0000      	.insn	6, 0x10dc88df
    41db49be:	0000                	.insn	2, 0x0000
    41db49c0:	8cdf 10dc 0000      	.insn	6, 0x10dc8cdf
    41db49c6:	0000                	.insn	2, 0x0000
    41db49c8:	90df 10dc 0000      	.insn	6, 0x10dc90df
    41db49ce:	0000                	.insn	2, 0x0000
    41db49d0:	94df 10dc 0000      	.insn	6, 0x10dc94df
    41db49d6:	0000                	.insn	2, 0x0000
    41db49d8:	98df 10dc 0000      	.insn	6, 0x10dc98df
    41db49de:	0000                	.insn	2, 0x0000
    41db49e0:	9cdf 10dc 0000      	.insn	6, 0x10dc9cdf
    41db49e6:	0000                	.insn	2, 0x0000
    41db49e8:	a0df 10dc 0000      	.insn	6, 0x10dca0df
    41db49ee:	0000                	.insn	2, 0x0000
    41db49f0:	a4df 10dc 0000      	.insn	6, 0x10dca4df
    41db49f6:	0000                	.insn	2, 0x0000
    41db49f8:	a8df 10dc 0000      	.insn	6, 0x10dca8df
    41db49fe:	0000                	.insn	2, 0x0000
    41db4a00:	acdf 10dc 0000      	.insn	6, 0x10dcacdf
    41db4a06:	0000                	.insn	2, 0x0000
    41db4a08:	b0df 10dc 0000      	.insn	6, 0x10dcb0df
    41db4a0e:	0000                	.insn	2, 0x0000
    41db4a10:	b4df 10dc 0000      	.insn	6, 0x10dcb4df
    41db4a16:	0000                	.insn	2, 0x0000
    41db4a18:	b8df 10dc 0000      	.insn	6, 0x10dcb8df
    41db4a1e:	0000                	.insn	2, 0x0000
    41db4a20:	bcdf 10dc 0000      	.insn	6, 0x10dcbcdf
    41db4a26:	0000                	.insn	2, 0x0000
    41db4a28:	c0df 10dc 0000      	.insn	6, 0x10dcc0df
    41db4a2e:	0000                	.insn	2, 0x0000
    41db4a30:	c4df 10dc 0000      	.insn	6, 0x10dcc4df
    41db4a36:	0000                	.insn	2, 0x0000
    41db4a38:	c8df 10dc 0000      	.insn	6, 0x10dcc8df
    41db4a3e:	0000                	.insn	2, 0x0000
    41db4a40:	ccdf 10dc 0000      	.insn	6, 0x10dcccdf
    41db4a46:	0000                	.insn	2, 0x0000
    41db4a48:	d0df 10dc 0000      	.insn	6, 0x10dcd0df
    41db4a4e:	0000                	.insn	2, 0x0000
    41db4a50:	d4df 10dc 0000      	.insn	6, 0x10dcd4df
    41db4a56:	0000                	.insn	2, 0x0000
    41db4a58:	d8df 10dc 0000      	.insn	6, 0x10dcd8df
    41db4a5e:	0000                	.insn	2, 0x0000
    41db4a60:	dcdf 10dc 0000      	.insn	6, 0x10dcdcdf
    41db4a66:	0000                	.insn	2, 0x0000
    41db4a68:	e0df 10dc 0000      	.insn	6, 0x10dce0df
    41db4a6e:	0000                	.insn	2, 0x0000
    41db4a70:	e4df 10dc 0000      	.insn	6, 0x10dce4df
    41db4a76:	0000                	.insn	2, 0x0000
    41db4a78:	e8df 10dc 0000      	.insn	6, 0x10dce8df
    41db4a7e:	0000                	.insn	2, 0x0000
    41db4a80:	ecdf 10dc 0000      	.insn	6, 0x10dcecdf
    41db4a86:	0000                	.insn	2, 0x0000
    41db4a88:	f0df 10dc 0000      	.insn	6, 0x10dcf0df
    41db4a8e:	0000                	.insn	2, 0x0000
    41db4a90:	f4df 10dc 0000      	.insn	6, 0x10dcf4df
    41db4a96:	0000                	.insn	2, 0x0000
    41db4a98:	f8df 10dc 0000      	.insn	6, 0x10dcf8df
    41db4a9e:	0000                	.insn	2, 0x0000
    41db4aa0:	fcdf 10dc 0000      	.insn	6, 0x10dcfcdf
    41db4aa6:	0000                	.insn	2, 0x0000
    41db4aa8:	00df 10dd 0000      	.insn	6, 0x10dd00df
    41db4aae:	0000                	.insn	2, 0x0000
    41db4ab0:	04df 10dd 0000      	.insn	6, 0x10dd04df
    41db4ab6:	0000                	.insn	2, 0x0000
    41db4ab8:	08df 10dd 0000      	.insn	6, 0x10dd08df
    41db4abe:	0000                	.insn	2, 0x0000
    41db4ac0:	0cdf 10dd 0000      	.insn	6, 0x10dd0cdf
    41db4ac6:	0000                	.insn	2, 0x0000
    41db4ac8:	10df 10dd 0000      	.insn	6, 0x10dd10df
    41db4ace:	0000                	.insn	2, 0x0000
    41db4ad0:	14df 10dd 0000      	.insn	6, 0x10dd14df
    41db4ad6:	0000                	.insn	2, 0x0000
    41db4ad8:	18df 10dd 0000      	.insn	6, 0x10dd18df
    41db4ade:	0000                	.insn	2, 0x0000
    41db4ae0:	1cdf 10dd 0000      	.insn	6, 0x10dd1cdf
    41db4ae6:	0000                	.insn	2, 0x0000
    41db4ae8:	20df 10dd 0000      	.insn	6, 0x10dd20df
    41db4aee:	0000                	.insn	2, 0x0000
    41db4af0:	24df 10dd 0000      	.insn	6, 0x10dd24df
    41db4af6:	0000                	.insn	2, 0x0000
    41db4af8:	28df 10dd 0000      	.insn	6, 0x10dd28df
    41db4afe:	0000                	.insn	2, 0x0000
    41db4b00:	2cdf 10dd 0000      	.insn	6, 0x10dd2cdf
    41db4b06:	0000                	.insn	2, 0x0000
    41db4b08:	30df 10dd 0000      	.insn	6, 0x10dd30df
    41db4b0e:	0000                	.insn	2, 0x0000
    41db4b10:	34df 10dd 0000      	.insn	6, 0x10dd34df
    41db4b16:	0000                	.insn	2, 0x0000
    41db4b18:	38df 10dd 0000      	.insn	6, 0x10dd38df
    41db4b1e:	0000                	.insn	2, 0x0000
    41db4b20:	3cdf 10dd 0000      	.insn	6, 0x10dd3cdf
    41db4b26:	0000                	.insn	2, 0x0000
    41db4b28:	40df 10dd 0000      	.insn	6, 0x10dd40df
    41db4b2e:	0000                	.insn	2, 0x0000
    41db4b30:	44df 10dd 0000      	.insn	6, 0x10dd44df
    41db4b36:	0000                	.insn	2, 0x0000
    41db4b38:	48df 10dd 0000      	.insn	6, 0x10dd48df
    41db4b3e:	0000                	.insn	2, 0x0000
    41db4b40:	4cdf 10dd 0000      	.insn	6, 0x10dd4cdf
    41db4b46:	0000                	.insn	2, 0x0000
    41db4b48:	50df 10dd 0000      	.insn	6, 0x10dd50df
    41db4b4e:	0000                	.insn	2, 0x0000
    41db4b50:	54df 10dd 0000      	.insn	6, 0x10dd54df
    41db4b56:	0000                	.insn	2, 0x0000
    41db4b58:	58df 10dd 0000      	.insn	6, 0x10dd58df
    41db4b5e:	0000                	.insn	2, 0x0000
    41db4b60:	5cdf 10dd 0000      	.insn	6, 0x10dd5cdf
    41db4b66:	0000                	.insn	2, 0x0000
    41db4b68:	60df 10dd 0000      	.insn	6, 0x10dd60df
    41db4b6e:	0000                	.insn	2, 0x0000
    41db4b70:	64df 10dd 0000      	.insn	6, 0x10dd64df
    41db4b76:	0000                	.insn	2, 0x0000
    41db4b78:	68df 10dd 0000      	.insn	6, 0x10dd68df
    41db4b7e:	0000                	.insn	2, 0x0000
    41db4b80:	6cdf 10dd 0000      	.insn	6, 0x10dd6cdf
    41db4b86:	0000                	.insn	2, 0x0000
    41db4b88:	70df 10dd 0000      	.insn	6, 0x10dd70df
    41db4b8e:	0000                	.insn	2, 0x0000
    41db4b90:	74df 10dd 0000      	.insn	6, 0x10dd74df
    41db4b96:	0000                	.insn	2, 0x0000
    41db4b98:	78df 10dd 0000      	.insn	6, 0x10dd78df
    41db4b9e:	0000                	.insn	2, 0x0000
    41db4ba0:	7cdf 10dd 0000      	.insn	6, 0x10dd7cdf
    41db4ba6:	0000                	.insn	2, 0x0000
    41db4ba8:	80df 10dd 0000      	.insn	6, 0x10dd80df
    41db4bae:	0000                	.insn	2, 0x0000
    41db4bb0:	84df 10dd 0000      	.insn	6, 0x10dd84df
    41db4bb6:	0000                	.insn	2, 0x0000
    41db4bb8:	88df 10dd 0000      	.insn	6, 0x10dd88df
    41db4bbe:	0000                	.insn	2, 0x0000
    41db4bc0:	8cdf 10dd 0000      	.insn	6, 0x10dd8cdf
    41db4bc6:	0000                	.insn	2, 0x0000
    41db4bc8:	90df 10dd 0000      	.insn	6, 0x10dd90df
    41db4bce:	0000                	.insn	2, 0x0000
    41db4bd0:	94df 10dd 0000      	.insn	6, 0x10dd94df
    41db4bd6:	0000                	.insn	2, 0x0000
    41db4bd8:	98df 10dd 0000      	.insn	6, 0x10dd98df
    41db4bde:	0000                	.insn	2, 0x0000
    41db4be0:	9cdf 10dd 0000      	.insn	6, 0x10dd9cdf
    41db4be6:	0000                	.insn	2, 0x0000
    41db4be8:	a0df 10dd 0000      	.insn	6, 0x10dda0df
    41db4bee:	0000                	.insn	2, 0x0000
    41db4bf0:	a4df 10dd 0000      	.insn	6, 0x10dda4df
    41db4bf6:	0000                	.insn	2, 0x0000
    41db4bf8:	a8df 10dd 0000      	.insn	6, 0x10dda8df
    41db4bfe:	0000                	.insn	2, 0x0000
    41db4c00:	acdf 10dd 0000      	.insn	6, 0x10ddacdf
    41db4c06:	0000                	.insn	2, 0x0000
    41db4c08:	b0df 10dd 0000      	.insn	6, 0x10ddb0df
    41db4c0e:	0000                	.insn	2, 0x0000
    41db4c10:	b4df 10dd 0000      	.insn	6, 0x10ddb4df
    41db4c16:	0000                	.insn	2, 0x0000
    41db4c18:	b8df 10dd 0000      	.insn	6, 0x10ddb8df
    41db4c1e:	0000                	.insn	2, 0x0000
    41db4c20:	bcdf 10dd 0000      	.insn	6, 0x10ddbcdf
    41db4c26:	0000                	.insn	2, 0x0000
    41db4c28:	c0df 10dd 0000      	.insn	6, 0x10ddc0df
    41db4c2e:	0000                	.insn	2, 0x0000
    41db4c30:	c4df 10dd 0000      	.insn	6, 0x10ddc4df
    41db4c36:	0000                	.insn	2, 0x0000
    41db4c38:	c8df 10dd 0000      	.insn	6, 0x10ddc8df
    41db4c3e:	0000                	.insn	2, 0x0000
    41db4c40:	ccdf 10dd 0000      	.insn	6, 0x10ddccdf
    41db4c46:	0000                	.insn	2, 0x0000
    41db4c48:	d0df 10dd 0000      	.insn	6, 0x10ddd0df
    41db4c4e:	0000                	.insn	2, 0x0000
    41db4c50:	d4df 10dd 0000      	.insn	6, 0x10ddd4df
    41db4c56:	0000                	.insn	2, 0x0000
    41db4c58:	d8df 10dd 0000      	.insn	6, 0x10ddd8df
    41db4c5e:	0000                	.insn	2, 0x0000
    41db4c60:	dcdf 10dd 0000      	.insn	6, 0x10dddcdf
    41db4c66:	0000                	.insn	2, 0x0000
    41db4c68:	e0df 10dd 0000      	.insn	6, 0x10dde0df
    41db4c6e:	0000                	.insn	2, 0x0000
    41db4c70:	e4df 10dd 0000      	.insn	6, 0x10dde4df
    41db4c76:	0000                	.insn	2, 0x0000
    41db4c78:	e8df 10dd 0000      	.insn	6, 0x10dde8df
    41db4c7e:	0000                	.insn	2, 0x0000
    41db4c80:	ecdf 10dd 0000      	.insn	6, 0x10ddecdf
    41db4c86:	0000                	.insn	2, 0x0000
    41db4c88:	f0df 10dd 0000      	.insn	6, 0x10ddf0df
    41db4c8e:	0000                	.insn	2, 0x0000
    41db4c90:	f4df 10dd 0000      	.insn	6, 0x10ddf4df
    41db4c96:	0000                	.insn	2, 0x0000
    41db4c98:	f8df 10dd 0000      	.insn	6, 0x10ddf8df
    41db4c9e:	0000                	.insn	2, 0x0000
    41db4ca0:	fcdf 10dd 0000      	.insn	6, 0x10ddfcdf
	...

Disassembly of section .__pagetable_map_os_0x0000000041fa9000:

0000000041fa9000 <__pagetable_map_os_0x0000000041fa9000>:
	...
    41fa90b0:	10e004cf          	fnmadd.s	f9,f0,f14,f2,rne
    41fa90b4:	0000                	.insn	2, 0x0000
	...

Disassembly of section .__pagetable_map_os_0x0000000042f1c000:

0000000042f1c000 <__pagetable_map_os_0x0000000042f1c000>:
	...
    42f1c220:	70df 10c2 0000      	.insn	6, 0x10c270df
	...

Disassembly of section .__pagetable_map_os_0x0000000042c03000:

0000000042c03000 <__pagetable_map_os_0x0000000042c03000>:
	...
    42c03630:	18df 1113 0000      	.insn	6, 0x111318df
	...

Disassembly of section .__pagetable_map_os_0x00000000430a2000:

00000000430a2000 <__pagetable_map_os_0x00000000430a2000>:
	...
    430a2880:	10b654d7          	vfmin.vf	v9,v11,f12,v0.t
    430a2884:	0000                	.insn	2, 0x0000
	...

Disassembly of section .__pagetable_map_os_0x0000000042e75000:

0000000042e75000 <__pagetable_map_os_0x0000000042e75000>:
    42e75000:	0801                	.insn	2, 0x0801
    42e75002:	10e0                	.insn	2, 0x10e0
	...
    42e75018:	fc01                	.insn	2, 0xfc01
    42e7501a:	000010d7          	vfadd.vv	v1,v0,v0,v0.t
    42e7501e:	0000                	.insn	2, 0x0000
    42e75020:	d001                	.insn	2, 0xd001
    42e75022:	1122                	.insn	2, 0x1122
	...
    42e75040:	cc01                	.insn	2, 0xcc01
    42e75042:	10c2                	.insn	2, 0x10c2
	...
    42e75050:	5801                	.insn	2, 0x5801
    42e75052:	10c0                	.insn	2, 0x10c0
	...
    42e751a0:	ac01                	.insn	2, 0xac01
    42e751a2:	000010bb          	sllw	x1,x0,x0
	...
    42e751f6:	0000                	.insn	2, 0x0000
    42e751f8:	c401                	.insn	2, 0xc401
    42e751fa:	10be                	.insn	2, 0x10be
	...
    42e75240:	b001                	.insn	2, 0xb001
    42e75242:	10be                	.insn	2, 0x10be
	...
    42e75be0:	d801                	.insn	2, 0xd801
    42e75be2:	000010d7          	vfadd.vv	v1,v0,v0,v0.t
	...
    42e75d76:	0000                	.insn	2, 0x0000
    42e75d78:	e001                	.insn	2, 0xe001
    42e75d7a:	000010d7          	vfadd.vv	v1,v0,v0,v0.t
	...

Disassembly of section .__pagetable_map_os_0x00000000430b3000:

00000000430b3000 <__pagetable_map_os_0x00000000430b3000>:
	...
    430b3330:	20df 10bb 0000      	.insn	6, 0x10bb20df
    430b3336:	0000                	.insn	2, 0x0000
    430b3338:	24df 10bb 0000      	.insn	6, 0x10bb24df
	...

Disassembly of section .__pagetable_map_os_0x0000000042eeb000:

0000000042eeb000 <__pagetable_map_os_0x0000000042eeb000>:
	...
    42eebe70:	a8df 10a5 0000      	.insn	6, 0x10a5a8df
    42eebe76:	0000                	.insn	2, 0x0000
    42eebe78:	acdf 10a5 0000      	.insn	6, 0x10a5acdf
	...

Disassembly of section .__pagetable_map_os_0x0000000043802000:

0000000043802000 <__pagetable_map_os_0x0000000043802000>:
	...
    43802010:	10d1c8d7          	vminu.vx	v17,v13,x3,v0.t
	...
    438020c8:	1078a4d7          	vredminu.vs	v9,v7,v17,v0.t
	...
    438020e8:	10d1c4d7          	vminu.vx	v9,v13,x3,v0.t
	...
    43802278:	1125f8d7          	vsetvli	x17,x11,274
	...
    43802360:	10d5fcd7          	vsetvli	x25,x11,269
	...
    43802508:	10bc94d7          	vfmin.vv	v9,v11,v25,v0.t
	...
    43802658:	10c698d7          	vfmin.vv	v17,v12,v13,v0.t
	...
    43802810:	10cd60d7          	.insn	4, 0x10cd60d7
	...
    438028b0:	10b010d7          	vfmin.vv	v1,v11,v0,v0.t
	...
    438028e8:	b4df 1126 0000      	.insn	6, 0x1126b4df
	...

Disassembly of section .__pagetable_map_os_0x00000000435ff000:

00000000435ff000 <__pagetable_map_os_0x00000000435ff000>:
	...
    435fff80:	11257cd7          	vsetvli	x25,x10,274
    435fff84:	0000                	.insn	2, 0x0000
	...

Disassembly of section .__pagetable_map_os_0x00000000448b4000:

00000000448b4000 <__pagetable_map_os_0x00000000448b4000>:
	...
    448b4218:	112224d7          	vredminu.vs	v9,v18,v4,v0.t
    448b421c:	0000                	.insn	2, 0x0000
	...

Disassembly of section .__pagetable_map_os_0x0000000042fb1000:

0000000042fb1000 <__pagetable_map_os_0x0000000042fb1000>:
	...
    42fb1280:	105ba8d7          	vredminu.vs	v17,v5,v23,v0.t
    42fb1284:	0000                	.insn	2, 0x0000
	...

Disassembly of section .__pagetable_map_os_0x00000000435f8000:

00000000435f8000 <__pagetable_map_os_0x00000000435f8000>:
	...
    435f8ff0:	10c508d7          	vminu.vv	v17,v12,v10,v0.t
    435f8ff4:	0000                	.insn	2, 0x0000
	...

Disassembly of section .__pagetable_map_os_0x0000000042fac000:

0000000042fac000 <__pagetable_map_os_0x0000000042fac000>:
	...
    42fac360:	10d5c8d7          	vminu.vx	v17,v13,x11,v0.t
    42fac364:	0000                	.insn	2, 0x0000
	...

Disassembly of section .__pagetable_map_os_0x0000000043016000:

0000000043016000 <__pagetable_map_os_0x0000000043016000>:
	...
    43016d38:	106df4d7          	vsetvli	x9,x27,262
    43016d3c:	0000                	.insn	2, 0x0000
	...

Disassembly of section .__pagetable_map_os_0x00000000435f6000:

00000000435f6000 <__pagetable_map_os_0x00000000435f6000>:
	...
    435f6410:	111904d7          	vminu.vv	v9,v17,v18,v0.t
    435f6414:	0000                	.insn	2, 0x0000
	...

Disassembly of section .__pagetable_map_os_0x0000000044a1c000:

0000000044a1c000 <__pagetable_map_os_0x0000000044a1c000>:
	...
    44a1c0c8:	b801                	.insn	2, 0xb801
    44a1c0ca:	10c2                	.insn	2, 0x10c2
    44a1c0cc:	0000                	.insn	2, 0x0000
	...

Disassembly of section .__pagetable_map_os_0x00000000430ae000:

00000000430ae000 <__pagetable_map_os_0x00000000430ae000>:
	...
    430aec50:	10d054d7          	vfmin.vf	v9,v13,f0,v0.t
    430aec54:	0000                	.insn	2, 0x0000
	...

Disassembly of section .__pagetable_map_os_0x0000000044a02000:

0000000044a02000 <__pagetable_map_os_0x0000000044a02000>:
	...
    44a02ae0:	e401                	.insn	2, 0xe401
    44a02ae2:	000010d7          	vfadd.vv	v1,v0,v0,v0.t
	...

Disassembly of section .__pagetable_map_os_0x00000000435f9000:

00000000435f9000 <__pagetable_map_os_0x00000000435f9000>:
	...
    435f9a80:	1059a4d7          	vredminu.vs	v9,v5,v19,v0.t
    435f9a84:	0000                	.insn	2, 0x0000
	...

Disassembly of section .__pagetable_map_os_0x0000000044679000:

0000000044679000 <__pagetable_map_os_0x0000000044679000>:
	...
    44679170:	d401                	.insn	2, 0xd401
    44679172:	000010d7          	vfadd.vv	v1,v0,v0,v0.t
	...

Disassembly of section .__pagetable_map_os_0x00000000435f5000:

00000000435f5000 <__pagetable_map_os_0x00000000435f5000>:
	...
    435f5478:	10a710d7          	vfmin.vv	v1,v10,v14,v0.t
    435f547c:	0000                	.insn	2, 0x0000
	...

Disassembly of section .__pagetable_map_os_0x000000004150c000:

000000004150c000 <__pagetable_map_os_0x000000004150c000>:
	...
    4150cc60:	e801                	.insn	2, 0xe801
    4150cc62:	10c6                	.insn	2, 0x10c6
    4150cc64:	0000                	.insn	2, 0x0000
	...

Disassembly of section .__pagetable_map_os_0x00000000431ba000:

00000000431ba000 <__pagetable_map_os_0x00000000431ba000>:
	...
    431ba8b0:	112b14d7          	vfmin.vv	v9,v18,v22,v0.t
    431ba8b4:	0000                	.insn	2, 0x0000
	...

Disassembly of section .__pagetable_map_os_0x00000000435d3000:

00000000435d3000 <__pagetable_map_os_0x00000000435d3000>:
	...
    435d3770:	e001                	.insn	2, 0xe001
    435d3772:	1119                	.insn	2, 0x1119
    435d3774:	0000                	.insn	2, 0x0000
	...

Disassembly of section .__pagetable_map_os_0x0000000044678000:

0000000044678000 <__pagetable_map_os_0x0000000044678000>:
	...
    446786e0:	111b3cd7          	.insn	4, 0x111b3cd7
    446786e4:	0000                	.insn	2, 0x0000
	...

Disassembly of section .__pagetable_map_os_0x000000004487c000:

000000004487c000 <__pagetable_map_os_0x000000004487c000>:
	...
    4487c3a0:	e401                	.insn	2, 0xe401
    4487c3a2:	000010af          	.insn	4, 0x10af
	...

Disassembly of section .__pagetable_map_os_0x0000000042bf9000:

0000000042bf9000 <__pagetable_map_os_0x0000000042bf9000>:
	...
    42bf9cc0:	10c368d7          	.insn	4, 0x10c368d7
    42bf9cc4:	0000                	.insn	2, 0x0000
	...

Disassembly of section .__pagetable_map_os_0x000000004332c000:

000000004332c000 <__pagetable_map_os_0x000000004332c000>:
	...
    4332c7d8:	c401                	.insn	2, 0xc401
    4332c7da:	10cc                	.insn	2, 0x10cc
    4332c7dc:	0000                	.insn	2, 0x0000
	...

Disassembly of section .__pagetable_map_os_0x0000000043331000:

0000000043331000 <__pagetable_map_os_0x0000000043331000>:
	...
    43331d18:	f401                	.insn	2, 0xf401
    43331d1a:	10bc                	.insn	2, 0x10bc
    43331d1c:	0000                	.insn	2, 0x0000
	...

Disassembly of section .__pagetable_map_os_0x0000000042f3d000:

0000000042f3d000 <__pagetable_map_os_0x0000000042f3d000>:
	...
    42f3d4d8:	10a9ecd7          	.insn	4, 0x10a9ecd7
    42f3d4dc:	0000                	.insn	2, 0x0000
	...

Disassembly of section .__pagetable_map_os_0x0000000043370000:

0000000043370000 <__pagetable_map_os_0x0000000043370000>:
	...
    43370d28:	5401                	.insn	2, 0x5401
    43370d2a:	111a                	.insn	2, 0x111a
    43370d2c:	0000                	.insn	2, 0x0000
	...

Disassembly of section .__pagetable_map_os_0x0000000044695000:

0000000044695000 <__pagetable_map_os_0x0000000044695000>:
	...
    44695670:	6401                	.insn	2, 0x6401
    44695672:	10cd                	.insn	2, 0x10cd
    44695674:	0000                	.insn	2, 0x0000
	...

Disassembly of section .__pagetable_map_os_0x0000000043359000:

0000000043359000 <__pagetable_map_os_0x0000000043359000>:
	...
    43359be8:	10bce0d7          	.insn	4, 0x10bce0d7
    43359bec:	0000                	.insn	2, 0x0000
	...

Disassembly of section .__pagetable_map_os_0x00000000435fb000:

00000000435fb000 <__pagetable_map_os_0x00000000435fb000>:
	...
    435fbe38:	e401                	.insn	2, 0xe401
    435fbe3a:	10ca                	.insn	2, 0x10ca
    435fbe3c:	0000                	.insn	2, 0x0000
	...

Disassembly of section .__pagetable_map_os_0x00000000432b9000:

00000000432b9000 <__pagetable_map_os_0x00000000432b9000>:
	...
    432b91b8:	0801                	.insn	2, 0x0801
    432b91ba:	1114                	.insn	2, 0x1114
    432b91bc:	0000                	.insn	2, 0x0000
	...

Disassembly of section .__pagetable_map_os_0x0000000044502000:

0000000044502000 <__pagetable_map_os_0x0000000044502000>:
	...
    445023f8:	10c694d7          	vfmin.vv	v9,v12,v13,v0.t
    445023fc:	0000                	.insn	2, 0x0000
	...

Disassembly of section .__pagetable_map_os_0x00000000430a9000:

00000000430a9000 <__pagetable_map_os_0x00000000430a9000>:
	...
    430a9f30:	3c01                	.insn	2, 0x3c01
    430a9f32:	1128                	.insn	2, 0x1128
    430a9f34:	0000                	.insn	2, 0x0000
	...

Disassembly of section .__pagetable_map_os_0x0000000044a0f000:

0000000044a0f000 <__pagetable_map_os_0x0000000044a0f000>:
	...
    44a0fa90:	4801                	.insn	2, 0x4801
    44a0fa92:	10ce                	.insn	2, 0x10ce
    44a0fa94:	0000                	.insn	2, 0x0000
	...

Disassembly of section .__pagetable_map_os_0x0000000043392000:

0000000043392000 <__pagetable_map_os_0x0000000043392000>:
	...
    43392518:	10bd04d7          	vminu.vv	v9,v11,v26,v0.t
    4339251c:	0000                	.insn	2, 0x0000
	...

Disassembly of section .__pagetable_map_os_0x00000000435ea000:

00000000435ea000 <__pagetable_map_os_0x00000000435ea000>:
	...
    435ea650:	fc01                	.insn	2, 0xfc01
    435ea652:	1118                	.insn	2, 0x1118
    435ea654:	0000                	.insn	2, 0x0000
	...

Disassembly of section .__pagetable_map_os_0x000000004463f000:

000000004463f000 <__pagetable_map_os_0x000000004463f000>:
	...
    4463f3d0:	c001                	.insn	2, 0xc001
    4463f3d2:	10c6                	.insn	2, 0x10c6
    4463f3d4:	0000                	.insn	2, 0x0000
	...

Disassembly of section .__pagetable_map_os_0x00000000431b0000:

00000000431b0000 <__pagetable_map_os_0x00000000431b0000>:
	...
    431b00f8:	1089dcd7          	vfmin.vf	v25,v8,f19,v0.t
    431b00fc:	0000                	.insn	2, 0x0000
	...

Disassembly of section .__pagetable_map_os_0x000000004333b000:

000000004333b000 <__pagetable_map_os_0x000000004333b000>:
	...
    4333bb78:	c001                	.insn	2, 0xc001
    4333bb7a:	1125                	.insn	2, 0x1125
    4333bb7c:	0000                	.insn	2, 0x0000
	...

Disassembly of section .__pagetable_map_os_0x0000000044970000:

0000000044970000 <__pagetable_map_os_0x0000000044970000>:
	...
    44970240:	3001                	.insn	2, 0x3001
    44970242:	000010d7          	vfadd.vv	v1,v0,v0,v0.t
	...

Disassembly of section .__pagetable_map_os_0x00000000435cc000:

00000000435cc000 <__pagetable_map_os_0x00000000435cc000>:
	...
    435cca10:	e001                	.insn	2, 0xe001
    435cca12:	000010af          	.insn	4, 0x10af
	...

Disassembly of section .__pagetable_map_os_0x0000000042bf8000:

0000000042bf8000 <__pagetable_map_os_0x0000000042bf8000>:
	...
    42bf89d8:	10d7bcd7          	.insn	4, 0x10d7bcd7
	...
    42bf89e8:	10bd2cd7          	vredminu.vs	v25,v11,v26,v0.t
    42bf89ec:	0000                	.insn	2, 0x0000
	...

Disassembly of section .__pagetable_map_os_0x0000000042c01000:

0000000042c01000 <__pagetable_map_os_0x0000000042c01000>:
	...
    42c01e38:	6001                	.insn	2, 0x6001
    42c01e3a:	10ca                	.insn	2, 0x10ca
    42c01e3c:	0000                	.insn	2, 0x0000
	...

Disassembly of section .__pagetable_map_os_0x0000000043298000:

0000000043298000 <__pagetable_map_os_0x0000000043298000>:
	...
    43298d88:	5001                	.insn	2, 0x5001
    43298d8a:	10ce                	.insn	2, 0x10ce
    43298d8c:	0000                	.insn	2, 0x0000
	...

Disassembly of section .__pagetable_map_os_0x0000000043394000:

0000000043394000 <__pagetable_map_os_0x0000000043394000>:
	...
    433940f0:	9c01                	.insn	2, 0x9c01
    433940f2:	10c6                	.insn	2, 0x10c6
    433940f4:	0000                	.insn	2, 0x0000
	...

Disassembly of section .__pagetable_map_os_0x00000000431a7000:

00000000431a7000 <__pagetable_map_os_0x00000000431a7000>:
	...
    431a78e8:	10a828d7          	vredminu.vs	v17,v10,v16,v0.t
    431a78ec:	0000                	.insn	2, 0x0000
	...

Disassembly of section .__pagetable_map_os_0x0000000042c02000:

0000000042c02000 <__pagetable_map_os_0x0000000042c02000>:
	...
    42c02d78:	e401                	.insn	2, 0xe401
    42c02d7a:	1121                	.insn	2, 0x1121
    42c02d7c:	0000                	.insn	2, 0x0000
	...

Disassembly of section .__pagetable_map_os_0x0000000044879000:

0000000044879000 <__pagetable_map_os_0x0000000044879000>:
	...
    448791c0:	1401                	.insn	2, 0x1401
    448791c2:	10bd                	.insn	2, 0x10bd
    448791c4:	0000                	.insn	2, 0x0000
	...

Disassembly of section .__pagetable_map_os_0x0000000042f45000:

0000000042f45000 <__pagetable_map_os_0x0000000042f45000>:
	...
    42f451b0:	4401                	.insn	2, 0x4401
    42f451b2:	10ce                	.insn	2, 0x10ce
    42f451b4:	0000                	.insn	2, 0x0000
	...

Disassembly of section .__pagetable_map_os_0x0000000043391000:

0000000043391000 <__pagetable_map_os_0x0000000043391000>:
	...
    43391068:	112618d7          	vfmin.vv	v17,v18,v12,v0.t
    4339106c:	0000                	.insn	2, 0x0000
	...

Disassembly of section .__pagetable_map_os_0x00000000415fe000:

00000000415fe000 <__pagetable_map_os_0x00000000415fe000>:
	...
    415fe4a8:	3c01                	.insn	2, 0x3c01
    415fe4aa:	1118                	.insn	2, 0x1118
    415fe4ac:	0000                	.insn	2, 0x0000
	...

Disassembly of section .__pagetable_map_os_0x000000004460f000:

000000004460f000 <__pagetable_map_os_0x000000004460f000>:
	...
    4460f818:	bc01                	.insn	2, 0xbc01
    4460f81a:	10b6                	.insn	2, 0x10b6
    4460f81c:	0000                	.insn	2, 0x0000
	...

Disassembly of section .__pagetable_map_os_0x0000000042daf000:

0000000042daf000 <__pagetable_map_os_0x0000000042daf000>:
	...
    42dafc48:	3001                	.insn	2, 0x3001
    42dafc4a:	10cd                	.insn	2, 0x10cd
    42dafc4c:	0000                	.insn	2, 0x0000
	...

Disassembly of section .__pagetable_map_os_0x000000004334c000:

000000004334c000 <__pagetable_map_os_0x000000004334c000>:
	...
    4334c5f8:	10bbecd7          	.insn	4, 0x10bbecd7
    4334c5fc:	0000                	.insn	2, 0x0000
	...

Disassembly of section .__pagetable_map_os_0x0000000042efc000:

0000000042efc000 <__pagetable_map_os_0x0000000042efc000>:
	...
    42efc9b0:	1c01                	.insn	2, 0x1c01
    42efc9b2:	0000000010bf 	.6byte	0x0000000010bf

Disassembly of section .__pagetable_map_os_0x0000000042fc7000:

0000000042fc7000 <__pagetable_map_os_0x0000000042fc7000>:
	...
    42fc7738:	9401                	.insn	2, 0x9401
    42fc773a:	000010d7          	vfadd.vv	v1,v0,v0,v0.t
	...

Disassembly of section .__pagetable_map_os_0x00000000435e5000:

00000000435e5000 <__pagetable_map_os_0x00000000435e5000>:
	...
    435e5cf8:	0c01                	.insn	2, 0x0c01
    435e5cfa:	0000000010bf 	.6byte	0x0000000010bf

Disassembly of section .__pagetable_map_os_0x0000000042fc3000:

0000000042fc3000 <__pagetable_map_os_0x0000000042fc3000>:
	...
    42fc37f8:	10bd30d7          	.insn	4, 0x10bd30d7
    42fc37fc:	0000                	.insn	2, 0x0000
	...

Disassembly of section .__pagetable_map_os_0x0000000044ab6000:

0000000044ab6000 <__pagetable_map_os_0x0000000044ab6000>:
	...
    44ab6f40:	b801                	.insn	2, 0xb801
    44ab6f42:	10be                	.insn	2, 0x10be
    44ab6f44:	0000                	.insn	2, 0x0000
	...

Disassembly of section .__pagetable_map_os_0x0000000042fae000:

0000000042fae000 <__pagetable_map_os_0x0000000042fae000>:
	...
    42fae070:	2c01                	.insn	2, 0x2c01
    42fae072:	1126                	.insn	2, 0x1126
    42fae074:	0000                	.insn	2, 0x0000
	...

Disassembly of section .__pagetable_map_os_0x000000004498b000:

000000004498b000 <__pagetable_map_os_0x000000004498b000>:
	...
    4498bfd8:	3801                	.insn	2, 0x3801
    4498bfda:	000010d7          	vfadd.vv	v1,v0,v0,v0.t
	...

Disassembly of section .__pagetable_map_os_0x00000000435ce000:

00000000435ce000 <__pagetable_map_os_0x00000000435ce000>:
	...
    435ce798:	10f454d7          	vfmin.vf	v9,v15,f8,v0.t
    435ce79c:	0000                	.insn	2, 0x0000
	...

Disassembly of section .riscv.attributes:

0000000000000000 <.riscv.attributes>:
   0:	1841                	.insn	2, 0x1841
   2:	0002                	.insn	2, 0x0002
   4:	7200                	.insn	2, 0x7200
   6:	7369                	.insn	2, 0x7369
   8:	01007663          	bgeu	x0,x16,14 <INSTRUCTION_GUEST_PAGE_FAULT>
   c:	020e                	.insn	2, 0x020e
   e:	0000                	.insn	2, 0x0000
  10:	7205                	.insn	2, 0x7205
  12:	3676                	.insn	2, 0x3676
  14:	6934                	.insn	2, 0x6934
  16:	7032                	.insn	2, 0x7032
  18:	5f31                	.insn	2, 0x5f31
  1a:	326d                	.insn	2, 0x326d
  1c:	3070                	.insn	2, 0x3070
  1e:	615f 7032 5f31      	.insn	6, 0x5f317032615f
  24:	3266                	.insn	2, 0x3266
  26:	3270                	.insn	2, 0x3270
  28:	645f 7032 5f32      	.insn	6, 0x5f327032645f
  2e:	30703263          	.insn	4, 0x30703263
  32:	625f 7031 5f30      	.insn	6, 0x5f307031625f
  38:	3176                	.insn	2, 0x3176
  3a:	3070                	.insn	2, 0x3070
  3c:	685f 7031 5f30      	.insn	6, 0x5f307031685f
  42:	697a                	.insn	2, 0x697a
  44:	6d6f6263          	bltu	x30,x22,708 <XLEN+0x6c8>
  48:	7031                	.insn	2, 0x7031
  4a:	5f30                	.insn	2, 0x5f30
  4c:	697a                	.insn	2, 0x697a
  4e:	706f6263          	bltu	x30,x6,752 <XLEN+0x712>
  52:	7031                	.insn	2, 0x7031
  54:	5f30                	.insn	2, 0x5f30
  56:	697a                	.insn	2, 0x697a
  58:	7a6f6263          	bltu	x30,x6,7fc <XLEN+0x7bc>
  5c:	7031                	.insn	2, 0x7031
  5e:	5f30                	.insn	2, 0x5f30
  60:	697a                	.insn	2, 0x697a
  62:	646e6f63          	bltu	x28,x6,6c0 <XLEN+0x680>
  66:	7031                	.insn	2, 0x7031
  68:	5f30                	.insn	2, 0x5f30
  6a:	697a                	.insn	2, 0x697a
  6c:	32727363          	bgeu	x4,x7,392 <XLEN+0x352>
  70:	3070                	.insn	2, 0x3070
  72:	7a5f 6669 6e65      	.insn	6, 0x6e6566697a5f
  78:	32696563          	bltu	x18,x6,3a2 <XLEN+0x362>
  7c:	3070                	.insn	2, 0x3070
  7e:	7a5f 6869 6e69      	.insn	6, 0x6e6968697a5f
  84:	7074                	.insn	2, 0x7074
  86:	7561                	.insn	2, 0x7561
  88:	70326573          	csrrsi	x10,0x703,4
  8c:	5f30                	.insn	2, 0x5f30
  8e:	6d7a                	.insn	2, 0x6d7a
  90:	756d                	.insn	2, 0x756d
  92:	316c                	.insn	2, 0x316c
  94:	3070                	.insn	2, 0x3070
  96:	7a5f 6161 6f6d      	.insn	6, 0x6f6d61617a5f
  9c:	7031                	.insn	2, 0x7031
  9e:	5f30                	.insn	2, 0x5f30
  a0:	617a                	.insn	2, 0x617a
  a2:	726c                	.insn	2, 0x726c
  a4:	70316373          	csrrsi	x6,0x703,2
  a8:	5f30                	.insn	2, 0x5f30
  aa:	617a                	.insn	2, 0x617a
  ac:	31737277          	.insn	4, 0x31737277
  b0:	3070                	.insn	2, 0x3070
  b2:	7a5f 6166 7031      	.insn	6, 0x703161667a5f
  b8:	5f30                	.insn	2, 0x5f30
  ba:	667a                	.insn	2, 0x667a
  bc:	6662                	.insn	2, 0x6662
  be:	696d                	.insn	2, 0x696d
  c0:	316e                	.insn	2, 0x316e
  c2:	3070                	.insn	2, 0x3070
  c4:	7a5f 6866 7031      	.insn	6, 0x703168667a5f
  ca:	5f30                	.insn	2, 0x5f30
  cc:	667a                	.insn	2, 0x667a
  ce:	6d68                	.insn	2, 0x6d68
  d0:	6e69                	.insn	2, 0x6e69
  d2:	7031                	.insn	2, 0x7031
  d4:	5f30                	.insn	2, 0x5f30
  d6:	637a                	.insn	2, 0x637a
  d8:	3161                	.insn	2, 0x3161
  da:	3070                	.insn	2, 0x3070
  dc:	7a5f 6463 7031      	.insn	6, 0x703164637a5f
  e2:	5f30                	.insn	2, 0x5f30
  e4:	627a                	.insn	2, 0x627a
  e6:	3161                	.insn	2, 0x3161
  e8:	3070                	.insn	2, 0x3070
  ea:	7a5f 6262 7031      	.insn	6, 0x703162627a5f
  f0:	5f30                	.insn	2, 0x5f30
  f2:	627a                	.insn	2, 0x627a
  f4:	30703163          	.insn	4, 0x30703163
  f8:	7a5f 6b62 3162      	.insn	6, 0x31626b627a5f
  fe:	3070                	.insn	2, 0x3070
 100:	7a5f 6b62 3163      	.insn	6, 0x31636b627a5f
 106:	3070                	.insn	2, 0x3070
 108:	7a5f 6b62 3178      	.insn	6, 0x31786b627a5f
 10e:	3070                	.insn	2, 0x3070
 110:	7a5f 7362 7031      	.insn	6, 0x703173627a5f
 116:	5f30                	.insn	2, 0x5f30
 118:	6b7a                	.insn	2, 0x6b7a
 11a:	7031                	.insn	2, 0x7031
 11c:	5f30                	.insn	2, 0x5f30
 11e:	6b7a                	.insn	2, 0x6b7a
 120:	316e                	.insn	2, 0x316e
 122:	3070                	.insn	2, 0x3070
 124:	7a5f 6e6b 3164      	.insn	6, 0x31646e6b7a5f
 12a:	3070                	.insn	2, 0x3070
 12c:	7a5f 6e6b 3165      	.insn	6, 0x31656e6b7a5f
 132:	3070                	.insn	2, 0x3070
 134:	7a5f 6e6b 3168      	.insn	6, 0x31686e6b7a5f
 13a:	3070                	.insn	2, 0x3070
 13c:	7a5f 726b 7031      	.insn	6, 0x7031726b7a5f
 142:	5f30                	.insn	2, 0x5f30
 144:	6b7a                	.insn	2, 0x6b7a
 146:	3174                	.insn	2, 0x3174
 148:	3070                	.insn	2, 0x3070
 14a:	7a5f 6276 3162      	.insn	6, 0x316262767a5f
 150:	3070                	.insn	2, 0x3070
 152:	7a5f 6276 3163      	.insn	6, 0x316362767a5f
 158:	3070                	.insn	2, 0x3070
 15a:	7a5f 6576 3233      	.insn	6, 0x323365767a5f
 160:	3166                	.insn	2, 0x3166
 162:	3070                	.insn	2, 0x3070
 164:	7a5f 6576 3233      	.insn	6, 0x323365767a5f
 16a:	3178                	.insn	2, 0x3178
 16c:	3070                	.insn	2, 0x3070
 16e:	7a5f 6576 3436      	.insn	6, 0x343665767a5f
 174:	3164                	.insn	2, 0x3164
 176:	3070                	.insn	2, 0x3070
 178:	7a5f 6576 3436      	.insn	6, 0x343665767a5f
 17e:	3166                	.insn	2, 0x3166
 180:	3070                	.insn	2, 0x3070
 182:	7a5f 6576 3436      	.insn	6, 0x343665767a5f
 188:	3178                	.insn	2, 0x3178
 18a:	3070                	.insn	2, 0x3070
 18c:	7a5f 6676 6662      	.insn	6, 0x666266767a5f
 192:	696d                	.insn	2, 0x696d
 194:	316e                	.insn	2, 0x316e
 196:	3070                	.insn	2, 0x3070
 198:	7a5f 6676 6662      	.insn	6, 0x666266767a5f
 19e:	31616d77          	.insn	4, 0x31616d77
 1a2:	3070                	.insn	2, 0x3070
 1a4:	7a5f 6b76 3162      	.insn	6, 0x31626b767a5f
 1aa:	3070                	.insn	2, 0x3070
 1ac:	7a5f 6b76 3167      	.insn	6, 0x31676b767a5f
 1b2:	3070                	.insn	2, 0x3070
 1b4:	7a5f 6b76 316e      	.insn	6, 0x316e6b767a5f
 1ba:	3070                	.insn	2, 0x3070
 1bc:	7a5f 6b76 636e      	.insn	6, 0x636e6b767a5f
 1c2:	7031                	.insn	2, 0x7031
 1c4:	5f30                	.insn	2, 0x5f30
 1c6:	767a                	.insn	2, 0x767a
 1c8:	64656e6b          	.insn	4, 0x64656e6b
 1cc:	7031                	.insn	2, 0x7031
 1ce:	5f30                	.insn	2, 0x5f30
 1d0:	767a                	.insn	2, 0x767a
 1d2:	31676e6b          	.insn	4, 0x31676e6b
 1d6:	3070                	.insn	2, 0x3070
 1d8:	7a5f 6b76 686e      	.insn	6, 0x686e6b767a5f
 1de:	3162                	.insn	2, 0x3162
 1e0:	3070                	.insn	2, 0x3070
 1e2:	7a5f 6b76 3174      	.insn	6, 0x31746b767a5f
 1e8:	3070                	.insn	2, 0x3070
 1ea:	7a5f 6c76 3231      	.insn	6, 0x32316c767a5f
 1f0:	6238                	.insn	2, 0x6238
 1f2:	7031                	.insn	2, 0x7031
 1f4:	5f30                	.insn	2, 0x5f30
 1f6:	767a                	.insn	2, 0x767a
 1f8:	336c                	.insn	2, 0x336c
 1fa:	6232                	.insn	2, 0x6232
 1fc:	7031                	.insn	2, 0x7031
 1fe:	5f30                	.insn	2, 0x5f30
 200:	767a                	.insn	2, 0x767a
 202:	366c                	.insn	2, 0x366c
 204:	6234                	.insn	2, 0x6234
 206:	7031                	.insn	2, 0x7031
 208:	5f30                	.insn	2, 0x5f30
 20a:	6e697673          	csrrci	x12,0x6e6,18
 20e:	6176                	.insn	2, 0x6176
 210:	316c                	.insn	2, 0x316c
 212:	3070                	.insn	2, 0x3070
 214:	0800                	.insn	2, 0x0800
 216:	0a01                	.insn	2, 0x0a01
 218:	0b                	.byte	0x0b
