
/home/abdullah/RiescueC/riescue/10x_R/hypervisor_exceptions/testsuite/hypervisor_exceptions/virtualized/user_sv39_gdisable/tp_hypervisor_exceptions_2:     file format elf64-littleriscv


Disassembly of section .runtime:

0000000041000000 <_start>:
    41000000:	00000093          	li	x1,0
    41000004:	00000113          	li	x2,0
    41000008:	00000193          	li	x3,0
    4100000c:	00000213          	li	x4,0
    41000010:	00000293          	li	x5,0
    41000014:	00000313          	li	x6,0
    41000018:	00000393          	li	x7,0
    4100001c:	00000413          	li	x8,0
    41000020:	00000493          	li	x9,0
    41000024:	00000513          	li	x10,0
    41000028:	00000593          	li	x11,0
    4100002c:	00000613          	li	x12,0
    41000030:	00000693          	li	x13,0
    41000034:	00000713          	li	x14,0
    41000038:	00000793          	li	x15,0
    4100003c:	00000813          	li	x16,0
    41000040:	00000893          	li	x17,0
    41000044:	00000913          	li	x18,0
    41000048:	00000993          	li	x19,0
    4100004c:	00000a13          	li	x20,0
    41000050:	00000a93          	li	x21,0
    41000054:	00000b13          	li	x22,0
    41000058:	00000b93          	li	x23,0
    4100005c:	00000c13          	li	x24,0
    41000060:	00000c93          	li	x25,0
    41000064:	00000d13          	li	x26,0
    41000068:	00000d93          	li	x27,0
    4100006c:	00000e13          	li	x28,0
    41000070:	00000e93          	li	x29,0
    41000074:	00000f13          	li	x30,0
    41000078:	00000f93          	li	x31,0

000000004100007c <loader__load_panic_address>:
    4100007c:	00001297          	auipc	x5,0x1
    41000080:	a8828293          	addi	x5,x5,-1400 # 41000b04 <eot__failed>
    41000084:	30529073          	csrw	mtvec,x5

0000000041000088 <loader__initialize_runtime>:
    41000088:	00000293          	li	x5,0
    4100008c:	3012a2f3          	csrrs	x5,misa,x5

0000000041000090 <loader__set_mstatus>:
    41000090:	000402b7          	lui	x5,0x40
    41000094:	00a2829b          	addiw	x5,x5,10 # 4000a <pma_region_0_size+0xa>
    41000098:	3002a2f3          	csrrs	x5,mstatus,x5
    4100009c:	4491a237          	lui	x4,0x4491a
    410000a0:	34021073          	csrw	mscratch,x4
    410000a4:	00509237          	lui	x4,0x509
    410000a8:	5092021b          	addiw	x4,x4,1289 # 509509 <hart_stack_0_end+0x2b7509>
    410000ac:	00e21213          	slli	x4,x4,0xe
    410000b0:	24021073          	csrw	vsscratch,x4
    410000b4:	4491a237          	lui	x4,0x4491a

00000000410000b8 <loader__setup_menvcfg>:
    410000b8:	00000297          	auipc	x5,0x0
    410000bc:	53828293          	addi	x5,x5,1336 # 410005f0 <trap_handler_m__trap_entry>
    410000c0:	30529073          	csrw	mtvec,x5

00000000410000c4 <setup_vmm>:
    410000c4:	00000013          	nop

00000000410000c8 <setup_hedeleg>:
    410000c8:	ff5cd2b7          	lui	x5,0xff5cd
    410000cc:	c4d2829b          	addiw	x5,x5,-947 # ffffffffff5ccc4d <SID_HEXCEP_09_sfence_vma_vu_stack+0x1155d43c4d>
    410000d0:	00d29293          	slli	x5,x5,0xd
    410000d4:	d6528293          	addi	x5,x5,-667
    410000d8:	00c29293          	slli	x5,x5,0xc
    410000dc:	32728293          	addi	x5,x5,807
    410000e0:	00e29293          	slli	x5,x5,0xe
    410000e4:	05028293          	addi	x5,x5,80
    410000e8:	60229073          	csrw	hedeleg,x5

00000000410000ec <setup_hideleg>:
    410000ec:	fff00293          	li	x5,-1
    410000f0:	60329073          	csrw	hideleg,x5

00000000410000f4 <setup_henvcfg>:
    410000f4:	00000293          	li	x5,0
    410000f8:	60a29073          	csrw	henvcfg,x5
    410000fc:	00011297          	auipc	x5,0x11
    41000100:	32428293          	addi	x5,x5,804 # 41011420 <trap_handler_hs__trap_handler>
    41000104:	10529073          	csrw	stvec,x5
    41000108:	f810029b          	addiw	x5,x0,-127
    4100010c:	02c29293          	slli	x5,x5,0x2c
    41000110:	04528293          	addi	x5,x5,69
    41000114:	00c29293          	slli	x5,x5,0xc
    41000118:	a5028293          	addi	x5,x5,-1456
    4100011c:	28029073          	csrw	vsatp,x5
    41000120:	200022f3          	csrr	x5,vsstatus
    41000124:	00042337          	lui	x6,0x42
    41000128:	2003031b          	addiw	x6,x6,512 # 42200 <pma_region_0_size+0x2200>
    4100012c:	0062e2b3          	or	x5,x5,x6
    41000130:	20029073          	csrw	vsstatus,x5

0000000041000134 <loader__enable_paging>:
    41000134:	fff800b7          	lui	x1,0xfff80
    41000138:	1990809b          	addiw	x1,x1,409 # fffffffffff80199 <SID_HEXCEP_09_sfence_vma_vu_stack+0x11566f7199>
    4100013c:	02009093          	slli	x1,x1,0x20
    41000140:	04508093          	addi	x1,x1,69
    41000144:	00c09093          	slli	x1,x1,0xc
    41000148:	a5008093          	addi	x1,x1,-1456
    4100014c:	18009073          	csrw	satp,x1

0000000041000150 <loader__done>:
    41000150:	1dd0006f          	j	41000b2c <scheduler__init>

0000000041000154 <loader__panic>:
    41000154:	1b10006f          	j	41000b04 <eot__failed>

0000000041000158 <syscalls__syscall_check_schedule_next_test>:
    41000158:	00f0029b          	addiw	x5,x0,15
    4100015c:	01c29293          	slli	x5,x5,0x1c
    41000160:	00128293          	addi	x5,x5,1
    41000164:	01f29a63          	bne	x5,x31,41000178 <syscalls__syscall_check_fail_test>
    41000168:	00000317          	auipc	x6,0x0
    4100016c:	48830313          	addi	x6,x6,1160 # 410005f0 <trap_handler_m__trap_entry>
    41000170:	30531073          	csrw	mtvec,x6
    41000174:	6c00006f          	j	41000834 <enter_scheduler>

0000000041000178 <syscalls__syscall_check_fail_test>:
    41000178:	00f0029b          	addiw	x5,x0,15
    4100017c:	01c29293          	slli	x5,x5,0x1c
    41000180:	00228293          	addi	x5,x5,2
    41000184:	01f29a63          	bne	x5,x31,41000198 <syscalls__syscall_check_end_test_without_failure>
    41000188:	00000317          	auipc	x6,0x0
    4100018c:	46830313          	addi	x6,x6,1128 # 410005f0 <trap_handler_m__trap_entry>
    41000190:	30531073          	csrw	mtvec,x6
    41000194:	6d00006f          	j	41000864 <test_failed>

0000000041000198 <syscalls__syscall_check_end_test_without_failure>:
    41000198:	00f0029b          	addiw	x5,x0,15
    4100019c:	01c29293          	slli	x5,x5,0x1c
    410001a0:	00328293          	addi	x5,x5,3
    410001a4:	01f29a63          	bne	x5,x31,410001b8 <syscalls__syscall_check_switch_machine_mode>
    410001a8:	00000317          	auipc	x6,0x0
    410001ac:	44830313          	addi	x6,x6,1096 # 410005f0 <trap_handler_m__trap_entry>
    410001b0:	30531073          	csrw	mtvec,x6
    410001b4:	6bc0006f          	j	41000870 <os_end_test>

00000000410001b8 <syscalls__syscall_check_switch_machine_mode>:
    410001b8:	000f02b7          	lui	x5,0xf0
    410001bc:	0012829b          	addiw	x5,x5,1 # f0001 <SID_HEXCEP_16_fs0_both_stack+0x5e001>
    410001c0:	00c29293          	slli	x5,x5,0xc
    410001c4:	00128293          	addi	x5,x5,1
    410001c8:	0a5f8463          	beq	x31,x5,41000270 <syscalls__os_fn_f0001001>

00000000410001cc <syscalls__syscall_check_switch_super_mode>:
    410001cc:	000f02b7          	lui	x5,0xf0
    410001d0:	0012829b          	addiw	x5,x5,1 # f0001 <SID_HEXCEP_16_fs0_both_stack+0x5e001>
    410001d4:	00c29293          	slli	x5,x5,0xc
    410001d8:	00228293          	addi	x5,x5,2
    410001dc:	0c5f8063          	beq	x31,x5,4100029c <syscalls__os_fn_f0001002>

00000000410001e0 <syscalls__syscall_check_switch_user_mode>:
    410001e0:	000f02b7          	lui	x5,0xf0
    410001e4:	0012829b          	addiw	x5,x5,1 # f0001 <SID_HEXCEP_16_fs0_both_stack+0x5e001>
    410001e8:	00c29293          	slli	x5,x5,0xc
    410001ec:	00328293          	addi	x5,x5,3
    410001f0:	0c5f8e63          	beq	x31,x5,410002cc <syscalls__os_fn_f0001003>

00000000410001f4 <syscalls__syscall_check_switch_test_mode>:
    410001f4:	000f02b7          	lui	x5,0xf0
    410001f8:	0012829b          	addiw	x5,x5,1 # f0001 <SID_HEXCEP_16_fs0_both_stack+0x5e001>
    410001fc:	00c29293          	slli	x5,x5,0xc
    41000200:	00428293          	addi	x5,x5,4
    41000204:	0e5f8863          	beq	x31,x5,410002f4 <syscalls__os_fn_f0001004>

0000000041000208 <syscalls__syscall_machine_csr_rw>:
    41000208:	000f02b7          	lui	x5,0xf0
    4100020c:	0012829b          	addiw	x5,x5,1 # f0001 <SID_HEXCEP_16_fs0_both_stack+0x5e001>
    41000210:	00c29293          	slli	x5,x5,0xc
    41000214:	00528293          	addi	x5,x5,5
    41000218:	105f8263          	beq	x31,x5,4100031c <syscalls__os_fn_f0001005>

000000004100021c <syscalls__syscall_supervisor_csr_rw>:
    4100021c:	000f02b7          	lui	x5,0xf0
    41000220:	0012829b          	addiw	x5,x5,1 # f0001 <SID_HEXCEP_16_fs0_both_stack+0x5e001>
    41000224:	00c29293          	slli	x5,x5,0xc
    41000228:	00628293          	addi	x5,x5,6
    4100022c:	105f8e63          	beq	x31,x5,41000348 <syscalls__os_fn_f0001006>

0000000041000230 <syscalls__syscall_machine_pte_read>:
    41000230:	000f02b7          	lui	x5,0xf0
    41000234:	0012829b          	addiw	x5,x5,1 # f0001 <SID_HEXCEP_16_fs0_both_stack+0x5e001>
    41000238:	00c29293          	slli	x5,x5,0xc
    4100023c:	00728293          	addi	x5,x5,7
    41000240:	125f8c63          	beq	x31,x5,41000378 <syscalls__os_fn_f0001007>

0000000041000244 <syscalls__syscall_machine_pte_write>:
    41000244:	000f02b7          	lui	x5,0xf0
    41000248:	0012829b          	addiw	x5,x5,1 # f0001 <SID_HEXCEP_16_fs0_both_stack+0x5e001>
    4100024c:	00c29293          	slli	x5,x5,0xc
    41000250:	00828293          	addi	x5,x5,8
    41000254:	205f8863          	beq	x31,x5,41000464 <syscalls__os_fn_f0001008>

0000000041000258 <syscalls__syscall_check_get_hart_context>:
    41000258:	000782b7          	lui	x5,0x78
    4100025c:	0012829b          	addiw	x5,x5,1 # 78001 <pma_region_0_size+0x38001>
    41000260:	00d29293          	slli	x5,x5,0xd
    41000264:	00128293          	addi	x5,x5,1
    41000268:	2e5f8463          	beq	x31,x5,41000550 <syscalls__os_get_hart_context>
    4100026c:	4e00006f          	j	4100074c <trap_handler_m__check_exception_label>

0000000041000270 <syscalls__os_fn_f0001001>:
    41000270:	000022b7          	lui	x5,0x2
    41000274:	8002829b          	addiw	x5,x5,-2048 # 1800 <pma_region_1_size+0x800>
    41000278:	3002b073          	csrc	mstatus,x5
    4100027c:	000022b7          	lui	x5,0x2
    41000280:	8002829b          	addiw	x5,x5,-2048 # 1800 <pma_region_1_size+0x800>
    41000284:	3002a073          	csrs	mstatus,x5
    41000288:	0010029b          	addiw	x5,x0,1
    4100028c:	02729293          	slli	x5,x5,0x27
    41000290:	3002b073          	csrc	mstatus,x5
    41000294:	411952b7          	lui	x5,0x41195
    41000298:	2c80006f          	j	41000560 <syscalls__ret_from_os_fn>

000000004100029c <syscalls__os_fn_f0001002>:
    4100029c:	000022b7          	lui	x5,0x2
    410002a0:	8002829b          	addiw	x5,x5,-2048 # 1800 <pma_region_1_size+0x800>
    410002a4:	3002b073          	csrc	mstatus,x5
    410002a8:	000012b7          	lui	x5,0x1
    410002ac:	8002829b          	addiw	x5,x5,-2048 # 800 <XLEN+0x7c0>
    410002b0:	3002a073          	csrs	mstatus,x5
    410002b4:	0010029b          	addiw	x5,x0,1
    410002b8:	02729293          	slli	x5,x5,0x27
    410002bc:	3002b073          	csrc	mstatus,x5
    410002c0:	12000073          	sfence.vma
    410002c4:	410952b7          	lui	x5,0x41095
    410002c8:	2980006f          	j	41000560 <syscalls__ret_from_os_fn>

00000000410002cc <syscalls__os_fn_f0001003>:
    410002cc:	000022b7          	lui	x5,0x2
    410002d0:	8002829b          	addiw	x5,x5,-2048 # 1800 <pma_region_1_size+0x800>
    410002d4:	3002b073          	csrc	mstatus,x5
    410002d8:	00000293          	li	x5,0
    410002dc:	3002a073          	csrs	mstatus,x5
    410002e0:	0010029b          	addiw	x5,x0,1
    410002e4:	02729293          	slli	x5,x5,0x27
    410002e8:	3002b073          	csrc	mstatus,x5
    410002ec:	411152b7          	lui	x5,0x41115
    410002f0:	2700006f          	j	41000560 <syscalls__ret_from_os_fn>

00000000410002f4 <syscalls__os_fn_f0001004>:
    410002f4:	000022b7          	lui	x5,0x2
    410002f8:	8002829b          	addiw	x5,x5,-2048 # 1800 <pma_region_1_size+0x800>
    410002fc:	3002b073          	csrc	mstatus,x5
    41000300:	00000293          	li	x5,0
    41000304:	3002a073          	csrs	mstatus,x5
    41000308:	0010029b          	addiw	x5,x0,1
    4100030c:	02729293          	slli	x5,x5,0x27
    41000310:	3002a073          	csrs	mstatus,x5
    41000314:	17823283          	ld	x5,376(x4) # 4491a178 <__section_hart_context+0x178>
    41000318:	2480006f          	j	41000560 <syscalls__ret_from_os_fn>

000000004100031c <syscalls__os_fn_f0001005>:
    4100031c:	000022b7          	lui	x5,0x2
    41000320:	8002829b          	addiw	x5,x5,-2048 # 1800 <pma_region_1_size+0x800>
    41000324:	3002b073          	csrc	mstatus,x5
    41000328:	000022b7          	lui	x5,0x2
    4100032c:	8002829b          	addiw	x5,x5,-2048 # 1800 <pma_region_1_size+0x800>
    41000330:	3002a073          	csrs	mstatus,x5
    41000334:	0010029b          	addiw	x5,x0,1
    41000338:	02729293          	slli	x5,x5,0x27
    4100033c:	3002b073          	csrc	mstatus,x5
    41000340:	412152b7          	lui	x5,0x41215
    41000344:	21c0006f          	j	41000560 <syscalls__ret_from_os_fn>

0000000041000348 <syscalls__os_fn_f0001006>:
    41000348:	000022b7          	lui	x5,0x2
    4100034c:	8002829b          	addiw	x5,x5,-2048 # 1800 <pma_region_1_size+0x800>
    41000350:	3002b073          	csrc	mstatus,x5
    41000354:	000012b7          	lui	x5,0x1
    41000358:	8002829b          	addiw	x5,x5,-2048 # 800 <XLEN+0x7c0>
    4100035c:	3002a073          	csrs	mstatus,x5
    41000360:	0010029b          	addiw	x5,x0,1
    41000364:	02729293          	slli	x5,x5,0x27
    41000368:	3002b073          	csrc	mstatus,x5
    4100036c:	12000073          	sfence.vma
    41000370:	412162b7          	lui	x5,0x41216
    41000374:	1ec0006f          	j	41000560 <syscalls__ret_from_os_fn>

0000000041000378 <syscalls__os_fn_f0001007>:
    41000378:	44ee0fb7          	lui	x31,0x44ee0
    4100037c:	0c0f8f9b          	addiw	x31,x31,192 # 44ee00c0 <pte_access_flags_pa>
    41000380:	000fbf83          	ld	x31,0(x31)
    41000384:	44ee02b7          	lui	x5,0x44ee0
    41000388:	0c82829b          	addiw	x5,x5,200 # 44ee00c8 <pte_access_flags_pa+0x8>
    4100038c:	0002b283          	ld	x5,0(x5)
    41000390:	44ee0e37          	lui	x28,0x44ee0
    41000394:	0d0e0e1b          	addiw	x28,x28,208 # 44ee00d0 <pte_access_flags_pa+0x10>
    41000398:	000e3e03          	ld	x28,0(x28)

000000004100039c <syscalls__pte_walk_check_glevel_without_gstage_read>:
    4100039c:	fff00f93          	li	x31,-1
    410003a0:	0dfe1063          	bne	x28,x31,41000460 <syscalls__pte_walk_fail_read>
    410003a4:	18002373          	csrr	x6,satp
    410003a8:	03c35e93          	srli	x29,x6,0x3c
    410003ac:	01431313          	slli	x6,x6,0x14
    410003b0:	01435313          	srli	x6,x6,0x14
    410003b4:	00c31313          	slli	x6,x6,0xc
    410003b8:	ff8e8e93          	addi	x29,x29,-8
    410003bc:	003e9f13          	slli	x30,x29,0x3
    410003c0:	01df0eb3          	add	x29,x30,x29
    410003c4:	01ee8e93          	addi	x29,x29,30
    410003c8:	00000f13          	li	x30,0

00000000410003cc <syscalls__pte_walk_loop_read>:
    410003cc:	44ee0fb7          	lui	x31,0x44ee0
    410003d0:	0c0f8f9b          	addiw	x31,x31,192 # 44ee00c0 <pte_access_flags_pa>
    410003d4:	000fbf83          	ld	x31,0(x31)
    410003d8:	01dfdfb3          	srl	x31,x31,x29
    410003dc:	1fffff93          	andi	x31,x31,511
    410003e0:	003f9f93          	slli	x31,x31,0x3
    410003e4:	01f30333          	add	x6,x6,x31
    410003e8:	005f0e63          	beq	x30,x5,41000404 <syscalls__pte_walk_done_read>
    410003ec:	00033f83          	ld	x31,0(x6)
    410003f0:	00afdf93          	srli	x31,x31,0xa
    410003f4:	00cf9313          	slli	x6,x31,0xc
    410003f8:	001f0f13          	addi	x30,x30,1
    410003fc:	ff7e8e93          	addi	x29,x29,-9
    41000400:	fcdff06f          	j	410003cc <syscalls__pte_walk_loop_read>

0000000041000404 <syscalls__pte_walk_done_read>:
    41000404:	fff00f93          	li	x31,-1
    41000408:	05fe0263          	beq	x28,x31,4100044c <syscalls__pte_walk_final_read>

000000004100040c <syscalls__pte_walk_gstage_read>:
    4100040c:	44ee0fb7          	lui	x31,0x44ee0
    41000410:	0c0f8f9b          	addiw	x31,x31,192 # 44ee00c0 <pte_access_flags_pa>
    41000414:	006fb023          	sd	x6,0(x31)
    41000418:	000e0293          	mv	x5,x28
    4100041c:	fff00e13          	li	x28,-1
    41000420:	68002373          	csrr	x6,hgatp
    41000424:	03c35e93          	srli	x29,x6,0x3c
    41000428:	01431313          	slli	x6,x6,0x14
    4100042c:	01435313          	srli	x6,x6,0x14
    41000430:	00c31313          	slli	x6,x6,0xc
    41000434:	ff8e8e93          	addi	x29,x29,-8
    41000438:	003e9f13          	slli	x30,x29,0x3
    4100043c:	01df0eb3          	add	x29,x30,x29
    41000440:	01ee8e93          	addi	x29,x29,30
    41000444:	00000f13          	li	x30,0
    41000448:	f85ff06f          	j	410003cc <syscalls__pte_walk_loop_read>

000000004100044c <syscalls__pte_walk_final_read>:
    4100044c:	00033383          	ld	x7,0(x6)
    41000450:	341022f3          	csrr	x5,mepc
    41000454:	00428293          	addi	x5,x5,4
    41000458:	16523c23          	sd	x5,376(x4) # 178 <XLEN+0x138>
    4100045c:	e99ff06f          	j	410002f4 <syscalls__os_fn_f0001004>

0000000041000460 <syscalls__pte_walk_fail_read>:
    41000460:	4040006f          	j	41000864 <test_failed>

0000000041000464 <syscalls__os_fn_f0001008>:
    41000464:	44ee0fb7          	lui	x31,0x44ee0
    41000468:	0c0f8f9b          	addiw	x31,x31,192 # 44ee00c0 <pte_access_flags_pa>
    4100046c:	000fbf83          	ld	x31,0(x31)
    41000470:	44ee02b7          	lui	x5,0x44ee0
    41000474:	0c82829b          	addiw	x5,x5,200 # 44ee00c8 <pte_access_flags_pa+0x8>
    41000478:	0002b283          	ld	x5,0(x5)
    4100047c:	44ee0e37          	lui	x28,0x44ee0
    41000480:	0d0e0e1b          	addiw	x28,x28,208 # 44ee00d0 <pte_access_flags_pa+0x10>
    41000484:	000e3e03          	ld	x28,0(x28)

0000000041000488 <syscalls__pte_walk_check_glevel_without_gstage_write>:
    41000488:	fff00f93          	li	x31,-1
    4100048c:	0dfe1063          	bne	x28,x31,4100054c <syscalls__pte_walk_fail_write>
    41000490:	18002373          	csrr	x6,satp
    41000494:	03c35e93          	srli	x29,x6,0x3c
    41000498:	01431313          	slli	x6,x6,0x14
    4100049c:	01435313          	srli	x6,x6,0x14
    410004a0:	00c31313          	slli	x6,x6,0xc
    410004a4:	ff8e8e93          	addi	x29,x29,-8
    410004a8:	003e9f13          	slli	x30,x29,0x3
    410004ac:	01df0eb3          	add	x29,x30,x29
    410004b0:	01ee8e93          	addi	x29,x29,30
    410004b4:	00000f13          	li	x30,0

00000000410004b8 <syscalls__pte_walk_loop_write>:
    410004b8:	44ee0fb7          	lui	x31,0x44ee0
    410004bc:	0c0f8f9b          	addiw	x31,x31,192 # 44ee00c0 <pte_access_flags_pa>
    410004c0:	000fbf83          	ld	x31,0(x31)
    410004c4:	01dfdfb3          	srl	x31,x31,x29
    410004c8:	1fffff93          	andi	x31,x31,511
    410004cc:	003f9f93          	slli	x31,x31,0x3
    410004d0:	01f30333          	add	x6,x6,x31
    410004d4:	005f0e63          	beq	x30,x5,410004f0 <syscalls__pte_walk_done_write>
    410004d8:	00033f83          	ld	x31,0(x6)
    410004dc:	00afdf93          	srli	x31,x31,0xa
    410004e0:	00cf9313          	slli	x6,x31,0xc
    410004e4:	001f0f13          	addi	x30,x30,1
    410004e8:	ff7e8e93          	addi	x29,x29,-9
    410004ec:	fcdff06f          	j	410004b8 <syscalls__pte_walk_loop_write>

00000000410004f0 <syscalls__pte_walk_done_write>:
    410004f0:	fff00f93          	li	x31,-1
    410004f4:	05fe0263          	beq	x28,x31,41000538 <syscalls__pte_walk_final_write>

00000000410004f8 <syscalls__pte_walk_gstage_write>:
    410004f8:	44ee0fb7          	lui	x31,0x44ee0
    410004fc:	0c0f8f9b          	addiw	x31,x31,192 # 44ee00c0 <pte_access_flags_pa>
    41000500:	006fb023          	sd	x6,0(x31)
    41000504:	000e0293          	mv	x5,x28
    41000508:	fff00e13          	li	x28,-1
    4100050c:	68002373          	csrr	x6,hgatp
    41000510:	03c35e93          	srli	x29,x6,0x3c
    41000514:	01431313          	slli	x6,x6,0x14
    41000518:	01435313          	srli	x6,x6,0x14
    4100051c:	00c31313          	slli	x6,x6,0xc
    41000520:	ff8e8e93          	addi	x29,x29,-8
    41000524:	003e9f13          	slli	x30,x29,0x3
    41000528:	01df0eb3          	add	x29,x30,x29
    4100052c:	01ee8e93          	addi	x29,x29,30
    41000530:	00000f13          	li	x30,0
    41000534:	f85ff06f          	j	410004b8 <syscalls__pte_walk_loop_write>

0000000041000538 <syscalls__pte_walk_final_write>:
    41000538:	00733023          	sd	x7,0(x6)
    4100053c:	341022f3          	csrr	x5,mepc
    41000540:	00428293          	addi	x5,x5,4
    41000544:	16523c23          	sd	x5,376(x4) # 178 <XLEN+0x138>
    41000548:	dadff06f          	j	410002f4 <syscalls__os_fn_f0001004>

000000004100054c <syscalls__pte_walk_fail_write>:
    4100054c:	3180006f          	j	41000864 <test_failed>

0000000041000550 <syscalls__os_get_hart_context>:
    41000550:	14002573          	csrr	x10,sscratch
    41000554:	341022f3          	csrr	x5,mepc
    41000558:	00428293          	addi	x5,x5,4
    4100055c:	0040006f          	j	41000560 <syscalls__ret_from_os_fn>

0000000041000560 <syscalls__ret_from_os_fn>:
    41000560:	34102373          	csrr	x6,mepc
    41000564:	00430313          	addi	x6,x6,4
    41000568:	16623c23          	sd	x6,376(x4) # 178 <XLEN+0x138>
    4100056c:	34129073          	csrw	mepc,x5
    41000570:	fff00f93          	li	x31,-1
    41000574:	2a40006f          	j	41000818 <trap_handler_m__skip_xepc_write>

0000000041000578 <trap_handler_m__invalid_interrupt>:
    41000578:	2ec0006f          	j	41000864 <test_failed>

000000004100057c <trap_handler_m__clear_all_interrupts>:
    4100057c:	34401073          	csrw	mip,x0
    41000580:	30200073          	mret

0000000041000584 <trap_handler_m___CLEAR_SSI>:
    41000584:	00200293          	li	x5,2
    41000588:	3442b073          	csrc	mip,x5
    4100058c:	30200073          	mret

0000000041000590 <trap_handler_m___CLEAR_MSI>:
    41000590:	00800293          	li	x5,8
    41000594:	3442b073          	csrc	mip,x5
    41000598:	30200073          	mret

000000004100059c <trap_handler_m___CLEAR_STI>:
    4100059c:	02000293          	li	x5,32
    410005a0:	3442b073          	csrc	mip,x5
    410005a4:	30200073          	mret

00000000410005a8 <trap_handler_m___CLEAR_MTI>:
    410005a8:	08000293          	li	x5,128
    410005ac:	3442b073          	csrc	mip,x5
    410005b0:	30200073          	mret

00000000410005b4 <trap_handler_m___CLEAR_SEI>:
    410005b4:	20000293          	li	x5,512
    410005b8:	3442b073          	csrc	mip,x5
    410005bc:	30200073          	mret

00000000410005c0 <trap_handler_m___CLEAR_MEI>:
    410005c0:	000012b7          	lui	x5,0x1
    410005c4:	8002829b          	addiw	x5,x5,-2048 # 800 <XLEN+0x7c0>
    410005c8:	3442b073          	csrc	mip,x5
    410005cc:	30200073          	mret

00000000410005d0 <trap_handler_m___CLEAR_COI>:
    410005d0:	000022b7          	lui	x5,0x2
    410005d4:	3442b073          	csrc	mip,x5
    410005d8:	30200073          	mret

00000000410005dc <trap_handler_m__clear_highest_priority_interrupt>:
    410005dc:	344022f3          	csrr	x5,mip
    410005e0:	40500333          	neg	x6,x5
    410005e4:	0062f2b3          	and	x5,x5,x6
    410005e8:	3442b073          	csrc	mip,x5
    410005ec:	30200073          	mret

00000000410005f0 <trap_handler_m__trap_entry>:
    410005f0:	0fc0006f          	j	410006ec <trap_handler_m__trap_handler>

00000000410005f4 <trap_handler_m__interrupt_vector_table>:
    410005f4:	f91ff06f          	j	41000584 <trap_handler_m___CLEAR_SSI>
    410005f8:	f81ff06f          	j	41000578 <trap_handler_m__invalid_interrupt>
    410005fc:	f95ff06f          	j	41000590 <trap_handler_m___CLEAR_MSI>
    41000600:	f79ff06f          	j	41000578 <trap_handler_m__invalid_interrupt>
    41000604:	f99ff06f          	j	4100059c <trap_handler_m___CLEAR_STI>
    41000608:	f71ff06f          	j	41000578 <trap_handler_m__invalid_interrupt>
    4100060c:	f9dff06f          	j	410005a8 <trap_handler_m___CLEAR_MTI>
    41000610:	f69ff06f          	j	41000578 <trap_handler_m__invalid_interrupt>
    41000614:	fa1ff06f          	j	410005b4 <trap_handler_m___CLEAR_SEI>
    41000618:	f61ff06f          	j	41000578 <trap_handler_m__invalid_interrupt>
    4100061c:	fa5ff06f          	j	410005c0 <trap_handler_m___CLEAR_MEI>
    41000620:	f59ff06f          	j	41000578 <trap_handler_m__invalid_interrupt>
    41000624:	fadff06f          	j	410005d0 <trap_handler_m___CLEAR_COI>
    41000628:	f51ff06f          	j	41000578 <trap_handler_m__invalid_interrupt>
    4100062c:	f4dff06f          	j	41000578 <trap_handler_m__invalid_interrupt>
    41000630:	fadff06f          	j	410005dc <trap_handler_m__clear_highest_priority_interrupt>
    41000634:	fa9ff06f          	j	410005dc <trap_handler_m__clear_highest_priority_interrupt>
    41000638:	fa5ff06f          	j	410005dc <trap_handler_m__clear_highest_priority_interrupt>
    4100063c:	fa1ff06f          	j	410005dc <trap_handler_m__clear_highest_priority_interrupt>
    41000640:	f9dff06f          	j	410005dc <trap_handler_m__clear_highest_priority_interrupt>
    41000644:	f99ff06f          	j	410005dc <trap_handler_m__clear_highest_priority_interrupt>
    41000648:	f95ff06f          	j	410005dc <trap_handler_m__clear_highest_priority_interrupt>
    4100064c:	f91ff06f          	j	410005dc <trap_handler_m__clear_highest_priority_interrupt>
    41000650:	f8dff06f          	j	410005dc <trap_handler_m__clear_highest_priority_interrupt>
    41000654:	f89ff06f          	j	410005dc <trap_handler_m__clear_highest_priority_interrupt>
    41000658:	f85ff06f          	j	410005dc <trap_handler_m__clear_highest_priority_interrupt>
    4100065c:	f81ff06f          	j	410005dc <trap_handler_m__clear_highest_priority_interrupt>
    41000660:	f7dff06f          	j	410005dc <trap_handler_m__clear_highest_priority_interrupt>
    41000664:	f79ff06f          	j	410005dc <trap_handler_m__clear_highest_priority_interrupt>
    41000668:	f75ff06f          	j	410005dc <trap_handler_m__clear_highest_priority_interrupt>
    4100066c:	f71ff06f          	j	410005dc <trap_handler_m__clear_highest_priority_interrupt>
    41000670:	f6dff06f          	j	410005dc <trap_handler_m__clear_highest_priority_interrupt>
    41000674:	f69ff06f          	j	410005dc <trap_handler_m__clear_highest_priority_interrupt>
    41000678:	f65ff06f          	j	410005dc <trap_handler_m__clear_highest_priority_interrupt>
    4100067c:	f61ff06f          	j	410005dc <trap_handler_m__clear_highest_priority_interrupt>
    41000680:	f5dff06f          	j	410005dc <trap_handler_m__clear_highest_priority_interrupt>
    41000684:	f59ff06f          	j	410005dc <trap_handler_m__clear_highest_priority_interrupt>
    41000688:	f55ff06f          	j	410005dc <trap_handler_m__clear_highest_priority_interrupt>
    4100068c:	f51ff06f          	j	410005dc <trap_handler_m__clear_highest_priority_interrupt>
    41000690:	f4dff06f          	j	410005dc <trap_handler_m__clear_highest_priority_interrupt>
    41000694:	f49ff06f          	j	410005dc <trap_handler_m__clear_highest_priority_interrupt>
    41000698:	f45ff06f          	j	410005dc <trap_handler_m__clear_highest_priority_interrupt>
    4100069c:	f41ff06f          	j	410005dc <trap_handler_m__clear_highest_priority_interrupt>
    410006a0:	f3dff06f          	j	410005dc <trap_handler_m__clear_highest_priority_interrupt>
    410006a4:	f39ff06f          	j	410005dc <trap_handler_m__clear_highest_priority_interrupt>
    410006a8:	f35ff06f          	j	410005dc <trap_handler_m__clear_highest_priority_interrupt>
    410006ac:	f31ff06f          	j	410005dc <trap_handler_m__clear_highest_priority_interrupt>
    410006b0:	f2dff06f          	j	410005dc <trap_handler_m__clear_highest_priority_interrupt>
    410006b4:	f29ff06f          	j	410005dc <trap_handler_m__clear_highest_priority_interrupt>
    410006b8:	f25ff06f          	j	410005dc <trap_handler_m__clear_highest_priority_interrupt>
    410006bc:	f21ff06f          	j	410005dc <trap_handler_m__clear_highest_priority_interrupt>
    410006c0:	f1dff06f          	j	410005dc <trap_handler_m__clear_highest_priority_interrupt>
    410006c4:	f19ff06f          	j	410005dc <trap_handler_m__clear_highest_priority_interrupt>
    410006c8:	f15ff06f          	j	410005dc <trap_handler_m__clear_highest_priority_interrupt>
    410006cc:	f11ff06f          	j	410005dc <trap_handler_m__clear_highest_priority_interrupt>
    410006d0:	f0dff06f          	j	410005dc <trap_handler_m__clear_highest_priority_interrupt>
    410006d4:	f09ff06f          	j	410005dc <trap_handler_m__clear_highest_priority_interrupt>
    410006d8:	f05ff06f          	j	410005dc <trap_handler_m__clear_highest_priority_interrupt>
    410006dc:	f01ff06f          	j	410005dc <trap_handler_m__clear_highest_priority_interrupt>
    410006e0:	efdff06f          	j	410005dc <trap_handler_m__clear_highest_priority_interrupt>
    410006e4:	ef9ff06f          	j	410005dc <trap_handler_m__clear_highest_priority_interrupt>
    410006e8:	ef5ff06f          	j	410005dc <trap_handler_m__clear_highest_priority_interrupt>

00000000410006ec <trap_handler_m__trap_handler>:
    410006ec:	342022f3          	csrr	x5,mcause
    410006f0:	fff0031b          	addiw	x6,x0,-1
    410006f4:	03f31313          	slli	x6,x6,0x3f
    410006f8:	00537333          	and	x6,x6,x5
    410006fc:	02030263          	beqz	x6,41000720 <trap_handler_m__exception_path>

0000000041000700 <trap_handler_m__interrupt_handler>:
    41000700:	fff0031b          	addiw	x6,x0,-1
    41000704:	03f31313          	slli	x6,x6,0x3f
    41000708:	0062c2b3          	xor	x5,x5,x6
    4100070c:	00000317          	auipc	x6,0x0
    41000710:	ee430313          	addi	x6,x6,-284 # 410005f0 <trap_handler_m__trap_entry>
    41000714:	00229293          	slli	x5,x5,0x2
    41000718:	005302b3          	add	x5,x6,x5
    4100071c:	00028067          	jr	x5 # 2000 <mem7>

0000000041000720 <trap_handler_m__exception_path>:
    41000720:	34021273          	csrrw	x4,mscratch,x4
    41000724:	00000297          	auipc	x5,0x0
    41000728:	10828293          	addi	x5,x5,264 # 4100082c <trap_handler_m__trap_panic>
    4100072c:	30529073          	csrw	mtvec,x5
    41000730:	0040006f          	j	41000734 <trap_handler_m__excp_entry>

0000000041000734 <trap_handler_m__excp_entry>:
    41000734:	34202373          	csrr	x6,mcause
    41000738:	00800293          	li	x5,8
    4100073c:	00534863          	blt	x6,x5,4100074c <trap_handler_m__check_exception_label>
    41000740:	00b00293          	li	x5,11
    41000744:	0062c463          	blt	x5,x6,4100074c <trap_handler_m__check_exception_label>
    41000748:	a11ff06f          	j	41000158 <syscalls__syscall_check_schedule_next_test>

000000004100074c <trap_handler_m__check_exception_label>:
    4100074c:	04623c23          	sd	x6,88(x4) # 58 <XLEN+0x18>
    41000750:	341022f3          	csrr	x5,mepc
    41000754:	02523423          	sd	x5,40(x4) # 28 <SECURE_ACCESS_PROBABILITY+0xa>
    41000758:	01820283          	lb	x5,24(x4) # 18 <STORE_GUEST_PAGE_FAULT+0x1>
    4100075c:	00029863          	bnez	x5,4100076c <trap_handler_m__check_excp>
    41000760:	00128293          	addi	x5,x5,1
    41000764:	00520c23          	sb	x5,24(x4) # 18 <STORE_GUEST_PAGE_FAULT+0x1>
    41000768:	0980006f          	j	41000800 <trap_handler_m__ecall_from_machine>

000000004100076c <trap_handler_m__check_excp>:
    4100076c:	06823283          	ld	x5,104(x4) # 68 <XLEN+0x28>
    41000770:	06023423          	sd	x0,104(x4) # 68 <XLEN+0x28>
    41000774:	00028663          	beqz	x5,41000780 <trap_handler_m__skip_mode_check>
    41000778:	00100393          	li	x7,1
    4100077c:	0e729463          	bne	x5,x7,41000864 <test_failed>

0000000041000780 <trap_handler_m__skip_mode_check>:
    41000780:	05023283          	ld	x5,80(x4) # 50 <XLEN+0x10>
    41000784:	04023823          	sd	x0,80(x4) # 50 <XLEN+0x10>
    41000788:	0c531e63          	bne	x6,x5,41000864 <test_failed>
    4100078c:	03823283          	ld	x5,56(x4) # 38 <SECURE_ACCESS_PROBABILITY+0x1a>
    41000790:	02023c23          	sd	x0,56(x4) # 38 <SECURE_ACCESS_PROBABILITY+0x1a>
    41000794:	06029463          	bnez	x5,410007fc <trap_handler_m__skip_gva_check>
    41000798:	02023303          	ld	x6,32(x4) # 20 <SECURE_ACCESS_PROBABILITY+0x2>
    4100079c:	02023023          	sd	x0,32(x4) # 20 <SECURE_ACCESS_PROBABILITY+0x2>
    410007a0:	02823283          	ld	x5,40(x4) # 28 <SECURE_ACCESS_PROBABILITY+0xa>
    410007a4:	02023423          	sd	x0,40(x4) # 28 <SECURE_ACCESS_PROBABILITY+0xa>
    410007a8:	0a531e63          	bne	x6,x5,41000864 <test_failed>
    410007ac:	04023283          	ld	x5,64(x4) # 40 <XLEN>
    410007b0:	04023023          	sd	x0,64(x4) # 40 <XLEN>
    410007b4:	00028663          	beqz	x5,410007c0 <trap_handler_m__skip_nonzero_tval_check>

00000000410007b8 <trap_handler_m__nonzero_tval_check>:
    410007b8:	34302373          	csrr	x6,mtval
    410007bc:	0a531463          	bne	x6,x5,41000864 <test_failed>

00000000410007c0 <trap_handler_m__skip_nonzero_tval_check>:
    410007c0:	04823283          	ld	x5,72(x4) # 48 <XLEN+0x8>
    410007c4:	04023423          	sd	x0,72(x4) # 48 <XLEN+0x8>
    410007c8:	00028663          	beqz	x5,410007d4 <trap_handler_m__skip_nonzero_htval_check>

00000000410007cc <trap_handler_m__nonzero_htval_check>:
    410007cc:	34b02373          	csrr	x6,0x34b
    410007d0:	08531a63          	bne	x6,x5,41000864 <test_failed>

00000000410007d4 <trap_handler_m__skip_nonzero_htval_check>:
    410007d4:	06023283          	ld	x5,96(x4) # 60 <XLEN+0x20>
    410007d8:	06023023          	sd	x0,96(x4) # 60 <XLEN+0x20>
    410007dc:	02028063          	beqz	x5,410007fc <trap_handler_m__skip_gva_check>

00000000410007e0 <trap_handler_m__gva_check>:
    410007e0:	30002373          	csrr	x6,mstatus
    410007e4:	02635313          	srli	x6,x6,0x26
    410007e8:	00137313          	andi	x6,x6,1
    410007ec:	06030c63          	beqz	x6,41000864 <test_failed>
    410007f0:	0010031b          	addiw	x6,x0,1
    410007f4:	02631313          	slli	x6,x6,0x26
    410007f8:	30033073          	csrc	mstatus,x6

00000000410007fc <trap_handler_m__skip_gva_check>:
    410007fc:	0040006f          	j	41000800 <trap_handler_m__ecall_from_machine>

0000000041000800 <trap_handler_m__ecall_from_machine>:
    41000800:	03023283          	ld	x5,48(x4) # 30 <SECURE_ACCESS_PROBABILITY+0x12>
    41000804:	02023823          	sd	x0,48(x4) # 30 <SECURE_ACCESS_PROBABILITY+0x12>
    41000808:	07023303          	ld	x6,112(x4) # 70 <XLEN+0x30>
    4100080c:	06023823          	sd	x0,112(x4) # 70 <XLEN+0x30>
    41000810:	00031463          	bnez	x6,41000818 <trap_handler_m__skip_xepc_write>
    41000814:	34129073          	csrw	mepc,x5

0000000041000818 <trap_handler_m__skip_xepc_write>:
    41000818:	00000317          	auipc	x6,0x0
    4100081c:	dd830313          	addi	x6,x6,-552 # 410005f0 <trap_handler_m__trap_entry>
    41000820:	30531073          	csrw	mtvec,x6
    41000824:	34021273          	csrrw	x4,mscratch,x4
    41000828:	30200073          	mret

000000004100082c <trap_handler_m__trap_panic>:
    4100082c:	00000193          	li	x3,0
    41000830:	2b00006f          	j	41000ae0 <eot__end_test>

0000000041000834 <enter_scheduler>:
    41000834:	0002f337          	lui	x6,0x2f
    41000838:	ab73031b          	addiw	x6,x6,-1353 # 2eab7 <SID_HEXCEP_19_misaligned_lr_stack+0x3ab7>
    4100083c:	00e31313          	slli	x6,x6,0xe
    41000840:	0de30313          	addi	x6,x6,222
    41000844:	02628063          	beq	x5,x6,41000864 <test_failed>
    41000848:	00000513          	li	x10,0
    4100084c:	030000ef          	jal	4100087c <rvcp_print_test_result>
    41000850:	3140006f          	j	41000b64 <scheduler__dispatch>

0000000041000854 <test_passed>:
    41000854:	34021273          	csrrw	x4,mscratch,x4
    41000858:	00000513          	li	x10,0
    4100085c:	020000ef          	jal	4100087c <rvcp_print_test_result>
    41000860:	3040006f          	j	41000b64 <scheduler__dispatch>

0000000041000864 <test_failed>:
    41000864:	34021273          	csrrw	x4,mscratch,x4
    41000868:	00300193          	li	x3,3
    4100086c:	2740006f          	j	41000ae0 <eot__end_test>

0000000041000870 <os_end_test>:
    41000870:	34021273          	csrrw	x4,mscratch,x4
    41000874:	00100193          	li	x3,1
    41000878:	2680006f          	j	41000ae0 <eot__end_test>

000000004100087c <rvcp_print_test_result>:
    4100087c:	00050e13          	mv	x28,x10
    41000880:	18823283          	ld	x5,392(x4) # 188 <XLEN+0x148>
    41000884:	0010031b          	addiw	x6,x0,1
    41000888:	02031313          	slli	x6,x6,0x20
    4100088c:	ffe30313          	addi	x6,x6,-2
    41000890:	1c628063          	beq	x5,x6,41000a50 <rvcp_print_test_result+0x1d4>
    41000894:	0010031b          	addiw	x6,x0,1
    41000898:	02031313          	slli	x6,x6,0x20
    4100089c:	fff30313          	addi	x6,x6,-1
    410008a0:	1a628863          	beq	x5,x6,41000a50 <rvcp_print_test_result+0x1d4>
    410008a4:	1a02c663          	bltz	x5,41000a50 <rvcp_print_test_result+0x1d4>
    410008a8:	00000317          	auipc	x6,0x0
    410008ac:	44430313          	addi	x6,x6,1092 # 41000cec <dtest_descriptor_table>
    410008b0:	00329393          	slli	x7,x5,0x3
    410008b4:	00730333          	add	x6,x6,x7
    410008b8:	00033e83          	ld	x29,0(x6)
    410008bc:	44ee0f37          	lui	x30,0x44ee0
    410008c0:	030f0f1b          	addiw	x30,x30,48 # 44ee0030 <rvcp_prefix_str_pa>
    410008c4:	000f4283          	lbu	x5,0(x30)
    410008c8:	02028663          	beqz	x5,410008f4 <rvcp_print_test_result+0x78>
    410008cc:	1010031b          	addiw	x6,x0,257
    410008d0:	03031313          	slli	x6,x6,0x30
    410008d4:	005362b3          	or	x5,x6,x5
    410008d8:	0003f317          	auipc	x6,0x3f
    410008dc:	72830313          	addi	x6,x6,1832 # 41040000 <tohost>
    410008e0:	00033383          	ld	x7,0(x6)
    410008e4:	fe039ee3          	bnez	x7,410008e0 <rvcp_print_test_result+0x64>
    410008e8:	00533023          	sd	x5,0(x6)
    410008ec:	001f0f13          	addi	x30,x30,1
    410008f0:	fd5ff06f          	j	410008c4 <rvcp_print_test_result+0x48>
    410008f4:	44ee0f37          	lui	x30,0x44ee0
    410008f8:	041f0f1b          	addiw	x30,x30,65 # 44ee0041 <rvcp_testname_str_pa>
    410008fc:	000f4283          	lbu	x5,0(x30)
    41000900:	02028663          	beqz	x5,4100092c <rvcp_print_test_result+0xb0>
    41000904:	1010031b          	addiw	x6,x0,257
    41000908:	03031313          	slli	x6,x6,0x30
    4100090c:	005362b3          	or	x5,x6,x5
    41000910:	0003f317          	auipc	x6,0x3f
    41000914:	6f030313          	addi	x6,x6,1776 # 41040000 <tohost>
    41000918:	00033383          	ld	x7,0(x6)
    4100091c:	fe039ee3          	bnez	x7,41000918 <rvcp_print_test_result+0x9c>
    41000920:	00533023          	sd	x5,0(x6)
    41000924:	001f0f13          	addi	x30,x30,1
    41000928:	fd5ff06f          	j	410008fc <rvcp_print_test_result+0x80>
    4100092c:	44ee0f37          	lui	x30,0x44ee0
    41000930:	06af0f1b          	addiw	x30,x30,106 # 44ee006a <rvcp_space_str_pa>
    41000934:	000f4283          	lbu	x5,0(x30)
    41000938:	02028663          	beqz	x5,41000964 <rvcp_print_test_result+0xe8>
    4100093c:	1010031b          	addiw	x6,x0,257
    41000940:	03031313          	slli	x6,x6,0x30
    41000944:	005362b3          	or	x5,x6,x5
    41000948:	0003f317          	auipc	x6,0x3f
    4100094c:	6b830313          	addi	x6,x6,1720 # 41040000 <tohost>
    41000950:	00033383          	ld	x7,0(x6)
    41000954:	fe039ee3          	bnez	x7,41000950 <rvcp_print_test_result+0xd4>
    41000958:	00533023          	sd	x5,0(x6)
    4100095c:	001f0f13          	addi	x30,x30,1
    41000960:	fd5ff06f          	j	41000934 <rvcp_print_test_result+0xb8>
    41000964:	000e8f13          	mv	x30,x29
    41000968:	000f4283          	lbu	x5,0(x30)
    4100096c:	02028663          	beqz	x5,41000998 <rvcp_print_test_result+0x11c>
    41000970:	1010031b          	addiw	x6,x0,257
    41000974:	03031313          	slli	x6,x6,0x30
    41000978:	005362b3          	or	x5,x6,x5
    4100097c:	0003f317          	auipc	x6,0x3f
    41000980:	68430313          	addi	x6,x6,1668 # 41040000 <tohost>
    41000984:	00033383          	ld	x7,0(x6)
    41000988:	fe039ee3          	bnez	x7,41000984 <rvcp_print_test_result+0x108>
    4100098c:	00533023          	sd	x5,0(x6)
    41000990:	001f0f13          	addi	x30,x30,1
    41000994:	fd5ff06f          	j	41000968 <rvcp_print_test_result+0xec>
    41000998:	44ee0f37          	lui	x30,0x44ee0
    4100099c:	06af0f1b          	addiw	x30,x30,106 # 44ee006a <rvcp_space_str_pa>
    410009a0:	000f4283          	lbu	x5,0(x30)
    410009a4:	02028663          	beqz	x5,410009d0 <rvcp_print_test_result+0x154>
    410009a8:	1010031b          	addiw	x6,x0,257
    410009ac:	03031313          	slli	x6,x6,0x30
    410009b0:	005362b3          	or	x5,x6,x5
    410009b4:	0003f317          	auipc	x6,0x3f
    410009b8:	64c30313          	addi	x6,x6,1612 # 41040000 <tohost>
    410009bc:	00033383          	ld	x7,0(x6)
    410009c0:	fe039ee3          	bnez	x7,410009bc <rvcp_print_test_result+0x140>
    410009c4:	00533023          	sd	x5,0(x6)
    410009c8:	001f0f13          	addi	x30,x30,1
    410009cc:	fd5ff06f          	j	410009a0 <rvcp_print_test_result+0x124>
    410009d0:	000e1863          	bnez	x28,410009e0 <rvcp_print_test_result+0x164>
    410009d4:	44ee0f37          	lui	x30,0x44ee0
    410009d8:	05cf0f1b          	addiw	x30,x30,92 # 44ee005c <rvcp_passed_str_pa>
    410009dc:	00c0006f          	j	410009e8 <rvcp_print_test_result+0x16c>
    410009e0:	44ee0f37          	lui	x30,0x44ee0
    410009e4:	063f0f1b          	addiw	x30,x30,99 # 44ee0063 <rvcp_failed_str_pa>
    410009e8:	000f4283          	lbu	x5,0(x30)
    410009ec:	02028663          	beqz	x5,41000a18 <rvcp_print_test_result+0x19c>
    410009f0:	1010031b          	addiw	x6,x0,257
    410009f4:	03031313          	slli	x6,x6,0x30
    410009f8:	005362b3          	or	x5,x6,x5
    410009fc:	0003f317          	auipc	x6,0x3f
    41000a00:	60430313          	addi	x6,x6,1540 # 41040000 <tohost>
    41000a04:	00033383          	ld	x7,0(x6)
    41000a08:	fe039ee3          	bnez	x7,41000a04 <rvcp_print_test_result+0x188>
    41000a0c:	00533023          	sd	x5,0(x6)
    41000a10:	001f0f13          	addi	x30,x30,1
    41000a14:	fd5ff06f          	j	410009e8 <rvcp_print_test_result+0x16c>
    41000a18:	44ee0f37          	lui	x30,0x44ee0
    41000a1c:	06cf0f1b          	addiw	x30,x30,108 # 44ee006c <rvcp_newline_str_pa>
    41000a20:	000f4283          	lbu	x5,0(x30)
    41000a24:	02028663          	beqz	x5,41000a50 <rvcp_print_test_result+0x1d4>
    41000a28:	1010031b          	addiw	x6,x0,257
    41000a2c:	03031313          	slli	x6,x6,0x30
    41000a30:	005362b3          	or	x5,x6,x5
    41000a34:	0003f317          	auipc	x6,0x3f
    41000a38:	5cc30313          	addi	x6,x6,1484 # 41040000 <tohost>
    41000a3c:	00033383          	ld	x7,0(x6)
    41000a40:	fe039ee3          	bnez	x7,41000a3c <rvcp_print_test_result+0x1c0>
    41000a44:	00533023          	sd	x5,0(x6)
    41000a48:	001f0f13          	addi	x30,x30,1
    41000a4c:	fd5ff06f          	j	41000a20 <rvcp_print_test_result+0x1a4>
    41000a50:	00008067          	ret

0000000041000a54 <os_rng_orig>:
    41000a54:	f14023f3          	csrr	x7,mhartid
    41000a58:	00068313          	mv	x6,x13
    41000a5c:	026383b3          	mul	x7,x7,x6
    41000a60:	00058313          	mv	x6,x11
    41000a64:	00730333          	add	x6,x6,x7
    41000a68:	00033283          	ld	x5,0(x6)
    41000a6c:	01529313          	slli	x6,x5,0x15
    41000a70:	0062c2b3          	xor	x5,x5,x6
    41000a74:	0232d313          	srli	x6,x5,0x23
    41000a78:	0062c2b3          	xor	x5,x5,x6
    41000a7c:	00429313          	slli	x6,x5,0x4
    41000a80:	0062c2b3          	xor	x5,x5,x6
    41000a84:	00058313          	mv	x6,x11
    41000a88:	00730333          	add	x6,x6,x7
    41000a8c:	00533023          	sd	x5,0(x6)
    41000a90:	00060313          	mv	x6,x12
    41000a94:	0262f2b3          	remu	x5,x5,x6
    41000a98:	00028513          	mv	x10,x5
    41000a9c:	00008067          	ret
    41000aa0:	02a00513          	li	x10,42
    41000aa4:	001965b7          	lui	x11,0x196
    41000aa8:	60d5859b          	addiw	x11,x11,1549 # 19660d <SID_HEXCEP_16_fs0_both_stack+0x10460d>
    41000aac:	3c6ef637          	lui	x12,0x3c6ef
    41000ab0:	35f6061b          	addiw	x12,x12,863 # 3c6ef35f <SID_HEXCEP_19_misaligned_amo_delegated_stack+0x1a85d35f>
    41000ab4:	02200693          	li	x13,34
    41000ab8:	02b50533          	mul	x10,x10,x11
    41000abc:	00c50533          	add	x10,x10,x12
    41000ac0:	02d56533          	rem	x10,x10,x13
    41000ac4:	00b00593          	li	x11,11
    41000ac8:	02b56533          	rem	x10,x10,x11
    41000acc:	00008067          	ret

0000000041000ad0 <tohost_mutex>:
	...

0000000041000ad8 <tohost_addr_mem>:
    41000ad8:	0000                	.insn	2, 0x0000
    41000ada:	4104                	.insn	2, 0x4104
    41000adc:	0000                	.insn	2, 0x0000
	...

0000000041000ae0 <eot__end_test>:
    41000ae0:	00100293          	li	x5,1
    41000ae4:	00328463          	beq	x5,x3,41000aec <eot__passed>
    41000ae8:	01c0006f          	j	41000b04 <eot__failed>

0000000041000aec <eot__passed>:
    41000aec:	0ff0000f          	fence
    41000af0:	00000297          	auipc	x5,0x0
    41000af4:	fe82b283          	ld	x5,-24(x5) # 41000ad8 <tohost_addr_mem>
    41000af8:	00100313          	li	x6,1
    41000afc:	0062a023          	sw	x6,0(x5)
    41000b00:	0240006f          	j	41000b24 <eot__halt>

0000000041000b04 <eot__failed>:
    41000b04:	00100513          	li	x10,1
    41000b08:	d75ff0ef          	jal	4100087c <rvcp_print_test_result>
    41000b0c:	0ff0000f          	fence
    41000b10:	00000297          	auipc	x5,0x0
    41000b14:	fc82b283          	ld	x5,-56(x5) # 41000ad8 <tohost_addr_mem>
    41000b18:	00300313          	li	x6,3
    41000b1c:	0062a023          	sw	x6,0(x5)
    41000b20:	0040006f          	j	41000b24 <eot__halt>

0000000041000b24 <eot__halt>:
    41000b24:	10500073          	wfi
    41000b28:	ffdff06f          	j	41000b24 <eot__halt>

0000000041000b2c <scheduler__init>:
    41000b2c:	00000297          	auipc	x5,0x0
    41000b30:	0d428293          	addi	x5,x5,212 # 41000c00 <scheduler__panic>
    41000b34:	305292f3          	csrrw	x5,mtvec,x5
    41000b38:	18523023          	sd	x5,384(x4) # 180 <XLEN+0x140>
    41000b3c:	01b00293          	li	x5,27
    41000b40:	18523823          	sd	x5,400(x4) # 190 <XLEN+0x150>
    41000b44:	0010029b          	addiw	x5,x0,1
    41000b48:	02029293          	slli	x5,x5,0x20
    41000b4c:	ffe28293          	addi	x5,x5,-2
    41000b50:	18523423          	sd	x5,392(x4) # 188 <XLEN+0x148>
    41000b54:	00000317          	auipc	x6,0x0
    41000b58:	58030313          	addi	x6,x6,1408 # 410010d4 <scheduler__test_setup_ptr>
    41000b5c:	00033303          	ld	x6,0(x6)
    41000b60:	0700006f          	j	41000bd0 <scheduler__execute_test>

0000000041000b64 <scheduler__dispatch>:
    41000b64:	00000297          	auipc	x5,0x0
    41000b68:	09c28293          	addi	x5,x5,156 # 41000c00 <scheduler__panic>
    41000b6c:	305292f3          	csrrw	x5,mtvec,x5
    41000b70:	18523023          	sd	x5,384(x4) # 180 <XLEN+0x140>

0000000041000b74 <scheduler__csr_read_randomization>:
    41000b74:	144022f3          	csrr	x5,sip
    41000b78:	140022f3          	csrr	x5,sscratch
    41000b7c:	303022f3          	csrr	x5,mideleg
    41000b80:	f14022f3          	csrr	x5,mhartid
    41000b84:	143022f3          	csrr	x5,stval
    41000b88:	304022f3          	csrr	x5,mie
    41000b8c:	141022f3          	csrr	x5,sepc
    41000b90:	106022f3          	csrr	x5,scounteren

0000000041000b94 <scheduler__load_num_runs>:
    41000b94:	19023303          	ld	x6,400(x4) # 190 <XLEN+0x150>
    41000b98:	06030063          	beqz	x6,41000bf8 <scheduler__finished>

0000000041000b9c <scheduler__decrement_num_runs>:
    41000b9c:	fff30393          	addi	x7,x6,-1
    41000ba0:	18723823          	sd	x7,400(x4) # 190 <XLEN+0x150>
    41000ba4:	00000e17          	auipc	x28,0x0
    41000ba8:	4c0e0e13          	addi	x28,x28,1216 # 41001064 <dtest_index_map>
    41000bac:	00239e93          	slli	x29,x7,0x2
    41000bb0:	01de0e33          	add	x28,x28,x29
    41000bb4:	000e2e03          	lw	x28,0(x28)
    41000bb8:	19c23423          	sd	x28,392(x4) # 188 <XLEN+0x148>

0000000041000bbc <scheduler__calc_test_pointer>:
    41000bbc:	00339293          	slli	x5,x7,0x3

0000000041000bc0 <scheduler__load_test_addr>:
    41000bc0:	00000317          	auipc	x6,0x0
    41000bc4:	05430313          	addi	x6,x6,84 # 41000c14 <os_test_sequence>
    41000bc8:	006282b3          	add	x5,x5,x6
    41000bcc:	0002b303          	ld	x6,0(x5)

0000000041000bd0 <scheduler__execute_test>:
    41000bd0:	18023283          	ld	x5,384(x4) # 180 <XLEN+0x140>
    41000bd4:	30529073          	csrw	mtvec,x5
    41000bd8:	34021273          	csrrw	x4,mscratch,x4
    41000bdc:	00000213          	li	x4,0
    41000be0:	14131073          	csrw	sepc,x6
    41000be4:	10000293          	li	x5,256
    41000be8:	1002b073          	csrc	sstatus,x5
    41000bec:	08000093          	li	x1,128
    41000bf0:	6000a073          	csrs	hstatus,x1
    41000bf4:	10200073          	sret

0000000041000bf8 <scheduler__finished>:
    41000bf8:	00100193          	li	x3,1
    41000bfc:	ee5ff06f          	j	41000ae0 <eot__end_test>

0000000041000c00 <scheduler__panic>:
    41000c00:	00000193          	li	x3,0
    41000c04:	eddff06f          	j	41000ae0 <eot__end_test>
    41000c08:	0000                	.insn	2, 0x0000
	...

0000000041000c0c <num_runs>:
    41000c0c:	0000001b          	sext.w	x0,x0
    41000c10:	0000                	.insn	2, 0x0000
	...

0000000041000c14 <os_test_sequence>:
    41000c14:	c920                	.insn	2, 0xc920
    41000c16:	4101                	.insn	2, 0x4101
    41000c18:	0000                	.insn	2, 0x0000
    41000c1a:	0000                	.insn	2, 0x0000
    41000c1c:	8588                	.insn	2, 0x8588
    41000c1e:	4101                	.insn	2, 0x4101
    41000c20:	0000                	.insn	2, 0x0000
    41000c22:	0000                	.insn	2, 0x0000
    41000c24:	bd44                	.insn	2, 0xbd44
    41000c26:	4101                	.insn	2, 0x4101
    41000c28:	0000                	.insn	2, 0x0000
    41000c2a:	0000                	.insn	2, 0x0000
    41000c2c:	b838                	.insn	2, 0xb838
    41000c2e:	4101                	.insn	2, 0x4101
    41000c30:	0000                	.insn	2, 0x0000
    41000c32:	0000                	.insn	2, 0x0000
    41000c34:	b4d8                	.insn	2, 0xb4d8
    41000c36:	4101                	.insn	2, 0x4101
    41000c38:	0000                	.insn	2, 0x0000
    41000c3a:	0000                	.insn	2, 0x0000
    41000c3c:	5160                	.insn	2, 0x5160
    41000c3e:	4101                	.insn	2, 0x4101
    41000c40:	0000                	.insn	2, 0x0000
    41000c42:	0000                	.insn	2, 0x0000
    41000c44:	c28c                	.insn	2, 0xc28c
    41000c46:	4101                	.insn	2, 0x4101
    41000c48:	0000                	.insn	2, 0x0000
    41000c4a:	0000                	.insn	2, 0x0000
    41000c4c:	9700                	.insn	2, 0x9700
    41000c4e:	4101                	.insn	2, 0x4101
    41000c50:	0000                	.insn	2, 0x0000
    41000c52:	0000                	.insn	2, 0x0000
    41000c54:	abd0                	.insn	2, 0xabd0
    41000c56:	4101                	.insn	2, 0x4101
    41000c58:	0000                	.insn	2, 0x0000
    41000c5a:	0000                	.insn	2, 0x0000
    41000c5c:	b32c                	.insn	2, 0xb32c
    41000c5e:	4101                	.insn	2, 0x4101
    41000c60:	0000                	.insn	2, 0x0000
    41000c62:	0000                	.insn	2, 0x0000
    41000c64:	b68c                	.insn	2, 0xb68c
    41000c66:	4101                	.insn	2, 0x4101
    41000c68:	0000                	.insn	2, 0x0000
    41000c6a:	0000                	.insn	2, 0x0000
    41000c6c:	bb98                	.insn	2, 0xbb98
    41000c6e:	4101                	.insn	2, 0x4101
    41000c70:	0000                	.insn	2, 0x0000
    41000c72:	0000                	.insn	2, 0x0000
    41000c74:	c0f4                	.insn	2, 0xc0f4
    41000c76:	4101                	.insn	2, 0x4101
    41000c78:	0000                	.insn	2, 0x0000
    41000c7a:	0000                	.insn	2, 0x0000
    41000c7c:	af70                	.insn	2, 0xaf70
    41000c7e:	4101                	.insn	2, 0x4101
    41000c80:	0000                	.insn	2, 0x0000
    41000c82:	0000                	.insn	2, 0x0000
    41000c84:	b9ec                	.insn	2, 0xb9ec
    41000c86:	4101                	.insn	2, 0x4101
    41000c88:	0000                	.insn	2, 0x0000
    41000c8a:	0000                	.insn	2, 0x0000
    41000c8c:	ae40                	.insn	2, 0xae40
    41000c8e:	4101                	.insn	2, 0x4101
    41000c90:	0000                	.insn	2, 0x0000
    41000c92:	0000                	.insn	2, 0x0000
    41000c94:	b01c                	.insn	2, 0xb01c
    41000c96:	4101                	.insn	2, 0x4101
    41000c98:	0000                	.insn	2, 0x0000
    41000c9a:	0000                	.insn	2, 0x0000
    41000c9c:	bf64                	.insn	2, 0xbf64
    41000c9e:	4101                	.insn	2, 0x4101
    41000ca0:	0000                	.insn	2, 0x0000
    41000ca2:	0000                	.insn	2, 0x0000
    41000ca4:	c6f0                	.insn	2, 0xc6f0
    41000ca6:	4101                	.insn	2, 0x4101
    41000ca8:	0000                	.insn	2, 0x0000
    41000caa:	0000                	.insn	2, 0x0000
    41000cac:	ab38                	.insn	2, 0xab38
    41000cae:	4101                	.insn	2, 0x4101
    41000cb0:	0000                	.insn	2, 0x0000
    41000cb2:	0000                	.insn	2, 0x0000
    41000cb4:	ad00                	.insn	2, 0xad00
    41000cb6:	4101                	.insn	2, 0x4101
    41000cb8:	0000                	.insn	2, 0x0000
    41000cba:	0000                	.insn	2, 0x0000
    41000cbc:	ada0                	.insn	2, 0xada0
    41000cbe:	4101                	.insn	2, 0x4101
    41000cc0:	0000                	.insn	2, 0x0000
    41000cc2:	0000                	.insn	2, 0x0000
    41000cc4:	a870                	.insn	2, 0xa870
    41000cc6:	4101                	.insn	2, 0x4101
    41000cc8:	0000                	.insn	2, 0x0000
    41000cca:	0000                	.insn	2, 0x0000
    41000ccc:	aed8                	.insn	2, 0xaed8
    41000cce:	4101                	.insn	2, 0x4101
    41000cd0:	0000                	.insn	2, 0x0000
    41000cd2:	0000                	.insn	2, 0x0000
    41000cd4:	c4bc                	.insn	2, 0xc4bc
    41000cd6:	4101                	.insn	2, 0x4101
    41000cd8:	0000                	.insn	2, 0x0000
    41000cda:	0000                	.insn	2, 0x0000
    41000cdc:	7418                	.insn	2, 0x7418
    41000cde:	4101                	.insn	2, 0x4101
    41000ce0:	0000                	.insn	2, 0x0000
    41000ce2:	0000                	.insn	2, 0x0000
    41000ce4:	6884                	.insn	2, 0x6884
    41000ce6:	4101                	.insn	2, 0x4101
    41000ce8:	0000                	.insn	2, 0x0000
	...

0000000041000cec <dtest_descriptor_table>:
    41000cec:	0dbc                	.insn	2, 0x0dbc
    41000cee:	4100                	.insn	2, 0x4100
    41000cf0:	0000                	.insn	2, 0x0000
    41000cf2:	0000                	.insn	2, 0x0000
    41000cf4:	0dca                	.insn	2, 0x0dca
    41000cf6:	4100                	.insn	2, 0x4100
    41000cf8:	0000                	.insn	2, 0x0000
    41000cfa:	0000                	.insn	2, 0x0000
    41000cfc:	0dd8                	.insn	2, 0x0dd8
    41000cfe:	4100                	.insn	2, 0x4100
    41000d00:	0000                	.insn	2, 0x0000
    41000d02:	0000                	.insn	2, 0x0000
    41000d04:	0df4                	.insn	2, 0x0df4
    41000d06:	4100                	.insn	2, 0x4100
    41000d08:	0000                	.insn	2, 0x0000
    41000d0a:	0000                	.insn	2, 0x0000
    41000d0c:	0e10                	.insn	2, 0x0e10
    41000d0e:	4100                	.insn	2, 0x4100
    41000d10:	0000                	.insn	2, 0x0000
    41000d12:	0000                	.insn	2, 0x0000
    41000d14:	0e2c                	.insn	2, 0x0e2c
    41000d16:	4100                	.insn	2, 0x4100
    41000d18:	0000                	.insn	2, 0x0000
    41000d1a:	0000                	.insn	2, 0x0000
    41000d1c:	0e3a                	.insn	2, 0x0e3a
    41000d1e:	4100                	.insn	2, 0x4100
    41000d20:	0000                	.insn	2, 0x0000
    41000d22:	0000                	.insn	2, 0x0000
    41000d24:	0e56                	.insn	2, 0x0e56
    41000d26:	4100                	.insn	2, 0x4100
    41000d28:	0000                	.insn	2, 0x0000
    41000d2a:	0000                	.insn	2, 0x0000
    41000d2c:	41000e6b          	.insn	4, 0x41000e6b
    41000d30:	0000                	.insn	2, 0x0000
    41000d32:	0000                	.insn	2, 0x0000
    41000d34:	0e81                	.insn	2, 0x0e81
    41000d36:	4100                	.insn	2, 0x4100
    41000d38:	0000                	.insn	2, 0x0000
    41000d3a:	0000                	.insn	2, 0x0000
    41000d3c:	0e9d                	.insn	2, 0x0e9d
    41000d3e:	4100                	.insn	2, 0x4100
    41000d40:	0000                	.insn	2, 0x0000
    41000d42:	0000                	.insn	2, 0x0000
    41000d44:	0eba                	.insn	2, 0x0eba
    41000d46:	4100                	.insn	2, 0x4100
    41000d48:	0000                	.insn	2, 0x0000
    41000d4a:	0000                	.insn	2, 0x0000
    41000d4c:	41000ed7          	vadc.vvm	v29,v16,v0,v0
    41000d50:	0000                	.insn	2, 0x0000
    41000d52:	0000                	.insn	2, 0x0000
    41000d54:	41000ef3          	.insn	4, 0x41000ef3
    41000d58:	0000                	.insn	2, 0x0000
    41000d5a:	0000                	.insn	2, 0x0000
    41000d5c:	0f01                	.insn	2, 0x0f01
    41000d5e:	4100                	.insn	2, 0x4100
    41000d60:	0000                	.insn	2, 0x0000
    41000d62:	0000                	.insn	2, 0x0000
    41000d64:	0f18                	.insn	2, 0x0f18
    41000d66:	4100                	.insn	2, 0x4100
    41000d68:	0000                	.insn	2, 0x0000
    41000d6a:	0000                	.insn	2, 0x0000
    41000d6c:	41000f33          	neg	x30,x16
    41000d70:	0000                	.insn	2, 0x0000
    41000d72:	0000                	.insn	2, 0x0000
    41000d74:	0f4d                	.insn	2, 0x0f4d
    41000d76:	4100                	.insn	2, 0x4100
    41000d78:	0000                	.insn	2, 0x0000
    41000d7a:	0000                	.insn	2, 0x0000
    41000d7c:	0f64                	.insn	2, 0x0f64
    41000d7e:	4100                	.insn	2, 0x4100
    41000d80:	0000                	.insn	2, 0x0000
    41000d82:	0000                	.insn	2, 0x0000
    41000d84:	0f7f 4100 0000 0000 	.insn	10, 0x0f990000000041000f7f
    41000d8c:	0f99 
    41000d8e:	4100                	.insn	2, 0x4100
    41000d90:	0000                	.insn	2, 0x0000
    41000d92:	0000                	.insn	2, 0x0000
    41000d94:	0fb6                	.insn	2, 0x0fb6
    41000d96:	4100                	.insn	2, 0x4100
    41000d98:	0000                	.insn	2, 0x0000
    41000d9a:	0000                	.insn	2, 0x0000
    41000d9c:	0fd2                	.insn	2, 0x0fd2
    41000d9e:	4100                	.insn	2, 0x4100
    41000da0:	0000                	.insn	2, 0x0000
    41000da2:	0000                	.insn	2, 0x0000
    41000da4:	0fee                	.insn	2, 0x0fee
    41000da6:	4100                	.insn	2, 0x4100
    41000da8:	0000                	.insn	2, 0x0000
    41000daa:	0000                	.insn	2, 0x0000
    41000dac:	1015                	.insn	2, 0x1015
    41000dae:	4100                	.insn	2, 0x4100
    41000db0:	0000                	.insn	2, 0x0000
    41000db2:	0000                	.insn	2, 0x0000
    41000db4:	4100103b          	.insn	4, 0x4100103b
    41000db8:	0000                	.insn	2, 0x0000
	...

0000000041000dbc <dtest_name_0>:
    41000dbc:	5f444953          	.insn	4, 0x5f444953
    41000dc0:	4548                	.insn	2, 0x4548
    41000dc2:	4358                	.insn	2, 0x4358
    41000dc4:	5045                	.insn	2, 0x5045
    41000dc6:	305f 0035       	.insn	6, 0x49530035305f

0000000041000dca <dtest_name_1>:
    41000dca:	5f444953          	.insn	4, 0x5f444953
    41000dce:	4548                	.insn	2, 0x4548
    41000dd0:	4358                	.insn	2, 0x4358
    41000dd2:	5045                	.insn	2, 0x5045
    41000dd4:	305f 0036       	.insn	6, 0x49530036305f

0000000041000dd8 <dtest_name_2>:
    41000dd8:	5f444953          	.insn	4, 0x5f444953
    41000ddc:	4548                	.insn	2, 0x4548
    41000dde:	4358                	.insn	2, 0x4358
    41000de0:	5045                	.insn	2, 0x5045
    41000de2:	305f 5f37 7576      	.insn	6, 0x75765f37305f
    41000de8:	6d5f 646f 5f65      	.insn	6, 0x5f65646f6d5f
    41000dee:	65736163          	bltu	x6,x23,41001430 <scheduler__test_cleanup_ptr+0x354>
    41000df2:	0031                	.insn	2, 0x0031

0000000041000df4 <dtest_name_3>:
    41000df4:	5f444953          	.insn	4, 0x5f444953
    41000df8:	4548                	.insn	2, 0x4548
    41000dfa:	4358                	.insn	2, 0x4358
    41000dfc:	5045                	.insn	2, 0x5045
    41000dfe:	305f 5f37 7576      	.insn	6, 0x75765f37305f
    41000e04:	6d5f 646f 5f65      	.insn	6, 0x5f65646f6d5f
    41000e0a:	65736163          	bltu	x6,x23,4100144c <scheduler__test_cleanup_ptr+0x370>
    41000e0e:	0032                	.insn	2, 0x0032

0000000041000e10 <dtest_name_4>:
    41000e10:	5f444953          	.insn	4, 0x5f444953
    41000e14:	4548                	.insn	2, 0x4548
    41000e16:	4358                	.insn	2, 0x4358
    41000e18:	5045                	.insn	2, 0x5045
    41000e1a:	305f 5f37 7576      	.insn	6, 0x75765f37305f
    41000e20:	6d5f 646f 5f65      	.insn	6, 0x5f65646f6d5f
    41000e26:	65736163          	bltu	x6,x23,41001468 <scheduler__test_cleanup_ptr+0x38c>
    41000e2a:	          	.insn	4, 0x49530033

0000000041000e2c <dtest_name_5>:
    41000e2c:	5f444953          	.insn	4, 0x5f444953
    41000e30:	4548                	.insn	2, 0x4548
    41000e32:	4358                	.insn	2, 0x4358
    41000e34:	5045                	.insn	2, 0x5045
    41000e36:	305f 0038       	.insn	6, 0x49530038305f

0000000041000e3a <dtest_name_6>:
    41000e3a:	5f444953          	.insn	4, 0x5f444953
    41000e3e:	4548                	.insn	2, 0x4548
    41000e40:	4358                	.insn	2, 0x4358
    41000e42:	5045                	.insn	2, 0x5045
    41000e44:	305f 5f39 726d      	.insn	6, 0x726d5f39305f
    41000e4a:	7465                	.insn	2, 0x7465
    41000e4c:	695f 5f6e 7376      	.insn	6, 0x73765f6e695f
    41000e52:	765f 0075       	.insn	6, 0x49530075765f

0000000041000e56 <dtest_name_7>:
    41000e56:	5f444953          	.insn	4, 0x5f444953
    41000e5a:	4548                	.insn	2, 0x4548
    41000e5c:	4358                	.insn	2, 0x4358
    41000e5e:	5045                	.insn	2, 0x5045
    41000e60:	305f 5f39 6677      	.insn	6, 0x66775f39305f
    41000e66:	5f69                	.insn	2, 0x5f69
    41000e68:	7576                	.insn	2, 0x7576
	...

0000000041000e6b <dtest_name_8>:
    41000e6b:	5f444953          	.insn	4, 0x5f444953
    41000e6f:	4548                	.insn	2, 0x4548
    41000e71:	4358                	.insn	2, 0x4358
    41000e73:	5045                	.insn	2, 0x5045
    41000e75:	305f 5f39 7273      	.insn	6, 0x72735f39305f
    41000e7b:	7465                	.insn	2, 0x7465
    41000e7d:	765f 0075       	.insn	6, 0x49530075765f

0000000041000e81 <dtest_name_9>:
    41000e81:	5f444953          	.insn	4, 0x5f444953
    41000e85:	4548                	.insn	2, 0x4548
    41000e87:	4358                	.insn	2, 0x4358
    41000e89:	5045                	.insn	2, 0x5045
    41000e8b:	305f 5f39 6673      	.insn	6, 0x66735f39305f
    41000e91:	6e65                	.insn	2, 0x6e65
    41000e93:	765f6563          	bltu	x30,x5,410015fd <scheduler__test_cleanup_ptr+0x521>
    41000e97:	616d                	.insn	2, 0x616d
    41000e99:	765f 0075       	.insn	6, 0x49530075765f

0000000041000e9d <dtest_name_10>:
    41000e9d:	5f444953          	.insn	4, 0x5f444953
    41000ea1:	4548                	.insn	2, 0x4548
    41000ea3:	4358                	.insn	2, 0x4358
    41000ea5:	5045                	.insn	2, 0x5045
    41000ea7:	305f 5f39 6968      	.insn	6, 0x69685f39305f
    41000ead:	766e                	.insn	2, 0x766e
    41000eaf:	6c61                	.insn	2, 0x6c61
    41000eb1:	765f 6d76 5f61      	.insn	6, 0x5f616d76765f
    41000eb7:	7576                	.insn	2, 0x7576
	...

0000000041000eba <dtest_name_11>:
    41000eba:	5f444953          	.insn	4, 0x5f444953
    41000ebe:	4548                	.insn	2, 0x4548
    41000ec0:	4358                	.insn	2, 0x4358
    41000ec2:	5045                	.insn	2, 0x5045
    41000ec4:	305f 5f39 6968      	.insn	6, 0x69685f39305f
    41000eca:	766e                	.insn	2, 0x766e
    41000ecc:	6c61                	.insn	2, 0x6c61
    41000ece:	675f 6d76 5f61      	.insn	6, 0x5f616d76675f
    41000ed4:	7576                	.insn	2, 0x7576
	...

0000000041000ed7 <dtest_name_12>:
    41000ed7:	5f444953          	.insn	4, 0x5f444953
    41000edb:	4548                	.insn	2, 0x4548
    41000edd:	4358                	.insn	2, 0x4358
    41000edf:	5045                	.insn	2, 0x5045
    41000ee1:	305f 5f39 6973      	.insn	6, 0x69735f39305f
    41000ee7:	766e                	.insn	2, 0x766e
    41000ee9:	6c61                	.insn	2, 0x6c61
    41000eeb:	765f 616d 765f      	.insn	6, 0x765f616d765f
    41000ef1:	0075                	.insn	2, 0x0075

0000000041000ef3 <dtest_name_13>:
    41000ef3:	5f444953          	.insn	4, 0x5f444953
    41000ef7:	4548                	.insn	2, 0x4548
    41000ef9:	4358                	.insn	2, 0x4358
    41000efb:	5045                	.insn	2, 0x5045
    41000efd:	315f 0031       	.insn	6, 0x49530031315f

0000000041000f01 <dtest_name_14>:
    41000f01:	5f444953          	.insn	4, 0x5f444953
    41000f05:	4548                	.insn	2, 0x4548
    41000f07:	4358                	.insn	2, 0x4358
    41000f09:	5045                	.insn	2, 0x5045
    41000f0b:	315f 5f36 7366      	.insn	6, 0x73665f36315f
    41000f11:	5f30                	.insn	2, 0x5f30
    41000f13:	6f62                	.insn	2, 0x6f62
    41000f15:	6874                	.insn	2, 0x6874
	...

0000000041000f18 <dtest_name_15>:
    41000f18:	5f444953          	.insn	4, 0x5f444953
    41000f1c:	4548                	.insn	2, 0x4548
    41000f1e:	4358                	.insn	2, 0x4358
    41000f20:	5045                	.insn	2, 0x5045
    41000f22:	315f 5f36 7376      	.insn	6, 0x73765f36315f
    41000f28:	74617473          	csrrci	x8,0x746,2
    41000f2c:	7375                	.insn	2, 0x7375
    41000f2e:	665f 3073       	.insn	6, 0x53003073665f

0000000041000f33 <dtest_name_16>:
    41000f33:	5f444953          	.insn	4, 0x5f444953
    41000f37:	4548                	.insn	2, 0x4548
    41000f39:	4358                	.insn	2, 0x4358
    41000f3b:	5045                	.insn	2, 0x5045
    41000f3d:	315f 5f36 7373      	.insn	6, 0x73735f36315f
    41000f43:	6174                	.insn	2, 0x6174
    41000f45:	7574                	.insn	2, 0x7574
    41000f47:	73665f73          	csrrwi	x30,mhpmevent22h,12
    41000f4b:	0030                	.insn	2, 0x0030

0000000041000f4d <dtest_name_17>:
    41000f4d:	5f444953          	.insn	4, 0x5f444953
    41000f51:	4548                	.insn	2, 0x4548
    41000f53:	4358                	.insn	2, 0x4358
    41000f55:	5045                	.insn	2, 0x5045
    41000f57:	315f 5f37 7376      	.insn	6, 0x73765f37315f
    41000f5d:	5f30                	.insn	2, 0x5f30
    41000f5f:	6f62                	.insn	2, 0x6f62
    41000f61:	6874                	.insn	2, 0x6874
	...

0000000041000f64 <dtest_name_18>:
    41000f64:	5f444953          	.insn	4, 0x5f444953
    41000f68:	4548                	.insn	2, 0x4548
    41000f6a:	4358                	.insn	2, 0x4358
    41000f6c:	5045                	.insn	2, 0x5045
    41000f6e:	315f 5f37 7376      	.insn	6, 0x73765f37315f
    41000f74:	74617473          	csrrci	x8,0x746,2
    41000f78:	7375                	.insn	2, 0x7375
    41000f7a:	765f 3073       	.insn	6, 0x53003073765f

0000000041000f7f <dtest_name_19>:
    41000f7f:	5f444953          	.insn	4, 0x5f444953
    41000f83:	4548                	.insn	2, 0x4548
    41000f85:	4358                	.insn	2, 0x4358
    41000f87:	5045                	.insn	2, 0x5045
    41000f89:	315f 5f37 7373      	.insn	6, 0x73735f37315f
    41000f8f:	6174                	.insn	2, 0x6174
    41000f91:	7574                	.insn	2, 0x7574
    41000f93:	73765f73          	csrrwi	x30,mhpmevent23h,12
    41000f97:	0030                	.insn	2, 0x0030

0000000041000f99 <dtest_name_20>:
    41000f99:	5f444953          	.insn	4, 0x5f444953
    41000f9d:	4548                	.insn	2, 0x4548
    41000f9f:	4358                	.insn	2, 0x4358
    41000fa1:	5045                	.insn	2, 0x5045
    41000fa3:	315f 5f39 696d      	.insn	6, 0x696d5f39315f
    41000fa9:	696c6173          	csrrsi	x2,0x696,24
    41000fad:	64656e67          	.insn	4, 0x64656e67
    41000fb1:	615f 6f6d       	.insn	6, 0x53006f6d615f

0000000041000fb6 <dtest_name_21>:
    41000fb6:	5f444953          	.insn	4, 0x5f444953
    41000fba:	4548                	.insn	2, 0x4548
    41000fbc:	4358                	.insn	2, 0x4358
    41000fbe:	5045                	.insn	2, 0x5045
    41000fc0:	315f 5f39 696d      	.insn	6, 0x696d5f39315f
    41000fc6:	696c6173          	csrrsi	x2,0x696,24
    41000fca:	64656e67          	.insn	4, 0x64656e67
    41000fce:	6c5f 0072       	.insn	6, 0x495300726c5f

0000000041000fd2 <dtest_name_22>:
    41000fd2:	5f444953          	.insn	4, 0x5f444953
    41000fd6:	4548                	.insn	2, 0x4548
    41000fd8:	4358                	.insn	2, 0x4358
    41000fda:	5045                	.insn	2, 0x5045
    41000fdc:	315f 5f39 696d      	.insn	6, 0x696d5f39315f
    41000fe2:	696c6173          	csrrsi	x2,0x696,24
    41000fe6:	64656e67          	.insn	4, 0x64656e67
    41000fea:	735f 0063       	.insn	6, 0x49530063735f

0000000041000fee <dtest_name_23>:
    41000fee:	5f444953          	.insn	4, 0x5f444953
    41000ff2:	4548                	.insn	2, 0x4548
    41000ff4:	4358                	.insn	2, 0x4358
    41000ff6:	5045                	.insn	2, 0x5045
    41000ff8:	315f 5f39 696d      	.insn	6, 0x696d5f39315f
    41000ffe:	696c6173          	csrrsi	x2,0x696,24
    41001002:	64656e67          	.insn	4, 0x64656e67
    41001006:	615f 6f6d 645f      	.insn	6, 0x645f6f6d615f
    4100100c:	6c65                	.insn	2, 0x6c65
    4100100e:	6765                	.insn	2, 0x6765
    41001010:	7461                	.insn	2, 0x7461
    41001012:	6465                	.insn	2, 0x6465
	...

0000000041001015 <dtest_name_24>:
    41001015:	5f444953          	.insn	4, 0x5f444953
    41001019:	4548                	.insn	2, 0x4548
    4100101b:	4358                	.insn	2, 0x4358
    4100101d:	5045                	.insn	2, 0x5045
    4100101f:	315f 5f39 696d      	.insn	6, 0x696d5f39315f
    41001025:	696c6173          	csrrsi	x2,0x696,24
    41001029:	64656e67          	.insn	4, 0x64656e67
    4100102d:	6c5f 5f72 6564      	.insn	6, 0x65645f726c5f
    41001033:	656c                	.insn	2, 0x656c
    41001035:	65746167          	.insn	4, 0x65746167
    41001039:	0064                	.insn	2, 0x0064

000000004100103b <dtest_name_25>:
    4100103b:	5f444953          	.insn	4, 0x5f444953
    4100103f:	4548                	.insn	2, 0x4548
    41001041:	4358                	.insn	2, 0x4358
    41001043:	5045                	.insn	2, 0x5045
    41001045:	315f 5f39 696d      	.insn	6, 0x696d5f39315f
    4100104b:	696c6173          	csrrsi	x2,0x696,24
    4100104f:	64656e67          	.insn	4, 0x64656e67
    41001053:	735f 5f63 6564      	.insn	6, 0x65645f63735f
    41001059:	656c                	.insn	2, 0x656c
    4100105b:	65746167          	.insn	4, 0x65746167
    4100105f:	0064                	.insn	2, 0x0064
    41001061:	0000                	.insn	2, 0x0000
	...

0000000041001064 <dtest_index_map>:
    41001064:	ffff                	.insn	2, 0xffff
    41001066:	ffff                	.insn	2, 0xffff
    41001068:	00000003          	lb	x0,0(x0) # 0 <ALL_4KB_PAGES>
    4100106c:	0014                	.insn	2, 0x0014
    4100106e:	0000                	.insn	2, 0x0000
    41001070:	0011                	.insn	2, 0x0011
    41001072:	0000                	.insn	2, 0x0000
    41001074:	0000000f          	fence	unknown,unknown
    41001078:	0000                	.insn	2, 0x0000
    4100107a:	0000                	.insn	2, 0x0000
    4100107c:	00000017          	auipc	x0,0x0
    41001080:	0004                	.insn	2, 0x0004
    41001082:	0000                	.insn	2, 0x0000
    41001084:	00000007          	vle8.v	v0,(x0),v0.t
    41001088:	000e                	.insn	2, 0x000e
    4100108a:	0000                	.insn	2, 0x0000
    4100108c:	0010                	.insn	2, 0x0010
    4100108e:	0000                	.insn	2, 0x0000
    41001090:	00000013          	nop
    41001094:	0016                	.insn	2, 0x0016
    41001096:	0000                	.insn	2, 0x0000
    41001098:	000c                	.insn	2, 0x000c
    4100109a:	0000                	.insn	2, 0x0000
    4100109c:	0012                	.insn	2, 0x0012
    4100109e:	0000                	.insn	2, 0x0000
    410010a0:	000a                	.insn	2, 0x000a
    410010a2:	0000                	.insn	2, 0x0000
    410010a4:	000d                	.insn	2, 0x000d
    410010a6:	0000                	.insn	2, 0x0000
    410010a8:	0015                	.insn	2, 0x0015
    410010aa:	0000                	.insn	2, 0x0000
    410010ac:	0019                	.insn	2, 0x0019
    410010ae:	0000                	.insn	2, 0x0000
    410010b0:	0006                	.insn	2, 0x0006
    410010b2:	0000                	.insn	2, 0x0000
    410010b4:	0008                	.insn	2, 0x0008
    410010b6:	0000                	.insn	2, 0x0000
    410010b8:	0009                	.insn	2, 0x0009
    410010ba:	0000                	.insn	2, 0x0000
    410010bc:	0005                	.insn	2, 0x0005
    410010be:	0000                	.insn	2, 0x0000
    410010c0:	0000000b          	.insn	4, 0x000b
    410010c4:	0018                	.insn	2, 0x0018
    410010c6:	0000                	.insn	2, 0x0000
    410010c8:	0002                	.insn	2, 0x0002
    410010ca:	0000                	.insn	2, 0x0000
    410010cc:	0001                	.insn	2, 0x0001
    410010ce:	0000                	.insn	2, 0x0000
    410010d0:	0000                	.insn	2, 0x0000
	...

00000000410010d4 <scheduler__test_setup_ptr>:
    410010d4:	5150                	.insn	2, 0x5150
    410010d6:	4101                	.insn	2, 0x4101
    410010d8:	0000                	.insn	2, 0x0000
	...

00000000410010dc <scheduler__test_cleanup_ptr>:
    410010dc:	c920                	.insn	2, 0xc920
    410010de:	4101                	.insn	2, 0x4101
    410010e0:	0000                	.insn	2, 0x0000
	...

Disassembly of section .runtime_s:

0000000041011000 <trap_handler_s__invalid_interrupt>:
    41011000:	1740006f          	j	41011174 <trap_handler_s__test_failed>

0000000041011004 <trap_handler_s__clear_all_interrupts>:
    41011004:	14401073          	csrw	sip,x0
    41011008:	10200073          	sret

000000004101100c <trap_handler_s___CLEAR_SSI>:
    4101100c:	00200293          	li	x5,2
    41011010:	1442b073          	csrc	sip,x5
    41011014:	10200073          	sret

0000000041011018 <trap_handler_s___CLEAR_MSI>:
    41011018:	00800293          	li	x5,8
    4101101c:	1442b073          	csrc	sip,x5
    41011020:	10200073          	sret

0000000041011024 <trap_handler_s___CLEAR_STI>:
    41011024:	02000293          	li	x5,32
    41011028:	1442b073          	csrc	sip,x5
    4101102c:	10200073          	sret

0000000041011030 <trap_handler_s___CLEAR_MTI>:
    41011030:	08000293          	li	x5,128
    41011034:	1442b073          	csrc	sip,x5
    41011038:	10200073          	sret

000000004101103c <trap_handler_s___CLEAR_SEI>:
    4101103c:	20000293          	li	x5,512
    41011040:	1442b073          	csrc	sip,x5
    41011044:	10200073          	sret

0000000041011048 <trap_handler_s___CLEAR_MEI>:
    41011048:	000012b7          	lui	x5,0x1
    4101104c:	8002829b          	addiw	x5,x5,-2048 # 800 <XLEN+0x7c0>
    41011050:	1442b073          	csrc	sip,x5
    41011054:	10200073          	sret

0000000041011058 <trap_handler_s___CLEAR_COI>:
    41011058:	000022b7          	lui	x5,0x2
    4101105c:	1442b073          	csrc	sip,x5
    41011060:	10200073          	sret

0000000041011064 <trap_handler_s__clear_highest_priority_interrupt>:
    41011064:	144022f3          	csrr	x5,sip
    41011068:	40500333          	neg	x6,x5
    4101106c:	0062f2b3          	and	x5,x5,x6
    41011070:	1442b073          	csrc	sip,x5
    41011074:	10200073          	sret

0000000041011078 <trap_handler_s__trap_entry>:
    41011078:	10c0006f          	j	41011184 <trap_handler_s__trap_handler>

000000004101107c <trap_handler_s__interrupt_vector_table>:
    4101107c:	f91ff06f          	j	4101100c <trap_handler_s___CLEAR_SSI>
    41011080:	f81ff06f          	j	41011000 <trap_handler_s__invalid_interrupt>
    41011084:	f95ff06f          	j	41011018 <trap_handler_s___CLEAR_MSI>
    41011088:	f79ff06f          	j	41011000 <trap_handler_s__invalid_interrupt>
    4101108c:	f99ff06f          	j	41011024 <trap_handler_s___CLEAR_STI>
    41011090:	f71ff06f          	j	41011000 <trap_handler_s__invalid_interrupt>
    41011094:	f9dff06f          	j	41011030 <trap_handler_s___CLEAR_MTI>
    41011098:	f69ff06f          	j	41011000 <trap_handler_s__invalid_interrupt>
    4101109c:	fa1ff06f          	j	4101103c <trap_handler_s___CLEAR_SEI>
    410110a0:	f61ff06f          	j	41011000 <trap_handler_s__invalid_interrupt>
    410110a4:	fa5ff06f          	j	41011048 <trap_handler_s___CLEAR_MEI>
    410110a8:	f59ff06f          	j	41011000 <trap_handler_s__invalid_interrupt>
    410110ac:	fadff06f          	j	41011058 <trap_handler_s___CLEAR_COI>
    410110b0:	f51ff06f          	j	41011000 <trap_handler_s__invalid_interrupt>
    410110b4:	f4dff06f          	j	41011000 <trap_handler_s__invalid_interrupt>
    410110b8:	fadff06f          	j	41011064 <trap_handler_s__clear_highest_priority_interrupt>
    410110bc:	fa9ff06f          	j	41011064 <trap_handler_s__clear_highest_priority_interrupt>
    410110c0:	fa5ff06f          	j	41011064 <trap_handler_s__clear_highest_priority_interrupt>
    410110c4:	fa1ff06f          	j	41011064 <trap_handler_s__clear_highest_priority_interrupt>
    410110c8:	f9dff06f          	j	41011064 <trap_handler_s__clear_highest_priority_interrupt>
    410110cc:	f99ff06f          	j	41011064 <trap_handler_s__clear_highest_priority_interrupt>
    410110d0:	f95ff06f          	j	41011064 <trap_handler_s__clear_highest_priority_interrupt>
    410110d4:	f91ff06f          	j	41011064 <trap_handler_s__clear_highest_priority_interrupt>
    410110d8:	f8dff06f          	j	41011064 <trap_handler_s__clear_highest_priority_interrupt>
    410110dc:	f89ff06f          	j	41011064 <trap_handler_s__clear_highest_priority_interrupt>
    410110e0:	f85ff06f          	j	41011064 <trap_handler_s__clear_highest_priority_interrupt>
    410110e4:	f81ff06f          	j	41011064 <trap_handler_s__clear_highest_priority_interrupt>
    410110e8:	f7dff06f          	j	41011064 <trap_handler_s__clear_highest_priority_interrupt>
    410110ec:	f79ff06f          	j	41011064 <trap_handler_s__clear_highest_priority_interrupt>
    410110f0:	f75ff06f          	j	41011064 <trap_handler_s__clear_highest_priority_interrupt>
    410110f4:	f71ff06f          	j	41011064 <trap_handler_s__clear_highest_priority_interrupt>
    410110f8:	f6dff06f          	j	41011064 <trap_handler_s__clear_highest_priority_interrupt>
    410110fc:	f69ff06f          	j	41011064 <trap_handler_s__clear_highest_priority_interrupt>
    41011100:	f65ff06f          	j	41011064 <trap_handler_s__clear_highest_priority_interrupt>
    41011104:	f61ff06f          	j	41011064 <trap_handler_s__clear_highest_priority_interrupt>
    41011108:	f5dff06f          	j	41011064 <trap_handler_s__clear_highest_priority_interrupt>
    4101110c:	f59ff06f          	j	41011064 <trap_handler_s__clear_highest_priority_interrupt>
    41011110:	f55ff06f          	j	41011064 <trap_handler_s__clear_highest_priority_interrupt>
    41011114:	f51ff06f          	j	41011064 <trap_handler_s__clear_highest_priority_interrupt>
    41011118:	f4dff06f          	j	41011064 <trap_handler_s__clear_highest_priority_interrupt>
    4101111c:	f49ff06f          	j	41011064 <trap_handler_s__clear_highest_priority_interrupt>
    41011120:	f45ff06f          	j	41011064 <trap_handler_s__clear_highest_priority_interrupt>
    41011124:	f41ff06f          	j	41011064 <trap_handler_s__clear_highest_priority_interrupt>
    41011128:	f3dff06f          	j	41011064 <trap_handler_s__clear_highest_priority_interrupt>
    4101112c:	f39ff06f          	j	41011064 <trap_handler_s__clear_highest_priority_interrupt>
    41011130:	f35ff06f          	j	41011064 <trap_handler_s__clear_highest_priority_interrupt>
    41011134:	f31ff06f          	j	41011064 <trap_handler_s__clear_highest_priority_interrupt>
    41011138:	f2dff06f          	j	41011064 <trap_handler_s__clear_highest_priority_interrupt>
    4101113c:	f29ff06f          	j	41011064 <trap_handler_s__clear_highest_priority_interrupt>
    41011140:	f25ff06f          	j	41011064 <trap_handler_s__clear_highest_priority_interrupt>
    41011144:	f21ff06f          	j	41011064 <trap_handler_s__clear_highest_priority_interrupt>
    41011148:	f1dff06f          	j	41011064 <trap_handler_s__clear_highest_priority_interrupt>
    4101114c:	f19ff06f          	j	41011064 <trap_handler_s__clear_highest_priority_interrupt>
    41011150:	f15ff06f          	j	41011064 <trap_handler_s__clear_highest_priority_interrupt>
    41011154:	f11ff06f          	j	41011064 <trap_handler_s__clear_highest_priority_interrupt>
    41011158:	f0dff06f          	j	41011064 <trap_handler_s__clear_highest_priority_interrupt>
    4101115c:	f09ff06f          	j	41011064 <trap_handler_s__clear_highest_priority_interrupt>
    41011160:	f05ff06f          	j	41011064 <trap_handler_s__clear_highest_priority_interrupt>
    41011164:	f01ff06f          	j	41011064 <trap_handler_s__clear_highest_priority_interrupt>
    41011168:	efdff06f          	j	41011064 <trap_handler_s__clear_highest_priority_interrupt>
    4101116c:	ef9ff06f          	j	41011064 <trap_handler_s__clear_highest_priority_interrupt>
    41011170:	ef5ff06f          	j	41011064 <trap_handler_s__clear_highest_priority_interrupt>

0000000041011174 <trap_handler_s__test_failed>:
    41011174:	00f00f9b          	addiw	x31,x0,15
    41011178:	01cf9f93          	slli	x31,x31,0x1c
    4101117c:	002f8f93          	addi	x31,x31,2
    41011180:	00000073          	ecall

0000000041011184 <trap_handler_s__trap_handler>:
    41011184:	142022f3          	csrr	x5,scause
    41011188:	fff0031b          	addiw	x6,x0,-1
    4101118c:	03f31313          	slli	x6,x6,0x3f
    41011190:	00537333          	and	x6,x6,x5
    41011194:	02030263          	beqz	x6,410111b8 <trap_handler_s__exception_path>

0000000041011198 <trap_handler_s__interrupt_handler>:
    41011198:	fff0031b          	addiw	x6,x0,-1
    4101119c:	03f31313          	slli	x6,x6,0x3f
    410111a0:	0062c2b3          	xor	x5,x5,x6
    410111a4:	00000317          	auipc	x6,0x0
    410111a8:	ed430313          	addi	x6,x6,-300 # 41011078 <trap_handler_s__trap_entry>
    410111ac:	00229293          	slli	x5,x5,0x2
    410111b0:	005302b3          	add	x5,x6,x5
    410111b4:	00028067          	jr	x5 # 2000 <mem7>

00000000410111b8 <trap_handler_s__exception_path>:
    410111b8:	14021273          	csrrw	x4,sscratch,x4
    410111bc:	00000297          	auipc	x5,0x0
    410111c0:	0cc28293          	addi	x5,x5,204 # 41011288 <trap_handler_s__trap_panic>
    410111c4:	10529073          	csrw	stvec,x5
    410111c8:	0040006f          	j	410111cc <trap_handler_s__excp_entry>

00000000410111cc <trap_handler_s__excp_entry>:
    410111cc:	14202373          	csrr	x6,scause
    410111d0:	00800293          	li	x5,8
    410111d4:	00534863          	blt	x6,x5,410111e4 <trap_handler_s__check_exception_label>
    410111d8:	00b00293          	li	x5,11
    410111dc:	0062c463          	blt	x5,x6,410111e4 <trap_handler_s__check_exception_label>
    410111e0:	0a80006f          	j	41011288 <trap_handler_s__trap_panic>

00000000410111e4 <trap_handler_s__check_exception_label>:
    410111e4:	04623c23          	sd	x6,88(x4) # 58 <XLEN+0x18>
    410111e8:	141022f3          	csrr	x5,sepc
    410111ec:	02523423          	sd	x5,40(x4) # 28 <SECURE_ACCESS_PROBABILITY+0xa>
    410111f0:	01820283          	lb	x5,24(x4) # 18 <STORE_GUEST_PAGE_FAULT+0x1>
    410111f4:	00029863          	bnez	x5,41011204 <trap_handler_s__check_excp>
    410111f8:	00128293          	addi	x5,x5,1
    410111fc:	00520c23          	sb	x5,24(x4) # 18 <STORE_GUEST_PAGE_FAULT+0x1>
    41011200:	05c0006f          	j	4101125c <trap_handler_s__ecall_from_machine>

0000000041011204 <trap_handler_s__check_excp>:
    41011204:	06823283          	ld	x5,104(x4) # 68 <XLEN+0x28>
    41011208:	06023423          	sd	x0,104(x4) # 68 <XLEN+0x28>
    4101120c:	00028663          	beqz	x5,41011218 <trap_handler_s__skip_mode_check>
    41011210:	00300393          	li	x7,3
    41011214:	f67290e3          	bne	x5,x7,41011174 <trap_handler_s__test_failed>

0000000041011218 <trap_handler_s__skip_mode_check>:
    41011218:	05023283          	ld	x5,80(x4) # 50 <XLEN+0x10>
    4101121c:	04023823          	sd	x0,80(x4) # 50 <XLEN+0x10>
    41011220:	f4531ae3          	bne	x6,x5,41011174 <trap_handler_s__test_failed>
    41011224:	03823283          	ld	x5,56(x4) # 38 <SECURE_ACCESS_PROBABILITY+0x1a>
    41011228:	02023c23          	sd	x0,56(x4) # 38 <SECURE_ACCESS_PROBABILITY+0x1a>
    4101122c:	02029663          	bnez	x5,41011258 <trap_handler_s__skip_nonzero_tval_check>
    41011230:	02023303          	ld	x6,32(x4) # 20 <SECURE_ACCESS_PROBABILITY+0x2>
    41011234:	02023023          	sd	x0,32(x4) # 20 <SECURE_ACCESS_PROBABILITY+0x2>
    41011238:	02823283          	ld	x5,40(x4) # 28 <SECURE_ACCESS_PROBABILITY+0xa>
    4101123c:	02023423          	sd	x0,40(x4) # 28 <SECURE_ACCESS_PROBABILITY+0xa>
    41011240:	f2531ae3          	bne	x6,x5,41011174 <trap_handler_s__test_failed>
    41011244:	04023283          	ld	x5,64(x4) # 40 <XLEN>
    41011248:	04023023          	sd	x0,64(x4) # 40 <XLEN>
    4101124c:	00028663          	beqz	x5,41011258 <trap_handler_s__skip_nonzero_tval_check>

0000000041011250 <trap_handler_s__nonzero_tval_check>:
    41011250:	14302373          	csrr	x6,stval
    41011254:	f25310e3          	bne	x6,x5,41011174 <trap_handler_s__test_failed>

0000000041011258 <trap_handler_s__skip_nonzero_tval_check>:
    41011258:	0040006f          	j	4101125c <trap_handler_s__ecall_from_machine>

000000004101125c <trap_handler_s__ecall_from_machine>:
    4101125c:	03023283          	ld	x5,48(x4) # 30 <SECURE_ACCESS_PROBABILITY+0x12>
    41011260:	02023823          	sd	x0,48(x4) # 30 <SECURE_ACCESS_PROBABILITY+0x12>
    41011264:	07023303          	ld	x6,112(x4) # 70 <XLEN+0x30>
    41011268:	06023823          	sd	x0,112(x4) # 70 <XLEN+0x30>
    4101126c:	00031463          	bnez	x6,41011274 <trap_handler_s__skip_xepc_write>
    41011270:	14129073          	csrw	sepc,x5

0000000041011274 <trap_handler_s__skip_xepc_write>:
    41011274:	00000317          	auipc	x6,0x0
    41011278:	e0430313          	addi	x6,x6,-508 # 41011078 <trap_handler_s__trap_entry>
    4101127c:	10531073          	csrw	stvec,x6
    41011280:	14021273          	csrrw	x4,sscratch,x4
    41011284:	10200073          	sret

0000000041011288 <trap_handler_s__trap_panic>:
    41011288:	00000193          	li	x3,0
    4101128c:	00f00f9b          	addiw	x31,x0,15
    41011290:	01cf9f93          	slli	x31,x31,0x1c
    41011294:	002f8f93          	addi	x31,x31,2
    41011298:	00000073          	ecall

000000004101129c <trap_handler_hs__invalid_interrupt>:
    4101129c:	1740006f          	j	41011410 <trap_handler_hs__test_failed>

00000000410112a0 <trap_handler_hs__clear_all_interrupts>:
    410112a0:	14401073          	csrw	sip,x0
    410112a4:	10200073          	sret

00000000410112a8 <trap_handler_hs___CLEAR_SSI>:
    410112a8:	00200293          	li	x5,2
    410112ac:	1442b073          	csrc	sip,x5
    410112b0:	10200073          	sret

00000000410112b4 <trap_handler_hs___CLEAR_MSI>:
    410112b4:	00800293          	li	x5,8
    410112b8:	1442b073          	csrc	sip,x5
    410112bc:	10200073          	sret

00000000410112c0 <trap_handler_hs___CLEAR_STI>:
    410112c0:	02000293          	li	x5,32
    410112c4:	1442b073          	csrc	sip,x5
    410112c8:	10200073          	sret

00000000410112cc <trap_handler_hs___CLEAR_MTI>:
    410112cc:	08000293          	li	x5,128
    410112d0:	1442b073          	csrc	sip,x5
    410112d4:	10200073          	sret

00000000410112d8 <trap_handler_hs___CLEAR_SEI>:
    410112d8:	20000293          	li	x5,512
    410112dc:	1442b073          	csrc	sip,x5
    410112e0:	10200073          	sret

00000000410112e4 <trap_handler_hs___CLEAR_MEI>:
    410112e4:	000012b7          	lui	x5,0x1
    410112e8:	8002829b          	addiw	x5,x5,-2048 # 800 <XLEN+0x7c0>
    410112ec:	1442b073          	csrc	sip,x5
    410112f0:	10200073          	sret

00000000410112f4 <trap_handler_hs___CLEAR_COI>:
    410112f4:	000022b7          	lui	x5,0x2
    410112f8:	1442b073          	csrc	sip,x5
    410112fc:	10200073          	sret

0000000041011300 <trap_handler_hs__clear_highest_priority_interrupt>:
    41011300:	144022f3          	csrr	x5,sip
    41011304:	40500333          	neg	x6,x5
    41011308:	0062f2b3          	and	x5,x5,x6
    4101130c:	1442b073          	csrc	sip,x5
    41011310:	10200073          	sret

0000000041011314 <trap_handler_hs__trap_entry>:
    41011314:	10c0006f          	j	41011420 <trap_handler_hs__trap_handler>

0000000041011318 <trap_handler_hs__interrupt_vector_table>:
    41011318:	f91ff06f          	j	410112a8 <trap_handler_hs___CLEAR_SSI>
    4101131c:	f81ff06f          	j	4101129c <trap_handler_hs__invalid_interrupt>
    41011320:	f95ff06f          	j	410112b4 <trap_handler_hs___CLEAR_MSI>
    41011324:	f79ff06f          	j	4101129c <trap_handler_hs__invalid_interrupt>
    41011328:	f99ff06f          	j	410112c0 <trap_handler_hs___CLEAR_STI>
    4101132c:	f71ff06f          	j	4101129c <trap_handler_hs__invalid_interrupt>
    41011330:	f9dff06f          	j	410112cc <trap_handler_hs___CLEAR_MTI>
    41011334:	f69ff06f          	j	4101129c <trap_handler_hs__invalid_interrupt>
    41011338:	fa1ff06f          	j	410112d8 <trap_handler_hs___CLEAR_SEI>
    4101133c:	f61ff06f          	j	4101129c <trap_handler_hs__invalid_interrupt>
    41011340:	fa5ff06f          	j	410112e4 <trap_handler_hs___CLEAR_MEI>
    41011344:	f59ff06f          	j	4101129c <trap_handler_hs__invalid_interrupt>
    41011348:	fadff06f          	j	410112f4 <trap_handler_hs___CLEAR_COI>
    4101134c:	f51ff06f          	j	4101129c <trap_handler_hs__invalid_interrupt>
    41011350:	f4dff06f          	j	4101129c <trap_handler_hs__invalid_interrupt>
    41011354:	fadff06f          	j	41011300 <trap_handler_hs__clear_highest_priority_interrupt>
    41011358:	fa9ff06f          	j	41011300 <trap_handler_hs__clear_highest_priority_interrupt>
    4101135c:	fa5ff06f          	j	41011300 <trap_handler_hs__clear_highest_priority_interrupt>
    41011360:	fa1ff06f          	j	41011300 <trap_handler_hs__clear_highest_priority_interrupt>
    41011364:	f9dff06f          	j	41011300 <trap_handler_hs__clear_highest_priority_interrupt>
    41011368:	f99ff06f          	j	41011300 <trap_handler_hs__clear_highest_priority_interrupt>
    4101136c:	f95ff06f          	j	41011300 <trap_handler_hs__clear_highest_priority_interrupt>
    41011370:	f91ff06f          	j	41011300 <trap_handler_hs__clear_highest_priority_interrupt>
    41011374:	f8dff06f          	j	41011300 <trap_handler_hs__clear_highest_priority_interrupt>
    41011378:	f89ff06f          	j	41011300 <trap_handler_hs__clear_highest_priority_interrupt>
    4101137c:	f85ff06f          	j	41011300 <trap_handler_hs__clear_highest_priority_interrupt>
    41011380:	f81ff06f          	j	41011300 <trap_handler_hs__clear_highest_priority_interrupt>
    41011384:	f7dff06f          	j	41011300 <trap_handler_hs__clear_highest_priority_interrupt>
    41011388:	f79ff06f          	j	41011300 <trap_handler_hs__clear_highest_priority_interrupt>
    4101138c:	f75ff06f          	j	41011300 <trap_handler_hs__clear_highest_priority_interrupt>
    41011390:	f71ff06f          	j	41011300 <trap_handler_hs__clear_highest_priority_interrupt>
    41011394:	f6dff06f          	j	41011300 <trap_handler_hs__clear_highest_priority_interrupt>
    41011398:	f69ff06f          	j	41011300 <trap_handler_hs__clear_highest_priority_interrupt>
    4101139c:	f65ff06f          	j	41011300 <trap_handler_hs__clear_highest_priority_interrupt>
    410113a0:	f61ff06f          	j	41011300 <trap_handler_hs__clear_highest_priority_interrupt>
    410113a4:	f5dff06f          	j	41011300 <trap_handler_hs__clear_highest_priority_interrupt>
    410113a8:	f59ff06f          	j	41011300 <trap_handler_hs__clear_highest_priority_interrupt>
    410113ac:	f55ff06f          	j	41011300 <trap_handler_hs__clear_highest_priority_interrupt>
    410113b0:	f51ff06f          	j	41011300 <trap_handler_hs__clear_highest_priority_interrupt>
    410113b4:	f4dff06f          	j	41011300 <trap_handler_hs__clear_highest_priority_interrupt>
    410113b8:	f49ff06f          	j	41011300 <trap_handler_hs__clear_highest_priority_interrupt>
    410113bc:	f45ff06f          	j	41011300 <trap_handler_hs__clear_highest_priority_interrupt>
    410113c0:	f41ff06f          	j	41011300 <trap_handler_hs__clear_highest_priority_interrupt>
    410113c4:	f3dff06f          	j	41011300 <trap_handler_hs__clear_highest_priority_interrupt>
    410113c8:	f39ff06f          	j	41011300 <trap_handler_hs__clear_highest_priority_interrupt>
    410113cc:	f35ff06f          	j	41011300 <trap_handler_hs__clear_highest_priority_interrupt>
    410113d0:	f31ff06f          	j	41011300 <trap_handler_hs__clear_highest_priority_interrupt>
    410113d4:	f2dff06f          	j	41011300 <trap_handler_hs__clear_highest_priority_interrupt>
    410113d8:	f29ff06f          	j	41011300 <trap_handler_hs__clear_highest_priority_interrupt>
    410113dc:	f25ff06f          	j	41011300 <trap_handler_hs__clear_highest_priority_interrupt>
    410113e0:	f21ff06f          	j	41011300 <trap_handler_hs__clear_highest_priority_interrupt>
    410113e4:	f1dff06f          	j	41011300 <trap_handler_hs__clear_highest_priority_interrupt>
    410113e8:	f19ff06f          	j	41011300 <trap_handler_hs__clear_highest_priority_interrupt>
    410113ec:	f15ff06f          	j	41011300 <trap_handler_hs__clear_highest_priority_interrupt>
    410113f0:	f11ff06f          	j	41011300 <trap_handler_hs__clear_highest_priority_interrupt>
    410113f4:	f0dff06f          	j	41011300 <trap_handler_hs__clear_highest_priority_interrupt>
    410113f8:	f09ff06f          	j	41011300 <trap_handler_hs__clear_highest_priority_interrupt>
    410113fc:	f05ff06f          	j	41011300 <trap_handler_hs__clear_highest_priority_interrupt>
    41011400:	f01ff06f          	j	41011300 <trap_handler_hs__clear_highest_priority_interrupt>
    41011404:	efdff06f          	j	41011300 <trap_handler_hs__clear_highest_priority_interrupt>
    41011408:	ef9ff06f          	j	41011300 <trap_handler_hs__clear_highest_priority_interrupt>
    4101140c:	ef5ff06f          	j	41011300 <trap_handler_hs__clear_highest_priority_interrupt>

0000000041011410 <trap_handler_hs__test_failed>:
    41011410:	00f00f9b          	addiw	x31,x0,15
    41011414:	01cf9f93          	slli	x31,x31,0x1c
    41011418:	002f8f93          	addi	x31,x31,2
    4101141c:	00000073          	ecall

0000000041011420 <trap_handler_hs__trap_handler>:
    41011420:	142022f3          	csrr	x5,scause
    41011424:	fff0031b          	addiw	x6,x0,-1
    41011428:	03f31313          	slli	x6,x6,0x3f
    4101142c:	00537333          	and	x6,x6,x5
    41011430:	02030263          	beqz	x6,41011454 <trap_handler_hs__exception_path>

0000000041011434 <trap_handler_hs__interrupt_handler>:
    41011434:	fff0031b          	addiw	x6,x0,-1
    41011438:	03f31313          	slli	x6,x6,0x3f
    4101143c:	0062c2b3          	xor	x5,x5,x6
    41011440:	00000317          	auipc	x6,0x0
    41011444:	ed430313          	addi	x6,x6,-300 # 41011314 <trap_handler_hs__trap_entry>
    41011448:	00229293          	slli	x5,x5,0x2
    4101144c:	005302b3          	add	x5,x6,x5
    41011450:	00028067          	jr	x5 # 2000 <mem7>

0000000041011454 <trap_handler_hs__exception_path>:
    41011454:	14021273          	csrrw	x4,sscratch,x4
    41011458:	00000297          	auipc	x5,0x0
    4101145c:	10428293          	addi	x5,x5,260 # 4101155c <trap_handler_hs__trap_panic>
    41011460:	10529073          	csrw	stvec,x5
    41011464:	0040006f          	j	41011468 <trap_handler_hs__excp_entry>

0000000041011468 <trap_handler_hs__excp_entry>:
    41011468:	14202373          	csrr	x6,scause
    4101146c:	00800293          	li	x5,8
    41011470:	00534863          	blt	x6,x5,41011480 <trap_handler_hs__check_exception_label>
    41011474:	00b00293          	li	x5,11
    41011478:	0062c463          	blt	x5,x6,41011480 <trap_handler_hs__check_exception_label>
    4101147c:	0e00006f          	j	4101155c <trap_handler_hs__trap_panic>

0000000041011480 <trap_handler_hs__check_exception_label>:
    41011480:	04623c23          	sd	x6,88(x4) # 58 <XLEN+0x18>
    41011484:	141022f3          	csrr	x5,sepc
    41011488:	02523423          	sd	x5,40(x4) # 28 <SECURE_ACCESS_PROBABILITY+0xa>
    4101148c:	01820283          	lb	x5,24(x4) # 18 <STORE_GUEST_PAGE_FAULT+0x1>
    41011490:	00029863          	bnez	x5,410114a0 <trap_handler_hs__check_excp>
    41011494:	00128293          	addi	x5,x5,1
    41011498:	00520c23          	sb	x5,24(x4) # 18 <STORE_GUEST_PAGE_FAULT+0x1>
    4101149c:	0940006f          	j	41011530 <trap_handler_hs__ecall_from_machine>

00000000410114a0 <trap_handler_hs__check_excp>:
    410114a0:	06823283          	ld	x5,104(x4) # 68 <XLEN+0x28>
    410114a4:	06023423          	sd	x0,104(x4) # 68 <XLEN+0x28>
    410114a8:	00028663          	beqz	x5,410114b4 <trap_handler_hs__skip_mode_check>
    410114ac:	00200393          	li	x7,2
    410114b0:	f67290e3          	bne	x5,x7,41011410 <trap_handler_hs__test_failed>

00000000410114b4 <trap_handler_hs__skip_mode_check>:
    410114b4:	05023283          	ld	x5,80(x4) # 50 <XLEN+0x10>
    410114b8:	04023823          	sd	x0,80(x4) # 50 <XLEN+0x10>
    410114bc:	f4531ae3          	bne	x6,x5,41011410 <trap_handler_hs__test_failed>
    410114c0:	03823283          	ld	x5,56(x4) # 38 <SECURE_ACCESS_PROBABILITY+0x1a>
    410114c4:	02023c23          	sd	x0,56(x4) # 38 <SECURE_ACCESS_PROBABILITY+0x1a>
    410114c8:	06029263          	bnez	x5,4101152c <trap_handler_hs__skip_gva_check>
    410114cc:	02023303          	ld	x6,32(x4) # 20 <SECURE_ACCESS_PROBABILITY+0x2>
    410114d0:	02023023          	sd	x0,32(x4) # 20 <SECURE_ACCESS_PROBABILITY+0x2>
    410114d4:	02823283          	ld	x5,40(x4) # 28 <SECURE_ACCESS_PROBABILITY+0xa>
    410114d8:	02023423          	sd	x0,40(x4) # 28 <SECURE_ACCESS_PROBABILITY+0xa>
    410114dc:	f2531ae3          	bne	x6,x5,41011410 <trap_handler_hs__test_failed>
    410114e0:	04023283          	ld	x5,64(x4) # 40 <XLEN>
    410114e4:	04023023          	sd	x0,64(x4) # 40 <XLEN>
    410114e8:	00028663          	beqz	x5,410114f4 <trap_handler_hs__skip_nonzero_tval_check>

00000000410114ec <trap_handler_hs__nonzero_tval_check>:
    410114ec:	14302373          	csrr	x6,stval
    410114f0:	f25310e3          	bne	x6,x5,41011410 <trap_handler_hs__test_failed>

00000000410114f4 <trap_handler_hs__skip_nonzero_tval_check>:
    410114f4:	04823283          	ld	x5,72(x4) # 48 <XLEN+0x8>
    410114f8:	04023423          	sd	x0,72(x4) # 48 <XLEN+0x8>
    410114fc:	00028663          	beqz	x5,41011508 <trap_handler_hs__skip_nonzero_htval_check>

0000000041011500 <trap_handler_hs__nonzero_htval_check>:
    41011500:	64302373          	csrr	x6,htval
    41011504:	f05316e3          	bne	x6,x5,41011410 <trap_handler_hs__test_failed>

0000000041011508 <trap_handler_hs__skip_nonzero_htval_check>:
    41011508:	06023283          	ld	x5,96(x4) # 60 <XLEN+0x20>
    4101150c:	06023023          	sd	x0,96(x4) # 60 <XLEN+0x20>
    41011510:	00028e63          	beqz	x5,4101152c <trap_handler_hs__skip_gva_check>

0000000041011514 <trap_handler_hs__gva_check>:
    41011514:	60002373          	csrr	x6,hstatus
    41011518:	00635313          	srli	x6,x6,0x6
    4101151c:	00137313          	andi	x6,x6,1
    41011520:	ee0308e3          	beqz	x6,41011410 <trap_handler_hs__test_failed>
    41011524:	04000313          	li	x6,64
    41011528:	60033073          	csrc	hstatus,x6

000000004101152c <trap_handler_hs__skip_gva_check>:
    4101152c:	0040006f          	j	41011530 <trap_handler_hs__ecall_from_machine>

0000000041011530 <trap_handler_hs__ecall_from_machine>:
    41011530:	03023283          	ld	x5,48(x4) # 30 <SECURE_ACCESS_PROBABILITY+0x12>
    41011534:	02023823          	sd	x0,48(x4) # 30 <SECURE_ACCESS_PROBABILITY+0x12>
    41011538:	07023303          	ld	x6,112(x4) # 70 <XLEN+0x30>
    4101153c:	06023823          	sd	x0,112(x4) # 70 <XLEN+0x30>
    41011540:	00031463          	bnez	x6,41011548 <trap_handler_hs__skip_xepc_write>
    41011544:	14129073          	csrw	sepc,x5

0000000041011548 <trap_handler_hs__skip_xepc_write>:
    41011548:	00000317          	auipc	x6,0x0
    4101154c:	dcc30313          	addi	x6,x6,-564 # 41011314 <trap_handler_hs__trap_entry>
    41011550:	10531073          	csrw	stvec,x6
    41011554:	14021273          	csrrw	x4,sscratch,x4
    41011558:	10200073          	sret

000000004101155c <trap_handler_hs__trap_panic>:
    4101155c:	00000193          	li	x3,0
    41011560:	00f00f9b          	addiw	x31,x0,15
    41011564:	01cf9f93          	slli	x31,x31,0x1c
    41011568:	002f8f93          	addi	x31,x31,2
    4101156c:	00000073          	ecall

Disassembly of section .code:

0000000041015120 <passed>:
    41015120:	00f00f9b          	addiw	x31,x0,15
    41015124:	01cf9f93          	slli	x31,x31,0x1c
    41015128:	001f8f93          	addi	x31,x31,1
    4101512c:	00000073          	ecall

0000000041015130 <failed>:
    41015130:	00f00f9b          	addiw	x31,x0,15
    41015134:	01cf9f93          	slli	x31,x31,0x1c
    41015138:	002f8f93          	addi	x31,x31,2
    4101513c:	00000073          	ecall

0000000041015140 <end_test>:
    41015140:	00f00f9b          	addiw	x31,x0,15
    41015144:	01cf9f93          	slli	x31,x31,0x1c
    41015148:	003f8f93          	addi	x31,x31,3
    4101514c:	00000073          	ecall

0000000041015150 <test_setup>:
    41015150:	00f00f9b          	addiw	x31,x0,15
    41015154:	01cf9f93          	slli	x31,x31,0x1c
    41015158:	001f8f93          	addi	x31,x31,1
    4101515c:	00000073          	ecall

0000000041015160 <SID_HEXCEP_05>:
    41015160:	0000d137          	lui	x2,0xd
    41015164:	00020fb7          	lui	x31,0x20
    41015168:	887f8f9b          	addiw	x31,x31,-1913 # 1f887 <tp_csr_storage+0x12887>
    4101516c:	00ff9f93          	slli	x31,x31,0xf
    41015170:	0b0f8f93          	addi	x31,x31,176
    41015174:	00100f13          	li	x30,1
    41015178:	01efb023          	sd	x30,0(x31)
    4101517c:	000f0fb7          	lui	x31,0xf0
    41015180:	001f8f9b          	addiw	x31,x31,1 # f0001 <SID_HEXCEP_16_fs0_both_stack+0x5e001>
    41015184:	00cf9f93          	slli	x31,x31,0xc
    41015188:	005f8f93          	addi	x31,x31,5
    4101518c:	00000073          	ecall
    41015190:	00713023          	sd	x7,0(x2) # d000 <tp_csr_storage>
    41015194:	00006137          	lui	x2,0x6
    41015198:	000012b7          	lui	x5,0x1
    4101519c:	00510133          	add	x2,x2,x5
    410151a0:	ff017113          	andi	x2,x2,-16
    410151a4:	001003b7          	lui	x7,0x100
    410151a8:	00020fb7          	lui	x31,0x20
    410151ac:	887f8f9b          	addiw	x31,x31,-1913 # 1f887 <tp_csr_storage+0x12887>
    410151b0:	00ff9f93          	slli	x31,x31,0xf
    410151b4:	0b0f8f93          	addi	x31,x31,176
    410151b8:	00200f13          	li	x30,2
    410151bc:	01efb023          	sd	x30,0(x31)
    410151c0:	000f0fb7          	lui	x31,0xf0
    410151c4:	001f8f9b          	addiw	x31,x31,1 # f0001 <SID_HEXCEP_16_fs0_both_stack+0x5e001>
    410151c8:	00cf9f93          	slli	x31,x31,0xc
    410151cc:	005f8f93          	addi	x31,x31,5
    410151d0:	00000073          	ecall
    410151d4:	00000493          	li	x9,0
    410151d8:	00509237          	lui	x4,0x509
    410151dc:	5092021b          	addiw	x4,x4,1289 # 509509 <hart_stack_0_end+0x2b7509>
    410151e0:	00e21213          	slli	x4,x4,0xe
    410151e4:	01600e13          	li	x28,22
    410151e8:	05c23823          	sd	x28,80(x4) # 50 <XLEN+0x10>
    410151ec:	00000e17          	auipc	x28,0x0
    410151f0:	04ce0e13          	addi	x28,x28,76 # 41015238 <fault_label_0>
    410151f4:	03c23023          	sd	x28,32(x4) # 20 <SECURE_ACCESS_PROBABILITY+0x2>
    410151f8:	00000e13          	li	x28,0
    410151fc:	05c23023          	sd	x28,64(x4) # 40 <XLEN>
    41015200:	00000e13          	li	x28,0
    41015204:	05c23423          	sd	x28,72(x4) # 48 <XLEN+0x8>
    41015208:	00000e17          	auipc	x28,0x0
    4101520c:	04ce0e13          	addi	x28,x28,76 # 41015254 <excp_return_label_0>
    41015210:	03c23823          	sd	x28,48(x4) # 30 <SECURE_ACCESS_PROBABILITY+0x12>
    41015214:	00000e13          	li	x28,0
    41015218:	03c23c23          	sd	x28,56(x4) # 38 <SECURE_ACCESS_PROBABILITY+0x1a>
    4101521c:	00000e13          	li	x28,0
    41015220:	07c23023          	sd	x28,96(x4) # 60 <XLEN+0x20>
    41015224:	00000e13          	li	x28,0
    41015228:	07c23423          	sd	x28,104(x4) # 68 <XLEN+0x28>
    4101522c:	00000e13          	li	x28,0
    41015230:	07c23823          	sd	x28,112(x4) # 70 <XLEN+0x30>
    41015234:	00000513          	li	x10,0

0000000041015238 <fault_label_0>:
    41015238:	200525f3          	csrrs	x11,vsstatus,x10
    4101523c:	00020ab7          	lui	x21,0x20
    41015240:	887a8a9b          	addiw	x21,x21,-1913 # 1f887 <tp_csr_storage+0x12887>
    41015244:	00fa9a93          	slli	x21,x21,0xf
    41015248:	008a8a93          	addi	x21,x21,8
    4101524c:	000ab783          	ld	x15,0(x21)
    41015250:	00078067          	jr	x15

0000000041015254 <excp_return_label_0>:
    41015254:	00509237          	lui	x4,0x509
    41015258:	5092021b          	addiw	x4,x4,1289 # 509509 <hart_stack_0_end+0x2b7509>
    4101525c:	00e21213          	slli	x4,x4,0xe
    41015260:	01600e13          	li	x28,22
    41015264:	05c23823          	sd	x28,80(x4) # 50 <XLEN+0x10>
    41015268:	00000e17          	auipc	x28,0x0
    4101526c:	048e0e13          	addi	x28,x28,72 # 410152b0 <fault_label_1>
    41015270:	03c23023          	sd	x28,32(x4) # 20 <SECURE_ACCESS_PROBABILITY+0x2>
    41015274:	00000e13          	li	x28,0
    41015278:	05c23023          	sd	x28,64(x4) # 40 <XLEN>
    4101527c:	00000e13          	li	x28,0
    41015280:	05c23423          	sd	x28,72(x4) # 48 <XLEN+0x8>
    41015284:	00000e17          	auipc	x28,0x0
    41015288:	048e0e13          	addi	x28,x28,72 # 410152cc <excp_return_label_1>
    4101528c:	03c23823          	sd	x28,48(x4) # 30 <SECURE_ACCESS_PROBABILITY+0x12>
    41015290:	00000e13          	li	x28,0
    41015294:	03c23c23          	sd	x28,56(x4) # 38 <SECURE_ACCESS_PROBABILITY+0x1a>
    41015298:	00000e13          	li	x28,0
    4101529c:	07c23023          	sd	x28,96(x4) # 60 <XLEN+0x20>
    410152a0:	00000e13          	li	x28,0
    410152a4:	07c23423          	sd	x28,104(x4) # 68 <XLEN+0x28>
    410152a8:	00000e13          	li	x28,0
    410152ac:	07c23823          	sd	x28,112(x4) # 70 <XLEN+0x30>

00000000410152b0 <fault_label_1>:
    410152b0:	20049af3          	csrrw	x21,vsstatus,x9
    410152b4:	00020537          	lui	x10,0x20
    410152b8:	8875051b          	addiw	x10,x10,-1913 # 1f887 <tp_csr_storage+0x12887>
    410152bc:	00f51513          	slli	x10,x10,0xf
    410152c0:	00850513          	addi	x10,x10,8
    410152c4:	00053a03          	ld	x20,0(x10)
    410152c8:	000a0067          	jr	x20

00000000410152cc <excp_return_label_1>:
    410152cc:	00509237          	lui	x4,0x509
    410152d0:	5092021b          	addiw	x4,x4,1289 # 509509 <hart_stack_0_end+0x2b7509>
    410152d4:	00e21213          	slli	x4,x4,0xe
    410152d8:	01600e13          	li	x28,22
    410152dc:	05c23823          	sd	x28,80(x4) # 50 <XLEN+0x10>
    410152e0:	00000e17          	auipc	x28,0x0
    410152e4:	04ce0e13          	addi	x28,x28,76 # 4101532c <fault_label_2>
    410152e8:	03c23023          	sd	x28,32(x4) # 20 <SECURE_ACCESS_PROBABILITY+0x2>
    410152ec:	00000e13          	li	x28,0
    410152f0:	05c23023          	sd	x28,64(x4) # 40 <XLEN>
    410152f4:	00000e13          	li	x28,0
    410152f8:	05c23423          	sd	x28,72(x4) # 48 <XLEN+0x8>
    410152fc:	00000e17          	auipc	x28,0x0
    41015300:	04ce0e13          	addi	x28,x28,76 # 41015348 <excp_return_label_2>
    41015304:	03c23823          	sd	x28,48(x4) # 30 <SECURE_ACCESS_PROBABILITY+0x12>
    41015308:	00000e13          	li	x28,0
    4101530c:	03c23c23          	sd	x28,56(x4) # 38 <SECURE_ACCESS_PROBABILITY+0x1a>
    41015310:	00000e13          	li	x28,0
    41015314:	07c23023          	sd	x28,96(x4) # 60 <XLEN+0x20>
    41015318:	00000e13          	li	x28,0
    4101531c:	07c23423          	sd	x28,104(x4) # 68 <XLEN+0x28>
    41015320:	00000e13          	li	x28,0
    41015324:	07c23823          	sd	x28,112(x4) # 70 <XLEN+0x30>
    41015328:	00000993          	li	x19,0

000000004101532c <fault_label_2>:
    4101532c:	2449a5f3          	csrrs	x11,vsip,x19
    41015330:	000208b7          	lui	x17,0x20
    41015334:	8878889b          	addiw	x17,x17,-1913 # 1f887 <tp_csr_storage+0x12887>
    41015338:	00f89893          	slli	x17,x17,0xf
    4101533c:	00888893          	addi	x17,x17,8
    41015340:	0008ba83          	ld	x21,0(x17)
    41015344:	000a8067          	jr	x21

0000000041015348 <excp_return_label_2>:
    41015348:	00509237          	lui	x4,0x509
    4101534c:	5092021b          	addiw	x4,x4,1289 # 509509 <hart_stack_0_end+0x2b7509>
    41015350:	00e21213          	slli	x4,x4,0xe
    41015354:	01600e13          	li	x28,22
    41015358:	05c23823          	sd	x28,80(x4) # 50 <XLEN+0x10>
    4101535c:	00000e17          	auipc	x28,0x0
    41015360:	048e0e13          	addi	x28,x28,72 # 410153a4 <fault_label_3>
    41015364:	03c23023          	sd	x28,32(x4) # 20 <SECURE_ACCESS_PROBABILITY+0x2>
    41015368:	00000e13          	li	x28,0
    4101536c:	05c23023          	sd	x28,64(x4) # 40 <XLEN>
    41015370:	00000e13          	li	x28,0
    41015374:	05c23423          	sd	x28,72(x4) # 48 <XLEN+0x8>
    41015378:	00000e17          	auipc	x28,0x0
    4101537c:	048e0e13          	addi	x28,x28,72 # 410153c0 <excp_return_label_3>
    41015380:	03c23823          	sd	x28,48(x4) # 30 <SECURE_ACCESS_PROBABILITY+0x12>
    41015384:	00000e13          	li	x28,0
    41015388:	03c23c23          	sd	x28,56(x4) # 38 <SECURE_ACCESS_PROBABILITY+0x1a>
    4101538c:	00000e13          	li	x28,0
    41015390:	07c23023          	sd	x28,96(x4) # 60 <XLEN+0x20>
    41015394:	00000e13          	li	x28,0
    41015398:	07c23423          	sd	x28,104(x4) # 68 <XLEN+0x28>
    4101539c:	00000e13          	li	x28,0
    410153a0:	07c23823          	sd	x28,112(x4) # 70 <XLEN+0x30>

00000000410153a4 <fault_label_3>:
    410153a4:	24449473          	csrrw	x8,vsip,x9
    410153a8:	00020537          	lui	x10,0x20
    410153ac:	8875051b          	addiw	x10,x10,-1913 # 1f887 <tp_csr_storage+0x12887>
    410153b0:	00f51513          	slli	x10,x10,0xf
    410153b4:	00850513          	addi	x10,x10,8
    410153b8:	00053883          	ld	x17,0(x10)
    410153bc:	00088067          	jr	x17

00000000410153c0 <excp_return_label_3>:
    410153c0:	00509237          	lui	x4,0x509
    410153c4:	5092021b          	addiw	x4,x4,1289 # 509509 <hart_stack_0_end+0x2b7509>
    410153c8:	00e21213          	slli	x4,x4,0xe
    410153cc:	01600e13          	li	x28,22
    410153d0:	05c23823          	sd	x28,80(x4) # 50 <XLEN+0x10>
    410153d4:	00000e17          	auipc	x28,0x0
    410153d8:	04ce0e13          	addi	x28,x28,76 # 41015420 <fault_label_4>
    410153dc:	03c23023          	sd	x28,32(x4) # 20 <SECURE_ACCESS_PROBABILITY+0x2>
    410153e0:	00000e13          	li	x28,0
    410153e4:	05c23023          	sd	x28,64(x4) # 40 <XLEN>
    410153e8:	00000e13          	li	x28,0
    410153ec:	05c23423          	sd	x28,72(x4) # 48 <XLEN+0x8>
    410153f0:	00000e17          	auipc	x28,0x0
    410153f4:	04ce0e13          	addi	x28,x28,76 # 4101543c <excp_return_label_4>
    410153f8:	03c23823          	sd	x28,48(x4) # 30 <SECURE_ACCESS_PROBABILITY+0x12>
    410153fc:	00000e13          	li	x28,0
    41015400:	03c23c23          	sd	x28,56(x4) # 38 <SECURE_ACCESS_PROBABILITY+0x1a>
    41015404:	00000e13          	li	x28,0
    41015408:	07c23023          	sd	x28,96(x4) # 60 <XLEN+0x20>
    4101540c:	00000e13          	li	x28,0
    41015410:	07c23423          	sd	x28,104(x4) # 68 <XLEN+0x28>
    41015414:	00000e13          	li	x28,0
    41015418:	07c23823          	sd	x28,112(x4) # 70 <XLEN+0x30>
    4101541c:	00000913          	li	x18,0

0000000041015420 <fault_label_4>:
    41015420:	20492f73          	csrrs	x30,vsie,x18
    41015424:	00020437          	lui	x8,0x20
    41015428:	8874041b          	addiw	x8,x8,-1913 # 1f887 <tp_csr_storage+0x12887>
    4101542c:	00f41413          	slli	x8,x8,0xf
    41015430:	00840413          	addi	x8,x8,8
    41015434:	00043e83          	ld	x29,0(x8)
    41015438:	000e8067          	jr	x29

000000004101543c <excp_return_label_4>:
    4101543c:	00509237          	lui	x4,0x509
    41015440:	5092021b          	addiw	x4,x4,1289 # 509509 <hart_stack_0_end+0x2b7509>
    41015444:	00e21213          	slli	x4,x4,0xe
    41015448:	01600e13          	li	x28,22
    4101544c:	05c23823          	sd	x28,80(x4) # 50 <XLEN+0x10>
    41015450:	00000e17          	auipc	x28,0x0
    41015454:	048e0e13          	addi	x28,x28,72 # 41015498 <fault_label_5>
    41015458:	03c23023          	sd	x28,32(x4) # 20 <SECURE_ACCESS_PROBABILITY+0x2>
    4101545c:	00000e13          	li	x28,0
    41015460:	05c23023          	sd	x28,64(x4) # 40 <XLEN>
    41015464:	00000e13          	li	x28,0
    41015468:	05c23423          	sd	x28,72(x4) # 48 <XLEN+0x8>
    4101546c:	00000e17          	auipc	x28,0x0
    41015470:	048e0e13          	addi	x28,x28,72 # 410154b4 <excp_return_label_5>
    41015474:	03c23823          	sd	x28,48(x4) # 30 <SECURE_ACCESS_PROBABILITY+0x12>
    41015478:	00000e13          	li	x28,0
    4101547c:	03c23c23          	sd	x28,56(x4) # 38 <SECURE_ACCESS_PROBABILITY+0x1a>
    41015480:	00000e13          	li	x28,0
    41015484:	07c23023          	sd	x28,96(x4) # 60 <XLEN+0x20>
    41015488:	00000e13          	li	x28,0
    4101548c:	07c23423          	sd	x28,104(x4) # 68 <XLEN+0x28>
    41015490:	00000e13          	li	x28,0
    41015494:	07c23823          	sd	x28,112(x4) # 70 <XLEN+0x30>

0000000041015498 <fault_label_5>:
    41015498:	20449473          	csrrw	x8,vsie,x9
    4101549c:	000209b7          	lui	x19,0x20
    410154a0:	8879899b          	addiw	x19,x19,-1913 # 1f887 <tp_csr_storage+0x12887>
    410154a4:	00f99993          	slli	x19,x19,0xf
    410154a8:	00898993          	addi	x19,x19,8
    410154ac:	0009be03          	ld	x28,0(x19)
    410154b0:	000e0067          	jr	x28

00000000410154b4 <excp_return_label_5>:
    410154b4:	00509237          	lui	x4,0x509
    410154b8:	5092021b          	addiw	x4,x4,1289 # 509509 <hart_stack_0_end+0x2b7509>
    410154bc:	00e21213          	slli	x4,x4,0xe
    410154c0:	01600e13          	li	x28,22
    410154c4:	05c23823          	sd	x28,80(x4) # 50 <XLEN+0x10>
    410154c8:	00000e17          	auipc	x28,0x0
    410154cc:	04ce0e13          	addi	x28,x28,76 # 41015514 <fault_label_6>
    410154d0:	03c23023          	sd	x28,32(x4) # 20 <SECURE_ACCESS_PROBABILITY+0x2>
    410154d4:	00000e13          	li	x28,0
    410154d8:	05c23023          	sd	x28,64(x4) # 40 <XLEN>
    410154dc:	00000e13          	li	x28,0
    410154e0:	05c23423          	sd	x28,72(x4) # 48 <XLEN+0x8>
    410154e4:	00000e17          	auipc	x28,0x0
    410154e8:	04ce0e13          	addi	x28,x28,76 # 41015530 <excp_return_label_6>
    410154ec:	03c23823          	sd	x28,48(x4) # 30 <SECURE_ACCESS_PROBABILITY+0x12>
    410154f0:	00000e13          	li	x28,0
    410154f4:	03c23c23          	sd	x28,56(x4) # 38 <SECURE_ACCESS_PROBABILITY+0x1a>
    410154f8:	00000e13          	li	x28,0
    410154fc:	07c23023          	sd	x28,96(x4) # 60 <XLEN+0x20>
    41015500:	00000e13          	li	x28,0
    41015504:	07c23423          	sd	x28,104(x4) # 68 <XLEN+0x28>
    41015508:	00000e13          	li	x28,0
    4101550c:	07c23823          	sd	x28,112(x4) # 70 <XLEN+0x30>
    41015510:	00000513          	li	x10,0

0000000041015514 <fault_label_6>:
    41015514:	20552a73          	csrrs	x20,vstvec,x10
    41015518:	000208b7          	lui	x17,0x20
    4101551c:	8878889b          	addiw	x17,x17,-1913 # 1f887 <tp_csr_storage+0x12887>
    41015520:	00f89893          	slli	x17,x17,0xf
    41015524:	00888893          	addi	x17,x17,8
    41015528:	0008bc83          	ld	x25,0(x17)
    4101552c:	000c8067          	jr	x25

0000000041015530 <excp_return_label_6>:
    41015530:	00509237          	lui	x4,0x509
    41015534:	5092021b          	addiw	x4,x4,1289 # 509509 <hart_stack_0_end+0x2b7509>
    41015538:	00e21213          	slli	x4,x4,0xe
    4101553c:	01600e13          	li	x28,22
    41015540:	05c23823          	sd	x28,80(x4) # 50 <XLEN+0x10>
    41015544:	00000e17          	auipc	x28,0x0
    41015548:	048e0e13          	addi	x28,x28,72 # 4101558c <fault_label_7>
    4101554c:	03c23023          	sd	x28,32(x4) # 20 <SECURE_ACCESS_PROBABILITY+0x2>
    41015550:	00000e13          	li	x28,0
    41015554:	05c23023          	sd	x28,64(x4) # 40 <XLEN>
    41015558:	00000e13          	li	x28,0
    4101555c:	05c23423          	sd	x28,72(x4) # 48 <XLEN+0x8>
    41015560:	00000e17          	auipc	x28,0x0
    41015564:	048e0e13          	addi	x28,x28,72 # 410155a8 <excp_return_label_7>
    41015568:	03c23823          	sd	x28,48(x4) # 30 <SECURE_ACCESS_PROBABILITY+0x12>
    4101556c:	00000e13          	li	x28,0
    41015570:	03c23c23          	sd	x28,56(x4) # 38 <SECURE_ACCESS_PROBABILITY+0x1a>
    41015574:	00000e13          	li	x28,0
    41015578:	07c23023          	sd	x28,96(x4) # 60 <XLEN+0x20>
    4101557c:	00000e13          	li	x28,0
    41015580:	07c23423          	sd	x28,104(x4) # 68 <XLEN+0x28>
    41015584:	00000e13          	li	x28,0
    41015588:	07c23823          	sd	x28,112(x4) # 70 <XLEN+0x30>

000000004101558c <fault_label_7>:
    4101558c:	20549673          	csrrw	x12,vstvec,x9
    41015590:	00020337          	lui	x6,0x20
    41015594:	8873031b          	addiw	x6,x6,-1913 # 1f887 <tp_csr_storage+0x12887>
    41015598:	00f31313          	slli	x6,x6,0xf
    4101559c:	00830313          	addi	x6,x6,8
    410155a0:	00033583          	ld	x11,0(x6)
    410155a4:	00058067          	jr	x11

00000000410155a8 <excp_return_label_7>:
    410155a8:	00509237          	lui	x4,0x509
    410155ac:	5092021b          	addiw	x4,x4,1289 # 509509 <hart_stack_0_end+0x2b7509>
    410155b0:	00e21213          	slli	x4,x4,0xe
    410155b4:	01600e13          	li	x28,22
    410155b8:	05c23823          	sd	x28,80(x4) # 50 <XLEN+0x10>
    410155bc:	00000e17          	auipc	x28,0x0
    410155c0:	04ce0e13          	addi	x28,x28,76 # 41015608 <fault_label_8>
    410155c4:	03c23023          	sd	x28,32(x4) # 20 <SECURE_ACCESS_PROBABILITY+0x2>
    410155c8:	00000e13          	li	x28,0
    410155cc:	05c23023          	sd	x28,64(x4) # 40 <XLEN>
    410155d0:	00000e13          	li	x28,0
    410155d4:	05c23423          	sd	x28,72(x4) # 48 <XLEN+0x8>
    410155d8:	00000e17          	auipc	x28,0x0
    410155dc:	04ce0e13          	addi	x28,x28,76 # 41015624 <excp_return_label_8>
    410155e0:	03c23823          	sd	x28,48(x4) # 30 <SECURE_ACCESS_PROBABILITY+0x12>
    410155e4:	00000e13          	li	x28,0
    410155e8:	03c23c23          	sd	x28,56(x4) # 38 <SECURE_ACCESS_PROBABILITY+0x1a>
    410155ec:	00000e13          	li	x28,0
    410155f0:	07c23023          	sd	x28,96(x4) # 60 <XLEN+0x20>
    410155f4:	00000e13          	li	x28,0
    410155f8:	07c23423          	sd	x28,104(x4) # 68 <XLEN+0x28>
    410155fc:	00000e13          	li	x28,0
    41015600:	07c23823          	sd	x28,112(x4) # 70 <XLEN+0x30>
    41015604:	00000e93          	li	x29,0

0000000041015608 <fault_label_8>:
    41015608:	240ea7f3          	csrrs	x15,vsscratch,x29
    4101560c:	00020f37          	lui	x30,0x20
    41015610:	887f0f1b          	addiw	x30,x30,-1913 # 1f887 <tp_csr_storage+0x12887>
    41015614:	00ff1f13          	slli	x30,x30,0xf
    41015618:	008f0f13          	addi	x30,x30,8
    4101561c:	000f3983          	ld	x19,0(x30)
    41015620:	00098067          	jr	x19

0000000041015624 <excp_return_label_8>:
    41015624:	00509237          	lui	x4,0x509
    41015628:	5092021b          	addiw	x4,x4,1289 # 509509 <hart_stack_0_end+0x2b7509>
    4101562c:	00e21213          	slli	x4,x4,0xe
    41015630:	01600e13          	li	x28,22
    41015634:	05c23823          	sd	x28,80(x4) # 50 <XLEN+0x10>
    41015638:	00000e17          	auipc	x28,0x0
    4101563c:	048e0e13          	addi	x28,x28,72 # 41015680 <fault_label_9>
    41015640:	03c23023          	sd	x28,32(x4) # 20 <SECURE_ACCESS_PROBABILITY+0x2>
    41015644:	00000e13          	li	x28,0
    41015648:	05c23023          	sd	x28,64(x4) # 40 <XLEN>
    4101564c:	00000e13          	li	x28,0
    41015650:	05c23423          	sd	x28,72(x4) # 48 <XLEN+0x8>
    41015654:	00000e17          	auipc	x28,0x0
    41015658:	048e0e13          	addi	x28,x28,72 # 4101569c <excp_return_label_9>
    4101565c:	03c23823          	sd	x28,48(x4) # 30 <SECURE_ACCESS_PROBABILITY+0x12>
    41015660:	00000e13          	li	x28,0
    41015664:	03c23c23          	sd	x28,56(x4) # 38 <SECURE_ACCESS_PROBABILITY+0x1a>
    41015668:	00000e13          	li	x28,0
    4101566c:	07c23023          	sd	x28,96(x4) # 60 <XLEN+0x20>
    41015670:	00000e13          	li	x28,0
    41015674:	07c23423          	sd	x28,104(x4) # 68 <XLEN+0x28>
    41015678:	00000e13          	li	x28,0
    4101567c:	07c23823          	sd	x28,112(x4) # 70 <XLEN+0x30>

0000000041015680 <fault_label_9>:
    41015680:	240498f3          	csrrw	x17,vsscratch,x9
    41015684:	00020c37          	lui	x24,0x20
    41015688:	887c0c1b          	addiw	x24,x24,-1913 # 1f887 <tp_csr_storage+0x12887>
    4101568c:	00fc1c13          	slli	x24,x24,0xf
    41015690:	008c0c13          	addi	x24,x24,8
    41015694:	000c3303          	ld	x6,0(x24)
    41015698:	00030067          	jr	x6

000000004101569c <excp_return_label_9>:
    4101569c:	00509237          	lui	x4,0x509
    410156a0:	5092021b          	addiw	x4,x4,1289 # 509509 <hart_stack_0_end+0x2b7509>
    410156a4:	00e21213          	slli	x4,x4,0xe
    410156a8:	01600e13          	li	x28,22
    410156ac:	05c23823          	sd	x28,80(x4) # 50 <XLEN+0x10>
    410156b0:	00000e17          	auipc	x28,0x0
    410156b4:	04ce0e13          	addi	x28,x28,76 # 410156fc <fault_label_10>
    410156b8:	03c23023          	sd	x28,32(x4) # 20 <SECURE_ACCESS_PROBABILITY+0x2>
    410156bc:	00000e13          	li	x28,0
    410156c0:	05c23023          	sd	x28,64(x4) # 40 <XLEN>
    410156c4:	00000e13          	li	x28,0
    410156c8:	05c23423          	sd	x28,72(x4) # 48 <XLEN+0x8>
    410156cc:	00000e17          	auipc	x28,0x0
    410156d0:	04ce0e13          	addi	x28,x28,76 # 41015718 <excp_return_label_10>
    410156d4:	03c23823          	sd	x28,48(x4) # 30 <SECURE_ACCESS_PROBABILITY+0x12>
    410156d8:	00000e13          	li	x28,0
    410156dc:	03c23c23          	sd	x28,56(x4) # 38 <SECURE_ACCESS_PROBABILITY+0x1a>
    410156e0:	00000e13          	li	x28,0
    410156e4:	07c23023          	sd	x28,96(x4) # 60 <XLEN+0x20>
    410156e8:	00000e13          	li	x28,0
    410156ec:	07c23423          	sd	x28,104(x4) # 68 <XLEN+0x28>
    410156f0:	00000e13          	li	x28,0
    410156f4:	07c23823          	sd	x28,112(x4) # 70 <XLEN+0x30>
    410156f8:	00000d13          	li	x26,0

00000000410156fc <fault_label_10>:
    410156fc:	241d23f3          	csrrs	x7,vsepc,x26
    41015700:	00020ab7          	lui	x21,0x20
    41015704:	887a8a9b          	addiw	x21,x21,-1913 # 1f887 <tp_csr_storage+0x12887>
    41015708:	00fa9a93          	slli	x21,x21,0xf
    4101570c:	008a8a93          	addi	x21,x21,8
    41015710:	000ab683          	ld	x13,0(x21)
    41015714:	00068067          	jr	x13

0000000041015718 <excp_return_label_10>:
    41015718:	00509237          	lui	x4,0x509
    4101571c:	5092021b          	addiw	x4,x4,1289 # 509509 <hart_stack_0_end+0x2b7509>
    41015720:	00e21213          	slli	x4,x4,0xe
    41015724:	01600e13          	li	x28,22
    41015728:	05c23823          	sd	x28,80(x4) # 50 <XLEN+0x10>
    4101572c:	00000e17          	auipc	x28,0x0
    41015730:	048e0e13          	addi	x28,x28,72 # 41015774 <fault_label_11>
    41015734:	03c23023          	sd	x28,32(x4) # 20 <SECURE_ACCESS_PROBABILITY+0x2>
    41015738:	00000e13          	li	x28,0
    4101573c:	05c23023          	sd	x28,64(x4) # 40 <XLEN>
    41015740:	00000e13          	li	x28,0
    41015744:	05c23423          	sd	x28,72(x4) # 48 <XLEN+0x8>
    41015748:	00000e17          	auipc	x28,0x0
    4101574c:	048e0e13          	addi	x28,x28,72 # 41015790 <excp_return_label_11>
    41015750:	03c23823          	sd	x28,48(x4) # 30 <SECURE_ACCESS_PROBABILITY+0x12>
    41015754:	00000e13          	li	x28,0
    41015758:	03c23c23          	sd	x28,56(x4) # 38 <SECURE_ACCESS_PROBABILITY+0x1a>
    4101575c:	00000e13          	li	x28,0
    41015760:	07c23023          	sd	x28,96(x4) # 60 <XLEN+0x20>
    41015764:	00000e13          	li	x28,0
    41015768:	07c23423          	sd	x28,104(x4) # 68 <XLEN+0x28>
    4101576c:	00000e13          	li	x28,0
    41015770:	07c23823          	sd	x28,112(x4) # 70 <XLEN+0x30>

0000000041015774 <fault_label_11>:
    41015774:	24149ff3          	csrrw	x31,vsepc,x9
    41015778:	00020cb7          	lui	x25,0x20
    4101577c:	887c8c9b          	addiw	x25,x25,-1913 # 1f887 <tp_csr_storage+0x12887>
    41015780:	00fc9c93          	slli	x25,x25,0xf
    41015784:	008c8c93          	addi	x25,x25,8
    41015788:	000cb903          	ld	x18,0(x25)
    4101578c:	00090067          	jr	x18

0000000041015790 <excp_return_label_11>:
    41015790:	00509237          	lui	x4,0x509
    41015794:	5092021b          	addiw	x4,x4,1289 # 509509 <hart_stack_0_end+0x2b7509>
    41015798:	00e21213          	slli	x4,x4,0xe
    4101579c:	01600e13          	li	x28,22
    410157a0:	05c23823          	sd	x28,80(x4) # 50 <XLEN+0x10>
    410157a4:	00000e17          	auipc	x28,0x0
    410157a8:	04ce0e13          	addi	x28,x28,76 # 410157f0 <fault_label_12>
    410157ac:	03c23023          	sd	x28,32(x4) # 20 <SECURE_ACCESS_PROBABILITY+0x2>
    410157b0:	00000e13          	li	x28,0
    410157b4:	05c23023          	sd	x28,64(x4) # 40 <XLEN>
    410157b8:	00000e13          	li	x28,0
    410157bc:	05c23423          	sd	x28,72(x4) # 48 <XLEN+0x8>
    410157c0:	00000e17          	auipc	x28,0x0
    410157c4:	04ce0e13          	addi	x28,x28,76 # 4101580c <excp_return_label_12>
    410157c8:	03c23823          	sd	x28,48(x4) # 30 <SECURE_ACCESS_PROBABILITY+0x12>
    410157cc:	00000e13          	li	x28,0
    410157d0:	03c23c23          	sd	x28,56(x4) # 38 <SECURE_ACCESS_PROBABILITY+0x1a>
    410157d4:	00000e13          	li	x28,0
    410157d8:	07c23023          	sd	x28,96(x4) # 60 <XLEN+0x20>
    410157dc:	00000e13          	li	x28,0
    410157e0:	07c23423          	sd	x28,104(x4) # 68 <XLEN+0x28>
    410157e4:	00000e13          	li	x28,0
    410157e8:	07c23823          	sd	x28,112(x4) # 70 <XLEN+0x30>
    410157ec:	00000d93          	li	x27,0

00000000410157f0 <fault_label_12>:
    410157f0:	242da373          	csrrs	x6,vscause,x27
    410157f4:	00020d37          	lui	x26,0x20
    410157f8:	887d0d1b          	addiw	x26,x26,-1913 # 1f887 <tp_csr_storage+0x12887>
    410157fc:	00fd1d13          	slli	x26,x26,0xf
    41015800:	008d0d13          	addi	x26,x26,8
    41015804:	000d3783          	ld	x15,0(x26)
    41015808:	00078067          	jr	x15

000000004101580c <excp_return_label_12>:
    4101580c:	00509237          	lui	x4,0x509
    41015810:	5092021b          	addiw	x4,x4,1289 # 509509 <hart_stack_0_end+0x2b7509>
    41015814:	00e21213          	slli	x4,x4,0xe
    41015818:	01600e13          	li	x28,22
    4101581c:	05c23823          	sd	x28,80(x4) # 50 <XLEN+0x10>
    41015820:	00000e17          	auipc	x28,0x0
    41015824:	048e0e13          	addi	x28,x28,72 # 41015868 <fault_label_13>
    41015828:	03c23023          	sd	x28,32(x4) # 20 <SECURE_ACCESS_PROBABILITY+0x2>
    4101582c:	00000e13          	li	x28,0
    41015830:	05c23023          	sd	x28,64(x4) # 40 <XLEN>
    41015834:	00000e13          	li	x28,0
    41015838:	05c23423          	sd	x28,72(x4) # 48 <XLEN+0x8>
    4101583c:	00000e17          	auipc	x28,0x0
    41015840:	048e0e13          	addi	x28,x28,72 # 41015884 <excp_return_label_13>
    41015844:	03c23823          	sd	x28,48(x4) # 30 <SECURE_ACCESS_PROBABILITY+0x12>
    41015848:	00000e13          	li	x28,0
    4101584c:	03c23c23          	sd	x28,56(x4) # 38 <SECURE_ACCESS_PROBABILITY+0x1a>
    41015850:	00000e13          	li	x28,0
    41015854:	07c23023          	sd	x28,96(x4) # 60 <XLEN+0x20>
    41015858:	00000e13          	li	x28,0
    4101585c:	07c23423          	sd	x28,104(x4) # 68 <XLEN+0x28>
    41015860:	00000e13          	li	x28,0
    41015864:	07c23823          	sd	x28,112(x4) # 70 <XLEN+0x30>

0000000041015868 <fault_label_13>:
    41015868:	24249af3          	csrrw	x21,vscause,x9
    4101586c:	00020337          	lui	x6,0x20
    41015870:	8873031b          	addiw	x6,x6,-1913 # 1f887 <tp_csr_storage+0x12887>
    41015874:	00f31313          	slli	x6,x6,0xf
    41015878:	00830313          	addi	x6,x6,8
    4101587c:	00033f83          	ld	x31,0(x6)
    41015880:	000f8067          	jr	x31

0000000041015884 <excp_return_label_13>:
    41015884:	00509237          	lui	x4,0x509
    41015888:	5092021b          	addiw	x4,x4,1289 # 509509 <hart_stack_0_end+0x2b7509>
    4101588c:	00e21213          	slli	x4,x4,0xe
    41015890:	01600e13          	li	x28,22
    41015894:	05c23823          	sd	x28,80(x4) # 50 <XLEN+0x10>
    41015898:	00000e17          	auipc	x28,0x0
    4101589c:	04ce0e13          	addi	x28,x28,76 # 410158e4 <fault_label_14>
    410158a0:	03c23023          	sd	x28,32(x4) # 20 <SECURE_ACCESS_PROBABILITY+0x2>
    410158a4:	00000e13          	li	x28,0
    410158a8:	05c23023          	sd	x28,64(x4) # 40 <XLEN>
    410158ac:	00000e13          	li	x28,0
    410158b0:	05c23423          	sd	x28,72(x4) # 48 <XLEN+0x8>
    410158b4:	00000e17          	auipc	x28,0x0
    410158b8:	04ce0e13          	addi	x28,x28,76 # 41015900 <excp_return_label_14>
    410158bc:	03c23823          	sd	x28,48(x4) # 30 <SECURE_ACCESS_PROBABILITY+0x12>
    410158c0:	00000e13          	li	x28,0
    410158c4:	03c23c23          	sd	x28,56(x4) # 38 <SECURE_ACCESS_PROBABILITY+0x1a>
    410158c8:	00000e13          	li	x28,0
    410158cc:	07c23023          	sd	x28,96(x4) # 60 <XLEN+0x20>
    410158d0:	00000e13          	li	x28,0
    410158d4:	07c23423          	sd	x28,104(x4) # 68 <XLEN+0x28>
    410158d8:	00000e13          	li	x28,0
    410158dc:	07c23823          	sd	x28,112(x4) # 70 <XLEN+0x30>
    410158e0:	00000e13          	li	x28,0

00000000410158e4 <fault_label_14>:
    410158e4:	243e23f3          	csrrs	x7,vstval,x28
    410158e8:	00020c37          	lui	x24,0x20
    410158ec:	887c0c1b          	addiw	x24,x24,-1913 # 1f887 <tp_csr_storage+0x12887>
    410158f0:	00fc1c13          	slli	x24,x24,0xf
    410158f4:	008c0c13          	addi	x24,x24,8
    410158f8:	000c3383          	ld	x7,0(x24)
    410158fc:	00038067          	jr	x7 # 100000 <SID_HEXCEP_16_fs0_both_stack+0x6e000>

0000000041015900 <excp_return_label_14>:
    41015900:	00509237          	lui	x4,0x509
    41015904:	5092021b          	addiw	x4,x4,1289 # 509509 <hart_stack_0_end+0x2b7509>
    41015908:	00e21213          	slli	x4,x4,0xe
    4101590c:	01600e13          	li	x28,22
    41015910:	05c23823          	sd	x28,80(x4) # 50 <XLEN+0x10>
    41015914:	00000e17          	auipc	x28,0x0
    41015918:	048e0e13          	addi	x28,x28,72 # 4101595c <fault_label_15>
    4101591c:	03c23023          	sd	x28,32(x4) # 20 <SECURE_ACCESS_PROBABILITY+0x2>
    41015920:	00000e13          	li	x28,0
    41015924:	05c23023          	sd	x28,64(x4) # 40 <XLEN>
    41015928:	00000e13          	li	x28,0
    4101592c:	05c23423          	sd	x28,72(x4) # 48 <XLEN+0x8>
    41015930:	00000e17          	auipc	x28,0x0
    41015934:	048e0e13          	addi	x28,x28,72 # 41015978 <excp_return_label_15>
    41015938:	03c23823          	sd	x28,48(x4) # 30 <SECURE_ACCESS_PROBABILITY+0x12>
    4101593c:	00000e13          	li	x28,0
    41015940:	03c23c23          	sd	x28,56(x4) # 38 <SECURE_ACCESS_PROBABILITY+0x1a>
    41015944:	00000e13          	li	x28,0
    41015948:	07c23023          	sd	x28,96(x4) # 60 <XLEN+0x20>
    4101594c:	00000e13          	li	x28,0
    41015950:	07c23423          	sd	x28,104(x4) # 68 <XLEN+0x28>
    41015954:	00000e13          	li	x28,0
    41015958:	07c23823          	sd	x28,112(x4) # 70 <XLEN+0x30>

000000004101595c <fault_label_15>:
    4101595c:	24349df3          	csrrw	x27,vstval,x9
    41015960:	00020db7          	lui	x27,0x20
    41015964:	887d8d9b          	addiw	x27,x27,-1913 # 1f887 <tp_csr_storage+0x12887>
    41015968:	00fd9d93          	slli	x27,x27,0xf
    4101596c:	008d8d93          	addi	x27,x27,8
    41015970:	000db983          	ld	x19,0(x27)
    41015974:	00098067          	jr	x19

0000000041015978 <excp_return_label_15>:
    41015978:	00509237          	lui	x4,0x509
    4101597c:	5092021b          	addiw	x4,x4,1289 # 509509 <hart_stack_0_end+0x2b7509>
    41015980:	00e21213          	slli	x4,x4,0xe
    41015984:	01600e13          	li	x28,22
    41015988:	05c23823          	sd	x28,80(x4) # 50 <XLEN+0x10>
    4101598c:	00000e17          	auipc	x28,0x0
    41015990:	04ce0e13          	addi	x28,x28,76 # 410159d8 <fault_label_16>
    41015994:	03c23023          	sd	x28,32(x4) # 20 <SECURE_ACCESS_PROBABILITY+0x2>
    41015998:	00000e13          	li	x28,0
    4101599c:	05c23023          	sd	x28,64(x4) # 40 <XLEN>
    410159a0:	00000e13          	li	x28,0
    410159a4:	05c23423          	sd	x28,72(x4) # 48 <XLEN+0x8>
    410159a8:	00000e17          	auipc	x28,0x0
    410159ac:	04ce0e13          	addi	x28,x28,76 # 410159f4 <excp_return_label_16>
    410159b0:	03c23823          	sd	x28,48(x4) # 30 <SECURE_ACCESS_PROBABILITY+0x12>
    410159b4:	00000e13          	li	x28,0
    410159b8:	03c23c23          	sd	x28,56(x4) # 38 <SECURE_ACCESS_PROBABILITY+0x1a>
    410159bc:	00000e13          	li	x28,0
    410159c0:	07c23023          	sd	x28,96(x4) # 60 <XLEN+0x20>
    410159c4:	00000e13          	li	x28,0
    410159c8:	07c23423          	sd	x28,104(x4) # 68 <XLEN+0x28>
    410159cc:	00000e13          	li	x28,0
    410159d0:	07c23823          	sd	x28,112(x4) # 70 <XLEN+0x30>
    410159d4:	00000313          	li	x6,0

00000000410159d8 <fault_label_16>:
    410159d8:	280328f3          	csrrs	x17,vsatp,x6
    410159dc:	000206b7          	lui	x13,0x20
    410159e0:	8876869b          	addiw	x13,x13,-1913 # 1f887 <tp_csr_storage+0x12887>
    410159e4:	00f69693          	slli	x13,x13,0xf
    410159e8:	00868693          	addi	x13,x13,8
    410159ec:	0006b783          	ld	x15,0(x13)
    410159f0:	00078067          	jr	x15

00000000410159f4 <excp_return_label_16>:
    410159f4:	00509237          	lui	x4,0x509
    410159f8:	5092021b          	addiw	x4,x4,1289 # 509509 <hart_stack_0_end+0x2b7509>
    410159fc:	00e21213          	slli	x4,x4,0xe
    41015a00:	01600e13          	li	x28,22
    41015a04:	05c23823          	sd	x28,80(x4) # 50 <XLEN+0x10>
    41015a08:	00000e17          	auipc	x28,0x0
    41015a0c:	048e0e13          	addi	x28,x28,72 # 41015a50 <fault_label_17>
    41015a10:	03c23023          	sd	x28,32(x4) # 20 <SECURE_ACCESS_PROBABILITY+0x2>
    41015a14:	00000e13          	li	x28,0
    41015a18:	05c23023          	sd	x28,64(x4) # 40 <XLEN>
    41015a1c:	00000e13          	li	x28,0
    41015a20:	05c23423          	sd	x28,72(x4) # 48 <XLEN+0x8>
    41015a24:	00000e17          	auipc	x28,0x0
    41015a28:	048e0e13          	addi	x28,x28,72 # 41015a6c <excp_return_label_17>
    41015a2c:	03c23823          	sd	x28,48(x4) # 30 <SECURE_ACCESS_PROBABILITY+0x12>
    41015a30:	00000e13          	li	x28,0
    41015a34:	03c23c23          	sd	x28,56(x4) # 38 <SECURE_ACCESS_PROBABILITY+0x1a>
    41015a38:	00000e13          	li	x28,0
    41015a3c:	07c23023          	sd	x28,96(x4) # 60 <XLEN+0x20>
    41015a40:	00000e13          	li	x28,0
    41015a44:	07c23423          	sd	x28,104(x4) # 68 <XLEN+0x28>
    41015a48:	00000e13          	li	x28,0
    41015a4c:	07c23823          	sd	x28,112(x4) # 70 <XLEN+0x30>

0000000041015a50 <fault_label_17>:
    41015a50:	28049573          	csrrw	x10,vsatp,x9
    41015a54:	00020537          	lui	x10,0x20
    41015a58:	8875051b          	addiw	x10,x10,-1913 # 1f887 <tp_csr_storage+0x12887>
    41015a5c:	00f51513          	slli	x10,x10,0xf
    41015a60:	00850513          	addi	x10,x10,8
    41015a64:	00053d03          	ld	x26,0(x10)
    41015a68:	000d0067          	jr	x26

0000000041015a6c <excp_return_label_17>:
    41015a6c:	00509237          	lui	x4,0x509
    41015a70:	5092021b          	addiw	x4,x4,1289 # 509509 <hart_stack_0_end+0x2b7509>
    41015a74:	00e21213          	slli	x4,x4,0xe
    41015a78:	01600e13          	li	x28,22
    41015a7c:	05c23823          	sd	x28,80(x4) # 50 <XLEN+0x10>
    41015a80:	00000e17          	auipc	x28,0x0
    41015a84:	04ce0e13          	addi	x28,x28,76 # 41015acc <fault_label_18>
    41015a88:	03c23023          	sd	x28,32(x4) # 20 <SECURE_ACCESS_PROBABILITY+0x2>
    41015a8c:	00000e13          	li	x28,0
    41015a90:	05c23023          	sd	x28,64(x4) # 40 <XLEN>
    41015a94:	00000e13          	li	x28,0
    41015a98:	05c23423          	sd	x28,72(x4) # 48 <XLEN+0x8>
    41015a9c:	00000e17          	auipc	x28,0x0
    41015aa0:	04ce0e13          	addi	x28,x28,76 # 41015ae8 <excp_return_label_18>
    41015aa4:	03c23823          	sd	x28,48(x4) # 30 <SECURE_ACCESS_PROBABILITY+0x12>
    41015aa8:	00000e13          	li	x28,0
    41015aac:	03c23c23          	sd	x28,56(x4) # 38 <SECURE_ACCESS_PROBABILITY+0x1a>
    41015ab0:	00000e13          	li	x28,0
    41015ab4:	07c23023          	sd	x28,96(x4) # 60 <XLEN+0x20>
    41015ab8:	00000e13          	li	x28,0
    41015abc:	07c23423          	sd	x28,104(x4) # 68 <XLEN+0x28>
    41015ac0:	00000e13          	li	x28,0
    41015ac4:	07c23823          	sd	x28,112(x4) # 70 <XLEN+0x30>
    41015ac8:	00000793          	li	x15,0

0000000041015acc <fault_label_18>:
    41015acc:	6007ad73          	csrrs	x26,hstatus,x15
    41015ad0:	00020e37          	lui	x28,0x20
    41015ad4:	887e0e1b          	addiw	x28,x28,-1913 # 1f887 <tp_csr_storage+0x12887>
    41015ad8:	00fe1e13          	slli	x28,x28,0xf
    41015adc:	008e0e13          	addi	x28,x28,8
    41015ae0:	000e3683          	ld	x13,0(x28)
    41015ae4:	00068067          	jr	x13

0000000041015ae8 <excp_return_label_18>:
    41015ae8:	00509237          	lui	x4,0x509
    41015aec:	5092021b          	addiw	x4,x4,1289 # 509509 <hart_stack_0_end+0x2b7509>
    41015af0:	00e21213          	slli	x4,x4,0xe
    41015af4:	01600e13          	li	x28,22
    41015af8:	05c23823          	sd	x28,80(x4) # 50 <XLEN+0x10>
    41015afc:	00000e17          	auipc	x28,0x0
    41015b00:	048e0e13          	addi	x28,x28,72 # 41015b44 <fault_label_19>
    41015b04:	03c23023          	sd	x28,32(x4) # 20 <SECURE_ACCESS_PROBABILITY+0x2>
    41015b08:	00000e13          	li	x28,0
    41015b0c:	05c23023          	sd	x28,64(x4) # 40 <XLEN>
    41015b10:	00000e13          	li	x28,0
    41015b14:	05c23423          	sd	x28,72(x4) # 48 <XLEN+0x8>
    41015b18:	00000e17          	auipc	x28,0x0
    41015b1c:	048e0e13          	addi	x28,x28,72 # 41015b60 <excp_return_label_19>
    41015b20:	03c23823          	sd	x28,48(x4) # 30 <SECURE_ACCESS_PROBABILITY+0x12>
    41015b24:	00000e13          	li	x28,0
    41015b28:	03c23c23          	sd	x28,56(x4) # 38 <SECURE_ACCESS_PROBABILITY+0x1a>
    41015b2c:	00000e13          	li	x28,0
    41015b30:	07c23023          	sd	x28,96(x4) # 60 <XLEN+0x20>
    41015b34:	00000e13          	li	x28,0
    41015b38:	07c23423          	sd	x28,104(x4) # 68 <XLEN+0x28>
    41015b3c:	00000e13          	li	x28,0
    41015b40:	07c23823          	sd	x28,112(x4) # 70 <XLEN+0x30>

0000000041015b44 <fault_label_19>:
    41015b44:	60049df3          	csrrw	x27,hstatus,x9
    41015b48:	000205b7          	lui	x11,0x20
    41015b4c:	8875859b          	addiw	x11,x11,-1913 # 1f887 <tp_csr_storage+0x12887>
    41015b50:	00f59593          	slli	x11,x11,0xf
    41015b54:	00858593          	addi	x11,x11,8
    41015b58:	0005b983          	ld	x19,0(x11)
    41015b5c:	00098067          	jr	x19

0000000041015b60 <excp_return_label_19>:
    41015b60:	00509237          	lui	x4,0x509
    41015b64:	5092021b          	addiw	x4,x4,1289 # 509509 <hart_stack_0_end+0x2b7509>
    41015b68:	00e21213          	slli	x4,x4,0xe
    41015b6c:	01600e13          	li	x28,22
    41015b70:	05c23823          	sd	x28,80(x4) # 50 <XLEN+0x10>
    41015b74:	00000e17          	auipc	x28,0x0
    41015b78:	04ce0e13          	addi	x28,x28,76 # 41015bc0 <fault_label_20>
    41015b7c:	03c23023          	sd	x28,32(x4) # 20 <SECURE_ACCESS_PROBABILITY+0x2>
    41015b80:	00000e13          	li	x28,0
    41015b84:	05c23023          	sd	x28,64(x4) # 40 <XLEN>
    41015b88:	00000e13          	li	x28,0
    41015b8c:	05c23423          	sd	x28,72(x4) # 48 <XLEN+0x8>
    41015b90:	00000e17          	auipc	x28,0x0
    41015b94:	04ce0e13          	addi	x28,x28,76 # 41015bdc <excp_return_label_20>
    41015b98:	03c23823          	sd	x28,48(x4) # 30 <SECURE_ACCESS_PROBABILITY+0x12>
    41015b9c:	00000e13          	li	x28,0
    41015ba0:	03c23c23          	sd	x28,56(x4) # 38 <SECURE_ACCESS_PROBABILITY+0x1a>
    41015ba4:	00000e13          	li	x28,0
    41015ba8:	07c23023          	sd	x28,96(x4) # 60 <XLEN+0x20>
    41015bac:	00000e13          	li	x28,0
    41015bb0:	07c23423          	sd	x28,104(x4) # 68 <XLEN+0x28>
    41015bb4:	00000e13          	li	x28,0
    41015bb8:	07c23823          	sd	x28,112(x4) # 70 <XLEN+0x30>
    41015bbc:	00000f13          	li	x30,0

0000000041015bc0 <fault_label_20>:
    41015bc0:	602f28f3          	csrrs	x17,hedeleg,x30
    41015bc4:	000207b7          	lui	x15,0x20
    41015bc8:	8877879b          	addiw	x15,x15,-1913 # 1f887 <tp_csr_storage+0x12887>
    41015bcc:	00f79793          	slli	x15,x15,0xf
    41015bd0:	00878793          	addi	x15,x15,8
    41015bd4:	0007bd03          	ld	x26,0(x15)
    41015bd8:	000d0067          	jr	x26

0000000041015bdc <excp_return_label_20>:
    41015bdc:	00509237          	lui	x4,0x509
    41015be0:	5092021b          	addiw	x4,x4,1289 # 509509 <hart_stack_0_end+0x2b7509>
    41015be4:	00e21213          	slli	x4,x4,0xe
    41015be8:	01600e13          	li	x28,22
    41015bec:	05c23823          	sd	x28,80(x4) # 50 <XLEN+0x10>
    41015bf0:	00000e17          	auipc	x28,0x0
    41015bf4:	048e0e13          	addi	x28,x28,72 # 41015c38 <fault_label_21>
    41015bf8:	03c23023          	sd	x28,32(x4) # 20 <SECURE_ACCESS_PROBABILITY+0x2>
    41015bfc:	00000e13          	li	x28,0
    41015c00:	05c23023          	sd	x28,64(x4) # 40 <XLEN>
    41015c04:	00000e13          	li	x28,0
    41015c08:	05c23423          	sd	x28,72(x4) # 48 <XLEN+0x8>
    41015c0c:	00000e17          	auipc	x28,0x0
    41015c10:	048e0e13          	addi	x28,x28,72 # 41015c54 <excp_return_label_21>
    41015c14:	03c23823          	sd	x28,48(x4) # 30 <SECURE_ACCESS_PROBABILITY+0x12>
    41015c18:	00000e13          	li	x28,0
    41015c1c:	03c23c23          	sd	x28,56(x4) # 38 <SECURE_ACCESS_PROBABILITY+0x1a>
    41015c20:	00000e13          	li	x28,0
    41015c24:	07c23023          	sd	x28,96(x4) # 60 <XLEN+0x20>
    41015c28:	00000e13          	li	x28,0
    41015c2c:	07c23423          	sd	x28,104(x4) # 68 <XLEN+0x28>
    41015c30:	00000e13          	li	x28,0
    41015c34:	07c23823          	sd	x28,112(x4) # 70 <XLEN+0x30>

0000000041015c38 <fault_label_21>:
    41015c38:	60249ff3          	csrrw	x31,hedeleg,x9
    41015c3c:	000208b7          	lui	x17,0x20
    41015c40:	8878889b          	addiw	x17,x17,-1913 # 1f887 <tp_csr_storage+0x12887>
    41015c44:	00f89893          	slli	x17,x17,0xf
    41015c48:	00888893          	addi	x17,x17,8
    41015c4c:	0008b503          	ld	x10,0(x17)
    41015c50:	00050067          	jr	x10

0000000041015c54 <excp_return_label_21>:
    41015c54:	00509237          	lui	x4,0x509
    41015c58:	5092021b          	addiw	x4,x4,1289 # 509509 <hart_stack_0_end+0x2b7509>
    41015c5c:	00e21213          	slli	x4,x4,0xe
    41015c60:	01600e13          	li	x28,22
    41015c64:	05c23823          	sd	x28,80(x4) # 50 <XLEN+0x10>
    41015c68:	00000e17          	auipc	x28,0x0
    41015c6c:	04ce0e13          	addi	x28,x28,76 # 41015cb4 <fault_label_22>
    41015c70:	03c23023          	sd	x28,32(x4) # 20 <SECURE_ACCESS_PROBABILITY+0x2>
    41015c74:	00000e13          	li	x28,0
    41015c78:	05c23023          	sd	x28,64(x4) # 40 <XLEN>
    41015c7c:	00000e13          	li	x28,0
    41015c80:	05c23423          	sd	x28,72(x4) # 48 <XLEN+0x8>
    41015c84:	00000e17          	auipc	x28,0x0
    41015c88:	04ce0e13          	addi	x28,x28,76 # 41015cd0 <excp_return_label_22>
    41015c8c:	03c23823          	sd	x28,48(x4) # 30 <SECURE_ACCESS_PROBABILITY+0x12>
    41015c90:	00000e13          	li	x28,0
    41015c94:	03c23c23          	sd	x28,56(x4) # 38 <SECURE_ACCESS_PROBABILITY+0x1a>
    41015c98:	00000e13          	li	x28,0
    41015c9c:	07c23023          	sd	x28,96(x4) # 60 <XLEN+0x20>
    41015ca0:	00000e13          	li	x28,0
    41015ca4:	07c23423          	sd	x28,104(x4) # 68 <XLEN+0x28>
    41015ca8:	00000e13          	li	x28,0
    41015cac:	07c23823          	sd	x28,112(x4) # 70 <XLEN+0x30>
    41015cb0:	00000e13          	li	x28,0

0000000041015cb4 <fault_label_22>:
    41015cb4:	603e2c73          	csrrs	x24,hideleg,x28
    41015cb8:	000207b7          	lui	x15,0x20
    41015cbc:	8877879b          	addiw	x15,x15,-1913 # 1f887 <tp_csr_storage+0x12887>
    41015cc0:	00f79793          	slli	x15,x15,0xf
    41015cc4:	00878793          	addi	x15,x15,8
    41015cc8:	0007bc03          	ld	x24,0(x15)
    41015ccc:	000c0067          	jr	x24

0000000041015cd0 <excp_return_label_22>:
    41015cd0:	00509237          	lui	x4,0x509
    41015cd4:	5092021b          	addiw	x4,x4,1289 # 509509 <hart_stack_0_end+0x2b7509>
    41015cd8:	00e21213          	slli	x4,x4,0xe
    41015cdc:	01600e13          	li	x28,22
    41015ce0:	05c23823          	sd	x28,80(x4) # 50 <XLEN+0x10>
    41015ce4:	00000e17          	auipc	x28,0x0
    41015ce8:	048e0e13          	addi	x28,x28,72 # 41015d2c <fault_label_23>
    41015cec:	03c23023          	sd	x28,32(x4) # 20 <SECURE_ACCESS_PROBABILITY+0x2>
    41015cf0:	00000e13          	li	x28,0
    41015cf4:	05c23023          	sd	x28,64(x4) # 40 <XLEN>
    41015cf8:	00000e13          	li	x28,0
    41015cfc:	05c23423          	sd	x28,72(x4) # 48 <XLEN+0x8>
    41015d00:	00000e17          	auipc	x28,0x0
    41015d04:	048e0e13          	addi	x28,x28,72 # 41015d48 <excp_return_label_23>
    41015d08:	03c23823          	sd	x28,48(x4) # 30 <SECURE_ACCESS_PROBABILITY+0x12>
    41015d0c:	00000e13          	li	x28,0
    41015d10:	03c23c23          	sd	x28,56(x4) # 38 <SECURE_ACCESS_PROBABILITY+0x1a>
    41015d14:	00000e13          	li	x28,0
    41015d18:	07c23023          	sd	x28,96(x4) # 60 <XLEN+0x20>
    41015d1c:	00000e13          	li	x28,0
    41015d20:	07c23423          	sd	x28,104(x4) # 68 <XLEN+0x28>
    41015d24:	00000e13          	li	x28,0
    41015d28:	07c23823          	sd	x28,112(x4) # 70 <XLEN+0x30>

0000000041015d2c <fault_label_23>:
    41015d2c:	60349f73          	csrrw	x30,hideleg,x9
    41015d30:	00020c37          	lui	x24,0x20
    41015d34:	887c0c1b          	addiw	x24,x24,-1913 # 1f887 <tp_csr_storage+0x12887>
    41015d38:	00fc1c13          	slli	x24,x24,0xf
    41015d3c:	008c0c13          	addi	x24,x24,8
    41015d40:	000c3d83          	ld	x27,0(x24)
    41015d44:	000d8067          	jr	x27

0000000041015d48 <excp_return_label_23>:
    41015d48:	00509237          	lui	x4,0x509
    41015d4c:	5092021b          	addiw	x4,x4,1289 # 509509 <hart_stack_0_end+0x2b7509>
    41015d50:	00e21213          	slli	x4,x4,0xe
    41015d54:	01600e13          	li	x28,22
    41015d58:	05c23823          	sd	x28,80(x4) # 50 <XLEN+0x10>
    41015d5c:	00000e17          	auipc	x28,0x0
    41015d60:	04ce0e13          	addi	x28,x28,76 # 41015da8 <fault_label_24>
    41015d64:	03c23023          	sd	x28,32(x4) # 20 <SECURE_ACCESS_PROBABILITY+0x2>
    41015d68:	00000e13          	li	x28,0
    41015d6c:	05c23023          	sd	x28,64(x4) # 40 <XLEN>
    41015d70:	00000e13          	li	x28,0
    41015d74:	05c23423          	sd	x28,72(x4) # 48 <XLEN+0x8>
    41015d78:	00000e17          	auipc	x28,0x0
    41015d7c:	04ce0e13          	addi	x28,x28,76 # 41015dc4 <excp_return_label_24>
    41015d80:	03c23823          	sd	x28,48(x4) # 30 <SECURE_ACCESS_PROBABILITY+0x12>
    41015d84:	00000e13          	li	x28,0
    41015d88:	03c23c23          	sd	x28,56(x4) # 38 <SECURE_ACCESS_PROBABILITY+0x1a>
    41015d8c:	00000e13          	li	x28,0
    41015d90:	07c23023          	sd	x28,96(x4) # 60 <XLEN+0x20>
    41015d94:	00000e13          	li	x28,0
    41015d98:	07c23423          	sd	x28,104(x4) # 68 <XLEN+0x28>
    41015d9c:	00000e13          	li	x28,0
    41015da0:	07c23823          	sd	x28,112(x4) # 70 <XLEN+0x30>
    41015da4:	00000993          	li	x19,0

0000000041015da8 <fault_label_24>:
    41015da8:	6459af73          	csrrs	x30,hvip,x19
    41015dac:	00020eb7          	lui	x29,0x20
    41015db0:	887e8e9b          	addiw	x29,x29,-1913 # 1f887 <tp_csr_storage+0x12887>
    41015db4:	00fe9e93          	slli	x29,x29,0xf
    41015db8:	008e8e93          	addi	x29,x29,8
    41015dbc:	000eb383          	ld	x7,0(x29)
    41015dc0:	00038067          	jr	x7

0000000041015dc4 <excp_return_label_24>:
    41015dc4:	00509237          	lui	x4,0x509
    41015dc8:	5092021b          	addiw	x4,x4,1289 # 509509 <hart_stack_0_end+0x2b7509>
    41015dcc:	00e21213          	slli	x4,x4,0xe
    41015dd0:	01600e13          	li	x28,22
    41015dd4:	05c23823          	sd	x28,80(x4) # 50 <XLEN+0x10>
    41015dd8:	00000e17          	auipc	x28,0x0
    41015ddc:	048e0e13          	addi	x28,x28,72 # 41015e20 <fault_label_25>
    41015de0:	03c23023          	sd	x28,32(x4) # 20 <SECURE_ACCESS_PROBABILITY+0x2>
    41015de4:	00000e13          	li	x28,0
    41015de8:	05c23023          	sd	x28,64(x4) # 40 <XLEN>
    41015dec:	00000e13          	li	x28,0
    41015df0:	05c23423          	sd	x28,72(x4) # 48 <XLEN+0x8>
    41015df4:	00000e17          	auipc	x28,0x0
    41015df8:	048e0e13          	addi	x28,x28,72 # 41015e3c <excp_return_label_25>
    41015dfc:	03c23823          	sd	x28,48(x4) # 30 <SECURE_ACCESS_PROBABILITY+0x12>
    41015e00:	00000e13          	li	x28,0
    41015e04:	03c23c23          	sd	x28,56(x4) # 38 <SECURE_ACCESS_PROBABILITY+0x1a>
    41015e08:	00000e13          	li	x28,0
    41015e0c:	07c23023          	sd	x28,96(x4) # 60 <XLEN+0x20>
    41015e10:	00000e13          	li	x28,0
    41015e14:	07c23423          	sd	x28,104(x4) # 68 <XLEN+0x28>
    41015e18:	00000e13          	li	x28,0
    41015e1c:	07c23823          	sd	x28,112(x4) # 70 <XLEN+0x30>

0000000041015e20 <fault_label_25>:
    41015e20:	64549f73          	csrrw	x30,hvip,x9
    41015e24:	00020a37          	lui	x20,0x20
    41015e28:	887a0a1b          	addiw	x20,x20,-1913 # 1f887 <tp_csr_storage+0x12887>
    41015e2c:	00fa1a13          	slli	x20,x20,0xf
    41015e30:	008a0a13          	addi	x20,x20,8
    41015e34:	000a3d83          	ld	x27,0(x20)
    41015e38:	000d8067          	jr	x27

0000000041015e3c <excp_return_label_25>:
    41015e3c:	00509237          	lui	x4,0x509
    41015e40:	5092021b          	addiw	x4,x4,1289 # 509509 <hart_stack_0_end+0x2b7509>
    41015e44:	00e21213          	slli	x4,x4,0xe
    41015e48:	01600e13          	li	x28,22
    41015e4c:	05c23823          	sd	x28,80(x4) # 50 <XLEN+0x10>
    41015e50:	00000e17          	auipc	x28,0x0
    41015e54:	04ce0e13          	addi	x28,x28,76 # 41015e9c <fault_label_26>
    41015e58:	03c23023          	sd	x28,32(x4) # 20 <SECURE_ACCESS_PROBABILITY+0x2>
    41015e5c:	00000e13          	li	x28,0
    41015e60:	05c23023          	sd	x28,64(x4) # 40 <XLEN>
    41015e64:	00000e13          	li	x28,0
    41015e68:	05c23423          	sd	x28,72(x4) # 48 <XLEN+0x8>
    41015e6c:	00000e17          	auipc	x28,0x0
    41015e70:	04ce0e13          	addi	x28,x28,76 # 41015eb8 <excp_return_label_26>
    41015e74:	03c23823          	sd	x28,48(x4) # 30 <SECURE_ACCESS_PROBABILITY+0x12>
    41015e78:	00000e13          	li	x28,0
    41015e7c:	03c23c23          	sd	x28,56(x4) # 38 <SECURE_ACCESS_PROBABILITY+0x1a>
    41015e80:	00000e13          	li	x28,0
    41015e84:	07c23023          	sd	x28,96(x4) # 60 <XLEN+0x20>
    41015e88:	00000e13          	li	x28,0
    41015e8c:	07c23423          	sd	x28,104(x4) # 68 <XLEN+0x28>
    41015e90:	00000e13          	li	x28,0
    41015e94:	07c23823          	sd	x28,112(x4) # 70 <XLEN+0x30>
    41015e98:	00000a93          	li	x21,0

0000000041015e9c <fault_label_26>:
    41015e9c:	644aaaf3          	csrrs	x21,hip,x21
    41015ea0:	00020e37          	lui	x28,0x20
    41015ea4:	887e0e1b          	addiw	x28,x28,-1913 # 1f887 <tp_csr_storage+0x12887>
    41015ea8:	00fe1e13          	slli	x28,x28,0xf
    41015eac:	008e0e13          	addi	x28,x28,8
    41015eb0:	000e3683          	ld	x13,0(x28)
    41015eb4:	00068067          	jr	x13

0000000041015eb8 <excp_return_label_26>:
    41015eb8:	00509237          	lui	x4,0x509
    41015ebc:	5092021b          	addiw	x4,x4,1289 # 509509 <hart_stack_0_end+0x2b7509>
    41015ec0:	00e21213          	slli	x4,x4,0xe
    41015ec4:	01600e13          	li	x28,22
    41015ec8:	05c23823          	sd	x28,80(x4) # 50 <XLEN+0x10>
    41015ecc:	00000e17          	auipc	x28,0x0
    41015ed0:	048e0e13          	addi	x28,x28,72 # 41015f14 <fault_label_27>
    41015ed4:	03c23023          	sd	x28,32(x4) # 20 <SECURE_ACCESS_PROBABILITY+0x2>
    41015ed8:	00000e13          	li	x28,0
    41015edc:	05c23023          	sd	x28,64(x4) # 40 <XLEN>
    41015ee0:	00000e13          	li	x28,0
    41015ee4:	05c23423          	sd	x28,72(x4) # 48 <XLEN+0x8>
    41015ee8:	00000e17          	auipc	x28,0x0
    41015eec:	048e0e13          	addi	x28,x28,72 # 41015f30 <excp_return_label_27>
    41015ef0:	03c23823          	sd	x28,48(x4) # 30 <SECURE_ACCESS_PROBABILITY+0x12>
    41015ef4:	00000e13          	li	x28,0
    41015ef8:	03c23c23          	sd	x28,56(x4) # 38 <SECURE_ACCESS_PROBABILITY+0x1a>
    41015efc:	00000e13          	li	x28,0
    41015f00:	07c23023          	sd	x28,96(x4) # 60 <XLEN+0x20>
    41015f04:	00000e13          	li	x28,0
    41015f08:	07c23423          	sd	x28,104(x4) # 68 <XLEN+0x28>
    41015f0c:	00000e13          	li	x28,0
    41015f10:	07c23823          	sd	x28,112(x4) # 70 <XLEN+0x30>

0000000041015f14 <fault_label_27>:
    41015f14:	644495f3          	csrrw	x11,hip,x9
    41015f18:	00020e37          	lui	x28,0x20
    41015f1c:	887e0e1b          	addiw	x28,x28,-1913 # 1f887 <tp_csr_storage+0x12887>
    41015f20:	00fe1e13          	slli	x28,x28,0xf
    41015f24:	008e0e13          	addi	x28,x28,8
    41015f28:	000e3e83          	ld	x29,0(x28)
    41015f2c:	000e8067          	jr	x29

0000000041015f30 <excp_return_label_27>:
    41015f30:	00509237          	lui	x4,0x509
    41015f34:	5092021b          	addiw	x4,x4,1289 # 509509 <hart_stack_0_end+0x2b7509>
    41015f38:	00e21213          	slli	x4,x4,0xe
    41015f3c:	01600e13          	li	x28,22
    41015f40:	05c23823          	sd	x28,80(x4) # 50 <XLEN+0x10>
    41015f44:	00000e17          	auipc	x28,0x0
    41015f48:	04ce0e13          	addi	x28,x28,76 # 41015f90 <fault_label_28>
    41015f4c:	03c23023          	sd	x28,32(x4) # 20 <SECURE_ACCESS_PROBABILITY+0x2>
    41015f50:	00000e13          	li	x28,0
    41015f54:	05c23023          	sd	x28,64(x4) # 40 <XLEN>
    41015f58:	00000e13          	li	x28,0
    41015f5c:	05c23423          	sd	x28,72(x4) # 48 <XLEN+0x8>
    41015f60:	00000e17          	auipc	x28,0x0
    41015f64:	04ce0e13          	addi	x28,x28,76 # 41015fac <excp_return_label_28>
    41015f68:	03c23823          	sd	x28,48(x4) # 30 <SECURE_ACCESS_PROBABILITY+0x12>
    41015f6c:	00000e13          	li	x28,0
    41015f70:	03c23c23          	sd	x28,56(x4) # 38 <SECURE_ACCESS_PROBABILITY+0x1a>
    41015f74:	00000e13          	li	x28,0
    41015f78:	07c23023          	sd	x28,96(x4) # 60 <XLEN+0x20>
    41015f7c:	00000e13          	li	x28,0
    41015f80:	07c23423          	sd	x28,104(x4) # 68 <XLEN+0x28>
    41015f84:	00000e13          	li	x28,0
    41015f88:	07c23823          	sd	x28,112(x4) # 70 <XLEN+0x30>
    41015f8c:	00000f13          	li	x30,0

0000000041015f90 <fault_label_28>:
    41015f90:	604f23f3          	csrrs	x7,hie,x30
    41015f94:	00020a37          	lui	x20,0x20
    41015f98:	887a0a1b          	addiw	x20,x20,-1913 # 1f887 <tp_csr_storage+0x12887>
    41015f9c:	00fa1a13          	slli	x20,x20,0xf
    41015fa0:	008a0a13          	addi	x20,x20,8
    41015fa4:	000a3e03          	ld	x28,0(x20)
    41015fa8:	000e0067          	jr	x28

0000000041015fac <excp_return_label_28>:
    41015fac:	00509237          	lui	x4,0x509
    41015fb0:	5092021b          	addiw	x4,x4,1289 # 509509 <hart_stack_0_end+0x2b7509>
    41015fb4:	00e21213          	slli	x4,x4,0xe
    41015fb8:	01600e13          	li	x28,22
    41015fbc:	05c23823          	sd	x28,80(x4) # 50 <XLEN+0x10>
    41015fc0:	00000e17          	auipc	x28,0x0
    41015fc4:	048e0e13          	addi	x28,x28,72 # 41016008 <fault_label_29>
    41015fc8:	03c23023          	sd	x28,32(x4) # 20 <SECURE_ACCESS_PROBABILITY+0x2>
    41015fcc:	00000e13          	li	x28,0
    41015fd0:	05c23023          	sd	x28,64(x4) # 40 <XLEN>
    41015fd4:	00000e13          	li	x28,0
    41015fd8:	05c23423          	sd	x28,72(x4) # 48 <XLEN+0x8>
    41015fdc:	00000e17          	auipc	x28,0x0
    41015fe0:	048e0e13          	addi	x28,x28,72 # 41016024 <excp_return_label_29>
    41015fe4:	03c23823          	sd	x28,48(x4) # 30 <SECURE_ACCESS_PROBABILITY+0x12>
    41015fe8:	00000e13          	li	x28,0
    41015fec:	03c23c23          	sd	x28,56(x4) # 38 <SECURE_ACCESS_PROBABILITY+0x1a>
    41015ff0:	00000e13          	li	x28,0
    41015ff4:	07c23023          	sd	x28,96(x4) # 60 <XLEN+0x20>
    41015ff8:	00000e13          	li	x28,0
    41015ffc:	07c23423          	sd	x28,104(x4) # 68 <XLEN+0x28>
    41016000:	00000e13          	li	x28,0
    41016004:	07c23823          	sd	x28,112(x4) # 70 <XLEN+0x30>

0000000041016008 <fault_label_29>:
    41016008:	604495f3          	csrrw	x11,hie,x9
    4101600c:	000206b7          	lui	x13,0x20
    41016010:	8876869b          	addiw	x13,x13,-1913 # 1f887 <tp_csr_storage+0x12887>
    41016014:	00f69693          	slli	x13,x13,0xf
    41016018:	00868693          	addi	x13,x13,8
    4101601c:	0006b783          	ld	x15,0(x13)
    41016020:	00078067          	jr	x15

0000000041016024 <excp_return_label_29>:
    41016024:	00509237          	lui	x4,0x509
    41016028:	5092021b          	addiw	x4,x4,1289 # 509509 <hart_stack_0_end+0x2b7509>
    4101602c:	00e21213          	slli	x4,x4,0xe
    41016030:	01600e13          	li	x28,22
    41016034:	05c23823          	sd	x28,80(x4) # 50 <XLEN+0x10>
    41016038:	00000e17          	auipc	x28,0x0
    4101603c:	04ce0e13          	addi	x28,x28,76 # 41016084 <fault_label_30>
    41016040:	03c23023          	sd	x28,32(x4) # 20 <SECURE_ACCESS_PROBABILITY+0x2>
    41016044:	00000e13          	li	x28,0
    41016048:	05c23023          	sd	x28,64(x4) # 40 <XLEN>
    4101604c:	00000e13          	li	x28,0
    41016050:	05c23423          	sd	x28,72(x4) # 48 <XLEN+0x8>
    41016054:	00000e17          	auipc	x28,0x0
    41016058:	04ce0e13          	addi	x28,x28,76 # 410160a0 <excp_return_label_30>
    4101605c:	03c23823          	sd	x28,48(x4) # 30 <SECURE_ACCESS_PROBABILITY+0x12>
    41016060:	00000e13          	li	x28,0
    41016064:	03c23c23          	sd	x28,56(x4) # 38 <SECURE_ACCESS_PROBABILITY+0x1a>
    41016068:	00000e13          	li	x28,0
    4101606c:	07c23023          	sd	x28,96(x4) # 60 <XLEN+0x20>
    41016070:	00000e13          	li	x28,0
    41016074:	07c23423          	sd	x28,104(x4) # 68 <XLEN+0x28>
    41016078:	00000e13          	li	x28,0
    4101607c:	07c23823          	sd	x28,112(x4) # 70 <XLEN+0x30>
    41016080:	00000d13          	li	x26,0

0000000041016084 <fault_label_30>:
    41016084:	607d27f3          	csrrs	x15,hgeie,x26
    41016088:	00020cb7          	lui	x25,0x20
    4101608c:	887c8c9b          	addiw	x25,x25,-1913 # 1f887 <tp_csr_storage+0x12887>
    41016090:	00fc9c93          	slli	x25,x25,0xf
    41016094:	008c8c93          	addi	x25,x25,8
    41016098:	000cbe83          	ld	x29,0(x25)
    4101609c:	000e8067          	jr	x29

00000000410160a0 <excp_return_label_30>:
    410160a0:	00509237          	lui	x4,0x509
    410160a4:	5092021b          	addiw	x4,x4,1289 # 509509 <hart_stack_0_end+0x2b7509>
    410160a8:	00e21213          	slli	x4,x4,0xe
    410160ac:	01600e13          	li	x28,22
    410160b0:	05c23823          	sd	x28,80(x4) # 50 <XLEN+0x10>
    410160b4:	00000e17          	auipc	x28,0x0
    410160b8:	048e0e13          	addi	x28,x28,72 # 410160fc <fault_label_31>
    410160bc:	03c23023          	sd	x28,32(x4) # 20 <SECURE_ACCESS_PROBABILITY+0x2>
    410160c0:	00000e13          	li	x28,0
    410160c4:	05c23023          	sd	x28,64(x4) # 40 <XLEN>
    410160c8:	00000e13          	li	x28,0
    410160cc:	05c23423          	sd	x28,72(x4) # 48 <XLEN+0x8>
    410160d0:	00000e17          	auipc	x28,0x0
    410160d4:	048e0e13          	addi	x28,x28,72 # 41016118 <excp_return_label_31>
    410160d8:	03c23823          	sd	x28,48(x4) # 30 <SECURE_ACCESS_PROBABILITY+0x12>
    410160dc:	00000e13          	li	x28,0
    410160e0:	03c23c23          	sd	x28,56(x4) # 38 <SECURE_ACCESS_PROBABILITY+0x1a>
    410160e4:	00000e13          	li	x28,0
    410160e8:	07c23023          	sd	x28,96(x4) # 60 <XLEN+0x20>
    410160ec:	00000e13          	li	x28,0
    410160f0:	07c23423          	sd	x28,104(x4) # 68 <XLEN+0x28>
    410160f4:	00000e13          	li	x28,0
    410160f8:	07c23823          	sd	x28,112(x4) # 70 <XLEN+0x30>

00000000410160fc <fault_label_31>:
    410160fc:	607493f3          	csrrw	x7,hgeie,x9
    41016100:	00020c37          	lui	x24,0x20
    41016104:	887c0c1b          	addiw	x24,x24,-1913 # 1f887 <tp_csr_storage+0x12887>
    41016108:	00fc1c13          	slli	x24,x24,0xf
    4101610c:	008c0c13          	addi	x24,x24,8
    41016110:	000c3c83          	ld	x25,0(x24)
    41016114:	000c8067          	jr	x25

0000000041016118 <excp_return_label_31>:
    41016118:	00509237          	lui	x4,0x509
    4101611c:	5092021b          	addiw	x4,x4,1289 # 509509 <hart_stack_0_end+0x2b7509>
    41016120:	00e21213          	slli	x4,x4,0xe
    41016124:	01600e13          	li	x28,22
    41016128:	05c23823          	sd	x28,80(x4) # 50 <XLEN+0x10>
    4101612c:	00000e17          	auipc	x28,0x0
    41016130:	04ce0e13          	addi	x28,x28,76 # 41016178 <fault_label_32>
    41016134:	03c23023          	sd	x28,32(x4) # 20 <SECURE_ACCESS_PROBABILITY+0x2>
    41016138:	00000e13          	li	x28,0
    4101613c:	05c23023          	sd	x28,64(x4) # 40 <XLEN>
    41016140:	00000e13          	li	x28,0
    41016144:	05c23423          	sd	x28,72(x4) # 48 <XLEN+0x8>
    41016148:	00000e17          	auipc	x28,0x0
    4101614c:	04ce0e13          	addi	x28,x28,76 # 41016194 <excp_return_label_32>
    41016150:	03c23823          	sd	x28,48(x4) # 30 <SECURE_ACCESS_PROBABILITY+0x12>
    41016154:	00000e13          	li	x28,0
    41016158:	03c23c23          	sd	x28,56(x4) # 38 <SECURE_ACCESS_PROBABILITY+0x1a>
    4101615c:	00000e13          	li	x28,0
    41016160:	07c23023          	sd	x28,96(x4) # 60 <XLEN+0x20>
    41016164:	00000e13          	li	x28,0
    41016168:	07c23423          	sd	x28,104(x4) # 68 <XLEN+0x28>
    4101616c:	00000e13          	li	x28,0
    41016170:	07c23823          	sd	x28,112(x4) # 70 <XLEN+0x30>
    41016174:	00000d13          	li	x26,0

0000000041016178 <fault_label_32>:
    41016178:	60ad2b73          	csrrs	x22,henvcfg,x26
    4101617c:	000209b7          	lui	x19,0x20
    41016180:	8879899b          	addiw	x19,x19,-1913 # 1f887 <tp_csr_storage+0x12887>
    41016184:	00f99993          	slli	x19,x19,0xf
    41016188:	00898993          	addi	x19,x19,8
    4101618c:	0009bb03          	ld	x22,0(x19)
    41016190:	000b0067          	jr	x22

0000000041016194 <excp_return_label_32>:
    41016194:	00509237          	lui	x4,0x509
    41016198:	5092021b          	addiw	x4,x4,1289 # 509509 <hart_stack_0_end+0x2b7509>
    4101619c:	00e21213          	slli	x4,x4,0xe
    410161a0:	01600e13          	li	x28,22
    410161a4:	05c23823          	sd	x28,80(x4) # 50 <XLEN+0x10>
    410161a8:	00000e17          	auipc	x28,0x0
    410161ac:	048e0e13          	addi	x28,x28,72 # 410161f0 <fault_label_33>
    410161b0:	03c23023          	sd	x28,32(x4) # 20 <SECURE_ACCESS_PROBABILITY+0x2>
    410161b4:	00000e13          	li	x28,0
    410161b8:	05c23023          	sd	x28,64(x4) # 40 <XLEN>
    410161bc:	00000e13          	li	x28,0
    410161c0:	05c23423          	sd	x28,72(x4) # 48 <XLEN+0x8>
    410161c4:	00000e17          	auipc	x28,0x0
    410161c8:	048e0e13          	addi	x28,x28,72 # 4101620c <excp_return_label_33>
    410161cc:	03c23823          	sd	x28,48(x4) # 30 <SECURE_ACCESS_PROBABILITY+0x12>
    410161d0:	00000e13          	li	x28,0
    410161d4:	03c23c23          	sd	x28,56(x4) # 38 <SECURE_ACCESS_PROBABILITY+0x1a>
    410161d8:	00000e13          	li	x28,0
    410161dc:	07c23023          	sd	x28,96(x4) # 60 <XLEN+0x20>
    410161e0:	00000e13          	li	x28,0
    410161e4:	07c23423          	sd	x28,104(x4) # 68 <XLEN+0x28>
    410161e8:	00000e13          	li	x28,0
    410161ec:	07c23823          	sd	x28,112(x4) # 70 <XLEN+0x30>

00000000410161f0 <fault_label_33>:
    410161f0:	60a49773          	csrrw	x14,henvcfg,x9
    410161f4:	00020fb7          	lui	x31,0x20
    410161f8:	887f8f9b          	addiw	x31,x31,-1913 # 1f887 <tp_csr_storage+0x12887>
    410161fc:	00ff9f93          	slli	x31,x31,0xf
    41016200:	008f8f93          	addi	x31,x31,8
    41016204:	000fb703          	ld	x14,0(x31)
    41016208:	00070067          	jr	x14

000000004101620c <excp_return_label_33>:
    4101620c:	00509237          	lui	x4,0x509
    41016210:	5092021b          	addiw	x4,x4,1289 # 509509 <hart_stack_0_end+0x2b7509>
    41016214:	00e21213          	slli	x4,x4,0xe
    41016218:	01600e13          	li	x28,22
    4101621c:	05c23823          	sd	x28,80(x4) # 50 <XLEN+0x10>
    41016220:	00000e17          	auipc	x28,0x0
    41016224:	04ce0e13          	addi	x28,x28,76 # 4101626c <fault_label_34>
    41016228:	03c23023          	sd	x28,32(x4) # 20 <SECURE_ACCESS_PROBABILITY+0x2>
    4101622c:	00000e13          	li	x28,0
    41016230:	05c23023          	sd	x28,64(x4) # 40 <XLEN>
    41016234:	00000e13          	li	x28,0
    41016238:	05c23423          	sd	x28,72(x4) # 48 <XLEN+0x8>
    4101623c:	00000e17          	auipc	x28,0x0
    41016240:	04ce0e13          	addi	x28,x28,76 # 41016288 <excp_return_label_34>
    41016244:	03c23823          	sd	x28,48(x4) # 30 <SECURE_ACCESS_PROBABILITY+0x12>
    41016248:	00000e13          	li	x28,0
    4101624c:	03c23c23          	sd	x28,56(x4) # 38 <SECURE_ACCESS_PROBABILITY+0x1a>
    41016250:	00000e13          	li	x28,0
    41016254:	07c23023          	sd	x28,96(x4) # 60 <XLEN+0x20>
    41016258:	00000e13          	li	x28,0
    4101625c:	07c23423          	sd	x28,104(x4) # 68 <XLEN+0x28>
    41016260:	00000e13          	li	x28,0
    41016264:	07c23823          	sd	x28,112(x4) # 70 <XLEN+0x30>
    41016268:	00000613          	li	x12,0

000000004101626c <fault_label_34>:
    4101626c:	60662bf3          	csrrs	x23,hcounteren,x12
    41016270:	00020d37          	lui	x26,0x20
    41016274:	887d0d1b          	addiw	x26,x26,-1913 # 1f887 <tp_csr_storage+0x12887>
    41016278:	00fd1d13          	slli	x26,x26,0xf
    4101627c:	008d0d13          	addi	x26,x26,8
    41016280:	000d3f83          	ld	x31,0(x26)
    41016284:	000f8067          	jr	x31

0000000041016288 <excp_return_label_34>:
    41016288:	00509237          	lui	x4,0x509
    4101628c:	5092021b          	addiw	x4,x4,1289 # 509509 <hart_stack_0_end+0x2b7509>
    41016290:	00e21213          	slli	x4,x4,0xe
    41016294:	01600e13          	li	x28,22
    41016298:	05c23823          	sd	x28,80(x4) # 50 <XLEN+0x10>
    4101629c:	00000e17          	auipc	x28,0x0
    410162a0:	048e0e13          	addi	x28,x28,72 # 410162e4 <fault_label_35>
    410162a4:	03c23023          	sd	x28,32(x4) # 20 <SECURE_ACCESS_PROBABILITY+0x2>
    410162a8:	00000e13          	li	x28,0
    410162ac:	05c23023          	sd	x28,64(x4) # 40 <XLEN>
    410162b0:	00000e13          	li	x28,0
    410162b4:	05c23423          	sd	x28,72(x4) # 48 <XLEN+0x8>
    410162b8:	00000e17          	auipc	x28,0x0
    410162bc:	048e0e13          	addi	x28,x28,72 # 41016300 <excp_return_label_35>
    410162c0:	03c23823          	sd	x28,48(x4) # 30 <SECURE_ACCESS_PROBABILITY+0x12>
    410162c4:	00000e13          	li	x28,0
    410162c8:	03c23c23          	sd	x28,56(x4) # 38 <SECURE_ACCESS_PROBABILITY+0x1a>
    410162cc:	00000e13          	li	x28,0
    410162d0:	07c23023          	sd	x28,96(x4) # 60 <XLEN+0x20>
    410162d4:	00000e13          	li	x28,0
    410162d8:	07c23423          	sd	x28,104(x4) # 68 <XLEN+0x28>
    410162dc:	00000e13          	li	x28,0
    410162e0:	07c23823          	sd	x28,112(x4) # 70 <XLEN+0x30>

00000000410162e4 <fault_label_35>:
    410162e4:	60649473          	csrrw	x8,hcounteren,x9
    410162e8:	00020a37          	lui	x20,0x20
    410162ec:	887a0a1b          	addiw	x20,x20,-1913 # 1f887 <tp_csr_storage+0x12887>
    410162f0:	00fa1a13          	slli	x20,x20,0xf
    410162f4:	008a0a13          	addi	x20,x20,8
    410162f8:	000a3703          	ld	x14,0(x20)
    410162fc:	00070067          	jr	x14

0000000041016300 <excp_return_label_35>:
    41016300:	00509237          	lui	x4,0x509
    41016304:	5092021b          	addiw	x4,x4,1289 # 509509 <hart_stack_0_end+0x2b7509>
    41016308:	00e21213          	slli	x4,x4,0xe
    4101630c:	01600e13          	li	x28,22
    41016310:	05c23823          	sd	x28,80(x4) # 50 <XLEN+0x10>
    41016314:	00000e17          	auipc	x28,0x0
    41016318:	04ce0e13          	addi	x28,x28,76 # 41016360 <fault_label_36>
    4101631c:	03c23023          	sd	x28,32(x4) # 20 <SECURE_ACCESS_PROBABILITY+0x2>
    41016320:	00000e13          	li	x28,0
    41016324:	05c23023          	sd	x28,64(x4) # 40 <XLEN>
    41016328:	00000e13          	li	x28,0
    4101632c:	05c23423          	sd	x28,72(x4) # 48 <XLEN+0x8>
    41016330:	00000e17          	auipc	x28,0x0
    41016334:	04ce0e13          	addi	x28,x28,76 # 4101637c <excp_return_label_36>
    41016338:	03c23823          	sd	x28,48(x4) # 30 <SECURE_ACCESS_PROBABILITY+0x12>
    4101633c:	00000e13          	li	x28,0
    41016340:	03c23c23          	sd	x28,56(x4) # 38 <SECURE_ACCESS_PROBABILITY+0x1a>
    41016344:	00000e13          	li	x28,0
    41016348:	07c23023          	sd	x28,96(x4) # 60 <XLEN+0x20>
    4101634c:	00000e13          	li	x28,0
    41016350:	07c23423          	sd	x28,104(x4) # 68 <XLEN+0x28>
    41016354:	00000e13          	li	x28,0
    41016358:	07c23823          	sd	x28,112(x4) # 70 <XLEN+0x30>
    4101635c:	00000f13          	li	x30,0

0000000041016360 <fault_label_36>:
    41016360:	605f2473          	csrrs	x8,htimedelta,x30
    41016364:	000208b7          	lui	x17,0x20
    41016368:	8878889b          	addiw	x17,x17,-1913 # 1f887 <tp_csr_storage+0x12887>
    4101636c:	00f89893          	slli	x17,x17,0xf
    41016370:	00888893          	addi	x17,x17,8
    41016374:	0008b883          	ld	x17,0(x17)
    41016378:	00088067          	jr	x17

000000004101637c <excp_return_label_36>:
    4101637c:	00509237          	lui	x4,0x509
    41016380:	5092021b          	addiw	x4,x4,1289 # 509509 <hart_stack_0_end+0x2b7509>
    41016384:	00e21213          	slli	x4,x4,0xe
    41016388:	01600e13          	li	x28,22
    4101638c:	05c23823          	sd	x28,80(x4) # 50 <XLEN+0x10>
    41016390:	00000e17          	auipc	x28,0x0
    41016394:	048e0e13          	addi	x28,x28,72 # 410163d8 <fault_label_37>
    41016398:	03c23023          	sd	x28,32(x4) # 20 <SECURE_ACCESS_PROBABILITY+0x2>
    4101639c:	00000e13          	li	x28,0
    410163a0:	05c23023          	sd	x28,64(x4) # 40 <XLEN>
    410163a4:	00000e13          	li	x28,0
    410163a8:	05c23423          	sd	x28,72(x4) # 48 <XLEN+0x8>
    410163ac:	00000e17          	auipc	x28,0x0
    410163b0:	048e0e13          	addi	x28,x28,72 # 410163f4 <excp_return_label_37>
    410163b4:	03c23823          	sd	x28,48(x4) # 30 <SECURE_ACCESS_PROBABILITY+0x12>
    410163b8:	00000e13          	li	x28,0
    410163bc:	03c23c23          	sd	x28,56(x4) # 38 <SECURE_ACCESS_PROBABILITY+0x1a>
    410163c0:	00000e13          	li	x28,0
    410163c4:	07c23023          	sd	x28,96(x4) # 60 <XLEN+0x20>
    410163c8:	00000e13          	li	x28,0
    410163cc:	07c23423          	sd	x28,104(x4) # 68 <XLEN+0x28>
    410163d0:	00000e13          	li	x28,0
    410163d4:	07c23823          	sd	x28,112(x4) # 70 <XLEN+0x30>

00000000410163d8 <fault_label_37>:
    410163d8:	60549673          	csrrw	x12,htimedelta,x9
    410163dc:	00020db7          	lui	x27,0x20
    410163e0:	887d8d9b          	addiw	x27,x27,-1913 # 1f887 <tp_csr_storage+0x12887>
    410163e4:	00fd9d93          	slli	x27,x27,0xf
    410163e8:	008d8d93          	addi	x27,x27,8
    410163ec:	000db783          	ld	x15,0(x27)
    410163f0:	00078067          	jr	x15

00000000410163f4 <excp_return_label_37>:
    410163f4:	00509237          	lui	x4,0x509
    410163f8:	5092021b          	addiw	x4,x4,1289 # 509509 <hart_stack_0_end+0x2b7509>
    410163fc:	00e21213          	slli	x4,x4,0xe
    41016400:	01600e13          	li	x28,22
    41016404:	05c23823          	sd	x28,80(x4) # 50 <XLEN+0x10>
    41016408:	00000e17          	auipc	x28,0x0
    4101640c:	04ce0e13          	addi	x28,x28,76 # 41016454 <fault_label_38>
    41016410:	03c23023          	sd	x28,32(x4) # 20 <SECURE_ACCESS_PROBABILITY+0x2>
    41016414:	00000e13          	li	x28,0
    41016418:	05c23023          	sd	x28,64(x4) # 40 <XLEN>
    4101641c:	00000e13          	li	x28,0
    41016420:	05c23423          	sd	x28,72(x4) # 48 <XLEN+0x8>
    41016424:	00000e17          	auipc	x28,0x0
    41016428:	04ce0e13          	addi	x28,x28,76 # 41016470 <excp_return_label_38>
    4101642c:	03c23823          	sd	x28,48(x4) # 30 <SECURE_ACCESS_PROBABILITY+0x12>
    41016430:	00000e13          	li	x28,0
    41016434:	03c23c23          	sd	x28,56(x4) # 38 <SECURE_ACCESS_PROBABILITY+0x1a>
    41016438:	00000e13          	li	x28,0
    4101643c:	07c23023          	sd	x28,96(x4) # 60 <XLEN+0x20>
    41016440:	00000e13          	li	x28,0
    41016444:	07c23423          	sd	x28,104(x4) # 68 <XLEN+0x28>
    41016448:	00000e13          	li	x28,0
    4101644c:	07c23823          	sd	x28,112(x4) # 70 <XLEN+0x30>
    41016450:	00000693          	li	x13,0

0000000041016454 <fault_label_38>:
    41016454:	6436a5f3          	csrrs	x11,htval,x13
    41016458:	00020937          	lui	x18,0x20
    4101645c:	8879091b          	addiw	x18,x18,-1913 # 1f887 <tp_csr_storage+0x12887>
    41016460:	00f91913          	slli	x18,x18,0xf
    41016464:	00890913          	addi	x18,x18,8
    41016468:	00093f83          	ld	x31,0(x18)
    4101646c:	000f8067          	jr	x31

0000000041016470 <excp_return_label_38>:
    41016470:	00509237          	lui	x4,0x509
    41016474:	5092021b          	addiw	x4,x4,1289 # 509509 <hart_stack_0_end+0x2b7509>
    41016478:	00e21213          	slli	x4,x4,0xe
    4101647c:	01600e13          	li	x28,22
    41016480:	05c23823          	sd	x28,80(x4) # 50 <XLEN+0x10>
    41016484:	00000e17          	auipc	x28,0x0
    41016488:	048e0e13          	addi	x28,x28,72 # 410164cc <fault_label_39>
    4101648c:	03c23023          	sd	x28,32(x4) # 20 <SECURE_ACCESS_PROBABILITY+0x2>
    41016490:	00000e13          	li	x28,0
    41016494:	05c23023          	sd	x28,64(x4) # 40 <XLEN>
    41016498:	00000e13          	li	x28,0
    4101649c:	05c23423          	sd	x28,72(x4) # 48 <XLEN+0x8>
    410164a0:	00000e17          	auipc	x28,0x0
    410164a4:	048e0e13          	addi	x28,x28,72 # 410164e8 <excp_return_label_39>
    410164a8:	03c23823          	sd	x28,48(x4) # 30 <SECURE_ACCESS_PROBABILITY+0x12>
    410164ac:	00000e13          	li	x28,0
    410164b0:	03c23c23          	sd	x28,56(x4) # 38 <SECURE_ACCESS_PROBABILITY+0x1a>
    410164b4:	00000e13          	li	x28,0
    410164b8:	07c23023          	sd	x28,96(x4) # 60 <XLEN+0x20>
    410164bc:	00000e13          	li	x28,0
    410164c0:	07c23423          	sd	x28,104(x4) # 68 <XLEN+0x28>
    410164c4:	00000e13          	li	x28,0
    410164c8:	07c23823          	sd	x28,112(x4) # 70 <XLEN+0x30>

00000000410164cc <fault_label_39>:
    410164cc:	643495f3          	csrrw	x11,htval,x9
    410164d0:	000205b7          	lui	x11,0x20
    410164d4:	8875859b          	addiw	x11,x11,-1913 # 1f887 <tp_csr_storage+0x12887>
    410164d8:	00f59593          	slli	x11,x11,0xf
    410164dc:	00858593          	addi	x11,x11,8
    410164e0:	0005b303          	ld	x6,0(x11)
    410164e4:	00030067          	jr	x6

00000000410164e8 <excp_return_label_39>:
    410164e8:	00509237          	lui	x4,0x509
    410164ec:	5092021b          	addiw	x4,x4,1289 # 509509 <hart_stack_0_end+0x2b7509>
    410164f0:	00e21213          	slli	x4,x4,0xe
    410164f4:	01600e13          	li	x28,22
    410164f8:	05c23823          	sd	x28,80(x4) # 50 <XLEN+0x10>
    410164fc:	00000e17          	auipc	x28,0x0
    41016500:	04ce0e13          	addi	x28,x28,76 # 41016548 <fault_label_40>
    41016504:	03c23023          	sd	x28,32(x4) # 20 <SECURE_ACCESS_PROBABILITY+0x2>
    41016508:	00000e13          	li	x28,0
    4101650c:	05c23023          	sd	x28,64(x4) # 40 <XLEN>
    41016510:	00000e13          	li	x28,0
    41016514:	05c23423          	sd	x28,72(x4) # 48 <XLEN+0x8>
    41016518:	00000e17          	auipc	x28,0x0
    4101651c:	04ce0e13          	addi	x28,x28,76 # 41016564 <excp_return_label_40>
    41016520:	03c23823          	sd	x28,48(x4) # 30 <SECURE_ACCESS_PROBABILITY+0x12>
    41016524:	00000e13          	li	x28,0
    41016528:	03c23c23          	sd	x28,56(x4) # 38 <SECURE_ACCESS_PROBABILITY+0x1a>
    4101652c:	00000e13          	li	x28,0
    41016530:	07c23023          	sd	x28,96(x4) # 60 <XLEN+0x20>
    41016534:	00000e13          	li	x28,0
    41016538:	07c23423          	sd	x28,104(x4) # 68 <XLEN+0x28>
    4101653c:	00000e13          	li	x28,0
    41016540:	07c23823          	sd	x28,112(x4) # 70 <XLEN+0x30>
    41016544:	00000513          	li	x10,0

0000000041016548 <fault_label_40>:
    41016548:	64a52a73          	csrrs	x20,htinst,x10
    4101654c:	00020737          	lui	x14,0x20
    41016550:	8877071b          	addiw	x14,x14,-1913 # 1f887 <tp_csr_storage+0x12887>
    41016554:	00f71713          	slli	x14,x14,0xf
    41016558:	00870713          	addi	x14,x14,8
    4101655c:	00073c03          	ld	x24,0(x14)
    41016560:	000c0067          	jr	x24

0000000041016564 <excp_return_label_40>:
    41016564:	00509237          	lui	x4,0x509
    41016568:	5092021b          	addiw	x4,x4,1289 # 509509 <hart_stack_0_end+0x2b7509>
    4101656c:	00e21213          	slli	x4,x4,0xe
    41016570:	01600e13          	li	x28,22
    41016574:	05c23823          	sd	x28,80(x4) # 50 <XLEN+0x10>
    41016578:	00000e17          	auipc	x28,0x0
    4101657c:	048e0e13          	addi	x28,x28,72 # 410165c0 <fault_label_41>
    41016580:	03c23023          	sd	x28,32(x4) # 20 <SECURE_ACCESS_PROBABILITY+0x2>
    41016584:	00000e13          	li	x28,0
    41016588:	05c23023          	sd	x28,64(x4) # 40 <XLEN>
    4101658c:	00000e13          	li	x28,0
    41016590:	05c23423          	sd	x28,72(x4) # 48 <XLEN+0x8>
    41016594:	00000e17          	auipc	x28,0x0
    41016598:	048e0e13          	addi	x28,x28,72 # 410165dc <excp_return_label_41>
    4101659c:	03c23823          	sd	x28,48(x4) # 30 <SECURE_ACCESS_PROBABILITY+0x12>
    410165a0:	00000e13          	li	x28,0
    410165a4:	03c23c23          	sd	x28,56(x4) # 38 <SECURE_ACCESS_PROBABILITY+0x1a>
    410165a8:	00000e13          	li	x28,0
    410165ac:	07c23023          	sd	x28,96(x4) # 60 <XLEN+0x20>
    410165b0:	00000e13          	li	x28,0
    410165b4:	07c23423          	sd	x28,104(x4) # 68 <XLEN+0x28>
    410165b8:	00000e13          	li	x28,0
    410165bc:	07c23823          	sd	x28,112(x4) # 70 <XLEN+0x30>

00000000410165c0 <fault_label_41>:
    410165c0:	64a49b73          	csrrw	x22,htinst,x9
    410165c4:	00020a37          	lui	x20,0x20
    410165c8:	887a0a1b          	addiw	x20,x20,-1913 # 1f887 <tp_csr_storage+0x12887>
    410165cc:	00fa1a13          	slli	x20,x20,0xf
    410165d0:	008a0a13          	addi	x20,x20,8
    410165d4:	000a3803          	ld	x16,0(x20)
    410165d8:	00080067          	jr	x16

00000000410165dc <excp_return_label_41>:
    410165dc:	00509237          	lui	x4,0x509
    410165e0:	5092021b          	addiw	x4,x4,1289 # 509509 <hart_stack_0_end+0x2b7509>
    410165e4:	00e21213          	slli	x4,x4,0xe
    410165e8:	01600e13          	li	x28,22
    410165ec:	05c23823          	sd	x28,80(x4) # 50 <XLEN+0x10>
    410165f0:	00000e17          	auipc	x28,0x0
    410165f4:	04ce0e13          	addi	x28,x28,76 # 4101663c <fault_label_42>
    410165f8:	03c23023          	sd	x28,32(x4) # 20 <SECURE_ACCESS_PROBABILITY+0x2>
    410165fc:	00000e13          	li	x28,0
    41016600:	05c23023          	sd	x28,64(x4) # 40 <XLEN>
    41016604:	00000e13          	li	x28,0
    41016608:	05c23423          	sd	x28,72(x4) # 48 <XLEN+0x8>
    4101660c:	00000e17          	auipc	x28,0x0
    41016610:	04ce0e13          	addi	x28,x28,76 # 41016658 <excp_return_label_42>
    41016614:	03c23823          	sd	x28,48(x4) # 30 <SECURE_ACCESS_PROBABILITY+0x12>
    41016618:	00000e13          	li	x28,0
    4101661c:	03c23c23          	sd	x28,56(x4) # 38 <SECURE_ACCESS_PROBABILITY+0x1a>
    41016620:	00000e13          	li	x28,0
    41016624:	07c23023          	sd	x28,96(x4) # 60 <XLEN+0x20>
    41016628:	00000e13          	li	x28,0
    4101662c:	07c23423          	sd	x28,104(x4) # 68 <XLEN+0x28>
    41016630:	00000e13          	li	x28,0
    41016634:	07c23823          	sd	x28,112(x4) # 70 <XLEN+0x30>
    41016638:	00000e93          	li	x29,0

000000004101663c <fault_label_42>:
    4101663c:	680eacf3          	csrrs	x25,hgatp,x29
    41016640:	000203b7          	lui	x7,0x20
    41016644:	8873839b          	addiw	x7,x7,-1913 # 1f887 <tp_csr_storage+0x12887>
    41016648:	00f39393          	slli	x7,x7,0xf
    4101664c:	00838393          	addi	x7,x7,8
    41016650:	0003ba83          	ld	x21,0(x7)
    41016654:	000a8067          	jr	x21

0000000041016658 <excp_return_label_42>:
    41016658:	00509237          	lui	x4,0x509
    4101665c:	5092021b          	addiw	x4,x4,1289 # 509509 <hart_stack_0_end+0x2b7509>
    41016660:	00e21213          	slli	x4,x4,0xe
    41016664:	01600e13          	li	x28,22
    41016668:	05c23823          	sd	x28,80(x4) # 50 <XLEN+0x10>
    4101666c:	00000e17          	auipc	x28,0x0
    41016670:	048e0e13          	addi	x28,x28,72 # 410166b4 <fault_label_43>
    41016674:	03c23023          	sd	x28,32(x4) # 20 <SECURE_ACCESS_PROBABILITY+0x2>
    41016678:	00000e13          	li	x28,0
    4101667c:	05c23023          	sd	x28,64(x4) # 40 <XLEN>
    41016680:	00000e13          	li	x28,0
    41016684:	05c23423          	sd	x28,72(x4) # 48 <XLEN+0x8>
    41016688:	00000e17          	auipc	x28,0x0
    4101668c:	048e0e13          	addi	x28,x28,72 # 410166d0 <excp_return_label_43>
    41016690:	03c23823          	sd	x28,48(x4) # 30 <SECURE_ACCESS_PROBABILITY+0x12>
    41016694:	00000e13          	li	x28,0
    41016698:	03c23c23          	sd	x28,56(x4) # 38 <SECURE_ACCESS_PROBABILITY+0x1a>
    4101669c:	00000e13          	li	x28,0
    410166a0:	07c23023          	sd	x28,96(x4) # 60 <XLEN+0x20>
    410166a4:	00000e13          	li	x28,0
    410166a8:	07c23423          	sd	x28,104(x4) # 68 <XLEN+0x28>
    410166ac:	00000e13          	li	x28,0
    410166b0:	07c23823          	sd	x28,112(x4) # 70 <XLEN+0x30>

00000000410166b4 <fault_label_43>:
    410166b4:	680499f3          	csrrw	x19,hgatp,x9
    410166b8:	00020ab7          	lui	x21,0x20
    410166bc:	887a8a9b          	addiw	x21,x21,-1913 # 1f887 <tp_csr_storage+0x12887>
    410166c0:	00fa9a93          	slli	x21,x21,0xf
    410166c4:	008a8a93          	addi	x21,x21,8
    410166c8:	000abe03          	ld	x28,0(x21)
    410166cc:	000e0067          	jr	x28

00000000410166d0 <excp_return_label_43>:
    410166d0:	00509237          	lui	x4,0x509
    410166d4:	5092021b          	addiw	x4,x4,1289 # 509509 <hart_stack_0_end+0x2b7509>
    410166d8:	00e21213          	slli	x4,x4,0xe
    410166dc:	01600e13          	li	x28,22
    410166e0:	05c23823          	sd	x28,80(x4) # 50 <XLEN+0x10>
    410166e4:	00000e17          	auipc	x28,0x0
    410166e8:	04ce0e13          	addi	x28,x28,76 # 41016730 <fault_label_44>
    410166ec:	03c23023          	sd	x28,32(x4) # 20 <SECURE_ACCESS_PROBABILITY+0x2>
    410166f0:	00000e13          	li	x28,0
    410166f4:	05c23023          	sd	x28,64(x4) # 40 <XLEN>
    410166f8:	00000e13          	li	x28,0
    410166fc:	05c23423          	sd	x28,72(x4) # 48 <XLEN+0x8>
    41016700:	00000e17          	auipc	x28,0x0
    41016704:	04ce0e13          	addi	x28,x28,76 # 4101674c <excp_return_label_44>
    41016708:	03c23823          	sd	x28,48(x4) # 30 <SECURE_ACCESS_PROBABILITY+0x12>
    4101670c:	00000e13          	li	x28,0
    41016710:	03c23c23          	sd	x28,56(x4) # 38 <SECURE_ACCESS_PROBABILITY+0x1a>
    41016714:	00000e13          	li	x28,0
    41016718:	07c23023          	sd	x28,96(x4) # 60 <XLEN+0x20>
    4101671c:	00000e13          	li	x28,0
    41016720:	07c23423          	sd	x28,104(x4) # 68 <XLEN+0x28>
    41016724:	00000e13          	li	x28,0
    41016728:	07c23823          	sd	x28,112(x4) # 70 <XLEN+0x30>
    4101672c:	00000593          	li	x11,0

0000000041016730 <fault_label_44>:
    41016730:	6a85a6f3          	csrrs	x13,hcontext,x11
    41016734:	000208b7          	lui	x17,0x20
    41016738:	8878889b          	addiw	x17,x17,-1913 # 1f887 <tp_csr_storage+0x12887>
    4101673c:	00f89893          	slli	x17,x17,0xf
    41016740:	00888893          	addi	x17,x17,8
    41016744:	0008bd83          	ld	x27,0(x17)
    41016748:	000d8067          	jr	x27

000000004101674c <excp_return_label_44>:
    4101674c:	00509237          	lui	x4,0x509
    41016750:	5092021b          	addiw	x4,x4,1289 # 509509 <hart_stack_0_end+0x2b7509>
    41016754:	00e21213          	slli	x4,x4,0xe
    41016758:	01600e13          	li	x28,22
    4101675c:	05c23823          	sd	x28,80(x4) # 50 <XLEN+0x10>
    41016760:	00000e17          	auipc	x28,0x0
    41016764:	048e0e13          	addi	x28,x28,72 # 410167a8 <fault_label_45>
    41016768:	03c23023          	sd	x28,32(x4) # 20 <SECURE_ACCESS_PROBABILITY+0x2>
    4101676c:	00000e13          	li	x28,0
    41016770:	05c23023          	sd	x28,64(x4) # 40 <XLEN>
    41016774:	00000e13          	li	x28,0
    41016778:	05c23423          	sd	x28,72(x4) # 48 <XLEN+0x8>
    4101677c:	00000e17          	auipc	x28,0x0
    41016780:	048e0e13          	addi	x28,x28,72 # 410167c4 <excp_return_label_45>
    41016784:	03c23823          	sd	x28,48(x4) # 30 <SECURE_ACCESS_PROBABILITY+0x12>
    41016788:	00000e13          	li	x28,0
    4101678c:	03c23c23          	sd	x28,56(x4) # 38 <SECURE_ACCESS_PROBABILITY+0x1a>
    41016790:	00000e13          	li	x28,0
    41016794:	07c23023          	sd	x28,96(x4) # 60 <XLEN+0x20>
    41016798:	00000e13          	li	x28,0
    4101679c:	07c23423          	sd	x28,104(x4) # 68 <XLEN+0x28>
    410167a0:	00000e13          	li	x28,0
    410167a4:	07c23823          	sd	x28,112(x4) # 70 <XLEN+0x30>

00000000410167a8 <fault_label_45>:
    410167a8:	6a8498f3          	csrrw	x17,hcontext,x9
    410167ac:	000207b7          	lui	x15,0x20
    410167b0:	8877879b          	addiw	x15,x15,-1913 # 1f887 <tp_csr_storage+0x12887>
    410167b4:	00f79793          	slli	x15,x15,0xf
    410167b8:	00878793          	addi	x15,x15,8
    410167bc:	0007b383          	ld	x7,0(x15)
    410167c0:	00038067          	jr	x7

00000000410167c4 <excp_return_label_45>:
    410167c4:	00509237          	lui	x4,0x509
    410167c8:	5092021b          	addiw	x4,x4,1289 # 509509 <hart_stack_0_end+0x2b7509>
    410167cc:	00e21213          	slli	x4,x4,0xe
    410167d0:	01600e13          	li	x28,22
    410167d4:	05c23823          	sd	x28,80(x4) # 50 <XLEN+0x10>
    410167d8:	00000e17          	auipc	x28,0x0
    410167dc:	048e0e13          	addi	x28,x28,72 # 41016820 <fault_label_46>
    410167e0:	03c23023          	sd	x28,32(x4) # 20 <SECURE_ACCESS_PROBABILITY+0x2>
    410167e4:	00000e13          	li	x28,0
    410167e8:	05c23023          	sd	x28,64(x4) # 40 <XLEN>
    410167ec:	00000e13          	li	x28,0
    410167f0:	05c23423          	sd	x28,72(x4) # 48 <XLEN+0x8>
    410167f4:	00000e17          	auipc	x28,0x0
    410167f8:	04ce0e13          	addi	x28,x28,76 # 41016840 <excp_return_label_46>
    410167fc:	03c23823          	sd	x28,48(x4) # 30 <SECURE_ACCESS_PROBABILITY+0x12>
    41016800:	00000e13          	li	x28,0
    41016804:	03c23c23          	sd	x28,56(x4) # 38 <SECURE_ACCESS_PROBABILITY+0x1a>
    41016808:	00000e13          	li	x28,0
    4101680c:	07c23023          	sd	x28,96(x4) # 60 <XLEN+0x20>
    41016810:	00000e13          	li	x28,0
    41016814:	07c23423          	sd	x28,104(x4) # 68 <XLEN+0x28>
    41016818:	00000e13          	li	x28,0
    4101681c:	07c23823          	sd	x28,112(x4) # 70 <XLEN+0x30>

0000000041016820 <fault_label_46>:
    41016820:	e12023f3          	csrr	x7,hgeip
    41016824:	00038493          	mv	x9,x7
    41016828:	00020bb7          	lui	x23,0x20
    4101682c:	887b8b9b          	addiw	x23,x23,-1913 # 1f887 <tp_csr_storage+0x12887>
    41016830:	00fb9b93          	slli	x23,x23,0xf
    41016834:	008b8b93          	addi	x23,x23,8
    41016838:	000bb803          	ld	x16,0(x23)
    4101683c:	00080067          	jr	x16

0000000041016840 <excp_return_label_46>:
    41016840:	0000d137          	lui	x2,0xd
    41016844:	00013383          	ld	x7,0(x2) # d000 <tp_csr_storage>
    41016848:	00020fb7          	lui	x31,0x20
    4101684c:	887f8f9b          	addiw	x31,x31,-1913 # 1f887 <tp_csr_storage+0x12887>
    41016850:	00ff9f93          	slli	x31,x31,0xf
    41016854:	0b0f8f93          	addi	x31,x31,176
    41016858:	00400f13          	li	x30,4
    4101685c:	01efb023          	sd	x30,0(x31)
    41016860:	000f0fb7          	lui	x31,0xf0
    41016864:	001f8f9b          	addiw	x31,x31,1 # f0001 <SID_HEXCEP_16_fs0_both_stack+0x5e001>
    41016868:	00cf9f93          	slli	x31,x31,0xc
    4101686c:	005f8f93          	addi	x31,x31,5
    41016870:	00000073          	ecall

0000000041016874 <SID_HEXCEP_05_passed>:
    41016874:	00f00f9b          	addiw	x31,x0,15
    41016878:	01cf9f93          	slli	x31,x31,0x1c
    4101687c:	001f8f93          	addi	x31,x31,1
    41016880:	00000073          	ecall

0000000041016884 <SID_HEXCEP_06>:
    41016884:	0007c137          	lui	x2,0x7c
    41016888:	000012b7          	lui	x5,0x1
    4101688c:	00510133          	add	x2,x2,x5
    41016890:	ff017113          	andi	x2,x2,-16
    41016894:	00000d13          	li	x26,0
    41016898:	00509237          	lui	x4,0x509
    4101689c:	5092021b          	addiw	x4,x4,1289 # 509509 <hart_stack_0_end+0x2b7509>
    410168a0:	00e21213          	slli	x4,x4,0xe
    410168a4:	01600e13          	li	x28,22
    410168a8:	05c23823          	sd	x28,80(x4) # 50 <XLEN+0x10>
    410168ac:	00000e17          	auipc	x28,0x0
    410168b0:	04ce0e13          	addi	x28,x28,76 # 410168f8 <fault_label_47>
    410168b4:	03c23023          	sd	x28,32(x4) # 20 <SECURE_ACCESS_PROBABILITY+0x2>
    410168b8:	00000e13          	li	x28,0
    410168bc:	05c23023          	sd	x28,64(x4) # 40 <XLEN>
    410168c0:	00000e13          	li	x28,0
    410168c4:	05c23423          	sd	x28,72(x4) # 48 <XLEN+0x8>
    410168c8:	00000e17          	auipc	x28,0x0
    410168cc:	04ce0e13          	addi	x28,x28,76 # 41016914 <excp_return_label_47>
    410168d0:	03c23823          	sd	x28,48(x4) # 30 <SECURE_ACCESS_PROBABILITY+0x12>
    410168d4:	00000e13          	li	x28,0
    410168d8:	03c23c23          	sd	x28,56(x4) # 38 <SECURE_ACCESS_PROBABILITY+0x1a>
    410168dc:	00000e13          	li	x28,0
    410168e0:	07c23023          	sd	x28,96(x4) # 60 <XLEN+0x20>
    410168e4:	00000e13          	li	x28,0
    410168e8:	07c23423          	sd	x28,104(x4) # 68 <XLEN+0x28>
    410168ec:	00000e13          	li	x28,0
    410168f0:	07c23823          	sd	x28,112(x4) # 70 <XLEN+0x30>
    410168f4:	00000393          	li	x7,0

00000000410168f8 <fault_label_47>:
    410168f8:	1003a773          	csrrs	x14,sstatus,x7
    410168fc:	000205b7          	lui	x11,0x20
    41016900:	8875859b          	addiw	x11,x11,-1913 # 1f887 <tp_csr_storage+0x12887>
    41016904:	00f59593          	slli	x11,x11,0xf
    41016908:	00858593          	addi	x11,x11,8
    4101690c:	0005b403          	ld	x8,0(x11)
    41016910:	00040067          	jr	x8

0000000041016914 <excp_return_label_47>:
    41016914:	00509237          	lui	x4,0x509
    41016918:	5092021b          	addiw	x4,x4,1289 # 509509 <hart_stack_0_end+0x2b7509>
    4101691c:	00e21213          	slli	x4,x4,0xe
    41016920:	01600e13          	li	x28,22
    41016924:	05c23823          	sd	x28,80(x4) # 50 <XLEN+0x10>
    41016928:	00000e17          	auipc	x28,0x0
    4101692c:	048e0e13          	addi	x28,x28,72 # 41016970 <fault_label_48>
    41016930:	03c23023          	sd	x28,32(x4) # 20 <SECURE_ACCESS_PROBABILITY+0x2>
    41016934:	00000e13          	li	x28,0
    41016938:	05c23023          	sd	x28,64(x4) # 40 <XLEN>
    4101693c:	00000e13          	li	x28,0
    41016940:	05c23423          	sd	x28,72(x4) # 48 <XLEN+0x8>
    41016944:	00000e17          	auipc	x28,0x0
    41016948:	048e0e13          	addi	x28,x28,72 # 4101698c <excp_return_label_48>
    4101694c:	03c23823          	sd	x28,48(x4) # 30 <SECURE_ACCESS_PROBABILITY+0x12>
    41016950:	00000e13          	li	x28,0
    41016954:	03c23c23          	sd	x28,56(x4) # 38 <SECURE_ACCESS_PROBABILITY+0x1a>
    41016958:	00000e13          	li	x28,0
    4101695c:	07c23023          	sd	x28,96(x4) # 60 <XLEN+0x20>
    41016960:	00000e13          	li	x28,0
    41016964:	07c23423          	sd	x28,104(x4) # 68 <XLEN+0x28>
    41016968:	00000e13          	li	x28,0
    4101696c:	07c23823          	sd	x28,112(x4) # 70 <XLEN+0x30>

0000000041016970 <fault_label_48>:
    41016970:	100d1373          	csrrw	x6,sstatus,x26
    41016974:	00020b37          	lui	x22,0x20
    41016978:	887b0b1b          	addiw	x22,x22,-1913 # 1f887 <tp_csr_storage+0x12887>
    4101697c:	00fb1b13          	slli	x22,x22,0xf
    41016980:	008b0b13          	addi	x22,x22,8
    41016984:	000b3383          	ld	x7,0(x22)
    41016988:	00038067          	jr	x7

000000004101698c <excp_return_label_48>:
    4101698c:	00509237          	lui	x4,0x509
    41016990:	5092021b          	addiw	x4,x4,1289 # 509509 <hart_stack_0_end+0x2b7509>
    41016994:	00e21213          	slli	x4,x4,0xe
    41016998:	01600e13          	li	x28,22
    4101699c:	05c23823          	sd	x28,80(x4) # 50 <XLEN+0x10>
    410169a0:	00000e17          	auipc	x28,0x0
    410169a4:	04ce0e13          	addi	x28,x28,76 # 410169ec <fault_label_49>
    410169a8:	03c23023          	sd	x28,32(x4) # 20 <SECURE_ACCESS_PROBABILITY+0x2>
    410169ac:	00000e13          	li	x28,0
    410169b0:	05c23023          	sd	x28,64(x4) # 40 <XLEN>
    410169b4:	00000e13          	li	x28,0
    410169b8:	05c23423          	sd	x28,72(x4) # 48 <XLEN+0x8>
    410169bc:	00000e17          	auipc	x28,0x0
    410169c0:	04ce0e13          	addi	x28,x28,76 # 41016a08 <excp_return_label_49>
    410169c4:	03c23823          	sd	x28,48(x4) # 30 <SECURE_ACCESS_PROBABILITY+0x12>
    410169c8:	00000e13          	li	x28,0
    410169cc:	03c23c23          	sd	x28,56(x4) # 38 <SECURE_ACCESS_PROBABILITY+0x1a>
    410169d0:	00000e13          	li	x28,0
    410169d4:	07c23023          	sd	x28,96(x4) # 60 <XLEN+0x20>
    410169d8:	00000e13          	li	x28,0
    410169dc:	07c23423          	sd	x28,104(x4) # 68 <XLEN+0x28>
    410169e0:	00000e13          	li	x28,0
    410169e4:	07c23823          	sd	x28,112(x4) # 70 <XLEN+0x30>
    410169e8:	00000593          	li	x11,0

00000000410169ec <fault_label_49>:
    410169ec:	1445a3f3          	csrrs	x7,sip,x11
    410169f0:	000205b7          	lui	x11,0x20
    410169f4:	8875859b          	addiw	x11,x11,-1913 # 1f887 <tp_csr_storage+0x12887>
    410169f8:	00f59593          	slli	x11,x11,0xf
    410169fc:	00858593          	addi	x11,x11,8
    41016a00:	0005b683          	ld	x13,0(x11)
    41016a04:	00068067          	jr	x13

0000000041016a08 <excp_return_label_49>:
    41016a08:	00509237          	lui	x4,0x509
    41016a0c:	5092021b          	addiw	x4,x4,1289 # 509509 <hart_stack_0_end+0x2b7509>
    41016a10:	00e21213          	slli	x4,x4,0xe
    41016a14:	01600e13          	li	x28,22
    41016a18:	05c23823          	sd	x28,80(x4) # 50 <XLEN+0x10>
    41016a1c:	00000e17          	auipc	x28,0x0
    41016a20:	048e0e13          	addi	x28,x28,72 # 41016a64 <fault_label_50>
    41016a24:	03c23023          	sd	x28,32(x4) # 20 <SECURE_ACCESS_PROBABILITY+0x2>
    41016a28:	00000e13          	li	x28,0
    41016a2c:	05c23023          	sd	x28,64(x4) # 40 <XLEN>
    41016a30:	00000e13          	li	x28,0
    41016a34:	05c23423          	sd	x28,72(x4) # 48 <XLEN+0x8>
    41016a38:	00000e17          	auipc	x28,0x0
    41016a3c:	048e0e13          	addi	x28,x28,72 # 41016a80 <excp_return_label_50>
    41016a40:	03c23823          	sd	x28,48(x4) # 30 <SECURE_ACCESS_PROBABILITY+0x12>
    41016a44:	00000e13          	li	x28,0
    41016a48:	03c23c23          	sd	x28,56(x4) # 38 <SECURE_ACCESS_PROBABILITY+0x1a>
    41016a4c:	00000e13          	li	x28,0
    41016a50:	07c23023          	sd	x28,96(x4) # 60 <XLEN+0x20>
    41016a54:	00000e13          	li	x28,0
    41016a58:	07c23423          	sd	x28,104(x4) # 68 <XLEN+0x28>
    41016a5c:	00000e13          	li	x28,0
    41016a60:	07c23823          	sd	x28,112(x4) # 70 <XLEN+0x30>

0000000041016a64 <fault_label_50>:
    41016a64:	144d1af3          	csrrw	x21,sip,x26
    41016a68:	00020c37          	lui	x24,0x20
    41016a6c:	887c0c1b          	addiw	x24,x24,-1913 # 1f887 <tp_csr_storage+0x12887>
    41016a70:	00fc1c13          	slli	x24,x24,0xf
    41016a74:	008c0c13          	addi	x24,x24,8
    41016a78:	000c3f83          	ld	x31,0(x24)
    41016a7c:	000f8067          	jr	x31

0000000041016a80 <excp_return_label_50>:
    41016a80:	00509237          	lui	x4,0x509
    41016a84:	5092021b          	addiw	x4,x4,1289 # 509509 <hart_stack_0_end+0x2b7509>
    41016a88:	00e21213          	slli	x4,x4,0xe
    41016a8c:	01600e13          	li	x28,22
    41016a90:	05c23823          	sd	x28,80(x4) # 50 <XLEN+0x10>
    41016a94:	00000e17          	auipc	x28,0x0
    41016a98:	04ce0e13          	addi	x28,x28,76 # 41016ae0 <fault_label_51>
    41016a9c:	03c23023          	sd	x28,32(x4) # 20 <SECURE_ACCESS_PROBABILITY+0x2>
    41016aa0:	00000e13          	li	x28,0
    41016aa4:	05c23023          	sd	x28,64(x4) # 40 <XLEN>
    41016aa8:	00000e13          	li	x28,0
    41016aac:	05c23423          	sd	x28,72(x4) # 48 <XLEN+0x8>
    41016ab0:	00000e17          	auipc	x28,0x0
    41016ab4:	04ce0e13          	addi	x28,x28,76 # 41016afc <excp_return_label_51>
    41016ab8:	03c23823          	sd	x28,48(x4) # 30 <SECURE_ACCESS_PROBABILITY+0x12>
    41016abc:	00000e13          	li	x28,0
    41016ac0:	03c23c23          	sd	x28,56(x4) # 38 <SECURE_ACCESS_PROBABILITY+0x1a>
    41016ac4:	00000e13          	li	x28,0
    41016ac8:	07c23023          	sd	x28,96(x4) # 60 <XLEN+0x20>
    41016acc:	00000e13          	li	x28,0
    41016ad0:	07c23423          	sd	x28,104(x4) # 68 <XLEN+0x28>
    41016ad4:	00000e13          	li	x28,0
    41016ad8:	07c23823          	sd	x28,112(x4) # 70 <XLEN+0x30>
    41016adc:	00000493          	li	x9,0

0000000041016ae0 <fault_label_51>:
    41016ae0:	1044acf3          	csrrs	x25,sie,x9
    41016ae4:	00020437          	lui	x8,0x20
    41016ae8:	8874041b          	addiw	x8,x8,-1913 # 1f887 <tp_csr_storage+0x12887>
    41016aec:	00f41413          	slli	x8,x8,0xf
    41016af0:	00840413          	addi	x8,x8,8
    41016af4:	00043583          	ld	x11,0(x8)
    41016af8:	00058067          	jr	x11

0000000041016afc <excp_return_label_51>:
    41016afc:	00509237          	lui	x4,0x509
    41016b00:	5092021b          	addiw	x4,x4,1289 # 509509 <hart_stack_0_end+0x2b7509>
    41016b04:	00e21213          	slli	x4,x4,0xe
    41016b08:	01600e13          	li	x28,22
    41016b0c:	05c23823          	sd	x28,80(x4) # 50 <XLEN+0x10>
    41016b10:	00000e17          	auipc	x28,0x0
    41016b14:	048e0e13          	addi	x28,x28,72 # 41016b58 <fault_label_52>
    41016b18:	03c23023          	sd	x28,32(x4) # 20 <SECURE_ACCESS_PROBABILITY+0x2>
    41016b1c:	00000e13          	li	x28,0
    41016b20:	05c23023          	sd	x28,64(x4) # 40 <XLEN>
    41016b24:	00000e13          	li	x28,0
    41016b28:	05c23423          	sd	x28,72(x4) # 48 <XLEN+0x8>
    41016b2c:	00000e17          	auipc	x28,0x0
    41016b30:	048e0e13          	addi	x28,x28,72 # 41016b74 <excp_return_label_52>
    41016b34:	03c23823          	sd	x28,48(x4) # 30 <SECURE_ACCESS_PROBABILITY+0x12>
    41016b38:	00000e13          	li	x28,0
    41016b3c:	03c23c23          	sd	x28,56(x4) # 38 <SECURE_ACCESS_PROBABILITY+0x1a>
    41016b40:	00000e13          	li	x28,0
    41016b44:	07c23023          	sd	x28,96(x4) # 60 <XLEN+0x20>
    41016b48:	00000e13          	li	x28,0
    41016b4c:	07c23423          	sd	x28,104(x4) # 68 <XLEN+0x28>
    41016b50:	00000e13          	li	x28,0
    41016b54:	07c23823          	sd	x28,112(x4) # 70 <XLEN+0x30>

0000000041016b58 <fault_label_52>:
    41016b58:	104d15f3          	csrrw	x11,sie,x26
    41016b5c:	00020c37          	lui	x24,0x20
    41016b60:	887c0c1b          	addiw	x24,x24,-1913 # 1f887 <tp_csr_storage+0x12887>
    41016b64:	00fc1c13          	slli	x24,x24,0xf
    41016b68:	008c0c13          	addi	x24,x24,8
    41016b6c:	000c3583          	ld	x11,0(x24)
    41016b70:	00058067          	jr	x11

0000000041016b74 <excp_return_label_52>:
    41016b74:	00509237          	lui	x4,0x509
    41016b78:	5092021b          	addiw	x4,x4,1289 # 509509 <hart_stack_0_end+0x2b7509>
    41016b7c:	00e21213          	slli	x4,x4,0xe
    41016b80:	01600e13          	li	x28,22
    41016b84:	05c23823          	sd	x28,80(x4) # 50 <XLEN+0x10>
    41016b88:	00000e17          	auipc	x28,0x0
    41016b8c:	04ce0e13          	addi	x28,x28,76 # 41016bd4 <fault_label_53>
    41016b90:	03c23023          	sd	x28,32(x4) # 20 <SECURE_ACCESS_PROBABILITY+0x2>
    41016b94:	00000e13          	li	x28,0
    41016b98:	05c23023          	sd	x28,64(x4) # 40 <XLEN>
    41016b9c:	00000e13          	li	x28,0
    41016ba0:	05c23423          	sd	x28,72(x4) # 48 <XLEN+0x8>
    41016ba4:	00000e17          	auipc	x28,0x0
    41016ba8:	04ce0e13          	addi	x28,x28,76 # 41016bf0 <excp_return_label_53>
    41016bac:	03c23823          	sd	x28,48(x4) # 30 <SECURE_ACCESS_PROBABILITY+0x12>
    41016bb0:	00000e13          	li	x28,0
    41016bb4:	03c23c23          	sd	x28,56(x4) # 38 <SECURE_ACCESS_PROBABILITY+0x1a>
    41016bb8:	00000e13          	li	x28,0
    41016bbc:	07c23023          	sd	x28,96(x4) # 60 <XLEN+0x20>
    41016bc0:	00000e13          	li	x28,0
    41016bc4:	07c23423          	sd	x28,104(x4) # 68 <XLEN+0x28>
    41016bc8:	00000e13          	li	x28,0
    41016bcc:	07c23823          	sd	x28,112(x4) # 70 <XLEN+0x30>
    41016bd0:	00000613          	li	x12,0

0000000041016bd4 <fault_label_53>:
    41016bd4:	10562df3          	csrrs	x27,stvec,x12
    41016bd8:	00020db7          	lui	x27,0x20
    41016bdc:	887d8d9b          	addiw	x27,x27,-1913 # 1f887 <tp_csr_storage+0x12887>
    41016be0:	00fd9d93          	slli	x27,x27,0xf
    41016be4:	008d8d93          	addi	x27,x27,8
    41016be8:	000db303          	ld	x6,0(x27)
    41016bec:	00030067          	jr	x6

0000000041016bf0 <excp_return_label_53>:
    41016bf0:	00509237          	lui	x4,0x509
    41016bf4:	5092021b          	addiw	x4,x4,1289 # 509509 <hart_stack_0_end+0x2b7509>
    41016bf8:	00e21213          	slli	x4,x4,0xe
    41016bfc:	01600e13          	li	x28,22
    41016c00:	05c23823          	sd	x28,80(x4) # 50 <XLEN+0x10>
    41016c04:	00000e17          	auipc	x28,0x0
    41016c08:	048e0e13          	addi	x28,x28,72 # 41016c4c <fault_label_54>
    41016c0c:	03c23023          	sd	x28,32(x4) # 20 <SECURE_ACCESS_PROBABILITY+0x2>
    41016c10:	00000e13          	li	x28,0
    41016c14:	05c23023          	sd	x28,64(x4) # 40 <XLEN>
    41016c18:	00000e13          	li	x28,0
    41016c1c:	05c23423          	sd	x28,72(x4) # 48 <XLEN+0x8>
    41016c20:	00000e17          	auipc	x28,0x0
    41016c24:	048e0e13          	addi	x28,x28,72 # 41016c68 <excp_return_label_54>
    41016c28:	03c23823          	sd	x28,48(x4) # 30 <SECURE_ACCESS_PROBABILITY+0x12>
    41016c2c:	00000e13          	li	x28,0
    41016c30:	03c23c23          	sd	x28,56(x4) # 38 <SECURE_ACCESS_PROBABILITY+0x1a>
    41016c34:	00000e13          	li	x28,0
    41016c38:	07c23023          	sd	x28,96(x4) # 60 <XLEN+0x20>
    41016c3c:	00000e13          	li	x28,0
    41016c40:	07c23423          	sd	x28,104(x4) # 68 <XLEN+0x28>
    41016c44:	00000e13          	li	x28,0
    41016c48:	07c23823          	sd	x28,112(x4) # 70 <XLEN+0x30>

0000000041016c4c <fault_label_54>:
    41016c4c:	105d1473          	csrrw	x8,stvec,x26
    41016c50:	00020db7          	lui	x27,0x20
    41016c54:	887d8d9b          	addiw	x27,x27,-1913 # 1f887 <tp_csr_storage+0x12887>
    41016c58:	00fd9d93          	slli	x27,x27,0xf
    41016c5c:	008d8d93          	addi	x27,x27,8
    41016c60:	000db903          	ld	x18,0(x27)
    41016c64:	00090067          	jr	x18

0000000041016c68 <excp_return_label_54>:
    41016c68:	00509237          	lui	x4,0x509
    41016c6c:	5092021b          	addiw	x4,x4,1289 # 509509 <hart_stack_0_end+0x2b7509>
    41016c70:	00e21213          	slli	x4,x4,0xe
    41016c74:	01600e13          	li	x28,22
    41016c78:	05c23823          	sd	x28,80(x4) # 50 <XLEN+0x10>
    41016c7c:	00000e17          	auipc	x28,0x0
    41016c80:	04ce0e13          	addi	x28,x28,76 # 41016cc8 <fault_label_55>
    41016c84:	03c23023          	sd	x28,32(x4) # 20 <SECURE_ACCESS_PROBABILITY+0x2>
    41016c88:	00000e13          	li	x28,0
    41016c8c:	05c23023          	sd	x28,64(x4) # 40 <XLEN>
    41016c90:	00000e13          	li	x28,0
    41016c94:	05c23423          	sd	x28,72(x4) # 48 <XLEN+0x8>
    41016c98:	00000e17          	auipc	x28,0x0
    41016c9c:	04ce0e13          	addi	x28,x28,76 # 41016ce4 <excp_return_label_55>
    41016ca0:	03c23823          	sd	x28,48(x4) # 30 <SECURE_ACCESS_PROBABILITY+0x12>
    41016ca4:	00000e13          	li	x28,0
    41016ca8:	03c23c23          	sd	x28,56(x4) # 38 <SECURE_ACCESS_PROBABILITY+0x1a>
    41016cac:	00000e13          	li	x28,0
    41016cb0:	07c23023          	sd	x28,96(x4) # 60 <XLEN+0x20>
    41016cb4:	00000e13          	li	x28,0
    41016cb8:	07c23423          	sd	x28,104(x4) # 68 <XLEN+0x28>
    41016cbc:	00000e13          	li	x28,0
    41016cc0:	07c23823          	sd	x28,112(x4) # 70 <XLEN+0x30>
    41016cc4:	00000f93          	li	x31,0

0000000041016cc8 <fault_label_55>:
    41016cc8:	140fae73          	csrrs	x28,sscratch,x31
    41016ccc:	00020837          	lui	x16,0x20
    41016cd0:	8878081b          	addiw	x16,x16,-1913 # 1f887 <tp_csr_storage+0x12887>
    41016cd4:	00f81813          	slli	x16,x16,0xf
    41016cd8:	00880813          	addi	x16,x16,8
    41016cdc:	00083903          	ld	x18,0(x16)
    41016ce0:	00090067          	jr	x18

0000000041016ce4 <excp_return_label_55>:
    41016ce4:	00509237          	lui	x4,0x509
    41016ce8:	5092021b          	addiw	x4,x4,1289 # 509509 <hart_stack_0_end+0x2b7509>
    41016cec:	00e21213          	slli	x4,x4,0xe
    41016cf0:	01600e13          	li	x28,22
    41016cf4:	05c23823          	sd	x28,80(x4) # 50 <XLEN+0x10>
    41016cf8:	00000e17          	auipc	x28,0x0
    41016cfc:	048e0e13          	addi	x28,x28,72 # 41016d40 <fault_label_56>
    41016d00:	03c23023          	sd	x28,32(x4) # 20 <SECURE_ACCESS_PROBABILITY+0x2>
    41016d04:	00000e13          	li	x28,0
    41016d08:	05c23023          	sd	x28,64(x4) # 40 <XLEN>
    41016d0c:	00000e13          	li	x28,0
    41016d10:	05c23423          	sd	x28,72(x4) # 48 <XLEN+0x8>
    41016d14:	00000e17          	auipc	x28,0x0
    41016d18:	048e0e13          	addi	x28,x28,72 # 41016d5c <excp_return_label_56>
    41016d1c:	03c23823          	sd	x28,48(x4) # 30 <SECURE_ACCESS_PROBABILITY+0x12>
    41016d20:	00000e13          	li	x28,0
    41016d24:	03c23c23          	sd	x28,56(x4) # 38 <SECURE_ACCESS_PROBABILITY+0x1a>
    41016d28:	00000e13          	li	x28,0
    41016d2c:	07c23023          	sd	x28,96(x4) # 60 <XLEN+0x20>
    41016d30:	00000e13          	li	x28,0
    41016d34:	07c23423          	sd	x28,104(x4) # 68 <XLEN+0x28>
    41016d38:	00000e13          	li	x28,0
    41016d3c:	07c23823          	sd	x28,112(x4) # 70 <XLEN+0x30>

0000000041016d40 <fault_label_56>:
    41016d40:	140d1ff3          	csrrw	x31,sscratch,x26
    41016d44:	000203b7          	lui	x7,0x20
    41016d48:	8873839b          	addiw	x7,x7,-1913 # 1f887 <tp_csr_storage+0x12887>
    41016d4c:	00f39393          	slli	x7,x7,0xf
    41016d50:	00838393          	addi	x7,x7,8
    41016d54:	0003b983          	ld	x19,0(x7)
    41016d58:	00098067          	jr	x19

0000000041016d5c <excp_return_label_56>:
    41016d5c:	00509237          	lui	x4,0x509
    41016d60:	5092021b          	addiw	x4,x4,1289 # 509509 <hart_stack_0_end+0x2b7509>
    41016d64:	00e21213          	slli	x4,x4,0xe
    41016d68:	01600e13          	li	x28,22
    41016d6c:	05c23823          	sd	x28,80(x4) # 50 <XLEN+0x10>
    41016d70:	00000e17          	auipc	x28,0x0
    41016d74:	04ce0e13          	addi	x28,x28,76 # 41016dbc <fault_label_57>
    41016d78:	03c23023          	sd	x28,32(x4) # 20 <SECURE_ACCESS_PROBABILITY+0x2>
    41016d7c:	00000e13          	li	x28,0
    41016d80:	05c23023          	sd	x28,64(x4) # 40 <XLEN>
    41016d84:	00000e13          	li	x28,0
    41016d88:	05c23423          	sd	x28,72(x4) # 48 <XLEN+0x8>
    41016d8c:	00000e17          	auipc	x28,0x0
    41016d90:	04ce0e13          	addi	x28,x28,76 # 41016dd8 <excp_return_label_57>
    41016d94:	03c23823          	sd	x28,48(x4) # 30 <SECURE_ACCESS_PROBABILITY+0x12>
    41016d98:	00000e13          	li	x28,0
    41016d9c:	03c23c23          	sd	x28,56(x4) # 38 <SECURE_ACCESS_PROBABILITY+0x1a>
    41016da0:	00000e13          	li	x28,0
    41016da4:	07c23023          	sd	x28,96(x4) # 60 <XLEN+0x20>
    41016da8:	00000e13          	li	x28,0
    41016dac:	07c23423          	sd	x28,104(x4) # 68 <XLEN+0x28>
    41016db0:	00000e13          	li	x28,0
    41016db4:	07c23823          	sd	x28,112(x4) # 70 <XLEN+0x30>
    41016db8:	00000513          	li	x10,0

0000000041016dbc <fault_label_57>:
    41016dbc:	14152673          	csrrs	x12,sepc,x10
    41016dc0:	00020eb7          	lui	x29,0x20
    41016dc4:	887e8e9b          	addiw	x29,x29,-1913 # 1f887 <tp_csr_storage+0x12887>
    41016dc8:	00fe9e93          	slli	x29,x29,0xf
    41016dcc:	008e8e93          	addi	x29,x29,8
    41016dd0:	000ebe03          	ld	x28,0(x29)
    41016dd4:	000e0067          	jr	x28

0000000041016dd8 <excp_return_label_57>:
    41016dd8:	00509237          	lui	x4,0x509
    41016ddc:	5092021b          	addiw	x4,x4,1289 # 509509 <hart_stack_0_end+0x2b7509>
    41016de0:	00e21213          	slli	x4,x4,0xe
    41016de4:	01600e13          	li	x28,22
    41016de8:	05c23823          	sd	x28,80(x4) # 50 <XLEN+0x10>
    41016dec:	00000e17          	auipc	x28,0x0
    41016df0:	048e0e13          	addi	x28,x28,72 # 41016e34 <fault_label_58>
    41016df4:	03c23023          	sd	x28,32(x4) # 20 <SECURE_ACCESS_PROBABILITY+0x2>
    41016df8:	00000e13          	li	x28,0
    41016dfc:	05c23023          	sd	x28,64(x4) # 40 <XLEN>
    41016e00:	00000e13          	li	x28,0
    41016e04:	05c23423          	sd	x28,72(x4) # 48 <XLEN+0x8>
    41016e08:	00000e17          	auipc	x28,0x0
    41016e0c:	048e0e13          	addi	x28,x28,72 # 41016e50 <excp_return_label_58>
    41016e10:	03c23823          	sd	x28,48(x4) # 30 <SECURE_ACCESS_PROBABILITY+0x12>
    41016e14:	00000e13          	li	x28,0
    41016e18:	03c23c23          	sd	x28,56(x4) # 38 <SECURE_ACCESS_PROBABILITY+0x1a>
    41016e1c:	00000e13          	li	x28,0
    41016e20:	07c23023          	sd	x28,96(x4) # 60 <XLEN+0x20>
    41016e24:	00000e13          	li	x28,0
    41016e28:	07c23423          	sd	x28,104(x4) # 68 <XLEN+0x28>
    41016e2c:	00000e13          	li	x28,0
    41016e30:	07c23823          	sd	x28,112(x4) # 70 <XLEN+0x30>

0000000041016e34 <fault_label_58>:
    41016e34:	141d1ff3          	csrrw	x31,sepc,x26
    41016e38:	00020fb7          	lui	x31,0x20
    41016e3c:	887f8f9b          	addiw	x31,x31,-1913 # 1f887 <tp_csr_storage+0x12887>
    41016e40:	00ff9f93          	slli	x31,x31,0xf
    41016e44:	008f8f93          	addi	x31,x31,8
    41016e48:	000fb583          	ld	x11,0(x31)
    41016e4c:	00058067          	jr	x11

0000000041016e50 <excp_return_label_58>:
    41016e50:	00509237          	lui	x4,0x509
    41016e54:	5092021b          	addiw	x4,x4,1289 # 509509 <hart_stack_0_end+0x2b7509>
    41016e58:	00e21213          	slli	x4,x4,0xe
    41016e5c:	01600e13          	li	x28,22
    41016e60:	05c23823          	sd	x28,80(x4) # 50 <XLEN+0x10>
    41016e64:	00000e17          	auipc	x28,0x0
    41016e68:	04ce0e13          	addi	x28,x28,76 # 41016eb0 <fault_label_59>
    41016e6c:	03c23023          	sd	x28,32(x4) # 20 <SECURE_ACCESS_PROBABILITY+0x2>
    41016e70:	00000e13          	li	x28,0
    41016e74:	05c23023          	sd	x28,64(x4) # 40 <XLEN>
    41016e78:	00000e13          	li	x28,0
    41016e7c:	05c23423          	sd	x28,72(x4) # 48 <XLEN+0x8>
    41016e80:	00000e17          	auipc	x28,0x0
    41016e84:	04ce0e13          	addi	x28,x28,76 # 41016ecc <excp_return_label_59>
    41016e88:	03c23823          	sd	x28,48(x4) # 30 <SECURE_ACCESS_PROBABILITY+0x12>
    41016e8c:	00000e13          	li	x28,0
    41016e90:	03c23c23          	sd	x28,56(x4) # 38 <SECURE_ACCESS_PROBABILITY+0x1a>
    41016e94:	00000e13          	li	x28,0
    41016e98:	07c23023          	sd	x28,96(x4) # 60 <XLEN+0x20>
    41016e9c:	00000e13          	li	x28,0
    41016ea0:	07c23423          	sd	x28,104(x4) # 68 <XLEN+0x28>
    41016ea4:	00000e13          	li	x28,0
    41016ea8:	07c23823          	sd	x28,112(x4) # 70 <XLEN+0x30>
    41016eac:	00000813          	li	x16,0

0000000041016eb0 <fault_label_59>:
    41016eb0:	142823f3          	csrrs	x7,scause,x16
    41016eb4:	00020cb7          	lui	x25,0x20
    41016eb8:	887c8c9b          	addiw	x25,x25,-1913 # 1f887 <tp_csr_storage+0x12887>
    41016ebc:	00fc9c93          	slli	x25,x25,0xf
    41016ec0:	008c8c93          	addi	x25,x25,8
    41016ec4:	000cbf03          	ld	x30,0(x25)
    41016ec8:	000f0067          	jr	x30

0000000041016ecc <excp_return_label_59>:
    41016ecc:	00509237          	lui	x4,0x509
    41016ed0:	5092021b          	addiw	x4,x4,1289 # 509509 <hart_stack_0_end+0x2b7509>
    41016ed4:	00e21213          	slli	x4,x4,0xe
    41016ed8:	01600e13          	li	x28,22
    41016edc:	05c23823          	sd	x28,80(x4) # 50 <XLEN+0x10>
    41016ee0:	00000e17          	auipc	x28,0x0
    41016ee4:	048e0e13          	addi	x28,x28,72 # 41016f28 <fault_label_60>
    41016ee8:	03c23023          	sd	x28,32(x4) # 20 <SECURE_ACCESS_PROBABILITY+0x2>
    41016eec:	00000e13          	li	x28,0
    41016ef0:	05c23023          	sd	x28,64(x4) # 40 <XLEN>
    41016ef4:	00000e13          	li	x28,0
    41016ef8:	05c23423          	sd	x28,72(x4) # 48 <XLEN+0x8>
    41016efc:	00000e17          	auipc	x28,0x0
    41016f00:	048e0e13          	addi	x28,x28,72 # 41016f44 <excp_return_label_60>
    41016f04:	03c23823          	sd	x28,48(x4) # 30 <SECURE_ACCESS_PROBABILITY+0x12>
    41016f08:	00000e13          	li	x28,0
    41016f0c:	03c23c23          	sd	x28,56(x4) # 38 <SECURE_ACCESS_PROBABILITY+0x1a>
    41016f10:	00000e13          	li	x28,0
    41016f14:	07c23023          	sd	x28,96(x4) # 60 <XLEN+0x20>
    41016f18:	00000e13          	li	x28,0
    41016f1c:	07c23423          	sd	x28,104(x4) # 68 <XLEN+0x28>
    41016f20:	00000e13          	li	x28,0
    41016f24:	07c23823          	sd	x28,112(x4) # 70 <XLEN+0x30>

0000000041016f28 <fault_label_60>:
    41016f28:	142d1373          	csrrw	x6,scause,x26
    41016f2c:	000204b7          	lui	x9,0x20
    41016f30:	8874849b          	addiw	x9,x9,-1913 # 1f887 <tp_csr_storage+0x12887>
    41016f34:	00f49493          	slli	x9,x9,0xf
    41016f38:	00848493          	addi	x9,x9,8
    41016f3c:	0004bc03          	ld	x24,0(x9)
    41016f40:	000c0067          	jr	x24

0000000041016f44 <excp_return_label_60>:
    41016f44:	00509237          	lui	x4,0x509
    41016f48:	5092021b          	addiw	x4,x4,1289 # 509509 <hart_stack_0_end+0x2b7509>
    41016f4c:	00e21213          	slli	x4,x4,0xe
    41016f50:	01600e13          	li	x28,22
    41016f54:	05c23823          	sd	x28,80(x4) # 50 <XLEN+0x10>
    41016f58:	00000e17          	auipc	x28,0x0
    41016f5c:	04ce0e13          	addi	x28,x28,76 # 41016fa4 <fault_label_61>
    41016f60:	03c23023          	sd	x28,32(x4) # 20 <SECURE_ACCESS_PROBABILITY+0x2>
    41016f64:	00000e13          	li	x28,0
    41016f68:	05c23023          	sd	x28,64(x4) # 40 <XLEN>
    41016f6c:	00000e13          	li	x28,0
    41016f70:	05c23423          	sd	x28,72(x4) # 48 <XLEN+0x8>
    41016f74:	00000e17          	auipc	x28,0x0
    41016f78:	04ce0e13          	addi	x28,x28,76 # 41016fc0 <excp_return_label_61>
    41016f7c:	03c23823          	sd	x28,48(x4) # 30 <SECURE_ACCESS_PROBABILITY+0x12>
    41016f80:	00000e13          	li	x28,0
    41016f84:	03c23c23          	sd	x28,56(x4) # 38 <SECURE_ACCESS_PROBABILITY+0x1a>
    41016f88:	00000e13          	li	x28,0
    41016f8c:	07c23023          	sd	x28,96(x4) # 60 <XLEN+0x20>
    41016f90:	00000e13          	li	x28,0
    41016f94:	07c23423          	sd	x28,104(x4) # 68 <XLEN+0x28>
    41016f98:	00000e13          	li	x28,0
    41016f9c:	07c23823          	sd	x28,112(x4) # 70 <XLEN+0x30>
    41016fa0:	00000393          	li	x7,0

0000000041016fa4 <fault_label_61>:
    41016fa4:	1433a673          	csrrs	x12,stval,x7
    41016fa8:	00020337          	lui	x6,0x20
    41016fac:	8873031b          	addiw	x6,x6,-1913 # 1f887 <tp_csr_storage+0x12887>
    41016fb0:	00f31313          	slli	x6,x6,0xf
    41016fb4:	00830313          	addi	x6,x6,8
    41016fb8:	00033783          	ld	x15,0(x6)
    41016fbc:	00078067          	jr	x15

0000000041016fc0 <excp_return_label_61>:
    41016fc0:	00509237          	lui	x4,0x509
    41016fc4:	5092021b          	addiw	x4,x4,1289 # 509509 <hart_stack_0_end+0x2b7509>
    41016fc8:	00e21213          	slli	x4,x4,0xe
    41016fcc:	01600e13          	li	x28,22
    41016fd0:	05c23823          	sd	x28,80(x4) # 50 <XLEN+0x10>
    41016fd4:	00000e17          	auipc	x28,0x0
    41016fd8:	048e0e13          	addi	x28,x28,72 # 4101701c <fault_label_62>
    41016fdc:	03c23023          	sd	x28,32(x4) # 20 <SECURE_ACCESS_PROBABILITY+0x2>
    41016fe0:	00000e13          	li	x28,0
    41016fe4:	05c23023          	sd	x28,64(x4) # 40 <XLEN>
    41016fe8:	00000e13          	li	x28,0
    41016fec:	05c23423          	sd	x28,72(x4) # 48 <XLEN+0x8>
    41016ff0:	00000e17          	auipc	x28,0x0
    41016ff4:	048e0e13          	addi	x28,x28,72 # 41017038 <excp_return_label_62>
    41016ff8:	03c23823          	sd	x28,48(x4) # 30 <SECURE_ACCESS_PROBABILITY+0x12>
    41016ffc:	00000e13          	li	x28,0
    41017000:	03c23c23          	sd	x28,56(x4) # 38 <SECURE_ACCESS_PROBABILITY+0x1a>
    41017004:	00000e13          	li	x28,0
    41017008:	07c23023          	sd	x28,96(x4) # 60 <XLEN+0x20>
    4101700c:	00000e13          	li	x28,0
    41017010:	07c23423          	sd	x28,104(x4) # 68 <XLEN+0x28>
    41017014:	00000e13          	li	x28,0
    41017018:	07c23823          	sd	x28,112(x4) # 70 <XLEN+0x30>

000000004101701c <fault_label_62>:
    4101701c:	143d1673          	csrrw	x12,stval,x26
    41017020:	00020cb7          	lui	x25,0x20
    41017024:	887c8c9b          	addiw	x25,x25,-1913 # 1f887 <tp_csr_storage+0x12887>
    41017028:	00fc9c93          	slli	x25,x25,0xf
    4101702c:	008c8c93          	addi	x25,x25,8
    41017030:	000cbb03          	ld	x22,0(x25)
    41017034:	000b0067          	jr	x22

0000000041017038 <excp_return_label_62>:
    41017038:	00509237          	lui	x4,0x509
    4101703c:	5092021b          	addiw	x4,x4,1289 # 509509 <hart_stack_0_end+0x2b7509>
    41017040:	00e21213          	slli	x4,x4,0xe
    41017044:	01600e13          	li	x28,22
    41017048:	05c23823          	sd	x28,80(x4) # 50 <XLEN+0x10>
    4101704c:	00000e17          	auipc	x28,0x0
    41017050:	04ce0e13          	addi	x28,x28,76 # 41017098 <fault_label_63>
    41017054:	03c23023          	sd	x28,32(x4) # 20 <SECURE_ACCESS_PROBABILITY+0x2>
    41017058:	00000e13          	li	x28,0
    4101705c:	05c23023          	sd	x28,64(x4) # 40 <XLEN>
    41017060:	00000e13          	li	x28,0
    41017064:	05c23423          	sd	x28,72(x4) # 48 <XLEN+0x8>
    41017068:	00000e17          	auipc	x28,0x0
    4101706c:	04ce0e13          	addi	x28,x28,76 # 410170b4 <excp_return_label_63>
    41017070:	03c23823          	sd	x28,48(x4) # 30 <SECURE_ACCESS_PROBABILITY+0x12>
    41017074:	00000e13          	li	x28,0
    41017078:	03c23c23          	sd	x28,56(x4) # 38 <SECURE_ACCESS_PROBABILITY+0x1a>
    4101707c:	00000e13          	li	x28,0
    41017080:	07c23023          	sd	x28,96(x4) # 60 <XLEN+0x20>
    41017084:	00000e13          	li	x28,0
    41017088:	07c23423          	sd	x28,104(x4) # 68 <XLEN+0x28>
    4101708c:	00000e13          	li	x28,0
    41017090:	07c23823          	sd	x28,112(x4) # 70 <XLEN+0x30>
    41017094:	00000793          	li	x15,0

0000000041017098 <fault_label_63>:
    41017098:	1807aa73          	csrrs	x20,satp,x15
    4101709c:	000209b7          	lui	x19,0x20
    410170a0:	8879899b          	addiw	x19,x19,-1913 # 1f887 <tp_csr_storage+0x12887>
    410170a4:	00f99993          	slli	x19,x19,0xf
    410170a8:	00898993          	addi	x19,x19,8
    410170ac:	0009bb83          	ld	x23,0(x19)
    410170b0:	000b8067          	jr	x23

00000000410170b4 <excp_return_label_63>:
    410170b4:	00509237          	lui	x4,0x509
    410170b8:	5092021b          	addiw	x4,x4,1289 # 509509 <hart_stack_0_end+0x2b7509>
    410170bc:	00e21213          	slli	x4,x4,0xe
    410170c0:	01600e13          	li	x28,22
    410170c4:	05c23823          	sd	x28,80(x4) # 50 <XLEN+0x10>
    410170c8:	00000e17          	auipc	x28,0x0
    410170cc:	048e0e13          	addi	x28,x28,72 # 41017110 <fault_label_64>
    410170d0:	03c23023          	sd	x28,32(x4) # 20 <SECURE_ACCESS_PROBABILITY+0x2>
    410170d4:	00000e13          	li	x28,0
    410170d8:	05c23023          	sd	x28,64(x4) # 40 <XLEN>
    410170dc:	00000e13          	li	x28,0
    410170e0:	05c23423          	sd	x28,72(x4) # 48 <XLEN+0x8>
    410170e4:	00000e17          	auipc	x28,0x0
    410170e8:	048e0e13          	addi	x28,x28,72 # 4101712c <excp_return_label_64>
    410170ec:	03c23823          	sd	x28,48(x4) # 30 <SECURE_ACCESS_PROBABILITY+0x12>
    410170f0:	00000e13          	li	x28,0
    410170f4:	03c23c23          	sd	x28,56(x4) # 38 <SECURE_ACCESS_PROBABILITY+0x1a>
    410170f8:	00000e13          	li	x28,0
    410170fc:	07c23023          	sd	x28,96(x4) # 60 <XLEN+0x20>
    41017100:	00000e13          	li	x28,0
    41017104:	07c23423          	sd	x28,104(x4) # 68 <XLEN+0x28>
    41017108:	00000e13          	li	x28,0
    4101710c:	07c23823          	sd	x28,112(x4) # 70 <XLEN+0x30>

0000000041017110 <fault_label_64>:
    41017110:	180d1473          	csrrw	x8,satp,x26
    41017114:	00020937          	lui	x18,0x20
    41017118:	8879091b          	addiw	x18,x18,-1913 # 1f887 <tp_csr_storage+0x12887>
    4101711c:	00f91913          	slli	x18,x18,0xf
    41017120:	00890913          	addi	x18,x18,8
    41017124:	00093503          	ld	x10,0(x18)
    41017128:	00050067          	jr	x10

000000004101712c <excp_return_label_64>:
    4101712c:	00509237          	lui	x4,0x509
    41017130:	5092021b          	addiw	x4,x4,1289 # 509509 <hart_stack_0_end+0x2b7509>
    41017134:	00e21213          	slli	x4,x4,0xe
    41017138:	01600e13          	li	x28,22
    4101713c:	05c23823          	sd	x28,80(x4) # 50 <XLEN+0x10>
    41017140:	00000e17          	auipc	x28,0x0
    41017144:	04ce0e13          	addi	x28,x28,76 # 4101718c <fault_label_65>
    41017148:	03c23023          	sd	x28,32(x4) # 20 <SECURE_ACCESS_PROBABILITY+0x2>
    4101714c:	00000e13          	li	x28,0
    41017150:	05c23023          	sd	x28,64(x4) # 40 <XLEN>
    41017154:	00000e13          	li	x28,0
    41017158:	05c23423          	sd	x28,72(x4) # 48 <XLEN+0x8>
    4101715c:	00000e17          	auipc	x28,0x0
    41017160:	04ce0e13          	addi	x28,x28,76 # 410171a8 <excp_return_label_65>
    41017164:	03c23823          	sd	x28,48(x4) # 30 <SECURE_ACCESS_PROBABILITY+0x12>
    41017168:	00000e13          	li	x28,0
    4101716c:	03c23c23          	sd	x28,56(x4) # 38 <SECURE_ACCESS_PROBABILITY+0x1a>
    41017170:	00000e13          	li	x28,0
    41017174:	07c23023          	sd	x28,96(x4) # 60 <XLEN+0x20>
    41017178:	00000e13          	li	x28,0
    4101717c:	07c23423          	sd	x28,104(x4) # 68 <XLEN+0x28>
    41017180:	00000e13          	li	x28,0
    41017184:	07c23823          	sd	x28,112(x4) # 70 <XLEN+0x30>
    41017188:	00000a93          	li	x21,0

000000004101718c <fault_label_65>:
    4101718c:	106aa673          	csrrs	x12,scounteren,x21
    41017190:	00020437          	lui	x8,0x20
    41017194:	8874041b          	addiw	x8,x8,-1913 # 1f887 <tp_csr_storage+0x12887>
    41017198:	00f41413          	slli	x8,x8,0xf
    4101719c:	00840413          	addi	x8,x8,8
    410171a0:	00043583          	ld	x11,0(x8)
    410171a4:	00058067          	jr	x11

00000000410171a8 <excp_return_label_65>:
    410171a8:	00509237          	lui	x4,0x509
    410171ac:	5092021b          	addiw	x4,x4,1289 # 509509 <hart_stack_0_end+0x2b7509>
    410171b0:	00e21213          	slli	x4,x4,0xe
    410171b4:	01600e13          	li	x28,22
    410171b8:	05c23823          	sd	x28,80(x4) # 50 <XLEN+0x10>
    410171bc:	00000e17          	auipc	x28,0x0
    410171c0:	048e0e13          	addi	x28,x28,72 # 41017204 <fault_label_66>
    410171c4:	03c23023          	sd	x28,32(x4) # 20 <SECURE_ACCESS_PROBABILITY+0x2>
    410171c8:	00000e13          	li	x28,0
    410171cc:	05c23023          	sd	x28,64(x4) # 40 <XLEN>
    410171d0:	00000e13          	li	x28,0
    410171d4:	05c23423          	sd	x28,72(x4) # 48 <XLEN+0x8>
    410171d8:	00000e17          	auipc	x28,0x0
    410171dc:	048e0e13          	addi	x28,x28,72 # 41017220 <excp_return_label_66>
    410171e0:	03c23823          	sd	x28,48(x4) # 30 <SECURE_ACCESS_PROBABILITY+0x12>
    410171e4:	00000e13          	li	x28,0
    410171e8:	03c23c23          	sd	x28,56(x4) # 38 <SECURE_ACCESS_PROBABILITY+0x1a>
    410171ec:	00000e13          	li	x28,0
    410171f0:	07c23023          	sd	x28,96(x4) # 60 <XLEN+0x20>
    410171f4:	00000e13          	li	x28,0
    410171f8:	07c23423          	sd	x28,104(x4) # 68 <XLEN+0x28>
    410171fc:	00000e13          	li	x28,0
    41017200:	07c23823          	sd	x28,112(x4) # 70 <XLEN+0x30>

0000000041017204 <fault_label_66>:
    41017204:	106d1a73          	csrrw	x20,scounteren,x26
    41017208:	00020437          	lui	x8,0x20
    4101720c:	8874041b          	addiw	x8,x8,-1913 # 1f887 <tp_csr_storage+0x12887>
    41017210:	00f41413          	slli	x8,x8,0xf
    41017214:	00840413          	addi	x8,x8,8
    41017218:	00043703          	ld	x14,0(x8)
    4101721c:	00070067          	jr	x14

0000000041017220 <excp_return_label_66>:
    41017220:	00509237          	lui	x4,0x509
    41017224:	5092021b          	addiw	x4,x4,1289 # 509509 <hart_stack_0_end+0x2b7509>
    41017228:	00e21213          	slli	x4,x4,0xe
    4101722c:	01600e13          	li	x28,22
    41017230:	05c23823          	sd	x28,80(x4) # 50 <XLEN+0x10>
    41017234:	00000e17          	auipc	x28,0x0
    41017238:	04ce0e13          	addi	x28,x28,76 # 41017280 <fault_label_67>
    4101723c:	03c23023          	sd	x28,32(x4) # 20 <SECURE_ACCESS_PROBABILITY+0x2>
    41017240:	00000e13          	li	x28,0
    41017244:	05c23023          	sd	x28,64(x4) # 40 <XLEN>
    41017248:	00000e13          	li	x28,0
    4101724c:	05c23423          	sd	x28,72(x4) # 48 <XLEN+0x8>
    41017250:	00000e17          	auipc	x28,0x0
    41017254:	04ce0e13          	addi	x28,x28,76 # 4101729c <excp_return_label_67>
    41017258:	03c23823          	sd	x28,48(x4) # 30 <SECURE_ACCESS_PROBABILITY+0x12>
    4101725c:	00000e13          	li	x28,0
    41017260:	03c23c23          	sd	x28,56(x4) # 38 <SECURE_ACCESS_PROBABILITY+0x1a>
    41017264:	00000e13          	li	x28,0
    41017268:	07c23023          	sd	x28,96(x4) # 60 <XLEN+0x20>
    4101726c:	00000e13          	li	x28,0
    41017270:	07c23423          	sd	x28,104(x4) # 68 <XLEN+0x28>
    41017274:	00000e13          	li	x28,0
    41017278:	07c23823          	sd	x28,112(x4) # 70 <XLEN+0x30>
    4101727c:	00000f13          	li	x30,0

0000000041017280 <fault_label_67>:
    41017280:	10af24f3          	csrrs	x9,0x10a,x30
    41017284:	00020737          	lui	x14,0x20
    41017288:	8877071b          	addiw	x14,x14,-1913 # 1f887 <tp_csr_storage+0x12887>
    4101728c:	00f71713          	slli	x14,x14,0xf
    41017290:	00870713          	addi	x14,x14,8
    41017294:	00073b83          	ld	x23,0(x14)
    41017298:	000b8067          	jr	x23

000000004101729c <excp_return_label_67>:
    4101729c:	00509237          	lui	x4,0x509
    410172a0:	5092021b          	addiw	x4,x4,1289 # 509509 <hart_stack_0_end+0x2b7509>
    410172a4:	00e21213          	slli	x4,x4,0xe
    410172a8:	01600e13          	li	x28,22
    410172ac:	05c23823          	sd	x28,80(x4) # 50 <XLEN+0x10>
    410172b0:	00000e17          	auipc	x28,0x0
    410172b4:	048e0e13          	addi	x28,x28,72 # 410172f8 <fault_label_68>
    410172b8:	03c23023          	sd	x28,32(x4) # 20 <SECURE_ACCESS_PROBABILITY+0x2>
    410172bc:	00000e13          	li	x28,0
    410172c0:	05c23023          	sd	x28,64(x4) # 40 <XLEN>
    410172c4:	00000e13          	li	x28,0
    410172c8:	05c23423          	sd	x28,72(x4) # 48 <XLEN+0x8>
    410172cc:	00000e17          	auipc	x28,0x0
    410172d0:	048e0e13          	addi	x28,x28,72 # 41017314 <excp_return_label_68>
    410172d4:	03c23823          	sd	x28,48(x4) # 30 <SECURE_ACCESS_PROBABILITY+0x12>
    410172d8:	00000e13          	li	x28,0
    410172dc:	03c23c23          	sd	x28,56(x4) # 38 <SECURE_ACCESS_PROBABILITY+0x1a>
    410172e0:	00000e13          	li	x28,0
    410172e4:	07c23023          	sd	x28,96(x4) # 60 <XLEN+0x20>
    410172e8:	00000e13          	li	x28,0
    410172ec:	07c23423          	sd	x28,104(x4) # 68 <XLEN+0x28>
    410172f0:	00000e13          	li	x28,0
    410172f4:	07c23823          	sd	x28,112(x4) # 70 <XLEN+0x30>

00000000410172f8 <fault_label_68>:
    410172f8:	10ad1df3          	csrrw	x27,0x10a,x26
    410172fc:	00020337          	lui	x6,0x20
    41017300:	8873031b          	addiw	x6,x6,-1913 # 1f887 <tp_csr_storage+0x12887>
    41017304:	00f31313          	slli	x6,x6,0xf
    41017308:	00830313          	addi	x6,x6,8
    4101730c:	00033e83          	ld	x29,0(x6)
    41017310:	000e8067          	jr	x29

0000000041017314 <excp_return_label_68>:
    41017314:	00509237          	lui	x4,0x509
    41017318:	5092021b          	addiw	x4,x4,1289 # 509509 <hart_stack_0_end+0x2b7509>
    4101731c:	00e21213          	slli	x4,x4,0xe
    41017320:	01600e13          	li	x28,22
    41017324:	05c23823          	sd	x28,80(x4) # 50 <XLEN+0x10>
    41017328:	00000e17          	auipc	x28,0x0
    4101732c:	04ce0e13          	addi	x28,x28,76 # 41017374 <fault_label_69>
    41017330:	03c23023          	sd	x28,32(x4) # 20 <SECURE_ACCESS_PROBABILITY+0x2>
    41017334:	00000e13          	li	x28,0
    41017338:	05c23023          	sd	x28,64(x4) # 40 <XLEN>
    4101733c:	00000e13          	li	x28,0
    41017340:	05c23423          	sd	x28,72(x4) # 48 <XLEN+0x8>
    41017344:	00000e17          	auipc	x28,0x0
    41017348:	04ce0e13          	addi	x28,x28,76 # 41017390 <excp_return_label_69>
    4101734c:	03c23823          	sd	x28,48(x4) # 30 <SECURE_ACCESS_PROBABILITY+0x12>
    41017350:	00000e13          	li	x28,0
    41017354:	03c23c23          	sd	x28,56(x4) # 38 <SECURE_ACCESS_PROBABILITY+0x1a>
    41017358:	00000e13          	li	x28,0
    4101735c:	07c23023          	sd	x28,96(x4) # 60 <XLEN+0x20>
    41017360:	00000e13          	li	x28,0
    41017364:	07c23423          	sd	x28,104(x4) # 68 <XLEN+0x28>
    41017368:	00000e13          	li	x28,0
    4101736c:	07c23823          	sd	x28,112(x4) # 70 <XLEN+0x30>
    41017370:	00000f13          	li	x30,0

0000000041017374 <fault_label_69>:
    41017374:	5a8f2cf3          	csrrs	x25,scontext,x30
    41017378:	00020bb7          	lui	x23,0x20
    4101737c:	887b8b9b          	addiw	x23,x23,-1913 # 1f887 <tp_csr_storage+0x12887>
    41017380:	00fb9b93          	slli	x23,x23,0xf
    41017384:	008b8b93          	addi	x23,x23,8
    41017388:	000bbd83          	ld	x27,0(x23)
    4101738c:	000d8067          	jr	x27

0000000041017390 <excp_return_label_69>:
    41017390:	00509237          	lui	x4,0x509
    41017394:	5092021b          	addiw	x4,x4,1289 # 509509 <hart_stack_0_end+0x2b7509>
    41017398:	00e21213          	slli	x4,x4,0xe
    4101739c:	01600e13          	li	x28,22
    410173a0:	05c23823          	sd	x28,80(x4) # 50 <XLEN+0x10>
    410173a4:	00000e17          	auipc	x28,0x0
    410173a8:	048e0e13          	addi	x28,x28,72 # 410173ec <fault_label_70>
    410173ac:	03c23023          	sd	x28,32(x4) # 20 <SECURE_ACCESS_PROBABILITY+0x2>
    410173b0:	00000e13          	li	x28,0
    410173b4:	05c23023          	sd	x28,64(x4) # 40 <XLEN>
    410173b8:	00000e13          	li	x28,0
    410173bc:	05c23423          	sd	x28,72(x4) # 48 <XLEN+0x8>
    410173c0:	00000e17          	auipc	x28,0x0
    410173c4:	048e0e13          	addi	x28,x28,72 # 41017408 <SID_HEXCEP_06_passed>
    410173c8:	03c23823          	sd	x28,48(x4) # 30 <SECURE_ACCESS_PROBABILITY+0x12>
    410173cc:	00000e13          	li	x28,0
    410173d0:	03c23c23          	sd	x28,56(x4) # 38 <SECURE_ACCESS_PROBABILITY+0x1a>
    410173d4:	00000e13          	li	x28,0
    410173d8:	07c23023          	sd	x28,96(x4) # 60 <XLEN+0x20>
    410173dc:	00000e13          	li	x28,0
    410173e0:	07c23423          	sd	x28,104(x4) # 68 <XLEN+0x28>
    410173e4:	00000e13          	li	x28,0
    410173e8:	07c23823          	sd	x28,112(x4) # 70 <XLEN+0x30>

00000000410173ec <fault_label_70>:
    410173ec:	5a8d1cf3          	csrrw	x25,scontext,x26
    410173f0:	00020537          	lui	x10,0x20
    410173f4:	8875051b          	addiw	x10,x10,-1913 # 1f887 <tp_csr_storage+0x12887>
    410173f8:	00f51513          	slli	x10,x10,0xf
    410173fc:	00850513          	addi	x10,x10,8
    41017400:	00053783          	ld	x15,0(x10)
    41017404:	00078067          	jr	x15

0000000041017408 <SID_HEXCEP_06_passed>:
    41017408:	00f00f9b          	addiw	x31,x0,15
    4101740c:	01cf9f93          	slli	x31,x31,0x1c
    41017410:	001f8f93          	addi	x31,x31,1
    41017414:	00000073          	ecall

0000000041017418 <SID_HEXCEP_07_vu_mode_case1>:
    41017418:	0000d137          	lui	x2,0xd
    4101741c:	00020fb7          	lui	x31,0x20
    41017420:	887f8f9b          	addiw	x31,x31,-1913 # 1f887 <tp_csr_storage+0x12887>
    41017424:	00ff9f93          	slli	x31,x31,0xf
    41017428:	0b8f8f93          	addi	x31,x31,184
    4101742c:	00500f13          	li	x30,5
    41017430:	01efb023          	sd	x30,0(x31)
    41017434:	000f0fb7          	lui	x31,0xf0
    41017438:	001f8f9b          	addiw	x31,x31,1 # f0001 <SID_HEXCEP_16_fs0_both_stack+0x5e001>
    4101743c:	00cf9f93          	slli	x31,x31,0xc
    41017440:	006f8f93          	addi	x31,x31,6
    41017444:	00000073          	ecall
    41017448:	00713023          	sd	x7,0(x2) # d000 <tp_csr_storage>
    4101744c:	00020fb7          	lui	x31,0x20
    41017450:	887f8f9b          	addiw	x31,x31,-1913 # 1f887 <tp_csr_storage+0x12887>
    41017454:	00ff9f93          	slli	x31,x31,0xf
    41017458:	0b0f8f93          	addi	x31,x31,176
    4101745c:	00600f13          	li	x30,6
    41017460:	01efb023          	sd	x30,0(x31)
    41017464:	000f0fb7          	lui	x31,0xf0
    41017468:	001f8f9b          	addiw	x31,x31,1 # f0001 <SID_HEXCEP_16_fs0_both_stack+0x5e001>
    4101746c:	00cf9f93          	slli	x31,x31,0xc
    41017470:	005f8f93          	addi	x31,x31,5
    41017474:	00000073          	ecall
    41017478:	00713423          	sd	x7,8(x2)
    4101747c:	00020fb7          	lui	x31,0x20
    41017480:	887f8f9b          	addiw	x31,x31,-1913 # 1f887 <tp_csr_storage+0x12887>
    41017484:	00ff9f93          	slli	x31,x31,0xf
    41017488:	0b8f8f93          	addi	x31,x31,184
    4101748c:	00700f13          	li	x30,7
    41017490:	01efb023          	sd	x30,0(x31)
    41017494:	000f0fb7          	lui	x31,0xf0
    41017498:	001f8f9b          	addiw	x31,x31,1 # f0001 <SID_HEXCEP_16_fs0_both_stack+0x5e001>
    4101749c:	00cf9f93          	slli	x31,x31,0xc
    410174a0:	006f8f93          	addi	x31,x31,6
    410174a4:	00000073          	ecall
    410174a8:	00713823          	sd	x7,16(x2)
    410174ac:	00658137          	lui	x2,0x658
    410174b0:	000012b7          	lui	x5,0x1
    410174b4:	00510133          	add	x2,x2,x5
    410174b8:	ff017113          	andi	x2,x2,-16
    410174bc:	0010039b          	addiw	x7,x0,1
    410174c0:	02039393          	slli	x7,x7,0x20
    410174c4:	fff38393          	addi	x7,x7,-1
    410174c8:	00020fb7          	lui	x31,0x20
    410174cc:	887f8f9b          	addiw	x31,x31,-1913 # 1f887 <tp_csr_storage+0x12887>
    410174d0:	00ff9f93          	slli	x31,x31,0xf
    410174d4:	0b0f8f93          	addi	x31,x31,176
    410174d8:	00800f13          	li	x30,8
    410174dc:	01efb023          	sd	x30,0(x31)
    410174e0:	000f0fb7          	lui	x31,0xf0
    410174e4:	001f8f9b          	addiw	x31,x31,1 # f0001 <SID_HEXCEP_16_fs0_both_stack+0x5e001>
    410174e8:	00cf9f93          	slli	x31,x31,0xc
    410174ec:	005f8f93          	addi	x31,x31,5
    410174f0:	00000073          	ecall
    410174f4:	0010039b          	addiw	x7,x0,1
    410174f8:	02039393          	slli	x7,x7,0x20
    410174fc:	fff38393          	addi	x7,x7,-1
    41017500:	00020fb7          	lui	x31,0x20
    41017504:	887f8f9b          	addiw	x31,x31,-1913 # 1f887 <tp_csr_storage+0x12887>
    41017508:	00ff9f93          	slli	x31,x31,0xf
    4101750c:	0b8f8f93          	addi	x31,x31,184
    41017510:	00900f13          	li	x30,9
    41017514:	01efb023          	sd	x30,0(x31)
    41017518:	000f0fb7          	lui	x31,0xf0
    4101751c:	001f8f9b          	addiw	x31,x31,1 # f0001 <SID_HEXCEP_16_fs0_both_stack+0x5e001>
    41017520:	00cf9f93          	slli	x31,x31,0xc
    41017524:	006f8f93          	addi	x31,x31,6
    41017528:	00000073          	ecall
    4101752c:	0010039b          	addiw	x7,x0,1
    41017530:	02039393          	slli	x7,x7,0x20
    41017534:	fff38393          	addi	x7,x7,-1
    41017538:	00020fb7          	lui	x31,0x20
    4101753c:	887f8f9b          	addiw	x31,x31,-1913 # 1f887 <tp_csr_storage+0x12887>
    41017540:	00ff9f93          	slli	x31,x31,0xf
    41017544:	0b8f8f93          	addi	x31,x31,184
    41017548:	00a00f13          	li	x30,10
    4101754c:	01efb023          	sd	x30,0(x31)
    41017550:	000f0fb7          	lui	x31,0xf0
    41017554:	001f8f9b          	addiw	x31,x31,1 # f0001 <SID_HEXCEP_16_fs0_both_stack+0x5e001>
    41017558:	00cf9f93          	slli	x31,x31,0xc
    4101755c:	006f8f93          	addi	x31,x31,6
    41017560:	00000073          	ecall
    41017564:	00509237          	lui	x4,0x509
    41017568:	5092021b          	addiw	x4,x4,1289 # 509509 <hart_stack_0_end+0x2b7509>
    4101756c:	00e21213          	slli	x4,x4,0xe
    41017570:	01600e13          	li	x28,22
    41017574:	05c23823          	sd	x28,80(x4) # 50 <XLEN+0x10>
    41017578:	00000e17          	auipc	x28,0x0
    4101757c:	048e0e13          	addi	x28,x28,72 # 410175c0 <fault_label_71>
    41017580:	03c23023          	sd	x28,32(x4) # 20 <SECURE_ACCESS_PROBABILITY+0x2>
    41017584:	00000e13          	li	x28,0
    41017588:	05c23023          	sd	x28,64(x4) # 40 <XLEN>
    4101758c:	00000e13          	li	x28,0
    41017590:	05c23423          	sd	x28,72(x4) # 48 <XLEN+0x8>
    41017594:	00000e17          	auipc	x28,0x0
    41017598:	04ce0e13          	addi	x28,x28,76 # 410175e0 <excp_return_label_71>
    4101759c:	03c23823          	sd	x28,48(x4) # 30 <SECURE_ACCESS_PROBABILITY+0x12>
    410175a0:	00000e13          	li	x28,0
    410175a4:	03c23c23          	sd	x28,56(x4) # 38 <SECURE_ACCESS_PROBABILITY+0x1a>
    410175a8:	00000e13          	li	x28,0
    410175ac:	07c23023          	sd	x28,96(x4) # 60 <XLEN+0x20>
    410175b0:	00000e13          	li	x28,0
    410175b4:	07c23423          	sd	x28,104(x4) # 68 <XLEN+0x28>
    410175b8:	00000e13          	li	x28,0
    410175bc:	07c23823          	sd	x28,112(x4) # 70 <XLEN+0x30>

00000000410175c0 <fault_label_71>:
    410175c0:	c00023f3          	rdcycle	x7
    410175c4:	00038e13          	mv	x28,x7
    410175c8:	00020a37          	lui	x20,0x20
    410175cc:	887a0a1b          	addiw	x20,x20,-1913 # 1f887 <tp_csr_storage+0x12887>
    410175d0:	00fa1a13          	slli	x20,x20,0xf
    410175d4:	008a0a13          	addi	x20,x20,8
    410175d8:	000a3783          	ld	x15,0(x20)
    410175dc:	00078067          	jr	x15

00000000410175e0 <excp_return_label_71>:
    410175e0:	00509237          	lui	x4,0x509
    410175e4:	5092021b          	addiw	x4,x4,1289 # 509509 <hart_stack_0_end+0x2b7509>
    410175e8:	00e21213          	slli	x4,x4,0xe
    410175ec:	01600e13          	li	x28,22
    410175f0:	05c23823          	sd	x28,80(x4) # 50 <XLEN+0x10>
    410175f4:	00000e17          	auipc	x28,0x0
    410175f8:	048e0e13          	addi	x28,x28,72 # 4101763c <fault_label_72>
    410175fc:	03c23023          	sd	x28,32(x4) # 20 <SECURE_ACCESS_PROBABILITY+0x2>
    41017600:	00000e13          	li	x28,0
    41017604:	05c23023          	sd	x28,64(x4) # 40 <XLEN>
    41017608:	00000e13          	li	x28,0
    4101760c:	05c23423          	sd	x28,72(x4) # 48 <XLEN+0x8>
    41017610:	00000e17          	auipc	x28,0x0
    41017614:	04ce0e13          	addi	x28,x28,76 # 4101765c <excp_return_label_72>
    41017618:	03c23823          	sd	x28,48(x4) # 30 <SECURE_ACCESS_PROBABILITY+0x12>
    4101761c:	00000e13          	li	x28,0
    41017620:	03c23c23          	sd	x28,56(x4) # 38 <SECURE_ACCESS_PROBABILITY+0x1a>
    41017624:	00000e13          	li	x28,0
    41017628:	07c23023          	sd	x28,96(x4) # 60 <XLEN+0x20>
    4101762c:	00000e13          	li	x28,0
    41017630:	07c23423          	sd	x28,104(x4) # 68 <XLEN+0x28>
    41017634:	00000e13          	li	x28,0
    41017638:	07c23823          	sd	x28,112(x4) # 70 <XLEN+0x30>

000000004101763c <fault_label_72>:
    4101763c:	c01023f3          	rdtime	x7
    41017640:	00038c93          	mv	x25,x7
    41017644:	000203b7          	lui	x7,0x20
    41017648:	8873839b          	addiw	x7,x7,-1913 # 1f887 <tp_csr_storage+0x12887>
    4101764c:	00f39393          	slli	x7,x7,0xf
    41017650:	00838393          	addi	x7,x7,8
    41017654:	0003b303          	ld	x6,0(x7)
    41017658:	00030067          	jr	x6

000000004101765c <excp_return_label_72>:
    4101765c:	00509237          	lui	x4,0x509
    41017660:	5092021b          	addiw	x4,x4,1289 # 509509 <hart_stack_0_end+0x2b7509>
    41017664:	00e21213          	slli	x4,x4,0xe
    41017668:	01600e13          	li	x28,22
    4101766c:	05c23823          	sd	x28,80(x4) # 50 <XLEN+0x10>
    41017670:	00000e17          	auipc	x28,0x0
    41017674:	048e0e13          	addi	x28,x28,72 # 410176b8 <fault_label_73>
    41017678:	03c23023          	sd	x28,32(x4) # 20 <SECURE_ACCESS_PROBABILITY+0x2>
    4101767c:	00000e13          	li	x28,0
    41017680:	05c23023          	sd	x28,64(x4) # 40 <XLEN>
    41017684:	00000e13          	li	x28,0
    41017688:	05c23423          	sd	x28,72(x4) # 48 <XLEN+0x8>
    4101768c:	00000e17          	auipc	x28,0x0
    41017690:	04ce0e13          	addi	x28,x28,76 # 410176d8 <excp_return_label_73>
    41017694:	03c23823          	sd	x28,48(x4) # 30 <SECURE_ACCESS_PROBABILITY+0x12>
    41017698:	00000e13          	li	x28,0
    4101769c:	03c23c23          	sd	x28,56(x4) # 38 <SECURE_ACCESS_PROBABILITY+0x1a>
    410176a0:	00000e13          	li	x28,0
    410176a4:	07c23023          	sd	x28,96(x4) # 60 <XLEN+0x20>
    410176a8:	00000e13          	li	x28,0
    410176ac:	07c23423          	sd	x28,104(x4) # 68 <XLEN+0x28>
    410176b0:	00000e13          	li	x28,0
    410176b4:	07c23823          	sd	x28,112(x4) # 70 <XLEN+0x30>

00000000410176b8 <fault_label_73>:
    410176b8:	c02023f3          	rdinstret	x7
    410176bc:	00038613          	mv	x12,x7
    410176c0:	000204b7          	lui	x9,0x20
    410176c4:	8874849b          	addiw	x9,x9,-1913 # 1f887 <tp_csr_storage+0x12887>
    410176c8:	00f49493          	slli	x9,x9,0xf
    410176cc:	00848493          	addi	x9,x9,8
    410176d0:	0004bc03          	ld	x24,0(x9)
    410176d4:	000c0067          	jr	x24

00000000410176d8 <excp_return_label_73>:
    410176d8:	00509237          	lui	x4,0x509
    410176dc:	5092021b          	addiw	x4,x4,1289 # 509509 <hart_stack_0_end+0x2b7509>
    410176e0:	00e21213          	slli	x4,x4,0xe
    410176e4:	01600e13          	li	x28,22
    410176e8:	05c23823          	sd	x28,80(x4) # 50 <XLEN+0x10>
    410176ec:	00000e17          	auipc	x28,0x0
    410176f0:	048e0e13          	addi	x28,x28,72 # 41017734 <fault_label_74>
    410176f4:	03c23023          	sd	x28,32(x4) # 20 <SECURE_ACCESS_PROBABILITY+0x2>
    410176f8:	00000e13          	li	x28,0
    410176fc:	05c23023          	sd	x28,64(x4) # 40 <XLEN>
    41017700:	00000e13          	li	x28,0
    41017704:	05c23423          	sd	x28,72(x4) # 48 <XLEN+0x8>
    41017708:	00000e17          	auipc	x28,0x0
    4101770c:	04ce0e13          	addi	x28,x28,76 # 41017754 <excp_return_label_74>
    41017710:	03c23823          	sd	x28,48(x4) # 30 <SECURE_ACCESS_PROBABILITY+0x12>
    41017714:	00000e13          	li	x28,0
    41017718:	03c23c23          	sd	x28,56(x4) # 38 <SECURE_ACCESS_PROBABILITY+0x1a>
    4101771c:	00000e13          	li	x28,0
    41017720:	07c23023          	sd	x28,96(x4) # 60 <XLEN+0x20>
    41017724:	00000e13          	li	x28,0
    41017728:	07c23423          	sd	x28,104(x4) # 68 <XLEN+0x28>
    4101772c:	00000e13          	li	x28,0
    41017730:	07c23823          	sd	x28,112(x4) # 70 <XLEN+0x30>

0000000041017734 <fault_label_74>:
    41017734:	c03023f3          	csrr	x7,hpmcounter3
    41017738:	00038d93          	mv	x27,x7
    4101773c:	00020837          	lui	x16,0x20
    41017740:	8878081b          	addiw	x16,x16,-1913 # 1f887 <tp_csr_storage+0x12887>
    41017744:	00f81813          	slli	x16,x16,0xf
    41017748:	00880813          	addi	x16,x16,8
    4101774c:	00083683          	ld	x13,0(x16)
    41017750:	00068067          	jr	x13

0000000041017754 <excp_return_label_74>:
    41017754:	00509237          	lui	x4,0x509
    41017758:	5092021b          	addiw	x4,x4,1289 # 509509 <hart_stack_0_end+0x2b7509>
    4101775c:	00e21213          	slli	x4,x4,0xe
    41017760:	01600e13          	li	x28,22
    41017764:	05c23823          	sd	x28,80(x4) # 50 <XLEN+0x10>
    41017768:	00000e17          	auipc	x28,0x0
    4101776c:	048e0e13          	addi	x28,x28,72 # 410177b0 <fault_label_75>
    41017770:	03c23023          	sd	x28,32(x4) # 20 <SECURE_ACCESS_PROBABILITY+0x2>
    41017774:	00000e13          	li	x28,0
    41017778:	05c23023          	sd	x28,64(x4) # 40 <XLEN>
    4101777c:	00000e13          	li	x28,0
    41017780:	05c23423          	sd	x28,72(x4) # 48 <XLEN+0x8>
    41017784:	00000e17          	auipc	x28,0x0
    41017788:	04ce0e13          	addi	x28,x28,76 # 410177d0 <excp_return_label_75>
    4101778c:	03c23823          	sd	x28,48(x4) # 30 <SECURE_ACCESS_PROBABILITY+0x12>
    41017790:	00000e13          	li	x28,0
    41017794:	03c23c23          	sd	x28,56(x4) # 38 <SECURE_ACCESS_PROBABILITY+0x1a>
    41017798:	00000e13          	li	x28,0
    4101779c:	07c23023          	sd	x28,96(x4) # 60 <XLEN+0x20>
    410177a0:	00000e13          	li	x28,0
    410177a4:	07c23423          	sd	x28,104(x4) # 68 <XLEN+0x28>
