
/home/abdullah/RiescueC/riescue/10x_R/paging/testsuite/paging/user_sv48/tp_paging_2:     file format elf64-littleriscv


Disassembly of section .runtime:

0000000041000000 <_start>:
    41000000:	00000093          	li	x1,0
    41000004:	00000113          	li	x2,0
    41000008:	00000193          	li	x3,0
    4100000c:	00000213          	li	x4,0
    41000010:	00000293          	li	x5,0
    41000014:	00000313          	li	x6,0
    41000018:	00000393          	li	x7,0
    4100001c:	00000413          	li	x8,0
    41000020:	00000493          	li	x9,0
    41000024:	00000513          	li	x10,0
    41000028:	00000593          	li	x11,0
    4100002c:	00000613          	li	x12,0
    41000030:	00000693          	li	x13,0
    41000034:	00000713          	li	x14,0
    41000038:	00000793          	li	x15,0
    4100003c:	00000813          	li	x16,0
    41000040:	00000893          	li	x17,0
    41000044:	00000913          	li	x18,0
    41000048:	00000993          	li	x19,0
    4100004c:	00000a13          	li	x20,0
    41000050:	00000a93          	li	x21,0
    41000054:	00000b13          	li	x22,0
    41000058:	00000b93          	li	x23,0
    4100005c:	00000c13          	li	x24,0
    41000060:	00000c93          	li	x25,0
    41000064:	00000d13          	li	x26,0
    41000068:	00000d93          	li	x27,0
    4100006c:	00000e13          	li	x28,0
    41000070:	00000e93          	li	x29,0
    41000074:	00000f13          	li	x30,0
    41000078:	00000f93          	li	x31,0

000000004100007c <loader__load_panic_address>:
    4100007c:	00001297          	auipc	x5,0x1
    41000080:	9e828293          	addi	x5,x5,-1560 # 41000a64 <eot__failed>
    41000084:	30529073          	csrw	mtvec,x5

0000000041000088 <loader__initialize_runtime>:
    41000088:	00000293          	li	x5,0
    4100008c:	3012a2f3          	csrrs	x5,misa,x5

0000000041000090 <loader__set_mstatus>:
    41000090:	000402b7          	lui	x5,0x40
    41000094:	00a2829b          	addiw	x5,x5,10 # 4000a <pma_region_0_size+0xa>
    41000098:	3002a2f3          	csrrs	x5,mstatus,x5
    4100009c:	44df2237          	lui	x4,0x44df2
    410000a0:	34021073          	csrw	mscratch,x4

00000000410000a4 <loader__setup_menvcfg>:
    410000a4:	00000297          	auipc	x5,0x0
    410000a8:	4a828293          	addi	x5,x5,1192 # 4100054c <trap_handler_m__trap_entry>
    410000ac:	30529073          	csrw	mtvec,x5

00000000410000b0 <loader__enable_paging>:
    410000b0:	fff900b7          	lui	x1,0xfff90
    410000b4:	0b30809b          	addiw	x1,x1,179 # fffffffffff900b3 <SID_PBVMS_014_mstatus_sum_mxr_stack+0xffff912627f7a0b3>
    410000b8:	02009093          	slli	x1,x1,0x20
    410000bc:	04508093          	addi	x1,x1,69
    410000c0:	00c09093          	slli	x1,x1,0xc
    410000c4:	d6008093          	addi	x1,x1,-672
    410000c8:	18009073          	csrw	satp,x1

00000000410000cc <loader__done>:
    410000cc:	1c10006f          	j	41000a8c <scheduler__init>

00000000410000d0 <loader__panic>:
    410000d0:	1950006f          	j	41000a64 <eot__failed>

00000000410000d4 <syscalls__syscall_check_schedule_next_test>:
    410000d4:	00f0029b          	addiw	x5,x0,15
    410000d8:	01c29293          	slli	x5,x5,0x1c
    410000dc:	00128293          	addi	x5,x5,1
    410000e0:	01f29a63          	bne	x5,x31,410000f4 <syscalls__syscall_check_fail_test>
    410000e4:	00000317          	auipc	x6,0x0
    410000e8:	46830313          	addi	x6,x6,1128 # 4100054c <trap_handler_m__trap_entry>
    410000ec:	30531073          	csrw	mtvec,x6
    410000f0:	6a00006f          	j	41000790 <enter_scheduler>

00000000410000f4 <syscalls__syscall_check_fail_test>:
    410000f4:	00f0029b          	addiw	x5,x0,15
    410000f8:	01c29293          	slli	x5,x5,0x1c
    410000fc:	00228293          	addi	x5,x5,2
    41000100:	01f29a63          	bne	x5,x31,41000114 <syscalls__syscall_check_end_test_without_failure>
    41000104:	00000317          	auipc	x6,0x0
    41000108:	44830313          	addi	x6,x6,1096 # 4100054c <trap_handler_m__trap_entry>
    4100010c:	30531073          	csrw	mtvec,x6
    41000110:	6b00006f          	j	410007c0 <test_failed>

0000000041000114 <syscalls__syscall_check_end_test_without_failure>:
    41000114:	00f0029b          	addiw	x5,x0,15
    41000118:	01c29293          	slli	x5,x5,0x1c
    4100011c:	00328293          	addi	x5,x5,3
    41000120:	01f29a63          	bne	x5,x31,41000134 <syscalls__syscall_check_switch_machine_mode>
    41000124:	00000317          	auipc	x6,0x0
    41000128:	42830313          	addi	x6,x6,1064 # 4100054c <trap_handler_m__trap_entry>
    4100012c:	30531073          	csrw	mtvec,x6
    41000130:	69c0006f          	j	410007cc <os_end_test>

0000000041000134 <syscalls__syscall_check_switch_machine_mode>:
    41000134:	000f02b7          	lui	x5,0xf0
    41000138:	0012829b          	addiw	x5,x5,1 # f0001 <SID_PBVMS_040_context_table_overflow_stack+0x22001>
    4100013c:	00c29293          	slli	x5,x5,0xc
    41000140:	00128293          	addi	x5,x5,1
    41000144:	0a5f8463          	beq	x31,x5,410001ec <syscalls__os_fn_f0001001>

0000000041000148 <syscalls__syscall_check_switch_super_mode>:
    41000148:	000f02b7          	lui	x5,0xf0
    4100014c:	0012829b          	addiw	x5,x5,1 # f0001 <SID_PBVMS_040_context_table_overflow_stack+0x22001>
    41000150:	00c29293          	slli	x5,x5,0xc
    41000154:	00228293          	addi	x5,x5,2
    41000158:	0c5f8063          	beq	x31,x5,41000218 <syscalls__os_fn_f0001002>

000000004100015c <syscalls__syscall_check_switch_user_mode>:
    4100015c:	000f02b7          	lui	x5,0xf0
    41000160:	0012829b          	addiw	x5,x5,1 # f0001 <SID_PBVMS_040_context_table_overflow_stack+0x22001>
    41000164:	00c29293          	slli	x5,x5,0xc
    41000168:	00328293          	addi	x5,x5,3
    4100016c:	0c5f8e63          	beq	x31,x5,41000248 <syscalls__os_fn_f0001003>

0000000041000170 <syscalls__syscall_check_switch_test_mode>:
    41000170:	000f02b7          	lui	x5,0xf0
    41000174:	0012829b          	addiw	x5,x5,1 # f0001 <SID_PBVMS_040_context_table_overflow_stack+0x22001>
    41000178:	00c29293          	slli	x5,x5,0xc
    4100017c:	00428293          	addi	x5,x5,4
    41000180:	0c5f8863          	beq	x31,x5,41000250 <syscalls__os_fn_f0001004>

0000000041000184 <syscalls__syscall_machine_csr_rw>:
    41000184:	000f02b7          	lui	x5,0xf0
    41000188:	0012829b          	addiw	x5,x5,1 # f0001 <SID_PBVMS_040_context_table_overflow_stack+0x22001>
    4100018c:	00c29293          	slli	x5,x5,0xc
    41000190:	00528293          	addi	x5,x5,5
    41000194:	0e5f8263          	beq	x31,x5,41000278 <syscalls__os_fn_f0001005>

0000000041000198 <syscalls__syscall_supervisor_csr_rw>:
    41000198:	000f02b7          	lui	x5,0xf0
    4100019c:	0012829b          	addiw	x5,x5,1 # f0001 <SID_PBVMS_040_context_table_overflow_stack+0x22001>
    410001a0:	00c29293          	slli	x5,x5,0xc
    410001a4:	00628293          	addi	x5,x5,6
    410001a8:	0e5f8e63          	beq	x31,x5,410002a4 <syscalls__os_fn_f0001006>

00000000410001ac <syscalls__syscall_machine_pte_read>:
    410001ac:	000f02b7          	lui	x5,0xf0
    410001b0:	0012829b          	addiw	x5,x5,1 # f0001 <SID_PBVMS_040_context_table_overflow_stack+0x22001>
    410001b4:	00c29293          	slli	x5,x5,0xc
    410001b8:	00728293          	addi	x5,x5,7
    410001bc:	105f8c63          	beq	x31,x5,410002d4 <syscalls__os_fn_f0001007>

00000000410001c0 <syscalls__syscall_machine_pte_write>:
    410001c0:	000f02b7          	lui	x5,0xf0
    410001c4:	0012829b          	addiw	x5,x5,1 # f0001 <SID_PBVMS_040_context_table_overflow_stack+0x22001>
    410001c8:	00c29293          	slli	x5,x5,0xc
    410001cc:	00828293          	addi	x5,x5,8
    410001d0:	1e5f8863          	beq	x31,x5,410003c0 <syscalls__os_fn_f0001008>

00000000410001d4 <syscalls__syscall_check_get_hart_context>:
    410001d4:	000782b7          	lui	x5,0x78
    410001d8:	0012829b          	addiw	x5,x5,1 # 78001 <mem22__pt_level1+0x1>
    410001dc:	00d29293          	slli	x5,x5,0xd
    410001e0:	00128293          	addi	x5,x5,1
    410001e4:	2c5f8463          	beq	x31,x5,410004ac <syscalls__os_get_hart_context>
    410001e8:	4c00006f          	j	410006a8 <trap_handler_m__check_exception_label>

00000000410001ec <syscalls__os_fn_f0001001>:
    410001ec:	000022b7          	lui	x5,0x2
    410001f0:	8002829b          	addiw	x5,x5,-2048 # 1800 <pma_region_1_size+0x800>
    410001f4:	3002b073          	csrc	mstatus,x5
    410001f8:	000022b7          	lui	x5,0x2
    410001fc:	8002829b          	addiw	x5,x5,-2048 # 1800 <pma_region_1_size+0x800>
    41000200:	3002a073          	csrs	mstatus,x5
    41000204:	0010029b          	addiw	x5,x0,1
    41000208:	02729293          	slli	x5,x5,0x27
    4100020c:	3002b073          	csrc	mstatus,x5
    41000210:	413092b7          	lui	x5,0x41309
    41000214:	2a80006f          	j	410004bc <syscalls__ret_from_os_fn>

0000000041000218 <syscalls__os_fn_f0001002>:
    41000218:	000022b7          	lui	x5,0x2
    4100021c:	8002829b          	addiw	x5,x5,-2048 # 1800 <pma_region_1_size+0x800>
    41000220:	3002b073          	csrc	mstatus,x5
    41000224:	000012b7          	lui	x5,0x1
    41000228:	8002829b          	addiw	x5,x5,-2048 # 800 <XLEN+0x7c0>
    4100022c:	3002a073          	csrs	mstatus,x5
    41000230:	0010029b          	addiw	x5,x0,1
    41000234:	02729293          	slli	x5,x5,0x27
    41000238:	3002b073          	csrc	mstatus,x5
    4100023c:	12000073          	sfence.vma
    41000240:	412092b7          	lui	x5,0x41209
    41000244:	2780006f          	j	410004bc <syscalls__ret_from_os_fn>

0000000041000248 <syscalls__os_fn_f0001003>:
    41000248:	412892b7          	lui	x5,0x41289
    4100024c:	2700006f          	j	410004bc <syscalls__ret_from_os_fn>

0000000041000250 <syscalls__os_fn_f0001004>:
    41000250:	000022b7          	lui	x5,0x2
    41000254:	8002829b          	addiw	x5,x5,-2048 # 1800 <pma_region_1_size+0x800>
    41000258:	3002b073          	csrc	mstatus,x5
    4100025c:	00000293          	li	x5,0
    41000260:	3002a073          	csrs	mstatus,x5
    41000264:	0010029b          	addiw	x5,x0,1
    41000268:	02729293          	slli	x5,x5,0x27
    4100026c:	3002b073          	csrc	mstatus,x5
    41000270:	17823283          	ld	x5,376(x4) # 44df2178 <__section_hart_context+0x178>
    41000274:	2480006f          	j	410004bc <syscalls__ret_from_os_fn>

0000000041000278 <syscalls__os_fn_f0001005>:
    41000278:	000022b7          	lui	x5,0x2
    4100027c:	8002829b          	addiw	x5,x5,-2048 # 1800 <pma_region_1_size+0x800>
    41000280:	3002b073          	csrc	mstatus,x5
    41000284:	000022b7          	lui	x5,0x2
    41000288:	8002829b          	addiw	x5,x5,-2048 # 1800 <pma_region_1_size+0x800>
    4100028c:	3002a073          	csrs	mstatus,x5
    41000290:	0010029b          	addiw	x5,x0,1
    41000294:	02729293          	slli	x5,x5,0x27
    41000298:	3002b073          	csrc	mstatus,x5
    4100029c:	413892b7          	lui	x5,0x41389
    410002a0:	21c0006f          	j	410004bc <syscalls__ret_from_os_fn>

00000000410002a4 <syscalls__os_fn_f0001006>:
    410002a4:	000022b7          	lui	x5,0x2
    410002a8:	8002829b          	addiw	x5,x5,-2048 # 1800 <pma_region_1_size+0x800>
    410002ac:	3002b073          	csrc	mstatus,x5
    410002b0:	000012b7          	lui	x5,0x1
    410002b4:	8002829b          	addiw	x5,x5,-2048 # 800 <XLEN+0x7c0>
    410002b8:	3002a073          	csrs	mstatus,x5
    410002bc:	0010029b          	addiw	x5,x0,1
    410002c0:	02729293          	slli	x5,x5,0x27
    410002c4:	3002b073          	csrc	mstatus,x5
    410002c8:	12000073          	sfence.vma
    410002cc:	4138a2b7          	lui	x5,0x4138a
    410002d0:	1ec0006f          	j	410004bc <syscalls__ret_from_os_fn>

00000000410002d4 <syscalls__os_fn_f0001007>:
    410002d4:	44c70fb7          	lui	x31,0x44c70
    410002d8:	0b0f8f9b          	addiw	x31,x31,176 # 44c700b0 <pte_access_flags_pa>
    410002dc:	000fbf83          	ld	x31,0(x31)
    410002e0:	44c702b7          	lui	x5,0x44c70
    410002e4:	0b82829b          	addiw	x5,x5,184 # 44c700b8 <pte_access_flags_pa+0x8>
    410002e8:	0002b283          	ld	x5,0(x5)
    410002ec:	44c70e37          	lui	x28,0x44c70
    410002f0:	0c0e0e1b          	addiw	x28,x28,192 # 44c700c0 <pte_access_flags_pa+0x10>
    410002f4:	000e3e03          	ld	x28,0(x28)

00000000410002f8 <syscalls__pte_walk_check_glevel_without_gstage_read>:
    410002f8:	fff00f93          	li	x31,-1
    410002fc:	0dfe1063          	bne	x28,x31,410003bc <syscalls__pte_walk_fail_read>
    41000300:	18002373          	csrr	x6,satp
    41000304:	03c35e93          	srli	x29,x6,0x3c
    41000308:	01431313          	slli	x6,x6,0x14
    4100030c:	01435313          	srli	x6,x6,0x14
    41000310:	00c31313          	slli	x6,x6,0xc
    41000314:	ff8e8e93          	addi	x29,x29,-8
    41000318:	003e9f13          	slli	x30,x29,0x3
    4100031c:	01df0eb3          	add	x29,x30,x29
    41000320:	01ee8e93          	addi	x29,x29,30
    41000324:	00000f13          	li	x30,0

0000000041000328 <syscalls__pte_walk_loop_read>:
    41000328:	44c70fb7          	lui	x31,0x44c70
    4100032c:	0b0f8f9b          	addiw	x31,x31,176 # 44c700b0 <pte_access_flags_pa>
    41000330:	000fbf83          	ld	x31,0(x31)
    41000334:	01dfdfb3          	srl	x31,x31,x29
    41000338:	1fffff93          	andi	x31,x31,511
    4100033c:	003f9f93          	slli	x31,x31,0x3
    41000340:	01f30333          	add	x6,x6,x31
    41000344:	005f0e63          	beq	x30,x5,41000360 <syscalls__pte_walk_done_read>
    41000348:	00033f83          	ld	x31,0(x6)
    4100034c:	00afdf93          	srli	x31,x31,0xa
    41000350:	00cf9313          	slli	x6,x31,0xc
    41000354:	001f0f13          	addi	x30,x30,1
    41000358:	ff7e8e93          	addi	x29,x29,-9
    4100035c:	fcdff06f          	j	41000328 <syscalls__pte_walk_loop_read>

0000000041000360 <syscalls__pte_walk_done_read>:
    41000360:	fff00f93          	li	x31,-1
    41000364:	05fe0263          	beq	x28,x31,410003a8 <syscalls__pte_walk_final_read>

0000000041000368 <syscalls__pte_walk_gstage_read>:
    41000368:	44c70fb7          	lui	x31,0x44c70
    4100036c:	0b0f8f9b          	addiw	x31,x31,176 # 44c700b0 <pte_access_flags_pa>
    41000370:	006fb023          	sd	x6,0(x31)
    41000374:	000e0293          	mv	x5,x28
    41000378:	fff00e13          	li	x28,-1
    4100037c:	68002373          	csrr	x6,hgatp
    41000380:	03c35e93          	srli	x29,x6,0x3c
    41000384:	01431313          	slli	x6,x6,0x14
    41000388:	01435313          	srli	x6,x6,0x14
    4100038c:	00c31313          	slli	x6,x6,0xc
    41000390:	ff8e8e93          	addi	x29,x29,-8
    41000394:	003e9f13          	slli	x30,x29,0x3
    41000398:	01df0eb3          	add	x29,x30,x29
    4100039c:	01ee8e93          	addi	x29,x29,30
    410003a0:	00000f13          	li	x30,0
    410003a4:	f85ff06f          	j	41000328 <syscalls__pte_walk_loop_read>

00000000410003a8 <syscalls__pte_walk_final_read>:
    410003a8:	00033383          	ld	x7,0(x6)
    410003ac:	341022f3          	csrr	x5,mepc
    410003b0:	00428293          	addi	x5,x5,4
    410003b4:	16523c23          	sd	x5,376(x4) # 178 <XLEN+0x138>
    410003b8:	e99ff06f          	j	41000250 <syscalls__os_fn_f0001004>

00000000410003bc <syscalls__pte_walk_fail_read>:
    410003bc:	4040006f          	j	410007c0 <test_failed>

00000000410003c0 <syscalls__os_fn_f0001008>:
    410003c0:	44c70fb7          	lui	x31,0x44c70
    410003c4:	0b0f8f9b          	addiw	x31,x31,176 # 44c700b0 <pte_access_flags_pa>
    410003c8:	000fbf83          	ld	x31,0(x31)
    410003cc:	44c702b7          	lui	x5,0x44c70
    410003d0:	0b82829b          	addiw	x5,x5,184 # 44c700b8 <pte_access_flags_pa+0x8>
    410003d4:	0002b283          	ld	x5,0(x5)
    410003d8:	44c70e37          	lui	x28,0x44c70
    410003dc:	0c0e0e1b          	addiw	x28,x28,192 # 44c700c0 <pte_access_flags_pa+0x10>
    410003e0:	000e3e03          	ld	x28,0(x28)

00000000410003e4 <syscalls__pte_walk_check_glevel_without_gstage_write>:
    410003e4:	fff00f93          	li	x31,-1
    410003e8:	0dfe1063          	bne	x28,x31,410004a8 <syscalls__pte_walk_fail_write>
    410003ec:	18002373          	csrr	x6,satp
    410003f0:	03c35e93          	srli	x29,x6,0x3c
    410003f4:	01431313          	slli	x6,x6,0x14
    410003f8:	01435313          	srli	x6,x6,0x14
    410003fc:	00c31313          	slli	x6,x6,0xc
    41000400:	ff8e8e93          	addi	x29,x29,-8
    41000404:	003e9f13          	slli	x30,x29,0x3
    41000408:	01df0eb3          	add	x29,x30,x29
    4100040c:	01ee8e93          	addi	x29,x29,30
    41000410:	00000f13          	li	x30,0

0000000041000414 <syscalls__pte_walk_loop_write>:
    41000414:	44c70fb7          	lui	x31,0x44c70
    41000418:	0b0f8f9b          	addiw	x31,x31,176 # 44c700b0 <pte_access_flags_pa>
    4100041c:	000fbf83          	ld	x31,0(x31)
    41000420:	01dfdfb3          	srl	x31,x31,x29
    41000424:	1fffff93          	andi	x31,x31,511
    41000428:	003f9f93          	slli	x31,x31,0x3
    4100042c:	01f30333          	add	x6,x6,x31
    41000430:	005f0e63          	beq	x30,x5,4100044c <syscalls__pte_walk_done_write>
    41000434:	00033f83          	ld	x31,0(x6)
    41000438:	00afdf93          	srli	x31,x31,0xa
    4100043c:	00cf9313          	slli	x6,x31,0xc
    41000440:	001f0f13          	addi	x30,x30,1
    41000444:	ff7e8e93          	addi	x29,x29,-9
    41000448:	fcdff06f          	j	41000414 <syscalls__pte_walk_loop_write>

000000004100044c <syscalls__pte_walk_done_write>:
    4100044c:	fff00f93          	li	x31,-1
    41000450:	05fe0263          	beq	x28,x31,41000494 <syscalls__pte_walk_final_write>

0000000041000454 <syscalls__pte_walk_gstage_write>:
    41000454:	44c70fb7          	lui	x31,0x44c70
    41000458:	0b0f8f9b          	addiw	x31,x31,176 # 44c700b0 <pte_access_flags_pa>
    4100045c:	006fb023          	sd	x6,0(x31)
    41000460:	000e0293          	mv	x5,x28
    41000464:	fff00e13          	li	x28,-1
    41000468:	68002373          	csrr	x6,hgatp
    4100046c:	03c35e93          	srli	x29,x6,0x3c
    41000470:	01431313          	slli	x6,x6,0x14
    41000474:	01435313          	srli	x6,x6,0x14
    41000478:	00c31313          	slli	x6,x6,0xc
    4100047c:	ff8e8e93          	addi	x29,x29,-8
    41000480:	003e9f13          	slli	x30,x29,0x3
    41000484:	01df0eb3          	add	x29,x30,x29
    41000488:	01ee8e93          	addi	x29,x29,30
    4100048c:	00000f13          	li	x30,0
    41000490:	f85ff06f          	j	41000414 <syscalls__pte_walk_loop_write>

0000000041000494 <syscalls__pte_walk_final_write>:
    41000494:	00733023          	sd	x7,0(x6)
    41000498:	341022f3          	csrr	x5,mepc
    4100049c:	00428293          	addi	x5,x5,4
    410004a0:	16523c23          	sd	x5,376(x4) # 178 <XLEN+0x138>
    410004a4:	dadff06f          	j	41000250 <syscalls__os_fn_f0001004>

00000000410004a8 <syscalls__pte_walk_fail_write>:
    410004a8:	3180006f          	j	410007c0 <test_failed>

00000000410004ac <syscalls__os_get_hart_context>:
    410004ac:	14002573          	csrr	x10,sscratch
    410004b0:	341022f3          	csrr	x5,mepc
    410004b4:	00428293          	addi	x5,x5,4
    410004b8:	0040006f          	j	410004bc <syscalls__ret_from_os_fn>

00000000410004bc <syscalls__ret_from_os_fn>:
    410004bc:	34102373          	csrr	x6,mepc
    410004c0:	00430313          	addi	x6,x6,4
    410004c4:	16623c23          	sd	x6,376(x4) # 178 <XLEN+0x138>
    410004c8:	34129073          	csrw	mepc,x5
    410004cc:	fff00f93          	li	x31,-1
    410004d0:	2a40006f          	j	41000774 <trap_handler_m__skip_xepc_write>

00000000410004d4 <trap_handler_m__invalid_interrupt>:
    410004d4:	2ec0006f          	j	410007c0 <test_failed>

00000000410004d8 <trap_handler_m__clear_all_interrupts>:
    410004d8:	34401073          	csrw	mip,x0
    410004dc:	30200073          	mret

00000000410004e0 <trap_handler_m___CLEAR_SSI>:
    410004e0:	00200293          	li	x5,2
    410004e4:	3442b073          	csrc	mip,x5
    410004e8:	30200073          	mret

00000000410004ec <trap_handler_m___CLEAR_MSI>:
    410004ec:	00800293          	li	x5,8
    410004f0:	3442b073          	csrc	mip,x5
    410004f4:	30200073          	mret

00000000410004f8 <trap_handler_m___CLEAR_STI>:
    410004f8:	02000293          	li	x5,32
    410004fc:	3442b073          	csrc	mip,x5
    41000500:	30200073          	mret

0000000041000504 <trap_handler_m___CLEAR_MTI>:
    41000504:	08000293          	li	x5,128
    41000508:	3442b073          	csrc	mip,x5
    4100050c:	30200073          	mret

0000000041000510 <trap_handler_m___CLEAR_SEI>:
    41000510:	20000293          	li	x5,512
    41000514:	3442b073          	csrc	mip,x5
    41000518:	30200073          	mret

000000004100051c <trap_handler_m___CLEAR_MEI>:
    4100051c:	000012b7          	lui	x5,0x1
    41000520:	8002829b          	addiw	x5,x5,-2048 # 800 <XLEN+0x7c0>
    41000524:	3442b073          	csrc	mip,x5
    41000528:	30200073          	mret

000000004100052c <trap_handler_m___CLEAR_COI>:
    4100052c:	000022b7          	lui	x5,0x2
    41000530:	3442b073          	csrc	mip,x5
    41000534:	30200073          	mret

0000000041000538 <trap_handler_m__clear_highest_priority_interrupt>:
    41000538:	344022f3          	csrr	x5,mip
    4100053c:	40500333          	neg	x6,x5
    41000540:	0062f2b3          	and	x5,x5,x6
    41000544:	3442b073          	csrc	mip,x5
    41000548:	30200073          	mret

000000004100054c <trap_handler_m__trap_entry>:
    4100054c:	0fc0006f          	j	41000648 <trap_handler_m__trap_handler>

0000000041000550 <trap_handler_m__interrupt_vector_table>:
    41000550:	f91ff06f          	j	410004e0 <trap_handler_m___CLEAR_SSI>
    41000554:	f81ff06f          	j	410004d4 <trap_handler_m__invalid_interrupt>
    41000558:	f95ff06f          	j	410004ec <trap_handler_m___CLEAR_MSI>
    4100055c:	f79ff06f          	j	410004d4 <trap_handler_m__invalid_interrupt>
    41000560:	f99ff06f          	j	410004f8 <trap_handler_m___CLEAR_STI>
    41000564:	f71ff06f          	j	410004d4 <trap_handler_m__invalid_interrupt>
    41000568:	f9dff06f          	j	41000504 <trap_handler_m___CLEAR_MTI>
    4100056c:	f69ff06f          	j	410004d4 <trap_handler_m__invalid_interrupt>
    41000570:	fa1ff06f          	j	41000510 <trap_handler_m___CLEAR_SEI>
    41000574:	f61ff06f          	j	410004d4 <trap_handler_m__invalid_interrupt>
    41000578:	fa5ff06f          	j	4100051c <trap_handler_m___CLEAR_MEI>
    4100057c:	f59ff06f          	j	410004d4 <trap_handler_m__invalid_interrupt>
    41000580:	fadff06f          	j	4100052c <trap_handler_m___CLEAR_COI>
    41000584:	f51ff06f          	j	410004d4 <trap_handler_m__invalid_interrupt>
    41000588:	f4dff06f          	j	410004d4 <trap_handler_m__invalid_interrupt>
    4100058c:	fadff06f          	j	41000538 <trap_handler_m__clear_highest_priority_interrupt>
    41000590:	fa9ff06f          	j	41000538 <trap_handler_m__clear_highest_priority_interrupt>
    41000594:	fa5ff06f          	j	41000538 <trap_handler_m__clear_highest_priority_interrupt>
    41000598:	fa1ff06f          	j	41000538 <trap_handler_m__clear_highest_priority_interrupt>
    4100059c:	f9dff06f          	j	41000538 <trap_handler_m__clear_highest_priority_interrupt>
    410005a0:	f99ff06f          	j	41000538 <trap_handler_m__clear_highest_priority_interrupt>
    410005a4:	f95ff06f          	j	41000538 <trap_handler_m__clear_highest_priority_interrupt>
    410005a8:	f91ff06f          	j	41000538 <trap_handler_m__clear_highest_priority_interrupt>
    410005ac:	f8dff06f          	j	41000538 <trap_handler_m__clear_highest_priority_interrupt>
    410005b0:	f89ff06f          	j	41000538 <trap_handler_m__clear_highest_priority_interrupt>
    410005b4:	f85ff06f          	j	41000538 <trap_handler_m__clear_highest_priority_interrupt>
    410005b8:	f81ff06f          	j	41000538 <trap_handler_m__clear_highest_priority_interrupt>
    410005bc:	f7dff06f          	j	41000538 <trap_handler_m__clear_highest_priority_interrupt>
    410005c0:	f79ff06f          	j	41000538 <trap_handler_m__clear_highest_priority_interrupt>
    410005c4:	f75ff06f          	j	41000538 <trap_handler_m__clear_highest_priority_interrupt>
    410005c8:	f71ff06f          	j	41000538 <trap_handler_m__clear_highest_priority_interrupt>
    410005cc:	f6dff06f          	j	41000538 <trap_handler_m__clear_highest_priority_interrupt>
    410005d0:	f69ff06f          	j	41000538 <trap_handler_m__clear_highest_priority_interrupt>
    410005d4:	f65ff06f          	j	41000538 <trap_handler_m__clear_highest_priority_interrupt>
    410005d8:	f61ff06f          	j	41000538 <trap_handler_m__clear_highest_priority_interrupt>
    410005dc:	f5dff06f          	j	41000538 <trap_handler_m__clear_highest_priority_interrupt>
    410005e0:	f59ff06f          	j	41000538 <trap_handler_m__clear_highest_priority_interrupt>
    410005e4:	f55ff06f          	j	41000538 <trap_handler_m__clear_highest_priority_interrupt>
    410005e8:	f51ff06f          	j	41000538 <trap_handler_m__clear_highest_priority_interrupt>
    410005ec:	f4dff06f          	j	41000538 <trap_handler_m__clear_highest_priority_interrupt>
    410005f0:	f49ff06f          	j	41000538 <trap_handler_m__clear_highest_priority_interrupt>
    410005f4:	f45ff06f          	j	41000538 <trap_handler_m__clear_highest_priority_interrupt>
    410005f8:	f41ff06f          	j	41000538 <trap_handler_m__clear_highest_priority_interrupt>
    410005fc:	f3dff06f          	j	41000538 <trap_handler_m__clear_highest_priority_interrupt>
    41000600:	f39ff06f          	j	41000538 <trap_handler_m__clear_highest_priority_interrupt>
    41000604:	f35ff06f          	j	41000538 <trap_handler_m__clear_highest_priority_interrupt>
    41000608:	f31ff06f          	j	41000538 <trap_handler_m__clear_highest_priority_interrupt>
    4100060c:	f2dff06f          	j	41000538 <trap_handler_m__clear_highest_priority_interrupt>
    41000610:	f29ff06f          	j	41000538 <trap_handler_m__clear_highest_priority_interrupt>
    41000614:	f25ff06f          	j	41000538 <trap_handler_m__clear_highest_priority_interrupt>
    41000618:	f21ff06f          	j	41000538 <trap_handler_m__clear_highest_priority_interrupt>
    4100061c:	f1dff06f          	j	41000538 <trap_handler_m__clear_highest_priority_interrupt>
    41000620:	f19ff06f          	j	41000538 <trap_handler_m__clear_highest_priority_interrupt>
    41000624:	f15ff06f          	j	41000538 <trap_handler_m__clear_highest_priority_interrupt>
    41000628:	f11ff06f          	j	41000538 <trap_handler_m__clear_highest_priority_interrupt>
    4100062c:	f0dff06f          	j	41000538 <trap_handler_m__clear_highest_priority_interrupt>
    41000630:	f09ff06f          	j	41000538 <trap_handler_m__clear_highest_priority_interrupt>
    41000634:	f05ff06f          	j	41000538 <trap_handler_m__clear_highest_priority_interrupt>
    41000638:	f01ff06f          	j	41000538 <trap_handler_m__clear_highest_priority_interrupt>
    4100063c:	efdff06f          	j	41000538 <trap_handler_m__clear_highest_priority_interrupt>
    41000640:	ef9ff06f          	j	41000538 <trap_handler_m__clear_highest_priority_interrupt>
    41000644:	ef5ff06f          	j	41000538 <trap_handler_m__clear_highest_priority_interrupt>

0000000041000648 <trap_handler_m__trap_handler>:
    41000648:	342022f3          	csrr	x5,mcause
    4100064c:	fff0031b          	addiw	x6,x0,-1
    41000650:	03f31313          	slli	x6,x6,0x3f
    41000654:	00537333          	and	x6,x6,x5
    41000658:	02030263          	beqz	x6,4100067c <trap_handler_m__exception_path>

000000004100065c <trap_handler_m__interrupt_handler>:
    4100065c:	fff0031b          	addiw	x6,x0,-1
    41000660:	03f31313          	slli	x6,x6,0x3f
    41000664:	0062c2b3          	xor	x5,x5,x6
    41000668:	00000317          	auipc	x6,0x0
    4100066c:	ee430313          	addi	x6,x6,-284 # 4100054c <trap_handler_m__trap_entry>
    41000670:	00229293          	slli	x5,x5,0x2
    41000674:	005302b3          	add	x5,x6,x5
    41000678:	00028067          	jr	x5 # 2000 <SID_PBVMS_009_superpage_alignment_fault_stack>

000000004100067c <trap_handler_m__exception_path>:
    4100067c:	34021273          	csrrw	x4,mscratch,x4
    41000680:	00000297          	auipc	x5,0x0
    41000684:	10828293          	addi	x5,x5,264 # 41000788 <trap_handler_m__trap_panic>
    41000688:	30529073          	csrw	mtvec,x5
    4100068c:	0040006f          	j	41000690 <trap_handler_m__excp_entry>

0000000041000690 <trap_handler_m__excp_entry>:
    41000690:	34202373          	csrr	x6,mcause
    41000694:	00800293          	li	x5,8
    41000698:	00534863          	blt	x6,x5,410006a8 <trap_handler_m__check_exception_label>
    4100069c:	00b00293          	li	x5,11
    410006a0:	0062c463          	blt	x5,x6,410006a8 <trap_handler_m__check_exception_label>
    410006a4:	a31ff06f          	j	410000d4 <syscalls__syscall_check_schedule_next_test>

00000000410006a8 <trap_handler_m__check_exception_label>:
    410006a8:	04623c23          	sd	x6,88(x4) # 58 <XLEN+0x18>
    410006ac:	341022f3          	csrr	x5,mepc
    410006b0:	02523423          	sd	x5,40(x4) # 28 <SECURE_ACCESS_PROBABILITY+0xa>
    410006b4:	01820283          	lb	x5,24(x4) # 18 <STORE_GUEST_PAGE_FAULT+0x1>
    410006b8:	00029863          	bnez	x5,410006c8 <trap_handler_m__check_excp>
    410006bc:	00128293          	addi	x5,x5,1
    410006c0:	00520c23          	sb	x5,24(x4) # 18 <STORE_GUEST_PAGE_FAULT+0x1>
    410006c4:	0980006f          	j	4100075c <trap_handler_m__ecall_from_machine>

00000000410006c8 <trap_handler_m__check_excp>:
    410006c8:	06823283          	ld	x5,104(x4) # 68 <XLEN+0x28>
    410006cc:	06023423          	sd	x0,104(x4) # 68 <XLEN+0x28>
    410006d0:	00028663          	beqz	x5,410006dc <trap_handler_m__skip_mode_check>
    410006d4:	00100393          	li	x7,1
    410006d8:	0e729463          	bne	x5,x7,410007c0 <test_failed>

00000000410006dc <trap_handler_m__skip_mode_check>:
    410006dc:	05023283          	ld	x5,80(x4) # 50 <XLEN+0x10>
    410006e0:	04023823          	sd	x0,80(x4) # 50 <XLEN+0x10>
    410006e4:	0c531e63          	bne	x6,x5,410007c0 <test_failed>
    410006e8:	03823283          	ld	x5,56(x4) # 38 <SECURE_ACCESS_PROBABILITY+0x1a>
    410006ec:	02023c23          	sd	x0,56(x4) # 38 <SECURE_ACCESS_PROBABILITY+0x1a>
    410006f0:	06029463          	bnez	x5,41000758 <trap_handler_m__skip_gva_check>
    410006f4:	02023303          	ld	x6,32(x4) # 20 <SECURE_ACCESS_PROBABILITY+0x2>
    410006f8:	02023023          	sd	x0,32(x4) # 20 <SECURE_ACCESS_PROBABILITY+0x2>
    410006fc:	02823283          	ld	x5,40(x4) # 28 <SECURE_ACCESS_PROBABILITY+0xa>
    41000700:	02023423          	sd	x0,40(x4) # 28 <SECURE_ACCESS_PROBABILITY+0xa>
    41000704:	0a531e63          	bne	x6,x5,410007c0 <test_failed>
    41000708:	04023283          	ld	x5,64(x4) # 40 <XLEN>
    4100070c:	04023023          	sd	x0,64(x4) # 40 <XLEN>
    41000710:	00028663          	beqz	x5,4100071c <trap_handler_m__skip_nonzero_tval_check>

0000000041000714 <trap_handler_m__nonzero_tval_check>:
    41000714:	34302373          	csrr	x6,mtval
    41000718:	0a531463          	bne	x6,x5,410007c0 <test_failed>

000000004100071c <trap_handler_m__skip_nonzero_tval_check>:
    4100071c:	04823283          	ld	x5,72(x4) # 48 <XLEN+0x8>
    41000720:	04023423          	sd	x0,72(x4) # 48 <XLEN+0x8>
    41000724:	00028663          	beqz	x5,41000730 <trap_handler_m__skip_nonzero_htval_check>

0000000041000728 <trap_handler_m__nonzero_htval_check>:
    41000728:	34b02373          	csrr	x6,0x34b
    4100072c:	08531a63          	bne	x6,x5,410007c0 <test_failed>

0000000041000730 <trap_handler_m__skip_nonzero_htval_check>:
    41000730:	06023283          	ld	x5,96(x4) # 60 <XLEN+0x20>
    41000734:	06023023          	sd	x0,96(x4) # 60 <XLEN+0x20>
    41000738:	02028063          	beqz	x5,41000758 <trap_handler_m__skip_gva_check>

000000004100073c <trap_handler_m__gva_check>:
    4100073c:	30002373          	csrr	x6,mstatus
    41000740:	02635313          	srli	x6,x6,0x26
    41000744:	00137313          	andi	x6,x6,1
    41000748:	06030c63          	beqz	x6,410007c0 <test_failed>
    4100074c:	0010031b          	addiw	x6,x0,1
    41000750:	02631313          	slli	x6,x6,0x26
    41000754:	30033073          	csrc	mstatus,x6

0000000041000758 <trap_handler_m__skip_gva_check>:
    41000758:	0040006f          	j	4100075c <trap_handler_m__ecall_from_machine>

000000004100075c <trap_handler_m__ecall_from_machine>:
    4100075c:	03023283          	ld	x5,48(x4) # 30 <SECURE_ACCESS_PROBABILITY+0x12>
    41000760:	02023823          	sd	x0,48(x4) # 30 <SECURE_ACCESS_PROBABILITY+0x12>
    41000764:	07023303          	ld	x6,112(x4) # 70 <XLEN+0x30>
    41000768:	06023823          	sd	x0,112(x4) # 70 <XLEN+0x30>
    4100076c:	00031463          	bnez	x6,41000774 <trap_handler_m__skip_xepc_write>
    41000770:	34129073          	csrw	mepc,x5

0000000041000774 <trap_handler_m__skip_xepc_write>:
    41000774:	00000317          	auipc	x6,0x0
    41000778:	dd830313          	addi	x6,x6,-552 # 4100054c <trap_handler_m__trap_entry>
    4100077c:	30531073          	csrw	mtvec,x6
    41000780:	34021273          	csrrw	x4,mscratch,x4
    41000784:	30200073          	mret

0000000041000788 <trap_handler_m__trap_panic>:
    41000788:	00000193          	li	x3,0
    4100078c:	2b40006f          	j	41000a40 <eot__end_test>

0000000041000790 <enter_scheduler>:
    41000790:	0002f337          	lui	x6,0x2f
    41000794:	ab73031b          	addiw	x6,x6,-1353 # 2eab7 <mem11__pt_level3+0x1daa7>
    41000798:	00e31313          	slli	x6,x6,0xe
    4100079c:	0de30313          	addi	x6,x6,222
    410007a0:	02628063          	beq	x5,x6,410007c0 <test_failed>
    410007a4:	00000513          	li	x10,0
    410007a8:	030000ef          	jal	410007d8 <rvcp_print_test_result>
    410007ac:	3180006f          	j	41000ac4 <scheduler__dispatch>

00000000410007b0 <test_passed>:
    410007b0:	34021273          	csrrw	x4,mscratch,x4
    410007b4:	00000513          	li	x10,0
    410007b8:	020000ef          	jal	410007d8 <rvcp_print_test_result>
    410007bc:	3080006f          	j	41000ac4 <scheduler__dispatch>

00000000410007c0 <test_failed>:
    410007c0:	34021273          	csrrw	x4,mscratch,x4
    410007c4:	00300193          	li	x3,3
    410007c8:	2780006f          	j	41000a40 <eot__end_test>

00000000410007cc <os_end_test>:
    410007cc:	34021273          	csrrw	x4,mscratch,x4
    410007d0:	00100193          	li	x3,1
    410007d4:	26c0006f          	j	41000a40 <eot__end_test>

00000000410007d8 <rvcp_print_test_result>:
    410007d8:	00050e13          	mv	x28,x10
    410007dc:	18823283          	ld	x5,392(x4) # 188 <XLEN+0x148>
    410007e0:	0010031b          	addiw	x6,x0,1
    410007e4:	02031313          	slli	x6,x6,0x20
    410007e8:	ffe30313          	addi	x6,x6,-2
    410007ec:	1c628063          	beq	x5,x6,410009ac <rvcp_print_test_result+0x1d4>
    410007f0:	0010031b          	addiw	x6,x0,1
    410007f4:	02031313          	slli	x6,x6,0x20
    410007f8:	fff30313          	addi	x6,x6,-1
    410007fc:	1a628863          	beq	x5,x6,410009ac <rvcp_print_test_result+0x1d4>
    41000800:	1a02c663          	bltz	x5,410009ac <rvcp_print_test_result+0x1d4>
    41000804:	00000317          	auipc	x6,0x0
    41000808:	40830313          	addi	x6,x6,1032 # 41000c0c <dtest_descriptor_table>
    4100080c:	00329393          	slli	x7,x5,0x3
    41000810:	00730333          	add	x6,x6,x7
    41000814:	00033e83          	ld	x29,0(x6)
    41000818:	44c70f37          	lui	x30,0x44c70
    4100081c:	030f0f1b          	addiw	x30,x30,48 # 44c70030 <rvcp_prefix_str_pa>
    41000820:	000f4283          	lbu	x5,0(x30)
    41000824:	02028663          	beqz	x5,41000850 <rvcp_print_test_result+0x78>
    41000828:	1010031b          	addiw	x6,x0,257
    4100082c:	03031313          	slli	x6,x6,0x30
    41000830:	005362b3          	or	x5,x6,x5
    41000834:	0003f317          	auipc	x6,0x3f
    41000838:	7cc30313          	addi	x6,x6,1996 # 41040000 <tohost>
    4100083c:	00033383          	ld	x7,0(x6)
    41000840:	fe039ee3          	bnez	x7,4100083c <rvcp_print_test_result+0x64>
    41000844:	00533023          	sd	x5,0(x6)
    41000848:	001f0f13          	addi	x30,x30,1
    4100084c:	fd5ff06f          	j	41000820 <rvcp_print_test_result+0x48>
    41000850:	44c70f37          	lui	x30,0x44c70
    41000854:	041f0f1b          	addiw	x30,x30,65 # 44c70041 <rvcp_testname_str_pa>
    41000858:	000f4283          	lbu	x5,0(x30)
    4100085c:	02028663          	beqz	x5,41000888 <rvcp_print_test_result+0xb0>
    41000860:	1010031b          	addiw	x6,x0,257
    41000864:	03031313          	slli	x6,x6,0x30
    41000868:	005362b3          	or	x5,x6,x5
    4100086c:	0003f317          	auipc	x6,0x3f
    41000870:	79430313          	addi	x6,x6,1940 # 41040000 <tohost>
    41000874:	00033383          	ld	x7,0(x6)
    41000878:	fe039ee3          	bnez	x7,41000874 <rvcp_print_test_result+0x9c>
    4100087c:	00533023          	sd	x5,0(x6)
    41000880:	001f0f13          	addi	x30,x30,1
    41000884:	fd5ff06f          	j	41000858 <rvcp_print_test_result+0x80>
    41000888:	44c70f37          	lui	x30,0x44c70
    4100088c:	05bf0f1b          	addiw	x30,x30,91 # 44c7005b <rvcp_space_str_pa>
    41000890:	000f4283          	lbu	x5,0(x30)
    41000894:	02028663          	beqz	x5,410008c0 <rvcp_print_test_result+0xe8>
    41000898:	1010031b          	addiw	x6,x0,257
    4100089c:	03031313          	slli	x6,x6,0x30
    410008a0:	005362b3          	or	x5,x6,x5
    410008a4:	0003f317          	auipc	x6,0x3f
    410008a8:	75c30313          	addi	x6,x6,1884 # 41040000 <tohost>
    410008ac:	00033383          	ld	x7,0(x6)
    410008b0:	fe039ee3          	bnez	x7,410008ac <rvcp_print_test_result+0xd4>
    410008b4:	00533023          	sd	x5,0(x6)
    410008b8:	001f0f13          	addi	x30,x30,1
    410008bc:	fd5ff06f          	j	41000890 <rvcp_print_test_result+0xb8>
    410008c0:	000e8f13          	mv	x30,x29
    410008c4:	000f4283          	lbu	x5,0(x30)
    410008c8:	02028663          	beqz	x5,410008f4 <rvcp_print_test_result+0x11c>
    410008cc:	1010031b          	addiw	x6,x0,257
    410008d0:	03031313          	slli	x6,x6,0x30
    410008d4:	005362b3          	or	x5,x6,x5
    410008d8:	0003f317          	auipc	x6,0x3f
    410008dc:	72830313          	addi	x6,x6,1832 # 41040000 <tohost>
    410008e0:	00033383          	ld	x7,0(x6)
    410008e4:	fe039ee3          	bnez	x7,410008e0 <rvcp_print_test_result+0x108>
    410008e8:	00533023          	sd	x5,0(x6)
    410008ec:	001f0f13          	addi	x30,x30,1
    410008f0:	fd5ff06f          	j	410008c4 <rvcp_print_test_result+0xec>
    410008f4:	44c70f37          	lui	x30,0x44c70
    410008f8:	05bf0f1b          	addiw	x30,x30,91 # 44c7005b <rvcp_space_str_pa>
    410008fc:	000f4283          	lbu	x5,0(x30)
    41000900:	02028663          	beqz	x5,4100092c <rvcp_print_test_result+0x154>
    41000904:	1010031b          	addiw	x6,x0,257
    41000908:	03031313          	slli	x6,x6,0x30
    4100090c:	005362b3          	or	x5,x6,x5
    41000910:	0003f317          	auipc	x6,0x3f
    41000914:	6f030313          	addi	x6,x6,1776 # 41040000 <tohost>
    41000918:	00033383          	ld	x7,0(x6)
    4100091c:	fe039ee3          	bnez	x7,41000918 <rvcp_print_test_result+0x140>
    41000920:	00533023          	sd	x5,0(x6)
    41000924:	001f0f13          	addi	x30,x30,1
    41000928:	fd5ff06f          	j	410008fc <rvcp_print_test_result+0x124>
    4100092c:	000e1863          	bnez	x28,4100093c <rvcp_print_test_result+0x164>
    41000930:	44c70f37          	lui	x30,0x44c70
    41000934:	04df0f1b          	addiw	x30,x30,77 # 44c7004d <rvcp_passed_str_pa>
    41000938:	00c0006f          	j	41000944 <rvcp_print_test_result+0x16c>
    4100093c:	44c70f37          	lui	x30,0x44c70
    41000940:	054f0f1b          	addiw	x30,x30,84 # 44c70054 <rvcp_failed_str_pa>
    41000944:	000f4283          	lbu	x5,0(x30)
    41000948:	02028663          	beqz	x5,41000974 <rvcp_print_test_result+0x19c>
    4100094c:	1010031b          	addiw	x6,x0,257
    41000950:	03031313          	slli	x6,x6,0x30
    41000954:	005362b3          	or	x5,x6,x5
    41000958:	0003f317          	auipc	x6,0x3f
    4100095c:	6a830313          	addi	x6,x6,1704 # 41040000 <tohost>
    41000960:	00033383          	ld	x7,0(x6)
    41000964:	fe039ee3          	bnez	x7,41000960 <rvcp_print_test_result+0x188>
    41000968:	00533023          	sd	x5,0(x6)
    4100096c:	001f0f13          	addi	x30,x30,1
    41000970:	fd5ff06f          	j	41000944 <rvcp_print_test_result+0x16c>
    41000974:	44c70f37          	lui	x30,0x44c70
    41000978:	05df0f1b          	addiw	x30,x30,93 # 44c7005d <rvcp_newline_str_pa>
    4100097c:	000f4283          	lbu	x5,0(x30)
    41000980:	02028663          	beqz	x5,410009ac <rvcp_print_test_result+0x1d4>
    41000984:	1010031b          	addiw	x6,x0,257
    41000988:	03031313          	slli	x6,x6,0x30
    4100098c:	005362b3          	or	x5,x6,x5
    41000990:	0003f317          	auipc	x6,0x3f
    41000994:	67030313          	addi	x6,x6,1648 # 41040000 <tohost>
    41000998:	00033383          	ld	x7,0(x6)
    4100099c:	fe039ee3          	bnez	x7,41000998 <rvcp_print_test_result+0x1c0>
    410009a0:	00533023          	sd	x5,0(x6)
    410009a4:	001f0f13          	addi	x30,x30,1
    410009a8:	fd5ff06f          	j	4100097c <rvcp_print_test_result+0x1a4>
    410009ac:	00008067          	ret

00000000410009b0 <os_rng_orig>:
    410009b0:	f14023f3          	csrr	x7,mhartid
    410009b4:	00068313          	mv	x6,x13
    410009b8:	026383b3          	mul	x7,x7,x6
    410009bc:	00058313          	mv	x6,x11
    410009c0:	00730333          	add	x6,x6,x7
    410009c4:	00033283          	ld	x5,0(x6)
    410009c8:	01529313          	slli	x6,x5,0x15
    410009cc:	0062c2b3          	xor	x5,x5,x6
    410009d0:	0232d313          	srli	x6,x5,0x23
    410009d4:	0062c2b3          	xor	x5,x5,x6
    410009d8:	00429313          	slli	x6,x5,0x4
    410009dc:	0062c2b3          	xor	x5,x5,x6
    410009e0:	00058313          	mv	x6,x11
    410009e4:	00730333          	add	x6,x6,x7
    410009e8:	00533023          	sd	x5,0(x6)
    410009ec:	00060313          	mv	x6,x12
    410009f0:	0262f2b3          	remu	x5,x5,x6
    410009f4:	00028513          	mv	x10,x5
    410009f8:	00008067          	ret
    410009fc:	02a00513          	li	x10,42
    41000a00:	001965b7          	lui	x11,0x196
    41000a04:	60d5859b          	addiw	x11,x11,1549 # 19660d <SID_PBVMS_040_context_table_overflow_stack+0xc860d>
    41000a08:	3c6ef637          	lui	x12,0x3c6ef
    41000a0c:	35f6061b          	addiw	x12,x12,863 # 3c6ef35f <mem5+0x1715235f>
    41000a10:	02200693          	li	x13,34
    41000a14:	02b50533          	mul	x10,x10,x11
    41000a18:	00c50533          	add	x10,x10,x12
    41000a1c:	02d56533          	rem	x10,x10,x13
    41000a20:	00b00593          	li	x11,11
    41000a24:	02b56533          	rem	x10,x10,x11
    41000a28:	00008067          	ret
    41000a2c:	0000                	.insn	2, 0x0000
	...

0000000041000a30 <tohost_mutex>:
	...

0000000041000a38 <tohost_addr_mem>:
    41000a38:	0000                	.insn	2, 0x0000
    41000a3a:	4104                	.insn	2, 0x4104
    41000a3c:	0000                	.insn	2, 0x0000
	...

0000000041000a40 <eot__end_test>:
    41000a40:	00100293          	li	x5,1
    41000a44:	00328463          	beq	x5,x3,41000a4c <eot__passed>
    41000a48:	01c0006f          	j	41000a64 <eot__failed>

0000000041000a4c <eot__passed>:
    41000a4c:	0ff0000f          	fence
    41000a50:	00000297          	auipc	x5,0x0
    41000a54:	fe82b283          	ld	x5,-24(x5) # 41000a38 <tohost_addr_mem>
    41000a58:	00100313          	li	x6,1
    41000a5c:	0062a023          	sw	x6,0(x5)
    41000a60:	0240006f          	j	41000a84 <eot__halt>

0000000041000a64 <eot__failed>:
    41000a64:	00100513          	li	x10,1
    41000a68:	d71ff0ef          	jal	410007d8 <rvcp_print_test_result>
    41000a6c:	0ff0000f          	fence
    41000a70:	00000297          	auipc	x5,0x0
    41000a74:	fc82b283          	ld	x5,-56(x5) # 41000a38 <tohost_addr_mem>
    41000a78:	00300313          	li	x6,3
    41000a7c:	0062a023          	sw	x6,0(x5)
    41000a80:	0040006f          	j	41000a84 <eot__halt>

0000000041000a84 <eot__halt>:
    41000a84:	10500073          	wfi
    41000a88:	ffdff06f          	j	41000a84 <eot__halt>

0000000041000a8c <scheduler__init>:
    41000a8c:	00000297          	auipc	x5,0x0
    41000a90:	0d028293          	addi	x5,x5,208 # 41000b5c <scheduler__panic>
    41000a94:	305292f3          	csrrw	x5,mtvec,x5
    41000a98:	18523023          	sd	x5,384(x4) # 180 <XLEN+0x140>
    41000a9c:	01400293          	li	x5,20
    41000aa0:	18523823          	sd	x5,400(x4) # 190 <XLEN+0x150>
    41000aa4:	0010029b          	addiw	x5,x0,1
    41000aa8:	02029293          	slli	x5,x5,0x20
    41000aac:	ffe28293          	addi	x5,x5,-2
    41000ab0:	18523423          	sd	x5,392(x4) # 188 <XLEN+0x148>
    41000ab4:	00000317          	auipc	x6,0x0
    41000ab8:	51830313          	addi	x6,x6,1304 # 41000fcc <scheduler__test_setup_ptr>
    41000abc:	00033303          	ld	x6,0(x6)
    41000ac0:	0740006f          	j	41000b34 <scheduler__execute_test>

0000000041000ac4 <scheduler__dispatch>:
    41000ac4:	00000297          	auipc	x5,0x0
    41000ac8:	09828293          	addi	x5,x5,152 # 41000b5c <scheduler__panic>
    41000acc:	305292f3          	csrrw	x5,mtvec,x5
    41000ad0:	18523023          	sd	x5,384(x4) # 180 <XLEN+0x140>

0000000041000ad4 <scheduler__csr_read_randomization>:
    41000ad4:	304022f3          	csrr	x5,mie
    41000ad8:	142022f3          	csrr	x5,scause
    41000adc:	142022f3          	csrr	x5,scause
    41000ae0:	343022f3          	csrr	x5,mtval
    41000ae4:	30a022f3          	csrr	x5,0x30a
    41000ae8:	141022f3          	csrr	x5,sepc
    41000aec:	f12022f3          	csrr	x5,marchid
    41000af0:	342022f3          	csrr	x5,mcause
    41000af4:	140022f3          	csrr	x5,sscratch

0000000041000af8 <scheduler__load_num_runs>:
    41000af8:	19023303          	ld	x6,400(x4) # 190 <XLEN+0x150>
    41000afc:	04030c63          	beqz	x6,41000b54 <scheduler__finished>

0000000041000b00 <scheduler__decrement_num_runs>:
    41000b00:	fff30393          	addi	x7,x6,-1
    41000b04:	18723823          	sd	x7,400(x4) # 190 <XLEN+0x150>
    41000b08:	00000e17          	auipc	x28,0x0
    41000b0c:	474e0e13          	addi	x28,x28,1140 # 41000f7c <dtest_index_map>
    41000b10:	00239e93          	slli	x29,x7,0x2
    41000b14:	01de0e33          	add	x28,x28,x29
    41000b18:	000e2e03          	lw	x28,0(x28)
    41000b1c:	19c23423          	sd	x28,392(x4) # 188 <XLEN+0x148>

0000000041000b20 <scheduler__calc_test_pointer>:
    41000b20:	00339293          	slli	x5,x7,0x3

0000000041000b24 <scheduler__load_test_addr>:
    41000b24:	00000317          	auipc	x6,0x0
    41000b28:	04830313          	addi	x6,x6,72 # 41000b6c <os_test_sequence>
    41000b2c:	006282b3          	add	x5,x5,x6
    41000b30:	0002b303          	ld	x6,0(x5)

0000000041000b34 <scheduler__execute_test>:
    41000b34:	18023283          	ld	x5,384(x4) # 180 <XLEN+0x140>
    41000b38:	30529073          	csrw	mtvec,x5
    41000b3c:	34021273          	csrrw	x4,mscratch,x4
    41000b40:	00000213          	li	x4,0
    41000b44:	14131073          	csrw	sepc,x6
    41000b48:	10000293          	li	x5,256
    41000b4c:	1002b073          	csrc	sstatus,x5
    41000b50:	10200073          	sret

0000000041000b54 <scheduler__finished>:
    41000b54:	00100193          	li	x3,1
    41000b58:	ee9ff06f          	j	41000a40 <eot__end_test>

0000000041000b5c <scheduler__panic>:
    41000b5c:	00000193          	li	x3,0
    41000b60:	ee1ff06f          	j	41000a40 <eot__end_test>

0000000041000b64 <num_runs>:
    41000b64:	0014                	.insn	2, 0x0014
    41000b66:	0000                	.insn	2, 0x0000
    41000b68:	0000                	.insn	2, 0x0000
	...

0000000041000b6c <os_test_sequence>:
    41000b6c:	65d4                	.insn	2, 0x65d4
    41000b6e:	4101                	.insn	2, 0x4101
    41000b70:	0000                	.insn	2, 0x0000
    41000b72:	0000                	.insn	2, 0x0000
    41000b74:	57cc                	.insn	2, 0x57cc
    41000b76:	4101                	.insn	2, 0x4101
    41000b78:	0000                	.insn	2, 0x0000
    41000b7a:	0000                	.insn	2, 0x0000
    41000b7c:	565c                	.insn	2, 0x565c
    41000b7e:	4101                	.insn	2, 0x4101
    41000b80:	0000                	.insn	2, 0x0000
    41000b82:	0000                	.insn	2, 0x0000
    41000b84:	60d8                	.insn	2, 0x60d8
    41000b86:	4101                	.insn	2, 0x4101
    41000b88:	0000                	.insn	2, 0x0000
    41000b8a:	0000                	.insn	2, 0x0000
    41000b8c:	5870                	.insn	2, 0x5870
    41000b8e:	4101                	.insn	2, 0x4101
    41000b90:	0000                	.insn	2, 0x0000
    41000b92:	0000                	.insn	2, 0x0000
    41000b94:	659c                	.insn	2, 0x659c
    41000b96:	4101                	.insn	2, 0x4101
    41000b98:	0000                	.insn	2, 0x0000
    41000b9a:	0000                	.insn	2, 0x0000
    41000b9c:	552c                	.insn	2, 0x552c
    41000b9e:	4101                	.insn	2, 0x4101
    41000ba0:	0000                	.insn	2, 0x0000
    41000ba2:	0000                	.insn	2, 0x0000
    41000ba4:	5aa0                	.insn	2, 0x5aa0
    41000ba6:	4101                	.insn	2, 0x4101
    41000ba8:	0000                	.insn	2, 0x0000
    41000baa:	0000                	.insn	2, 0x0000
    41000bac:	5130                	.insn	2, 0x5130
    41000bae:	4101                	.insn	2, 0x4101
    41000bb0:	0000                	.insn	2, 0x0000
    41000bb2:	0000                	.insn	2, 0x0000
    41000bb4:	5288                	.insn	2, 0x5288
    41000bb6:	4101                	.insn	2, 0x4101
    41000bb8:	0000                	.insn	2, 0x0000
    41000bba:	0000                	.insn	2, 0x0000
    41000bbc:	5edc                	.insn	2, 0x5edc
    41000bbe:	4101                	.insn	2, 0x4101
    41000bc0:	0000                	.insn	2, 0x0000
    41000bc2:	0000                	.insn	2, 0x0000
    41000bc4:	5328                	.insn	2, 0x5328
    41000bc6:	4101                	.insn	2, 0x4101
    41000bc8:	0000                	.insn	2, 0x0000
    41000bca:	0000                	.insn	2, 0x0000
    41000bcc:	5c24                	.insn	2, 0x5c24
    41000bce:	4101                	.insn	2, 0x4101
    41000bd0:	0000                	.insn	2, 0x0000
    41000bd2:	0000                	.insn	2, 0x0000
    41000bd4:	6218                	.insn	2, 0x6218
    41000bd6:	4101                	.insn	2, 0x4101
    41000bd8:	0000                	.insn	2, 0x0000
    41000bda:	0000                	.insn	2, 0x0000
    41000bdc:	6318                	.insn	2, 0x6318
    41000bde:	4101                	.insn	2, 0x4101
    41000be0:	0000                	.insn	2, 0x0000
    41000be2:	0000                	.insn	2, 0x0000
    41000be4:	6000                	.insn	2, 0x6000
    41000be6:	4101                	.insn	2, 0x4101
    41000be8:	0000                	.insn	2, 0x0000
    41000bea:	0000                	.insn	2, 0x0000
    41000bec:	5d64                	.insn	2, 0x5d64
    41000bee:	4101                	.insn	2, 0x4101
    41000bf0:	0000                	.insn	2, 0x0000
    41000bf2:	0000                	.insn	2, 0x0000
    41000bf4:	64f4                	.insn	2, 0x64f4
    41000bf6:	4101                	.insn	2, 0x4101
    41000bf8:	0000                	.insn	2, 0x0000
    41000bfa:	0000                	.insn	2, 0x0000
    41000bfc:	520c                	.insn	2, 0x520c
    41000bfe:	4101                	.insn	2, 0x4101
    41000c00:	0000                	.insn	2, 0x0000
    41000c02:	0000                	.insn	2, 0x0000
    41000c04:	51cc                	.insn	2, 0x51cc
    41000c06:	4101                	.insn	2, 0x4101
    41000c08:	0000                	.insn	2, 0x0000
	...

0000000041000c0c <dtest_descriptor_table>:
    41000c0c:	0ca4                	.insn	2, 0x0ca4
    41000c0e:	4100                	.insn	2, 0x4100
    41000c10:	0000                	.insn	2, 0x0000
    41000c12:	0000                	.insn	2, 0x0000
    41000c14:	0cd1                	.insn	2, 0x0cd1
    41000c16:	4100                	.insn	2, 0x4100
    41000c18:	0000                	.insn	2, 0x0000
    41000c1a:	0000                	.insn	2, 0x0000
    41000c1c:	41000cf7          	.insn	4, 0x41000cf7
    41000c20:	0000                	.insn	2, 0x0000
    41000c22:	0000                	.insn	2, 0x0000
    41000c24:	0d20                	.insn	2, 0x0d20
    41000c26:	4100                	.insn	2, 0x4100
    41000c28:	0000                	.insn	2, 0x0000
    41000c2a:	0000                	.insn	2, 0x0000
    41000c2c:	0d46                	.insn	2, 0x0d46
    41000c2e:	4100                	.insn	2, 0x4100
    41000c30:	0000                	.insn	2, 0x0000
    41000c32:	0000                	.insn	2, 0x0000
    41000c34:	0d6e                	.insn	2, 0x0d6e
    41000c36:	4100                	.insn	2, 0x4100
    41000c38:	0000                	.insn	2, 0x0000
    41000c3a:	0000                	.insn	2, 0x0000
    41000c3c:	0d98                	.insn	2, 0x0d98
    41000c3e:	4100                	.insn	2, 0x4100
    41000c40:	0000                	.insn	2, 0x0000
    41000c42:	0000                	.insn	2, 0x0000
    41000c44:	41000dbf 00000000 	.insn	8, 0x41000dbf
    41000c4c:	0de6                	.insn	2, 0x0de6
    41000c4e:	4100                	.insn	2, 0x4100
    41000c50:	0000                	.insn	2, 0x0000
    41000c52:	0000                	.insn	2, 0x0000
    41000c54:	0e04                	.insn	2, 0x0e04
    41000c56:	4100                	.insn	2, 0x4100
    41000c58:	0000                	.insn	2, 0x0000
    41000c5a:	0000                	.insn	2, 0x0000
    41000c5c:	0e26                	.insn	2, 0x0e26
    41000c5e:	4100                	.insn	2, 0x4100
    41000c60:	0000                	.insn	2, 0x0000
    41000c62:	0000                	.insn	2, 0x0000
    41000c64:	41000e47          	fmsub.s	f28,f0,f16,f8,rne
    41000c68:	0000                	.insn	2, 0x0000
    41000c6a:	0000                	.insn	2, 0x0000
    41000c6c:	0e69                	.insn	2, 0x0e69
    41000c6e:	4100                	.insn	2, 0x4100
    41000c70:	0000                	.insn	2, 0x0000
    41000c72:	0000                	.insn	2, 0x0000
    41000c74:	0e8e                	.insn	2, 0x0e8e
    41000c76:	4100                	.insn	2, 0x4100
    41000c78:	0000                	.insn	2, 0x0000
    41000c7a:	0000                	.insn	2, 0x0000
    41000c7c:	41000eb3          	neg	x29,x16
    41000c80:	0000                	.insn	2, 0x0000
    41000c82:	0000                	.insn	2, 0x0000
    41000c84:	0ed8                	.insn	2, 0x0ed8
    41000c86:	4100                	.insn	2, 0x4100
    41000c88:	0000                	.insn	2, 0x0000
    41000c8a:	0000                	.insn	2, 0x0000
    41000c8c:	41000efb          	.insn	4, 0x41000efb
    41000c90:	0000                	.insn	2, 0x0000
    41000c92:	0000                	.insn	2, 0x0000
    41000c94:	0f20                	.insn	2, 0x0f20
    41000c96:	4100                	.insn	2, 0x4100
    41000c98:	0000                	.insn	2, 0x0000
    41000c9a:	0000                	.insn	2, 0x0000
    41000c9c:	0f50                	.insn	2, 0x0f50
    41000c9e:	4100                	.insn	2, 0x4100
    41000ca0:	0000                	.insn	2, 0x0000
	...

0000000041000ca4 <dtest_name_0>:
    41000ca4:	5f444953          	.insn	4, 0x5f444953
    41000ca8:	4250                	.insn	2, 0x4250
    41000caa:	4d56                	.insn	2, 0x4d56
    41000cac:	30305f53          	.insn	4, 0x30305f53
    41000cb0:	5f31                	.insn	2, 0x5f31
    41000cb2:	7470                	.insn	2, 0x7470
    41000cb4:	6f6e5f77          	.insn	4, 0x6f6e5f77
    41000cb8:	665f 7561 746c      	.insn	6, 0x746c7561665f
    41000cbe:	6c615f73          	csrrwi	x30,0x6c6,2
    41000cc2:	5f6c                	.insn	2, 0x5f6c
    41000cc4:	6361                	.insn	2, 0x6361
    41000cc6:	73736563          	bltu	x6,x23,410013f0 <__section__runtime_1+0x3f0>
    41000cca:	745f 7079 7365      	.insn	6, 0x73657079745f
	...

0000000041000cd1 <dtest_name_1>:
    41000cd1:	5f444953          	.insn	4, 0x5f444953
    41000cd5:	4250                	.insn	2, 0x4250
    41000cd7:	4d56                	.insn	2, 0x4d56
    41000cd9:	30305f53          	.insn	4, 0x30305f53
    41000cdd:	74705f33          	.insn	4, 0x74705f33
    41000ce1:	6c615f77          	.insn	4, 0x6c615f77
    41000ce5:	5f6c                	.insn	2, 0x5f6c
    41000ce7:	7270                	.insn	2, 0x7270
    41000ce9:	7669                	.insn	2, 0x7669
    41000ceb:	6c69                	.insn	2, 0x6c69
    41000ced:	6765                	.insn	2, 0x6765
    41000cef:	5f65                	.insn	2, 0x5f65
    41000cf1:	6f6d                	.insn	2, 0x6f6d
    41000cf3:	6564                	.insn	2, 0x6564
    41000cf5:	          	.insn	4, 0x49530073

0000000041000cf7 <dtest_name_2>:
    41000cf7:	5f444953          	.insn	4, 0x5f444953
    41000cfb:	4250                	.insn	2, 0x4250
    41000cfd:	4d56                	.insn	2, 0x4d56
    41000cff:	30305f53          	.insn	4, 0x30305f53
    41000d03:	5f36                	.insn	2, 0x5f36
    41000d05:	7470                	.insn	2, 0x7470
    41000d07:	61705f77          	.insn	4, 0x61705f77
    41000d0b:	625f6567          	.insn	4, 0x625f6567
    41000d0f:	646e756f          	jal	x10,410e8355 <__section__code_211+0x355>
    41000d13:	7261                	.insn	2, 0x7261
    41000d15:	5f79                	.insn	2, 0x5f79
    41000d17:	736f7263          	bgeu	x30,x22,4100143b <__section__runtime_1+0x43b>
    41000d1b:	676e6973          	csrrsi	x18,0x676,28
	...

0000000041000d20 <dtest_name_3>:
    41000d20:	5f444953          	.insn	4, 0x5f444953
    41000d24:	4250                	.insn	2, 0x4250
    41000d26:	4d56                	.insn	2, 0x4d56
    41000d28:	30305f53          	.insn	4, 0x30305f53
    41000d2c:	5f38                	.insn	2, 0x5f38
    41000d2e:	6176                	.insn	2, 0x6176
    41000d30:	735f 6769 5f6e      	.insn	6, 0x5f6e6769735f
    41000d36:	7865                	.insn	2, 0x7865
    41000d38:	6574                	.insn	2, 0x6574
    41000d3a:	736e                	.insn	2, 0x736e
    41000d3c:	6f69                	.insn	2, 0x6f69
    41000d3e:	5f6e                	.insn	2, 0x5f6e
    41000d40:	6166                	.insn	2, 0x6166
    41000d42:	6c75                	.insn	2, 0x6c75
    41000d44:	0074                	.insn	2, 0x0074

0000000041000d46 <dtest_name_4>:
    41000d46:	5f444953          	.insn	4, 0x5f444953
    41000d4a:	4250                	.insn	2, 0x4250
    41000d4c:	4d56                	.insn	2, 0x4d56
    41000d4e:	30305f53          	.insn	4, 0x30305f53
    41000d52:	5f39                	.insn	2, 0x5f39
    41000d54:	65707573          	csrrci	x10,hviprio2h,0
    41000d58:	7072                	.insn	2, 0x7072
    41000d5a:	6761                	.insn	2, 0x6761
    41000d5c:	5f65                	.insn	2, 0x5f65
    41000d5e:	6c61                	.insn	2, 0x6c61
    41000d60:	6769                	.insn	2, 0x6769
    41000d62:	6d6e                	.insn	2, 0x6d6e
    41000d64:	6e65                	.insn	2, 0x6e65
    41000d66:	5f74                	.insn	2, 0x5f74
    41000d68:	6166                	.insn	2, 0x6166
    41000d6a:	6c75                	.insn	2, 0x6c75
    41000d6c:	0074                	.insn	2, 0x0074

0000000041000d6e <dtest_name_5>:
    41000d6e:	5f444953          	.insn	4, 0x5f444953
    41000d72:	4250                	.insn	2, 0x4250
    41000d74:	4d56                	.insn	2, 0x4d56
    41000d76:	31305f53          	.insn	4, 0x31305f53
    41000d7a:	5f31                	.insn	2, 0x5f31
    41000d7c:	7470                	.insn	2, 0x7470
    41000d7e:	61665f77          	.insn	4, 0x61665f77
    41000d82:	6c75                	.insn	2, 0x6c75
    41000d84:	5f74                	.insn	2, 0x5f74
    41000d86:	6f62                	.insn	2, 0x6f62
    41000d88:	6e75                	.insn	2, 0x6e75
    41000d8a:	6164                	.insn	2, 0x6164
    41000d8c:	7972                	.insn	2, 0x7972
    41000d8e:	635f 6f72 7373      	.insn	6, 0x73736f72635f
    41000d94:	6e69                	.insn	2, 0x6e69
    41000d96:	          	jr	1173(x6)

0000000041000d98 <dtest_name_6>:
    41000d98:	5f444953          	.insn	4, 0x5f444953
    41000d9c:	4250                	.insn	2, 0x4250
    41000d9e:	4d56                	.insn	2, 0x4d56
    41000da0:	31305f53          	.insn	4, 0x31305f53
    41000da4:	5f32                	.insn	2, 0x5f32
    41000da6:	7470                	.insn	2, 0x7470
    41000da8:	61665f77          	.insn	4, 0x61665f77
    41000dac:	6c75                	.insn	2, 0x6c75
    41000dae:	5f74                	.insn	2, 0x5f74
    41000db0:	7270                	.insn	2, 0x7270
    41000db2:	6f69                	.insn	2, 0x6f69
    41000db4:	6972                	.insn	2, 0x6972
    41000db6:	6974                	.insn	2, 0x6974
    41000db8:	617a                	.insn	2, 0x617a
    41000dba:	6974                	.insn	2, 0x6974
    41000dbc:	          	jal	x28,410072ec <__section__runtime_7+0x2ec>

0000000041000dbf <dtest_name_7>:
    41000dbf:	5f444953          	.insn	4, 0x5f444953
    41000dc3:	4250                	.insn	2, 0x4250
    41000dc5:	4d56                	.insn	2, 0x4d56
    41000dc7:	31305f53          	.insn	4, 0x31305f53
    41000dcb:	74705f33          	.insn	4, 0x74705f33
    41000dcf:	65705f77          	.insn	4, 0x65705f77
    41000dd3:	6d72                	.insn	2, 0x6d72
    41000dd5:	7369                	.insn	2, 0x7369
    41000dd7:	6e6f6973          	csrrsi	x18,0x6e6,30
    41000ddb:	655f 636e 646f      	.insn	6, 0x646f636e655f
    41000de1:	6e69                	.insn	2, 0x6e69
    41000de3:	          	.insn	4, 0x53007367

0000000041000de6 <dtest_name_8>:
    41000de6:	5f444953          	.insn	4, 0x5f444953
    41000dea:	4250                	.insn	2, 0x4250
    41000dec:	4d56                	.insn	2, 0x4d56
    41000dee:	31305f53          	.insn	4, 0x31305f53
    41000df2:	5f34                	.insn	2, 0x5f34
    41000df4:	736d                	.insn	2, 0x736d
    41000df6:	6174                	.insn	2, 0x6174
    41000df8:	7574                	.insn	2, 0x7574
    41000dfa:	75735f73          	csrrwi	x30,0x757,6
    41000dfe:	5f6d                	.insn	2, 0x5f6d
    41000e00:	786d                	.insn	2, 0x786d
    41000e02:	0072                	.insn	2, 0x0072

0000000041000e04 <dtest_name_9>:
    41000e04:	5f444953          	.insn	4, 0x5f444953
    41000e08:	4250                	.insn	2, 0x4250
    41000e0a:	4d56                	.insn	2, 0x4d56
    41000e0c:	31305f53          	.insn	4, 0x31305f53
    41000e10:	5f35                	.insn	2, 0x5f35
    41000e12:	626f6c67          	.insn	4, 0x626f6c67
    41000e16:	6c61                	.insn	2, 0x6c61
    41000e18:	625f 7469 685f      	.insn	6, 0x685f7469625f
    41000e1e:	756f6e6f          	jal	x28,410f7574 <__section__code_226+0x574>
    41000e22:	6572                	.insn	2, 0x6572
    41000e24:	0064                	.insn	2, 0x0064

0000000041000e26 <dtest_name_10>:
    41000e26:	5f444953          	.insn	4, 0x5f444953
    41000e2a:	4250                	.insn	2, 0x4250
    41000e2c:	4d56                	.insn	2, 0x4d56
    41000e2e:	31305f53          	.insn	4, 0x31305f53
    41000e32:	6c675f37          	lui	x30,0x6c675
    41000e36:	6c61626f          	jal	x4,410174fc <__section__code_2+0x4fc>
    41000e3a:	615f 5f74 6f6e      	.insn	6, 0x6f6e5f74615f
    41000e40:	5f6e                	.insn	2, 0x5f6e
    41000e42:	656c                	.insn	2, 0x656c
    41000e44:	6661                	.insn	2, 0x6661
	...

0000000041000e47 <dtest_name_11>:
    41000e47:	5f444953          	.insn	4, 0x5f444953
    41000e4b:	4250                	.insn	2, 0x4250
    41000e4d:	4d56                	.insn	2, 0x4d56
    41000e4f:	31305f53          	.insn	4, 0x31305f53
    41000e53:	5f38                	.insn	2, 0x5f38
    41000e55:	7372                	.insn	2, 0x7372
    41000e57:	69665f77          	.insn	4, 0x69665f77
    41000e5b:	6c65                	.insn	2, 0x6c65
    41000e5d:	7364                	.insn	2, 0x7364
    41000e5f:	775f 6972 6174      	.insn	6, 0x61746972775f
    41000e65:	6c62                	.insn	2, 0x6c62
    41000e67:	0065                	.insn	2, 0x0065

0000000041000e69 <dtest_name_12>:
    41000e69:	5f444953          	.insn	4, 0x5f444953
    41000e6d:	4250                	.insn	2, 0x4250
    41000e6f:	4d56                	.insn	2, 0x4d56
    41000e71:	32305f53          	.insn	4, 0x32305f53
    41000e75:	5f31                	.insn	2, 0x5f31
    41000e77:	70746173          	csrrsi	x2,0x707,8
    41000e7b:	765f 6c61 6469      	.insn	6, 0x64696c61765f
    41000e81:	745f 5f6f 6572      	.insn	6, 0x65725f6f745f
    41000e87:	76726573          	csrrsi	x10,0x767,4
    41000e8b:	6465                	.insn	2, 0x6465
	...

0000000041000e8e <dtest_name_13>:
    41000e8e:	5f444953          	.insn	4, 0x5f444953
    41000e92:	4250                	.insn	2, 0x4250
    41000e94:	4d56                	.insn	2, 0x4d56
    41000e96:	32305f53          	.insn	4, 0x32305f53
    41000e9a:	5f32                	.insn	2, 0x5f32
    41000e9c:	70746173          	csrrsi	x2,0x707,8
    41000ea0:	635f 7273 615f      	.insn	6, 0x615f7273635f
    41000ea6:	73656363          	bltu	x10,x22,410015cc <__section__runtime_1+0x5cc>
    41000eaa:	69626973          	csrrsi	x18,0x696,4
    41000eae:	696c                	.insn	2, 0x696c
    41000eb0:	7974                	.insn	2, 0x7974
	...

0000000041000eb3 <dtest_name_14>:
    41000eb3:	5f444953          	.insn	4, 0x5f444953
    41000eb7:	4250                	.insn	2, 0x4250
    41000eb9:	4d56                	.insn	2, 0x4d56
    41000ebb:	32305f53          	.insn	4, 0x32305f53
    41000ebf:	61735f33          	ror	x30,x6,x23
    41000ec3:	7074                	.insn	2, 0x7074
    41000ec5:	615f 6973 6c64      	.insn	6, 0x6c646973615f
    41000ecb:	6e65                	.insn	2, 0x6e65
    41000ecd:	645f 7369 6f63      	.insn	6, 0x6f637369645f
    41000ed3:	6576                	.insn	2, 0x6576
    41000ed5:	7972                	.insn	2, 0x7972
	...

0000000041000ed8 <dtest_name_15>:
    41000ed8:	5f444953          	.insn	4, 0x5f444953
    41000edc:	4250                	.insn	2, 0x4250
    41000ede:	4d56                	.insn	2, 0x4d56
    41000ee0:	32305f53          	.insn	4, 0x32305f53
    41000ee4:	61735f37          	lui	x30,0x61735
    41000ee8:	7074                	.insn	2, 0x7074
    41000eea:	755f 6573 5f72      	.insn	6, 0x5f726573755f
    41000ef0:	6f6d                	.insn	2, 0x6f6d
    41000ef2:	6564                	.insn	2, 0x6564
    41000ef4:	665f 7561 746c      	.insn	6, 0x746c7561665f
	...

0000000041000efb <dtest_name_16>:
    41000efb:	5f444953          	.insn	4, 0x5f444953
    41000eff:	4250                	.insn	2, 0x4250
    41000f01:	4d56                	.insn	2, 0x4d56
    41000f03:	34305f53          	.insn	4, 0x34305f53
    41000f07:	5f30                	.insn	2, 0x5f30
    41000f09:	746e6f63          	bltu	x28,x6,41001667 <__section__runtime_1+0x667>
    41000f0d:	7865                	.insn	2, 0x7865
    41000f0f:	5f74                	.insn	2, 0x5f74
    41000f11:	6174                	.insn	2, 0x6174
    41000f13:	6c62                	.insn	2, 0x6c62
    41000f15:	5f65                	.insn	2, 0x5f65
    41000f17:	7265766f          	jal	x12,4105863d <__section__code_67+0x63d>
    41000f1b:	6c66                	.insn	2, 0x6c66
    41000f1d:	          	jal	x14,4100844d <__section__runtime_8+0x44d>

0000000041000f20 <dtest_name_17>:
    41000f20:	5f444953          	.insn	4, 0x5f444953
    41000f24:	4250                	.insn	2, 0x4250
    41000f26:	4d56                	.insn	2, 0x4d56
    41000f28:	34305f53          	.insn	4, 0x34305f53
    41000f2c:	5f32                	.insn	2, 0x5f32
    41000f2e:	6f6e6163          	bltu	x28,x22,41001610 <__section__runtime_1+0x610>
    41000f32:	696e                	.insn	2, 0x696e
    41000f34:	5f6c6163          	bltu	x24,x22,41001516 <__section__runtime_1+0x516>
    41000f38:	6f62                	.insn	2, 0x6f62
    41000f3a:	6e75                	.insn	2, 0x6e75
    41000f3c:	6164                	.insn	2, 0x6164
    41000f3e:	7972                	.insn	2, 0x7972
    41000f40:	635f 6f72 7373      	.insn	6, 0x73736f72635f
    41000f46:	6e69                	.insn	2, 0x6e69
    41000f48:	61665f67          	.insn	4, 0x61665f67
    41000f4c:	6c75                	.insn	2, 0x6c75
    41000f4e:	0074                	.insn	2, 0x0074

0000000041000f50 <dtest_name_18>:
    41000f50:	5f444953          	.insn	4, 0x5f444953
    41000f54:	4250                	.insn	2, 0x4250
    41000f56:	4d56                	.insn	2, 0x4d56
    41000f58:	34305f53          	.insn	4, 0x34305f53
    41000f5c:	65665f33          	.insn	4, 0x65665f33
    41000f60:	6374                	.insn	2, 0x6374
    41000f62:	5f68                	.insn	2, 0x5f68
    41000f64:	646e6977          	.insn	4, 0x646e6977
    41000f68:	735f776f          	jal	x14,410f8e9c <__section__code_227+0xe9c>
    41000f6c:	6970                	.insn	2, 0x6970
    41000f6e:	6c6c                	.insn	2, 0x6c6c
    41000f70:	705f 6761 5f65      	.insn	6, 0x5f656761705f
    41000f76:	736f7263          	bgeu	x30,x22,4100169a <__section__runtime_1+0x69a>
    41000f7a:	          	.insn	4, 0xffff0073

0000000041000f7c <dtest_index_map>:
    41000f7c:	ffff                	.insn	2, 0xffff
    41000f7e:	ffff                	.insn	2, 0xffff
    41000f80:	00000007          	vle8.v	v0,(x0),v0.t
    41000f84:	0006                	.insn	2, 0x0006
    41000f86:	0000                	.insn	2, 0x0000
    41000f88:	000e                	.insn	2, 0x000e
    41000f8a:	0000                	.insn	2, 0x0000
    41000f8c:	0008                	.insn	2, 0x0008
    41000f8e:	0000                	.insn	2, 0x0000
    41000f90:	0012                	.insn	2, 0x0012
    41000f92:	0000                	.insn	2, 0x0000
    41000f94:	0005                	.insn	2, 0x0005
    41000f96:	0000                	.insn	2, 0x0000
    41000f98:	0009                	.insn	2, 0x0009
    41000f9a:	0000                	.insn	2, 0x0000
    41000f9c:	0000                	.insn	2, 0x0000
    41000f9e:	0000                	.insn	2, 0x0000
    41000fa0:	00000003          	lb	x0,0(x0) # 0 <ALL_4KB_PAGES>
    41000fa4:	000c                	.insn	2, 0x000c
    41000fa6:	0000                	.insn	2, 0x0000
    41000fa8:	0004                	.insn	2, 0x0004
    41000faa:	0000                	.insn	2, 0x0000
    41000fac:	000a                	.insn	2, 0x000a
    41000fae:	0000                	.insn	2, 0x0000
    41000fb0:	0000000f          	fence	unknown,unknown
    41000fb4:	0010                	.insn	2, 0x0010
    41000fb6:	0000                	.insn	2, 0x0000
    41000fb8:	000d                	.insn	2, 0x000d
    41000fba:	0000                	.insn	2, 0x0000
    41000fbc:	0000000b          	.insn	4, 0x000b
    41000fc0:	0011                	.insn	2, 0x0011
    41000fc2:	0000                	.insn	2, 0x0000
    41000fc4:	0002                	.insn	2, 0x0002
    41000fc6:	0000                	.insn	2, 0x0000
    41000fc8:	0001                	.insn	2, 0x0001
	...

0000000041000fcc <scheduler__test_setup_ptr>:
    41000fcc:	5120                	.insn	2, 0x5120
    41000fce:	4101                	.insn	2, 0x4101
    41000fd0:	0000                	.insn	2, 0x0000
	...

0000000041000fd4 <scheduler__test_cleanup_ptr>:
    41000fd4:	65d4                	.insn	2, 0x65d4
    41000fd6:	4101                	.insn	2, 0x4101
    41000fd8:	0000                	.insn	2, 0x0000
	...

Disassembly of section .runtime_s:

0000000041011000 <trap_handler_s__invalid_interrupt>:
    41011000:	1740006f          	j	41011174 <trap_handler_s__test_failed>

0000000041011004 <trap_handler_s__clear_all_interrupts>:
    41011004:	14401073          	csrw	sip,x0
    41011008:	10200073          	sret

000000004101100c <trap_handler_s___CLEAR_SSI>:
    4101100c:	00200293          	li	x5,2
    41011010:	1442b073          	csrc	sip,x5
    41011014:	10200073          	sret

0000000041011018 <trap_handler_s___CLEAR_MSI>:
    41011018:	00800293          	li	x5,8
    4101101c:	1442b073          	csrc	sip,x5
    41011020:	10200073          	sret

0000000041011024 <trap_handler_s___CLEAR_STI>:
    41011024:	02000293          	li	x5,32
    41011028:	1442b073          	csrc	sip,x5
    4101102c:	10200073          	sret

0000000041011030 <trap_handler_s___CLEAR_MTI>:
    41011030:	08000293          	li	x5,128
    41011034:	1442b073          	csrc	sip,x5
    41011038:	10200073          	sret

000000004101103c <trap_handler_s___CLEAR_SEI>:
    4101103c:	20000293          	li	x5,512
    41011040:	1442b073          	csrc	sip,x5
    41011044:	10200073          	sret

0000000041011048 <trap_handler_s___CLEAR_MEI>:
    41011048:	000012b7          	lui	x5,0x1
    4101104c:	8002829b          	addiw	x5,x5,-2048 # 800 <XLEN+0x7c0>
    41011050:	1442b073          	csrc	sip,x5
    41011054:	10200073          	sret

0000000041011058 <trap_handler_s___CLEAR_COI>:
    41011058:	000022b7          	lui	x5,0x2
    4101105c:	1442b073          	csrc	sip,x5
    41011060:	10200073          	sret

0000000041011064 <trap_handler_s__clear_highest_priority_interrupt>:
    41011064:	144022f3          	csrr	x5,sip
    41011068:	40500333          	neg	x6,x5
    4101106c:	0062f2b3          	and	x5,x5,x6
    41011070:	1442b073          	csrc	sip,x5
    41011074:	10200073          	sret

0000000041011078 <trap_handler_s__trap_entry>:
    41011078:	10c0006f          	j	41011184 <trap_handler_s__trap_handler>

000000004101107c <trap_handler_s__interrupt_vector_table>:
    4101107c:	f91ff06f          	j	4101100c <trap_handler_s___CLEAR_SSI>
    41011080:	f81ff06f          	j	41011000 <trap_handler_s__invalid_interrupt>
    41011084:	f95ff06f          	j	41011018 <trap_handler_s___CLEAR_MSI>
    41011088:	f79ff06f          	j	41011000 <trap_handler_s__invalid_interrupt>
    4101108c:	f99ff06f          	j	41011024 <trap_handler_s___CLEAR_STI>
    41011090:	f71ff06f          	j	41011000 <trap_handler_s__invalid_interrupt>
    41011094:	f9dff06f          	j	41011030 <trap_handler_s___CLEAR_MTI>
    41011098:	f69ff06f          	j	41011000 <trap_handler_s__invalid_interrupt>
    4101109c:	fa1ff06f          	j	4101103c <trap_handler_s___CLEAR_SEI>
    410110a0:	f61ff06f          	j	41011000 <trap_handler_s__invalid_interrupt>
    410110a4:	fa5ff06f          	j	41011048 <trap_handler_s___CLEAR_MEI>
    410110a8:	f59ff06f          	j	41011000 <trap_handler_s__invalid_interrupt>
    410110ac:	fadff06f          	j	41011058 <trap_handler_s___CLEAR_COI>
    410110b0:	f51ff06f          	j	41011000 <trap_handler_s__invalid_interrupt>
    410110b4:	f4dff06f          	j	41011000 <trap_handler_s__invalid_interrupt>
    410110b8:	fadff06f          	j	41011064 <trap_handler_s__clear_highest_priority_interrupt>
    410110bc:	fa9ff06f          	j	41011064 <trap_handler_s__clear_highest_priority_interrupt>
    410110c0:	fa5ff06f          	j	41011064 <trap_handler_s__clear_highest_priority_interrupt>
    410110c4:	fa1ff06f          	j	41011064 <trap_handler_s__clear_highest_priority_interrupt>
    410110c8:	f9dff06f          	j	41011064 <trap_handler_s__clear_highest_priority_interrupt>
    410110cc:	f99ff06f          	j	41011064 <trap_handler_s__clear_highest_priority_interrupt>
    410110d0:	f95ff06f          	j	41011064 <trap_handler_s__clear_highest_priority_interrupt>
    410110d4:	f91ff06f          	j	41011064 <trap_handler_s__clear_highest_priority_interrupt>
    410110d8:	f8dff06f          	j	41011064 <trap_handler_s__clear_highest_priority_interrupt>
    410110dc:	f89ff06f          	j	41011064 <trap_handler_s__clear_highest_priority_interrupt>
    410110e0:	f85ff06f          	j	41011064 <trap_handler_s__clear_highest_priority_interrupt>
    410110e4:	f81ff06f          	j	41011064 <trap_handler_s__clear_highest_priority_interrupt>
    410110e8:	f7dff06f          	j	41011064 <trap_handler_s__clear_highest_priority_interrupt>
    410110ec:	f79ff06f          	j	41011064 <trap_handler_s__clear_highest_priority_interrupt>
    410110f0:	f75ff06f          	j	41011064 <trap_handler_s__clear_highest_priority_interrupt>
    410110f4:	f71ff06f          	j	41011064 <trap_handler_s__clear_highest_priority_interrupt>
    410110f8:	f6dff06f          	j	41011064 <trap_handler_s__clear_highest_priority_interrupt>
    410110fc:	f69ff06f          	j	41011064 <trap_handler_s__clear_highest_priority_interrupt>
    41011100:	f65ff06f          	j	41011064 <trap_handler_s__clear_highest_priority_interrupt>
    41011104:	f61ff06f          	j	41011064 <trap_handler_s__clear_highest_priority_interrupt>
    41011108:	f5dff06f          	j	41011064 <trap_handler_s__clear_highest_priority_interrupt>
    4101110c:	f59ff06f          	j	41011064 <trap_handler_s__clear_highest_priority_interrupt>
    41011110:	f55ff06f          	j	41011064 <trap_handler_s__clear_highest_priority_interrupt>
    41011114:	f51ff06f          	j	41011064 <trap_handler_s__clear_highest_priority_interrupt>
    41011118:	f4dff06f          	j	41011064 <trap_handler_s__clear_highest_priority_interrupt>
    4101111c:	f49ff06f          	j	41011064 <trap_handler_s__clear_highest_priority_interrupt>
    41011120:	f45ff06f          	j	41011064 <trap_handler_s__clear_highest_priority_interrupt>
    41011124:	f41ff06f          	j	41011064 <trap_handler_s__clear_highest_priority_interrupt>
    41011128:	f3dff06f          	j	41011064 <trap_handler_s__clear_highest_priority_interrupt>
    4101112c:	f39ff06f          	j	41011064 <trap_handler_s__clear_highest_priority_interrupt>
    41011130:	f35ff06f          	j	41011064 <trap_handler_s__clear_highest_priority_interrupt>
    41011134:	f31ff06f          	j	41011064 <trap_handler_s__clear_highest_priority_interrupt>
    41011138:	f2dff06f          	j	41011064 <trap_handler_s__clear_highest_priority_interrupt>
    4101113c:	f29ff06f          	j	41011064 <trap_handler_s__clear_highest_priority_interrupt>
    41011140:	f25ff06f          	j	41011064 <trap_handler_s__clear_highest_priority_interrupt>
    41011144:	f21ff06f          	j	41011064 <trap_handler_s__clear_highest_priority_interrupt>
    41011148:	f1dff06f          	j	41011064 <trap_handler_s__clear_highest_priority_interrupt>
    4101114c:	f19ff06f          	j	41011064 <trap_handler_s__clear_highest_priority_interrupt>
    41011150:	f15ff06f          	j	41011064 <trap_handler_s__clear_highest_priority_interrupt>
    41011154:	f11ff06f          	j	41011064 <trap_handler_s__clear_highest_priority_interrupt>
    41011158:	f0dff06f          	j	41011064 <trap_handler_s__clear_highest_priority_interrupt>
    4101115c:	f09ff06f          	j	41011064 <trap_handler_s__clear_highest_priority_interrupt>
    41011160:	f05ff06f          	j	41011064 <trap_handler_s__clear_highest_priority_interrupt>
    41011164:	f01ff06f          	j	41011064 <trap_handler_s__clear_highest_priority_interrupt>
    41011168:	efdff06f          	j	41011064 <trap_handler_s__clear_highest_priority_interrupt>
    4101116c:	ef9ff06f          	j	41011064 <trap_handler_s__clear_highest_priority_interrupt>
    41011170:	ef5ff06f          	j	41011064 <trap_handler_s__clear_highest_priority_interrupt>

0000000041011174 <trap_handler_s__test_failed>:
    41011174:	00f00f9b          	addiw	x31,x0,15
    41011178:	01cf9f93          	slli	x31,x31,0x1c
    4101117c:	002f8f93          	addi	x31,x31,2
    41011180:	00000073          	ecall

0000000041011184 <trap_handler_s__trap_handler>:
    41011184:	142022f3          	csrr	x5,scause
    41011188:	fff0031b          	addiw	x6,x0,-1
    4101118c:	03f31313          	slli	x6,x6,0x3f
    41011190:	00537333          	and	x6,x6,x5
    41011194:	02030263          	beqz	x6,410111b8 <trap_handler_s__exception_path>

0000000041011198 <trap_handler_s__interrupt_handler>:
    41011198:	fff0031b          	addiw	x6,x0,-1
    4101119c:	03f31313          	slli	x6,x6,0x3f
    410111a0:	0062c2b3          	xor	x5,x5,x6
    410111a4:	00000317          	auipc	x6,0x0
    410111a8:	ed430313          	addi	x6,x6,-300 # 41011078 <trap_handler_s__trap_entry>
    410111ac:	00229293          	slli	x5,x5,0x2
    410111b0:	005302b3          	add	x5,x6,x5
    410111b4:	00028067          	jr	x5 # 2000 <SID_PBVMS_009_superpage_alignment_fault_stack>

00000000410111b8 <trap_handler_s__exception_path>:
    410111b8:	14021273          	csrrw	x4,sscratch,x4
    410111bc:	00000297          	auipc	x5,0x0
    410111c0:	0cc28293          	addi	x5,x5,204 # 41011288 <trap_handler_s__trap_panic>
    410111c4:	10529073          	csrw	stvec,x5
    410111c8:	0040006f          	j	410111cc <trap_handler_s__excp_entry>

00000000410111cc <trap_handler_s__excp_entry>:
    410111cc:	14202373          	csrr	x6,scause
    410111d0:	00800293          	li	x5,8
    410111d4:	00534863          	blt	x6,x5,410111e4 <trap_handler_s__check_exception_label>
    410111d8:	00b00293          	li	x5,11
    410111dc:	0062c463          	blt	x5,x6,410111e4 <trap_handler_s__check_exception_label>
    410111e0:	0a80006f          	j	41011288 <trap_handler_s__trap_panic>

00000000410111e4 <trap_handler_s__check_exception_label>:
    410111e4:	04623c23          	sd	x6,88(x4) # 58 <XLEN+0x18>
    410111e8:	141022f3          	csrr	x5,sepc
    410111ec:	02523423          	sd	x5,40(x4) # 28 <SECURE_ACCESS_PROBABILITY+0xa>
    410111f0:	01820283          	lb	x5,24(x4) # 18 <STORE_GUEST_PAGE_FAULT+0x1>
    410111f4:	00029863          	bnez	x5,41011204 <trap_handler_s__check_excp>
    410111f8:	00128293          	addi	x5,x5,1
    410111fc:	00520c23          	sb	x5,24(x4) # 18 <STORE_GUEST_PAGE_FAULT+0x1>
    41011200:	05c0006f          	j	4101125c <trap_handler_s__ecall_from_machine>

0000000041011204 <trap_handler_s__check_excp>:
    41011204:	06823283          	ld	x5,104(x4) # 68 <XLEN+0x28>
    41011208:	06023423          	sd	x0,104(x4) # 68 <XLEN+0x28>
    4101120c:	00028663          	beqz	x5,41011218 <trap_handler_s__skip_mode_check>
    41011210:	00300393          	li	x7,3
    41011214:	f67290e3          	bne	x5,x7,41011174 <trap_handler_s__test_failed>

0000000041011218 <trap_handler_s__skip_mode_check>:
    41011218:	05023283          	ld	x5,80(x4) # 50 <XLEN+0x10>
    4101121c:	04023823          	sd	x0,80(x4) # 50 <XLEN+0x10>
    41011220:	f4531ae3          	bne	x6,x5,41011174 <trap_handler_s__test_failed>
    41011224:	03823283          	ld	x5,56(x4) # 38 <SECURE_ACCESS_PROBABILITY+0x1a>
    41011228:	02023c23          	sd	x0,56(x4) # 38 <SECURE_ACCESS_PROBABILITY+0x1a>
    4101122c:	02029663          	bnez	x5,41011258 <trap_handler_s__skip_nonzero_tval_check>
    41011230:	02023303          	ld	x6,32(x4) # 20 <SECURE_ACCESS_PROBABILITY+0x2>
    41011234:	02023023          	sd	x0,32(x4) # 20 <SECURE_ACCESS_PROBABILITY+0x2>
    41011238:	02823283          	ld	x5,40(x4) # 28 <SECURE_ACCESS_PROBABILITY+0xa>
    4101123c:	02023423          	sd	x0,40(x4) # 28 <SECURE_ACCESS_PROBABILITY+0xa>
    41011240:	f2531ae3          	bne	x6,x5,41011174 <trap_handler_s__test_failed>
    41011244:	04023283          	ld	x5,64(x4) # 40 <XLEN>
    41011248:	04023023          	sd	x0,64(x4) # 40 <XLEN>
    4101124c:	00028663          	beqz	x5,41011258 <trap_handler_s__skip_nonzero_tval_check>

0000000041011250 <trap_handler_s__nonzero_tval_check>:
    41011250:	14302373          	csrr	x6,stval
    41011254:	f25310e3          	bne	x6,x5,41011174 <trap_handler_s__test_failed>

0000000041011258 <trap_handler_s__skip_nonzero_tval_check>:
    41011258:	0040006f          	j	4101125c <trap_handler_s__ecall_from_machine>

000000004101125c <trap_handler_s__ecall_from_machine>:
    4101125c:	03023283          	ld	x5,48(x4) # 30 <SECURE_ACCESS_PROBABILITY+0x12>
    41011260:	02023823          	sd	x0,48(x4) # 30 <SECURE_ACCESS_PROBABILITY+0x12>
    41011264:	07023303          	ld	x6,112(x4) # 70 <XLEN+0x30>
    41011268:	06023823          	sd	x0,112(x4) # 70 <XLEN+0x30>
    4101126c:	00031463          	bnez	x6,41011274 <trap_handler_s__skip_xepc_write>
    41011270:	14129073          	csrw	sepc,x5

0000000041011274 <trap_handler_s__skip_xepc_write>:
    41011274:	00000317          	auipc	x6,0x0
    41011278:	e0430313          	addi	x6,x6,-508 # 41011078 <trap_handler_s__trap_entry>
    4101127c:	10531073          	csrw	stvec,x6
    41011280:	14021273          	csrrw	x4,sscratch,x4
    41011284:	10200073          	sret

0000000041011288 <trap_handler_s__trap_panic>:
    41011288:	00000193          	li	x3,0
    4101128c:	00f00f9b          	addiw	x31,x0,15
    41011290:	01cf9f93          	slli	x31,x31,0x1c
    41011294:	002f8f93          	addi	x31,x31,2
    41011298:	00000073          	ecall

Disassembly of section .code:

00000000410150f0 <passed>:
    410150f0:	00f00f9b          	addiw	x31,x0,15
    410150f4:	01cf9f93          	slli	x31,x31,0x1c
    410150f8:	001f8f93          	addi	x31,x31,1
    410150fc:	00000073          	ecall

0000000041015100 <failed>:
    41015100:	00f00f9b          	addiw	x31,x0,15
    41015104:	01cf9f93          	slli	x31,x31,0x1c
    41015108:	002f8f93          	addi	x31,x31,2
    4101510c:	00000073          	ecall

0000000041015110 <end_test>:
    41015110:	00f00f9b          	addiw	x31,x0,15
    41015114:	01cf9f93          	slli	x31,x31,0x1c
    41015118:	003f8f93          	addi	x31,x31,3
    4101511c:	00000073          	ecall

0000000041015120 <test_setup>:
    41015120:	00f00f9b          	addiw	x31,x0,15
    41015124:	01cf9f93          	slli	x31,x31,0x1c
    41015128:	001f8f93          	addi	x31,x31,1
    4101512c:	00000073          	ecall

0000000041015130 <SID_PBVMS_001_ptw_no_faults_all_access_types>:
    41015130:	01a4f137          	lui	x2,0x1a4f
    41015134:	5391011b          	addiw	x2,x2,1337 # 1a4f539 <mem9__pt_level0+0x94e539>
    41015138:	00d11113          	slli	x2,x2,0xd
    4101513c:	000012b7          	lui	x5,0x1
    41015140:	00510133          	add	x2,x2,x5
    41015144:	ff017113          	andi	x2,x2,-16
    41015148:	002a0ab7          	lui	x21,0x2a0
    4101514c:	7cba8a9b          	addiw	x21,x21,1995 # 2a07cb <SID_PBVMS_040_context_table_overflow_stack+0x1d27cb>
    41015150:	00ca9a93          	slli	x21,x21,0xc
    41015154:	055a8a93          	addi	x21,x21,85
    41015158:	00da9a93          	slli	x21,x21,0xd
    4101515c:	000aae03          	lw	x28,0(x21)
    41015160:	002a06b7          	lui	x13,0x2a0
    41015164:	7cb6869b          	addiw	x13,x13,1995 # 2a07cb <SID_PBVMS_040_context_table_overflow_stack+0x1d27cb>
    41015168:	00c69693          	slli	x13,x13,0xc
    4101516c:	05568693          	addi	x13,x13,85
    41015170:	00d69693          	slli	x13,x13,0xd
    41015174:	0005d8b7          	lui	x17,0x5d
    41015178:	e9d8889b          	addiw	x17,x17,-355 # 5ce9d <code_mem4+0x3e9d>
    4101517c:	00d89893          	slli	x17,x17,0xd
    41015180:	ccd88893          	addi	x17,x17,-819
    41015184:	d018fdd3          	fcvt.s.wu	f27,x17
    41015188:	01b6b027          	fsd	f27,0(x13)
    4101518c:	002a0ab7          	lui	x21,0x2a0
    41015190:	7cba8a9b          	addiw	x21,x21,1995 # 2a07cb <SID_PBVMS_040_context_table_overflow_stack+0x1d27cb>
    41015194:	00ca9a93          	slli	x21,x21,0xc
    41015198:	055a8a93          	addi	x21,x21,85
    4101519c:	00da9a93          	slli	x21,x21,0xd
    410151a0:	00000593          	li	x11,0
    410151a4:	00ba8f33          	add	x30,x21,x11
    410151a8:	000f282f          	amoadd.w	x16,x0,(x30)
    410151ac:	000ccf37          	lui	x30,0xcc
    410151b0:	5bdf0f1b          	addiw	x30,x30,1469 # cc5bd <mem11__pt_level1+0x275bd>
    410151b4:	00cf1f13          	slli	x30,x30,0xc
    410151b8:	000f00e7          	jalr	x30

00000000410151bc <SID_PBVMS_001_ptw_no_faults_all_access_types_passed>:
    410151bc:	00f00f9b          	addiw	x31,x0,15
    410151c0:	01cf9f93          	slli	x31,x31,0x1c
    410151c4:	001f8f93          	addi	x31,x31,1
    410151c8:	00000073          	ecall

00000000410151cc <SID_PBVMS_003_ptw_all_privilege_modes>:
    410151cc:	0006e137          	lui	x2,0x6e
    410151d0:	6d91011b          	addiw	x2,x2,1753 # 6e6d9 <mem22__pt_level3+0x9579>
    410151d4:	00d11113          	slli	x2,x2,0xd
    410151d8:	000012b7          	lui	x5,0x1
    410151dc:	00510133          	add	x2,x2,x5
    410151e0:	ff017113          	andi	x2,x2,-16
    410151e4:	03e0afb7          	lui	x31,0x3e0a
    410151e8:	000fbb87          	fld	f23,0(x31) # 3e0a000 <mem2>
    410151ec:	03e0ab37          	lui	x22,0x3e0a
    410151f0:	4da4ec37          	lui	x24,0x4da4e
    410151f4:	aeec0c1b          	addiw	x24,x24,-1298 # 4da4daee <pma_region_2_end+0x8a0caee>
    410151f8:	018b1023          	sh	x24,0(x22) # 3e0a000 <mem2>

00000000410151fc <SID_PBVMS_003_ptw_all_privilege_modes_passed>:
    410151fc:	00f00f9b          	addiw	x31,x0,15
    41015200:	01cf9f93          	slli	x31,x31,0x1c
    41015204:	001f8f93          	addi	x31,x31,1
    41015208:	00000073          	ecall

000000004101520c <SID_PBVMS_006_ptw_page_boundary_crossing>:
    4101520c:	02d1a137          	lui	x2,0x2d1a
    41015210:	000012b7          	lui	x5,0x1
    41015214:	00510133          	add	x2,x2,x5
    41015218:	ff017113          	andi	x2,x2,-16
    4101521c:	09000637          	lui	x12,0x9000
    41015220:	00001b37          	lui	x22,0x1
    41015224:	ff8b0b1b          	addiw	x22,x22,-8 # ff8 <XLEN+0xfb8>
    41015228:	01660c33          	add	x24,x12,x22
    4101522c:	000c3607          	fld	f12,0(x24)
    41015230:	09000f37          	lui	x30,0x9000
    41015234:	00001e37          	lui	x28,0x1
    41015238:	ff8e0e1b          	addiw	x28,x28,-8 # ff8 <XLEN+0xfb8>
    4101523c:	01cf0433          	add	x8,x30,x28
    41015240:	0002f937          	lui	x18,0x2f
    41015244:	c799091b          	addiw	x18,x18,-903 # 2ec79 <mem11__pt_level3+0x1dc69>
    41015248:	00e91913          	slli	x18,x18,0xe
    4101524c:	86f90913          	addi	x18,x18,-1937
    41015250:	01241023          	sh	x18,0(x8)
    41015254:	09000e37          	lui	x28,0x9000
    41015258:	00001337          	lui	x6,0x1
    4101525c:	ff83031b          	addiw	x6,x6,-8 # ff8 <XLEN+0xfb8>
    41015260:	006e07b3          	add	x15,x28,x6
    41015264:	00001e37          	lui	x28,0x1
    41015268:	ff8e0e1b          	addiw	x28,x28,-8 # ff8 <XLEN+0xfb8>
    4101526c:	01c7b5af          	amoadd.d	x11,x28,(x15)
    41015270:	000594b7          	lui	x9,0x59
    41015274:	000480e7          	jalr	x9 # 59000 <code_mem4>

0000000041015278 <SID_PBVMS_006_ptw_page_boundary_crossing_passed>:
    41015278:	00f00f9b          	addiw	x31,x0,15
    4101527c:	01cf9f93          	slli	x31,x31,0x1c
    41015280:	001f8f93          	addi	x31,x31,1
    41015284:	00000073          	ecall

0000000041015288 <SID_PBVMS_008_va_sign_extension_fault>:
    41015288:	00d28137          	lui	x2,0xd28
    4101528c:	a9d1011b          	addiw	x2,x2,-1379 # d27a9d <mem22__pt_level2+0x4a0a9d>
    41015290:	00e11113          	slli	x2,x2,0xe
    41015294:	000012b7          	lui	x5,0x1
    41015298:	00510133          	add	x2,x2,x5
    4101529c:	ff017113          	andi	x2,x2,-16
    410152a0:	0634b237          	lui	x4,0x634b
    410152a4:	00d00e13          	li	x28,13
    410152a8:	05c23823          	sd	x28,80(x4) # 634b050 <check_excp_expected_cause>
    410152ac:	00000e17          	auipc	x28,0x0
    410152b0:	058e0e13          	addi	x28,x28,88 # 41015304 <fault_label_0>
    410152b4:	03c23023          	sd	x28,32(x4) # 20 <SECURE_ACCESS_PROBABILITY+0x2>
    410152b8:	00000e13          	li	x28,0
    410152bc:	05c23023          	sd	x28,64(x4) # 40 <XLEN>
    410152c0:	00000e13          	li	x28,0
    410152c4:	05c23423          	sd	x28,72(x4) # 48 <XLEN+0x8>
    410152c8:	00000e17          	auipc	x28,0x0
    410152cc:	050e0e13          	addi	x28,x28,80 # 41015318 <SID_PBVMS_008_va_sign_extension_fault_passed>
    410152d0:	03c23823          	sd	x28,48(x4) # 30 <SECURE_ACCESS_PROBABILITY+0x12>
    410152d4:	00000e13          	li	x28,0
    410152d8:	03c23c23          	sd	x28,56(x4) # 38 <SECURE_ACCESS_PROBABILITY+0x1a>
    410152dc:	00000e13          	li	x28,0
    410152e0:	07c23023          	sd	x28,96(x4) # 60 <XLEN+0x20>
    410152e4:	00000e13          	li	x28,0
    410152e8:	07c23423          	sd	x28,104(x4) # 68 <XLEN+0x28>
    410152ec:	00000e13          	li	x28,0
    410152f0:	07c23823          	sd	x28,112(x4) # 70 <XLEN+0x30>
    410152f4:	2559d737          	lui	x14,0x2559d
    410152f8:	fff00c9b          	addiw	x25,x0,-1
    410152fc:	03fc9c93          	slli	x25,x25,0x3f
    41015300:	019706b3          	add	x13,x14,x25

0000000041015304 <fault_label_0>:
    41015304:	00068f03          	lb	x30,0(x13)
    41015308:	0003a4b7          	lui	x9,0x3a
    4101530c:	0084849b          	addiw	x9,x9,8 # 3a008 <failed_addr>
    41015310:	0004bf03          	ld	x30,0(x9)
    41015314:	000f0067          	jr	x30 # 9000000 <mem3>

0000000041015318 <SID_PBVMS_008_va_sign_extension_fault_passed>:
    41015318:	00f00f9b          	addiw	x31,x0,15
    4101531c:	01cf9f93          	slli	x31,x31,0x1c
    41015320:	001f8f93          	addi	x31,x31,1
    41015324:	00000073          	ecall

0000000041015328 <SID_PBVMS_009_superpage_alignment_fault>:
    41015328:	00002137          	lui	x2,0x2
    4101532c:	000012b7          	lui	x5,0x1
    41015330:	00510133          	add	x2,x2,x5
    41015334:	ff017113          	andi	x2,x2,-16
    41015338:	0003afb7          	lui	x31,0x3a
    4101533c:	0b0f8f9b          	addiw	x31,x31,176 # 3a0b0 <pte_access_flags>
    41015340:	0070029b          	addiw	x5,x0,7
    41015344:	02829293          	slli	x5,x5,0x28
    41015348:	005fb023          	sd	x5,0(x31)
    4101534c:	00200293          	li	x5,2
    41015350:	005fb423          	sd	x5,8(x31)
    41015354:	fff00293          	li	x5,-1
    41015358:	005fb823          	sd	x5,16(x31)
    4101535c:	000f0fb7          	lui	x31,0xf0
    41015360:	001f8f9b          	addiw	x31,x31,1 # f0001 <SID_PBVMS_040_context_table_overflow_stack+0x22001>
    41015364:	00cf9f93          	slli	x31,x31,0xc
    41015368:	007f8f93          	addi	x31,x31,7
    4101536c:	00000073          	ecall
    41015370:	40000793          	li	x15,1024
    41015374:	00f3e733          	or	x14,x7,x15
    41015378:	00070393          	mv	x7,x14
    4101537c:	0003afb7          	lui	x31,0x3a
    41015380:	0b0f8f9b          	addiw	x31,x31,176 # 3a0b0 <pte_access_flags>
    41015384:	0070029b          	addiw	x5,x0,7
    41015388:	02829293          	slli	x5,x5,0x28
    4101538c:	005fb023          	sd	x5,0(x31)
    41015390:	00200293          	li	x5,2
    41015394:	005fb423          	sd	x5,8(x31)
    41015398:	fff00293          	li	x5,-1
    4101539c:	005fb823          	sd	x5,16(x31)
    410153a0:	000f0fb7          	lui	x31,0xf0
    410153a4:	001f8f9b          	addiw	x31,x31,1 # f0001 <SID_PBVMS_040_context_table_overflow_stack+0x22001>
    410153a8:	00cf9f93          	slli	x31,x31,0xc
    410153ac:	008f8f93          	addi	x31,x31,8
    410153b0:	00000073          	ecall
    410153b4:	0634b237          	lui	x4,0x634b
    410153b8:	00d00e13          	li	x28,13
    410153bc:	05c23823          	sd	x28,80(x4) # 634b050 <check_excp_expected_cause>
    410153c0:	00000e17          	auipc	x28,0x0
    410153c4:	050e0e13          	addi	x28,x28,80 # 41015410 <fault_label_1>
    410153c8:	03c23023          	sd	x28,32(x4) # 20 <SECURE_ACCESS_PROBABILITY+0x2>
    410153cc:	00000e13          	li	x28,0
    410153d0:	05c23023          	sd	x28,64(x4) # 40 <XLEN>
    410153d4:	00000e13          	li	x28,0
    410153d8:	05c23423          	sd	x28,72(x4) # 48 <XLEN+0x8>
    410153dc:	00000e17          	auipc	x28,0x0
    410153e0:	048e0e13          	addi	x28,x28,72 # 41015424 <excp_return_label_1>
    410153e4:	03c23823          	sd	x28,48(x4) # 30 <SECURE_ACCESS_PROBABILITY+0x12>
    410153e8:	00000e13          	li	x28,0
    410153ec:	03c23c23          	sd	x28,56(x4) # 38 <SECURE_ACCESS_PROBABILITY+0x1a>
    410153f0:	00000e13          	li	x28,0
    410153f4:	07c23023          	sd	x28,96(x4) # 60 <XLEN+0x20>
    410153f8:	00000e13          	li	x28,0
    410153fc:	07c23423          	sd	x28,104(x4) # 68 <XLEN+0x28>
    41015400:	00000e13          	li	x28,0
    41015404:	07c23823          	sd	x28,112(x4) # 70 <XLEN+0x30>
    41015408:	0070069b          	addiw	x13,x0,7
    4101540c:	02869693          	slli	x13,x13,0x28

0000000041015410 <fault_label_1>:
    41015410:	0006af87          	flw	f31,0(x13)
    41015414:	0003a437          	lui	x8,0x3a
    41015418:	0084041b          	addiw	x8,x8,8 # 3a008 <failed_addr>
    4101541c:	00043c03          	ld	x24,0(x8)
    41015420:	000c0067          	jr	x24

0000000041015424 <excp_return_label_1>:
    41015424:	0634b237          	lui	x4,0x634b
    41015428:	00f00e13          	li	x28,15
    4101542c:	05c23823          	sd	x28,80(x4) # 634b050 <check_excp_expected_cause>
    41015430:	00000e17          	auipc	x28,0x0
    41015434:	060e0e13          	addi	x28,x28,96 # 41015490 <fault_label_2>
    41015438:	03c23023          	sd	x28,32(x4) # 20 <SECURE_ACCESS_PROBABILITY+0x2>
    4101543c:	00000e13          	li	x28,0
    41015440:	05c23023          	sd	x28,64(x4) # 40 <XLEN>
    41015444:	00000e13          	li	x28,0
    41015448:	05c23423          	sd	x28,72(x4) # 48 <XLEN+0x8>
    4101544c:	00000e17          	auipc	x28,0x0
    41015450:	058e0e13          	addi	x28,x28,88 # 410154a4 <excp_return_label_2>
    41015454:	03c23823          	sd	x28,48(x4) # 30 <SECURE_ACCESS_PROBABILITY+0x12>
    41015458:	00000e13          	li	x28,0
    4101545c:	03c23c23          	sd	x28,56(x4) # 38 <SECURE_ACCESS_PROBABILITY+0x1a>
    41015460:	00000e13          	li	x28,0
    41015464:	07c23023          	sd	x28,96(x4) # 60 <XLEN+0x20>
    41015468:	00000e13          	li	x28,0
    4101546c:	07c23423          	sd	x28,104(x4) # 68 <XLEN+0x28>
    41015470:	00000e13          	li	x28,0
    41015474:	07c23823          	sd	x28,112(x4) # 70 <XLEN+0x30>
    41015478:	0070039b          	addiw	x7,x0,7
    4101547c:	02839393          	slli	x7,x7,0x28
    41015480:	00003c37          	lui	x24,0x3
    41015484:	6a7c0c1b          	addiw	x24,x24,1703 # 36a7 <_all_interrupts+0xbfd>
    41015488:	012c1c13          	slli	x24,x24,0x12
    4101548c:	25dc0c13          	addi	x24,x24,605

0000000041015490 <fault_label_2>:
    41015490:	0183b023          	sd	x24,0(x7)
    41015494:	0003a4b7          	lui	x9,0x3a
    41015498:	0084849b          	addiw	x9,x9,8 # 3a008 <failed_addr>
    4101549c:	0004b503          	ld	x10,0(x9)
    410154a0:	00050067          	jr	x10

00000000410154a4 <excp_return_label_2>:
    410154a4:	0634b237          	lui	x4,0x634b
    410154a8:	00f00e13          	li	x28,15
    410154ac:	05c23823          	sd	x28,80(x4) # 634b050 <check_excp_expected_cause>
    410154b0:	00000e17          	auipc	x28,0x0
    410154b4:	058e0e13          	addi	x28,x28,88 # 41015508 <fault_label_3>
    410154b8:	03c23023          	sd	x28,32(x4) # 20 <SECURE_ACCESS_PROBABILITY+0x2>
    410154bc:	00000e13          	li	x28,0
    410154c0:	05c23023          	sd	x28,64(x4) # 40 <XLEN>
    410154c4:	00000e13          	li	x28,0
    410154c8:	05c23423          	sd	x28,72(x4) # 48 <XLEN+0x8>
    410154cc:	00000e17          	auipc	x28,0x0
    410154d0:	050e0e13          	addi	x28,x28,80 # 4101551c <SID_PBVMS_009_superpage_alignment_fault_passed>
    410154d4:	03c23823          	sd	x28,48(x4) # 30 <SECURE_ACCESS_PROBABILITY+0x12>
    410154d8:	00000e13          	li	x28,0
    410154dc:	03c23c23          	sd	x28,56(x4) # 38 <SECURE_ACCESS_PROBABILITY+0x1a>
    410154e0:	00000e13          	li	x28,0
    410154e4:	07c23023          	sd	x28,96(x4) # 60 <XLEN+0x20>
    410154e8:	00000e13          	li	x28,0
    410154ec:	07c23423          	sd	x28,104(x4) # 68 <XLEN+0x28>
    410154f0:	00000e13          	li	x28,0
    410154f4:	07c23823          	sd	x28,112(x4) # 70 <XLEN+0x30>
    410154f8:	00700c9b          	addiw	x25,x0,7
    410154fc:	028c9c93          	slli	x25,x25,0x28
    41015500:	00000d13          	li	x26,0
    41015504:	01ac8933          	add	x18,x25,x26

0000000041015508 <fault_label_3>:
    41015508:	00092aaf          	amoadd.w	x21,x0,(x18)
    4101550c:	0003a537          	lui	x10,0x3a
    41015510:	0085051b          	addiw	x10,x10,8 # 3a008 <failed_addr>
    41015514:	00053303          	ld	x6,0(x10)
    41015518:	00030067          	jr	x6

000000004101551c <SID_PBVMS_009_superpage_alignment_fault_passed>:
    4101551c:	00f00f9b          	addiw	x31,x0,15
    41015520:	01cf9f93          	slli	x31,x31,0x1c
    41015524:	001f8f93          	addi	x31,x31,1
    41015528:	00000073          	ecall

000000004101552c <SID_PBVMS_011_ptw_fault_boundary_crossing>:
    4101552c:	13403137          	lui	x2,0x13403
    41015530:	71b1011b          	addiw	x2,x2,1819 # 1340371b <SID_PBVMS_012_ptw_fault_prioritization_stack+0x2c6271b>
    41015534:	00d11113          	slli	x2,x2,0xd
    41015538:	000012b7          	lui	x5,0x1
    4101553c:	00510133          	add	x2,x2,x5
    41015540:	ff017113          	andi	x2,x2,-16
    41015544:	000013b7          	lui	x7,0x1
    41015548:	7eb3839b          	addiw	x7,x7,2027 # 17eb <pma_region_1_size+0x7eb>
    4101554c:	01639393          	slli	x7,x7,0x16
    41015550:	0003cf03          	lbu	x30,0(x7)
    41015554:	0634b237          	lui	x4,0x634b
    41015558:	00d00e13          	li	x28,13
    4101555c:	05c23823          	sd	x28,80(x4) # 634b050 <check_excp_expected_cause>
    41015560:	00000e17          	auipc	x28,0x0
    41015564:	058e0e13          	addi	x28,x28,88 # 410155b8 <fault_label_4>
    41015568:	03c23023          	sd	x28,32(x4) # 20 <SECURE_ACCESS_PROBABILITY+0x2>
    4101556c:	00000e13          	li	x28,0
    41015570:	05c23023          	sd	x28,64(x4) # 40 <XLEN>
    41015574:	00000e13          	li	x28,0
    41015578:	05c23423          	sd	x28,72(x4) # 48 <XLEN+0x8>
    4101557c:	00000e17          	auipc	x28,0x0
    41015580:	050e0e13          	addi	x28,x28,80 # 410155cc <excp_return_label_4>
    41015584:	03c23823          	sd	x28,48(x4) # 30 <SECURE_ACCESS_PROBABILITY+0x12>
    41015588:	00000e13          	li	x28,0
    4101558c:	03c23c23          	sd	x28,56(x4) # 38 <SECURE_ACCESS_PROBABILITY+0x1a>
    41015590:	00000e13          	li	x28,0
    41015594:	07c23023          	sd	x28,96(x4) # 60 <XLEN+0x20>
    41015598:	00000e13          	li	x28,0
    4101559c:	07c23423          	sd	x28,104(x4) # 68 <XLEN+0x28>
    410155a0:	00000e13          	li	x28,0
    410155a4:	07c23823          	sd	x28,112(x4) # 70 <XLEN+0x30>
    410155a8:	0e600337          	lui	x6,0xe600
    410155ac:	000019b7          	lui	x19,0x1
    410155b0:	ffa9899b          	addiw	x19,x19,-6 # ffa <XLEN+0xfba>
    410155b4:	01330833          	add	x16,x6,x19

00000000410155b8 <fault_label_4>:
    410155b8:	00083603          	ld	x12,0(x16)
    410155bc:	0003a737          	lui	x14,0x3a
    410155c0:	0087071b          	addiw	x14,x14,8 # 3a008 <failed_addr>
    410155c4:	00073803          	ld	x16,0(x14)
    410155c8:	00080067          	jr	x16

00000000410155cc <excp_return_label_4>:
    410155cc:	0634b237          	lui	x4,0x634b
    410155d0:	00f00e13          	li	x28,15
    410155d4:	05c23823          	sd	x28,80(x4) # 634b050 <check_excp_expected_cause>
    410155d8:	00000e17          	auipc	x28,0x0
    410155dc:	060e0e13          	addi	x28,x28,96 # 41015638 <fault_label_5>
    410155e0:	03c23023          	sd	x28,32(x4) # 20 <SECURE_ACCESS_PROBABILITY+0x2>
    410155e4:	00000e13          	li	x28,0
    410155e8:	05c23023          	sd	x28,64(x4) # 40 <XLEN>
    410155ec:	00000e13          	li	x28,0
    410155f0:	05c23423          	sd	x28,72(x4) # 48 <XLEN+0x8>
    410155f4:	00000e17          	auipc	x28,0x0
    410155f8:	058e0e13          	addi	x28,x28,88 # 4101564c <SID_PBVMS_011_ptw_fault_boundary_crossing_passed>
    410155fc:	03c23823          	sd	x28,48(x4) # 30 <SECURE_ACCESS_PROBABILITY+0x12>
    41015600:	00000e13          	li	x28,0
    41015604:	03c23c23          	sd	x28,56(x4) # 38 <SECURE_ACCESS_PROBABILITY+0x1a>
    41015608:	00000e13          	li	x28,0
    4101560c:	07c23023          	sd	x28,96(x4) # 60 <XLEN+0x20>
    41015610:	00000e13          	li	x28,0
    41015614:	07c23423          	sd	x28,104(x4) # 68 <XLEN+0x28>
    41015618:	00000e13          	li	x28,0
    4101561c:	07c23823          	sd	x28,112(x4) # 70 <XLEN+0x30>
    41015620:	0e6007b7          	lui	x15,0xe600
    41015624:	00001eb7          	lui	x29,0x1
    41015628:	ffae8e9b          	addiw	x29,x29,-6 # ffa <XLEN+0xfba>
    4101562c:	01d78733          	add	x14,x15,x29
    41015630:	067d0437          	lui	x8,0x67d0
    41015634:	dce4041b          	addiw	x8,x8,-562 # 67cfdce <current_test_index+0x484c46>

0000000041015638 <fault_label_5>:
    41015638:	00870023          	sb	x8,0(x14)
    4101563c:	0003ad37          	lui	x26,0x3a
    41015640:	008d0d1b          	addiw	x26,x26,8 # 3a008 <failed_addr>
    41015644:	000d3983          	ld	x19,0(x26)
    41015648:	00098067          	jr	x19

000000004101564c <SID_PBVMS_011_ptw_fault_boundary_crossing_passed>:
    4101564c:	00f00f9b          	addiw	x31,x0,15
    41015650:	01cf9f93          	slli	x31,x31,0x1c
    41015654:	001f8f93          	addi	x31,x31,1
    41015658:	00000073          	ecall

000000004101565c <SID_PBVMS_012_ptw_fault_prioritization>:
    4101565c:	107a1137          	lui	x2,0x107a1
    41015660:	000012b7          	lui	x5,0x1
    41015664:	00510133          	add	x2,x2,x5
    41015668:	ff017113          	andi	x2,x2,-16
    4101566c:	0634b237          	lui	x4,0x634b
    41015670:	00d00e13          	li	x28,13
    41015674:	05c23823          	sd	x28,80(x4) # 634b050 <check_excp_expected_cause>
    41015678:	00000e17          	auipc	x28,0x0
    4101567c:	050e0e13          	addi	x28,x28,80 # 410156c8 <fault_label_6>
    41015680:	03c23023          	sd	x28,32(x4) # 20 <SECURE_ACCESS_PROBABILITY+0x2>
    41015684:	00000e13          	li	x28,0
    41015688:	05c23023          	sd	x28,64(x4) # 40 <XLEN>
    4101568c:	00000e13          	li	x28,0
    41015690:	05c23423          	sd	x28,72(x4) # 48 <XLEN+0x8>
    41015694:	00000e17          	auipc	x28,0x0
    41015698:	048e0e13          	addi	x28,x28,72 # 410156dc <excp_return_label_6>
    4101569c:	03c23823          	sd	x28,48(x4) # 30 <SECURE_ACCESS_PROBABILITY+0x12>
    410156a0:	00000e13          	li	x28,0
    410156a4:	03c23c23          	sd	x28,56(x4) # 38 <SECURE_ACCESS_PROBABILITY+0x1a>
    410156a8:	00000e13          	li	x28,0
    410156ac:	07c23023          	sd	x28,96(x4) # 60 <XLEN+0x20>
    410156b0:	00000e13          	li	x28,0
    410156b4:	07c23423          	sd	x28,104(x4) # 68 <XLEN+0x28>
    410156b8:	00000e13          	li	x28,0
    410156bc:	07c23823          	sd	x28,112(x4) # 70 <XLEN+0x30>
    410156c0:	0650039b          	addiw	x7,x0,101
    410156c4:	02739393          	slli	x7,x7,0x27

00000000410156c8 <fault_label_6>:
    410156c8:	00038303          	lb	x6,0(x7)
    410156cc:	0003a9b7          	lui	x19,0x3a
    410156d0:	0089899b          	addiw	x19,x19,8 # 3a008 <failed_addr>
    410156d4:	0009be03          	ld	x28,0(x19)
    410156d8:	000e0067          	jr	x28

00000000410156dc <excp_return_label_6>:
    410156dc:	0634b237          	lui	x4,0x634b
    410156e0:	00d00e13          	li	x28,13
    410156e4:	05c23823          	sd	x28,80(x4) # 634b050 <check_excp_expected_cause>
    410156e8:	00000e17          	auipc	x28,0x0
    410156ec:	050e0e13          	addi	x28,x28,80 # 41015738 <fault_label_7>
    410156f0:	03c23023          	sd	x28,32(x4) # 20 <SECURE_ACCESS_PROBABILITY+0x2>
    410156f4:	00000e13          	li	x28,0
    410156f8:	05c23023          	sd	x28,64(x4) # 40 <XLEN>
    410156fc:	00000e13          	li	x28,0
    41015700:	05c23423          	sd	x28,72(x4) # 48 <XLEN+0x8>
    41015704:	00000e17          	auipc	x28,0x0
    41015708:	048e0e13          	addi	x28,x28,72 # 4101574c <excp_return_label_7>
    4101570c:	03c23823          	sd	x28,48(x4) # 30 <SECURE_ACCESS_PROBABILITY+0x12>
    41015710:	00000e13          	li	x28,0
    41015714:	03c23c23          	sd	x28,56(x4) # 38 <SECURE_ACCESS_PROBABILITY+0x1a>
    41015718:	00000e13          	li	x28,0
    4101571c:	07c23023          	sd	x28,96(x4) # 60 <XLEN+0x20>
    41015720:	00000e13          	li	x28,0
    41015724:	07c23423          	sd	x28,104(x4) # 68 <XLEN+0x28>
    41015728:	00000e13          	li	x28,0
    4101572c:	07c23823          	sd	x28,112(x4) # 70 <XLEN+0x30>
    41015730:	03900f1b          	addiw	x30,x0,57
    41015734:	028f1f13          	slli	x30,x30,0x28

0000000041015738 <fault_label_7>:
    41015738:	000f1983          	lh	x19,0(x30)
    4101573c:	0003ae37          	lui	x28,0x3a
    41015740:	008e0e1b          	addiw	x28,x28,8 # 3a008 <failed_addr>
    41015744:	000e3583          	ld	x11,0(x28)
    41015748:	00058067          	jr	x11

000000004101574c <excp_return_label_7>:
    4101574c:	0634b237          	lui	x4,0x634b
    41015750:	00d00e13          	li	x28,13
    41015754:	05c23823          	sd	x28,80(x4) # 634b050 <check_excp_expected_cause>
    41015758:	00000e17          	auipc	x28,0x0
    4101575c:	050e0e13          	addi	x28,x28,80 # 410157a8 <fault_label_8>
    41015760:	03c23023          	sd	x28,32(x4) # 20 <SECURE_ACCESS_PROBABILITY+0x2>
    41015764:	00000e13          	li	x28,0
    41015768:	05c23023          	sd	x28,64(x4) # 40 <XLEN>
    4101576c:	00000e13          	li	x28,0
    41015770:	05c23423          	sd	x28,72(x4) # 48 <XLEN+0x8>
    41015774:	00000e17          	auipc	x28,0x0
    41015778:	048e0e13          	addi	x28,x28,72 # 410157bc <SID_PBVMS_012_ptw_fault_prioritization_passed>
    4101577c:	03c23823          	sd	x28,48(x4) # 30 <SECURE_ACCESS_PROBABILITY+0x12>
    41015780:	00000e13          	li	x28,0
    41015784:	03c23c23          	sd	x28,56(x4) # 38 <SECURE_ACCESS_PROBABILITY+0x1a>
    41015788:	00000e13          	li	x28,0
    4101578c:	07c23023          	sd	x28,96(x4) # 60 <XLEN+0x20>
    41015790:	00000e13          	li	x28,0
    41015794:	07c23423          	sd	x28,104(x4) # 68 <XLEN+0x28>
    41015798:	00000e13          	li	x28,0
    4101579c:	07c23823          	sd	x28,112(x4) # 70 <XLEN+0x30>
    410157a0:	0010091b          	addiw	x18,x0,1
    410157a4:	02891913          	slli	x18,x18,0x28

00000000410157a8 <fault_label_8>:
    410157a8:	00093a83          	ld	x21,0(x18)
    410157ac:	0003adb7          	lui	x27,0x3a
    410157b0:	008d8d9b          	addiw	x27,x27,8 # 3a008 <failed_addr>
    410157b4:	000db403          	ld	x8,0(x27)
    410157b8:	00040067          	jr	x8

00000000410157bc <SID_PBVMS_012_ptw_fault_prioritization_passed>:
    410157bc:	00f00f9b          	addiw	x31,x0,15
    410157c0:	01cf9f93          	slli	x31,x31,0x1c
    410157c4:	001f8f93          	addi	x31,x31,1
    410157c8:	00000073          	ecall

00000000410157cc <SID_PBVMS_013_ptw_permission_encodings>:
    410157cc:	003c5137          	lui	x2,0x3c5
    410157d0:	000012b7          	lui	x5,0x1
    410157d4:	00510133          	add	x2,x2,x5
    410157d8:	ff017113          	andi	x2,x2,-16
    410157dc:	01f74ab7          	lui	x21,0x1f74
    410157e0:	f17a8a9b          	addiw	x21,x21,-233 # 1f73f17 <mem9__pt_level0+0xe72f17>
    410157e4:	00ca9a93          	slli	x21,x21,0xc
    410157e8:	000ad683          	lhu	x13,0(x21)
    410157ec:	2448e437          	lui	x8,0x2448e
    410157f0:	00043b07          	fld	f22,0(x8) # 2448e000 <mem13>
    410157f4:	2448ef37          	lui	x30,0x2448e
    410157f8:	00037937          	lui	x18,0x37
    410157fc:	3259091b          	addiw	x18,x18,805 # 37325 <mem11__pt_level3+0x26315>
    41015800:	00e91913          	slli	x18,x18,0xe
    41015804:	f1190913          	addi	x18,x18,-239
    41015808:	d2090e53          	fcvt.d.w	f28,x18
    4101580c:	01cf3027          	fsd	f28,0(x30) # 2448e000 <mem13>
    41015810:	0000e537          	lui	x10,0xe
    41015814:	e435051b          	addiw	x10,x10,-445 # de43 <SID_PBVMS_015_global_bit_honoured_stack+0x9e43>
    41015818:	01051513          	slli	x10,x10,0x10
    4101581c:	5ff50513          	addi	x10,x10,1535
    41015820:	00e51513          	slli	x10,x10,0xe
    41015824:	00050303          	lb	x6,0(x10)
    41015828:	010ffd37          	lui	x26,0x10ff
    4101582c:	000d00e7          	jalr	x26 # 10ff000 <code_mem16>
    41015830:	0005ed37          	lui	x26,0x5e
    41015834:	93bd0d1b          	addiw	x26,x26,-1733 # 5d93b <code_mem4+0x493b>
    41015838:	011d1d13          	slli	x26,x26,0x11
    4101583c:	000d5703          	lhu	x14,0(x26)
    41015840:	0005efb7          	lui	x31,0x5e
    41015844:	93bf8f9b          	addiw	x31,x31,-1733 # 5d93b <code_mem4+0x493b>
    41015848:	011f9f93          	slli	x31,x31,0x11
    4101584c:	00050437          	lui	x8,0x50
    41015850:	9074041b          	addiw	x8,x8,-1785 # 4f907 <pma_region_0_size+0xf907>
    41015854:	00d41413          	slli	x8,x8,0xd
    41015858:	bb340413          	addi	x8,x8,-1101
    4101585c:	008fa023          	sw	x8,0(x31)

0000000041015860 <SID_PBVMS_013_ptw_permission_encodings_passed>:
    41015860:	00f00f9b          	addiw	x31,x0,15
    41015864:	01cf9f93          	slli	x31,x31,0x1c
    41015868:	001f8f93          	addi	x31,x31,1
    4101586c:	00000073          	ecall

0000000041015870 <SID_PBVMS_014_mstatus_sum_mxr>:
    41015870:	00fee137          	lui	x2,0xfee
    41015874:	5211011b          	addiw	x2,x2,1313 # fee521 <mem22__pt_level2+0x767521>
    41015878:	00d11113          	slli	x2,x2,0xd
    4101587c:	0003afb7          	lui	x31,0x3a
    41015880:	0a0f8f9b          	addiw	x31,x31,160 # 3a0a0 <machine_csr_jump_table_flags>
    41015884:	00100f13          	li	x30,1
    41015888:	01efb023          	sd	x30,0(x31)
    4101588c:	000f0fb7          	lui	x31,0xf0
    41015890:	001f8f9b          	addiw	x31,x31,1 # f0001 <SID_PBVMS_040_context_table_overflow_stack+0x22001>
    41015894:	00cf9f93          	slli	x31,x31,0xc
    41015898:	005f8f93          	addi	x31,x31,5
    4101589c:	00000073          	ecall
    410158a0:	00713023          	sd	x7,0(x2)
    410158a4:	000de137          	lui	x2,0xde
    410158a8:	b3b1011b          	addiw	x2,x2,-1221 # ddb3b <SID_PBVMS_040_context_table_overflow_stack+0xfb3b>
    410158ac:	00e11113          	slli	x2,x2,0xe
    410158b0:	00b10113          	addi	x2,x2,11
    410158b4:	00d11113          	slli	x2,x2,0xd
    410158b8:	000012b7          	lui	x5,0x1
    410158bc:	00510133          	add	x2,x2,x5
    410158c0:	ff017113          	andi	x2,x2,-16
    410158c4:	000803b7          	lui	x7,0x80
    410158c8:	0003afb7          	lui	x31,0x3a
    410158cc:	0a0f8f9b          	addiw	x31,x31,160 # 3a0a0 <machine_csr_jump_table_flags>
    410158d0:	00200f13          	li	x30,2
    410158d4:	01efb023          	sd	x30,0(x31)
    410158d8:	000f0fb7          	lui	x31,0xf0
    410158dc:	001f8f9b          	addiw	x31,x31,1 # f0001 <SID_PBVMS_040_context_table_overflow_stack+0x22001>
    410158e0:	00cf9f93          	slli	x31,x31,0xc
    410158e4:	005f8f93          	addi	x31,x31,5
    410158e8:	00000073          	ecall
    410158ec:	02d1c5b7          	lui	x11,0x2d1c
    410158f0:	0005e903          	lwu	x18,0(x11) # 2d1c000 <mem18>
    410158f4:	000803b7          	lui	x7,0x80
    410158f8:	0003afb7          	lui	x31,0x3a
    410158fc:	0a0f8f9b          	addiw	x31,x31,160 # 3a0a0 <machine_csr_jump_table_flags>
    41015900:	00300f13          	li	x30,3
    41015904:	01efb023          	sd	x30,0(x31)
    41015908:	000f0fb7          	lui	x31,0xf0
    4101590c:	001f8f9b          	addiw	x31,x31,1 # f0001 <SID_PBVMS_040_context_table_overflow_stack+0x22001>
    41015910:	00cf9f93          	slli	x31,x31,0xc
    41015914:	005f8f93          	addi	x31,x31,5
    41015918:	00000073          	ecall
    4101591c:	0634b237          	lui	x4,0x634b
    41015920:	00d00e13          	li	x28,13
    41015924:	05c23823          	sd	x28,80(x4) # 634b050 <check_excp_expected_cause>
    41015928:	00000e17          	auipc	x28,0x0
    4101592c:	04ce0e13          	addi	x28,x28,76 # 41015974 <fault_label_9>
    41015930:	03c23023          	sd	x28,32(x4) # 20 <SECURE_ACCESS_PROBABILITY+0x2>
    41015934:	00000e13          	li	x28,0
    41015938:	05c23023          	sd	x28,64(x4) # 40 <XLEN>
    4101593c:	00000e13          	li	x28,0
    41015940:	05c23423          	sd	x28,72(x4) # 48 <XLEN+0x8>
    41015944:	00000e17          	auipc	x28,0x0
    41015948:	044e0e13          	addi	x28,x28,68 # 41015988 <excp_return_label_9>
    4101594c:	03c23823          	sd	x28,48(x4) # 30 <SECURE_ACCESS_PROBABILITY+0x12>
    41015950:	00000e13          	li	x28,0
    41015954:	03c23c23          	sd	x28,56(x4) # 38 <SECURE_ACCESS_PROBABILITY+0x1a>
    41015958:	00000e13          	li	x28,0
    4101595c:	07c23023          	sd	x28,96(x4) # 60 <XLEN+0x20>
    41015960:	00000e13          	li	x28,0
    41015964:	07c23423          	sd	x28,104(x4) # 68 <XLEN+0x28>
    41015968:	00000e13          	li	x28,0
    4101596c:	07c23823          	sd	x28,112(x4) # 70 <XLEN+0x30>
    41015970:	02d1c837          	lui	x16,0x2d1c

0000000041015974 <fault_label_9>:
    41015974:	00083487          	fld	f9,0(x16) # 2d1c000 <mem18>
    41015978:	0003aeb7          	lui	x29,0x3a
    4101597c:	008e8e9b          	addiw	x29,x29,8 # 3a008 <failed_addr>
    41015980:	000ebb83          	ld	x23,0(x29)
    41015984:	000b8067          	jr	x23

0000000041015988 <excp_return_label_9>:
    41015988:	000403b7          	lui	x7,0x40
    4101598c:	0003afb7          	lui	x31,0x3a
    41015990:	0a0f8f9b          	addiw	x31,x31,160 # 3a0a0 <machine_csr_jump_table_flags>
    41015994:	00200f13          	li	x30,2
    41015998:	01efb023          	sd	x30,0(x31)
    4101599c:	000f0fb7          	lui	x31,0xf0
    410159a0:	001f8f9b          	addiw	x31,x31,1 # f0001 <SID_PBVMS_040_context_table_overflow_stack+0x22001>
    410159a4:	00cf9f93          	slli	x31,x31,0xc
    410159a8:	005f8f93          	addi	x31,x31,5
    410159ac:	00000073          	ecall
    410159b0:	003435b7          	lui	x11,0x343
    410159b4:	d3b5859b          	addiw	x11,x11,-709 # 342d3b <SID_PBVMS_040_context_table_overflow_stack+0x274d3b>
    410159b8:	00c59593          	slli	x11,x11,0xc
    410159bc:	0005a087          	flw	f1,0(x11)
    410159c0:	000403b7          	lui	x7,0x40
    410159c4:	0003afb7          	lui	x31,0x3a
    410159c8:	0a0f8f9b          	addiw	x31,x31,160 # 3a0a0 <machine_csr_jump_table_flags>
    410159cc:	00300f13          	li	x30,3
    410159d0:	01efb023          	sd	x30,0(x31)
    410159d4:	000f0fb7          	lui	x31,0xf0
    410159d8:	001f8f9b          	addiw	x31,x31,1 # f0001 <SID_PBVMS_040_context_table_overflow_stack+0x22001>
    410159dc:	00cf9f93          	slli	x31,x31,0xc
    410159e0:	005f8f93          	addi	x31,x31,5
    410159e4:	00000073          	ecall
    410159e8:	0634b237          	lui	x4,0x634b
    410159ec:	00d00e13          	li	x28,13
    410159f0:	05c23823          	sd	x28,80(x4) # 634b050 <check_excp_expected_cause>
    410159f4:	00000e17          	auipc	x28,0x0
    410159f8:	054e0e13          	addi	x28,x28,84 # 41015a48 <fault_label_10>
    410159fc:	03c23023          	sd	x28,32(x4) # 20 <SECURE_ACCESS_PROBABILITY+0x2>
    41015a00:	00000e13          	li	x28,0
    41015a04:	05c23023          	sd	x28,64(x4) # 40 <XLEN>
    41015a08:	00000e13          	li	x28,0
    41015a0c:	05c23423          	sd	x28,72(x4) # 48 <XLEN+0x8>
    41015a10:	00000e17          	auipc	x28,0x0
    41015a14:	04ce0e13          	addi	x28,x28,76 # 41015a5c <excp_return_label_10>
    41015a18:	03c23823          	sd	x28,48(x4) # 30 <SECURE_ACCESS_PROBABILITY+0x12>
    41015a1c:	00000e13          	li	x28,0
    41015a20:	03c23c23          	sd	x28,56(x4) # 38 <SECURE_ACCESS_PROBABILITY+0x1a>
    41015a24:	00000e13          	li	x28,0
    41015a28:	07c23023          	sd	x28,96(x4) # 60 <XLEN+0x20>
    41015a2c:	00000e13          	li	x28,0
    41015a30:	07c23423          	sd	x28,104(x4) # 68 <XLEN+0x28>
    41015a34:	00000e13          	li	x28,0
    41015a38:	07c23823          	sd	x28,112(x4) # 70 <XLEN+0x30>
    41015a3c:	00343eb7          	lui	x29,0x343
    41015a40:	d3be8e9b          	addiw	x29,x29,-709 # 342d3b <SID_PBVMS_040_context_table_overflow_stack+0x274d3b>
    41015a44:	00ce9e93          	slli	x29,x29,0xc

0000000041015a48 <fault_label_10>:
    41015a48:	000eae03          	lw	x28,0(x29)
    41015a4c:	0003a637          	lui	x12,0x3a
    41015a50:	0086061b          	addiw	x12,x12,8 # 3a008 <failed_addr>
    41015a54:	00063583          	ld	x11,0(x12)
    41015a58:	00058067          	jr	x11

0000000041015a5c <excp_return_label_10>:
    41015a5c:	00fee137          	lui	x2,0xfee
    41015a60:	5211011b          	addiw	x2,x2,1313 # fee521 <mem22__pt_level2+0x767521>
    41015a64:	00d11113          	slli	x2,x2,0xd
    41015a68:	00013383          	ld	x7,0(x2)
    41015a6c:	0003afb7          	lui	x31,0x3a
    41015a70:	0a0f8f9b          	addiw	x31,x31,160 # 3a0a0 <machine_csr_jump_table_flags>
    41015a74:	00600f13          	li	x30,6
    41015a78:	01efb023          	sd	x30,0(x31)
    41015a7c:	000f0fb7          	lui	x31,0xf0
    41015a80:	001f8f9b          	addiw	x31,x31,1 # f0001 <SID_PBVMS_040_context_table_overflow_stack+0x22001>
    41015a84:	00cf9f93          	slli	x31,x31,0xc
    41015a88:	005f8f93          	addi	x31,x31,5
    41015a8c:	00000073          	ecall

0000000041015a90 <SID_PBVMS_014_mstatus_sum_mxr_passed>:
    41015a90:	00f00f9b          	addiw	x31,x0,15
    41015a94:	01cf9f93          	slli	x31,x31,0x1c
    41015a98:	001f8f93          	addi	x31,x31,1
    41015a9c:	00000073          	ecall

0000000041015aa0 <SID_PBVMS_015_global_bit_honoured>:
    41015aa0:	00fee137          	lui	x2,0xfee
    41015aa4:	5211011b          	addiw	x2,x2,1313 # fee521 <mem22__pt_level2+0x767521>
    41015aa8:	00d11113          	slli	x2,x2,0xd
    41015aac:	0003afb7          	lui	x31,0x3a
    41015ab0:	0a0f8f9b          	addiw	x31,x31,160 # 3a0a0 <machine_csr_jump_table_flags>
    41015ab4:	00700f13          	li	x30,7
    41015ab8:	01efb023          	sd	x30,0(x31)
    41015abc:	000f0fb7          	lui	x31,0xf0
    41015ac0:	001f8f9b          	addiw	x31,x31,1 # f0001 <SID_PBVMS_040_context_table_overflow_stack+0x22001>
    41015ac4:	00cf9f93          	slli	x31,x31,0xc
    41015ac8:	005f8f93          	addi	x31,x31,5
    41015acc:	00000073          	ecall
    41015ad0:	00713023          	sd	x7,0(x2)
    41015ad4:	00004137          	lui	x2,0x4
    41015ad8:	000012b7          	lui	x5,0x1
    41015adc:	00510133          	add	x2,x2,x5
    41015ae0:	ff017113          	andi	x2,x2,-16
    41015ae4:	0003afb7          	lui	x31,0x3a
    41015ae8:	0a8f8f9b          	addiw	x31,x31,168 # 3a0a8 <super_csr_jump_table_flags>
    41015aec:	00800f13          	li	x30,8
    41015af0:	01efb023          	sd	x30,0(x31)
    41015af4:	000f0fb7          	lui	x31,0xf0
    41015af8:	001f8f9b          	addiw	x31,x31,1 # f0001 <SID_PBVMS_040_context_table_overflow_stack+0x22001>
    41015afc:	00cf9f93          	slli	x31,x31,0xc
    41015b00:	006f8f93          	addi	x31,x31,6
    41015b04:	00000073          	ecall
    41015b08:	00038613          	mv	x12,x7
    41015b0c:	00060713          	mv	x14,x12
    41015b10:	00f0039b          	addiw	x7,x0,15
    41015b14:	02c39393          	slli	x7,x7,0x2c
    41015b18:	0003afb7          	lui	x31,0x3a
    41015b1c:	0a8f8f9b          	addiw	x31,x31,168 # 3a0a8 <super_csr_jump_table_flags>
    41015b20:	00900f13          	li	x30,9
    41015b24:	01efb023          	sd	x30,0(x31)
    41015b28:	000f0fb7          	lui	x31,0xf0
    41015b2c:	001f8f9b          	addiw	x31,x31,1 # f0001 <SID_PBVMS_040_context_table_overflow_stack+0x22001>
    41015b30:	00cf9f93          	slli	x31,x31,0xc
    41015b34:	006f8f93          	addi	x31,x31,6
    41015b38:	00000073          	ecall
    41015b3c:	000f2537          	lui	x10,0xf2
    41015b40:	2e75051b          	addiw	x10,x10,743 # f22e7 <SID_PBVMS_040_context_table_overflow_stack+0x242e7>
    41015b44:	00e51513          	slli	x10,x10,0xe
    41015b48:	33d50513          	addi	x10,x10,829
    41015b4c:	00c51513          	slli	x10,x10,0xc
    41015b50:	21b73c37          	lui	x24,0x21b73
    41015b54:	7a2c0c1b          	addiw	x24,x24,1954 # 21b737a2 <SID_PBVMS_012_ptw_fault_prioritization_stack+0x113d27a2>
    41015b58:	01850023          	sb	x24,0(x10)
    41015b5c:	00f0039b          	addiw	x7,x0,15
    41015b60:	02c39393          	slli	x7,x7,0x2c
    41015b64:	0003afb7          	lui	x31,0x3a
    41015b68:	0a8f8f9b          	addiw	x31,x31,168 # 3a0a8 <super_csr_jump_table_flags>
    41015b6c:	00a00f13          	li	x30,10
    41015b70:	01efb023          	sd	x30,0(x31)
    41015b74:	000f0fb7          	lui	x31,0xf0
    41015b78:	001f8f9b          	addiw	x31,x31,1 # f0001 <SID_PBVMS_040_context_table_overflow_stack+0x22001>
    41015b7c:	00cf9f93          	slli	x31,x31,0xc
    41015b80:	006f8f93          	addi	x31,x31,6
    41015b84:	00000073          	ecall
    41015b88:	000f2fb7          	lui	x31,0xf2
    41015b8c:	2e7f8f9b          	addiw	x31,x31,743 # f22e7 <SID_PBVMS_040_context_table_overflow_stack+0x242e7>
    41015b90:	00ef9f93          	slli	x31,x31,0xe
    41015b94:	33df8f93          	addi	x31,x31,829
    41015b98:	00cf9f93          	slli	x31,x31,0xc
    41015b9c:	000fd883          	lhu	x17,0(x31)
    41015ba0:	00070393          	mv	x7,x14
    41015ba4:	0003afb7          	lui	x31,0x3a
    41015ba8:	0a8f8f9b          	addiw	x31,x31,168 # 3a0a8 <super_csr_jump_table_flags>
    41015bac:	00b00f13          	li	x30,11
    41015bb0:	01efb023          	sd	x30,0(x31)
    41015bb4:	000f0fb7          	lui	x31,0xf0
    41015bb8:	001f8f9b          	addiw	x31,x31,1 # f0001 <SID_PBVMS_040_context_table_overflow_stack+0x22001>
    41015bbc:	00cf9f93          	slli	x31,x31,0xc
    41015bc0:	006f8f93          	addi	x31,x31,6
    41015bc4:	00000073          	ecall
    41015bc8:	000f2e37          	lui	x28,0xf2
    41015bcc:	2e7e0e1b          	addiw	x28,x28,743 # f22e7 <SID_PBVMS_040_context_table_overflow_stack+0x242e7>
    41015bd0:	00ee1e13          	slli	x28,x28,0xe
    41015bd4:	33de0e13          	addi	x28,x28,829
    41015bd8:	00ce1e13          	slli	x28,x28,0xc
    41015bdc:	000e0883          	lb	x17,0(x28)
    41015be0:	00fee137          	lui	x2,0xfee
    41015be4:	5211011b          	addiw	x2,x2,1313 # fee521 <mem22__pt_level2+0x767521>
    41015be8:	00d11113          	slli	x2,x2,0xd
    41015bec:	00013383          	ld	x7,0(x2)
    41015bf0:	0003afb7          	lui	x31,0x3a
    41015bf4:	0a0f8f9b          	addiw	x31,x31,160 # 3a0a0 <machine_csr_jump_table_flags>
    41015bf8:	00c00f13          	li	x30,12
    41015bfc:	01efb023          	sd	x30,0(x31)
    41015c00:	000f0fb7          	lui	x31,0xf0
    41015c04:	001f8f9b          	addiw	x31,x31,1 # f0001 <SID_PBVMS_040_context_table_overflow_stack+0x22001>
    41015c08:	00cf9f93          	slli	x31,x31,0xc
    41015c0c:	005f8f93          	addi	x31,x31,5
    41015c10:	00000073          	ecall

0000000041015c14 <SID_PBVMS_015_global_bit_honoured_passed>:
    41015c14:	00f00f9b          	addiw	x31,x0,15
    41015c18:	01cf9f93          	slli	x31,x31,0x1c
    41015c1c:	001f8f93          	addi	x31,x31,1
    41015c20:	00000073          	ecall

0000000041015c24 <SID_PBVMS_017_global_at_non_leaf>:
    41015c24:	00fee137          	lui	x2,0xfee
    41015c28:	5211011b          	addiw	x2,x2,1313 # fee521 <mem22__pt_level2+0x767521>
    41015c2c:	00d11113          	slli	x2,x2,0xd
    41015c30:	0003afb7          	lui	x31,0x3a
    41015c34:	0a0f8f9b          	addiw	x31,x31,160 # 3a0a0 <machine_csr_jump_table_flags>
    41015c38:	00700f13          	li	x30,7
    41015c3c:	01efb023          	sd	x30,0(x31)
    41015c40:	000f0fb7          	lui	x31,0xf0
    41015c44:	001f8f9b          	addiw	x31,x31,1 # f0001 <SID_PBVMS_040_context_table_overflow_stack+0x22001>
    41015c48:	00cf9f93          	slli	x31,x31,0xc
    41015c4c:	005f8f93          	addi	x31,x31,5
    41015c50:	00000073          	ecall
    41015c54:	00713023          	sd	x7,0(x2)
    41015c58:	0009f137          	lui	x2,0x9f
    41015c5c:	000012b7          	lui	x5,0x1
    41015c60:	00510133          	add	x2,x2,x5
    41015c64:	ff017113          	andi	x2,x2,-16
    41015c68:	0003afb7          	lui	x31,0x3a
    41015c6c:	0b0f8f9b          	addiw	x31,x31,176 # 3a0b0 <pte_access_flags>
    41015c70:	0030029b          	addiw	x5,x0,3
    41015c74:	02829293          	slli	x5,x5,0x28
    41015c78:	005fb023          	sd	x5,0(x31)
    41015c7c:	00100293          	li	x5,1
    41015c80:	005fb423          	sd	x5,8(x31)
    41015c84:	fff00293          	li	x5,-1
    41015c88:	005fb823          	sd	x5,16(x31)
    41015c8c:	000f0fb7          	lui	x31,0xf0
    41015c90:	001f8f9b          	addiw	x31,x31,1 # f0001 <SID_PBVMS_040_context_table_overflow_stack+0x22001>
    41015c94:	00cf9f93          	slli	x31,x31,0xc
    41015c98:	007f8f93          	addi	x31,x31,7
    41015c9c:	00000073          	ecall
    41015ca0:	00038393          	mv	x7,x7
    41015ca4:	0003afb7          	lui	x31,0x3a
    41015ca8:	0b0f8f9b          	addiw	x31,x31,176 # 3a0b0 <pte_access_flags>
    41015cac:	0030029b          	addiw	x5,x0,3
    41015cb0:	02829293          	slli	x5,x5,0x28
    41015cb4:	005fb023          	sd	x5,0(x31)
    41015cb8:	00100293          	li	x5,1
    41015cbc:	005fb423          	sd	x5,8(x31)
    41015cc0:	fff00293          	li	x5,-1
    41015cc4:	005fb823          	sd	x5,16(x31)
    41015cc8:	000f0fb7          	lui	x31,0xf0
    41015ccc:	001f8f9b          	addiw	x31,x31,1 # f0001 <SID_PBVMS_040_context_table_overflow_stack+0x22001>
    41015cd0:	00cf9f93          	slli	x31,x31,0xc
    41015cd4:	008f8f93          	addi	x31,x31,8
    41015cd8:	00000073          	ecall
    41015cdc:	0030071b          	addiw	x14,x0,3
    41015ce0:	02871713          	slli	x14,x14,0x28
    41015ce4:	00070f03          	lb	x30,0(x14)
    41015ce8:	0ff0039b          	addiw	x7,x0,255
    41015cec:	02c39393          	slli	x7,x7,0x2c
    41015cf0:	0003afb7          	lui	x31,0x3a
    41015cf4:	0a8f8f9b          	addiw	x31,x31,168 # 3a0a8 <super_csr_jump_table_flags>
    41015cf8:	00900f13          	li	x30,9
    41015cfc:	01efb023          	sd	x30,0(x31)
    41015d00:	000f0fb7          	lui	x31,0xf0
    41015d04:	001f8f9b          	addiw	x31,x31,1 # f0001 <SID_PBVMS_040_context_table_overflow_stack+0x22001>
    41015d08:	00cf9f93          	slli	x31,x31,0xc
    41015d0c:	006f8f93          	addi	x31,x31,6
    41015d10:	00000073          	ecall
    41015d14:	00300b1b          	addiw	x22,x0,3
    41015d18:	028b1b13          	slli	x22,x22,0x28
    41015d1c:	000b1483          	lh	x9,0(x22)
    41015d20:	00fee137          	lui	x2,0xfee
    41015d24:	5211011b          	addiw	x2,x2,1313 # fee521 <mem22__pt_level2+0x767521>
    41015d28:	00d11113          	slli	x2,x2,0xd
    41015d2c:	00013383          	ld	x7,0(x2)
    41015d30:	0003afb7          	lui	x31,0x3a
    41015d34:	0a0f8f9b          	addiw	x31,x31,160 # 3a0a0 <machine_csr_jump_table_flags>
    41015d38:	00c00f13          	li	x30,12
    41015d3c:	01efb023          	sd	x30,0(x31)
    41015d40:	000f0fb7          	lui	x31,0xf0
    41015d44:	001f8f9b          	addiw	x31,x31,1 # f0001 <SID_PBVMS_040_context_table_overflow_stack+0x22001>
    41015d48:	00cf9f93          	slli	x31,x31,0xc
    41015d4c:	005f8f93          	addi	x31,x31,5
    41015d50:	00000073          	ecall

0000000041015d54 <SID_PBVMS_017_global_at_non_leaf_passed>:
    41015d54:	00f00f9b          	addiw	x31,x0,15
    41015d58:	01cf9f93          	slli	x31,x31,0x1c
    41015d5c:	001f8f93          	addi	x31,x31,1
    41015d60:	00000073          	ecall

0000000041015d64 <SID_PBVMS_018_rsw_fields_writable>:
    41015d64:	209cd137          	lui	x2,0x209cd
    41015d68:	7911011b          	addiw	x2,x2,1937 # 209cd791 <SID_PBVMS_012_ptw_fault_prioritization_stack+0x1022c791>
    41015d6c:	00d11113          	slli	x2,x2,0xd
    41015d70:	000012b7          	lui	x5,0x1
    41015d74:	00510133          	add	x2,x2,x5
    41015d78:	ff017113          	andi	x2,x2,-16
    41015d7c:	0003afb7          	lui	x31,0x3a
    41015d80:	0b0f8f9b          	addiw	x31,x31,176 # 3a0b0 <pte_access_flags>
    41015d84:	00b0029b          	addiw	x5,x0,11
    41015d88:	02929293          	slli	x5,x5,0x29
    41015d8c:	005fb023          	sd	x5,0(x31)
    41015d90:	00300293          	li	x5,3
    41015d94:	005fb423          	sd	x5,8(x31)
    41015d98:	fff00293          	li	x5,-1
    41015d9c:	005fb823          	sd	x5,16(x31)
    41015da0:	000f0fb7          	lui	x31,0xf0
    41015da4:	001f8f9b          	addiw	x31,x31,1 # f0001 <SID_PBVMS_040_context_table_overflow_stack+0x22001>
    41015da8:	00cf9f93          	slli	x31,x31,0xc
    41015dac:	007f8f93          	addi	x31,x31,7
    41015db0:	00000073          	ecall
    41015db4:	30000513          	li	x10,768
    41015db8:	00a3ed33          	or	x26,x7,x10
    41015dbc:	000d0393          	mv	x7,x26
    41015dc0:	0003afb7          	lui	x31,0x3a
    41015dc4:	0b0f8f9b          	addiw	x31,x31,176 # 3a0b0 <pte_access_flags>
    41015dc8:	00b0029b          	addiw	x5,x0,11
    41015dcc:	02929293          	slli	x5,x5,0x29
    41015dd0:	005fb023          	sd	x5,0(x31)
    41015dd4:	00300293          	li	x5,3
    41015dd8:	005fb423          	sd	x5,8(x31)
    41015ddc:	fff00293          	li	x5,-1
    41015de0:	005fb823          	sd	x5,16(x31)
    41015de4:	000f0fb7          	lui	x31,0xf0
    41015de8:	001f8f9b          	addiw	x31,x31,1 # f0001 <SID_PBVMS_040_context_table_overflow_stack+0x22001>
    41015dec:	00cf9f93          	slli	x31,x31,0xc
    41015df0:	008f8f93          	addi	x31,x31,8
    41015df4:	00000073          	ecall
    41015df8:	0003afb7          	lui	x31,0x3a
    41015dfc:	0b0f8f9b          	addiw	x31,x31,176 # 3a0b0 <pte_access_flags>
    41015e00:	00b0029b          	addiw	x5,x0,11
    41015e04:	02929293          	slli	x5,x5,0x29
    41015e08:	005fb023          	sd	x5,0(x31)
    41015e0c:	00300293          	li	x5,3
    41015e10:	005fb423          	sd	x5,8(x31)
    41015e14:	fff00293          	li	x5,-1
    41015e18:	005fb823          	sd	x5,16(x31)
    41015e1c:	000f0fb7          	lui	x31,0xf0
    41015e20:	001f8f9b          	addiw	x31,x31,1 # f0001 <SID_PBVMS_040_context_table_overflow_stack+0x22001>
    41015e24:	00cf9f93          	slli	x31,x31,0xc
    41015e28:	007f8f93          	addi	x31,x31,7
    41015e2c:	00000073          	ecall
    41015e30:	00a3f7b3          	and	x15,x7,x10
    41015e34:	00a78a63          	beq	x15,x10,41015e48 <pass_label_0>
    41015e38:	0003aeb7          	lui	x29,0x3a
    41015e3c:	008e8e9b          	addiw	x29,x29,8 # 3a008 <failed_addr>
    41015e40:	000ebf03          	ld	x30,0(x29)
    41015e44:	000f0067          	jr	x30

0000000041015e48 <pass_label_0>:
    41015e48:	0003afb7          	lui	x31,0x3a
    41015e4c:	0b0f8f9b          	addiw	x31,x31,176 # 3a0b0 <pte_access_flags>
    41015e50:	00b0029b          	addiw	x5,x0,11
    41015e54:	02929293          	slli	x5,x5,0x29
    41015e58:	005fb023          	sd	x5,0(x31)
    41015e5c:	00100293          	li	x5,1
    41015e60:	005fb423          	sd	x5,8(x31)
    41015e64:	fff00293          	li	x5,-1
    41015e68:	005fb823          	sd	x5,16(x31)
    41015e6c:	000f0fb7          	lui	x31,0xf0
    41015e70:	001f8f9b          	addiw	x31,x31,1 # f0001 <SID_PBVMS_040_context_table_overflow_stack+0x22001>
    41015e74:	00cf9f93          	slli	x31,x31,0xc
    41015e78:	007f8f93          	addi	x31,x31,7
    41015e7c:	00000073          	ecall
    41015e80:	00a3eeb3          	or	x29,x7,x10
    41015e84:	000e8393          	mv	x7,x29
    41015e88:	0003afb7          	lui	x31,0x3a
    41015e8c:	0b0f8f9b          	addiw	x31,x31,176 # 3a0b0 <pte_access_flags>
    41015e90:	00b0029b          	addiw	x5,x0,11
    41015e94:	02929293          	slli	x5,x5,0x29
    41015e98:	005fb023          	sd	x5,0(x31)
    41015e9c:	00100293          	li	x5,1
    41015ea0:	005fb423          	sd	x5,8(x31)
    41015ea4:	fff00293          	li	x5,-1
    41015ea8:	005fb823          	sd	x5,16(x31)
    41015eac:	000f0fb7          	lui	x31,0xf0
    41015eb0:	001f8f9b          	addiw	x31,x31,1 # f0001 <SID_PBVMS_040_context_table_overflow_stack+0x22001>
    41015eb4:	00cf9f93          	slli	x31,x31,0xc
    41015eb8:	008f8f93          	addi	x31,x31,8
    41015ebc:	00000073          	ecall
    41015ec0:	00b00a1b          	addiw	x20,x0,11
    41015ec4:	029a1a13          	slli	x20,x20,0x29
    41015ec8:	000a5883          	lhu	x17,0(x20)

0000000041015ecc <SID_PBVMS_018_rsw_fields_writable_passed>:
    41015ecc:	00f00f9b          	addiw	x31,x0,15
    41015ed0:	01cf9f93          	slli	x31,x31,0x1c
    41015ed4:	001f8f93          	addi	x31,x31,1
    41015ed8:	00000073          	ecall

0000000041015edc <SID_PBVMS_021_satp_valid_to_reserved>:
    41015edc:	00fee137          	lui	x2,0xfee
    41015ee0:	5211011b          	addiw	x2,x2,1313 # fee521 <mem22__pt_level2+0x767521>
    41015ee4:	00d11113          	slli	x2,x2,0xd
    41015ee8:	0003afb7          	lui	x31,0x3a
    41015eec:	0a0f8f9b          	addiw	x31,x31,160 # 3a0a0 <machine_csr_jump_table_flags>
    41015ef0:	00700f13          	li	x30,7
    41015ef4:	01efb023          	sd	x30,0(x31)
    41015ef8:	000f0fb7          	lui	x31,0xf0
    41015efc:	001f8f9b          	addiw	x31,x31,1 # f0001 <SID_PBVMS_040_context_table_overflow_stack+0x22001>
    41015f00:	00cf9f93          	slli	x31,x31,0xc
    41015f04:	005f8f93          	addi	x31,x31,5
    41015f08:	00000073          	ecall
    41015f0c:	00713023          	sd	x7,0(x2)
    41015f10:	0001e137          	lui	x2,0x1e
    41015f14:	7b71011b          	addiw	x2,x2,1975 # 1e7b7 <mem11__pt_level3+0xd7a7>
    41015f18:	00f11113          	slli	x2,x2,0xf
    41015f1c:	000012b7          	lui	x5,0x1
    41015f20:	00510133          	add	x2,x2,x5
    41015f24:	ff017113          	andi	x2,x2,-16
    41015f28:	0003afb7          	lui	x31,0x3a
    41015f2c:	0a8f8f9b          	addiw	x31,x31,168 # 3a0a8 <super_csr_jump_table_flags>
    41015f30:	00800f13          	li	x30,8
    41015f34:	01efb023          	sd	x30,0(x31)
    41015f38:	000f0fb7          	lui	x31,0xf0
    41015f3c:	001f8f9b          	addiw	x31,x31,1 # f0001 <SID_PBVMS_040_context_table_overflow_stack+0x22001>
    41015f40:	00cf9f93          	slli	x31,x31,0xc
    41015f44:	006f8f93          	addi	x31,x31,6
    41015f48:	00000073          	ecall
    41015f4c:	00038e93          	mv	x29,x7
    41015f50:	00100a1b          	addiw	x20,x0,1
    41015f54:	03da1a13          	slli	x20,x20,0x3d
    41015f58:	000a0393          	mv	x7,x20
    41015f5c:	0003afb7          	lui	x31,0x3a
    41015f60:	0a8f8f9b          	addiw	x31,x31,168 # 3a0a8 <super_csr_jump_table_flags>
    41015f64:	00b00f13          	li	x30,11
    41015f68:	01efb023          	sd	x30,0(x31)
    41015f6c:	000f0fb7          	lui	x31,0xf0
    41015f70:	001f8f9b          	addiw	x31,x31,1 # f0001 <SID_PBVMS_040_context_table_overflow_stack+0x22001>
    41015f74:	00cf9f93          	slli	x31,x31,0xc
    41015f78:	006f8f93          	addi	x31,x31,6
    41015f7c:	00000073          	ecall
    41015f80:	0003afb7          	lui	x31,0x3a
    41015f84:	0a8f8f9b          	addiw	x31,x31,168 # 3a0a8 <super_csr_jump_table_flags>
    41015f88:	00800f13          	li	x30,8
    41015f8c:	01efb023          	sd	x30,0(x31)
    41015f90:	000f0fb7          	lui	x31,0xf0
    41015f94:	001f8f9b          	addiw	x31,x31,1 # f0001 <SID_PBVMS_040_context_table_overflow_stack+0x22001>
    41015f98:	00cf9f93          	slli	x31,x31,0xc
    41015f9c:	006f8f93          	addi	x31,x31,6
    41015fa0:	00000073          	ecall
    41015fa4:	00038793          	mv	x15,x7
    41015fa8:	00fe8a63          	beq	x29,x15,41015fbc <pass_label_1>
    41015fac:	0003acb7          	lui	x25,0x3a
    41015fb0:	008c8c9b          	addiw	x25,x25,8 # 3a008 <failed_addr>
    41015fb4:	000cb783          	ld	x15,0(x25)
    41015fb8:	00078067          	jr	x15 # e600000 <mem8>

0000000041015fbc <pass_label_1>:
    41015fbc:	00fee137          	lui	x2,0xfee
    41015fc0:	5211011b          	addiw	x2,x2,1313 # fee521 <mem22__pt_level2+0x767521>
    41015fc4:	00d11113          	slli	x2,x2,0xd
    41015fc8:	00013383          	ld	x7,0(x2)
    41015fcc:	0003afb7          	lui	x31,0x3a
    41015fd0:	0a0f8f9b          	addiw	x31,x31,160 # 3a0a0 <machine_csr_jump_table_flags>
    41015fd4:	00c00f13          	li	x30,12
    41015fd8:	01efb023          	sd	x30,0(x31)
    41015fdc:	000f0fb7          	lui	x31,0xf0
    41015fe0:	001f8f9b          	addiw	x31,x31,1 # f0001 <SID_PBVMS_040_context_table_overflow_stack+0x22001>
    41015fe4:	00cf9f93          	slli	x31,x31,0xc
    41015fe8:	005f8f93          	addi	x31,x31,5
    41015fec:	00000073          	ecall

0000000041015ff0 <SID_PBVMS_021_satp_valid_to_reserved_passed>:
    41015ff0:	00f00f9b          	addiw	x31,x0,15
    41015ff4:	01cf9f93          	slli	x31,x31,0x1c
    41015ff8:	001f8f93          	addi	x31,x31,1
    41015ffc:	00000073          	ecall

0000000041016000 <SID_PBVMS_022_satp_csr_accessibility>:
    41016000:	00fee137          	lui	x2,0xfee
    41016004:	5211011b          	addiw	x2,x2,1313 # fee521 <mem22__pt_level2+0x767521>
    41016008:	00d11113          	slli	x2,x2,0xd
    4101600c:	0003afb7          	lui	x31,0x3a
    41016010:	0a0f8f9b          	addiw	x31,x31,160 # 3a0a0 <machine_csr_jump_table_flags>
    41016014:	00700f13          	li	x30,7
    41016018:	01efb023          	sd	x30,0(x31)
    4101601c:	000f0fb7          	lui	x31,0xf0
    41016020:	001f8f9b          	addiw	x31,x31,1 # f0001 <SID_PBVMS_040_context_table_overflow_stack+0x22001>
    41016024:	00cf9f93          	slli	x31,x31,0xc
    41016028:	005f8f93          	addi	x31,x31,5
    4101602c:	00000073          	ecall
    41016030:	00713023          	sd	x7,0(x2)
    41016034:	006e9137          	lui	x2,0x6e9
    41016038:	000012b7          	lui	x5,0x1
    4101603c:	00510133          	add	x2,x2,x5
    41016040:	ff017113          	andi	x2,x2,-16
    41016044:	0003afb7          	lui	x31,0x3a
    41016048:	0a8f8f9b          	addiw	x31,x31,168 # 3a0a8 <super_csr_jump_table_flags>
    4101604c:	00800f13          	li	x30,8
    41016050:	01efb023          	sd	x30,0(x31)
    41016054:	000f0fb7          	lui	x31,0xf0
    41016058:	001f8f9b          	addiw	x31,x31,1 # f0001 <SID_PBVMS_040_context_table_overflow_stack+0x22001>
    4101605c:	00cf9f93          	slli	x31,x31,0xc
    41016060:	006f8f93          	addi	x31,x31,6
    41016064:	00000073          	ecall
    41016068:	00038313          	mv	x6,x7
    4101606c:	00030393          	mv	x7,x6
    41016070:	0003afb7          	lui	x31,0x3a
    41016074:	0a8f8f9b          	addiw	x31,x31,168 # 3a0a8 <super_csr_jump_table_flags>
    41016078:	00b00f13          	li	x30,11
    4101607c:	01efb023          	sd	x30,0(x31)
    41016080:	000f0fb7          	lui	x31,0xf0
    41016084:	001f8f9b          	addiw	x31,x31,1 # f0001 <SID_PBVMS_040_context_table_overflow_stack+0x22001>
    41016088:	00cf9f93          	slli	x31,x31,0xc
    4101608c:	006f8f93          	addi	x31,x31,6
    41016090:	00000073          	ecall
    41016094:	00fee137          	lui	x2,0xfee
    41016098:	5211011b          	addiw	x2,x2,1313 # fee521 <mem22__pt_level2+0x767521>
    4101609c:	00d11113          	slli	x2,x2,0xd
    410160a0:	00013383          	ld	x7,0(x2)
    410160a4:	0003afb7          	lui	x31,0x3a
    410160a8:	0a0f8f9b          	addiw	x31,x31,160 # 3a0a0 <machine_csr_jump_table_flags>
    410160ac:	00c00f13          	li	x30,12
    410160b0:	01efb023          	sd	x30,0(x31)
    410160b4:	000f0fb7          	lui	x31,0xf0
    410160b8:	001f8f9b          	addiw	x31,x31,1 # f0001 <SID_PBVMS_040_context_table_overflow_stack+0x22001>
    410160bc:	00cf9f93          	slli	x31,x31,0xc
    410160c0:	005f8f93          	addi	x31,x31,5
    410160c4:	00000073          	ecall

00000000410160c8 <SID_PBVMS_022_satp_csr_accessibility_passed>:
    410160c8:	00f00f9b          	addiw	x31,x0,15
    410160cc:	01cf9f93          	slli	x31,x31,0x1c
    410160d0:	001f8f93          	addi	x31,x31,1
    410160d4:	00000073          	ecall

00000000410160d8 <SID_PBVMS_023_satp_asidlen_discovery>:
    410160d8:	00fee137          	lui	x2,0xfee
    410160dc:	5211011b          	addiw	x2,x2,1313 # fee521 <mem22__pt_level2+0x767521>
    410160e0:	00d11113          	slli	x2,x2,0xd
    410160e4:	0003afb7          	lui	x31,0x3a
    410160e8:	0a0f8f9b          	addiw	x31,x31,160 # 3a0a0 <machine_csr_jump_table_flags>
    410160ec:	00700f13          	li	x30,7
    410160f0:	01efb023          	sd	x30,0(x31)
    410160f4:	000f0fb7          	lui	x31,0xf0
    410160f8:	001f8f9b          	addiw	x31,x31,1 # f0001 <SID_PBVMS_040_context_table_overflow_stack+0x22001>
    410160fc:	00cf9f93          	slli	x31,x31,0xc
    41016100:	005f8f93          	addi	x31,x31,5
    41016104:	00000073          	ecall
    41016108:	00713023          	sd	x7,0(x2)
    4101610c:	00164137          	lui	x2,0x164
    41016110:	20b1011b          	addiw	x2,x2,523 # 16420b <SID_PBVMS_040_context_table_overflow_stack+0x9620b>
    41016114:	00d11113          	slli	x2,x2,0xd
    41016118:	000012b7          	lui	x5,0x1
    4101611c:	00510133          	add	x2,x2,x5
    41016120:	ff017113          	andi	x2,x2,-16
    41016124:	0003afb7          	lui	x31,0x3a
    41016128:	0a8f8f9b          	addiw	x31,x31,168 # 3a0a8 <super_csr_jump_table_flags>
    4101612c:	00800f13          	li	x30,8
    41016130:	01efb023          	sd	x30,0(x31)
    41016134:	000f0fb7          	lui	x31,0xf0
    41016138:	001f8f9b          	addiw	x31,x31,1 # f0001 <SID_PBVMS_040_context_table_overflow_stack+0x22001>
    4101613c:	00cf9f93          	slli	x31,x31,0xc
    41016140:	006f8f93          	addi	x31,x31,6
    41016144:	00000073          	ecall
    41016148:	00038593          	mv	x11,x7
    4101614c:	00010437          	lui	x8,0x10
    41016150:	fff4041b          	addiw	x8,x8,-1 # ffff <SID_PBVMS_015_global_bit_honoured_stack+0xbfff>
    41016154:	02c41413          	slli	x8,x8,0x2c
    41016158:	0085eab3          	or	x21,x11,x8
    4101615c:	000a8393          	mv	x7,x21
    41016160:	0003afb7          	lui	x31,0x3a
    41016164:	0a8f8f9b          	addiw	x31,x31,168 # 3a0a8 <super_csr_jump_table_flags>
    41016168:	00b00f13          	li	x30,11
    4101616c:	01efb023          	sd	x30,0(x31)
    41016170:	000f0fb7          	lui	x31,0xf0
    41016174:	001f8f9b          	addiw	x31,x31,1 # f0001 <SID_PBVMS_040_context_table_overflow_stack+0x22001>
    41016178:	00cf9f93          	slli	x31,x31,0xc
    4101617c:	006f8f93          	addi	x31,x31,6
    41016180:	00000073          	ecall
    41016184:	0003afb7          	lui	x31,0x3a
    41016188:	0a8f8f9b          	addiw	x31,x31,168 # 3a0a8 <super_csr_jump_table_flags>
    4101618c:	00800f13          	li	x30,8
    41016190:	01efb023          	sd	x30,0(x31)
    41016194:	000f0fb7          	lui	x31,0xf0
    41016198:	001f8f9b          	addiw	x31,x31,1 # f0001 <SID_PBVMS_040_context_table_overflow_stack+0x22001>
    4101619c:	00cf9f93          	slli	x31,x31,0xc
    410161a0:	006f8f93          	addi	x31,x31,6
    410161a4:	00000073          	ecall
    410161a8:	00038b93          	mv	x23,x7
    410161ac:	02c00713          	li	x14,44
    410161b0:	00ebd633          	srl	x12,x23,x14
    410161b4:	00010eb7          	lui	x29,0x10
    410161b8:	fffe8e9b          	addiw	x29,x29,-1 # ffff <SID_PBVMS_015_global_bit_honoured_stack+0xbfff>
    410161bc:	01d67733          	and	x14,x12,x29
    410161c0:	01d70a63          	beq	x14,x29,410161d4 <pass_label_2>
    410161c4:	0003a537          	lui	x10,0x3a
    410161c8:	0085051b          	addiw	x10,x10,8 # 3a008 <failed_addr>
    410161cc:	00053983          	ld	x19,0(x10)
    410161d0:	00098067          	jr	x19

00000000410161d4 <pass_label_2>:
    410161d4:	00fee137          	lui	x2,0xfee
    410161d8:	5211011b          	addiw	x2,x2,1313 # fee521 <mem22__pt_level2+0x767521>
    410161dc:	00d11113          	slli	x2,x2,0xd
    410161e0:	00013383          	ld	x7,0(x2)
    410161e4:	0003afb7          	lui	x31,0x3a
    410161e8:	0a0f8f9b          	addiw	x31,x31,160 # 3a0a0 <machine_csr_jump_table_flags>
    410161ec:	00c00f13          	li	x30,12
    410161f0:	01efb023          	sd	x30,0(x31)
    410161f4:	000f0fb7          	lui	x31,0xf0
    410161f8:	001f8f9b          	addiw	x31,x31,1 # f0001 <SID_PBVMS_040_context_table_overflow_stack+0x22001>
    410161fc:	00cf9f93          	slli	x31,x31,0xc
    41016200:	005f8f93          	addi	x31,x31,5
    41016204:	00000073          	ecall

0000000041016208 <SID_PBVMS_023_satp_asidlen_discovery_passed>:
    41016208:	00f00f9b          	addiw	x31,x0,15
    4101620c:	01cf9f93          	slli	x31,x31,0x1c
    41016210:	001f8f93          	addi	x31,x31,1
    41016214:	00000073          	ecall

0000000041016218 <SID_PBVMS_027_satp_user_mode_fault>:
    41016218:	0be02137          	lui	x2,0xbe02
    4101621c:	8971011b          	addiw	x2,x2,-1897 # be01897 <mem3+0x2e01897>
    41016220:	00c11113          	slli	x2,x2,0xc
    41016224:	000012b7          	lui	x5,0x1
    41016228:	00510133          	add	x2,x2,x5
    4101622c:	ff017113          	andi	x2,x2,-16
    41016230:	0634b237          	lui	x4,0x634b
    41016234:	00200e13          	li	x28,2
    41016238:	05c23823          	sd	x28,80(x4) # 634b050 <check_excp_expected_cause>
    4101623c:	00000e17          	auipc	x28,0x0
    41016240:	048e0e13          	addi	x28,x28,72 # 41016284 <fault_label_11>
    41016244:	03c23023          	sd	x28,32(x4) # 20 <SECURE_ACCESS_PROBABILITY+0x2>
    41016248:	00000e13          	li	x28,0
    4101624c:	05c23023          	sd	x28,64(x4) # 40 <XLEN>
    41016250:	00000e13          	li	x28,0
    41016254:	05c23423          	sd	x28,72(x4) # 48 <XLEN+0x8>
    41016258:	00000e17          	auipc	x28,0x0
    4101625c:	044e0e13          	addi	x28,x28,68 # 4101629c <excp_return_label_11>
    41016260:	03c23823          	sd	x28,48(x4) # 30 <SECURE_ACCESS_PROBABILITY+0x12>
    41016264:	00000e13          	li	x28,0
    41016268:	03c23c23          	sd	x28,56(x4) # 38 <SECURE_ACCESS_PROBABILITY+0x1a>
    4101626c:	00000e13          	li	x28,0
    41016270:	07c23023          	sd	x28,96(x4) # 60 <XLEN+0x20>
    41016274:	00000e13          	li	x28,0
    41016278:	07c23423          	sd	x28,104(x4) # 68 <XLEN+0x28>
    4101627c:	00000e13          	li	x28,0
    41016280:	07c23823          	sd	x28,112(x4) # 70 <XLEN+0x30>

0000000041016284 <fault_label_11>:
    41016284:	180023f3          	csrr	x7,satp
    41016288:	00038513          	mv	x10,x7
    4101628c:	0003a5b7          	lui	x11,0x3a
    41016290:	0085859b          	addiw	x11,x11,8 # 3a008 <failed_addr>
    41016294:	0005b303          	ld	x6,0(x11)
    41016298:	00030067          	jr	x6 # e600000 <mem8>

000000004101629c <excp_return_label_11>:
    4101629c:	0634b237          	lui	x4,0x634b
    410162a0:	00200e13          	li	x28,2
    410162a4:	05c23823          	sd	x28,80(x4) # 634b050 <check_excp_expected_cause>
    410162a8:	00000e17          	auipc	x28,0x0
    410162ac:	04ce0e13          	addi	x28,x28,76 # 410162f4 <fault_label_12>
    410162b0:	03c23023          	sd	x28,32(x4) # 20 <SECURE_ACCESS_PROBABILITY+0x2>
    410162b4:	00000e13          	li	x28,0
    410162b8:	05c23023          	sd	x28,64(x4) # 40 <XLEN>
    410162bc:	00000e13          	li	x28,0
    410162c0:	05c23423          	sd	x28,72(x4) # 48 <XLEN+0x8>
    410162c4:	00000e17          	auipc	x28,0x0
    410162c8:	044e0e13          	addi	x28,x28,68 # 41016308 <SID_PBVMS_027_satp_user_mode_fault_passed>
    410162cc:	03c23823          	sd	x28,48(x4) # 30 <SECURE_ACCESS_PROBABILITY+0x12>
    410162d0:	00000e13          	li	x28,0
    410162d4:	03c23c23          	sd	x28,56(x4) # 38 <SECURE_ACCESS_PROBABILITY+0x1a>
    410162d8:	00000e13          	li	x28,0
    410162dc:	07c23023          	sd	x28,96(x4) # 60 <XLEN+0x20>
    410162e0:	00000e13          	li	x28,0
    410162e4:	07c23423          	sd	x28,104(x4) # 68 <XLEN+0x28>
    410162e8:	00000e13          	li	x28,0
    410162ec:	07c23823          	sd	x28,112(x4) # 70 <XLEN+0x30>
    410162f0:	00000393          	li	x7,0

00000000410162f4 <fault_label_12>:
    410162f4:	180393f3          	csrrw	x7,satp,x7
    410162f8:	0003a7b7          	lui	x15,0x3a
    410162fc:	0087879b          	addiw	x15,x15,8 # 3a008 <failed_addr>
    41016300:	0007b383          	ld	x7,0(x15)
    41016304:	00038067          	jr	x7 # 40000 <pma_region_0_size>

0000000041016308 <SID_PBVMS_027_satp_user_mode_fault_passed>:
    41016308:	00f00f9b          	addiw	x31,x0,15
    4101630c:	01cf9f93          	slli	x31,x31,0x1c
    41016310:	001f8f93          	addi	x31,x31,1
    41016314:	00000073          	ecall

0000000041016318 <SID_PBVMS_040_context_table_overflow>:
    41016318:	00fee137          	lui	x2,0xfee
    4101631c:	5211011b          	addiw	x2,x2,1313 # fee521 <mem22__pt_level2+0x767521>
    41016320:	00d11113          	slli	x2,x2,0xd
    41016324:	0003afb7          	lui	x31,0x3a
    41016328:	0a0f8f9b          	addiw	x31,x31,160 # 3a0a0 <machine_csr_jump_table_flags>
    4101632c:	00700f13          	li	x30,7
    41016330:	01efb023          	sd	x30,0(x31)
    41016334:	000f0fb7          	lui	x31,0xf0
    41016338:	001f8f9b          	addiw	x31,x31,1 # f0001 <SID_PBVMS_040_context_table_overflow_stack+0x22001>
    4101633c:	00cf9f93          	slli	x31,x31,0xc
    41016340:	005f8f93          	addi	x31,x31,5
    41016344:	00000073          	ecall
    41016348:	00713023          	sd	x7,0(x2)
    4101634c:	000ce137          	lui	x2,0xce
    41016350:	000012b7          	lui	x5,0x1
    41016354:	00510133          	add	x2,x2,x5
    41016358:	ff017113          	andi	x2,x2,-16
    4101635c:	0010039b          	addiw	x7,x0,1
    41016360:	02c39393          	slli	x7,x7,0x2c
    41016364:	0003afb7          	lui	x31,0x3a
    41016368:	0a8f8f9b          	addiw	x31,x31,168 # 3a0a8 <super_csr_jump_table_flags>
    4101636c:	00900f13          	li	x30,9
    41016370:	01efb023          	sd	x30,0(x31)
    41016374:	000f0fb7          	lui	x31,0xf0
    41016378:	001f8f9b          	addiw	x31,x31,1 # f0001 <SID_PBVMS_040_context_table_overflow_stack+0x22001>
    4101637c:	00cf9f93          	slli	x31,x31,0xc
    41016380:	006f8f93          	addi	x31,x31,6
    41016384:	00000073          	ecall
    41016388:	71970e37          	lui	x28,0x71970
    4101638c:	000e1a83          	lh	x21,0(x28) # 71970000 <mem23>
    41016390:	0015cb37          	lui	x22,0x15c
    41016394:	b5db0b1b          	addiw	x22,x22,-1187 # 15bb5d <SID_PBVMS_040_context_table_overflow_stack+0x8db5d>
    41016398:	00cb1b13          	slli	x22,x22,0xc
    4101639c:	000b00e7          	jalr	x22
    410163a0:	0010039b          	addiw	x7,x0,1
    410163a4:	02d39393          	slli	x7,x7,0x2d
    410163a8:	0003afb7          	lui	x31,0x3a
    410163ac:	0a8f8f9b          	addiw	x31,x31,168 # 3a0a8 <super_csr_jump_table_flags>
    410163b0:	00900f13          	li	x30,9
    410163b4:	01efb023          	sd	x30,0(x31)
    410163b8:	000f0fb7          	lui	x31,0xf0
    410163bc:	001f8f9b          	addiw	x31,x31,1 # f0001 <SID_PBVMS_040_context_table_overflow_stack+0x22001>
    410163c0:	00cf9f93          	slli	x31,x31,0xc
    410163c4:	006f8f93          	addi	x31,x31,6
    410163c8:	00000073          	ecall
    410163cc:	71970837          	lui	x16,0x71970
    410163d0:	00084d83          	lbu	x27,0(x16) # 71970000 <mem23>
    410163d4:	0015ce37          	lui	x28,0x15c
    410163d8:	b5de0e1b          	addiw	x28,x28,-1187 # 15bb5d <SID_PBVMS_040_context_table_overflow_stack+0x8db5d>
    410163dc:	00ce1e13          	slli	x28,x28,0xc
    410163e0:	000e00e7          	jalr	x28
    410163e4:	0030039b          	addiw	x7,x0,3
    410163e8:	02c39393          	slli	x7,x7,0x2c
    410163ec:	0003afb7          	lui	x31,0x3a
    410163f0:	0a8f8f9b          	addiw	x31,x31,168 # 3a0a8 <super_csr_jump_table_flags>
    410163f4:	00900f13          	li	x30,9
    410163f8:	01efb023          	sd	x30,0(x31)
    410163fc:	000f0fb7          	lui	x31,0xf0
    41016400:	001f8f9b          	addiw	x31,x31,1 # f0001 <SID_PBVMS_040_context_table_overflow_stack+0x22001>
    41016404:	00cf9f93          	slli	x31,x31,0xc
    41016408:	006f8f93          	addi	x31,x31,6
    4101640c:	00000073          	ecall
    41016410:	71970a37          	lui	x20,0x71970
    41016414:	000a1683          	lh	x13,0(x20) # 71970000 <mem23>
    41016418:	0015cdb7          	lui	x27,0x15c
    4101641c:	b5dd8d9b          	addiw	x27,x27,-1187 # 15bb5d <SID_PBVMS_040_context_table_overflow_stack+0x8db5d>
    41016420:	00cd9d93          	slli	x27,x27,0xc
    41016424:	000d80e7          	jalr	x27
    41016428:	0010039b          	addiw	x7,x0,1
    4101642c:	02e39393          	slli	x7,x7,0x2e
    41016430:	0003afb7          	lui	x31,0x3a
    41016434:	0a8f8f9b          	addiw	x31,x31,168 # 3a0a8 <super_csr_jump_table_flags>
    41016438:	00900f13          	li	x30,9
    4101643c:	01efb023          	sd	x30,0(x31)
    41016440:	000f0fb7          	lui	x31,0xf0
    41016444:	001f8f9b          	addiw	x31,x31,1 # f0001 <SID_PBVMS_040_context_table_overflow_stack+0x22001>
    41016448:	00cf9f93          	slli	x31,x31,0xc
    4101644c:	006f8f93          	addi	x31,x31,6
    41016450:	00000073          	ecall
    41016454:	71970db7          	lui	x27,0x71970
    41016458:	000d8703          	lb	x14,0(x27) # 71970000 <mem23>
    4101645c:	0015c3b7          	lui	x7,0x15c
    41016460:	b5d3839b          	addiw	x7,x7,-1187 # 15bb5d <SID_PBVMS_040_context_table_overflow_stack+0x8db5d>
    41016464:	00c39393          	slli	x7,x7,0xc
    41016468:	000380e7          	jalr	x7
    4101646c:	0010039b          	addiw	x7,x0,1
    41016470:	02c39393          	slli	x7,x7,0x2c
    41016474:	0003afb7          	lui	x31,0x3a
    41016478:	0a8f8f9b          	addiw	x31,x31,168 # 3a0a8 <super_csr_jump_table_flags>
    4101647c:	00900f13          	li	x30,9
    41016480:	01efb023          	sd	x30,0(x31)
    41016484:	000f0fb7          	lui	x31,0xf0
    41016488:	001f8f9b          	addiw	x31,x31,1 # f0001 <SID_PBVMS_040_context_table_overflow_stack+0x22001>
    4101648c:	00cf9f93          	slli	x31,x31,0xc
    41016490:	006f8f93          	addi	x31,x31,6
    41016494:	00000073          	ecall
    41016498:	719703b7          	lui	x7,0x71970
    4101649c:	0003a707          	flw	f14,0(x7) # 71970000 <mem23>
    410164a0:	0015cd37          	lui	x26,0x15c
    410164a4:	b5dd0d1b          	addiw	x26,x26,-1187 # 15bb5d <SID_PBVMS_040_context_table_overflow_stack+0x8db5d>
    410164a8:	00cd1d13          	slli	x26,x26,0xc
    410164ac:	000d00e7          	jalr	x26
    410164b0:	00fee137          	lui	x2,0xfee
    410164b4:	5211011b          	addiw	x2,x2,1313 # fee521 <mem22__pt_level2+0x767521>
    410164b8:	00d11113          	slli	x2,x2,0xd
    410164bc:	00013383          	ld	x7,0(x2)
    410164c0:	0003afb7          	lui	x31,0x3a
    410164c4:	0a0f8f9b          	addiw	x31,x31,160 # 3a0a0 <machine_csr_jump_table_flags>
    410164c8:	00c00f13          	li	x30,12
    410164cc:	01efb023          	sd	x30,0(x31)
    410164d0:	000f0fb7          	lui	x31,0xf0
    410164d4:	001f8f9b          	addiw	x31,x31,1 # f0001 <SID_PBVMS_040_context_table_overflow_stack+0x22001>
    410164d8:	00cf9f93          	slli	x31,x31,0xc
    410164dc:	005f8f93          	addi	x31,x31,5
    410164e0:	00000073          	ecall

00000000410164e4 <SID_PBVMS_040_context_table_overflow_passed>:
    410164e4:	00f00f9b          	addiw	x31,x0,15
    410164e8:	01cf9f93          	slli	x31,x31,0x1c
    410164ec:	001f8f93          	addi	x31,x31,1
    410164f0:	00000073          	ecall

00000000410164f4 <SID_PBVMS_042_canonical_boundary_crossing_fault>:
    410164f4:	03e08137          	lui	x2,0x3e08
    410164f8:	000012b7          	lui	x5,0x1
    410164fc:	00510133          	add	x2,x2,x5
    41016500:	ff017113          	andi	x2,x2,-16
    41016504:	0634b237          	lui	x4,0x634b
    41016508:	00d00e13          	li	x28,13
    4101650c:	05c23823          	sd	x28,80(x4) # 634b050 <check_excp_expected_cause>
    41016510:	00000e17          	auipc	x28,0x0
    41016514:	068e0e13          	addi	x28,x28,104 # 41016578 <fault_label_13>
    41016518:	03c23023          	sd	x28,32(x4) # 20 <SECURE_ACCESS_PROBABILITY+0x2>
    4101651c:	00000e13          	li	x28,0
    41016520:	05c23023          	sd	x28,64(x4) # 40 <XLEN>
    41016524:	00000e13          	li	x28,0
    41016528:	05c23423          	sd	x28,72(x4) # 48 <XLEN+0x8>
    4101652c:	00000e17          	auipc	x28,0x0
    41016530:	060e0e13          	addi	x28,x28,96 # 4101658c <SID_PBVMS_042_canonical_boundary_crossing_fault_passed>
    41016534:	03c23823          	sd	x28,48(x4) # 30 <SECURE_ACCESS_PROBABILITY+0x12>
    41016538:	00000e13          	li	x28,0
    4101653c:	03c23c23          	sd	x28,56(x4) # 38 <SECURE_ACCESS_PROBABILITY+0x1a>
    41016540:	00000e13          	li	x28,0
    41016544:	07c23023          	sd	x28,96(x4) # 60 <XLEN+0x20>
    41016548:	00000e13          	li	x28,0
    4101654c:	07c23423          	sd	x28,104(x4) # 68 <XLEN+0x28>
    41016550:	00000e13          	li	x28,0
    41016554:	07c23823          	sd	x28,112(x4) # 70 <XLEN+0x30>
    41016558:	00003337          	lui	x6,0x3
    4101655c:	7433031b          	addiw	x6,x6,1859 # 3743 <_all_interrupts+0xc99>
    41016560:	01331313          	slli	x6,x6,0x13
    41016564:	e7130313          	addi	x6,x6,-399
    41016568:	00e31313          	slli	x6,x6,0xe
    4101656c:	fff00c9b          	addiw	x25,x0,-1
    41016570:	03fc9c93          	slli	x25,x25,0x3f
    41016574:	01930d33          	add	x26,x6,x25

0000000041016578 <fault_label_13>:
    41016578:	000d2107          	flw	f2,0(x26)
    4101657c:	0003aa37          	lui	x20,0x3a
    41016580:	008a0a1b          	addiw	x20,x20,8 # 3a008 <failed_addr>
    41016584:	000a3c03          	ld	x24,0(x20)
    41016588:	000c0067          	jr	x24

000000004101658c <SID_PBVMS_042_canonical_boundary_crossing_fault_passed>:
    4101658c:	00f00f9b          	addiw	x31,x0,15
    41016590:	01cf9f93          	slli	x31,x31,0x1c
    41016594:	001f8f93          	addi	x31,x31,1
    41016598:	00000073          	ecall

000000004101659c <SID_PBVMS_043_fetch_window_spill_page_cross>:
    4101659c:	00066137          	lui	x2,0x66
    410165a0:	e691011b          	addiw	x2,x2,-407 # 65e69 <mem22__pt_level3+0xd09>
    410165a4:	00f11113          	slli	x2,x2,0xf
    410165a8:	000012b7          	lui	x5,0x1
    410165ac:	00510133          	add	x2,x2,x5
    410165b0:	ff017113          	andi	x2,x2,-16
    410165b4:	045d1c37          	lui	x24,0x45d1
    410165b8:	63bc0c1b          	addiw	x24,x24,1595 # 45d163b <pma_region_2_size+0x5d163b>
    410165bc:	00cc1c13          	slli	x24,x24,0xc
    410165c0:	000c00e7          	jalr	x24

00000000410165c4 <SID_PBVMS_043_fetch_window_spill_page_cross_passed>:
    410165c4:	00f00f9b          	addiw	x31,x0,15
    410165c8:	01cf9f93          	slli	x31,x31,0x1c
    410165cc:	001f8f93          	addi	x31,x31,1
    410165d0:	00000073          	ecall

00000000410165d4 <test_cleanup>:
    410165d4:	00f00f9b          	addiw	x31,x0,15
    410165d8:	01cf9f93          	slli	x31,x31,0x1c
    410165dc:	001f8f93          	addi	x31,x31,1
    410165e0:	00000073          	ecall

00000000410165e4 <local_test_failed>:
    410165e4:	00f00f9b          	addiw	x31,x0,15
    410165e8:	01cf9f93          	slli	x31,x31,0x1c
    410165ec:	002f8f93          	addi	x31,x31,2
    410165f0:	00000073          	ecall

Disassembly of section .csr_machine_0:

0000000041389000 <csr_access_mstatus_machine_key_6_write-0x50>:
    41389000:	44c70fb7          	lui	x31,0x44c70
    41389004:	0a0f8f9b          	addiw	x31,x31,160 # 44c700a0 <machine_csr_jump_table_flags_pa>
    41389008:	000fbf83          	ld	x31,0(x31)
    4138900c:	00600293          	li	x5,6
    41389010:	045f8063          	beq	x31,x5,41389050 <csr_access_mstatus_machine_key_6_write>
    41389014:	00100293          	li	x5,1
    41389018:	045f8063          	beq	x31,x5,41389058 <csr_access_mstatus_machine_key_1_read>
    4138901c:	00200293          	li	x5,2
    41389020:	045f8063          	beq	x31,x5,41389060 <csr_access_mstatus_machine_key_2_set>
    41389024:	00300293          	li	x5,3
    41389028:	045f8063          	beq	x31,x5,41389068 <csr_access_mstatus_machine_key_3_clear>
    4138902c:	00c00293          	li	x5,12
    41389030:	045f8063          	beq	x31,x5,41389070 <csr_access_satp_supervisor_key_12_write>
    41389034:	00700293          	li	x5,7
    41389038:	045f8063          	beq	x31,x5,41389078 <csr_access_satp_supervisor_key_7_read>
    4138903c:	01000293          	li	x5,16
    41389040:	045f8063          	beq	x31,x5,41389080 <csr_access_mtvec_machine_key_16_set>
    41389044:	00f00293          	li	x5,15
    41389048:	045f8063          	beq	x31,x5,41389088 <csr_access_mtvec_machine_key_15_clear>
    4138904c:	0440006f          	j	41389090 <end_machine_label>

0000000041389050 <csr_access_mstatus_machine_key_6_write>:
    41389050:	30039073          	csrw	mstatus,x7
    41389054:	03c0006f          	j	41389090 <end_machine_label>

0000000041389058 <csr_access_mstatus_machine_key_1_read>:
    41389058:	300023f3          	csrr	x7,mstatus
    4138905c:	0340006f          	j	41389090 <end_machine_label>

0000000041389060 <csr_access_mstatus_machine_key_2_set>:
    41389060:	3003a073          	csrs	mstatus,x7
    41389064:	02c0006f          	j	41389090 <end_machine_label>

0000000041389068 <csr_access_mstatus_machine_key_3_clear>:
    41389068:	3003b073          	csrc	mstatus,x7
    4138906c:	0240006f          	j	41389090 <end_machine_label>

0000000041389070 <csr_access_satp_supervisor_key_12_write>:
    41389070:	18039073          	csrw	satp,x7
    41389074:	01c0006f          	j	41389090 <end_machine_label>

0000000041389078 <csr_access_satp_supervisor_key_7_read>:
    41389078:	180023f3          	csrr	x7,satp
    4138907c:	0140006f          	j	41389090 <end_machine_label>

0000000041389080 <csr_access_mtvec_machine_key_16_set>:
    41389080:	3053a073          	csrs	mtvec,x7
    41389084:	00c0006f          	j	41389090 <end_machine_label>

0000000041389088 <csr_access_mtvec_machine_key_15_clear>:
    41389088:	3053b073          	csrc	mtvec,x7
    4138908c:	0040006f          	j	41389090 <end_machine_label>

0000000041389090 <end_machine_label>:
    41389090:	000f0fb7          	lui	x31,0xf0
    41389094:	001f8f9b          	addiw	x31,x31,1 # f0001 <SID_PBVMS_040_context_table_overflow_stack+0x22001>
    41389098:	00cf9f93          	slli	x31,x31,0xc
    4138909c:	004f8f93          	addi	x31,x31,4
    413890a0:	00000073          	ecall

Disassembly of section .csr_super_0:

000000004138a000 <csr_access_satp_supervisor_key_11_write-0x50>:
    4138a000:	0003afb7          	lui	x31,0x3a
    4138a004:	0a8f8f9b          	addiw	x31,x31,168 # 3a0a8 <super_csr_jump_table_flags>
    4138a008:	000fbf83          	ld	x31,0(x31)
    4138a00c:	00800293          	li	x5,8
    4138a010:	045f8463          	beq	x31,x5,4138a058 <csr_access_satp_supervisor_key_8_read>
    4138a014:	00b00293          	li	x5,11
    4138a018:	025f8c63          	beq	x31,x5,4138a050 <csr_access_satp_supervisor_key_11_write>
    4138a01c:	00900293          	li	x5,9
    4138a020:	045f8063          	beq	x31,x5,4138a060 <csr_access_satp_supervisor_key_9_set>
    4138a024:	00a00293          	li	x5,10
    4138a028:	045f8063          	beq	x31,x5,4138a068 <csr_access_satp_supervisor_key_10_clear>
    4138a02c:	00e00293          	li	x5,14
    4138a030:	045f8063          	beq	x31,x5,4138a070 <csr_access_sstatus_supervisor_key_14_set>
    4138a034:	00d00293          	li	x5,13
    4138a038:	045f8063          	beq	x31,x5,4138a078 <csr_access_sstatus_supervisor_key_13_clear>
    4138a03c:	01200293          	li	x5,18
    4138a040:	045f8063          	beq	x31,x5,4138a080 <csr_access_stvec_supervisor_key_18_set>
    4138a044:	01100293          	li	x5,17
    4138a048:	045f8063          	beq	x31,x5,4138a088 <csr_access_stvec_supervisor_key_17_clear>
    4138a04c:	0440006f          	j	4138a090 <end_super_label>

000000004138a050 <csr_access_satp_supervisor_key_11_write>:
    4138a050:	18039073          	csrw	satp,x7
    4138a054:	03c0006f          	j	4138a090 <end_super_label>

000000004138a058 <csr_access_satp_supervisor_key_8_read>:
    4138a058:	180023f3          	csrr	x7,satp
    4138a05c:	0340006f          	j	4138a090 <end_super_label>

000000004138a060 <csr_access_satp_supervisor_key_9_set>:
    4138a060:	1803a073          	csrs	satp,x7
    4138a064:	02c0006f          	j	4138a090 <end_super_label>

000000004138a068 <csr_access_satp_supervisor_key_10_clear>:
    4138a068:	1803b073          	csrc	satp,x7
    4138a06c:	0240006f          	j	4138a090 <end_super_label>

000000004138a070 <csr_access_sstatus_supervisor_key_14_set>:
    4138a070:	1003a073          	csrs	sstatus,x7
    4138a074:	01c0006f          	j	4138a090 <end_super_label>

000000004138a078 <csr_access_sstatus_supervisor_key_13_clear>:
    4138a078:	1003b073          	csrc	sstatus,x7
    4138a07c:	0140006f          	j	4138a090 <end_super_label>

000000004138a080 <csr_access_stvec_supervisor_key_18_set>:
    4138a080:	1053a073          	csrs	stvec,x7
    4138a084:	00c0006f          	j	4138a090 <end_super_label>

000000004138a088 <csr_access_stvec_supervisor_key_17_clear>:
    4138a088:	1053b073          	csrc	stvec,x7
    4138a08c:	0040006f          	j	4138a090 <end_super_label>

000000004138a090 <end_super_label>:
    4138a090:	000f0fb7          	lui	x31,0xf0
    4138a094:	001f8f9b          	addiw	x31,x31,1 # f0001 <SID_PBVMS_040_context_table_overflow_stack+0x22001>
    4138a098:	00cf9f93          	slli	x31,x31,0xc
    4138a09c:	004f8f93          	addi	x31,x31,4
    4138a0a0:	00000073          	ecall

Disassembly of section .os_data:

000000000003a000 <passed_addr_ptr>:
   3a000:	50f0                	.insn	2, 0x50f0
   3a002:	4101                	.insn	2, 0x4101
   3a004:	0000                	.insn	2, 0x0000
	...

000000000003a008 <failed_addr_ptr>:
   3a008:	5100                	.insn	2, 0x5100
   3a00a:	4101                	.insn	2, 0x4101
   3a00c:	0000                	.insn	2, 0x0000
	...

000000000003a010 <end_test_addr_ptr>:
   3a010:	5110                	.insn	2, 0x5110
   3a012:	4101                	.insn	2, 0x4101
   3a014:	0000                	.insn	2, 0x0000
	...

000000000003a018 <os_passed_addr_ptr>:
   3a018:	07b0                	.insn	2, 0x07b0
   3a01a:	4100                	.insn	2, 0x4100
   3a01c:	0000                	.insn	2, 0x0000
	...

000000000003a020 <os_failed_addr_ptr>:
   3a020:	07c0                	.insn	2, 0x07c0
   3a022:	4100                	.insn	2, 0x4100
   3a024:	0000                	.insn	2, 0x0000
	...

000000000003a028 <os_end_test_addr_ptr>:
   3a028:	07cc                	.insn	2, 0x07cc
   3a02a:	4100                	.insn	2, 0x4100
   3a02c:	0000                	.insn	2, 0x0000
	...

000000000003a030 <rvcp_prefix_str_data>:
   3a030:	5652                	.insn	2, 0x5652
   3a032:	203a5043          	fmadd.s	f0,f20,f3,f4,unknown
   3a036:	6554                	.insn	2, 0x6554
   3a038:	46207473          	csrrci	x8,0x462,0
   3a03c:	6c69                	.insn	2, 0x6c69
   3a03e:	2065                	.insn	2, 0x2065
	...

000000000003a041 <rvcp_testname_str_data>:
   3a041:	7074                	.insn	2, 0x7074
   3a043:	705f 6761 6e69      	.insn	6, 0x6e696761705f
   3a049:	00325f67          	.insn	4, 0x00325f67

000000000003a04d <rvcp_passed_str_data>:
   3a04d:	4150                	.insn	2, 0x4150
   3a04f:	44455353          	fround.h	f6,f10,unknown
	...

000000000003a054 <rvcp_failed_str_data>:
   3a054:	4146                	.insn	2, 0x4146
   3a056:	4c49                	.insn	2, 0x4c49
   3a058:	4445                	.insn	2, 0x4445
	...

000000000003a05b <rvcp_space_str_data>:
   3a05b:	0020                	.insn	2, 0x0020

000000000003a05d <rvcp_newline_str_data>:
   3a05d:	000a                	.insn	2, 0x000a
	...

000000000003a060 <excp_ignored_count_mem>:
	...

000000000003a068 <machine_flags_mem>:
	...

000000000003a070 <user_flags_mem>:
	...

000000000003a078 <super_flags_mem>:
	...

000000000003a080 <machine_area_mem>:
	...

000000000003a088 <user_area_mem>:
	...

000000000003a090 <super_area_mem>:
	...

000000000003a098 <zero_data_mem>:
	...

000000000003a0a0 <machine_csr_jump_table_flags_mem>:
	...

000000000003a0a8 <super_csr_jump_table_flags_mem>:
	...

000000000003a0b0 <pte_access_flags_mem>:
	...

000000000003a0c8 <num_harts_ended_mem>:
	...

000000000003a0d0 <num_hard_fails_mem>:
	...

Disassembly of section .hart_context:

000000000634b000 <hart_context_0>:
 634b000:	8000                	.insn	2, 0x8000
 634b002:	00fde237          	lui	x4,0xfde
	...
 634b016:	0000                	.insn	2, 0x0000
 634b018:	0001                	.insn	2, 0x0001
 634b01a:	0000                	.insn	2, 0x0000
 634b01c:	0000                	.insn	2, 0x0000
 634b01e:	0000                	.insn	2, 0x0000
 634b020:	ffff                	.insn	2, 0xffff
 634b022:	ffff                	.insn	2, 0xffff
 634b024:	ffff                	.insn	2, 0xffff
 634b026:	ffff                	.insn	2, 0xffff
 634b028:	ffff                	.insn	2, 0xffff
 634b02a:	ffff                	.insn	2, 0xffff
 634b02c:	ffff                	.insn	2, 0xffff
 634b02e:	ffff                	.insn	2, 0xffff
 634b030:	ffff                	.insn	2, 0xffff
 634b032:	ffff                	.insn	2, 0xffff
 634b034:	ffff                	.insn	2, 0xffff
 634b036:	ffff                	.insn	2, 0xffff
	...
 634b050:	00ff 0000 0000 0000 	.insn	10, 0x00ff00000000000000ff
 634b058:	00ff 
	...
 634b176:	0000                	.insn	2, 0x0000
 634b178:	ffff                	.insn	2, 0xffff
 634b17a:	ffff                	.insn	2, 0xffff
 634b17c:	ffff                	.insn	2, 0xffff
 634b17e:	ffff                	.insn	2, 0xffff
	...
 634b188:	ffff                	.insn	2, 0xffff
 634b18a:	ffff                	.insn	2, 0xffff
	...

Disassembly of section .hart_stack_0:

000000fde2377000 <hart_stack_0>:
	...

Disassembly of section .io_htif:

0000000041040000 <tohost>:
	...

0000000041040040 <fromhost>:
	...

Disassembly of section .code_mem1:

00000000cc5bd000 <.code_mem1>:
    cc5bd000:	5c6e45b7          	lui	x11,0x5c6e4
    cc5bd004:	33a5859b          	addiw	x11,x11,826 # 5c6e433a <pma_region_2_end+0x176a333a>
    cc5bd008:	00035f37          	lui	x30,0x35
    cc5bd00c:	78df0f1b          	addiw	x30,x30,1933 # 3578d <mem11__pt_level3+0x2477d>
    cc5bd010:	00ef1f13          	slli	x30,x30,0xe
    cc5bd014:	127f0f13          	addi	x30,x30,295
    cc5bd018:	01e58f3b          	addw	x30,x11,x30
    cc5bd01c:	000b0e37          	lui	x28,0xb0
    cc5bd020:	00008067          	ret

Disassembly of section .code_mem4:

0000000000059000 <.code_mem4>:
   59000:	0004ebb7          	lui	x23,0x4e
   59004:	abbb8b9b          	addiw	x23,x23,-1349 # 4dabb <pma_region_0_size+0xdabb>
   59008:	00db9b93          	slli	x23,x23,0xd
   5900c:	bd4b8b93          	addi	x23,x23,-1068
   59010:	0925ea37          	lui	x20,0x925e
   59014:	477a0a1b          	addiw	x20,x20,1143 # 925e477 <mem3+0x25e477>
   59018:	034bfc3b          	remuw	x24,x23,x20
   5901c:	00095737          	lui	x14,0x95
   59020:	c9d7071b          	addiw	x14,x14,-867 # 94c9d <mem10__pt_level1+0x14c9d>
   59024:	00c71713          	slli	x14,x14,0xc
   59028:	95370713          	addi	x14,x14,-1709
   5902c:	000573b7          	lui	x7,0x57
   59030:	3313839b          	addiw	x7,x7,817 # 57331 <pma_region_0_size+0x17331>
   59034:	00d39393          	slli	x7,x7,0xd
   59038:	67838393          	addi	x7,x7,1656
   5903c:	0277033b          	mulw	x6,x14,x7
   59040:	288bcab7          	lui	x21,0x288bc
   59044:	784a8a9b          	addiw	x21,x21,1924 # 288bc784 <mem5+0x331f784>
   59048:	00100db7          	lui	x27,0x100
   5904c:	ed9d8d9b          	addiw	x27,x27,-295 # ffed9 <SID_PBVMS_040_context_table_overflow_stack+0x31ed9>
   59050:	00cd9d93          	slli	x27,x27,0xc
   59054:	238d8d93          	addi	x27,x27,568
   59058:	d00aff53          	fcvt.s.w	f30,x21
   5905c:	d03df5d3          	fcvt.s.lu	f11,x27
   59060:	08bf7f53          	fsub.s	f30,f30,f11
   59064:	6e406cb7          	lui	x25,0x6e406
   59068:	d96c8c9b          	addiw	x25,x25,-618 # 6e405d96 <pma_region_2_end+0x293c4d96>
   5906c:	00052e37          	lui	x28,0x52
   59070:	b97e0e1b          	addiw	x28,x28,-1129 # 51b97 <pma_region_0_size+0x11b97>
   59074:	00de1e13          	slli	x28,x28,0xd
   59078:	b92e0e13          	addi	x28,x28,-1134
   5907c:	03cc9bb3          	mulh	x23,x25,x28
   59080:	00008067          	ret

Disassembly of section .code_mem16:

00000000010ff000 <.code_mem16>:
 10ff000:	000486b7          	lui	x13,0x48
 10ff004:	bed6869b          	addiw	x13,x13,-1043 # 47bed <pma_region_0_size+0x7bed>
 10ff008:	00d69693          	slli	x13,x13,0xd
 10ff00c:	b7b68693          	addi	x13,x13,-1157
 10ff010:	2d6c8737          	lui	x14,0x2d6c8
 10ff014:	9827071b          	addiw	x14,x14,-1662 # 2d6c7982 <mem5+0x812a982>
 10ff018:	02e6d33b          	divuw	x6,x13,x14
 10ff01c:	00008067          	ret

Disassembly of section .code_mem24:

000000015bb5d000 <.code_mem24>:
   15bb5d000:	533c9537          	lui	x10,0x533c9
   15bb5d004:	1385051b          	addiw	x10,x10,312 # 533c9138 <pma_region_2_end+0xe388138>
   15bb5d008:	2c705bb7          	lui	x23,0x2c705
   15bb5d00c:	021b8b9b          	addiw	x23,x23,33 # 2c705021 <mem5+0x7168021>
   15bb5d010:	03754c3b          	divw	x24,x10,x23
   15bb5d014:	00008067          	ret

Disassembly of section .code_mem27:

00000045d163b000 <.code_mem27>:
  45d163b000:	000ffe37          	lui	x28,0xff
  45d163b004:	c3fe0e1b          	addiw	x28,x28,-961 # fec3f <SID_PBVMS_040_context_table_overflow_stack+0x30c3f>
  45d163b008:	00ce1e13          	slli	x28,x28,0xc
  45d163b00c:	6b6e0e13          	addi	x28,x28,1718
  45d163b010:	00072f37          	lui	x30,0x72
  45d163b014:	609f0f1b          	addiw	x30,x30,1545 # 72609 <mem22__pt_level3+0xd4a9>
  45d163b018:	00df1f13          	slli	x30,x30,0xd
  45d163b01c:	ab5f0f13          	addi	x30,x30,-1355
  45d163b020:	d03e77d3          	fcvt.s.lu	f15,x28
  45d163b024:	d03f7b53          	fcvt.s.lu	f22,x30
  45d163b028:	0367f953          	fadd.d	f18,f15,f22
  45d163b02c:	721556b7          	lui	x13,0x72155
  45d163b030:	e796869b          	addiw	x13,x13,-391 # 72154e79 <mem23+0x7e4e79>
  45d163b034:	000ccb37          	lui	x22,0xcc
  45d163b038:	f87b0b1b          	addiw	x22,x22,-121 # cbf87 <mem11__pt_level1+0x26f87>
  45d163b03c:	00cb1b13          	slli	x22,x22,0xc
  45d163b040:	547b0b13          	addi	x22,x22,1351
  45d163b044:	d036f4d3          	fcvt.s.lu	f9,x13
  45d163b048:	d01b7953          	fcvt.s.wu	f18,x22
  45d163b04c:	1924f9d3          	fdiv.s	f19,f9,f18
  45d163b050:	6a27ec37          	lui	x24,0x6a27e
  45d163b054:	0e2c0c1b          	addiw	x24,x24,226 # 6a27e0e2 <pma_region_2_end+0x2523d0e2>
  45d163b058:	0002fcb7          	lui	x25,0x2f
  45d163b05c:	007c8c9b          	addiw	x25,x25,7 # 2f007 <mem11__pt_level3+0x1dff7>
  45d163b060:	00ec9c93          	slli	x25,x25,0xe
  45d163b064:	fd1c8c93          	addi	x25,x25,-47
  45d163b068:	d20c07d3          	fcvt.d.w	f15,x24
  45d163b06c:	d00cffd3          	fcvt.s.w	f31,x25
  45d163b070:	11f7f6d3          	fmul.s	f13,f15,f31
  45d163b074:	00043f37          	lui	x30,0x43
  45d163b078:	3f3f0f1b          	addiw	x30,x30,1011 # 433f3 <pma_region_0_size+0x33f3>
  45d163b07c:	00df1f13          	slli	x30,x30,0xd
  45d163b080:	e18f0f13          	addi	x30,x30,-488
  45d163b084:	0001dab7          	lui	x21,0x1d
  45d163b088:	02da8a9b          	addiw	x21,x21,45 # 1d02d <mem11__pt_level3+0xc01d>
  45d163b08c:	00fa9a93          	slli	x21,x21,0xf
  45d163b090:	564a8a93          	addi	x21,x21,1380
  45d163b094:	035f4bbb          	divw	x23,x30,x21
  45d163b098:	00008067          	ret

Disassembly of section .mem0:

0000540f960aa000 <.mem0>:
    540f960aa000:	c0de                	.insn	2, 0xc0de
    540f960aa002:	c001                	.insn	2, 0xc001
    540f960aa004:	0000                	.insn	2, 0x0000
	...

Disassembly of section .mem2:

0000000003e0a000 <.mem2>:
 3e0a000:	c0de                	.insn	2, 0xc0de
 3e0a002:	c001                	.insn	2, 0xc001
 3e0a004:	0000                	.insn	2, 0x0000
	...

Disassembly of section .mem3:

0000000009000000 <.mem3>:
 9000000:	c0de                	.insn	2, 0xc0de
 9000002:	c001                	.insn	2, 0xc001
 9000004:	0000                	.insn	2, 0x0000
	...

Disassembly of section .mem5:

000000002559d000 <.mem5>:
    2559d000:	c0de                	.insn	2, 0xc0de
    2559d002:	c001                	.insn	2, 0xc001
    2559d004:	0000                	.insn	2, 0x0000
	...

Disassembly of section .mem6:

0000070000000000 <.mem6>:
 70000000000:	c0de                	.insn	2, 0xc0de
 70000000002:	c001                	.insn	2, 0xc001
 70000000004:	0000                	.insn	2, 0x0000
	...

Disassembly of section .mem7:

00000005fac00000 <.mem7>:
   5fac00000:	c0de                	.insn	2, 0xc0de
   5fac00002:	c001                	.insn	2, 0xc001
   5fac00004:	0000                	.insn	2, 0x0000
	...

Disassembly of section .mem8:

000000000e600000 <.mem8>:
 e600000:	c0de                	.insn	2, 0xc0de
 e600002:	c001                	.insn	2, 0xc001
 e600004:	0000                	.insn	2, 0x0000
	...

Disassembly of section .mem9:

0000328000000000 <.mem9>:
    328000000000:	c0de                	.insn	2, 0xc0de
    328000000002:	c001                	.insn	2, 0xc001
    328000000004:	0000                	.insn	2, 0x0000
	...

Disassembly of section .mem10:

0000390000000000 <.mem10>:
    390000000000:	c0de                	.insn	2, 0xc0de
    390000000002:	c001                	.insn	2, 0xc001
    390000000004:	0000                	.insn	2, 0x0000
	...

Disassembly of section .mem11:

0000010000000000 <.mem11>:
 10000000000:	c0de                	.insn	2, 0xc0de
 10000000002:	c001                	.insn	2, 0xc001
 10000000004:	0000                	.insn	2, 0x0000
	...

Disassembly of section .mem12:

0000001f73f17000 <.mem12>:
  1f73f17000:	c0de                	.insn	2, 0xc0de
  1f73f17002:	c001                	.insn	2, 0xc001
  1f73f17004:	0000                	.insn	2, 0x0000
	...

Disassembly of section .mem13:

000000002448e000 <.mem13>:
    2448e000:	c0de                	.insn	2, 0xc0de
    2448e002:	c001                	.insn	2, 0xc001
    2448e004:	0000                	.insn	2, 0x0000
	...

Disassembly of section .mem14:

000067dfbb631000 <.mem14>:
    67dfbb631000:	c0de                	.insn	2, 0xc0de
    67dfbb631002:	c001                	.insn	2, 0xc001
    67dfbb631004:	0000                	.insn	2, 0x0000
	...

Disassembly of section .mem15:

00003790c17fc000 <.mem15>:
    3790c17fc000:	c0de                	.insn	2, 0xc0de
    3790c17fc002:	c001                	.insn	2, 0xc001
    3790c17fc004:	0000                	.insn	2, 0x0000
	...

Disassembly of section .mem17:

0000000bb2760000 <.mem17>:
   bb2760000:	c0de                	.insn	2, 0xc0de
   bb2760002:	c001                	.insn	2, 0xc001
   bb2760004:	0000                	.insn	2, 0x0000
	...

Disassembly of section .mem18:

0000000002d1c000 <.mem18>:
 2d1c000:	c0de                	.insn	2, 0xc0de
 2d1c002:	c001                	.insn	2, 0xc001
 2d1c004:	0000                	.insn	2, 0x0000
	...

Disassembly of section .mem19:

0000000342d3b000 <.mem19>:
   342d3b000:	c0de                	.insn	2, 0xc0de
   342d3b002:	c001                	.insn	2, 0xc001
   342d3b004:	0000                	.insn	2, 0x0000
	...

Disassembly of section .mem20:

00003c8b9c33d000 <.mem20>:
    3c8b9c33d000:	c0de                	.insn	2, 0xc0de
    3c8b9c33d002:	c001                	.insn	2, 0xc001
    3c8b9c33d004:	0000                	.insn	2, 0x0000
	...

Disassembly of section .mem21:

0000030000000000 <.mem21>:
 30000000000:	c0de                	.insn	2, 0xc0de
 30000000002:	c001                	.insn	2, 0xc001
 30000000004:	0000                	.insn	2, 0x0000
	...

Disassembly of section .mem22:

0000160000000000 <.mem22>:
    160000000000:	c0de                	.insn	2, 0xc0de
    160000000002:	c001                	.insn	2, 0xc001
    160000000004:	0000                	.insn	2, 0x0000
	...

Disassembly of section .mem23:

0000000071970000 <.mem23>:
    71970000:	c0de                	.insn	2, 0xc0de
    71970002:	c001                	.insn	2, 0xc001
    71970004:	0000                	.insn	2, 0x0000
	...

Disassembly of section .mem25:

00006e85ff9c4000 <.mem25>:
    6e85ff9c4000:	c0de                	.insn	2, 0xc0de
    6e85ff9c4002:	c001                	.insn	2, 0xc001
    6e85ff9c4004:	0000                	.insn	2, 0x0000
	...

Disassembly of section .mem26:

0000000002e00000 <.mem26>:
 2e00000:	c0de                	.insn	2, 0xc0de
 2e00002:	c001                	.insn	2, 0xc001
 2e00004:	0000                	.insn	2, 0x0000
	...

Disassembly of section .tp_csr_storage:

0000001fdca42000 <.tp_csr_storage>:
  1fdca42000:	c0de                	.insn	2, 0xc0de
  1fdca42002:	c001                	.insn	2, 0xc001
  1fdca42004:	0000                	.insn	2, 0x0000
	...

Disassembly of section .SID_PBVMS_001_ptw_no_faults_all_access_types_stack:

000000349ea72000 <.SID_PBVMS_001_ptw_no_faults_all_access_types_stack>:
  349ea72000:	c0de                	.insn	2, 0xc0de
  349ea72002:	c001                	.insn	2, 0xc001
  349ea72004:	0000                	.insn	2, 0x0000
	...

Disassembly of section .SID_PBVMS_003_ptw_all_privilege_modes_stack:

00000000dcdb2000 <.SID_PBVMS_003_ptw_all_privilege_modes_stack>:
    dcdb2000:	c0de                	.insn	2, 0xc0de
    dcdb2002:	c001                	.insn	2, 0xc001
    dcdb2004:	0000                	.insn	2, 0x0000
	...

Disassembly of section .SID_PBVMS_006_ptw_page_boundary_crossing_stack:

0000000002d1a000 <.SID_PBVMS_006_ptw_page_boundary_crossing_stack>:
 2d1a000:	c0de                	.insn	2, 0xc0de
 2d1a002:	c001                	.insn	2, 0xc001
 2d1a004:	0000                	.insn	2, 0x0000
	...

Disassembly of section .SID_PBVMS_008_va_sign_extension_fault_stack:

000000349ea74000 <.SID_PBVMS_008_va_sign_extension_fault_stack>:
  349ea74000:	c0de                	.insn	2, 0xc0de
  349ea74002:	c001                	.insn	2, 0xc001
  349ea74004:	0000                	.insn	2, 0x0000
	...

Disassembly of section .SID_PBVMS_009_superpage_alignment_fault_stack:

0000000000002000 <.SID_PBVMS_009_superpage_alignment_fault_stack>:
    2000:	c0de                	.insn	2, 0xc0de
    2002:	c001                	.insn	2, 0xc001
    2004:	0000                	.insn	2, 0x0000
	...

Disassembly of section .SID_PBVMS_011_ptw_fault_boundary_crossing_stack:

0000026806e36000 <.SID_PBVMS_011_ptw_fault_boundary_crossing_stack>:
 26806e36000:	c0de                	.insn	2, 0xc0de
 26806e36002:	c001                	.insn	2, 0xc001
 26806e36004:	0000                	.insn	2, 0x0000
	...

Disassembly of section .SID_PBVMS_012_ptw_fault_prioritization_stack:

00000000107a1000 <.SID_PBVMS_012_ptw_fault_prioritization_stack>:
    107a1000:	c0de                	.insn	2, 0xc0de
    107a1002:	c001                	.insn	2, 0xc001
    107a1004:	0000                	.insn	2, 0x0000
	...

Disassembly of section .SID_PBVMS_013_ptw_permission_encodings_stack:

00000000003c5000 <.SID_PBVMS_013_ptw_permission_encodings_stack>:
  3c5000:	c0de                	.insn	2, 0xc0de
  3c5002:	c001                	.insn	2, 0xc001
  3c5004:	0000                	.insn	2, 0x0000
	...

Disassembly of section .SID_PBVMS_014_mstatus_sum_mxr_stack:

00006ed9d8016000 <.SID_PBVMS_014_mstatus_sum_mxr_stack>:
    6ed9d8016000:	c0de                	.insn	2, 0xc0de
    6ed9d8016002:	c001                	.insn	2, 0xc001
    6ed9d8016004:	0000                	.insn	2, 0x0000
	...

Disassembly of section .SID_PBVMS_015_global_bit_honoured_stack:

0000000000004000 <.SID_PBVMS_015_global_bit_honoured_stack>:
    4000:	c0de                	.insn	2, 0xc0de
    4002:	c001                	.insn	2, 0xc001
    4004:	0000                	.insn	2, 0x0000
	...

Disassembly of section .SID_PBVMS_017_global_at_non_leaf_stack:

000000000009f000 <.SID_PBVMS_017_global_at_non_leaf_stack>:
   9f000:	c0de                	.insn	2, 0xc0de
   9f002:	c001                	.insn	2, 0xc001
   9f004:	0000                	.insn	2, 0x0000
	...

Disassembly of section .SID_PBVMS_018_rsw_fields_writable_stack:

000004139af22000 <.SID_PBVMS_018_rsw_fields_writable_stack>:
 4139af22000:	c0de                	.insn	2, 0xc0de
 4139af22002:	c001                	.insn	2, 0xc001
 4139af22004:	0000                	.insn	2, 0x0000
	...

Disassembly of section .SID_PBVMS_021_satp_valid_to_reserved_stack:

00000000f3db8000 <.SID_PBVMS_021_satp_valid_to_reserved_stack>:
    f3db8000:	c0de                	.insn	2, 0xc0de
    f3db8002:	c001                	.insn	2, 0xc001
    f3db8004:	0000                	.insn	2, 0x0000
	...

Disassembly of section .SID_PBVMS_022_satp_csr_accessibility_stack:

00000000006e9000 <.SID_PBVMS_022_satp_csr_accessibility_stack>:
  6e9000:	c0de                	.insn	2, 0xc0de
  6e9002:	c001                	.insn	2, 0xc001
  6e9004:	0000                	.insn	2, 0x0000
	...

Disassembly of section .SID_PBVMS_023_satp_asidlen_discovery_stack:

00000002c8416000 <.SID_PBVMS_023_satp_asidlen_discovery_stack>:
   2c8416000:	c0de                	.insn	2, 0xc0de
   2c8416002:	c001                	.insn	2, 0xc001
   2c8416004:	0000                	.insn	2, 0x0000
	...

Disassembly of section .SID_PBVMS_027_satp_user_mode_fault_stack:

000000be01897000 <.SID_PBVMS_027_satp_user_mode_fault_stack>:
  be01897000:	c0de                	.insn	2, 0xc0de
  be01897002:	c001                	.insn	2, 0xc001
  be01897004:	0000                	.insn	2, 0x0000
	...

Disassembly of section .SID_PBVMS_040_context_table_overflow_stack:

00000000000ce000 <.SID_PBVMS_040_context_table_overflow_stack>:
   ce000:	c0de                	.insn	2, 0xc0de
   ce002:	c001                	.insn	2, 0xc001
   ce004:	0000                	.insn	2, 0x0000
	...

Disassembly of section .SID_PBVMS_042_canonical_boundary_crossing_fault_stack:

0000000003e08000 <.SID_PBVMS_042_canonical_boundary_crossing_fault_stack>:
 3e08000:	c0de                	.insn	2, 0xc0de
 3e08002:	c001                	.insn	2, 0xc001
 3e08004:	0000                	.insn	2, 0x0000
	...

Disassembly of section .SID_PBVMS_043_fetch_window_spill_page_cross_stack:

000000032f348000 <.SID_PBVMS_043_fetch_window_spill_page_cross_stack>:
   32f348000:	c0de                	.insn	2, 0xc0de
   32f348002:	c001                	.insn	2, 0xc001
   32f348004:	0000                	.insn	2, 0x0000
	...

Disassembly of section .__pagetable_map_os_0x0000000044d60000:

0000000044d60000 <__pagetable_map_os_0x0000000044d60000>:
    44d60000:	a401                	.insn	2, 0xa401
    44d60002:	1135                	.insn	2, 0x1135
    44d60004:	0000                	.insn	2, 0x0000
    44d60006:	0000                	.insn	2, 0x0000
    44d60008:	2001                	.insn	2, 0x2001
    44d6000a:	1132                	.insn	2, 0x1132
    44d6000c:	0000                	.insn	2, 0x0000
    44d6000e:	0000                	.insn	2, 0x0000
    44d60010:	d401                	.insn	2, 0xd401
    44d60012:	00001133          	sll	x2,x0,x0
    44d60016:	0000                	.insn	2, 0x0000
    44d60018:	4801                	.insn	2, 0x4801
    44d6001a:	1131                	.insn	2, 0x1131
    44d6001c:	0000                	.insn	2, 0x0000
    44d6001e:	0000                	.insn	2, 0x0000
    44d60020:	3801                	.insn	2, 0x3801
    44d60022:	0000108f          	.insn	4, 0x108f
    44d60026:	0000                	.insn	2, 0x0000
    44d60028:	8001                	.insn	2, 0x8001
    44d6002a:	0000104f          	fnmadd.s	f0,f0,f0,f0,rtz
    44d6002e:	0000                	.insn	2, 0x0000
    44d60030:	cc01                	.insn	2, 0xcc01
    44d60032:	00001077          	.insn	4, 0x1077
	...
    44d6003e:	0000                	.insn	2, 0x0000
    44d60040:	9401                	.insn	2, 0x9401
    44d60042:	1135                	.insn	2, 0x1135
	...
    44d60070:	d801                	.insn	2, 0xd801
    44d60072:	1075                	.insn	2, 0x1075
	...
    44d60120:	c801                	.insn	2, 0xc801
    44d60122:	00001053          	fadd.s	f0,f0,f0,rtz
	...
    44d6015e:	0000                	.insn	2, 0x0000
    44d60160:	f401                	.insn	2, 0xf401
    44d60162:	10dc                	.insn	2, 0x10dc
	...
    44d60328:	a001                	.insn	2, 0xa001
    44d6032a:	1132                	.insn	2, 0x1132
	...
    44d60378:	6401                	.insn	2, 0x6401
    44d6037a:	1131                	.insn	2, 0x1131
	...
    44d60390:	c801                	.insn	2, 0xc801
    44d60392:	1136                	.insn	2, 0x1136
	...
    44d603c8:	3401                	.insn	2, 0x3401
    44d603ca:	1132                	.insn	2, 0x1132
	...
    44d60540:	d001                	.insn	2, 0xd001
    44d60542:	1055                	.insn	2, 0x1055
	...
    44d60678:	fc01                	.insn	2, 0xfc01
    44d6067a:	1118                	.insn	2, 0x1118
	...
    44d606e8:	d001                	.insn	2, 0xd001
    44d606ea:	1118                	.insn	2, 0x1118
    44d606ec:	0000                	.insn	2, 0x0000
	...

Disassembly of section .__pagetable_map_os_0x0000000044d69000:

0000000044d69000 <__pagetable_map_os_0x0000000044d69000>:
    44d69000:	0801                	.insn	2, 0x0801
    44d69002:	000010db          	.insn	4, 0x10db
    44d69006:	0000                	.insn	2, 0x0000
    44d69008:	d401                	.insn	2, 0xd401
    44d6900a:	1118                	.insn	2, 0x1118
	...
    44d69018:	e801                	.insn	2, 0xe801
    44d6901a:	00001133          	sll	x2,x0,x0
    44d6901e:	0000                	.insn	2, 0x0000
    44d69020:	c001                	.insn	2, 0xc001
    44d69022:	00001137          	lui	x2,0x1
    44d69026:	0000                	.insn	2, 0x0000
    44d69028:	2801                	.insn	2, 0x2801
    44d6902a:	1052                	.insn	2, 0x1052
	...
    44d69058:	9001                	.insn	2, 0x9001
    44d6905a:	112e                	.insn	2, 0x112e
    44d6905c:	0000                	.insn	2, 0x0000
    44d6905e:	0000                	.insn	2, 0x0000
    44d69060:	2001                	.insn	2, 0x2001
    44d69062:	105f 0000 0000      	.insn	6, 0x105f
    44d69068:	cc01                	.insn	2, 0xcc01
    44d6906a:	1136                	.insn	2, 0x1136
	...
    44d69090:	5401                	.insn	2, 0x5401
    44d69092:	1050                	.insn	2, 0x1050
	...
    44d690b8:	7c01                	.insn	2, 0x7c01
    44d690ba:	110e                	.insn	2, 0x110e
	...
    44d69120:	3c01                	.insn	2, 0x3c01
    44d69122:	0000108f          	.insn	4, 0x108f
	...
    44d6916e:	0000                	.insn	2, 0x0000
    44d69170:	4001                	.insn	2, 0x4001
    44d69172:	1135                	.insn	2, 0x1135
	...
    44d693e8:	2c01                	.insn	2, 0x2c01
    44d693ea:	1076                	.insn	2, 0x1076
	...
    44d693f8:	e801                	.insn	2, 0xe801
    44d693fa:	1118                	.insn	2, 0x1118
	...
    44d69520:	1001                	.insn	2, 0x1001
    44d69522:	1132                	.insn	2, 0x1132
	...
    44d69690:	d001                	.insn	2, 0xd001
    44d69692:	00001133          	sll	x2,x0,x0
	...
    44d698b6:	0000                	.insn	2, 0x0000
    44d698b8:	2c01                	.insn	2, 0x2c01
    44d698ba:	00001137          	lui	x2,0x1
	...

Disassembly of section .__pagetable_map_os_0x0000000044635000:

0000000044635000 <__pagetable_map_os_0x0000000044635000>:
	...
    44635040:	3801                	.insn	2, 0x3801
    44635042:	1132                	.insn	2, 0x1132
    44635044:	0000                	.insn	2, 0x0000
    44635046:	0000                	.insn	2, 0x0000
    44635048:	dc01                	.insn	2, 0xdc01
    4463504a:	00001137          	lui	x2,0x1
	...
    4463512e:	0000                	.insn	2, 0x0000
    44635130:	1801                	.insn	2, 0x1801
    44635132:	1132                	.insn	2, 0x1132
	...
    44635c60:	1001                	.insn	2, 0x1001
    44635c62:	111c                	.insn	2, 0x111c
    44635c64:	0000                	.insn	2, 0x0000
	...

Disassembly of section .__pagetable_map_os_0x0000000044c8e000:

0000000044c8e000 <__pagetable_map_os_0x0000000044c8e000>:
	...
    44c8e080:	40df 1040 0000      	.insn	6, 0x104040df
    44c8e086:	0000                	.insn	2, 0x0000
    44c8e088:	104044cf          	fnmadd.s	f9,f0,f4,f2,rmm
    44c8e08c:	0000                	.insn	2, 0x0000
    44c8e08e:	0000                	.insn	2, 0x0000
    44c8e090:	104048cf          	fnmadd.s	f17,f0,f4,f2,rmm
    44c8e094:	0000                	.insn	2, 0x0000
    44c8e096:	0000                	.insn	2, 0x0000
    44c8e098:	10404ccf          	fnmadd.s	f25,f0,f4,f2,rmm
    44c8e09c:	0000                	.insn	2, 0x0000
    44c8e09e:	0000                	.insn	2, 0x0000
    44c8e0a0:	104050cf          	fnmadd.s	f1,f0,f4,f2,unknown
    44c8e0a4:	0000                	.insn	2, 0x0000
    44c8e0a6:	0000                	.insn	2, 0x0000
    44c8e0a8:	00df 1120 0000      	.insn	6, 0x112000df
    44c8e0ae:	0000                	.insn	2, 0x0000
    44c8e0b0:	04df 1120 0000      	.insn	6, 0x112004df
    44c8e0b6:	0000                	.insn	2, 0x0000
    44c8e0b8:	08df 1120 0000      	.insn	6, 0x112008df
    44c8e0be:	0000                	.insn	2, 0x0000
    44c8e0c0:	0cdf 1120 0000      	.insn	6, 0x11200cdf
    44c8e0c6:	0000                	.insn	2, 0x0000
    44c8e0c8:	10df 1120 0000      	.insn	6, 0x112010df
    44c8e0ce:	0000                	.insn	2, 0x0000
    44c8e0d0:	14df 1120 0000      	.insn	6, 0x112014df
    44c8e0d6:	0000                	.insn	2, 0x0000
    44c8e0d8:	18df 1120 0000      	.insn	6, 0x112018df
    44c8e0de:	0000                	.insn	2, 0x0000
    44c8e0e0:	1cdf 1120 0000      	.insn	6, 0x11201cdf
    44c8e0e6:	0000                	.insn	2, 0x0000
    44c8e0e8:	20df 1120 0000      	.insn	6, 0x112020df
    44c8e0ee:	0000                	.insn	2, 0x0000
    44c8e0f0:	24df 1120 0000      	.insn	6, 0x112024df
    44c8e0f6:	0000                	.insn	2, 0x0000
    44c8e0f8:	28df 1120 0000      	.insn	6, 0x112028df
    44c8e0fe:	0000                	.insn	2, 0x0000
    44c8e100:	2cdf 1120 0000      	.insn	6, 0x11202cdf
    44c8e106:	0000                	.insn	2, 0x0000
    44c8e108:	30df 1120 0000      	.insn	6, 0x112030df
    44c8e10e:	0000                	.insn	2, 0x0000
    44c8e110:	34df 1120 0000      	.insn	6, 0x112034df
    44c8e116:	0000                	.insn	2, 0x0000
    44c8e118:	38df 1120 0000      	.insn	6, 0x112038df
    44c8e11e:	0000                	.insn	2, 0x0000
    44c8e120:	3cdf 1120 0000      	.insn	6, 0x11203cdf
    44c8e126:	0000                	.insn	2, 0x0000
    44c8e128:	40df 1120 0000      	.insn	6, 0x112040df
    44c8e12e:	0000                	.insn	2, 0x0000
    44c8e130:	44df 1120 0000      	.insn	6, 0x112044df
    44c8e136:	0000                	.insn	2, 0x0000
    44c8e138:	48df 1120 0000      	.insn	6, 0x112048df
    44c8e13e:	0000                	.insn	2, 0x0000
    44c8e140:	4cdf 1120 0000      	.insn	6, 0x11204cdf
    44c8e146:	0000                	.insn	2, 0x0000
    44c8e148:	50df 1120 0000      	.insn	6, 0x112050df
    44c8e14e:	0000                	.insn	2, 0x0000
    44c8e150:	54df 1120 0000      	.insn	6, 0x112054df
    44c8e156:	0000                	.insn	2, 0x0000
    44c8e158:	58df 1120 0000      	.insn	6, 0x112058df
    44c8e15e:	0000                	.insn	2, 0x0000
    44c8e160:	5cdf 1120 0000      	.insn	6, 0x11205cdf
    44c8e166:	0000                	.insn	2, 0x0000
    44c8e168:	60df 1120 0000      	.insn	6, 0x112060df
    44c8e16e:	0000                	.insn	2, 0x0000
    44c8e170:	64df 1120 0000      	.insn	6, 0x112064df
    44c8e176:	0000                	.insn	2, 0x0000
    44c8e178:	68df 1120 0000      	.insn	6, 0x112068df
    44c8e17e:	0000                	.insn	2, 0x0000
    44c8e180:	6cdf 1120 0000      	.insn	6, 0x11206cdf
    44c8e186:	0000                	.insn	2, 0x0000
    44c8e188:	70df 1120 0000      	.insn	6, 0x112070df
    44c8e18e:	0000                	.insn	2, 0x0000
    44c8e190:	74df 1120 0000      	.insn	6, 0x112074df
    44c8e196:	0000                	.insn	2, 0x0000
    44c8e198:	78df 1120 0000      	.insn	6, 0x112078df
    44c8e19e:	0000                	.insn	2, 0x0000
    44c8e1a0:	7cdf 1120 0000      	.insn	6, 0x11207cdf
    44c8e1a6:	0000                	.insn	2, 0x0000
    44c8e1a8:	80df 1120 0000      	.insn	6, 0x112080df
    44c8e1ae:	0000                	.insn	2, 0x0000
    44c8e1b0:	84df 1120 0000      	.insn	6, 0x112084df
    44c8e1b6:	0000                	.insn	2, 0x0000
    44c8e1b8:	88df 1120 0000      	.insn	6, 0x112088df
    44c8e1be:	0000                	.insn	2, 0x0000
    44c8e1c0:	8cdf 1120 0000      	.insn	6, 0x11208cdf
    44c8e1c6:	0000                	.insn	2, 0x0000
    44c8e1c8:	90df 1120 0000      	.insn	6, 0x112090df
    44c8e1ce:	0000                	.insn	2, 0x0000
    44c8e1d0:	94df 1120 0000      	.insn	6, 0x112094df
    44c8e1d6:	0000                	.insn	2, 0x0000
    44c8e1d8:	98df 1120 0000      	.insn	6, 0x112098df
    44c8e1de:	0000                	.insn	2, 0x0000
    44c8e1e0:	9cdf 1120 0000      	.insn	6, 0x11209cdf
    44c8e1e6:	0000                	.insn	2, 0x0000
    44c8e1e8:	a0df 1120 0000      	.insn	6, 0x1120a0df
    44c8e1ee:	0000                	.insn	2, 0x0000
    44c8e1f0:	a4df 1120 0000      	.insn	6, 0x1120a4df
    44c8e1f6:	0000                	.insn	2, 0x0000
    44c8e1f8:	a8df 1120 0000      	.insn	6, 0x1120a8df
    44c8e1fe:	0000                	.insn	2, 0x0000
    44c8e200:	00df 1041 0000      	.insn	6, 0x104100df
    44c8e206:	0000                	.insn	2, 0x0000
    44c8e208:	b0df 1120 0000      	.insn	6, 0x1120b0df
    44c8e20e:	0000                	.insn	2, 0x0000
    44c8e210:	b4df 1120 0000      	.insn	6, 0x1120b4df
    44c8e216:	0000                	.insn	2, 0x0000
    44c8e218:	b8df 1120 0000      	.insn	6, 0x1120b8df
    44c8e21e:	0000                	.insn	2, 0x0000
    44c8e220:	bcdf 1120 0000      	.insn	6, 0x1120bcdf
    44c8e226:	0000                	.insn	2, 0x0000
    44c8e228:	c0df 1120 0000      	.insn	6, 0x1120c0df
    44c8e22e:	0000                	.insn	2, 0x0000
    44c8e230:	c4df 1120 0000      	.insn	6, 0x1120c4df
    44c8e236:	0000                	.insn	2, 0x0000
    44c8e238:	c8df 1120 0000      	.insn	6, 0x1120c8df
    44c8e23e:	0000                	.insn	2, 0x0000
    44c8e240:	ccdf 1120 0000      	.insn	6, 0x1120ccdf
    44c8e246:	0000                	.insn	2, 0x0000
    44c8e248:	d0df 1120 0000      	.insn	6, 0x1120d0df
    44c8e24e:	0000                	.insn	2, 0x0000
    44c8e250:	d4df 1120 0000      	.insn	6, 0x1120d4df
    44c8e256:	0000                	.insn	2, 0x0000
    44c8e258:	d8df 1120 0000      	.insn	6, 0x1120d8df
    44c8e25e:	0000                	.insn	2, 0x0000
    44c8e260:	dcdf 1120 0000      	.insn	6, 0x1120dcdf
    44c8e266:	0000                	.insn	2, 0x0000
    44c8e268:	e0df 1120 0000      	.insn	6, 0x1120e0df
    44c8e26e:	0000                	.insn	2, 0x0000
    44c8e270:	e4df 1120 0000      	.insn	6, 0x1120e4df
    44c8e276:	0000                	.insn	2, 0x0000
    44c8e278:	e8df 1120 0000      	.insn	6, 0x1120e8df
    44c8e27e:	0000                	.insn	2, 0x0000
    44c8e280:	ecdf 1120 0000      	.insn	6, 0x1120ecdf
    44c8e286:	0000                	.insn	2, 0x0000
    44c8e288:	f0df 1120 0000      	.insn	6, 0x1120f0df
    44c8e28e:	0000                	.insn	2, 0x0000
    44c8e290:	f4df 1120 0000      	.insn	6, 0x1120f4df
    44c8e296:	0000                	.insn	2, 0x0000
    44c8e298:	f8df 1120 0000      	.insn	6, 0x1120f8df
    44c8e29e:	0000                	.insn	2, 0x0000
    44c8e2a0:	fcdf 1120 0000      	.insn	6, 0x1120fcdf
    44c8e2a6:	0000                	.insn	2, 0x0000
    44c8e2a8:	00df 1121 0000      	.insn	6, 0x112100df
    44c8e2ae:	0000                	.insn	2, 0x0000
    44c8e2b0:	04df 1121 0000      	.insn	6, 0x112104df
    44c8e2b6:	0000                	.insn	2, 0x0000
    44c8e2b8:	08df 1121 0000      	.insn	6, 0x112108df
    44c8e2be:	0000                	.insn	2, 0x0000
    44c8e2c0:	0cdf 1121 0000      	.insn	6, 0x11210cdf
    44c8e2c6:	0000                	.insn	2, 0x0000
    44c8e2c8:	10df 1121 0000      	.insn	6, 0x112110df
    44c8e2ce:	0000                	.insn	2, 0x0000
    44c8e2d0:	14df 1121 0000      	.insn	6, 0x112114df
    44c8e2d6:	0000                	.insn	2, 0x0000
    44c8e2d8:	18df 1121 0000      	.insn	6, 0x112118df
    44c8e2de:	0000                	.insn	2, 0x0000
    44c8e2e0:	1cdf 1121 0000      	.insn	6, 0x11211cdf
    44c8e2e6:	0000                	.insn	2, 0x0000
    44c8e2e8:	20df 1121 0000      	.insn	6, 0x112120df
    44c8e2ee:	0000                	.insn	2, 0x0000
    44c8e2f0:	24df 1121 0000      	.insn	6, 0x112124df
    44c8e2f6:	0000                	.insn	2, 0x0000
    44c8e2f8:	28df 1121 0000      	.insn	6, 0x112128df
    44c8e2fe:	0000                	.insn	2, 0x0000
    44c8e300:	2cdf 1121 0000      	.insn	6, 0x11212cdf
    44c8e306:	0000                	.insn	2, 0x0000
    44c8e308:	30df 1121 0000      	.insn	6, 0x112130df
    44c8e30e:	0000                	.insn	2, 0x0000
    44c8e310:	34df 1121 0000      	.insn	6, 0x112134df
    44c8e316:	0000                	.insn	2, 0x0000
    44c8e318:	38df 1121 0000      	.insn	6, 0x112138df
    44c8e31e:	0000                	.insn	2, 0x0000
    44c8e320:	3cdf 1121 0000      	.insn	6, 0x11213cdf
    44c8e326:	0000                	.insn	2, 0x0000
    44c8e328:	40df 1121 0000      	.insn	6, 0x112140df
    44c8e32e:	0000                	.insn	2, 0x0000
    44c8e330:	44df 1121 0000      	.insn	6, 0x112144df
    44c8e336:	0000                	.insn	2, 0x0000
    44c8e338:	48df 1121 0000      	.insn	6, 0x112148df
    44c8e33e:	0000                	.insn	2, 0x0000
    44c8e340:	4cdf 1121 0000      	.insn	6, 0x11214cdf
    44c8e346:	0000                	.insn	2, 0x0000
    44c8e348:	50df 1121 0000      	.insn	6, 0x112150df
    44c8e34e:	0000                	.insn	2, 0x0000
    44c8e350:	54df 1121 0000      	.insn	6, 0x112154df
    44c8e356:	0000                	.insn	2, 0x0000
    44c8e358:	58df 1121 0000      	.insn	6, 0x112158df
    44c8e35e:	0000                	.insn	2, 0x0000
    44c8e360:	5cdf 1121 0000      	.insn	6, 0x11215cdf
    44c8e366:	0000                	.insn	2, 0x0000
    44c8e368:	60df 1121 0000      	.insn	6, 0x112160df
    44c8e36e:	0000                	.insn	2, 0x0000
    44c8e370:	64df 1121 0000      	.insn	6, 0x112164df
    44c8e376:	0000                	.insn	2, 0x0000
    44c8e378:	68df 1121 0000      	.insn	6, 0x112168df
    44c8e37e:	0000                	.insn	2, 0x0000
    44c8e380:	6cdf 1121 0000      	.insn	6, 0x11216cdf
    44c8e386:	0000                	.insn	2, 0x0000
    44c8e388:	70df 1121 0000      	.insn	6, 0x112170df
    44c8e38e:	0000                	.insn	2, 0x0000
    44c8e390:	74df 1121 0000      	.insn	6, 0x112174df
    44c8e396:	0000                	.insn	2, 0x0000
    44c8e398:	78df 1121 0000      	.insn	6, 0x112178df
    44c8e39e:	0000                	.insn	2, 0x0000
    44c8e3a0:	7cdf 1121 0000      	.insn	6, 0x11217cdf
    44c8e3a6:	0000                	.insn	2, 0x0000
    44c8e3a8:	80df 1121 0000      	.insn	6, 0x112180df
    44c8e3ae:	0000                	.insn	2, 0x0000
    44c8e3b0:	84df 1121 0000      	.insn	6, 0x112184df
    44c8e3b6:	0000                	.insn	2, 0x0000
    44c8e3b8:	88df 1121 0000      	.insn	6, 0x112188df
    44c8e3be:	0000                	.insn	2, 0x0000
    44c8e3c0:	8cdf 1121 0000      	.insn	6, 0x11218cdf
    44c8e3c6:	0000                	.insn	2, 0x0000
    44c8e3c8:	90df 1121 0000      	.insn	6, 0x112190df
    44c8e3ce:	0000                	.insn	2, 0x0000
    44c8e3d0:	94df 1121 0000      	.insn	6, 0x112194df
    44c8e3d6:	0000                	.insn	2, 0x0000
    44c8e3d8:	98df 1121 0000      	.insn	6, 0x112198df
    44c8e3de:	0000                	.insn	2, 0x0000
    44c8e3e0:	9cdf 1121 0000      	.insn	6, 0x11219cdf
    44c8e3e6:	0000                	.insn	2, 0x0000
    44c8e3e8:	a0df 1121 0000      	.insn	6, 0x1121a0df
    44c8e3ee:	0000                	.insn	2, 0x0000
    44c8e3f0:	a4df 1121 0000      	.insn	6, 0x1121a4df
    44c8e3f6:	0000                	.insn	2, 0x0000
    44c8e3f8:	a8df 1121 0000      	.insn	6, 0x1121a8df
    44c8e3fe:	0000                	.insn	2, 0x0000
    44c8e400:	acdf 1121 0000      	.insn	6, 0x1121acdf
    44c8e406:	0000                	.insn	2, 0x0000
    44c8e408:	b0df 1121 0000      	.insn	6, 0x1121b0df
    44c8e40e:	0000                	.insn	2, 0x0000
    44c8e410:	b4df 1121 0000      	.insn	6, 0x1121b4df
    44c8e416:	0000                	.insn	2, 0x0000
    44c8e418:	b8df 1121 0000      	.insn	6, 0x1121b8df
    44c8e41e:	0000                	.insn	2, 0x0000
    44c8e420:	bcdf 1121 0000      	.insn	6, 0x1121bcdf
    44c8e426:	0000                	.insn	2, 0x0000
    44c8e428:	c0df 1121 0000      	.insn	6, 0x1121c0df
    44c8e42e:	0000                	.insn	2, 0x0000
    44c8e430:	c4df 1121 0000      	.insn	6, 0x1121c4df
    44c8e436:	0000                	.insn	2, 0x0000
    44c8e438:	c8df 1121 0000      	.insn	6, 0x1121c8df
    44c8e43e:	0000                	.insn	2, 0x0000
    44c8e440:	ccdf 1121 0000      	.insn	6, 0x1121ccdf
    44c8e446:	0000                	.insn	2, 0x0000
    44c8e448:	d0df 1121 0000      	.insn	6, 0x1121d0df
    44c8e44e:	0000                	.insn	2, 0x0000
    44c8e450:	d4df 1121 0000      	.insn	6, 0x1121d4df
    44c8e456:	0000                	.insn	2, 0x0000
    44c8e458:	d8df 1121 0000      	.insn	6, 0x1121d8df
    44c8e45e:	0000                	.insn	2, 0x0000
    44c8e460:	dcdf 1121 0000      	.insn	6, 0x1121dcdf
    44c8e466:	0000                	.insn	2, 0x0000
    44c8e468:	e0df 1121 0000      	.insn	6, 0x1121e0df
    44c8e46e:	0000                	.insn	2, 0x0000
    44c8e470:	e4df 1121 0000      	.insn	6, 0x1121e4df
    44c8e476:	0000                	.insn	2, 0x0000
    44c8e478:	e8df 1121 0000      	.insn	6, 0x1121e8df
    44c8e47e:	0000                	.insn	2, 0x0000
    44c8e480:	ecdf 1121 0000      	.insn	6, 0x1121ecdf
    44c8e486:	0000                	.insn	2, 0x0000
    44c8e488:	f0df 1121 0000      	.insn	6, 0x1121f0df
    44c8e48e:	0000                	.insn	2, 0x0000
    44c8e490:	f4df 1121 0000      	.insn	6, 0x1121f4df
    44c8e496:	0000                	.insn	2, 0x0000
    44c8e498:	f8df 1121 0000      	.insn	6, 0x1121f8df
    44c8e49e:	0000                	.insn	2, 0x0000
    44c8e4a0:	fcdf 1121 0000      	.insn	6, 0x1121fcdf
    44c8e4a6:	0000                	.insn	2, 0x0000
    44c8e4a8:	00df 1122 0000      	.insn	6, 0x112200df
    44c8e4ae:	0000                	.insn	2, 0x0000
    44c8e4b0:	04df 1122 0000      	.insn	6, 0x112204df
    44c8e4b6:	0000                	.insn	2, 0x0000
    44c8e4b8:	08df 1122 0000      	.insn	6, 0x112208df
    44c8e4be:	0000                	.insn	2, 0x0000
    44c8e4c0:	0cdf 1122 0000      	.insn	6, 0x11220cdf
    44c8e4c6:	0000                	.insn	2, 0x0000
    44c8e4c8:	10df 1122 0000      	.insn	6, 0x112210df
    44c8e4ce:	0000                	.insn	2, 0x0000
    44c8e4d0:	14df 1122 0000      	.insn	6, 0x112214df
    44c8e4d6:	0000                	.insn	2, 0x0000
    44c8e4d8:	18df 1122 0000      	.insn	6, 0x112218df
    44c8e4de:	0000                	.insn	2, 0x0000
    44c8e4e0:	1cdf 1122 0000      	.insn	6, 0x11221cdf
    44c8e4e6:	0000                	.insn	2, 0x0000
    44c8e4e8:	20df 1122 0000      	.insn	6, 0x112220df
    44c8e4ee:	0000                	.insn	2, 0x0000
    44c8e4f0:	24df 1122 0000      	.insn	6, 0x112224df
    44c8e4f6:	0000                	.insn	2, 0x0000
    44c8e4f8:	28df 1122 0000      	.insn	6, 0x112228df
    44c8e4fe:	0000                	.insn	2, 0x0000
    44c8e500:	2cdf 1122 0000      	.insn	6, 0x11222cdf
    44c8e506:	0000                	.insn	2, 0x0000
    44c8e508:	30df 1122 0000      	.insn	6, 0x112230df
    44c8e50e:	0000                	.insn	2, 0x0000
    44c8e510:	34df 1122 0000      	.insn	6, 0x112234df
    44c8e516:	0000                	.insn	2, 0x0000
    44c8e518:	38df 1122 0000      	.insn	6, 0x112238df
    44c8e51e:	0000                	.insn	2, 0x0000
    44c8e520:	3cdf 1122 0000      	.insn	6, 0x11223cdf
    44c8e526:	0000                	.insn	2, 0x0000
    44c8e528:	40df 1122 0000      	.insn	6, 0x112240df
    44c8e52e:	0000                	.insn	2, 0x0000
    44c8e530:	44df 1122 0000      	.insn	6, 0x112244df
    44c8e536:	0000                	.insn	2, 0x0000
    44c8e538:	48df 1122 0000      	.insn	6, 0x112248df
    44c8e53e:	0000                	.insn	2, 0x0000
    44c8e540:	4cdf 1122 0000      	.insn	6, 0x11224cdf
    44c8e546:	0000                	.insn	2, 0x0000
    44c8e548:	50df 1122 0000      	.insn	6, 0x112250df
    44c8e54e:	0000                	.insn	2, 0x0000
    44c8e550:	54df 1122 0000      	.insn	6, 0x112254df
    44c8e556:	0000                	.insn	2, 0x0000
    44c8e558:	58df 1122 0000      	.insn	6, 0x112258df
    44c8e55e:	0000                	.insn	2, 0x0000
    44c8e560:	5cdf 1122 0000      	.insn	6, 0x11225cdf
    44c8e566:	0000                	.insn	2, 0x0000
    44c8e568:	60df 1122 0000      	.insn	6, 0x112260df
    44c8e56e:	0000                	.insn	2, 0x0000
    44c8e570:	64df 1122 0000      	.insn	6, 0x112264df
    44c8e576:	0000                	.insn	2, 0x0000
    44c8e578:	68df 1122 0000      	.insn	6, 0x112268df
    44c8e57e:	0000                	.insn	2, 0x0000
    44c8e580:	6cdf 1122 0000      	.insn	6, 0x11226cdf
    44c8e586:	0000                	.insn	2, 0x0000
    44c8e588:	70df 1122 0000      	.insn	6, 0x112270df
    44c8e58e:	0000                	.insn	2, 0x0000
    44c8e590:	74df 1122 0000      	.insn	6, 0x112274df
    44c8e596:	0000                	.insn	2, 0x0000
    44c8e598:	78df 1122 0000      	.insn	6, 0x112278df
    44c8e59e:	0000                	.insn	2, 0x0000
    44c8e5a0:	7cdf 1122 0000      	.insn	6, 0x11227cdf
    44c8e5a6:	0000                	.insn	2, 0x0000
    44c8e5a8:	80df 1122 0000      	.insn	6, 0x112280df
    44c8e5ae:	0000                	.insn	2, 0x0000
    44c8e5b0:	84df 1122 0000      	.insn	6, 0x112284df
    44c8e5b6:	0000                	.insn	2, 0x0000
    44c8e5b8:	88df 1122 0000      	.insn	6, 0x112288df
    44c8e5be:	0000                	.insn	2, 0x0000
    44c8e5c0:	8cdf 1122 0000      	.insn	6, 0x11228cdf
    44c8e5c6:	0000                	.insn	2, 0x0000
    44c8e5c8:	90df 1122 0000      	.insn	6, 0x112290df
    44c8e5ce:	0000                	.insn	2, 0x0000
    44c8e5d0:	94df 1122 0000      	.insn	6, 0x112294df
    44c8e5d6:	0000                	.insn	2, 0x0000
    44c8e5d8:	98df 1122 0000      	.insn	6, 0x112298df
    44c8e5de:	0000                	.insn	2, 0x0000
    44c8e5e0:	9cdf 1122 0000      	.insn	6, 0x11229cdf
    44c8e5e6:	0000                	.insn	2, 0x0000
    44c8e5e8:	a0df 1122 0000      	.insn	6, 0x1122a0df
    44c8e5ee:	0000                	.insn	2, 0x0000
    44c8e5f0:	a4df 1122 0000      	.insn	6, 0x1122a4df
    44c8e5f6:	0000                	.insn	2, 0x0000
    44c8e5f8:	a8df 1122 0000      	.insn	6, 0x1122a8df
    44c8e5fe:	0000                	.insn	2, 0x0000
    44c8e600:	acdf 1122 0000      	.insn	6, 0x1122acdf
    44c8e606:	0000                	.insn	2, 0x0000
    44c8e608:	b0df 1122 0000      	.insn	6, 0x1122b0df
    44c8e60e:	0000                	.insn	2, 0x0000
    44c8e610:	b4df 1122 0000      	.insn	6, 0x1122b4df
    44c8e616:	0000                	.insn	2, 0x0000
    44c8e618:	b8df 1122 0000      	.insn	6, 0x1122b8df
    44c8e61e:	0000                	.insn	2, 0x0000
    44c8e620:	bcdf 1122 0000      	.insn	6, 0x1122bcdf
    44c8e626:	0000                	.insn	2, 0x0000
    44c8e628:	c0df 1122 0000      	.insn	6, 0x1122c0df
    44c8e62e:	0000                	.insn	2, 0x0000
    44c8e630:	c4df 1122 0000      	.insn	6, 0x1122c4df
    44c8e636:	0000                	.insn	2, 0x0000
    44c8e638:	c8df 1122 0000      	.insn	6, 0x1122c8df
    44c8e63e:	0000                	.insn	2, 0x0000
    44c8e640:	ccdf 1122 0000      	.insn	6, 0x1122ccdf
    44c8e646:	0000                	.insn	2, 0x0000
    44c8e648:	d0df 1122 0000      	.insn	6, 0x1122d0df
    44c8e64e:	0000                	.insn	2, 0x0000
    44c8e650:	d4df 1122 0000      	.insn	6, 0x1122d4df
    44c8e656:	0000                	.insn	2, 0x0000
    44c8e658:	d8df 1122 0000      	.insn	6, 0x1122d8df
    44c8e65e:	0000                	.insn	2, 0x0000
    44c8e660:	dcdf 1122 0000      	.insn	6, 0x1122dcdf
    44c8e666:	0000                	.insn	2, 0x0000
    44c8e668:	e0df 1122 0000      	.insn	6, 0x1122e0df
    44c8e66e:	0000                	.insn	2, 0x0000
    44c8e670:	e4df 1122 0000      	.insn	6, 0x1122e4df
    44c8e676:	0000                	.insn	2, 0x0000
    44c8e678:	e8df 1122 0000      	.insn	6, 0x1122e8df
    44c8e67e:	0000                	.insn	2, 0x0000
    44c8e680:	ecdf 1122 0000      	.insn	6, 0x1122ecdf
    44c8e686:	0000                	.insn	2, 0x0000
    44c8e688:	f0df 1122 0000      	.insn	6, 0x1122f0df
    44c8e68e:	0000                	.insn	2, 0x0000
    44c8e690:	f4df 1122 0000      	.insn	6, 0x1122f4df
    44c8e696:	0000                	.insn	2, 0x0000
    44c8e698:	f8df 1122 0000      	.insn	6, 0x1122f8df
    44c8e69e:	0000                	.insn	2, 0x0000
    44c8e6a0:	fcdf 1122 0000      	.insn	6, 0x1122fcdf
    44c8e6a6:	0000                	.insn	2, 0x0000
    44c8e6a8:	00df 1123 0000      	.insn	6, 0x112300df
    44c8e6ae:	0000                	.insn	2, 0x0000
    44c8e6b0:	04df 1123 0000      	.insn	6, 0x112304df
    44c8e6b6:	0000                	.insn	2, 0x0000
    44c8e6b8:	08df 1123 0000      	.insn	6, 0x112308df
    44c8e6be:	0000                	.insn	2, 0x0000
    44c8e6c0:	0cdf 1123 0000      	.insn	6, 0x11230cdf
    44c8e6c6:	0000                	.insn	2, 0x0000
    44c8e6c8:	10df 1123 0000      	.insn	6, 0x112310df
    44c8e6ce:	0000                	.insn	2, 0x0000
    44c8e6d0:	14df 1123 0000      	.insn	6, 0x112314df
    44c8e6d6:	0000                	.insn	2, 0x0000
    44c8e6d8:	18df 1123 0000      	.insn	6, 0x112318df
    44c8e6de:	0000                	.insn	2, 0x0000
    44c8e6e0:	1cdf 1123 0000      	.insn	6, 0x11231cdf
    44c8e6e6:	0000                	.insn	2, 0x0000
    44c8e6e8:	20df 1123 0000      	.insn	6, 0x112320df
    44c8e6ee:	0000                	.insn	2, 0x0000
    44c8e6f0:	24df 1123 0000      	.insn	6, 0x112324df
    44c8e6f6:	0000                	.insn	2, 0x0000
    44c8e6f8:	28df 1123 0000      	.insn	6, 0x112328df
    44c8e6fe:	0000                	.insn	2, 0x0000
    44c8e700:	2cdf 1123 0000      	.insn	6, 0x11232cdf
    44c8e706:	0000                	.insn	2, 0x0000
    44c8e708:	30df 1123 0000      	.insn	6, 0x112330df
    44c8e70e:	0000                	.insn	2, 0x0000
    44c8e710:	34df 1123 0000      	.insn	6, 0x112334df
    44c8e716:	0000                	.insn	2, 0x0000
    44c8e718:	38df 1123 0000      	.insn	6, 0x112338df
    44c8e71e:	0000                	.insn	2, 0x0000
    44c8e720:	3cdf 1123 0000      	.insn	6, 0x11233cdf
    44c8e726:	0000                	.insn	2, 0x0000
    44c8e728:	40df 1123 0000      	.insn	6, 0x112340df
    44c8e72e:	0000                	.insn	2, 0x0000
    44c8e730:	44df 1123 0000      	.insn	6, 0x112344df
    44c8e736:	0000                	.insn	2, 0x0000
    44c8e738:	48df 1123 0000      	.insn	6, 0x112348df
    44c8e73e:	0000                	.insn	2, 0x0000
    44c8e740:	4cdf 1123 0000      	.insn	6, 0x11234cdf
    44c8e746:	0000                	.insn	2, 0x0000
    44c8e748:	50df 1123 0000      	.insn	6, 0x112350df
    44c8e74e:	0000                	.insn	2, 0x0000
    44c8e750:	54df 1123 0000      	.insn	6, 0x112354df
    44c8e756:	0000                	.insn	2, 0x0000
    44c8e758:	58df 1123 0000      	.insn	6, 0x112358df
    44c8e75e:	0000                	.insn	2, 0x0000
    44c8e760:	5cdf 1123 0000      	.insn	6, 0x11235cdf
    44c8e766:	0000                	.insn	2, 0x0000
    44c8e768:	60df 1123 0000      	.insn	6, 0x112360df
    44c8e76e:	0000                	.insn	2, 0x0000
    44c8e770:	64df 1123 0000      	.insn	6, 0x112364df
    44c8e776:	0000                	.insn	2, 0x0000
    44c8e778:	68df 1123 0000      	.insn	6, 0x112368df
    44c8e77e:	0000                	.insn	2, 0x0000
    44c8e780:	6cdf 1123 0000      	.insn	6, 0x11236cdf
    44c8e786:	0000                	.insn	2, 0x0000
    44c8e788:	70df 1123 0000      	.insn	6, 0x112370df
    44c8e78e:	0000                	.insn	2, 0x0000
    44c8e790:	74df 1123 0000      	.insn	6, 0x112374df
    44c8e796:	0000                	.insn	2, 0x0000
    44c8e798:	78df 1123 0000      	.insn	6, 0x112378df
    44c8e79e:	0000                	.insn	2, 0x0000
    44c8e7a0:	7cdf 1123 0000      	.insn	6, 0x11237cdf
    44c8e7a6:	0000                	.insn	2, 0x0000
    44c8e7a8:	80df 1123 0000      	.insn	6, 0x112380df
    44c8e7ae:	0000                	.insn	2, 0x0000
    44c8e7b0:	84df 1123 0000      	.insn	6, 0x112384df
    44c8e7b6:	0000                	.insn	2, 0x0000
    44c8e7b8:	88df 1123 0000      	.insn	6, 0x112388df
    44c8e7be:	0000                	.insn	2, 0x0000
    44c8e7c0:	8cdf 1123 0000      	.insn	6, 0x11238cdf
    44c8e7c6:	0000                	.insn	2, 0x0000
    44c8e7c8:	90df 1123 0000      	.insn	6, 0x112390df
    44c8e7ce:	0000                	.insn	2, 0x0000
    44c8e7d0:	94df 1123 0000      	.insn	6, 0x112394df
    44c8e7d6:	0000                	.insn	2, 0x0000
    44c8e7d8:	98df 1123 0000      	.insn	6, 0x112398df
    44c8e7de:	0000                	.insn	2, 0x0000
    44c8e7e0:	9cdf 1123 0000      	.insn	6, 0x11239cdf
    44c8e7e6:	0000                	.insn	2, 0x0000
    44c8e7e8:	a0df 1123 0000      	.insn	6, 0x1123a0df
    44c8e7ee:	0000                	.insn	2, 0x0000
    44c8e7f0:	a4df 1123 0000      	.insn	6, 0x1123a4df
    44c8e7f6:	0000                	.insn	2, 0x0000
    44c8e7f8:	a8df 1123 0000      	.insn	6, 0x1123a8df
    44c8e7fe:	0000                	.insn	2, 0x0000
    44c8e800:	acdf 1123 0000      	.insn	6, 0x1123acdf
    44c8e806:	0000                	.insn	2, 0x0000
    44c8e808:	b0df 1123 0000      	.insn	6, 0x1123b0df
    44c8e80e:	0000                	.insn	2, 0x0000
    44c8e810:	b4df 1123 0000      	.insn	6, 0x1123b4df
    44c8e816:	0000                	.insn	2, 0x0000
    44c8e818:	b8df 1123 0000      	.insn	6, 0x1123b8df
    44c8e81e:	0000                	.insn	2, 0x0000
    44c8e820:	bcdf 1123 0000      	.insn	6, 0x1123bcdf
    44c8e826:	0000                	.insn	2, 0x0000
    44c8e828:	c0df 1123 0000      	.insn	6, 0x1123c0df
    44c8e82e:	0000                	.insn	2, 0x0000
    44c8e830:	c4df 1123 0000      	.insn	6, 0x1123c4df
    44c8e836:	0000                	.insn	2, 0x0000
    44c8e838:	c8df 1123 0000      	.insn	6, 0x1123c8df
    44c8e83e:	0000                	.insn	2, 0x0000
    44c8e840:	ccdf 1123 0000      	.insn	6, 0x1123ccdf
    44c8e846:	0000                	.insn	2, 0x0000
    44c8e848:	d0df 1123 0000      	.insn	6, 0x1123d0df
    44c8e84e:	0000                	.insn	2, 0x0000
    44c8e850:	d4df 1123 0000      	.insn	6, 0x1123d4df
    44c8e856:	0000                	.insn	2, 0x0000
    44c8e858:	d8df 1123 0000      	.insn	6, 0x1123d8df
    44c8e85e:	0000                	.insn	2, 0x0000
    44c8e860:	dcdf 1123 0000      	.insn	6, 0x1123dcdf
    44c8e866:	0000                	.insn	2, 0x0000
    44c8e868:	e0df 1123 0000      	.insn	6, 0x1123e0df
    44c8e86e:	0000                	.insn	2, 0x0000
    44c8e870:	e4df 1123 0000      	.insn	6, 0x1123e4df
    44c8e876:	0000                	.insn	2, 0x0000
    44c8e878:	e8df 1123 0000      	.insn	6, 0x1123e8df
    44c8e87e:	0000                	.insn	2, 0x0000
    44c8e880:	ecdf 1123 0000      	.insn	6, 0x1123ecdf
    44c8e886:	0000                	.insn	2, 0x0000
    44c8e888:	f0df 1123 0000      	.insn	6, 0x1123f0df
    44c8e88e:	0000                	.insn	2, 0x0000
    44c8e890:	f4df 1123 0000      	.insn	6, 0x1123f4df
    44c8e896:	0000                	.insn	2, 0x0000
    44c8e898:	f8df 1123 0000      	.insn	6, 0x1123f8df
    44c8e89e:	0000                	.insn	2, 0x0000
    44c8e8a0:	fcdf 1123 0000      	.insn	6, 0x1123fcdf
    44c8e8a6:	0000                	.insn	2, 0x0000
    44c8e8a8:	00df 1124 0000      	.insn	6, 0x112400df
    44c8e8ae:	0000                	.insn	2, 0x0000
    44c8e8b0:	04df 1124 0000      	.insn	6, 0x112404df
    44c8e8b6:	0000                	.insn	2, 0x0000
    44c8e8b8:	08df 1124 0000      	.insn	6, 0x112408df
    44c8e8be:	0000                	.insn	2, 0x0000
    44c8e8c0:	0cdf 1124 0000      	.insn	6, 0x11240cdf
    44c8e8c6:	0000                	.insn	2, 0x0000
    44c8e8c8:	10df 1124 0000      	.insn	6, 0x112410df
    44c8e8ce:	0000                	.insn	2, 0x0000
    44c8e8d0:	14df 1124 0000      	.insn	6, 0x112414df
    44c8e8d6:	0000                	.insn	2, 0x0000
    44c8e8d8:	18df 1124 0000      	.insn	6, 0x112418df
    44c8e8de:	0000                	.insn	2, 0x0000
    44c8e8e0:	1cdf 1124 0000      	.insn	6, 0x11241cdf
    44c8e8e6:	0000                	.insn	2, 0x0000
    44c8e8e8:	20df 1124 0000      	.insn	6, 0x112420df
    44c8e8ee:	0000                	.insn	2, 0x0000
    44c8e8f0:	24df 1124 0000      	.insn	6, 0x112424df
    44c8e8f6:	0000                	.insn	2, 0x0000
    44c8e8f8:	28df 1124 0000      	.insn	6, 0x112428df
    44c8e8fe:	0000                	.insn	2, 0x0000
    44c8e900:	2cdf 1124 0000      	.insn	6, 0x11242cdf
    44c8e906:	0000                	.insn	2, 0x0000
    44c8e908:	30df 1124 0000      	.insn	6, 0x112430df
    44c8e90e:	0000                	.insn	2, 0x0000
    44c8e910:	34df 1124 0000      	.insn	6, 0x112434df
    44c8e916:	0000                	.insn	2, 0x0000
    44c8e918:	38df 1124 0000      	.insn	6, 0x112438df
    44c8e91e:	0000                	.insn	2, 0x0000
    44c8e920:	3cdf 1124 0000      	.insn	6, 0x11243cdf
    44c8e926:	0000                	.insn	2, 0x0000
    44c8e928:	40df 1124 0000      	.insn	6, 0x112440df
    44c8e92e:	0000                	.insn	2, 0x0000
    44c8e930:	44df 1124 0000      	.insn	6, 0x112444df
    44c8e936:	0000                	.insn	2, 0x0000
    44c8e938:	48df 1124 0000      	.insn	6, 0x112448df
    44c8e93e:	0000                	.insn	2, 0x0000
    44c8e940:	4cdf 1124 0000      	.insn	6, 0x11244cdf
    44c8e946:	0000                	.insn	2, 0x0000
    44c8e948:	50df 1124 0000      	.insn	6, 0x112450df
    44c8e94e:	0000                	.insn	2, 0x0000
    44c8e950:	54df 1124 0000      	.insn	6, 0x112454df
    44c8e956:	0000                	.insn	2, 0x0000
    44c8e958:	58df 1124 0000      	.insn	6, 0x112458df
    44c8e95e:	0000                	.insn	2, 0x0000
    44c8e960:	5cdf 1124 0000      	.insn	6, 0x11245cdf
    44c8e966:	0000                	.insn	2, 0x0000
    44c8e968:	60df 1124 0000      	.insn	6, 0x112460df
    44c8e96e:	0000                	.insn	2, 0x0000
    44c8e970:	64df 1124 0000      	.insn	6, 0x112464df
    44c8e976:	0000                	.insn	2, 0x0000
    44c8e978:	68df 1124 0000      	.insn	6, 0x112468df
    44c8e97e:	0000                	.insn	2, 0x0000
    44c8e980:	6cdf 1124 0000      	.insn	6, 0x11246cdf
    44c8e986:	0000                	.insn	2, 0x0000
    44c8e988:	70df 1124 0000      	.insn	6, 0x112470df
    44c8e98e:	0000                	.insn	2, 0x0000
    44c8e990:	74df 1124 0000      	.insn	6, 0x112474df
    44c8e996:	0000                	.insn	2, 0x0000
    44c8e998:	78df 1124 0000      	.insn	6, 0x112478df
    44c8e99e:	0000                	.insn	2, 0x0000
    44c8e9a0:	7cdf 1124 0000      	.insn	6, 0x11247cdf
    44c8e9a6:	0000                	.insn	2, 0x0000
    44c8e9a8:	80df 1124 0000      	.insn	6, 0x112480df
    44c8e9ae:	0000                	.insn	2, 0x0000
    44c8e9b0:	84df 1124 0000      	.insn	6, 0x112484df
    44c8e9b6:	0000                	.insn	2, 0x0000
    44c8e9b8:	88df 1124 0000      	.insn	6, 0x112488df
    44c8e9be:	0000                	.insn	2, 0x0000
    44c8e9c0:	8cdf 1124 0000      	.insn	6, 0x11248cdf
    44c8e9c6:	0000                	.insn	2, 0x0000
    44c8e9c8:	90df 1124 0000      	.insn	6, 0x112490df
    44c8e9ce:	0000                	.insn	2, 0x0000
    44c8e9d0:	94df 1124 0000      	.insn	6, 0x112494df
    44c8e9d6:	0000                	.insn	2, 0x0000
    44c8e9d8:	98df 1124 0000      	.insn	6, 0x112498df
    44c8e9de:	0000                	.insn	2, 0x0000
    44c8e9e0:	9cdf 1124 0000      	.insn	6, 0x11249cdf
    44c8e9e6:	0000                	.insn	2, 0x0000
    44c8e9e8:	a0df 1124 0000      	.insn	6, 0x1124a0df
    44c8e9ee:	0000                	.insn	2, 0x0000
    44c8e9f0:	a4df 1124 0000      	.insn	6, 0x1124a4df
    44c8e9f6:	0000                	.insn	2, 0x0000
    44c8e9f8:	a8df 1124 0000      	.insn	6, 0x1124a8df
    44c8e9fe:	0000                	.insn	2, 0x0000
    44c8ea00:	acdf 1124 0000      	.insn	6, 0x1124acdf
    44c8ea06:	0000                	.insn	2, 0x0000
    44c8ea08:	b0df 1124 0000      	.insn	6, 0x1124b0df
    44c8ea0e:	0000                	.insn	2, 0x0000
    44c8ea10:	b4df 1124 0000      	.insn	6, 0x1124b4df
    44c8ea16:	0000                	.insn	2, 0x0000
    44c8ea18:	b8df 1124 0000      	.insn	6, 0x1124b8df
    44c8ea1e:	0000                	.insn	2, 0x0000
    44c8ea20:	bcdf 1124 0000      	.insn	6, 0x1124bcdf
    44c8ea26:	0000                	.insn	2, 0x0000
    44c8ea28:	c0df 1124 0000      	.insn	6, 0x1124c0df
    44c8ea2e:	0000                	.insn	2, 0x0000
    44c8ea30:	c4df 1124 0000      	.insn	6, 0x1124c4df
    44c8ea36:	0000                	.insn	2, 0x0000
    44c8ea38:	c8df 1124 0000      	.insn	6, 0x1124c8df
    44c8ea3e:	0000                	.insn	2, 0x0000
    44c8ea40:	ccdf 1124 0000      	.insn	6, 0x1124ccdf
    44c8ea46:	0000                	.insn	2, 0x0000
    44c8ea48:	d0df 1124 0000      	.insn	6, 0x1124d0df
    44c8ea4e:	0000                	.insn	2, 0x0000
    44c8ea50:	d4df 1124 0000      	.insn	6, 0x1124d4df
    44c8ea56:	0000                	.insn	2, 0x0000
    44c8ea58:	d8df 1124 0000      	.insn	6, 0x1124d8df
    44c8ea5e:	0000                	.insn	2, 0x0000
    44c8ea60:	dcdf 1124 0000      	.insn	6, 0x1124dcdf
    44c8ea66:	0000                	.insn	2, 0x0000
    44c8ea68:	e0df 1124 0000      	.insn	6, 0x1124e0df
    44c8ea6e:	0000                	.insn	2, 0x0000
    44c8ea70:	e4df 1124 0000      	.insn	6, 0x1124e4df
    44c8ea76:	0000                	.insn	2, 0x0000
    44c8ea78:	e8df 1124 0000      	.insn	6, 0x1124e8df
    44c8ea7e:	0000                	.insn	2, 0x0000
    44c8ea80:	ecdf 1124 0000      	.insn	6, 0x1124ecdf
    44c8ea86:	0000                	.insn	2, 0x0000
    44c8ea88:	f0df 1124 0000      	.insn	6, 0x1124f0df
    44c8ea8e:	0000                	.insn	2, 0x0000
    44c8ea90:	f4df 1124 0000      	.insn	6, 0x1124f4df
    44c8ea96:	0000                	.insn	2, 0x0000
    44c8ea98:	f8df 1124 0000      	.insn	6, 0x1124f8df
    44c8ea9e:	0000                	.insn	2, 0x0000
    44c8eaa0:	fcdf 1124 0000      	.insn	6, 0x1124fcdf
    44c8eaa6:	0000                	.insn	2, 0x0000
    44c8eaa8:	00df 1125 0000      	.insn	6, 0x112500df
    44c8eaae:	0000                	.insn	2, 0x0000
    44c8eab0:	04df 1125 0000      	.insn	6, 0x112504df
    44c8eab6:	0000                	.insn	2, 0x0000
    44c8eab8:	08df 1125 0000      	.insn	6, 0x112508df
    44c8eabe:	0000                	.insn	2, 0x0000
    44c8eac0:	0cdf 1125 0000      	.insn	6, 0x11250cdf
    44c8eac6:	0000                	.insn	2, 0x0000
    44c8eac8:	10df 1125 0000      	.insn	6, 0x112510df
    44c8eace:	0000                	.insn	2, 0x0000
    44c8ead0:	14df 1125 0000      	.insn	6, 0x112514df
    44c8ead6:	0000                	.insn	2, 0x0000
    44c8ead8:	18df 1125 0000      	.insn	6, 0x112518df
    44c8eade:	0000                	.insn	2, 0x0000
    44c8eae0:	1cdf 1125 0000      	.insn	6, 0x11251cdf
    44c8eae6:	0000                	.insn	2, 0x0000
    44c8eae8:	20df 1125 0000      	.insn	6, 0x112520df
    44c8eaee:	0000                	.insn	2, 0x0000
    44c8eaf0:	24df 1125 0000      	.insn	6, 0x112524df
    44c8eaf6:	0000                	.insn	2, 0x0000
    44c8eaf8:	28df 1125 0000      	.insn	6, 0x112528df
    44c8eafe:	0000                	.insn	2, 0x0000
    44c8eb00:	2cdf 1125 0000      	.insn	6, 0x11252cdf
    44c8eb06:	0000                	.insn	2, 0x0000
    44c8eb08:	30df 1125 0000      	.insn	6, 0x112530df
    44c8eb0e:	0000                	.insn	2, 0x0000
    44c8eb10:	34df 1125 0000      	.insn	6, 0x112534df
    44c8eb16:	0000                	.insn	2, 0x0000
    44c8eb18:	38df 1125 0000      	.insn	6, 0x112538df
    44c8eb1e:	0000                	.insn	2, 0x0000
    44c8eb20:	3cdf 1125 0000      	.insn	6, 0x11253cdf
    44c8eb26:	0000                	.insn	2, 0x0000
    44c8eb28:	40df 1125 0000      	.insn	6, 0x112540df
    44c8eb2e:	0000                	.insn	2, 0x0000
    44c8eb30:	44df 1125 0000      	.insn	6, 0x112544df
    44c8eb36:	0000                	.insn	2, 0x0000
    44c8eb38:	48df 1125 0000      	.insn	6, 0x112548df
    44c8eb3e:	0000                	.insn	2, 0x0000
    44c8eb40:	4cdf 1125 0000      	.insn	6, 0x11254cdf
    44c8eb46:	0000                	.insn	2, 0x0000
    44c8eb48:	50df 1125 0000      	.insn	6, 0x112550df
    44c8eb4e:	0000                	.insn	2, 0x0000
    44c8eb50:	54df 1125 0000      	.insn	6, 0x112554df
    44c8eb56:	0000                	.insn	2, 0x0000
    44c8eb58:	58df 1125 0000      	.insn	6, 0x112558df
    44c8eb5e:	0000                	.insn	2, 0x0000
    44c8eb60:	5cdf 1125 0000      	.insn	6, 0x11255cdf
    44c8eb66:	0000                	.insn	2, 0x0000
    44c8eb68:	60df 1125 0000      	.insn	6, 0x112560df
    44c8eb6e:	0000                	.insn	2, 0x0000
    44c8eb70:	64df 1125 0000      	.insn	6, 0x112564df
    44c8eb76:	0000                	.insn	2, 0x0000
    44c8eb78:	68df 1125 0000      	.insn	6, 0x112568df
    44c8eb7e:	0000                	.insn	2, 0x0000
    44c8eb80:	6cdf 1125 0000      	.insn	6, 0x11256cdf
    44c8eb86:	0000                	.insn	2, 0x0000
    44c8eb88:	70df 1125 0000      	.insn	6, 0x112570df
    44c8eb8e:	0000                	.insn	2, 0x0000
    44c8eb90:	74df 1125 0000      	.insn	6, 0x112574df
    44c8eb96:	0000                	.insn	2, 0x0000
    44c8eb98:	78df 1125 0000      	.insn	6, 0x112578df
    44c8eb9e:	0000                	.insn	2, 0x0000
    44c8eba0:	7cdf 1125 0000      	.insn	6, 0x11257cdf
    44c8eba6:	0000                	.insn	2, 0x0000
    44c8eba8:	80df 1125 0000      	.insn	6, 0x112580df
    44c8ebae:	0000                	.insn	2, 0x0000
    44c8ebb0:	84df 1125 0000      	.insn	6, 0x112584df
    44c8ebb6:	0000                	.insn	2, 0x0000
    44c8ebb8:	88df 1125 0000      	.insn	6, 0x112588df
    44c8ebbe:	0000                	.insn	2, 0x0000
    44c8ebc0:	8cdf 1125 0000      	.insn	6, 0x11258cdf
    44c8ebc6:	0000                	.insn	2, 0x0000
    44c8ebc8:	90df 1125 0000      	.insn	6, 0x112590df
    44c8ebce:	0000                	.insn	2, 0x0000
    44c8ebd0:	94df 1125 0000      	.insn	6, 0x112594df
    44c8ebd6:	0000                	.insn	2, 0x0000
    44c8ebd8:	98df 1125 0000      	.insn	6, 0x112598df
    44c8ebde:	0000                	.insn	2, 0x0000
    44c8ebe0:	9cdf 1125 0000      	.insn	6, 0x11259cdf
    44c8ebe6:	0000                	.insn	2, 0x0000
    44c8ebe8:	a0df 1125 0000      	.insn	6, 0x1125a0df
    44c8ebee:	0000                	.insn	2, 0x0000
    44c8ebf0:	a4df 1125 0000      	.insn	6, 0x1125a4df
    44c8ebf6:	0000                	.insn	2, 0x0000
    44c8ebf8:	a8df 1125 0000      	.insn	6, 0x1125a8df
    44c8ebfe:	0000                	.insn	2, 0x0000
    44c8ec00:	acdf 1125 0000      	.insn	6, 0x1125acdf
    44c8ec06:	0000                	.insn	2, 0x0000
    44c8ec08:	b0df 1125 0000      	.insn	6, 0x1125b0df
    44c8ec0e:	0000                	.insn	2, 0x0000
    44c8ec10:	b4df 1125 0000      	.insn	6, 0x1125b4df
    44c8ec16:	0000                	.insn	2, 0x0000
    44c8ec18:	b8df 1125 0000      	.insn	6, 0x1125b8df
    44c8ec1e:	0000                	.insn	2, 0x0000
    44c8ec20:	bcdf 1125 0000      	.insn	6, 0x1125bcdf
    44c8ec26:	0000                	.insn	2, 0x0000
    44c8ec28:	c0df 1125 0000      	.insn	6, 0x1125c0df
    44c8ec2e:	0000                	.insn	2, 0x0000
    44c8ec30:	c4df 1125 0000      	.insn	6, 0x1125c4df
    44c8ec36:	0000                	.insn	2, 0x0000
    44c8ec38:	c8df 1125 0000      	.insn	6, 0x1125c8df
    44c8ec3e:	0000                	.insn	2, 0x0000
    44c8ec40:	ccdf 1125 0000      	.insn	6, 0x1125ccdf
    44c8ec46:	0000                	.insn	2, 0x0000
    44c8ec48:	d0df 1125 0000      	.insn	6, 0x1125d0df
    44c8ec4e:	0000                	.insn	2, 0x0000
    44c8ec50:	d4df 1125 0000      	.insn	6, 0x1125d4df
    44c8ec56:	0000                	.insn	2, 0x0000
    44c8ec58:	d8df 1125 0000      	.insn	6, 0x1125d8df
    44c8ec5e:	0000                	.insn	2, 0x0000
    44c8ec60:	dcdf 1125 0000      	.insn	6, 0x1125dcdf
    44c8ec66:	0000                	.insn	2, 0x0000
    44c8ec68:	e0df 1125 0000      	.insn	6, 0x1125e0df
    44c8ec6e:	0000                	.insn	2, 0x0000
    44c8ec70:	e4df 1125 0000      	.insn	6, 0x1125e4df
    44c8ec76:	0000                	.insn	2, 0x0000
    44c8ec78:	e8df 1125 0000      	.insn	6, 0x1125e8df
    44c8ec7e:	0000                	.insn	2, 0x0000
    44c8ec80:	ecdf 1125 0000      	.insn	6, 0x1125ecdf
    44c8ec86:	0000                	.insn	2, 0x0000
    44c8ec88:	f0df 1125 0000      	.insn	6, 0x1125f0df
    44c8ec8e:	0000                	.insn	2, 0x0000
    44c8ec90:	f4df 1125 0000      	.insn	6, 0x1125f4df
    44c8ec96:	0000                	.insn	2, 0x0000
    44c8ec98:	f8df 1125 0000      	.insn	6, 0x1125f8df
    44c8ec9e:	0000                	.insn	2, 0x0000
    44c8eca0:	fcdf 1125 0000      	.insn	6, 0x1125fcdf
    44c8eca6:	0000                	.insn	2, 0x0000
    44c8eca8:	00df 1126 0000      	.insn	6, 0x112600df
    44c8ecae:	0000                	.insn	2, 0x0000
    44c8ecb0:	04df 1126 0000      	.insn	6, 0x112604df
    44c8ecb6:	0000                	.insn	2, 0x0000
    44c8ecb8:	08df 1126 0000      	.insn	6, 0x112608df
    44c8ecbe:	0000                	.insn	2, 0x0000
    44c8ecc0:	0cdf 1126 0000      	.insn	6, 0x11260cdf
    44c8ecc6:	0000                	.insn	2, 0x0000
    44c8ecc8:	10df 1126 0000      	.insn	6, 0x112610df
    44c8ecce:	0000                	.insn	2, 0x0000
    44c8ecd0:	14df 1126 0000      	.insn	6, 0x112614df
    44c8ecd6:	0000                	.insn	2, 0x0000
    44c8ecd8:	18df 1126 0000      	.insn	6, 0x112618df
    44c8ecde:	0000                	.insn	2, 0x0000
    44c8ece0:	1cdf 1126 0000      	.insn	6, 0x11261cdf
    44c8ece6:	0000                	.insn	2, 0x0000
    44c8ece8:	20df 1126 0000      	.insn	6, 0x112620df
    44c8ecee:	0000                	.insn	2, 0x0000
    44c8ecf0:	24df 1126 0000      	.insn	6, 0x112624df
    44c8ecf6:	0000                	.insn	2, 0x0000
    44c8ecf8:	28df 1126 0000      	.insn	6, 0x112628df
    44c8ecfe:	0000                	.insn	2, 0x0000
    44c8ed00:	2cdf 1126 0000      	.insn	6, 0x11262cdf
    44c8ed06:	0000                	.insn	2, 0x0000
    44c8ed08:	30df 1126 0000      	.insn	6, 0x112630df
    44c8ed0e:	0000                	.insn	2, 0x0000
    44c8ed10:	34df 1126 0000      	.insn	6, 0x112634df
    44c8ed16:	0000                	.insn	2, 0x0000
    44c8ed18:	38df 1126 0000      	.insn	6, 0x112638df
    44c8ed1e:	0000                	.insn	2, 0x0000
    44c8ed20:	3cdf 1126 0000      	.insn	6, 0x11263cdf
    44c8ed26:	0000                	.insn	2, 0x0000
    44c8ed28:	40df 1126 0000      	.insn	6, 0x112640df
    44c8ed2e:	0000                	.insn	2, 0x0000
    44c8ed30:	44df 1126 0000      	.insn	6, 0x112644df
    44c8ed36:	0000                	.insn	2, 0x0000
    44c8ed38:	48df 1126 0000      	.insn	6, 0x112648df
    44c8ed3e:	0000                	.insn	2, 0x0000
    44c8ed40:	4cdf 1126 0000      	.insn	6, 0x11264cdf
    44c8ed46:	0000                	.insn	2, 0x0000
    44c8ed48:	50df 1126 0000      	.insn	6, 0x112650df
    44c8ed4e:	0000                	.insn	2, 0x0000
    44c8ed50:	54df 1126 0000      	.insn	6, 0x112654df
    44c8ed56:	0000                	.insn	2, 0x0000
    44c8ed58:	58df 1126 0000      	.insn	6, 0x112658df
    44c8ed5e:	0000                	.insn	2, 0x0000
    44c8ed60:	5cdf 1126 0000      	.insn	6, 0x11265cdf
    44c8ed66:	0000                	.insn	2, 0x0000
    44c8ed68:	60df 1126 0000      	.insn	6, 0x112660df
    44c8ed6e:	0000                	.insn	2, 0x0000
    44c8ed70:	64df 1126 0000      	.insn	6, 0x112664df
    44c8ed76:	0000                	.insn	2, 0x0000
    44c8ed78:	68df 1126 0000      	.insn	6, 0x112668df
    44c8ed7e:	0000                	.insn	2, 0x0000
    44c8ed80:	6cdf 1126 0000      	.insn	6, 0x11266cdf
    44c8ed86:	0000                	.insn	2, 0x0000
    44c8ed88:	70df 1126 0000      	.insn	6, 0x112670df
    44c8ed8e:	0000                	.insn	2, 0x0000
    44c8ed90:	74df 1126 0000      	.insn	6, 0x112674df
    44c8ed96:	0000                	.insn	2, 0x0000
    44c8ed98:	78df 1126 0000      	.insn	6, 0x112678df
    44c8ed9e:	0000                	.insn	2, 0x0000
    44c8eda0:	7cdf 1126 0000      	.insn	6, 0x11267cdf
    44c8eda6:	0000                	.insn	2, 0x0000
    44c8eda8:	80df 1126 0000      	.insn	6, 0x112680df
    44c8edae:	0000                	.insn	2, 0x0000
    44c8edb0:	84df 1126 0000      	.insn	6, 0x112684df
    44c8edb6:	0000                	.insn	2, 0x0000
    44c8edb8:	88df 1126 0000      	.insn	6, 0x112688df
    44c8edbe:	0000                	.insn	2, 0x0000
    44c8edc0:	8cdf 1126 0000      	.insn	6, 0x11268cdf
    44c8edc6:	0000                	.insn	2, 0x0000
    44c8edc8:	90df 1126 0000      	.insn	6, 0x112690df
    44c8edce:	0000                	.insn	2, 0x0000
    44c8edd0:	94df 1126 0000      	.insn	6, 0x112694df
    44c8edd6:	0000                	.insn	2, 0x0000
    44c8edd8:	98df 1126 0000      	.insn	6, 0x112698df
    44c8edde:	0000                	.insn	2, 0x0000
    44c8ede0:	9cdf 1126 0000      	.insn	6, 0x11269cdf
    44c8ede6:	0000                	.insn	2, 0x0000
    44c8ede8:	a0df 1126 0000      	.insn	6, 0x1126a0df
    44c8edee:	0000                	.insn	2, 0x0000
    44c8edf0:	a4df 1126 0000      	.insn	6, 0x1126a4df
    44c8edf6:	0000                	.insn	2, 0x0000
    44c8edf8:	a8df 1126 0000      	.insn	6, 0x1126a8df
    44c8edfe:	0000                	.insn	2, 0x0000
    44c8ee00:	acdf 1126 0000      	.insn	6, 0x1126acdf
    44c8ee06:	0000                	.insn	2, 0x0000
    44c8ee08:	b0df 1126 0000      	.insn	6, 0x1126b0df
    44c8ee0e:	0000                	.insn	2, 0x0000
    44c8ee10:	b4df 1126 0000      	.insn	6, 0x1126b4df
    44c8ee16:	0000                	.insn	2, 0x0000
    44c8ee18:	b8df 1126 0000      	.insn	6, 0x1126b8df
    44c8ee1e:	0000                	.insn	2, 0x0000
    44c8ee20:	bcdf 1126 0000      	.insn	6, 0x1126bcdf
    44c8ee26:	0000                	.insn	2, 0x0000
    44c8ee28:	c0df 1126 0000      	.insn	6, 0x1126c0df
    44c8ee2e:	0000                	.insn	2, 0x0000
    44c8ee30:	c4df 1126 0000      	.insn	6, 0x1126c4df
    44c8ee36:	0000                	.insn	2, 0x0000
    44c8ee38:	c8df 1126 0000      	.insn	6, 0x1126c8df
    44c8ee3e:	0000                	.insn	2, 0x0000
    44c8ee40:	ccdf 1126 0000      	.insn	6, 0x1126ccdf
    44c8ee46:	0000                	.insn	2, 0x0000
    44c8ee48:	d0df 1126 0000      	.insn	6, 0x1126d0df
    44c8ee4e:	0000                	.insn	2, 0x0000
    44c8ee50:	d4df 1126 0000      	.insn	6, 0x1126d4df
    44c8ee56:	0000                	.insn	2, 0x0000
    44c8ee58:	d8df 1126 0000      	.insn	6, 0x1126d8df
    44c8ee5e:	0000                	.insn	2, 0x0000
    44c8ee60:	dcdf 1126 0000      	.insn	6, 0x1126dcdf
    44c8ee66:	0000                	.insn	2, 0x0000
    44c8ee68:	e0df 1126 0000      	.insn	6, 0x1126e0df
    44c8ee6e:	0000                	.insn	2, 0x0000
    44c8ee70:	e4df 1126 0000      	.insn	6, 0x1126e4df
    44c8ee76:	0000                	.insn	2, 0x0000
    44c8ee78:	e8df 1126 0000      	.insn	6, 0x1126e8df
    44c8ee7e:	0000                	.insn	2, 0x0000
    44c8ee80:	ecdf 1126 0000      	.insn	6, 0x1126ecdf
    44c8ee86:	0000                	.insn	2, 0x0000
    44c8ee88:	f0df 1126 0000      	.insn	6, 0x1126f0df
    44c8ee8e:	0000                	.insn	2, 0x0000
    44c8ee90:	f4df 1126 0000      	.insn	6, 0x1126f4df
    44c8ee96:	0000                	.insn	2, 0x0000
    44c8ee98:	f8df 1126 0000      	.insn	6, 0x1126f8df
    44c8ee9e:	0000                	.insn	2, 0x0000
    44c8eea0:	fcdf 1126 0000      	.insn	6, 0x1126fcdf
    44c8eea6:	0000                	.insn	2, 0x0000
    44c8eea8:	00df 1127 0000      	.insn	6, 0x112700df
    44c8eeae:	0000                	.insn	2, 0x0000
    44c8eeb0:	04df 1127 0000      	.insn	6, 0x112704df
    44c8eeb6:	0000                	.insn	2, 0x0000
    44c8eeb8:	08df 1127 0000      	.insn	6, 0x112708df
    44c8eebe:	0000                	.insn	2, 0x0000
    44c8eec0:	0cdf 1127 0000      	.insn	6, 0x11270cdf
    44c8eec6:	0000                	.insn	2, 0x0000
    44c8eec8:	10df 1127 0000      	.insn	6, 0x112710df
    44c8eece:	0000                	.insn	2, 0x0000
    44c8eed0:	14df 1127 0000      	.insn	6, 0x112714df
    44c8eed6:	0000                	.insn	2, 0x0000
    44c8eed8:	18df 1127 0000      	.insn	6, 0x112718df
    44c8eede:	0000                	.insn	2, 0x0000
    44c8eee0:	1cdf 1127 0000      	.insn	6, 0x11271cdf
    44c8eee6:	0000                	.insn	2, 0x0000
    44c8eee8:	20df 1127 0000      	.insn	6, 0x112720df
    44c8eeee:	0000                	.insn	2, 0x0000
    44c8eef0:	24df 1127 0000      	.insn	6, 0x112724df
    44c8eef6:	0000                	.insn	2, 0x0000
    44c8eef8:	28df 1127 0000      	.insn	6, 0x112728df
    44c8eefe:	0000                	.insn	2, 0x0000
    44c8ef00:	2cdf 1127 0000      	.insn	6, 0x11272cdf
    44c8ef06:	0000                	.insn	2, 0x0000
    44c8ef08:	30df 1127 0000      	.insn	6, 0x112730df
    44c8ef0e:	0000                	.insn	2, 0x0000
    44c8ef10:	34df 1127 0000      	.insn	6, 0x112734df
    44c8ef16:	0000                	.insn	2, 0x0000
    44c8ef18:	38df 1127 0000      	.insn	6, 0x112738df
    44c8ef1e:	0000                	.insn	2, 0x0000
    44c8ef20:	3cdf 1127 0000      	.insn	6, 0x11273cdf
    44c8ef26:	0000                	.insn	2, 0x0000
    44c8ef28:	40df 1127 0000      	.insn	6, 0x112740df
    44c8ef2e:	0000                	.insn	2, 0x0000
    44c8ef30:	44df 1127 0000      	.insn	6, 0x112744df
    44c8ef36:	0000                	.insn	2, 0x0000
    44c8ef38:	48df 1127 0000      	.insn	6, 0x112748df
    44c8ef3e:	0000                	.insn	2, 0x0000
    44c8ef40:	4cdf 1127 0000      	.insn	6, 0x11274cdf
    44c8ef46:	0000                	.insn	2, 0x0000
    44c8ef48:	50df 1127 0000      	.insn	6, 0x112750df
    44c8ef4e:	0000                	.insn	2, 0x0000
    44c8ef50:	54df 1127 0000      	.insn	6, 0x112754df
    44c8ef56:	0000                	.insn	2, 0x0000
    44c8ef58:	58df 1127 0000      	.insn	6, 0x112758df
    44c8ef5e:	0000                	.insn	2, 0x0000
    44c8ef60:	5cdf 1127 0000      	.insn	6, 0x11275cdf
    44c8ef66:	0000                	.insn	2, 0x0000
    44c8ef68:	60df 1127 0000      	.insn	6, 0x112760df
    44c8ef6e:	0000                	.insn	2, 0x0000
    44c8ef70:	64df 1127 0000      	.insn	6, 0x112764df
    44c8ef76:	0000                	.insn	2, 0x0000
    44c8ef78:	68df 1127 0000      	.insn	6, 0x112768df
    44c8ef7e:	0000                	.insn	2, 0x0000
    44c8ef80:	6cdf 1127 0000      	.insn	6, 0x11276cdf
    44c8ef86:	0000                	.insn	2, 0x0000
    44c8ef88:	70df 1127 0000      	.insn	6, 0x112770df
    44c8ef8e:	0000                	.insn	2, 0x0000
    44c8ef90:	74df 1127 0000      	.insn	6, 0x112774df
    44c8ef96:	0000                	.insn	2, 0x0000
    44c8ef98:	78df 1127 0000      	.insn	6, 0x112778df
    44c8ef9e:	0000                	.insn	2, 0x0000
    44c8efa0:	7cdf 1127 0000      	.insn	6, 0x11277cdf
    44c8efa6:	0000                	.insn	2, 0x0000
    44c8efa8:	80df 1127 0000      	.insn	6, 0x112780df
    44c8efae:	0000                	.insn	2, 0x0000
    44c8efb0:	84df 1127 0000      	.insn	6, 0x112784df
    44c8efb6:	0000                	.insn	2, 0x0000
    44c8efb8:	88df 1127 0000      	.insn	6, 0x112788df
    44c8efbe:	0000                	.insn	2, 0x0000
    44c8efc0:	8cdf 1127 0000      	.insn	6, 0x11278cdf
    44c8efc6:	0000                	.insn	2, 0x0000
    44c8efc8:	90df 1127 0000      	.insn	6, 0x112790df
    44c8efce:	0000                	.insn	2, 0x0000
    44c8efd0:	94df 1127 0000      	.insn	6, 0x112794df
    44c8efd6:	0000                	.insn	2, 0x0000
    44c8efd8:	98df 1127 0000      	.insn	6, 0x112798df
    44c8efde:	0000                	.insn	2, 0x0000
    44c8efe0:	9cdf 1127 0000      	.insn	6, 0x11279cdf
    44c8efe6:	0000                	.insn	2, 0x0000
    44c8efe8:	a0df 1127 0000      	.insn	6, 0x1127a0df
    44c8efee:	0000                	.insn	2, 0x0000
    44c8eff0:	a4df 1127 0000      	.insn	6, 0x1127a4df
    44c8eff6:	0000                	.insn	2, 0x0000
    44c8eff8:	a8df 1127 0000      	.insn	6, 0x1127a8df
	...

Disassembly of section .__pagetable_map_os_0x0000000044df7000:

0000000044df7000 <__pagetable_map_os_0x0000000044df7000>:
    44df7000:	acdf 1127 0000      	.insn	6, 0x1127acdf
    44df7006:	0000                	.insn	2, 0x0000
    44df7008:	b0df 1127 0000      	.insn	6, 0x1127b0df
    44df700e:	0000                	.insn	2, 0x0000
    44df7010:	b4df 1127 0000      	.insn	6, 0x1127b4df
    44df7016:	0000                	.insn	2, 0x0000
    44df7018:	b8df 1127 0000      	.insn	6, 0x1127b8df
    44df701e:	0000                	.insn	2, 0x0000
    44df7020:	bcdf 1127 0000      	.insn	6, 0x1127bcdf
    44df7026:	0000                	.insn	2, 0x0000
    44df7028:	c0df 1127 0000      	.insn	6, 0x1127c0df
    44df702e:	0000                	.insn	2, 0x0000
    44df7030:	c4df 1127 0000      	.insn	6, 0x1127c4df
    44df7036:	0000                	.insn	2, 0x0000
    44df7038:	c8df 1127 0000      	.insn	6, 0x1127c8df
    44df703e:	0000                	.insn	2, 0x0000
    44df7040:	ccdf 1127 0000      	.insn	6, 0x1127ccdf
    44df7046:	0000                	.insn	2, 0x0000
    44df7048:	1127d0cf          	fnmadd.s	f1,f15,f18,f2,unknown
    44df704c:	0000                	.insn	2, 0x0000
    44df704e:	0000                	.insn	2, 0x0000
    44df7050:	1127d4cf          	fnmadd.s	f9,f15,f18,f2,unknown
    44df7054:	0000                	.insn	2, 0x0000
    44df7056:	0000                	.insn	2, 0x0000
    44df7058:	1127d8cf          	fnmadd.s	f17,f15,f18,f2,unknown
