
/home/abdullah/RiescueC/riescue/10x_R/zicond/testsuite/zicond/super_sv57/tp_zicond_2:     file format elf64-littleriscv


Disassembly of section .runtime:

0000000041000000 <_start>:
    41000000:	00000093          	li	x1,0
    41000004:	00000113          	li	x2,0
    41000008:	00000193          	li	x3,0
    4100000c:	00000213          	li	x4,0
    41000010:	00000293          	li	x5,0
    41000014:	00000313          	li	x6,0
    41000018:	00000393          	li	x7,0
    4100001c:	00000413          	li	x8,0
    41000020:	00000493          	li	x9,0
    41000024:	00000513          	li	x10,0
    41000028:	00000593          	li	x11,0
    4100002c:	00000613          	li	x12,0
    41000030:	00000693          	li	x13,0
    41000034:	00000713          	li	x14,0
    41000038:	00000793          	li	x15,0
    4100003c:	00000813          	li	x16,0
    41000040:	00000893          	li	x17,0
    41000044:	00000913          	li	x18,0
    41000048:	00000993          	li	x19,0
    4100004c:	00000a13          	li	x20,0
    41000050:	00000a93          	li	x21,0
    41000054:	00000b13          	li	x22,0
    41000058:	00000b93          	li	x23,0
    4100005c:	00000c13          	li	x24,0
    41000060:	00000c93          	li	x25,0
    41000064:	00000d13          	li	x26,0
    41000068:	00000d93          	li	x27,0
    4100006c:	00000e13          	li	x28,0
    41000070:	00000e93          	li	x29,0
    41000074:	00000f13          	li	x30,0
    41000078:	00000f93          	li	x31,0

000000004100007c <loader__load_panic_address>:
    4100007c:	00001297          	auipc	x5,0x1
    41000080:	9b828293          	addi	x5,x5,-1608 # 41000a34 <eot__failed>
    41000084:	30529073          	csrw	mtvec,x5

0000000041000088 <loader__initialize_runtime>:
    41000088:	00000293          	li	x5,0
    4100008c:	3012a2f3          	csrrs	x5,misa,x5

0000000041000090 <loader__set_mstatus>:
    41000090:	000402b7          	lui	x5,0x40
    41000094:	00a2829b          	addiw	x5,x5,10 # 4000a <pma_region_0_size+0xa>
    41000098:	3002a2f3          	csrrs	x5,mstatus,x5
    4100009c:	44623237          	lui	x4,0x44623
    410000a0:	34021073          	csrw	mscratch,x4

00000000410000a4 <loader__setup_menvcfg>:
    410000a4:	00000297          	auipc	x5,0x0
    410000a8:	47c28293          	addi	x5,x5,1148 # 41000520 <trap_handler_m__trap_entry>
    410000ac:	30529073          	csrw	mtvec,x5

00000000410000b0 <loader__enable_paging>:
    410000b0:	fffa00b7          	lui	x1,0xfffa0
    410000b4:	0970809b          	addiw	x1,x1,151 # fffffffffffa0097 <SID_EXCEP_01_EQZ_RS1_Z_stack+0xff5890dbaf524097>
    410000b8:	02009093          	slli	x1,x1,0x20
    410000bc:	04508093          	addi	x1,x1,69
    410000c0:	00c09093          	slli	x1,x1,0xc
    410000c4:	e8808093          	addi	x1,x1,-376
    410000c8:	18009073          	csrw	satp,x1

00000000410000cc <loader__done>:
    410000cc:	1910006f          	j	41000a5c <scheduler__init>

00000000410000d0 <loader__panic>:
    410000d0:	1650006f          	j	41000a34 <eot__failed>

00000000410000d4 <syscalls__syscall_check_schedule_next_test>:
    410000d4:	00f0029b          	addiw	x5,x0,15
    410000d8:	01c29293          	slli	x5,x5,0x1c
    410000dc:	00128293          	addi	x5,x5,1
    410000e0:	01f29a63          	bne	x5,x31,410000f4 <syscalls__syscall_check_fail_test>
    410000e4:	00000317          	auipc	x6,0x0
    410000e8:	43c30313          	addi	x6,x6,1084 # 41000520 <trap_handler_m__trap_entry>
    410000ec:	30531073          	csrw	mtvec,x6
    410000f0:	6740006f          	j	41000764 <enter_scheduler>

00000000410000f4 <syscalls__syscall_check_fail_test>:
    410000f4:	00f0029b          	addiw	x5,x0,15
    410000f8:	01c29293          	slli	x5,x5,0x1c
    410000fc:	00228293          	addi	x5,x5,2
    41000100:	01f29a63          	bne	x5,x31,41000114 <syscalls__syscall_check_end_test_without_failure>
    41000104:	00000317          	auipc	x6,0x0
    41000108:	41c30313          	addi	x6,x6,1052 # 41000520 <trap_handler_m__trap_entry>
    4100010c:	30531073          	csrw	mtvec,x6
    41000110:	6840006f          	j	41000794 <test_failed>

0000000041000114 <syscalls__syscall_check_end_test_without_failure>:
    41000114:	00f0029b          	addiw	x5,x0,15
    41000118:	01c29293          	slli	x5,x5,0x1c
    4100011c:	00328293          	addi	x5,x5,3
    41000120:	01f29a63          	bne	x5,x31,41000134 <syscalls__syscall_check_switch_machine_mode>
    41000124:	00000317          	auipc	x6,0x0
    41000128:	3fc30313          	addi	x6,x6,1020 # 41000520 <trap_handler_m__trap_entry>
    4100012c:	30531073          	csrw	mtvec,x6
    41000130:	6700006f          	j	410007a0 <os_end_test>

0000000041000134 <syscalls__syscall_check_switch_machine_mode>:
    41000134:	000f02b7          	lui	x5,0xf0
    41000138:	0012829b          	addiw	x5,x5,1 # f0001 <SID_EXCEP_04_NEZ_PASSING_AND_stack+0x95001>
    4100013c:	00c29293          	slli	x5,x5,0xc
    41000140:	00128293          	addi	x5,x5,1
    41000144:	0a5f8463          	beq	x31,x5,410001ec <syscalls__os_fn_f0001001>

0000000041000148 <syscalls__syscall_check_switch_super_mode>:
    41000148:	000f02b7          	lui	x5,0xf0
    4100014c:	0012829b          	addiw	x5,x5,1 # f0001 <SID_EXCEP_04_NEZ_PASSING_AND_stack+0x95001>
    41000150:	00c29293          	slli	x5,x5,0xc
    41000154:	00228293          	addi	x5,x5,2
    41000158:	0c5f8063          	beq	x31,x5,41000218 <syscalls__os_fn_f0001002>

000000004100015c <syscalls__syscall_check_switch_user_mode>:
    4100015c:	000f02b7          	lui	x5,0xf0
    41000160:	0012829b          	addiw	x5,x5,1 # f0001 <SID_EXCEP_04_NEZ_PASSING_AND_stack+0x95001>
    41000164:	00c29293          	slli	x5,x5,0xc
    41000168:	00328293          	addi	x5,x5,3
    4100016c:	0a5f8a63          	beq	x31,x5,41000220 <syscalls__os_fn_f0001003>

0000000041000170 <syscalls__syscall_check_switch_test_mode>:
    41000170:	000f02b7          	lui	x5,0xf0
    41000174:	0012829b          	addiw	x5,x5,1 # f0001 <SID_EXCEP_04_NEZ_PASSING_AND_stack+0x95001>
    41000178:	00c29293          	slli	x5,x5,0xc
    4100017c:	00428293          	addi	x5,x5,4
    41000180:	0c5f8463          	beq	x31,x5,41000248 <syscalls__os_fn_f0001004>

0000000041000184 <syscalls__syscall_machine_csr_rw>:
    41000184:	000f02b7          	lui	x5,0xf0
    41000188:	0012829b          	addiw	x5,x5,1 # f0001 <SID_EXCEP_04_NEZ_PASSING_AND_stack+0x95001>
    4100018c:	00c29293          	slli	x5,x5,0xc
    41000190:	00528293          	addi	x5,x5,5
    41000194:	0e5f8063          	beq	x31,x5,41000274 <syscalls__os_fn_f0001005>

0000000041000198 <syscalls__syscall_supervisor_csr_rw>:
    41000198:	000f02b7          	lui	x5,0xf0
    4100019c:	0012829b          	addiw	x5,x5,1 # f0001 <SID_EXCEP_04_NEZ_PASSING_AND_stack+0x95001>
    410001a0:	00c29293          	slli	x5,x5,0xc
    410001a4:	00628293          	addi	x5,x5,6
    410001a8:	0e5f8c63          	beq	x31,x5,410002a0 <syscalls__os_fn_f0001006>

00000000410001ac <syscalls__syscall_machine_pte_read>:
    410001ac:	000f02b7          	lui	x5,0xf0
    410001b0:	0012829b          	addiw	x5,x5,1 # f0001 <SID_EXCEP_04_NEZ_PASSING_AND_stack+0x95001>
    410001b4:	00c29293          	slli	x5,x5,0xc
    410001b8:	00728293          	addi	x5,x5,7
    410001bc:	0e5f8663          	beq	x31,x5,410002a8 <syscalls__os_fn_f0001007>

00000000410001c0 <syscalls__syscall_machine_pte_write>:
    410001c0:	000f02b7          	lui	x5,0xf0
    410001c4:	0012829b          	addiw	x5,x5,1 # f0001 <SID_EXCEP_04_NEZ_PASSING_AND_stack+0x95001>
    410001c8:	00c29293          	slli	x5,x5,0xc
    410001cc:	00828293          	addi	x5,x5,8
    410001d0:	1c5f8263          	beq	x31,x5,41000394 <syscalls__os_fn_f0001008>

00000000410001d4 <syscalls__syscall_check_get_hart_context>:
    410001d4:	000782b7          	lui	x5,0x78
    410001d8:	0012829b          	addiw	x5,x5,1 # 78001 <SID_EXCEP_04_NEZ_PASSING_AND_stack+0x1d001>
    410001dc:	00d29293          	slli	x5,x5,0xd
    410001e0:	00128293          	addi	x5,x5,1
    410001e4:	285f8e63          	beq	x31,x5,41000480 <syscalls__os_get_hart_context>
    410001e8:	4940006f          	j	4100067c <trap_handler_m__check_exception_label>

00000000410001ec <syscalls__os_fn_f0001001>:
    410001ec:	000022b7          	lui	x5,0x2
    410001f0:	8002829b          	addiw	x5,x5,-2048 # 1800 <pma_region_1_size+0x800>
    410001f4:	3002b073          	csrc	mstatus,x5
    410001f8:	000022b7          	lui	x5,0x2
    410001fc:	8002829b          	addiw	x5,x5,-2048 # 1800 <pma_region_1_size+0x800>
    41000200:	3002a073          	csrs	mstatus,x5
    41000204:	0010029b          	addiw	x5,x0,1
    41000208:	02729293          	slli	x5,x5,0x27
    4100020c:	3002b073          	csrc	mstatus,x5
    41000210:	411942b7          	lui	x5,0x41194
    41000214:	27c0006f          	j	41000490 <syscalls__ret_from_os_fn>

0000000041000218 <syscalls__os_fn_f0001002>:
    41000218:	410942b7          	lui	x5,0x41094
    4100021c:	2740006f          	j	41000490 <syscalls__ret_from_os_fn>

0000000041000220 <syscalls__os_fn_f0001003>:
    41000220:	000022b7          	lui	x5,0x2
    41000224:	8002829b          	addiw	x5,x5,-2048 # 1800 <pma_region_1_size+0x800>
    41000228:	3002b073          	csrc	mstatus,x5
    4100022c:	00000293          	li	x5,0
    41000230:	3002a073          	csrs	mstatus,x5
    41000234:	0010029b          	addiw	x5,x0,1
    41000238:	02729293          	slli	x5,x5,0x27
    4100023c:	3002b073          	csrc	mstatus,x5
    41000240:	411142b7          	lui	x5,0x41114
    41000244:	24c0006f          	j	41000490 <syscalls__ret_from_os_fn>

0000000041000248 <syscalls__os_fn_f0001004>:
    41000248:	000022b7          	lui	x5,0x2
    4100024c:	8002829b          	addiw	x5,x5,-2048 # 1800 <pma_region_1_size+0x800>
    41000250:	3002b073          	csrc	mstatus,x5
    41000254:	000012b7          	lui	x5,0x1
    41000258:	8002829b          	addiw	x5,x5,-2048 # 800 <XLEN+0x7c0>
    4100025c:	3002a073          	csrs	mstatus,x5
    41000260:	0010029b          	addiw	x5,x0,1
    41000264:	02729293          	slli	x5,x5,0x27
    41000268:	3002b073          	csrc	mstatus,x5
    4100026c:	17823283          	ld	x5,376(x4) # 44623178 <__section_hart_context+0x178>
    41000270:	2200006f          	j	41000490 <syscalls__ret_from_os_fn>

0000000041000274 <syscalls__os_fn_f0001005>:
    41000274:	000022b7          	lui	x5,0x2
    41000278:	8002829b          	addiw	x5,x5,-2048 # 1800 <pma_region_1_size+0x800>
    4100027c:	3002b073          	csrc	mstatus,x5
    41000280:	000022b7          	lui	x5,0x2
    41000284:	8002829b          	addiw	x5,x5,-2048 # 1800 <pma_region_1_size+0x800>
    41000288:	3002a073          	csrs	mstatus,x5
    4100028c:	0010029b          	addiw	x5,x0,1
    41000290:	02729293          	slli	x5,x5,0x27
    41000294:	3002b073          	csrc	mstatus,x5
    41000298:	412142b7          	lui	x5,0x41214
    4100029c:	1f40006f          	j	41000490 <syscalls__ret_from_os_fn>

00000000410002a0 <syscalls__os_fn_f0001006>:
    410002a0:	412152b7          	lui	x5,0x41215
    410002a4:	1ec0006f          	j	41000490 <syscalls__ret_from_os_fn>

00000000410002a8 <syscalls__os_fn_f0001007>:
    410002a8:	44288fb7          	lui	x31,0x44288
    410002ac:	0b0f8f9b          	addiw	x31,x31,176 # 442880b0 <pte_access_flags_pa>
    410002b0:	000fbf83          	ld	x31,0(x31)
    410002b4:	442882b7          	lui	x5,0x44288
    410002b8:	0b82829b          	addiw	x5,x5,184 # 442880b8 <pte_access_flags_pa+0x8>
    410002bc:	0002b283          	ld	x5,0(x5)
    410002c0:	44288e37          	lui	x28,0x44288
    410002c4:	0c0e0e1b          	addiw	x28,x28,192 # 442880c0 <pte_access_flags_pa+0x10>
    410002c8:	000e3e03          	ld	x28,0(x28)

00000000410002cc <syscalls__pte_walk_check_glevel_without_gstage_read>:
    410002cc:	fff00f93          	li	x31,-1
    410002d0:	0dfe1063          	bne	x28,x31,41000390 <syscalls__pte_walk_fail_read>
    410002d4:	18002373          	csrr	x6,satp
    410002d8:	03c35e93          	srli	x29,x6,0x3c
    410002dc:	01431313          	slli	x6,x6,0x14
    410002e0:	01435313          	srli	x6,x6,0x14
    410002e4:	00c31313          	slli	x6,x6,0xc
    410002e8:	ff8e8e93          	addi	x29,x29,-8
    410002ec:	003e9f13          	slli	x30,x29,0x3
    410002f0:	01df0eb3          	add	x29,x30,x29
    410002f4:	01ee8e93          	addi	x29,x29,30
    410002f8:	00000f13          	li	x30,0

00000000410002fc <syscalls__pte_walk_loop_read>:
    410002fc:	44288fb7          	lui	x31,0x44288
    41000300:	0b0f8f9b          	addiw	x31,x31,176 # 442880b0 <pte_access_flags_pa>
    41000304:	000fbf83          	ld	x31,0(x31)
    41000308:	01dfdfb3          	srl	x31,x31,x29
    4100030c:	1fffff93          	andi	x31,x31,511
    41000310:	003f9f93          	slli	x31,x31,0x3
    41000314:	01f30333          	add	x6,x6,x31
    41000318:	005f0e63          	beq	x30,x5,41000334 <syscalls__pte_walk_done_read>
    4100031c:	00033f83          	ld	x31,0(x6)
    41000320:	00afdf93          	srli	x31,x31,0xa
    41000324:	00cf9313          	slli	x6,x31,0xc
    41000328:	001f0f13          	addi	x30,x30,1
    4100032c:	ff7e8e93          	addi	x29,x29,-9
    41000330:	fcdff06f          	j	410002fc <syscalls__pte_walk_loop_read>

0000000041000334 <syscalls__pte_walk_done_read>:
    41000334:	fff00f93          	li	x31,-1
    41000338:	05fe0263          	beq	x28,x31,4100037c <syscalls__pte_walk_final_read>

000000004100033c <syscalls__pte_walk_gstage_read>:
    4100033c:	44288fb7          	lui	x31,0x44288
    41000340:	0b0f8f9b          	addiw	x31,x31,176 # 442880b0 <pte_access_flags_pa>
    41000344:	006fb023          	sd	x6,0(x31)
    41000348:	000e0293          	mv	x5,x28
    4100034c:	fff00e13          	li	x28,-1
    41000350:	68002373          	csrr	x6,hgatp
    41000354:	03c35e93          	srli	x29,x6,0x3c
    41000358:	01431313          	slli	x6,x6,0x14
    4100035c:	01435313          	srli	x6,x6,0x14
    41000360:	00c31313          	slli	x6,x6,0xc
    41000364:	ff8e8e93          	addi	x29,x29,-8
    41000368:	003e9f13          	slli	x30,x29,0x3
    4100036c:	01df0eb3          	add	x29,x30,x29
    41000370:	01ee8e93          	addi	x29,x29,30
    41000374:	00000f13          	li	x30,0
    41000378:	f85ff06f          	j	410002fc <syscalls__pte_walk_loop_read>

000000004100037c <syscalls__pte_walk_final_read>:
    4100037c:	00033383          	ld	x7,0(x6)
    41000380:	341022f3          	csrr	x5,mepc
    41000384:	00428293          	addi	x5,x5,4
    41000388:	16523c23          	sd	x5,376(x4) # 178 <XLEN+0x138>
    4100038c:	ebdff06f          	j	41000248 <syscalls__os_fn_f0001004>

0000000041000390 <syscalls__pte_walk_fail_read>:
    41000390:	4040006f          	j	41000794 <test_failed>

0000000041000394 <syscalls__os_fn_f0001008>:
    41000394:	44288fb7          	lui	x31,0x44288
    41000398:	0b0f8f9b          	addiw	x31,x31,176 # 442880b0 <pte_access_flags_pa>
    4100039c:	000fbf83          	ld	x31,0(x31)
    410003a0:	442882b7          	lui	x5,0x44288
    410003a4:	0b82829b          	addiw	x5,x5,184 # 442880b8 <pte_access_flags_pa+0x8>
    410003a8:	0002b283          	ld	x5,0(x5)
    410003ac:	44288e37          	lui	x28,0x44288
    410003b0:	0c0e0e1b          	addiw	x28,x28,192 # 442880c0 <pte_access_flags_pa+0x10>
    410003b4:	000e3e03          	ld	x28,0(x28)

00000000410003b8 <syscalls__pte_walk_check_glevel_without_gstage_write>:
    410003b8:	fff00f93          	li	x31,-1
    410003bc:	0dfe1063          	bne	x28,x31,4100047c <syscalls__pte_walk_fail_write>
    410003c0:	18002373          	csrr	x6,satp
    410003c4:	03c35e93          	srli	x29,x6,0x3c
    410003c8:	01431313          	slli	x6,x6,0x14
    410003cc:	01435313          	srli	x6,x6,0x14
    410003d0:	00c31313          	slli	x6,x6,0xc
    410003d4:	ff8e8e93          	addi	x29,x29,-8
    410003d8:	003e9f13          	slli	x30,x29,0x3
    410003dc:	01df0eb3          	add	x29,x30,x29
    410003e0:	01ee8e93          	addi	x29,x29,30
    410003e4:	00000f13          	li	x30,0

00000000410003e8 <syscalls__pte_walk_loop_write>:
    410003e8:	44288fb7          	lui	x31,0x44288
    410003ec:	0b0f8f9b          	addiw	x31,x31,176 # 442880b0 <pte_access_flags_pa>
    410003f0:	000fbf83          	ld	x31,0(x31)
    410003f4:	01dfdfb3          	srl	x31,x31,x29
    410003f8:	1fffff93          	andi	x31,x31,511
    410003fc:	003f9f93          	slli	x31,x31,0x3
    41000400:	01f30333          	add	x6,x6,x31
    41000404:	005f0e63          	beq	x30,x5,41000420 <syscalls__pte_walk_done_write>
    41000408:	00033f83          	ld	x31,0(x6)
    4100040c:	00afdf93          	srli	x31,x31,0xa
    41000410:	00cf9313          	slli	x6,x31,0xc
    41000414:	001f0f13          	addi	x30,x30,1
    41000418:	ff7e8e93          	addi	x29,x29,-9
    4100041c:	fcdff06f          	j	410003e8 <syscalls__pte_walk_loop_write>

0000000041000420 <syscalls__pte_walk_done_write>:
    41000420:	fff00f93          	li	x31,-1
    41000424:	05fe0263          	beq	x28,x31,41000468 <syscalls__pte_walk_final_write>

0000000041000428 <syscalls__pte_walk_gstage_write>:
    41000428:	44288fb7          	lui	x31,0x44288
    4100042c:	0b0f8f9b          	addiw	x31,x31,176 # 442880b0 <pte_access_flags_pa>
    41000430:	006fb023          	sd	x6,0(x31)
    41000434:	000e0293          	mv	x5,x28
    41000438:	fff00e13          	li	x28,-1
    4100043c:	68002373          	csrr	x6,hgatp
    41000440:	03c35e93          	srli	x29,x6,0x3c
    41000444:	01431313          	slli	x6,x6,0x14
    41000448:	01435313          	srli	x6,x6,0x14
    4100044c:	00c31313          	slli	x6,x6,0xc
    41000450:	ff8e8e93          	addi	x29,x29,-8
    41000454:	003e9f13          	slli	x30,x29,0x3
    41000458:	01df0eb3          	add	x29,x30,x29
    4100045c:	01ee8e93          	addi	x29,x29,30
    41000460:	00000f13          	li	x30,0
    41000464:	f85ff06f          	j	410003e8 <syscalls__pte_walk_loop_write>

0000000041000468 <syscalls__pte_walk_final_write>:
    41000468:	00733023          	sd	x7,0(x6)
    4100046c:	341022f3          	csrr	x5,mepc
    41000470:	00428293          	addi	x5,x5,4
    41000474:	16523c23          	sd	x5,376(x4) # 178 <XLEN+0x138>
    41000478:	dd1ff06f          	j	41000248 <syscalls__os_fn_f0001004>

000000004100047c <syscalls__pte_walk_fail_write>:
    4100047c:	3180006f          	j	41000794 <test_failed>

0000000041000480 <syscalls__os_get_hart_context>:
    41000480:	14002573          	csrr	x10,sscratch
    41000484:	341022f3          	csrr	x5,mepc
    41000488:	00428293          	addi	x5,x5,4
    4100048c:	0040006f          	j	41000490 <syscalls__ret_from_os_fn>

0000000041000490 <syscalls__ret_from_os_fn>:
    41000490:	34102373          	csrr	x6,mepc
    41000494:	00430313          	addi	x6,x6,4
    41000498:	16623c23          	sd	x6,376(x4) # 178 <XLEN+0x138>
    4100049c:	34129073          	csrw	mepc,x5
    410004a0:	fff00f93          	li	x31,-1
    410004a4:	2a40006f          	j	41000748 <trap_handler_m__skip_xepc_write>

00000000410004a8 <trap_handler_m__invalid_interrupt>:
    410004a8:	2ec0006f          	j	41000794 <test_failed>

00000000410004ac <trap_handler_m__clear_all_interrupts>:
    410004ac:	34401073          	csrw	mip,x0
    410004b0:	30200073          	mret

00000000410004b4 <trap_handler_m___CLEAR_SSI>:
    410004b4:	00200293          	li	x5,2
    410004b8:	3442b073          	csrc	mip,x5
    410004bc:	30200073          	mret

00000000410004c0 <trap_handler_m___CLEAR_MSI>:
    410004c0:	00800293          	li	x5,8
    410004c4:	3442b073          	csrc	mip,x5
    410004c8:	30200073          	mret

00000000410004cc <trap_handler_m___CLEAR_STI>:
    410004cc:	02000293          	li	x5,32
    410004d0:	3442b073          	csrc	mip,x5
    410004d4:	30200073          	mret

00000000410004d8 <trap_handler_m___CLEAR_MTI>:
    410004d8:	08000293          	li	x5,128
    410004dc:	3442b073          	csrc	mip,x5
    410004e0:	30200073          	mret

00000000410004e4 <trap_handler_m___CLEAR_SEI>:
    410004e4:	20000293          	li	x5,512
    410004e8:	3442b073          	csrc	mip,x5
    410004ec:	30200073          	mret

00000000410004f0 <trap_handler_m___CLEAR_MEI>:
    410004f0:	000012b7          	lui	x5,0x1
    410004f4:	8002829b          	addiw	x5,x5,-2048 # 800 <XLEN+0x7c0>
    410004f8:	3442b073          	csrc	mip,x5
    410004fc:	30200073          	mret

0000000041000500 <trap_handler_m___CLEAR_COI>:
    41000500:	000022b7          	lui	x5,0x2
    41000504:	3442b073          	csrc	mip,x5
    41000508:	30200073          	mret

000000004100050c <trap_handler_m__clear_highest_priority_interrupt>:
    4100050c:	344022f3          	csrr	x5,mip
    41000510:	40500333          	neg	x6,x5
    41000514:	0062f2b3          	and	x5,x5,x6
    41000518:	3442b073          	csrc	mip,x5
    4100051c:	30200073          	mret

0000000041000520 <trap_handler_m__trap_entry>:
    41000520:	0fc0006f          	j	4100061c <trap_handler_m__trap_handler>

0000000041000524 <trap_handler_m__interrupt_vector_table>:
    41000524:	f91ff06f          	j	410004b4 <trap_handler_m___CLEAR_SSI>
    41000528:	f81ff06f          	j	410004a8 <trap_handler_m__invalid_interrupt>
    4100052c:	f95ff06f          	j	410004c0 <trap_handler_m___CLEAR_MSI>
    41000530:	f79ff06f          	j	410004a8 <trap_handler_m__invalid_interrupt>
    41000534:	f99ff06f          	j	410004cc <trap_handler_m___CLEAR_STI>
    41000538:	f71ff06f          	j	410004a8 <trap_handler_m__invalid_interrupt>
    4100053c:	f9dff06f          	j	410004d8 <trap_handler_m___CLEAR_MTI>
    41000540:	f69ff06f          	j	410004a8 <trap_handler_m__invalid_interrupt>
    41000544:	fa1ff06f          	j	410004e4 <trap_handler_m___CLEAR_SEI>
    41000548:	f61ff06f          	j	410004a8 <trap_handler_m__invalid_interrupt>
    4100054c:	fa5ff06f          	j	410004f0 <trap_handler_m___CLEAR_MEI>
    41000550:	f59ff06f          	j	410004a8 <trap_handler_m__invalid_interrupt>
    41000554:	fadff06f          	j	41000500 <trap_handler_m___CLEAR_COI>
    41000558:	f51ff06f          	j	410004a8 <trap_handler_m__invalid_interrupt>
    4100055c:	f4dff06f          	j	410004a8 <trap_handler_m__invalid_interrupt>
    41000560:	fadff06f          	j	4100050c <trap_handler_m__clear_highest_priority_interrupt>
    41000564:	fa9ff06f          	j	4100050c <trap_handler_m__clear_highest_priority_interrupt>
    41000568:	fa5ff06f          	j	4100050c <trap_handler_m__clear_highest_priority_interrupt>
    4100056c:	fa1ff06f          	j	4100050c <trap_handler_m__clear_highest_priority_interrupt>
    41000570:	f9dff06f          	j	4100050c <trap_handler_m__clear_highest_priority_interrupt>
    41000574:	f99ff06f          	j	4100050c <trap_handler_m__clear_highest_priority_interrupt>
    41000578:	f95ff06f          	j	4100050c <trap_handler_m__clear_highest_priority_interrupt>
    4100057c:	f91ff06f          	j	4100050c <trap_handler_m__clear_highest_priority_interrupt>
    41000580:	f8dff06f          	j	4100050c <trap_handler_m__clear_highest_priority_interrupt>
    41000584:	f89ff06f          	j	4100050c <trap_handler_m__clear_highest_priority_interrupt>
    41000588:	f85ff06f          	j	4100050c <trap_handler_m__clear_highest_priority_interrupt>
    4100058c:	f81ff06f          	j	4100050c <trap_handler_m__clear_highest_priority_interrupt>
    41000590:	f7dff06f          	j	4100050c <trap_handler_m__clear_highest_priority_interrupt>
    41000594:	f79ff06f          	j	4100050c <trap_handler_m__clear_highest_priority_interrupt>
    41000598:	f75ff06f          	j	4100050c <trap_handler_m__clear_highest_priority_interrupt>
    4100059c:	f71ff06f          	j	4100050c <trap_handler_m__clear_highest_priority_interrupt>
    410005a0:	f6dff06f          	j	4100050c <trap_handler_m__clear_highest_priority_interrupt>
    410005a4:	f69ff06f          	j	4100050c <trap_handler_m__clear_highest_priority_interrupt>
    410005a8:	f65ff06f          	j	4100050c <trap_handler_m__clear_highest_priority_interrupt>
    410005ac:	f61ff06f          	j	4100050c <trap_handler_m__clear_highest_priority_interrupt>
    410005b0:	f5dff06f          	j	4100050c <trap_handler_m__clear_highest_priority_interrupt>
    410005b4:	f59ff06f          	j	4100050c <trap_handler_m__clear_highest_priority_interrupt>
    410005b8:	f55ff06f          	j	4100050c <trap_handler_m__clear_highest_priority_interrupt>
    410005bc:	f51ff06f          	j	4100050c <trap_handler_m__clear_highest_priority_interrupt>
    410005c0:	f4dff06f          	j	4100050c <trap_handler_m__clear_highest_priority_interrupt>
    410005c4:	f49ff06f          	j	4100050c <trap_handler_m__clear_highest_priority_interrupt>
    410005c8:	f45ff06f          	j	4100050c <trap_handler_m__clear_highest_priority_interrupt>
    410005cc:	f41ff06f          	j	4100050c <trap_handler_m__clear_highest_priority_interrupt>
    410005d0:	f3dff06f          	j	4100050c <trap_handler_m__clear_highest_priority_interrupt>
    410005d4:	f39ff06f          	j	4100050c <trap_handler_m__clear_highest_priority_interrupt>
    410005d8:	f35ff06f          	j	4100050c <trap_handler_m__clear_highest_priority_interrupt>
    410005dc:	f31ff06f          	j	4100050c <trap_handler_m__clear_highest_priority_interrupt>
    410005e0:	f2dff06f          	j	4100050c <trap_handler_m__clear_highest_priority_interrupt>
    410005e4:	f29ff06f          	j	4100050c <trap_handler_m__clear_highest_priority_interrupt>
    410005e8:	f25ff06f          	j	4100050c <trap_handler_m__clear_highest_priority_interrupt>
    410005ec:	f21ff06f          	j	4100050c <trap_handler_m__clear_highest_priority_interrupt>
    410005f0:	f1dff06f          	j	4100050c <trap_handler_m__clear_highest_priority_interrupt>
    410005f4:	f19ff06f          	j	4100050c <trap_handler_m__clear_highest_priority_interrupt>
    410005f8:	f15ff06f          	j	4100050c <trap_handler_m__clear_highest_priority_interrupt>
    410005fc:	f11ff06f          	j	4100050c <trap_handler_m__clear_highest_priority_interrupt>
    41000600:	f0dff06f          	j	4100050c <trap_handler_m__clear_highest_priority_interrupt>
    41000604:	f09ff06f          	j	4100050c <trap_handler_m__clear_highest_priority_interrupt>
    41000608:	f05ff06f          	j	4100050c <trap_handler_m__clear_highest_priority_interrupt>
    4100060c:	f01ff06f          	j	4100050c <trap_handler_m__clear_highest_priority_interrupt>
    41000610:	efdff06f          	j	4100050c <trap_handler_m__clear_highest_priority_interrupt>
    41000614:	ef9ff06f          	j	4100050c <trap_handler_m__clear_highest_priority_interrupt>
    41000618:	ef5ff06f          	j	4100050c <trap_handler_m__clear_highest_priority_interrupt>

000000004100061c <trap_handler_m__trap_handler>:
    4100061c:	342022f3          	csrr	x5,mcause
    41000620:	fff0031b          	addiw	x6,x0,-1
    41000624:	03f31313          	slli	x6,x6,0x3f
    41000628:	00537333          	and	x6,x6,x5
    4100062c:	02030263          	beqz	x6,41000650 <trap_handler_m__exception_path>

0000000041000630 <trap_handler_m__interrupt_handler>:
    41000630:	fff0031b          	addiw	x6,x0,-1
    41000634:	03f31313          	slli	x6,x6,0x3f
    41000638:	0062c2b3          	xor	x5,x5,x6
    4100063c:	00000317          	auipc	x6,0x0
    41000640:	ee430313          	addi	x6,x6,-284 # 41000520 <trap_handler_m__trap_entry>
    41000644:	00229293          	slli	x5,x5,0x2
    41000648:	005302b3          	add	x5,x6,x5
    4100064c:	00028067          	jr	x5 # 2000 <SID_EXCEP_01_NEZ_RS1_NZ_stack>

0000000041000650 <trap_handler_m__exception_path>:
    41000650:	34021273          	csrrw	x4,mscratch,x4
    41000654:	00000297          	auipc	x5,0x0
    41000658:	10828293          	addi	x5,x5,264 # 4100075c <trap_handler_m__trap_panic>
    4100065c:	30529073          	csrw	mtvec,x5
    41000660:	0040006f          	j	41000664 <trap_handler_m__excp_entry>

0000000041000664 <trap_handler_m__excp_entry>:
    41000664:	34202373          	csrr	x6,mcause
    41000668:	00800293          	li	x5,8
    4100066c:	00534863          	blt	x6,x5,4100067c <trap_handler_m__check_exception_label>
    41000670:	00b00293          	li	x5,11
    41000674:	0062c463          	blt	x5,x6,4100067c <trap_handler_m__check_exception_label>
    41000678:	a5dff06f          	j	410000d4 <syscalls__syscall_check_schedule_next_test>

000000004100067c <trap_handler_m__check_exception_label>:
    4100067c:	04623c23          	sd	x6,88(x4) # 58 <XLEN+0x18>
    41000680:	341022f3          	csrr	x5,mepc
    41000684:	02523423          	sd	x5,40(x4) # 28 <SECURE_ACCESS_PROBABILITY+0xa>
    41000688:	01820283          	lb	x5,24(x4) # 18 <STORE_GUEST_PAGE_FAULT+0x1>
    4100068c:	00029863          	bnez	x5,4100069c <trap_handler_m__check_excp>
    41000690:	00128293          	addi	x5,x5,1
    41000694:	00520c23          	sb	x5,24(x4) # 18 <STORE_GUEST_PAGE_FAULT+0x1>
    41000698:	0980006f          	j	41000730 <trap_handler_m__ecall_from_machine>

000000004100069c <trap_handler_m__check_excp>:
    4100069c:	06823283          	ld	x5,104(x4) # 68 <XLEN+0x28>
    410006a0:	06023423          	sd	x0,104(x4) # 68 <XLEN+0x28>
    410006a4:	00028663          	beqz	x5,410006b0 <trap_handler_m__skip_mode_check>
    410006a8:	00100393          	li	x7,1
    410006ac:	0e729463          	bne	x5,x7,41000794 <test_failed>

00000000410006b0 <trap_handler_m__skip_mode_check>:
    410006b0:	05023283          	ld	x5,80(x4) # 50 <XLEN+0x10>
    410006b4:	04023823          	sd	x0,80(x4) # 50 <XLEN+0x10>
    410006b8:	0c531e63          	bne	x6,x5,41000794 <test_failed>
    410006bc:	03823283          	ld	x5,56(x4) # 38 <SECURE_ACCESS_PROBABILITY+0x1a>
    410006c0:	02023c23          	sd	x0,56(x4) # 38 <SECURE_ACCESS_PROBABILITY+0x1a>
    410006c4:	06029463          	bnez	x5,4100072c <trap_handler_m__skip_gva_check>
    410006c8:	02023303          	ld	x6,32(x4) # 20 <SECURE_ACCESS_PROBABILITY+0x2>
    410006cc:	02023023          	sd	x0,32(x4) # 20 <SECURE_ACCESS_PROBABILITY+0x2>
    410006d0:	02823283          	ld	x5,40(x4) # 28 <SECURE_ACCESS_PROBABILITY+0xa>
    410006d4:	02023423          	sd	x0,40(x4) # 28 <SECURE_ACCESS_PROBABILITY+0xa>
    410006d8:	0a531e63          	bne	x6,x5,41000794 <test_failed>
    410006dc:	04023283          	ld	x5,64(x4) # 40 <XLEN>
    410006e0:	04023023          	sd	x0,64(x4) # 40 <XLEN>
    410006e4:	00028663          	beqz	x5,410006f0 <trap_handler_m__skip_nonzero_tval_check>

00000000410006e8 <trap_handler_m__nonzero_tval_check>:
    410006e8:	34302373          	csrr	x6,mtval
    410006ec:	0a531463          	bne	x6,x5,41000794 <test_failed>

00000000410006f0 <trap_handler_m__skip_nonzero_tval_check>:
    410006f0:	04823283          	ld	x5,72(x4) # 48 <XLEN+0x8>
    410006f4:	04023423          	sd	x0,72(x4) # 48 <XLEN+0x8>
    410006f8:	00028663          	beqz	x5,41000704 <trap_handler_m__skip_nonzero_htval_check>

00000000410006fc <trap_handler_m__nonzero_htval_check>:
    410006fc:	34b02373          	csrr	x6,0x34b
    41000700:	08531a63          	bne	x6,x5,41000794 <test_failed>

0000000041000704 <trap_handler_m__skip_nonzero_htval_check>:
    41000704:	06023283          	ld	x5,96(x4) # 60 <XLEN+0x20>
    41000708:	06023023          	sd	x0,96(x4) # 60 <XLEN+0x20>
    4100070c:	02028063          	beqz	x5,4100072c <trap_handler_m__skip_gva_check>

0000000041000710 <trap_handler_m__gva_check>:
    41000710:	30002373          	csrr	x6,mstatus
    41000714:	02635313          	srli	x6,x6,0x26
    41000718:	00137313          	andi	x6,x6,1
    4100071c:	06030c63          	beqz	x6,41000794 <test_failed>
    41000720:	0010031b          	addiw	x6,x0,1
    41000724:	02631313          	slli	x6,x6,0x26
    41000728:	30033073          	csrc	mstatus,x6

000000004100072c <trap_handler_m__skip_gva_check>:
    4100072c:	0040006f          	j	41000730 <trap_handler_m__ecall_from_machine>

0000000041000730 <trap_handler_m__ecall_from_machine>:
    41000730:	03023283          	ld	x5,48(x4) # 30 <SECURE_ACCESS_PROBABILITY+0x12>
    41000734:	02023823          	sd	x0,48(x4) # 30 <SECURE_ACCESS_PROBABILITY+0x12>
    41000738:	07023303          	ld	x6,112(x4) # 70 <XLEN+0x30>
    4100073c:	06023823          	sd	x0,112(x4) # 70 <XLEN+0x30>
    41000740:	00031463          	bnez	x6,41000748 <trap_handler_m__skip_xepc_write>
    41000744:	34129073          	csrw	mepc,x5

0000000041000748 <trap_handler_m__skip_xepc_write>:
    41000748:	00000317          	auipc	x6,0x0
    4100074c:	dd830313          	addi	x6,x6,-552 # 41000520 <trap_handler_m__trap_entry>
    41000750:	30531073          	csrw	mtvec,x6
    41000754:	34021273          	csrrw	x4,mscratch,x4
    41000758:	30200073          	mret

000000004100075c <trap_handler_m__trap_panic>:
    4100075c:	00000193          	li	x3,0
    41000760:	2b00006f          	j	41000a10 <eot__end_test>

0000000041000764 <enter_scheduler>:
    41000764:	0002f337          	lui	x6,0x2f
    41000768:	ab73031b          	addiw	x6,x6,-1353 # 2eab7 <SID_EXCEP_01_NEZ_RS1_Z_stack+0x13ab7>
    4100076c:	00e31313          	slli	x6,x6,0xe
    41000770:	0de30313          	addi	x6,x6,222
    41000774:	02628063          	beq	x5,x6,41000794 <test_failed>
    41000778:	00000513          	li	x10,0
    4100077c:	030000ef          	jal	410007ac <rvcp_print_test_result>
    41000780:	3140006f          	j	41000a94 <scheduler__dispatch>

0000000041000784 <test_passed>:
    41000784:	34021273          	csrrw	x4,mscratch,x4
    41000788:	00000513          	li	x10,0
    4100078c:	020000ef          	jal	410007ac <rvcp_print_test_result>
    41000790:	3040006f          	j	41000a94 <scheduler__dispatch>

0000000041000794 <test_failed>:
    41000794:	34021273          	csrrw	x4,mscratch,x4
    41000798:	00300193          	li	x3,3
    4100079c:	2740006f          	j	41000a10 <eot__end_test>

00000000410007a0 <os_end_test>:
    410007a0:	34021273          	csrrw	x4,mscratch,x4
    410007a4:	00100193          	li	x3,1
    410007a8:	2680006f          	j	41000a10 <eot__end_test>

00000000410007ac <rvcp_print_test_result>:
    410007ac:	00050e13          	mv	x28,x10
    410007b0:	18823283          	ld	x5,392(x4) # 188 <XLEN+0x148>
    410007b4:	0010031b          	addiw	x6,x0,1
    410007b8:	02031313          	slli	x6,x6,0x20
    410007bc:	ffe30313          	addi	x6,x6,-2
    410007c0:	1c628063          	beq	x5,x6,41000980 <rvcp_print_test_result+0x1d4>
    410007c4:	0010031b          	addiw	x6,x0,1
    410007c8:	02031313          	slli	x6,x6,0x20
    410007cc:	fff30313          	addi	x6,x6,-1
    410007d0:	1a628863          	beq	x5,x6,41000980 <rvcp_print_test_result+0x1d4>
    410007d4:	1a02c663          	bltz	x5,41000980 <rvcp_print_test_result+0x1d4>
    410007d8:	00000317          	auipc	x6,0x0
    410007dc:	5ec30313          	addi	x6,x6,1516 # 41000dc4 <dtest_descriptor_table>
    410007e0:	00329393          	slli	x7,x5,0x3
    410007e4:	00730333          	add	x6,x6,x7
    410007e8:	00033e83          	ld	x29,0(x6)
    410007ec:	44288f37          	lui	x30,0x44288
    410007f0:	030f0f1b          	addiw	x30,x30,48 # 44288030 <rvcp_prefix_str_pa>
    410007f4:	000f4283          	lbu	x5,0(x30)
    410007f8:	02028663          	beqz	x5,41000824 <rvcp_print_test_result+0x78>
    410007fc:	1010031b          	addiw	x6,x0,257
    41000800:	03031313          	slli	x6,x6,0x30
    41000804:	005362b3          	or	x5,x6,x5
    41000808:	0003f317          	auipc	x6,0x3f
    4100080c:	7f830313          	addi	x6,x6,2040 # 41040000 <tohost>
    41000810:	00033383          	ld	x7,0(x6)
    41000814:	fe039ee3          	bnez	x7,41000810 <rvcp_print_test_result+0x64>
    41000818:	00533023          	sd	x5,0(x6)
    4100081c:	001f0f13          	addi	x30,x30,1
    41000820:	fd5ff06f          	j	410007f4 <rvcp_print_test_result+0x48>
    41000824:	44288f37          	lui	x30,0x44288
    41000828:	041f0f1b          	addiw	x30,x30,65 # 44288041 <rvcp_testname_str_pa>
    4100082c:	000f4283          	lbu	x5,0(x30)
    41000830:	02028663          	beqz	x5,4100085c <rvcp_print_test_result+0xb0>
    41000834:	1010031b          	addiw	x6,x0,257
    41000838:	03031313          	slli	x6,x6,0x30
    4100083c:	005362b3          	or	x5,x6,x5
    41000840:	0003f317          	auipc	x6,0x3f
    41000844:	7c030313          	addi	x6,x6,1984 # 41040000 <tohost>
    41000848:	00033383          	ld	x7,0(x6)
    4100084c:	fe039ee3          	bnez	x7,41000848 <rvcp_print_test_result+0x9c>
    41000850:	00533023          	sd	x5,0(x6)
    41000854:	001f0f13          	addi	x30,x30,1
    41000858:	fd5ff06f          	j	4100082c <rvcp_print_test_result+0x80>
    4100085c:	44288f37          	lui	x30,0x44288
    41000860:	05bf0f1b          	addiw	x30,x30,91 # 4428805b <rvcp_space_str_pa>
    41000864:	000f4283          	lbu	x5,0(x30)
    41000868:	02028663          	beqz	x5,41000894 <rvcp_print_test_result+0xe8>
    4100086c:	1010031b          	addiw	x6,x0,257
    41000870:	03031313          	slli	x6,x6,0x30
    41000874:	005362b3          	or	x5,x6,x5
    41000878:	0003f317          	auipc	x6,0x3f
    4100087c:	78830313          	addi	x6,x6,1928 # 41040000 <tohost>
    41000880:	00033383          	ld	x7,0(x6)
    41000884:	fe039ee3          	bnez	x7,41000880 <rvcp_print_test_result+0xd4>
    41000888:	00533023          	sd	x5,0(x6)
    4100088c:	001f0f13          	addi	x30,x30,1
    41000890:	fd5ff06f          	j	41000864 <rvcp_print_test_result+0xb8>
    41000894:	000e8f13          	mv	x30,x29
    41000898:	000f4283          	lbu	x5,0(x30)
    4100089c:	02028663          	beqz	x5,410008c8 <rvcp_print_test_result+0x11c>
    410008a0:	1010031b          	addiw	x6,x0,257
    410008a4:	03031313          	slli	x6,x6,0x30
    410008a8:	005362b3          	or	x5,x6,x5
    410008ac:	0003f317          	auipc	x6,0x3f
    410008b0:	75430313          	addi	x6,x6,1876 # 41040000 <tohost>
    410008b4:	00033383          	ld	x7,0(x6)
    410008b8:	fe039ee3          	bnez	x7,410008b4 <rvcp_print_test_result+0x108>
    410008bc:	00533023          	sd	x5,0(x6)
    410008c0:	001f0f13          	addi	x30,x30,1
    410008c4:	fd5ff06f          	j	41000898 <rvcp_print_test_result+0xec>
    410008c8:	44288f37          	lui	x30,0x44288
    410008cc:	05bf0f1b          	addiw	x30,x30,91 # 4428805b <rvcp_space_str_pa>
    410008d0:	000f4283          	lbu	x5,0(x30)
    410008d4:	02028663          	beqz	x5,41000900 <rvcp_print_test_result+0x154>
    410008d8:	1010031b          	addiw	x6,x0,257
    410008dc:	03031313          	slli	x6,x6,0x30
    410008e0:	005362b3          	or	x5,x6,x5
    410008e4:	0003f317          	auipc	x6,0x3f
    410008e8:	71c30313          	addi	x6,x6,1820 # 41040000 <tohost>
    410008ec:	00033383          	ld	x7,0(x6)
    410008f0:	fe039ee3          	bnez	x7,410008ec <rvcp_print_test_result+0x140>
    410008f4:	00533023          	sd	x5,0(x6)
    410008f8:	001f0f13          	addi	x30,x30,1
    410008fc:	fd5ff06f          	j	410008d0 <rvcp_print_test_result+0x124>
    41000900:	000e1863          	bnez	x28,41000910 <rvcp_print_test_result+0x164>
    41000904:	44288f37          	lui	x30,0x44288
    41000908:	04df0f1b          	addiw	x30,x30,77 # 4428804d <rvcp_passed_str_pa>
    4100090c:	00c0006f          	j	41000918 <rvcp_print_test_result+0x16c>
    41000910:	44288f37          	lui	x30,0x44288
    41000914:	054f0f1b          	addiw	x30,x30,84 # 44288054 <rvcp_failed_str_pa>
    41000918:	000f4283          	lbu	x5,0(x30)
    4100091c:	02028663          	beqz	x5,41000948 <rvcp_print_test_result+0x19c>
    41000920:	1010031b          	addiw	x6,x0,257
    41000924:	03031313          	slli	x6,x6,0x30
    41000928:	005362b3          	or	x5,x6,x5
    4100092c:	0003f317          	auipc	x6,0x3f
    41000930:	6d430313          	addi	x6,x6,1748 # 41040000 <tohost>
    41000934:	00033383          	ld	x7,0(x6)
    41000938:	fe039ee3          	bnez	x7,41000934 <rvcp_print_test_result+0x188>
    4100093c:	00533023          	sd	x5,0(x6)
    41000940:	001f0f13          	addi	x30,x30,1
    41000944:	fd5ff06f          	j	41000918 <rvcp_print_test_result+0x16c>
    41000948:	44288f37          	lui	x30,0x44288
    4100094c:	05df0f1b          	addiw	x30,x30,93 # 4428805d <rvcp_newline_str_pa>
    41000950:	000f4283          	lbu	x5,0(x30)
    41000954:	02028663          	beqz	x5,41000980 <rvcp_print_test_result+0x1d4>
    41000958:	1010031b          	addiw	x6,x0,257
    4100095c:	03031313          	slli	x6,x6,0x30
    41000960:	005362b3          	or	x5,x6,x5
    41000964:	0003f317          	auipc	x6,0x3f
    41000968:	69c30313          	addi	x6,x6,1692 # 41040000 <tohost>
    4100096c:	00033383          	ld	x7,0(x6)
    41000970:	fe039ee3          	bnez	x7,4100096c <rvcp_print_test_result+0x1c0>
    41000974:	00533023          	sd	x5,0(x6)
    41000978:	001f0f13          	addi	x30,x30,1
    4100097c:	fd5ff06f          	j	41000950 <rvcp_print_test_result+0x1a4>
    41000980:	00008067          	ret

0000000041000984 <os_rng_orig>:
    41000984:	f14023f3          	csrr	x7,mhartid
    41000988:	00068313          	mv	x6,x13
    4100098c:	026383b3          	mul	x7,x7,x6
    41000990:	00058313          	mv	x6,x11
    41000994:	00730333          	add	x6,x6,x7
    41000998:	00033283          	ld	x5,0(x6)
    4100099c:	01529313          	slli	x6,x5,0x15
    410009a0:	0062c2b3          	xor	x5,x5,x6
    410009a4:	0232d313          	srli	x6,x5,0x23
    410009a8:	0062c2b3          	xor	x5,x5,x6
    410009ac:	00429313          	slli	x6,x5,0x4
    410009b0:	0062c2b3          	xor	x5,x5,x6
    410009b4:	00058313          	mv	x6,x11
    410009b8:	00730333          	add	x6,x6,x7
    410009bc:	00533023          	sd	x5,0(x6)
    410009c0:	00060313          	mv	x6,x12
    410009c4:	0262f2b3          	remu	x5,x5,x6
    410009c8:	00028513          	mv	x10,x5
    410009cc:	00008067          	ret
    410009d0:	02a00513          	li	x10,42
    410009d4:	001965b7          	lui	x11,0x196
    410009d8:	60d5859b          	addiw	x11,x11,1549 # 19660d <SID_EXCEP_04_NEZ_PASSING_AND_stack+0x13b60d>
    410009dc:	3c6ef637          	lui	x12,0x3c6ef
    410009e0:	35f6061b          	addiw	x12,x12,863 # 3c6ef35f <hart_stack_0_end+0x187fa35f>
    410009e4:	02200693          	li	x13,34
    410009e8:	02b50533          	mul	x10,x10,x11
    410009ec:	00c50533          	add	x10,x10,x12
    410009f0:	02d56533          	rem	x10,x10,x13
    410009f4:	00b00593          	li	x11,11
    410009f8:	02b56533          	rem	x10,x10,x11
    410009fc:	00008067          	ret

0000000041000a00 <tohost_mutex>:
	...

0000000041000a08 <tohost_addr_mem>:
    41000a08:	0000                	.insn	2, 0x0000
    41000a0a:	4104                	.insn	2, 0x4104
    41000a0c:	0000                	.insn	2, 0x0000
	...

0000000041000a10 <eot__end_test>:
    41000a10:	00100293          	li	x5,1
    41000a14:	00328463          	beq	x5,x3,41000a1c <eot__passed>
    41000a18:	01c0006f          	j	41000a34 <eot__failed>

0000000041000a1c <eot__passed>:
    41000a1c:	0ff0000f          	fence
    41000a20:	00000297          	auipc	x5,0x0
    41000a24:	fe82b283          	ld	x5,-24(x5) # 41000a08 <tohost_addr_mem>
    41000a28:	00100313          	li	x6,1
    41000a2c:	0062a023          	sw	x6,0(x5)
    41000a30:	0240006f          	j	41000a54 <eot__halt>

0000000041000a34 <eot__failed>:
    41000a34:	00100513          	li	x10,1
    41000a38:	d75ff0ef          	jal	410007ac <rvcp_print_test_result>
    41000a3c:	0ff0000f          	fence
    41000a40:	00000297          	auipc	x5,0x0
    41000a44:	fc82b283          	ld	x5,-56(x5) # 41000a08 <tohost_addr_mem>
    41000a48:	00300313          	li	x6,3
    41000a4c:	0062a023          	sw	x6,0(x5)
    41000a50:	0040006f          	j	41000a54 <eot__halt>

0000000041000a54 <eot__halt>:
    41000a54:	10500073          	wfi
    41000a58:	ffdff06f          	j	41000a54 <eot__halt>

0000000041000a5c <scheduler__init>:
    41000a5c:	00000297          	auipc	x5,0x0
    41000a60:	0e028293          	addi	x5,x5,224 # 41000b3c <scheduler__panic>
    41000a64:	305292f3          	csrrw	x5,mtvec,x5
    41000a68:	18523023          	sd	x5,384(x4) # 180 <XLEN+0x140>
    41000a6c:	04f00293          	li	x5,79
    41000a70:	18523823          	sd	x5,400(x4) # 190 <XLEN+0x150>
    41000a74:	0010029b          	addiw	x5,x0,1
    41000a78:	02029293          	slli	x5,x5,0x20
    41000a7c:	ffe28293          	addi	x5,x5,-2
    41000a80:	18523423          	sd	x5,392(x4) # 188 <XLEN+0x148>
    41000a84:	00001317          	auipc	x6,0x1
    41000a88:	81830313          	addi	x6,x6,-2024 # 4100129c <scheduler__test_setup_ptr>
    41000a8c:	00033303          	ld	x6,0(x6)
    41000a90:	0840006f          	j	41000b14 <scheduler__execute_test>

0000000041000a94 <scheduler__dispatch>:
    41000a94:	00000297          	auipc	x5,0x0
    41000a98:	0a828293          	addi	x5,x5,168 # 41000b3c <scheduler__panic>
    41000a9c:	305292f3          	csrrw	x5,mtvec,x5
    41000aa0:	18523023          	sd	x5,384(x4) # 180 <XLEN+0x140>

0000000041000aa4 <scheduler__csr_read_randomization>:
    41000aa4:	144022f3          	csrr	x5,sip
    41000aa8:	343022f3          	csrr	x5,mtval
    41000aac:	104022f3          	csrr	x5,sie
    41000ab0:	f11022f3          	csrr	x5,mvendorid
    41000ab4:	f11022f3          	csrr	x5,mvendorid
    41000ab8:	342022f3          	csrr	x5,mcause
    41000abc:	106022f3          	csrr	x5,scounteren
    41000ac0:	f13022f3          	csrr	x5,mimpid
    41000ac4:	f12022f3          	csrr	x5,marchid
    41000ac8:	140022f3          	csrr	x5,sscratch
    41000acc:	141022f3          	csrr	x5,sepc
    41000ad0:	344022f3          	csrr	x5,mip
    41000ad4:	344022f3          	csrr	x5,mip

0000000041000ad8 <scheduler__load_num_runs>:
    41000ad8:	19023303          	ld	x6,400(x4) # 190 <XLEN+0x150>
    41000adc:	04030c63          	beqz	x6,41000b34 <scheduler__finished>

0000000041000ae0 <scheduler__decrement_num_runs>:
    41000ae0:	fff30393          	addi	x7,x6,-1
    41000ae4:	18723823          	sd	x7,400(x4) # 190 <XLEN+0x150>
    41000ae8:	00000e17          	auipc	x28,0x0
    41000aec:	674e0e13          	addi	x28,x28,1652 # 4100115c <dtest_index_map>
    41000af0:	00239e93          	slli	x29,x7,0x2
    41000af4:	01de0e33          	add	x28,x28,x29
    41000af8:	000e2e03          	lw	x28,0(x28)
    41000afc:	19c23423          	sd	x28,392(x4) # 188 <XLEN+0x148>

0000000041000b00 <scheduler__calc_test_pointer>:
    41000b00:	00339293          	slli	x5,x7,0x3

0000000041000b04 <scheduler__load_test_addr>:
    41000b04:	00000317          	auipc	x6,0x0
    41000b08:	04830313          	addi	x6,x6,72 # 41000b4c <os_test_sequence>
    41000b0c:	006282b3          	add	x5,x5,x6
    41000b10:	0002b303          	ld	x6,0(x5)

0000000041000b14 <scheduler__execute_test>:
    41000b14:	18023283          	ld	x5,384(x4) # 180 <XLEN+0x140>
    41000b18:	30529073          	csrw	mtvec,x5
    41000b1c:	34021273          	csrrw	x4,mscratch,x4
    41000b20:	00000213          	li	x4,0
    41000b24:	14131073          	csrw	sepc,x6
    41000b28:	10000293          	li	x5,256
    41000b2c:	1002a073          	csrs	sstatus,x5
    41000b30:	10200073          	sret

0000000041000b34 <scheduler__finished>:
    41000b34:	00100193          	li	x3,1
    41000b38:	ed9ff06f          	j	41000a10 <eot__end_test>

0000000041000b3c <scheduler__panic>:
    41000b3c:	00000193          	li	x3,0
    41000b40:	ed1ff06f          	j	41000a10 <eot__end_test>

0000000041000b44 <num_runs>:
    41000b44:	0000004f          	fnmadd.s	f0,f0,f0,f0,rne
    41000b48:	0000                	.insn	2, 0x0000
	...

0000000041000b4c <os_test_sequence>:
    41000b4c:	4a98                	.insn	2, 0x4a98
    41000b4e:	4101                	.insn	2, 0x4101
    41000b50:	0000                	.insn	2, 0x0000
    41000b52:	0000                	.insn	2, 0x0000
    41000b54:	4130                	.insn	2, 0x4130
    41000b56:	4101                	.insn	2, 0x4101
    41000b58:	0000                	.insn	2, 0x0000
    41000b5a:	0000                	.insn	2, 0x0000
    41000b5c:	4180                	.insn	2, 0x4180
    41000b5e:	4101                	.insn	2, 0x4101
    41000b60:	0000                	.insn	2, 0x0000
    41000b62:	0000                	.insn	2, 0x0000
    41000b64:	496c                	.insn	2, 0x496c
    41000b66:	4101                	.insn	2, 0x4101
    41000b68:	0000                	.insn	2, 0x0000
    41000b6a:	0000                	.insn	2, 0x0000
    41000b6c:	41dc                	.insn	2, 0x41dc
    41000b6e:	4101                	.insn	2, 0x4101
    41000b70:	0000                	.insn	2, 0x0000
    41000b72:	0000                	.insn	2, 0x0000
    41000b74:	47f4                	.insn	2, 0x47f4
    41000b76:	4101                	.insn	2, 0x4101
    41000b78:	0000                	.insn	2, 0x0000
    41000b7a:	0000                	.insn	2, 0x0000
    41000b7c:	468c                	.insn	2, 0x468c
    41000b7e:	4101                	.insn	2, 0x4101
    41000b80:	0000                	.insn	2, 0x0000
    41000b82:	0000                	.insn	2, 0x0000
    41000b84:	49c8                	.insn	2, 0x49c8
    41000b86:	4101                	.insn	2, 0x4101
    41000b88:	0000                	.insn	2, 0x0000
    41000b8a:	0000                	.insn	2, 0x0000
    41000b8c:	4744                	.insn	2, 0x4744
    41000b8e:	4101                	.insn	2, 0x4101
    41000b90:	0000                	.insn	2, 0x0000
    41000b92:	0000                	.insn	2, 0x0000
    41000b94:	4408                	.insn	2, 0x4408
    41000b96:	4101                	.insn	2, 0x4101
    41000b98:	0000                	.insn	2, 0x0000
    41000b9a:	0000                	.insn	2, 0x0000
    41000b9c:	4858                	.insn	2, 0x4858
    41000b9e:	4101                	.insn	2, 0x4101
    41000ba0:	0000                	.insn	2, 0x0000
    41000ba2:	0000                	.insn	2, 0x0000
    41000ba4:	4238                	.insn	2, 0x4238
    41000ba6:	4101                	.insn	2, 0x4101
    41000ba8:	0000                	.insn	2, 0x0000
    41000baa:	0000                	.insn	2, 0x0000
    41000bac:	47f4                	.insn	2, 0x47f4
    41000bae:	4101                	.insn	2, 0x4101
    41000bb0:	0000                	.insn	2, 0x0000
    41000bb2:	0000                	.insn	2, 0x0000
    41000bb4:	4290                	.insn	2, 0x4290
    41000bb6:	4101                	.insn	2, 0x4101
    41000bb8:	0000                	.insn	2, 0x0000
    41000bba:	0000                	.insn	2, 0x0000
    41000bbc:	4350                	.insn	2, 0x4350
    41000bbe:	4101                	.insn	2, 0x4101
    41000bc0:	0000                	.insn	2, 0x0000
    41000bc2:	0000                	.insn	2, 0x0000
    41000bc4:	4910                	.insn	2, 0x4910
    41000bc6:	4101                	.insn	2, 0x4101
    41000bc8:	0000                	.insn	2, 0x0000
    41000bca:	0000                	.insn	2, 0x0000
    41000bcc:	44b0                	.insn	2, 0x44b0
    41000bce:	4101                	.insn	2, 0x4101
    41000bd0:	0000                	.insn	2, 0x0000
    41000bd2:	0000                	.insn	2, 0x0000
    41000bd4:	4350                	.insn	2, 0x4350
    41000bd6:	4101                	.insn	2, 0x4101
    41000bd8:	0000                	.insn	2, 0x0000
    41000bda:	0000                	.insn	2, 0x0000
    41000bdc:	45d4                	.insn	2, 0x45d4
    41000bde:	4101                	.insn	2, 0x4101
    41000be0:	0000                	.insn	2, 0x0000
    41000be2:	0000                	.insn	2, 0x0000
    41000be4:	48ac                	.insn	2, 0x48ac
    41000be6:	4101                	.insn	2, 0x4101
    41000be8:	0000                	.insn	2, 0x0000
    41000bea:	0000                	.insn	2, 0x0000
    41000bec:	4a34                	.insn	2, 0x4a34
    41000bee:	4101                	.insn	2, 0x4101
    41000bf0:	0000                	.insn	2, 0x0000
    41000bf2:	0000                	.insn	2, 0x0000
    41000bf4:	42f8                	.insn	2, 0x42f8
    41000bf6:	4101                	.insn	2, 0x4101
    41000bf8:	0000                	.insn	2, 0x0000
    41000bfa:	0000                	.insn	2, 0x0000
    41000bfc:	4628                	.insn	2, 0x4628
    41000bfe:	4101                	.insn	2, 0x4101
    41000c00:	0000                	.insn	2, 0x0000
    41000c02:	0000                	.insn	2, 0x0000
    41000c04:	450c                	.insn	2, 0x450c
    41000c06:	4101                	.insn	2, 0x4101
    41000c08:	0000                	.insn	2, 0x0000
    41000c0a:	0000                	.insn	2, 0x0000
    41000c0c:	4570                	.insn	2, 0x4570
    41000c0e:	4101                	.insn	2, 0x4101
    41000c10:	0000                	.insn	2, 0x0000
    41000c12:	0000                	.insn	2, 0x0000
    41000c14:	44b0                	.insn	2, 0x44b0
    41000c16:	4101                	.insn	2, 0x4101
    41000c18:	0000                	.insn	2, 0x0000
    41000c1a:	0000                	.insn	2, 0x0000
    41000c1c:	4290                	.insn	2, 0x4290
    41000c1e:	4101                	.insn	2, 0x4101
    41000c20:	0000                	.insn	2, 0x0000
    41000c22:	0000                	.insn	2, 0x0000
    41000c24:	4744                	.insn	2, 0x4744
    41000c26:	4101                	.insn	2, 0x4101
    41000c28:	0000                	.insn	2, 0x0000
    41000c2a:	0000                	.insn	2, 0x0000
    41000c2c:	4180                	.insn	2, 0x4180
    41000c2e:	4101                	.insn	2, 0x4101
    41000c30:	0000                	.insn	2, 0x0000
    41000c32:	0000                	.insn	2, 0x0000
    41000c34:	49c8                	.insn	2, 0x49c8
    41000c36:	4101                	.insn	2, 0x4101
    41000c38:	0000                	.insn	2, 0x0000
    41000c3a:	0000                	.insn	2, 0x0000
    41000c3c:	4744                	.insn	2, 0x4744
    41000c3e:	4101                	.insn	2, 0x4101
    41000c40:	0000                	.insn	2, 0x0000
    41000c42:	0000                	.insn	2, 0x0000
    41000c44:	4570                	.insn	2, 0x4570
    41000c46:	4101                	.insn	2, 0x4101
    41000c48:	0000                	.insn	2, 0x0000
    41000c4a:	0000                	.insn	2, 0x0000
    41000c4c:	43b4                	.insn	2, 0x43b4
    41000c4e:	4101                	.insn	2, 0x4101
    41000c50:	0000                	.insn	2, 0x0000
    41000c52:	0000                	.insn	2, 0x0000
    41000c54:	4570                	.insn	2, 0x4570
    41000c56:	4101                	.insn	2, 0x4101
    41000c58:	0000                	.insn	2, 0x0000
    41000c5a:	0000                	.insn	2, 0x0000
    41000c5c:	4408                	.insn	2, 0x4408
    41000c5e:	4101                	.insn	2, 0x4101
    41000c60:	0000                	.insn	2, 0x0000
    41000c62:	0000                	.insn	2, 0x0000
    41000c64:	445c                	.insn	2, 0x445c
    41000c66:	4101                	.insn	2, 0x4101
    41000c68:	0000                	.insn	2, 0x0000
    41000c6a:	0000                	.insn	2, 0x0000
    41000c6c:	4628                	.insn	2, 0x4628
    41000c6e:	4101                	.insn	2, 0x4101
    41000c70:	0000                	.insn	2, 0x0000
    41000c72:	0000                	.insn	2, 0x0000
    41000c74:	46e0                	.insn	2, 0x46e0
    41000c76:	4101                	.insn	2, 0x4101
    41000c78:	0000                	.insn	2, 0x0000
    41000c7a:	0000                	.insn	2, 0x0000
    41000c7c:	49c8                	.insn	2, 0x49c8
    41000c7e:	4101                	.insn	2, 0x4101
    41000c80:	0000                	.insn	2, 0x0000
    41000c82:	0000                	.insn	2, 0x0000
    41000c84:	48ac                	.insn	2, 0x48ac
    41000c86:	4101                	.insn	2, 0x4101
    41000c88:	0000                	.insn	2, 0x0000
    41000c8a:	0000                	.insn	2, 0x0000
    41000c8c:	45d4                	.insn	2, 0x45d4
    41000c8e:	4101                	.insn	2, 0x4101
    41000c90:	0000                	.insn	2, 0x0000
    41000c92:	0000                	.insn	2, 0x0000
    41000c94:	4858                	.insn	2, 0x4858
    41000c96:	4101                	.insn	2, 0x4101
    41000c98:	0000                	.insn	2, 0x0000
    41000c9a:	0000                	.insn	2, 0x0000
    41000c9c:	41dc                	.insn	2, 0x41dc
    41000c9e:	4101                	.insn	2, 0x4101
    41000ca0:	0000                	.insn	2, 0x0000
    41000ca2:	0000                	.insn	2, 0x0000
    41000ca4:	4628                	.insn	2, 0x4628
    41000ca6:	4101                	.insn	2, 0x4101
    41000ca8:	0000                	.insn	2, 0x0000
    41000caa:	0000                	.insn	2, 0x0000
    41000cac:	4798                	.insn	2, 0x4798
    41000cae:	4101                	.insn	2, 0x4101
    41000cb0:	0000                	.insn	2, 0x0000
    41000cb2:	0000                	.insn	2, 0x0000
    41000cb4:	46e0                	.insn	2, 0x46e0
    41000cb6:	4101                	.insn	2, 0x4101
    41000cb8:	0000                	.insn	2, 0x0000
    41000cba:	0000                	.insn	2, 0x0000
    41000cbc:	4858                	.insn	2, 0x4858
    41000cbe:	4101                	.insn	2, 0x4101
    41000cc0:	0000                	.insn	2, 0x0000
    41000cc2:	0000                	.insn	2, 0x0000
    41000cc4:	4290                	.insn	2, 0x4290
    41000cc6:	4101                	.insn	2, 0x4101
    41000cc8:	0000                	.insn	2, 0x0000
    41000cca:	0000                	.insn	2, 0x0000
    41000ccc:	42f8                	.insn	2, 0x42f8
    41000cce:	4101                	.insn	2, 0x4101
    41000cd0:	0000                	.insn	2, 0x0000
    41000cd2:	0000                	.insn	2, 0x0000
    41000cd4:	4a34                	.insn	2, 0x4a34
    41000cd6:	4101                	.insn	2, 0x4101
    41000cd8:	0000                	.insn	2, 0x0000
    41000cda:	0000                	.insn	2, 0x0000
    41000cdc:	450c                	.insn	2, 0x450c
    41000cde:	4101                	.insn	2, 0x4101
    41000ce0:	0000                	.insn	2, 0x0000
    41000ce2:	0000                	.insn	2, 0x0000
    41000ce4:	4a34                	.insn	2, 0x4a34
    41000ce6:	4101                	.insn	2, 0x4101
    41000ce8:	0000                	.insn	2, 0x0000
    41000cea:	0000                	.insn	2, 0x0000
    41000cec:	450c                	.insn	2, 0x450c
    41000cee:	4101                	.insn	2, 0x4101
    41000cf0:	0000                	.insn	2, 0x0000
    41000cf2:	0000                	.insn	2, 0x0000
    41000cf4:	496c                	.insn	2, 0x496c
    41000cf6:	4101                	.insn	2, 0x4101
    41000cf8:	0000                	.insn	2, 0x0000
    41000cfa:	0000                	.insn	2, 0x0000
    41000cfc:	4408                	.insn	2, 0x4408
    41000cfe:	4101                	.insn	2, 0x4101
    41000d00:	0000                	.insn	2, 0x0000
    41000d02:	0000                	.insn	2, 0x0000
    41000d04:	4910                	.insn	2, 0x4910
    41000d06:	4101                	.insn	2, 0x4101
    41000d08:	0000                	.insn	2, 0x0000
    41000d0a:	0000                	.insn	2, 0x0000
    41000d0c:	445c                	.insn	2, 0x445c
    41000d0e:	4101                	.insn	2, 0x4101
    41000d10:	0000                	.insn	2, 0x0000
    41000d12:	0000                	.insn	2, 0x0000
    41000d14:	43b4                	.insn	2, 0x43b4
    41000d16:	4101                	.insn	2, 0x4101
    41000d18:	0000                	.insn	2, 0x0000
    41000d1a:	0000                	.insn	2, 0x0000
    41000d1c:	4130                	.insn	2, 0x4130
    41000d1e:	4101                	.insn	2, 0x4101
    41000d20:	0000                	.insn	2, 0x0000
    41000d22:	0000                	.insn	2, 0x0000
    41000d24:	4910                	.insn	2, 0x4910
    41000d26:	4101                	.insn	2, 0x4101
    41000d28:	0000                	.insn	2, 0x0000
    41000d2a:	0000                	.insn	2, 0x0000
    41000d2c:	4130                	.insn	2, 0x4130
    41000d2e:	4101                	.insn	2, 0x4101
    41000d30:	0000                	.insn	2, 0x0000
    41000d32:	0000                	.insn	2, 0x0000
    41000d34:	47f4                	.insn	2, 0x47f4
    41000d36:	4101                	.insn	2, 0x4101
    41000d38:	0000                	.insn	2, 0x0000
    41000d3a:	0000                	.insn	2, 0x0000
    41000d3c:	42f8                	.insn	2, 0x42f8
    41000d3e:	4101                	.insn	2, 0x4101
    41000d40:	0000                	.insn	2, 0x0000
    41000d42:	0000                	.insn	2, 0x0000
    41000d44:	496c                	.insn	2, 0x496c
    41000d46:	4101                	.insn	2, 0x4101
    41000d48:	0000                	.insn	2, 0x0000
    41000d4a:	0000                	.insn	2, 0x0000
    41000d4c:	4798                	.insn	2, 0x4798
    41000d4e:	4101                	.insn	2, 0x4101
    41000d50:	0000                	.insn	2, 0x0000
    41000d52:	0000                	.insn	2, 0x0000
    41000d54:	468c                	.insn	2, 0x468c
    41000d56:	4101                	.insn	2, 0x4101
    41000d58:	0000                	.insn	2, 0x0000
    41000d5a:	0000                	.insn	2, 0x0000
    41000d5c:	48ac                	.insn	2, 0x48ac
    41000d5e:	4101                	.insn	2, 0x4101
    41000d60:	0000                	.insn	2, 0x0000
    41000d62:	0000                	.insn	2, 0x0000
    41000d64:	46e0                	.insn	2, 0x46e0
    41000d66:	4101                	.insn	2, 0x4101
    41000d68:	0000                	.insn	2, 0x0000
    41000d6a:	0000                	.insn	2, 0x0000
    41000d6c:	4798                	.insn	2, 0x4798
    41000d6e:	4101                	.insn	2, 0x4101
    41000d70:	0000                	.insn	2, 0x0000
    41000d72:	0000                	.insn	2, 0x0000
    41000d74:	4350                	.insn	2, 0x4350
    41000d76:	4101                	.insn	2, 0x4101
    41000d78:	0000                	.insn	2, 0x0000
    41000d7a:	0000                	.insn	2, 0x0000
    41000d7c:	4180                	.insn	2, 0x4180
    41000d7e:	4101                	.insn	2, 0x4101
    41000d80:	0000                	.insn	2, 0x0000
    41000d82:	0000                	.insn	2, 0x0000
    41000d84:	445c                	.insn	2, 0x445c
    41000d86:	4101                	.insn	2, 0x4101
    41000d88:	0000                	.insn	2, 0x0000
    41000d8a:	0000                	.insn	2, 0x0000
    41000d8c:	44b0                	.insn	2, 0x44b0
    41000d8e:	4101                	.insn	2, 0x4101
    41000d90:	0000                	.insn	2, 0x0000
    41000d92:	0000                	.insn	2, 0x0000
    41000d94:	45d4                	.insn	2, 0x45d4
    41000d96:	4101                	.insn	2, 0x4101
    41000d98:	0000                	.insn	2, 0x0000
    41000d9a:	0000                	.insn	2, 0x0000
    41000d9c:	43b4                	.insn	2, 0x43b4
    41000d9e:	4101                	.insn	2, 0x4101
    41000da0:	0000                	.insn	2, 0x0000
    41000da2:	0000                	.insn	2, 0x0000
    41000da4:	468c                	.insn	2, 0x468c
    41000da6:	4101                	.insn	2, 0x4101
    41000da8:	0000                	.insn	2, 0x0000
    41000daa:	0000                	.insn	2, 0x0000
    41000dac:	4238                	.insn	2, 0x4238
    41000dae:	4101                	.insn	2, 0x4101
    41000db0:	0000                	.insn	2, 0x0000
    41000db2:	0000                	.insn	2, 0x0000
    41000db4:	4238                	.insn	2, 0x4238
    41000db6:	4101                	.insn	2, 0x4101
    41000db8:	0000                	.insn	2, 0x0000
    41000dba:	0000                	.insn	2, 0x0000
    41000dbc:	41dc                	.insn	2, 0x41dc
    41000dbe:	4101                	.insn	2, 0x4101
    41000dc0:	0000                	.insn	2, 0x0000
	...

0000000041000dc4 <dtest_descriptor_table>:
    41000dc4:	0e94                	.insn	2, 0x0e94
    41000dc6:	4100                	.insn	2, 0x4100
    41000dc8:	0000                	.insn	2, 0x0000
    41000dca:	0000                	.insn	2, 0x0000
    41000dcc:	0eac                	.insn	2, 0x0eac
    41000dce:	4100                	.insn	2, 0x4100
    41000dd0:	0000                	.insn	2, 0x0000
    41000dd2:	0000                	.insn	2, 0x0000
    41000dd4:	41000ec3          	fmadd.s	f29,f0,f16,f8,rne
    41000dd8:	0000                	.insn	2, 0x0000
    41000dda:	0000                	.insn	2, 0x0000
    41000ddc:	41000edb          	.insn	4, 0x41000edb
    41000de0:	0000                	.insn	2, 0x0000
    41000de2:	0000                	.insn	2, 0x0000
    41000de4:	0ef2                	.insn	2, 0x0ef2
    41000de6:	4100                	.insn	2, 0x4100
    41000de8:	0000                	.insn	2, 0x0000
    41000dea:	0000                	.insn	2, 0x0000
    41000dec:	0f0a                	.insn	2, 0x0f0a
    41000dee:	4100                	.insn	2, 0x4100
    41000df0:	0000                	.insn	2, 0x0000
    41000df2:	0000                	.insn	2, 0x0000
    41000df4:	0f21                	.insn	2, 0x0f21
    41000df6:	4100                	.insn	2, 0x4100
    41000df8:	0000                	.insn	2, 0x0000
    41000dfa:	0000                	.insn	2, 0x0000
    41000dfc:	0f38                	.insn	2, 0x0f38
    41000dfe:	4100                	.insn	2, 0x4100
    41000e00:	0000                	.insn	2, 0x0000
    41000e02:	0000                	.insn	2, 0x0000
    41000e04:	0f50                	.insn	2, 0x0f50
    41000e06:	4100                	.insn	2, 0x4100
    41000e08:	0000                	.insn	2, 0x0000
    41000e0a:	0000                	.insn	2, 0x0000
    41000e0c:	0f6d                	.insn	2, 0x0f6d
    41000e0e:	4100                	.insn	2, 0x4100
    41000e10:	0000                	.insn	2, 0x0000
    41000e12:	0000                	.insn	2, 0x0000
    41000e14:	0f8a                	.insn	2, 0x0f8a
    41000e16:	4100                	.insn	2, 0x4100
    41000e18:	0000                	.insn	2, 0x0000
    41000e1a:	0000                	.insn	2, 0x0000
    41000e1c:	41000fa7          	.insn	4, 0x41000fa7
    41000e20:	0000                	.insn	2, 0x0000
    41000e22:	0000                	.insn	2, 0x0000
    41000e24:	0fc4                	.insn	2, 0x0fc4
    41000e26:	4100                	.insn	2, 0x4100
    41000e28:	0000                	.insn	2, 0x0000
    41000e2a:	0000                	.insn	2, 0x0000
    41000e2c:	0fe1                	.insn	2, 0x0fe1
    41000e2e:	4100                	.insn	2, 0x4100
    41000e30:	0000                	.insn	2, 0x0000
    41000e32:	0000                	.insn	2, 0x0000
    41000e34:	0ffe                	.insn	2, 0x0ffe
    41000e36:	4100                	.insn	2, 0x4100
    41000e38:	0000                	.insn	2, 0x0000
    41000e3a:	0000                	.insn	2, 0x0000
    41000e3c:	4100101b          	.insn	4, 0x4100101b
    41000e40:	0000                	.insn	2, 0x0000
    41000e42:	0000                	.insn	2, 0x0000
    41000e44:	1038                	.insn	2, 0x1038
    41000e46:	4100                	.insn	2, 0x4100
    41000e48:	0000                	.insn	2, 0x0000
    41000e4a:	0000                	.insn	2, 0x0000
    41000e4c:	1055                	.insn	2, 0x1055
    41000e4e:	4100                	.insn	2, 0x4100
    41000e50:	0000                	.insn	2, 0x0000
    41000e52:	0000                	.insn	2, 0x0000
    41000e54:	1072                	.insn	2, 0x1072
    41000e56:	4100                	.insn	2, 0x4100
    41000e58:	0000                	.insn	2, 0x0000
    41000e5a:	0000                	.insn	2, 0x0000
    41000e5c:	4100108f          	.insn	4, 0x4100108f
    41000e60:	0000                	.insn	2, 0x0000
    41000e62:	0000                	.insn	2, 0x0000
    41000e64:	10ac                	.insn	2, 0x10ac
    41000e66:	4100                	.insn	2, 0x4100
    41000e68:	0000                	.insn	2, 0x0000
    41000e6a:	0000                	.insn	2, 0x0000
    41000e6c:	10c9                	.insn	2, 0x10c9
    41000e6e:	4100                	.insn	2, 0x4100
    41000e70:	0000                	.insn	2, 0x0000
    41000e72:	0000                	.insn	2, 0x0000
    41000e74:	10e6                	.insn	2, 0x10e6
    41000e76:	4100                	.insn	2, 0x4100
    41000e78:	0000                	.insn	2, 0x0000
    41000e7a:	0000                	.insn	2, 0x0000
    41000e7c:	41001103          	lh	x2,1040(x0) # 410 <XLEN+0x3d0>
    41000e80:	0000                	.insn	2, 0x0000
    41000e82:	0000                	.insn	2, 0x0000
    41000e84:	1120                	.insn	2, 0x1120
    41000e86:	4100                	.insn	2, 0x4100
    41000e88:	0000                	.insn	2, 0x0000
    41000e8a:	0000                	.insn	2, 0x0000
    41000e8c:	113e                	.insn	2, 0x113e
    41000e8e:	4100                	.insn	2, 0x4100
    41000e90:	0000                	.insn	2, 0x0000
	...

0000000041000e94 <dtest_name_0>:
    41000e94:	5f444953          	.insn	4, 0x5f444953
    41000e98:	5845                	.insn	2, 0x5845
    41000e9a:	5f504543          	.insn	4, 0x5f504543
    41000e9e:	3130                	.insn	2, 0x3130
    41000ea0:	455f 5a51 525f      	.insn	6, 0x525f5a51455f
    41000ea6:	4e5f3153          	.insn	4, 0x4e5f3153
    41000eaa:	005a                	.insn	2, 0x005a

0000000041000eac <dtest_name_1>:
    41000eac:	5f444953          	.insn	4, 0x5f444953
    41000eb0:	5845                	.insn	2, 0x5845
    41000eb2:	5f504543          	.insn	4, 0x5f504543
    41000eb6:	3130                	.insn	2, 0x3130
    41000eb8:	455f 5a51 525f      	.insn	6, 0x525f5a51455f
    41000ebe:	5a5f3153          	.insn	4, 0x5a5f3153
	...

0000000041000ec3 <dtest_name_2>:
    41000ec3:	5f444953          	.insn	4, 0x5f444953
    41000ec7:	5845                	.insn	2, 0x5845
    41000ec9:	5f504543          	.insn	4, 0x5f504543
    41000ecd:	3130                	.insn	2, 0x3130
    41000ecf:	4e5f 5a45 525f      	.insn	6, 0x525f5a454e5f
    41000ed5:	4e5f3153          	.insn	4, 0x4e5f3153
    41000ed9:	005a                	.insn	2, 0x005a

0000000041000edb <dtest_name_3>:
    41000edb:	5f444953          	.insn	4, 0x5f444953
    41000edf:	5845                	.insn	2, 0x5845
    41000ee1:	5f504543          	.insn	4, 0x5f504543
    41000ee5:	3130                	.insn	2, 0x3130
    41000ee7:	4e5f 5a45 525f      	.insn	6, 0x525f5a454e5f
    41000eed:	5a5f3153          	.insn	4, 0x5a5f3153
	...

0000000041000ef2 <dtest_name_4>:
    41000ef2:	5f444953          	.insn	4, 0x5f444953
    41000ef6:	5845                	.insn	2, 0x5845
    41000ef8:	5f504543          	.insn	4, 0x5f504543
    41000efc:	3230                	.insn	2, 0x3230
    41000efe:	455f 5a51 525f      	.insn	6, 0x525f5a51455f
    41000f04:	4e5f3153          	.insn	4, 0x4e5f3153
    41000f08:	005a                	.insn	2, 0x005a

0000000041000f0a <dtest_name_5>:
    41000f0a:	5f444953          	.insn	4, 0x5f444953
    41000f0e:	5845                	.insn	2, 0x5845
    41000f10:	5f504543          	.insn	4, 0x5f504543
    41000f14:	3230                	.insn	2, 0x3230
    41000f16:	455f 5a51 525f      	.insn	6, 0x525f5a51455f
    41000f1c:	5a5f3153          	.insn	4, 0x5a5f3153
	...

0000000041000f21 <dtest_name_6>:
    41000f21:	5f444953          	.insn	4, 0x5f444953
    41000f25:	5845                	.insn	2, 0x5845
    41000f27:	5f504543          	.insn	4, 0x5f504543
    41000f2b:	3230                	.insn	2, 0x3230
    41000f2d:	4e5f 5a45 525f      	.insn	6, 0x525f5a454e5f
    41000f33:	5a5f3153          	.insn	4, 0x5a5f3153
	...

0000000041000f38 <dtest_name_7>:
    41000f38:	5f444953          	.insn	4, 0x5f444953
    41000f3c:	5845                	.insn	2, 0x5845
    41000f3e:	5f504543          	.insn	4, 0x5f504543
    41000f42:	3230                	.insn	2, 0x3230
    41000f44:	4e5f 5a45 525f      	.insn	6, 0x525f5a454e5f
    41000f4a:	4e5f3153          	.insn	4, 0x4e5f3153
    41000f4e:	005a                	.insn	2, 0x005a

0000000041000f50 <dtest_name_8>:
    41000f50:	5f444953          	.insn	4, 0x5f444953
    41000f54:	5845                	.insn	2, 0x5845
    41000f56:	5f504543          	.insn	4, 0x5f504543
    41000f5a:	3430                	.insn	2, 0x3430
    41000f5c:	455f 5a51 505f      	.insn	6, 0x505f5a51455f
    41000f62:	5341                	.insn	2, 0x5341
    41000f64:	474e4953          	.insn	4, 0x474e4953
    41000f68:	415f 4444       	.insn	6, 0x53004444415f

0000000041000f6d <dtest_name_9>:
    41000f6d:	5f444953          	.insn	4, 0x5f444953
    41000f71:	5845                	.insn	2, 0x5845
    41000f73:	5f504543          	.insn	4, 0x5f504543
    41000f77:	3430                	.insn	2, 0x3430
    41000f79:	455f 5a51 465f      	.insn	6, 0x465f5a51455f
    41000f7f:	4941                	.insn	2, 0x4941
    41000f81:	494c                	.insn	2, 0x494c
    41000f83:	474e                	.insn	2, 0x474e
    41000f85:	415f 4444       	.insn	6, 0x53004444415f

0000000041000f8a <dtest_name_10>:
    41000f8a:	5f444953          	.insn	4, 0x5f444953
    41000f8e:	5845                	.insn	2, 0x5845
    41000f90:	5f504543          	.insn	4, 0x5f504543
    41000f94:	3430                	.insn	2, 0x3430
    41000f96:	4e5f 5a45 505f      	.insn	6, 0x505f5a454e5f
    41000f9c:	5341                	.insn	2, 0x5341
    41000f9e:	474e4953          	.insn	4, 0x474e4953
    41000fa2:	535f 4255       	.insn	6, 0x53004255535f

0000000041000fa7 <dtest_name_11>:
    41000fa7:	5f444953          	.insn	4, 0x5f444953
    41000fab:	5845                	.insn	2, 0x5845
    41000fad:	5f504543          	.insn	4, 0x5f504543
    41000fb1:	3430                	.insn	2, 0x3430
    41000fb3:	4e5f 5a45 465f      	.insn	6, 0x465f5a454e5f
    41000fb9:	4941                	.insn	2, 0x4941
    41000fbb:	494c                	.insn	2, 0x494c
    41000fbd:	474e                	.insn	2, 0x474e
    41000fbf:	535f 4255       	.insn	6, 0x53004255535f

0000000041000fc4 <dtest_name_12>:
    41000fc4:	5f444953          	.insn	4, 0x5f444953
    41000fc8:	5845                	.insn	2, 0x5845
    41000fca:	5f504543          	.insn	4, 0x5f504543
    41000fce:	3430                	.insn	2, 0x3430
    41000fd0:	455f 5a51 505f      	.insn	6, 0x505f5a51455f
    41000fd6:	5341                	.insn	2, 0x5341
    41000fd8:	474e4953          	.insn	4, 0x474e4953
    41000fdc:	535f 4255       	.insn	6, 0x53004255535f

0000000041000fe1 <dtest_name_13>:
    41000fe1:	5f444953          	.insn	4, 0x5f444953
    41000fe5:	5845                	.insn	2, 0x5845
    41000fe7:	5f504543          	.insn	4, 0x5f504543
    41000feb:	3430                	.insn	2, 0x3430
    41000fed:	455f 5a51 465f      	.insn	6, 0x465f5a51455f
    41000ff3:	4941                	.insn	2, 0x4941
    41000ff5:	494c                	.insn	2, 0x494c
    41000ff7:	474e                	.insn	2, 0x474e
    41000ff9:	535f 4255       	.insn	6, 0x53004255535f

0000000041000ffe <dtest_name_14>:
    41000ffe:	5f444953          	.insn	4, 0x5f444953
    41001002:	5845                	.insn	2, 0x5845
    41001004:	5f504543          	.insn	4, 0x5f504543
    41001008:	3430                	.insn	2, 0x3430
    4100100a:	4e5f 5a45 505f      	.insn	6, 0x505f5a454e5f
    41001010:	5341                	.insn	2, 0x5341
    41001012:	474e4953          	.insn	4, 0x474e4953
    41001016:	415f 4444       	.insn	6, 0x53004444415f

000000004100101b <dtest_name_15>:
    4100101b:	5f444953          	.insn	4, 0x5f444953
    4100101f:	5845                	.insn	2, 0x5845
    41001021:	5f504543          	.insn	4, 0x5f504543
    41001025:	3430                	.insn	2, 0x3430
    41001027:	4e5f 5a45 465f      	.insn	6, 0x465f5a454e5f
    4100102d:	4941                	.insn	2, 0x4941
    4100102f:	494c                	.insn	2, 0x494c
    41001031:	474e                	.insn	2, 0x474e
    41001033:	415f 4444       	.insn	6, 0x53004444415f

0000000041001038 <dtest_name_16>:
    41001038:	5f444953          	.insn	4, 0x5f444953
    4100103c:	5845                	.insn	2, 0x5845
    4100103e:	5f504543          	.insn	4, 0x5f504543
    41001042:	3430                	.insn	2, 0x3430
    41001044:	455f 5a51 505f      	.insn	6, 0x505f5a51455f
    4100104a:	5341                	.insn	2, 0x5341
    4100104c:	474e4953          	.insn	4, 0x474e4953
    41001050:	415f 444e       	.insn	6, 0x5300444e415f

0000000041001055 <dtest_name_17>:
    41001055:	5f444953          	.insn	4, 0x5f444953
    41001059:	5845                	.insn	2, 0x5845
    4100105b:	5f504543          	.insn	4, 0x5f504543
    4100105f:	3430                	.insn	2, 0x3430
    41001061:	455f 5a51 465f      	.insn	6, 0x465f5a51455f
    41001067:	4941                	.insn	2, 0x4941
    41001069:	494c                	.insn	2, 0x494c
    4100106b:	474e                	.insn	2, 0x474e
    4100106d:	415f 444e       	.insn	6, 0x5300444e415f

0000000041001072 <dtest_name_18>:
    41001072:	5f444953          	.insn	4, 0x5f444953
    41001076:	5845                	.insn	2, 0x5845
    41001078:	5f504543          	.insn	4, 0x5f504543
    4100107c:	3430                	.insn	2, 0x3430
    4100107e:	455f 5a51 505f      	.insn	6, 0x505f5a51455f
    41001084:	5341                	.insn	2, 0x5341
    41001086:	474e4953          	.insn	4, 0x474e4953
    4100108a:	585f 524f       	.insn	6, 0x5300524f585f

000000004100108f <dtest_name_19>:
    4100108f:	5f444953          	.insn	4, 0x5f444953
    41001093:	5845                	.insn	2, 0x5845
    41001095:	5f504543          	.insn	4, 0x5f504543
    41001099:	3430                	.insn	2, 0x3430
    4100109b:	455f 5a51 465f      	.insn	6, 0x465f5a51455f
    410010a1:	4941                	.insn	2, 0x4941
    410010a3:	494c                	.insn	2, 0x494c
    410010a5:	474e                	.insn	2, 0x474e
    410010a7:	585f 524f       	.insn	6, 0x5300524f585f

00000000410010ac <dtest_name_20>:
    410010ac:	5f444953          	.insn	4, 0x5f444953
    410010b0:	5845                	.insn	2, 0x5845
    410010b2:	5f504543          	.insn	4, 0x5f504543
    410010b6:	3430                	.insn	2, 0x3430
    410010b8:	4e5f 5a45 505f      	.insn	6, 0x505f5a454e5f
    410010be:	5341                	.insn	2, 0x5341
    410010c0:	474e4953          	.insn	4, 0x474e4953
    410010c4:	415f 444e       	.insn	6, 0x5300444e415f

00000000410010c9 <dtest_name_21>:
    410010c9:	5f444953          	.insn	4, 0x5f444953
    410010cd:	5845                	.insn	2, 0x5845
    410010cf:	5f504543          	.insn	4, 0x5f504543
    410010d3:	3430                	.insn	2, 0x3430
    410010d5:	4e5f 5a45 465f      	.insn	6, 0x465f5a454e5f
    410010db:	4941                	.insn	2, 0x4941
    410010dd:	494c                	.insn	2, 0x494c
    410010df:	474e                	.insn	2, 0x474e
    410010e1:	415f 444e       	.insn	6, 0x5300444e415f

00000000410010e6 <dtest_name_22>:
    410010e6:	5f444953          	.insn	4, 0x5f444953
    410010ea:	5845                	.insn	2, 0x5845
    410010ec:	5f504543          	.insn	4, 0x5f504543
    410010f0:	3430                	.insn	2, 0x3430
    410010f2:	4e5f 5a45 505f      	.insn	6, 0x505f5a454e5f
    410010f8:	5341                	.insn	2, 0x5341
    410010fa:	474e4953          	.insn	4, 0x474e4953
    410010fe:	585f 524f       	.insn	6, 0x5300524f585f

0000000041001103 <dtest_name_23>:
    41001103:	5f444953          	.insn	4, 0x5f444953
    41001107:	5845                	.insn	2, 0x5845
    41001109:	5f504543          	.insn	4, 0x5f504543
    4100110d:	3430                	.insn	2, 0x3430
    4100110f:	4e5f 5a45 465f      	.insn	6, 0x465f5a454e5f
    41001115:	4941                	.insn	2, 0x4941
    41001117:	494c                	.insn	2, 0x494c
    41001119:	474e                	.insn	2, 0x474e
    4100111b:	585f 524f       	.insn	6, 0x5300524f585f

0000000041001120 <dtest_name_24>:
    41001120:	5f444953          	.insn	4, 0x5f444953
    41001124:	5845                	.insn	2, 0x5845
    41001126:	5f504543          	.insn	4, 0x5f504543
    4100112a:	3430                	.insn	2, 0x3430
    4100112c:	325f 315f 4d5f      	.insn	6, 0x4d5f315f325f
    41001132:	5855                	.insn	2, 0x5855
    41001134:	535f 4c45 4345      	.insn	6, 0x43454c45535f
    4100113a:	5f54                	.insn	2, 0x5f54
    4100113c:	0030                	.insn	2, 0x0030

000000004100113e <dtest_name_25>:
    4100113e:	5f444953          	.insn	4, 0x5f444953
    41001142:	5845                	.insn	2, 0x5845
    41001144:	5f504543          	.insn	4, 0x5f504543
    41001148:	3430                	.insn	2, 0x3430
    4100114a:	325f 315f 4d5f      	.insn	6, 0x4d5f315f325f
    41001150:	5855                	.insn	2, 0x5855
    41001152:	535f 4c45 4345      	.insn	6, 0x43454c45535f
    41001158:	5f54                	.insn	2, 0x5f54
    4100115a:	0031                	.insn	2, 0x0031

000000004100115c <dtest_index_map>:
    4100115c:	ffff                	.insn	2, 0xffff
    4100115e:	ffff                	.insn	2, 0xffff
    41001160:	0000                	.insn	2, 0x0000
    41001162:	0000                	.insn	2, 0x0000
    41001164:	0001                	.insn	2, 0x0001
    41001166:	0000                	.insn	2, 0x0000
    41001168:	00000017          	auipc	x0,0x0
    4100116c:	0002                	.insn	2, 0x0002
    4100116e:	0000                	.insn	2, 0x0000
    41001170:	00000013          	nop
    41001174:	0000000f          	fence	unknown,unknown
    41001178:	0018                	.insn	2, 0x0018
    4100117a:	0000                	.insn	2, 0x0000
    4100117c:	0011                	.insn	2, 0x0011
    4100117e:	0000                	.insn	2, 0x0000
    41001180:	0008                	.insn	2, 0x0008
    41001182:	0000                	.insn	2, 0x0000
    41001184:	0014                	.insn	2, 0x0014
    41001186:	0000                	.insn	2, 0x0000
    41001188:	00000003          	lb	x0,0(x0) # 0 <ALL_4KB_PAGES>
    4100118c:	00000013          	nop
    41001190:	0004                	.insn	2, 0x0004
    41001192:	0000                	.insn	2, 0x0000
    41001194:	0006                	.insn	2, 0x0006
    41001196:	0000                	.insn	2, 0x0000
    41001198:	0016                	.insn	2, 0x0016
    4100119a:	0000                	.insn	2, 0x0000
    4100119c:	000a                	.insn	2, 0x000a
    4100119e:	0000                	.insn	2, 0x0000
    410011a0:	0006                	.insn	2, 0x0006
    410011a2:	0000                	.insn	2, 0x0000
    410011a4:	000d                	.insn	2, 0x000d
    410011a6:	0000                	.insn	2, 0x0000
    410011a8:	0015                	.insn	2, 0x0015
    410011aa:	0000                	.insn	2, 0x0000
    410011ac:	0019                	.insn	2, 0x0019
    410011ae:	0000                	.insn	2, 0x0000
    410011b0:	0005                	.insn	2, 0x0005
    410011b2:	0000                	.insn	2, 0x0000
    410011b4:	000e                	.insn	2, 0x000e
    410011b6:	0000                	.insn	2, 0x0000
    410011b8:	0000000b          	.insn	4, 0x000b
    410011bc:	000c                	.insn	2, 0x000c
    410011be:	0000                	.insn	2, 0x0000
    410011c0:	000a                	.insn	2, 0x000a
    410011c2:	0000                	.insn	2, 0x0000
    410011c4:	0004                	.insn	2, 0x0004
    410011c6:	0000                	.insn	2, 0x0000
    410011c8:	0011                	.insn	2, 0x0011
    410011ca:	0000                	.insn	2, 0x0000
    410011cc:	0001                	.insn	2, 0x0001
    410011ce:	0000                	.insn	2, 0x0000
    410011d0:	0018                	.insn	2, 0x0018
    410011d2:	0000                	.insn	2, 0x0000
    410011d4:	0011                	.insn	2, 0x0011
    410011d6:	0000                	.insn	2, 0x0000
    410011d8:	000c                	.insn	2, 0x000c
    410011da:	0000                	.insn	2, 0x0000
    410011dc:	00000007          	vle8.v	v0,(x0),v0.t
    410011e0:	000c                	.insn	2, 0x000c
    410011e2:	0000                	.insn	2, 0x0000
    410011e4:	0008                	.insn	2, 0x0008
    410011e6:	0000                	.insn	2, 0x0000
    410011e8:	0009                	.insn	2, 0x0009
    410011ea:	0000                	.insn	2, 0x0000
    410011ec:	000e                	.insn	2, 0x000e
    410011ee:	0000                	.insn	2, 0x0000
    410011f0:	0010                	.insn	2, 0x0010
    410011f2:	0000                	.insn	2, 0x0000
    410011f4:	0018                	.insn	2, 0x0018
    410011f6:	0000                	.insn	2, 0x0000
    410011f8:	0015                	.insn	2, 0x0015
    410011fa:	0000                	.insn	2, 0x0000
    410011fc:	000d                	.insn	2, 0x000d
    410011fe:	0000                	.insn	2, 0x0000
    41001200:	0014                	.insn	2, 0x0014
    41001202:	0000                	.insn	2, 0x0000
    41001204:	0002                	.insn	2, 0x0002
    41001206:	0000                	.insn	2, 0x0000
    41001208:	000e                	.insn	2, 0x000e
    4100120a:	0000                	.insn	2, 0x0000
    4100120c:	0012                	.insn	2, 0x0012
    4100120e:	0000                	.insn	2, 0x0000
    41001210:	0010                	.insn	2, 0x0010
    41001212:	0000                	.insn	2, 0x0000
    41001214:	0014                	.insn	2, 0x0014
    41001216:	0000                	.insn	2, 0x0000
    41001218:	0004                	.insn	2, 0x0004
    4100121a:	0000                	.insn	2, 0x0000
    4100121c:	0005                	.insn	2, 0x0005
    4100121e:	0000                	.insn	2, 0x0000
    41001220:	0019                	.insn	2, 0x0019
    41001222:	0000                	.insn	2, 0x0000
    41001224:	0000000b          	.insn	4, 0x000b
    41001228:	0019                	.insn	2, 0x0019
    4100122a:	0000                	.insn	2, 0x0000
    4100122c:	0000000b          	.insn	4, 0x000b
    41001230:	00000017          	auipc	x0,0x0
    41001234:	0008                	.insn	2, 0x0008
    41001236:	0000                	.insn	2, 0x0000
    41001238:	0016                	.insn	2, 0x0016
    4100123a:	0000                	.insn	2, 0x0000
    4100123c:	0009                	.insn	2, 0x0009
    4100123e:	0000                	.insn	2, 0x0000
    41001240:	00000007          	vle8.v	v0,(x0),v0.t
    41001244:	0000                	.insn	2, 0x0000
    41001246:	0000                	.insn	2, 0x0000
    41001248:	0016                	.insn	2, 0x0016
    4100124a:	0000                	.insn	2, 0x0000
    4100124c:	0000                	.insn	2, 0x0000
    4100124e:	0000                	.insn	2, 0x0000
    41001250:	00000013          	nop
    41001254:	0005                	.insn	2, 0x0005
    41001256:	0000                	.insn	2, 0x0000
    41001258:	00000017          	auipc	x0,0x0
    4100125c:	0012                	.insn	2, 0x0012
    4100125e:	0000                	.insn	2, 0x0000
    41001260:	0000000f          	fence	unknown,unknown
    41001264:	0015                	.insn	2, 0x0015
    41001266:	0000                	.insn	2, 0x0000
    41001268:	0010                	.insn	2, 0x0010
    4100126a:	0000                	.insn	2, 0x0000
    4100126c:	0012                	.insn	2, 0x0012
    4100126e:	0000                	.insn	2, 0x0000
    41001270:	0006                	.insn	2, 0x0006
    41001272:	0000                	.insn	2, 0x0000
    41001274:	0001                	.insn	2, 0x0001
    41001276:	0000                	.insn	2, 0x0000
    41001278:	0009                	.insn	2, 0x0009
    4100127a:	0000                	.insn	2, 0x0000
    4100127c:	000a                	.insn	2, 0x000a
    4100127e:	0000                	.insn	2, 0x0000
    41001280:	000d                	.insn	2, 0x000d
    41001282:	0000                	.insn	2, 0x0000
    41001284:	00000007          	vle8.v	v0,(x0),v0.t
    41001288:	0000000f          	fence	unknown,unknown
    4100128c:	00000003          	lb	x0,0(x0) # 0 <ALL_4KB_PAGES>
    41001290:	00000003          	lb	x0,0(x0) # 0 <ALL_4KB_PAGES>
    41001294:	0002                	.insn	2, 0x0002
    41001296:	0000                	.insn	2, 0x0000
    41001298:	0000                	.insn	2, 0x0000
	...

000000004100129c <scheduler__test_setup_ptr>:
    4100129c:	4120                	.insn	2, 0x4120
    4100129e:	4101                	.insn	2, 0x4101
    410012a0:	0000                	.insn	2, 0x0000
	...

00000000410012a4 <scheduler__test_cleanup_ptr>:
    410012a4:	4a98                	.insn	2, 0x4a98
    410012a6:	4101                	.insn	2, 0x4101
    410012a8:	0000                	.insn	2, 0x0000
	...

Disassembly of section .runtime_s:

0000000041010000 <trap_handler_s__invalid_interrupt>:
    41010000:	1740006f          	j	41010174 <trap_handler_s__test_failed>

0000000041010004 <trap_handler_s__clear_all_interrupts>:
    41010004:	14401073          	csrw	sip,x0
    41010008:	10200073          	sret

000000004101000c <trap_handler_s___CLEAR_SSI>:
    4101000c:	00200293          	li	x5,2
    41010010:	1442b073          	csrc	sip,x5
    41010014:	10200073          	sret

0000000041010018 <trap_handler_s___CLEAR_MSI>:
    41010018:	00800293          	li	x5,8
    4101001c:	1442b073          	csrc	sip,x5
    41010020:	10200073          	sret

0000000041010024 <trap_handler_s___CLEAR_STI>:
    41010024:	02000293          	li	x5,32
    41010028:	1442b073          	csrc	sip,x5
    4101002c:	10200073          	sret

0000000041010030 <trap_handler_s___CLEAR_MTI>:
    41010030:	08000293          	li	x5,128
    41010034:	1442b073          	csrc	sip,x5
    41010038:	10200073          	sret

000000004101003c <trap_handler_s___CLEAR_SEI>:
    4101003c:	20000293          	li	x5,512
    41010040:	1442b073          	csrc	sip,x5
    41010044:	10200073          	sret

0000000041010048 <trap_handler_s___CLEAR_MEI>:
    41010048:	000012b7          	lui	x5,0x1
    4101004c:	8002829b          	addiw	x5,x5,-2048 # 800 <XLEN+0x7c0>
    41010050:	1442b073          	csrc	sip,x5
    41010054:	10200073          	sret

0000000041010058 <trap_handler_s___CLEAR_COI>:
    41010058:	000022b7          	lui	x5,0x2
    4101005c:	1442b073          	csrc	sip,x5
    41010060:	10200073          	sret

0000000041010064 <trap_handler_s__clear_highest_priority_interrupt>:
    41010064:	144022f3          	csrr	x5,sip
    41010068:	40500333          	neg	x6,x5
    4101006c:	0062f2b3          	and	x5,x5,x6
    41010070:	1442b073          	csrc	sip,x5
    41010074:	10200073          	sret

0000000041010078 <trap_handler_s__trap_entry>:
    41010078:	10c0006f          	j	41010184 <trap_handler_s__trap_handler>

000000004101007c <trap_handler_s__interrupt_vector_table>:
    4101007c:	f91ff06f          	j	4101000c <trap_handler_s___CLEAR_SSI>
    41010080:	f81ff06f          	j	41010000 <trap_handler_s__invalid_interrupt>
    41010084:	f95ff06f          	j	41010018 <trap_handler_s___CLEAR_MSI>
    41010088:	f79ff06f          	j	41010000 <trap_handler_s__invalid_interrupt>
    4101008c:	f99ff06f          	j	41010024 <trap_handler_s___CLEAR_STI>
    41010090:	f71ff06f          	j	41010000 <trap_handler_s__invalid_interrupt>
    41010094:	f9dff06f          	j	41010030 <trap_handler_s___CLEAR_MTI>
    41010098:	f69ff06f          	j	41010000 <trap_handler_s__invalid_interrupt>
    4101009c:	fa1ff06f          	j	4101003c <trap_handler_s___CLEAR_SEI>
    410100a0:	f61ff06f          	j	41010000 <trap_handler_s__invalid_interrupt>
    410100a4:	fa5ff06f          	j	41010048 <trap_handler_s___CLEAR_MEI>
    410100a8:	f59ff06f          	j	41010000 <trap_handler_s__invalid_interrupt>
    410100ac:	fadff06f          	j	41010058 <trap_handler_s___CLEAR_COI>
    410100b0:	f51ff06f          	j	41010000 <trap_handler_s__invalid_interrupt>
    410100b4:	f4dff06f          	j	41010000 <trap_handler_s__invalid_interrupt>
    410100b8:	fadff06f          	j	41010064 <trap_handler_s__clear_highest_priority_interrupt>
    410100bc:	fa9ff06f          	j	41010064 <trap_handler_s__clear_highest_priority_interrupt>
    410100c0:	fa5ff06f          	j	41010064 <trap_handler_s__clear_highest_priority_interrupt>
    410100c4:	fa1ff06f          	j	41010064 <trap_handler_s__clear_highest_priority_interrupt>
    410100c8:	f9dff06f          	j	41010064 <trap_handler_s__clear_highest_priority_interrupt>
    410100cc:	f99ff06f          	j	41010064 <trap_handler_s__clear_highest_priority_interrupt>
    410100d0:	f95ff06f          	j	41010064 <trap_handler_s__clear_highest_priority_interrupt>
    410100d4:	f91ff06f          	j	41010064 <trap_handler_s__clear_highest_priority_interrupt>
    410100d8:	f8dff06f          	j	41010064 <trap_handler_s__clear_highest_priority_interrupt>
    410100dc:	f89ff06f          	j	41010064 <trap_handler_s__clear_highest_priority_interrupt>
    410100e0:	f85ff06f          	j	41010064 <trap_handler_s__clear_highest_priority_interrupt>
    410100e4:	f81ff06f          	j	41010064 <trap_handler_s__clear_highest_priority_interrupt>
    410100e8:	f7dff06f          	j	41010064 <trap_handler_s__clear_highest_priority_interrupt>
    410100ec:	f79ff06f          	j	41010064 <trap_handler_s__clear_highest_priority_interrupt>
    410100f0:	f75ff06f          	j	41010064 <trap_handler_s__clear_highest_priority_interrupt>
    410100f4:	f71ff06f          	j	41010064 <trap_handler_s__clear_highest_priority_interrupt>
    410100f8:	f6dff06f          	j	41010064 <trap_handler_s__clear_highest_priority_interrupt>
    410100fc:	f69ff06f          	j	41010064 <trap_handler_s__clear_highest_priority_interrupt>
    41010100:	f65ff06f          	j	41010064 <trap_handler_s__clear_highest_priority_interrupt>
    41010104:	f61ff06f          	j	41010064 <trap_handler_s__clear_highest_priority_interrupt>
    41010108:	f5dff06f          	j	41010064 <trap_handler_s__clear_highest_priority_interrupt>
    4101010c:	f59ff06f          	j	41010064 <trap_handler_s__clear_highest_priority_interrupt>
    41010110:	f55ff06f          	j	41010064 <trap_handler_s__clear_highest_priority_interrupt>
    41010114:	f51ff06f          	j	41010064 <trap_handler_s__clear_highest_priority_interrupt>
    41010118:	f4dff06f          	j	41010064 <trap_handler_s__clear_highest_priority_interrupt>
    4101011c:	f49ff06f          	j	41010064 <trap_handler_s__clear_highest_priority_interrupt>
    41010120:	f45ff06f          	j	41010064 <trap_handler_s__clear_highest_priority_interrupt>
    41010124:	f41ff06f          	j	41010064 <trap_handler_s__clear_highest_priority_interrupt>
    41010128:	f3dff06f          	j	41010064 <trap_handler_s__clear_highest_priority_interrupt>
    4101012c:	f39ff06f          	j	41010064 <trap_handler_s__clear_highest_priority_interrupt>
    41010130:	f35ff06f          	j	41010064 <trap_handler_s__clear_highest_priority_interrupt>
    41010134:	f31ff06f          	j	41010064 <trap_handler_s__clear_highest_priority_interrupt>
    41010138:	f2dff06f          	j	41010064 <trap_handler_s__clear_highest_priority_interrupt>
    4101013c:	f29ff06f          	j	41010064 <trap_handler_s__clear_highest_priority_interrupt>
    41010140:	f25ff06f          	j	41010064 <trap_handler_s__clear_highest_priority_interrupt>
    41010144:	f21ff06f          	j	41010064 <trap_handler_s__clear_highest_priority_interrupt>
    41010148:	f1dff06f          	j	41010064 <trap_handler_s__clear_highest_priority_interrupt>
    4101014c:	f19ff06f          	j	41010064 <trap_handler_s__clear_highest_priority_interrupt>
    41010150:	f15ff06f          	j	41010064 <trap_handler_s__clear_highest_priority_interrupt>
    41010154:	f11ff06f          	j	41010064 <trap_handler_s__clear_highest_priority_interrupt>
    41010158:	f0dff06f          	j	41010064 <trap_handler_s__clear_highest_priority_interrupt>
    4101015c:	f09ff06f          	j	41010064 <trap_handler_s__clear_highest_priority_interrupt>
    41010160:	f05ff06f          	j	41010064 <trap_handler_s__clear_highest_priority_interrupt>
    41010164:	f01ff06f          	j	41010064 <trap_handler_s__clear_highest_priority_interrupt>
    41010168:	efdff06f          	j	41010064 <trap_handler_s__clear_highest_priority_interrupt>
    4101016c:	ef9ff06f          	j	41010064 <trap_handler_s__clear_highest_priority_interrupt>
    41010170:	ef5ff06f          	j	41010064 <trap_handler_s__clear_highest_priority_interrupt>

0000000041010174 <trap_handler_s__test_failed>:
    41010174:	00f00f9b          	addiw	x31,x0,15
    41010178:	01cf9f93          	slli	x31,x31,0x1c
    4101017c:	002f8f93          	addi	x31,x31,2
    41010180:	00000073          	ecall

0000000041010184 <trap_handler_s__trap_handler>:
    41010184:	142022f3          	csrr	x5,scause
    41010188:	fff0031b          	addiw	x6,x0,-1
    4101018c:	03f31313          	slli	x6,x6,0x3f
    41010190:	00537333          	and	x6,x6,x5
    41010194:	02030263          	beqz	x6,410101b8 <trap_handler_s__exception_path>

0000000041010198 <trap_handler_s__interrupt_handler>:
    41010198:	fff0031b          	addiw	x6,x0,-1
    4101019c:	03f31313          	slli	x6,x6,0x3f
    410101a0:	0062c2b3          	xor	x5,x5,x6
    410101a4:	00000317          	auipc	x6,0x0
    410101a8:	ed430313          	addi	x6,x6,-300 # 41010078 <trap_handler_s__trap_entry>
    410101ac:	00229293          	slli	x5,x5,0x2
    410101b0:	005302b3          	add	x5,x6,x5
    410101b4:	00028067          	jr	x5 # 2000 <SID_EXCEP_01_NEZ_RS1_NZ_stack>

00000000410101b8 <trap_handler_s__exception_path>:
    410101b8:	14021273          	csrrw	x4,sscratch,x4
    410101bc:	00000297          	auipc	x5,0x0
    410101c0:	0cc28293          	addi	x5,x5,204 # 41010288 <trap_handler_s__trap_panic>
    410101c4:	10529073          	csrw	stvec,x5
    410101c8:	0040006f          	j	410101cc <trap_handler_s__excp_entry>

00000000410101cc <trap_handler_s__excp_entry>:
    410101cc:	14202373          	csrr	x6,scause
    410101d0:	00800293          	li	x5,8
    410101d4:	00534863          	blt	x6,x5,410101e4 <trap_handler_s__check_exception_label>
    410101d8:	00b00293          	li	x5,11
    410101dc:	0062c463          	blt	x5,x6,410101e4 <trap_handler_s__check_exception_label>
    410101e0:	0a80006f          	j	41010288 <trap_handler_s__trap_panic>

00000000410101e4 <trap_handler_s__check_exception_label>:
    410101e4:	04623c23          	sd	x6,88(x4) # 58 <XLEN+0x18>
    410101e8:	141022f3          	csrr	x5,sepc
    410101ec:	02523423          	sd	x5,40(x4) # 28 <SECURE_ACCESS_PROBABILITY+0xa>
    410101f0:	01820283          	lb	x5,24(x4) # 18 <STORE_GUEST_PAGE_FAULT+0x1>
    410101f4:	00029863          	bnez	x5,41010204 <trap_handler_s__check_excp>
    410101f8:	00128293          	addi	x5,x5,1
    410101fc:	00520c23          	sb	x5,24(x4) # 18 <STORE_GUEST_PAGE_FAULT+0x1>
    41010200:	05c0006f          	j	4101025c <trap_handler_s__ecall_from_machine>

0000000041010204 <trap_handler_s__check_excp>:
    41010204:	06823283          	ld	x5,104(x4) # 68 <XLEN+0x28>
    41010208:	06023423          	sd	x0,104(x4) # 68 <XLEN+0x28>
    4101020c:	00028663          	beqz	x5,41010218 <trap_handler_s__skip_mode_check>
    41010210:	00300393          	li	x7,3
    41010214:	f67290e3          	bne	x5,x7,41010174 <trap_handler_s__test_failed>

0000000041010218 <trap_handler_s__skip_mode_check>:
    41010218:	05023283          	ld	x5,80(x4) # 50 <XLEN+0x10>
    4101021c:	04023823          	sd	x0,80(x4) # 50 <XLEN+0x10>
    41010220:	f4531ae3          	bne	x6,x5,41010174 <trap_handler_s__test_failed>
    41010224:	03823283          	ld	x5,56(x4) # 38 <SECURE_ACCESS_PROBABILITY+0x1a>
    41010228:	02023c23          	sd	x0,56(x4) # 38 <SECURE_ACCESS_PROBABILITY+0x1a>
    4101022c:	02029663          	bnez	x5,41010258 <trap_handler_s__skip_nonzero_tval_check>
    41010230:	02023303          	ld	x6,32(x4) # 20 <SECURE_ACCESS_PROBABILITY+0x2>
    41010234:	02023023          	sd	x0,32(x4) # 20 <SECURE_ACCESS_PROBABILITY+0x2>
    41010238:	02823283          	ld	x5,40(x4) # 28 <SECURE_ACCESS_PROBABILITY+0xa>
    4101023c:	02023423          	sd	x0,40(x4) # 28 <SECURE_ACCESS_PROBABILITY+0xa>
    41010240:	f2531ae3          	bne	x6,x5,41010174 <trap_handler_s__test_failed>
    41010244:	04023283          	ld	x5,64(x4) # 40 <XLEN>
    41010248:	04023023          	sd	x0,64(x4) # 40 <XLEN>
    4101024c:	00028663          	beqz	x5,41010258 <trap_handler_s__skip_nonzero_tval_check>

0000000041010250 <trap_handler_s__nonzero_tval_check>:
    41010250:	14302373          	csrr	x6,stval
    41010254:	f25310e3          	bne	x6,x5,41010174 <trap_handler_s__test_failed>

0000000041010258 <trap_handler_s__skip_nonzero_tval_check>:
    41010258:	0040006f          	j	4101025c <trap_handler_s__ecall_from_machine>

000000004101025c <trap_handler_s__ecall_from_machine>:
    4101025c:	03023283          	ld	x5,48(x4) # 30 <SECURE_ACCESS_PROBABILITY+0x12>
    41010260:	02023823          	sd	x0,48(x4) # 30 <SECURE_ACCESS_PROBABILITY+0x12>
    41010264:	07023303          	ld	x6,112(x4) # 70 <XLEN+0x30>
    41010268:	06023823          	sd	x0,112(x4) # 70 <XLEN+0x30>
    4101026c:	00031463          	bnez	x6,41010274 <trap_handler_s__skip_xepc_write>
    41010270:	14129073          	csrw	sepc,x5

0000000041010274 <trap_handler_s__skip_xepc_write>:
    41010274:	00000317          	auipc	x6,0x0
    41010278:	e0430313          	addi	x6,x6,-508 # 41010078 <trap_handler_s__trap_entry>
    4101027c:	10531073          	csrw	stvec,x6
    41010280:	14021273          	csrrw	x4,sscratch,x4
    41010284:	10200073          	sret

0000000041010288 <trap_handler_s__trap_panic>:
    41010288:	00000193          	li	x3,0
    4101028c:	00f00f9b          	addiw	x31,x0,15
    41010290:	01cf9f93          	slli	x31,x31,0x1c
    41010294:	002f8f93          	addi	x31,x31,2
    41010298:	00000073          	ecall

Disassembly of section .code:

00000000410140f0 <passed>:
    410140f0:	00f00f9b          	addiw	x31,x0,15
    410140f4:	01cf9f93          	slli	x31,x31,0x1c
    410140f8:	001f8f93          	addi	x31,x31,1
    410140fc:	00000073          	ecall

0000000041014100 <failed>:
    41014100:	00f00f9b          	addiw	x31,x0,15
    41014104:	01cf9f93          	slli	x31,x31,0x1c
    41014108:	002f8f93          	addi	x31,x31,2
    4101410c:	00000073          	ecall

0000000041014110 <end_test>:
    41014110:	00f00f9b          	addiw	x31,x0,15
    41014114:	01cf9f93          	slli	x31,x31,0x1c
    41014118:	003f8f93          	addi	x31,x31,3
    4101411c:	00000073          	ecall

0000000041014120 <test_setup>:
    41014120:	00f00f9b          	addiw	x31,x0,15
    41014124:	01cf9f93          	slli	x31,x31,0x1c
    41014128:	001f8f93          	addi	x31,x31,1
    4101412c:	00000073          	ecall

0000000041014130 <SID_EXCEP_01_EQZ_RS1_NZ>:
    41014130:	00673137          	lui	x2,0x673
    41014134:	000012b7          	lui	x5,0x1
    41014138:	00510133          	add	x2,x2,x5
    4101413c:	ff017113          	andi	x2,x2,-16
    41014140:	00000393          	li	x7,0
    41014144:	00c104b7          	lui	x9,0xc10
    41014148:	fee4849b          	addiw	x9,x9,-18 # c0ffee <SID_EXCEP_04_NEZ_FAILING_ADD_stack+0x53bfee>
    4101414c:	0e74d533          	czero.eqz	x10,x9,x7
    41014150:	00000a13          	li	x20,0
    41014154:	01450e63          	beq	x10,x20,41014170 <SID_EXCEP_01_EQZ_RS1_NZ_passed>
    41014158:	002e8737          	lui	x14,0x2e8
    4101415c:	22b7071b          	addiw	x14,x14,555 # 2e822b <SID_EXCEP_04_EQZ_FAILING_AND_stack+0xed22b>
    41014160:	00e71713          	slli	x14,x14,0xe
    41014164:	00870713          	addi	x14,x14,8
    41014168:	00073503          	ld	x10,0(x14)
    4101416c:	00050067          	jr	x10

0000000041014170 <SID_EXCEP_01_EQZ_RS1_NZ_passed>:
    41014170:	00f00f9b          	addiw	x31,x0,15
    41014174:	01cf9f93          	slli	x31,x31,0x1c
    41014178:	001f8f93          	addi	x31,x31,1
    4101417c:	00000073          	ecall

0000000041014180 <SID_EXCEP_01_EQZ_RS1_Z>:
    41014180:	0a76f137          	lui	x2,0xa76f
    41014184:	2451011b          	addiw	x2,x2,581 # a76f245 <pma_region_2_size+0x676f245>
    41014188:	00e11113          	slli	x2,x2,0xe
    4101418c:	29f10113          	addi	x2,x2,671
    41014190:	00e11113          	slli	x2,x2,0xe
    41014194:	000012b7          	lui	x5,0x1
    41014198:	00510133          	add	x2,x2,x5
    4101419c:	ff017113          	andi	x2,x2,-16
    410141a0:	00000f93          	li	x31,0
    410141a4:	00000d93          	li	x27,0
    410141a8:	0ffdd7b3          	czero.eqz	x15,x27,x31
    410141ac:	00000713          	li	x14,0
    410141b0:	00e78e63          	beq	x15,x14,410141cc <SID_EXCEP_01_EQZ_RS1_Z_passed>
    410141b4:	002e8e37          	lui	x28,0x2e8
    410141b8:	22be0e1b          	addiw	x28,x28,555 # 2e822b <SID_EXCEP_04_EQZ_FAILING_AND_stack+0xed22b>
    410141bc:	00ee1e13          	slli	x28,x28,0xe
    410141c0:	008e0e13          	addi	x28,x28,8
    410141c4:	000e3603          	ld	x12,0(x28)
    410141c8:	00060067          	jr	x12

00000000410141cc <SID_EXCEP_01_EQZ_RS1_Z_passed>:
    410141cc:	00f00f9b          	addiw	x31,x0,15
    410141d0:	01cf9f93          	slli	x31,x31,0x1c
    410141d4:	001f8f93          	addi	x31,x31,1
    410141d8:	00000073          	ecall

00000000410141dc <SID_EXCEP_01_NEZ_RS1_NZ>:
    410141dc:	00002137          	lui	x2,0x2
    410141e0:	000012b7          	lui	x5,0x1
    410141e4:	00510133          	add	x2,x2,x5
    410141e8:	ff017113          	andi	x2,x2,-16
    410141ec:	00038cb7          	lui	x25,0x38
    410141f0:	ab7c8c9b          	addiw	x25,x25,-1353 # 37ab7 <SID_EXCEP_04_EQZ_PASSING_ADD_stack+0x7ab7>
    410141f4:	00ec9c93          	slli	x25,x25,0xe
    410141f8:	eefc8c93          	addi	x25,x25,-273
    410141fc:	00c103b7          	lui	x7,0xc10
    41014200:	fee3839b          	addiw	x7,x7,-18 # c0ffee <SID_EXCEP_04_NEZ_FAILING_ADD_stack+0x53bfee>
    41014204:	0f93fd33          	czero.nez	x26,x7,x25
    41014208:	00000f13          	li	x30,0
    4101420c:	01ed0e63          	beq	x26,x30,41014228 <SID_EXCEP_01_NEZ_RS1_NZ_passed>
    41014210:	002e8637          	lui	x12,0x2e8
    41014214:	22b6061b          	addiw	x12,x12,555 # 2e822b <SID_EXCEP_04_EQZ_FAILING_AND_stack+0xed22b>
    41014218:	00e61613          	slli	x12,x12,0xe
    4101421c:	00860613          	addi	x12,x12,8
    41014220:	00063a83          	ld	x21,0(x12)
    41014224:	000a8067          	jr	x21

0000000041014228 <SID_EXCEP_01_NEZ_RS1_NZ_passed>:
    41014228:	00f00f9b          	addiw	x31,x0,15
    4101422c:	01cf9f93          	slli	x31,x31,0x1c
    41014230:	001f8f93          	addi	x31,x31,1
    41014234:	00000073          	ecall

0000000041014238 <SID_EXCEP_01_NEZ_RS1_Z>:
    41014238:	0001b137          	lui	x2,0x1b
    4101423c:	000012b7          	lui	x5,0x1
    41014240:	00510133          	add	x2,x2,x5
    41014244:	ff017113          	andi	x2,x2,-16
    41014248:	00038d37          	lui	x26,0x38
    4101424c:	ab7d0d1b          	addiw	x26,x26,-1353 # 37ab7 <SID_EXCEP_04_EQZ_PASSING_ADD_stack+0x7ab7>
    41014250:	00ed1d13          	slli	x26,x26,0xe
    41014254:	eefd0d13          	addi	x26,x26,-273
    41014258:	00000913          	li	x18,0
    4101425c:	0fa97933          	czero.nez	x18,x18,x26
    41014260:	00000f93          	li	x31,0
    41014264:	01f90e63          	beq	x18,x31,41014280 <SID_EXCEP_01_NEZ_RS1_Z_passed>
    41014268:	002e8bb7          	lui	x23,0x2e8
    4101426c:	22bb8b9b          	addiw	x23,x23,555 # 2e822b <SID_EXCEP_04_EQZ_FAILING_AND_stack+0xed22b>
    41014270:	00eb9b93          	slli	x23,x23,0xe
    41014274:	008b8b93          	addi	x23,x23,8
    41014278:	000bb883          	ld	x17,0(x23)
    4101427c:	00088067          	jr	x17

0000000041014280 <SID_EXCEP_01_NEZ_RS1_Z_passed>:
    41014280:	00f00f9b          	addiw	x31,x0,15
    41014284:	01cf9f93          	slli	x31,x31,0x1c
    41014288:	001f8f93          	addi	x31,x31,1
    4101428c:	00000073          	ecall

0000000041014290 <SID_EXCEP_02_EQZ_RS1_NZ>:
    41014290:	03f66137          	lui	x2,0x3f66
    41014294:	9631011b          	addiw	x2,x2,-1693 # 3f65963 <SID_EXCEP_04_NEZ_FAILING_ADD_stack+0x3891963>
    41014298:	00c11113          	slli	x2,x2,0xc
    4101429c:	000012b7          	lui	x5,0x1
    410142a0:	00510133          	add	x2,x2,x5
    410142a4:	ff017113          	andi	x2,x2,-16
    410142a8:	00038bb7          	lui	x23,0x38
    410142ac:	ab7b8b9b          	addiw	x23,x23,-1353 # 37ab7 <SID_EXCEP_04_EQZ_PASSING_ADD_stack+0x7ab7>
    410142b0:	00eb9b93          	slli	x23,x23,0xe
    410142b4:	eefb8b93          	addi	x23,x23,-273
    410142b8:	00c10a37          	lui	x20,0xc10
    410142bc:	feea0a1b          	addiw	x20,x20,-18 # c0ffee <SID_EXCEP_04_NEZ_FAILING_ADD_stack+0x53bfee>
    410142c0:	0f7a5c33          	czero.eqz	x24,x20,x23
    410142c4:	00c10737          	lui	x14,0xc10
    410142c8:	fee7071b          	addiw	x14,x14,-18 # c0ffee <SID_EXCEP_04_NEZ_FAILING_ADD_stack+0x53bfee>
    410142cc:	00ec0e63          	beq	x24,x14,410142e8 <SID_EXCEP_02_EQZ_RS1_NZ_passed>
    410142d0:	002e83b7          	lui	x7,0x2e8
    410142d4:	22b3839b          	addiw	x7,x7,555 # 2e822b <SID_EXCEP_04_EQZ_FAILING_AND_stack+0xed22b>
    410142d8:	00e39393          	slli	x7,x7,0xe
    410142dc:	00838393          	addi	x7,x7,8
    410142e0:	0003b303          	ld	x6,0(x7)
    410142e4:	00030067          	jr	x6

00000000410142e8 <SID_EXCEP_02_EQZ_RS1_NZ_passed>:
    410142e8:	00f00f9b          	addiw	x31,x0,15
    410142ec:	01cf9f93          	slli	x31,x31,0x1c
    410142f0:	001f8f93          	addi	x31,x31,1
    410142f4:	00000073          	ecall

00000000410142f8 <SID_EXCEP_02_EQZ_RS1_Z>:
    410142f8:	0044d137          	lui	x2,0x44d
    410142fc:	000012b7          	lui	x5,0x1
    41014300:	00510133          	add	x2,x2,x5
    41014304:	ff017113          	andi	x2,x2,-16
    41014308:	000388b7          	lui	x17,0x38
    4101430c:	ab78889b          	addiw	x17,x17,-1353 # 37ab7 <SID_EXCEP_04_EQZ_PASSING_ADD_stack+0x7ab7>
    41014310:	00e89893          	slli	x17,x17,0xe
    41014314:	eef88893          	addi	x17,x17,-273
    41014318:	00000a93          	li	x21,0
    4101431c:	0f1ad833          	czero.eqz	x16,x21,x17
    41014320:	00000a13          	li	x20,0
    41014324:	01480e63          	beq	x16,x20,41014340 <SID_EXCEP_02_EQZ_RS1_Z_passed>
    41014328:	002e8bb7          	lui	x23,0x2e8
    4101432c:	22bb8b9b          	addiw	x23,x23,555 # 2e822b <SID_EXCEP_04_EQZ_FAILING_AND_stack+0xed22b>
    41014330:	00eb9b93          	slli	x23,x23,0xe
    41014334:	008b8b93          	addi	x23,x23,8
    41014338:	000bbd83          	ld	x27,0(x23)
    4101433c:	000d8067          	jr	x27

0000000041014340 <SID_EXCEP_02_EQZ_RS1_Z_passed>:
    41014340:	00f00f9b          	addiw	x31,x0,15
    41014344:	01cf9f93          	slli	x31,x31,0x1c
    41014348:	001f8f93          	addi	x31,x31,1
    4101434c:	00000073          	ecall

0000000041014350 <SID_EXCEP_02_NEZ_RS1_Z>:
    41014350:	008c3137          	lui	x2,0x8c3
    41014354:	72f1011b          	addiw	x2,x2,1839 # 8c372f <SID_EXCEP_04_NEZ_FAILING_ADD_stack+0x1ef72f>
    41014358:	01111113          	slli	x2,x2,0x11
    4101435c:	ef710113          	addi	x2,x2,-265
    41014360:	00f11113          	slli	x2,x2,0xf
    41014364:	000012b7          	lui	x5,0x1
    41014368:	00510133          	add	x2,x2,x5
    4101436c:	ff017113          	andi	x2,x2,-16
    41014370:	00000593          	li	x11,0
    41014374:	00c10c37          	lui	x24,0xc10
    41014378:	feec0c1b          	addiw	x24,x24,-18 # c0ffee <SID_EXCEP_04_NEZ_FAILING_ADD_stack+0x53bfee>
    4101437c:	0ebc7633          	czero.nez	x12,x24,x11
    41014380:	00c107b7          	lui	x15,0xc10
    41014384:	fee7879b          	addiw	x15,x15,-18 # c0ffee <SID_EXCEP_04_NEZ_FAILING_ADD_stack+0x53bfee>
    41014388:	00f60e63          	beq	x12,x15,410143a4 <SID_EXCEP_02_NEZ_RS1_Z_passed>
    4101438c:	002e8837          	lui	x16,0x2e8
    41014390:	22b8081b          	addiw	x16,x16,555 # 2e822b <SID_EXCEP_04_EQZ_FAILING_AND_stack+0xed22b>
    41014394:	00e81813          	slli	x16,x16,0xe
    41014398:	00880813          	addi	x16,x16,8
    4101439c:	00083303          	ld	x6,0(x16)
    410143a0:	00030067          	jr	x6

00000000410143a4 <SID_EXCEP_02_NEZ_RS1_Z_passed>:
    410143a4:	00f00f9b          	addiw	x31,x0,15
    410143a8:	01cf9f93          	slli	x31,x31,0x1c
    410143ac:	001f8f93          	addi	x31,x31,1
    410143b0:	00000073          	ecall

00000000410143b4 <SID_EXCEP_02_NEZ_RS1_NZ>:
    410143b4:	10c4d137          	lui	x2,0x10c4d
    410143b8:	0131011b          	addiw	x2,x2,19 # 10c4d013 <pma_region_2_size+0xcc4d013>
    410143bc:	00e11113          	slli	x2,x2,0xe
    410143c0:	000012b7          	lui	x5,0x1
    410143c4:	00510133          	add	x2,x2,x5
    410143c8:	ff017113          	andi	x2,x2,-16
    410143cc:	00000593          	li	x11,0
    410143d0:	00000893          	li	x17,0
    410143d4:	0eb8f633          	czero.nez	x12,x17,x11
    410143d8:	00000513          	li	x10,0
    410143dc:	00a60e63          	beq	x12,x10,410143f8 <SID_EXCEP_02_NEZ_RS1_NZ_passed>
    410143e0:	002e8d37          	lui	x26,0x2e8
    410143e4:	22bd0d1b          	addiw	x26,x26,555 # 2e822b <SID_EXCEP_04_EQZ_FAILING_AND_stack+0xed22b>
    410143e8:	00ed1d13          	slli	x26,x26,0xe
    410143ec:	008d0d13          	addi	x26,x26,8
    410143f0:	000d3d83          	ld	x27,0(x26)
    410143f4:	000d8067          	jr	x27

00000000410143f8 <SID_EXCEP_02_NEZ_RS1_NZ_passed>:
    410143f8:	00f00f9b          	addiw	x31,x0,15
    410143fc:	01cf9f93          	slli	x31,x31,0x1c
    41014400:	001f8f93          	addi	x31,x31,1
    41014404:	00000073          	ecall

0000000041014408 <SID_EXCEP_04_EQZ_PASSING_ADD>:
    41014408:	00030137          	lui	x2,0x30
    4101440c:	000012b7          	lui	x5,0x1
    41014410:	00510133          	add	x2,x2,x5
    41014414:	ff017113          	andi	x2,x2,-16
    41014418:	00a00893          	li	x17,10
    4101441c:	00300b93          	li	x23,3
    41014420:	00000e93          	li	x29,0
    41014424:	01788cb3          	add	x25,x17,x23
    41014428:	0fdcd5b3          	czero.eqz	x11,x25,x29
    4101442c:	00000b13          	li	x22,0
    41014430:	01658e63          	beq	x11,x22,4101444c <SID_EXCEP_04_EQZ_PASSING_ADD_passed>
    41014434:	002e8b37          	lui	x22,0x2e8
    41014438:	22bb0b1b          	addiw	x22,x22,555 # 2e822b <SID_EXCEP_04_EQZ_FAILING_AND_stack+0xed22b>
    4101443c:	00eb1b13          	slli	x22,x22,0xe
    41014440:	008b0b13          	addi	x22,x22,8
    41014444:	000b3a83          	ld	x21,0(x22)
    41014448:	000a8067          	jr	x21

000000004101444c <SID_EXCEP_04_EQZ_PASSING_ADD_passed>:
    4101444c:	00f00f9b          	addiw	x31,x0,15
    41014450:	01cf9f93          	slli	x31,x31,0x1c
    41014454:	001f8f93          	addi	x31,x31,1
    41014458:	00000073          	ecall

000000004101445c <SID_EXCEP_04_EQZ_FAILING_ADD>:
    4101445c:	00058137          	lui	x2,0x58
    41014460:	000012b7          	lui	x5,0x1
    41014464:	00510133          	add	x2,x2,x5
    41014468:	ff017113          	andi	x2,x2,-16
    4101446c:	00a00e93          	li	x29,10
    41014470:	00300b13          	li	x22,3
    41014474:	00100893          	li	x17,1
    41014478:	016e8d33          	add	x26,x29,x22
    4101447c:	0f1d5933          	czero.eqz	x18,x26,x17
    41014480:	00d00993          	li	x19,13
    41014484:	01390e63          	beq	x18,x19,410144a0 <SID_EXCEP_04_EQZ_FAILING_ADD_passed>
    41014488:	002e8c37          	lui	x24,0x2e8
    4101448c:	22bc0c1b          	addiw	x24,x24,555 # 2e822b <SID_EXCEP_04_EQZ_FAILING_AND_stack+0xed22b>
    41014490:	00ec1c13          	slli	x24,x24,0xe
    41014494:	008c0c13          	addi	x24,x24,8
    41014498:	000c3583          	ld	x11,0(x24)
    4101449c:	00058067          	jr	x11

00000000410144a0 <SID_EXCEP_04_EQZ_FAILING_ADD_passed>:
    410144a0:	00f00f9b          	addiw	x31,x0,15
    410144a4:	01cf9f93          	slli	x31,x31,0x1c
    410144a8:	001f8f93          	addi	x31,x31,1
    410144ac:	00000073          	ecall

00000000410144b0 <SID_EXCEP_04_NEZ_PASSING_SUB>:
    410144b0:	00ffd137          	lui	x2,0xffd
    410144b4:	b571011b          	addiw	x2,x2,-1193 # ffcb57 <SID_EXCEP_04_NEZ_FAILING_ADD_stack+0x928b57>
    410144b8:	00e11113          	slli	x2,x2,0xe
    410144bc:	000012b7          	lui	x5,0x1
    410144c0:	00510133          	add	x2,x2,x5
    410144c4:	ff017113          	andi	x2,x2,-16
    410144c8:	00a00f13          	li	x30,10
    410144cc:	00300913          	li	x18,3
    410144d0:	00100e93          	li	x29,1
    410144d4:	412f0f33          	sub	x30,x30,x18
    410144d8:	0fdf7ab3          	czero.nez	x21,x30,x29
    410144dc:	00000e13          	li	x28,0
    410144e0:	01ca8e63          	beq	x21,x28,410144fc <SID_EXCEP_04_NEZ_PASSING_SUB_passed>
    410144e4:	002e8c37          	lui	x24,0x2e8
    410144e8:	22bc0c1b          	addiw	x24,x24,555 # 2e822b <SID_EXCEP_04_EQZ_FAILING_AND_stack+0xed22b>
    410144ec:	00ec1c13          	slli	x24,x24,0xe
    410144f0:	008c0c13          	addi	x24,x24,8
    410144f4:	000c3683          	ld	x13,0(x24)
    410144f8:	00068067          	jr	x13

00000000410144fc <SID_EXCEP_04_NEZ_PASSING_SUB_passed>:
    410144fc:	00f00f9b          	addiw	x31,x0,15
    41014500:	01cf9f93          	slli	x31,x31,0x1c
    41014504:	001f8f93          	addi	x31,x31,1
    41014508:	00000073          	ecall

000000004101450c <SID_EXCEP_04_NEZ_FAILING_SUB>:
    4101450c:	00b90137          	lui	x2,0xb90
    41014510:	9751011b          	addiw	x2,x2,-1675 # b8f975 <SID_EXCEP_04_NEZ_FAILING_ADD_stack+0x4bb975>
    41014514:	00d11113          	slli	x2,x2,0xd
    41014518:	c0d10113          	addi	x2,x2,-1011
    4101451c:	00c11113          	slli	x2,x2,0xc
    41014520:	000012b7          	lui	x5,0x1
    41014524:	00510133          	add	x2,x2,x5
    41014528:	ff017113          	andi	x2,x2,-16
    4101452c:	00a00a93          	li	x21,10
    41014530:	00300713          	li	x14,3
    41014534:	00000b93          	li	x23,0
    41014538:	40ea8cb3          	sub	x25,x21,x14
    4101453c:	0f7cfd33          	czero.nez	x26,x25,x23
    41014540:	00700913          	li	x18,7
    41014544:	012d0e63          	beq	x26,x18,41014560 <SID_EXCEP_04_NEZ_FAILING_SUB_passed>
    41014548:	002e8737          	lui	x14,0x2e8
    4101454c:	22b7071b          	addiw	x14,x14,555 # 2e822b <SID_EXCEP_04_EQZ_FAILING_AND_stack+0xed22b>
    41014550:	00e71713          	slli	x14,x14,0xe
    41014554:	00870713          	addi	x14,x14,8
    41014558:	00073c03          	ld	x24,0(x14)
    4101455c:	000c0067          	jr	x24

0000000041014560 <SID_EXCEP_04_NEZ_FAILING_SUB_passed>:
    41014560:	00f00f9b          	addiw	x31,x0,15
    41014564:	01cf9f93          	slli	x31,x31,0x1c
    41014568:	001f8f93          	addi	x31,x31,1
    4101456c:	00000073          	ecall

0000000041014570 <SID_EXCEP_04_EQZ_PASSING_SUB>:
    41014570:	128c4137          	lui	x2,0x128c4
    41014574:	20f1011b          	addiw	x2,x2,527 # 128c420f <pma_region_2_size+0xe8c420f>
    41014578:	00f11113          	slli	x2,x2,0xf
    4101457c:	7b510113          	addi	x2,x2,1973
    41014580:	00c11113          	slli	x2,x2,0xc
    41014584:	000012b7          	lui	x5,0x1
    41014588:	00510133          	add	x2,x2,x5
    4101458c:	ff017113          	andi	x2,x2,-16
    41014590:	00a00a13          	li	x20,10
    41014594:	00300893          	li	x17,3
    41014598:	00000d13          	li	x26,0
    4101459c:	411a0a33          	sub	x20,x20,x17
    410145a0:	0faa5cb3          	czero.eqz	x25,x20,x26
    410145a4:	00000d13          	li	x26,0
    410145a8:	01ac8e63          	beq	x25,x26,410145c4 <SID_EXCEP_04_EQZ_PASSING_SUB_passed>
    410145ac:	002e8b37          	lui	x22,0x2e8
    410145b0:	22bb0b1b          	addiw	x22,x22,555 # 2e822b <SID_EXCEP_04_EQZ_FAILING_AND_stack+0xed22b>
    410145b4:	00eb1b13          	slli	x22,x22,0xe
    410145b8:	008b0b13          	addi	x22,x22,8
    410145bc:	000b3c03          	ld	x24,0(x22)
    410145c0:	000c0067          	jr	x24

00000000410145c4 <SID_EXCEP_04_EQZ_PASSING_SUB_passed>:
    410145c4:	00f00f9b          	addiw	x31,x0,15
    410145c8:	01cf9f93          	slli	x31,x31,0x1c
    410145cc:	001f8f93          	addi	x31,x31,1
    410145d0:	00000073          	ecall

00000000410145d4 <SID_EXCEP_04_EQZ_FAILING_SUB>:
    410145d4:	7575d137          	lui	x2,0x7575d
    410145d8:	000012b7          	lui	x5,0x1
    410145dc:	00510133          	add	x2,x2,x5
    410145e0:	ff017113          	andi	x2,x2,-16
    410145e4:	00a00d93          	li	x27,10
    410145e8:	00300693          	li	x13,3
    410145ec:	00100893          	li	x17,1
    410145f0:	40dd8fb3          	sub	x31,x27,x13
    410145f4:	0f1fd5b3          	czero.eqz	x11,x31,x17
    410145f8:	00700e93          	li	x29,7
    410145fc:	01d58e63          	beq	x11,x29,41014618 <SID_EXCEP_04_EQZ_FAILING_SUB_passed>
    41014600:	002e8837          	lui	x16,0x2e8
    41014604:	22b8081b          	addiw	x16,x16,555 # 2e822b <SID_EXCEP_04_EQZ_FAILING_AND_stack+0xed22b>
    41014608:	00e81813          	slli	x16,x16,0xe
    4101460c:	00880813          	addi	x16,x16,8
    41014610:	00083e83          	ld	x29,0(x16)
    41014614:	000e8067          	jr	x29

0000000041014618 <SID_EXCEP_04_EQZ_FAILING_SUB_passed>:
    41014618:	00f00f9b          	addiw	x31,x0,15
    4101461c:	01cf9f93          	slli	x31,x31,0x1c
    41014620:	001f8f93          	addi	x31,x31,1
    41014624:	00000073          	ecall

0000000041014628 <SID_EXCEP_04_NEZ_PASSING_ADD>:
    41014628:	00036137          	lui	x2,0x36
    4101462c:	e951011b          	addiw	x2,x2,-363 # 35e95 <SID_EXCEP_04_EQZ_PASSING_ADD_stack+0x5e95>
    41014630:	00f11113          	slli	x2,x2,0xf
    41014634:	ac910113          	addi	x2,x2,-1335
    41014638:	00c11113          	slli	x2,x2,0xc
    4101463c:	000012b7          	lui	x5,0x1
    41014640:	00510133          	add	x2,x2,x5
    41014644:	ff017113          	andi	x2,x2,-16
    41014648:	00a00a93          	li	x21,10
    4101464c:	00300793          	li	x15,3
    41014650:	00100813          	li	x16,1
    41014654:	00fa8fb3          	add	x31,x21,x15
    41014658:	0f0ffcb3          	czero.nez	x25,x31,x16
    4101465c:	00000d93          	li	x27,0
    41014660:	01bc8e63          	beq	x25,x27,4101467c <SID_EXCEP_04_NEZ_PASSING_ADD_passed>
    41014664:	002e8d37          	lui	x26,0x2e8
    41014668:	22bd0d1b          	addiw	x26,x26,555 # 2e822b <SID_EXCEP_04_EQZ_FAILING_AND_stack+0xed22b>
    4101466c:	00ed1d13          	slli	x26,x26,0xe
    41014670:	008d0d13          	addi	x26,x26,8
    41014674:	000d3e03          	ld	x28,0(x26)
    41014678:	000e0067          	jr	x28

000000004101467c <SID_EXCEP_04_NEZ_PASSING_ADD_passed>:
    4101467c:	00f00f9b          	addiw	x31,x0,15
    41014680:	01cf9f93          	slli	x31,x31,0x1c
    41014684:	001f8f93          	addi	x31,x31,1
    41014688:	00000073          	ecall

000000004101468c <SID_EXCEP_04_NEZ_FAILING_ADD>:
    4101468c:	006d4137          	lui	x2,0x6d4
    41014690:	000012b7          	lui	x5,0x1
    41014694:	00510133          	add	x2,x2,x5
    41014698:	ff017113          	andi	x2,x2,-16
    4101469c:	00a00d13          	li	x26,10
    410146a0:	00300c93          	li	x25,3
    410146a4:	00000c13          	li	x24,0
    410146a8:	019d09b3          	add	x19,x26,x25
    410146ac:	0f89f7b3          	czero.nez	x15,x19,x24
    410146b0:	00d00c13          	li	x24,13
    410146b4:	01878e63          	beq	x15,x24,410146d0 <SID_EXCEP_04_NEZ_FAILING_ADD_passed>
    410146b8:	002e8637          	lui	x12,0x2e8
    410146bc:	22b6061b          	addiw	x12,x12,555 # 2e822b <SID_EXCEP_04_EQZ_FAILING_AND_stack+0xed22b>
    410146c0:	00e61613          	slli	x12,x12,0xe
    410146c4:	00860613          	addi	x12,x12,8
    410146c8:	00063d83          	ld	x27,0(x12)
    410146cc:	000d8067          	jr	x27

00000000410146d0 <SID_EXCEP_04_NEZ_FAILING_ADD_passed>:
    410146d0:	00f00f9b          	addiw	x31,x0,15
    410146d4:	01cf9f93          	slli	x31,x31,0x1c
    410146d8:	001f8f93          	addi	x31,x31,1
    410146dc:	00000073          	ecall

00000000410146e0 <SID_EXCEP_04_EQZ_PASSING_AND>:
    410146e0:	019c3137          	lui	x2,0x19c3
    410146e4:	11b1011b          	addiw	x2,x2,283 # 19c311b <SID_EXCEP_04_NEZ_FAILING_ADD_stack+0x12ef11b>
    410146e8:	00c11113          	slli	x2,x2,0xc
    410146ec:	09710113          	addi	x2,x2,151
    410146f0:	00d11113          	slli	x2,x2,0xd
    410146f4:	000012b7          	lui	x5,0x1
    410146f8:	00510133          	add	x2,x2,x5
    410146fc:	ff017113          	andi	x2,x2,-16
    41014700:	0f000b13          	li	x22,240
    41014704:	0aa00893          	li	x17,170
    41014708:	00000e93          	li	x29,0
    4101470c:	011b7db3          	and	x27,x22,x17
    41014710:	0fddd433          	czero.eqz	x8,x27,x29
    41014714:	00000913          	li	x18,0
    41014718:	01240e63          	beq	x8,x18,41014734 <SID_EXCEP_04_EQZ_PASSING_AND_passed>
    4101471c:	002e8db7          	lui	x27,0x2e8
    41014720:	22bd8d9b          	addiw	x27,x27,555 # 2e822b <SID_EXCEP_04_EQZ_FAILING_AND_stack+0xed22b>
    41014724:	00ed9d93          	slli	x27,x27,0xe
    41014728:	008d8d93          	addi	x27,x27,8
    4101472c:	000db303          	ld	x6,0(x27)
    41014730:	00030067          	jr	x6

0000000041014734 <SID_EXCEP_04_EQZ_PASSING_AND_passed>:
    41014734:	00f00f9b          	addiw	x31,x0,15
    41014738:	01cf9f93          	slli	x31,x31,0x1c
    4101473c:	001f8f93          	addi	x31,x31,1
    41014740:	00000073          	ecall

0000000041014744 <SID_EXCEP_04_EQZ_FAILING_AND>:
    41014744:	001fb137          	lui	x2,0x1fb
    41014748:	000012b7          	lui	x5,0x1
    4101474c:	00510133          	add	x2,x2,x5
    41014750:	ff017113          	andi	x2,x2,-16
    41014754:	0f000613          	li	x12,240
    41014758:	0aa00f13          	li	x30,170
    4101475c:	00100493          	li	x9,1
    41014760:	01e673b3          	and	x7,x12,x30
    41014764:	0e93ddb3          	czero.eqz	x27,x7,x9
    41014768:	0a000f93          	li	x31,160
    4101476c:	01fd8e63          	beq	x27,x31,41014788 <SID_EXCEP_04_EQZ_FAILING_AND_passed>
    41014770:	002e8437          	lui	x8,0x2e8
    41014774:	22b4041b          	addiw	x8,x8,555 # 2e822b <SID_EXCEP_04_EQZ_FAILING_AND_stack+0xed22b>
    41014778:	00e41413          	slli	x8,x8,0xe
    4101477c:	00840413          	addi	x8,x8,8
    41014780:	00043903          	ld	x18,0(x8)
    41014784:	00090067          	jr	x18

0000000041014788 <SID_EXCEP_04_EQZ_FAILING_AND_passed>:
    41014788:	00f00f9b          	addiw	x31,x0,15
    4101478c:	01cf9f93          	slli	x31,x31,0x1c
    41014790:	001f8f93          	addi	x31,x31,1
    41014794:	00000073          	ecall

0000000041014798 <SID_EXCEP_04_EQZ_PASSING_XOR>:
    41014798:	1d5fb137          	lui	x2,0x1d5fb
    4101479c:	a231011b          	addiw	x2,x2,-1501 # 1d5faa23 <pma_region_2_size+0x195faa23>
    410147a0:	00e11113          	slli	x2,x2,0xe
    410147a4:	000012b7          	lui	x5,0x1
    410147a8:	00510133          	add	x2,x2,x5
    410147ac:	ff017113          	andi	x2,x2,-16
    410147b0:	0f000c13          	li	x24,240
    410147b4:	0aa00693          	li	x13,170
    410147b8:	00000e93          	li	x29,0
    410147bc:	00dc44b3          	xor	x9,x24,x13
    410147c0:	0fd4deb3          	czero.eqz	x29,x9,x29
    410147c4:	00000c93          	li	x25,0
    410147c8:	019e8e63          	beq	x29,x25,410147e4 <SID_EXCEP_04_EQZ_PASSING_XOR_passed>
    410147cc:	002e85b7          	lui	x11,0x2e8
    410147d0:	22b5859b          	addiw	x11,x11,555 # 2e822b <SID_EXCEP_04_EQZ_FAILING_AND_stack+0xed22b>
    410147d4:	00e59593          	slli	x11,x11,0xe
    410147d8:	00858593          	addi	x11,x11,8
    410147dc:	0005b883          	ld	x17,0(x11)
    410147e0:	00088067          	jr	x17

00000000410147e4 <SID_EXCEP_04_EQZ_PASSING_XOR_passed>:
    410147e4:	00f00f9b          	addiw	x31,x0,15
    410147e8:	01cf9f93          	slli	x31,x31,0x1c
    410147ec:	001f8f93          	addi	x31,x31,1
    410147f0:	00000073          	ecall

00000000410147f4 <SID_EXCEP_04_EQZ_FAILING_XOR>:
    410147f4:	001c4137          	lui	x2,0x1c4
    410147f8:	5d91011b          	addiw	x2,x2,1497 # 1c45d9 <SID_EXCEP_04_NEZ_PASSING_AND_stack+0x1695d9>
    410147fc:	00d11113          	slli	x2,x2,0xd
    41014800:	f3510113          	addi	x2,x2,-203
    41014804:	00c11113          	slli	x2,x2,0xc
    41014808:	000012b7          	lui	x5,0x1
    4101480c:	00510133          	add	x2,x2,x5
    41014810:	ff017113          	andi	x2,x2,-16
    41014814:	0f000693          	li	x13,240
    41014818:	0aa00613          	li	x12,170
    4101481c:	00100393          	li	x7,1
    41014820:	00c6cb33          	xor	x22,x13,x12
    41014824:	0e7b56b3          	czero.eqz	x13,x22,x7
    41014828:	05a00b13          	li	x22,90
    4101482c:	01668e63          	beq	x13,x22,41014848 <SID_EXCEP_04_EQZ_FAILING_XOR_passed>
    41014830:	002e8437          	lui	x8,0x2e8
    41014834:	22b4041b          	addiw	x8,x8,555 # 2e822b <SID_EXCEP_04_EQZ_FAILING_AND_stack+0xed22b>
    41014838:	00e41413          	slli	x8,x8,0xe
    4101483c:	00840413          	addi	x8,x8,8
    41014840:	00043483          	ld	x9,0(x8)
    41014844:	00048067          	jr	x9

0000000041014848 <SID_EXCEP_04_EQZ_FAILING_XOR_passed>:
    41014848:	00f00f9b          	addiw	x31,x0,15
    4101484c:	01cf9f93          	slli	x31,x31,0x1c
    41014850:	001f8f93          	addi	x31,x31,1
    41014854:	00000073          	ecall

0000000041014858 <SID_EXCEP_04_NEZ_PASSING_AND>:
    41014858:	0005b137          	lui	x2,0x5b
    4101485c:	000012b7          	lui	x5,0x1
    41014860:	00510133          	add	x2,x2,x5
    41014864:	ff017113          	andi	x2,x2,-16
    41014868:	0f000893          	li	x17,240
    4101486c:	0aa00913          	li	x18,170
    41014870:	00100593          	li	x11,1
    41014874:	0128f733          	and	x14,x17,x18
    41014878:	0eb77fb3          	czero.nez	x31,x14,x11
    4101487c:	00000313          	li	x6,0
    41014880:	006f8e63          	beq	x31,x6,4101489c <SID_EXCEP_04_NEZ_PASSING_AND_passed>
    41014884:	002e84b7          	lui	x9,0x2e8
    41014888:	22b4849b          	addiw	x9,x9,555 # 2e822b <SID_EXCEP_04_EQZ_FAILING_AND_stack+0xed22b>
    4101488c:	00e49493          	slli	x9,x9,0xe
    41014890:	00848493          	addi	x9,x9,8
    41014894:	0004b603          	ld	x12,0(x9)
    41014898:	00060067          	jr	x12

000000004101489c <SID_EXCEP_04_NEZ_PASSING_AND_passed>:
    4101489c:	00f00f9b          	addiw	x31,x0,15
    410148a0:	01cf9f93          	slli	x31,x31,0x1c
    410148a4:	001f8f93          	addi	x31,x31,1
    410148a8:	00000073          	ecall

00000000410148ac <SID_EXCEP_04_NEZ_FAILING_AND>:
    410148ac:	00986137          	lui	x2,0x986
    410148b0:	c331011b          	addiw	x2,x2,-973 # 985c33 <SID_EXCEP_04_NEZ_FAILING_ADD_stack+0x2b1c33>
    410148b4:	00c11113          	slli	x2,x2,0xc
    410148b8:	5dd10113          	addi	x2,x2,1501
    410148bc:	00d11113          	slli	x2,x2,0xd
    410148c0:	000012b7          	lui	x5,0x1
    410148c4:	00510133          	add	x2,x2,x5
    410148c8:	ff017113          	andi	x2,x2,-16
    410148cc:	0f000413          	li	x8,240
    410148d0:	0aa00313          	li	x6,170
    410148d4:	00000493          	li	x9,0
    410148d8:	00647433          	and	x8,x8,x6
    410148dc:	0e9473b3          	czero.nez	x7,x8,x9
    410148e0:	0a000a93          	li	x21,160
    410148e4:	01538e63          	beq	x7,x21,41014900 <SID_EXCEP_04_NEZ_FAILING_AND_passed>
    410148e8:	002e8937          	lui	x18,0x2e8
    410148ec:	22b9091b          	addiw	x18,x18,555 # 2e822b <SID_EXCEP_04_EQZ_FAILING_AND_stack+0xed22b>
    410148f0:	00e91913          	slli	x18,x18,0xe
    410148f4:	00890913          	addi	x18,x18,8
    410148f8:	00093703          	ld	x14,0(x18)
    410148fc:	00070067          	jr	x14

0000000041014900 <SID_EXCEP_04_NEZ_FAILING_AND_passed>:
    41014900:	00f00f9b          	addiw	x31,x0,15
    41014904:	01cf9f93          	slli	x31,x31,0x1c
    41014908:	001f8f93          	addi	x31,x31,1
    4101490c:	00000073          	ecall

0000000041014910 <SID_EXCEP_04_NEZ_PASSING_XOR>:
    41014910:	017e8137          	lui	x2,0x17e8
    41014914:	6f31011b          	addiw	x2,x2,1779 # 17e86f3 <SID_EXCEP_04_NEZ_FAILING_ADD_stack+0x11146f3>
    41014918:	00c11113          	slli	x2,x2,0xc
    4101491c:	000012b7          	lui	x5,0x1
    41014920:	00510133          	add	x2,x2,x5
    41014924:	ff017113          	andi	x2,x2,-16
    41014928:	0f000593          	li	x11,240
    4101492c:	0aa00f13          	li	x30,170
    41014930:	00100613          	li	x12,1
    41014934:	01e5cc33          	xor	x24,x11,x30
    41014938:	0ecc75b3          	czero.nez	x11,x24,x12
    4101493c:	00000313          	li	x6,0
    41014940:	00658e63          	beq	x11,x6,4101495c <SID_EXCEP_04_NEZ_PASSING_XOR_passed>
    41014944:	002e8ab7          	lui	x21,0x2e8
    41014948:	22ba8a9b          	addiw	x21,x21,555 # 2e822b <SID_EXCEP_04_EQZ_FAILING_AND_stack+0xed22b>
    4101494c:	00ea9a93          	slli	x21,x21,0xe
    41014950:	008a8a93          	addi	x21,x21,8
    41014954:	000abe83          	ld	x29,0(x21)
    41014958:	000e8067          	jr	x29

000000004101495c <SID_EXCEP_04_NEZ_PASSING_XOR_passed>:
    4101495c:	00f00f9b          	addiw	x31,x0,15
    41014960:	01cf9f93          	slli	x31,x31,0x1c
    41014964:	001f8f93          	addi	x31,x31,1
    41014968:	00000073          	ecall

000000004101496c <SID_EXCEP_04_NEZ_FAILING_XOR>:
    4101496c:	00001137          	lui	x2,0x1
    41014970:	ce31011b          	addiw	x2,x2,-797 # ce3 <XLEN+0xca3>
    41014974:	01511113          	slli	x2,x2,0x15
    41014978:	000012b7          	lui	x5,0x1
    4101497c:	00510133          	add	x2,x2,x5
    41014980:	ff017113          	andi	x2,x2,-16
    41014984:	0f000393          	li	x7,240
    41014988:	0aa00713          	li	x14,170
    4101498c:	00000593          	li	x11,0
    41014990:	00e3c433          	xor	x8,x7,x14
    41014994:	0eb47333          	czero.nez	x6,x8,x11
    41014998:	05a00b13          	li	x22,90
    4101499c:	01630e63          	beq	x6,x22,410149b8 <SID_EXCEP_04_NEZ_FAILING_XOR_passed>
    410149a0:	002e8fb7          	lui	x31,0x2e8
    410149a4:	22bf8f9b          	addiw	x31,x31,555 # 2e822b <SID_EXCEP_04_EQZ_FAILING_AND_stack+0xed22b>
    410149a8:	00ef9f93          	slli	x31,x31,0xe
    410149ac:	008f8f93          	addi	x31,x31,8
    410149b0:	000fb703          	ld	x14,0(x31)
    410149b4:	00070067          	jr	x14

00000000410149b8 <SID_EXCEP_04_NEZ_FAILING_XOR_passed>:
    410149b8:	00f00f9b          	addiw	x31,x0,15
    410149bc:	01cf9f93          	slli	x31,x31,0x1c
    410149c0:	001f8f93          	addi	x31,x31,1
    410149c4:	00000073          	ecall

00000000410149c8 <SID_EXCEP_04_2_1_MUX_SELECT_0>:
    410149c8:	041a1137          	lui	x2,0x41a1
    410149cc:	5bd1011b          	addiw	x2,x2,1469 # 41a15bd <pma_region_2_size+0x1a15bd>
    410149d0:	00c11113          	slli	x2,x2,0xc
    410149d4:	000012b7          	lui	x5,0x1
    410149d8:	00510133          	add	x2,x2,x5
    410149dc:	ff017113          	andi	x2,x2,-16
    410149e0:	0000eeb7          	lui	x29,0xe
    410149e4:	eade8e9b          	addiw	x29,x29,-339 # dead <tp_csr_storage+0x8ead>
    410149e8:	0000cf37          	lui	x30,0xc
    410149ec:	eeff0f1b          	addiw	x30,x30,-273 # beef <tp_csr_storage+0x6eef>
    410149f0:	00000493          	li	x9,0
    410149f4:	0e9ef833          	czero.nez	x16,x29,x9
    410149f8:	0e9f5933          	czero.eqz	x18,x30,x9
    410149fc:	01286c33          	or	x24,x16,x18
    41014a00:	0000e337          	lui	x6,0xe
    41014a04:	ead3031b          	addiw	x6,x6,-339 # dead <tp_csr_storage+0x8ead>
    41014a08:	006c0e63          	beq	x24,x6,41014a24 <SID_EXCEP_04_2_1_MUX_SELECT_0_passed>
    41014a0c:	002e89b7          	lui	x19,0x2e8
    41014a10:	22b9899b          	addiw	x19,x19,555 # 2e822b <SID_EXCEP_04_EQZ_FAILING_AND_stack+0xed22b>
    41014a14:	00e99993          	slli	x19,x19,0xe
    41014a18:	00898993          	addi	x19,x19,8
    41014a1c:	0009bd03          	ld	x26,0(x19)
    41014a20:	000d0067          	jr	x26

0000000041014a24 <SID_EXCEP_04_2_1_MUX_SELECT_0_passed>:
    41014a24:	00f00f9b          	addiw	x31,x0,15
    41014a28:	01cf9f93          	slli	x31,x31,0x1c
    41014a2c:	001f8f93          	addi	x31,x31,1
    41014a30:	00000073          	ecall

0000000041014a34 <SID_EXCEP_04_2_1_MUX_SELECT_1>:
    41014a34:	00046137          	lui	x2,0x46
    41014a38:	000012b7          	lui	x5,0x1
    41014a3c:	00510133          	add	x2,x2,x5
    41014a40:	ff017113          	andi	x2,x2,-16
    41014a44:	0000ebb7          	lui	x23,0xe
    41014a48:	eadb8b9b          	addiw	x23,x23,-339 # dead <tp_csr_storage+0x8ead>
    41014a4c:	0000cfb7          	lui	x31,0xc
    41014a50:	eeff8f9b          	addiw	x31,x31,-273 # beef <tp_csr_storage+0x6eef>
    41014a54:	00100d13          	li	x26,1
    41014a58:	0fabfbb3          	czero.nez	x23,x23,x26
    41014a5c:	0fafd3b3          	czero.eqz	x7,x31,x26
    41014a60:	007be7b3          	or	x15,x23,x7
    41014a64:	0000c3b7          	lui	x7,0xc
    41014a68:	eef3839b          	addiw	x7,x7,-273 # beef <tp_csr_storage+0x6eef>
    41014a6c:	00778e63          	beq	x15,x7,41014a88 <SID_EXCEP_04_2_1_MUX_SELECT_1_passed>
    41014a70:	002e8a37          	lui	x20,0x2e8
    41014a74:	22ba0a1b          	addiw	x20,x20,555 # 2e822b <SID_EXCEP_04_EQZ_FAILING_AND_stack+0xed22b>
    41014a78:	00ea1a13          	slli	x20,x20,0xe
    41014a7c:	008a0a13          	addi	x20,x20,8
    41014a80:	000a3f03          	ld	x30,0(x20)
    41014a84:	000f0067          	jr	x30

0000000041014a88 <SID_EXCEP_04_2_1_MUX_SELECT_1_passed>:
    41014a88:	00f00f9b          	addiw	x31,x0,15
    41014a8c:	01cf9f93          	slli	x31,x31,0x1c
    41014a90:	001f8f93          	addi	x31,x31,1
    41014a94:	00000073          	ecall

0000000041014a98 <test_cleanup>:
    41014a98:	00f00f9b          	addiw	x31,x0,15
    41014a9c:	01cf9f93          	slli	x31,x31,0x1c
    41014aa0:	001f8f93          	addi	x31,x31,1
    41014aa4:	00000073          	ecall

0000000041014aa8 <local_test_failed>:
    41014aa8:	00f00f9b          	addiw	x31,x0,15
    41014aac:	01cf9f93          	slli	x31,x31,0x1c
    41014ab0:	002f8f93          	addi	x31,x31,2
    41014ab4:	00000073          	ecall

Disassembly of section .csr_machine_0:

0000000041214000 <csr_access_mstatus_machine_key_2_set-0x30>:
    41214000:	44288fb7          	lui	x31,0x44288
    41214004:	0a0f8f9b          	addiw	x31,x31,160 # 442880a0 <machine_csr_jump_table_flags_pa>
    41214008:	000fbf83          	ld	x31,0(x31)
    4121400c:	00200293          	li	x5,2
    41214010:	025f8063          	beq	x31,x5,41214030 <csr_access_mstatus_machine_key_2_set>
    41214014:	00100293          	li	x5,1
    41214018:	025f8063          	beq	x31,x5,41214038 <csr_access_mstatus_machine_key_1_clear>
    4121401c:	00400293          	li	x5,4
    41214020:	025f8063          	beq	x31,x5,41214040 <csr_access_mtvec_machine_key_4_set>
    41214024:	00300293          	li	x5,3
    41214028:	025f8063          	beq	x31,x5,41214048 <csr_access_mtvec_machine_key_3_clear>
    4121402c:	0240006f          	j	41214050 <end_machine_label>

0000000041214030 <csr_access_mstatus_machine_key_2_set>:
    41214030:	3003a073          	csrs	mstatus,x7
    41214034:	01c0006f          	j	41214050 <end_machine_label>

0000000041214038 <csr_access_mstatus_machine_key_1_clear>:
    41214038:	3003b073          	csrc	mstatus,x7
    4121403c:	0140006f          	j	41214050 <end_machine_label>

0000000041214040 <csr_access_mtvec_machine_key_4_set>:
    41214040:	3053a073          	csrs	mtvec,x7
    41214044:	00c0006f          	j	41214050 <end_machine_label>

0000000041214048 <csr_access_mtvec_machine_key_3_clear>:
    41214048:	3053b073          	csrc	mtvec,x7
    4121404c:	0040006f          	j	41214050 <end_machine_label>

0000000041214050 <end_machine_label>:
    41214050:	000f0fb7          	lui	x31,0xf0
    41214054:	001f8f9b          	addiw	x31,x31,1 # f0001 <SID_EXCEP_04_NEZ_PASSING_AND_stack+0x95001>
    41214058:	00cf9f93          	slli	x31,x31,0xc
    4121405c:	004f8f93          	addi	x31,x31,4
    41214060:	00000073          	ecall

Disassembly of section .csr_super_0:

0000000041215000 <end_super_label-0x18>:
    41215000:	002e8fb7          	lui	x31,0x2e8
    41215004:	22bf8f9b          	addiw	x31,x31,555 # 2e822b <SID_EXCEP_04_EQZ_FAILING_AND_stack+0xed22b>
    41215008:	00ef9f93          	slli	x31,x31,0xe
    4121500c:	0a8f8f93          	addi	x31,x31,168
    41215010:	000fbf83          	ld	x31,0(x31)
    41215014:	0040006f          	j	41215018 <end_super_label>

0000000041215018 <end_super_label>:
    41215018:	000f0fb7          	lui	x31,0xf0
    4121501c:	001f8f9b          	addiw	x31,x31,1 # f0001 <SID_EXCEP_04_NEZ_PASSING_AND_stack+0x95001>
    41215020:	00cf9f93          	slli	x31,x31,0xc
    41215024:	004f8f93          	addi	x31,x31,4
    41215028:	00000073          	ecall

Disassembly of section .os_data:

0000000ba08ac000 <passed_addr_ptr>:
   ba08ac000:	40f0                	.insn	2, 0x40f0
   ba08ac002:	4101                	.insn	2, 0x4101
   ba08ac004:	0000                	.insn	2, 0x0000
	...

0000000ba08ac008 <failed_addr_ptr>:
   ba08ac008:	4100                	.insn	2, 0x4100
   ba08ac00a:	4101                	.insn	2, 0x4101
   ba08ac00c:	0000                	.insn	2, 0x0000
	...

0000000ba08ac010 <end_test_addr_ptr>:
   ba08ac010:	4110                	.insn	2, 0x4110
   ba08ac012:	4101                	.insn	2, 0x4101
   ba08ac014:	0000                	.insn	2, 0x0000
	...

0000000ba08ac018 <os_passed_addr_ptr>:
   ba08ac018:	0784                	.insn	2, 0x0784
   ba08ac01a:	4100                	.insn	2, 0x4100
   ba08ac01c:	0000                	.insn	2, 0x0000
	...

0000000ba08ac020 <os_failed_addr_ptr>:
   ba08ac020:	0794                	.insn	2, 0x0794
   ba08ac022:	4100                	.insn	2, 0x4100
   ba08ac024:	0000                	.insn	2, 0x0000
	...

0000000ba08ac028 <os_end_test_addr_ptr>:
   ba08ac028:	07a0                	.insn	2, 0x07a0
   ba08ac02a:	4100                	.insn	2, 0x4100
   ba08ac02c:	0000                	.insn	2, 0x0000
	...

0000000ba08ac030 <rvcp_prefix_str_data>:
   ba08ac030:	5652                	.insn	2, 0x5652
   ba08ac032:	203a5043          	fmadd.s	f0,f20,f3,f4,unknown
   ba08ac036:	6554                	.insn	2, 0x6554
   ba08ac038:	46207473          	csrrci	x8,0x462,0
   ba08ac03c:	6c69                	.insn	2, 0x6c69
   ba08ac03e:	2065                	.insn	2, 0x2065
	...

0000000ba08ac041 <rvcp_testname_str_data>:
   ba08ac041:	7074                	.insn	2, 0x7074
   ba08ac043:	7a5f 6369 6e6f      	.insn	6, 0x6e6f63697a5f
   ba08ac049:	5f64                	.insn	2, 0x5f64
   ba08ac04b:	0032                	.insn	2, 0x0032

0000000ba08ac04d <rvcp_passed_str_data>:
   ba08ac04d:	4150                	.insn	2, 0x4150
   ba08ac04f:	44455353          	fround.h	f6,f10,unknown
	...

0000000ba08ac054 <rvcp_failed_str_data>:
   ba08ac054:	4146                	.insn	2, 0x4146
   ba08ac056:	4c49                	.insn	2, 0x4c49
   ba08ac058:	4445                	.insn	2, 0x4445
	...

0000000ba08ac05b <rvcp_space_str_data>:
   ba08ac05b:	0020                	.insn	2, 0x0020

0000000ba08ac05d <rvcp_newline_str_data>:
   ba08ac05d:	000a                	.insn	2, 0x000a
	...

0000000ba08ac060 <excp_ignored_count_mem>:
	...

0000000ba08ac068 <machine_flags_mem>:
	...

0000000ba08ac070 <user_flags_mem>:
	...

0000000ba08ac078 <super_flags_mem>:
	...

0000000ba08ac080 <machine_area_mem>:
	...

0000000ba08ac088 <user_area_mem>:
	...

0000000ba08ac090 <super_area_mem>:
	...

0000000ba08ac098 <zero_data_mem>:
	...

0000000ba08ac0a0 <machine_csr_jump_table_flags_mem>:
	...

0000000ba08ac0a8 <super_csr_jump_table_flags_mem>:
	...

0000000ba08ac0b0 <pte_access_flags_mem>:
	...

0000000ba08ac0c8 <num_harts_ended_mem>:
	...

0000000ba08ac0d0 <num_hard_fails_mem>:
	...

Disassembly of section .hart_context:

000016b031f3d000 <hart_context_0>:
    16b031f3d000:	5000                	.insn	2, 0x5000
    16b031f3d002:	000023ef          	jal	x7,16b031f3f002 <current_test_index+0x1e7a>
	...
    16b031f3d016:	0000                	.insn	2, 0x0000
    16b031f3d018:	0001                	.insn	2, 0x0001
    16b031f3d01a:	0000                	.insn	2, 0x0000
    16b031f3d01c:	0000                	.insn	2, 0x0000
    16b031f3d01e:	0000                	.insn	2, 0x0000
    16b031f3d020:	ffff                	.insn	2, 0xffff
    16b031f3d022:	ffff                	.insn	2, 0xffff
    16b031f3d024:	ffff                	.insn	2, 0xffff
    16b031f3d026:	ffff                	.insn	2, 0xffff
    16b031f3d028:	ffff                	.insn	2, 0xffff
    16b031f3d02a:	ffff                	.insn	2, 0xffff
    16b031f3d02c:	ffff                	.insn	2, 0xffff
    16b031f3d02e:	ffff                	.insn	2, 0xffff
    16b031f3d030:	ffff                	.insn	2, 0xffff
    16b031f3d032:	ffff                	.insn	2, 0xffff
    16b031f3d034:	ffff                	.insn	2, 0xffff
    16b031f3d036:	ffff                	.insn	2, 0xffff
	...
    16b031f3d050:	00ff 0000 0000 0000 	.insn	10, 0x00ff00000000000000ff
    16b031f3d058:	00ff 
	...
    16b031f3d176:	0000                	.insn	2, 0x0000
    16b031f3d178:	ffff                	.insn	2, 0xffff
    16b031f3d17a:	ffff                	.insn	2, 0xffff
    16b031f3d17c:	ffff                	.insn	2, 0xffff
    16b031f3d17e:	ffff                	.insn	2, 0xffff
	...
    16b031f3d188:	ffff                	.insn	2, 0xffff
    16b031f3d18a:	ffff                	.insn	2, 0xffff
	...

Disassembly of section .hart_stack_0:

0000000023ef4000 <hart_stack_0>:
	...

Disassembly of section .io_htif:

0000000041040000 <tohost>:
	...

0000000041040040 <fromhost>:
	...

Disassembly of section .tp_csr_storage:

0000000000005000 <.tp_csr_storage>:
    5000:	c0de                	.insn	2, 0xc0de
    5002:	c001                	.insn	2, 0xc001
    5004:	0000                	.insn	2, 0x0000
	...

Disassembly of section .SID_EXCEP_01_EQZ_RS1_NZ_stack:

0000000000673000 <.SID_EXCEP_01_EQZ_RS1_NZ_stack>:
  673000:	c0de                	.insn	2, 0xc0de
  673002:	c001                	.insn	2, 0xc001
  673004:	0000                	.insn	2, 0x0000
	...

Disassembly of section .SID_EXCEP_01_EQZ_RS1_Z_stack:

00a76f2450a7c000 <.SID_EXCEP_01_EQZ_RS1_Z_stack>:
  a76f2450a7c000:	c0de                	.insn	2, 0xc0de
  a76f2450a7c002:	c001                	.insn	2, 0xc001
  a76f2450a7c004:	0000                	.insn	2, 0x0000
	...

Disassembly of section .SID_EXCEP_01_NEZ_RS1_NZ_stack:

0000000000002000 <.SID_EXCEP_01_NEZ_RS1_NZ_stack>:
    2000:	c0de                	.insn	2, 0xc0de
    2002:	c001                	.insn	2, 0xc001
    2004:	0000                	.insn	2, 0x0000
	...

Disassembly of section .SID_EXCEP_01_NEZ_RS1_Z_stack:

000000000001b000 <.SID_EXCEP_01_NEZ_RS1_Z_stack>:
   1b000:	c0de                	.insn	2, 0xc0de
   1b002:	c001                	.insn	2, 0xc001
   1b004:	0000                	.insn	2, 0x0000
	...

Disassembly of section .SID_EXCEP_02_EQZ_RS1_NZ_stack:

0000003f65963000 <.SID_EXCEP_02_EQZ_RS1_NZ_stack>:
  3f65963000:	c0de                	.insn	2, 0xc0de
  3f65963002:	c001                	.insn	2, 0xc001
  3f65963004:	0000                	.insn	2, 0x0000
	...

Disassembly of section .SID_EXCEP_02_EQZ_RS1_Z_stack:

000000000044d000 <.SID_EXCEP_02_EQZ_RS1_Z_stack>:
  44d000:	c0de                	.insn	2, 0xc0de
  44d002:	c001                	.insn	2, 0xc001
  44d004:	0000                	.insn	2, 0x0000
	...

Disassembly of section .SID_EXCEP_02_NEZ_RS1_Z_stack:

008c372eff7b8000 <.SID_EXCEP_02_NEZ_RS1_Z_stack>:
  8c372eff7b8000:	c0de                	.insn	2, 0xc0de
  8c372eff7b8002:	c001                	.insn	2, 0xc001
  8c372eff7b8004:	0000                	.insn	2, 0x0000
	...

Disassembly of section .SID_EXCEP_02_NEZ_RS1_NZ_stack:

000004313404c000 <.SID_EXCEP_02_NEZ_RS1_NZ_stack>:
 4313404c000:	c0de                	.insn	2, 0xc0de
 4313404c002:	c001                	.insn	2, 0xc001
 4313404c004:	0000                	.insn	2, 0x0000
	...

Disassembly of section .SID_EXCEP_04_EQZ_PASSING_ADD_stack:

0000000000030000 <.SID_EXCEP_04_EQZ_PASSING_ADD_stack>:
   30000:	c0de                	.insn	2, 0xc0de
   30002:	c001                	.insn	2, 0xc001
   30004:	0000                	.insn	2, 0x0000
	...

Disassembly of section .SID_EXCEP_04_EQZ_FAILING_ADD_stack:

0000000000058000 <.SID_EXCEP_04_EQZ_FAILING_ADD_stack>:
   58000:	c0de                	.insn	2, 0xc0de
   58002:	c001                	.insn	2, 0xc001
   58004:	0000                	.insn	2, 0x0000
	...

Disassembly of section .SID_EXCEP_04_NEZ_PASSING_SUB_stack:

0000003ff2d5c000 <.SID_EXCEP_04_NEZ_PASSING_SUB_stack>:
  3ff2d5c000:	c0de                	.insn	2, 0xc0de
  3ff2d5c002:	c001                	.insn	2, 0xc001
  3ff2d5c004:	0000                	.insn	2, 0x0000
	...

Disassembly of section .SID_EXCEP_04_NEZ_FAILING_SUB_stack:

000171f2e9c0d000 <.SID_EXCEP_04_NEZ_FAILING_SUB_stack>:
   171f2e9c0d000:	c0de                	.insn	2, 0xc0de
   171f2e9c0d002:	c001                	.insn	2, 0xc001
   171f2e9c0d004:	0000                	.insn	2, 0x0000
	...

Disassembly of section .SID_EXCEP_04_EQZ_PASSING_SUB_stack:

00946210787b5000 <.SID_EXCEP_04_EQZ_PASSING_SUB_stack>:
  946210787b5000:	c0de                	.insn	2, 0xc0de
  946210787b5002:	c001                	.insn	2, 0xc001
  946210787b5004:	0000                	.insn	2, 0x0000
	...

Disassembly of section .SID_EXCEP_04_EQZ_FAILING_SUB_stack:

000000007575d000 <.SID_EXCEP_04_EQZ_FAILING_SUB_stack>:
    7575d000:	c0de                	.insn	2, 0xc0de
    7575d002:	c001                	.insn	2, 0xc001
    7575d004:	0000                	.insn	2, 0x0000
	...

Disassembly of section .SID_EXCEP_04_NEZ_PASSING_ADD_stack:

00001af4a7ac9000 <.SID_EXCEP_04_NEZ_PASSING_ADD_stack>:
    1af4a7ac9000:	c0de                	.insn	2, 0xc0de
    1af4a7ac9002:	c001                	.insn	2, 0xc001
    1af4a7ac9004:	0000                	.insn	2, 0x0000
	...

Disassembly of section .SID_EXCEP_04_NEZ_FAILING_ADD_stack:

00000000006d4000 <.SID_EXCEP_04_NEZ_FAILING_ADD_stack>:
  6d4000:	c0de                	.insn	2, 0xc0de
  6d4002:	c001                	.insn	2, 0xc001
  6d4004:	0000                	.insn	2, 0x0000
	...

Disassembly of section .SID_EXCEP_04_EQZ_PASSING_AND_stack:

000338623612e000 <.SID_EXCEP_04_EQZ_PASSING_AND_stack>:
   338623612e000:	c0de                	.insn	2, 0xc0de
   338623612e002:	c001                	.insn	2, 0xc001
   338623612e004:	0000                	.insn	2, 0x0000
	...

Disassembly of section .SID_EXCEP_04_EQZ_FAILING_AND_stack:

00000000001fb000 <.SID_EXCEP_04_EQZ_FAILING_AND_stack>:
  1fb000:	c0de                	.insn	2, 0xc0de
  1fb002:	c001                	.insn	2, 0xc001
  1fb004:	0000                	.insn	2, 0x0000
	...

Disassembly of section .SID_EXCEP_04_EQZ_PASSING_XOR_stack:

00000757ea88c000 <.SID_EXCEP_04_EQZ_PASSING_XOR_stack>:
 757ea88c000:	c0de                	.insn	2, 0xc0de
 757ea88c002:	c001                	.insn	2, 0xc001
 757ea88c004:	0000                	.insn	2, 0x0000
	...

Disassembly of section .SID_EXCEP_04_EQZ_FAILING_XOR_stack:

0000388bb1f35000 <.SID_EXCEP_04_EQZ_FAILING_XOR_stack>:
    388bb1f35000:	c0de                	.insn	2, 0xc0de
    388bb1f35002:	c001                	.insn	2, 0xc001
    388bb1f35004:	0000                	.insn	2, 0x0000
	...

Disassembly of section .SID_EXCEP_04_NEZ_PASSING_AND_stack:

000000000005b000 <.SID_EXCEP_04_NEZ_PASSING_AND_stack>:
   5b000:	c0de                	.insn	2, 0xc0de
   5b002:	c001                	.insn	2, 0xc001
   5b004:	0000                	.insn	2, 0x0000
	...

Disassembly of section .SID_EXCEP_04_NEZ_FAILING_AND_stack:

000130b866bba000 <.SID_EXCEP_04_NEZ_FAILING_AND_stack>:
   130b866bba000:	c0de                	.insn	2, 0xc0de
   130b866bba002:	c001                	.insn	2, 0xc001
   130b866bba004:	0000                	.insn	2, 0x0000
	...

Disassembly of section .SID_EXCEP_04_NEZ_PASSING_XOR_stack:

00000017e86f3000 <.SID_EXCEP_04_NEZ_PASSING_XOR_stack>:
  17e86f3000:	c0de                	.insn	2, 0xc0de
  17e86f3002:	c001                	.insn	2, 0xc001
  17e86f3004:	0000                	.insn	2, 0x0000
	...

Disassembly of section .SID_EXCEP_04_NEZ_FAILING_XOR_stack:

000000019c600000 <.SID_EXCEP_04_NEZ_FAILING_XOR_stack>:
   19c600000:	c0de                	.insn	2, 0xc0de
   19c600002:	c001                	.insn	2, 0xc001
   19c600004:	0000                	.insn	2, 0x0000
	...

Disassembly of section .SID_EXCEP_04_2_1_MUX_SELECT_0_stack:

00000041a15bd000 <.SID_EXCEP_04_2_1_MUX_SELECT_0_stack>:
  41a15bd000:	c0de                	.insn	2, 0xc0de
  41a15bd002:	c001                	.insn	2, 0xc001
  41a15bd004:	0000                	.insn	2, 0x0000
	...

Disassembly of section .SID_EXCEP_04_2_1_MUX_SELECT_1_stack:

0000000000046000 <.SID_EXCEP_04_2_1_MUX_SELECT_1_stack>:
   46000:	c0de                	.insn	2, 0xc0de
   46002:	c001                	.insn	2, 0xc001
   46004:	0000                	.insn	2, 0x0000
	...

Disassembly of section .__pagetable_map_os_0x0000000044e88000:

0000000044e88000 <__pagetable_map_os_0x0000000044e88000>:
    44e88000:	9001                	.insn	2, 0x9001
    44e88002:	113a                	.insn	2, 0x113a
    44e88004:	0000                	.insn	2, 0x0000
    44e88006:	0000                	.insn	2, 0x0000
    44e88008:	8c01                	.insn	2, 0x8c01
    44e8800a:	1132                	.insn	2, 0x1132
	...
    44e88018:	a801                	.insn	2, 0xa801
    44e8801a:	113a                	.insn	2, 0x113a
	...
    44e88460:	dc01                	.insn	2, 0xdc01
    44e88462:	112c                	.insn	2, 0x112c
	...
    44e884a0:	d401                	.insn	2, 0xd401
    44e884a2:	10e8                	.insn	2, 0x10e8
	...
    44e88538:	a801                	.insn	2, 0xa801
    44e8853a:	0000113b          	sllw	x2,x0,x0
	...

Disassembly of section .__pagetable_map_os_0x0000000044ea4000:

0000000044ea4000 <__pagetable_map_os_0x0000000044ea4000>:
    44ea4000:	3401                	.insn	2, 0x3401
    44ea4002:	113a                	.insn	2, 0x113a
	...
    44ea4040:	9401                	.insn	2, 0x9401
    44ea4042:	110e                	.insn	2, 0x110e
	...
    44ea4070:	e001                	.insn	2, 0xe001
    44ea4072:	10e8                	.insn	2, 0x10e8
	...
    44ea4168:	3001                	.insn	2, 0x3001
    44ea416a:	112d                	.insn	2, 0x112d
	...
    44ea41a8:	3401                	.insn	2, 0x3401
    44ea41aa:	0000113b          	sllw	x2,x0,x0
	...
    44ea4386:	0000                	.insn	2, 0x0000
    44ea4388:	7401                	.insn	2, 0x7401
    44ea438a:	1118                	.insn	2, 0x1118
    44ea438c:	0000                	.insn	2, 0x0000
	...

Disassembly of section .__pagetable_map_os_0x0000000044e8d000:

0000000044e8d000 <__pagetable_map_os_0x0000000044e8d000>:
    44e8d000:	4001                	.insn	2, 0x4001
    44e8d002:	000010eb          	.insn	4, 0x10eb
    44e8d006:	0000                	.insn	2, 0x0000
    44e8d008:	f801                	.insn	2, 0xf801
    44e8d00a:	0000113b          	sllw	x2,x0,x0
	...
    44e8d02e:	0000                	.insn	2, 0x0000
    44e8d030:	7801                	.insn	2, 0x7801
    44e8d032:	0000112b          	.insn	4, 0x112b
	...
    44e8d16e:	0000                	.insn	2, 0x0000
    44e8d170:	5001                	.insn	2, 0x5001
    44e8d172:	10e9                	.insn	2, 0x10e9
	...
    44e8d2f8:	a001                	.insn	2, 0xa001
    44e8d2fa:	0000110b          	.insn	4, 0x110b
	...
    44e8d7e6:	0000                	.insn	2, 0x0000
    44e8d7e8:	3c01                	.insn	2, 0x3c01
    44e8d7ea:	10ed                	.insn	2, 0x10ed
	...
    44e8d7f8:	9c01                	.insn	2, 0x9c01
    44e8d7fa:	113a                	.insn	2, 0x113a
	...
    44e8d830:	8801                	.insn	2, 0x8801
    44e8d832:	110d                	.insn	2, 0x110d
    44e8d834:	0000                	.insn	2, 0x0000
	...

Disassembly of section .__pagetable_map_os_0x0000000044efe000:

0000000044efe000 <__pagetable_map_os_0x0000000044efe000>:
	...
    44efe040:	fc01                	.insn	2, 0xfc01
    44efe042:	0000113b          	sllw	x2,x0,x0
    44efe046:	0000                	.insn	2, 0x0000
    44efe048:	7001                	.insn	2, 0x7001
    44efe04a:	1108                	.insn	2, 0x1108
	...
    44efe138:	c001                	.insn	2, 0xc001
    44efe13a:	10e6                	.insn	2, 0x10e6
	...
    44efed58:	2001                	.insn	2, 0x2001
    44efed5a:	1118                	.insn	2, 0x1118
    44efed5c:	0000                	.insn	2, 0x0000
	...

Disassembly of section .__pagetable_map_os_0x0000000044eff000:

0000000044eff000 <__pagetable_map_os_0x0000000044eff000>:
	...
    44eff080:	104040cf          	fnmadd.s	f1,f0,f4,f2,rmm
    44eff084:	0000                	.insn	2, 0x0000
    44eff086:	0000                	.insn	2, 0x0000
    44eff088:	104044cf          	fnmadd.s	f9,f0,f4,f2,rmm
    44eff08c:	0000                	.insn	2, 0x0000
    44eff08e:	0000                	.insn	2, 0x0000
    44eff090:	104048cf          	fnmadd.s	f17,f0,f4,f2,rmm
    44eff094:	0000                	.insn	2, 0x0000
    44eff096:	0000                	.insn	2, 0x0000
    44eff098:	10404ccf          	fnmadd.s	f25,f0,f4,f2,rmm
    44eff09c:	0000                	.insn	2, 0x0000
    44eff09e:	0000                	.insn	2, 0x0000
    44eff0a0:	111000cf          	fnmadd.s	f1,f0,f17,f2,rne
    44eff0a4:	0000                	.insn	2, 0x0000
    44eff0a6:	0000                	.insn	2, 0x0000
    44eff0a8:	111004cf          	fnmadd.s	f9,f0,f17,f2,rne
    44eff0ac:	0000                	.insn	2, 0x0000
    44eff0ae:	0000                	.insn	2, 0x0000
    44eff0b0:	111008cf          	fnmadd.s	f17,f0,f17,f2,rne
    44eff0b4:	0000                	.insn	2, 0x0000
    44eff0b6:	0000                	.insn	2, 0x0000
    44eff0b8:	11100ccf          	fnmadd.s	f25,f0,f17,f2,rne
    44eff0bc:	0000                	.insn	2, 0x0000
    44eff0be:	0000                	.insn	2, 0x0000
    44eff0c0:	111010cf          	fnmadd.s	f1,f0,f17,f2,rtz
    44eff0c4:	0000                	.insn	2, 0x0000
    44eff0c6:	0000                	.insn	2, 0x0000
    44eff0c8:	111014cf          	fnmadd.s	f9,f0,f17,f2,rtz
    44eff0cc:	0000                	.insn	2, 0x0000
    44eff0ce:	0000                	.insn	2, 0x0000
    44eff0d0:	111018cf          	fnmadd.s	f17,f0,f17,f2,rtz
    44eff0d4:	0000                	.insn	2, 0x0000
    44eff0d6:	0000                	.insn	2, 0x0000
    44eff0d8:	11101ccf          	fnmadd.s	f25,f0,f17,f2,rtz
    44eff0dc:	0000                	.insn	2, 0x0000
    44eff0de:	0000                	.insn	2, 0x0000
    44eff0e0:	111020cf          	fnmadd.s	f1,f0,f17,f2,rdn
    44eff0e4:	0000                	.insn	2, 0x0000
    44eff0e6:	0000                	.insn	2, 0x0000
    44eff0e8:	111024cf          	fnmadd.s	f9,f0,f17,f2,rdn
    44eff0ec:	0000                	.insn	2, 0x0000
    44eff0ee:	0000                	.insn	2, 0x0000
    44eff0f0:	111028cf          	fnmadd.s	f17,f0,f17,f2,rdn
    44eff0f4:	0000                	.insn	2, 0x0000
    44eff0f6:	0000                	.insn	2, 0x0000
    44eff0f8:	11102ccf          	fnmadd.s	f25,f0,f17,f2,rdn
    44eff0fc:	0000                	.insn	2, 0x0000
    44eff0fe:	0000                	.insn	2, 0x0000
    44eff100:	111030cf          	fnmadd.s	f1,f0,f17,f2,rup
    44eff104:	0000                	.insn	2, 0x0000
    44eff106:	0000                	.insn	2, 0x0000
    44eff108:	111034cf          	fnmadd.s	f9,f0,f17,f2,rup
    44eff10c:	0000                	.insn	2, 0x0000
    44eff10e:	0000                	.insn	2, 0x0000
    44eff110:	111038cf          	fnmadd.s	f17,f0,f17,f2,rup
    44eff114:	0000                	.insn	2, 0x0000
    44eff116:	0000                	.insn	2, 0x0000
    44eff118:	11103ccf          	fnmadd.s	f25,f0,f17,f2,rup
    44eff11c:	0000                	.insn	2, 0x0000
    44eff11e:	0000                	.insn	2, 0x0000
    44eff120:	111040cf          	fnmadd.s	f1,f0,f17,f2,rmm
    44eff124:	0000                	.insn	2, 0x0000
    44eff126:	0000                	.insn	2, 0x0000
    44eff128:	111044cf          	fnmadd.s	f9,f0,f17,f2,rmm
    44eff12c:	0000                	.insn	2, 0x0000
    44eff12e:	0000                	.insn	2, 0x0000
    44eff130:	111048cf          	fnmadd.s	f17,f0,f17,f2,rmm
    44eff134:	0000                	.insn	2, 0x0000
    44eff136:	0000                	.insn	2, 0x0000
    44eff138:	11104ccf          	fnmadd.s	f25,f0,f17,f2,rmm
    44eff13c:	0000                	.insn	2, 0x0000
    44eff13e:	0000                	.insn	2, 0x0000
    44eff140:	111050cf          	fnmadd.s	f1,f0,f17,f2,unknown
    44eff144:	0000                	.insn	2, 0x0000
    44eff146:	0000                	.insn	2, 0x0000
    44eff148:	111054cf          	fnmadd.s	f9,f0,f17,f2,unknown
    44eff14c:	0000                	.insn	2, 0x0000
    44eff14e:	0000                	.insn	2, 0x0000
    44eff150:	111058cf          	fnmadd.s	f17,f0,f17,f2,unknown
    44eff154:	0000                	.insn	2, 0x0000
    44eff156:	0000                	.insn	2, 0x0000
    44eff158:	11105ccf          	fnmadd.s	f25,f0,f17,f2,unknown
    44eff15c:	0000                	.insn	2, 0x0000
    44eff15e:	0000                	.insn	2, 0x0000
    44eff160:	111060cf          	fnmadd.s	f1,f0,f17,f2,unknown
    44eff164:	0000                	.insn	2, 0x0000
    44eff166:	0000                	.insn	2, 0x0000
    44eff168:	111064cf          	fnmadd.s	f9,f0,f17,f2,unknown
    44eff16c:	0000                	.insn	2, 0x0000
    44eff16e:	0000                	.insn	2, 0x0000
    44eff170:	111068cf          	fnmadd.s	f17,f0,f17,f2,unknown
    44eff174:	0000                	.insn	2, 0x0000
    44eff176:	0000                	.insn	2, 0x0000
    44eff178:	11106ccf          	fnmadd.s	f25,f0,f17,f2,unknown
    44eff17c:	0000                	.insn	2, 0x0000
    44eff17e:	0000                	.insn	2, 0x0000
    44eff180:	111070cf          	fnmadd.s	f1,f0,f17,f2
    44eff184:	0000                	.insn	2, 0x0000
    44eff186:	0000                	.insn	2, 0x0000
    44eff188:	111074cf          	fnmadd.s	f9,f0,f17,f2
    44eff18c:	0000                	.insn	2, 0x0000
    44eff18e:	0000                	.insn	2, 0x0000
    44eff190:	111078cf          	fnmadd.s	f17,f0,f17,f2
    44eff194:	0000                	.insn	2, 0x0000
    44eff196:	0000                	.insn	2, 0x0000
    44eff198:	11107ccf          	fnmadd.s	f25,f0,f17,f2
    44eff19c:	0000                	.insn	2, 0x0000
    44eff19e:	0000                	.insn	2, 0x0000
    44eff1a0:	111080cf          	fnmadd.s	f1,f1,f17,f2,rne
    44eff1a4:	0000                	.insn	2, 0x0000
    44eff1a6:	0000                	.insn	2, 0x0000
    44eff1a8:	111084cf          	fnmadd.s	f9,f1,f17,f2,rne
    44eff1ac:	0000                	.insn	2, 0x0000
    44eff1ae:	0000                	.insn	2, 0x0000
    44eff1b0:	111088cf          	fnmadd.s	f17,f1,f17,f2,rne
    44eff1b4:	0000                	.insn	2, 0x0000
    44eff1b6:	0000                	.insn	2, 0x0000
    44eff1b8:	11108ccf          	fnmadd.s	f25,f1,f17,f2,rne
    44eff1bc:	0000                	.insn	2, 0x0000
    44eff1be:	0000                	.insn	2, 0x0000
    44eff1c0:	111090cf          	fnmadd.s	f1,f1,f17,f2,rtz
    44eff1c4:	0000                	.insn	2, 0x0000
    44eff1c6:	0000                	.insn	2, 0x0000
    44eff1c8:	111094cf          	fnmadd.s	f9,f1,f17,f2,rtz
    44eff1cc:	0000                	.insn	2, 0x0000
    44eff1ce:	0000                	.insn	2, 0x0000
    44eff1d0:	111098cf          	fnmadd.s	f17,f1,f17,f2,rtz
    44eff1d4:	0000                	.insn	2, 0x0000
    44eff1d6:	0000                	.insn	2, 0x0000
    44eff1d8:	11109ccf          	fnmadd.s	f25,f1,f17,f2,rtz
    44eff1dc:	0000                	.insn	2, 0x0000
    44eff1de:	0000                	.insn	2, 0x0000
    44eff1e0:	1110a0cf          	fnmadd.s	f1,f1,f17,f2,rdn
    44eff1e4:	0000                	.insn	2, 0x0000
    44eff1e6:	0000                	.insn	2, 0x0000
    44eff1e8:	1110a4cf          	fnmadd.s	f9,f1,f17,f2,rdn
    44eff1ec:	0000                	.insn	2, 0x0000
    44eff1ee:	0000                	.insn	2, 0x0000
    44eff1f0:	1110a8cf          	fnmadd.s	f17,f1,f17,f2,rdn
    44eff1f4:	0000                	.insn	2, 0x0000
    44eff1f6:	0000                	.insn	2, 0x0000
    44eff1f8:	1110accf          	fnmadd.s	f25,f1,f17,f2,rdn
    44eff1fc:	0000                	.insn	2, 0x0000
    44eff1fe:	0000                	.insn	2, 0x0000
    44eff200:	104100cf          	fnmadd.s	f1,f2,f4,f2,rne
    44eff204:	0000                	.insn	2, 0x0000
    44eff206:	0000                	.insn	2, 0x0000
    44eff208:	1110b4cf          	fnmadd.s	f9,f1,f17,f2,rup
    44eff20c:	0000                	.insn	2, 0x0000
    44eff20e:	0000                	.insn	2, 0x0000
    44eff210:	1110b8cf          	fnmadd.s	f17,f1,f17,f2,rup
    44eff214:	0000                	.insn	2, 0x0000
    44eff216:	0000                	.insn	2, 0x0000
    44eff218:	1110bccf          	fnmadd.s	f25,f1,f17,f2,rup
    44eff21c:	0000                	.insn	2, 0x0000
    44eff21e:	0000                	.insn	2, 0x0000
    44eff220:	1110c0cf          	fnmadd.s	f1,f1,f17,f2,rmm
    44eff224:	0000                	.insn	2, 0x0000
    44eff226:	0000                	.insn	2, 0x0000
    44eff228:	1110c4cf          	fnmadd.s	f9,f1,f17,f2,rmm
    44eff22c:	0000                	.insn	2, 0x0000
    44eff22e:	0000                	.insn	2, 0x0000
    44eff230:	1110c8cf          	fnmadd.s	f17,f1,f17,f2,rmm
    44eff234:	0000                	.insn	2, 0x0000
    44eff236:	0000                	.insn	2, 0x0000
    44eff238:	1110cccf          	fnmadd.s	f25,f1,f17,f2,rmm
    44eff23c:	0000                	.insn	2, 0x0000
    44eff23e:	0000                	.insn	2, 0x0000
    44eff240:	1110d0cf          	fnmadd.s	f1,f1,f17,f2,unknown
    44eff244:	0000                	.insn	2, 0x0000
    44eff246:	0000                	.insn	2, 0x0000
    44eff248:	1110d4cf          	fnmadd.s	f9,f1,f17,f2,unknown
    44eff24c:	0000                	.insn	2, 0x0000
    44eff24e:	0000                	.insn	2, 0x0000
    44eff250:	1110d8cf          	fnmadd.s	f17,f1,f17,f2,unknown
    44eff254:	0000                	.insn	2, 0x0000
    44eff256:	0000                	.insn	2, 0x0000
    44eff258:	1110dccf          	fnmadd.s	f25,f1,f17,f2,unknown
    44eff25c:	0000                	.insn	2, 0x0000
    44eff25e:	0000                	.insn	2, 0x0000
    44eff260:	1110e0cf          	fnmadd.s	f1,f1,f17,f2,unknown
    44eff264:	0000                	.insn	2, 0x0000
    44eff266:	0000                	.insn	2, 0x0000
    44eff268:	1110e4cf          	fnmadd.s	f9,f1,f17,f2,unknown
    44eff26c:	0000                	.insn	2, 0x0000
    44eff26e:	0000                	.insn	2, 0x0000
    44eff270:	1110e8cf          	fnmadd.s	f17,f1,f17,f2,unknown
    44eff274:	0000                	.insn	2, 0x0000
    44eff276:	0000                	.insn	2, 0x0000
    44eff278:	1110eccf          	fnmadd.s	f25,f1,f17,f2,unknown
    44eff27c:	0000                	.insn	2, 0x0000
    44eff27e:	0000                	.insn	2, 0x0000
    44eff280:	1110f0cf          	fnmadd.s	f1,f1,f17,f2
    44eff284:	0000                	.insn	2, 0x0000
    44eff286:	0000                	.insn	2, 0x0000
    44eff288:	1110f4cf          	fnmadd.s	f9,f1,f17,f2
    44eff28c:	0000                	.insn	2, 0x0000
    44eff28e:	0000                	.insn	2, 0x0000
    44eff290:	1110f8cf          	fnmadd.s	f17,f1,f17,f2
    44eff294:	0000                	.insn	2, 0x0000
    44eff296:	0000                	.insn	2, 0x0000
    44eff298:	1110fccf          	fnmadd.s	f25,f1,f17,f2
    44eff29c:	0000                	.insn	2, 0x0000
    44eff29e:	0000                	.insn	2, 0x0000
    44eff2a0:	111100cf          	fnmadd.s	f1,f2,f17,f2,rne
    44eff2a4:	0000                	.insn	2, 0x0000
    44eff2a6:	0000                	.insn	2, 0x0000
    44eff2a8:	111104cf          	fnmadd.s	f9,f2,f17,f2,rne
    44eff2ac:	0000                	.insn	2, 0x0000
    44eff2ae:	0000                	.insn	2, 0x0000
    44eff2b0:	111108cf          	fnmadd.s	f17,f2,f17,f2,rne
    44eff2b4:	0000                	.insn	2, 0x0000
    44eff2b6:	0000                	.insn	2, 0x0000
    44eff2b8:	11110ccf          	fnmadd.s	f25,f2,f17,f2,rne
    44eff2bc:	0000                	.insn	2, 0x0000
    44eff2be:	0000                	.insn	2, 0x0000
    44eff2c0:	111110cf          	fnmadd.s	f1,f2,f17,f2,rtz
    44eff2c4:	0000                	.insn	2, 0x0000
    44eff2c6:	0000                	.insn	2, 0x0000
    44eff2c8:	111114cf          	fnmadd.s	f9,f2,f17,f2,rtz
    44eff2cc:	0000                	.insn	2, 0x0000
    44eff2ce:	0000                	.insn	2, 0x0000
    44eff2d0:	111118cf          	fnmadd.s	f17,f2,f17,f2,rtz
    44eff2d4:	0000                	.insn	2, 0x0000
    44eff2d6:	0000                	.insn	2, 0x0000
    44eff2d8:	11111ccf          	fnmadd.s	f25,f2,f17,f2,rtz
    44eff2dc:	0000                	.insn	2, 0x0000
    44eff2de:	0000                	.insn	2, 0x0000
    44eff2e0:	111120cf          	fnmadd.s	f1,f2,f17,f2,rdn
    44eff2e4:	0000                	.insn	2, 0x0000
    44eff2e6:	0000                	.insn	2, 0x0000
    44eff2e8:	111124cf          	fnmadd.s	f9,f2,f17,f2,rdn
    44eff2ec:	0000                	.insn	2, 0x0000
    44eff2ee:	0000                	.insn	2, 0x0000
    44eff2f0:	111128cf          	fnmadd.s	f17,f2,f17,f2,rdn
    44eff2f4:	0000                	.insn	2, 0x0000
    44eff2f6:	0000                	.insn	2, 0x0000
    44eff2f8:	11112ccf          	fnmadd.s	f25,f2,f17,f2,rdn
    44eff2fc:	0000                	.insn	2, 0x0000
    44eff2fe:	0000                	.insn	2, 0x0000
    44eff300:	111130cf          	fnmadd.s	f1,f2,f17,f2,rup
    44eff304:	0000                	.insn	2, 0x0000
    44eff306:	0000                	.insn	2, 0x0000
    44eff308:	111134cf          	fnmadd.s	f9,f2,f17,f2,rup
    44eff30c:	0000                	.insn	2, 0x0000
    44eff30e:	0000                	.insn	2, 0x0000
    44eff310:	111138cf          	fnmadd.s	f17,f2,f17,f2,rup
    44eff314:	0000                	.insn	2, 0x0000
    44eff316:	0000                	.insn	2, 0x0000
    44eff318:	11113ccf          	fnmadd.s	f25,f2,f17,f2,rup
    44eff31c:	0000                	.insn	2, 0x0000
    44eff31e:	0000                	.insn	2, 0x0000
    44eff320:	111140cf          	fnmadd.s	f1,f2,f17,f2,rmm
    44eff324:	0000                	.insn	2, 0x0000
    44eff326:	0000                	.insn	2, 0x0000
    44eff328:	111144cf          	fnmadd.s	f9,f2,f17,f2,rmm
    44eff32c:	0000                	.insn	2, 0x0000
    44eff32e:	0000                	.insn	2, 0x0000
    44eff330:	111148cf          	fnmadd.s	f17,f2,f17,f2,rmm
    44eff334:	0000                	.insn	2, 0x0000
    44eff336:	0000                	.insn	2, 0x0000
    44eff338:	11114ccf          	fnmadd.s	f25,f2,f17,f2,rmm
    44eff33c:	0000                	.insn	2, 0x0000
    44eff33e:	0000                	.insn	2, 0x0000
    44eff340:	111150cf          	fnmadd.s	f1,f2,f17,f2,unknown
    44eff344:	0000                	.insn	2, 0x0000
    44eff346:	0000                	.insn	2, 0x0000
    44eff348:	111154cf          	fnmadd.s	f9,f2,f17,f2,unknown
    44eff34c:	0000                	.insn	2, 0x0000
    44eff34e:	0000                	.insn	2, 0x0000
    44eff350:	111158cf          	fnmadd.s	f17,f2,f17,f2,unknown
    44eff354:	0000                	.insn	2, 0x0000
    44eff356:	0000                	.insn	2, 0x0000
    44eff358:	11115ccf          	fnmadd.s	f25,f2,f17,f2,unknown
    44eff35c:	0000                	.insn	2, 0x0000
    44eff35e:	0000                	.insn	2, 0x0000
    44eff360:	111160cf          	fnmadd.s	f1,f2,f17,f2,unknown
    44eff364:	0000                	.insn	2, 0x0000
    44eff366:	0000                	.insn	2, 0x0000
    44eff368:	111164cf          	fnmadd.s	f9,f2,f17,f2,unknown
    44eff36c:	0000                	.insn	2, 0x0000
    44eff36e:	0000                	.insn	2, 0x0000
    44eff370:	111168cf          	fnmadd.s	f17,f2,f17,f2,unknown
    44eff374:	0000                	.insn	2, 0x0000
    44eff376:	0000                	.insn	2, 0x0000
    44eff378:	11116ccf          	fnmadd.s	f25,f2,f17,f2,unknown
    44eff37c:	0000                	.insn	2, 0x0000
    44eff37e:	0000                	.insn	2, 0x0000
    44eff380:	111170cf          	fnmadd.s	f1,f2,f17,f2
    44eff384:	0000                	.insn	2, 0x0000
    44eff386:	0000                	.insn	2, 0x0000
    44eff388:	111174cf          	fnmadd.s	f9,f2,f17,f2
    44eff38c:	0000                	.insn	2, 0x0000
    44eff38e:	0000                	.insn	2, 0x0000
    44eff390:	111178cf          	fnmadd.s	f17,f2,f17,f2
    44eff394:	0000                	.insn	2, 0x0000
    44eff396:	0000                	.insn	2, 0x0000
    44eff398:	11117ccf          	fnmadd.s	f25,f2,f17,f2
    44eff39c:	0000                	.insn	2, 0x0000
    44eff39e:	0000                	.insn	2, 0x0000
    44eff3a0:	111180cf          	fnmadd.s	f1,f3,f17,f2,rne
    44eff3a4:	0000                	.insn	2, 0x0000
    44eff3a6:	0000                	.insn	2, 0x0000
    44eff3a8:	111184cf          	fnmadd.s	f9,f3,f17,f2,rne
    44eff3ac:	0000                	.insn	2, 0x0000
    44eff3ae:	0000                	.insn	2, 0x0000
    44eff3b0:	111188cf          	fnmadd.s	f17,f3,f17,f2,rne
    44eff3b4:	0000                	.insn	2, 0x0000
    44eff3b6:	0000                	.insn	2, 0x0000
    44eff3b8:	11118ccf          	fnmadd.s	f25,f3,f17,f2,rne
    44eff3bc:	0000                	.insn	2, 0x0000
    44eff3be:	0000                	.insn	2, 0x0000
    44eff3c0:	111190cf          	fnmadd.s	f1,f3,f17,f2,rtz
    44eff3c4:	0000                	.insn	2, 0x0000
    44eff3c6:	0000                	.insn	2, 0x0000
    44eff3c8:	111194cf          	fnmadd.s	f9,f3,f17,f2,rtz
    44eff3cc:	0000                	.insn	2, 0x0000
    44eff3ce:	0000                	.insn	2, 0x0000
    44eff3d0:	111198cf          	fnmadd.s	f17,f3,f17,f2,rtz
    44eff3d4:	0000                	.insn	2, 0x0000
    44eff3d6:	0000                	.insn	2, 0x0000
    44eff3d8:	11119ccf          	fnmadd.s	f25,f3,f17,f2,rtz
    44eff3dc:	0000                	.insn	2, 0x0000
    44eff3de:	0000                	.insn	2, 0x0000
    44eff3e0:	1111a0cf          	fnmadd.s	f1,f3,f17,f2,rdn
    44eff3e4:	0000                	.insn	2, 0x0000
    44eff3e6:	0000                	.insn	2, 0x0000
    44eff3e8:	1111a4cf          	fnmadd.s	f9,f3,f17,f2,rdn
    44eff3ec:	0000                	.insn	2, 0x0000
    44eff3ee:	0000                	.insn	2, 0x0000
    44eff3f0:	1111a8cf          	fnmadd.s	f17,f3,f17,f2,rdn
    44eff3f4:	0000                	.insn	2, 0x0000
    44eff3f6:	0000                	.insn	2, 0x0000
    44eff3f8:	1111accf          	fnmadd.s	f25,f3,f17,f2,rdn
    44eff3fc:	0000                	.insn	2, 0x0000
    44eff3fe:	0000                	.insn	2, 0x0000
    44eff400:	1111b0cf          	fnmadd.s	f1,f3,f17,f2,rup
    44eff404:	0000                	.insn	2, 0x0000
    44eff406:	0000                	.insn	2, 0x0000
    44eff408:	1111b4cf          	fnmadd.s	f9,f3,f17,f2,rup
    44eff40c:	0000                	.insn	2, 0x0000
    44eff40e:	0000                	.insn	2, 0x0000
    44eff410:	1111b8cf          	fnmadd.s	f17,f3,f17,f2,rup
    44eff414:	0000                	.insn	2, 0x0000
    44eff416:	0000                	.insn	2, 0x0000
    44eff418:	1111bccf          	fnmadd.s	f25,f3,f17,f2,rup
    44eff41c:	0000                	.insn	2, 0x0000
    44eff41e:	0000                	.insn	2, 0x0000
    44eff420:	1111c0cf          	fnmadd.s	f1,f3,f17,f2,rmm
    44eff424:	0000                	.insn	2, 0x0000
    44eff426:	0000                	.insn	2, 0x0000
    44eff428:	1111c4cf          	fnmadd.s	f9,f3,f17,f2,rmm
    44eff42c:	0000                	.insn	2, 0x0000
    44eff42e:	0000                	.insn	2, 0x0000
    44eff430:	1111c8cf          	fnmadd.s	f17,f3,f17,f2,rmm
    44eff434:	0000                	.insn	2, 0x0000
    44eff436:	0000                	.insn	2, 0x0000
    44eff438:	1111cccf          	fnmadd.s	f25,f3,f17,f2,rmm
    44eff43c:	0000                	.insn	2, 0x0000
    44eff43e:	0000                	.insn	2, 0x0000
    44eff440:	1111d0cf          	fnmadd.s	f1,f3,f17,f2,unknown
    44eff444:	0000                	.insn	2, 0x0000
    44eff446:	0000                	.insn	2, 0x0000
    44eff448:	1111d4cf          	fnmadd.s	f9,f3,f17,f2,unknown
    44eff44c:	0000                	.insn	2, 0x0000
    44eff44e:	0000                	.insn	2, 0x0000
    44eff450:	1111d8cf          	fnmadd.s	f17,f3,f17,f2,unknown
    44eff454:	0000                	.insn	2, 0x0000
    44eff456:	0000                	.insn	2, 0x0000
    44eff458:	1111dccf          	fnmadd.s	f25,f3,f17,f2,unknown
    44eff45c:	0000                	.insn	2, 0x0000
    44eff45e:	0000                	.insn	2, 0x0000
    44eff460:	1111e0cf          	fnmadd.s	f1,f3,f17,f2,unknown
    44eff464:	0000                	.insn	2, 0x0000
    44eff466:	0000                	.insn	2, 0x0000
    44eff468:	1111e4cf          	fnmadd.s	f9,f3,f17,f2,unknown
    44eff46c:	0000                	.insn	2, 0x0000
    44eff46e:	0000                	.insn	2, 0x0000
    44eff470:	1111e8cf          	fnmadd.s	f17,f3,f17,f2,unknown
    44eff474:	0000                	.insn	2, 0x0000
    44eff476:	0000                	.insn	2, 0x0000
    44eff478:	1111eccf          	fnmadd.s	f25,f3,f17,f2,unknown
    44eff47c:	0000                	.insn	2, 0x0000
    44eff47e:	0000                	.insn	2, 0x0000
    44eff480:	1111f0cf          	fnmadd.s	f1,f3,f17,f2
    44eff484:	0000                	.insn	2, 0x0000
    44eff486:	0000                	.insn	2, 0x0000
    44eff488:	1111f4cf          	fnmadd.s	f9,f3,f17,f2
    44eff48c:	0000                	.insn	2, 0x0000
    44eff48e:	0000                	.insn	2, 0x0000
    44eff490:	1111f8cf          	fnmadd.s	f17,f3,f17,f2
    44eff494:	0000                	.insn	2, 0x0000
    44eff496:	0000                	.insn	2, 0x0000
    44eff498:	1111fccf          	fnmadd.s	f25,f3,f17,f2
    44eff49c:	0000                	.insn	2, 0x0000
    44eff49e:	0000                	.insn	2, 0x0000
    44eff4a0:	111200cf          	fnmadd.s	f1,f4,f17,f2,rne
    44eff4a4:	0000                	.insn	2, 0x0000
    44eff4a6:	0000                	.insn	2, 0x0000
    44eff4a8:	111204cf          	fnmadd.s	f9,f4,f17,f2,rne
    44eff4ac:	0000                	.insn	2, 0x0000
    44eff4ae:	0000                	.insn	2, 0x0000
    44eff4b0:	111208cf          	fnmadd.s	f17,f4,f17,f2,rne
    44eff4b4:	0000                	.insn	2, 0x0000
    44eff4b6:	0000                	.insn	2, 0x0000
    44eff4b8:	11120ccf          	fnmadd.s	f25,f4,f17,f2,rne
    44eff4bc:	0000                	.insn	2, 0x0000
    44eff4be:	0000                	.insn	2, 0x0000
    44eff4c0:	111210cf          	fnmadd.s	f1,f4,f17,f2,rtz
    44eff4c4:	0000                	.insn	2, 0x0000
    44eff4c6:	0000                	.insn	2, 0x0000
    44eff4c8:	111214cf          	fnmadd.s	f9,f4,f17,f2,rtz
    44eff4cc:	0000                	.insn	2, 0x0000
    44eff4ce:	0000                	.insn	2, 0x0000
    44eff4d0:	111218cf          	fnmadd.s	f17,f4,f17,f2,rtz
    44eff4d4:	0000                	.insn	2, 0x0000
    44eff4d6:	0000                	.insn	2, 0x0000
    44eff4d8:	11121ccf          	fnmadd.s	f25,f4,f17,f2,rtz
    44eff4dc:	0000                	.insn	2, 0x0000
    44eff4de:	0000                	.insn	2, 0x0000
    44eff4e0:	111220cf          	fnmadd.s	f1,f4,f17,f2,rdn
    44eff4e4:	0000                	.insn	2, 0x0000
    44eff4e6:	0000                	.insn	2, 0x0000
    44eff4e8:	111224cf          	fnmadd.s	f9,f4,f17,f2,rdn
    44eff4ec:	0000                	.insn	2, 0x0000
    44eff4ee:	0000                	.insn	2, 0x0000
    44eff4f0:	111228cf          	fnmadd.s	f17,f4,f17,f2,rdn
    44eff4f4:	0000                	.insn	2, 0x0000
    44eff4f6:	0000                	.insn	2, 0x0000
    44eff4f8:	11122ccf          	fnmadd.s	f25,f4,f17,f2,rdn
    44eff4fc:	0000                	.insn	2, 0x0000
    44eff4fe:	0000                	.insn	2, 0x0000
    44eff500:	111230cf          	fnmadd.s	f1,f4,f17,f2,rup
    44eff504:	0000                	.insn	2, 0x0000
    44eff506:	0000                	.insn	2, 0x0000
    44eff508:	111234cf          	fnmadd.s	f9,f4,f17,f2,rup
    44eff50c:	0000                	.insn	2, 0x0000
    44eff50e:	0000                	.insn	2, 0x0000
    44eff510:	111238cf          	fnmadd.s	f17,f4,f17,f2,rup
    44eff514:	0000                	.insn	2, 0x0000
    44eff516:	0000                	.insn	2, 0x0000
    44eff518:	11123ccf          	fnmadd.s	f25,f4,f17,f2,rup
    44eff51c:	0000                	.insn	2, 0x0000
    44eff51e:	0000                	.insn	2, 0x0000
    44eff520:	111240cf          	fnmadd.s	f1,f4,f17,f2,rmm
    44eff524:	0000                	.insn	2, 0x0000
    44eff526:	0000                	.insn	2, 0x0000
    44eff528:	111244cf          	fnmadd.s	f9,f4,f17,f2,rmm
    44eff52c:	0000                	.insn	2, 0x0000
    44eff52e:	0000                	.insn	2, 0x0000
    44eff530:	111248cf          	fnmadd.s	f17,f4,f17,f2,rmm
    44eff534:	0000                	.insn	2, 0x0000
    44eff536:	0000                	.insn	2, 0x0000
    44eff538:	11124ccf          	fnmadd.s	f25,f4,f17,f2,rmm
    44eff53c:	0000                	.insn	2, 0x0000
    44eff53e:	0000                	.insn	2, 0x0000
    44eff540:	111250cf          	fnmadd.s	f1,f4,f17,f2,unknown
    44eff544:	0000                	.insn	2, 0x0000
    44eff546:	0000                	.insn	2, 0x0000
    44eff548:	111254cf          	fnmadd.s	f9,f4,f17,f2,unknown
    44eff54c:	0000                	.insn	2, 0x0000
    44eff54e:	0000                	.insn	2, 0x0000
    44eff550:	111258cf          	fnmadd.s	f17,f4,f17,f2,unknown
    44eff554:	0000                	.insn	2, 0x0000
    44eff556:	0000                	.insn	2, 0x0000
    44eff558:	11125ccf          	fnmadd.s	f25,f4,f17,f2,unknown
    44eff55c:	0000                	.insn	2, 0x0000
    44eff55e:	0000                	.insn	2, 0x0000
    44eff560:	111260cf          	fnmadd.s	f1,f4,f17,f2,unknown
    44eff564:	0000                	.insn	2, 0x0000
    44eff566:	0000                	.insn	2, 0x0000
    44eff568:	111264cf          	fnmadd.s	f9,f4,f17,f2,unknown
    44eff56c:	0000                	.insn	2, 0x0000
    44eff56e:	0000                	.insn	2, 0x0000
    44eff570:	111268cf          	fnmadd.s	f17,f4,f17,f2,unknown
    44eff574:	0000                	.insn	2, 0x0000
    44eff576:	0000                	.insn	2, 0x0000
    44eff578:	11126ccf          	fnmadd.s	f25,f4,f17,f2,unknown
    44eff57c:	0000                	.insn	2, 0x0000
    44eff57e:	0000                	.insn	2, 0x0000
    44eff580:	111270cf          	fnmadd.s	f1,f4,f17,f2
    44eff584:	0000                	.insn	2, 0x0000
    44eff586:	0000                	.insn	2, 0x0000
    44eff588:	111274cf          	fnmadd.s	f9,f4,f17,f2
    44eff58c:	0000                	.insn	2, 0x0000
    44eff58e:	0000                	.insn	2, 0x0000
    44eff590:	111278cf          	fnmadd.s	f17,f4,f17,f2
    44eff594:	0000                	.insn	2, 0x0000
    44eff596:	0000                	.insn	2, 0x0000
    44eff598:	11127ccf          	fnmadd.s	f25,f4,f17,f2
    44eff59c:	0000                	.insn	2, 0x0000
    44eff59e:	0000                	.insn	2, 0x0000
    44eff5a0:	111280cf          	fnmadd.s	f1,f5,f17,f2,rne
    44eff5a4:	0000                	.insn	2, 0x0000
    44eff5a6:	0000                	.insn	2, 0x0000
    44eff5a8:	111284cf          	fnmadd.s	f9,f5,f17,f2,rne
    44eff5ac:	0000                	.insn	2, 0x0000
    44eff5ae:	0000                	.insn	2, 0x0000
    44eff5b0:	111288cf          	fnmadd.s	f17,f5,f17,f2,rne
    44eff5b4:	0000                	.insn	2, 0x0000
    44eff5b6:	0000                	.insn	2, 0x0000
    44eff5b8:	11128ccf          	fnmadd.s	f25,f5,f17,f2,rne
    44eff5bc:	0000                	.insn	2, 0x0000
    44eff5be:	0000                	.insn	2, 0x0000
    44eff5c0:	111290cf          	fnmadd.s	f1,f5,f17,f2,rtz
    44eff5c4:	0000                	.insn	2, 0x0000
    44eff5c6:	0000                	.insn	2, 0x0000
    44eff5c8:	111294cf          	fnmadd.s	f9,f5,f17,f2,rtz
    44eff5cc:	0000                	.insn	2, 0x0000
    44eff5ce:	0000                	.insn	2, 0x0000
    44eff5d0:	111298cf          	fnmadd.s	f17,f5,f17,f2,rtz
    44eff5d4:	0000                	.insn	2, 0x0000
    44eff5d6:	0000                	.insn	2, 0x0000
    44eff5d8:	11129ccf          	fnmadd.s	f25,f5,f17,f2,rtz
    44eff5dc:	0000                	.insn	2, 0x0000
    44eff5de:	0000                	.insn	2, 0x0000
    44eff5e0:	1112a0cf          	fnmadd.s	f1,f5,f17,f2,rdn
    44eff5e4:	0000                	.insn	2, 0x0000
    44eff5e6:	0000                	.insn	2, 0x0000
    44eff5e8:	1112a4cf          	fnmadd.s	f9,f5,f17,f2,rdn
    44eff5ec:	0000                	.insn	2, 0x0000
    44eff5ee:	0000                	.insn	2, 0x0000
    44eff5f0:	1112a8cf          	fnmadd.s	f17,f5,f17,f2,rdn
    44eff5f4:	0000                	.insn	2, 0x0000
    44eff5f6:	0000                	.insn	2, 0x0000
    44eff5f8:	1112accf          	fnmadd.s	f25,f5,f17,f2,rdn
    44eff5fc:	0000                	.insn	2, 0x0000
    44eff5fe:	0000                	.insn	2, 0x0000
    44eff600:	1112b0cf          	fnmadd.s	f1,f5,f17,f2,rup
    44eff604:	0000                	.insn	2, 0x0000
    44eff606:	0000                	.insn	2, 0x0000
    44eff608:	1112b4cf          	fnmadd.s	f9,f5,f17,f2,rup
    44eff60c:	0000                	.insn	2, 0x0000
    44eff60e:	0000                	.insn	2, 0x0000
    44eff610:	1112b8cf          	fnmadd.s	f17,f5,f17,f2,rup
    44eff614:	0000                	.insn	2, 0x0000
    44eff616:	0000                	.insn	2, 0x0000
    44eff618:	1112bccf          	fnmadd.s	f25,f5,f17,f2,rup
    44eff61c:	0000                	.insn	2, 0x0000
    44eff61e:	0000                	.insn	2, 0x0000
    44eff620:	1112c0cf          	fnmadd.s	f1,f5,f17,f2,rmm
    44eff624:	0000                	.insn	2, 0x0000
    44eff626:	0000                	.insn	2, 0x0000
    44eff628:	1112c4cf          	fnmadd.s	f9,f5,f17,f2,rmm
    44eff62c:	0000                	.insn	2, 0x0000
    44eff62e:	0000                	.insn	2, 0x0000
    44eff630:	1112c8cf          	fnmadd.s	f17,f5,f17,f2,rmm
    44eff634:	0000                	.insn	2, 0x0000
    44eff636:	0000                	.insn	2, 0x0000
    44eff638:	1112cccf          	fnmadd.s	f25,f5,f17,f2,rmm
    44eff63c:	0000                	.insn	2, 0x0000
    44eff63e:	0000                	.insn	2, 0x0000
    44eff640:	1112d0cf          	fnmadd.s	f1,f5,f17,f2,unknown
    44eff644:	0000                	.insn	2, 0x0000
    44eff646:	0000                	.insn	2, 0x0000
    44eff648:	1112d4cf          	fnmadd.s	f9,f5,f17,f2,unknown
    44eff64c:	0000                	.insn	2, 0x0000
    44eff64e:	0000                	.insn	2, 0x0000
    44eff650:	1112d8cf          	fnmadd.s	f17,f5,f17,f2,unknown
    44eff654:	0000                	.insn	2, 0x0000
    44eff656:	0000                	.insn	2, 0x0000
    44eff658:	1112dccf          	fnmadd.s	f25,f5,f17,f2,unknown
    44eff65c:	0000                	.insn	2, 0x0000
    44eff65e:	0000                	.insn	2, 0x0000
    44eff660:	1112e0cf          	fnmadd.s	f1,f5,f17,f2,unknown
    44eff664:	0000                	.insn	2, 0x0000
    44eff666:	0000                	.insn	2, 0x0000
    44eff668:	1112e4cf          	fnmadd.s	f9,f5,f17,f2,unknown
    44eff66c:	0000                	.insn	2, 0x0000
    44eff66e:	0000                	.insn	2, 0x0000
    44eff670:	1112e8cf          	fnmadd.s	f17,f5,f17,f2,unknown
    44eff674:	0000                	.insn	2, 0x0000
    44eff676:	0000                	.insn	2, 0x0000
    44eff678:	1112eccf          	fnmadd.s	f25,f5,f17,f2,unknown
    44eff67c:	0000                	.insn	2, 0x0000
    44eff67e:	0000                	.insn	2, 0x0000
    44eff680:	1112f0cf          	fnmadd.s	f1,f5,f17,f2
    44eff684:	0000                	.insn	2, 0x0000
    44eff686:	0000                	.insn	2, 0x0000
    44eff688:	1112f4cf          	fnmadd.s	f9,f5,f17,f2
    44eff68c:	0000                	.insn	2, 0x0000
    44eff68e:	0000                	.insn	2, 0x0000
    44eff690:	1112f8cf          	fnmadd.s	f17,f5,f17,f2
    44eff694:	0000                	.insn	2, 0x0000
    44eff696:	0000                	.insn	2, 0x0000
    44eff698:	1112fccf          	fnmadd.s	f25,f5,f17,f2
    44eff69c:	0000                	.insn	2, 0x0000
    44eff69e:	0000                	.insn	2, 0x0000
    44eff6a0:	111300cf          	fnmadd.s	f1,f6,f17,f2,rne
    44eff6a4:	0000                	.insn	2, 0x0000
    44eff6a6:	0000                	.insn	2, 0x0000
    44eff6a8:	111304cf          	fnmadd.s	f9,f6,f17,f2,rne
    44eff6ac:	0000                	.insn	2, 0x0000
    44eff6ae:	0000                	.insn	2, 0x0000
    44eff6b0:	111308cf          	fnmadd.s	f17,f6,f17,f2,rne
    44eff6b4:	0000                	.insn	2, 0x0000
    44eff6b6:	0000                	.insn	2, 0x0000
    44eff6b8:	11130ccf          	fnmadd.s	f25,f6,f17,f2,rne
    44eff6bc:	0000                	.insn	2, 0x0000
    44eff6be:	0000                	.insn	2, 0x0000
    44eff6c0:	111310cf          	fnmadd.s	f1,f6,f17,f2,rtz
    44eff6c4:	0000                	.insn	2, 0x0000
    44eff6c6:	0000                	.insn	2, 0x0000
    44eff6c8:	111314cf          	fnmadd.s	f9,f6,f17,f2,rtz
    44eff6cc:	0000                	.insn	2, 0x0000
    44eff6ce:	0000                	.insn	2, 0x0000
    44eff6d0:	111318cf          	fnmadd.s	f17,f6,f17,f2,rtz
    44eff6d4:	0000                	.insn	2, 0x0000
    44eff6d6:	0000                	.insn	2, 0x0000
    44eff6d8:	11131ccf          	fnmadd.s	f25,f6,f17,f2,rtz
    44eff6dc:	0000                	.insn	2, 0x0000
    44eff6de:	0000                	.insn	2, 0x0000
    44eff6e0:	111320cf          	fnmadd.s	f1,f6,f17,f2,rdn
    44eff6e4:	0000                	.insn	2, 0x0000
    44eff6e6:	0000                	.insn	2, 0x0000
    44eff6e8:	111324cf          	fnmadd.s	f9,f6,f17,f2,rdn
    44eff6ec:	0000                	.insn	2, 0x0000
    44eff6ee:	0000                	.insn	2, 0x0000
    44eff6f0:	111328cf          	fnmadd.s	f17,f6,f17,f2,rdn
    44eff6f4:	0000                	.insn	2, 0x0000
    44eff6f6:	0000                	.insn	2, 0x0000
    44eff6f8:	11132ccf          	fnmadd.s	f25,f6,f17,f2,rdn
    44eff6fc:	0000                	.insn	2, 0x0000
    44eff6fe:	0000                	.insn	2, 0x0000
    44eff700:	111330cf          	fnmadd.s	f1,f6,f17,f2,rup
    44eff704:	0000                	.insn	2, 0x0000
    44eff706:	0000                	.insn	2, 0x0000
    44eff708:	111334cf          	fnmadd.s	f9,f6,f17,f2,rup
    44eff70c:	0000                	.insn	2, 0x0000
    44eff70e:	0000                	.insn	2, 0x0000
    44eff710:	111338cf          	fnmadd.s	f17,f6,f17,f2,rup
    44eff714:	0000                	.insn	2, 0x0000
    44eff716:	0000                	.insn	2, 0x0000
    44eff718:	11133ccf          	fnmadd.s	f25,f6,f17,f2,rup
    44eff71c:	0000                	.insn	2, 0x0000
    44eff71e:	0000                	.insn	2, 0x0000
    44eff720:	111340cf          	fnmadd.s	f1,f6,f17,f2,rmm
    44eff724:	0000                	.insn	2, 0x0000
    44eff726:	0000                	.insn	2, 0x0000
    44eff728:	111344cf          	fnmadd.s	f9,f6,f17,f2,rmm
    44eff72c:	0000                	.insn	2, 0x0000
    44eff72e:	0000                	.insn	2, 0x0000
    44eff730:	111348cf          	fnmadd.s	f17,f6,f17,f2,rmm
    44eff734:	0000                	.insn	2, 0x0000
    44eff736:	0000                	.insn	2, 0x0000
    44eff738:	11134ccf          	fnmadd.s	f25,f6,f17,f2,rmm
    44eff73c:	0000                	.insn	2, 0x0000
    44eff73e:	0000                	.insn	2, 0x0000
    44eff740:	111350cf          	fnmadd.s	f1,f6,f17,f2,unknown
    44eff744:	0000                	.insn	2, 0x0000
    44eff746:	0000                	.insn	2, 0x0000
    44eff748:	111354cf          	fnmadd.s	f9,f6,f17,f2,unknown
    44eff74c:	0000                	.insn	2, 0x0000
    44eff74e:	0000                	.insn	2, 0x0000
    44eff750:	111358cf          	fnmadd.s	f17,f6,f17,f2,unknown
    44eff754:	0000                	.insn	2, 0x0000
    44eff756:	0000                	.insn	2, 0x0000
    44eff758:	11135ccf          	fnmadd.s	f25,f6,f17,f2,unknown
    44eff75c:	0000                	.insn	2, 0x0000
    44eff75e:	0000                	.insn	2, 0x0000
    44eff760:	111360cf          	fnmadd.s	f1,f6,f17,f2,unknown
    44eff764:	0000                	.insn	2, 0x0000
    44eff766:	0000                	.insn	2, 0x0000
    44eff768:	111364cf          	fnmadd.s	f9,f6,f17,f2,unknown
    44eff76c:	0000                	.insn	2, 0x0000
    44eff76e:	0000                	.insn	2, 0x0000
    44eff770:	111368cf          	fnmadd.s	f17,f6,f17,f2,unknown
    44eff774:	0000                	.insn	2, 0x0000
    44eff776:	0000                	.insn	2, 0x0000
    44eff778:	11136ccf          	fnmadd.s	f25,f6,f17,f2,unknown
    44eff77c:	0000                	.insn	2, 0x0000
    44eff77e:	0000                	.insn	2, 0x0000
    44eff780:	111370cf          	fnmadd.s	f1,f6,f17,f2
    44eff784:	0000                	.insn	2, 0x0000
    44eff786:	0000                	.insn	2, 0x0000
    44eff788:	111374cf          	fnmadd.s	f9,f6,f17,f2
    44eff78c:	0000                	.insn	2, 0x0000
    44eff78e:	0000                	.insn	2, 0x0000
    44eff790:	111378cf          	fnmadd.s	f17,f6,f17,f2
    44eff794:	0000                	.insn	2, 0x0000
    44eff796:	0000                	.insn	2, 0x0000
    44eff798:	11137ccf          	fnmadd.s	f25,f6,f17,f2
    44eff79c:	0000                	.insn	2, 0x0000
    44eff79e:	0000                	.insn	2, 0x0000
    44eff7a0:	111380cf          	fnmadd.s	f1,f7,f17,f2,rne
    44eff7a4:	0000                	.insn	2, 0x0000
    44eff7a6:	0000                	.insn	2, 0x0000
    44eff7a8:	111384cf          	fnmadd.s	f9,f7,f17,f2,rne
    44eff7ac:	0000                	.insn	2, 0x0000
    44eff7ae:	0000                	.insn	2, 0x0000
    44eff7b0:	111388cf          	fnmadd.s	f17,f7,f17,f2,rne
    44eff7b4:	0000                	.insn	2, 0x0000
    44eff7b6:	0000                	.insn	2, 0x0000
    44eff7b8:	11138ccf          	fnmadd.s	f25,f7,f17,f2,rne
    44eff7bc:	0000                	.insn	2, 0x0000
    44eff7be:	0000                	.insn	2, 0x0000
    44eff7c0:	111390cf          	fnmadd.s	f1,f7,f17,f2,rtz
    44eff7c4:	0000                	.insn	2, 0x0000
    44eff7c6:	0000                	.insn	2, 0x0000
    44eff7c8:	111394cf          	fnmadd.s	f9,f7,f17,f2,rtz
    44eff7cc:	0000                	.insn	2, 0x0000
    44eff7ce:	0000                	.insn	2, 0x0000
    44eff7d0:	111398cf          	fnmadd.s	f17,f7,f17,f2,rtz
    44eff7d4:	0000                	.insn	2, 0x0000
    44eff7d6:	0000                	.insn	2, 0x0000
    44eff7d8:	11139ccf          	fnmadd.s	f25,f7,f17,f2,rtz
    44eff7dc:	0000                	.insn	2, 0x0000
    44eff7de:	0000                	.insn	2, 0x0000
    44eff7e0:	1113a0cf          	fnmadd.s	f1,f7,f17,f2,rdn
    44eff7e4:	0000                	.insn	2, 0x0000
    44eff7e6:	0000                	.insn	2, 0x0000
    44eff7e8:	1113a4cf          	fnmadd.s	f9,f7,f17,f2,rdn
    44eff7ec:	0000                	.insn	2, 0x0000
    44eff7ee:	0000                	.insn	2, 0x0000
    44eff7f0:	1113a8cf          	fnmadd.s	f17,f7,f17,f2,rdn
    44eff7f4:	0000                	.insn	2, 0x0000
    44eff7f6:	0000                	.insn	2, 0x0000
    44eff7f8:	1113accf          	fnmadd.s	f25,f7,f17,f2,rdn
    44eff7fc:	0000                	.insn	2, 0x0000
    44eff7fe:	0000                	.insn	2, 0x0000
    44eff800:	1113b0cf          	fnmadd.s	f1,f7,f17,f2,rup
    44eff804:	0000                	.insn	2, 0x0000
    44eff806:	0000                	.insn	2, 0x0000
    44eff808:	1113b4cf          	fnmadd.s	f9,f7,f17,f2,rup
    44eff80c:	0000                	.insn	2, 0x0000
    44eff80e:	0000                	.insn	2, 0x0000
    44eff810:	1113b8cf          	fnmadd.s	f17,f7,f17,f2,rup
    44eff814:	0000                	.insn	2, 0x0000
    44eff816:	0000                	.insn	2, 0x0000
    44eff818:	1113bccf          	fnmadd.s	f25,f7,f17,f2,rup
    44eff81c:	0000                	.insn	2, 0x0000
    44eff81e:	0000                	.insn	2, 0x0000
    44eff820:	1113c0cf          	fnmadd.s	f1,f7,f17,f2,rmm
    44eff824:	0000                	.insn	2, 0x0000
    44eff826:	0000                	.insn	2, 0x0000
    44eff828:	1113c4cf          	fnmadd.s	f9,f7,f17,f2,rmm
    44eff82c:	0000                	.insn	2, 0x0000
    44eff82e:	0000                	.insn	2, 0x0000
    44eff830:	1113c8cf          	fnmadd.s	f17,f7,f17,f2,rmm
    44eff834:	0000                	.insn	2, 0x0000
    44eff836:	0000                	.insn	2, 0x0000
    44eff838:	1113cccf          	fnmadd.s	f25,f7,f17,f2,rmm
    44eff83c:	0000                	.insn	2, 0x0000
    44eff83e:	0000                	.insn	2, 0x0000
    44eff840:	1113d0cf          	fnmadd.s	f1,f7,f17,f2,unknown
    44eff844:	0000                	.insn	2, 0x0000
    44eff846:	0000                	.insn	2, 0x0000
    44eff848:	1113d4cf          	fnmadd.s	f9,f7,f17,f2,unknown
    44eff84c:	0000                	.insn	2, 0x0000
    44eff84e:	0000                	.insn	2, 0x0000
    44eff850:	1113d8cf          	fnmadd.s	f17,f7,f17,f2,unknown
    44eff854:	0000                	.insn	2, 0x0000
    44eff856:	0000                	.insn	2, 0x0000
    44eff858:	1113dccf          	fnmadd.s	f25,f7,f17,f2,unknown
    44eff85c:	0000                	.insn	2, 0x0000
    44eff85e:	0000                	.insn	2, 0x0000
    44eff860:	1113e0cf          	fnmadd.s	f1,f7,f17,f2,unknown
    44eff864:	0000                	.insn	2, 0x0000
    44eff866:	0000                	.insn	2, 0x0000
    44eff868:	1113e4cf          	fnmadd.s	f9,f7,f17,f2,unknown
    44eff86c:	0000                	.insn	2, 0x0000
    44eff86e:	0000                	.insn	2, 0x0000
    44eff870:	1113e8cf          	fnmadd.s	f17,f7,f17,f2,unknown
    44eff874:	0000                	.insn	2, 0x0000
    44eff876:	0000                	.insn	2, 0x0000
    44eff878:	1113eccf          	fnmadd.s	f25,f7,f17,f2,unknown
    44eff87c:	0000                	.insn	2, 0x0000
    44eff87e:	0000                	.insn	2, 0x0000
    44eff880:	1113f0cf          	fnmadd.s	f1,f7,f17,f2
    44eff884:	0000                	.insn	2, 0x0000
    44eff886:	0000                	.insn	2, 0x0000
    44eff888:	1113f4cf          	fnmadd.s	f9,f7,f17,f2
    44eff88c:	0000                	.insn	2, 0x0000
    44eff88e:	0000                	.insn	2, 0x0000
    44eff890:	1113f8cf          	fnmadd.s	f17,f7,f17,f2
    44eff894:	0000                	.insn	2, 0x0000
    44eff896:	0000                	.insn	2, 0x0000
    44eff898:	1113fccf          	fnmadd.s	f25,f7,f17,f2
    44eff89c:	0000                	.insn	2, 0x0000
    44eff89e:	0000                	.insn	2, 0x0000
    44eff8a0:	00df 1114 0000      	.insn	6, 0x111400df
    44eff8a6:	0000                	.insn	2, 0x0000
    44eff8a8:	04df 1114 0000      	.insn	6, 0x111404df
    44eff8ae:	0000                	.insn	2, 0x0000
    44eff8b0:	08df 1114 0000      	.insn	6, 0x111408df
    44eff8b6:	0000                	.insn	2, 0x0000
    44eff8b8:	0cdf 1114 0000      	.insn	6, 0x11140cdf
    44eff8be:	0000                	.insn	2, 0x0000
    44eff8c0:	10df 1114 0000      	.insn	6, 0x111410df
    44eff8c6:	0000                	.insn	2, 0x0000
    44eff8c8:	14df 1114 0000      	.insn	6, 0x111414df
    44eff8ce:	0000                	.insn	2, 0x0000
    44eff8d0:	18df 1114 0000      	.insn	6, 0x111418df
    44eff8d6:	0000                	.insn	2, 0x0000
    44eff8d8:	1cdf 1114 0000      	.insn	6, 0x11141cdf
    44eff8de:	0000                	.insn	2, 0x0000
    44eff8e0:	20df 1114 0000      	.insn	6, 0x111420df
    44eff8e6:	0000                	.insn	2, 0x0000
    44eff8e8:	24df 1114 0000      	.insn	6, 0x111424df
    44eff8ee:	0000                	.insn	2, 0x0000
    44eff8f0:	28df 1114 0000      	.insn	6, 0x111428df
    44eff8f6:	0000                	.insn	2, 0x0000
    44eff8f8:	2cdf 1114 0000      	.insn	6, 0x11142cdf
    44eff8fe:	0000                	.insn	2, 0x0000
    44eff900:	30df 1114 0000      	.insn	6, 0x111430df
    44eff906:	0000                	.insn	2, 0x0000
    44eff908:	34df 1114 0000      	.insn	6, 0x111434df
    44eff90e:	0000                	.insn	2, 0x0000
    44eff910:	38df 1114 0000      	.insn	6, 0x111438df
    44eff916:	0000                	.insn	2, 0x0000
    44eff918:	3cdf 1114 0000      	.insn	6, 0x11143cdf
    44eff91e:	0000                	.insn	2, 0x0000
    44eff920:	40df 1114 0000      	.insn	6, 0x111440df
    44eff926:	0000                	.insn	2, 0x0000
    44eff928:	44df 1114 0000      	.insn	6, 0x111444df
    44eff92e:	0000                	.insn	2, 0x0000
    44eff930:	48df 1114 0000      	.insn	6, 0x111448df
    44eff936:	0000                	.insn	2, 0x0000
    44eff938:	4cdf 1114 0000      	.insn	6, 0x11144cdf
    44eff93e:	0000                	.insn	2, 0x0000
    44eff940:	50df 1114 0000      	.insn	6, 0x111450df
    44eff946:	0000                	.insn	2, 0x0000
    44eff948:	54df 1114 0000      	.insn	6, 0x111454df
    44eff94e:	0000                	.insn	2, 0x0000
    44eff950:	58df 1114 0000      	.insn	6, 0x111458df
    44eff956:	0000                	.insn	2, 0x0000
    44eff958:	5cdf 1114 0000      	.insn	6, 0x11145cdf
    44eff95e:	0000                	.insn	2, 0x0000
    44eff960:	60df 1114 0000      	.insn	6, 0x111460df
    44eff966:	0000                	.insn	2, 0x0000
    44eff968:	64df 1114 0000      	.insn	6, 0x111464df
    44eff96e:	0000                	.insn	2, 0x0000
    44eff970:	68df 1114 0000      	.insn	6, 0x111468df
    44eff976:	0000                	.insn	2, 0x0000
    44eff978:	6cdf 1114 0000      	.insn	6, 0x11146cdf
    44eff97e:	0000                	.insn	2, 0x0000
    44eff980:	70df 1114 0000      	.insn	6, 0x111470df
    44eff986:	0000                	.insn	2, 0x0000
    44eff988:	74df 1114 0000      	.insn	6, 0x111474df
    44eff98e:	0000                	.insn	2, 0x0000
    44eff990:	78df 1114 0000      	.insn	6, 0x111478df
    44eff996:	0000                	.insn	2, 0x0000
    44eff998:	7cdf 1114 0000      	.insn	6, 0x11147cdf
    44eff99e:	0000                	.insn	2, 0x0000
    44eff9a0:	80df 1114 0000      	.insn	6, 0x111480df
    44eff9a6:	0000                	.insn	2, 0x0000
    44eff9a8:	84df 1114 0000      	.insn	6, 0x111484df
    44eff9ae:	0000                	.insn	2, 0x0000
    44eff9b0:	88df 1114 0000      	.insn	6, 0x111488df
    44eff9b6:	0000                	.insn	2, 0x0000
    44eff9b8:	8cdf 1114 0000      	.insn	6, 0x11148cdf
    44eff9be:	0000                	.insn	2, 0x0000
    44eff9c0:	90df 1114 0000      	.insn	6, 0x111490df
    44eff9c6:	0000                	.insn	2, 0x0000
    44eff9c8:	94df 1114 0000      	.insn	6, 0x111494df
    44eff9ce:	0000                	.insn	2, 0x0000
    44eff9d0:	98df 1114 0000      	.insn	6, 0x111498df
    44eff9d6:	0000                	.insn	2, 0x0000
    44eff9d8:	9cdf 1114 0000      	.insn	6, 0x11149cdf
    44eff9de:	0000                	.insn	2, 0x0000
    44eff9e0:	a0df 1114 0000      	.insn	6, 0x1114a0df
    44eff9e6:	0000                	.insn	2, 0x0000
    44eff9e8:	a4df 1114 0000      	.insn	6, 0x1114a4df
    44eff9ee:	0000                	.insn	2, 0x0000
    44eff9f0:	a8df 1114 0000      	.insn	6, 0x1114a8df
    44eff9f6:	0000                	.insn	2, 0x0000
    44eff9f8:	acdf 1114 0000      	.insn	6, 0x1114acdf
    44eff9fe:	0000                	.insn	2, 0x0000
    44effa00:	b0df 1114 0000      	.insn	6, 0x1114b0df
    44effa06:	0000                	.insn	2, 0x0000
    44effa08:	b4df 1114 0000      	.insn	6, 0x1114b4df
    44effa0e:	0000                	.insn	2, 0x0000
    44effa10:	b8df 1114 0000      	.insn	6, 0x1114b8df
    44effa16:	0000                	.insn	2, 0x0000
    44effa18:	bcdf 1114 0000      	.insn	6, 0x1114bcdf
    44effa1e:	0000                	.insn	2, 0x0000
    44effa20:	c0df 1114 0000      	.insn	6, 0x1114c0df
    44effa26:	0000                	.insn	2, 0x0000
    44effa28:	c4df 1114 0000      	.insn	6, 0x1114c4df
    44effa2e:	0000                	.insn	2, 0x0000
    44effa30:	c8df 1114 0000      	.insn	6, 0x1114c8df
    44effa36:	0000                	.insn	2, 0x0000
    44effa38:	ccdf 1114 0000      	.insn	6, 0x1114ccdf
    44effa3e:	0000                	.insn	2, 0x0000
    44effa40:	d0df 1114 0000      	.insn	6, 0x1114d0df
    44effa46:	0000                	.insn	2, 0x0000
    44effa48:	d4df 1114 0000      	.insn	6, 0x1114d4df
    44effa4e:	0000                	.insn	2, 0x0000
    44effa50:	d8df 1114 0000      	.insn	6, 0x1114d8df
    44effa56:	0000                	.insn	2, 0x0000
    44effa58:	dcdf 1114 0000      	.insn	6, 0x1114dcdf
    44effa5e:	0000                	.insn	2, 0x0000
    44effa60:	e0df 1114 0000      	.insn	6, 0x1114e0df
    44effa66:	0000                	.insn	2, 0x0000
    44effa68:	e4df 1114 0000      	.insn	6, 0x1114e4df
    44effa6e:	0000                	.insn	2, 0x0000
    44effa70:	e8df 1114 0000      	.insn	6, 0x1114e8df
    44effa76:	0000                	.insn	2, 0x0000
    44effa78:	ecdf 1114 0000      	.insn	6, 0x1114ecdf
    44effa7e:	0000                	.insn	2, 0x0000
    44effa80:	f0df 1114 0000      	.insn	6, 0x1114f0df
    44effa86:	0000                	.insn	2, 0x0000
    44effa88:	f4df 1114 0000      	.insn	6, 0x1114f4df
    44effa8e:	0000                	.insn	2, 0x0000
    44effa90:	f8df 1114 0000      	.insn	6, 0x1114f8df
    44effa96:	0000                	.insn	2, 0x0000
    44effa98:	fcdf 1114 0000      	.insn	6, 0x1114fcdf
    44effa9e:	0000                	.insn	2, 0x0000
    44effaa0:	00df 1115 0000      	.insn	6, 0x111500df
    44effaa6:	0000                	.insn	2, 0x0000
    44effaa8:	04df 1115 0000      	.insn	6, 0x111504df
    44effaae:	0000                	.insn	2, 0x0000
    44effab0:	08df 1115 0000      	.insn	6, 0x111508df
    44effab6:	0000                	.insn	2, 0x0000
    44effab8:	0cdf 1115 0000      	.insn	6, 0x11150cdf
    44effabe:	0000                	.insn	2, 0x0000
    44effac0:	10df 1115 0000      	.insn	6, 0x111510df
    44effac6:	0000                	.insn	2, 0x0000
    44effac8:	14df 1115 0000      	.insn	6, 0x111514df
    44efface:	0000                	.insn	2, 0x0000
    44effad0:	18df 1115 0000      	.insn	6, 0x111518df
    44effad6:	0000                	.insn	2, 0x0000
    44effad8:	1cdf 1115 0000      	.insn	6, 0x11151cdf
    44effade:	0000                	.insn	2, 0x0000
    44effae0:	20df 1115 0000      	.insn	6, 0x111520df
    44effae6:	0000                	.insn	2, 0x0000
    44effae8:	24df 1115 0000      	.insn	6, 0x111524df
    44effaee:	0000                	.insn	2, 0x0000
    44effaf0:	28df 1115 0000      	.insn	6, 0x111528df
    44effaf6:	0000                	.insn	2, 0x0000
    44effaf8:	2cdf 1115 0000      	.insn	6, 0x11152cdf
    44effafe:	0000                	.insn	2, 0x0000
    44effb00:	30df 1115 0000      	.insn	6, 0x111530df
    44effb06:	0000                	.insn	2, 0x0000
    44effb08:	34df 1115 0000      	.insn	6, 0x111534df
    44effb0e:	0000                	.insn	2, 0x0000
    44effb10:	38df 1115 0000      	.insn	6, 0x111538df
    44effb16:	0000                	.insn	2, 0x0000
    44effb18:	3cdf 1115 0000      	.insn	6, 0x11153cdf
    44effb1e:	0000                	.insn	2, 0x0000
    44effb20:	40df 1115 0000      	.insn	6, 0x111540df
    44effb26:	0000                	.insn	2, 0x0000
    44effb28:	44df 1115 0000      	.insn	6, 0x111544df
    44effb2e:	0000                	.insn	2, 0x0000
    44effb30:	48df 1115 0000      	.insn	6, 0x111548df
    44effb36:	0000                	.insn	2, 0x0000
    44effb38:	4cdf 1115 0000      	.insn	6, 0x11154cdf
    44effb3e:	0000                	.insn	2, 0x0000
    44effb40:	50df 1115 0000      	.insn	6, 0x111550df
    44effb46:	0000                	.insn	2, 0x0000
    44effb48:	54df 1115 0000      	.insn	6, 0x111554df
    44effb4e:	0000                	.insn	2, 0x0000
    44effb50:	58df 1115 0000      	.insn	6, 0x111558df
    44effb56:	0000                	.insn	2, 0x0000
    44effb58:	5cdf 1115 0000      	.insn	6, 0x11155cdf
    44effb5e:	0000                	.insn	2, 0x0000
    44effb60:	60df 1115 0000      	.insn	6, 0x111560df
    44effb66:	0000                	.insn	2, 0x0000
    44effb68:	64df 1115 0000      	.insn	6, 0x111564df
    44effb6e:	0000                	.insn	2, 0x0000
    44effb70:	68df 1115 0000      	.insn	6, 0x111568df
    44effb76:	0000                	.insn	2, 0x0000
    44effb78:	6cdf 1115 0000      	.insn	6, 0x11156cdf
    44effb7e:	0000                	.insn	2, 0x0000
    44effb80:	70df 1115 0000      	.insn	6, 0x111570df
    44effb86:	0000                	.insn	2, 0x0000
    44effb88:	74df 1115 0000      	.insn	6, 0x111574df
    44effb8e:	0000                	.insn	2, 0x0000
    44effb90:	78df 1115 0000      	.insn	6, 0x111578df
    44effb96:	0000                	.insn	2, 0x0000
    44effb98:	7cdf 1115 0000      	.insn	6, 0x11157cdf
    44effb9e:	0000                	.insn	2, 0x0000
    44effba0:	80df 1115 0000      	.insn	6, 0x111580df
    44effba6:	0000                	.insn	2, 0x0000
    44effba8:	84df 1115 0000      	.insn	6, 0x111584df
    44effbae:	0000                	.insn	2, 0x0000
    44effbb0:	88df 1115 0000      	.insn	6, 0x111588df
    44effbb6:	0000                	.insn	2, 0x0000
    44effbb8:	8cdf 1115 0000      	.insn	6, 0x11158cdf
    44effbbe:	0000                	.insn	2, 0x0000
    44effbc0:	90df 1115 0000      	.insn	6, 0x111590df
    44effbc6:	0000                	.insn	2, 0x0000
    44effbc8:	94df 1115 0000      	.insn	6, 0x111594df
    44effbce:	0000                	.insn	2, 0x0000
    44effbd0:	98df 1115 0000      	.insn	6, 0x111598df
    44effbd6:	0000                	.insn	2, 0x0000
    44effbd8:	9cdf 1115 0000      	.insn	6, 0x11159cdf
    44effbde:	0000                	.insn	2, 0x0000
    44effbe0:	a0df 1115 0000      	.insn	6, 0x1115a0df
    44effbe6:	0000                	.insn	2, 0x0000
    44effbe8:	a4df 1115 0000      	.insn	6, 0x1115a4df
    44effbee:	0000                	.insn	2, 0x0000
    44effbf0:	a8df 1115 0000      	.insn	6, 0x1115a8df
    44effbf6:	0000                	.insn	2, 0x0000
    44effbf8:	acdf 1115 0000      	.insn	6, 0x1115acdf
    44effbfe:	0000                	.insn	2, 0x0000
    44effc00:	b0df 1115 0000      	.insn	6, 0x1115b0df
    44effc06:	0000                	.insn	2, 0x0000
    44effc08:	b4df 1115 0000      	.insn	6, 0x1115b4df
    44effc0e:	0000                	.insn	2, 0x0000
    44effc10:	b8df 1115 0000      	.insn	6, 0x1115b8df
    44effc16:	0000                	.insn	2, 0x0000
    44effc18:	bcdf 1115 0000      	.insn	6, 0x1115bcdf
    44effc1e:	0000                	.insn	2, 0x0000
    44effc20:	c0df 1115 0000      	.insn	6, 0x1115c0df
    44effc26:	0000                	.insn	2, 0x0000
    44effc28:	c4df 1115 0000      	.insn	6, 0x1115c4df
    44effc2e:	0000                	.insn	2, 0x0000
    44effc30:	c8df 1115 0000      	.insn	6, 0x1115c8df
    44effc36:	0000                	.insn	2, 0x0000
    44effc38:	ccdf 1115 0000      	.insn	6, 0x1115ccdf
    44effc3e:	0000                	.insn	2, 0x0000
    44effc40:	d0df 1115 0000      	.insn	6, 0x1115d0df
    44effc46:	0000                	.insn	2, 0x0000
    44effc48:	d4df 1115 0000      	.insn	6, 0x1115d4df
    44effc4e:	0000                	.insn	2, 0x0000
    44effc50:	d8df 1115 0000      	.insn	6, 0x1115d8df
    44effc56:	0000                	.insn	2, 0x0000
    44effc58:	dcdf 1115 0000      	.insn	6, 0x1115dcdf
    44effc5e:	0000                	.insn	2, 0x0000
    44effc60:	e0df 1115 0000      	.insn	6, 0x1115e0df
    44effc66:	0000                	.insn	2, 0x0000
    44effc68:	e4df 1115 0000      	.insn	6, 0x1115e4df
    44effc6e:	0000                	.insn	2, 0x0000
    44effc70:	e8df 1115 0000      	.insn	6, 0x1115e8df
    44effc76:	0000                	.insn	2, 0x0000
    44effc78:	ecdf 1115 0000      	.insn	6, 0x1115ecdf
    44effc7e:	0000                	.insn	2, 0x0000
    44effc80:	f0df 1115 0000      	.insn	6, 0x1115f0df
    44effc86:	0000                	.insn	2, 0x0000
    44effc88:	f4df 1115 0000      	.insn	6, 0x1115f4df
    44effc8e:	0000                	.insn	2, 0x0000
    44effc90:	f8df 1115 0000      	.insn	6, 0x1115f8df
    44effc96:	0000                	.insn	2, 0x0000
    44effc98:	fcdf 1115 0000      	.insn	6, 0x1115fcdf
	...

Disassembly of section .__pagetable_map_os_0x000000004421c000:

000000004421c000 <__pagetable_map_os_0x000000004421c000>:
	...
    4421c0a8:	111804cf          	fnmadd.s	f9,f16,f17,f2,rne
    4421c0ac:	0000                	.insn	2, 0x0000
	...

Disassembly of section .__pagetable_map_os_0x00000000439b0000:

00000000439b0000 <__pagetable_map_os_0x00000000439b0000>:
	...
    439b0440:	113a20cf          	fnmadd.s	f1,f20,f19,f2,rdn
    439b0444:	0000                	.insn	2, 0x0000
	...

Disassembly of section .__pagetable_map_os_0x0000000044608000:

0000000044608000 <__pagetable_map_os_0x0000000044608000>:
	...
    44608ae8:	111818c7          	fmsub.s	f17,f16,f17,f2,rtz
    44608aec:	0000                	.insn	2, 0x0000
	...

Disassembly of section .__pagetable_map_os_0x0000000043ad0000:

0000000043ad0000 <__pagetable_map_os_0x0000000043ad0000>:
    43ad0000:	7001                	.insn	2, 0x7001
    43ad0002:	110d                	.insn	2, 0x110d
	...
    43ad0010:	b801                	.insn	2, 0xb801
    43ad0012:	110d                	.insn	2, 0x110d
    43ad0014:	0000                	.insn	2, 0x0000
    43ad0016:	0000                	.insn	2, 0x0000
    43ad0018:	3801                	.insn	2, 0x3801
    43ad001a:	0000112b          	.insn	4, 0x112b
	...
    43ad08f6:	0000                	.insn	2, 0x0000
    43ad08f8:	6c01                	.insn	2, 0x6c01
    43ad08fa:	1140                	.insn	2, 0x1140
    43ad08fc:	0000                	.insn	2, 0x0000
	...

Disassembly of section .__pagetable_map_os_0x000000004436e000:

000000004436e000 <__pagetable_map_os_0x000000004436e000>:
    4436e000:	1128a8cf          	fnmadd.s	f17,f17,f18,f2,rdn
    4436e004:	0000                	.insn	2, 0x0000
    4436e006:	0000                	.insn	2, 0x0000
    4436e008:	1128accf          	fnmadd.s	f25,f17,f18,f2,rdn
	...
    4436e268:	111868c7          	fmsub.s	f17,f16,f17,f2,unknown
    4436e26c:	0000                	.insn	2, 0x0000
	...

Disassembly of section .__pagetable_map_os_0x000000004501b000:

000000004501b000 <__pagetable_map_os_0x000000004501b000>:
	...
    4501b7a0:	10e3dccf          	fnmadd.s	f25,f7,f14,f2,unknown
    4501b7a4:	0000                	.insn	2, 0x0000
	...

Disassembly of section .__pagetable_map_os_0x000000004435c000:

000000004435c000 <__pagetable_map_os_0x000000004435c000>:
	...
    4435c010:	113a30c7          	fmsub.s	f1,f20,f19,f2,rup
	...
    4435c028:	113c50c7          	fmsub.s	f1,f24,f19,f2,unknown
	...
    4435c0d8:	111864c7          	fmsub.s	f9,f16,f17,f2,unknown
	...
    4435c180:	111878c7          	fmsub.s	f17,f16,f17,f2
	...
    4435c230:	113f24c7          	fmsub.s	f9,f30,f19,f2,rdn
	...
    4435c2c0:	113a98c7          	fmsub.s	f17,f21,f19,f2,rtz
	...
    4435c2d8:	113f08c7          	fmsub.s	f17,f30,f19,f2,rne
	...
    4435cfd8:	113c58c7          	fmsub.s	f17,f24,f19,f2,unknown
    4435cfdc:	0000                	.insn	2, 0x0000
	...

Disassembly of section .__pagetable_map_os_0x0000000044ace000:

0000000044ace000 <__pagetable_map_os_0x0000000044ace000>:
	...
    44ace398:	1140fcc7          	fmsub.s	f25,f1,f20,f2
	...
    44ace6a0:	110eacc7          	fmsub.s	f25,f29,f16,f2,rdn
    44ace6a4:	0000                	.insn	2, 0x0000
	...

Disassembly of section .__pagetable_map_os_0x0000000043a54000:

0000000043a54000 <__pagetable_map_os_0x0000000043a54000>:
	...
    43a54820:	4c01                	.insn	2, 0x4c01
    43a54822:	1118                	.insn	2, 0x1118
    43a54824:	0000                	.insn	2, 0x0000
	...

Disassembly of section .__pagetable_map_os_0x0000000044613000:

0000000044613000 <__pagetable_map_os_0x0000000044613000>:
	...
    44613560:	110a20cf          	fnmadd.s	f1,f20,f16,f2,rdn
    44613564:	0000                	.insn	2, 0x0000
    44613566:	0000                	.insn	2, 0x0000
    44613568:	110a24cf          	fnmadd.s	f9,f20,f16,f2,rdn
    4461356c:	0000                	.insn	2, 0x0000
	...

Disassembly of section .__pagetable_map_os_0x0000000043b4f000:

0000000043b4f000 <__pagetable_map_os_0x0000000043b4f000>:
	...
    43b4f960:	bc01                	.insn	2, 0xbc01
    43b4f962:	113a                	.insn	2, 0x113a
    43b4f964:	0000                	.insn	2, 0x0000
	...

Disassembly of section .__pagetable_map_os_0x0000000044eaf000:

0000000044eaf000 <__pagetable_map_os_0x0000000044eaf000>:
	...
    44eafb18:	113bb4c7          	fmsub.s	f9,f23,f19,f2,rup
    44eafb1c:	0000                	.insn	2, 0x0000
	...

Disassembly of section .__pagetable_map_os_0x0000000044ea7000:

0000000044ea7000 <__pagetable_map_os_0x0000000044ea7000>:
	...
    44ea7cb0:	5001                	.insn	2, 0x5001
    44ea7cb2:	1118                	.insn	2, 0x1118
    44ea7cb4:	0000                	.insn	2, 0x0000
	...

Disassembly of section .__pagetable_map_os_0x0000000044614000:

0000000044614000 <__pagetable_map_os_0x0000000044614000>:
	...
    44614ae0:	113c00c7          	fmsub.s	f1,f24,f19,f2,rne
    44614ae4:	0000                	.insn	2, 0x0000
	...

Disassembly of section .__pagetable_map_os_0x00000000442e8000:

00000000442e8000 <__pagetable_map_os_0x00000000442e8000>:
	...
    442e8a18:	6801                	.insn	2, 0x6801
    442e8a1a:	110a                	.insn	2, 0x110a
    442e8a1c:	0000                	.insn	2, 0x0000
	...

Disassembly of section .__pagetable_map_os_0x000000004429a000:

000000004429a000 <__pagetable_map_os_0x000000004429a000>:
	...
    4429a798:	113c54c7          	fmsub.s	f9,f24,f19,f2,unknown
    4429a79c:	0000                	.insn	2, 0x0000
	...

Disassembly of section .__pagetable_map_os_0x0000000044ade000:

0000000044ade000 <__pagetable_map_os_0x0000000044ade000>:
	...
    44ade718:	ac01                	.insn	2, 0xac01
    44ade71a:	0000113b          	sllw	x2,x0,x0
	...

Disassembly of section .__pagetable_map_os_0x0000000044eeb000:

0000000044eeb000 <__pagetable_map_os_0x0000000044eeb000>:
    44eeb000:	1131dcc7          	fmsub.s	f25,f3,f19,f2,unknown
    44eeb004:	0000                	.insn	2, 0x0000
	...

Disassembly of section .__pagetable_map_os_0x0000000044362000:

0000000044362000 <__pagetable_map_os_0x0000000044362000>:
	...
    44362850:	8801                	.insn	2, 0x8801
    44362852:	113a                	.insn	2, 0x113a
    44362854:	0000                	.insn	2, 0x0000
	...

Disassembly of section .__pagetable_map_os_0x0000000044ea2000:

0000000044ea2000 <__pagetable_map_os_0x0000000044ea2000>:
	...
    44ea2de8:	10e298c7          	fmsub.s	f17,f5,f14,f2,rtz
    44ea2dec:	0000                	.insn	2, 0x0000
	...

Disassembly of section .__pagetable_map_os_0x0000000044b4c000:

0000000044b4c000 <__pagetable_map_os_0x0000000044b4c000>:
	...
    44b4c600:	0001                	.insn	2, 0x0001
    44b4c602:	113e                	.insn	2, 0x113e
    44b4c604:	0000                	.insn	2, 0x0000
	...

Disassembly of section .__pagetable_map_os_0x0000000044f80000:

0000000044f80000 <__pagetable_map_os_0x0000000044f80000>:
	...
    44f80c78:	a001                	.insn	2, 0xa001
    44f80c7a:	10ea                	.insn	2, 0x10ea
    44f80c7c:	0000                	.insn	2, 0x0000
	...

Disassembly of section .__pagetable_map_os_0x0000000043aa8000:

0000000043aa8000 <__pagetable_map_os_0x0000000043aa8000>:
	...
    43aa89e8:	11188ccf          	fnmadd.s	f25,f17,f17,f2,rne
    43aa89ec:	0000                	.insn	2, 0x0000
	...

Disassembly of section .__pagetable_map_os_0x00000000443a5000:

00000000443a5000 <__pagetable_map_os_0x00000000443a5000>:
	...
    443a5620:	b001                	.insn	2, 0xb001
    443a5622:	1128                	.insn	2, 0x1128
    443a5624:	0000                	.insn	2, 0x0000
	...

Disassembly of section .__pagetable_map_os_0x0000000044a2c000:

0000000044a2c000 <__pagetable_map_os_0x0000000044a2c000>:
	...
    44a2cd00:	6801                	.insn	2, 0x6801
    44a2cd02:	113a                	.insn	2, 0x113a
    44a2cd04:	0000                	.insn	2, 0x0000
	...

Disassembly of section .__pagetable_map_os_0x0000000044e9a000:

0000000044e9a000 <__pagetable_map_os_0x0000000044e9a000>:
	...
    44e9a260:	10f798c7          	fmsub.s	f17,f15,f15,f2,rtz
    44e9a264:	0000                	.insn	2, 0x0000
	...

Disassembly of section .__pagetable_map_os_0x0000000044ecd000:

0000000044ecd000 <__pagetable_map_os_0x0000000044ecd000>:
	...
    44ecde90:	1401                	.insn	2, 0x1401
    44ecde92:	1118                	.insn	2, 0x1118
    44ecde94:	0000                	.insn	2, 0x0000
	...

Disassembly of section .__pagetable_map_os_0x0000000044605000:

0000000044605000 <__pagetable_map_os_0x0000000044605000>:
	...
    446059e8:	a401                	.insn	2, 0xa401
    446059ea:	113a                	.insn	2, 0x113a
    446059ec:	0000                	.insn	2, 0x0000
	...

Disassembly of section .__pagetable_map_os_0x0000000044ea9000:

0000000044ea9000 <__pagetable_map_os_0x0000000044ea9000>:
	...
    44ea9648:	113b98c7          	fmsub.s	f17,f23,f19,f2,rtz
    44ea964c:	0000                	.insn	2, 0x0000
	...

Disassembly of section .__pagetable_map_os_0x0000000043a38000:

0000000043a38000 <__pagetable_map_os_0x0000000043a38000>:
	...
    43a38af8:	e001                	.insn	2, 0xe001
    43a38afa:	110a                	.insn	2, 0x110a
    43a38afc:	0000                	.insn	2, 0x0000
	...

Disassembly of section .__pagetable_map_os_0x00000000442b8000:

00000000442b8000 <__pagetable_map_os_0x00000000442b8000>:
	...
    442b8aa0:	7c01                	.insn	2, 0x7c01
    442b8aa2:	000010e7          	.insn	4, 0x10e7
	...

Disassembly of section .__pagetable_map_os_0x00000000439df000:

00000000439df000 <__pagetable_map_os_0x00000000439df000>:
	...
    439df460:	11180cc7          	fmsub.s	f25,f16,f17,f2,rne
    439df464:	0000                	.insn	2, 0x0000
	...

Disassembly of section .__pagetable_map_os_0x000000004461d000:

000000004461d000 <__pagetable_map_os_0x000000004461d000>:
	...
    4461d170:	0401                	.insn	2, 0x0401
    4461d172:	113c                	.insn	2, 0x113c
    4461d174:	0000                	.insn	2, 0x0000
	...

Disassembly of section .__pagetable_map_os_0x0000000044f01000:

0000000044f01000 <__pagetable_map_os_0x0000000044f01000>:
	...
    44f01c78:	0c01                	.insn	2, 0x0c01
    44f01c7a:	00000000113f 	.6byte	0x00000000113f

Disassembly of section .__pagetable_map_os_0x0000000044fc3000:

0000000044fc3000 <__pagetable_map_os_0x0000000044fc3000>:
	...
    44fc39a8:	11186cc7          	fmsub.s	f25,f16,f17,f2,unknown
    44fc39ac:	0000                	.insn	2, 0x0000
	...

Disassembly of section .__pagetable_map_os_0x0000000044eea000:

0000000044eea000 <__pagetable_map_os_0x0000000044eea000>:
	...
    44eea6f0:	f801                	.insn	2, 0xf801
    44eea6f2:	00001133          	sll	x2,x0,x0
	...

Disassembly of section .__pagetable_map_os_0x0000000044cfe000:

0000000044cfe000 <__pagetable_map_os_0x0000000044cfe000>:
	...
    44cfe488:	9c01                	.insn	2, 0x9c01
    44cfe48a:	0000113b          	sllw	x2,x0,x0
	...

Disassembly of section .__pagetable_map_os_0x0000000044ee7000:

0000000044ee7000 <__pagetable_map_os_0x0000000044ee7000>:
	...
    44ee7428:	8c01                	.insn	2, 0x8c01
    44ee742a:	0000110b          	.insn	4, 0x110b
	...

Disassembly of section .__pagetable_map_os_0x00000000442e3000:

00000000442e3000 <__pagetable_map_os_0x00000000442e3000>:
	...
    442e33e0:	110bc4c7          	fmsub.s	f9,f23,f16,f2,rmm
    442e33e4:	0000                	.insn	2, 0x0000
	...

Disassembly of section .__pagetable_map_os_0x0000000044b37000:

0000000044b37000 <__pagetable_map_os_0x0000000044b37000>:
	...
    44b37370:	0801                	.insn	2, 0x0801
    44b37372:	0000111b          	slliw	x2,x0,0x0
	...

Disassembly of section .__pagetable_map_os_0x00000000446c2000:

00000000446c2000 <__pagetable_map_os_0x00000000446c2000>:
	...
    446c25d8:	0801                	.insn	2, 0x0801
    446c25da:	1118                	.insn	2, 0x1118
    446c25dc:	0000                	.insn	2, 0x0000
	...

Disassembly of section .__pagetable_map_os_0x0000000044602000:

0000000044602000 <__pagetable_map_os_0x0000000044602000>:
	...
    44602fd8:	ac01                	.insn	2, 0xac01
    44602fda:	113a                	.insn	2, 0x113a
    44602fdc:	0000                	.insn	2, 0x0000
	...

Disassembly of section .__pagetable_map_os_0x0000000044eab000:

0000000044eab000 <__pagetable_map_os_0x0000000044eab000>:
	...
    44eabdc0:	114100c7          	fmsub.s	f1,f2,f20,f2,rne
    44eabdc4:	0000                	.insn	2, 0x0000
	...

Disassembly of section .__pagetable_map_os_0x0000000044ca3000:

0000000044ca3000 <__pagetable_map_os_0x0000000044ca3000>:
	...
    44ca3308:	d801                	.insn	2, 0xd801
    44ca330a:	000010e3          	bnez	x0,44ca3b0a <__pagetable_map_os_0x0000000044ca3000+0xb0a>
	...
    44ca3716:	0000                	.insn	2, 0x0000
    44ca3718:	a801                	.insn	2, 0xa801
    44ca371a:	111d                	.insn	2, 0x111d
    44ca371c:	0000                	.insn	2, 0x0000
	...

Disassembly of section .__pagetable_map_os_0x000000004476a000:

000000004476a000 <__pagetable_map_os_0x000000004476a000>:
	...
    4476ae58:	ec01                	.insn	2, 0xec01
    4476ae5a:	0000113b          	sllw	x2,x0,x0
	...

Disassembly of section .__pagetable_map_os_0x0000000044efb000:

0000000044efb000 <__pagetable_map_os_0x0000000044efb000>:
	...
    44efba70:	1001                	.insn	2, 0x1001
    44efba72:	00000000113f 	.6byte	0x00000000113f

Disassembly of section .__pagetable_map_os_0x0000000044fc4000:

0000000044fc4000 <__pagetable_map_os_0x0000000044fc4000>:
	...
    44fc4068:	111858c7          	fmsub.s	f17,f16,f17,f2,unknown
    44fc406c:	0000                	.insn	2, 0x0000
	...

Disassembly of section .__pagetable_map_os_0x00000000438f6000:

00000000438f6000 <__pagetable_map_os_0x00000000438f6000>:
	...
    438f6708:	9401                	.insn	2, 0x9401
    438f670a:	113a                	.insn	2, 0x113a
    438f670c:	0000                	.insn	2, 0x0000
	...

Disassembly of section .__pagetable_map_os_0x0000000044ea5000:

0000000044ea5000 <__pagetable_map_os_0x0000000044ea5000>:
	...
    44ea59a8:	8c01                	.insn	2, 0x8c01
    44ea59aa:	112d                	.insn	2, 0x112d
    44ea59ac:	0000                	.insn	2, 0x0000
	...

Disassembly of section .__pagetable_map_os_0x0000000044b63000:

0000000044b63000 <__pagetable_map_os_0x0000000044b63000>:
	...
    44b63dd0:	113f9cc7          	fmsub.s	f25,f31,f19,f2,rtz
    44b63dd4:	0000                	.insn	2, 0x0000
	...

Disassembly of section .__pagetable_map_os_0x0000000043a35000:

0000000043a35000 <__pagetable_map_os_0x0000000043a35000>:
	...
    43a35620:	2801                	.insn	2, 0x2801
    43a35622:	10e5                	.insn	2, 0x10e5
    43a35624:	0000                	.insn	2, 0x0000
	...

Disassembly of section .__pagetable_map_os_0x000000004394a000:

000000004394a000 <__pagetable_map_os_0x000000004394a000>:
	...
    4394a208:	1001                	.insn	2, 0x1001
    4394a20a:	1118                	.insn	2, 0x1118
    4394a20c:	0000                	.insn	2, 0x0000
	...

Disassembly of section .__pagetable_map_os_0x0000000044604000:

0000000044604000 <__pagetable_map_os_0x0000000044604000>:
	...
    44604e18:	d401                	.insn	2, 0xd401
    44604e1a:	1108                	.insn	2, 0x1108
    44604e1c:	0000                	.insn	2, 0x0000
	...

Disassembly of section .__pagetable_map_os_0x0000000044235000:

0000000044235000 <__pagetable_map_os_0x0000000044235000>:
	...
    44235da8:	113c5cc7          	fmsub.s	f25,f24,f19,f2,unknown
    44235dac:	0000                	.insn	2, 0x0000
	...

Disassembly of section .__pagetable_map_os_0x0000000044eaa000:

0000000044eaa000 <__pagetable_map_os_0x0000000044eaa000>:
	...
    44eaa380:	0801                	.insn	2, 0x0801
    44eaa382:	113c                	.insn	2, 0x113c
    44eaa384:	0000                	.insn	2, 0x0000
	...

Disassembly of section .__pagetable_map_os_0x0000000044f02000:

0000000044f02000 <__pagetable_map_os_0x0000000044f02000>:
	...
    44f02c40:	4001                	.insn	2, 0x4001
    44f02c42:	10e8                	.insn	2, 0x10e8
    44f02c44:	0000                	.insn	2, 0x0000
	...

Disassembly of section .__pagetable_map_os_0x0000000043a10000:

0000000043a10000 <__pagetable_map_os_0x0000000043a10000>:
	...
    43a10d80:	c001                	.insn	2, 0xc001
    43a10d82:	000010ef          	jal	43a11d82 <__pagetable_map_os_0x0000000043a10000+0x1d82>
	...

Disassembly of section .__pagetable_map_os_0x0000000043bf0000:

0000000043bf0000 <__pagetable_map_os_0x0000000043bf0000>:
	...
    43bf0970:	111870c7          	fmsub.s	f1,f16,f17,f2
    43bf0974:	0000                	.insn	2, 0x0000
	...
