
/home/abdullah/RiescueC/riescue/10x_R/zicbom_zicboz_zicbop_zic64b/testsuite/zicbom_zicboz_zicbop_zic64b/super_sv48/tp_zicbom_zicboz_zicbop_zic64b_1:     file format elf64-littleriscv


Disassembly of section .runtime:

0000000041000000 <_start>:
    41000000:	00000093          	li	x1,0
    41000004:	00000113          	li	x2,0
    41000008:	00000193          	li	x3,0
    4100000c:	00000213          	li	x4,0
    41000010:	00000293          	li	x5,0
    41000014:	00000313          	li	x6,0
    41000018:	00000393          	li	x7,0
    4100001c:	00000413          	li	x8,0
    41000020:	00000493          	li	x9,0
    41000024:	00000513          	li	x10,0
    41000028:	00000593          	li	x11,0
    4100002c:	00000613          	li	x12,0
    41000030:	00000693          	li	x13,0
    41000034:	00000713          	li	x14,0
    41000038:	00000793          	li	x15,0
    4100003c:	00000813          	li	x16,0
    41000040:	00000893          	li	x17,0
    41000044:	00000913          	li	x18,0
    41000048:	00000993          	li	x19,0
    4100004c:	00000a13          	li	x20,0
    41000050:	00000a93          	li	x21,0
    41000054:	00000b13          	li	x22,0
    41000058:	00000b93          	li	x23,0
    4100005c:	00000c13          	li	x24,0
    41000060:	00000c93          	li	x25,0
    41000064:	00000d13          	li	x26,0
    41000068:	00000d93          	li	x27,0
    4100006c:	00000e13          	li	x28,0
    41000070:	00000e93          	li	x29,0
    41000074:	00000f13          	li	x30,0
    41000078:	00000f93          	li	x31,0

000000004100007c <loader__load_panic_address>:
    4100007c:	00001297          	auipc	x5,0x1
    41000080:	9b828293          	addi	x5,x5,-1608 # 41000a34 <eot__failed>
    41000084:	30529073          	csrw	mtvec,x5

0000000041000088 <loader__initialize_runtime>:
    41000088:	00000293          	li	x5,0
    4100008c:	3012a2f3          	csrrs	x5,misa,x5

0000000041000090 <loader__set_mstatus>:
    41000090:	000402b7          	lui	x5,0x40
    41000094:	00a2829b          	addiw	x5,x5,10 # 4000a <pma_region_0_size+0xa>
    41000098:	3002a2f3          	csrrs	x5,mstatus,x5
    4100009c:	44f38237          	lui	x4,0x44f38
    410000a0:	34021073          	csrw	mscratch,x4

00000000410000a4 <loader__setup_menvcfg>:
    410000a4:	00000297          	auipc	x5,0x0
    410000a8:	47c28293          	addi	x5,x5,1148 # 41000520 <trap_handler_m__trap_entry>
    410000ac:	30529073          	csrw	mtvec,x5

00000000410000b0 <loader__enable_paging>:
    410000b0:	fff900b7          	lui	x1,0xfff90
    410000b4:	0410809b          	addiw	x1,x1,65 # fffffffffff90041 <mem12+0xffffab4f585d3041>
    410000b8:	02009093          	slli	x1,x1,0x20
    410000bc:	04508093          	addi	x1,x1,69
    410000c0:	00c09093          	slli	x1,x1,0xc
    410000c4:	c0408093          	addi	x1,x1,-1020
    410000c8:	18009073          	csrw	satp,x1

00000000410000cc <loader__done>:
    410000cc:	1910006f          	j	41000a5c <scheduler__init>

00000000410000d0 <loader__panic>:
    410000d0:	1650006f          	j	41000a34 <eot__failed>

00000000410000d4 <syscalls__syscall_check_schedule_next_test>:
    410000d4:	00f0029b          	addiw	x5,x0,15
    410000d8:	01c29293          	slli	x5,x5,0x1c
    410000dc:	00128293          	addi	x5,x5,1
    410000e0:	01f29a63          	bne	x5,x31,410000f4 <syscalls__syscall_check_fail_test>
    410000e4:	00000317          	auipc	x6,0x0
    410000e8:	43c30313          	addi	x6,x6,1084 # 41000520 <trap_handler_m__trap_entry>
    410000ec:	30531073          	csrw	mtvec,x6
    410000f0:	6740006f          	j	41000764 <enter_scheduler>

00000000410000f4 <syscalls__syscall_check_fail_test>:
    410000f4:	00f0029b          	addiw	x5,x0,15
    410000f8:	01c29293          	slli	x5,x5,0x1c
    410000fc:	00228293          	addi	x5,x5,2
    41000100:	01f29a63          	bne	x5,x31,41000114 <syscalls__syscall_check_end_test_without_failure>
    41000104:	00000317          	auipc	x6,0x0
    41000108:	41c30313          	addi	x6,x6,1052 # 41000520 <trap_handler_m__trap_entry>
    4100010c:	30531073          	csrw	mtvec,x6
    41000110:	6840006f          	j	41000794 <test_failed>

0000000041000114 <syscalls__syscall_check_end_test_without_failure>:
    41000114:	00f0029b          	addiw	x5,x0,15
    41000118:	01c29293          	slli	x5,x5,0x1c
    4100011c:	00328293          	addi	x5,x5,3
    41000120:	01f29a63          	bne	x5,x31,41000134 <syscalls__syscall_check_switch_machine_mode>
    41000124:	00000317          	auipc	x6,0x0
    41000128:	3fc30313          	addi	x6,x6,1020 # 41000520 <trap_handler_m__trap_entry>
    4100012c:	30531073          	csrw	mtvec,x6
    41000130:	6700006f          	j	410007a0 <os_end_test>

0000000041000134 <syscalls__syscall_check_switch_machine_mode>:
    41000134:	000f02b7          	lui	x5,0xf0
    41000138:	0012829b          	addiw	x5,x5,1 # f0001 <pma_region_0_size+0xb0001>
    4100013c:	00c29293          	slli	x5,x5,0xc
    41000140:	00128293          	addi	x5,x5,1
    41000144:	0a5f8463          	beq	x31,x5,410001ec <syscalls__os_fn_f0001001>

0000000041000148 <syscalls__syscall_check_switch_super_mode>:
    41000148:	000f02b7          	lui	x5,0xf0
    4100014c:	0012829b          	addiw	x5,x5,1 # f0001 <pma_region_0_size+0xb0001>
    41000150:	00c29293          	slli	x5,x5,0xc
    41000154:	00228293          	addi	x5,x5,2
    41000158:	0c5f8063          	beq	x31,x5,41000218 <syscalls__os_fn_f0001002>

000000004100015c <syscalls__syscall_check_switch_user_mode>:
    4100015c:	000f02b7          	lui	x5,0xf0
    41000160:	0012829b          	addiw	x5,x5,1 # f0001 <pma_region_0_size+0xb0001>
    41000164:	00c29293          	slli	x5,x5,0xc
    41000168:	00328293          	addi	x5,x5,3
    4100016c:	0a5f8a63          	beq	x31,x5,41000220 <syscalls__os_fn_f0001003>

0000000041000170 <syscalls__syscall_check_switch_test_mode>:
    41000170:	000f02b7          	lui	x5,0xf0
    41000174:	0012829b          	addiw	x5,x5,1 # f0001 <pma_region_0_size+0xb0001>
    41000178:	00c29293          	slli	x5,x5,0xc
    4100017c:	00428293          	addi	x5,x5,4
    41000180:	0c5f8463          	beq	x31,x5,41000248 <syscalls__os_fn_f0001004>

0000000041000184 <syscalls__syscall_machine_csr_rw>:
    41000184:	000f02b7          	lui	x5,0xf0
    41000188:	0012829b          	addiw	x5,x5,1 # f0001 <pma_region_0_size+0xb0001>
    4100018c:	00c29293          	slli	x5,x5,0xc
    41000190:	00528293          	addi	x5,x5,5
    41000194:	0e5f8063          	beq	x31,x5,41000274 <syscalls__os_fn_f0001005>

0000000041000198 <syscalls__syscall_supervisor_csr_rw>:
    41000198:	000f02b7          	lui	x5,0xf0
    4100019c:	0012829b          	addiw	x5,x5,1 # f0001 <pma_region_0_size+0xb0001>
    410001a0:	00c29293          	slli	x5,x5,0xc
    410001a4:	00628293          	addi	x5,x5,6
    410001a8:	0e5f8c63          	beq	x31,x5,410002a0 <syscalls__os_fn_f0001006>

00000000410001ac <syscalls__syscall_machine_pte_read>:
    410001ac:	000f02b7          	lui	x5,0xf0
    410001b0:	0012829b          	addiw	x5,x5,1 # f0001 <pma_region_0_size+0xb0001>
    410001b4:	00c29293          	slli	x5,x5,0xc
    410001b8:	00728293          	addi	x5,x5,7
    410001bc:	0e5f8663          	beq	x31,x5,410002a8 <syscalls__os_fn_f0001007>

00000000410001c0 <syscalls__syscall_machine_pte_write>:
    410001c0:	000f02b7          	lui	x5,0xf0
    410001c4:	0012829b          	addiw	x5,x5,1 # f0001 <pma_region_0_size+0xb0001>
    410001c8:	00c29293          	slli	x5,x5,0xc
    410001cc:	00828293          	addi	x5,x5,8
    410001d0:	1c5f8263          	beq	x31,x5,41000394 <syscalls__os_fn_f0001008>

00000000410001d4 <syscalls__syscall_check_get_hart_context>:
    410001d4:	000782b7          	lui	x5,0x78
    410001d8:	0012829b          	addiw	x5,x5,1 # 78001 <pma_region_0_size+0x38001>
    410001dc:	00d29293          	slli	x5,x5,0xd
    410001e0:	00128293          	addi	x5,x5,1
    410001e4:	285f8e63          	beq	x31,x5,41000480 <syscalls__os_get_hart_context>
    410001e8:	4940006f          	j	4100067c <trap_handler_m__check_exception_label>

00000000410001ec <syscalls__os_fn_f0001001>:
    410001ec:	000022b7          	lui	x5,0x2
    410001f0:	8002829b          	addiw	x5,x5,-2048 # 1800 <pma_region_1_size+0x800>
    410001f4:	3002b073          	csrc	mstatus,x5
    410001f8:	000022b7          	lui	x5,0x2
    410001fc:	8002829b          	addiw	x5,x5,-2048 # 1800 <pma_region_1_size+0x800>
    41000200:	3002a073          	csrs	mstatus,x5
    41000204:	0010029b          	addiw	x5,x0,1
    41000208:	02729293          	slli	x5,x5,0x27
    4100020c:	3002b073          	csrc	mstatus,x5
    41000210:	411942b7          	lui	x5,0x41194
    41000214:	27c0006f          	j	41000490 <syscalls__ret_from_os_fn>

0000000041000218 <syscalls__os_fn_f0001002>:
    41000218:	410942b7          	lui	x5,0x41094
    4100021c:	2740006f          	j	41000490 <syscalls__ret_from_os_fn>

0000000041000220 <syscalls__os_fn_f0001003>:
    41000220:	000022b7          	lui	x5,0x2
    41000224:	8002829b          	addiw	x5,x5,-2048 # 1800 <pma_region_1_size+0x800>
    41000228:	3002b073          	csrc	mstatus,x5
    4100022c:	00000293          	li	x5,0
    41000230:	3002a073          	csrs	mstatus,x5
    41000234:	0010029b          	addiw	x5,x0,1
    41000238:	02729293          	slli	x5,x5,0x27
    4100023c:	3002b073          	csrc	mstatus,x5
    41000240:	411142b7          	lui	x5,0x41114
    41000244:	24c0006f          	j	41000490 <syscalls__ret_from_os_fn>

0000000041000248 <syscalls__os_fn_f0001004>:
    41000248:	000022b7          	lui	x5,0x2
    4100024c:	8002829b          	addiw	x5,x5,-2048 # 1800 <pma_region_1_size+0x800>
    41000250:	3002b073          	csrc	mstatus,x5
    41000254:	000012b7          	lui	x5,0x1
    41000258:	8002829b          	addiw	x5,x5,-2048 # 800 <XLEN+0x7c0>
    4100025c:	3002a073          	csrs	mstatus,x5
    41000260:	0010029b          	addiw	x5,x0,1
    41000264:	02729293          	slli	x5,x5,0x27
    41000268:	3002b073          	csrc	mstatus,x5
    4100026c:	17823283          	ld	x5,376(x4) # 44f38178 <__section_hart_context+0x178>
    41000270:	2200006f          	j	41000490 <syscalls__ret_from_os_fn>

0000000041000274 <syscalls__os_fn_f0001005>:
    41000274:	000022b7          	lui	x5,0x2
    41000278:	8002829b          	addiw	x5,x5,-2048 # 1800 <pma_region_1_size+0x800>
    4100027c:	3002b073          	csrc	mstatus,x5
    41000280:	000022b7          	lui	x5,0x2
    41000284:	8002829b          	addiw	x5,x5,-2048 # 1800 <pma_region_1_size+0x800>
    41000288:	3002a073          	csrs	mstatus,x5
    4100028c:	0010029b          	addiw	x5,x0,1
    41000290:	02729293          	slli	x5,x5,0x27
    41000294:	3002b073          	csrc	mstatus,x5
    41000298:	412142b7          	lui	x5,0x41214
    4100029c:	1f40006f          	j	41000490 <syscalls__ret_from_os_fn>

00000000410002a0 <syscalls__os_fn_f0001006>:
    410002a0:	412152b7          	lui	x5,0x41215
    410002a4:	1ec0006f          	j	41000490 <syscalls__ret_from_os_fn>

00000000410002a8 <syscalls__os_fn_f0001007>:
    410002a8:	44da2fb7          	lui	x31,0x44da2
    410002ac:	0c8f8f9b          	addiw	x31,x31,200 # 44da20c8 <pte_access_flags_pa>
    410002b0:	000fbf83          	ld	x31,0(x31)
    410002b4:	44da22b7          	lui	x5,0x44da2
    410002b8:	0d02829b          	addiw	x5,x5,208 # 44da20d0 <pte_access_flags_pa+0x8>
    410002bc:	0002b283          	ld	x5,0(x5)
    410002c0:	44da2e37          	lui	x28,0x44da2
    410002c4:	0d8e0e1b          	addiw	x28,x28,216 # 44da20d8 <pte_access_flags_pa+0x10>
    410002c8:	000e3e03          	ld	x28,0(x28)

00000000410002cc <syscalls__pte_walk_check_glevel_without_gstage_read>:
    410002cc:	fff00f93          	li	x31,-1
    410002d0:	0dfe1063          	bne	x28,x31,41000390 <syscalls__pte_walk_fail_read>
    410002d4:	18002373          	csrr	x6,satp
    410002d8:	03c35e93          	srli	x29,x6,0x3c
    410002dc:	01431313          	slli	x6,x6,0x14
    410002e0:	01435313          	srli	x6,x6,0x14
    410002e4:	00c31313          	slli	x6,x6,0xc
    410002e8:	ff8e8e93          	addi	x29,x29,-8
    410002ec:	003e9f13          	slli	x30,x29,0x3
    410002f0:	01df0eb3          	add	x29,x30,x29
    410002f4:	01ee8e93          	addi	x29,x29,30
    410002f8:	00000f13          	li	x30,0

00000000410002fc <syscalls__pte_walk_loop_read>:
    410002fc:	44da2fb7          	lui	x31,0x44da2
    41000300:	0c8f8f9b          	addiw	x31,x31,200 # 44da20c8 <pte_access_flags_pa>
    41000304:	000fbf83          	ld	x31,0(x31)
    41000308:	01dfdfb3          	srl	x31,x31,x29
    4100030c:	1fffff93          	andi	x31,x31,511
    41000310:	003f9f93          	slli	x31,x31,0x3
    41000314:	01f30333          	add	x6,x6,x31
    41000318:	005f0e63          	beq	x30,x5,41000334 <syscalls__pte_walk_done_read>
    4100031c:	00033f83          	ld	x31,0(x6)
    41000320:	00afdf93          	srli	x31,x31,0xa
    41000324:	00cf9313          	slli	x6,x31,0xc
    41000328:	001f0f13          	addi	x30,x30,1
    4100032c:	ff7e8e93          	addi	x29,x29,-9
    41000330:	fcdff06f          	j	410002fc <syscalls__pte_walk_loop_read>

0000000041000334 <syscalls__pte_walk_done_read>:
    41000334:	fff00f93          	li	x31,-1
    41000338:	05fe0263          	beq	x28,x31,4100037c <syscalls__pte_walk_final_read>

000000004100033c <syscalls__pte_walk_gstage_read>:
    4100033c:	44da2fb7          	lui	x31,0x44da2
    41000340:	0c8f8f9b          	addiw	x31,x31,200 # 44da20c8 <pte_access_flags_pa>
    41000344:	006fb023          	sd	x6,0(x31)
    41000348:	000e0293          	mv	x5,x28
    4100034c:	fff00e13          	li	x28,-1
    41000350:	68002373          	csrr	x6,hgatp
    41000354:	03c35e93          	srli	x29,x6,0x3c
    41000358:	01431313          	slli	x6,x6,0x14
    4100035c:	01435313          	srli	x6,x6,0x14
    41000360:	00c31313          	slli	x6,x6,0xc
    41000364:	ff8e8e93          	addi	x29,x29,-8
    41000368:	003e9f13          	slli	x30,x29,0x3
    4100036c:	01df0eb3          	add	x29,x30,x29
    41000370:	01ee8e93          	addi	x29,x29,30
    41000374:	00000f13          	li	x30,0
    41000378:	f85ff06f          	j	410002fc <syscalls__pte_walk_loop_read>

000000004100037c <syscalls__pte_walk_final_read>:
    4100037c:	00033383          	ld	x7,0(x6)
    41000380:	341022f3          	csrr	x5,mepc
    41000384:	00428293          	addi	x5,x5,4
    41000388:	16523c23          	sd	x5,376(x4) # 178 <XLEN+0x138>
    4100038c:	ebdff06f          	j	41000248 <syscalls__os_fn_f0001004>

0000000041000390 <syscalls__pte_walk_fail_read>:
    41000390:	4040006f          	j	41000794 <test_failed>

0000000041000394 <syscalls__os_fn_f0001008>:
    41000394:	44da2fb7          	lui	x31,0x44da2
    41000398:	0c8f8f9b          	addiw	x31,x31,200 # 44da20c8 <pte_access_flags_pa>
    4100039c:	000fbf83          	ld	x31,0(x31)
    410003a0:	44da22b7          	lui	x5,0x44da2
    410003a4:	0d02829b          	addiw	x5,x5,208 # 44da20d0 <pte_access_flags_pa+0x8>
    410003a8:	0002b283          	ld	x5,0(x5)
    410003ac:	44da2e37          	lui	x28,0x44da2
    410003b0:	0d8e0e1b          	addiw	x28,x28,216 # 44da20d8 <pte_access_flags_pa+0x10>
    410003b4:	000e3e03          	ld	x28,0(x28)

00000000410003b8 <syscalls__pte_walk_check_glevel_without_gstage_write>:
    410003b8:	fff00f93          	li	x31,-1
    410003bc:	0dfe1063          	bne	x28,x31,4100047c <syscalls__pte_walk_fail_write>
    410003c0:	18002373          	csrr	x6,satp
    410003c4:	03c35e93          	srli	x29,x6,0x3c
    410003c8:	01431313          	slli	x6,x6,0x14
    410003cc:	01435313          	srli	x6,x6,0x14
    410003d0:	00c31313          	slli	x6,x6,0xc
    410003d4:	ff8e8e93          	addi	x29,x29,-8
    410003d8:	003e9f13          	slli	x30,x29,0x3
    410003dc:	01df0eb3          	add	x29,x30,x29
    410003e0:	01ee8e93          	addi	x29,x29,30
    410003e4:	00000f13          	li	x30,0

00000000410003e8 <syscalls__pte_walk_loop_write>:
    410003e8:	44da2fb7          	lui	x31,0x44da2
    410003ec:	0c8f8f9b          	addiw	x31,x31,200 # 44da20c8 <pte_access_flags_pa>
    410003f0:	000fbf83          	ld	x31,0(x31)
    410003f4:	01dfdfb3          	srl	x31,x31,x29
    410003f8:	1fffff93          	andi	x31,x31,511
    410003fc:	003f9f93          	slli	x31,x31,0x3
    41000400:	01f30333          	add	x6,x6,x31
    41000404:	005f0e63          	beq	x30,x5,41000420 <syscalls__pte_walk_done_write>
    41000408:	00033f83          	ld	x31,0(x6)
    4100040c:	00afdf93          	srli	x31,x31,0xa
    41000410:	00cf9313          	slli	x6,x31,0xc
    41000414:	001f0f13          	addi	x30,x30,1
    41000418:	ff7e8e93          	addi	x29,x29,-9
    4100041c:	fcdff06f          	j	410003e8 <syscalls__pte_walk_loop_write>

0000000041000420 <syscalls__pte_walk_done_write>:
    41000420:	fff00f93          	li	x31,-1
    41000424:	05fe0263          	beq	x28,x31,41000468 <syscalls__pte_walk_final_write>

0000000041000428 <syscalls__pte_walk_gstage_write>:
    41000428:	44da2fb7          	lui	x31,0x44da2
    4100042c:	0c8f8f9b          	addiw	x31,x31,200 # 44da20c8 <pte_access_flags_pa>
    41000430:	006fb023          	sd	x6,0(x31)
    41000434:	000e0293          	mv	x5,x28
    41000438:	fff00e13          	li	x28,-1
    4100043c:	68002373          	csrr	x6,hgatp
    41000440:	03c35e93          	srli	x29,x6,0x3c
    41000444:	01431313          	slli	x6,x6,0x14
    41000448:	01435313          	srli	x6,x6,0x14
    4100044c:	00c31313          	slli	x6,x6,0xc
    41000450:	ff8e8e93          	addi	x29,x29,-8
    41000454:	003e9f13          	slli	x30,x29,0x3
    41000458:	01df0eb3          	add	x29,x30,x29
    4100045c:	01ee8e93          	addi	x29,x29,30
    41000460:	00000f13          	li	x30,0
    41000464:	f85ff06f          	j	410003e8 <syscalls__pte_walk_loop_write>

0000000041000468 <syscalls__pte_walk_final_write>:
    41000468:	00733023          	sd	x7,0(x6)
    4100046c:	341022f3          	csrr	x5,mepc
    41000470:	00428293          	addi	x5,x5,4
    41000474:	16523c23          	sd	x5,376(x4) # 178 <XLEN+0x138>
    41000478:	dd1ff06f          	j	41000248 <syscalls__os_fn_f0001004>

000000004100047c <syscalls__pte_walk_fail_write>:
    4100047c:	3180006f          	j	41000794 <test_failed>

0000000041000480 <syscalls__os_get_hart_context>:
    41000480:	14002573          	csrr	x10,sscratch
    41000484:	341022f3          	csrr	x5,mepc
    41000488:	00428293          	addi	x5,x5,4
    4100048c:	0040006f          	j	41000490 <syscalls__ret_from_os_fn>

0000000041000490 <syscalls__ret_from_os_fn>:
    41000490:	34102373          	csrr	x6,mepc
    41000494:	00430313          	addi	x6,x6,4
    41000498:	16623c23          	sd	x6,376(x4) # 178 <XLEN+0x138>
    4100049c:	34129073          	csrw	mepc,x5
    410004a0:	fff00f93          	li	x31,-1
    410004a4:	2a40006f          	j	41000748 <trap_handler_m__skip_xepc_write>

00000000410004a8 <trap_handler_m__invalid_interrupt>:
    410004a8:	2ec0006f          	j	41000794 <test_failed>

00000000410004ac <trap_handler_m__clear_all_interrupts>:
    410004ac:	34401073          	csrw	mip,x0
    410004b0:	30200073          	mret

00000000410004b4 <trap_handler_m___CLEAR_SSI>:
    410004b4:	00200293          	li	x5,2
    410004b8:	3442b073          	csrc	mip,x5
    410004bc:	30200073          	mret

00000000410004c0 <trap_handler_m___CLEAR_MSI>:
    410004c0:	00800293          	li	x5,8
    410004c4:	3442b073          	csrc	mip,x5
    410004c8:	30200073          	mret

00000000410004cc <trap_handler_m___CLEAR_STI>:
    410004cc:	02000293          	li	x5,32
    410004d0:	3442b073          	csrc	mip,x5
    410004d4:	30200073          	mret

00000000410004d8 <trap_handler_m___CLEAR_MTI>:
    410004d8:	08000293          	li	x5,128
    410004dc:	3442b073          	csrc	mip,x5
    410004e0:	30200073          	mret

00000000410004e4 <trap_handler_m___CLEAR_SEI>:
    410004e4:	20000293          	li	x5,512
    410004e8:	3442b073          	csrc	mip,x5
    410004ec:	30200073          	mret

00000000410004f0 <trap_handler_m___CLEAR_MEI>:
    410004f0:	000012b7          	lui	x5,0x1
    410004f4:	8002829b          	addiw	x5,x5,-2048 # 800 <XLEN+0x7c0>
    410004f8:	3442b073          	csrc	mip,x5
    410004fc:	30200073          	mret

0000000041000500 <trap_handler_m___CLEAR_COI>:
    41000500:	000022b7          	lui	x5,0x2
    41000504:	3442b073          	csrc	mip,x5
    41000508:	30200073          	mret

000000004100050c <trap_handler_m__clear_highest_priority_interrupt>:
    4100050c:	344022f3          	csrr	x5,mip
    41000510:	40500333          	neg	x6,x5
    41000514:	0062f2b3          	and	x5,x5,x6
    41000518:	3442b073          	csrc	mip,x5
    4100051c:	30200073          	mret

0000000041000520 <trap_handler_m__trap_entry>:
    41000520:	0fc0006f          	j	4100061c <trap_handler_m__trap_handler>

0000000041000524 <trap_handler_m__interrupt_vector_table>:
    41000524:	f91ff06f          	j	410004b4 <trap_handler_m___CLEAR_SSI>
    41000528:	f81ff06f          	j	410004a8 <trap_handler_m__invalid_interrupt>
    4100052c:	f95ff06f          	j	410004c0 <trap_handler_m___CLEAR_MSI>
    41000530:	f79ff06f          	j	410004a8 <trap_handler_m__invalid_interrupt>
    41000534:	f99ff06f          	j	410004cc <trap_handler_m___CLEAR_STI>
    41000538:	f71ff06f          	j	410004a8 <trap_handler_m__invalid_interrupt>
    4100053c:	f9dff06f          	j	410004d8 <trap_handler_m___CLEAR_MTI>
    41000540:	f69ff06f          	j	410004a8 <trap_handler_m__invalid_interrupt>
    41000544:	fa1ff06f          	j	410004e4 <trap_handler_m___CLEAR_SEI>
    41000548:	f61ff06f          	j	410004a8 <trap_handler_m__invalid_interrupt>
    4100054c:	fa5ff06f          	j	410004f0 <trap_handler_m___CLEAR_MEI>
    41000550:	f59ff06f          	j	410004a8 <trap_handler_m__invalid_interrupt>
    41000554:	fadff06f          	j	41000500 <trap_handler_m___CLEAR_COI>
    41000558:	f51ff06f          	j	410004a8 <trap_handler_m__invalid_interrupt>
    4100055c:	f4dff06f          	j	410004a8 <trap_handler_m__invalid_interrupt>
    41000560:	fadff06f          	j	4100050c <trap_handler_m__clear_highest_priority_interrupt>
    41000564:	fa9ff06f          	j	4100050c <trap_handler_m__clear_highest_priority_interrupt>
    41000568:	fa5ff06f          	j	4100050c <trap_handler_m__clear_highest_priority_interrupt>
    4100056c:	fa1ff06f          	j	4100050c <trap_handler_m__clear_highest_priority_interrupt>
    41000570:	f9dff06f          	j	4100050c <trap_handler_m__clear_highest_priority_interrupt>
    41000574:	f99ff06f          	j	4100050c <trap_handler_m__clear_highest_priority_interrupt>
    41000578:	f95ff06f          	j	4100050c <trap_handler_m__clear_highest_priority_interrupt>
    4100057c:	f91ff06f          	j	4100050c <trap_handler_m__clear_highest_priority_interrupt>
    41000580:	f8dff06f          	j	4100050c <trap_handler_m__clear_highest_priority_interrupt>
    41000584:	f89ff06f          	j	4100050c <trap_handler_m__clear_highest_priority_interrupt>
    41000588:	f85ff06f          	j	4100050c <trap_handler_m__clear_highest_priority_interrupt>
    4100058c:	f81ff06f          	j	4100050c <trap_handler_m__clear_highest_priority_interrupt>
    41000590:	f7dff06f          	j	4100050c <trap_handler_m__clear_highest_priority_interrupt>
    41000594:	f79ff06f          	j	4100050c <trap_handler_m__clear_highest_priority_interrupt>
    41000598:	f75ff06f          	j	4100050c <trap_handler_m__clear_highest_priority_interrupt>
    4100059c:	f71ff06f          	j	4100050c <trap_handler_m__clear_highest_priority_interrupt>
    410005a0:	f6dff06f          	j	4100050c <trap_handler_m__clear_highest_priority_interrupt>
    410005a4:	f69ff06f          	j	4100050c <trap_handler_m__clear_highest_priority_interrupt>
    410005a8:	f65ff06f          	j	4100050c <trap_handler_m__clear_highest_priority_interrupt>
    410005ac:	f61ff06f          	j	4100050c <trap_handler_m__clear_highest_priority_interrupt>
    410005b0:	f5dff06f          	j	4100050c <trap_handler_m__clear_highest_priority_interrupt>
    410005b4:	f59ff06f          	j	4100050c <trap_handler_m__clear_highest_priority_interrupt>
    410005b8:	f55ff06f          	j	4100050c <trap_handler_m__clear_highest_priority_interrupt>
    410005bc:	f51ff06f          	j	4100050c <trap_handler_m__clear_highest_priority_interrupt>
    410005c0:	f4dff06f          	j	4100050c <trap_handler_m__clear_highest_priority_interrupt>
    410005c4:	f49ff06f          	j	4100050c <trap_handler_m__clear_highest_priority_interrupt>
    410005c8:	f45ff06f          	j	4100050c <trap_handler_m__clear_highest_priority_interrupt>
    410005cc:	f41ff06f          	j	4100050c <trap_handler_m__clear_highest_priority_interrupt>
    410005d0:	f3dff06f          	j	4100050c <trap_handler_m__clear_highest_priority_interrupt>
    410005d4:	f39ff06f          	j	4100050c <trap_handler_m__clear_highest_priority_interrupt>
    410005d8:	f35ff06f          	j	4100050c <trap_handler_m__clear_highest_priority_interrupt>
    410005dc:	f31ff06f          	j	4100050c <trap_handler_m__clear_highest_priority_interrupt>
    410005e0:	f2dff06f          	j	4100050c <trap_handler_m__clear_highest_priority_interrupt>
    410005e4:	f29ff06f          	j	4100050c <trap_handler_m__clear_highest_priority_interrupt>
    410005e8:	f25ff06f          	j	4100050c <trap_handler_m__clear_highest_priority_interrupt>
    410005ec:	f21ff06f          	j	4100050c <trap_handler_m__clear_highest_priority_interrupt>
    410005f0:	f1dff06f          	j	4100050c <trap_handler_m__clear_highest_priority_interrupt>
    410005f4:	f19ff06f          	j	4100050c <trap_handler_m__clear_highest_priority_interrupt>
    410005f8:	f15ff06f          	j	4100050c <trap_handler_m__clear_highest_priority_interrupt>
    410005fc:	f11ff06f          	j	4100050c <trap_handler_m__clear_highest_priority_interrupt>
    41000600:	f0dff06f          	j	4100050c <trap_handler_m__clear_highest_priority_interrupt>
    41000604:	f09ff06f          	j	4100050c <trap_handler_m__clear_highest_priority_interrupt>
    41000608:	f05ff06f          	j	4100050c <trap_handler_m__clear_highest_priority_interrupt>
    4100060c:	f01ff06f          	j	4100050c <trap_handler_m__clear_highest_priority_interrupt>
    41000610:	efdff06f          	j	4100050c <trap_handler_m__clear_highest_priority_interrupt>
    41000614:	ef9ff06f          	j	4100050c <trap_handler_m__clear_highest_priority_interrupt>
    41000618:	ef5ff06f          	j	4100050c <trap_handler_m__clear_highest_priority_interrupt>

000000004100061c <trap_handler_m__trap_handler>:
    4100061c:	342022f3          	csrr	x5,mcause
    41000620:	fff0031b          	addiw	x6,x0,-1
    41000624:	03f31313          	slli	x6,x6,0x3f
    41000628:	00537333          	and	x6,x6,x5
    4100062c:	02030263          	beqz	x6,41000650 <trap_handler_m__exception_path>

0000000041000630 <trap_handler_m__interrupt_handler>:
    41000630:	fff0031b          	addiw	x6,x0,-1
    41000634:	03f31313          	slli	x6,x6,0x3f
    41000638:	0062c2b3          	xor	x5,x5,x6
    4100063c:	00000317          	auipc	x6,0x0
    41000640:	ee430313          	addi	x6,x6,-284 # 41000520 <trap_handler_m__trap_entry>
    41000644:	00229293          	slli	x5,x5,0x2
    41000648:	005302b3          	add	x5,x6,x5
    4100064c:	00028067          	jr	x5 # 2000 <SID_ZICBO_047_stack>

0000000041000650 <trap_handler_m__exception_path>:
    41000650:	34021273          	csrrw	x4,mscratch,x4
    41000654:	00000297          	auipc	x5,0x0
    41000658:	10828293          	addi	x5,x5,264 # 4100075c <trap_handler_m__trap_panic>
    4100065c:	30529073          	csrw	mtvec,x5
    41000660:	0040006f          	j	41000664 <trap_handler_m__excp_entry>

0000000041000664 <trap_handler_m__excp_entry>:
    41000664:	34202373          	csrr	x6,mcause
    41000668:	00800293          	li	x5,8
    4100066c:	00534863          	blt	x6,x5,4100067c <trap_handler_m__check_exception_label>
    41000670:	00b00293          	li	x5,11
    41000674:	0062c463          	blt	x5,x6,4100067c <trap_handler_m__check_exception_label>
    41000678:	a5dff06f          	j	410000d4 <syscalls__syscall_check_schedule_next_test>

000000004100067c <trap_handler_m__check_exception_label>:
    4100067c:	04623c23          	sd	x6,88(x4) # 58 <XLEN+0x18>
    41000680:	341022f3          	csrr	x5,mepc
    41000684:	02523423          	sd	x5,40(x4) # 28 <SECURE_ACCESS_PROBABILITY+0xa>
    41000688:	01820283          	lb	x5,24(x4) # 18 <STORE_GUEST_PAGE_FAULT+0x1>
    4100068c:	00029863          	bnez	x5,4100069c <trap_handler_m__check_excp>
    41000690:	00128293          	addi	x5,x5,1
    41000694:	00520c23          	sb	x5,24(x4) # 18 <STORE_GUEST_PAGE_FAULT+0x1>
    41000698:	0980006f          	j	41000730 <trap_handler_m__ecall_from_machine>

000000004100069c <trap_handler_m__check_excp>:
    4100069c:	06823283          	ld	x5,104(x4) # 68 <XLEN+0x28>
    410006a0:	06023423          	sd	x0,104(x4) # 68 <XLEN+0x28>
    410006a4:	00028663          	beqz	x5,410006b0 <trap_handler_m__skip_mode_check>
    410006a8:	00100393          	li	x7,1
    410006ac:	0e729463          	bne	x5,x7,41000794 <test_failed>

00000000410006b0 <trap_handler_m__skip_mode_check>:
    410006b0:	05023283          	ld	x5,80(x4) # 50 <XLEN+0x10>
    410006b4:	04023823          	sd	x0,80(x4) # 50 <XLEN+0x10>
    410006b8:	0c531e63          	bne	x6,x5,41000794 <test_failed>
    410006bc:	03823283          	ld	x5,56(x4) # 38 <SECURE_ACCESS_PROBABILITY+0x1a>
    410006c0:	02023c23          	sd	x0,56(x4) # 38 <SECURE_ACCESS_PROBABILITY+0x1a>
    410006c4:	06029463          	bnez	x5,4100072c <trap_handler_m__skip_gva_check>
    410006c8:	02023303          	ld	x6,32(x4) # 20 <SECURE_ACCESS_PROBABILITY+0x2>
    410006cc:	02023023          	sd	x0,32(x4) # 20 <SECURE_ACCESS_PROBABILITY+0x2>
    410006d0:	02823283          	ld	x5,40(x4) # 28 <SECURE_ACCESS_PROBABILITY+0xa>
    410006d4:	02023423          	sd	x0,40(x4) # 28 <SECURE_ACCESS_PROBABILITY+0xa>
    410006d8:	0a531e63          	bne	x6,x5,41000794 <test_failed>
    410006dc:	04023283          	ld	x5,64(x4) # 40 <XLEN>
    410006e0:	04023023          	sd	x0,64(x4) # 40 <XLEN>
    410006e4:	00028663          	beqz	x5,410006f0 <trap_handler_m__skip_nonzero_tval_check>

00000000410006e8 <trap_handler_m__nonzero_tval_check>:
    410006e8:	34302373          	csrr	x6,mtval
    410006ec:	0a531463          	bne	x6,x5,41000794 <test_failed>

00000000410006f0 <trap_handler_m__skip_nonzero_tval_check>:
    410006f0:	04823283          	ld	x5,72(x4) # 48 <XLEN+0x8>
    410006f4:	04023423          	sd	x0,72(x4) # 48 <XLEN+0x8>
    410006f8:	00028663          	beqz	x5,41000704 <trap_handler_m__skip_nonzero_htval_check>

00000000410006fc <trap_handler_m__nonzero_htval_check>:
    410006fc:	34b02373          	csrr	x6,0x34b
    41000700:	08531a63          	bne	x6,x5,41000794 <test_failed>

0000000041000704 <trap_handler_m__skip_nonzero_htval_check>:
    41000704:	06023283          	ld	x5,96(x4) # 60 <XLEN+0x20>
    41000708:	06023023          	sd	x0,96(x4) # 60 <XLEN+0x20>
    4100070c:	02028063          	beqz	x5,4100072c <trap_handler_m__skip_gva_check>

0000000041000710 <trap_handler_m__gva_check>:
    41000710:	30002373          	csrr	x6,mstatus
    41000714:	02635313          	srli	x6,x6,0x26
    41000718:	00137313          	andi	x6,x6,1
    4100071c:	06030c63          	beqz	x6,41000794 <test_failed>
    41000720:	0010031b          	addiw	x6,x0,1
    41000724:	02631313          	slli	x6,x6,0x26
    41000728:	30033073          	csrc	mstatus,x6

000000004100072c <trap_handler_m__skip_gva_check>:
    4100072c:	0040006f          	j	41000730 <trap_handler_m__ecall_from_machine>

0000000041000730 <trap_handler_m__ecall_from_machine>:
    41000730:	03023283          	ld	x5,48(x4) # 30 <SECURE_ACCESS_PROBABILITY+0x12>
    41000734:	02023823          	sd	x0,48(x4) # 30 <SECURE_ACCESS_PROBABILITY+0x12>
    41000738:	07023303          	ld	x6,112(x4) # 70 <XLEN+0x30>
    4100073c:	06023823          	sd	x0,112(x4) # 70 <XLEN+0x30>
    41000740:	00031463          	bnez	x6,41000748 <trap_handler_m__skip_xepc_write>
    41000744:	34129073          	csrw	mepc,x5

0000000041000748 <trap_handler_m__skip_xepc_write>:
    41000748:	00000317          	auipc	x6,0x0
    4100074c:	dd830313          	addi	x6,x6,-552 # 41000520 <trap_handler_m__trap_entry>
    41000750:	30531073          	csrw	mtvec,x6
    41000754:	34021273          	csrrw	x4,mscratch,x4
    41000758:	30200073          	mret

000000004100075c <trap_handler_m__trap_panic>:
    4100075c:	00000193          	li	x3,0
    41000760:	2b00006f          	j	41000a10 <eot__end_test>

0000000041000764 <enter_scheduler>:
    41000764:	0002f337          	lui	x6,0x2f
    41000768:	ab73031b          	addiw	x6,x6,-1353 # 2eab7 <mem8+0x1aab7>
    4100076c:	00e31313          	slli	x6,x6,0xe
    41000770:	0de30313          	addi	x6,x6,222
    41000774:	02628063          	beq	x5,x6,41000794 <test_failed>
    41000778:	00000513          	li	x10,0
    4100077c:	030000ef          	jal	410007ac <rvcp_print_test_result>
    41000780:	3140006f          	j	41000a94 <scheduler__dispatch>

0000000041000784 <test_passed>:
    41000784:	34021273          	csrrw	x4,mscratch,x4
    41000788:	00000513          	li	x10,0
    4100078c:	020000ef          	jal	410007ac <rvcp_print_test_result>
    41000790:	3040006f          	j	41000a94 <scheduler__dispatch>

0000000041000794 <test_failed>:
    41000794:	34021273          	csrrw	x4,mscratch,x4
    41000798:	00300193          	li	x3,3
    4100079c:	2740006f          	j	41000a10 <eot__end_test>

00000000410007a0 <os_end_test>:
    410007a0:	34021273          	csrrw	x4,mscratch,x4
    410007a4:	00100193          	li	x3,1
    410007a8:	2680006f          	j	41000a10 <eot__end_test>

00000000410007ac <rvcp_print_test_result>:
    410007ac:	00050e13          	mv	x28,x10
    410007b0:	18823283          	ld	x5,392(x4) # 188 <XLEN+0x148>
    410007b4:	0010031b          	addiw	x6,x0,1
    410007b8:	02031313          	slli	x6,x6,0x20
    410007bc:	ffe30313          	addi	x6,x6,-2
    410007c0:	1c628063          	beq	x5,x6,41000980 <rvcp_print_test_result+0x1d4>
    410007c4:	0010031b          	addiw	x6,x0,1
    410007c8:	02031313          	slli	x6,x6,0x20
    410007cc:	fff30313          	addi	x6,x6,-1
    410007d0:	1a628863          	beq	x5,x6,41000980 <rvcp_print_test_result+0x1d4>
    410007d4:	1a02c663          	bltz	x5,41000980 <rvcp_print_test_result+0x1d4>
    410007d8:	00000317          	auipc	x6,0x0
    410007dc:	4c430313          	addi	x6,x6,1220 # 41000c9c <dtest_descriptor_table>
    410007e0:	00329393          	slli	x7,x5,0x3
    410007e4:	00730333          	add	x6,x6,x7
    410007e8:	00033e83          	ld	x29,0(x6)
    410007ec:	44da2f37          	lui	x30,0x44da2
    410007f0:	030f0f1b          	addiw	x30,x30,48 # 44da2030 <rvcp_prefix_str_pa>
    410007f4:	000f4283          	lbu	x5,0(x30)
    410007f8:	02028663          	beqz	x5,41000824 <rvcp_print_test_result+0x78>
    410007fc:	1010031b          	addiw	x6,x0,257
    41000800:	03031313          	slli	x6,x6,0x30
    41000804:	005362b3          	or	x5,x6,x5
    41000808:	0003f317          	auipc	x6,0x3f
    4100080c:	7f830313          	addi	x6,x6,2040 # 41040000 <tohost>
    41000810:	00033383          	ld	x7,0(x6)
    41000814:	fe039ee3          	bnez	x7,41000810 <rvcp_print_test_result+0x64>
    41000818:	00533023          	sd	x5,0(x6)
    4100081c:	001f0f13          	addi	x30,x30,1
    41000820:	fd5ff06f          	j	410007f4 <rvcp_print_test_result+0x48>
    41000824:	44da2f37          	lui	x30,0x44da2
    41000828:	041f0f1b          	addiw	x30,x30,65 # 44da2041 <rvcp_testname_str_pa>
    4100082c:	000f4283          	lbu	x5,0(x30)
    41000830:	02028663          	beqz	x5,4100085c <rvcp_print_test_result+0xb0>
    41000834:	1010031b          	addiw	x6,x0,257
    41000838:	03031313          	slli	x6,x6,0x30
    4100083c:	005362b3          	or	x5,x6,x5
    41000840:	0003f317          	auipc	x6,0x3f
    41000844:	7c030313          	addi	x6,x6,1984 # 41040000 <tohost>
    41000848:	00033383          	ld	x7,0(x6)
    4100084c:	fe039ee3          	bnez	x7,41000848 <rvcp_print_test_result+0x9c>
    41000850:	00533023          	sd	x5,0(x6)
    41000854:	001f0f13          	addi	x30,x30,1
    41000858:	fd5ff06f          	j	4100082c <rvcp_print_test_result+0x80>
    4100085c:	44da2f37          	lui	x30,0x44da2
    41000860:	070f0f1b          	addiw	x30,x30,112 # 44da2070 <rvcp_space_str_pa>
    41000864:	000f4283          	lbu	x5,0(x30)
    41000868:	02028663          	beqz	x5,41000894 <rvcp_print_test_result+0xe8>
    4100086c:	1010031b          	addiw	x6,x0,257
    41000870:	03031313          	slli	x6,x6,0x30
    41000874:	005362b3          	or	x5,x6,x5
    41000878:	0003f317          	auipc	x6,0x3f
    4100087c:	78830313          	addi	x6,x6,1928 # 41040000 <tohost>
    41000880:	00033383          	ld	x7,0(x6)
    41000884:	fe039ee3          	bnez	x7,41000880 <rvcp_print_test_result+0xd4>
    41000888:	00533023          	sd	x5,0(x6)
    4100088c:	001f0f13          	addi	x30,x30,1
    41000890:	fd5ff06f          	j	41000864 <rvcp_print_test_result+0xb8>
    41000894:	000e8f13          	mv	x30,x29
    41000898:	000f4283          	lbu	x5,0(x30)
    4100089c:	02028663          	beqz	x5,410008c8 <rvcp_print_test_result+0x11c>
    410008a0:	1010031b          	addiw	x6,x0,257
    410008a4:	03031313          	slli	x6,x6,0x30
    410008a8:	005362b3          	or	x5,x6,x5
    410008ac:	0003f317          	auipc	x6,0x3f
    410008b0:	75430313          	addi	x6,x6,1876 # 41040000 <tohost>
    410008b4:	00033383          	ld	x7,0(x6)
    410008b8:	fe039ee3          	bnez	x7,410008b4 <rvcp_print_test_result+0x108>
    410008bc:	00533023          	sd	x5,0(x6)
    410008c0:	001f0f13          	addi	x30,x30,1
    410008c4:	fd5ff06f          	j	41000898 <rvcp_print_test_result+0xec>
    410008c8:	44da2f37          	lui	x30,0x44da2
    410008cc:	070f0f1b          	addiw	x30,x30,112 # 44da2070 <rvcp_space_str_pa>
    410008d0:	000f4283          	lbu	x5,0(x30)
    410008d4:	02028663          	beqz	x5,41000900 <rvcp_print_test_result+0x154>
    410008d8:	1010031b          	addiw	x6,x0,257
    410008dc:	03031313          	slli	x6,x6,0x30
    410008e0:	005362b3          	or	x5,x6,x5
    410008e4:	0003f317          	auipc	x6,0x3f
    410008e8:	71c30313          	addi	x6,x6,1820 # 41040000 <tohost>
    410008ec:	00033383          	ld	x7,0(x6)
    410008f0:	fe039ee3          	bnez	x7,410008ec <rvcp_print_test_result+0x140>
    410008f4:	00533023          	sd	x5,0(x6)
    410008f8:	001f0f13          	addi	x30,x30,1
    410008fc:	fd5ff06f          	j	410008d0 <rvcp_print_test_result+0x124>
    41000900:	000e1863          	bnez	x28,41000910 <rvcp_print_test_result+0x164>
    41000904:	44da2f37          	lui	x30,0x44da2
    41000908:	062f0f1b          	addiw	x30,x30,98 # 44da2062 <rvcp_passed_str_pa>
    4100090c:	00c0006f          	j	41000918 <rvcp_print_test_result+0x16c>
    41000910:	44da2f37          	lui	x30,0x44da2
    41000914:	069f0f1b          	addiw	x30,x30,105 # 44da2069 <rvcp_failed_str_pa>
    41000918:	000f4283          	lbu	x5,0(x30)
    4100091c:	02028663          	beqz	x5,41000948 <rvcp_print_test_result+0x19c>
    41000920:	1010031b          	addiw	x6,x0,257
    41000924:	03031313          	slli	x6,x6,0x30
    41000928:	005362b3          	or	x5,x6,x5
    4100092c:	0003f317          	auipc	x6,0x3f
    41000930:	6d430313          	addi	x6,x6,1748 # 41040000 <tohost>
    41000934:	00033383          	ld	x7,0(x6)
    41000938:	fe039ee3          	bnez	x7,41000934 <rvcp_print_test_result+0x188>
    4100093c:	00533023          	sd	x5,0(x6)
    41000940:	001f0f13          	addi	x30,x30,1
    41000944:	fd5ff06f          	j	41000918 <rvcp_print_test_result+0x16c>
    41000948:	44da2f37          	lui	x30,0x44da2
    4100094c:	072f0f1b          	addiw	x30,x30,114 # 44da2072 <rvcp_newline_str_pa>
    41000950:	000f4283          	lbu	x5,0(x30)
    41000954:	02028663          	beqz	x5,41000980 <rvcp_print_test_result+0x1d4>
    41000958:	1010031b          	addiw	x6,x0,257
    4100095c:	03031313          	slli	x6,x6,0x30
    41000960:	005362b3          	or	x5,x6,x5
    41000964:	0003f317          	auipc	x6,0x3f
    41000968:	69c30313          	addi	x6,x6,1692 # 41040000 <tohost>
    4100096c:	00033383          	ld	x7,0(x6)
    41000970:	fe039ee3          	bnez	x7,4100096c <rvcp_print_test_result+0x1c0>
    41000974:	00533023          	sd	x5,0(x6)
    41000978:	001f0f13          	addi	x30,x30,1
    4100097c:	fd5ff06f          	j	41000950 <rvcp_print_test_result+0x1a4>
    41000980:	00008067          	ret

0000000041000984 <os_rng_orig>:
    41000984:	f14023f3          	csrr	x7,mhartid
    41000988:	00068313          	mv	x6,x13
    4100098c:	026383b3          	mul	x7,x7,x6
    41000990:	00058313          	mv	x6,x11
    41000994:	00730333          	add	x6,x6,x7
    41000998:	00033283          	ld	x5,0(x6)
    4100099c:	01529313          	slli	x6,x5,0x15
    410009a0:	0062c2b3          	xor	x5,x5,x6
    410009a4:	0232d313          	srli	x6,x5,0x23
    410009a8:	0062c2b3          	xor	x5,x5,x6
    410009ac:	00429313          	slli	x6,x5,0x4
    410009b0:	0062c2b3          	xor	x5,x5,x6
    410009b4:	00058313          	mv	x6,x11
    410009b8:	00730333          	add	x6,x6,x7
    410009bc:	00533023          	sd	x5,0(x6)
    410009c0:	00060313          	mv	x6,x12
    410009c4:	0262f2b3          	remu	x5,x5,x6
    410009c8:	00028513          	mv	x10,x5
    410009cc:	00008067          	ret
    410009d0:	02a00513          	li	x10,42
    410009d4:	001965b7          	lui	x11,0x196
    410009d8:	60d5859b          	addiw	x11,x11,1549 # 19660d <pma_region_0_size+0x15660d>
    410009dc:	3c6ef637          	lui	x12,0x3c6ef
    410009e0:	35f6061b          	addiw	x12,x12,863 # 3c6ef35f <mem14+0x3086235f>
    410009e4:	02200693          	li	x13,34
    410009e8:	02b50533          	mul	x10,x10,x11
    410009ec:	00c50533          	add	x10,x10,x12
    410009f0:	02d56533          	rem	x10,x10,x13
    410009f4:	00b00593          	li	x11,11
    410009f8:	02b56533          	rem	x10,x10,x11
    410009fc:	00008067          	ret

0000000041000a00 <tohost_mutex>:
	...

0000000041000a08 <tohost_addr_mem>:
    41000a08:	0000                	.insn	2, 0x0000
    41000a0a:	4104                	.insn	2, 0x4104
    41000a0c:	0000                	.insn	2, 0x0000
	...

0000000041000a10 <eot__end_test>:
    41000a10:	00100293          	li	x5,1
    41000a14:	00328463          	beq	x5,x3,41000a1c <eot__passed>
    41000a18:	01c0006f          	j	41000a34 <eot__failed>

0000000041000a1c <eot__passed>:
    41000a1c:	0ff0000f          	fence
    41000a20:	00000297          	auipc	x5,0x0
    41000a24:	fe82b283          	ld	x5,-24(x5) # 41000a08 <tohost_addr_mem>
    41000a28:	00100313          	li	x6,1
    41000a2c:	0062a023          	sw	x6,0(x5)
    41000a30:	0240006f          	j	41000a54 <eot__halt>

0000000041000a34 <eot__failed>:
    41000a34:	00100513          	li	x10,1
    41000a38:	d75ff0ef          	jal	410007ac <rvcp_print_test_result>
    41000a3c:	0ff0000f          	fence
    41000a40:	00000297          	auipc	x5,0x0
    41000a44:	fc82b283          	ld	x5,-56(x5) # 41000a08 <tohost_addr_mem>
    41000a48:	00300313          	li	x6,3
    41000a4c:	0062a023          	sw	x6,0(x5)
    41000a50:	0040006f          	j	41000a54 <eot__halt>

0000000041000a54 <eot__halt>:
    41000a54:	10500073          	wfi
    41000a58:	ffdff06f          	j	41000a54 <eot__halt>

0000000041000a5c <scheduler__init>:
    41000a5c:	00000297          	auipc	x5,0x0
    41000a60:	0ec28293          	addi	x5,x5,236 # 41000b48 <scheduler__panic>
    41000a64:	305292f3          	csrrw	x5,mtvec,x5
    41000a68:	18523023          	sd	x5,384(x4) # 180 <XLEN+0x140>
    41000a6c:	02800293          	li	x5,40
    41000a70:	18523823          	sd	x5,400(x4) # 190 <XLEN+0x150>
    41000a74:	0010029b          	addiw	x5,x0,1
    41000a78:	02029293          	slli	x5,x5,0x20
    41000a7c:	ffe28293          	addi	x5,x5,-2
    41000a80:	18523423          	sd	x5,392(x4) # 188 <XLEN+0x148>
    41000a84:	00000317          	auipc	x6,0x0
    41000a88:	3e030313          	addi	x6,x6,992 # 41000e64 <scheduler__test_setup_ptr>
    41000a8c:	00033303          	ld	x6,0(x6)
    41000a90:	0900006f          	j	41000b20 <scheduler__execute_test>

0000000041000a94 <scheduler__dispatch>:
    41000a94:	00000297          	auipc	x5,0x0
    41000a98:	0b428293          	addi	x5,x5,180 # 41000b48 <scheduler__panic>
    41000a9c:	305292f3          	csrrw	x5,mtvec,x5
    41000aa0:	18523023          	sd	x5,384(x4) # 180 <XLEN+0x140>

0000000041000aa4 <scheduler__csr_read_randomization>:
    41000aa4:	10a022f3          	csrr	x5,0x10a
    41000aa8:	b02022f3          	csrr	x5,minstret
    41000aac:	b02022f3          	csrr	x5,minstret
    41000ab0:	302022f3          	csrr	x5,medeleg
    41000ab4:	104022f3          	csrr	x5,sie
    41000ab8:	342022f3          	csrr	x5,mcause
    41000abc:	342022f3          	csrr	x5,mcause
    41000ac0:	341022f3          	csrr	x5,mepc
    41000ac4:	104022f3          	csrr	x5,sie
    41000ac8:	104022f3          	csrr	x5,sie
    41000acc:	305022f3          	csrr	x5,mtvec
    41000ad0:	343022f3          	csrr	x5,mtval
    41000ad4:	304022f3          	csrr	x5,mie
    41000ad8:	141022f3          	csrr	x5,sepc
    41000adc:	f12022f3          	csrr	x5,marchid
    41000ae0:	344022f3          	csrr	x5,mip

0000000041000ae4 <scheduler__load_num_runs>:
    41000ae4:	19023303          	ld	x6,400(x4) # 190 <XLEN+0x150>
    41000ae8:	04030c63          	beqz	x6,41000b40 <scheduler__finished>

0000000041000aec <scheduler__decrement_num_runs>:
    41000aec:	fff30393          	addi	x7,x6,-1
    41000af0:	18723823          	sd	x7,400(x4) # 190 <XLEN+0x150>
    41000af4:	00000e17          	auipc	x28,0x0
    41000af8:	2d0e0e13          	addi	x28,x28,720 # 41000dc4 <dtest_index_map>
    41000afc:	00239e93          	slli	x29,x7,0x2
    41000b00:	01de0e33          	add	x28,x28,x29
    41000b04:	000e2e03          	lw	x28,0(x28)
    41000b08:	19c23423          	sd	x28,392(x4) # 188 <XLEN+0x148>

0000000041000b0c <scheduler__calc_test_pointer>:
    41000b0c:	00339293          	slli	x5,x7,0x3

0000000041000b10 <scheduler__load_test_addr>:
    41000b10:	00000317          	auipc	x6,0x0
    41000b14:	04c30313          	addi	x6,x6,76 # 41000b5c <os_test_sequence>
    41000b18:	006282b3          	add	x5,x5,x6
    41000b1c:	0002b303          	ld	x6,0(x5)

0000000041000b20 <scheduler__execute_test>:
    41000b20:	18023283          	ld	x5,384(x4) # 180 <XLEN+0x140>
    41000b24:	30529073          	csrw	mtvec,x5
    41000b28:	34021273          	csrrw	x4,mscratch,x4
    41000b2c:	00000213          	li	x4,0
    41000b30:	14131073          	csrw	sepc,x6
    41000b34:	10000293          	li	x5,256
    41000b38:	1002a073          	csrs	sstatus,x5
    41000b3c:	10200073          	sret

0000000041000b40 <scheduler__finished>:
    41000b40:	00100193          	li	x3,1
    41000b44:	ecdff06f          	j	41000a10 <eot__end_test>

0000000041000b48 <scheduler__panic>:
    41000b48:	00000193          	li	x3,0
    41000b4c:	ec5ff06f          	j	41000a10 <eot__end_test>
    41000b50:	0000                	.insn	2, 0x0000
	...

0000000041000b54 <num_runs>:
    41000b54:	0028                	.insn	2, 0x0028
    41000b56:	0000                	.insn	2, 0x0000
    41000b58:	0000                	.insn	2, 0x0000
	...

0000000041000b5c <os_test_sequence>:
    41000b5c:	537c                	.insn	2, 0x537c
    41000b5e:	4101                	.insn	2, 0x4101
    41000b60:	0000                	.insn	2, 0x0000
    41000b62:	0000                	.insn	2, 0x0000
    41000b64:	50dc                	.insn	2, 0x50dc
    41000b66:	4101                	.insn	2, 0x4101
    41000b68:	0000                	.insn	2, 0x0000
    41000b6a:	0000                	.insn	2, 0x0000
    41000b6c:	40e0                	.insn	2, 0x40e0
    41000b6e:	4101                	.insn	2, 0x4101
    41000b70:	0000                	.insn	2, 0x0000
    41000b72:	0000                	.insn	2, 0x0000
    41000b74:	4508                	.insn	2, 0x4508
    41000b76:	4101                	.insn	2, 0x4101
    41000b78:	0000                	.insn	2, 0x0000
    41000b7a:	0000                	.insn	2, 0x0000
    41000b7c:	40e0                	.insn	2, 0x40e0
    41000b7e:	4101                	.insn	2, 0x4101
    41000b80:	0000                	.insn	2, 0x0000
    41000b82:	0000                	.insn	2, 0x0000
    41000b84:	4508                	.insn	2, 0x4508
    41000b86:	4101                	.insn	2, 0x4101
    41000b88:	0000                	.insn	2, 0x0000
    41000b8a:	0000                	.insn	2, 0x0000
    41000b8c:	4214                	.insn	2, 0x4214
    41000b8e:	4101                	.insn	2, 0x4101
    41000b90:	0000                	.insn	2, 0x0000
    41000b92:	0000                	.insn	2, 0x0000
    41000b94:	45c8                	.insn	2, 0x45c8
    41000b96:	4101                	.insn	2, 0x4101
    41000b98:	0000                	.insn	2, 0x0000
    41000b9a:	0000                	.insn	2, 0x0000
    41000b9c:	4f1c                	.insn	2, 0x4f1c
    41000b9e:	4101                	.insn	2, 0x4101
    41000ba0:	0000                	.insn	2, 0x0000
    41000ba2:	0000                	.insn	2, 0x0000
    41000ba4:	4b1c                	.insn	2, 0x4b1c
    41000ba6:	4101                	.insn	2, 0x4101
    41000ba8:	0000                	.insn	2, 0x0000
    41000baa:	0000                	.insn	2, 0x0000
    41000bac:	4798                	.insn	2, 0x4798
    41000bae:	4101                	.insn	2, 0x4101
    41000bb0:	0000                	.insn	2, 0x0000
    41000bb2:	0000                	.insn	2, 0x0000
    41000bb4:	4628                	.insn	2, 0x4628
    41000bb6:	4101                	.insn	2, 0x4101
    41000bb8:	0000                	.insn	2, 0x0000
    41000bba:	0000                	.insn	2, 0x0000
    41000bbc:	4cf4                	.insn	2, 0x4cf4
    41000bbe:	4101                	.insn	2, 0x4101
    41000bc0:	0000                	.insn	2, 0x0000
    41000bc2:	0000                	.insn	2, 0x0000
    41000bc4:	4798                	.insn	2, 0x4798
    41000bc6:	4101                	.insn	2, 0x4101
    41000bc8:	0000                	.insn	2, 0x0000
    41000bca:	0000                	.insn	2, 0x0000
    41000bcc:	4798                	.insn	2, 0x4798
    41000bce:	4101                	.insn	2, 0x4101
    41000bd0:	0000                	.insn	2, 0x0000
    41000bd2:	0000                	.insn	2, 0x0000
    41000bd4:	4f1c                	.insn	2, 0x4f1c
    41000bd6:	4101                	.insn	2, 0x4101
    41000bd8:	0000                	.insn	2, 0x0000
    41000bda:	0000                	.insn	2, 0x0000
    41000bdc:	4508                	.insn	2, 0x4508
    41000bde:	4101                	.insn	2, 0x4101
    41000be0:	0000                	.insn	2, 0x0000
    41000be2:	0000                	.insn	2, 0x0000
    41000be4:	4940                	.insn	2, 0x4940
    41000be6:	4101                	.insn	2, 0x4101
    41000be8:	0000                	.insn	2, 0x0000
    41000bea:	0000                	.insn	2, 0x0000
    41000bec:	4f1c                	.insn	2, 0x4f1c
    41000bee:	4101                	.insn	2, 0x4101
    41000bf0:	0000                	.insn	2, 0x0000
    41000bf2:	0000                	.insn	2, 0x0000
    41000bf4:	50dc                	.insn	2, 0x50dc
    41000bf6:	4101                	.insn	2, 0x4101
    41000bf8:	0000                	.insn	2, 0x0000
    41000bfa:	0000                	.insn	2, 0x0000
    41000bfc:	4590                	.insn	2, 0x4590
    41000bfe:	4101                	.insn	2, 0x4101
    41000c00:	0000                	.insn	2, 0x0000
    41000c02:	0000                	.insn	2, 0x0000
    41000c04:	4940                	.insn	2, 0x4940
    41000c06:	4101                	.insn	2, 0x4101
    41000c08:	0000                	.insn	2, 0x0000
    41000c0a:	0000                	.insn	2, 0x0000
    41000c0c:	4628                	.insn	2, 0x4628
    41000c0e:	4101                	.insn	2, 0x4101
    41000c10:	0000                	.insn	2, 0x0000
    41000c12:	0000                	.insn	2, 0x0000
    41000c14:	4590                	.insn	2, 0x4590
    41000c16:	4101                	.insn	2, 0x4101
    41000c18:	0000                	.insn	2, 0x0000
    41000c1a:	0000                	.insn	2, 0x0000
    41000c1c:	4b1c                	.insn	2, 0x4b1c
    41000c1e:	4101                	.insn	2, 0x4101
    41000c20:	0000                	.insn	2, 0x0000
    41000c22:	0000                	.insn	2, 0x0000
    41000c24:	40e0                	.insn	2, 0x40e0
    41000c26:	4101                	.insn	2, 0x4101
    41000c28:	0000                	.insn	2, 0x0000
    41000c2a:	0000                	.insn	2, 0x0000
    41000c2c:	45c8                	.insn	2, 0x45c8
    41000c2e:	4101                	.insn	2, 0x4101
    41000c30:	0000                	.insn	2, 0x0000
    41000c32:	0000                	.insn	2, 0x0000
    41000c34:	4214                	.insn	2, 0x4214
    41000c36:	4101                	.insn	2, 0x4101
    41000c38:	0000                	.insn	2, 0x0000
    41000c3a:	0000                	.insn	2, 0x0000
    41000c3c:	43c4                	.insn	2, 0x43c4
    41000c3e:	4101                	.insn	2, 0x4101
    41000c40:	0000                	.insn	2, 0x0000
    41000c42:	0000                	.insn	2, 0x0000
    41000c44:	4940                	.insn	2, 0x4940
    41000c46:	4101                	.insn	2, 0x4101
    41000c48:	0000                	.insn	2, 0x0000
    41000c4a:	0000                	.insn	2, 0x0000
    41000c4c:	4590                	.insn	2, 0x4590
    41000c4e:	4101                	.insn	2, 0x4101
    41000c50:	0000                	.insn	2, 0x0000
    41000c52:	0000                	.insn	2, 0x0000
    41000c54:	4628                	.insn	2, 0x4628
    41000c56:	4101                	.insn	2, 0x4101
    41000c58:	0000                	.insn	2, 0x0000
    41000c5a:	0000                	.insn	2, 0x0000
    41000c5c:	4cf4                	.insn	2, 0x4cf4
    41000c5e:	4101                	.insn	2, 0x4101
    41000c60:	0000                	.insn	2, 0x0000
    41000c62:	0000                	.insn	2, 0x0000
    41000c64:	4b1c                	.insn	2, 0x4b1c
    41000c66:	4101                	.insn	2, 0x4101
    41000c68:	0000                	.insn	2, 0x0000
    41000c6a:	0000                	.insn	2, 0x0000
    41000c6c:	4cf4                	.insn	2, 0x4cf4
    41000c6e:	4101                	.insn	2, 0x4101
    41000c70:	0000                	.insn	2, 0x0000
    41000c72:	0000                	.insn	2, 0x0000
    41000c74:	43c4                	.insn	2, 0x43c4
    41000c76:	4101                	.insn	2, 0x4101
    41000c78:	0000                	.insn	2, 0x0000
    41000c7a:	0000                	.insn	2, 0x0000
    41000c7c:	45c8                	.insn	2, 0x45c8
    41000c7e:	4101                	.insn	2, 0x4101
    41000c80:	0000                	.insn	2, 0x0000
    41000c82:	0000                	.insn	2, 0x0000
    41000c84:	4214                	.insn	2, 0x4214
    41000c86:	4101                	.insn	2, 0x4101
    41000c88:	0000                	.insn	2, 0x0000
    41000c8a:	0000                	.insn	2, 0x0000
    41000c8c:	50dc                	.insn	2, 0x50dc
    41000c8e:	4101                	.insn	2, 0x4101
    41000c90:	0000                	.insn	2, 0x0000
    41000c92:	0000                	.insn	2, 0x0000
    41000c94:	43c4                	.insn	2, 0x43c4
    41000c96:	4101                	.insn	2, 0x4101
    41000c98:	0000                	.insn	2, 0x0000
	...

0000000041000c9c <dtest_descriptor_table>:
    41000c9c:	0d04                	.insn	2, 0x0d04
    41000c9e:	4100                	.insn	2, 0x4100
    41000ca0:	0000                	.insn	2, 0x0000
    41000ca2:	0000                	.insn	2, 0x0000
    41000ca4:	0d12                	.insn	2, 0x0d12
    41000ca6:	4100                	.insn	2, 0x4100
    41000ca8:	0000                	.insn	2, 0x0000
    41000caa:	0000                	.insn	2, 0x0000
    41000cac:	0d20                	.insn	2, 0x0d20
    41000cae:	4100                	.insn	2, 0x4100
    41000cb0:	0000                	.insn	2, 0x0000
    41000cb2:	0000                	.insn	2, 0x0000
    41000cb4:	0d2e                	.insn	2, 0x0d2e
    41000cb6:	4100                	.insn	2, 0x4100
    41000cb8:	0000                	.insn	2, 0x0000
    41000cba:	0000                	.insn	2, 0x0000
    41000cbc:	0d3c                	.insn	2, 0x0d3c
    41000cbe:	4100                	.insn	2, 0x4100
    41000cc0:	0000                	.insn	2, 0x0000
    41000cc2:	0000                	.insn	2, 0x0000
    41000cc4:	0d4a                	.insn	2, 0x0d4a
    41000cc6:	4100                	.insn	2, 0x4100
    41000cc8:	0000                	.insn	2, 0x0000
    41000cca:	0000                	.insn	2, 0x0000
    41000ccc:	0d58                	.insn	2, 0x0d58
    41000cce:	4100                	.insn	2, 0x4100
    41000cd0:	0000                	.insn	2, 0x0000
    41000cd2:	0000                	.insn	2, 0x0000
    41000cd4:	0d66                	.insn	2, 0x0d66
    41000cd6:	4100                	.insn	2, 0x4100
    41000cd8:	0000                	.insn	2, 0x0000
    41000cda:	0000                	.insn	2, 0x0000
    41000cdc:	0d74                	.insn	2, 0x0d74
    41000cde:	4100                	.insn	2, 0x4100
    41000ce0:	0000                	.insn	2, 0x0000
    41000ce2:	0000                	.insn	2, 0x0000
    41000ce4:	0d82                	.insn	2, 0x0d82
    41000ce6:	4100                	.insn	2, 0x4100
    41000ce8:	0000                	.insn	2, 0x0000
    41000cea:	0000                	.insn	2, 0x0000
    41000cec:	0d90                	.insn	2, 0x0d90
    41000cee:	4100                	.insn	2, 0x4100
    41000cf0:	0000                	.insn	2, 0x0000
    41000cf2:	0000                	.insn	2, 0x0000
    41000cf4:	0d9e                	.insn	2, 0x0d9e
    41000cf6:	4100                	.insn	2, 0x4100
    41000cf8:	0000                	.insn	2, 0x0000
    41000cfa:	0000                	.insn	2, 0x0000
    41000cfc:	0dac                	.insn	2, 0x0dac
    41000cfe:	4100                	.insn	2, 0x4100
    41000d00:	0000                	.insn	2, 0x0000
	...

0000000041000d04 <dtest_name_0>:
    41000d04:	5f444953          	.insn	4, 0x5f444953
    41000d08:	495a                	.insn	2, 0x495a
    41000d0a:	5f4f4243          	.insn	4, 0x5f4f4243
    41000d0e:	3030                	.insn	2, 0x3030
    41000d10:	0031                	.insn	2, 0x0031

0000000041000d12 <dtest_name_1>:
    41000d12:	5f444953          	.insn	4, 0x5f444953
    41000d16:	495a                	.insn	2, 0x495a
    41000d18:	5f4f4243          	.insn	4, 0x5f4f4243
    41000d1c:	3030                	.insn	2, 0x3030
    41000d1e:	          	.insn	4, 0x49530033

0000000041000d20 <dtest_name_2>:
    41000d20:	5f444953          	.insn	4, 0x5f444953
    41000d24:	495a                	.insn	2, 0x495a
    41000d26:	5f4f4243          	.insn	4, 0x5f4f4243
    41000d2a:	3030                	.insn	2, 0x3030
    41000d2c:	0035                	.insn	2, 0x0035

0000000041000d2e <dtest_name_3>:
    41000d2e:	5f444953          	.insn	4, 0x5f444953
    41000d32:	495a                	.insn	2, 0x495a
    41000d34:	5f4f4243          	.insn	4, 0x5f4f4243
    41000d38:	3130                	.insn	2, 0x3130
    41000d3a:	          	.insn	4, 0x49530033

0000000041000d3c <dtest_name_4>:
    41000d3c:	5f444953          	.insn	4, 0x5f444953
    41000d40:	495a                	.insn	2, 0x495a
    41000d42:	5f4f4243          	.insn	4, 0x5f4f4243
    41000d46:	3130                	.insn	2, 0x3130
    41000d48:	0035                	.insn	2, 0x0035

0000000041000d4a <dtest_name_5>:
    41000d4a:	5f444953          	.insn	4, 0x5f444953
    41000d4e:	495a                	.insn	2, 0x495a
    41000d50:	5f4f4243          	.insn	4, 0x5f4f4243
    41000d54:	3130                	.insn	2, 0x3130
    41000d56:	0036                	.insn	2, 0x0036

0000000041000d58 <dtest_name_6>:
    41000d58:	5f444953          	.insn	4, 0x5f444953
    41000d5c:	495a                	.insn	2, 0x495a
    41000d5e:	5f4f4243          	.insn	4, 0x5f4f4243
    41000d62:	3130                	.insn	2, 0x3130
    41000d64:	          	lui	x0,0x49530

0000000041000d66 <dtest_name_7>:
    41000d66:	5f444953          	.insn	4, 0x5f444953
    41000d6a:	495a                	.insn	2, 0x495a
    41000d6c:	5f4f4243          	.insn	4, 0x5f4f4243
    41000d70:	3130                	.insn	2, 0x3130
    41000d72:	0038                	.insn	2, 0x0038

0000000041000d74 <dtest_name_8>:
    41000d74:	5f444953          	.insn	4, 0x5f444953
    41000d78:	495a                	.insn	2, 0x495a
    41000d7a:	5f4f4243          	.insn	4, 0x5f4f4243
    41000d7e:	3130                	.insn	2, 0x3130
    41000d80:	0039                	.insn	2, 0x0039

0000000041000d82 <dtest_name_9>:
    41000d82:	5f444953          	.insn	4, 0x5f444953
    41000d86:	495a                	.insn	2, 0x495a
    41000d88:	5f4f4243          	.insn	4, 0x5f4f4243
    41000d8c:	3230                	.insn	2, 0x3230
    41000d8e:	0030                	.insn	2, 0x0030

0000000041000d90 <dtest_name_10>:
    41000d90:	5f444953          	.insn	4, 0x5f444953
    41000d94:	495a                	.insn	2, 0x495a
    41000d96:	5f4f4243          	.insn	4, 0x5f4f4243
    41000d9a:	3430                	.insn	2, 0x3430
    41000d9c:	          	lui	x0,0x49530

0000000041000d9e <dtest_name_11>:
    41000d9e:	5f444953          	.insn	4, 0x5f444953
    41000da2:	495a                	.insn	2, 0x495a
    41000da4:	5f4f4243          	.insn	4, 0x5f4f4243
    41000da8:	3430                	.insn	2, 0x3430
    41000daa:	0039                	.insn	2, 0x0039

0000000041000dac <dtest_name_12>:
    41000dac:	5f444953          	.insn	4, 0x5f444953
    41000db0:	495a                	.insn	2, 0x495a
    41000db2:	5f4f4243          	.insn	4, 0x5f4f4243
    41000db6:	3035                	.insn	2, 0x3035
    41000db8:	5a5f 4349 3436      	.insn	6, 0x343643495a5f
    41000dbe:	5f42                	.insn	2, 0x5f42
    41000dc0:	3130                	.insn	2, 0x3130
	...

0000000041000dc4 <dtest_index_map>:
    41000dc4:	ffff                	.insn	2, 0xffff
    41000dc6:	ffff                	.insn	2, 0xffff
    41000dc8:	000c                	.insn	2, 0x000c
    41000dca:	0000                	.insn	2, 0x0000
    41000dcc:	0000                	.insn	2, 0x0000
    41000dce:	0000                	.insn	2, 0x0000
    41000dd0:	00000003          	lb	x0,0(x0) # 0 <ALL_4KB_PAGES>
    41000dd4:	0000                	.insn	2, 0x0000
    41000dd6:	0000                	.insn	2, 0x0000
    41000dd8:	00000003          	lb	x0,0(x0) # 0 <ALL_4KB_PAGES>
    41000ddc:	0001                	.insn	2, 0x0001
    41000dde:	0000                	.insn	2, 0x0000
    41000de0:	0005                	.insn	2, 0x0005
    41000de2:	0000                	.insn	2, 0x0000
    41000de4:	0000000b          	.insn	4, 0x000b
    41000de8:	0009                	.insn	2, 0x0009
    41000dea:	0000                	.insn	2, 0x0000
    41000dec:	00000007          	vle8.v	v0,(x0),v0.t
    41000df0:	0006                	.insn	2, 0x0006
    41000df2:	0000                	.insn	2, 0x0000
    41000df4:	000a                	.insn	2, 0x000a
    41000df6:	0000                	.insn	2, 0x0000
    41000df8:	00000007          	vle8.v	v0,(x0),v0.t
    41000dfc:	00000007          	vle8.v	v0,(x0),v0.t
    41000e00:	0000000b          	.insn	4, 0x000b
    41000e04:	00000003          	lb	x0,0(x0) # 0 <ALL_4KB_PAGES>
    41000e08:	0008                	.insn	2, 0x0008
    41000e0a:	0000                	.insn	2, 0x0000
    41000e0c:	0000000b          	.insn	4, 0x000b
    41000e10:	000c                	.insn	2, 0x000c
    41000e12:	0000                	.insn	2, 0x0000
    41000e14:	0004                	.insn	2, 0x0004
    41000e16:	0000                	.insn	2, 0x0000
    41000e18:	0008                	.insn	2, 0x0008
    41000e1a:	0000                	.insn	2, 0x0000
    41000e1c:	0006                	.insn	2, 0x0006
    41000e1e:	0000                	.insn	2, 0x0000
    41000e20:	0004                	.insn	2, 0x0004
    41000e22:	0000                	.insn	2, 0x0000
    41000e24:	0009                	.insn	2, 0x0009
    41000e26:	0000                	.insn	2, 0x0000
    41000e28:	0000                	.insn	2, 0x0000
    41000e2a:	0000                	.insn	2, 0x0000
    41000e2c:	0005                	.insn	2, 0x0005
    41000e2e:	0000                	.insn	2, 0x0000
    41000e30:	0001                	.insn	2, 0x0001
    41000e32:	0000                	.insn	2, 0x0000
    41000e34:	0002                	.insn	2, 0x0002
    41000e36:	0000                	.insn	2, 0x0000
    41000e38:	0008                	.insn	2, 0x0008
    41000e3a:	0000                	.insn	2, 0x0000
    41000e3c:	0004                	.insn	2, 0x0004
    41000e3e:	0000                	.insn	2, 0x0000
    41000e40:	0006                	.insn	2, 0x0006
    41000e42:	0000                	.insn	2, 0x0000
    41000e44:	000a                	.insn	2, 0x000a
    41000e46:	0000                	.insn	2, 0x0000
    41000e48:	0009                	.insn	2, 0x0009
    41000e4a:	0000                	.insn	2, 0x0000
    41000e4c:	000a                	.insn	2, 0x000a
    41000e4e:	0000                	.insn	2, 0x0000
    41000e50:	0002                	.insn	2, 0x0002
    41000e52:	0000                	.insn	2, 0x0000
    41000e54:	0005                	.insn	2, 0x0005
    41000e56:	0000                	.insn	2, 0x0000
    41000e58:	0001                	.insn	2, 0x0001
    41000e5a:	0000                	.insn	2, 0x0000
    41000e5c:	000c                	.insn	2, 0x000c
    41000e5e:	0000                	.insn	2, 0x0000
    41000e60:	0002                	.insn	2, 0x0002
	...

0000000041000e64 <scheduler__test_setup_ptr>:
    41000e64:	40d0                	.insn	2, 0x40d0
    41000e66:	4101                	.insn	2, 0x4101
    41000e68:	0000                	.insn	2, 0x0000
	...

0000000041000e6c <scheduler__test_cleanup_ptr>:
    41000e6c:	537c                	.insn	2, 0x537c
    41000e6e:	4101                	.insn	2, 0x4101
    41000e70:	0000                	.insn	2, 0x0000
	...

Disassembly of section .runtime_s:

0000000041010000 <trap_handler_s__invalid_interrupt>:
    41010000:	1740006f          	j	41010174 <trap_handler_s__test_failed>

0000000041010004 <trap_handler_s__clear_all_interrupts>:
    41010004:	14401073          	csrw	sip,x0
    41010008:	10200073          	sret

000000004101000c <trap_handler_s___CLEAR_SSI>:
    4101000c:	00200293          	li	x5,2
    41010010:	1442b073          	csrc	sip,x5
    41010014:	10200073          	sret

0000000041010018 <trap_handler_s___CLEAR_MSI>:
    41010018:	00800293          	li	x5,8
    4101001c:	1442b073          	csrc	sip,x5
    41010020:	10200073          	sret

0000000041010024 <trap_handler_s___CLEAR_STI>:
    41010024:	02000293          	li	x5,32
    41010028:	1442b073          	csrc	sip,x5
    4101002c:	10200073          	sret

0000000041010030 <trap_handler_s___CLEAR_MTI>:
    41010030:	08000293          	li	x5,128
    41010034:	1442b073          	csrc	sip,x5
    41010038:	10200073          	sret

000000004101003c <trap_handler_s___CLEAR_SEI>:
    4101003c:	20000293          	li	x5,512
    41010040:	1442b073          	csrc	sip,x5
    41010044:	10200073          	sret

0000000041010048 <trap_handler_s___CLEAR_MEI>:
    41010048:	000012b7          	lui	x5,0x1
    4101004c:	8002829b          	addiw	x5,x5,-2048 # 800 <XLEN+0x7c0>
    41010050:	1442b073          	csrc	sip,x5
    41010054:	10200073          	sret

0000000041010058 <trap_handler_s___CLEAR_COI>:
    41010058:	000022b7          	lui	x5,0x2
    4101005c:	1442b073          	csrc	sip,x5
    41010060:	10200073          	sret

0000000041010064 <trap_handler_s__clear_highest_priority_interrupt>:
    41010064:	144022f3          	csrr	x5,sip
    41010068:	40500333          	neg	x6,x5
    4101006c:	0062f2b3          	and	x5,x5,x6
    41010070:	1442b073          	csrc	sip,x5
    41010074:	10200073          	sret

0000000041010078 <trap_handler_s__trap_entry>:
    41010078:	10c0006f          	j	41010184 <trap_handler_s__trap_handler>

000000004101007c <trap_handler_s__interrupt_vector_table>:
    4101007c:	f91ff06f          	j	4101000c <trap_handler_s___CLEAR_SSI>
    41010080:	f81ff06f          	j	41010000 <trap_handler_s__invalid_interrupt>
    41010084:	f95ff06f          	j	41010018 <trap_handler_s___CLEAR_MSI>
    41010088:	f79ff06f          	j	41010000 <trap_handler_s__invalid_interrupt>
    4101008c:	f99ff06f          	j	41010024 <trap_handler_s___CLEAR_STI>
    41010090:	f71ff06f          	j	41010000 <trap_handler_s__invalid_interrupt>
    41010094:	f9dff06f          	j	41010030 <trap_handler_s___CLEAR_MTI>
    41010098:	f69ff06f          	j	41010000 <trap_handler_s__invalid_interrupt>
    4101009c:	fa1ff06f          	j	4101003c <trap_handler_s___CLEAR_SEI>
    410100a0:	f61ff06f          	j	41010000 <trap_handler_s__invalid_interrupt>
    410100a4:	fa5ff06f          	j	41010048 <trap_handler_s___CLEAR_MEI>
    410100a8:	f59ff06f          	j	41010000 <trap_handler_s__invalid_interrupt>
    410100ac:	fadff06f          	j	41010058 <trap_handler_s___CLEAR_COI>
    410100b0:	f51ff06f          	j	41010000 <trap_handler_s__invalid_interrupt>
    410100b4:	f4dff06f          	j	41010000 <trap_handler_s__invalid_interrupt>
    410100b8:	fadff06f          	j	41010064 <trap_handler_s__clear_highest_priority_interrupt>
    410100bc:	fa9ff06f          	j	41010064 <trap_handler_s__clear_highest_priority_interrupt>
    410100c0:	fa5ff06f          	j	41010064 <trap_handler_s__clear_highest_priority_interrupt>
    410100c4:	fa1ff06f          	j	41010064 <trap_handler_s__clear_highest_priority_interrupt>
    410100c8:	f9dff06f          	j	41010064 <trap_handler_s__clear_highest_priority_interrupt>
    410100cc:	f99ff06f          	j	41010064 <trap_handler_s__clear_highest_priority_interrupt>
    410100d0:	f95ff06f          	j	41010064 <trap_handler_s__clear_highest_priority_interrupt>
    410100d4:	f91ff06f          	j	41010064 <trap_handler_s__clear_highest_priority_interrupt>
    410100d8:	f8dff06f          	j	41010064 <trap_handler_s__clear_highest_priority_interrupt>
    410100dc:	f89ff06f          	j	41010064 <trap_handler_s__clear_highest_priority_interrupt>
    410100e0:	f85ff06f          	j	41010064 <trap_handler_s__clear_highest_priority_interrupt>
    410100e4:	f81ff06f          	j	41010064 <trap_handler_s__clear_highest_priority_interrupt>
    410100e8:	f7dff06f          	j	41010064 <trap_handler_s__clear_highest_priority_interrupt>
    410100ec:	f79ff06f          	j	41010064 <trap_handler_s__clear_highest_priority_interrupt>
    410100f0:	f75ff06f          	j	41010064 <trap_handler_s__clear_highest_priority_interrupt>
    410100f4:	f71ff06f          	j	41010064 <trap_handler_s__clear_highest_priority_interrupt>
    410100f8:	f6dff06f          	j	41010064 <trap_handler_s__clear_highest_priority_interrupt>
    410100fc:	f69ff06f          	j	41010064 <trap_handler_s__clear_highest_priority_interrupt>
    41010100:	f65ff06f          	j	41010064 <trap_handler_s__clear_highest_priority_interrupt>
    41010104:	f61ff06f          	j	41010064 <trap_handler_s__clear_highest_priority_interrupt>
    41010108:	f5dff06f          	j	41010064 <trap_handler_s__clear_highest_priority_interrupt>
    4101010c:	f59ff06f          	j	41010064 <trap_handler_s__clear_highest_priority_interrupt>
    41010110:	f55ff06f          	j	41010064 <trap_handler_s__clear_highest_priority_interrupt>
    41010114:	f51ff06f          	j	41010064 <trap_handler_s__clear_highest_priority_interrupt>
    41010118:	f4dff06f          	j	41010064 <trap_handler_s__clear_highest_priority_interrupt>
    4101011c:	f49ff06f          	j	41010064 <trap_handler_s__clear_highest_priority_interrupt>
    41010120:	f45ff06f          	j	41010064 <trap_handler_s__clear_highest_priority_interrupt>
    41010124:	f41ff06f          	j	41010064 <trap_handler_s__clear_highest_priority_interrupt>
    41010128:	f3dff06f          	j	41010064 <trap_handler_s__clear_highest_priority_interrupt>
    4101012c:	f39ff06f          	j	41010064 <trap_handler_s__clear_highest_priority_interrupt>
    41010130:	f35ff06f          	j	41010064 <trap_handler_s__clear_highest_priority_interrupt>
    41010134:	f31ff06f          	j	41010064 <trap_handler_s__clear_highest_priority_interrupt>
    41010138:	f2dff06f          	j	41010064 <trap_handler_s__clear_highest_priority_interrupt>
    4101013c:	f29ff06f          	j	41010064 <trap_handler_s__clear_highest_priority_interrupt>
    41010140:	f25ff06f          	j	41010064 <trap_handler_s__clear_highest_priority_interrupt>
    41010144:	f21ff06f          	j	41010064 <trap_handler_s__clear_highest_priority_interrupt>
    41010148:	f1dff06f          	j	41010064 <trap_handler_s__clear_highest_priority_interrupt>
    4101014c:	f19ff06f          	j	41010064 <trap_handler_s__clear_highest_priority_interrupt>
    41010150:	f15ff06f          	j	41010064 <trap_handler_s__clear_highest_priority_interrupt>
    41010154:	f11ff06f          	j	41010064 <trap_handler_s__clear_highest_priority_interrupt>
    41010158:	f0dff06f          	j	41010064 <trap_handler_s__clear_highest_priority_interrupt>
    4101015c:	f09ff06f          	j	41010064 <trap_handler_s__clear_highest_priority_interrupt>
    41010160:	f05ff06f          	j	41010064 <trap_handler_s__clear_highest_priority_interrupt>
    41010164:	f01ff06f          	j	41010064 <trap_handler_s__clear_highest_priority_interrupt>
    41010168:	efdff06f          	j	41010064 <trap_handler_s__clear_highest_priority_interrupt>
    4101016c:	ef9ff06f          	j	41010064 <trap_handler_s__clear_highest_priority_interrupt>
    41010170:	ef5ff06f          	j	41010064 <trap_handler_s__clear_highest_priority_interrupt>

0000000041010174 <trap_handler_s__test_failed>:
    41010174:	00f00f9b          	addiw	x31,x0,15
    41010178:	01cf9f93          	slli	x31,x31,0x1c
    4101017c:	002f8f93          	addi	x31,x31,2
    41010180:	00000073          	ecall

0000000041010184 <trap_handler_s__trap_handler>:
    41010184:	142022f3          	csrr	x5,scause
    41010188:	fff0031b          	addiw	x6,x0,-1
    4101018c:	03f31313          	slli	x6,x6,0x3f
    41010190:	00537333          	and	x6,x6,x5
    41010194:	02030263          	beqz	x6,410101b8 <trap_handler_s__exception_path>

0000000041010198 <trap_handler_s__interrupt_handler>:
    41010198:	fff0031b          	addiw	x6,x0,-1
    4101019c:	03f31313          	slli	x6,x6,0x3f
    410101a0:	0062c2b3          	xor	x5,x5,x6
    410101a4:	00000317          	auipc	x6,0x0
    410101a8:	ed430313          	addi	x6,x6,-300 # 41010078 <trap_handler_s__trap_entry>
    410101ac:	00229293          	slli	x5,x5,0x2
    410101b0:	005302b3          	add	x5,x6,x5
    410101b4:	00028067          	jr	x5 # 2000 <SID_ZICBO_047_stack>

00000000410101b8 <trap_handler_s__exception_path>:
    410101b8:	14021273          	csrrw	x4,sscratch,x4
    410101bc:	00000297          	auipc	x5,0x0
    410101c0:	0cc28293          	addi	x5,x5,204 # 41010288 <trap_handler_s__trap_panic>
    410101c4:	10529073          	csrw	stvec,x5
    410101c8:	0040006f          	j	410101cc <trap_handler_s__excp_entry>

00000000410101cc <trap_handler_s__excp_entry>:
    410101cc:	14202373          	csrr	x6,scause
    410101d0:	00800293          	li	x5,8
    410101d4:	00534863          	blt	x6,x5,410101e4 <trap_handler_s__check_exception_label>
    410101d8:	00b00293          	li	x5,11
    410101dc:	0062c463          	blt	x5,x6,410101e4 <trap_handler_s__check_exception_label>
    410101e0:	0a80006f          	j	41010288 <trap_handler_s__trap_panic>

00000000410101e4 <trap_handler_s__check_exception_label>:
    410101e4:	04623c23          	sd	x6,88(x4) # 58 <XLEN+0x18>
    410101e8:	141022f3          	csrr	x5,sepc
    410101ec:	02523423          	sd	x5,40(x4) # 28 <SECURE_ACCESS_PROBABILITY+0xa>
    410101f0:	01820283          	lb	x5,24(x4) # 18 <STORE_GUEST_PAGE_FAULT+0x1>
    410101f4:	00029863          	bnez	x5,41010204 <trap_handler_s__check_excp>
    410101f8:	00128293          	addi	x5,x5,1
    410101fc:	00520c23          	sb	x5,24(x4) # 18 <STORE_GUEST_PAGE_FAULT+0x1>
    41010200:	05c0006f          	j	4101025c <trap_handler_s__ecall_from_machine>

0000000041010204 <trap_handler_s__check_excp>:
    41010204:	06823283          	ld	x5,104(x4) # 68 <XLEN+0x28>
    41010208:	06023423          	sd	x0,104(x4) # 68 <XLEN+0x28>
    4101020c:	00028663          	beqz	x5,41010218 <trap_handler_s__skip_mode_check>
    41010210:	00300393          	li	x7,3
    41010214:	f67290e3          	bne	x5,x7,41010174 <trap_handler_s__test_failed>

0000000041010218 <trap_handler_s__skip_mode_check>:
    41010218:	05023283          	ld	x5,80(x4) # 50 <XLEN+0x10>
    4101021c:	04023823          	sd	x0,80(x4) # 50 <XLEN+0x10>
    41010220:	f4531ae3          	bne	x6,x5,41010174 <trap_handler_s__test_failed>
    41010224:	03823283          	ld	x5,56(x4) # 38 <SECURE_ACCESS_PROBABILITY+0x1a>
    41010228:	02023c23          	sd	x0,56(x4) # 38 <SECURE_ACCESS_PROBABILITY+0x1a>
    4101022c:	02029663          	bnez	x5,41010258 <trap_handler_s__skip_nonzero_tval_check>
    41010230:	02023303          	ld	x6,32(x4) # 20 <SECURE_ACCESS_PROBABILITY+0x2>
    41010234:	02023023          	sd	x0,32(x4) # 20 <SECURE_ACCESS_PROBABILITY+0x2>
    41010238:	02823283          	ld	x5,40(x4) # 28 <SECURE_ACCESS_PROBABILITY+0xa>
    4101023c:	02023423          	sd	x0,40(x4) # 28 <SECURE_ACCESS_PROBABILITY+0xa>
    41010240:	f2531ae3          	bne	x6,x5,41010174 <trap_handler_s__test_failed>
    41010244:	04023283          	ld	x5,64(x4) # 40 <XLEN>
    41010248:	04023023          	sd	x0,64(x4) # 40 <XLEN>
    4101024c:	00028663          	beqz	x5,41010258 <trap_handler_s__skip_nonzero_tval_check>

0000000041010250 <trap_handler_s__nonzero_tval_check>:
    41010250:	14302373          	csrr	x6,stval
    41010254:	f25310e3          	bne	x6,x5,41010174 <trap_handler_s__test_failed>

0000000041010258 <trap_handler_s__skip_nonzero_tval_check>:
    41010258:	0040006f          	j	4101025c <trap_handler_s__ecall_from_machine>

000000004101025c <trap_handler_s__ecall_from_machine>:
    4101025c:	03023283          	ld	x5,48(x4) # 30 <SECURE_ACCESS_PROBABILITY+0x12>
    41010260:	02023823          	sd	x0,48(x4) # 30 <SECURE_ACCESS_PROBABILITY+0x12>
    41010264:	07023303          	ld	x6,112(x4) # 70 <XLEN+0x30>
    41010268:	06023823          	sd	x0,112(x4) # 70 <XLEN+0x30>
    4101026c:	00031463          	bnez	x6,41010274 <trap_handler_s__skip_xepc_write>
    41010270:	14129073          	csrw	sepc,x5

0000000041010274 <trap_handler_s__skip_xepc_write>:
    41010274:	00000317          	auipc	x6,0x0
    41010278:	e0430313          	addi	x6,x6,-508 # 41010078 <trap_handler_s__trap_entry>
    4101027c:	10531073          	csrw	stvec,x6
    41010280:	14021273          	csrrw	x4,sscratch,x4
    41010284:	10200073          	sret

0000000041010288 <trap_handler_s__trap_panic>:
    41010288:	00000193          	li	x3,0
    4101028c:	00f00f9b          	addiw	x31,x0,15
    41010290:	01cf9f93          	slli	x31,x31,0x1c
    41010294:	002f8f93          	addi	x31,x31,2
    41010298:	00000073          	ecall

Disassembly of section .code:

00000000410140a0 <passed>:
    410140a0:	00f00f9b          	addiw	x31,x0,15
    410140a4:	01cf9f93          	slli	x31,x31,0x1c
    410140a8:	001f8f93          	addi	x31,x31,1
    410140ac:	00000073          	ecall

00000000410140b0 <failed>:
    410140b0:	00f00f9b          	addiw	x31,x0,15
    410140b4:	01cf9f93          	slli	x31,x31,0x1c
    410140b8:	002f8f93          	addi	x31,x31,2
    410140bc:	00000073          	ecall

00000000410140c0 <end_test>:
    410140c0:	00f00f9b          	addiw	x31,x0,15
    410140c4:	01cf9f93          	slli	x31,x31,0x1c
    410140c8:	003f8f93          	addi	x31,x31,3
    410140cc:	00000073          	ecall

00000000410140d0 <test_setup>:
    410140d0:	00f00f9b          	addiw	x31,x0,15
    410140d4:	01cf9f93          	slli	x31,x31,0x1c
    410140d8:	001f8f93          	addi	x31,x31,1
    410140dc:	00000073          	ecall

00000000410140e0 <SID_ZICBO_001>:
    410140e0:	017e0137          	lui	x2,0x17e0
    410140e4:	4eb1011b          	addiw	x2,x2,1259 # 17e04eb <SID_ZICBO_001_stack+0x15624eb>
    410140e8:	00c11113          	slli	x2,x2,0xc
    410140ec:	00036fb7          	lui	x31,0x36
    410140f0:	0b8f8f9b          	addiw	x31,x31,184 # 360b8 <machine_csr_jump_table_flags>
    410140f4:	00100f13          	li	x30,1
    410140f8:	01efb023          	sd	x30,0(x31)
    410140fc:	000f0fb7          	lui	x31,0xf0
    41014100:	001f8f9b          	addiw	x31,x31,1 # f0001 <pma_region_0_size+0xb0001>
    41014104:	00cf9f93          	slli	x31,x31,0xc
    41014108:	005f8f93          	addi	x31,x31,5
    4101410c:	00000073          	ecall
    41014110:	00713023          	sd	x7,0(x2)
    41014114:	0027e137          	lui	x2,0x27e
    41014118:	000012b7          	lui	x5,0x1
    4101411c:	00510133          	add	x2,x2,x5
    41014120:	ff017113          	andi	x2,x2,-16
    41014124:	03000393          	li	x7,48
    41014128:	00036fb7          	lui	x31,0x36
    4101412c:	0b8f8f9b          	addiw	x31,x31,184 # 360b8 <machine_csr_jump_table_flags>
    41014130:	00200f13          	li	x30,2
    41014134:	01efb023          	sd	x30,0(x31)
    41014138:	000f0fb7          	lui	x31,0xf0
    4101413c:	001f8f9b          	addiw	x31,x31,1 # f0001 <pma_region_0_size+0xb0001>
    41014140:	00cf9f93          	slli	x31,x31,0xc
    41014144:	005f8f93          	addi	x31,x31,5
    41014148:	00000073          	ecall
    4101414c:	0752a237          	lui	x4,0x752a
    41014150:	d252021b          	addiw	x4,x4,-731 # 7529d25 <mem5+0x2371d25>
    41014154:	00d21213          	slli	x4,x4,0xd
    41014158:	00200e13          	li	x28,2
    4101415c:	05c23823          	sd	x28,80(x4) # 50 <XLEN+0x10>
    41014160:	00000e17          	auipc	x28,0x0
    41014164:	05ce0e13          	addi	x28,x28,92 # 410141bc <fault_label_0>
    41014168:	03c23023          	sd	x28,32(x4) # 20 <SECURE_ACCESS_PROBABILITY+0x2>
    4101416c:	00000e13          	li	x28,0
    41014170:	05c23023          	sd	x28,64(x4) # 40 <XLEN>
    41014174:	00000e13          	li	x28,0
    41014178:	05c23423          	sd	x28,72(x4) # 48 <XLEN+0x8>
    4101417c:	00000e17          	auipc	x28,0x0
    41014180:	054e0e13          	addi	x28,x28,84 # 410141d0 <excp_return_label_0>
    41014184:	03c23823          	sd	x28,48(x4) # 30 <SECURE_ACCESS_PROBABILITY+0x12>
    41014188:	00000e13          	li	x28,0
    4101418c:	03c23c23          	sd	x28,56(x4) # 38 <SECURE_ACCESS_PROBABILITY+0x1a>
    41014190:	00000e13          	li	x28,0
    41014194:	07c23023          	sd	x28,96(x4) # 60 <XLEN+0x20>
    41014198:	00000e13          	li	x28,0
    4101419c:	07c23423          	sd	x28,104(x4) # 68 <XLEN+0x28>
    410141a0:	00000e13          	li	x28,0
    410141a4:	07c23823          	sd	x28,112(x4) # 70 <XLEN+0x30>
    410141a8:	191773b7          	lui	x7,0x19177
    410141ac:	2073839b          	addiw	x7,x7,519 # 19177207 <mem14+0xd2ea207>
    410141b0:	00d39393          	slli	x7,x7,0xd
    410141b4:	00000f93          	li	x31,0
    410141b8:	01f384b3          	add	x9,x7,x31

00000000410141bc <fault_label_0>:
    410141bc:	0004a00f          	cbo.inval	(x9)
    410141c0:	00036837          	lui	x16,0x36
    410141c4:	0088081b          	addiw	x16,x16,8 # 36008 <failed_addr>
    410141c8:	00083583          	ld	x11,0(x16)
    410141cc:	00058067          	jr	x11

00000000410141d0 <excp_return_label_0>:
    410141d0:	017e0137          	lui	x2,0x17e0
    410141d4:	4eb1011b          	addiw	x2,x2,1259 # 17e04eb <SID_ZICBO_001_stack+0x15624eb>
    410141d8:	00c11113          	slli	x2,x2,0xc
    410141dc:	00013383          	ld	x7,0(x2)
    410141e0:	00036fb7          	lui	x31,0x36
    410141e4:	0b8f8f9b          	addiw	x31,x31,184 # 360b8 <machine_csr_jump_table_flags>
    410141e8:	00300f13          	li	x30,3
    410141ec:	01efb023          	sd	x30,0(x31)
    410141f0:	000f0fb7          	lui	x31,0xf0
    410141f4:	001f8f9b          	addiw	x31,x31,1 # f0001 <pma_region_0_size+0xb0001>
    410141f8:	00cf9f93          	slli	x31,x31,0xc
    410141fc:	005f8f93          	addi	x31,x31,5
    41014200:	00000073          	ecall

0000000041014204 <SID_ZICBO_001_passed>:
    41014204:	00f00f9b          	addiw	x31,x0,15
    41014208:	01cf9f93          	slli	x31,x31,0x1c
    4101420c:	001f8f93          	addi	x31,x31,1
    41014210:	00000073          	ecall

0000000041014214 <SID_ZICBO_003>:
    41014214:	017e0137          	lui	x2,0x17e0
    41014218:	4eb1011b          	addiw	x2,x2,1259 # 17e04eb <SID_ZICBO_001_stack+0x15624eb>
    4101421c:	00c11113          	slli	x2,x2,0xc
    41014220:	00036fb7          	lui	x31,0x36
    41014224:	0b8f8f9b          	addiw	x31,x31,184 # 360b8 <machine_csr_jump_table_flags>
    41014228:	00100f13          	li	x30,1
    4101422c:	01efb023          	sd	x30,0(x31)
    41014230:	000f0fb7          	lui	x31,0xf0
    41014234:	001f8f9b          	addiw	x31,x31,1 # f0001 <pma_region_0_size+0xb0001>
    41014238:	00cf9f93          	slli	x31,x31,0xc
    4101423c:	005f8f93          	addi	x31,x31,5
    41014240:	00000073          	ecall
    41014244:	00713023          	sd	x7,0(x2)
    41014248:	002cb137          	lui	x2,0x2cb
    4101424c:	3191011b          	addiw	x2,x2,793 # 2cb319 <SID_ZICBO_001_stack+0x4d319>
    41014250:	00c11113          	slli	x2,x2,0xc
    41014254:	000012b7          	lui	x5,0x1
    41014258:	00510133          	add	x2,x2,x5
    4101425c:	ff017113          	andi	x2,x2,-16
    41014260:	04000393          	li	x7,64
    41014264:	00036fb7          	lui	x31,0x36
    41014268:	0b8f8f9b          	addiw	x31,x31,184 # 360b8 <machine_csr_jump_table_flags>
    4101426c:	00200f13          	li	x30,2
    41014270:	01efb023          	sd	x30,0(x31)
    41014274:	000f0fb7          	lui	x31,0xf0
    41014278:	001f8f9b          	addiw	x31,x31,1 # f0001 <pma_region_0_size+0xb0001>
    4101427c:	00cf9f93          	slli	x31,x31,0xc
    41014280:	005f8f93          	addi	x31,x31,5
    41014284:	00000073          	ecall
    41014288:	0752a237          	lui	x4,0x752a
    4101428c:	d252021b          	addiw	x4,x4,-731 # 7529d25 <mem5+0x2371d25>
    41014290:	00d21213          	slli	x4,x4,0xd
    41014294:	00200e13          	li	x28,2
    41014298:	05c23823          	sd	x28,80(x4) # 50 <XLEN+0x10>
    4101429c:	00000e17          	auipc	x28,0x0
    410142a0:	054e0e13          	addi	x28,x28,84 # 410142f0 <fault_label_1>
    410142a4:	03c23023          	sd	x28,32(x4) # 20 <SECURE_ACCESS_PROBABILITY+0x2>
    410142a8:	00000e13          	li	x28,0
    410142ac:	05c23023          	sd	x28,64(x4) # 40 <XLEN>
    410142b0:	00000e13          	li	x28,0
    410142b4:	05c23423          	sd	x28,72(x4) # 48 <XLEN+0x8>
    410142b8:	00000e17          	auipc	x28,0x0
    410142bc:	04ce0e13          	addi	x28,x28,76 # 41014304 <excp_return_label_1>
    410142c0:	03c23823          	sd	x28,48(x4) # 30 <SECURE_ACCESS_PROBABILITY+0x12>
    410142c4:	00000e13          	li	x28,0
    410142c8:	03c23c23          	sd	x28,56(x4) # 38 <SECURE_ACCESS_PROBABILITY+0x1a>
    410142cc:	00000e13          	li	x28,0
    410142d0:	07c23023          	sd	x28,96(x4) # 60 <XLEN+0x20>
    410142d4:	00000e13          	li	x28,0
    410142d8:	07c23423          	sd	x28,104(x4) # 68 <XLEN+0x28>
    410142dc:	00000e13          	li	x28,0
    410142e0:	07c23823          	sd	x28,112(x4) # 70 <XLEN+0x30>
    410142e4:	408e1b37          	lui	x22,0x408e1
    410142e8:	00000393          	li	x7,0
    410142ec:	007b0ab3          	add	x21,x22,x7

00000000410142f0 <fault_label_1>:
    410142f0:	001aa00f          	cbo.clean	(x21)
    410142f4:	00036c37          	lui	x24,0x36
    410142f8:	008c0c1b          	addiw	x24,x24,8 # 36008 <failed_addr>
    410142fc:	000c3f03          	ld	x30,0(x24)
    41014300:	000f0067          	jr	x30

0000000041014304 <excp_return_label_1>:
    41014304:	0752a237          	lui	x4,0x752a
    41014308:	d252021b          	addiw	x4,x4,-731 # 7529d25 <mem5+0x2371d25>
    4101430c:	00d21213          	slli	x4,x4,0xd
    41014310:	00200e13          	li	x28,2
    41014314:	05c23823          	sd	x28,80(x4) # 50 <XLEN+0x10>
    41014318:	00000e17          	auipc	x28,0x0
    4101431c:	054e0e13          	addi	x28,x28,84 # 4101436c <fault_label_2>
    41014320:	03c23023          	sd	x28,32(x4) # 20 <SECURE_ACCESS_PROBABILITY+0x2>
    41014324:	00000e13          	li	x28,0
    41014328:	05c23023          	sd	x28,64(x4) # 40 <XLEN>
    4101432c:	00000e13          	li	x28,0
    41014330:	05c23423          	sd	x28,72(x4) # 48 <XLEN+0x8>
    41014334:	00000e17          	auipc	x28,0x0
    41014338:	04ce0e13          	addi	x28,x28,76 # 41014380 <excp_return_label_2>
    4101433c:	03c23823          	sd	x28,48(x4) # 30 <SECURE_ACCESS_PROBABILITY+0x12>
    41014340:	00000e13          	li	x28,0
    41014344:	03c23c23          	sd	x28,56(x4) # 38 <SECURE_ACCESS_PROBABILITY+0x1a>
    41014348:	00000e13          	li	x28,0
    4101434c:	07c23023          	sd	x28,96(x4) # 60 <XLEN+0x20>
    41014350:	00000e13          	li	x28,0
    41014354:	07c23423          	sd	x28,104(x4) # 68 <XLEN+0x28>
    41014358:	00000e13          	li	x28,0
    4101435c:	07c23823          	sd	x28,112(x4) # 70 <XLEN+0x30>
    41014360:	408e19b7          	lui	x19,0x408e1
    41014364:	00000693          	li	x13,0
    41014368:	00d98533          	add	x10,x19,x13

000000004101436c <fault_label_2>:
    4101436c:	0025200f          	cbo.flush	(x10)
    41014370:	00036e37          	lui	x28,0x36
    41014374:	008e0e1b          	addiw	x28,x28,8 # 36008 <failed_addr>
    41014378:	000e3303          	ld	x6,0(x28)
    4101437c:	00030067          	jr	x6

0000000041014380 <excp_return_label_2>:
    41014380:	017e0137          	lui	x2,0x17e0
    41014384:	4eb1011b          	addiw	x2,x2,1259 # 17e04eb <SID_ZICBO_001_stack+0x15624eb>
    41014388:	00c11113          	slli	x2,x2,0xc
    4101438c:	00013383          	ld	x7,0(x2)
    41014390:	00036fb7          	lui	x31,0x36
    41014394:	0b8f8f9b          	addiw	x31,x31,184 # 360b8 <machine_csr_jump_table_flags>
    41014398:	00300f13          	li	x30,3
    4101439c:	01efb023          	sd	x30,0(x31)
    410143a0:	000f0fb7          	lui	x31,0xf0
    410143a4:	001f8f9b          	addiw	x31,x31,1 # f0001 <pma_region_0_size+0xb0001>
    410143a8:	00cf9f93          	slli	x31,x31,0xc
    410143ac:	005f8f93          	addi	x31,x31,5
    410143b0:	00000073          	ecall

00000000410143b4 <SID_ZICBO_003_passed>:
    410143b4:	00f00f9b          	addiw	x31,x0,15
    410143b8:	01cf9f93          	slli	x31,x31,0x1c
    410143bc:	001f8f93          	addi	x31,x31,1
    410143c0:	00000073          	ecall

00000000410143c4 <SID_ZICBO_005>:
    410143c4:	017e0137          	lui	x2,0x17e0
    410143c8:	4eb1011b          	addiw	x2,x2,1259 # 17e04eb <SID_ZICBO_001_stack+0x15624eb>
    410143cc:	00c11113          	slli	x2,x2,0xc
    410143d0:	00036fb7          	lui	x31,0x36
    410143d4:	0b8f8f9b          	addiw	x31,x31,184 # 360b8 <machine_csr_jump_table_flags>
    410143d8:	00100f13          	li	x30,1
    410143dc:	01efb023          	sd	x30,0(x31)
    410143e0:	000f0fb7          	lui	x31,0xf0
    410143e4:	001f8f9b          	addiw	x31,x31,1 # f0001 <pma_region_0_size+0xb0001>
    410143e8:	00cf9f93          	slli	x31,x31,0xc
    410143ec:	005f8f93          	addi	x31,x31,5
    410143f0:	00000073          	ecall
    410143f4:	00713023          	sd	x7,0(x2)
    410143f8:	0004a137          	lui	x2,0x4a
    410143fc:	89d1011b          	addiw	x2,x2,-1891 # 4989d <pma_region_0_size+0x989d>
    41014400:	00d11113          	slli	x2,x2,0xd
    41014404:	000012b7          	lui	x5,0x1
    41014408:	00510133          	add	x2,x2,x5
    4101440c:	ff017113          	andi	x2,x2,-16
    41014410:	08000393          	li	x7,128
    41014414:	00036fb7          	lui	x31,0x36
    41014418:	0b8f8f9b          	addiw	x31,x31,184 # 360b8 <machine_csr_jump_table_flags>
    4101441c:	00200f13          	li	x30,2
    41014420:	01efb023          	sd	x30,0(x31)
    41014424:	000f0fb7          	lui	x31,0xf0
    41014428:	001f8f9b          	addiw	x31,x31,1 # f0001 <pma_region_0_size+0xb0001>
    4101442c:	00cf9f93          	slli	x31,x31,0xc
    41014430:	005f8f93          	addi	x31,x31,5
    41014434:	00000073          	ecall
    41014438:	0752a237          	lui	x4,0x752a
    4101443c:	d252021b          	addiw	x4,x4,-731 # 7529d25 <mem5+0x2371d25>
    41014440:	00d21213          	slli	x4,x4,0xd
    41014444:	00200e13          	li	x28,2
    41014448:	05c23823          	sd	x28,80(x4) # 50 <XLEN+0x10>
    4101444c:	00000e17          	auipc	x28,0x0
    41014450:	064e0e13          	addi	x28,x28,100 # 410144b0 <fault_label_3>
    41014454:	03c23023          	sd	x28,32(x4) # 20 <SECURE_ACCESS_PROBABILITY+0x2>
    41014458:	00000e13          	li	x28,0
    4101445c:	05c23023          	sd	x28,64(x4) # 40 <XLEN>
    41014460:	00000e13          	li	x28,0
    41014464:	05c23423          	sd	x28,72(x4) # 48 <XLEN+0x8>
    41014468:	00000e17          	auipc	x28,0x0
    4101446c:	05ce0e13          	addi	x28,x28,92 # 410144c4 <excp_return_label_3>
    41014470:	03c23823          	sd	x28,48(x4) # 30 <SECURE_ACCESS_PROBABILITY+0x12>
    41014474:	00000e13          	li	x28,0
    41014478:	03c23c23          	sd	x28,56(x4) # 38 <SECURE_ACCESS_PROBABILITY+0x1a>
    4101447c:	00000e13          	li	x28,0
    41014480:	07c23023          	sd	x28,96(x4) # 60 <XLEN+0x20>
    41014484:	00000e13          	li	x28,0
    41014488:	07c23423          	sd	x28,104(x4) # 68 <XLEN+0x28>
    4101448c:	00000e13          	li	x28,0
    41014490:	07c23823          	sd	x28,112(x4) # 70 <XLEN+0x30>
    41014494:	000c39b7          	lui	x19,0xc3
    41014498:	7b99899b          	addiw	x19,x19,1977 # c37b9 <pma_region_0_size+0x837b9>
    4101449c:	00c99993          	slli	x19,x19,0xc
    410144a0:	c8598993          	addi	x19,x19,-891
    410144a4:	00c99993          	slli	x19,x19,0xc
    410144a8:	00000a93          	li	x21,0
    410144ac:	01598e33          	add	x28,x19,x21

00000000410144b0 <fault_label_3>:
    410144b0:	004e200f          	cbo.zero	(x28)
    410144b4:	00036ab7          	lui	x21,0x36
    410144b8:	008a8a9b          	addiw	x21,x21,8 # 36008 <failed_addr>
    410144bc:	000abe03          	ld	x28,0(x21)
    410144c0:	000e0067          	jr	x28

00000000410144c4 <excp_return_label_3>:
    410144c4:	017e0137          	lui	x2,0x17e0
    410144c8:	4eb1011b          	addiw	x2,x2,1259 # 17e04eb <SID_ZICBO_001_stack+0x15624eb>
    410144cc:	00c11113          	slli	x2,x2,0xc
    410144d0:	00013383          	ld	x7,0(x2)
    410144d4:	00036fb7          	lui	x31,0x36
    410144d8:	0b8f8f9b          	addiw	x31,x31,184 # 360b8 <machine_csr_jump_table_flags>
    410144dc:	00300f13          	li	x30,3
    410144e0:	01efb023          	sd	x30,0(x31)
    410144e4:	000f0fb7          	lui	x31,0xf0
    410144e8:	001f8f9b          	addiw	x31,x31,1 # f0001 <pma_region_0_size+0xb0001>
    410144ec:	00cf9f93          	slli	x31,x31,0xc
    410144f0:	005f8f93          	addi	x31,x31,5
    410144f4:	00000073          	ecall

00000000410144f8 <SID_ZICBO_005_passed>:
    410144f8:	00f00f9b          	addiw	x31,x0,15
    410144fc:	01cf9f93          	slli	x31,x31,0x1c
    41014500:	001f8f93          	addi	x31,x31,1
    41014504:	00000073          	ecall

0000000041014508 <SID_ZICBO_013>:
    41014508:	0bfaf137          	lui	x2,0xbfaf
    4101450c:	3371011b          	addiw	x2,x2,823 # bfaf337 <mem14+0x122337>
    41014510:	00c11113          	slli	x2,x2,0xc
    41014514:	000012b7          	lui	x5,0x1
    41014518:	00510133          	add	x2,x2,x5
    4101451c:	ff017113          	andi	x2,x2,-16
    41014520:	00120337          	lui	x6,0x120
    41014524:	7333031b          	addiw	x6,x6,1843 # 120733 <pma_region_0_size+0xe0733>
    41014528:	00c31313          	slli	x6,x6,0xc
    4101452c:	abb30313          	addi	x6,x6,-1349
    41014530:	00c31313          	slli	x6,x6,0xc
    41014534:	00000e93          	li	x29,0
    41014538:	01d30ab3          	add	x21,x6,x29
    4101453c:	000ae013          	prefetch.i	0(x21)
    41014540:	001207b7          	lui	x15,0x120
    41014544:	7337879b          	addiw	x15,x15,1843 # 120733 <pma_region_0_size+0xe0733>
    41014548:	00c79793          	slli	x15,x15,0xc
    4101454c:	abb78793          	addi	x15,x15,-1349
    41014550:	00c79793          	slli	x15,x15,0xc
    41014554:	00000e93          	li	x29,0
    41014558:	01d78eb3          	add	x29,x15,x29
    4101455c:	001ee013          	prefetch.r	0(x29)
    41014560:	00120737          	lui	x14,0x120
    41014564:	7337071b          	addiw	x14,x14,1843 # 120733 <pma_region_0_size+0xe0733>
    41014568:	00c71713          	slli	x14,x14,0xc
    4101456c:	abb70713          	addi	x14,x14,-1349
    41014570:	00c71713          	slli	x14,x14,0xc
    41014574:	00000e13          	li	x28,0
    41014578:	01c70533          	add	x10,x14,x28
    4101457c:	00356013          	prefetch.w	0(x10)

0000000041014580 <SID_ZICBO_013_passed>:
    41014580:	00f00f9b          	addiw	x31,x0,15
    41014584:	01cf9f93          	slli	x31,x31,0x1c
    41014588:	001f8f93          	addi	x31,x31,1
    4101458c:	00000073          	ecall

0000000041014590 <SID_ZICBO_015>:
    41014590:	00038137          	lui	x2,0x38
    41014594:	000012b7          	lui	x5,0x1
    41014598:	00510133          	add	x2,x2,x5
    4101459c:	ff017113          	andi	x2,x2,-16
    410145a0:	00f97837          	lui	x16,0xf97
    410145a4:	a6f8081b          	addiw	x16,x16,-1425 # f96a6f <SID_ZICBO_001_stack+0xd18a6f>
    410145a8:	00c81813          	slli	x16,x16,0xc
    410145ac:	7e000313          	li	x6,2016
    410145b0:	006803b3          	add	x7,x16,x6
    410145b4:	0003e013          	prefetch.i	0(x7)

00000000410145b8 <SID_ZICBO_015_passed>:
    410145b8:	00f00f9b          	addiw	x31,x0,15
    410145bc:	01cf9f93          	slli	x31,x31,0x1c
    410145c0:	001f8f93          	addi	x31,x31,1
    410145c4:	00000073          	ecall

00000000410145c8 <SID_ZICBO_016>:
    410145c8:	0a63e137          	lui	x2,0xa63e
    410145cc:	000012b7          	lui	x5,0x1
    410145d0:	00510133          	add	x2,x2,x5
    410145d4:	ff017113          	andi	x2,x2,-16
    410145d8:	051b8337          	lui	x6,0x51b8
    410145dc:	00000d93          	li	x27,0
    410145e0:	01b30c33          	add	x24,x6,x27
    410145e4:	001c6013          	prefetch.r	0(x24)
    410145e8:	051b83b7          	lui	x7,0x51b8
    410145ec:	7e000a13          	li	x20,2016
    410145f0:	01438333          	add	x6,x7,x20
    410145f4:	00136013          	prefetch.r	0(x6)
    410145f8:	051b8737          	lui	x14,0x51b8
    410145fc:	00000b93          	li	x23,0
    41014600:	01770333          	add	x6,x14,x23
    41014604:	00336013          	prefetch.w	0(x6)
    41014608:	051b8437          	lui	x8,0x51b8
    4101460c:	7e000f13          	li	x30,2016
    41014610:	01e408b3          	add	x17,x8,x30
    41014614:	0038e013          	prefetch.w	0(x17)

0000000041014618 <SID_ZICBO_016_passed>:
    41014618:	00f00f9b          	addiw	x31,x0,15
    4101461c:	01cf9f93          	slli	x31,x31,0x1c
    41014620:	001f8f93          	addi	x31,x31,1
    41014624:	00000073          	ecall

0000000041014628 <SID_ZICBO_017>:
    41014628:	017e0137          	lui	x2,0x17e0
    4101462c:	4eb1011b          	addiw	x2,x2,1259 # 17e04eb <SID_ZICBO_001_stack+0x15624eb>
    41014630:	00c11113          	slli	x2,x2,0xc
    41014634:	00036fb7          	lui	x31,0x36
    41014638:	0b8f8f9b          	addiw	x31,x31,184 # 360b8 <machine_csr_jump_table_flags>
    4101463c:	00a00f13          	li	x30,10
    41014640:	01efb023          	sd	x30,0(x31)
    41014644:	000f0fb7          	lui	x31,0xf0
    41014648:	001f8f9b          	addiw	x31,x31,1 # f0001 <pma_region_0_size+0xb0001>
    4101464c:	00cf9f93          	slli	x31,x31,0xc
    41014650:	005f8f93          	addi	x31,x31,5
    41014654:	00000073          	ecall
    41014658:	00713023          	sd	x7,0(x2)
    4101465c:	00036fb7          	lui	x31,0x36
    41014660:	0b8f8f9b          	addiw	x31,x31,184 # 360b8 <machine_csr_jump_table_flags>
    41014664:	00100f13          	li	x30,1
    41014668:	01efb023          	sd	x30,0(x31)
    4101466c:	000f0fb7          	lui	x31,0xf0
    41014670:	001f8f9b          	addiw	x31,x31,1 # f0001 <pma_region_0_size+0xb0001>
    41014674:	00cf9f93          	slli	x31,x31,0xc
    41014678:	005f8f93          	addi	x31,x31,5
    4101467c:	00000073          	ecall
    41014680:	00713423          	sd	x7,8(x2)
    41014684:	00036fb7          	lui	x31,0x36
    41014688:	0b8f8f9b          	addiw	x31,x31,184 # 360b8 <machine_csr_jump_table_flags>
    4101468c:	00c00f13          	li	x30,12
    41014690:	01efb023          	sd	x30,0(x31)
    41014694:	000f0fb7          	lui	x31,0xf0
    41014698:	001f8f9b          	addiw	x31,x31,1 # f0001 <pma_region_0_size+0xb0001>
    4101469c:	00cf9f93          	slli	x31,x31,0xc
    410146a0:	005f8f93          	addi	x31,x31,5
    410146a4:	00000073          	ecall
    410146a8:	00713823          	sd	x7,16(x2)
    410146ac:	77723137          	lui	x2,0x77723
    410146b0:	000012b7          	lui	x5,0x1
    410146b4:	00510133          	add	x2,x2,x5
    410146b8:	ff017113          	andi	x2,x2,-16
    410146bc:	08000393          	li	x7,128
    410146c0:	00036fb7          	lui	x31,0x36
    410146c4:	0b8f8f9b          	addiw	x31,x31,184 # 360b8 <machine_csr_jump_table_flags>
    410146c8:	00d00f13          	li	x30,13
    410146cc:	01efb023          	sd	x30,0(x31)
    410146d0:	000f0fb7          	lui	x31,0xf0
    410146d4:	001f8f9b          	addiw	x31,x31,1 # f0001 <pma_region_0_size+0xb0001>
    410146d8:	00cf9f93          	slli	x31,x31,0xc
    410146dc:	005f8f93          	addi	x31,x31,5
    410146e0:	00000073          	ecall
    410146e4:	08000f93          	li	x31,128
    410146e8:	10afaaf3          	csrrs	x21,0x10a,x31
    410146ec:	08000b93          	li	x23,128
    410146f0:	60abad73          	csrrs	x26,henvcfg,x23
    410146f4:	0003a737          	lui	x14,0x3a
    410146f8:	00000993          	li	x19,0
    410146fc:	013707b3          	add	x15,x14,x19
    41014700:	0047a00f          	cbo.zero	(x15)
    41014704:	017e0137          	lui	x2,0x17e0
    41014708:	4eb1011b          	addiw	x2,x2,1259 # 17e04eb <SID_ZICBO_001_stack+0x15624eb>
    4101470c:	00c11113          	slli	x2,x2,0xc
    41014710:	00013383          	ld	x7,0(x2)
    41014714:	00036fb7          	lui	x31,0x36
    41014718:	0b8f8f9b          	addiw	x31,x31,184 # 360b8 <machine_csr_jump_table_flags>
    4101471c:	00e00f13          	li	x30,14
    41014720:	01efb023          	sd	x30,0(x31)
    41014724:	000f0fb7          	lui	x31,0xf0
    41014728:	001f8f9b          	addiw	x31,x31,1 # f0001 <pma_region_0_size+0xb0001>
    4101472c:	00cf9f93          	slli	x31,x31,0xc
    41014730:	005f8f93          	addi	x31,x31,5
    41014734:	00000073          	ecall
    41014738:	00813383          	ld	x7,8(x2)
    4101473c:	00036fb7          	lui	x31,0x36
    41014740:	0b8f8f9b          	addiw	x31,x31,184 # 360b8 <machine_csr_jump_table_flags>
    41014744:	00300f13          	li	x30,3
    41014748:	01efb023          	sd	x30,0(x31)
    4101474c:	000f0fb7          	lui	x31,0xf0
    41014750:	001f8f9b          	addiw	x31,x31,1 # f0001 <pma_region_0_size+0xb0001>
    41014754:	00cf9f93          	slli	x31,x31,0xc
    41014758:	005f8f93          	addi	x31,x31,5
    4101475c:	00000073          	ecall
    41014760:	01013383          	ld	x7,16(x2)
    41014764:	00036fb7          	lui	x31,0x36
    41014768:	0b8f8f9b          	addiw	x31,x31,184 # 360b8 <machine_csr_jump_table_flags>
    4101476c:	01000f13          	li	x30,16
    41014770:	01efb023          	sd	x30,0(x31)
    41014774:	000f0fb7          	lui	x31,0xf0
    41014778:	001f8f9b          	addiw	x31,x31,1 # f0001 <pma_region_0_size+0xb0001>
    4101477c:	00cf9f93          	slli	x31,x31,0xc
    41014780:	005f8f93          	addi	x31,x31,5
    41014784:	00000073          	ecall

0000000041014788 <SID_ZICBO_017_passed>:
    41014788:	00f00f9b          	addiw	x31,x0,15
    4101478c:	01cf9f93          	slli	x31,x31,0x1c
    41014790:	001f8f93          	addi	x31,x31,1
    41014794:	00000073          	ecall

0000000041014798 <SID_ZICBO_018>:
    41014798:	017e0137          	lui	x2,0x17e0
    4101479c:	4eb1011b          	addiw	x2,x2,1259 # 17e04eb <SID_ZICBO_001_stack+0x15624eb>
    410147a0:	00c11113          	slli	x2,x2,0xc
    410147a4:	00036fb7          	lui	x31,0x36
    410147a8:	0b8f8f9b          	addiw	x31,x31,184 # 360b8 <machine_csr_jump_table_flags>
    410147ac:	00a00f13          	li	x30,10
    410147b0:	01efb023          	sd	x30,0(x31)
    410147b4:	000f0fb7          	lui	x31,0xf0
    410147b8:	001f8f9b          	addiw	x31,x31,1 # f0001 <pma_region_0_size+0xb0001>
    410147bc:	00cf9f93          	slli	x31,x31,0xc
    410147c0:	005f8f93          	addi	x31,x31,5
    410147c4:	00000073          	ecall
    410147c8:	00713023          	sd	x7,0(x2)
    410147cc:	00036fb7          	lui	x31,0x36
    410147d0:	0b8f8f9b          	addiw	x31,x31,184 # 360b8 <machine_csr_jump_table_flags>
    410147d4:	00100f13          	li	x30,1
    410147d8:	01efb023          	sd	x30,0(x31)
    410147dc:	000f0fb7          	lui	x31,0xf0
    410147e0:	001f8f9b          	addiw	x31,x31,1 # f0001 <pma_region_0_size+0xb0001>
    410147e4:	00cf9f93          	slli	x31,x31,0xc
    410147e8:	005f8f93          	addi	x31,x31,5
    410147ec:	00000073          	ecall
    410147f0:	00713423          	sd	x7,8(x2)
    410147f4:	00036fb7          	lui	x31,0x36
    410147f8:	0b8f8f9b          	addiw	x31,x31,184 # 360b8 <machine_csr_jump_table_flags>
    410147fc:	00c00f13          	li	x30,12
    41014800:	01efb023          	sd	x30,0(x31)
    41014804:	000f0fb7          	lui	x31,0xf0
    41014808:	001f8f9b          	addiw	x31,x31,1 # f0001 <pma_region_0_size+0xb0001>
    4101480c:	00cf9f93          	slli	x31,x31,0xc
    41014810:	005f8f93          	addi	x31,x31,5
    41014814:	00000073          	ecall
    41014818:	00713823          	sd	x7,16(x2)
    4101481c:	03b95137          	lui	x2,0x3b95
    41014820:	4bd1011b          	addiw	x2,x2,1213 # 3b954bd <mem7+0x3c44bd>
    41014824:	00c11113          	slli	x2,x2,0xc
    41014828:	000012b7          	lui	x5,0x1
    4101482c:	00510133          	add	x2,x2,x5
    41014830:	ff017113          	andi	x2,x2,-16
    41014834:	0f000393          	li	x7,240
    41014838:	00036fb7          	lui	x31,0x36
    4101483c:	0b8f8f9b          	addiw	x31,x31,184 # 360b8 <machine_csr_jump_table_flags>
    41014840:	00d00f13          	li	x30,13
    41014844:	01efb023          	sd	x30,0(x31)
    41014848:	000f0fb7          	lui	x31,0xf0
    4101484c:	001f8f9b          	addiw	x31,x31,1 # f0001 <pma_region_0_size+0xb0001>
    41014850:	00cf9f93          	slli	x31,x31,0xc
    41014854:	005f8f93          	addi	x31,x31,5
    41014858:	00000073          	ecall
    4101485c:	0f000813          	li	x16,240
    41014860:	10a82373          	csrrs	x6,0x10a,x16
    41014864:	0f000b13          	li	x22,240
    41014868:	60ab2df3          	csrrs	x27,henvcfg,x22
    4101486c:	037d1fb7          	lui	x31,0x37d1
    41014870:	380215b7          	lui	x11,0x38021
    41014874:	8ac5859b          	addiw	x11,x11,-1876 # 380208ac <mem14+0x2c1938ac>
    41014878:	d015f353          	fcvt.s.wu	f6,x11
    4101487c:	006fa027          	fsw	f6,0(x31) # 37d1000 <mem7>
    41014880:	037d1837          	lui	x16,0x37d1
    41014884:	00000593          	li	x11,0
    41014888:	00b809b3          	add	x19,x16,x11
    4101488c:	0049a00f          	cbo.zero	(x19)
    41014890:	037d1637          	lui	x12,0x37d1
    41014894:	00062583          	lw	x11,0(x12) # 37d1000 <mem7>
    41014898:	00b58a63          	beq	x11,x11,410148ac <pass_label_0>
    4101489c:	00036bb7          	lui	x23,0x36
    410148a0:	008b8b9b          	addiw	x23,x23,8 # 36008 <failed_addr>
    410148a4:	000bb603          	ld	x12,0(x23)
    410148a8:	00060067          	jr	x12

00000000410148ac <pass_label_0>:
    410148ac:	017e0137          	lui	x2,0x17e0
    410148b0:	4eb1011b          	addiw	x2,x2,1259 # 17e04eb <SID_ZICBO_001_stack+0x15624eb>
    410148b4:	00c11113          	slli	x2,x2,0xc
    410148b8:	00013383          	ld	x7,0(x2)
    410148bc:	00036fb7          	lui	x31,0x36
    410148c0:	0b8f8f9b          	addiw	x31,x31,184 # 360b8 <machine_csr_jump_table_flags>
    410148c4:	00e00f13          	li	x30,14
    410148c8:	01efb023          	sd	x30,0(x31)
    410148cc:	000f0fb7          	lui	x31,0xf0
    410148d0:	001f8f9b          	addiw	x31,x31,1 # f0001 <pma_region_0_size+0xb0001>
    410148d4:	00cf9f93          	slli	x31,x31,0xc
    410148d8:	005f8f93          	addi	x31,x31,5
    410148dc:	00000073          	ecall
    410148e0:	00813383          	ld	x7,8(x2)
    410148e4:	00036fb7          	lui	x31,0x36
    410148e8:	0b8f8f9b          	addiw	x31,x31,184 # 360b8 <machine_csr_jump_table_flags>
    410148ec:	00300f13          	li	x30,3
    410148f0:	01efb023          	sd	x30,0(x31)
    410148f4:	000f0fb7          	lui	x31,0xf0
    410148f8:	001f8f9b          	addiw	x31,x31,1 # f0001 <pma_region_0_size+0xb0001>
    410148fc:	00cf9f93          	slli	x31,x31,0xc
    41014900:	005f8f93          	addi	x31,x31,5
    41014904:	00000073          	ecall
    41014908:	01013383          	ld	x7,16(x2)
    4101490c:	00036fb7          	lui	x31,0x36
    41014910:	0b8f8f9b          	addiw	x31,x31,184 # 360b8 <machine_csr_jump_table_flags>
    41014914:	01000f13          	li	x30,16
    41014918:	01efb023          	sd	x30,0(x31)
    4101491c:	000f0fb7          	lui	x31,0xf0
    41014920:	001f8f9b          	addiw	x31,x31,1 # f0001 <pma_region_0_size+0xb0001>
    41014924:	00cf9f93          	slli	x31,x31,0xc
    41014928:	005f8f93          	addi	x31,x31,5
    4101492c:	00000073          	ecall

0000000041014930 <SID_ZICBO_018_passed>:
    41014930:	00f00f9b          	addiw	x31,x0,15
    41014934:	01cf9f93          	slli	x31,x31,0x1c
    41014938:	001f8f93          	addi	x31,x31,1
    4101493c:	00000073          	ecall

0000000041014940 <SID_ZICBO_019>:
    41014940:	017e0137          	lui	x2,0x17e0
    41014944:	4eb1011b          	addiw	x2,x2,1259 # 17e04eb <SID_ZICBO_001_stack+0x15624eb>
    41014948:	00c11113          	slli	x2,x2,0xc
    4101494c:	00036fb7          	lui	x31,0x36
    41014950:	0b8f8f9b          	addiw	x31,x31,184 # 360b8 <machine_csr_jump_table_flags>
    41014954:	00a00f13          	li	x30,10
    41014958:	01efb023          	sd	x30,0(x31)
    4101495c:	000f0fb7          	lui	x31,0xf0
    41014960:	001f8f9b          	addiw	x31,x31,1 # f0001 <pma_region_0_size+0xb0001>
    41014964:	00cf9f93          	slli	x31,x31,0xc
    41014968:	005f8f93          	addi	x31,x31,5
    4101496c:	00000073          	ecall
    41014970:	00713023          	sd	x7,0(x2)
    41014974:	00036fb7          	lui	x31,0x36
    41014978:	0b8f8f9b          	addiw	x31,x31,184 # 360b8 <machine_csr_jump_table_flags>
    4101497c:	00100f13          	li	x30,1
    41014980:	01efb023          	sd	x30,0(x31)
    41014984:	000f0fb7          	lui	x31,0xf0
    41014988:	001f8f9b          	addiw	x31,x31,1 # f0001 <pma_region_0_size+0xb0001>
    4101498c:	00cf9f93          	slli	x31,x31,0xc
    41014990:	005f8f93          	addi	x31,x31,5
    41014994:	00000073          	ecall
    41014998:	00713423          	sd	x7,8(x2)
    4101499c:	00036fb7          	lui	x31,0x36
    410149a0:	0b8f8f9b          	addiw	x31,x31,184 # 360b8 <machine_csr_jump_table_flags>
    410149a4:	00c00f13          	li	x30,12
    410149a8:	01efb023          	sd	x30,0(x31)
    410149ac:	000f0fb7          	lui	x31,0xf0
    410149b0:	001f8f9b          	addiw	x31,x31,1 # f0001 <pma_region_0_size+0xb0001>
    410149b4:	00cf9f93          	slli	x31,x31,0xc
    410149b8:	005f8f93          	addi	x31,x31,5
    410149bc:	00000073          	ecall
    410149c0:	00713823          	sd	x7,16(x2)
    410149c4:	000c3137          	lui	x2,0xc3
    410149c8:	7b91011b          	addiw	x2,x2,1977 # c37b9 <pma_region_0_size+0x837b9>
    410149cc:	00c11113          	slli	x2,x2,0xc
    410149d0:	c8310113          	addi	x2,x2,-893
    410149d4:	00c11113          	slli	x2,x2,0xc
    410149d8:	000012b7          	lui	x5,0x1
    410149dc:	00510133          	add	x2,x2,x5
    410149e0:	ff017113          	andi	x2,x2,-16
    410149e4:	0f000393          	li	x7,240
    410149e8:	00036fb7          	lui	x31,0x36
    410149ec:	0b8f8f9b          	addiw	x31,x31,184 # 360b8 <machine_csr_jump_table_flags>
    410149f0:	00d00f13          	li	x30,13
    410149f4:	01efb023          	sd	x30,0(x31)
    410149f8:	000f0fb7          	lui	x31,0xf0
    410149fc:	001f8f9b          	addiw	x31,x31,1 # f0001 <pma_region_0_size+0xb0001>
    41014a00:	00cf9f93          	slli	x31,x31,0xc
    41014a04:	005f8f93          	addi	x31,x31,5
    41014a08:	00000073          	ecall
    41014a0c:	0f000b93          	li	x23,240
    41014a10:	10abaef3          	csrrs	x29,0x10a,x23
    41014a14:	0f000693          	li	x13,240
    41014a18:	60a6a8f3          	csrrs	x17,henvcfg,x13
    41014a1c:	00014937          	lui	x18,0x14
    41014a20:	00080f37          	lui	x30,0x80
    41014a24:	347f0f1b          	addiw	x30,x30,839 # 80347 <pma_region_0_size+0x40347>
    41014a28:	00cf1f13          	slli	x30,x30,0xc
    41014a2c:	8b9f0f13          	addi	x30,x30,-1863
    41014a30:	d00f7ed3          	fcvt.s.w	f29,x30
    41014a34:	01d92027          	fsw	f29,0(x18) # 14000 <mem8>
    41014a38:	00014d37          	lui	x26,0x14
    41014a3c:	00000e13          	li	x28,0
    41014a40:	01cd0b33          	add	x22,x26,x28
    41014a44:	004b200f          	cbo.zero	(x22)
    41014a48:	00014eb7          	lui	x29,0x14
    41014a4c:	000ea403          	lw	x8,0(x29) # 14000 <mem8>
    41014a50:	001f53b7          	lui	x7,0x1f5
    41014a54:	85f3839b          	addiw	x7,x7,-1953 # 1f485f <pma_region_0_size+0x1b485f>
    41014a58:	01439393          	slli	x7,x7,0x14
    41014a5c:	0003a803          	lw	x16,0(x7)
    41014a60:	00840a63          	beq	x8,x8,41014a74 <pass_label_1>
    41014a64:	000363b7          	lui	x7,0x36
    41014a68:	0083839b          	addiw	x7,x7,8 # 36008 <failed_addr>
    41014a6c:	0003bd83          	ld	x27,0(x7)
    41014a70:	000d8067          	jr	x27

0000000041014a74 <pass_label_1>:
    41014a74:	01080a63          	beq	x16,x16,41014a88 <pass_label_2>
    41014a78:	00036bb7          	lui	x23,0x36
    41014a7c:	008b8b9b          	addiw	x23,x23,8 # 36008 <failed_addr>
    41014a80:	000bb403          	ld	x8,0(x23)
    41014a84:	00040067          	jr	x8 # 51b8000 <mem5>

0000000041014a88 <pass_label_2>:
    41014a88:	017e0137          	lui	x2,0x17e0
    41014a8c:	4eb1011b          	addiw	x2,x2,1259 # 17e04eb <SID_ZICBO_001_stack+0x15624eb>
    41014a90:	00c11113          	slli	x2,x2,0xc
    41014a94:	00013383          	ld	x7,0(x2)
    41014a98:	00036fb7          	lui	x31,0x36
    41014a9c:	0b8f8f9b          	addiw	x31,x31,184 # 360b8 <machine_csr_jump_table_flags>
    41014aa0:	00e00f13          	li	x30,14
    41014aa4:	01efb023          	sd	x30,0(x31)
    41014aa8:	000f0fb7          	lui	x31,0xf0
    41014aac:	001f8f9b          	addiw	x31,x31,1 # f0001 <pma_region_0_size+0xb0001>
    41014ab0:	00cf9f93          	slli	x31,x31,0xc
    41014ab4:	005f8f93          	addi	x31,x31,5
    41014ab8:	00000073          	ecall
    41014abc:	00813383          	ld	x7,8(x2)
    41014ac0:	00036fb7          	lui	x31,0x36
    41014ac4:	0b8f8f9b          	addiw	x31,x31,184 # 360b8 <machine_csr_jump_table_flags>
    41014ac8:	00300f13          	li	x30,3
    41014acc:	01efb023          	sd	x30,0(x31)
    41014ad0:	000f0fb7          	lui	x31,0xf0
    41014ad4:	001f8f9b          	addiw	x31,x31,1 # f0001 <pma_region_0_size+0xb0001>
    41014ad8:	00cf9f93          	slli	x31,x31,0xc
    41014adc:	005f8f93          	addi	x31,x31,5
    41014ae0:	00000073          	ecall
    41014ae4:	01013383          	ld	x7,16(x2)
    41014ae8:	00036fb7          	lui	x31,0x36
    41014aec:	0b8f8f9b          	addiw	x31,x31,184 # 360b8 <machine_csr_jump_table_flags>
    41014af0:	01000f13          	li	x30,16
    41014af4:	01efb023          	sd	x30,0(x31)
    41014af8:	000f0fb7          	lui	x31,0xf0
    41014afc:	001f8f9b          	addiw	x31,x31,1 # f0001 <pma_region_0_size+0xb0001>
    41014b00:	00cf9f93          	slli	x31,x31,0xc
    41014b04:	005f8f93          	addi	x31,x31,5
    41014b08:	00000073          	ecall

0000000041014b0c <SID_ZICBO_019_passed>:
    41014b0c:	00f00f9b          	addiw	x31,x0,15
    41014b10:	01cf9f93          	slli	x31,x31,0x1c
    41014b14:	001f8f93          	addi	x31,x31,1
    41014b18:	00000073          	ecall

0000000041014b1c <SID_ZICBO_020>:
    41014b1c:	017e0137          	lui	x2,0x17e0
    41014b20:	4eb1011b          	addiw	x2,x2,1259 # 17e04eb <SID_ZICBO_001_stack+0x15624eb>
    41014b24:	00c11113          	slli	x2,x2,0xc
    41014b28:	00036fb7          	lui	x31,0x36
    41014b2c:	0b8f8f9b          	addiw	x31,x31,184 # 360b8 <machine_csr_jump_table_flags>
    41014b30:	00a00f13          	li	x30,10
    41014b34:	01efb023          	sd	x30,0(x31)
    41014b38:	000f0fb7          	lui	x31,0xf0
    41014b3c:	001f8f9b          	addiw	x31,x31,1 # f0001 <pma_region_0_size+0xb0001>
    41014b40:	00cf9f93          	slli	x31,x31,0xc
    41014b44:	005f8f93          	addi	x31,x31,5
    41014b48:	00000073          	ecall
    41014b4c:	00713023          	sd	x7,0(x2)
    41014b50:	00036fb7          	lui	x31,0x36
    41014b54:	0b8f8f9b          	addiw	x31,x31,184 # 360b8 <machine_csr_jump_table_flags>
    41014b58:	00100f13          	li	x30,1
    41014b5c:	01efb023          	sd	x30,0(x31)
    41014b60:	000f0fb7          	lui	x31,0xf0
    41014b64:	001f8f9b          	addiw	x31,x31,1 # f0001 <pma_region_0_size+0xb0001>
    41014b68:	00cf9f93          	slli	x31,x31,0xc
    41014b6c:	005f8f93          	addi	x31,x31,5
    41014b70:	00000073          	ecall
    41014b74:	00713423          	sd	x7,8(x2)
    41014b78:	00036fb7          	lui	x31,0x36
    41014b7c:	0b8f8f9b          	addiw	x31,x31,184 # 360b8 <machine_csr_jump_table_flags>
    41014b80:	00c00f13          	li	x30,12
    41014b84:	01efb023          	sd	x30,0(x31)
    41014b88:	000f0fb7          	lui	x31,0xf0
    41014b8c:	001f8f9b          	addiw	x31,x31,1 # f0001 <pma_region_0_size+0xb0001>
    41014b90:	00cf9f93          	slli	x31,x31,0xc
    41014b94:	005f8f93          	addi	x31,x31,5
    41014b98:	00000073          	ecall
    41014b9c:	00713823          	sd	x7,16(x2)
    41014ba0:	00147137          	lui	x2,0x147
    41014ba4:	5db1011b          	addiw	x2,x2,1499 # 1475db <pma_region_0_size+0x1075db>
    41014ba8:	00e11113          	slli	x2,x2,0xe
    41014bac:	000012b7          	lui	x5,0x1
    41014bb0:	00510133          	add	x2,x2,x5
    41014bb4:	ff017113          	andi	x2,x2,-16
    41014bb8:	0f000393          	li	x7,240
    41014bbc:	00036fb7          	lui	x31,0x36
    41014bc0:	0b8f8f9b          	addiw	x31,x31,184 # 360b8 <machine_csr_jump_table_flags>
    41014bc4:	00d00f13          	li	x30,13
    41014bc8:	01efb023          	sd	x30,0(x31)
    41014bcc:	000f0fb7          	lui	x31,0xf0
    41014bd0:	001f8f9b          	addiw	x31,x31,1 # f0001 <pma_region_0_size+0xb0001>
    41014bd4:	00cf9f93          	slli	x31,x31,0xc
    41014bd8:	005f8f93          	addi	x31,x31,5
    41014bdc:	00000073          	ecall
    41014be0:	0f000c13          	li	x24,240
    41014be4:	10ac2f73          	csrrs	x30,0x10a,x24
    41014be8:	0f000c13          	li	x24,240
    41014bec:	60ac2ef3          	csrrs	x29,henvcfg,x24
    41014bf0:	0341af37          	lui	x30,0x341a
    41014bf4:	829f0f1b          	addiw	x30,x30,-2007 # 3419829 <SID_ZICBO_50_ZIC64B_01_stack+0x19d3829>
    41014bf8:	00ef1f13          	slli	x30,x30,0xe
    41014bfc:	5dfbd937          	lui	x18,0x5dfbd
    41014c00:	3d49091b          	addiw	x18,x18,980 # 5dfbd3d4 <pma_region_2_end+0x18f7c3d4>
    41014c04:	012f30a3          	sd	x18,1(x30)
    41014c08:	0341a4b7          	lui	x9,0x341a
    41014c0c:	8294849b          	addiw	x9,x9,-2007 # 3419829 <SID_ZICBO_50_ZIC64B_01_stack+0x19d3829>
    41014c10:	00e49493          	slli	x9,x9,0xe
    41014c14:	00000b93          	li	x23,0
    41014c18:	01748eb3          	add	x29,x9,x23
    41014c1c:	004ea00f          	cbo.zero	(x29)
    41014c20:	0341adb7          	lui	x27,0x341a
    41014c24:	829d8d9b          	addiw	x27,x27,-2007 # 3419829 <SID_ZICBO_50_ZIC64B_01_stack+0x19d3829>
    41014c28:	00ed9d93          	slli	x27,x27,0xe
    41014c2c:	000da583          	lw	x11,0(x27)
    41014c30:	40633db7          	lui	x27,0x40633
    41014c34:	000da703          	lw	x14,0(x27) # 40633000 <mem11>
    41014c38:	00b58a63          	beq	x11,x11,41014c4c <pass_label_3>
    41014c3c:	000363b7          	lui	x7,0x36
    41014c40:	0083839b          	addiw	x7,x7,8 # 36008 <failed_addr>
    41014c44:	0003bc83          	ld	x25,0(x7)
    41014c48:	000c8067          	jr	x25

0000000041014c4c <pass_label_3>:
    41014c4c:	00e70a63          	beq	x14,x14,41014c60 <pass_label_4>
    41014c50:	00036b37          	lui	x22,0x36
    41014c54:	008b0b1b          	addiw	x22,x22,8 # 36008 <failed_addr>
    41014c58:	000b3f03          	ld	x30,0(x22)
    41014c5c:	000f0067          	jr	x30

0000000041014c60 <pass_label_4>:
    41014c60:	017e0137          	lui	x2,0x17e0
    41014c64:	4eb1011b          	addiw	x2,x2,1259 # 17e04eb <SID_ZICBO_001_stack+0x15624eb>
    41014c68:	00c11113          	slli	x2,x2,0xc
    41014c6c:	00013383          	ld	x7,0(x2)
    41014c70:	00036fb7          	lui	x31,0x36
    41014c74:	0b8f8f9b          	addiw	x31,x31,184 # 360b8 <machine_csr_jump_table_flags>
    41014c78:	00e00f13          	li	x30,14
    41014c7c:	01efb023          	sd	x30,0(x31)
    41014c80:	000f0fb7          	lui	x31,0xf0
    41014c84:	001f8f9b          	addiw	x31,x31,1 # f0001 <pma_region_0_size+0xb0001>
    41014c88:	00cf9f93          	slli	x31,x31,0xc
    41014c8c:	005f8f93          	addi	x31,x31,5
    41014c90:	00000073          	ecall
    41014c94:	00813383          	ld	x7,8(x2)
    41014c98:	00036fb7          	lui	x31,0x36
    41014c9c:	0b8f8f9b          	addiw	x31,x31,184 # 360b8 <machine_csr_jump_table_flags>
    41014ca0:	00300f13          	li	x30,3
    41014ca4:	01efb023          	sd	x30,0(x31)
    41014ca8:	000f0fb7          	lui	x31,0xf0
    41014cac:	001f8f9b          	addiw	x31,x31,1 # f0001 <pma_region_0_size+0xb0001>
    41014cb0:	00cf9f93          	slli	x31,x31,0xc
    41014cb4:	005f8f93          	addi	x31,x31,5
    41014cb8:	00000073          	ecall
    41014cbc:	01013383          	ld	x7,16(x2)
    41014cc0:	00036fb7          	lui	x31,0x36
    41014cc4:	0b8f8f9b          	addiw	x31,x31,184 # 360b8 <machine_csr_jump_table_flags>
    41014cc8:	01000f13          	li	x30,16
    41014ccc:	01efb023          	sd	x30,0(x31)
    41014cd0:	000f0fb7          	lui	x31,0xf0
    41014cd4:	001f8f9b          	addiw	x31,x31,1 # f0001 <pma_region_0_size+0xb0001>
    41014cd8:	00cf9f93          	slli	x31,x31,0xc
    41014cdc:	005f8f93          	addi	x31,x31,5
    41014ce0:	00000073          	ecall

0000000041014ce4 <SID_ZICBO_020_passed>:
    41014ce4:	00f00f9b          	addiw	x31,x0,15
    41014ce8:	01cf9f93          	slli	x31,x31,0x1c
    41014cec:	001f8f93          	addi	x31,x31,1
    41014cf0:	00000073          	ecall

0000000041014cf4 <SID_ZICBO_047>:
    41014cf4:	017e0137          	lui	x2,0x17e0
    41014cf8:	4eb1011b          	addiw	x2,x2,1259 # 17e04eb <SID_ZICBO_001_stack+0x15624eb>
    41014cfc:	00c11113          	slli	x2,x2,0xc
    41014d00:	00036fb7          	lui	x31,0x36
    41014d04:	0b8f8f9b          	addiw	x31,x31,184 # 360b8 <machine_csr_jump_table_flags>
    41014d08:	00a00f13          	li	x30,10
    41014d0c:	01efb023          	sd	x30,0(x31)
    41014d10:	000f0fb7          	lui	x31,0xf0
    41014d14:	001f8f9b          	addiw	x31,x31,1 # f0001 <pma_region_0_size+0xb0001>
    41014d18:	00cf9f93          	slli	x31,x31,0xc
    41014d1c:	005f8f93          	addi	x31,x31,5
    41014d20:	00000073          	ecall
    41014d24:	00713023          	sd	x7,0(x2)
    41014d28:	00036fb7          	lui	x31,0x36
    41014d2c:	0b8f8f9b          	addiw	x31,x31,184 # 360b8 <machine_csr_jump_table_flags>
    41014d30:	00100f13          	li	x30,1
    41014d34:	01efb023          	sd	x30,0(x31)
    41014d38:	000f0fb7          	lui	x31,0xf0
    41014d3c:	001f8f9b          	addiw	x31,x31,1 # f0001 <pma_region_0_size+0xb0001>
    41014d40:	00cf9f93          	slli	x31,x31,0xc
    41014d44:	005f8f93          	addi	x31,x31,5
    41014d48:	00000073          	ecall
    41014d4c:	00713423          	sd	x7,8(x2)
    41014d50:	00036fb7          	lui	x31,0x36
    41014d54:	0b8f8f9b          	addiw	x31,x31,184 # 360b8 <machine_csr_jump_table_flags>
    41014d58:	00c00f13          	li	x30,12
    41014d5c:	01efb023          	sd	x30,0(x31)
    41014d60:	000f0fb7          	lui	x31,0xf0
    41014d64:	001f8f9b          	addiw	x31,x31,1 # f0001 <pma_region_0_size+0xb0001>
    41014d68:	00cf9f93          	slli	x31,x31,0xc
    41014d6c:	005f8f93          	addi	x31,x31,5
    41014d70:	00000073          	ecall
    41014d74:	00713823          	sd	x7,16(x2)
    41014d78:	00002137          	lui	x2,0x2
    41014d7c:	000012b7          	lui	x5,0x1
    41014d80:	00510133          	add	x2,x2,x5
    41014d84:	ff017113          	andi	x2,x2,-16
    41014d88:	0f000393          	li	x7,240
    41014d8c:	00036fb7          	lui	x31,0x36
    41014d90:	0b8f8f9b          	addiw	x31,x31,184 # 360b8 <machine_csr_jump_table_flags>
    41014d94:	00d00f13          	li	x30,13
    41014d98:	01efb023          	sd	x30,0(x31)
    41014d9c:	000f0fb7          	lui	x31,0xf0
    41014da0:	001f8f9b          	addiw	x31,x31,1 # f0001 <pma_region_0_size+0xb0001>
    41014da4:	00cf9f93          	slli	x31,x31,0xc
    41014da8:	005f8f93          	addi	x31,x31,5
    41014dac:	00000073          	ecall
    41014db0:	0f000e93          	li	x29,240
    41014db4:	10aead73          	csrrs	x26,0x10a,x29
    41014db8:	0f000c93          	li	x25,240
    41014dbc:	60acadf3          	csrrs	x27,henvcfg,x25
    41014dc0:	000a99b7          	lui	x19,0xa9
    41014dc4:	6159899b          	addiw	x19,x19,1557 # a9615 <pma_region_0_size+0x69615>
    41014dc8:	00f99993          	slli	x19,x19,0xf
    41014dcc:	9bd98993          	addi	x19,x19,-1603
    41014dd0:	00c99993          	slli	x19,x19,0xc
    41014dd4:	00000393          	li	x7,0
    41014dd8:	00798633          	add	x12,x19,x7
    41014ddc:	0026200f          	cbo.flush	(x12)
    41014de0:	000a96b7          	lui	x13,0xa9
    41014de4:	6156869b          	addiw	x13,x13,1557 # a9615 <pma_region_0_size+0x69615>
    41014de8:	00f69693          	slli	x13,x13,0xf
    41014dec:	9bd68693          	addi	x13,x13,-1603
    41014df0:	00c69693          	slli	x13,x13,0xc
    41014df4:	00000f13          	li	x30,0
    41014df8:	01e68833          	add	x16,x13,x30
    41014dfc:	00080303          	lb	x6,0(x16) # 37d1000 <mem7>
    41014e00:	000a9837          	lui	x16,0xa9
    41014e04:	6158081b          	addiw	x16,x16,1557 # a9615 <pma_region_0_size+0x69615>
    41014e08:	00f81813          	slli	x16,x16,0xf
    41014e0c:	9bd80813          	addi	x16,x16,-1603
    41014e10:	00c81813          	slli	x16,x16,0xc
    41014e14:	00000893          	li	x17,0
    41014e18:	01180db3          	add	x27,x16,x17
    41014e1c:	001da00f          	cbo.clean	(x27)
    41014e20:	000a99b7          	lui	x19,0xa9
    41014e24:	6159899b          	addiw	x19,x19,1557 # a9615 <pma_region_0_size+0x69615>
    41014e28:	00f99993          	slli	x19,x19,0xf
    41014e2c:	9bd98993          	addi	x19,x19,-1603
    41014e30:	00c99993          	slli	x19,x19,0xc
    41014e34:	00000a13          	li	x20,0
    41014e38:	01498fb3          	add	x31,x19,x20
    41014e3c:	4efbd637          	lui	x12,0x4efbd
    41014e40:	8d96061b          	addiw	x12,x12,-1831 # 4efbc8d9 <pma_region_2_end+0x9f7b8d9>
    41014e44:	18cfbe2f          	sc.d	x28,x12,(x31)
    41014e48:	000a9837          	lui	x16,0xa9
    41014e4c:	6158081b          	addiw	x16,x16,1557 # a9615 <pma_region_0_size+0x69615>
    41014e50:	00f81813          	slli	x16,x16,0xf
    41014e54:	9bd80813          	addi	x16,x16,-1603
    41014e58:	00c81813          	slli	x16,x16,0xc
    41014e5c:	00000e93          	li	x29,0
    41014e60:	01d806b3          	add	x13,x16,x29
    41014e64:	0006a00f          	cbo.inval	(x13)
    41014e68:	000a9b37          	lui	x22,0xa9
    41014e6c:	615b0b1b          	addiw	x22,x22,1557 # a9615 <pma_region_0_size+0x69615>
    41014e70:	00fb1b13          	slli	x22,x22,0xf
    41014e74:	9bdb0b13          	addi	x22,x22,-1603
    41014e78:	00cb1b13          	slli	x22,x22,0xc
    41014e7c:	00000e13          	li	x28,0
    41014e80:	01cb09b3          	add	x19,x22,x28
    41014e84:	0009c603          	lbu	x12,0(x19)
    41014e88:	017e0137          	lui	x2,0x17e0
    41014e8c:	4eb1011b          	addiw	x2,x2,1259 # 17e04eb <SID_ZICBO_001_stack+0x15624eb>
    41014e90:	00c11113          	slli	x2,x2,0xc
    41014e94:	00013383          	ld	x7,0(x2)
    41014e98:	00036fb7          	lui	x31,0x36
    41014e9c:	0b8f8f9b          	addiw	x31,x31,184 # 360b8 <machine_csr_jump_table_flags>
    41014ea0:	00e00f13          	li	x30,14
    41014ea4:	01efb023          	sd	x30,0(x31)
    41014ea8:	000f0fb7          	lui	x31,0xf0
    41014eac:	001f8f9b          	addiw	x31,x31,1 # f0001 <pma_region_0_size+0xb0001>
    41014eb0:	00cf9f93          	slli	x31,x31,0xc
    41014eb4:	005f8f93          	addi	x31,x31,5
    41014eb8:	00000073          	ecall
    41014ebc:	00813383          	ld	x7,8(x2)
    41014ec0:	00036fb7          	lui	x31,0x36
    41014ec4:	0b8f8f9b          	addiw	x31,x31,184 # 360b8 <machine_csr_jump_table_flags>
    41014ec8:	00300f13          	li	x30,3
    41014ecc:	01efb023          	sd	x30,0(x31)
    41014ed0:	000f0fb7          	lui	x31,0xf0
    41014ed4:	001f8f9b          	addiw	x31,x31,1 # f0001 <pma_region_0_size+0xb0001>
    41014ed8:	00cf9f93          	slli	x31,x31,0xc
    41014edc:	005f8f93          	addi	x31,x31,5
    41014ee0:	00000073          	ecall
    41014ee4:	01013383          	ld	x7,16(x2)
    41014ee8:	00036fb7          	lui	x31,0x36
    41014eec:	0b8f8f9b          	addiw	x31,x31,184 # 360b8 <machine_csr_jump_table_flags>
    41014ef0:	01000f13          	li	x30,16
    41014ef4:	01efb023          	sd	x30,0(x31)
    41014ef8:	000f0fb7          	lui	x31,0xf0
    41014efc:	001f8f9b          	addiw	x31,x31,1 # f0001 <pma_region_0_size+0xb0001>
    41014f00:	00cf9f93          	slli	x31,x31,0xc
    41014f04:	005f8f93          	addi	x31,x31,5
    41014f08:	00000073          	ecall

0000000041014f0c <SID_ZICBO_047_passed>:
    41014f0c:	00f00f9b          	addiw	x31,x0,15
    41014f10:	01cf9f93          	slli	x31,x31,0x1c
    41014f14:	001f8f93          	addi	x31,x31,1
    41014f18:	00000073          	ecall

0000000041014f1c <SID_ZICBO_049>:
    41014f1c:	017e0137          	lui	x2,0x17e0
    41014f20:	4eb1011b          	addiw	x2,x2,1259 # 17e04eb <SID_ZICBO_001_stack+0x15624eb>
    41014f24:	00c11113          	slli	x2,x2,0xc
    41014f28:	00036fb7          	lui	x31,0x36
    41014f2c:	0b8f8f9b          	addiw	x31,x31,184 # 360b8 <machine_csr_jump_table_flags>
    41014f30:	00a00f13          	li	x30,10
    41014f34:	01efb023          	sd	x30,0(x31)
    41014f38:	000f0fb7          	lui	x31,0xf0
    41014f3c:	001f8f9b          	addiw	x31,x31,1 # f0001 <pma_region_0_size+0xb0001>
    41014f40:	00cf9f93          	slli	x31,x31,0xc
    41014f44:	005f8f93          	addi	x31,x31,5
    41014f48:	00000073          	ecall
    41014f4c:	00713023          	sd	x7,0(x2)
    41014f50:	00036fb7          	lui	x31,0x36
    41014f54:	0b8f8f9b          	addiw	x31,x31,184 # 360b8 <machine_csr_jump_table_flags>
    41014f58:	00100f13          	li	x30,1
    41014f5c:	01efb023          	sd	x30,0(x31)
    41014f60:	000f0fb7          	lui	x31,0xf0
    41014f64:	001f8f9b          	addiw	x31,x31,1 # f0001 <pma_region_0_size+0xb0001>
    41014f68:	00cf9f93          	slli	x31,x31,0xc
    41014f6c:	005f8f93          	addi	x31,x31,5
    41014f70:	00000073          	ecall
    41014f74:	00713423          	sd	x7,8(x2)
    41014f78:	00036fb7          	lui	x31,0x36
    41014f7c:	0b8f8f9b          	addiw	x31,x31,184 # 360b8 <machine_csr_jump_table_flags>
    41014f80:	00c00f13          	li	x30,12
    41014f84:	01efb023          	sd	x30,0(x31)
    41014f88:	000f0fb7          	lui	x31,0xf0
    41014f8c:	001f8f9b          	addiw	x31,x31,1 # f0001 <pma_region_0_size+0xb0001>
    41014f90:	00cf9f93          	slli	x31,x31,0xc
    41014f94:	005f8f93          	addi	x31,x31,5
    41014f98:	00000073          	ecall
    41014f9c:	00713823          	sd	x7,16(x2)
    41014fa0:	3e8c9137          	lui	x2,0x3e8c9
    41014fa4:	000012b7          	lui	x5,0x1
    41014fa8:	00510133          	add	x2,x2,x5
    41014fac:	ff017113          	andi	x2,x2,-16
    41014fb0:	0f000393          	li	x7,240
    41014fb4:	00036fb7          	lui	x31,0x36
    41014fb8:	0b8f8f9b          	addiw	x31,x31,184 # 360b8 <machine_csr_jump_table_flags>
    41014fbc:	00d00f13          	li	x30,13
    41014fc0:	01efb023          	sd	x30,0(x31)
    41014fc4:	000f0fb7          	lui	x31,0xf0
    41014fc8:	001f8f9b          	addiw	x31,x31,1 # f0001 <pma_region_0_size+0xb0001>
    41014fcc:	00cf9f93          	slli	x31,x31,0xc
    41014fd0:	005f8f93          	addi	x31,x31,5
    41014fd4:	00000073          	ecall
    41014fd8:	0f000393          	li	x7,240
    41014fdc:	10a3af73          	csrrs	x30,0x10a,x7
    41014fe0:	0f000b93          	li	x23,240
    41014fe4:	60ababf3          	csrrs	x23,henvcfg,x23
    41014fe8:	00acf5b7          	lui	x11,0xacf
    41014fec:	f2f5859b          	addiw	x11,x11,-209 # acef2f <SID_ZICBO_001_stack+0x850f2f>
    41014ff0:	00d59593          	slli	x11,x11,0xd
    41014ff4:	00000c93          	li	x25,0
    41014ff8:	019585b3          	add	x11,x11,x25
    41014ffc:	1005adaf          	lr.w	x27,(x11)
    41015000:	00acf737          	lui	x14,0xacf
    41015004:	f2f7071b          	addiw	x14,x14,-209 # acef2f <SID_ZICBO_001_stack+0x850f2f>
    41015008:	00d71713          	slli	x14,x14,0xd
    4101500c:	00000b13          	li	x22,0
    41015010:	01670433          	add	x8,x14,x22
    41015014:	0024200f          	cbo.flush	(x8)
    41015018:	00acfeb7          	lui	x29,0xacf
    4101501c:	f2fe8e9b          	addiw	x29,x29,-209 # acef2f <SID_ZICBO_001_stack+0x850f2f>
    41015020:	00de9e93          	slli	x29,x29,0xd
    41015024:	00000a93          	li	x21,0
    41015028:	015e8cb3          	add	x25,x29,x21
    4101502c:	62398bb7          	lui	x23,0x62398
    41015030:	bcab8b9b          	addiw	x23,x23,-1078 # 62397bca <pma_region_2_end+0x1d356bca>
    41015034:	197ca82f          	sc.w	x16,x23,(x25)
    41015038:	00acf5b7          	lui	x11,0xacf
    4101503c:	f2f5859b          	addiw	x11,x11,-209 # acef2f <SID_ZICBO_001_stack+0x850f2f>
    41015040:	00d59593          	slli	x11,x11,0xd
    41015044:	00058f83          	lb	x31,0(x11)
    41015048:	017e0137          	lui	x2,0x17e0
    4101504c:	4eb1011b          	addiw	x2,x2,1259 # 17e04eb <SID_ZICBO_001_stack+0x15624eb>
    41015050:	00c11113          	slli	x2,x2,0xc
    41015054:	00013383          	ld	x7,0(x2)
    41015058:	00036fb7          	lui	x31,0x36
    4101505c:	0b8f8f9b          	addiw	x31,x31,184 # 360b8 <machine_csr_jump_table_flags>
    41015060:	00e00f13          	li	x30,14
    41015064:	01efb023          	sd	x30,0(x31)
    41015068:	000f0fb7          	lui	x31,0xf0
    4101506c:	001f8f9b          	addiw	x31,x31,1 # f0001 <pma_region_0_size+0xb0001>
    41015070:	00cf9f93          	slli	x31,x31,0xc
    41015074:	005f8f93          	addi	x31,x31,5
    41015078:	00000073          	ecall
    4101507c:	00813383          	ld	x7,8(x2)
    41015080:	00036fb7          	lui	x31,0x36
    41015084:	0b8f8f9b          	addiw	x31,x31,184 # 360b8 <machine_csr_jump_table_flags>
    41015088:	00300f13          	li	x30,3
    4101508c:	01efb023          	sd	x30,0(x31)
    41015090:	000f0fb7          	lui	x31,0xf0
    41015094:	001f8f9b          	addiw	x31,x31,1 # f0001 <pma_region_0_size+0xb0001>
    41015098:	00cf9f93          	slli	x31,x31,0xc
    4101509c:	005f8f93          	addi	x31,x31,5
    410150a0:	00000073          	ecall
    410150a4:	01013383          	ld	x7,16(x2)
    410150a8:	00036fb7          	lui	x31,0x36
    410150ac:	0b8f8f9b          	addiw	x31,x31,184 # 360b8 <machine_csr_jump_table_flags>
    410150b0:	01000f13          	li	x30,16
    410150b4:	01efb023          	sd	x30,0(x31)
    410150b8:	000f0fb7          	lui	x31,0xf0
    410150bc:	001f8f9b          	addiw	x31,x31,1 # f0001 <pma_region_0_size+0xb0001>
    410150c0:	00cf9f93          	slli	x31,x31,0xc
    410150c4:	005f8f93          	addi	x31,x31,5
    410150c8:	00000073          	ecall

00000000410150cc <SID_ZICBO_049_passed>:
    410150cc:	00f00f9b          	addiw	x31,x0,15
    410150d0:	01cf9f93          	slli	x31,x31,0x1c
    410150d4:	001f8f93          	addi	x31,x31,1
    410150d8:	00000073          	ecall

00000000410150dc <SID_ZICBO_50_ZIC64B_01>:
    410150dc:	017e0137          	lui	x2,0x17e0
    410150e0:	4eb1011b          	addiw	x2,x2,1259 # 17e04eb <SID_ZICBO_001_stack+0x15624eb>
    410150e4:	00c11113          	slli	x2,x2,0xc
    410150e8:	00036fb7          	lui	x31,0x36
    410150ec:	0b8f8f9b          	addiw	x31,x31,184 # 360b8 <machine_csr_jump_table_flags>
    410150f0:	00a00f13          	li	x30,10
    410150f4:	01efb023          	sd	x30,0(x31)
    410150f8:	000f0fb7          	lui	x31,0xf0
    410150fc:	001f8f9b          	addiw	x31,x31,1 # f0001 <pma_region_0_size+0xb0001>
    41015100:	00cf9f93          	slli	x31,x31,0xc
    41015104:	005f8f93          	addi	x31,x31,5
    41015108:	00000073          	ecall
    4101510c:	00713023          	sd	x7,0(x2)
    41015110:	00036fb7          	lui	x31,0x36
    41015114:	0b8f8f9b          	addiw	x31,x31,184 # 360b8 <machine_csr_jump_table_flags>
    41015118:	00100f13          	li	x30,1
    4101511c:	01efb023          	sd	x30,0(x31)
    41015120:	000f0fb7          	lui	x31,0xf0
    41015124:	001f8f9b          	addiw	x31,x31,1 # f0001 <pma_region_0_size+0xb0001>
    41015128:	00cf9f93          	slli	x31,x31,0xc
    4101512c:	005f8f93          	addi	x31,x31,5
    41015130:	00000073          	ecall
    41015134:	00713423          	sd	x7,8(x2)
    41015138:	00036fb7          	lui	x31,0x36
    4101513c:	0b8f8f9b          	addiw	x31,x31,184 # 360b8 <machine_csr_jump_table_flags>
    41015140:	00c00f13          	li	x30,12
    41015144:	01efb023          	sd	x30,0(x31)
    41015148:	000f0fb7          	lui	x31,0xf0
    4101514c:	001f8f9b          	addiw	x31,x31,1 # f0001 <pma_region_0_size+0xb0001>
    41015150:	00cf9f93          	slli	x31,x31,0xc
    41015154:	005f8f93          	addi	x31,x31,5
    41015158:	00000073          	ecall
    4101515c:	00713823          	sd	x7,16(x2)
    41015160:	01a46137          	lui	x2,0x1a46
    41015164:	000012b7          	lui	x5,0x1
    41015168:	00510133          	add	x2,x2,x5
    4101516c:	ff017113          	andi	x2,x2,-16
    41015170:	0f000393          	li	x7,240
    41015174:	00036fb7          	lui	x31,0x36
    41015178:	0b8f8f9b          	addiw	x31,x31,184 # 360b8 <machine_csr_jump_table_flags>
    4101517c:	00d00f13          	li	x30,13
    41015180:	01efb023          	sd	x30,0(x31)
    41015184:	000f0fb7          	lui	x31,0xf0
    41015188:	001f8f9b          	addiw	x31,x31,1 # f0001 <pma_region_0_size+0xb0001>
    4101518c:	00cf9f93          	slli	x31,x31,0xc
    41015190:	005f8f93          	addi	x31,x31,5
    41015194:	00000073          	ecall
    41015198:	0f000393          	li	x7,240
    4101519c:	10a3a773          	csrrs	x14,0x10a,x7
    410151a0:	0f000e13          	li	x28,240
    410151a4:	60ae2673          	csrrs	x12,henvcfg,x28
    410151a8:	0be8dd37          	lui	x26,0xbe8d
    410151ac:	00045eb7          	lui	x29,0x45
    410151b0:	225e8e9b          	addiw	x29,x29,549 # 45225 <pma_region_0_size+0x5225>
    410151b4:	00de9e93          	slli	x29,x29,0xd
    410151b8:	ec1e8e93          	addi	x29,x29,-319
    410151bc:	01dd2023          	sw	x29,0(x26) # be8d000 <mem14>
    410151c0:	0be8d6b7          	lui	x13,0xbe8d
    410151c4:	0000a4b7          	lui	x9,0xa
    410151c8:	f9d4849b          	addiw	x9,x9,-99 # 9f9d <_all_interrupts+0x74f3>
    410151cc:	01049493          	slli	x9,x9,0x10
    410151d0:	12c48493          	addi	x9,x9,300
    410151d4:	02969023          	sh	x9,32(x13) # be8d020 <mem14+0x20>
    410151d8:	0be8d4b7          	lui	x9,0xbe8d
    410151dc:	000c9fb7          	lui	x31,0xc9
    410151e0:	547f8f9b          	addiw	x31,x31,1351 # c9547 <pma_region_0_size+0x89547>
    410151e4:	00cf9f93          	slli	x31,x31,0xc
    410151e8:	b46f8f93          	addi	x31,x31,-1210
    410151ec:	03f4ac23          	sw	x31,56(x9) # be8d038 <mem14+0x38>
    410151f0:	0be8dfb7          	lui	x31,0xbe8d
    410151f4:	0009d9b7          	lui	x19,0x9d
    410151f8:	c9b9899b          	addiw	x19,x19,-869 # 9cc9b <pma_region_0_size+0x5cc9b>
    410151fc:	00c99993          	slli	x19,x19,0xc
    41015200:	f5198993          	addi	x19,x19,-175
    41015204:	053f9023          	sh	x19,64(x31) # be8d040 <mem14+0x40>
    41015208:	0be8d437          	lui	x8,0xbe8d
    4101520c:	54c576b7          	lui	x13,0x54c57
    41015210:	c9d6869b          	addiw	x13,x13,-867 # 54c56c9d <pma_region_2_end+0xfc15c9d>
    41015214:	06d40023          	sb	x13,96(x8) # be8d060 <mem14+0x60>
    41015218:	0be8d5b7          	lui	x11,0xbe8d
    4101521c:	754927b7          	lui	x15,0x75492
    41015220:	bc67879b          	addiw	x15,x15,-1082 # 75491bc6 <pma_region_2_end+0x30450bc6>
    41015224:	d227fe53          	fcvt.d.l	f28,x15
    41015228:	07c5bc27          	fsd	f28,120(x11) # be8d078 <mem14+0x78>
    4101522c:	0be8d337          	lui	x6,0xbe8d
    41015230:	00000e13          	li	x28,0
    41015234:	01c30533          	add	x10,x6,x28
    41015238:	0045200f          	cbo.zero	(x10)
    4101523c:	00000e13          	li	x28,0
    41015240:	0be8d537          	lui	x10,0xbe8d
    41015244:	00053c83          	ld	x25,0(x10) # be8d000 <mem14>
    41015248:	01cc8a63          	beq	x25,x28,4101525c <pass_label_5>
    4101524c:	00036c37          	lui	x24,0x36
    41015250:	008c0c1b          	addiw	x24,x24,8 # 36008 <failed_addr>
    41015254:	000c3f03          	ld	x30,0(x24)
    41015258:	000f0067          	jr	x30

000000004101525c <pass_label_5>:
    4101525c:	0be8da37          	lui	x20,0xbe8d
    41015260:	020a3303          	ld	x6,32(x20) # be8d020 <mem14+0x20>
    41015264:	01c30a63          	beq	x6,x28,41015278 <pass_label_6>
    41015268:	00036bb7          	lui	x23,0x36
    4101526c:	008b8b9b          	addiw	x23,x23,8 # 36008 <failed_addr>
    41015270:	000bb483          	ld	x9,0(x23)
    41015274:	00048067          	jr	x9

0000000041015278 <pass_label_6>:
    41015278:	0be8dd37          	lui	x26,0xbe8d
    4101527c:	038d3903          	ld	x18,56(x26) # be8d038 <mem14+0x38>
    41015280:	01c90a63          	beq	x18,x28,41015294 <pass_label_7>
    41015284:	000363b7          	lui	x7,0x36
    41015288:	0083839b          	addiw	x7,x7,8 # 36008 <failed_addr>
    4101528c:	0003b703          	ld	x14,0(x7)
    41015290:	00070067          	jr	x14

0000000041015294 <pass_label_7>:
    41015294:	0be8d9b7          	lui	x19,0xbe8d
    41015298:	0409ba03          	ld	x20,64(x19) # be8d040 <mem14+0x40>
    4101529c:	01ca1a63          	bne	x20,x28,410152b0 <pass_label_8>
    410152a0:	00036637          	lui	x12,0x36
    410152a4:	0086061b          	addiw	x12,x12,8 # 36008 <failed_addr>
    410152a8:	00063703          	ld	x14,0(x12)
    410152ac:	00070067          	jr	x14

00000000410152b0 <pass_label_8>:
    410152b0:	0be8d6b7          	lui	x13,0xbe8d
    410152b4:	0606b983          	ld	x19,96(x13) # be8d060 <mem14+0x60>
    410152b8:	01c99a63          	bne	x19,x28,410152cc <pass_label_9>
    410152bc:	00036737          	lui	x14,0x36
    410152c0:	0087071b          	addiw	x14,x14,8 # 36008 <failed_addr>
    410152c4:	00073583          	ld	x11,0(x14)
    410152c8:	00058067          	jr	x11

00000000410152cc <pass_label_9>:
    410152cc:	0be8dbb7          	lui	x23,0xbe8d
    410152d0:	078bb703          	ld	x14,120(x23) # be8d078 <mem14+0x78>
    410152d4:	01c71a63          	bne	x14,x28,410152e8 <pass_label_10>
    410152d8:	00036cb7          	lui	x25,0x36
    410152dc:	008c8c9b          	addiw	x25,x25,8 # 36008 <failed_addr>
    410152e0:	000cb903          	ld	x18,0(x25)
    410152e4:	00090067          	jr	x18

00000000410152e8 <pass_label_10>:
    410152e8:	017e0137          	lui	x2,0x17e0
    410152ec:	4eb1011b          	addiw	x2,x2,1259 # 17e04eb <SID_ZICBO_001_stack+0x15624eb>
    410152f0:	00c11113          	slli	x2,x2,0xc
    410152f4:	00013383          	ld	x7,0(x2)
    410152f8:	00036fb7          	lui	x31,0x36
    410152fc:	0b8f8f9b          	addiw	x31,x31,184 # 360b8 <machine_csr_jump_table_flags>
    41015300:	00e00f13          	li	x30,14
    41015304:	01efb023          	sd	x30,0(x31)
    41015308:	000f0fb7          	lui	x31,0xf0
    4101530c:	001f8f9b          	addiw	x31,x31,1 # f0001 <pma_region_0_size+0xb0001>
    41015310:	00cf9f93          	slli	x31,x31,0xc
    41015314:	005f8f93          	addi	x31,x31,5
    41015318:	00000073          	ecall
    4101531c:	00813383          	ld	x7,8(x2)
    41015320:	00036fb7          	lui	x31,0x36
    41015324:	0b8f8f9b          	addiw	x31,x31,184 # 360b8 <machine_csr_jump_table_flags>
    41015328:	00300f13          	li	x30,3
    4101532c:	01efb023          	sd	x30,0(x31)
    41015330:	000f0fb7          	lui	x31,0xf0
    41015334:	001f8f9b          	addiw	x31,x31,1 # f0001 <pma_region_0_size+0xb0001>
    41015338:	00cf9f93          	slli	x31,x31,0xc
    4101533c:	005f8f93          	addi	x31,x31,5
    41015340:	00000073          	ecall
    41015344:	01013383          	ld	x7,16(x2)
    41015348:	00036fb7          	lui	x31,0x36
    4101534c:	0b8f8f9b          	addiw	x31,x31,184 # 360b8 <machine_csr_jump_table_flags>
    41015350:	01000f13          	li	x30,16
    41015354:	01efb023          	sd	x30,0(x31)
    41015358:	000f0fb7          	lui	x31,0xf0
    4101535c:	001f8f9b          	addiw	x31,x31,1 # f0001 <pma_region_0_size+0xb0001>
    41015360:	00cf9f93          	slli	x31,x31,0xc
    41015364:	005f8f93          	addi	x31,x31,5
    41015368:	00000073          	ecall

000000004101536c <SID_ZICBO_50_ZIC64B_01_passed>:
    4101536c:	00f00f9b          	addiw	x31,x0,15
    41015370:	01cf9f93          	slli	x31,x31,0x1c
    41015374:	001f8f93          	addi	x31,x31,1
    41015378:	00000073          	ecall

000000004101537c <test_cleanup>:
    4101537c:	00f00f9b          	addiw	x31,x0,15
    41015380:	01cf9f93          	slli	x31,x31,0x1c
    41015384:	001f8f93          	addi	x31,x31,1
    41015388:	00000073          	ecall

000000004101538c <local_test_failed>:
    4101538c:	00f00f9b          	addiw	x31,x0,15
    41015390:	01cf9f93          	slli	x31,x31,0x1c
    41015394:	002f8f93          	addi	x31,x31,2
    41015398:	00000073          	ecall

Disassembly of section .csr_machine_0:

0000000041214000 <csr_access_menvcfg_machine_key_3_write-0x70>:
    41214000:	44da2fb7          	lui	x31,0x44da2
    41214004:	0b8f8f9b          	addiw	x31,x31,184 # 44da20b8 <machine_csr_jump_table_flags_pa>
    41214008:	000fbf83          	ld	x31,0(x31)
    4121400c:	00300293          	li	x5,3
    41214010:	065f8063          	beq	x31,x5,41214070 <csr_access_menvcfg_machine_key_3_write>
    41214014:	00100293          	li	x5,1
    41214018:	065f8063          	beq	x31,x5,41214078 <csr_access_menvcfg_machine_key_1_read>
    4121401c:	00d00293          	li	x5,13
    41214020:	065f8063          	beq	x31,x5,41214080 <csr_access_menvcfg_machine_key_13_set>
    41214024:	00200293          	li	x5,2
    41214028:	065f8063          	beq	x31,x5,41214088 <csr_access_menvcfg_machine_key_2_clear>
    4121402c:	00e00293          	li	x5,14
    41214030:	065f8063          	beq	x31,x5,41214090 <csr_access_henvcfg_supervisor_key_14_write>
    41214034:	00a00293          	li	x5,10
    41214038:	065f8063          	beq	x31,x5,41214098 <csr_access_henvcfg_supervisor_key_10_read>
    4121403c:	01000293          	li	x5,16
    41214040:	065f8063          	beq	x31,x5,412140a0 <csr_access_senvcfg_supervisor_key_16_write>
    41214044:	00c00293          	li	x5,12
    41214048:	065f8063          	beq	x31,x5,412140a8 <csr_access_senvcfg_supervisor_key_12_read>
    4121404c:	01200293          	li	x5,18
    41214050:	065f8063          	beq	x31,x5,412140b0 <csr_access_mstatus_machine_key_18_set>
    41214054:	01100293          	li	x5,17
    41214058:	065f8063          	beq	x31,x5,412140b8 <csr_access_mstatus_machine_key_17_clear>
    4121405c:	01400293          	li	x5,20
    41214060:	065f8063          	beq	x31,x5,412140c0 <csr_access_mtvec_machine_key_20_set>
    41214064:	01300293          	li	x5,19
    41214068:	065f8063          	beq	x31,x5,412140c8 <csr_access_mtvec_machine_key_19_clear>
    4121406c:	0640006f          	j	412140d0 <end_machine_label>

0000000041214070 <csr_access_menvcfg_machine_key_3_write>:
    41214070:	30a39073          	csrw	0x30a,x7
    41214074:	05c0006f          	j	412140d0 <end_machine_label>

0000000041214078 <csr_access_menvcfg_machine_key_1_read>:
    41214078:	30a023f3          	csrr	x7,0x30a
    4121407c:	0540006f          	j	412140d0 <end_machine_label>

0000000041214080 <csr_access_menvcfg_machine_key_13_set>:
    41214080:	30a3a073          	csrs	0x30a,x7
    41214084:	04c0006f          	j	412140d0 <end_machine_label>

0000000041214088 <csr_access_menvcfg_machine_key_2_clear>:
    41214088:	30a3b073          	csrc	0x30a,x7
    4121408c:	0440006f          	j	412140d0 <end_machine_label>

0000000041214090 <csr_access_henvcfg_supervisor_key_14_write>:
    41214090:	60a39073          	csrw	henvcfg,x7
    41214094:	03c0006f          	j	412140d0 <end_machine_label>

0000000041214098 <csr_access_henvcfg_supervisor_key_10_read>:
    41214098:	60a023f3          	csrr	x7,henvcfg
    4121409c:	0340006f          	j	412140d0 <end_machine_label>

00000000412140a0 <csr_access_senvcfg_supervisor_key_16_write>:
    412140a0:	10a39073          	csrw	0x10a,x7
    412140a4:	02c0006f          	j	412140d0 <end_machine_label>

00000000412140a8 <csr_access_senvcfg_supervisor_key_12_read>:
    412140a8:	10a023f3          	csrr	x7,0x10a
    412140ac:	0240006f          	j	412140d0 <end_machine_label>

00000000412140b0 <csr_access_mstatus_machine_key_18_set>:
    412140b0:	3003a073          	csrs	mstatus,x7
    412140b4:	01c0006f          	j	412140d0 <end_machine_label>

00000000412140b8 <csr_access_mstatus_machine_key_17_clear>:
    412140b8:	3003b073          	csrc	mstatus,x7
    412140bc:	0140006f          	j	412140d0 <end_machine_label>

00000000412140c0 <csr_access_mtvec_machine_key_20_set>:
    412140c0:	3053a073          	csrs	mtvec,x7
    412140c4:	00c0006f          	j	412140d0 <end_machine_label>

00000000412140c8 <csr_access_mtvec_machine_key_19_clear>:
    412140c8:	3053b073          	csrc	mtvec,x7
    412140cc:	0040006f          	j	412140d0 <end_machine_label>

00000000412140d0 <end_machine_label>:
    412140d0:	000f0fb7          	lui	x31,0xf0
    412140d4:	001f8f9b          	addiw	x31,x31,1 # f0001 <pma_region_0_size+0xb0001>
    412140d8:	00cf9f93          	slli	x31,x31,0xc
    412140dc:	004f8f93          	addi	x31,x31,4
    412140e0:	00000073          	ecall

Disassembly of section .csr_super_0:

0000000041215000 <end_super_label-0x10>:
    41215000:	00036fb7          	lui	x31,0x36
    41215004:	0c0f8f9b          	addiw	x31,x31,192 # 360c0 <super_csr_jump_table_flags>
    41215008:	000fbf83          	ld	x31,0(x31)
    4121500c:	0040006f          	j	41215010 <end_super_label>

0000000041215010 <end_super_label>:
    41215010:	000f0fb7          	lui	x31,0xf0
    41215014:	001f8f9b          	addiw	x31,x31,1 # f0001 <pma_region_0_size+0xb0001>
    41215018:	00cf9f93          	slli	x31,x31,0xc
    4121501c:	004f8f93          	addi	x31,x31,4
    41215020:	00000073          	ecall

Disassembly of section .os_data:

0000000000036000 <passed_addr_ptr>:
   36000:	40a0                	.insn	2, 0x40a0
   36002:	4101                	.insn	2, 0x4101
   36004:	0000                	.insn	2, 0x0000
	...

0000000000036008 <failed_addr_ptr>:
   36008:	40b0                	.insn	2, 0x40b0
   3600a:	4101                	.insn	2, 0x4101
   3600c:	0000                	.insn	2, 0x0000
	...

0000000000036010 <end_test_addr_ptr>:
   36010:	40c0                	.insn	2, 0x40c0
   36012:	4101                	.insn	2, 0x4101
   36014:	0000                	.insn	2, 0x0000
	...

0000000000036018 <os_passed_addr_ptr>:
   36018:	0784                	.insn	2, 0x0784
   3601a:	4100                	.insn	2, 0x4100
   3601c:	0000                	.insn	2, 0x0000
	...

0000000000036020 <os_failed_addr_ptr>:
   36020:	0794                	.insn	2, 0x0794
   36022:	4100                	.insn	2, 0x4100
   36024:	0000                	.insn	2, 0x0000
	...

0000000000036028 <os_end_test_addr_ptr>:
   36028:	07a0                	.insn	2, 0x07a0
   3602a:	4100                	.insn	2, 0x4100
   3602c:	0000                	.insn	2, 0x0000
	...

0000000000036030 <rvcp_prefix_str_data>:
   36030:	5652                	.insn	2, 0x5652
   36032:	203a5043          	fmadd.s	f0,f20,f3,f4,unknown
   36036:	6554                	.insn	2, 0x6554
   36038:	46207473          	csrrci	x8,0x462,0
   3603c:	6c69                	.insn	2, 0x6c69
   3603e:	2065                	.insn	2, 0x2065
	...

0000000000036041 <rvcp_testname_str_data>:
   36041:	7074                	.insn	2, 0x7074
   36043:	7a5f 6369 6f62      	.insn	6, 0x6f6263697a5f
   36049:	5f6d                	.insn	2, 0x5f6d
   3604b:	697a                	.insn	2, 0x697a
   3604d:	7a6f6263          	bltu	x30,x6,367f1 <num_hard_fails_mem+0x709>
   36051:	7a5f 6369 6f62      	.insn	6, 0x6f6263697a5f
   36057:	5f70                	.insn	2, 0x5f70
   36059:	697a                	.insn	2, 0x697a
   3605b:	62343663          	.insn	4, 0x62343663
   3605f:	315f        	.insn	6, 0x53415000315f

0000000000036062 <rvcp_passed_str_data>:
   36062:	4150                	.insn	2, 0x4150
   36064:	44455353          	fround.h	f6,f10,unknown
	...

0000000000036069 <rvcp_failed_str_data>:
   36069:	4146                	.insn	2, 0x4146
   3606b:	4c49                	.insn	2, 0x4c49
   3606d:	4445                	.insn	2, 0x4445
	...

0000000000036070 <rvcp_space_str_data>:
   36070:	0020                	.insn	2, 0x0020

0000000000036072 <rvcp_newline_str_data>:
   36072:	000a                	.insn	2, 0x000a
   36074:	0000                	.insn	2, 0x0000
	...

0000000000036078 <excp_ignored_count_mem>:
	...

0000000000036080 <machine_flags_mem>:
	...

0000000000036088 <user_flags_mem>:
	...

0000000000036090 <super_flags_mem>:
	...

0000000000036098 <machine_area_mem>:
	...

00000000000360a0 <user_area_mem>:
	...

00000000000360a8 <super_area_mem>:
	...

00000000000360b0 <zero_data_mem>:
	...

00000000000360b8 <machine_csr_jump_table_flags_mem>:
	...

00000000000360c0 <super_csr_jump_table_flags_mem>:
	...

00000000000360c8 <pte_access_flags_mem>:
	...

00000000000360e0 <num_harts_ended_mem>:
	...

00000000000360e8 <num_hard_fails_mem>:
	...

Disassembly of section .hart_context:

000000ea53a4a000 <hart_context_0>:
  ea53a4a000:	9000                	.insn	2, 0x9000
  ea53a4a002:	071d2577          	.insn	4, 0x071d2577
	...
  ea53a4a016:	0000                	.insn	2, 0x0000
  ea53a4a018:	0001                	.insn	2, 0x0001
  ea53a4a01a:	0000                	.insn	2, 0x0000
  ea53a4a01c:	0000                	.insn	2, 0x0000
  ea53a4a01e:	0000                	.insn	2, 0x0000
  ea53a4a020:	ffff                	.insn	2, 0xffff
  ea53a4a022:	ffff                	.insn	2, 0xffff
  ea53a4a024:	ffff                	.insn	2, 0xffff
  ea53a4a026:	ffff                	.insn	2, 0xffff
  ea53a4a028:	ffff                	.insn	2, 0xffff
  ea53a4a02a:	ffff                	.insn	2, 0xffff
  ea53a4a02c:	ffff                	.insn	2, 0xffff
  ea53a4a02e:	ffff                	.insn	2, 0xffff
  ea53a4a030:	ffff                	.insn	2, 0xffff
  ea53a4a032:	ffff                	.insn	2, 0xffff
  ea53a4a034:	ffff                	.insn	2, 0xffff
  ea53a4a036:	ffff                	.insn	2, 0xffff
	...
  ea53a4a050:	00ff 0000 0000 0000 	.insn	10, 0x00ff00000000000000ff
  ea53a4a058:	00ff 
	...
  ea53a4a176:	0000                	.insn	2, 0x0000
  ea53a4a178:	ffff                	.insn	2, 0xffff
  ea53a4a17a:	ffff                	.insn	2, 0xffff
  ea53a4a17c:	ffff                	.insn	2, 0xffff
  ea53a4a17e:	ffff                	.insn	2, 0xffff
	...
  ea53a4a188:	ffff                	.insn	2, 0xffff
  ea53a4a18a:	ffff                	.insn	2, 0xffff
	...

Disassembly of section .hart_stack_0:

0000071d25778000 <hart_stack_0>:
	...

Disassembly of section .io_htif:

0000000041040000 <tohost>:
	...

0000000041040040 <fromhost>:
	...

Disassembly of section .mem0:

00000322ee40e000 <.mem0>:
 322ee40e000:	c0de                	.insn	2, 0xc0de
 322ee40e002:	c001                	.insn	2, 0xc001
 322ee40e004:	0000                	.insn	2, 0x0000
	...

Disassembly of section .mem1:

00000000408e1000 <.mem1>:
    408e1000:	c0de                	.insn	2, 0xc0de
    408e1002:	c001                	.insn	2, 0xc001
    408e1004:	0000                	.insn	2, 0x0000
	...

Disassembly of section .mem2:

00000c37b8c85000 <.mem2>:
 c37b8c85000:	c0de                	.insn	2, 0xc0de
 c37b8c85002:	c001                	.insn	2, 0xc001
 c37b8c85004:	0000                	.insn	2, 0x0000
	...

Disassembly of section .mem3:

0000120732abb000 <.mem3>:
    120732abb000:	c0de                	.insn	2, 0xc0de
    120732abb002:	c001                	.insn	2, 0xc001
    120732abb004:	0000                	.insn	2, 0x0000
	...

Disassembly of section .mem4:

0000000f96a6f000 <.mem4>:
   f96a6f000:	c0de                	.insn	2, 0xc0de
   f96a6f002:	c001                	.insn	2, 0xc001
   f96a6f004:	0000                	.insn	2, 0x0000
	...

Disassembly of section .mem5:

00000000051b8000 <.mem5>:
 51b8000:	c0de                	.insn	2, 0xc0de
 51b8002:	c001                	.insn	2, 0xc001
 51b8004:	0000                	.insn	2, 0x0000
	...

Disassembly of section .mem6:

000000000003a000 <.mem6>:
   3a000:	c0de                	.insn	2, 0xc0de
   3a002:	c001                	.insn	2, 0xc001
   3a004:	0000                	.insn	2, 0x0000
	...

Disassembly of section .mem7:

00000000037d1000 <.mem7>:
 37d1000:	c0de                	.insn	2, 0xc0de
 37d1002:	c001                	.insn	2, 0xc001
 37d1004:	0000                	.insn	2, 0x0000
	...

Disassembly of section .mem8:

0000000000014000 <.mem8>:
   14000:	c0de                	.insn	2, 0xc0de
   14002:	c001                	.insn	2, 0xc001
   14004:	0000                	.insn	2, 0x0000
	...

Disassembly of section .mem9:

000001f485f00000 <.mem9>:
 1f485f00000:	c0de                	.insn	2, 0xc0de
 1f485f00002:	c001                	.insn	2, 0xc001
 1f485f00004:	0000                	.insn	2, 0x0000
	...

Disassembly of section .mem10:

000000d0660a4000 <.mem10>:
  d0660a4000:	c0de                	.insn	2, 0xc0de
  d0660a4002:	c001                	.insn	2, 0xc001
  d0660a4004:	0000                	.insn	2, 0x0000
	...

Disassembly of section .mem11:

0000000040633000 <.mem11>:
    40633000:	c0de                	.insn	2, 0xc0de
    40633002:	c001                	.insn	2, 0xc001
    40633004:	0000                	.insn	2, 0x0000
	...

Disassembly of section .mem12:

000054b0a79bd000 <.mem12>:
    54b0a79bd000:	c0de                	.insn	2, 0xc0de
    54b0a79bd002:	c001                	.insn	2, 0xc001
    54b0a79bd004:	0000                	.insn	2, 0x0000
	...

Disassembly of section .mem13:

000000159de5e000 <.mem13>:
  159de5e000:	c0de                	.insn	2, 0xc0de
  159de5e002:	c001                	.insn	2, 0xc001
  159de5e004:	0000                	.insn	2, 0x0000
	...

Disassembly of section .mem14:

000000000be8d000 <.mem14>:
 be8d000:	c0de                	.insn	2, 0xc0de
 be8d002:	c001                	.insn	2, 0xc001
 be8d004:	0000                	.insn	2, 0x0000
	...

Disassembly of section .tp_csr_storage:

00000017e04eb000 <.tp_csr_storage>:
  17e04eb000:	c0de                	.insn	2, 0xc0de
  17e04eb002:	c001                	.insn	2, 0xc001
  17e04eb004:	0000                	.insn	2, 0x0000
	...

Disassembly of section .SID_ZICBO_001_stack:

000000000027e000 <.SID_ZICBO_001_stack>:
  27e000:	c0de                	.insn	2, 0xc0de
  27e002:	c001                	.insn	2, 0xc001
  27e004:	0000                	.insn	2, 0x0000
	...

Disassembly of section .SID_ZICBO_003_stack:

00000002cb319000 <.SID_ZICBO_003_stack>:
   2cb319000:	c0de                	.insn	2, 0xc0de
   2cb319002:	c001                	.insn	2, 0xc001
   2cb319004:	0000                	.insn	2, 0x0000
	...

Disassembly of section .SID_ZICBO_005_stack:

000000009313a000 <.SID_ZICBO_005_stack>:
    9313a000:	c0de                	.insn	2, 0xc0de
    9313a002:	c001                	.insn	2, 0xc001
    9313a004:	0000                	.insn	2, 0x0000
	...

Disassembly of section .SID_ZICBO_013_stack:

000000bfaf337000 <.SID_ZICBO_013_stack>:
  bfaf337000:	c0de                	.insn	2, 0xc0de
  bfaf337002:	c001                	.insn	2, 0xc001
  bfaf337004:	0000                	.insn	2, 0x0000
	...

Disassembly of section .SID_ZICBO_015_stack:

0000000000038000 <.SID_ZICBO_015_stack>:
   38000:	c0de                	.insn	2, 0xc0de
   38002:	c001                	.insn	2, 0xc001
   38004:	0000                	.insn	2, 0x0000
	...

Disassembly of section .SID_ZICBO_016_stack:

000000000a63e000 <.SID_ZICBO_016_stack>:
 a63e000:	c0de                	.insn	2, 0xc0de
 a63e002:	c001                	.insn	2, 0xc001
 a63e004:	0000                	.insn	2, 0x0000
	...

Disassembly of section .SID_ZICBO_017_stack:

0000000077723000 <.SID_ZICBO_017_stack>:
    77723000:	c0de                	.insn	2, 0xc0de
    77723002:	c001                	.insn	2, 0xc001
    77723004:	0000                	.insn	2, 0x0000
	...

Disassembly of section .SID_ZICBO_018_stack:

0000003b954bd000 <.SID_ZICBO_018_stack>:
  3b954bd000:	c0de                	.insn	2, 0xc0de
  3b954bd002:	c001                	.insn	2, 0xc001
  3b954bd004:	0000                	.insn	2, 0x0000
	...

Disassembly of section .SID_ZICBO_019_stack:

00000c37b8c83000 <.SID_ZICBO_019_stack>:
 c37b8c83000:	c0de                	.insn	2, 0xc0de
 c37b8c83002:	c001                	.insn	2, 0xc001
 c37b8c83004:	0000                	.insn	2, 0x0000
	...

Disassembly of section .SID_ZICBO_020_stack:

000000051d76c000 <.SID_ZICBO_020_stack>:
   51d76c000:	c0de                	.insn	2, 0xc0de
   51d76c002:	c001                	.insn	2, 0xc001
   51d76c004:	0000                	.insn	2, 0x0000
	...

Disassembly of section .SID_ZICBO_047_stack:

0000000000002000 <.SID_ZICBO_047_stack>:
    2000:	c0de                	.insn	2, 0xc0de
    2002:	c001                	.insn	2, 0xc001
    2004:	0000                	.insn	2, 0x0000
	...

Disassembly of section .SID_ZICBO_049_stack:

000000003e8c9000 <.SID_ZICBO_049_stack>:
    3e8c9000:	c0de                	.insn	2, 0xc0de
    3e8c9002:	c001                	.insn	2, 0xc001
    3e8c9004:	0000                	.insn	2, 0x0000
	...

Disassembly of section .SID_ZICBO_50_ZIC64B_01_stack:

0000000001a46000 <.SID_ZICBO_50_ZIC64B_01_stack>:
 1a46000:	c0de                	.insn	2, 0xc0de
 1a46002:	c001                	.insn	2, 0xc001
 1a46004:	0000                	.insn	2, 0x0000
	...

Disassembly of section .__pagetable_map_os_0x0000000044c04000:

0000000044c04000 <__pagetable_map_os_0x0000000044c04000>:
    44c04000:	7401                	.insn	2, 0x7401
    44c04002:	113d                	.insn	2, 0x113d
    44c04004:	0000                	.insn	2, 0x0000
    44c04006:	0000                	.insn	2, 0x0000
    44c04008:	8801                	.insn	2, 0x8801
    44c0400a:	113c                	.insn	2, 0x113c
	...
    44c04018:	6801                	.insn	2, 0x6801
    44c0401a:	0000113f 00000000 	.insn	8, 0x113f
	...
    44c0402e:	0000                	.insn	2, 0x0000
    44c04030:	6001                	.insn	2, 0x6001
    44c04032:	0000113f 00000000 	.insn	8, 0x113f
	...
    44c0406e:	0000                	.insn	2, 0x0000
    44c04070:	0401                	.insn	2, 0x0401
    44c04072:	0000113b          	sllw	x2,x0,x0
	...
    44c040be:	0000                	.insn	2, 0x0000
    44c040c0:	2c01                	.insn	2, 0x2c01
    44c040c2:	0000113b          	sllw	x2,x0,x0
	...
    44c0411e:	0000                	.insn	2, 0x0000
    44c04120:	4001                	.insn	2, 0x4001
    44c04122:	0000113b          	sllw	x2,x0,x0
	...
    44c0436e:	0000                	.insn	2, 0x0000
    44c04370:	0c01                	.insn	2, 0x0c01
    44c04372:	0000113f 00000000 	.insn	8, 0x113f
	...
    44c04546:	0000                	.insn	2, 0x0000
    44c04548:	f801                	.insn	2, 0xf801
    44c0454a:	1139                	.insn	2, 0x1139
    44c0454c:	0000                	.insn	2, 0x0000
	...

Disassembly of section .__pagetable_map_os_0x0000000044f5d000:

0000000044f5d000 <__pagetable_map_os_0x0000000044f5d000>:
    44f5d000:	8401                	.insn	2, 0x8401
    44f5d002:	113c                	.insn	2, 0x113c
    44f5d004:	0000                	.insn	2, 0x0000
    44f5d006:	0000                	.insn	2, 0x0000
    44f5d008:	7c01                	.insn	2, 0x7c01
    44f5d00a:	113c                	.insn	2, 0x113c
    44f5d00c:	0000                	.insn	2, 0x0000
    44f5d00e:	0000                	.insn	2, 0x0000
    44f5d010:	bc01                	.insn	2, 0xbc01
    44f5d012:	00001133          	sll	x2,x0,x0
	...
    44f5d056:	0000                	.insn	2, 0x0000
    44f5d058:	4801                	.insn	2, 0x4801
    44f5d05a:	1134                	.insn	2, 0x1134
	...
    44f5d0a0:	f401                	.insn	2, 0xf401
    44f5d0a2:	1131                	.insn	2, 0x1131
	...
    44f5d1f0:	3c01                	.insn	2, 0x3c01
    44f5d1f2:	0000113b          	sllw	x2,x0,x0
	...
    44f5d2ae:	0000                	.insn	2, 0x0000
    44f5d2b0:	d401                	.insn	2, 0xd401
    44f5d2b2:	113c                	.insn	2, 0x113c
	...
    44f5d2f8:	1401                	.insn	2, 0x1401
    44f5d2fa:	0000113b          	sllw	x2,x0,x0
	...
    44f5d76e:	0000                	.insn	2, 0x0000
    44f5d770:	9001                	.insn	2, 0x9001
    44f5d772:	1134                	.insn	2, 0x1134
    44f5d774:	0000                	.insn	2, 0x0000
	...

Disassembly of section .__pagetable_map_os_0x0000000044f1f000:

0000000044f1f000 <__pagetable_map_os_0x0000000044f1f000>:
	...
    44f1f018:	9001                	.insn	2, 0x9001
    44f1f01a:	113d                	.insn	2, 0x113d
    44f1f01c:	0000                	.insn	2, 0x0000
    44f1f01e:	0000                	.insn	2, 0x0000
    44f1f020:	7c01                	.insn	2, 0x7c01
    44f1f022:	1134                	.insn	2, 0x1134
	...
    44f1f040:	7801                	.insn	2, 0x7801
    44f1f042:	113d                	.insn	2, 0x113d
    44f1f044:	0000                	.insn	2, 0x0000
    44f1f046:	0000                	.insn	2, 0x0000
    44f1f048:	e401                	.insn	2, 0xe401
    44f1f04a:	113c                	.insn	2, 0x113c
	...
    44f1f130:	ec01                	.insn	2, 0xec01
    44f1f132:	1131                	.insn	2, 0x1131
	...
    44f1fdd8:	2001                	.insn	2, 0x2001
    44f1fdda:	1132                	.insn	2, 0x1132
    44f1fddc:	0000                	.insn	2, 0x0000
	...

Disassembly of section .__pagetable_map_os_0x0000000044f5e000:

0000000044f5e000 <__pagetable_map_os_0x0000000044f5e000>:
	...
    44f5e080:	104040cf          	fnmadd.s	f1,f0,f4,f2,rmm
    44f5e084:	0000                	.insn	2, 0x0000
    44f5e086:	0000                	.insn	2, 0x0000
    44f5e088:	104044cf          	fnmadd.s	f9,f0,f4,f2,rmm
    44f5e08c:	0000                	.insn	2, 0x0000
    44f5e08e:	0000                	.insn	2, 0x0000
    44f5e090:	104048cf          	fnmadd.s	f17,f0,f4,f2,rmm
    44f5e094:	0000                	.insn	2, 0x0000
    44f5e096:	0000                	.insn	2, 0x0000
    44f5e098:	10404ccf          	fnmadd.s	f25,f0,f4,f2,rmm
    44f5e09c:	0000                	.insn	2, 0x0000
    44f5e09e:	0000                	.insn	2, 0x0000
    44f5e0a0:	112800cf          	fnmadd.s	f1,f16,f18,f2,rne
    44f5e0a4:	0000                	.insn	2, 0x0000
    44f5e0a6:	0000                	.insn	2, 0x0000
    44f5e0a8:	112804cf          	fnmadd.s	f9,f16,f18,f2,rne
    44f5e0ac:	0000                	.insn	2, 0x0000
    44f5e0ae:	0000                	.insn	2, 0x0000
    44f5e0b0:	112808cf          	fnmadd.s	f17,f16,f18,f2,rne
    44f5e0b4:	0000                	.insn	2, 0x0000
    44f5e0b6:	0000                	.insn	2, 0x0000
    44f5e0b8:	11280ccf          	fnmadd.s	f25,f16,f18,f2,rne
    44f5e0bc:	0000                	.insn	2, 0x0000
    44f5e0be:	0000                	.insn	2, 0x0000
    44f5e0c0:	112810cf          	fnmadd.s	f1,f16,f18,f2,rtz
    44f5e0c4:	0000                	.insn	2, 0x0000
    44f5e0c6:	0000                	.insn	2, 0x0000
    44f5e0c8:	112814cf          	fnmadd.s	f9,f16,f18,f2,rtz
    44f5e0cc:	0000                	.insn	2, 0x0000
    44f5e0ce:	0000                	.insn	2, 0x0000
    44f5e0d0:	112818cf          	fnmadd.s	f17,f16,f18,f2,rtz
    44f5e0d4:	0000                	.insn	2, 0x0000
    44f5e0d6:	0000                	.insn	2, 0x0000
    44f5e0d8:	11281ccf          	fnmadd.s	f25,f16,f18,f2,rtz
    44f5e0dc:	0000                	.insn	2, 0x0000
    44f5e0de:	0000                	.insn	2, 0x0000
    44f5e0e0:	112820cf          	fnmadd.s	f1,f16,f18,f2,rdn
    44f5e0e4:	0000                	.insn	2, 0x0000
    44f5e0e6:	0000                	.insn	2, 0x0000
    44f5e0e8:	112824cf          	fnmadd.s	f9,f16,f18,f2,rdn
    44f5e0ec:	0000                	.insn	2, 0x0000
    44f5e0ee:	0000                	.insn	2, 0x0000
    44f5e0f0:	112828cf          	fnmadd.s	f17,f16,f18,f2,rdn
    44f5e0f4:	0000                	.insn	2, 0x0000
    44f5e0f6:	0000                	.insn	2, 0x0000
    44f5e0f8:	11282ccf          	fnmadd.s	f25,f16,f18,f2,rdn
    44f5e0fc:	0000                	.insn	2, 0x0000
    44f5e0fe:	0000                	.insn	2, 0x0000
    44f5e100:	112830cf          	fnmadd.s	f1,f16,f18,f2,rup
    44f5e104:	0000                	.insn	2, 0x0000
    44f5e106:	0000                	.insn	2, 0x0000
    44f5e108:	112834cf          	fnmadd.s	f9,f16,f18,f2,rup
    44f5e10c:	0000                	.insn	2, 0x0000
    44f5e10e:	0000                	.insn	2, 0x0000
    44f5e110:	112838cf          	fnmadd.s	f17,f16,f18,f2,rup
    44f5e114:	0000                	.insn	2, 0x0000
    44f5e116:	0000                	.insn	2, 0x0000
    44f5e118:	11283ccf          	fnmadd.s	f25,f16,f18,f2,rup
    44f5e11c:	0000                	.insn	2, 0x0000
    44f5e11e:	0000                	.insn	2, 0x0000
    44f5e120:	112840cf          	fnmadd.s	f1,f16,f18,f2,rmm
    44f5e124:	0000                	.insn	2, 0x0000
    44f5e126:	0000                	.insn	2, 0x0000
    44f5e128:	112844cf          	fnmadd.s	f9,f16,f18,f2,rmm
    44f5e12c:	0000                	.insn	2, 0x0000
    44f5e12e:	0000                	.insn	2, 0x0000
    44f5e130:	112848cf          	fnmadd.s	f17,f16,f18,f2,rmm
    44f5e134:	0000                	.insn	2, 0x0000
    44f5e136:	0000                	.insn	2, 0x0000
    44f5e138:	11284ccf          	fnmadd.s	f25,f16,f18,f2,rmm
    44f5e13c:	0000                	.insn	2, 0x0000
    44f5e13e:	0000                	.insn	2, 0x0000
    44f5e140:	112850cf          	fnmadd.s	f1,f16,f18,f2,unknown
    44f5e144:	0000                	.insn	2, 0x0000
    44f5e146:	0000                	.insn	2, 0x0000
    44f5e148:	112854cf          	fnmadd.s	f9,f16,f18,f2,unknown
    44f5e14c:	0000                	.insn	2, 0x0000
    44f5e14e:	0000                	.insn	2, 0x0000
    44f5e150:	112858cf          	fnmadd.s	f17,f16,f18,f2,unknown
    44f5e154:	0000                	.insn	2, 0x0000
    44f5e156:	0000                	.insn	2, 0x0000
    44f5e158:	11285ccf          	fnmadd.s	f25,f16,f18,f2,unknown
    44f5e15c:	0000                	.insn	2, 0x0000
    44f5e15e:	0000                	.insn	2, 0x0000
    44f5e160:	112860cf          	fnmadd.s	f1,f16,f18,f2,unknown
    44f5e164:	0000                	.insn	2, 0x0000
    44f5e166:	0000                	.insn	2, 0x0000
    44f5e168:	112864cf          	fnmadd.s	f9,f16,f18,f2,unknown
    44f5e16c:	0000                	.insn	2, 0x0000
    44f5e16e:	0000                	.insn	2, 0x0000
    44f5e170:	112868cf          	fnmadd.s	f17,f16,f18,f2,unknown
    44f5e174:	0000                	.insn	2, 0x0000
    44f5e176:	0000                	.insn	2, 0x0000
    44f5e178:	11286ccf          	fnmadd.s	f25,f16,f18,f2,unknown
    44f5e17c:	0000                	.insn	2, 0x0000
    44f5e17e:	0000                	.insn	2, 0x0000
    44f5e180:	112870cf          	fnmadd.s	f1,f16,f18,f2
    44f5e184:	0000                	.insn	2, 0x0000
    44f5e186:	0000                	.insn	2, 0x0000
    44f5e188:	112874cf          	fnmadd.s	f9,f16,f18,f2
    44f5e18c:	0000                	.insn	2, 0x0000
    44f5e18e:	0000                	.insn	2, 0x0000
    44f5e190:	112878cf          	fnmadd.s	f17,f16,f18,f2
    44f5e194:	0000                	.insn	2, 0x0000
    44f5e196:	0000                	.insn	2, 0x0000
    44f5e198:	11287ccf          	fnmadd.s	f25,f16,f18,f2
    44f5e19c:	0000                	.insn	2, 0x0000
    44f5e19e:	0000                	.insn	2, 0x0000
    44f5e1a0:	112880cf          	fnmadd.s	f1,f17,f18,f2,rne
    44f5e1a4:	0000                	.insn	2, 0x0000
    44f5e1a6:	0000                	.insn	2, 0x0000
    44f5e1a8:	112884cf          	fnmadd.s	f9,f17,f18,f2,rne
    44f5e1ac:	0000                	.insn	2, 0x0000
    44f5e1ae:	0000                	.insn	2, 0x0000
    44f5e1b0:	112888cf          	fnmadd.s	f17,f17,f18,f2,rne
    44f5e1b4:	0000                	.insn	2, 0x0000
    44f5e1b6:	0000                	.insn	2, 0x0000
    44f5e1b8:	11288ccf          	fnmadd.s	f25,f17,f18,f2,rne
    44f5e1bc:	0000                	.insn	2, 0x0000
    44f5e1be:	0000                	.insn	2, 0x0000
    44f5e1c0:	112890cf          	fnmadd.s	f1,f17,f18,f2,rtz
    44f5e1c4:	0000                	.insn	2, 0x0000
    44f5e1c6:	0000                	.insn	2, 0x0000
    44f5e1c8:	112894cf          	fnmadd.s	f9,f17,f18,f2,rtz
    44f5e1cc:	0000                	.insn	2, 0x0000
    44f5e1ce:	0000                	.insn	2, 0x0000
    44f5e1d0:	112898cf          	fnmadd.s	f17,f17,f18,f2,rtz
    44f5e1d4:	0000                	.insn	2, 0x0000
    44f5e1d6:	0000                	.insn	2, 0x0000
    44f5e1d8:	11289ccf          	fnmadd.s	f25,f17,f18,f2,rtz
    44f5e1dc:	0000                	.insn	2, 0x0000
    44f5e1de:	0000                	.insn	2, 0x0000
    44f5e1e0:	1128a0cf          	fnmadd.s	f1,f17,f18,f2,rdn
    44f5e1e4:	0000                	.insn	2, 0x0000
    44f5e1e6:	0000                	.insn	2, 0x0000
    44f5e1e8:	1128a4cf          	fnmadd.s	f9,f17,f18,f2,rdn
    44f5e1ec:	0000                	.insn	2, 0x0000
    44f5e1ee:	0000                	.insn	2, 0x0000
    44f5e1f0:	1128a8cf          	fnmadd.s	f17,f17,f18,f2,rdn
    44f5e1f4:	0000                	.insn	2, 0x0000
    44f5e1f6:	0000                	.insn	2, 0x0000
    44f5e1f8:	1128accf          	fnmadd.s	f25,f17,f18,f2,rdn
    44f5e1fc:	0000                	.insn	2, 0x0000
    44f5e1fe:	0000                	.insn	2, 0x0000
    44f5e200:	104100cf          	fnmadd.s	f1,f2,f4,f2,rne
    44f5e204:	0000                	.insn	2, 0x0000
    44f5e206:	0000                	.insn	2, 0x0000
    44f5e208:	1128b4cf          	fnmadd.s	f9,f17,f18,f2,rup
    44f5e20c:	0000                	.insn	2, 0x0000
    44f5e20e:	0000                	.insn	2, 0x0000
    44f5e210:	1128b8cf          	fnmadd.s	f17,f17,f18,f2,rup
    44f5e214:	0000                	.insn	2, 0x0000
    44f5e216:	0000                	.insn	2, 0x0000
    44f5e218:	1128bccf          	fnmadd.s	f25,f17,f18,f2,rup
    44f5e21c:	0000                	.insn	2, 0x0000
    44f5e21e:	0000                	.insn	2, 0x0000
    44f5e220:	1128c0cf          	fnmadd.s	f1,f17,f18,f2,rmm
    44f5e224:	0000                	.insn	2, 0x0000
    44f5e226:	0000                	.insn	2, 0x0000
    44f5e228:	1128c4cf          	fnmadd.s	f9,f17,f18,f2,rmm
    44f5e22c:	0000                	.insn	2, 0x0000
    44f5e22e:	0000                	.insn	2, 0x0000
    44f5e230:	1128c8cf          	fnmadd.s	f17,f17,f18,f2,rmm
    44f5e234:	0000                	.insn	2, 0x0000
    44f5e236:	0000                	.insn	2, 0x0000
    44f5e238:	1128cccf          	fnmadd.s	f25,f17,f18,f2,rmm
    44f5e23c:	0000                	.insn	2, 0x0000
    44f5e23e:	0000                	.insn	2, 0x0000
    44f5e240:	1128d0cf          	fnmadd.s	f1,f17,f18,f2,unknown
    44f5e244:	0000                	.insn	2, 0x0000
    44f5e246:	0000                	.insn	2, 0x0000
    44f5e248:	1128d4cf          	fnmadd.s	f9,f17,f18,f2,unknown
    44f5e24c:	0000                	.insn	2, 0x0000
    44f5e24e:	0000                	.insn	2, 0x0000
    44f5e250:	1128d8cf          	fnmadd.s	f17,f17,f18,f2,unknown
    44f5e254:	0000                	.insn	2, 0x0000
    44f5e256:	0000                	.insn	2, 0x0000
    44f5e258:	1128dccf          	fnmadd.s	f25,f17,f18,f2,unknown
    44f5e25c:	0000                	.insn	2, 0x0000
    44f5e25e:	0000                	.insn	2, 0x0000
    44f5e260:	1128e0cf          	fnmadd.s	f1,f17,f18,f2,unknown
    44f5e264:	0000                	.insn	2, 0x0000
    44f5e266:	0000                	.insn	2, 0x0000
    44f5e268:	1128e4cf          	fnmadd.s	f9,f17,f18,f2,unknown
    44f5e26c:	0000                	.insn	2, 0x0000
    44f5e26e:	0000                	.insn	2, 0x0000
    44f5e270:	1128e8cf          	fnmadd.s	f17,f17,f18,f2,unknown
    44f5e274:	0000                	.insn	2, 0x0000
    44f5e276:	0000                	.insn	2, 0x0000
    44f5e278:	1128eccf          	fnmadd.s	f25,f17,f18,f2,unknown
    44f5e27c:	0000                	.insn	2, 0x0000
    44f5e27e:	0000                	.insn	2, 0x0000
    44f5e280:	1128f0cf          	fnmadd.s	f1,f17,f18,f2
    44f5e284:	0000                	.insn	2, 0x0000
    44f5e286:	0000                	.insn	2, 0x0000
    44f5e288:	1128f4cf          	fnmadd.s	f9,f17,f18,f2
    44f5e28c:	0000                	.insn	2, 0x0000
    44f5e28e:	0000                	.insn	2, 0x0000
    44f5e290:	1128f8cf          	fnmadd.s	f17,f17,f18,f2
    44f5e294:	0000                	.insn	2, 0x0000
    44f5e296:	0000                	.insn	2, 0x0000
    44f5e298:	1128fccf          	fnmadd.s	f25,f17,f18,f2
    44f5e29c:	0000                	.insn	2, 0x0000
    44f5e29e:	0000                	.insn	2, 0x0000
    44f5e2a0:	112900cf          	fnmadd.s	f1,f18,f18,f2,rne
    44f5e2a4:	0000                	.insn	2, 0x0000
    44f5e2a6:	0000                	.insn	2, 0x0000
    44f5e2a8:	112904cf          	fnmadd.s	f9,f18,f18,f2,rne
    44f5e2ac:	0000                	.insn	2, 0x0000
    44f5e2ae:	0000                	.insn	2, 0x0000
    44f5e2b0:	112908cf          	fnmadd.s	f17,f18,f18,f2,rne
    44f5e2b4:	0000                	.insn	2, 0x0000
    44f5e2b6:	0000                	.insn	2, 0x0000
    44f5e2b8:	11290ccf          	fnmadd.s	f25,f18,f18,f2,rne
    44f5e2bc:	0000                	.insn	2, 0x0000
    44f5e2be:	0000                	.insn	2, 0x0000
    44f5e2c0:	112910cf          	fnmadd.s	f1,f18,f18,f2,rtz
    44f5e2c4:	0000                	.insn	2, 0x0000
    44f5e2c6:	0000                	.insn	2, 0x0000
    44f5e2c8:	112914cf          	fnmadd.s	f9,f18,f18,f2,rtz
    44f5e2cc:	0000                	.insn	2, 0x0000
    44f5e2ce:	0000                	.insn	2, 0x0000
    44f5e2d0:	112918cf          	fnmadd.s	f17,f18,f18,f2,rtz
    44f5e2d4:	0000                	.insn	2, 0x0000
    44f5e2d6:	0000                	.insn	2, 0x0000
    44f5e2d8:	11291ccf          	fnmadd.s	f25,f18,f18,f2,rtz
    44f5e2dc:	0000                	.insn	2, 0x0000
    44f5e2de:	0000                	.insn	2, 0x0000
    44f5e2e0:	112920cf          	fnmadd.s	f1,f18,f18,f2,rdn
    44f5e2e4:	0000                	.insn	2, 0x0000
    44f5e2e6:	0000                	.insn	2, 0x0000
    44f5e2e8:	112924cf          	fnmadd.s	f9,f18,f18,f2,rdn
    44f5e2ec:	0000                	.insn	2, 0x0000
    44f5e2ee:	0000                	.insn	2, 0x0000
    44f5e2f0:	112928cf          	fnmadd.s	f17,f18,f18,f2,rdn
    44f5e2f4:	0000                	.insn	2, 0x0000
    44f5e2f6:	0000                	.insn	2, 0x0000
    44f5e2f8:	11292ccf          	fnmadd.s	f25,f18,f18,f2,rdn
    44f5e2fc:	0000                	.insn	2, 0x0000
    44f5e2fe:	0000                	.insn	2, 0x0000
    44f5e300:	112930cf          	fnmadd.s	f1,f18,f18,f2,rup
    44f5e304:	0000                	.insn	2, 0x0000
    44f5e306:	0000                	.insn	2, 0x0000
    44f5e308:	112934cf          	fnmadd.s	f9,f18,f18,f2,rup
    44f5e30c:	0000                	.insn	2, 0x0000
    44f5e30e:	0000                	.insn	2, 0x0000
    44f5e310:	112938cf          	fnmadd.s	f17,f18,f18,f2,rup
    44f5e314:	0000                	.insn	2, 0x0000
    44f5e316:	0000                	.insn	2, 0x0000
    44f5e318:	11293ccf          	fnmadd.s	f25,f18,f18,f2,rup
    44f5e31c:	0000                	.insn	2, 0x0000
    44f5e31e:	0000                	.insn	2, 0x0000
    44f5e320:	112940cf          	fnmadd.s	f1,f18,f18,f2,rmm
    44f5e324:	0000                	.insn	2, 0x0000
    44f5e326:	0000                	.insn	2, 0x0000
    44f5e328:	112944cf          	fnmadd.s	f9,f18,f18,f2,rmm
    44f5e32c:	0000                	.insn	2, 0x0000
    44f5e32e:	0000                	.insn	2, 0x0000
    44f5e330:	112948cf          	fnmadd.s	f17,f18,f18,f2,rmm
    44f5e334:	0000                	.insn	2, 0x0000
    44f5e336:	0000                	.insn	2, 0x0000
    44f5e338:	11294ccf          	fnmadd.s	f25,f18,f18,f2,rmm
    44f5e33c:	0000                	.insn	2, 0x0000
    44f5e33e:	0000                	.insn	2, 0x0000
    44f5e340:	112950cf          	fnmadd.s	f1,f18,f18,f2,unknown
    44f5e344:	0000                	.insn	2, 0x0000
    44f5e346:	0000                	.insn	2, 0x0000
    44f5e348:	112954cf          	fnmadd.s	f9,f18,f18,f2,unknown
    44f5e34c:	0000                	.insn	2, 0x0000
    44f5e34e:	0000                	.insn	2, 0x0000
    44f5e350:	112958cf          	fnmadd.s	f17,f18,f18,f2,unknown
    44f5e354:	0000                	.insn	2, 0x0000
    44f5e356:	0000                	.insn	2, 0x0000
    44f5e358:	11295ccf          	fnmadd.s	f25,f18,f18,f2,unknown
    44f5e35c:	0000                	.insn	2, 0x0000
    44f5e35e:	0000                	.insn	2, 0x0000
    44f5e360:	112960cf          	fnmadd.s	f1,f18,f18,f2,unknown
    44f5e364:	0000                	.insn	2, 0x0000
    44f5e366:	0000                	.insn	2, 0x0000
    44f5e368:	112964cf          	fnmadd.s	f9,f18,f18,f2,unknown
    44f5e36c:	0000                	.insn	2, 0x0000
    44f5e36e:	0000                	.insn	2, 0x0000
    44f5e370:	112968cf          	fnmadd.s	f17,f18,f18,f2,unknown
    44f5e374:	0000                	.insn	2, 0x0000
    44f5e376:	0000                	.insn	2, 0x0000
    44f5e378:	11296ccf          	fnmadd.s	f25,f18,f18,f2,unknown
    44f5e37c:	0000                	.insn	2, 0x0000
    44f5e37e:	0000                	.insn	2, 0x0000
    44f5e380:	112970cf          	fnmadd.s	f1,f18,f18,f2
    44f5e384:	0000                	.insn	2, 0x0000
    44f5e386:	0000                	.insn	2, 0x0000
    44f5e388:	112974cf          	fnmadd.s	f9,f18,f18,f2
    44f5e38c:	0000                	.insn	2, 0x0000
    44f5e38e:	0000                	.insn	2, 0x0000
    44f5e390:	112978cf          	fnmadd.s	f17,f18,f18,f2
    44f5e394:	0000                	.insn	2, 0x0000
    44f5e396:	0000                	.insn	2, 0x0000
    44f5e398:	11297ccf          	fnmadd.s	f25,f18,f18,f2
    44f5e39c:	0000                	.insn	2, 0x0000
    44f5e39e:	0000                	.insn	2, 0x0000
    44f5e3a0:	112980cf          	fnmadd.s	f1,f19,f18,f2,rne
    44f5e3a4:	0000                	.insn	2, 0x0000
    44f5e3a6:	0000                	.insn	2, 0x0000
    44f5e3a8:	112984cf          	fnmadd.s	f9,f19,f18,f2,rne
    44f5e3ac:	0000                	.insn	2, 0x0000
    44f5e3ae:	0000                	.insn	2, 0x0000
    44f5e3b0:	112988cf          	fnmadd.s	f17,f19,f18,f2,rne
    44f5e3b4:	0000                	.insn	2, 0x0000
    44f5e3b6:	0000                	.insn	2, 0x0000
    44f5e3b8:	11298ccf          	fnmadd.s	f25,f19,f18,f2,rne
    44f5e3bc:	0000                	.insn	2, 0x0000
    44f5e3be:	0000                	.insn	2, 0x0000
    44f5e3c0:	112990cf          	fnmadd.s	f1,f19,f18,f2,rtz
    44f5e3c4:	0000                	.insn	2, 0x0000
    44f5e3c6:	0000                	.insn	2, 0x0000
    44f5e3c8:	112994cf          	fnmadd.s	f9,f19,f18,f2,rtz
    44f5e3cc:	0000                	.insn	2, 0x0000
    44f5e3ce:	0000                	.insn	2, 0x0000
    44f5e3d0:	112998cf          	fnmadd.s	f17,f19,f18,f2,rtz
    44f5e3d4:	0000                	.insn	2, 0x0000
    44f5e3d6:	0000                	.insn	2, 0x0000
    44f5e3d8:	11299ccf          	fnmadd.s	f25,f19,f18,f2,rtz
    44f5e3dc:	0000                	.insn	2, 0x0000
    44f5e3de:	0000                	.insn	2, 0x0000
    44f5e3e0:	1129a0cf          	fnmadd.s	f1,f19,f18,f2,rdn
    44f5e3e4:	0000                	.insn	2, 0x0000
    44f5e3e6:	0000                	.insn	2, 0x0000
    44f5e3e8:	1129a4cf          	fnmadd.s	f9,f19,f18,f2,rdn
    44f5e3ec:	0000                	.insn	2, 0x0000
    44f5e3ee:	0000                	.insn	2, 0x0000
    44f5e3f0:	1129a8cf          	fnmadd.s	f17,f19,f18,f2,rdn
    44f5e3f4:	0000                	.insn	2, 0x0000
    44f5e3f6:	0000                	.insn	2, 0x0000
    44f5e3f8:	1129accf          	fnmadd.s	f25,f19,f18,f2,rdn
    44f5e3fc:	0000                	.insn	2, 0x0000
    44f5e3fe:	0000                	.insn	2, 0x0000
    44f5e400:	1129b0cf          	fnmadd.s	f1,f19,f18,f2,rup
    44f5e404:	0000                	.insn	2, 0x0000
    44f5e406:	0000                	.insn	2, 0x0000
    44f5e408:	1129b4cf          	fnmadd.s	f9,f19,f18,f2,rup
    44f5e40c:	0000                	.insn	2, 0x0000
    44f5e40e:	0000                	.insn	2, 0x0000
    44f5e410:	1129b8cf          	fnmadd.s	f17,f19,f18,f2,rup
    44f5e414:	0000                	.insn	2, 0x0000
    44f5e416:	0000                	.insn	2, 0x0000
    44f5e418:	1129bccf          	fnmadd.s	f25,f19,f18,f2,rup
    44f5e41c:	0000                	.insn	2, 0x0000
    44f5e41e:	0000                	.insn	2, 0x0000
    44f5e420:	1129c0cf          	fnmadd.s	f1,f19,f18,f2,rmm
    44f5e424:	0000                	.insn	2, 0x0000
    44f5e426:	0000                	.insn	2, 0x0000
    44f5e428:	1129c4cf          	fnmadd.s	f9,f19,f18,f2,rmm
    44f5e42c:	0000                	.insn	2, 0x0000
    44f5e42e:	0000                	.insn	2, 0x0000
    44f5e430:	1129c8cf          	fnmadd.s	f17,f19,f18,f2,rmm
    44f5e434:	0000                	.insn	2, 0x0000
    44f5e436:	0000                	.insn	2, 0x0000
    44f5e438:	1129cccf          	fnmadd.s	f25,f19,f18,f2,rmm
    44f5e43c:	0000                	.insn	2, 0x0000
    44f5e43e:	0000                	.insn	2, 0x0000
    44f5e440:	1129d0cf          	fnmadd.s	f1,f19,f18,f2,unknown
    44f5e444:	0000                	.insn	2, 0x0000
    44f5e446:	0000                	.insn	2, 0x0000
    44f5e448:	1129d4cf          	fnmadd.s	f9,f19,f18,f2,unknown
    44f5e44c:	0000                	.insn	2, 0x0000
    44f5e44e:	0000                	.insn	2, 0x0000
    44f5e450:	1129d8cf          	fnmadd.s	f17,f19,f18,f2,unknown
    44f5e454:	0000                	.insn	2, 0x0000
    44f5e456:	0000                	.insn	2, 0x0000
    44f5e458:	1129dccf          	fnmadd.s	f25,f19,f18,f2,unknown
    44f5e45c:	0000                	.insn	2, 0x0000
    44f5e45e:	0000                	.insn	2, 0x0000
    44f5e460:	1129e0cf          	fnmadd.s	f1,f19,f18,f2,unknown
    44f5e464:	0000                	.insn	2, 0x0000
    44f5e466:	0000                	.insn	2, 0x0000
    44f5e468:	1129e4cf          	fnmadd.s	f9,f19,f18,f2,unknown
    44f5e46c:	0000                	.insn	2, 0x0000
    44f5e46e:	0000                	.insn	2, 0x0000
    44f5e470:	1129e8cf          	fnmadd.s	f17,f19,f18,f2,unknown
    44f5e474:	0000                	.insn	2, 0x0000
    44f5e476:	0000                	.insn	2, 0x0000
    44f5e478:	1129eccf          	fnmadd.s	f25,f19,f18,f2,unknown
    44f5e47c:	0000                	.insn	2, 0x0000
    44f5e47e:	0000                	.insn	2, 0x0000
    44f5e480:	1129f0cf          	fnmadd.s	f1,f19,f18,f2
    44f5e484:	0000                	.insn	2, 0x0000
    44f5e486:	0000                	.insn	2, 0x0000
    44f5e488:	1129f4cf          	fnmadd.s	f9,f19,f18,f2
    44f5e48c:	0000                	.insn	2, 0x0000
    44f5e48e:	0000                	.insn	2, 0x0000
    44f5e490:	1129f8cf          	fnmadd.s	f17,f19,f18,f2
    44f5e494:	0000                	.insn	2, 0x0000
    44f5e496:	0000                	.insn	2, 0x0000
    44f5e498:	1129fccf          	fnmadd.s	f25,f19,f18,f2
    44f5e49c:	0000                	.insn	2, 0x0000
    44f5e49e:	0000                	.insn	2, 0x0000
    44f5e4a0:	112a00cf          	fnmadd.s	f1,f20,f18,f2,rne
    44f5e4a4:	0000                	.insn	2, 0x0000
    44f5e4a6:	0000                	.insn	2, 0x0000
    44f5e4a8:	112a04cf          	fnmadd.s	f9,f20,f18,f2,rne
    44f5e4ac:	0000                	.insn	2, 0x0000
    44f5e4ae:	0000                	.insn	2, 0x0000
    44f5e4b0:	112a08cf          	fnmadd.s	f17,f20,f18,f2,rne
    44f5e4b4:	0000                	.insn	2, 0x0000
    44f5e4b6:	0000                	.insn	2, 0x0000
    44f5e4b8:	112a0ccf          	fnmadd.s	f25,f20,f18,f2,rne
    44f5e4bc:	0000                	.insn	2, 0x0000
    44f5e4be:	0000                	.insn	2, 0x0000
    44f5e4c0:	112a10cf          	fnmadd.s	f1,f20,f18,f2,rtz
    44f5e4c4:	0000                	.insn	2, 0x0000
    44f5e4c6:	0000                	.insn	2, 0x0000
    44f5e4c8:	112a14cf          	fnmadd.s	f9,f20,f18,f2,rtz
    44f5e4cc:	0000                	.insn	2, 0x0000
    44f5e4ce:	0000                	.insn	2, 0x0000
    44f5e4d0:	112a18cf          	fnmadd.s	f17,f20,f18,f2,rtz
    44f5e4d4:	0000                	.insn	2, 0x0000
    44f5e4d6:	0000                	.insn	2, 0x0000
    44f5e4d8:	112a1ccf          	fnmadd.s	f25,f20,f18,f2,rtz
    44f5e4dc:	0000                	.insn	2, 0x0000
    44f5e4de:	0000                	.insn	2, 0x0000
    44f5e4e0:	112a20cf          	fnmadd.s	f1,f20,f18,f2,rdn
    44f5e4e4:	0000                	.insn	2, 0x0000
    44f5e4e6:	0000                	.insn	2, 0x0000
    44f5e4e8:	112a24cf          	fnmadd.s	f9,f20,f18,f2,rdn
    44f5e4ec:	0000                	.insn	2, 0x0000
    44f5e4ee:	0000                	.insn	2, 0x0000
    44f5e4f0:	112a28cf          	fnmadd.s	f17,f20,f18,f2,rdn
    44f5e4f4:	0000                	.insn	2, 0x0000
    44f5e4f6:	0000                	.insn	2, 0x0000
    44f5e4f8:	112a2ccf          	fnmadd.s	f25,f20,f18,f2,rdn
    44f5e4fc:	0000                	.insn	2, 0x0000
    44f5e4fe:	0000                	.insn	2, 0x0000
    44f5e500:	112a30cf          	fnmadd.s	f1,f20,f18,f2,rup
    44f5e504:	0000                	.insn	2, 0x0000
    44f5e506:	0000                	.insn	2, 0x0000
    44f5e508:	112a34cf          	fnmadd.s	f9,f20,f18,f2,rup
    44f5e50c:	0000                	.insn	2, 0x0000
    44f5e50e:	0000                	.insn	2, 0x0000
    44f5e510:	112a38cf          	fnmadd.s	f17,f20,f18,f2,rup
    44f5e514:	0000                	.insn	2, 0x0000
    44f5e516:	0000                	.insn	2, 0x0000
    44f5e518:	112a3ccf          	fnmadd.s	f25,f20,f18,f2,rup
    44f5e51c:	0000                	.insn	2, 0x0000
    44f5e51e:	0000                	.insn	2, 0x0000
    44f5e520:	112a40cf          	fnmadd.s	f1,f20,f18,f2,rmm
    44f5e524:	0000                	.insn	2, 0x0000
    44f5e526:	0000                	.insn	2, 0x0000
    44f5e528:	112a44cf          	fnmadd.s	f9,f20,f18,f2,rmm
    44f5e52c:	0000                	.insn	2, 0x0000
    44f5e52e:	0000                	.insn	2, 0x0000
    44f5e530:	112a48cf          	fnmadd.s	f17,f20,f18,f2,rmm
    44f5e534:	0000                	.insn	2, 0x0000
    44f5e536:	0000                	.insn	2, 0x0000
    44f5e538:	112a4ccf          	fnmadd.s	f25,f20,f18,f2,rmm
    44f5e53c:	0000                	.insn	2, 0x0000
    44f5e53e:	0000                	.insn	2, 0x0000
    44f5e540:	112a50cf          	fnmadd.s	f1,f20,f18,f2,unknown
    44f5e544:	0000                	.insn	2, 0x0000
    44f5e546:	0000                	.insn	2, 0x0000
    44f5e548:	112a54cf          	fnmadd.s	f9,f20,f18,f2,unknown
    44f5e54c:	0000                	.insn	2, 0x0000
    44f5e54e:	0000                	.insn	2, 0x0000
    44f5e550:	112a58cf          	fnmadd.s	f17,f20,f18,f2,unknown
    44f5e554:	0000                	.insn	2, 0x0000
    44f5e556:	0000                	.insn	2, 0x0000
    44f5e558:	112a5ccf          	fnmadd.s	f25,f20,f18,f2,unknown
    44f5e55c:	0000                	.insn	2, 0x0000
    44f5e55e:	0000                	.insn	2, 0x0000
    44f5e560:	112a60cf          	fnmadd.s	f1,f20,f18,f2,unknown
    44f5e564:	0000                	.insn	2, 0x0000
    44f5e566:	0000                	.insn	2, 0x0000
    44f5e568:	112a64cf          	fnmadd.s	f9,f20,f18,f2,unknown
    44f5e56c:	0000                	.insn	2, 0x0000
    44f5e56e:	0000                	.insn	2, 0x0000
    44f5e570:	112a68cf          	fnmadd.s	f17,f20,f18,f2,unknown
    44f5e574:	0000                	.insn	2, 0x0000
    44f5e576:	0000                	.insn	2, 0x0000
    44f5e578:	112a6ccf          	fnmadd.s	f25,f20,f18,f2,unknown
    44f5e57c:	0000                	.insn	2, 0x0000
    44f5e57e:	0000                	.insn	2, 0x0000
    44f5e580:	112a70cf          	fnmadd.s	f1,f20,f18,f2
    44f5e584:	0000                	.insn	2, 0x0000
    44f5e586:	0000                	.insn	2, 0x0000
    44f5e588:	112a74cf          	fnmadd.s	f9,f20,f18,f2
    44f5e58c:	0000                	.insn	2, 0x0000
    44f5e58e:	0000                	.insn	2, 0x0000
    44f5e590:	112a78cf          	fnmadd.s	f17,f20,f18,f2
    44f5e594:	0000                	.insn	2, 0x0000
    44f5e596:	0000                	.insn	2, 0x0000
    44f5e598:	112a7ccf          	fnmadd.s	f25,f20,f18,f2
    44f5e59c:	0000                	.insn	2, 0x0000
    44f5e59e:	0000                	.insn	2, 0x0000
    44f5e5a0:	112a80cf          	fnmadd.s	f1,f21,f18,f2,rne
    44f5e5a4:	0000                	.insn	2, 0x0000
    44f5e5a6:	0000                	.insn	2, 0x0000
    44f5e5a8:	112a84cf          	fnmadd.s	f9,f21,f18,f2,rne
    44f5e5ac:	0000                	.insn	2, 0x0000
    44f5e5ae:	0000                	.insn	2, 0x0000
    44f5e5b0:	112a88cf          	fnmadd.s	f17,f21,f18,f2,rne
    44f5e5b4:	0000                	.insn	2, 0x0000
    44f5e5b6:	0000                	.insn	2, 0x0000
    44f5e5b8:	112a8ccf          	fnmadd.s	f25,f21,f18,f2,rne
    44f5e5bc:	0000                	.insn	2, 0x0000
    44f5e5be:	0000                	.insn	2, 0x0000
    44f5e5c0:	112a90cf          	fnmadd.s	f1,f21,f18,f2,rtz
    44f5e5c4:	0000                	.insn	2, 0x0000
    44f5e5c6:	0000                	.insn	2, 0x0000
    44f5e5c8:	112a94cf          	fnmadd.s	f9,f21,f18,f2,rtz
    44f5e5cc:	0000                	.insn	2, 0x0000
    44f5e5ce:	0000                	.insn	2, 0x0000
    44f5e5d0:	112a98cf          	fnmadd.s	f17,f21,f18,f2,rtz
    44f5e5d4:	0000                	.insn	2, 0x0000
    44f5e5d6:	0000                	.insn	2, 0x0000
    44f5e5d8:	112a9ccf          	fnmadd.s	f25,f21,f18,f2,rtz
    44f5e5dc:	0000                	.insn	2, 0x0000
    44f5e5de:	0000                	.insn	2, 0x0000
    44f5e5e0:	112aa0cf          	fnmadd.s	f1,f21,f18,f2,rdn
    44f5e5e4:	0000                	.insn	2, 0x0000
    44f5e5e6:	0000                	.insn	2, 0x0000
    44f5e5e8:	112aa4cf          	fnmadd.s	f9,f21,f18,f2,rdn
    44f5e5ec:	0000                	.insn	2, 0x0000
    44f5e5ee:	0000                	.insn	2, 0x0000
    44f5e5f0:	112aa8cf          	fnmadd.s	f17,f21,f18,f2,rdn
    44f5e5f4:	0000                	.insn	2, 0x0000
    44f5e5f6:	0000                	.insn	2, 0x0000
    44f5e5f8:	112aaccf          	fnmadd.s	f25,f21,f18,f2,rdn
    44f5e5fc:	0000                	.insn	2, 0x0000
    44f5e5fe:	0000                	.insn	2, 0x0000
    44f5e600:	112ab0cf          	fnmadd.s	f1,f21,f18,f2,rup
    44f5e604:	0000                	.insn	2, 0x0000
    44f5e606:	0000                	.insn	2, 0x0000
    44f5e608:	112ab4cf          	fnmadd.s	f9,f21,f18,f2,rup
    44f5e60c:	0000                	.insn	2, 0x0000
    44f5e60e:	0000                	.insn	2, 0x0000
    44f5e610:	112ab8cf          	fnmadd.s	f17,f21,f18,f2,rup
    44f5e614:	0000                	.insn	2, 0x0000
    44f5e616:	0000                	.insn	2, 0x0000
    44f5e618:	112abccf          	fnmadd.s	f25,f21,f18,f2,rup
    44f5e61c:	0000                	.insn	2, 0x0000
    44f5e61e:	0000                	.insn	2, 0x0000
    44f5e620:	112ac0cf          	fnmadd.s	f1,f21,f18,f2,rmm
    44f5e624:	0000                	.insn	2, 0x0000
    44f5e626:	0000                	.insn	2, 0x0000
    44f5e628:	112ac4cf          	fnmadd.s	f9,f21,f18,f2,rmm
    44f5e62c:	0000                	.insn	2, 0x0000
    44f5e62e:	0000                	.insn	2, 0x0000
    44f5e630:	112ac8cf          	fnmadd.s	f17,f21,f18,f2,rmm
    44f5e634:	0000                	.insn	2, 0x0000
    44f5e636:	0000                	.insn	2, 0x0000
    44f5e638:	112acccf          	fnmadd.s	f25,f21,f18,f2,rmm
    44f5e63c:	0000                	.insn	2, 0x0000
    44f5e63e:	0000                	.insn	2, 0x0000
    44f5e640:	112ad0cf          	fnmadd.s	f1,f21,f18,f2,unknown
    44f5e644:	0000                	.insn	2, 0x0000
    44f5e646:	0000                	.insn	2, 0x0000
    44f5e648:	112ad4cf          	fnmadd.s	f9,f21,f18,f2,unknown
    44f5e64c:	0000                	.insn	2, 0x0000
    44f5e64e:	0000                	.insn	2, 0x0000
    44f5e650:	112ad8cf          	fnmadd.s	f17,f21,f18,f2,unknown
    44f5e654:	0000                	.insn	2, 0x0000
    44f5e656:	0000                	.insn	2, 0x0000
    44f5e658:	112adccf          	fnmadd.s	f25,f21,f18,f2,unknown
    44f5e65c:	0000                	.insn	2, 0x0000
    44f5e65e:	0000                	.insn	2, 0x0000
    44f5e660:	112ae0cf          	fnmadd.s	f1,f21,f18,f2,unknown
    44f5e664:	0000                	.insn	2, 0x0000
    44f5e666:	0000                	.insn	2, 0x0000
    44f5e668:	112ae4cf          	fnmadd.s	f9,f21,f18,f2,unknown
    44f5e66c:	0000                	.insn	2, 0x0000
    44f5e66e:	0000                	.insn	2, 0x0000
    44f5e670:	112ae8cf          	fnmadd.s	f17,f21,f18,f2,unknown
    44f5e674:	0000                	.insn	2, 0x0000
    44f5e676:	0000                	.insn	2, 0x0000
    44f5e678:	112aeccf          	fnmadd.s	f25,f21,f18,f2,unknown
    44f5e67c:	0000                	.insn	2, 0x0000
    44f5e67e:	0000                	.insn	2, 0x0000
    44f5e680:	112af0cf          	fnmadd.s	f1,f21,f18,f2
    44f5e684:	0000                	.insn	2, 0x0000
    44f5e686:	0000                	.insn	2, 0x0000
    44f5e688:	112af4cf          	fnmadd.s	f9,f21,f18,f2
    44f5e68c:	0000                	.insn	2, 0x0000
    44f5e68e:	0000                	.insn	2, 0x0000
    44f5e690:	112af8cf          	fnmadd.s	f17,f21,f18,f2
    44f5e694:	0000                	.insn	2, 0x0000
    44f5e696:	0000                	.insn	2, 0x0000
    44f5e698:	112afccf          	fnmadd.s	f25,f21,f18,f2
    44f5e69c:	0000                	.insn	2, 0x0000
    44f5e69e:	0000                	.insn	2, 0x0000
    44f5e6a0:	112b00cf          	fnmadd.s	f1,f22,f18,f2,rne
    44f5e6a4:	0000                	.insn	2, 0x0000
    44f5e6a6:	0000                	.insn	2, 0x0000
    44f5e6a8:	112b04cf          	fnmadd.s	f9,f22,f18,f2,rne
    44f5e6ac:	0000                	.insn	2, 0x0000
    44f5e6ae:	0000                	.insn	2, 0x0000
    44f5e6b0:	112b08cf          	fnmadd.s	f17,f22,f18,f2,rne
    44f5e6b4:	0000                	.insn	2, 0x0000
    44f5e6b6:	0000                	.insn	2, 0x0000
    44f5e6b8:	112b0ccf          	fnmadd.s	f25,f22,f18,f2,rne
    44f5e6bc:	0000                	.insn	2, 0x0000
    44f5e6be:	0000                	.insn	2, 0x0000
    44f5e6c0:	112b10cf          	fnmadd.s	f1,f22,f18,f2,rtz
    44f5e6c4:	0000                	.insn	2, 0x0000
    44f5e6c6:	0000                	.insn	2, 0x0000
    44f5e6c8:	112b14cf          	fnmadd.s	f9,f22,f18,f2,rtz
    44f5e6cc:	0000                	.insn	2, 0x0000
    44f5e6ce:	0000                	.insn	2, 0x0000
    44f5e6d0:	112b18cf          	fnmadd.s	f17,f22,f18,f2,rtz
    44f5e6d4:	0000                	.insn	2, 0x0000
    44f5e6d6:	0000                	.insn	2, 0x0000
    44f5e6d8:	112b1ccf          	fnmadd.s	f25,f22,f18,f2,rtz
    44f5e6dc:	0000                	.insn	2, 0x0000
    44f5e6de:	0000                	.insn	2, 0x0000
    44f5e6e0:	112b20cf          	fnmadd.s	f1,f22,f18,f2,rdn
    44f5e6e4:	0000                	.insn	2, 0x0000
    44f5e6e6:	0000                	.insn	2, 0x0000
    44f5e6e8:	112b24cf          	fnmadd.s	f9,f22,f18,f2,rdn
    44f5e6ec:	0000                	.insn	2, 0x0000
    44f5e6ee:	0000                	.insn	2, 0x0000
    44f5e6f0:	112b28cf          	fnmadd.s	f17,f22,f18,f2,rdn
    44f5e6f4:	0000                	.insn	2, 0x0000
    44f5e6f6:	0000                	.insn	2, 0x0000
    44f5e6f8:	112b2ccf          	fnmadd.s	f25,f22,f18,f2,rdn
    44f5e6fc:	0000                	.insn	2, 0x0000
    44f5e6fe:	0000                	.insn	2, 0x0000
    44f5e700:	112b30cf          	fnmadd.s	f1,f22,f18,f2,rup
    44f5e704:	0000                	.insn	2, 0x0000
    44f5e706:	0000                	.insn	2, 0x0000
    44f5e708:	112b34cf          	fnmadd.s	f9,f22,f18,f2,rup
    44f5e70c:	0000                	.insn	2, 0x0000
    44f5e70e:	0000                	.insn	2, 0x0000
    44f5e710:	112b38cf          	fnmadd.s	f17,f22,f18,f2,rup
    44f5e714:	0000                	.insn	2, 0x0000
    44f5e716:	0000                	.insn	2, 0x0000
    44f5e718:	112b3ccf          	fnmadd.s	f25,f22,f18,f2,rup
    44f5e71c:	0000                	.insn	2, 0x0000
    44f5e71e:	0000                	.insn	2, 0x0000
    44f5e720:	112b40cf          	fnmadd.s	f1,f22,f18,f2,rmm
    44f5e724:	0000                	.insn	2, 0x0000
    44f5e726:	0000                	.insn	2, 0x0000
    44f5e728:	112b44cf          	fnmadd.s	f9,f22,f18,f2,rmm
    44f5e72c:	0000                	.insn	2, 0x0000
    44f5e72e:	0000                	.insn	2, 0x0000
    44f5e730:	112b48cf          	fnmadd.s	f17,f22,f18,f2,rmm
    44f5e734:	0000                	.insn	2, 0x0000
    44f5e736:	0000                	.insn	2, 0x0000
    44f5e738:	112b4ccf          	fnmadd.s	f25,f22,f18,f2,rmm
    44f5e73c:	0000                	.insn	2, 0x0000
    44f5e73e:	0000                	.insn	2, 0x0000
    44f5e740:	112b50cf          	fnmadd.s	f1,f22,f18,f2,unknown
    44f5e744:	0000                	.insn	2, 0x0000
    44f5e746:	0000                	.insn	2, 0x0000
    44f5e748:	112b54cf          	fnmadd.s	f9,f22,f18,f2,unknown
    44f5e74c:	0000                	.insn	2, 0x0000
    44f5e74e:	0000                	.insn	2, 0x0000
    44f5e750:	112b58cf          	fnmadd.s	f17,f22,f18,f2,unknown
    44f5e754:	0000                	.insn	2, 0x0000
    44f5e756:	0000                	.insn	2, 0x0000
    44f5e758:	112b5ccf          	fnmadd.s	f25,f22,f18,f2,unknown
    44f5e75c:	0000                	.insn	2, 0x0000
    44f5e75e:	0000                	.insn	2, 0x0000
    44f5e760:	112b60cf          	fnmadd.s	f1,f22,f18,f2,unknown
    44f5e764:	0000                	.insn	2, 0x0000
    44f5e766:	0000                	.insn	2, 0x0000
    44f5e768:	112b64cf          	fnmadd.s	f9,f22,f18,f2,unknown
    44f5e76c:	0000                	.insn	2, 0x0000
    44f5e76e:	0000                	.insn	2, 0x0000
    44f5e770:	112b68cf          	fnmadd.s	f17,f22,f18,f2,unknown
    44f5e774:	0000                	.insn	2, 0x0000
    44f5e776:	0000                	.insn	2, 0x0000
    44f5e778:	112b6ccf          	fnmadd.s	f25,f22,f18,f2,unknown
    44f5e77c:	0000                	.insn	2, 0x0000
    44f5e77e:	0000                	.insn	2, 0x0000
    44f5e780:	112b70cf          	fnmadd.s	f1,f22,f18,f2
    44f5e784:	0000                	.insn	2, 0x0000
    44f5e786:	0000                	.insn	2, 0x0000
    44f5e788:	112b74cf          	fnmadd.s	f9,f22,f18,f2
    44f5e78c:	0000                	.insn	2, 0x0000
    44f5e78e:	0000                	.insn	2, 0x0000
    44f5e790:	112b78cf          	fnmadd.s	f17,f22,f18,f2
    44f5e794:	0000                	.insn	2, 0x0000
    44f5e796:	0000                	.insn	2, 0x0000
    44f5e798:	112b7ccf          	fnmadd.s	f25,f22,f18,f2
    44f5e79c:	0000                	.insn	2, 0x0000
    44f5e79e:	0000                	.insn	2, 0x0000
    44f5e7a0:	112b80cf          	fnmadd.s	f1,f23,f18,f2,rne
    44f5e7a4:	0000                	.insn	2, 0x0000
    44f5e7a6:	0000                	.insn	2, 0x0000
    44f5e7a8:	112b84cf          	fnmadd.s	f9,f23,f18,f2,rne
    44f5e7ac:	0000                	.insn	2, 0x0000
    44f5e7ae:	0000                	.insn	2, 0x0000
    44f5e7b0:	112b88cf          	fnmadd.s	f17,f23,f18,f2,rne
    44f5e7b4:	0000                	.insn	2, 0x0000
    44f5e7b6:	0000                	.insn	2, 0x0000
    44f5e7b8:	112b8ccf          	fnmadd.s	f25,f23,f18,f2,rne
    44f5e7bc:	0000                	.insn	2, 0x0000
    44f5e7be:	0000                	.insn	2, 0x0000
    44f5e7c0:	112b90cf          	fnmadd.s	f1,f23,f18,f2,rtz
    44f5e7c4:	0000                	.insn	2, 0x0000
    44f5e7c6:	0000                	.insn	2, 0x0000
    44f5e7c8:	112b94cf          	fnmadd.s	f9,f23,f18,f2,rtz
    44f5e7cc:	0000                	.insn	2, 0x0000
    44f5e7ce:	0000                	.insn	2, 0x0000
    44f5e7d0:	112b98cf          	fnmadd.s	f17,f23,f18,f2,rtz
    44f5e7d4:	0000                	.insn	2, 0x0000
    44f5e7d6:	0000                	.insn	2, 0x0000
    44f5e7d8:	112b9ccf          	fnmadd.s	f25,f23,f18,f2,rtz
    44f5e7dc:	0000                	.insn	2, 0x0000
    44f5e7de:	0000                	.insn	2, 0x0000
    44f5e7e0:	112ba0cf          	fnmadd.s	f1,f23,f18,f2,rdn
    44f5e7e4:	0000                	.insn	2, 0x0000
    44f5e7e6:	0000                	.insn	2, 0x0000
    44f5e7e8:	112ba4cf          	fnmadd.s	f9,f23,f18,f2,rdn
    44f5e7ec:	0000                	.insn	2, 0x0000
    44f5e7ee:	0000                	.insn	2, 0x0000
    44f5e7f0:	112ba8cf          	fnmadd.s	f17,f23,f18,f2,rdn
    44f5e7f4:	0000                	.insn	2, 0x0000
    44f5e7f6:	0000                	.insn	2, 0x0000
    44f5e7f8:	112baccf          	fnmadd.s	f25,f23,f18,f2,rdn
    44f5e7fc:	0000                	.insn	2, 0x0000
    44f5e7fe:	0000                	.insn	2, 0x0000
    44f5e800:	112bb0cf          	fnmadd.s	f1,f23,f18,f2,rup
    44f5e804:	0000                	.insn	2, 0x0000
    44f5e806:	0000                	.insn	2, 0x0000
    44f5e808:	112bb4cf          	fnmadd.s	f9,f23,f18,f2,rup
    44f5e80c:	0000                	.insn	2, 0x0000
    44f5e80e:	0000                	.insn	2, 0x0000
    44f5e810:	112bb8cf          	fnmadd.s	f17,f23,f18,f2,rup
    44f5e814:	0000                	.insn	2, 0x0000
    44f5e816:	0000                	.insn	2, 0x0000
    44f5e818:	112bbccf          	fnmadd.s	f25,f23,f18,f2,rup
    44f5e81c:	0000                	.insn	2, 0x0000
    44f5e81e:	0000                	.insn	2, 0x0000
    44f5e820:	112bc0cf          	fnmadd.s	f1,f23,f18,f2,rmm
    44f5e824:	0000                	.insn	2, 0x0000
    44f5e826:	0000                	.insn	2, 0x0000
    44f5e828:	112bc4cf          	fnmadd.s	f9,f23,f18,f2,rmm
    44f5e82c:	0000                	.insn	2, 0x0000
    44f5e82e:	0000                	.insn	2, 0x0000
    44f5e830:	112bc8cf          	fnmadd.s	f17,f23,f18,f2,rmm
    44f5e834:	0000                	.insn	2, 0x0000
    44f5e836:	0000                	.insn	2, 0x0000
    44f5e838:	112bcccf          	fnmadd.s	f25,f23,f18,f2,rmm
    44f5e83c:	0000                	.insn	2, 0x0000
    44f5e83e:	0000                	.insn	2, 0x0000
    44f5e840:	112bd0cf          	fnmadd.s	f1,f23,f18,f2,unknown
    44f5e844:	0000                	.insn	2, 0x0000
    44f5e846:	0000                	.insn	2, 0x0000
    44f5e848:	112bd4cf          	fnmadd.s	f9,f23,f18,f2,unknown
    44f5e84c:	0000                	.insn	2, 0x0000
    44f5e84e:	0000                	.insn	2, 0x0000
    44f5e850:	112bd8cf          	fnmadd.s	f17,f23,f18,f2,unknown
    44f5e854:	0000                	.insn	2, 0x0000
    44f5e856:	0000                	.insn	2, 0x0000
    44f5e858:	112bdccf          	fnmadd.s	f25,f23,f18,f2,unknown
    44f5e85c:	0000                	.insn	2, 0x0000
    44f5e85e:	0000                	.insn	2, 0x0000
    44f5e860:	112be0cf          	fnmadd.s	f1,f23,f18,f2,unknown
    44f5e864:	0000                	.insn	2, 0x0000
    44f5e866:	0000                	.insn	2, 0x0000
    44f5e868:	112be4cf          	fnmadd.s	f9,f23,f18,f2,unknown
    44f5e86c:	0000                	.insn	2, 0x0000
    44f5e86e:	0000                	.insn	2, 0x0000
    44f5e870:	112be8cf          	fnmadd.s	f17,f23,f18,f2,unknown
    44f5e874:	0000                	.insn	2, 0x0000
    44f5e876:	0000                	.insn	2, 0x0000
    44f5e878:	112beccf          	fnmadd.s	f25,f23,f18,f2,unknown
    44f5e87c:	0000                	.insn	2, 0x0000
    44f5e87e:	0000                	.insn	2, 0x0000
    44f5e880:	112bf0cf          	fnmadd.s	f1,f23,f18,f2
    44f5e884:	0000                	.insn	2, 0x0000
    44f5e886:	0000                	.insn	2, 0x0000
    44f5e888:	112bf4cf          	fnmadd.s	f9,f23,f18,f2
    44f5e88c:	0000                	.insn	2, 0x0000
    44f5e88e:	0000                	.insn	2, 0x0000
    44f5e890:	112bf8cf          	fnmadd.s	f17,f23,f18,f2
    44f5e894:	0000                	.insn	2, 0x0000
    44f5e896:	0000                	.insn	2, 0x0000
    44f5e898:	112bfccf          	fnmadd.s	f25,f23,f18,f2
    44f5e89c:	0000                	.insn	2, 0x0000
    44f5e89e:	0000                	.insn	2, 0x0000
    44f5e8a0:	00df 112c 0000      	.insn	6, 0x112c00df
    44f5e8a6:	0000                	.insn	2, 0x0000
    44f5e8a8:	04df 112c 0000      	.insn	6, 0x112c04df
    44f5e8ae:	0000                	.insn	2, 0x0000
    44f5e8b0:	08df 112c 0000      	.insn	6, 0x112c08df
    44f5e8b6:	0000                	.insn	2, 0x0000
    44f5e8b8:	0cdf 112c 0000      	.insn	6, 0x112c0cdf
    44f5e8be:	0000                	.insn	2, 0x0000
    44f5e8c0:	10df 112c 0000      	.insn	6, 0x112c10df
    44f5e8c6:	0000                	.insn	2, 0x0000
    44f5e8c8:	14df 112c 0000      	.insn	6, 0x112c14df
    44f5e8ce:	0000                	.insn	2, 0x0000
    44f5e8d0:	18df 112c 0000      	.insn	6, 0x112c18df
    44f5e8d6:	0000                	.insn	2, 0x0000
    44f5e8d8:	1cdf 112c 0000      	.insn	6, 0x112c1cdf
    44f5e8de:	0000                	.insn	2, 0x0000
    44f5e8e0:	20df 112c 0000      	.insn	6, 0x112c20df
    44f5e8e6:	0000                	.insn	2, 0x0000
    44f5e8e8:	24df 112c 0000      	.insn	6, 0x112c24df
    44f5e8ee:	0000                	.insn	2, 0x0000
    44f5e8f0:	28df 112c 0000      	.insn	6, 0x112c28df
    44f5e8f6:	0000                	.insn	2, 0x0000
    44f5e8f8:	2cdf 112c 0000      	.insn	6, 0x112c2cdf
    44f5e8fe:	0000                	.insn	2, 0x0000
    44f5e900:	30df 112c 0000      	.insn	6, 0x112c30df
    44f5e906:	0000                	.insn	2, 0x0000
    44f5e908:	34df 112c 0000      	.insn	6, 0x112c34df
    44f5e90e:	0000                	.insn	2, 0x0000
    44f5e910:	38df 112c 0000      	.insn	6, 0x112c38df
    44f5e916:	0000                	.insn	2, 0x0000
    44f5e918:	3cdf 112c 0000      	.insn	6, 0x112c3cdf
    44f5e91e:	0000                	.insn	2, 0x0000
    44f5e920:	40df 112c 0000      	.insn	6, 0x112c40df
    44f5e926:	0000                	.insn	2, 0x0000
    44f5e928:	44df 112c 0000      	.insn	6, 0x112c44df
    44f5e92e:	0000                	.insn	2, 0x0000
    44f5e930:	48df 112c 0000      	.insn	6, 0x112c48df
    44f5e936:	0000                	.insn	2, 0x0000
    44f5e938:	4cdf 112c 0000      	.insn	6, 0x112c4cdf
    44f5e93e:	0000                	.insn	2, 0x0000
    44f5e940:	50df 112c 0000      	.insn	6, 0x112c50df
    44f5e946:	0000                	.insn	2, 0x0000
    44f5e948:	54df 112c 0000      	.insn	6, 0x112c54df
    44f5e94e:	0000                	.insn	2, 0x0000
    44f5e950:	58df 112c 0000      	.insn	6, 0x112c58df
    44f5e956:	0000                	.insn	2, 0x0000
    44f5e958:	5cdf 112c 0000      	.insn	6, 0x112c5cdf
    44f5e95e:	0000                	.insn	2, 0x0000
    44f5e960:	60df 112c 0000      	.insn	6, 0x112c60df
    44f5e966:	0000                	.insn	2, 0x0000
    44f5e968:	64df 112c 0000      	.insn	6, 0x112c64df
    44f5e96e:	0000                	.insn	2, 0x0000
    44f5e970:	68df 112c 0000      	.insn	6, 0x112c68df
    44f5e976:	0000                	.insn	2, 0x0000
    44f5e978:	6cdf 112c 0000      	.insn	6, 0x112c6cdf
    44f5e97e:	0000                	.insn	2, 0x0000
    44f5e980:	70df 112c 0000      	.insn	6, 0x112c70df
    44f5e986:	0000                	.insn	2, 0x0000
    44f5e988:	74df 112c 0000      	.insn	6, 0x112c74df
    44f5e98e:	0000                	.insn	2, 0x0000
    44f5e990:	78df 112c 0000      	.insn	6, 0x112c78df
    44f5e996:	0000                	.insn	2, 0x0000
    44f5e998:	7cdf 112c 0000      	.insn	6, 0x112c7cdf
    44f5e99e:	0000                	.insn	2, 0x0000
    44f5e9a0:	80df 112c 0000      	.insn	6, 0x112c80df
    44f5e9a6:	0000                	.insn	2, 0x0000
    44f5e9a8:	84df 112c 0000      	.insn	6, 0x112c84df
    44f5e9ae:	0000                	.insn	2, 0x0000
    44f5e9b0:	88df 112c 0000      	.insn	6, 0x112c88df
    44f5e9b6:	0000                	.insn	2, 0x0000
    44f5e9b8:	8cdf 112c 0000      	.insn	6, 0x112c8cdf
    44f5e9be:	0000                	.insn	2, 0x0000
    44f5e9c0:	90df 112c 0000      	.insn	6, 0x112c90df
    44f5e9c6:	0000                	.insn	2, 0x0000
    44f5e9c8:	94df 112c 0000      	.insn	6, 0x112c94df
    44f5e9ce:	0000                	.insn	2, 0x0000
    44f5e9d0:	98df 112c 0000      	.insn	6, 0x112c98df
    44f5e9d6:	0000                	.insn	2, 0x0000
    44f5e9d8:	9cdf 112c 0000      	.insn	6, 0x112c9cdf
    44f5e9de:	0000                	.insn	2, 0x0000
    44f5e9e0:	a0df 112c 0000      	.insn	6, 0x112ca0df
    44f5e9e6:	0000                	.insn	2, 0x0000
    44f5e9e8:	a4df 112c 0000      	.insn	6, 0x112ca4df
    44f5e9ee:	0000                	.insn	2, 0x0000
    44f5e9f0:	a8df 112c 0000      	.insn	6, 0x112ca8df
    44f5e9f6:	0000                	.insn	2, 0x0000
    44f5e9f8:	acdf 112c 0000      	.insn	6, 0x112cacdf
    44f5e9fe:	0000                	.insn	2, 0x0000
    44f5ea00:	b0df 112c 0000      	.insn	6, 0x112cb0df
    44f5ea06:	0000                	.insn	2, 0x0000
    44f5ea08:	b4df 112c 0000      	.insn	6, 0x112cb4df
    44f5ea0e:	0000                	.insn	2, 0x0000
    44f5ea10:	b8df 112c 0000      	.insn	6, 0x112cb8df
    44f5ea16:	0000                	.insn	2, 0x0000
    44f5ea18:	bcdf 112c 0000      	.insn	6, 0x112cbcdf
    44f5ea1e:	0000                	.insn	2, 0x0000
    44f5ea20:	c0df 112c 0000      	.insn	6, 0x112cc0df
    44f5ea26:	0000                	.insn	2, 0x0000
    44f5ea28:	c4df 112c 0000      	.insn	6, 0x112cc4df
    44f5ea2e:	0000                	.insn	2, 0x0000
    44f5ea30:	c8df 112c 0000      	.insn	6, 0x112cc8df
    44f5ea36:	0000                	.insn	2, 0x0000
    44f5ea38:	ccdf 112c 0000      	.insn	6, 0x112cccdf
    44f5ea3e:	0000                	.insn	2, 0x0000
    44f5ea40:	d0df 112c 0000      	.insn	6, 0x112cd0df
    44f5ea46:	0000                	.insn	2, 0x0000
    44f5ea48:	d4df 112c 0000      	.insn	6, 0x112cd4df
    44f5ea4e:	0000                	.insn	2, 0x0000
    44f5ea50:	d8df 112c 0000      	.insn	6, 0x112cd8df
    44f5ea56:	0000                	.insn	2, 0x0000
    44f5ea58:	dcdf 112c 0000      	.insn	6, 0x112cdcdf
    44f5ea5e:	0000                	.insn	2, 0x0000
    44f5ea60:	e0df 112c 0000      	.insn	6, 0x112ce0df
    44f5ea66:	0000                	.insn	2, 0x0000
    44f5ea68:	e4df 112c 0000      	.insn	6, 0x112ce4df
    44f5ea6e:	0000                	.insn	2, 0x0000
    44f5ea70:	e8df 112c 0000      	.insn	6, 0x112ce8df
    44f5ea76:	0000                	.insn	2, 0x0000
    44f5ea78:	ecdf 112c 0000      	.insn	6, 0x112cecdf
    44f5ea7e:	0000                	.insn	2, 0x0000
    44f5ea80:	f0df 112c 0000      	.insn	6, 0x112cf0df
    44f5ea86:	0000                	.insn	2, 0x0000
    44f5ea88:	f4df 112c 0000      	.insn	6, 0x112cf4df
    44f5ea8e:	0000                	.insn	2, 0x0000
    44f5ea90:	f8df 112c 0000      	.insn	6, 0x112cf8df
    44f5ea96:	0000                	.insn	2, 0x0000
    44f5ea98:	fcdf 112c 0000      	.insn	6, 0x112cfcdf
    44f5ea9e:	0000                	.insn	2, 0x0000
    44f5eaa0:	00df 112d 0000      	.insn	6, 0x112d00df
    44f5eaa6:	0000                	.insn	2, 0x0000
    44f5eaa8:	04df 112d 0000      	.insn	6, 0x112d04df
    44f5eaae:	0000                	.insn	2, 0x0000
    44f5eab0:	08df 112d 0000      	.insn	6, 0x112d08df
    44f5eab6:	0000                	.insn	2, 0x0000
    44f5eab8:	0cdf 112d 0000      	.insn	6, 0x112d0cdf
    44f5eabe:	0000                	.insn	2, 0x0000
    44f5eac0:	10df 112d 0000      	.insn	6, 0x112d10df
    44f5eac6:	0000                	.insn	2, 0x0000
    44f5eac8:	14df 112d 0000      	.insn	6, 0x112d14df
    44f5eace:	0000                	.insn	2, 0x0000
    44f5ead0:	18df 112d 0000      	.insn	6, 0x112d18df
    44f5ead6:	0000                	.insn	2, 0x0000
    44f5ead8:	1cdf 112d 0000      	.insn	6, 0x112d1cdf
    44f5eade:	0000                	.insn	2, 0x0000
    44f5eae0:	20df 112d 0000      	.insn	6, 0x112d20df
    44f5eae6:	0000                	.insn	2, 0x0000
    44f5eae8:	24df 112d 0000      	.insn	6, 0x112d24df
    44f5eaee:	0000                	.insn	2, 0x0000
    44f5eaf0:	28df 112d 0000      	.insn	6, 0x112d28df
    44f5eaf6:	0000                	.insn	2, 0x0000
    44f5eaf8:	2cdf 112d 0000      	.insn	6, 0x112d2cdf
    44f5eafe:	0000                	.insn	2, 0x0000
    44f5eb00:	30df 112d 0000      	.insn	6, 0x112d30df
    44f5eb06:	0000                	.insn	2, 0x0000
    44f5eb08:	34df 112d 0000      	.insn	6, 0x112d34df
    44f5eb0e:	0000                	.insn	2, 0x0000
    44f5eb10:	38df 112d 0000      	.insn	6, 0x112d38df
    44f5eb16:	0000                	.insn	2, 0x0000
    44f5eb18:	3cdf 112d 0000      	.insn	6, 0x112d3cdf
    44f5eb1e:	0000                	.insn	2, 0x0000
    44f5eb20:	40df 112d 0000      	.insn	6, 0x112d40df
    44f5eb26:	0000                	.insn	2, 0x0000
    44f5eb28:	44df 112d 0000      	.insn	6, 0x112d44df
    44f5eb2e:	0000                	.insn	2, 0x0000
    44f5eb30:	48df 112d 0000      	.insn	6, 0x112d48df
    44f5eb36:	0000                	.insn	2, 0x0000
    44f5eb38:	4cdf 112d 0000      	.insn	6, 0x112d4cdf
    44f5eb3e:	0000                	.insn	2, 0x0000
    44f5eb40:	50df 112d 0000      	.insn	6, 0x112d50df
    44f5eb46:	0000                	.insn	2, 0x0000
    44f5eb48:	54df 112d 0000      	.insn	6, 0x112d54df
    44f5eb4e:	0000                	.insn	2, 0x0000
    44f5eb50:	58df 112d 0000      	.insn	6, 0x112d58df
    44f5eb56:	0000                	.insn	2, 0x0000
    44f5eb58:	5cdf 112d 0000      	.insn	6, 0x112d5cdf
    44f5eb5e:	0000                	.insn	2, 0x0000
    44f5eb60:	60df 112d 0000      	.insn	6, 0x112d60df
    44f5eb66:	0000                	.insn	2, 0x0000
    44f5eb68:	64df 112d 0000      	.insn	6, 0x112d64df
    44f5eb6e:	0000                	.insn	2, 0x0000
    44f5eb70:	68df 112d 0000      	.insn	6, 0x112d68df
    44f5eb76:	0000                	.insn	2, 0x0000
    44f5eb78:	6cdf 112d 0000      	.insn	6, 0x112d6cdf
    44f5eb7e:	0000                	.insn	2, 0x0000
    44f5eb80:	70df 112d 0000      	.insn	6, 0x112d70df
    44f5eb86:	0000                	.insn	2, 0x0000
    44f5eb88:	74df 112d 0000      	.insn	6, 0x112d74df
    44f5eb8e:	0000                	.insn	2, 0x0000
    44f5eb90:	78df 112d 0000      	.insn	6, 0x112d78df
    44f5eb96:	0000                	.insn	2, 0x0000
    44f5eb98:	7cdf 112d 0000      	.insn	6, 0x112d7cdf
    44f5eb9e:	0000                	.insn	2, 0x0000
    44f5eba0:	80df 112d 0000      	.insn	6, 0x112d80df
    44f5eba6:	0000                	.insn	2, 0x0000
    44f5eba8:	84df 112d 0000      	.insn	6, 0x112d84df
    44f5ebae:	0000                	.insn	2, 0x0000
    44f5ebb0:	88df 112d 0000      	.insn	6, 0x112d88df
    44f5ebb6:	0000                	.insn	2, 0x0000
    44f5ebb8:	8cdf 112d 0000      	.insn	6, 0x112d8cdf
    44f5ebbe:	0000                	.insn	2, 0x0000
    44f5ebc0:	90df 112d 0000      	.insn	6, 0x112d90df
    44f5ebc6:	0000                	.insn	2, 0x0000
    44f5ebc8:	94df 112d 0000      	.insn	6, 0x112d94df
    44f5ebce:	0000                	.insn	2, 0x0000
    44f5ebd0:	98df 112d 0000      	.insn	6, 0x112d98df
    44f5ebd6:	0000                	.insn	2, 0x0000
    44f5ebd8:	9cdf 112d 0000      	.insn	6, 0x112d9cdf
    44f5ebde:	0000                	.insn	2, 0x0000
    44f5ebe0:	a0df 112d 0000      	.insn	6, 0x112da0df
    44f5ebe6:	0000                	.insn	2, 0x0000
    44f5ebe8:	a4df 112d 0000      	.insn	6, 0x112da4df
    44f5ebee:	0000                	.insn	2, 0x0000
    44f5ebf0:	a8df 112d 0000      	.insn	6, 0x112da8df
    44f5ebf6:	0000                	.insn	2, 0x0000
    44f5ebf8:	acdf 112d 0000      	.insn	6, 0x112dacdf
    44f5ebfe:	0000                	.insn	2, 0x0000
    44f5ec00:	b0df 112d 0000      	.insn	6, 0x112db0df
    44f5ec06:	0000                	.insn	2, 0x0000
    44f5ec08:	b4df 112d 0000      	.insn	6, 0x112db4df
    44f5ec0e:	0000                	.insn	2, 0x0000
    44f5ec10:	b8df 112d 0000      	.insn	6, 0x112db8df
    44f5ec16:	0000                	.insn	2, 0x0000
    44f5ec18:	bcdf 112d 0000      	.insn	6, 0x112dbcdf
    44f5ec1e:	0000                	.insn	2, 0x0000
    44f5ec20:	c0df 112d 0000      	.insn	6, 0x112dc0df
    44f5ec26:	0000                	.insn	2, 0x0000
    44f5ec28:	c4df 112d 0000      	.insn	6, 0x112dc4df
    44f5ec2e:	0000                	.insn	2, 0x0000
    44f5ec30:	c8df 112d 0000      	.insn	6, 0x112dc8df
    44f5ec36:	0000                	.insn	2, 0x0000
    44f5ec38:	ccdf 112d 0000      	.insn	6, 0x112dccdf
    44f5ec3e:	0000                	.insn	2, 0x0000
    44f5ec40:	d0df 112d 0000      	.insn	6, 0x112dd0df
    44f5ec46:	0000                	.insn	2, 0x0000
    44f5ec48:	d4df 112d 0000      	.insn	6, 0x112dd4df
    44f5ec4e:	0000                	.insn	2, 0x0000
    44f5ec50:	d8df 112d 0000      	.insn	6, 0x112dd8df
    44f5ec56:	0000                	.insn	2, 0x0000
    44f5ec58:	dcdf 112d 0000      	.insn	6, 0x112ddcdf
    44f5ec5e:	0000                	.insn	2, 0x0000
    44f5ec60:	e0df 112d 0000      	.insn	6, 0x112de0df
    44f5ec66:	0000                	.insn	2, 0x0000
    44f5ec68:	e4df 112d 0000      	.insn	6, 0x112de4df
    44f5ec6e:	0000                	.insn	2, 0x0000
    44f5ec70:	e8df 112d 0000      	.insn	6, 0x112de8df
    44f5ec76:	0000                	.insn	2, 0x0000
    44f5ec78:	ecdf 112d 0000      	.insn	6, 0x112decdf
    44f5ec7e:	0000                	.insn	2, 0x0000
    44f5ec80:	f0df 112d 0000      	.insn	6, 0x112df0df
    44f5ec86:	0000                	.insn	2, 0x0000
    44f5ec88:	f4df 112d 0000      	.insn	6, 0x112df4df
    44f5ec8e:	0000                	.insn	2, 0x0000
    44f5ec90:	f8df 112d 0000      	.insn	6, 0x112df8df
    44f5ec96:	0000                	.insn	2, 0x0000
    44f5ec98:	fcdf 112d 0000      	.insn	6, 0x112dfcdf
	...

Disassembly of section .__pagetable_map_os_0x0000000044f39000:

0000000044f39000 <__pagetable_map_os_0x0000000044f39000>:
	...
    44f390a8:	113004cf          	fnmadd.s	f9,f0,f19,f2,rne
    44f390ac:	0000                	.insn	2, 0x0000
	...

Disassembly of section .__pagetable_map_os_0x0000000044c7b000:

0000000044c7b000 <__pagetable_map_os_0x0000000044c7b000>:
	...
    44c7b020:	113010cf          	fnmadd.s	f1,f0,f19,f2,rtz
    44c7b024:	0000                	.insn	2, 0x0000
	...

Disassembly of section .__pagetable_map_os_0x0000000044d1f000:

0000000044d1f000 <__pagetable_map_os_0x0000000044d1f000>:
	...
    44d1f708:	1136a0cf          	fnmadd.s	f1,f13,f19,f2,rdn
    44d1f70c:	0000                	.insn	2, 0x0000
	...

Disassembly of section .__pagetable_map_os_0x0000000044f64000:

0000000044f64000 <__pagetable_map_os_0x0000000044f64000>:
	...
    44f64198:	113f74cf          	fnmadd.s	f9,f30,f19,f2
    44f6419c:	0000                	.insn	2, 0x0000
	...

Disassembly of section .__pagetable_map_os_0x0000000044c88000:

0000000044c88000 <__pagetable_map_os_0x0000000044c88000>:
	...
    44c88918:	11356cc7          	fmsub.s	f25,f10,f19,f2,unknown
    44c8891c:	0000                	.insn	2, 0x0000
	...

Disassembly of section .__pagetable_map_os_0x0000000044f21000:

0000000044f21000 <__pagetable_map_os_0x0000000044f21000>:
    44f21000:	9001                	.insn	2, 0x9001
    44f21002:	113c                	.insn	2, 0x113c
    44f21004:	0000                	.insn	2, 0x0000
    44f21006:	0000                	.insn	2, 0x0000
    44f21008:	3401                	.insn	2, 0x3401
    44f2100a:	113d                	.insn	2, 0x113d
	...
    44f21068:	f001                	.insn	2, 0xf001
    44f2106a:	1131                	.insn	2, 0x1131
	...
    44f210d8:	c001                	.insn	2, 0xc001
    44f210da:	113d                	.insn	2, 0x113d
	...
    44f21140:	4801                	.insn	2, 0x4801
    44f21142:	111e                	.insn	2, 0x111e
	...
    44f21298:	c001                	.insn	2, 0xc001
    44f2129a:	113c                	.insn	2, 0x113c
	...
    44f212f8:	9801                	.insn	2, 0x9801
    44f212fa:	1125                	.insn	2, 0x1125
	...
    44f21fa0:	bc01                	.insn	2, 0xbc01
    44f21fa2:	1071                	.insn	2, 0x1071
    44f21fa4:	0000                	.insn	2, 0x0000
	...

Disassembly of section .__pagetable_map_os_0x0000000044f24000:

0000000044f24000 <__pagetable_map_os_0x0000000044f24000>:
	...
    44f24010:	113cd0c7          	fmsub.s	f1,f25,f19,f2,unknown
	...
    44f240a0:	113690cf          	fnmadd.s	f1,f13,f19,f2,rtz
	...
    44f241b0:	113688cf          	fnmadd.s	f17,f13,f19,f2,rne
    44f241b4:	0000                	.insn	2, 0x0000
    44f241b6:	0000                	.insn	2, 0x0000
    44f241b8:	11368ccf          	fnmadd.s	f25,f13,f19,f2,rne
    44f241bc:	0000                	.insn	2, 0x0000
    44f241be:	0000                	.insn	2, 0x0000
    44f241c0:	113b24c7          	fmsub.s	f9,f22,f19,f2,rdn
	...
    44f241d0:	10db98cf          	fnmadd.s	f17,f23,f13,f2,rtz
    44f241d4:	0000                	.insn	2, 0x0000
	...

Disassembly of section .__pagetable_map_os_0x0000000044792000:

0000000044792000 <__pagetable_map_os_0x0000000044792000>:
	...
    44792dc0:	113b38cf          	fnmadd.s	f17,f22,f19,f2,rup
    44792dc4:	0000                	.insn	2, 0x0000
	...

Disassembly of section .__pagetable_map_os_0x0000000044f70000:

0000000044f70000 <__pagetable_map_os_0x0000000044f70000>:
	...
    44f70e88:	113d80cf          	fnmadd.s	f1,f27,f19,f2,rne
    44f70e8c:	0000                	.insn	2, 0x0000
	...

Disassembly of section .__pagetable_map_os_0x0000000044966000:

0000000044966000 <__pagetable_map_os_0x0000000044966000>:
	...
    44966468:	10db9ccf          	fnmadd.s	f25,f23,f13,f2,rtz
    4496646c:	0000                	.insn	2, 0x0000
	...

Disassembly of section .__pagetable_map_os_0x0000000044f4d000:

0000000044f4d000 <__pagetable_map_os_0x0000000044f4d000>:
	...
    44f4d3f0:	113d7cc7          	fmsub.s	f25,f26,f19,f2
    44f4d3f4:	0000                	.insn	2, 0x0000
	...

Disassembly of section .__pagetable_map_os_0x0000000044f30000:

0000000044f30000 <__pagetable_map_os_0x0000000044f30000>:
	...
    44f301f0:	113c94c7          	fmsub.s	f9,f25,f19,f2,rtz
    44f301f4:	0000                	.insn	2, 0x0000
	...

Disassembly of section .__pagetable_map_os_0x0000000041c6f000:

0000000041c6f000 <__pagetable_map_os_0x0000000041c6f000>:
	...
    41c6f648:	113b48c7          	fmsub.s	f17,f22,f19,f2,rmm
    41c6f64c:	0000                	.insn	2, 0x0000
	...

Disassembly of section .__pagetable_map_os_0x0000000044c7c000:

0000000044c7c000 <__pagetable_map_os_0x0000000044c7c000>:
	...
    44c7c230:	113dbcc7          	fmsub.s	f25,f27,f19,f2,rup
    44c7c234:	0000                	.insn	2, 0x0000
	...

Disassembly of section .__pagetable_map_os_0x0000000044ecf000:

0000000044ecf000 <__pagetable_map_os_0x0000000044ecf000>:
	...
    44ecf5a8:	b001                	.insn	2, 0xb001
    44ecf5aa:	113e                	.insn	2, 0x113e
    44ecf5ac:	0000                	.insn	2, 0x0000
	...

Disassembly of section .__pagetable_map_os_0x0000000044fac000:

0000000044fac000 <__pagetable_map_os_0x0000000044fac000>:
	...
    44fac378:	113b00cf          	fnmadd.s	f1,f22,f19,f2,rne
    44fac37c:	0000                	.insn	2, 0x0000
	...

Disassembly of section .__pagetable_map_os_0x0000000044f35000:

0000000044f35000 <__pagetable_map_os_0x0000000044f35000>:
	...
    44f35778:	d801                	.insn	2, 0xd801
    44f3577a:	113c                	.insn	2, 0x113c
    44f3577c:	0000                	.insn	2, 0x0000
	...

Disassembly of section .__pagetable_map_os_0x0000000044f36000:

0000000044f36000 <__pagetable_map_os_0x0000000044f36000>:
	...
    44f362f0:	111800cf          	fnmadd.s	f1,f16,f17,f2,rne
    44f362f4:	0000                	.insn	2, 0x0000
	...

Disassembly of section .__pagetable_map_os_0x0000000044ec5000:

0000000044ec5000 <__pagetable_map_os_0x0000000044ec5000>:
	...
    44ec5810:	a801                	.insn	2, 0xa801
    44ec5812:	113a                	.insn	2, 0x113a
    44ec5814:	0000                	.insn	2, 0x0000
	...

Disassembly of section .__pagetable_map_os_0x0000000044eaa000:

0000000044eaa000 <__pagetable_map_os_0x0000000044eaa000>:
	...
    44eaa758:	113598c7          	fmsub.s	f17,f11,f19,f2,rtz
    44eaa75c:	0000                	.insn	2, 0x0000
	...

Disassembly of section .__pagetable_map_os_0x0000000044d12000:

0000000044d12000 <__pagetable_map_os_0x0000000044d12000>:
	...
    44d122c8:	1001                	.insn	2, 0x1001
    44d122ca:	000010ef          	jal	44d132ca <__pagetable_map_os_0x0000000044d12000+0x12ca>
	...

Disassembly of section .__pagetable_map_os_0x0000000043bc4000:

0000000043bc4000 <__pagetable_map_os_0x0000000043bc4000>:
	...
    43bc48c8:	113ee8c7          	fmsub.s	f17,f29,f19,f2,unknown
    43bc48cc:	0000                	.insn	2, 0x0000
	...

Disassembly of section .__pagetable_map_os_0x0000000044cef000:

0000000044cef000 <__pagetable_map_os_0x0000000044cef000>:
	...
    44cef4c0:	fc01                	.insn	2, 0xfc01
    44cef4c2:	113e                	.insn	2, 0x113e
    44cef4c4:	0000                	.insn	2, 0x0000
	...

Disassembly of section .__pagetable_map_os_0x0000000044fbf000:

0000000044fbf000 <__pagetable_map_os_0x0000000044fbf000>:
	...
    44fbf9d0:	113f58c7          	fmsub.s	f17,f30,f19,f2,unknown
    44fbf9d4:	0000                	.insn	2, 0x0000
	...

Disassembly of section .__pagetable_map_os_0x0000000044d24000:

0000000044d24000 <__pagetable_map_os_0x0000000044d24000>:
	...
    44d24550:	2c01                	.insn	2, 0x2c01
    44d24552:	1075                	.insn	2, 0x1075
    44d24554:	0000                	.insn	2, 0x0000
	...

Disassembly of section .__pagetable_map_os_0x0000000041d4b000:

0000000041d4b000 <__pagetable_map_os_0x0000000041d4b000>:
	...
    41d4b5e8:	113f5cc7          	fmsub.s	f25,f30,f19,f2,unknown
    41d4b5ec:	0000                	.insn	2, 0x0000
	...

Disassembly of section .__pagetable_map_os_0x0000000044c7d000:

0000000044c7d000 <__pagetable_map_os_0x0000000044c7d000>:
	...
    44c7d758:	7c01                	.insn	2, 0x7c01
    44c7d75a:	1135                	.insn	2, 0x1135
    44c7d75c:	0000                	.insn	2, 0x0000
	...

Disassembly of section .__pagetable_map_os_0x0000000044d5f000:

0000000044d5f000 <__pagetable_map_os_0x0000000044d5f000>:
	...
    44d5fb60:	113d6cc7          	fmsub.s	f25,f26,f19,f2,unknown
    44d5fb64:	0000                	.insn	2, 0x0000
	...

Disassembly of section .__pagetable_map_os_0x0000000044fc3000:

0000000044fc3000 <__pagetable_map_os_0x0000000044fc3000>:
	...
    44fc3ca8:	2801                	.insn	2, 0x2801
    44fc3caa:	0000113b          	sllw	x2,x0,x0
	...

Disassembly of section .__pagetable_map_os_0x0000000044eca000:

0000000044eca000 <__pagetable_map_os_0x0000000044eca000>:
	...
    44ecac90:	cc01                	.insn	2, 0xcc01
    44ecac92:	113d                	.insn	2, 0x113d
    44ecac94:	0000                	.insn	2, 0x0000
	...

Disassembly of section .__pagetable_map_os_0x0000000044f73000:

0000000044f73000 <__pagetable_map_os_0x0000000044f73000>:
	...
    44f73d50:	113008cf          	fnmadd.s	f17,f0,f19,f2,rne
    44f73d54:	0000                	.insn	2, 0x0000
    44f73d56:	0000                	.insn	2, 0x0000
    44f73d58:	11300ccf          	fnmadd.s	f25,f0,f19,f2,rne
    44f73d5c:	0000                	.insn	2, 0x0000
	...

Disassembly of section .__pagetable_map_os_0x0000000044f22000:

0000000044f22000 <__pagetable_map_os_0x0000000044f22000>:
	...
    44f227f0:	0001                	.insn	2, 0x0001
    44f227f2:	0000113f 00000000 	.insn	8, 0x113f
	...
    44f22a06:	0000                	.insn	2, 0x0000
    44f22a08:	e401                	.insn	2, 0xe401
    44f22a0a:	1131                	.insn	2, 0x1131
	...
    44f22d48:	6801                	.insn	2, 0x6801
    44f22d4a:	113d                	.insn	2, 0x113d
    44f22d4c:	0000                	.insn	2, 0x0000
	...

Disassembly of section .__pagetable_map_os_0x0000000044f5a000:

0000000044f5a000 <__pagetable_map_os_0x0000000044f5a000>:
	...
    44f5a4e8:	1001                	.insn	2, 0x1001
    44f5a4ea:	0000113b          	sllw	x2,x0,x0
	...

Disassembly of section .__pagetable_map_os_0x0000000044ec4000:

0000000044ec4000 <__pagetable_map_os_0x0000000044ec4000>:
	...
    44ec4250:	113ce0cf          	fnmadd.s	f1,f25,f19,f2,unknown
    44ec4254:	0000                	.insn	2, 0x0000
	...

Disassembly of section .__pagetable_map_os_0x0000000044c79000:

0000000044c79000 <__pagetable_map_os_0x0000000044c79000>:
	...
    44c79980:	6c01                	.insn	2, 0x6c01
    44c79982:	113e                	.insn	2, 0x113e
    44c79984:	0000                	.insn	2, 0x0000
	...

Disassembly of section .__pagetable_map_os_0x0000000044f9b000:

0000000044f9b000 <__pagetable_map_os_0x0000000044f9b000>:
	...
    44f9b520:	113ce8cf          	fnmadd.s	f17,f25,f19,f2,unknown
    44f9b524:	0000                	.insn	2, 0x0000
	...

Disassembly of section .__pagetable_map_os_0x0000000044fc0000:

0000000044fc0000 <__pagetable_map_os_0x0000000044fc0000>:
	...
    44fc0bc8:	0801                	.insn	2, 0x0801
    44fc0bca:	0000113b          	sllw	x2,x0,x0
	...

Disassembly of section .__pagetable_map_os_0x0000000044ec2000:

0000000044ec2000 <__pagetable_map_os_0x0000000044ec2000>:
	...
    44ec29b8:	1081d4c7          	fmsub.s	f9,f3,f8,f2,unknown
    44ec29bc:	0000                	.insn	2, 0x0000
	...

Disassembly of section .__pagetable_map_os_0x0000000044ec1000:

0000000044ec1000 <__pagetable_map_os_0x0000000044ec1000>:
	...
    44ec13a0:	8401                	.insn	2, 0x8401
    44ec13a2:	1135                	.insn	2, 0x1135
    44ec13a4:	0000                	.insn	2, 0x0000
	...

Disassembly of section .__pagetable_map_os_0x0000000044d61000:

0000000044d61000 <__pagetable_map_os_0x0000000044d61000>:
	...
    44d61958:	7001                	.insn	2, 0x7001
    44d6195a:	113d                	.insn	2, 0x113d
    44d6195c:	0000                	.insn	2, 0x0000
	...

Disassembly of section .__pagetable_map_os_0x0000000044f5c000:

0000000044f5c000 <__pagetable_map_os_0x0000000044f5c000>:
	...
    44f5cbc0:	113b30cf          	fnmadd.s	f1,f22,f19,f2,rup
    44f5cbc4:	0000                	.insn	2, 0x0000
	...

Disassembly of section .__pagetable_map_os_0x0000000044fd8000:

0000000044fd8000 <__pagetable_map_os_0x0000000044fd8000>:
	...
    44fd8458:	5001                	.insn	2, 0x5001
    44fd845a:	1134                	.insn	2, 0x1134
    44fd845c:	0000                	.insn	2, 0x0000
	...

Disassembly of section .__pagetable_map_os_0x0000000044d14000:

0000000044d14000 <__pagetable_map_os_0x0000000044d14000>:
	...
    44d14b90:	f401                	.insn	2, 0xf401
    44d14b92:	1139                	.insn	2, 0x1139
    44d14b94:	0000                	.insn	2, 0x0000
	...

Disassembly of section .__pagetable_map_os_0x0000000044e7d000:

0000000044e7d000 <__pagetable_map_os_0x0000000044e7d000>:
	...
    44e7d070:	104858cf          	fnmadd.s	f17,f16,f4,f2,unknown
    44e7d074:	0000                	.insn	2, 0x0000
	...

Disassembly of section .__pagetable_map_os_0x0000000044ecb000:

0000000044ecb000 <__pagetable_map_os_0x0000000044ecb000>:
	...
    44ecb6f0:	8001                	.insn	2, 0x8001
    44ecb6f2:	113c                	.insn	2, 0x113c
    44ecb6f4:	0000                	.insn	2, 0x0000
	...

Disassembly of section .__pagetable_map_os_0x0000000044f20000:

0000000044f20000 <__pagetable_map_os_0x0000000044f20000>:
	...
    44f20e30:	f401                	.insn	2, 0xf401
    44f20e32:	113e                	.insn	2, 0x113e
    44f20e34:	0000                	.insn	2, 0x0000
	...

Disassembly of section .__pagetable_map_os_0x0000000044fbd000:

0000000044fbd000 <__pagetable_map_os_0x0000000044fbd000>:
	...
    44fbd418:	109dd0c7          	fmsub.s	f1,f27,f9,f2,unknown
	...
    44fbd428:	113c78cf          	fnmadd.s	f17,f24,f19,f2
    44fbd42c:	0000                	.insn	2, 0x0000
	...

Disassembly of section .__pagetable_map_os_0x0000000044ed0000:

0000000044ed0000 <__pagetable_map_os_0x0000000044ed0000>:
	...
    44ed00e0:	6001                	.insn	2, 0x6001
    44ed00e2:	105d                	.insn	2, 0x105d
    44ed00e4:	0000                	.insn	2, 0x0000
	...

Disassembly of section .__pagetable_map_os_0x0000000041758000:

0000000041758000 <__pagetable_map_os_0x0000000041758000>:
	...
    41758ca8:	8c01                	.insn	2, 0x8c01
    41758caa:	113c                	.insn	2, 0x113c
    41758cac:	0000                	.insn	2, 0x0000
	...

Disassembly of section .__pagetable_map_os_0x0000000044f23000:

0000000044f23000 <__pagetable_map_os_0x0000000044f23000>:
	...
    44f235d8:	11343ccf          	fnmadd.s	f25,f8,f19,f2,rup
    44f235dc:	0000                	.insn	2, 0x0000
	...

Disassembly of section .__pagetable_map_os_0x0000000044fda000:

0000000044fda000 <__pagetable_map_os_0x0000000044fda000>:
	...
    44fdae90:	f401                	.insn	2, 0xf401
    44fdae92:	00001127          	fsh	f0,2(x0) # 2 <CHECK_EXCP_MODE_HS>
	...

Disassembly of section .__pagetable_map_os_0x00000000449fd000:

00000000449fd000 <__pagetable_map_os_0x00000000449fd000>:
	...
    449fd178:	8801                	.insn	2, 0x8801
    449fd17a:	00001133          	sll	x2,x0,x0
	...

Disassembly of section .__pagetable_map_os_0x0000000044ce2000:

0000000044ce2000 <__pagetable_map_os_0x0000000044ce2000>:
	...
    44ce2800:	113498cf          	fnmadd.s	f17,f9,f19,f2,rtz
    44ce2804:	0000                	.insn	2, 0x0000
	...

Disassembly of section .__pagetable_map_os_0x0000000044e7e000:

0000000044e7e000 <__pagetable_map_os_0x0000000044e7e000>:
	...
    44e7e610:	e001                	.insn	2, 0xe001
    44e7e612:	1070                	.insn	2, 0x1070
    44e7e614:	0000                	.insn	2, 0x0000
	...

Disassembly of section .__pagetable_map_os_0x0000000041c38000:

0000000041c38000 <__pagetable_map_os_0x0000000041c38000>:
	...
    41c389e0:	8801                	.insn	2, 0x8801
    41c389e2:	1134                	.insn	2, 0x1134
    41c389e4:	0000                	.insn	2, 0x0000
	...

Disassembly of section .__pagetable_map_os_0x0000000044d22000:

0000000044d22000 <__pagetable_map_os_0x0000000044d22000>:
	...
    44d22de8:	113dd4cf          	fnmadd.s	f9,f27,f19,f2,unknown
    44d22dec:	0000                	.insn	2, 0x0000
	...
