
/home/abdullah/RiescueC/riescue/10x_R/zkt/testsuite/zkt/machine/tp_zkt_2:     file format elf64-littleriscv


Disassembly of section .runtime:

0000000041000000 <_start>:
    41000000:	00000093          	li	x1,0
    41000004:	00000113          	li	x2,0
    41000008:	00000193          	li	x3,0
    4100000c:	00000213          	li	x4,0
    41000010:	00000293          	li	x5,0
    41000014:	00000313          	li	x6,0
    41000018:	00000393          	li	x7,0
    4100001c:	00000413          	li	x8,0
    41000020:	00000493          	li	x9,0
    41000024:	00000513          	li	x10,0
    41000028:	00000593          	li	x11,0
    4100002c:	00000613          	li	x12,0
    41000030:	00000693          	li	x13,0
    41000034:	00000713          	li	x14,0
    41000038:	00000793          	li	x15,0
    4100003c:	00000813          	li	x16,0
    41000040:	00000893          	li	x17,0
    41000044:	00000913          	li	x18,0
    41000048:	00000993          	li	x19,0
    4100004c:	00000a13          	li	x20,0
    41000050:	00000a93          	li	x21,0
    41000054:	00000b13          	li	x22,0
    41000058:	00000b93          	li	x23,0
    4100005c:	00000c13          	li	x24,0
    41000060:	00000c93          	li	x25,0
    41000064:	00000d13          	li	x26,0
    41000068:	00000d93          	li	x27,0
    4100006c:	00000e13          	li	x28,0
    41000070:	00000e93          	li	x29,0
    41000074:	00000f13          	li	x30,0
    41000078:	00000f93          	li	x31,0

000000004100007c <loader__load_panic_address>:
    4100007c:	00001297          	auipc	x5,0x1
    41000080:	96028293          	addi	x5,x5,-1696 # 410009dc <eot__failed>
    41000084:	30529073          	csrw	mtvec,x5

0000000041000088 <loader__initialize_runtime>:
    41000088:	00000293          	li	x5,0
    4100008c:	3012a2f3          	csrrs	x5,misa,x5

0000000041000090 <loader__set_mstatus>:
    41000090:	000402b7          	lui	x5,0x40
    41000094:	00a2829b          	addiw	x5,x5,10 # 4000a <pma_region_0_size+0xa>
    41000098:	3002a2f3          	csrrs	x5,mstatus,x5
    4100009c:	438a7237          	lui	x4,0x438a7
    410000a0:	34021073          	csrw	mscratch,x4

00000000410000a4 <loader__setup_tvec>:
    410000a4:	00000297          	auipc	x5,0x0
    410000a8:	42028293          	addi	x5,x5,1056 # 410004c4 <trap_handler_m__trap_entry>
    410000ac:	30529073          	csrw	mtvec,x5

00000000410000b0 <loader__done>:
    410000b0:	1550006f          	j	41000a04 <scheduler__init>

00000000410000b4 <loader__panic>:
    410000b4:	1290006f          	j	410009dc <eot__failed>

00000000410000b8 <syscalls__syscall_check_schedule_next_test>:
    410000b8:	00f0029b          	addiw	x5,x0,15
    410000bc:	01c29293          	slli	x5,x5,0x1c
    410000c0:	00128293          	addi	x5,x5,1
    410000c4:	01f29a63          	bne	x5,x31,410000d8 <syscalls__syscall_check_fail_test>
    410000c8:	00000317          	auipc	x6,0x0
    410000cc:	3fc30313          	addi	x6,x6,1020 # 410004c4 <trap_handler_m__trap_entry>
    410000d0:	30531073          	csrw	mtvec,x6
    410000d4:	6340006f          	j	41000708 <enter_scheduler>

00000000410000d8 <syscalls__syscall_check_fail_test>:
    410000d8:	00f0029b          	addiw	x5,x0,15
    410000dc:	01c29293          	slli	x5,x5,0x1c
    410000e0:	00228293          	addi	x5,x5,2
    410000e4:	01f29a63          	bne	x5,x31,410000f8 <syscalls__syscall_check_end_test_without_failure>
    410000e8:	00000317          	auipc	x6,0x0
    410000ec:	3dc30313          	addi	x6,x6,988 # 410004c4 <trap_handler_m__trap_entry>
    410000f0:	30531073          	csrw	mtvec,x6
    410000f4:	6440006f          	j	41000738 <test_failed>

00000000410000f8 <syscalls__syscall_check_end_test_without_failure>:
    410000f8:	00f0029b          	addiw	x5,x0,15
    410000fc:	01c29293          	slli	x5,x5,0x1c
    41000100:	00328293          	addi	x5,x5,3
    41000104:	01f29a63          	bne	x5,x31,41000118 <syscalls__syscall_check_switch_machine_mode>
    41000108:	00000317          	auipc	x6,0x0
    4100010c:	3bc30313          	addi	x6,x6,956 # 410004c4 <trap_handler_m__trap_entry>
    41000110:	30531073          	csrw	mtvec,x6
    41000114:	6300006f          	j	41000744 <os_end_test>

0000000041000118 <syscalls__syscall_check_switch_machine_mode>:
    41000118:	000f02b7          	lui	x5,0xf0
    4100011c:	0012829b          	addiw	x5,x5,1 # f0001 <pma_region_0_size+0xb0001>
    41000120:	00c29293          	slli	x5,x5,0xc
    41000124:	00128293          	addi	x5,x5,1
    41000128:	0a5f8463          	beq	x31,x5,410001d0 <syscalls__os_fn_f0001001>

000000004100012c <syscalls__syscall_check_switch_super_mode>:
    4100012c:	000f02b7          	lui	x5,0xf0
    41000130:	0012829b          	addiw	x5,x5,1 # f0001 <pma_region_0_size+0xb0001>
    41000134:	00c29293          	slli	x5,x5,0xc
    41000138:	00228293          	addi	x5,x5,2
    4100013c:	085f8e63          	beq	x31,x5,410001d8 <syscalls__os_fn_f0001002>

0000000041000140 <syscalls__syscall_check_switch_user_mode>:
    41000140:	000f02b7          	lui	x5,0xf0
    41000144:	0012829b          	addiw	x5,x5,1 # f0001 <pma_region_0_size+0xb0001>
    41000148:	00c29293          	slli	x5,x5,0xc
    4100014c:	00328293          	addi	x5,x5,3
    41000150:	0a5f8c63          	beq	x31,x5,41000208 <syscalls__os_fn_f0001003>

0000000041000154 <syscalls__syscall_check_switch_test_mode>:
    41000154:	000f02b7          	lui	x5,0xf0
    41000158:	0012829b          	addiw	x5,x5,1 # f0001 <pma_region_0_size+0xb0001>
    4100015c:	00c29293          	slli	x5,x5,0xc
    41000160:	00428293          	addi	x5,x5,4
    41000164:	0c5f8663          	beq	x31,x5,41000230 <syscalls__os_fn_f0001004>

0000000041000168 <syscalls__syscall_machine_csr_rw>:
    41000168:	000f02b7          	lui	x5,0xf0
    4100016c:	0012829b          	addiw	x5,x5,1 # f0001 <pma_region_0_size+0xb0001>
    41000170:	00c29293          	slli	x5,x5,0xc
    41000174:	00528293          	addi	x5,x5,5
    41000178:	0e5f8263          	beq	x31,x5,4100025c <syscalls__os_fn_f0001005>

000000004100017c <syscalls__syscall_supervisor_csr_rw>:
    4100017c:	000f02b7          	lui	x5,0xf0
    41000180:	0012829b          	addiw	x5,x5,1 # f0001 <pma_region_0_size+0xb0001>
    41000184:	00c29293          	slli	x5,x5,0xc
    41000188:	00628293          	addi	x5,x5,6
    4100018c:	0c5f8c63          	beq	x31,x5,41000264 <syscalls__os_fn_f0001006>

0000000041000190 <syscalls__syscall_machine_pte_read>:
    41000190:	000f02b7          	lui	x5,0xf0
    41000194:	0012829b          	addiw	x5,x5,1 # f0001 <pma_region_0_size+0xb0001>
    41000198:	00c29293          	slli	x5,x5,0xc
    4100019c:	00728293          	addi	x5,x5,7
    410001a0:	0e5f8a63          	beq	x31,x5,41000294 <syscalls__os_fn_f0001007>

00000000410001a4 <syscalls__syscall_machine_pte_write>:
    410001a4:	000f02b7          	lui	x5,0xf0
    410001a8:	0012829b          	addiw	x5,x5,1 # f0001 <pma_region_0_size+0xb0001>
    410001ac:	00c29293          	slli	x5,x5,0xc
    410001b0:	00828293          	addi	x5,x5,8
    410001b4:	1a5f8463          	beq	x31,x5,4100035c <syscalls__os_fn_f0001008>

00000000410001b8 <syscalls__syscall_check_get_hart_context>:
    410001b8:	000782b7          	lui	x5,0x78
    410001bc:	0012829b          	addiw	x5,x5,1 # 78001 <pma_region_0_size+0x38001>
    410001c0:	00d29293          	slli	x5,x5,0xd
    410001c4:	00128293          	addi	x5,x5,1
    410001c8:	245f8e63          	beq	x31,x5,41000424 <syscalls__os_get_hart_context>
    410001cc:	4540006f          	j	41000620 <trap_handler_m__check_exception_label>

00000000410001d0 <syscalls__os_fn_f0001001>:
    410001d0:	411942b7          	lui	x5,0x41194
    410001d4:	2600006f          	j	41000434 <syscalls__ret_from_os_fn>

00000000410001d8 <syscalls__os_fn_f0001002>:
    410001d8:	000022b7          	lui	x5,0x2
    410001dc:	8002829b          	addiw	x5,x5,-2048 # 1800 <pma_region_1_size+0x800>
    410001e0:	3002b073          	csrc	mstatus,x5
    410001e4:	000012b7          	lui	x5,0x1
    410001e8:	8002829b          	addiw	x5,x5,-2048 # 800 <XLEN+0x7c0>
    410001ec:	3002a073          	csrs	mstatus,x5
    410001f0:	0010029b          	addiw	x5,x0,1
    410001f4:	02729293          	slli	x5,x5,0x27
    410001f8:	3002b073          	csrc	mstatus,x5
    410001fc:	12000073          	sfence.vma
    41000200:	410942b7          	lui	x5,0x41094
    41000204:	2300006f          	j	41000434 <syscalls__ret_from_os_fn>

0000000041000208 <syscalls__os_fn_f0001003>:
    41000208:	000022b7          	lui	x5,0x2
    4100020c:	8002829b          	addiw	x5,x5,-2048 # 1800 <pma_region_1_size+0x800>
    41000210:	3002b073          	csrc	mstatus,x5
    41000214:	00000293          	li	x5,0
    41000218:	3002a073          	csrs	mstatus,x5
    4100021c:	0010029b          	addiw	x5,x0,1
    41000220:	02729293          	slli	x5,x5,0x27
    41000224:	3002b073          	csrc	mstatus,x5
    41000228:	411142b7          	lui	x5,0x41114
    4100022c:	2080006f          	j	41000434 <syscalls__ret_from_os_fn>

0000000041000230 <syscalls__os_fn_f0001004>:
    41000230:	000022b7          	lui	x5,0x2
    41000234:	8002829b          	addiw	x5,x5,-2048 # 1800 <pma_region_1_size+0x800>
    41000238:	3002b073          	csrc	mstatus,x5
    4100023c:	000022b7          	lui	x5,0x2
    41000240:	8002829b          	addiw	x5,x5,-2048 # 1800 <pma_region_1_size+0x800>
    41000244:	3002a073          	csrs	mstatus,x5
    41000248:	0010029b          	addiw	x5,x0,1
    4100024c:	02729293          	slli	x5,x5,0x27
    41000250:	3002b073          	csrc	mstatus,x5
    41000254:	17823283          	ld	x5,376(x4) # 438a7178 <os_save_ecall_fn_epc>
    41000258:	1dc0006f          	j	41000434 <syscalls__ret_from_os_fn>

000000004100025c <syscalls__os_fn_f0001005>:
    4100025c:	412142b7          	lui	x5,0x41214
    41000260:	1d40006f          	j	41000434 <syscalls__ret_from_os_fn>

0000000041000264 <syscalls__os_fn_f0001006>:
    41000264:	000022b7          	lui	x5,0x2
    41000268:	8002829b          	addiw	x5,x5,-2048 # 1800 <pma_region_1_size+0x800>
    4100026c:	3002b073          	csrc	mstatus,x5
    41000270:	000012b7          	lui	x5,0x1
    41000274:	8002829b          	addiw	x5,x5,-2048 # 800 <XLEN+0x7c0>
    41000278:	3002a073          	csrs	mstatus,x5
    4100027c:	0010029b          	addiw	x5,x0,1
    41000280:	02729293          	slli	x5,x5,0x27
    41000284:	3002b073          	csrc	mstatus,x5
    41000288:	12000073          	sfence.vma
    4100028c:	412152b7          	lui	x5,0x41215
    41000290:	1a40006f          	j	41000434 <syscalls__ret_from_os_fn>

0000000041000294 <syscalls__os_fn_f0001007>:
    41000294:	43600fb7          	lui	x31,0x43600
    41000298:	0b0f8f9b          	addiw	x31,x31,176 # 436000b0 <pte_access_flags>
    4100029c:	000fbf83          	ld	x31,0(x31)
    410002a0:	436002b7          	lui	x5,0x43600
    410002a4:	0b82829b          	addiw	x5,x5,184 # 436000b8 <pte_access_flags+0x8>
    410002a8:	0002b283          	ld	x5,0(x5)
    410002ac:	43600e37          	lui	x28,0x43600
    410002b0:	0c0e0e1b          	addiw	x28,x28,192 # 436000c0 <pte_access_flags+0x10>
    410002b4:	000e3e03          	ld	x28,0(x28)

00000000410002b8 <syscalls__pte_walk_check_paging_disabled_nonvirt_target_level_read>:
    410002b8:	0a029063          	bnez	x5,41000358 <syscalls__pte_walk_fail_read>

00000000410002bc <syscalls__pte_walk_check_glevel_without_gstage_read>:
    410002bc:	fff00f93          	li	x31,-1
    410002c0:	09fe1c63          	bne	x28,x31,41000358 <syscalls__pte_walk_fail_read>

00000000410002c4 <syscalls__pte_walk_loop_read>:
    410002c4:	43600fb7          	lui	x31,0x43600
    410002c8:	0b0f8f9b          	addiw	x31,x31,176 # 436000b0 <pte_access_flags>
    410002cc:	000fbf83          	ld	x31,0(x31)
    410002d0:	01dfdfb3          	srl	x31,x31,x29
    410002d4:	1fffff93          	andi	x31,x31,511
    410002d8:	003f9f93          	slli	x31,x31,0x3
    410002dc:	01f30333          	add	x6,x6,x31
    410002e0:	005f0e63          	beq	x30,x5,410002fc <syscalls__pte_walk_done_read>
    410002e4:	00033f83          	ld	x31,0(x6)
    410002e8:	00afdf93          	srli	x31,x31,0xa
    410002ec:	00cf9313          	slli	x6,x31,0xc
    410002f0:	001f0f13          	addi	x30,x30,1
    410002f4:	ff7e8e93          	addi	x29,x29,-9
    410002f8:	fcdff06f          	j	410002c4 <syscalls__pte_walk_loop_read>

00000000410002fc <syscalls__pte_walk_done_read>:
    410002fc:	fff00f93          	li	x31,-1
    41000300:	05fe0263          	beq	x28,x31,41000344 <syscalls__pte_walk_final_read>

0000000041000304 <syscalls__pte_walk_gstage_read>:
    41000304:	43600fb7          	lui	x31,0x43600
    41000308:	0b0f8f9b          	addiw	x31,x31,176 # 436000b0 <pte_access_flags>
    4100030c:	006fb023          	sd	x6,0(x31)
    41000310:	000e0293          	mv	x5,x28
    41000314:	fff00e13          	li	x28,-1
    41000318:	68002373          	csrr	x6,hgatp
    4100031c:	03c35e93          	srli	x29,x6,0x3c
    41000320:	01431313          	slli	x6,x6,0x14
    41000324:	01435313          	srli	x6,x6,0x14
    41000328:	00c31313          	slli	x6,x6,0xc
    4100032c:	ff8e8e93          	addi	x29,x29,-8
    41000330:	003e9f13          	slli	x30,x29,0x3
    41000334:	01df0eb3          	add	x29,x30,x29
    41000338:	01ee8e93          	addi	x29,x29,30
    4100033c:	00000f13          	li	x30,0
    41000340:	f85ff06f          	j	410002c4 <syscalls__pte_walk_loop_read>

0000000041000344 <syscalls__pte_walk_final_read>:
    41000344:	00033383          	ld	x7,0(x6)
    41000348:	341022f3          	csrr	x5,mepc
    4100034c:	00428293          	addi	x5,x5,4
    41000350:	16523c23          	sd	x5,376(x4) # 178 <XLEN+0x138>
    41000354:	eddff06f          	j	41000230 <syscalls__os_fn_f0001004>

0000000041000358 <syscalls__pte_walk_fail_read>:
    41000358:	3e00006f          	j	41000738 <test_failed>

000000004100035c <syscalls__os_fn_f0001008>:
    4100035c:	43600fb7          	lui	x31,0x43600
    41000360:	0b0f8f9b          	addiw	x31,x31,176 # 436000b0 <pte_access_flags>
    41000364:	000fbf83          	ld	x31,0(x31)
    41000368:	436002b7          	lui	x5,0x43600
    4100036c:	0b82829b          	addiw	x5,x5,184 # 436000b8 <pte_access_flags+0x8>
    41000370:	0002b283          	ld	x5,0(x5)
    41000374:	43600e37          	lui	x28,0x43600
    41000378:	0c0e0e1b          	addiw	x28,x28,192 # 436000c0 <pte_access_flags+0x10>
    4100037c:	000e3e03          	ld	x28,0(x28)

0000000041000380 <syscalls__pte_walk_check_paging_disabled_nonvirt_target_level_write>:
    41000380:	0a029063          	bnez	x5,41000420 <syscalls__pte_walk_fail_write>

0000000041000384 <syscalls__pte_walk_check_glevel_without_gstage_write>:
    41000384:	fff00f93          	li	x31,-1
    41000388:	09fe1c63          	bne	x28,x31,41000420 <syscalls__pte_walk_fail_write>

000000004100038c <syscalls__pte_walk_loop_write>:
    4100038c:	43600fb7          	lui	x31,0x43600
    41000390:	0b0f8f9b          	addiw	x31,x31,176 # 436000b0 <pte_access_flags>
    41000394:	000fbf83          	ld	x31,0(x31)
    41000398:	01dfdfb3          	srl	x31,x31,x29
    4100039c:	1fffff93          	andi	x31,x31,511
    410003a0:	003f9f93          	slli	x31,x31,0x3
    410003a4:	01f30333          	add	x6,x6,x31
    410003a8:	005f0e63          	beq	x30,x5,410003c4 <syscalls__pte_walk_done_write>
    410003ac:	00033f83          	ld	x31,0(x6)
    410003b0:	00afdf93          	srli	x31,x31,0xa
    410003b4:	00cf9313          	slli	x6,x31,0xc
    410003b8:	001f0f13          	addi	x30,x30,1
    410003bc:	ff7e8e93          	addi	x29,x29,-9
    410003c0:	fcdff06f          	j	4100038c <syscalls__pte_walk_loop_write>

00000000410003c4 <syscalls__pte_walk_done_write>:
    410003c4:	fff00f93          	li	x31,-1
    410003c8:	05fe0263          	beq	x28,x31,4100040c <syscalls__pte_walk_final_write>

00000000410003cc <syscalls__pte_walk_gstage_write>:
    410003cc:	43600fb7          	lui	x31,0x43600
    410003d0:	0b0f8f9b          	addiw	x31,x31,176 # 436000b0 <pte_access_flags>
    410003d4:	006fb023          	sd	x6,0(x31)
    410003d8:	000e0293          	mv	x5,x28
    410003dc:	fff00e13          	li	x28,-1
    410003e0:	68002373          	csrr	x6,hgatp
    410003e4:	03c35e93          	srli	x29,x6,0x3c
    410003e8:	01431313          	slli	x6,x6,0x14
    410003ec:	01435313          	srli	x6,x6,0x14
    410003f0:	00c31313          	slli	x6,x6,0xc
    410003f4:	ff8e8e93          	addi	x29,x29,-8
    410003f8:	003e9f13          	slli	x30,x29,0x3
    410003fc:	01df0eb3          	add	x29,x30,x29
    41000400:	01ee8e93          	addi	x29,x29,30
    41000404:	00000f13          	li	x30,0
    41000408:	f85ff06f          	j	4100038c <syscalls__pte_walk_loop_write>

000000004100040c <syscalls__pte_walk_final_write>:
    4100040c:	00733023          	sd	x7,0(x6)
    41000410:	341022f3          	csrr	x5,mepc
    41000414:	00428293          	addi	x5,x5,4
    41000418:	16523c23          	sd	x5,376(x4) # 178 <XLEN+0x138>
    4100041c:	e15ff06f          	j	41000230 <syscalls__os_fn_f0001004>

0000000041000420 <syscalls__pte_walk_fail_write>:
    41000420:	3180006f          	j	41000738 <test_failed>

0000000041000424 <syscalls__os_get_hart_context>:
    41000424:	00020513          	mv	x10,x4
    41000428:	341022f3          	csrr	x5,mepc
    4100042c:	00428293          	addi	x5,x5,4
    41000430:	0040006f          	j	41000434 <syscalls__ret_from_os_fn>

0000000041000434 <syscalls__ret_from_os_fn>:
    41000434:	34102373          	csrr	x6,mepc
    41000438:	00430313          	addi	x6,x6,4
    4100043c:	16623c23          	sd	x6,376(x4) # 178 <XLEN+0x138>
    41000440:	34129073          	csrw	mepc,x5
    41000444:	fff00f93          	li	x31,-1
    41000448:	2a40006f          	j	410006ec <trap_handler_m__skip_xepc_write>

000000004100044c <trap_handler_m__invalid_interrupt>:
    4100044c:	2ec0006f          	j	41000738 <test_failed>

0000000041000450 <trap_handler_m__clear_all_interrupts>:
    41000450:	34401073          	csrw	mip,x0
    41000454:	30200073          	mret

0000000041000458 <trap_handler_m___CLEAR_SSI>:
    41000458:	00200293          	li	x5,2
    4100045c:	3442b073          	csrc	mip,x5
    41000460:	30200073          	mret

0000000041000464 <trap_handler_m___CLEAR_MSI>:
    41000464:	00800293          	li	x5,8
    41000468:	3442b073          	csrc	mip,x5
    4100046c:	30200073          	mret

0000000041000470 <trap_handler_m___CLEAR_STI>:
    41000470:	02000293          	li	x5,32
    41000474:	3442b073          	csrc	mip,x5
    41000478:	30200073          	mret

000000004100047c <trap_handler_m___CLEAR_MTI>:
    4100047c:	08000293          	li	x5,128
    41000480:	3442b073          	csrc	mip,x5
    41000484:	30200073          	mret

0000000041000488 <trap_handler_m___CLEAR_SEI>:
    41000488:	20000293          	li	x5,512
    4100048c:	3442b073          	csrc	mip,x5
    41000490:	30200073          	mret

0000000041000494 <trap_handler_m___CLEAR_MEI>:
    41000494:	000012b7          	lui	x5,0x1
    41000498:	8002829b          	addiw	x5,x5,-2048 # 800 <XLEN+0x7c0>
    4100049c:	3442b073          	csrc	mip,x5
    410004a0:	30200073          	mret

00000000410004a4 <trap_handler_m___CLEAR_COI>:
    410004a4:	000022b7          	lui	x5,0x2
    410004a8:	3442b073          	csrc	mip,x5
    410004ac:	30200073          	mret

00000000410004b0 <trap_handler_m__clear_highest_priority_interrupt>:
    410004b0:	344022f3          	csrr	x5,mip
    410004b4:	40500333          	neg	x6,x5
    410004b8:	0062f2b3          	and	x5,x5,x6
    410004bc:	3442b073          	csrc	mip,x5
    410004c0:	30200073          	mret

00000000410004c4 <trap_handler_m__trap_entry>:
    410004c4:	0fc0006f          	j	410005c0 <trap_handler_m__trap_handler>

00000000410004c8 <trap_handler_m__interrupt_vector_table>:
    410004c8:	f91ff06f          	j	41000458 <trap_handler_m___CLEAR_SSI>
    410004cc:	f81ff06f          	j	4100044c <trap_handler_m__invalid_interrupt>
    410004d0:	f95ff06f          	j	41000464 <trap_handler_m___CLEAR_MSI>
    410004d4:	f79ff06f          	j	4100044c <trap_handler_m__invalid_interrupt>
    410004d8:	f99ff06f          	j	41000470 <trap_handler_m___CLEAR_STI>
    410004dc:	f71ff06f          	j	4100044c <trap_handler_m__invalid_interrupt>
    410004e0:	f9dff06f          	j	4100047c <trap_handler_m___CLEAR_MTI>
    410004e4:	f69ff06f          	j	4100044c <trap_handler_m__invalid_interrupt>
    410004e8:	fa1ff06f          	j	41000488 <trap_handler_m___CLEAR_SEI>
    410004ec:	f61ff06f          	j	4100044c <trap_handler_m__invalid_interrupt>
    410004f0:	fa5ff06f          	j	41000494 <trap_handler_m___CLEAR_MEI>
    410004f4:	f59ff06f          	j	4100044c <trap_handler_m__invalid_interrupt>
    410004f8:	fadff06f          	j	410004a4 <trap_handler_m___CLEAR_COI>
    410004fc:	f51ff06f          	j	4100044c <trap_handler_m__invalid_interrupt>
    41000500:	f4dff06f          	j	4100044c <trap_handler_m__invalid_interrupt>
    41000504:	fadff06f          	j	410004b0 <trap_handler_m__clear_highest_priority_interrupt>
    41000508:	fa9ff06f          	j	410004b0 <trap_handler_m__clear_highest_priority_interrupt>
    4100050c:	fa5ff06f          	j	410004b0 <trap_handler_m__clear_highest_priority_interrupt>
    41000510:	fa1ff06f          	j	410004b0 <trap_handler_m__clear_highest_priority_interrupt>
    41000514:	f9dff06f          	j	410004b0 <trap_handler_m__clear_highest_priority_interrupt>
    41000518:	f99ff06f          	j	410004b0 <trap_handler_m__clear_highest_priority_interrupt>
    4100051c:	f95ff06f          	j	410004b0 <trap_handler_m__clear_highest_priority_interrupt>
    41000520:	f91ff06f          	j	410004b0 <trap_handler_m__clear_highest_priority_interrupt>
    41000524:	f8dff06f          	j	410004b0 <trap_handler_m__clear_highest_priority_interrupt>
    41000528:	f89ff06f          	j	410004b0 <trap_handler_m__clear_highest_priority_interrupt>
    4100052c:	f85ff06f          	j	410004b0 <trap_handler_m__clear_highest_priority_interrupt>
    41000530:	f81ff06f          	j	410004b0 <trap_handler_m__clear_highest_priority_interrupt>
    41000534:	f7dff06f          	j	410004b0 <trap_handler_m__clear_highest_priority_interrupt>
    41000538:	f79ff06f          	j	410004b0 <trap_handler_m__clear_highest_priority_interrupt>
    4100053c:	f75ff06f          	j	410004b0 <trap_handler_m__clear_highest_priority_interrupt>
    41000540:	f71ff06f          	j	410004b0 <trap_handler_m__clear_highest_priority_interrupt>
    41000544:	f6dff06f          	j	410004b0 <trap_handler_m__clear_highest_priority_interrupt>
    41000548:	f69ff06f          	j	410004b0 <trap_handler_m__clear_highest_priority_interrupt>
    4100054c:	f65ff06f          	j	410004b0 <trap_handler_m__clear_highest_priority_interrupt>
    41000550:	f61ff06f          	j	410004b0 <trap_handler_m__clear_highest_priority_interrupt>
    41000554:	f5dff06f          	j	410004b0 <trap_handler_m__clear_highest_priority_interrupt>
    41000558:	f59ff06f          	j	410004b0 <trap_handler_m__clear_highest_priority_interrupt>
    4100055c:	f55ff06f          	j	410004b0 <trap_handler_m__clear_highest_priority_interrupt>
    41000560:	f51ff06f          	j	410004b0 <trap_handler_m__clear_highest_priority_interrupt>
    41000564:	f4dff06f          	j	410004b0 <trap_handler_m__clear_highest_priority_interrupt>
    41000568:	f49ff06f          	j	410004b0 <trap_handler_m__clear_highest_priority_interrupt>
    4100056c:	f45ff06f          	j	410004b0 <trap_handler_m__clear_highest_priority_interrupt>
    41000570:	f41ff06f          	j	410004b0 <trap_handler_m__clear_highest_priority_interrupt>
    41000574:	f3dff06f          	j	410004b0 <trap_handler_m__clear_highest_priority_interrupt>
    41000578:	f39ff06f          	j	410004b0 <trap_handler_m__clear_highest_priority_interrupt>
    4100057c:	f35ff06f          	j	410004b0 <trap_handler_m__clear_highest_priority_interrupt>
    41000580:	f31ff06f          	j	410004b0 <trap_handler_m__clear_highest_priority_interrupt>
    41000584:	f2dff06f          	j	410004b0 <trap_handler_m__clear_highest_priority_interrupt>
    41000588:	f29ff06f          	j	410004b0 <trap_handler_m__clear_highest_priority_interrupt>
    4100058c:	f25ff06f          	j	410004b0 <trap_handler_m__clear_highest_priority_interrupt>
    41000590:	f21ff06f          	j	410004b0 <trap_handler_m__clear_highest_priority_interrupt>
    41000594:	f1dff06f          	j	410004b0 <trap_handler_m__clear_highest_priority_interrupt>
    41000598:	f19ff06f          	j	410004b0 <trap_handler_m__clear_highest_priority_interrupt>
    4100059c:	f15ff06f          	j	410004b0 <trap_handler_m__clear_highest_priority_interrupt>
    410005a0:	f11ff06f          	j	410004b0 <trap_handler_m__clear_highest_priority_interrupt>
    410005a4:	f0dff06f          	j	410004b0 <trap_handler_m__clear_highest_priority_interrupt>
    410005a8:	f09ff06f          	j	410004b0 <trap_handler_m__clear_highest_priority_interrupt>
    410005ac:	f05ff06f          	j	410004b0 <trap_handler_m__clear_highest_priority_interrupt>
    410005b0:	f01ff06f          	j	410004b0 <trap_handler_m__clear_highest_priority_interrupt>
    410005b4:	efdff06f          	j	410004b0 <trap_handler_m__clear_highest_priority_interrupt>
    410005b8:	ef9ff06f          	j	410004b0 <trap_handler_m__clear_highest_priority_interrupt>
    410005bc:	ef5ff06f          	j	410004b0 <trap_handler_m__clear_highest_priority_interrupt>

00000000410005c0 <trap_handler_m__trap_handler>:
    410005c0:	342022f3          	csrr	x5,mcause
    410005c4:	fff0031b          	addiw	x6,x0,-1
    410005c8:	03f31313          	slli	x6,x6,0x3f
    410005cc:	00537333          	and	x6,x6,x5
    410005d0:	02030263          	beqz	x6,410005f4 <trap_handler_m__exception_path>

00000000410005d4 <trap_handler_m__interrupt_handler>:
    410005d4:	fff0031b          	addiw	x6,x0,-1
    410005d8:	03f31313          	slli	x6,x6,0x3f
    410005dc:	0062c2b3          	xor	x5,x5,x6
    410005e0:	00000317          	auipc	x6,0x0
    410005e4:	ee430313          	addi	x6,x6,-284 # 410004c4 <trap_handler_m__trap_entry>
    410005e8:	00229293          	slli	x5,x5,0x2
    410005ec:	005302b3          	add	x5,x6,x5
    410005f0:	00028067          	jr	x5 # 2000 <pma_region_1_size+0x1000>

00000000410005f4 <trap_handler_m__exception_path>:
    410005f4:	34021273          	csrrw	x4,mscratch,x4
    410005f8:	00000297          	auipc	x5,0x0
    410005fc:	10828293          	addi	x5,x5,264 # 41000700 <trap_handler_m__trap_panic>
    41000600:	30529073          	csrw	mtvec,x5
    41000604:	0040006f          	j	41000608 <trap_handler_m__excp_entry>

0000000041000608 <trap_handler_m__excp_entry>:
    41000608:	34202373          	csrr	x6,mcause
    4100060c:	00800293          	li	x5,8
    41000610:	00534863          	blt	x6,x5,41000620 <trap_handler_m__check_exception_label>
    41000614:	00b00293          	li	x5,11
    41000618:	0062c463          	blt	x5,x6,41000620 <trap_handler_m__check_exception_label>
    4100061c:	a9dff06f          	j	410000b8 <syscalls__syscall_check_schedule_next_test>

0000000041000620 <trap_handler_m__check_exception_label>:
    41000620:	04623c23          	sd	x6,88(x4) # 58 <XLEN+0x18>
    41000624:	341022f3          	csrr	x5,mepc
    41000628:	02523423          	sd	x5,40(x4) # 28 <SECURE_ACCESS_PROBABILITY+0xa>
    4100062c:	01820283          	lb	x5,24(x4) # 18 <STORE_GUEST_PAGE_FAULT+0x1>
    41000630:	00029863          	bnez	x5,41000640 <trap_handler_m__check_excp>
    41000634:	00128293          	addi	x5,x5,1
    41000638:	00520c23          	sb	x5,24(x4) # 18 <STORE_GUEST_PAGE_FAULT+0x1>
    4100063c:	0980006f          	j	410006d4 <trap_handler_m__ecall_from_machine>

0000000041000640 <trap_handler_m__check_excp>:
    41000640:	06823283          	ld	x5,104(x4) # 68 <XLEN+0x28>
    41000644:	06023423          	sd	x0,104(x4) # 68 <XLEN+0x28>
    41000648:	00028663          	beqz	x5,41000654 <trap_handler_m__skip_mode_check>
    4100064c:	00100393          	li	x7,1
    41000650:	0e729463          	bne	x5,x7,41000738 <test_failed>

0000000041000654 <trap_handler_m__skip_mode_check>:
    41000654:	05023283          	ld	x5,80(x4) # 50 <XLEN+0x10>
    41000658:	04023823          	sd	x0,80(x4) # 50 <XLEN+0x10>
    4100065c:	0c531e63          	bne	x6,x5,41000738 <test_failed>
    41000660:	03823283          	ld	x5,56(x4) # 38 <SECURE_ACCESS_PROBABILITY+0x1a>
    41000664:	02023c23          	sd	x0,56(x4) # 38 <SECURE_ACCESS_PROBABILITY+0x1a>
    41000668:	06029463          	bnez	x5,410006d0 <trap_handler_m__skip_gva_check>
    4100066c:	02023303          	ld	x6,32(x4) # 20 <SECURE_ACCESS_PROBABILITY+0x2>
    41000670:	02023023          	sd	x0,32(x4) # 20 <SECURE_ACCESS_PROBABILITY+0x2>
    41000674:	02823283          	ld	x5,40(x4) # 28 <SECURE_ACCESS_PROBABILITY+0xa>
    41000678:	02023423          	sd	x0,40(x4) # 28 <SECURE_ACCESS_PROBABILITY+0xa>
    4100067c:	0a531e63          	bne	x6,x5,41000738 <test_failed>
    41000680:	04023283          	ld	x5,64(x4) # 40 <XLEN>
    41000684:	04023023          	sd	x0,64(x4) # 40 <XLEN>
    41000688:	00028663          	beqz	x5,41000694 <trap_handler_m__skip_nonzero_tval_check>

000000004100068c <trap_handler_m__nonzero_tval_check>:
    4100068c:	34302373          	csrr	x6,mtval
    41000690:	0a531463          	bne	x6,x5,41000738 <test_failed>

0000000041000694 <trap_handler_m__skip_nonzero_tval_check>:
    41000694:	04823283          	ld	x5,72(x4) # 48 <XLEN+0x8>
    41000698:	04023423          	sd	x0,72(x4) # 48 <XLEN+0x8>
    4100069c:	00028663          	beqz	x5,410006a8 <trap_handler_m__skip_nonzero_htval_check>

00000000410006a0 <trap_handler_m__nonzero_htval_check>:
    410006a0:	34b02373          	csrr	x6,0x34b
    410006a4:	08531a63          	bne	x6,x5,41000738 <test_failed>

00000000410006a8 <trap_handler_m__skip_nonzero_htval_check>:
    410006a8:	06023283          	ld	x5,96(x4) # 60 <XLEN+0x20>
    410006ac:	06023023          	sd	x0,96(x4) # 60 <XLEN+0x20>
    410006b0:	02028063          	beqz	x5,410006d0 <trap_handler_m__skip_gva_check>

00000000410006b4 <trap_handler_m__gva_check>:
    410006b4:	30002373          	csrr	x6,mstatus
    410006b8:	02635313          	srli	x6,x6,0x26
    410006bc:	00137313          	andi	x6,x6,1
    410006c0:	06030c63          	beqz	x6,41000738 <test_failed>
    410006c4:	0010031b          	addiw	x6,x0,1
    410006c8:	02631313          	slli	x6,x6,0x26
    410006cc:	30033073          	csrc	mstatus,x6

00000000410006d0 <trap_handler_m__skip_gva_check>:
    410006d0:	0040006f          	j	410006d4 <trap_handler_m__ecall_from_machine>

00000000410006d4 <trap_handler_m__ecall_from_machine>:
    410006d4:	03023283          	ld	x5,48(x4) # 30 <SECURE_ACCESS_PROBABILITY+0x12>
    410006d8:	02023823          	sd	x0,48(x4) # 30 <SECURE_ACCESS_PROBABILITY+0x12>
    410006dc:	07023303          	ld	x6,112(x4) # 70 <XLEN+0x30>
    410006e0:	06023823          	sd	x0,112(x4) # 70 <XLEN+0x30>
    410006e4:	00031463          	bnez	x6,410006ec <trap_handler_m__skip_xepc_write>
    410006e8:	34129073          	csrw	mepc,x5

00000000410006ec <trap_handler_m__skip_xepc_write>:
    410006ec:	00000317          	auipc	x6,0x0
    410006f0:	dd830313          	addi	x6,x6,-552 # 410004c4 <trap_handler_m__trap_entry>
    410006f4:	30531073          	csrw	mtvec,x6
    410006f8:	34021273          	csrrw	x4,mscratch,x4
    410006fc:	30200073          	mret

0000000041000700 <trap_handler_m__trap_panic>:
    41000700:	00000193          	li	x3,0
    41000704:	2b40006f          	j	410009b8 <eot__end_test>

0000000041000708 <enter_scheduler>:
    41000708:	0002f337          	lui	x6,0x2f
    4100070c:	ab73031b          	addiw	x6,x6,-1353 # 2eab7 <_all_interrupts+0x2c00d>
    41000710:	00e31313          	slli	x6,x6,0xe
    41000714:	0de30313          	addi	x6,x6,222
    41000718:	02628063          	beq	x5,x6,41000738 <test_failed>
    4100071c:	00000513          	li	x10,0
    41000720:	030000ef          	jal	41000750 <rvcp_print_test_result>
    41000724:	3180006f          	j	41000a3c <scheduler__dispatch>

0000000041000728 <test_passed>:
    41000728:	34021273          	csrrw	x4,mscratch,x4
    4100072c:	00000513          	li	x10,0
    41000730:	020000ef          	jal	41000750 <rvcp_print_test_result>
    41000734:	3080006f          	j	41000a3c <scheduler__dispatch>

0000000041000738 <test_failed>:
    41000738:	34021273          	csrrw	x4,mscratch,x4
    4100073c:	00300193          	li	x3,3
    41000740:	2780006f          	j	410009b8 <eot__end_test>

0000000041000744 <os_end_test>:
    41000744:	34021273          	csrrw	x4,mscratch,x4
    41000748:	00100193          	li	x3,1
    4100074c:	26c0006f          	j	410009b8 <eot__end_test>

0000000041000750 <rvcp_print_test_result>:
    41000750:	00050e13          	mv	x28,x10
    41000754:	18823283          	ld	x5,392(x4) # 188 <XLEN+0x148>
    41000758:	0010031b          	addiw	x6,x0,1
    4100075c:	02031313          	slli	x6,x6,0x20
    41000760:	ffe30313          	addi	x6,x6,-2
    41000764:	1c628063          	beq	x5,x6,41000924 <rvcp_print_test_result+0x1d4>
    41000768:	0010031b          	addiw	x6,x0,1
    4100076c:	02031313          	slli	x6,x6,0x20
    41000770:	fff30313          	addi	x6,x6,-1
    41000774:	1a628863          	beq	x5,x6,41000924 <rvcp_print_test_result+0x1d4>
    41000778:	1a02c663          	bltz	x5,41000924 <rvcp_print_test_result+0x1d4>
    4100077c:	00001317          	auipc	x6,0x1
    41000780:	8b030313          	addi	x6,x6,-1872 # 4100102c <dtest_descriptor_table>
    41000784:	00329393          	slli	x7,x5,0x3
    41000788:	00730333          	add	x6,x6,x7
    4100078c:	00033e83          	ld	x29,0(x6)
    41000790:	43600f37          	lui	x30,0x43600
    41000794:	030f0f1b          	addiw	x30,x30,48 # 43600030 <rvcp_prefix_str>
    41000798:	000f4283          	lbu	x5,0(x30)
    4100079c:	02028663          	beqz	x5,410007c8 <rvcp_print_test_result+0x78>
    410007a0:	1010031b          	addiw	x6,x0,257
    410007a4:	03031313          	slli	x6,x6,0x30
    410007a8:	005362b3          	or	x5,x6,x5
    410007ac:	00040317          	auipc	x6,0x40
    410007b0:	85430313          	addi	x6,x6,-1964 # 41040000 <tohost>
    410007b4:	00033383          	ld	x7,0(x6)
    410007b8:	fe039ee3          	bnez	x7,410007b4 <rvcp_print_test_result+0x64>
    410007bc:	00533023          	sd	x5,0(x6)
    410007c0:	001f0f13          	addi	x30,x30,1
    410007c4:	fd5ff06f          	j	41000798 <rvcp_print_test_result+0x48>
    410007c8:	43600f37          	lui	x30,0x43600
    410007cc:	041f0f1b          	addiw	x30,x30,65 # 43600041 <rvcp_testname_str>
    410007d0:	000f4283          	lbu	x5,0(x30)
    410007d4:	02028663          	beqz	x5,41000800 <rvcp_print_test_result+0xb0>
    410007d8:	1010031b          	addiw	x6,x0,257
    410007dc:	03031313          	slli	x6,x6,0x30
    410007e0:	005362b3          	or	x5,x6,x5
    410007e4:	00040317          	auipc	x6,0x40
    410007e8:	81c30313          	addi	x6,x6,-2020 # 41040000 <tohost>
    410007ec:	00033383          	ld	x7,0(x6)
    410007f0:	fe039ee3          	bnez	x7,410007ec <rvcp_print_test_result+0x9c>
    410007f4:	00533023          	sd	x5,0(x6)
    410007f8:	001f0f13          	addi	x30,x30,1
    410007fc:	fd5ff06f          	j	410007d0 <rvcp_print_test_result+0x80>
    41000800:	43600f37          	lui	x30,0x43600
    41000804:	058f0f1b          	addiw	x30,x30,88 # 43600058 <rvcp_space_str>
    41000808:	000f4283          	lbu	x5,0(x30)
    4100080c:	02028663          	beqz	x5,41000838 <rvcp_print_test_result+0xe8>
    41000810:	1010031b          	addiw	x6,x0,257
    41000814:	03031313          	slli	x6,x6,0x30
    41000818:	005362b3          	or	x5,x6,x5
    4100081c:	0003f317          	auipc	x6,0x3f
    41000820:	7e430313          	addi	x6,x6,2020 # 41040000 <tohost>
    41000824:	00033383          	ld	x7,0(x6)
    41000828:	fe039ee3          	bnez	x7,41000824 <rvcp_print_test_result+0xd4>
    4100082c:	00533023          	sd	x5,0(x6)
    41000830:	001f0f13          	addi	x30,x30,1
    41000834:	fd5ff06f          	j	41000808 <rvcp_print_test_result+0xb8>
    41000838:	000e8f13          	mv	x30,x29
    4100083c:	000f4283          	lbu	x5,0(x30)
    41000840:	02028663          	beqz	x5,4100086c <rvcp_print_test_result+0x11c>
    41000844:	1010031b          	addiw	x6,x0,257
    41000848:	03031313          	slli	x6,x6,0x30
    4100084c:	005362b3          	or	x5,x6,x5
    41000850:	0003f317          	auipc	x6,0x3f
    41000854:	7b030313          	addi	x6,x6,1968 # 41040000 <tohost>
    41000858:	00033383          	ld	x7,0(x6)
    4100085c:	fe039ee3          	bnez	x7,41000858 <rvcp_print_test_result+0x108>
    41000860:	00533023          	sd	x5,0(x6)
    41000864:	001f0f13          	addi	x30,x30,1
    41000868:	fd5ff06f          	j	4100083c <rvcp_print_test_result+0xec>
    4100086c:	43600f37          	lui	x30,0x43600
    41000870:	058f0f1b          	addiw	x30,x30,88 # 43600058 <rvcp_space_str>
    41000874:	000f4283          	lbu	x5,0(x30)
    41000878:	02028663          	beqz	x5,410008a4 <rvcp_print_test_result+0x154>
    4100087c:	1010031b          	addiw	x6,x0,257
    41000880:	03031313          	slli	x6,x6,0x30
    41000884:	005362b3          	or	x5,x6,x5
    41000888:	0003f317          	auipc	x6,0x3f
    4100088c:	77830313          	addi	x6,x6,1912 # 41040000 <tohost>
    41000890:	00033383          	ld	x7,0(x6)
    41000894:	fe039ee3          	bnez	x7,41000890 <rvcp_print_test_result+0x140>
    41000898:	00533023          	sd	x5,0(x6)
    4100089c:	001f0f13          	addi	x30,x30,1
    410008a0:	fd5ff06f          	j	41000874 <rvcp_print_test_result+0x124>
    410008a4:	000e1863          	bnez	x28,410008b4 <rvcp_print_test_result+0x164>
    410008a8:	43600f37          	lui	x30,0x43600
    410008ac:	04af0f1b          	addiw	x30,x30,74 # 4360004a <rvcp_passed_str>
    410008b0:	00c0006f          	j	410008bc <rvcp_print_test_result+0x16c>
    410008b4:	43600f37          	lui	x30,0x43600
    410008b8:	051f0f1b          	addiw	x30,x30,81 # 43600051 <rvcp_failed_str>
    410008bc:	000f4283          	lbu	x5,0(x30)
    410008c0:	02028663          	beqz	x5,410008ec <rvcp_print_test_result+0x19c>
    410008c4:	1010031b          	addiw	x6,x0,257
    410008c8:	03031313          	slli	x6,x6,0x30
    410008cc:	005362b3          	or	x5,x6,x5
    410008d0:	0003f317          	auipc	x6,0x3f
    410008d4:	73030313          	addi	x6,x6,1840 # 41040000 <tohost>
    410008d8:	00033383          	ld	x7,0(x6)
    410008dc:	fe039ee3          	bnez	x7,410008d8 <rvcp_print_test_result+0x188>
    410008e0:	00533023          	sd	x5,0(x6)
    410008e4:	001f0f13          	addi	x30,x30,1
    410008e8:	fd5ff06f          	j	410008bc <rvcp_print_test_result+0x16c>
    410008ec:	43600f37          	lui	x30,0x43600
    410008f0:	05af0f1b          	addiw	x30,x30,90 # 4360005a <rvcp_newline_str>
    410008f4:	000f4283          	lbu	x5,0(x30)
    410008f8:	02028663          	beqz	x5,41000924 <rvcp_print_test_result+0x1d4>
    410008fc:	1010031b          	addiw	x6,x0,257
    41000900:	03031313          	slli	x6,x6,0x30
    41000904:	005362b3          	or	x5,x6,x5
    41000908:	0003f317          	auipc	x6,0x3f
    4100090c:	6f830313          	addi	x6,x6,1784 # 41040000 <tohost>
    41000910:	00033383          	ld	x7,0(x6)
    41000914:	fe039ee3          	bnez	x7,41000910 <rvcp_print_test_result+0x1c0>
    41000918:	00533023          	sd	x5,0(x6)
    4100091c:	001f0f13          	addi	x30,x30,1
    41000920:	fd5ff06f          	j	410008f4 <rvcp_print_test_result+0x1a4>
    41000924:	00008067          	ret

0000000041000928 <os_rng_orig>:
    41000928:	f14023f3          	csrr	x7,mhartid
    4100092c:	00068313          	mv	x6,x13
    41000930:	026383b3          	mul	x7,x7,x6
    41000934:	00058313          	mv	x6,x11
    41000938:	00730333          	add	x6,x6,x7
    4100093c:	00033283          	ld	x5,0(x6)
    41000940:	01529313          	slli	x6,x5,0x15
    41000944:	0062c2b3          	xor	x5,x5,x6
    41000948:	0232d313          	srli	x6,x5,0x23
    4100094c:	0062c2b3          	xor	x5,x5,x6
    41000950:	00429313          	slli	x6,x5,0x4
    41000954:	0062c2b3          	xor	x5,x5,x6
    41000958:	00058313          	mv	x6,x11
    4100095c:	00730333          	add	x6,x6,x7
    41000960:	00533023          	sd	x5,0(x6)
    41000964:	00060313          	mv	x6,x12
    41000968:	0262f2b3          	remu	x5,x5,x6
    4100096c:	00028513          	mv	x10,x5
    41000970:	00008067          	ret
    41000974:	02a00513          	li	x10,42
    41000978:	001965b7          	lui	x11,0x196
    4100097c:	60d5859b          	addiw	x11,x11,1549 # 19660d <pma_region_0_size+0x15660d>
    41000980:	3c6ef637          	lui	x12,0x3c6ef
    41000984:	35f6061b          	addiw	x12,x12,863 # 3c6ef35f <pma_region_2_size+0x386ef35f>
    41000988:	02200693          	li	x13,34
    4100098c:	02b50533          	mul	x10,x10,x11
    41000990:	00c50533          	add	x10,x10,x12
    41000994:	02d56533          	rem	x10,x10,x13
    41000998:	00b00593          	li	x11,11
    4100099c:	02b56533          	rem	x10,x10,x11
    410009a0:	00008067          	ret
    410009a4:	0000                	.insn	2, 0x0000
	...

00000000410009a8 <tohost_mutex>:
	...

00000000410009b0 <tohost_addr_mem>:
    410009b0:	0000                	.insn	2, 0x0000
    410009b2:	4104                	.insn	2, 0x4104
    410009b4:	0000                	.insn	2, 0x0000
	...

00000000410009b8 <eot__end_test>:
    410009b8:	00100293          	li	x5,1
    410009bc:	00328463          	beq	x5,x3,410009c4 <eot__passed>
    410009c0:	01c0006f          	j	410009dc <eot__failed>

00000000410009c4 <eot__passed>:
    410009c4:	0ff0000f          	fence
    410009c8:	00000297          	auipc	x5,0x0
    410009cc:	fe82b283          	ld	x5,-24(x5) # 410009b0 <tohost_addr_mem>
    410009d0:	00100313          	li	x6,1
    410009d4:	0062a023          	sw	x6,0(x5)
    410009d8:	0240006f          	j	410009fc <eot__halt>

00000000410009dc <eot__failed>:
    410009dc:	00100513          	li	x10,1
    410009e0:	d71ff0ef          	jal	41000750 <rvcp_print_test_result>
    410009e4:	0ff0000f          	fence
    410009e8:	00000297          	auipc	x5,0x0
    410009ec:	fc82b283          	ld	x5,-56(x5) # 410009b0 <tohost_addr_mem>
    410009f0:	00300313          	li	x6,3
    410009f4:	0062a023          	sw	x6,0(x5)
    410009f8:	0040006f          	j	410009fc <eot__halt>

00000000410009fc <eot__halt>:
    410009fc:	10500073          	wfi
    41000a00:	ffdff06f          	j	410009fc <eot__halt>

0000000041000a04 <scheduler__init>:
    41000a04:	00000297          	auipc	x5,0x0
    41000a08:	0d028293          	addi	x5,x5,208 # 41000ad4 <scheduler__panic>
    41000a0c:	305292f3          	csrrw	x5,mtvec,x5
    41000a10:	18523023          	sd	x5,384(x4) # 180 <XLEN+0x140>
    41000a14:	0a900293          	li	x5,169
    41000a18:	18523823          	sd	x5,400(x4) # 190 <XLEN+0x150>
    41000a1c:	0010029b          	addiw	x5,x0,1
    41000a20:	02029293          	slli	x5,x5,0x20
    41000a24:	ffe28293          	addi	x5,x5,-2
    41000a28:	18523423          	sd	x5,392(x4) # 188 <XLEN+0x148>
    41000a2c:	00001317          	auipc	x6,0x1
    41000a30:	de830313          	addi	x6,x6,-536 # 41001814 <scheduler__test_setup_ptr>
    41000a34:	00033303          	ld	x6,0(x6)
    41000a38:	0700006f          	j	41000aa8 <scheduler__execute_test>

0000000041000a3c <scheduler__dispatch>:
    41000a3c:	300472f3          	csrrci	x5,mstatus,8
    41000a40:	0082f293          	andi	x5,x5,8
    41000a44:	00429293          	slli	x5,x5,0x4
    41000a48:	3002a073          	csrs	mstatus,x5
    41000a4c:	00000297          	auipc	x5,0x0
    41000a50:	08828293          	addi	x5,x5,136 # 41000ad4 <scheduler__panic>
    41000a54:	305292f3          	csrrw	x5,mtvec,x5
    41000a58:	18523023          	sd	x5,384(x4) # 180 <XLEN+0x140>

0000000041000a5c <scheduler__csr_read_randomization>:
    41000a5c:	f12022f3          	csrr	x5,marchid
    41000a60:	105022f3          	csrr	x5,stvec
    41000a64:	f15022f3          	csrr	x5,0xf15
    41000a68:	b02022f3          	csrr	x5,minstret

0000000041000a6c <scheduler__load_num_runs>:
    41000a6c:	19023303          	ld	x6,400(x4) # 190 <XLEN+0x150>
    41000a70:	04030e63          	beqz	x6,41000acc <scheduler__finished>

0000000041000a74 <scheduler__decrement_num_runs>:
    41000a74:	fff30393          	addi	x7,x6,-1
    41000a78:	18723823          	sd	x7,400(x4) # 190 <XLEN+0x150>
    41000a7c:	00001e17          	auipc	x28,0x1
    41000a80:	af0e0e13          	addi	x28,x28,-1296 # 4100156c <dtest_index_map>
    41000a84:	00239e93          	slli	x29,x7,0x2
    41000a88:	01de0e33          	add	x28,x28,x29
    41000a8c:	000e2e03          	lw	x28,0(x28)
    41000a90:	19c23423          	sd	x28,392(x4) # 188 <XLEN+0x148>

0000000041000a94 <scheduler__calc_test_pointer>:
    41000a94:	00339293          	slli	x5,x7,0x3

0000000041000a98 <scheduler__load_test_addr>:
    41000a98:	00000317          	auipc	x6,0x0
    41000a9c:	04c30313          	addi	x6,x6,76 # 41000ae4 <os_test_sequence>
    41000aa0:	006282b3          	add	x5,x5,x6
    41000aa4:	0002b303          	ld	x6,0(x5)

0000000041000aa8 <scheduler__execute_test>:
    41000aa8:	18023283          	ld	x5,384(x4) # 180 <XLEN+0x140>
    41000aac:	30529073          	csrw	mtvec,x5
    41000ab0:	34021273          	csrrw	x4,mscratch,x4
    41000ab4:	00000213          	li	x4,0
    41000ab8:	300022f3          	csrr	x5,mstatus
    41000abc:	0802f293          	andi	x5,x5,128
    41000ac0:	0042d293          	srli	x5,x5,0x4
    41000ac4:	3002a073          	csrs	mstatus,x5
    41000ac8:	00030067          	jr	x6

0000000041000acc <scheduler__finished>:
    41000acc:	00100193          	li	x3,1
    41000ad0:	ee9ff06f          	j	410009b8 <eot__end_test>

0000000041000ad4 <scheduler__panic>:
    41000ad4:	00000193          	li	x3,0
    41000ad8:	ee1ff06f          	j	410009b8 <eot__end_test>

0000000041000adc <num_runs>:
    41000adc:	00a9                	.insn	2, 0x00a9
    41000ade:	0000                	.insn	2, 0x0000
    41000ae0:	0000                	.insn	2, 0x0000
	...

0000000041000ae4 <os_test_sequence>:
    41000ae4:	1018                	.insn	2, 0x1018
    41000ae6:	00004103          	lbu	x2,0(x0) # 0 <ALL_4KB_PAGES>
    41000aea:	0000                	.insn	2, 0x0000
    41000aec:	d298                	.insn	2, 0xd298
    41000aee:	4102                	.insn	2, 0x4102
    41000af0:	0000                	.insn	2, 0x0000
    41000af2:	0000                	.insn	2, 0x0000
    41000af4:	e8bc                	.insn	2, 0xe8bc
    41000af6:	4101                	.insn	2, 0x4101
    41000af8:	0000                	.insn	2, 0x0000
    41000afa:	0000                	.insn	2, 0x0000
    41000afc:	97bc                	.insn	2, 0x97bc
    41000afe:	4101                	.insn	2, 0x4101
    41000b00:	0000                	.insn	2, 0x0000
    41000b02:	0000                	.insn	2, 0x0000
    41000b04:	abfc                	.insn	2, 0xabfc
    41000b06:	4101                	.insn	2, 0x4101
    41000b08:	0000                	.insn	2, 0x0000
    41000b0a:	0000                	.insn	2, 0x0000
    41000b0c:	b438                	.insn	2, 0xb438
    41000b0e:	4102                	.insn	2, 0x4102
    41000b10:	0000                	.insn	2, 0x0000
    41000b12:	0000                	.insn	2, 0x0000
    41000b14:	4e38                	.insn	2, 0x4e38
    41000b16:	4102                	.insn	2, 0x4102
    41000b18:	0000                	.insn	2, 0x0000
    41000b1a:	0000                	.insn	2, 0x0000
    41000b1c:	6cc0                	.insn	2, 0x6cc0
    41000b1e:	4101                	.insn	2, 0x4101
    41000b20:	0000                	.insn	2, 0x0000
    41000b22:	0000                	.insn	2, 0x0000
    41000b24:	61e0                	.insn	2, 0x61e0
    41000b26:	4101                	.insn	2, 0x4101
    41000b28:	0000                	.insn	2, 0x0000
    41000b2a:	0000                	.insn	2, 0x0000
    41000b2c:	7230                	.insn	2, 0x7230
    41000b2e:	4101                	.insn	2, 0x4101
    41000b30:	0000                	.insn	2, 0x0000
    41000b32:	0000                	.insn	2, 0x0000
    41000b34:	113c                	.insn	2, 0x113c
    41000b36:	4102                	.insn	2, 0x4102
    41000b38:	0000                	.insn	2, 0x0000
    41000b3a:	0000                	.insn	2, 0x0000
    41000b3c:	e6d8                	.insn	2, 0xe6d8
    41000b3e:	4102                	.insn	2, 0x4102
    41000b40:	0000                	.insn	2, 0x0000
    41000b42:	0000                	.insn	2, 0x0000
    41000b44:	de9c                	.insn	2, 0xde9c
    41000b46:	4101                	.insn	2, 0x4101
    41000b48:	0000                	.insn	2, 0x0000
    41000b4a:	0000                	.insn	2, 0x0000
    41000b4c:	f0f8                	.insn	2, 0xf0f8
    41000b4e:	4102                	.insn	2, 0x4102
    41000b50:	0000                	.insn	2, 0x0000
    41000b52:	0000                	.insn	2, 0x0000
    41000b54:	5190                	.insn	2, 0x5190
    41000b56:	4101                	.insn	2, 0x4101
    41000b58:	0000                	.insn	2, 0x0000
    41000b5a:	0000                	.insn	2, 0x0000
    41000b5c:	d298                	.insn	2, 0xd298
    41000b5e:	4102                	.insn	2, 0x4102
    41000b60:	0000                	.insn	2, 0x0000
    41000b62:	0000                	.insn	2, 0x0000
    41000b64:	071c                	.insn	2, 0x071c
    41000b66:	4102                	.insn	2, 0x4102
    41000b68:	0000                	.insn	2, 0x0000
    41000b6a:	0000                	.insn	2, 0x0000
    41000b6c:	8d9c                	.insn	2, 0x8d9c
    41000b6e:	4101                	.insn	2, 0x4101
    41000b70:	0000                	.insn	2, 0x0000
    41000b72:	0000                	.insn	2, 0x0000
    41000b74:	6278                	.insn	2, 0x6278
    41000b76:	4102                	.insn	2, 0x4102
    41000b78:	0000                	.insn	2, 0x0000
    41000b7a:	0000                	.insn	2, 0x0000
    41000b7c:	77a0                	.insn	2, 0x77a0
    41000b7e:	4101                	.insn	2, 0x4101
    41000b80:	0000                	.insn	2, 0x0000
    41000b82:	0000                	.insn	2, 0x0000
    41000b84:	257c                	.insn	2, 0x257c
    41000b86:	4102                	.insn	2, 0x4102
    41000b88:	0000                	.insn	2, 0x0000
    41000b8a:	0000                	.insn	2, 0x0000
    41000b8c:	8af8                	.insn	2, 0x8af8
    41000b8e:	4102                	.insn	2, 0x4102
    41000b90:	0000                	.insn	2, 0x0000
    41000b92:	0000                	.insn	2, 0x0000
    41000b94:	61e0                	.insn	2, 0x61e0
    41000b96:	4101                	.insn	2, 0x4101
    41000b98:	0000                	.insn	2, 0x0000
    41000b9a:	0000                	.insn	2, 0x0000
    41000b9c:	5700                	.insn	2, 0x5700
    41000b9e:	4101                	.insn	2, 0x4101
    41000ba0:	0000                	.insn	2, 0x0000
    41000ba2:	0000                	.insn	2, 0x0000
    41000ba4:	4140                	.insn	2, 0x4140
    41000ba6:	4101                	.insn	2, 0x4101
    41000ba8:	0000                	.insn	2, 0x0000
    41000baa:	0000                	.insn	2, 0x0000
    41000bac:	6750                	.insn	2, 0x6750
    41000bae:	4101                	.insn	2, 0x4101
    41000bb0:	0000                	.insn	2, 0x0000
    41000bb2:	0000                	.insn	2, 0x0000
    41000bb4:	4418                	.insn	2, 0x4418
    41000bb6:	4102                	.insn	2, 0x4102
    41000bb8:	0000                	.insn	2, 0x0000
    41000bba:	0000                	.insn	2, 0x0000
    41000bbc:	1b5c                	.insn	2, 0x1b5c
    41000bbe:	4102                	.insn	2, 0x4102
    41000bc0:	0000                	.insn	2, 0x0000
    41000bc2:	0000                	.insn	2, 0x0000
    41000bc4:	77a0                	.insn	2, 0x77a0
    41000bc6:	4101                	.insn	2, 0x4101
    41000bc8:	0000                	.insn	2, 0x0000
    41000bca:	0000                	.insn	2, 0x0000
    41000bcc:	fcfc                	.insn	2, 0xfcfc
    41000bce:	4101                	.insn	2, 0x4101
    41000bd0:	0000                	.insn	2, 0x0000
    41000bd2:	0000                	.insn	2, 0x0000
    41000bd4:	c878                	.insn	2, 0xc878
    41000bd6:	4102                	.insn	2, 0x4102
    41000bd8:	0000                	.insn	2, 0x0000
    41000bda:	0000                	.insn	2, 0x0000
    41000bdc:	1b5c                	.insn	2, 0x1b5c
    41000bde:	4102                	.insn	2, 0x4102
    41000be0:	0000                	.insn	2, 0x0000
    41000be2:	0000                	.insn	2, 0x0000
    41000be4:	5c70                	.insn	2, 0x5c70
    41000be6:	4101                	.insn	2, 0x4101
    41000be8:	0000                	.insn	2, 0x0000
    41000bea:	0000                	.insn	2, 0x0000
    41000bec:	b438                	.insn	2, 0xb438
    41000bee:	4102                	.insn	2, 0x4102
    41000bf0:	0000                	.insn	2, 0x0000
    41000bf2:	0000                	.insn	2, 0x0000
    41000bf4:	4418                	.insn	2, 0x4418
    41000bf6:	4102                	.insn	2, 0x4102
    41000bf8:	0000                	.insn	2, 0x0000
    41000bfa:	0000                	.insn	2, 0x0000
    41000bfc:	de9c                	.insn	2, 0xde9c
    41000bfe:	4101                	.insn	2, 0x4101
    41000c00:	0000                	.insn	2, 0x0000
    41000c02:	0000                	.insn	2, 0x0000
    41000c04:	e8bc                	.insn	2, 0xe8bc
    41000c06:	4101                	.insn	2, 0x4101
    41000c08:	0000                	.insn	2, 0x0000
    41000c0a:	0000                	.insn	2, 0x0000
    41000c0c:	46b0                	.insn	2, 0x46b0
    41000c0e:	4101                	.insn	2, 0x4101
    41000c10:	0000                	.insn	2, 0x0000
    41000c12:	0000                	.insn	2, 0x0000
    41000c14:	76b8                	.insn	2, 0x76b8
    41000c16:	4102                	.insn	2, 0x4102
    41000c18:	0000                	.insn	2, 0x0000
    41000c1a:	0000                	.insn	2, 0x0000
    41000c1c:	46b0                	.insn	2, 0x46b0
    41000c1e:	4101                	.insn	2, 0x4101
    41000c20:	0000                	.insn	2, 0x0000
    41000c22:	0000                	.insn	2, 0x0000
    41000c24:	f2dc                	.insn	2, 0xf2dc
    41000c26:	4101                	.insn	2, 0x4101
    41000c28:	0000                	.insn	2, 0x0000
    41000c2a:	0000                	.insn	2, 0x0000
    41000c2c:	97bc                	.insn	2, 0x97bc
    41000c2e:	4101                	.insn	2, 0x4101
    41000c30:	0000                	.insn	2, 0x0000
    41000c32:	0000                	.insn	2, 0x0000
    41000c34:	5190                	.insn	2, 0x5190
    41000c36:	4101                	.insn	2, 0x4101
    41000c38:	0000                	.insn	2, 0x0000
    41000c3a:	0000                	.insn	2, 0x0000
    41000c3c:	abfc                	.insn	2, 0xabfc
    41000c3e:	4101                	.insn	2, 0x4101
    41000c40:	0000                	.insn	2, 0x0000
    41000c42:	0000                	.insn	2, 0x0000
    41000c44:	05f8                	.insn	2, 0x05f8
    41000c46:	00004103          	lbu	x2,0(x0) # 0 <ALL_4KB_PAGES>
    41000c4a:	0000                	.insn	2, 0x0000
    41000c4c:	f668                	.insn	2, 0xf668
    41000c4e:	4102                	.insn	2, 0x4102
    41000c50:	0000                	.insn	2, 0x0000
    41000c52:	0000                	.insn	2, 0x0000
    41000c54:	4140                	.insn	2, 0x4140
    41000c56:	4101                	.insn	2, 0x4101
    41000c58:	0000                	.insn	2, 0x0000
    41000c5a:	0000                	.insn	2, 0x0000
    41000c5c:	2fd8                	.insn	2, 0x2fd8
    41000c5e:	4102                	.insn	2, 0x4102
    41000c60:	0000                	.insn	2, 0x0000
    41000c62:	0000                	.insn	2, 0x0000
    41000c64:	7230                	.insn	2, 0x7230
    41000c66:	4101                	.insn	2, 0x4101
    41000c68:	0000                	.insn	2, 0x0000
    41000c6a:	0000                	.insn	2, 0x0000
    41000c6c:	aec8                	.insn	2, 0xaec8
    41000c6e:	4102                	.insn	2, 0x4102
    41000c70:	0000                	.insn	2, 0x0000
    41000c72:	0000                	.insn	2, 0x0000
    41000c74:	f2dc                	.insn	2, 0xf2dc
    41000c76:	4101                	.insn	2, 0x4101
    41000c78:	0000                	.insn	2, 0x0000
    41000c7a:	0000                	.insn	2, 0x0000
    41000c7c:	5c70                	.insn	2, 0x5c70
    41000c7e:	4101                	.insn	2, 0x4101
    41000c80:	0000                	.insn	2, 0x0000
    41000c82:	0000                	.insn	2, 0x0000
    41000c84:	dcb8                	.insn	2, 0xdcb8
    41000c86:	4102                	.insn	2, 0x4102
    41000c88:	0000                	.insn	2, 0x0000
    41000c8a:	0000                	.insn	2, 0x0000
    41000c8c:	4c20                	.insn	2, 0x4c20
    41000c8e:	4101                	.insn	2, 0x4101
    41000c90:	0000                	.insn	2, 0x0000
    41000c92:	0000                	.insn	2, 0x0000
    41000c94:	7d10                	.insn	2, 0x7d10
    41000c96:	4101                	.insn	2, 0x4101
    41000c98:	0000                	.insn	2, 0x0000
    41000c9a:	0000                	.insn	2, 0x0000
    41000c9c:	97bc                	.insn	2, 0x97bc
    41000c9e:	4101                	.insn	2, 0x4101
    41000ca0:	0000                	.insn	2, 0x0000
    41000ca2:	0000                	.insn	2, 0x0000
    41000ca4:	dcb8                	.insn	2, 0xdcb8
    41000ca6:	4102                	.insn	2, 0x4102
    41000ca8:	0000                	.insn	2, 0x0000
    41000caa:	0000                	.insn	2, 0x0000
    41000cac:	4e38                	.insn	2, 0x4e38
    41000cae:	4102                	.insn	2, 0x4102
    41000cb0:	0000                	.insn	2, 0x0000
    41000cb2:	0000                	.insn	2, 0x0000
    41000cb4:	05f8                	.insn	2, 0x05f8
    41000cb6:	00004103          	lbu	x2,0(x0) # 0 <ALL_4KB_PAGES>
    41000cba:	0000                	.insn	2, 0x0000
    41000cbc:	8280                	.insn	2, 0x8280
    41000cbe:	4101                	.insn	2, 0x4101
    41000cc0:	0000                	.insn	2, 0x0000
    41000cc2:	0000                	.insn	2, 0x0000
    41000cc4:	5c70                	.insn	2, 0x5c70
    41000cc6:	4101                	.insn	2, 0x4101
    41000cc8:	0000                	.insn	2, 0x0000
    41000cca:	0000                	.insn	2, 0x0000
    41000ccc:	46b0                	.insn	2, 0x46b0
    41000cce:	4101                	.insn	2, 0x4101
    41000cd0:	0000                	.insn	2, 0x0000
    41000cd2:	0000                	.insn	2, 0x0000
    41000cd4:	113c                	.insn	2, 0x113c
    41000cd6:	4102                	.insn	2, 0x4102
    41000cd8:	0000                	.insn	2, 0x0000
    41000cda:	0000                	.insn	2, 0x0000
    41000cdc:	8280                	.insn	2, 0x8280
    41000cde:	4101                	.insn	2, 0x4101
    41000ce0:	0000                	.insn	2, 0x0000
    41000ce2:	0000                	.insn	2, 0x0000
    41000ce4:	c878                	.insn	2, 0xc878
    41000ce6:	4102                	.insn	2, 0x4102
    41000ce8:	0000                	.insn	2, 0x0000
    41000cea:	0000                	.insn	2, 0x0000
    41000cec:	5700                	.insn	2, 0x5700
    41000cee:	4101                	.insn	2, 0x4101
    41000cf0:	0000                	.insn	2, 0x0000
    41000cf2:	0000                	.insn	2, 0x0000
    41000cf4:	6cc0                	.insn	2, 0x6cc0
    41000cf6:	4101                	.insn	2, 0x4101
    41000cf8:	0000                	.insn	2, 0x0000
    41000cfa:	0000                	.insn	2, 0x0000
    41000cfc:	4140                	.insn	2, 0x4140
    41000cfe:	4101                	.insn	2, 0x4101
    41000d00:	0000                	.insn	2, 0x0000
    41000d02:	0000                	.insn	2, 0x0000
    41000d04:	fbd8                	.insn	2, 0xfbd8
    41000d06:	4102                	.insn	2, 0x4102
    41000d08:	0000                	.insn	2, 0x0000
    41000d0a:	0000                	.insn	2, 0x0000
    41000d0c:	c878                	.insn	2, 0xc878
    41000d0e:	4102                	.insn	2, 0x4102
    41000d10:	0000                	.insn	2, 0x0000
    41000d12:	0000                	.insn	2, 0x0000
    41000d14:	6c98                	.insn	2, 0x6c98
    41000d16:	4102                	.insn	2, 0x4102
    41000d18:	0000                	.insn	2, 0x0000
    41000d1a:	0000                	.insn	2, 0x0000
    41000d1c:	39f8                	.insn	2, 0x39f8
    41000d1e:	4102                	.insn	2, 0x4102
    41000d20:	0000                	.insn	2, 0x0000
    41000d22:	0000                	.insn	2, 0x0000
    41000d24:	1b5c                	.insn	2, 0x1b5c
    41000d26:	4102                	.insn	2, 0x4102
    41000d28:	0000                	.insn	2, 0x0000
    41000d2a:	0000                	.insn	2, 0x0000
    41000d2c:	6cc0                	.insn	2, 0x6cc0
    41000d2e:	4101                	.insn	2, 0x4101
    41000d30:	0000                	.insn	2, 0x0000
    41000d32:	0000                	.insn	2, 0x0000
    41000d34:	be58                	.insn	2, 0xbe58
    41000d36:	4102                	.insn	2, 0x4102
    41000d38:	0000                	.insn	2, 0x0000
    41000d3a:	0000                	.insn	2, 0x0000
    41000d3c:	a1dc                	.insn	2, 0xa1dc
    41000d3e:	4101                	.insn	2, 0x4101
    41000d40:	0000                	.insn	2, 0x0000
    41000d42:	0000                	.insn	2, 0x0000
    41000d44:	76b8                	.insn	2, 0x76b8
    41000d46:	4102                	.insn	2, 0x4102
    41000d48:	0000                	.insn	2, 0x0000
    41000d4a:	0000                	.insn	2, 0x0000
    41000d4c:	fcfc                	.insn	2, 0xfcfc
    41000d4e:	4101                	.insn	2, 0x4101
    41000d50:	0000                	.insn	2, 0x0000
    41000d52:	0000                	.insn	2, 0x0000
    41000d54:	d47c                	.insn	2, 0xd47c
    41000d56:	4101                	.insn	2, 0x4101
    41000d58:	0000                	.insn	2, 0x0000
    41000d5a:	0000                	.insn	2, 0x0000
    41000d5c:	9518                	.insn	2, 0x9518
    41000d5e:	4102                	.insn	2, 0x4102
    41000d60:	0000                	.insn	2, 0x0000
    41000d62:	0000                	.insn	2, 0x0000
    41000d64:	e6d8                	.insn	2, 0xe6d8
    41000d66:	4102                	.insn	2, 0x4102
    41000d68:	0000                	.insn	2, 0x0000
    41000d6a:	0000                	.insn	2, 0x0000
    41000d6c:	8280                	.insn	2, 0x8280
    41000d6e:	4101                	.insn	2, 0x4101
    41000d70:	0000                	.insn	2, 0x0000
    41000d72:	0000                	.insn	2, 0x0000
    41000d74:	87f0                	.insn	2, 0x87f0
    41000d76:	4101                	.insn	2, 0x4101
    41000d78:	0000                	.insn	2, 0x0000
    41000d7a:	0000                	.insn	2, 0x0000
    41000d7c:	c03c                	.insn	2, 0xc03c
    41000d7e:	4101                	.insn	2, 0x4101
    41000d80:	0000                	.insn	2, 0x0000
    41000d82:	0000                	.insn	2, 0x0000
    41000d84:	dcb8                	.insn	2, 0xdcb8
    41000d86:	4102                	.insn	2, 0x4102
    41000d88:	0000                	.insn	2, 0x0000
    41000d8a:	0000                	.insn	2, 0x0000
    41000d8c:	fbd8                	.insn	2, 0xfbd8
    41000d8e:	4102                	.insn	2, 0x4102
    41000d90:	0000                	.insn	2, 0x0000
    41000d92:	0000                	.insn	2, 0x0000
    41000d94:	05f8                	.insn	2, 0x05f8
    41000d96:	00004103          	lbu	x2,0(x0) # 0 <ALL_4KB_PAGES>
    41000d9a:	0000                	.insn	2, 0x0000
    41000d9c:	87f0                	.insn	2, 0x87f0
    41000d9e:	4101                	.insn	2, 0x4101
    41000da0:	0000                	.insn	2, 0x0000
    41000da2:	0000                	.insn	2, 0x0000
    41000da4:	7230                	.insn	2, 0x7230
    41000da6:	4101                	.insn	2, 0x4101
    41000da8:	0000                	.insn	2, 0x0000
    41000daa:	0000                	.insn	2, 0x0000
    41000dac:	80d8                	.insn	2, 0x80d8
    41000dae:	4102                	.insn	2, 0x4102
    41000db0:	0000                	.insn	2, 0x0000
    41000db2:	0000                	.insn	2, 0x0000
    41000db4:	4418                	.insn	2, 0x4418
    41000db6:	4102                	.insn	2, 0x4102
    41000db8:	0000                	.insn	2, 0x0000
    41000dba:	0000                	.insn	2, 0x0000
    41000dbc:	6278                	.insn	2, 0x6278
    41000dbe:	4102                	.insn	2, 0x4102
    41000dc0:	0000                	.insn	2, 0x0000
    41000dc2:	0000                	.insn	2, 0x0000
    41000dc4:	de9c                	.insn	2, 0xde9c
    41000dc6:	4101                	.insn	2, 0x4101
    41000dc8:	0000                	.insn	2, 0x0000
    41000dca:	0000                	.insn	2, 0x0000
    41000dcc:	9a88                	.insn	2, 0x9a88
    41000dce:	4102                	.insn	2, 0x4102
    41000dd0:	0000                	.insn	2, 0x0000
    41000dd2:	0000                	.insn	2, 0x0000
    41000dd4:	e8bc                	.insn	2, 0xe8bc
    41000dd6:	4101                	.insn	2, 0x4101
    41000dd8:	0000                	.insn	2, 0x0000
    41000dda:	0000                	.insn	2, 0x0000
    41000ddc:	9a88                	.insn	2, 0x9a88
    41000dde:	4102                	.insn	2, 0x4102
    41000de0:	0000                	.insn	2, 0x0000
    41000de2:	0000                	.insn	2, 0x0000
    41000de4:	4e38                	.insn	2, 0x4e38
    41000de6:	4102                	.insn	2, 0x4102
    41000de8:	0000                	.insn	2, 0x0000
    41000dea:	0000                	.insn	2, 0x0000
    41000dec:	b61c                	.insn	2, 0xb61c
    41000dee:	4101                	.insn	2, 0x4101
    41000df0:	0000                	.insn	2, 0x0000
    41000df2:	0000                	.insn	2, 0x0000
    41000df4:	113c                	.insn	2, 0x113c
    41000df6:	4102                	.insn	2, 0x4102
    41000df8:	0000                	.insn	2, 0x0000
    41000dfa:	0000                	.insn	2, 0x0000
    41000dfc:	80d8                	.insn	2, 0x80d8
    41000dfe:	4102                	.insn	2, 0x4102
    41000e00:	0000                	.insn	2, 0x0000
    41000e02:	0000                	.insn	2, 0x0000
    41000e04:	ca5c                	.insn	2, 0xca5c
    41000e06:	4101                	.insn	2, 0x4101
    41000e08:	0000                	.insn	2, 0x0000
    41000e0a:	0000                	.insn	2, 0x0000
    41000e0c:	f668                	.insn	2, 0xf668
    41000e0e:	4102                	.insn	2, 0x4102
    41000e10:	0000                	.insn	2, 0x0000
    41000e12:	0000                	.insn	2, 0x0000
    41000e14:	ca5c                	.insn	2, 0xca5c
    41000e16:	4101                	.insn	2, 0x4101
    41000e18:	0000                	.insn	2, 0x0000
    41000e1a:	0000                	.insn	2, 0x0000
    41000e1c:	7d10                	.insn	2, 0x7d10
    41000e1e:	4101                	.insn	2, 0x4101
    41000e20:	0000                	.insn	2, 0x0000
    41000e22:	0000                	.insn	2, 0x0000
    41000e24:	c03c                	.insn	2, 0xc03c
    41000e26:	4101                	.insn	2, 0x4101
    41000e28:	0000                	.insn	2, 0x0000
    41000e2a:	0000                	.insn	2, 0x0000
    41000e2c:	77a0                	.insn	2, 0x77a0
    41000e2e:	4101                	.insn	2, 0x4101
    41000e30:	0000                	.insn	2, 0x0000
    41000e32:	0000                	.insn	2, 0x0000
    41000e34:	8af8                	.insn	2, 0x8af8
    41000e36:	4102                	.insn	2, 0x4102
    41000e38:	0000                	.insn	2, 0x0000
    41000e3a:	0000                	.insn	2, 0x0000
    41000e3c:	a4a8                	.insn	2, 0xa4a8
    41000e3e:	4102                	.insn	2, 0x4102
    41000e40:	0000                	.insn	2, 0x0000
    41000e42:	0000                	.insn	2, 0x0000
    41000e44:	aec8                	.insn	2, 0xaec8
    41000e46:	4102                	.insn	2, 0x4102
    41000e48:	0000                	.insn	2, 0x0000
    41000e4a:	0000                	.insn	2, 0x0000
    41000e4c:	8af8                	.insn	2, 0x8af8
    41000e4e:	4102                	.insn	2, 0x4102
    41000e50:	0000                	.insn	2, 0x0000
    41000e52:	0000                	.insn	2, 0x0000
    41000e54:	257c                	.insn	2, 0x257c
    41000e56:	4102                	.insn	2, 0x4102
    41000e58:	0000                	.insn	2, 0x0000
    41000e5a:	0000                	.insn	2, 0x0000
    41000e5c:	a1dc                	.insn	2, 0xa1dc
    41000e5e:	4101                	.insn	2, 0x4101
    41000e60:	0000                	.insn	2, 0x0000
    41000e62:	0000                	.insn	2, 0x0000
    41000e64:	2fd8                	.insn	2, 0x2fd8
    41000e66:	4102                	.insn	2, 0x4102
    41000e68:	0000                	.insn	2, 0x0000
    41000e6a:	0000                	.insn	2, 0x0000
    41000e6c:	61e0                	.insn	2, 0x61e0
    41000e6e:	4101                	.insn	2, 0x4101
    41000e70:	0000                	.insn	2, 0x0000
    41000e72:	0000                	.insn	2, 0x0000
    41000e74:	b61c                	.insn	2, 0xb61c
    41000e76:	4101                	.insn	2, 0x4101
    41000e78:	0000                	.insn	2, 0x0000
    41000e7a:	0000                	.insn	2, 0x0000
    41000e7c:	5858                	.insn	2, 0x5858
    41000e7e:	4102                	.insn	2, 0x4102
    41000e80:	0000                	.insn	2, 0x0000
    41000e82:	0000                	.insn	2, 0x0000
    41000e84:	be58                	.insn	2, 0xbe58
    41000e86:	4102                	.insn	2, 0x4102
    41000e88:	0000                	.insn	2, 0x0000
    41000e8a:	0000                	.insn	2, 0x0000
    41000e8c:	a4a8                	.insn	2, 0xa4a8
    41000e8e:	4102                	.insn	2, 0x4102
    41000e90:	0000                	.insn	2, 0x0000
    41000e92:	0000                	.insn	2, 0x0000
    41000e94:	f2dc                	.insn	2, 0xf2dc
    41000e96:	4101                	.insn	2, 0x4101
    41000e98:	0000                	.insn	2, 0x0000
    41000e9a:	0000                	.insn	2, 0x0000
    41000e9c:	9518                	.insn	2, 0x9518
    41000e9e:	4102                	.insn	2, 0x4102
    41000ea0:	0000                	.insn	2, 0x0000
    41000ea2:	0000                	.insn	2, 0x0000
    41000ea4:	f0f8                	.insn	2, 0xf0f8
    41000ea6:	4102                	.insn	2, 0x4102
    41000ea8:	0000                	.insn	2, 0x0000
    41000eaa:	0000                	.insn	2, 0x0000
    41000eac:	be58                	.insn	2, 0xbe58
    41000eae:	4102                	.insn	2, 0x4102
    41000eb0:	0000                	.insn	2, 0x0000
    41000eb2:	0000                	.insn	2, 0x0000
    41000eb4:	80d8                	.insn	2, 0x80d8
    41000eb6:	4102                	.insn	2, 0x4102
    41000eb8:	0000                	.insn	2, 0x0000
    41000eba:	0000                	.insn	2, 0x0000
    41000ebc:	6c98                	.insn	2, 0x6c98
    41000ebe:	4102                	.insn	2, 0x4102
    41000ec0:	0000                	.insn	2, 0x0000
    41000ec2:	0000                	.insn	2, 0x0000
    41000ec4:	d47c                	.insn	2, 0xd47c
    41000ec6:	4101                	.insn	2, 0x4101
    41000ec8:	0000                	.insn	2, 0x0000
    41000eca:	0000                	.insn	2, 0x0000
    41000ecc:	25b8                	.insn	2, 0x25b8
    41000ece:	4102                	.insn	2, 0x4102
    41000ed0:	0000                	.insn	2, 0x0000
    41000ed2:	0000                	.insn	2, 0x0000
    41000ed4:	a1dc                	.insn	2, 0xa1dc
    41000ed6:	4101                	.insn	2, 0x4101
    41000ed8:	0000                	.insn	2, 0x0000
    41000eda:	0000                	.insn	2, 0x0000
    41000edc:	39f8                	.insn	2, 0x39f8
    41000ede:	4102                	.insn	2, 0x4102
    41000ee0:	0000                	.insn	2, 0x0000
    41000ee2:	0000                	.insn	2, 0x0000
    41000ee4:	6c98                	.insn	2, 0x6c98
    41000ee6:	4102                	.insn	2, 0x4102
    41000ee8:	0000                	.insn	2, 0x0000
    41000eea:	0000                	.insn	2, 0x0000
    41000eec:	8d9c                	.insn	2, 0x8d9c
    41000eee:	4101                	.insn	2, 0x4101
    41000ef0:	0000                	.insn	2, 0x0000
    41000ef2:	0000                	.insn	2, 0x0000
    41000ef4:	fbd8                	.insn	2, 0xfbd8
    41000ef6:	4102                	.insn	2, 0x4102
    41000ef8:	0000                	.insn	2, 0x0000
    41000efa:	0000                	.insn	2, 0x0000
    41000efc:	7d10                	.insn	2, 0x7d10
    41000efe:	4101                	.insn	2, 0x4101
    41000f00:	0000                	.insn	2, 0x0000
    41000f02:	0000                	.insn	2, 0x0000
    41000f04:	8d60                	.insn	2, 0x8d60
    41000f06:	4101                	.insn	2, 0x4101
    41000f08:	0000                	.insn	2, 0x0000
    41000f0a:	0000                	.insn	2, 0x0000
    41000f0c:	071c                	.insn	2, 0x071c
    41000f0e:	4102                	.insn	2, 0x4102
    41000f10:	0000                	.insn	2, 0x0000
    41000f12:	0000                	.insn	2, 0x0000
    41000f14:	aec8                	.insn	2, 0xaec8
    41000f16:	4102                	.insn	2, 0x4102
    41000f18:	0000                	.insn	2, 0x0000
    41000f1a:	0000                	.insn	2, 0x0000
    41000f1c:	4c20                	.insn	2, 0x4c20
    41000f1e:	4101                	.insn	2, 0x4101
    41000f20:	0000                	.insn	2, 0x0000
    41000f22:	0000                	.insn	2, 0x0000
    41000f24:	b61c                	.insn	2, 0xb61c
    41000f26:	4101                	.insn	2, 0x4101
    41000f28:	0000                	.insn	2, 0x0000
    41000f2a:	0000                	.insn	2, 0x0000
    41000f2c:	c03c                	.insn	2, 0xc03c
    41000f2e:	4101                	.insn	2, 0x4101
    41000f30:	0000                	.insn	2, 0x0000
    41000f32:	0000                	.insn	2, 0x0000
    41000f34:	8d9c                	.insn	2, 0x8d9c
    41000f36:	4101                	.insn	2, 0x4101
    41000f38:	0000                	.insn	2, 0x0000
    41000f3a:	0000                	.insn	2, 0x0000
    41000f3c:	8d60                	.insn	2, 0x8d60
    41000f3e:	4101                	.insn	2, 0x4101
    41000f40:	0000                	.insn	2, 0x0000
    41000f42:	0000                	.insn	2, 0x0000
    41000f44:	a4a8                	.insn	2, 0xa4a8
    41000f46:	4102                	.insn	2, 0x4102
    41000f48:	0000                	.insn	2, 0x0000
    41000f4a:	0000                	.insn	2, 0x0000
    41000f4c:	5858                	.insn	2, 0x5858
    41000f4e:	4102                	.insn	2, 0x4102
    41000f50:	0000                	.insn	2, 0x0000
    41000f52:	0000                	.insn	2, 0x0000
    41000f54:	2fd8                	.insn	2, 0x2fd8
    41000f56:	4102                	.insn	2, 0x4102
    41000f58:	0000                	.insn	2, 0x0000
    41000f5a:	0000                	.insn	2, 0x0000
    41000f5c:	071c                	.insn	2, 0x071c
    41000f5e:	4102                	.insn	2, 0x4102
    41000f60:	0000                	.insn	2, 0x0000
    41000f62:	0000                	.insn	2, 0x0000
    41000f64:	76b8                	.insn	2, 0x76b8
    41000f66:	4102                	.insn	2, 0x4102
    41000f68:	0000                	.insn	2, 0x0000
    41000f6a:	0000                	.insn	2, 0x0000
    41000f6c:	25b8                	.insn	2, 0x25b8
    41000f6e:	4102                	.insn	2, 0x4102
    41000f70:	0000                	.insn	2, 0x0000
    41000f72:	0000                	.insn	2, 0x0000
    41000f74:	4c20                	.insn	2, 0x4c20
    41000f76:	4101                	.insn	2, 0x4101
    41000f78:	0000                	.insn	2, 0x0000
    41000f7a:	0000                	.insn	2, 0x0000
    41000f7c:	f0f8                	.insn	2, 0xf0f8
    41000f7e:	4102                	.insn	2, 0x4102
    41000f80:	0000                	.insn	2, 0x0000
    41000f82:	0000                	.insn	2, 0x0000
    41000f84:	d47c                	.insn	2, 0xd47c
    41000f86:	4101                	.insn	2, 0x4101
    41000f88:	0000                	.insn	2, 0x0000
    41000f8a:	0000                	.insn	2, 0x0000
    41000f8c:	9518                	.insn	2, 0x9518
    41000f8e:	4102                	.insn	2, 0x4102
    41000f90:	0000                	.insn	2, 0x0000
    41000f92:	0000                	.insn	2, 0x0000
    41000f94:	6278                	.insn	2, 0x6278
    41000f96:	4102                	.insn	2, 0x4102
    41000f98:	0000                	.insn	2, 0x0000
    41000f9a:	0000                	.insn	2, 0x0000
    41000f9c:	b438                	.insn	2, 0xb438
    41000f9e:	4102                	.insn	2, 0x4102
    41000fa0:	0000                	.insn	2, 0x0000
    41000fa2:	0000                	.insn	2, 0x0000
    41000fa4:	25b8                	.insn	2, 0x25b8
    41000fa6:	4102                	.insn	2, 0x4102
    41000fa8:	0000                	.insn	2, 0x0000
    41000faa:	0000                	.insn	2, 0x0000
    41000fac:	9a88                	.insn	2, 0x9a88
    41000fae:	4102                	.insn	2, 0x4102
    41000fb0:	0000                	.insn	2, 0x0000
    41000fb2:	0000                	.insn	2, 0x0000
    41000fb4:	39f8                	.insn	2, 0x39f8
    41000fb6:	4102                	.insn	2, 0x4102
    41000fb8:	0000                	.insn	2, 0x0000
    41000fba:	0000                	.insn	2, 0x0000
    41000fbc:	5858                	.insn	2, 0x5858
    41000fbe:	4102                	.insn	2, 0x4102
    41000fc0:	0000                	.insn	2, 0x0000
    41000fc2:	0000                	.insn	2, 0x0000
    41000fc4:	87f0                	.insn	2, 0x87f0
    41000fc6:	4101                	.insn	2, 0x4101
    41000fc8:	0000                	.insn	2, 0x0000
    41000fca:	0000                	.insn	2, 0x0000
    41000fcc:	d298                	.insn	2, 0xd298
    41000fce:	4102                	.insn	2, 0x4102
    41000fd0:	0000                	.insn	2, 0x0000
    41000fd2:	0000                	.insn	2, 0x0000
    41000fd4:	5190                	.insn	2, 0x5190
    41000fd6:	4101                	.insn	2, 0x4101
    41000fd8:	0000                	.insn	2, 0x0000
    41000fda:	0000                	.insn	2, 0x0000
    41000fdc:	f668                	.insn	2, 0xf668
    41000fde:	4102                	.insn	2, 0x4102
    41000fe0:	0000                	.insn	2, 0x0000
    41000fe2:	0000                	.insn	2, 0x0000
    41000fe4:	abfc                	.insn	2, 0xabfc
    41000fe6:	4101                	.insn	2, 0x4101
    41000fe8:	0000                	.insn	2, 0x0000
    41000fea:	0000                	.insn	2, 0x0000
    41000fec:	e6d8                	.insn	2, 0xe6d8
    41000fee:	4102                	.insn	2, 0x4102
    41000ff0:	0000                	.insn	2, 0x0000
    41000ff2:	0000                	.insn	2, 0x0000
    41000ff4:	ca5c                	.insn	2, 0xca5c
    41000ff6:	4101                	.insn	2, 0x4101
    41000ff8:	0000                	.insn	2, 0x0000
    41000ffa:	0000                	.insn	2, 0x0000
    41000ffc:	fcfc                	.insn	2, 0xfcfc
    41000ffe:	4101                	.insn	2, 0x4101
    41001000:	0000                	.insn	2, 0x0000
    41001002:	0000                	.insn	2, 0x0000
    41001004:	8d60                	.insn	2, 0x8d60
    41001006:	4101                	.insn	2, 0x4101
    41001008:	0000                	.insn	2, 0x0000
    4100100a:	0000                	.insn	2, 0x0000
    4100100c:	257c                	.insn	2, 0x257c
    4100100e:	4102                	.insn	2, 0x4102
    41001010:	0000                	.insn	2, 0x0000
    41001012:	0000                	.insn	2, 0x0000
    41001014:	6750                	.insn	2, 0x6750
    41001016:	4101                	.insn	2, 0x4101
    41001018:	0000                	.insn	2, 0x0000
    4100101a:	0000                	.insn	2, 0x0000
    4100101c:	6750                	.insn	2, 0x6750
    4100101e:	4101                	.insn	2, 0x4101
    41001020:	0000                	.insn	2, 0x0000
    41001022:	0000                	.insn	2, 0x0000
    41001024:	5700                	.insn	2, 0x5700
    41001026:	4101                	.insn	2, 0x4101
    41001028:	0000                	.insn	2, 0x0000
	...

000000004100102c <dtest_descriptor_table>:
    4100102c:	11ec                	.insn	2, 0x11ec
    4100102e:	4100                	.insn	2, 0x4100
    41001030:	0000                	.insn	2, 0x0000
    41001032:	0000                	.insn	2, 0x0000
    41001034:	410011f7          	.insn	4, 0x410011f7
    41001038:	0000                	.insn	2, 0x0000
    4100103a:	0000                	.insn	2, 0x0000
    4100103c:	41001207          	flh	f4,1040(x0) # 410 <XLEN+0x3d0>
    41001040:	0000                	.insn	2, 0x0000
    41001042:	0000                	.insn	2, 0x0000
    41001044:	41001217          	auipc	x4,0x41001
    41001048:	0000                	.insn	2, 0x0000
    4100104a:	0000                	.insn	2, 0x0000
    4100104c:	1228                	.insn	2, 0x1228
    4100104e:	4100                	.insn	2, 0x4100
    41001050:	0000                	.insn	2, 0x0000
    41001052:	0000                	.insn	2, 0x0000
    41001054:	1238                	.insn	2, 0x1238
    41001056:	4100                	.insn	2, 0x4100
    41001058:	0000                	.insn	2, 0x0000
    4100105a:	0000                	.insn	2, 0x0000
    4100105c:	41001247          	fmsub.s	f4,f0,f16,f8,rtz
    41001060:	0000                	.insn	2, 0x0000
    41001062:	0000                	.insn	2, 0x0000
    41001064:	41001257          	.insn	4, 0x41001257
    41001068:	0000                	.insn	2, 0x0000
    4100106a:	0000                	.insn	2, 0x0000
    4100106c:	41001267          	.insn	4, 0x41001267
    41001070:	0000                	.insn	2, 0x0000
    41001072:	0000                	.insn	2, 0x0000
    41001074:	41001277          	.insn	4, 0x41001277
    41001078:	0000                	.insn	2, 0x0000
    4100107a:	0000                	.insn	2, 0x0000
    4100107c:	41001287          	flh	f5,1040(x0) # 410 <XLEN+0x3d0>
    41001080:	0000                	.insn	2, 0x0000
    41001082:	0000                	.insn	2, 0x0000
    41001084:	1298                	.insn	2, 0x1298
    41001086:	4100                	.insn	2, 0x4100
    41001088:	0000                	.insn	2, 0x0000
    4100108a:	0000                	.insn	2, 0x0000
    4100108c:	12a9                	.insn	2, 0x12a9
    4100108e:	4100                	.insn	2, 0x4100
    41001090:	0000                	.insn	2, 0x0000
    41001092:	0000                	.insn	2, 0x0000
    41001094:	12ba                	.insn	2, 0x12ba
    41001096:	4100                	.insn	2, 0x4100
    41001098:	0000                	.insn	2, 0x0000
    4100109a:	0000                	.insn	2, 0x0000
    4100109c:	410012cb          	fnmsub.s	f5,f0,f16,f8,rtz
    410010a0:	0000                	.insn	2, 0x0000
    410010a2:	0000                	.insn	2, 0x0000
    410010a4:	12d6                	.insn	2, 0x12d6
    410010a6:	4100                	.insn	2, 0x4100
    410010a8:	0000                	.insn	2, 0x0000
    410010aa:	0000                	.insn	2, 0x0000
    410010ac:	12e5                	.insn	2, 0x12e5
    410010ae:	4100                	.insn	2, 0x4100
    410010b0:	0000                	.insn	2, 0x0000
    410010b2:	0000                	.insn	2, 0x0000
    410010b4:	12f4                	.insn	2, 0x12f4
    410010b6:	4100                	.insn	2, 0x4100
    410010b8:	0000                	.insn	2, 0x0000
    410010ba:	0000                	.insn	2, 0x0000
    410010bc:	41001303          	lh	x6,1040(x0) # 410 <XLEN+0x3d0>
    410010c0:	0000                	.insn	2, 0x0000
    410010c2:	0000                	.insn	2, 0x0000
    410010c4:	1312                	.insn	2, 0x1312
    410010c6:	4100                	.insn	2, 0x4100
    410010c8:	0000                	.insn	2, 0x0000
    410010ca:	0000                	.insn	2, 0x0000
    410010cc:	1322                	.insn	2, 0x1322
    410010ce:	4100                	.insn	2, 0x4100
    410010d0:	0000                	.insn	2, 0x0000
    410010d2:	0000                	.insn	2, 0x0000
    410010d4:	1331                	.insn	2, 0x1331
    410010d6:	4100                	.insn	2, 0x4100
    410010d8:	0000                	.insn	2, 0x0000
    410010da:	0000                	.insn	2, 0x0000
    410010dc:	1340                	.insn	2, 0x1340
    410010de:	4100                	.insn	2, 0x4100
    410010e0:	0000                	.insn	2, 0x0000
    410010e2:	0000                	.insn	2, 0x0000
    410010e4:	4100134f          	fnmadd.s	f6,f0,f16,f8,rtz
    410010e8:	0000                	.insn	2, 0x0000
    410010ea:	0000                	.insn	2, 0x0000
    410010ec:	135d                	.insn	2, 0x135d
    410010ee:	4100                	.insn	2, 0x4100
    410010f0:	0000                	.insn	2, 0x0000
    410010f2:	0000                	.insn	2, 0x0000
    410010f4:	136c                	.insn	2, 0x136c
    410010f6:	4100                	.insn	2, 0x4100
    410010f8:	0000                	.insn	2, 0x0000
    410010fa:	0000                	.insn	2, 0x0000
    410010fc:	137c                	.insn	2, 0x137c
    410010fe:	4100                	.insn	2, 0x4100
    41001100:	0000                	.insn	2, 0x0000
    41001102:	0000                	.insn	2, 0x0000
    41001104:	138c                	.insn	2, 0x138c
    41001106:	4100                	.insn	2, 0x4100
    41001108:	0000                	.insn	2, 0x0000
    4100110a:	0000                	.insn	2, 0x0000
    4100110c:	139c                	.insn	2, 0x139c
    4100110e:	4100                	.insn	2, 0x4100
    41001110:	0000                	.insn	2, 0x0000
    41001112:	0000                	.insn	2, 0x0000
    41001114:	13ac                	.insn	2, 0x13ac
    41001116:	4100                	.insn	2, 0x4100
    41001118:	0000                	.insn	2, 0x0000
    4100111a:	0000                	.insn	2, 0x0000
    4100111c:	13bc                	.insn	2, 0x13bc
    4100111e:	4100                	.insn	2, 0x4100
    41001120:	0000                	.insn	2, 0x0000
    41001122:	0000                	.insn	2, 0x0000
    41001124:	410013c7          	fmsub.s	f7,f0,f16,f8,rtz
    41001128:	0000                	.insn	2, 0x0000
    4100112a:	0000                	.insn	2, 0x0000
    4100112c:	13d6                	.insn	2, 0x13d6
    4100112e:	4100                	.insn	2, 0x4100
    41001130:	0000                	.insn	2, 0x0000
    41001132:	0000                	.insn	2, 0x0000
    41001134:	13e6                	.insn	2, 0x13e6
    41001136:	4100                	.insn	2, 0x4100
    41001138:	0000                	.insn	2, 0x0000
    4100113a:	0000                	.insn	2, 0x0000
    4100113c:	410013f7          	.insn	4, 0x410013f7
    41001140:	0000                	.insn	2, 0x0000
    41001142:	0000                	.insn	2, 0x0000
    41001144:	1409                	.insn	2, 0x1409
    41001146:	4100                	.insn	2, 0x4100
    41001148:	0000                	.insn	2, 0x0000
    4100114a:	0000                	.insn	2, 0x0000
    4100114c:	1419                	.insn	2, 0x1419
    4100114e:	4100                	.insn	2, 0x4100
    41001150:	0000                	.insn	2, 0x0000
    41001152:	0000                	.insn	2, 0x0000
    41001154:	142a                	.insn	2, 0x142a
    41001156:	4100                	.insn	2, 0x4100
    41001158:	0000                	.insn	2, 0x0000
    4100115a:	0000                	.insn	2, 0x0000
    4100115c:	143c                	.insn	2, 0x143c
    4100115e:	4100                	.insn	2, 0x4100
    41001160:	0000                	.insn	2, 0x0000
    41001162:	0000                	.insn	2, 0x0000
    41001164:	144e                	.insn	2, 0x144e
    41001166:	4100                	.insn	2, 0x4100
    41001168:	0000                	.insn	2, 0x0000
    4100116a:	0000                	.insn	2, 0x0000
    4100116c:	1460                	.insn	2, 0x1460
    4100116e:	4100                	.insn	2, 0x4100
    41001170:	0000                	.insn	2, 0x0000
    41001172:	0000                	.insn	2, 0x0000
    41001174:	4100146f          	jal	x8,41002584 <__section__runtime_2+0x584>
    41001178:	0000                	.insn	2, 0x0000
    4100117a:	0000                	.insn	2, 0x0000
    4100117c:	147e                	.insn	2, 0x147e
    4100117e:	4100                	.insn	2, 0x4100
    41001180:	0000                	.insn	2, 0x0000
    41001182:	0000                	.insn	2, 0x0000
    41001184:	148e                	.insn	2, 0x148e
    41001186:	4100                	.insn	2, 0x4100
    41001188:	0000                	.insn	2, 0x0000
    4100118a:	0000                	.insn	2, 0x0000
    4100118c:	149e                	.insn	2, 0x149e
    4100118e:	4100                	.insn	2, 0x4100
    41001190:	0000                	.insn	2, 0x0000
    41001192:	0000                	.insn	2, 0x0000
    41001194:	14ae                	.insn	2, 0x14ae
    41001196:	4100                	.insn	2, 0x4100
    41001198:	0000                	.insn	2, 0x0000
    4100119a:	0000                	.insn	2, 0x0000
    4100119c:	410014bf 00000000 	.insn	8, 0x410014bf
    410011a4:	410014cf          	fnmadd.s	f9,f0,f16,f8,rtz
    410011a8:	0000                	.insn	2, 0x0000
    410011aa:	0000                	.insn	2, 0x0000
    410011ac:	14de                	.insn	2, 0x14de
    410011ae:	4100                	.insn	2, 0x4100
    410011b0:	0000                	.insn	2, 0x0000
    410011b2:	0000                	.insn	2, 0x0000
    410011b4:	14ee                	.insn	2, 0x14ee
    410011b6:	4100                	.insn	2, 0x4100
    410011b8:	0000                	.insn	2, 0x0000
    410011ba:	0000                	.insn	2, 0x0000
    410011bc:	14fe                	.insn	2, 0x14fe
    410011be:	4100                	.insn	2, 0x4100
    410011c0:	0000                	.insn	2, 0x0000
    410011c2:	0000                	.insn	2, 0x0000
    410011c4:	4100150f          	.insn	4, 0x4100150f
    410011c8:	0000                	.insn	2, 0x0000
    410011ca:	0000                	.insn	2, 0x0000
    410011cc:	1520                	.insn	2, 0x1520
    410011ce:	4100                	.insn	2, 0x4100
    410011d0:	0000                	.insn	2, 0x0000
    410011d2:	0000                	.insn	2, 0x0000
    410011d4:	1531                	.insn	2, 0x1531
    410011d6:	4100                	.insn	2, 0x4100
    410011d8:	0000                	.insn	2, 0x0000
    410011da:	0000                	.insn	2, 0x0000
    410011dc:	1541                	.insn	2, 0x1541
    410011de:	4100                	.insn	2, 0x4100
    410011e0:	0000                	.insn	2, 0x0000
    410011e2:	0000                	.insn	2, 0x0000
    410011e4:	1556                	.insn	2, 0x1556
    410011e6:	4100                	.insn	2, 0x4100
    410011e8:	0000                	.insn	2, 0x0000
	...

00000000410011ec <dtest_name_0>:
    410011ec:	5f444953          	.insn	4, 0x5f444953
    410011f0:	4b5a                	.insn	2, 0x4b5a
    410011f2:	5f54                	.insn	2, 0x5f54
    410011f4:	3230                	.insn	2, 0x3230
	...

00000000410011f7 <dtest_name_1>:
    410011f7:	5f444953          	.insn	4, 0x5f444953
    410011fb:	4b5a                	.insn	2, 0x4b5a
    410011fd:	5f54                	.insn	2, 0x5f54
    410011ff:	3330                	.insn	2, 0x3330
    41001201:	415f 4444 0049      	.insn	6, 0x00494444415f

0000000041001207 <dtest_name_2>:
    41001207:	5f444953          	.insn	4, 0x5f444953
    4100120b:	4b5a                	.insn	2, 0x4b5a
    4100120d:	5f54                	.insn	2, 0x5f54
    4100120f:	3330                	.insn	2, 0x3330
    41001211:	535f 544c 0049      	.insn	6, 0x0049544c535f

0000000041001217 <dtest_name_3>:
    41001217:	5f444953          	.insn	4, 0x5f444953
    4100121b:	4b5a                	.insn	2, 0x4b5a
    4100121d:	5f54                	.insn	2, 0x5f54
    4100121f:	3330                	.insn	2, 0x3330
    41001221:	535f 544c 5549      	.insn	6, 0x5549544c535f
	...

0000000041001228 <dtest_name_4>:
    41001228:	5f444953          	.insn	4, 0x5f444953
    4100122c:	4b5a                	.insn	2, 0x4b5a
    4100122e:	5f54                	.insn	2, 0x5f54
    41001230:	3330                	.insn	2, 0x3330
    41001232:	585f 524f 0049      	.insn	6, 0x0049524f585f

0000000041001238 <dtest_name_5>:
    41001238:	5f444953          	.insn	4, 0x5f444953
    4100123c:	4b5a                	.insn	2, 0x4b5a
    4100123e:	5f54                	.insn	2, 0x5f54
    41001240:	3330                	.insn	2, 0x3330
    41001242:	4f5f 4952       	.insn	6, 0x530049524f5f

0000000041001247 <dtest_name_6>:
    41001247:	5f444953          	.insn	4, 0x5f444953
    4100124b:	4b5a                	.insn	2, 0x4b5a
    4100124d:	5f54                	.insn	2, 0x5f54
    4100124f:	3330                	.insn	2, 0x3330
    41001251:	415f 444e 0049      	.insn	6, 0x0049444e415f

0000000041001257 <dtest_name_7>:
    41001257:	5f444953          	.insn	4, 0x5f444953
    4100125b:	4b5a                	.insn	2, 0x4b5a
    4100125d:	5f54                	.insn	2, 0x5f54
    4100125f:	3330                	.insn	2, 0x3330
    41001261:	535f 4c4c 0049      	.insn	6, 0x00494c4c535f

0000000041001267 <dtest_name_8>:
    41001267:	5f444953          	.insn	4, 0x5f444953
    4100126b:	4b5a                	.insn	2, 0x4b5a
    4100126d:	5f54                	.insn	2, 0x5f54
    4100126f:	3330                	.insn	2, 0x3330
    41001271:	535f 4c52 0049      	.insn	6, 0x00494c52535f

0000000041001277 <dtest_name_9>:
    41001277:	5f444953          	.insn	4, 0x5f444953
    4100127b:	4b5a                	.insn	2, 0x4b5a
    4100127d:	5f54                	.insn	2, 0x5f54
    4100127f:	3330                	.insn	2, 0x3330
    41001281:	535f 4152 0049      	.insn	6, 0x00494152535f

0000000041001287 <dtest_name_10>:
    41001287:	5f444953          	.insn	4, 0x5f444953
    4100128b:	4b5a                	.insn	2, 0x4b5a
    4100128d:	5f54                	.insn	2, 0x5f54
    4100128f:	3330                	.insn	2, 0x3330
    41001291:	415f 4444 5749      	.insn	6, 0x57494444415f
	...

0000000041001298 <dtest_name_11>:
    41001298:	5f444953          	.insn	4, 0x5f444953
    4100129c:	4b5a                	.insn	2, 0x4b5a
    4100129e:	5f54                	.insn	2, 0x5f54
    410012a0:	3330                	.insn	2, 0x3330
    410012a2:	535f 4c4c 5749      	.insn	6, 0x57494c4c535f
	...

00000000410012a9 <dtest_name_12>:
    410012a9:	5f444953          	.insn	4, 0x5f444953
    410012ad:	4b5a                	.insn	2, 0x4b5a
    410012af:	5f54                	.insn	2, 0x5f54
    410012b1:	3330                	.insn	2, 0x3330
    410012b3:	535f 4c52 5749      	.insn	6, 0x57494c52535f
	...

00000000410012ba <dtest_name_13>:
    410012ba:	5f444953          	.insn	4, 0x5f444953
    410012be:	4b5a                	.insn	2, 0x4b5a
    410012c0:	5f54                	.insn	2, 0x5f54
    410012c2:	3330                	.insn	2, 0x3330
    410012c4:	535f 4152 5749      	.insn	6, 0x57494152535f
	...

00000000410012cb <dtest_name_14>:
    410012cb:	5f444953          	.insn	4, 0x5f444953
    410012cf:	4b5a                	.insn	2, 0x4b5a
    410012d1:	5f54                	.insn	2, 0x5f54
    410012d3:	3430                	.insn	2, 0x3430
	...

00000000410012d6 <dtest_name_15>:
    410012d6:	5f444953          	.insn	4, 0x5f444953
    410012da:	4b5a                	.insn	2, 0x4b5a
    410012dc:	5f54                	.insn	2, 0x5f54
    410012de:	3530                	.insn	2, 0x3530
    410012e0:	415f 4444       	.insn	6, 0x53004444415f

00000000410012e5 <dtest_name_16>:
    410012e5:	5f444953          	.insn	4, 0x5f444953
    410012e9:	4b5a                	.insn	2, 0x4b5a
    410012eb:	5f54                	.insn	2, 0x5f54
    410012ed:	3530                	.insn	2, 0x3530
    410012ef:	535f 4255       	.insn	6, 0x53004255535f

00000000410012f4 <dtest_name_17>:
    410012f4:	5f444953          	.insn	4, 0x5f444953
    410012f8:	4b5a                	.insn	2, 0x4b5a
    410012fa:	5f54                	.insn	2, 0x5f54
    410012fc:	3530                	.insn	2, 0x3530
    410012fe:	535f 4c4c       	.insn	6, 0x53004c4c535f

0000000041001303 <dtest_name_18>:
    41001303:	5f444953          	.insn	4, 0x5f444953
    41001307:	4b5a                	.insn	2, 0x4b5a
    41001309:	5f54                	.insn	2, 0x5f54
    4100130b:	3530                	.insn	2, 0x3530
    4100130d:	535f 544c       	.insn	6, 0x5300544c535f

0000000041001312 <dtest_name_19>:
    41001312:	5f444953          	.insn	4, 0x5f444953
    41001316:	4b5a                	.insn	2, 0x4b5a
    41001318:	5f54                	.insn	2, 0x5f54
    4100131a:	3530                	.insn	2, 0x3530
    4100131c:	535f 544c 0055      	.insn	6, 0x0055544c535f

0000000041001322 <dtest_name_20>:
    41001322:	5f444953          	.insn	4, 0x5f444953
    41001326:	4b5a                	.insn	2, 0x4b5a
    41001328:	5f54                	.insn	2, 0x5f54
    4100132a:	3530                	.insn	2, 0x3530
    4100132c:	585f 524f       	.insn	6, 0x5300524f585f

0000000041001331 <dtest_name_21>:
    41001331:	5f444953          	.insn	4, 0x5f444953
    41001335:	4b5a                	.insn	2, 0x4b5a
    41001337:	5f54                	.insn	2, 0x5f54
    41001339:	3530                	.insn	2, 0x3530
    4100133b:	535f 4c52       	.insn	6, 0x53004c52535f

0000000041001340 <dtest_name_22>:
    41001340:	5f444953          	.insn	4, 0x5f444953
    41001344:	4b5a                	.insn	2, 0x4b5a
    41001346:	5f54                	.insn	2, 0x5f54
    41001348:	3530                	.insn	2, 0x3530
    4100134a:	535f 4152       	.insn	6, 0x53004152535f

000000004100134f <dtest_name_23>:
    4100134f:	5f444953          	.insn	4, 0x5f444953
    41001353:	4b5a                	.insn	2, 0x4b5a
    41001355:	5f54                	.insn	2, 0x5f54
    41001357:	3530                	.insn	2, 0x3530
    41001359:	4f5f 0052       	.insn	6, 0x495300524f5f

000000004100135d <dtest_name_24>:
    4100135d:	5f444953          	.insn	4, 0x5f444953
    41001361:	4b5a                	.insn	2, 0x4b5a
    41001363:	5f54                	.insn	2, 0x5f54
    41001365:	3530                	.insn	2, 0x3530
    41001367:	415f 444e       	.insn	6, 0x5300444e415f

000000004100136c <dtest_name_25>:
    4100136c:	5f444953          	.insn	4, 0x5f444953
    41001370:	4b5a                	.insn	2, 0x4b5a
    41001372:	5f54                	.insn	2, 0x5f54
    41001374:	3530                	.insn	2, 0x3530
    41001376:	415f 4444 0057      	.insn	6, 0x00574444415f

000000004100137c <dtest_name_26>:
    4100137c:	5f444953          	.insn	4, 0x5f444953
    41001380:	4b5a                	.insn	2, 0x4b5a
    41001382:	5f54                	.insn	2, 0x5f54
    41001384:	3530                	.insn	2, 0x3530
    41001386:	535f 4255 0057      	.insn	6, 0x00574255535f

000000004100138c <dtest_name_27>:
    4100138c:	5f444953          	.insn	4, 0x5f444953
    41001390:	4b5a                	.insn	2, 0x4b5a
    41001392:	5f54                	.insn	2, 0x5f54
    41001394:	3530                	.insn	2, 0x3530
    41001396:	535f 4c4c 0057      	.insn	6, 0x00574c4c535f

000000004100139c <dtest_name_28>:
    4100139c:	5f444953          	.insn	4, 0x5f444953
    410013a0:	4b5a                	.insn	2, 0x4b5a
    410013a2:	5f54                	.insn	2, 0x5f54
    410013a4:	3530                	.insn	2, 0x3530
    410013a6:	535f 4c52 0057      	.insn	6, 0x00574c52535f

00000000410013ac <dtest_name_29>:
    410013ac:	5f444953          	.insn	4, 0x5f444953
    410013b0:	4b5a                	.insn	2, 0x4b5a
    410013b2:	5f54                	.insn	2, 0x5f54
    410013b4:	3530                	.insn	2, 0x3530
    410013b6:	535f 4152 0057      	.insn	6, 0x00574152535f

00000000410013bc <dtest_name_30>:
    410013bc:	5f444953          	.insn	4, 0x5f444953
    410013c0:	4b5a                	.insn	2, 0x4b5a
    410013c2:	5f54                	.insn	2, 0x5f54
    410013c4:	3630                	.insn	2, 0x3630
	...

00000000410013c7 <dtest_name_31>:
    410013c7:	5f444953          	.insn	4, 0x5f444953
    410013cb:	4b5a                	.insn	2, 0x4b5a
    410013cd:	5f54                	.insn	2, 0x5f54
    410013cf:	3730                	.insn	2, 0x3730
    410013d1:	4d5f 4c55       	.insn	6, 0x53004c554d5f

00000000410013d6 <dtest_name_32>:
    410013d6:	5f444953          	.insn	4, 0x5f444953
    410013da:	4b5a                	.insn	2, 0x4b5a
    410013dc:	5f54                	.insn	2, 0x5f54
    410013de:	3730                	.insn	2, 0x3730
    410013e0:	4d5f 4c55 0048      	.insn	6, 0x00484c554d5f

00000000410013e6 <dtest_name_33>:
    410013e6:	5f444953          	.insn	4, 0x5f444953
    410013ea:	4b5a                	.insn	2, 0x4b5a
    410013ec:	5f54                	.insn	2, 0x5f54
    410013ee:	3730                	.insn	2, 0x3730
    410013f0:	4d5f 4c55 5548      	.insn	6, 0x55484c554d5f
	...

00000000410013f7 <dtest_name_34>:
    410013f7:	5f444953          	.insn	4, 0x5f444953
    410013fb:	4b5a                	.insn	2, 0x4b5a
    410013fd:	5f54                	.insn	2, 0x5f54
    410013ff:	3730                	.insn	2, 0x3730
    41001401:	4d5f 4c55 5348      	.insn	6, 0x53484c554d5f
    41001407:	0055                	.insn	2, 0x0055

0000000041001409 <dtest_name_35>:
    41001409:	5f444953          	.insn	4, 0x5f444953
    4100140d:	4b5a                	.insn	2, 0x4b5a
    4100140f:	5f54                	.insn	2, 0x5f54
    41001411:	3730                	.insn	2, 0x3730
    41001413:	4d5f 4c55 0057      	.insn	6, 0x00574c554d5f

0000000041001419 <dtest_name_36>:
    41001419:	5f444953          	.insn	4, 0x5f444953
    4100141d:	4b5a                	.insn	2, 0x4b5a
    4100141f:	5f54                	.insn	2, 0x5f54
    41001421:	3830                	.insn	2, 0x3830
    41001423:	435f 4d4c 4c55      	.insn	6, 0x4c554d4c435f
	...

000000004100142a <dtest_name_37>:
    4100142a:	5f444953          	.insn	4, 0x5f444953
    4100142e:	4b5a                	.insn	2, 0x4b5a
    41001430:	5f54                	.insn	2, 0x5f54
    41001432:	3830                	.insn	2, 0x3830
    41001434:	435f 4d4c 4c55      	.insn	6, 0x4c554d4c435f
    4100143a:	0048                	.insn	2, 0x0048

000000004100143c <dtest_name_38>:
    4100143c:	5f444953          	.insn	4, 0x5f444953
    41001440:	4b5a                	.insn	2, 0x4b5a
    41001442:	5f54                	.insn	2, 0x5f54
    41001444:	3830                	.insn	2, 0x3830
    41001446:	585f 4550 4d52      	.insn	6, 0x4d524550585f
    4100144c:	0034                	.insn	2, 0x0034

000000004100144e <dtest_name_39>:
    4100144e:	5f444953          	.insn	4, 0x5f444953
    41001452:	4b5a                	.insn	2, 0x4b5a
    41001454:	5f54                	.insn	2, 0x5f54
    41001456:	3830                	.insn	2, 0x3830
    41001458:	585f 4550 4d52      	.insn	6, 0x4d524550585f
    4100145e:	0038                	.insn	2, 0x0038

0000000041001460 <dtest_name_40>:
    41001460:	5f444953          	.insn	4, 0x5f444953
    41001464:	4b5a                	.insn	2, 0x4b5a
    41001466:	5f54                	.insn	2, 0x5f54
    41001468:	3830                	.insn	2, 0x3830
    4100146a:	525f 524f       	.insn	6, 0x5300524f525f

000000004100146f <dtest_name_41>:
    4100146f:	5f444953          	.insn	4, 0x5f444953
    41001473:	4b5a                	.insn	2, 0x4b5a
    41001475:	5f54                	.insn	2, 0x5f54
    41001477:	3830                	.insn	2, 0x3830
    41001479:	525f 4c4f       	.insn	6, 0x53004c4f525f

000000004100147e <dtest_name_42>:
    4100147e:	5f444953          	.insn	4, 0x5f444953
    41001482:	4b5a                	.insn	2, 0x4b5a
    41001484:	5f54                	.insn	2, 0x5f54
    41001486:	3830                	.insn	2, 0x3830
    41001488:	525f 524f 0049      	.insn	6, 0x0049524f525f

000000004100148e <dtest_name_43>:
    4100148e:	5f444953          	.insn	4, 0x5f444953
    41001492:	4b5a                	.insn	2, 0x4b5a
    41001494:	5f54                	.insn	2, 0x5f54
    41001496:	3830                	.insn	2, 0x3830
    41001498:	525f 524f 0057      	.insn	6, 0x0057524f525f

000000004100149e <dtest_name_44>:
    4100149e:	5f444953          	.insn	4, 0x5f444953
    410014a2:	4b5a                	.insn	2, 0x4b5a
    410014a4:	5f54                	.insn	2, 0x5f54
    410014a6:	3830                	.insn	2, 0x3830
    410014a8:	525f 4c4f 0057      	.insn	6, 0x00574c4f525f

00000000410014ae <dtest_name_45>:
    410014ae:	5f444953          	.insn	4, 0x5f444953
    410014b2:	4b5a                	.insn	2, 0x4b5a
    410014b4:	5f54                	.insn	2, 0x5f54
    410014b6:	3830                	.insn	2, 0x3830
    410014b8:	525f 524f 5749      	.insn	6, 0x5749524f525f
	...

00000000410014bf <dtest_name_46>:
    410014bf:	5f444953          	.insn	4, 0x5f444953
    410014c3:	4b5a                	.insn	2, 0x4b5a
    410014c5:	5f54                	.insn	2, 0x5f54
    410014c7:	3830                	.insn	2, 0x3830
    410014c9:	415f 444e 004e      	.insn	6, 0x004e444e415f

00000000410014cf <dtest_name_47>:
    410014cf:	5f444953          	.insn	4, 0x5f444953
    410014d3:	4b5a                	.insn	2, 0x4b5a
    410014d5:	5f54                	.insn	2, 0x5f54
    410014d7:	3830                	.insn	2, 0x3830
    410014d9:	4f5f 4e52       	.insn	6, 0x53004e524f5f

00000000410014de <dtest_name_48>:
    410014de:	5f444953          	.insn	4, 0x5f444953
    410014e2:	4b5a                	.insn	2, 0x4b5a
    410014e4:	5f54                	.insn	2, 0x5f54
    410014e6:	3830                	.insn	2, 0x3830
    410014e8:	585f 4f4e 0052      	.insn	6, 0x00524f4e585f

00000000410014ee <dtest_name_49>:
    410014ee:	5f444953          	.insn	4, 0x5f444953
    410014f2:	4b5a                	.insn	2, 0x4b5a
    410014f4:	5f54                	.insn	2, 0x5f54
    410014f6:	3830                	.insn	2, 0x3830
    410014f8:	505f 4341 004b      	.insn	6, 0x004b4341505f

00000000410014fe <dtest_name_50>:
    410014fe:	5f444953          	.insn	4, 0x5f444953
    41001502:	4b5a                	.insn	2, 0x4b5a
    41001504:	5f54                	.insn	2, 0x5f54
    41001506:	3830                	.insn	2, 0x3830
    41001508:	505f 4341 484b      	.insn	6, 0x484b4341505f
	...

000000004100150f <dtest_name_51>:
    4100150f:	5f444953          	.insn	4, 0x5f444953
    41001513:	4b5a                	.insn	2, 0x4b5a
    41001515:	5f54                	.insn	2, 0x5f54
    41001517:	3830                	.insn	2, 0x3830
    41001519:	505f 4341 574b      	.insn	6, 0x574b4341505f
	...

0000000041001520 <dtest_name_52>:
    41001520:	5f444953          	.insn	4, 0x5f444953
    41001524:	4b5a                	.insn	2, 0x4b5a
    41001526:	5f54                	.insn	2, 0x5f54
    41001528:	3830                	.insn	2, 0x3830
    4100152a:	425f 4552 3856      	.insn	6, 0x38564552425f
	...

0000000041001531 <dtest_name_53>:
    41001531:	5f444953          	.insn	4, 0x5f444953
    41001535:	4b5a                	.insn	2, 0x4b5a
    41001537:	5f54                	.insn	2, 0x5f54
    41001539:	3830                	.insn	2, 0x3830
    4100153b:	525f 5645 0038      	.insn	6, 0x00385645525f

0000000041001541 <dtest_name_54>:
    41001541:	5f444953          	.insn	4, 0x5f444953
    41001545:	4b5a                	.insn	2, 0x4b5a
    41001547:	5f54                	.insn	2, 0x5f54
    41001549:	3930                	.insn	2, 0x3930
    4100154b:	435f 455a 4f52      	.insn	6, 0x4f52455a435f
    41001551:	455f 5a51       	.insn	6, 0x53005a51455f

0000000041001556 <dtest_name_55>:
    41001556:	5f444953          	.insn	4, 0x5f444953
    4100155a:	4b5a                	.insn	2, 0x4b5a
    4100155c:	5f54                	.insn	2, 0x5f54
    4100155e:	3930                	.insn	2, 0x3930
    41001560:	435f 455a 4f52      	.insn	6, 0x4f52455a435f
    41001566:	4e5f 5a45 0000      	.insn	6, 0x5a454e5f

000000004100156c <dtest_index_map>:
    4100156c:	ffff                	.insn	2, 0xffff
    4100156e:	ffff                	.insn	2, 0xffff
    41001570:	0031                	.insn	2, 0x0031
    41001572:	0000                	.insn	2, 0x0000
    41001574:	0018                	.insn	2, 0x0018
    41001576:	0000                	.insn	2, 0x0000
    41001578:	0010                	.insn	2, 0x0010
    4100157a:	0000                	.insn	2, 0x0000
    4100157c:	0012                	.insn	2, 0x0012
    4100157e:	0000                	.insn	2, 0x0000
    41001580:	002e                	.insn	2, 0x002e
    41001582:	0000                	.insn	2, 0x0000
    41001584:	00000023          	sb	x0,0(x0) # 0 <ALL_4KB_PAGES>
    41001588:	0008                	.insn	2, 0x0008
    4100158a:	0000                	.insn	2, 0x0000
    4100158c:	0006                	.insn	2, 0x0006
    4100158e:	0000                	.insn	2, 0x0000
    41001590:	0009                	.insn	2, 0x0009
    41001592:	0000                	.insn	2, 0x0000
    41001594:	001c                	.insn	2, 0x001c
    41001596:	0000                	.insn	2, 0x0000
    41001598:	00000033          	add	x0,x0,x0
    4100159c:	00000017          	auipc	x0,0x0
    410015a0:	0034                	.insn	2, 0x0034
    410015a2:	0000                	.insn	2, 0x0000
    410015a4:	00000003          	lb	x0,0(x0) # 0 <ALL_4KB_PAGES>
    410015a8:	0031                	.insn	2, 0x0031
    410015aa:	0000                	.insn	2, 0x0000
    410015ac:	0000001b          	sext.w	x0,x0
    410015b0:	0000000f          	fence	unknown,unknown
    410015b4:	0025                	.insn	2, 0x0025
    410015b6:	0000                	.insn	2, 0x0000
    410015b8:	000a                	.insn	2, 0x000a
    410015ba:	0000                	.insn	2, 0x0000
    410015bc:	001e                	.insn	2, 0x001e
    410015be:	0000                	.insn	2, 0x0000
    410015c0:	0029                	.insn	2, 0x0029
    410015c2:	0000                	.insn	2, 0x0000
    410015c4:	0006                	.insn	2, 0x0006
    410015c6:	0000                	.insn	2, 0x0000
    410015c8:	0004                	.insn	2, 0x0004
    410015ca:	0000                	.insn	2, 0x0000
    410015cc:	0000                	.insn	2, 0x0000
    410015ce:	0000                	.insn	2, 0x0000
    410015d0:	00000007          	vle8.v	v0,(x0),v0.t
    410015d4:	0022                	.insn	2, 0x0022
    410015d6:	0000                	.insn	2, 0x0000
    410015d8:	001d                	.insn	2, 0x001d
    410015da:	0000                	.insn	2, 0x0000
    410015dc:	000a                	.insn	2, 0x000a
    410015de:	0000                	.insn	2, 0x0000
    410015e0:	001a                	.insn	2, 0x001a
    410015e2:	0000                	.insn	2, 0x0000
    410015e4:	0030                	.insn	2, 0x0030
    410015e6:	0000                	.insn	2, 0x0000
    410015e8:	001d                	.insn	2, 0x001d
    410015ea:	0000                	.insn	2, 0x0000
    410015ec:	0005                	.insn	2, 0x0005
    410015ee:	0000                	.insn	2, 0x0000
    410015f0:	002e                	.insn	2, 0x002e
    410015f2:	0000                	.insn	2, 0x0000
    410015f4:	0022                	.insn	2, 0x0022
    410015f6:	0000                	.insn	2, 0x0000
    410015f8:	00000017          	auipc	x0,0x0
    410015fc:	0018                	.insn	2, 0x0018
    410015fe:	0000                	.insn	2, 0x0000
    41001600:	0001                	.insn	2, 0x0001
    41001602:	0000                	.insn	2, 0x0000
    41001604:	00000027          	vse8.v	v0,(x0),v0.t
    41001608:	0001                	.insn	2, 0x0001
    4100160a:	0000                	.insn	2, 0x0000
    4100160c:	0019                	.insn	2, 0x0019
    4100160e:	0000                	.insn	2, 0x0000
    41001610:	0010                	.insn	2, 0x0010
    41001612:	0000                	.insn	2, 0x0000
    41001614:	00000003          	lb	x0,0(x0) # 0 <ALL_4KB_PAGES>
    41001618:	0012                	.insn	2, 0x0012
    4100161a:	0000                	.insn	2, 0x0000
    4100161c:	00000037          	lui	x0,0x0
    41001620:	0035                	.insn	2, 0x0035
    41001622:	0000                	.insn	2, 0x0000
    41001624:	0000                	.insn	2, 0x0000
    41001626:	0000                	.insn	2, 0x0000
    41001628:	0020                	.insn	2, 0x0020
    4100162a:	0000                	.insn	2, 0x0000
    4100162c:	0009                	.insn	2, 0x0009
    4100162e:	0000                	.insn	2, 0x0000
    41001630:	002d                	.insn	2, 0x002d
    41001632:	0000                	.insn	2, 0x0000
    41001634:	0019                	.insn	2, 0x0019
    41001636:	0000                	.insn	2, 0x0000
    41001638:	0005                	.insn	2, 0x0005
    4100163a:	0000                	.insn	2, 0x0000
    4100163c:	0032                	.insn	2, 0x0032
    4100163e:	0000                	.insn	2, 0x0000
    41001640:	0002                	.insn	2, 0x0002
    41001642:	0000                	.insn	2, 0x0000
    41001644:	0000000b          	.insn	4, 0x000b
    41001648:	0010                	.insn	2, 0x0010
    4100164a:	0000                	.insn	2, 0x0000
    4100164c:	0032                	.insn	2, 0x0032
    4100164e:	0000                	.insn	2, 0x0000
    41001650:	00000023          	sb	x0,0(x0) # 0 <ALL_4KB_PAGES>
    41001654:	00000037          	lui	x0,0x0
    41001658:	000c                	.insn	2, 0x000c
    4100165a:	0000                	.insn	2, 0x0000
    4100165c:	0005                	.insn	2, 0x0005
    4100165e:	0000                	.insn	2, 0x0000
    41001660:	0001                	.insn	2, 0x0001
    41001662:	0000                	.insn	2, 0x0000
    41001664:	001c                	.insn	2, 0x001c
    41001666:	0000                	.insn	2, 0x0000
    41001668:	000c                	.insn	2, 0x000c
    4100166a:	0000                	.insn	2, 0x0000
    4100166c:	0030                	.insn	2, 0x0030
    4100166e:	0000                	.insn	2, 0x0000
    41001670:	0004                	.insn	2, 0x0004
    41001672:	0000                	.insn	2, 0x0000
    41001674:	0008                	.insn	2, 0x0008
    41001676:	0000                	.insn	2, 0x0000
    41001678:	0000                	.insn	2, 0x0000
    4100167a:	0000                	.insn	2, 0x0000
    4100167c:	0036                	.insn	2, 0x0036
    4100167e:	0000                	.insn	2, 0x0000
    41001680:	0030                	.insn	2, 0x0030
    41001682:	0000                	.insn	2, 0x0000
    41001684:	0026                	.insn	2, 0x0026
    41001686:	0000                	.insn	2, 0x0000
    41001688:	0021                	.insn	2, 0x0021
    4100168a:	0000                	.insn	2, 0x0000
    4100168c:	001d                	.insn	2, 0x001d
    4100168e:	0000                	.insn	2, 0x0000
    41001690:	0008                	.insn	2, 0x0008
    41001692:	0000                	.insn	2, 0x0000
    41001694:	0000002f          	.insn	4, 0x002f
    41001698:	0011                	.insn	2, 0x0011
    4100169a:	0000                	.insn	2, 0x0000
    4100169c:	00000027          	vse8.v	v0,(x0),v0.t
    410016a0:	001a                	.insn	2, 0x001a
    410016a2:	0000                	.insn	2, 0x0000
    410016a4:	0016                	.insn	2, 0x0016
    410016a6:	0000                	.insn	2, 0x0000
    410016a8:	002a                	.insn	2, 0x002a
    410016aa:	0000                	.insn	2, 0x0000
    410016ac:	00000033          	add	x0,x0,x0
    410016b0:	000c                	.insn	2, 0x000c
    410016b2:	0000                	.insn	2, 0x0000
    410016b4:	000d                	.insn	2, 0x000d
    410016b6:	0000                	.insn	2, 0x0000
    410016b8:	0014                	.insn	2, 0x0014
    410016ba:	0000                	.insn	2, 0x0000
    410016bc:	0032                	.insn	2, 0x0032
    410016be:	0000                	.insn	2, 0x0000
    410016c0:	0036                	.insn	2, 0x0036
    410016c2:	0000                	.insn	2, 0x0000
    410016c4:	00000037          	lui	x0,0x0
    410016c8:	000d                	.insn	2, 0x000d
    410016ca:	0000                	.insn	2, 0x0000
    410016cc:	0009                	.insn	2, 0x0009
    410016ce:	0000                	.insn	2, 0x0000
    410016d0:	0028                	.insn	2, 0x0028
    410016d2:	0000                	.insn	2, 0x0000
    410016d4:	0022                	.insn	2, 0x0022
    410016d6:	0000                	.insn	2, 0x0000
    410016d8:	0025                	.insn	2, 0x0025
    410016da:	0000                	.insn	2, 0x0000
    410016dc:	00000017          	auipc	x0,0x0
    410016e0:	0000002b          	.insn	4, 0x002b
    410016e4:	0018                	.insn	2, 0x0018
    410016e6:	0000                	.insn	2, 0x0000
    410016e8:	0000002b          	.insn	4, 0x002b
    410016ec:	00000023          	sb	x0,0(x0) # 0 <ALL_4KB_PAGES>
    410016f0:	00000013          	nop
    410016f4:	001c                	.insn	2, 0x001c
    410016f6:	0000                	.insn	2, 0x0000
    410016f8:	0028                	.insn	2, 0x0028
    410016fa:	0000                	.insn	2, 0x0000
    410016fc:	0015                	.insn	2, 0x0015
    410016fe:	0000                	.insn	2, 0x0000
    41001700:	0035                	.insn	2, 0x0035
    41001702:	0000                	.insn	2, 0x0000
    41001704:	0015                	.insn	2, 0x0015
    41001706:	0000                	.insn	2, 0x0000
    41001708:	0000000b          	.insn	4, 0x000b
    4100170c:	0014                	.insn	2, 0x0014
    4100170e:	0000                	.insn	2, 0x0000
    41001710:	000a                	.insn	2, 0x000a
    41001712:	0000                	.insn	2, 0x0000
    41001714:	0029                	.insn	2, 0x0029
    41001716:	0000                	.insn	2, 0x0000
    41001718:	002c                	.insn	2, 0x002c
    4100171a:	0000                	.insn	2, 0x0000
    4100171c:	002d                	.insn	2, 0x002d
    4100171e:	0000                	.insn	2, 0x0000
    41001720:	0029                	.insn	2, 0x0029
    41001722:	0000                	.insn	2, 0x0000
    41001724:	001e                	.insn	2, 0x001e
    41001726:	0000                	.insn	2, 0x0000
    41001728:	0011                	.insn	2, 0x0011
    4100172a:	0000                	.insn	2, 0x0000
    4100172c:	0020                	.insn	2, 0x0020
    4100172e:	0000                	.insn	2, 0x0000
    41001730:	0006                	.insn	2, 0x0006
    41001732:	0000                	.insn	2, 0x0000
    41001734:	00000013          	nop
    41001738:	0024                	.insn	2, 0x0024
    4100173a:	0000                	.insn	2, 0x0000
    4100173c:	0000002f          	.insn	4, 0x002f
    41001740:	002c                	.insn	2, 0x002c
    41001742:	0000                	.insn	2, 0x0000
    41001744:	0019                	.insn	2, 0x0019
    41001746:	0000                	.insn	2, 0x0000
    41001748:	002a                	.insn	2, 0x002a
    4100174a:	0000                	.insn	2, 0x0000
    4100174c:	0034                	.insn	2, 0x0034
    4100174e:	0000                	.insn	2, 0x0000
    41001750:	0000002f          	.insn	4, 0x002f
    41001754:	0028                	.insn	2, 0x0028
    41001756:	0000                	.insn	2, 0x0000
    41001758:	0026                	.insn	2, 0x0026
    4100175a:	0000                	.insn	2, 0x0000
    4100175c:	0016                	.insn	2, 0x0016
    4100175e:	0000                	.insn	2, 0x0000
    41001760:	001f 0000 0011      	.insn	6, 0x00110000001f
    41001766:	0000                	.insn	2, 0x0000
    41001768:	0021                	.insn	2, 0x0021
    4100176a:	0000                	.insn	2, 0x0000
    4100176c:	0026                	.insn	2, 0x0026
    4100176e:	0000                	.insn	2, 0x0000
    41001770:	0000000f          	fence	unknown,unknown
    41001774:	0036                	.insn	2, 0x0036
    41001776:	0000                	.insn	2, 0x0000
    41001778:	0000000b          	.insn	4, 0x000b
    4100177c:	000e                	.insn	2, 0x000e
    4100177e:	0000                	.insn	2, 0x0000
    41001780:	0000001b          	sext.w	x0,x0
    41001784:	002d                	.insn	2, 0x002d
    41001786:	0000                	.insn	2, 0x0000
    41001788:	0002                	.insn	2, 0x0002
    4100178a:	0000                	.insn	2, 0x0000
    4100178c:	00000013          	nop
    41001790:	0014                	.insn	2, 0x0014
    41001792:	0000                	.insn	2, 0x0000
    41001794:	0000000f          	fence	unknown,unknown
    41001798:	000e                	.insn	2, 0x000e
    4100179a:	0000                	.insn	2, 0x0000
    4100179c:	002c                	.insn	2, 0x002c
    4100179e:	0000                	.insn	2, 0x0000
    410017a0:	0024                	.insn	2, 0x0024
    410017a2:	0000                	.insn	2, 0x0000
    410017a4:	0020                	.insn	2, 0x0020
    410017a6:	0000                	.insn	2, 0x0000
    410017a8:	0000001b          	sext.w	x0,x0
    410017ac:	00000027          	vse8.v	v0,(x0),v0.t
    410017b0:	001f 0000 0002      	.insn	6, 0x00020000001f
    410017b6:	0000                	.insn	2, 0x0000
    410017b8:	0034                	.insn	2, 0x0034
    410017ba:	0000                	.insn	2, 0x0000
    410017bc:	0016                	.insn	2, 0x0016
    410017be:	0000                	.insn	2, 0x0000
    410017c0:	002a                	.insn	2, 0x002a
    410017c2:	0000                	.insn	2, 0x0000
    410017c4:	0025                	.insn	2, 0x0025
    410017c6:	0000                	.insn	2, 0x0000
    410017c8:	002e                	.insn	2, 0x002e
    410017ca:	0000                	.insn	2, 0x0000
    410017cc:	001f 0000 002b      	.insn	6, 0x002b0000001f
    410017d2:	0000                	.insn	2, 0x0000
    410017d4:	0021                	.insn	2, 0x0021
    410017d6:	0000                	.insn	2, 0x0000
    410017d8:	0024                	.insn	2, 0x0024
    410017da:	0000                	.insn	2, 0x0000
    410017dc:	000d                	.insn	2, 0x000d
    410017de:	0000                	.insn	2, 0x0000
    410017e0:	0031                	.insn	2, 0x0031
    410017e2:	0000                	.insn	2, 0x0000
    410017e4:	00000003          	lb	x0,0(x0) # 0 <ALL_4KB_PAGES>
    410017e8:	0035                	.insn	2, 0x0035
    410017ea:	0000                	.insn	2, 0x0000
    410017ec:	0012                	.insn	2, 0x0012
    410017ee:	0000                	.insn	2, 0x0000
    410017f0:	00000033          	add	x0,x0,x0
    410017f4:	0015                	.insn	2, 0x0015
    410017f6:	0000                	.insn	2, 0x0000
    410017f8:	001a                	.insn	2, 0x001a
    410017fa:	0000                	.insn	2, 0x0000
    410017fc:	000e                	.insn	2, 0x000e
    410017fe:	0000                	.insn	2, 0x0000
    41001800:	001e                	.insn	2, 0x001e
    41001802:	0000                	.insn	2, 0x0000
    41001804:	00000007          	vle8.v	v0,(x0),v0.t
    41001808:	00000007          	vle8.v	v0,(x0),v0.t
    4100180c:	0004                	.insn	2, 0x0004
    4100180e:	0000                	.insn	2, 0x0000
    41001810:	0000                	.insn	2, 0x0000
	...

0000000041001814 <scheduler__test_setup_ptr>:
    41001814:	4130                	.insn	2, 0x4130
    41001816:	4101                	.insn	2, 0x4101
    41001818:	0000                	.insn	2, 0x0000
	...

000000004100181c <scheduler__test_cleanup_ptr>:
    4100181c:	1018                	.insn	2, 0x1018
    4100181e:	00004103          	lbu	x2,0(x0) # 0 <ALL_4KB_PAGES>
	...

Disassembly of section .runtime_s:

0000000041010000 <trap_handler_s__invalid_interrupt>:
    41010000:	1740006f          	j	41010174 <trap_handler_s__test_failed>

0000000041010004 <trap_handler_s__clear_all_interrupts>:
    41010004:	14401073          	csrw	sip,x0
    41010008:	10200073          	sret

000000004101000c <trap_handler_s___CLEAR_SSI>:
    4101000c:	00200293          	li	x5,2
    41010010:	1442b073          	csrc	sip,x5
    41010014:	10200073          	sret

0000000041010018 <trap_handler_s___CLEAR_MSI>:
    41010018:	00800293          	li	x5,8
    4101001c:	1442b073          	csrc	sip,x5
    41010020:	10200073          	sret

0000000041010024 <trap_handler_s___CLEAR_STI>:
    41010024:	02000293          	li	x5,32
    41010028:	1442b073          	csrc	sip,x5
    4101002c:	10200073          	sret

0000000041010030 <trap_handler_s___CLEAR_MTI>:
    41010030:	08000293          	li	x5,128
    41010034:	1442b073          	csrc	sip,x5
    41010038:	10200073          	sret

000000004101003c <trap_handler_s___CLEAR_SEI>:
    4101003c:	20000293          	li	x5,512
    41010040:	1442b073          	csrc	sip,x5
    41010044:	10200073          	sret

0000000041010048 <trap_handler_s___CLEAR_MEI>:
    41010048:	000012b7          	lui	x5,0x1
    4101004c:	8002829b          	addiw	x5,x5,-2048 # 800 <XLEN+0x7c0>
    41010050:	1442b073          	csrc	sip,x5
    41010054:	10200073          	sret

0000000041010058 <trap_handler_s___CLEAR_COI>:
    41010058:	000022b7          	lui	x5,0x2
    4101005c:	1442b073          	csrc	sip,x5
    41010060:	10200073          	sret

0000000041010064 <trap_handler_s__clear_highest_priority_interrupt>:
    41010064:	144022f3          	csrr	x5,sip
    41010068:	40500333          	neg	x6,x5
    4101006c:	0062f2b3          	and	x5,x5,x6
    41010070:	1442b073          	csrc	sip,x5
    41010074:	10200073          	sret

0000000041010078 <trap_handler_s__trap_entry>:
    41010078:	10c0006f          	j	41010184 <trap_handler_s__trap_handler>

000000004101007c <trap_handler_s__interrupt_vector_table>:
    4101007c:	f91ff06f          	j	4101000c <trap_handler_s___CLEAR_SSI>
    41010080:	f81ff06f          	j	41010000 <trap_handler_s__invalid_interrupt>
    41010084:	f95ff06f          	j	41010018 <trap_handler_s___CLEAR_MSI>
    41010088:	f79ff06f          	j	41010000 <trap_handler_s__invalid_interrupt>
    4101008c:	f99ff06f          	j	41010024 <trap_handler_s___CLEAR_STI>
    41010090:	f71ff06f          	j	41010000 <trap_handler_s__invalid_interrupt>
    41010094:	f9dff06f          	j	41010030 <trap_handler_s___CLEAR_MTI>
    41010098:	f69ff06f          	j	41010000 <trap_handler_s__invalid_interrupt>
    4101009c:	fa1ff06f          	j	4101003c <trap_handler_s___CLEAR_SEI>
    410100a0:	f61ff06f          	j	41010000 <trap_handler_s__invalid_interrupt>
    410100a4:	fa5ff06f          	j	41010048 <trap_handler_s___CLEAR_MEI>
    410100a8:	f59ff06f          	j	41010000 <trap_handler_s__invalid_interrupt>
    410100ac:	fadff06f          	j	41010058 <trap_handler_s___CLEAR_COI>
    410100b0:	f51ff06f          	j	41010000 <trap_handler_s__invalid_interrupt>
    410100b4:	f4dff06f          	j	41010000 <trap_handler_s__invalid_interrupt>
    410100b8:	fadff06f          	j	41010064 <trap_handler_s__clear_highest_priority_interrupt>
    410100bc:	fa9ff06f          	j	41010064 <trap_handler_s__clear_highest_priority_interrupt>
    410100c0:	fa5ff06f          	j	41010064 <trap_handler_s__clear_highest_priority_interrupt>
    410100c4:	fa1ff06f          	j	41010064 <trap_handler_s__clear_highest_priority_interrupt>
    410100c8:	f9dff06f          	j	41010064 <trap_handler_s__clear_highest_priority_interrupt>
    410100cc:	f99ff06f          	j	41010064 <trap_handler_s__clear_highest_priority_interrupt>
    410100d0:	f95ff06f          	j	41010064 <trap_handler_s__clear_highest_priority_interrupt>
    410100d4:	f91ff06f          	j	41010064 <trap_handler_s__clear_highest_priority_interrupt>
    410100d8:	f8dff06f          	j	41010064 <trap_handler_s__clear_highest_priority_interrupt>
    410100dc:	f89ff06f          	j	41010064 <trap_handler_s__clear_highest_priority_interrupt>
    410100e0:	f85ff06f          	j	41010064 <trap_handler_s__clear_highest_priority_interrupt>
    410100e4:	f81ff06f          	j	41010064 <trap_handler_s__clear_highest_priority_interrupt>
    410100e8:	f7dff06f          	j	41010064 <trap_handler_s__clear_highest_priority_interrupt>
    410100ec:	f79ff06f          	j	41010064 <trap_handler_s__clear_highest_priority_interrupt>
    410100f0:	f75ff06f          	j	41010064 <trap_handler_s__clear_highest_priority_interrupt>
    410100f4:	f71ff06f          	j	41010064 <trap_handler_s__clear_highest_priority_interrupt>
    410100f8:	f6dff06f          	j	41010064 <trap_handler_s__clear_highest_priority_interrupt>
    410100fc:	f69ff06f          	j	41010064 <trap_handler_s__clear_highest_priority_interrupt>
    41010100:	f65ff06f          	j	41010064 <trap_handler_s__clear_highest_priority_interrupt>
    41010104:	f61ff06f          	j	41010064 <trap_handler_s__clear_highest_priority_interrupt>
    41010108:	f5dff06f          	j	41010064 <trap_handler_s__clear_highest_priority_interrupt>
    4101010c:	f59ff06f          	j	41010064 <trap_handler_s__clear_highest_priority_interrupt>
    41010110:	f55ff06f          	j	41010064 <trap_handler_s__clear_highest_priority_interrupt>
    41010114:	f51ff06f          	j	41010064 <trap_handler_s__clear_highest_priority_interrupt>
    41010118:	f4dff06f          	j	41010064 <trap_handler_s__clear_highest_priority_interrupt>
    4101011c:	f49ff06f          	j	41010064 <trap_handler_s__clear_highest_priority_interrupt>
    41010120:	f45ff06f          	j	41010064 <trap_handler_s__clear_highest_priority_interrupt>
    41010124:	f41ff06f          	j	41010064 <trap_handler_s__clear_highest_priority_interrupt>
    41010128:	f3dff06f          	j	41010064 <trap_handler_s__clear_highest_priority_interrupt>
    4101012c:	f39ff06f          	j	41010064 <trap_handler_s__clear_highest_priority_interrupt>
    41010130:	f35ff06f          	j	41010064 <trap_handler_s__clear_highest_priority_interrupt>
    41010134:	f31ff06f          	j	41010064 <trap_handler_s__clear_highest_priority_interrupt>
    41010138:	f2dff06f          	j	41010064 <trap_handler_s__clear_highest_priority_interrupt>
    4101013c:	f29ff06f          	j	41010064 <trap_handler_s__clear_highest_priority_interrupt>
    41010140:	f25ff06f          	j	41010064 <trap_handler_s__clear_highest_priority_interrupt>
    41010144:	f21ff06f          	j	41010064 <trap_handler_s__clear_highest_priority_interrupt>
    41010148:	f1dff06f          	j	41010064 <trap_handler_s__clear_highest_priority_interrupt>
    4101014c:	f19ff06f          	j	41010064 <trap_handler_s__clear_highest_priority_interrupt>
    41010150:	f15ff06f          	j	41010064 <trap_handler_s__clear_highest_priority_interrupt>
    41010154:	f11ff06f          	j	41010064 <trap_handler_s__clear_highest_priority_interrupt>
    41010158:	f0dff06f          	j	41010064 <trap_handler_s__clear_highest_priority_interrupt>
    4101015c:	f09ff06f          	j	41010064 <trap_handler_s__clear_highest_priority_interrupt>
    41010160:	f05ff06f          	j	41010064 <trap_handler_s__clear_highest_priority_interrupt>
    41010164:	f01ff06f          	j	41010064 <trap_handler_s__clear_highest_priority_interrupt>
    41010168:	efdff06f          	j	41010064 <trap_handler_s__clear_highest_priority_interrupt>
    4101016c:	ef9ff06f          	j	41010064 <trap_handler_s__clear_highest_priority_interrupt>
    41010170:	ef5ff06f          	j	41010064 <trap_handler_s__clear_highest_priority_interrupt>

0000000041010174 <trap_handler_s__test_failed>:
    41010174:	00f00f9b          	addiw	x31,x0,15
    41010178:	01cf9f93          	slli	x31,x31,0x1c
    4101017c:	002f8f93          	addi	x31,x31,2
    41010180:	00000073          	ecall

0000000041010184 <trap_handler_s__trap_handler>:
    41010184:	142022f3          	csrr	x5,scause
    41010188:	fff0031b          	addiw	x6,x0,-1
    4101018c:	03f31313          	slli	x6,x6,0x3f
    41010190:	00537333          	and	x6,x6,x5
    41010194:	02030263          	beqz	x6,410101b8 <trap_handler_s__exception_path>

0000000041010198 <trap_handler_s__interrupt_handler>:
    41010198:	fff0031b          	addiw	x6,x0,-1
    4101019c:	03f31313          	slli	x6,x6,0x3f
    410101a0:	0062c2b3          	xor	x5,x5,x6
    410101a4:	00000317          	auipc	x6,0x0
    410101a8:	ed430313          	addi	x6,x6,-300 # 41010078 <trap_handler_s__trap_entry>
    410101ac:	00229293          	slli	x5,x5,0x2
    410101b0:	005302b3          	add	x5,x6,x5
    410101b4:	00028067          	jr	x5 # 2000 <pma_region_1_size+0x1000>

00000000410101b8 <trap_handler_s__exception_path>:
    410101b8:	14021273          	csrrw	x4,sscratch,x4
    410101bc:	00000297          	auipc	x5,0x0
    410101c0:	0cc28293          	addi	x5,x5,204 # 41010288 <trap_handler_s__trap_panic>
    410101c4:	10529073          	csrw	stvec,x5
    410101c8:	0040006f          	j	410101cc <trap_handler_s__excp_entry>

00000000410101cc <trap_handler_s__excp_entry>:
    410101cc:	14202373          	csrr	x6,scause
    410101d0:	00800293          	li	x5,8
    410101d4:	00534863          	blt	x6,x5,410101e4 <trap_handler_s__check_exception_label>
    410101d8:	00b00293          	li	x5,11
    410101dc:	0062c463          	blt	x5,x6,410101e4 <trap_handler_s__check_exception_label>
    410101e0:	0a80006f          	j	41010288 <trap_handler_s__trap_panic>

00000000410101e4 <trap_handler_s__check_exception_label>:
    410101e4:	04623c23          	sd	x6,88(x4) # 8200209c <pma_region_2_end+0x3cfc109c>
    410101e8:	141022f3          	csrr	x5,sepc
    410101ec:	02523423          	sd	x5,40(x4) # 28 <SECURE_ACCESS_PROBABILITY+0xa>
    410101f0:	01820283          	lb	x5,24(x4) # 18 <STORE_GUEST_PAGE_FAULT+0x1>
    410101f4:	00029863          	bnez	x5,41010204 <trap_handler_s__check_excp>
    410101f8:	00128293          	addi	x5,x5,1
    410101fc:	00520c23          	sb	x5,24(x4) # 18 <STORE_GUEST_PAGE_FAULT+0x1>
    41010200:	05c0006f          	j	4101025c <trap_handler_s__ecall_from_machine>

0000000041010204 <trap_handler_s__check_excp>:
    41010204:	06823283          	ld	x5,104(x4) # 68 <XLEN+0x28>
    41010208:	06023423          	sd	x0,104(x4) # 68 <XLEN+0x28>
    4101020c:	00028663          	beqz	x5,41010218 <trap_handler_s__skip_mode_check>
    41010210:	00300393          	li	x7,3
    41010214:	f67290e3          	bne	x5,x7,41010174 <trap_handler_s__test_failed>

0000000041010218 <trap_handler_s__skip_mode_check>:
    41010218:	05023283          	ld	x5,80(x4) # 50 <XLEN+0x10>
    4101021c:	04023823          	sd	x0,80(x4) # 50 <XLEN+0x10>
    41010220:	f4531ae3          	bne	x6,x5,41010174 <trap_handler_s__test_failed>
    41010224:	03823283          	ld	x5,56(x4) # 38 <SECURE_ACCESS_PROBABILITY+0x1a>
    41010228:	02023c23          	sd	x0,56(x4) # 38 <SECURE_ACCESS_PROBABILITY+0x1a>
    4101022c:	02029663          	bnez	x5,41010258 <trap_handler_s__skip_nonzero_tval_check>
    41010230:	02023303          	ld	x6,32(x4) # 20 <SECURE_ACCESS_PROBABILITY+0x2>
    41010234:	02023023          	sd	x0,32(x4) # 20 <SECURE_ACCESS_PROBABILITY+0x2>
    41010238:	02823283          	ld	x5,40(x4) # 28 <SECURE_ACCESS_PROBABILITY+0xa>
    4101023c:	02023423          	sd	x0,40(x4) # 28 <SECURE_ACCESS_PROBABILITY+0xa>
    41010240:	f2531ae3          	bne	x6,x5,41010174 <trap_handler_s__test_failed>
    41010244:	04023283          	ld	x5,64(x4) # 40 <XLEN>
    41010248:	04023023          	sd	x0,64(x4) # 40 <XLEN>
    4101024c:	00028663          	beqz	x5,41010258 <trap_handler_s__skip_nonzero_tval_check>

0000000041010250 <trap_handler_s__nonzero_tval_check>:
    41010250:	14302373          	csrr	x6,stval
    41010254:	f25310e3          	bne	x6,x5,41010174 <trap_handler_s__test_failed>

0000000041010258 <trap_handler_s__skip_nonzero_tval_check>:
    41010258:	0040006f          	j	4101025c <trap_handler_s__ecall_from_machine>

000000004101025c <trap_handler_s__ecall_from_machine>:
    4101025c:	03023283          	ld	x5,48(x4) # 30 <SECURE_ACCESS_PROBABILITY+0x12>
    41010260:	02023823          	sd	x0,48(x4) # 30 <SECURE_ACCESS_PROBABILITY+0x12>
    41010264:	07023303          	ld	x6,112(x4) # 70 <XLEN+0x30>
    41010268:	06023823          	sd	x0,112(x4) # 70 <XLEN+0x30>
    4101026c:	00031463          	bnez	x6,41010274 <trap_handler_s__skip_xepc_write>
    41010270:	14129073          	csrw	sepc,x5

0000000041010274 <trap_handler_s__skip_xepc_write>:
    41010274:	00000317          	auipc	x6,0x0
    41010278:	e0430313          	addi	x6,x6,-508 # 41010078 <trap_handler_s__trap_entry>
    4101027c:	10531073          	csrw	stvec,x6
    41010280:	14021273          	csrrw	x4,sscratch,x4
    41010284:	10200073          	sret

0000000041010288 <trap_handler_s__trap_panic>:
    41010288:	00000193          	li	x3,0
    4101028c:	00f00f9b          	addiw	x31,x0,15
    41010290:	01cf9f93          	slli	x31,x31,0x1c
    41010294:	002f8f93          	addi	x31,x31,2
    41010298:	00000073          	ecall

Disassembly of section .code:

0000000041014100 <passed>:
    41014100:	436002b7          	lui	x5,0x43600
    41014104:	0182829b          	addiw	x5,x5,24 # 43600018 <os_passed_addr>
    41014108:	0002b303          	ld	x6,0(x5)
    4101410c:	00030067          	jr	x6

0000000041014110 <failed>:
    41014110:	436002b7          	lui	x5,0x43600
    41014114:	0202829b          	addiw	x5,x5,32 # 43600020 <os_failed_addr>
    41014118:	0002b303          	ld	x6,0(x5)
    4101411c:	00030067          	jr	x6

0000000041014120 <end_test>:
    41014120:	436002b7          	lui	x5,0x43600
    41014124:	0282829b          	addiw	x5,x5,40 # 43600028 <os_end_test_addr>
    41014128:	0002b303          	ld	x6,0(x5)
    4101412c:	00030067          	jr	x6

0000000041014130 <test_setup>:
    41014130:	436002b7          	lui	x5,0x43600
    41014134:	0182829b          	addiw	x5,x5,24 # 43600018 <os_passed_addr>
    41014138:	0002b303          	ld	x6,0(x5)
    4101413c:	00030067          	jr	x6

0000000041014140 <SID_ZKT_02>:
    41014140:	43672137          	lui	x2,0x43672
    41014144:	000012b7          	lui	x5,0x1
    41014148:	00510133          	add	x2,x2,x5
    4101414c:	ff017113          	andi	x2,x2,-16
    41014150:	00000393          	li	x7,0
    41014154:	c01025f3          	rdtime	x11
    41014158:	c00026f3          	rdcycle	x13
    4101415c:	c0202773          	rdinstret	x14
    41014160:	00798517          	auipc	x10,0x798
    41014164:	006cdc97          	auipc	x25,0x6cd
    41014168:	00076397          	auipc	x7,0x76
    4101416c:	000be917          	auipc	x18,0xbe
    41014170:	000b0e97          	auipc	x29,0xb0
    41014174:	002e6e97          	auipc	x29,0x2e6
    41014178:	006b2417          	auipc	x8,0x6b2
    4101417c:	0015da17          	auipc	x20,0x15d
    41014180:	005e6a97          	auipc	x21,0x5e6
    41014184:	0067ba97          	auipc	x21,0x67b
    41014188:	0055ef97          	auipc	x31,0x55e
    4101418c:	006d7617          	auipc	x12,0x6d7
    41014190:	0027ac17          	auipc	x24,0x27a
    41014194:	00206797          	auipc	x15,0x206
    41014198:	004dba97          	auipc	x21,0x4db
    4101419c:	001b5d17          	auipc	x26,0x1b5
    410141a0:	004ddc17          	auipc	x24,0x4dd
    410141a4:	0004c797          	auipc	x15,0x4c
    410141a8:	004a9797          	auipc	x15,0x4a9
    410141ac:	00576c97          	auipc	x25,0x576
    410141b0:	00147e17          	auipc	x28,0x147
    410141b4:	00375c97          	auipc	x25,0x375
    410141b8:	0051e417          	auipc	x8,0x51e
    410141bc:	00328f17          	auipc	x30,0x328
    410141c0:	00670d17          	auipc	x26,0x670
    410141c4:	005cb317          	auipc	x6,0x5cb
    410141c8:	006e4b17          	auipc	x22,0x6e4
    410141cc:	007f8817          	auipc	x16,0x7f8
    410141d0:	00415a97          	auipc	x21,0x415
    410141d4:	0079b797          	auipc	x15,0x79b
    410141d8:	002fc517          	auipc	x10,0x2fc
    410141dc:	0045db97          	auipc	x23,0x45d
    410141e0:	0077f317          	auipc	x6,0x77f
    410141e4:	00392997          	auipc	x19,0x392
    410141e8:	00407f97          	auipc	x31,0x407
    410141ec:	00228397          	auipc	x7,0x228
    410141f0:	00738917          	auipc	x18,0x738
    410141f4:	0004c497          	auipc	x9,0x4c
    410141f8:	006fac17          	auipc	x24,0x6fa
    410141fc:	0003b417          	auipc	x8,0x3b
    41014200:	002eca17          	auipc	x20,0x2ec
    41014204:	003bbf17          	auipc	x30,0x3bb
    41014208:	00777897          	auipc	x17,0x777
    4101420c:	0028f917          	auipc	x18,0x28f
    41014210:	00746897          	auipc	x17,0x746
    41014214:	0030df97          	auipc	x31,0x30d
    41014218:	00366397          	auipc	x7,0x366
    4101421c:	00725797          	auipc	x15,0x725
    41014220:	00715f17          	auipc	x30,0x715
    41014224:	00437397          	auipc	x7,0x437
    41014228:	00153997          	auipc	x19,0x153
    4101422c:	0047eb17          	auipc	x22,0x47e
    41014230:	0016e997          	auipc	x19,0x16e
    41014234:	001e6817          	auipc	x16,0x1e6
    41014238:	001dba17          	auipc	x20,0x1db
    4101423c:	00033917          	auipc	x18,0x33
    41014240:	0016cf17          	auipc	x30,0x16c
    41014244:	0029cd97          	auipc	x27,0x29c
    41014248:	00166817          	auipc	x16,0x166
    4101424c:	0011aa17          	auipc	x20,0x11a
    41014250:	00417617          	auipc	x12,0x417
    41014254:	00417797          	auipc	x15,0x417
    41014258:	002e3917          	auipc	x18,0x2e3
    4101425c:	0041f817          	auipc	x16,0x41f
    41014260:	00568517          	auipc	x10,0x568
    41014264:	0047dd17          	auipc	x26,0x47d
    41014268:	00177517          	auipc	x10,0x177
    4101426c:	007f9d97          	auipc	x27,0x7f9
    41014270:	00729397          	auipc	x7,0x729
    41014274:	00393e97          	auipc	x29,0x393
    41014278:	00662917          	auipc	x18,0x662
    4101427c:	00354b97          	auipc	x23,0x354
    41014280:	005e3397          	auipc	x7,0x5e3
    41014284:	00436f17          	auipc	x30,0x436
    41014288:	00743b17          	auipc	x22,0x743
    4101428c:	00747b17          	auipc	x22,0x747
    41014290:	0061d617          	auipc	x12,0x61d
    41014294:	002ec997          	auipc	x19,0x2ec
    41014298:	00654e17          	auipc	x28,0x654
    4101429c:	004c2997          	auipc	x19,0x4c2
    410142a0:	002d7d97          	auipc	x27,0x2d7
    410142a4:	002e8497          	auipc	x9,0x2e8
    410142a8:	007dcc17          	auipc	x24,0x7dc
    410142ac:	006e2d17          	auipc	x26,0x6e2
    410142b0:	007b4a17          	auipc	x20,0x7b4
    410142b4:	00393d17          	auipc	x26,0x393
    410142b8:	0014dc97          	auipc	x25,0x14d
    410142bc:	007a6617          	auipc	x12,0x7a6
    410142c0:	0060b317          	auipc	x6,0x60b
    410142c4:	00335e17          	auipc	x28,0x335
    410142c8:	005bb617          	auipc	x12,0x5bb
    410142cc:	005eb497          	auipc	x9,0x5eb
    410142d0:	003b3d97          	auipc	x27,0x3b3
    410142d4:	00540517          	auipc	x10,0x540
    410142d8:	00441e17          	auipc	x28,0x441
    410142dc:	00202497          	auipc	x9,0x202
    410142e0:	003ee897          	auipc	x17,0x3ee
    410142e4:	0023ea97          	auipc	x21,0x23e
    410142e8:	00769b17          	auipc	x22,0x769
    410142ec:	003ff417          	auipc	x8,0x3ff
    410142f0:	c0102d73          	rdtime	x26
    410142f4:	c0002c73          	rdcycle	x24
    410142f8:	c0202873          	rdinstret	x16
    410142fc:	40bd09b3          	sub	x19,x26,x11
    41014300:	40dc08b3          	sub	x17,x24,x13
    41014304:	40e80f33          	sub	x30,x16,x14
    41014308:	00000913          	li	x18,0
    4101430c:	c01029f3          	rdtime	x19
    41014310:	c0002e73          	rdcycle	x28
    41014314:	c0202af3          	rdinstret	x21
    41014318:	00404917          	auipc	x18,0x404
    4101431c:	00422597          	auipc	x11,0x422
    41014320:	006a9397          	auipc	x7,0x6a9
    41014324:	00661b17          	auipc	x22,0x661
    41014328:	002d7d17          	auipc	x26,0x2d7
    4101432c:	0054eb97          	auipc	x23,0x54e
    41014330:	00713517          	auipc	x10,0x713
    41014334:	003a6a17          	auipc	x20,0x3a6
    41014338:	00735c97          	auipc	x25,0x735
    4101433c:	0073ce97          	auipc	x29,0x73c
    41014340:	003b3517          	auipc	x10,0x3b3
    41014344:	002d1717          	auipc	x14,0x2d1
    41014348:	0048de97          	auipc	x29,0x48d
    4101434c:	005d1917          	auipc	x18,0x5d1
    41014350:	0075f417          	auipc	x8,0x75f
    41014354:	00478417          	auipc	x8,0x478
    41014358:	005cd617          	auipc	x12,0x5cd
    4101435c:	003aaf97          	auipc	x31,0x3aa
    41014360:	003e7917          	auipc	x18,0x3e7
    41014364:	00548f97          	auipc	x31,0x548
    41014368:	001c9c97          	auipc	x25,0x1c9
    4101436c:	00789317          	auipc	x6,0x789
    41014370:	0029b317          	auipc	x6,0x29b
    41014374:	00687717          	auipc	x14,0x687
    41014378:	0059b397          	auipc	x7,0x59b
    4101437c:	006b1b97          	auipc	x23,0x6b1
    41014380:	00157417          	auipc	x8,0x157
    41014384:	00706c17          	auipc	x24,0x706
    41014388:	00746517          	auipc	x10,0x746
    4101438c:	004f1b17          	auipc	x22,0x4f1
    41014390:	00228317          	auipc	x6,0x228
    41014394:	00632397          	auipc	x7,0x632
    41014398:	0074d717          	auipc	x14,0x74d
    4101439c:	003d9f97          	auipc	x31,0x3d9
    410143a0:	0027c417          	auipc	x8,0x27c
    410143a4:	00270f97          	auipc	x31,0x270
    410143a8:	007aba17          	auipc	x20,0x7ab
    410143ac:	00667c97          	auipc	x25,0x667
    410143b0:	005a9597          	auipc	x11,0x5a9
    410143b4:	006a9817          	auipc	x16,0x6a9
    410143b8:	0040b397          	auipc	x7,0x40b
    410143bc:	00482c97          	auipc	x25,0x482
    410143c0:	00427617          	auipc	x12,0x427
    410143c4:	00412a17          	auipc	x20,0x412
    410143c8:	00539317          	auipc	x6,0x539
    410143cc:	004f0317          	auipc	x6,0x4f0
    410143d0:	004b7a17          	auipc	x20,0x4b7
    410143d4:	00343a17          	auipc	x20,0x343
    410143d8:	00281497          	auipc	x9,0x281
    410143dc:	005dbc97          	auipc	x25,0x5db
    410143e0:	001ac617          	auipc	x12,0x1ac
    410143e4:	003ec897          	auipc	x17,0x3ec
    410143e8:	0041b697          	auipc	x13,0x41b
    410143ec:	002f1417          	auipc	x8,0x2f1
    410143f0:	0077c917          	auipc	x18,0x77c
    410143f4:	0057cc97          	auipc	x25,0x57c
    410143f8:	004ffe97          	auipc	x29,0x4ff
    410143fc:	00711317          	auipc	x6,0x711
    41014400:	0009df17          	auipc	x30,0x9d
    41014404:	00649d17          	auipc	x26,0x649
    41014408:	00693f17          	auipc	x30,0x693
    4101440c:	002be317          	auipc	x6,0x2be
    41014410:	005d1d97          	auipc	x27,0x5d1
    41014414:	00014b17          	auipc	x22,0x14
    41014418:	00745a17          	auipc	x20,0x745
    4101441c:	00688697          	auipc	x13,0x688
    41014420:	0018a817          	auipc	x16,0x18a
    41014424:	007fc817          	auipc	x16,0x7fc
    41014428:	005f8697          	auipc	x13,0x5f8
    4101442c:	000dc817          	auipc	x16,0xdc
    41014430:	0007b897          	auipc	x17,0x7b
    41014434:	0049bd17          	auipc	x26,0x49b
    41014438:	0053cf97          	auipc	x31,0x53c
    4101443c:	00067b17          	auipc	x22,0x67
    41014440:	00232417          	auipc	x8,0x232
    41014444:	004be517          	auipc	x10,0x4be
    41014448:	001d3597          	auipc	x11,0x1d3
    4101444c:	00578d17          	auipc	x26,0x578
    41014450:	00704a17          	auipc	x20,0x704
    41014454:	00756717          	auipc	x14,0x756
    41014458:	000dc317          	auipc	x6,0xdc
    4101445c:	0060b417          	auipc	x8,0x60b
    41014460:	00430c97          	auipc	x25,0x430
    41014464:	0011ac97          	auipc	x25,0x11a
    41014468:	006d7597          	auipc	x11,0x6d7
    4101446c:	00223f17          	auipc	x30,0x223
    41014470:	001f8617          	auipc	x12,0x1f8
    41014474:	0069c917          	auipc	x18,0x69c
    41014478:	001b2a17          	auipc	x20,0x1b2
    4101447c:	0078fa17          	auipc	x20,0x78f
    41014480:	0070e697          	auipc	x13,0x70e
    41014484:	0007ed17          	auipc	x26,0x7e
    41014488:	00365517          	auipc	x10,0x365
    4101448c:	00732917          	auipc	x18,0x732
    41014490:	005bf497          	auipc	x9,0x5bf
    41014494:	00616597          	auipc	x11,0x616
    41014498:	00044f17          	auipc	x30,0x44
    4101449c:	00077797          	auipc	x15,0x77
    410144a0:	002e9497          	auipc	x9,0x2e9
    410144a4:	002e4c97          	auipc	x25,0x2e4
    410144a8:	c0102873          	rdtime	x16
    410144ac:	c0002a73          	rdcycle	x20
    410144b0:	c02025f3          	rdinstret	x11
    410144b4:	41380c33          	sub	x24,x16,x19
    410144b8:	41ca0f33          	sub	x30,x20,x28
    410144bc:	41558333          	sub	x6,x11,x21
    410144c0:	00000513          	li	x10,0
    410144c4:	c0102473          	rdtime	x8
    410144c8:	c0002573          	rdcycle	x10
    410144cc:	c02024f3          	rdinstret	x9
    410144d0:	00163597          	auipc	x11,0x163
    410144d4:	00201817          	auipc	x16,0x201
    410144d8:	00564917          	auipc	x18,0x564
    410144dc:	00033a97          	auipc	x21,0x33
    410144e0:	000acd17          	auipc	x26,0xac
    410144e4:	000eee97          	auipc	x29,0xee
    410144e8:	007a5617          	auipc	x12,0x7a5
    410144ec:	0008da97          	auipc	x21,0x8d
    410144f0:	00036617          	auipc	x12,0x36
    410144f4:	00056717          	auipc	x14,0x56
    410144f8:	005d8a17          	auipc	x20,0x5d8
    410144fc:	0075c597          	auipc	x11,0x75c
    41014500:	0002e597          	auipc	x11,0x2e
    41014504:	002ffb97          	auipc	x23,0x2ff
    41014508:	0020ee17          	auipc	x28,0x20e
    4101450c:	00108a97          	auipc	x21,0x108
    41014510:	00684a17          	auipc	x20,0x684
    41014514:	0077f617          	auipc	x12,0x77f
    41014518:	00144617          	auipc	x12,0x144
    4101451c:	005e3697          	auipc	x13,0x5e3
    41014520:	0017bf97          	auipc	x31,0x17b
    41014524:	00432397          	auipc	x7,0x432
    41014528:	0058b597          	auipc	x11,0x58b
    4101452c:	00006c17          	auipc	x24,0x6
    41014530:	00318397          	auipc	x7,0x318
    41014534:	004bac17          	auipc	x24,0x4ba
    41014538:	0005be17          	auipc	x28,0x5b
    4101453c:	0065d817          	auipc	x16,0x65d
    41014540:	007ee797          	auipc	x15,0x7ee
    41014544:	001fe617          	auipc	x12,0x1fe
    41014548:	00139e17          	auipc	x28,0x139
    4101454c:	007c7d17          	auipc	x26,0x7c7
    41014550:	0004db97          	auipc	x23,0x4d
    41014554:	0000be17          	auipc	x28,0xb
    41014558:	002c3d17          	auipc	x26,0x2c3
    4101455c:	00784e97          	auipc	x29,0x784
    41014560:	004ef797          	auipc	x15,0x4ef
    41014564:	00508e97          	auipc	x29,0x508
    41014568:	005f3997          	auipc	x19,0x5f3
    4101456c:	005fed97          	auipc	x27,0x5fe
    41014570:	000ea997          	auipc	x19,0xea
    41014574:	0024c617          	auipc	x12,0x24c
    41014578:	002b5d17          	auipc	x26,0x2b5
    4101457c:	003ebf97          	auipc	x31,0x3eb
    41014580:	00042d97          	auipc	x27,0x42
    41014584:	0027ad17          	auipc	x26,0x27a
    41014588:	00399a97          	auipc	x21,0x399
    4101458c:	0046ce97          	auipc	x29,0x46c
    41014590:	00623697          	auipc	x13,0x623
    41014594:	004dac97          	auipc	x25,0x4da
    41014598:	005ee797          	auipc	x15,0x5ee
    4101459c:	00060897          	auipc	x17,0x60
    410145a0:	0073aa97          	auipc	x21,0x73a
    410145a4:	0021fc97          	auipc	x25,0x21f
    410145a8:	0060e717          	auipc	x14,0x60e
    410145ac:	00339a97          	auipc	x21,0x339
    410145b0:	006e9697          	auipc	x13,0x6e9
    410145b4:	004fc617          	auipc	x12,0x4fc
    410145b8:	005a7797          	auipc	x15,0x5a7
    410145bc:	0013de17          	auipc	x28,0x13d
    410145c0:	003cba97          	auipc	x21,0x3cb
    410145c4:	007aec97          	auipc	x25,0x7ae
    410145c8:	001d0b17          	auipc	x22,0x1d0
    410145cc:	000c2597          	auipc	x11,0xc2
    410145d0:	0054cb17          	auipc	x22,0x54c
    410145d4:	00582897          	auipc	x17,0x582
    410145d8:	0028ab97          	auipc	x23,0x28a
    410145dc:	006b8617          	auipc	x12,0x6b8
    410145e0:	000d3d17          	auipc	x26,0xd3
    410145e4:	00034d17          	auipc	x26,0x34
    410145e8:	00398817          	auipc	x16,0x398
    410145ec:	00651a17          	auipc	x20,0x651
    410145f0:	00702d97          	auipc	x27,0x702
    410145f4:	00798b97          	auipc	x23,0x798
    410145f8:	00108597          	auipc	x11,0x108
    410145fc:	00428617          	auipc	x12,0x428
    41014600:	004b0e17          	auipc	x28,0x4b0
    41014604:	00642f97          	auipc	x31,0x642
    41014608:	00327917          	auipc	x18,0x327
    4101460c:	003e8b17          	auipc	x22,0x3e8
    41014610:	00421e17          	auipc	x28,0x421
    41014614:	002a2b97          	auipc	x23,0x2a2
    41014618:	00129397          	auipc	x7,0x129
    4101461c:	00701a17          	auipc	x20,0x701
    41014620:	007b0997          	auipc	x19,0x7b0
    41014624:	002bdb97          	auipc	x23,0x2bd
    41014628:	00215617          	auipc	x12,0x215
    4101462c:	0021b997          	auipc	x19,0x21b
    41014630:	004dcb17          	auipc	x22,0x4dc
    41014634:	007c6c97          	auipc	x25,0x7c6
    41014638:	0035ed97          	auipc	x27,0x35e
    4101463c:	0053cb97          	auipc	x23,0x53c
    41014640:	00027b97          	auipc	x23,0x27
    41014644:	0059b797          	auipc	x15,0x59b
    41014648:	00479997          	auipc	x19,0x479
    4101464c:	007afd97          	auipc	x27,0x7af
    41014650:	00122f97          	auipc	x31,0x122
    41014654:	00560717          	auipc	x14,0x560
    41014658:	00077917          	auipc	x18,0x77
    4101465c:	00209a17          	auipc	x20,0x209
    41014660:	c01023f3          	rdtime	x7
    41014664:	c0002b73          	rdcycle	x22
    41014668:	c0202673          	rdinstret	x12
    4101466c:	408389b3          	sub	x19,x7,x8
    41014670:	40ab0a33          	sub	x20,x22,x10
    41014674:	409606b3          	sub	x13,x12,x9
    41014678:	014f0a63          	beq	x30,x20,4101468c <pass_label_0>
    4101467c:	436003b7          	lui	x7,0x43600
    41014680:	0083839b          	addiw	x7,x7,8 # 43600008 <failed_addr>
    41014684:	0003b603          	ld	x12,0(x7)
    41014688:	00060067          	jr	x12 # 41229628 <end_super_label+0x14618>

000000004101468c <pass_label_0>:
    4101468c:	00d30a63          	beq	x6,x13,410146a0 <SID_ZKT_02_passed>
    41014690:	436005b7          	lui	x11,0x43600
    41014694:	0085859b          	addiw	x11,x11,8 # 43600008 <failed_addr>
    41014698:	0005b703          	ld	x14,0(x11)
    4101469c:	00070067          	jr	x14 # 41574654 <end_super_label+0x35f644>

00000000410146a0 <SID_ZKT_02_passed>:
    410146a0:	436002b7          	lui	x5,0x43600
    410146a4:	0182829b          	addiw	x5,x5,24 # 43600018 <os_passed_addr>
    410146a8:	0002b303          	ld	x6,0(x5)
    410146ac:	00030067          	jr	x6 # 410f0458 <__section_code_super_92+0x458>

00000000410146b0 <SID_ZKT_03_ADDI>:
    410146b0:	44366137          	lui	x2,0x44366
    410146b4:	000012b7          	lui	x5,0x1
    410146b8:	00510133          	add	x2,x2,x5
    410146bc:	ff017113          	andi	x2,x2,-16
    410146c0:	00000813          	li	x16,0
    410146c4:	c0102e73          	rdtime	x28
    410146c8:	c0002bf3          	rdcycle	x23
    410146cc:	c02026f3          	rdinstret	x13
    410146d0:	4c880513          	addi	x10,x16,1224 # 413acab0 <end_super_label+0x197aa0>
    410146d4:	44150a13          	addi	x20,x10,1089 # 413798c9 <end_super_label+0x1648b9>
    410146d8:	6cca0d13          	addi	x26,x20,1740 # 4121dd28 <end_super_label+0x8d18>
    410146dc:	6d1d0313          	addi	x6,x26,1745 # 41048cb5 <__section__code_52+0xcb5>
    410146e0:	13530613          	addi	x12,x6,309
    410146e4:	66560813          	addi	x16,x12,1637
    410146e8:	40c80593          	addi	x11,x16,1036
    410146ec:	50a58993          	addi	x19,x11,1290
    410146f0:	0b998713          	addi	x14,x19,185 # 4148d701 <end_super_label+0x2786f1>
    410146f4:	27970513          	addi	x10,x14,633
    410146f8:	05650a93          	addi	x21,x10,86
    410146fc:	1e0a8413          	addi	x8,x21,480 # 413df7a0 <end_super_label+0x1ca790>
    41014700:	79b40713          	addi	x14,x8,1947 # 4161fbf7 <end_super_label+0x40abe7>
    41014704:	3ac70c13          	addi	x24,x14,940
    41014708:	480c0413          	addi	x8,x24,1152 # 414ce9b4 <end_super_label+0x2b99a4>
    4101470c:	1de40d13          	addi	x26,x8,478
    41014710:	431d0f93          	addi	x31,x26,1073
    41014714:	23bf8c13          	addi	x24,x31,571 # 4113688b <__section_code_user_34+0x88b>
    41014718:	080c0d13          	addi	x26,x24,128
    4101471c:	7acd0613          	addi	x12,x26,1964
    41014720:	0e860613          	addi	x12,x12,232
    41014724:	0e860a93          	addi	x21,x12,232
    41014728:	56aa8713          	addi	x14,x21,1386
    4101472c:	68f70a93          	addi	x21,x14,1679
    41014730:	64fa8b13          	addi	x22,x21,1615
    41014734:	30bb0f93          	addi	x31,x22,779 # 414f093b <end_super_label+0x2db92b>
    41014738:	6ddf8893          	addi	x17,x31,1757
    4101473c:	2ed88c93          	addi	x25,x17,749 # 415968c1 <end_super_label+0x3818b1>
    41014740:	1b8c8f93          	addi	x31,x25,440 # 417da7ec <end_super_label+0x5c57dc>
    41014744:	28ff8f13          	addi	x30,x31,655
    41014748:	2dcf0e93          	addi	x29,x30,732 # 41058774 <__section__code_68+0x774>
    4101474c:	0a1e8c13          	addi	x24,x29,161 # 4148062d <end_super_label+0x26b61d>
    41014750:	2b0c0313          	addi	x6,x24,688
    41014754:	3ab30513          	addi	x10,x6,939
    41014758:	2e950d13          	addi	x26,x10,745
    4101475c:	157d0b13          	addi	x22,x26,343
    41014760:	3feb0d93          	addi	x27,x22,1022
    41014764:	38cd8c93          	addi	x25,x27,908 # 417c39d8 <end_super_label+0x5ae9c8>
    41014768:	6f7c8a13          	addi	x20,x25,1783
    4101476c:	258a0f93          	addi	x31,x20,600
    41014770:	3b3f8a93          	addi	x21,x31,947
    41014774:	72ba8713          	addi	x14,x21,1835
    41014778:	11570913          	addi	x18,x14,277
    4101477c:	76290c93          	addi	x25,x18,1890 # 4108bdba <__section__code_119+0xdba>
    41014780:	5c2c8813          	addi	x16,x25,1474
    41014784:	38c80d93          	addi	x27,x16,908
    41014788:	7f0d8f13          	addi	x30,x27,2032
    4101478c:	520f0c13          	addi	x24,x30,1312
    41014790:	1bdc0713          	addi	x14,x24,445
    41014794:	77270a93          	addi	x21,x14,1906
    41014798:	232a8e93          	addi	x29,x21,562
    4101479c:	29fe8893          	addi	x17,x29,671
    410147a0:	14888913          	addi	x18,x17,328
    410147a4:	0ce90913          	addi	x18,x18,206
    410147a8:	71d90993          	addi	x19,x18,1821
    410147ac:	1ea98993          	addi	x19,x19,490
    410147b0:	3c398713          	addi	x14,x19,963
    410147b4:	18770993          	addi	x19,x14,391
    410147b8:	60798593          	addi	x11,x19,1543
    410147bc:	57058393          	addi	x7,x11,1392
    410147c0:	6c838713          	addi	x14,x7,1736
    410147c4:	30070893          	addi	x17,x14,768
    410147c8:	17e88d13          	addi	x26,x17,382
    410147cc:	2dcd0b13          	addi	x22,x26,732
    410147d0:	122b0a13          	addi	x20,x22,290
    410147d4:	65fa0a93          	addi	x21,x20,1631
    410147d8:	118a8893          	addi	x17,x21,280
    410147dc:	1e088793          	addi	x15,x17,480
    410147e0:	22978a93          	addi	x21,x15,553 # 415af86d <end_super_label+0x39a85d>
    410147e4:	67aa8513          	addi	x10,x21,1658
    410147e8:	46a50793          	addi	x15,x10,1130
    410147ec:	51378493          	addi	x9,x15,1299
    410147f0:	30948c13          	addi	x24,x9,777 # 412fd7a9 <end_super_label+0xe8799>
    410147f4:	336c0c13          	addi	x24,x24,822
    410147f8:	67ac0b13          	addi	x22,x24,1658
    410147fc:	699b0a93          	addi	x21,x22,1689
    41014800:	601a8613          	addi	x12,x21,1537
    41014804:	2bf60e93          	addi	x29,x12,703
    41014808:	241e8813          	addi	x16,x29,577
    4101480c:	70a80a93          	addi	x21,x16,1802
    41014810:	5c5a8713          	addi	x14,x21,1477
    41014814:	76b70313          	addi	x6,x14,1899
    41014818:	4c530313          	addi	x6,x6,1221
    4101481c:	40830993          	addi	x19,x6,1032
    41014820:	4a898d93          	addi	x27,x19,1192
    41014824:	588d8913          	addi	x18,x27,1416
    41014828:	5de90993          	addi	x19,x18,1502
    4101482c:	79a98993          	addi	x19,x19,1946
    41014830:	29398a93          	addi	x21,x19,659
    41014834:	5f3a8393          	addi	x7,x21,1523
    41014838:	33538c93          	addi	x25,x7,821
    4101483c:	605c8393          	addi	x7,x25,1541
    41014840:	5b838813          	addi	x16,x7,1464
    41014844:	6f780c93          	addi	x25,x16,1783
    41014848:	5a5c8493          	addi	x9,x25,1445
    4101484c:	77f48893          	addi	x17,x9,1919
    41014850:	51188a13          	addi	x20,x17,1297
    41014854:	60aa0e93          	addi	x29,x20,1546
    41014858:	7c4e8e93          	addi	x29,x29,1988
    4101485c:	7d8e8b13          	addi	x22,x29,2008
    41014860:	c0102873          	rdtime	x16
    41014864:	c00028f3          	rdcycle	x17
    41014868:	c0202f73          	rdinstret	x30
    4101486c:	41c80ab3          	sub	x21,x16,x28
    41014870:	417883b3          	sub	x7,x17,x23
    41014874:	40df0bb3          	sub	x23,x30,x13
    41014878:	00000693          	li	x13,0
    4101487c:	c0102ff3          	rdtime	x31
    41014880:	c0002a73          	rdcycle	x20
    41014884:	c0202df3          	rdinstret	x27
    41014888:	5be68b93          	addi	x23,x13,1470 # 416fdb6e <end_super_label+0x4e8b5e>
    4101488c:	258b8513          	addi	x10,x23,600 # 4103b898 <__section__code_39+0x898>
    41014890:	44450693          	addi	x13,x10,1092
    41014894:	4fd68693          	addi	x13,x13,1277
    41014898:	51b68913          	addi	x18,x13,1307
    4101489c:	56090413          	addi	x8,x18,1376
    410148a0:	09740313          	addi	x6,x8,151
    410148a4:	2f330a93          	addi	x21,x6,755
    410148a8:	27aa8b13          	addi	x22,x21,634
    410148ac:	32cb0493          	addi	x9,x22,812
    410148b0:	3e248913          	addi	x18,x9,994
    410148b4:	16890393          	addi	x7,x18,360
    410148b8:	21338a93          	addi	x21,x7,531
    410148bc:	7aca8413          	addi	x8,x21,1964
    410148c0:	73840993          	addi	x19,x8,1848
    410148c4:	2d798513          	addi	x10,x19,727
    410148c8:	38950613          	addi	x12,x10,905
    410148cc:	3d360613          	addi	x12,x12,979
    410148d0:	0b660c93          	addi	x25,x12,182
    410148d4:	729c8493          	addi	x9,x25,1833
    410148d8:	76648913          	addi	x18,x9,1894
    410148dc:	18090693          	addi	x13,x18,384
    410148e0:	28768b13          	addi	x22,x13,647
    410148e4:	7b2b0993          	addi	x19,x22,1970
    410148e8:	30b98913          	addi	x18,x19,779
    410148ec:	10790893          	addi	x17,x18,263
    410148f0:	7c188b13          	addi	x22,x17,1985
    410148f4:	03cb0e13          	addi	x28,x22,60
    410148f8:	0d8e0993          	addi	x19,x28,216 # 414356e8 <end_super_label+0x2206d8>
    410148fc:	2d198c93          	addi	x25,x19,721
    41014900:	159c8613          	addi	x12,x25,345
    41014904:	2e260813          	addi	x16,x12,738
    41014908:	0a080913          	addi	x18,x16,160
    4101490c:	75a90993          	addi	x19,x18,1882
    41014910:	70998a93          	addi	x21,x19,1801
    41014914:	713a8393          	addi	x7,x21,1811
    41014918:	5de38793          	addi	x15,x7,1502
    4101491c:	61a78f13          	addi	x30,x15,1562
    41014920:	539f0893          	addi	x17,x30,1337
    41014924:	38088393          	addi	x7,x17,896
    41014928:	01438f13          	addi	x30,x7,20
    4101492c:	45af0813          	addi	x16,x30,1114
    41014930:	29380413          	addi	x8,x16,659
    41014934:	1e740393          	addi	x7,x8,487
    41014938:	69c38813          	addi	x16,x7,1692
    4101493c:	6ae80393          	addi	x7,x16,1710
    41014940:	4c438893          	addi	x17,x7,1220
    41014944:	32188e93          	addi	x29,x17,801
    41014948:	457e8893          	addi	x17,x29,1111
    4101494c:	24988b13          	addi	x22,x17,585
    41014950:	3c3b0513          	addi	x10,x22,963
    41014954:	51d50813          	addi	x16,x10,1309
    41014958:	73780c93          	addi	x25,x16,1847
    4101495c:	137c8713          	addi	x14,x25,311
    41014960:	2e370593          	addi	x11,x14,739
    41014964:	28a58d13          	addi	x26,x11,650
    41014968:	1a0d0613          	addi	x12,x26,416
    4101496c:	76b60f13          	addi	x30,x12,1899
    41014970:	3fff0b93          	addi	x23,x30,1023
    41014974:	0c5b8393          	addi	x7,x23,197
    41014978:	7c738593          	addi	x11,x7,1991
    4101497c:	12658793          	addi	x15,x11,294
    41014980:	64878593          	addi	x11,x15,1608
    41014984:	1a558893          	addi	x17,x11,421
    41014988:	2a988713          	addi	x14,x17,681
    4101498c:	20570493          	addi	x9,x14,517
    41014990:	12448d13          	addi	x26,x9,292
    41014994:	35fd0b93          	addi	x23,x26,863
    41014998:	2e5b8b93          	addi	x23,x23,741
    4101499c:	203b8c13          	addi	x24,x23,515
    410149a0:	0b9c0513          	addi	x10,x24,185
    410149a4:	2c050493          	addi	x9,x10,704
    410149a8:	18348d13          	addi	x26,x9,387
    410149ac:	1fbd0993          	addi	x19,x26,507
    410149b0:	5ab98e93          	addi	x29,x19,1451
    410149b4:	1eee8a93          	addi	x21,x29,494
    410149b8:	5d6a8b13          	addi	x22,x21,1494
    410149bc:	4e5b0993          	addi	x19,x22,1253
    410149c0:	06298893          	addi	x17,x19,98
    410149c4:	2b488e13          	addi	x28,x17,692
    410149c8:	788e0993          	addi	x19,x28,1928
    410149cc:	2fe98a93          	addi	x21,x19,766
    410149d0:	532a8513          	addi	x10,x21,1330
    410149d4:	62750393          	addi	x7,x10,1575
    410149d8:	4e738a93          	addi	x21,x7,1255
    410149dc:	081a8913          	addi	x18,x21,129
    410149e0:	6e890b13          	addi	x22,x18,1768
    410149e4:	129b0893          	addi	x17,x22,297
    410149e8:	16e88793          	addi	x15,x17,366
    410149ec:	6d178c93          	addi	x25,x15,1745
    410149f0:	084c8913          	addi	x18,x25,132
    410149f4:	37390c13          	addi	x24,x18,883
    410149f8:	38fc0713          	addi	x14,x24,911
    410149fc:	63d70593          	addi	x11,x14,1597
    41014a00:	22f58913          	addi	x18,x11,559
    41014a04:	11290913          	addi	x18,x18,274
    41014a08:	29490e13          	addi	x28,x18,660
    41014a0c:	432e0c13          	addi	x24,x28,1074
    41014a10:	4a0c0593          	addi	x11,x24,1184
    41014a14:	6c658593          	addi	x11,x11,1734
    41014a18:	c01023f3          	rdtime	x7
    41014a1c:	c0002cf3          	rdcycle	x25
    41014a20:	c0202b73          	rdinstret	x22
    41014a24:	41f384b3          	sub	x9,x7,x31
    41014a28:	414c83b3          	sub	x7,x25,x20
    41014a2c:	41bb0bb3          	sub	x23,x22,x27
    41014a30:	00000593          	li	x11,0
    41014a34:	c01026f3          	rdtime	x13
    41014a38:	c0002573          	rdcycle	x10
    41014a3c:	c02029f3          	rdinstret	x19
    41014a40:	0f158f13          	addi	x30,x11,241
    41014a44:	2b7f0593          	addi	x11,x30,695
    41014a48:	53258c13          	addi	x24,x11,1330
    41014a4c:	628c0493          	addi	x9,x24,1576
    41014a50:	5b248613          	addi	x12,x9,1458
    41014a54:	4e560d93          	addi	x27,x12,1253
    41014a58:	7abd8a13          	addi	x20,x27,1963
    41014a5c:	32ba0c93          	addi	x25,x20,811
    41014a60:	1d5c8c13          	addi	x24,x25,469
    41014a64:	7fdc0b13          	addi	x22,x24,2045
    41014a68:	071b0913          	addi	x18,x22,113
    41014a6c:	32690893          	addi	x17,x18,806
    41014a70:	62488713          	addi	x14,x17,1572
    41014a74:	3cd70e13          	addi	x28,x14,973
    41014a78:	3eee0413          	addi	x8,x28,1006
    41014a7c:	4f740893          	addi	x17,x8,1271
    41014a80:	6fb88913          	addi	x18,x17,1787
    41014a84:	28b90d13          	addi	x26,x18,651
    41014a88:	45ed0913          	addi	x18,x26,1118
    41014a8c:	6b690413          	addi	x8,x18,1718
    41014a90:	4fb40313          	addi	x6,x8,1275
    41014a94:	4ca30e93          	addi	x29,x6,1226
    41014a98:	0bce8b13          	addi	x22,x29,188
    41014a9c:	4b7b0e13          	addi	x28,x22,1207
    41014aa0:	418e0713          	addi	x14,x28,1048
    41014aa4:	45270613          	addi	x12,x14,1106
    41014aa8:	55460e93          	addi	x29,x12,1364
    41014aac:	7e4e8a13          	addi	x20,x29,2020
    41014ab0:	3faa0f93          	addi	x31,x20,1018
    41014ab4:	7ecf8913          	addi	x18,x31,2028
    41014ab8:	33890613          	addi	x12,x18,824
    41014abc:	6bc60413          	addi	x8,x12,1724
    41014ac0:	58b40a13          	addi	x20,x8,1419
    41014ac4:	3a5a0e93          	addi	x29,x20,933
    41014ac8:	15de8413          	addi	x8,x29,349
    41014acc:	34e40793          	addi	x15,x8,846
    41014ad0:	31978f93          	addi	x31,x15,793
    41014ad4:	435f8c13          	addi	x24,x31,1077
    41014ad8:	3a2c0d13          	addi	x26,x24,930
    41014adc:	061d0813          	addi	x16,x26,97
    41014ae0:	70a80a93          	addi	x21,x16,1802
    41014ae4:	0e0a8793          	addi	x15,x21,224
    41014ae8:	39f78593          	addi	x11,x15,927
    41014aec:	7f958893          	addi	x17,x11,2041
    41014af0:	4be88893          	addi	x17,x17,1214
    41014af4:	10988313          	addi	x6,x17,265
    41014af8:	0f530713          	addi	x14,x6,245
    41014afc:	78270413          	addi	x8,x14,1922
    41014b00:	76140613          	addi	x12,x8,1889
    41014b04:	57360313          	addi	x6,x12,1395
    41014b08:	40330493          	addi	x9,x6,1027
    41014b0c:	75548313          	addi	x6,x9,1877
    41014b10:	16930e13          	addi	x28,x6,361
    41014b14:	0a1e0e13          	addi	x28,x28,161
    41014b18:	327e0d13          	addi	x26,x28,807
    41014b1c:	275d0b13          	addi	x22,x26,629
    41014b20:	3acb0b13          	addi	x22,x22,940
    41014b24:	665b0313          	addi	x6,x22,1637
    41014b28:	5ab30e13          	addi	x28,x6,1451
    41014b2c:	015e0c93          	addi	x25,x28,21
    41014b30:	209c8e93          	addi	x29,x25,521
    41014b34:	0dce8613          	addi	x12,x29,220
    41014b38:	55c60f93          	addi	x31,x12,1372
    41014b3c:	2d1f8d93          	addi	x27,x31,721
    41014b40:	1c6d8713          	addi	x14,x27,454
    41014b44:	16570e93          	addi	x29,x14,357
    41014b48:	036e8893          	addi	x17,x29,54
    41014b4c:	12f88613          	addi	x12,x17,303
    41014b50:	36e60913          	addi	x18,x12,878
    41014b54:	55e90e93          	addi	x29,x18,1374
    41014b58:	7e0e8313          	addi	x6,x29,2016
    41014b5c:	0bf30b13          	addi	x22,x6,191
    41014b60:	2b3b0813          	addi	x16,x22,691
    41014b64:	7c880b13          	addi	x22,x16,1992
    41014b68:	691b0f93          	addi	x31,x22,1681
    41014b6c:	534f8a93          	addi	x21,x31,1332
    41014b70:	3bca8f93          	addi	x31,x21,956
    41014b74:	068f8713          	addi	x14,x31,104
    41014b78:	6e070893          	addi	x17,x14,1760
    41014b7c:	73388893          	addi	x17,x17,1843
    41014b80:	3cf88e13          	addi	x28,x17,975
    41014b84:	1f1e0b13          	addi	x22,x28,497
    41014b88:	087b0d93          	addi	x27,x22,135
    41014b8c:	3ddd8713          	addi	x14,x27,989
    41014b90:	12070d93          	addi	x27,x14,288
    41014b94:	47bd8593          	addi	x11,x27,1147
    41014b98:	04158f13          	addi	x30,x11,65
    41014b9c:	11ef0c13          	addi	x24,x30,286
    41014ba0:	593c0813          	addi	x16,x24,1427
    41014ba4:	40780e13          	addi	x28,x16,1031
    41014ba8:	459e0e13          	addi	x28,x28,1113
    41014bac:	07ee0a13          	addi	x20,x28,126
    41014bb0:	066a0893          	addi	x17,x20,102
    41014bb4:	19b88813          	addi	x16,x17,411
    41014bb8:	46180413          	addi	x8,x16,1121
    41014bbc:	75c40d13          	addi	x26,x8,1884
    41014bc0:	00fd0893          	addi	x17,x26,15
    41014bc4:	69688a13          	addi	x20,x17,1686
    41014bc8:	686a0893          	addi	x17,x20,1670
    41014bcc:	43188f13          	addi	x30,x17,1073
    41014bd0:	c0102c73          	rdtime	x24
    41014bd4:	c0002e73          	rdcycle	x28
    41014bd8:	c0202af3          	rdinstret	x21
    41014bdc:	40dc0eb3          	sub	x29,x24,x13
    41014be0:	40ae0333          	sub	x6,x28,x10
    41014be4:	413a8533          	sub	x10,x21,x19
    41014be8:	00638a63          	beq	x7,x6,41014bfc <pass_label_2>
    41014bec:	436004b7          	lui	x9,0x43600
    41014bf0:	0084849b          	addiw	x9,x9,8 # 43600008 <failed_addr>
    41014bf4:	0004b783          	ld	x15,0(x9)
    41014bf8:	00078067          	jr	x15

0000000041014bfc <pass_label_2>:
    41014bfc:	00ab8a63          	beq	x23,x10,41014c10 <SID_ZKT_03_ADDI_passed>
    41014c00:	436009b7          	lui	x19,0x43600
    41014c04:	0089899b          	addiw	x19,x19,8 # 43600008 <failed_addr>
    41014c08:	0009b503          	ld	x10,0(x19)
    41014c0c:	00050067          	jr	x10

0000000041014c10 <SID_ZKT_03_ADDI_passed>:
    41014c10:	436002b7          	lui	x5,0x43600
    41014c14:	0182829b          	addiw	x5,x5,24 # 43600018 <os_passed_addr>
    41014c18:	0002b303          	ld	x6,0(x5)
    41014c1c:	00030067          	jr	x6

0000000041014c20 <SID_ZKT_03_SLTI>:
    41014c20:	43866137          	lui	x2,0x43866
    41014c24:	000012b7          	lui	x5,0x1
    41014c28:	00510133          	add	x2,x2,x5
    41014c2c:	ff017113          	andi	x2,x2,-16
    41014c30:	00000693          	li	x13,0
    41014c34:	c0102973          	rdtime	x18
    41014c38:	c00029f3          	rdcycle	x19
    41014c3c:	c02025f3          	rdinstret	x11
    41014c40:	7be6a793          	slti	x15,x13,1982
    41014c44:	5c47ae13          	slti	x28,x15,1476
    41014c48:	6a0e2693          	slti	x13,x28,1696
    41014c4c:	2d66af93          	slti	x31,x13,726
    41014c50:	565fa813          	slti	x16,x31,1381
    41014c54:	17682713          	slti	x14,x16,374
    41014c58:	25e72e13          	slti	x28,x14,606
    41014c5c:	02be2d93          	slti	x27,x28,43
    41014c60:	73fdaa13          	slti	x20,x27,1855
    41014c64:	6f7a2d13          	slti	x26,x20,1783
    41014c68:	055d2b13          	slti	x22,x26,85
    41014c6c:	7c2b2e13          	slti	x28,x22,1986
    41014c70:	1fce2893          	slti	x17,x28,508
    41014c74:	48a8a713          	slti	x14,x17,1162
    41014c78:	65072613          	slti	x12,x14,1616
    41014c7c:	77b62313          	slti	x6,x12,1915
    41014c80:	72b32f93          	slti	x31,x6,1835
    41014c84:	1c4fad13          	slti	x26,x31,452
    41014c88:	33cd2693          	slti	x13,x26,828
    41014c8c:	0846af93          	slti	x31,x13,132
    41014c90:	748fab93          	slti	x23,x31,1864
    41014c94:	2e4baf93          	slti	x31,x23,740
    41014c98:	0e6fac93          	slti	x25,x31,230
    41014c9c:	772cac93          	slti	x25,x25,1906
    41014ca0:	4c9ca693          	slti	x13,x25,1225
    41014ca4:	7506ac13          	slti	x24,x13,1872
    41014ca8:	08dc2613          	slti	x12,x24,141
    41014cac:	1f362c93          	slti	x25,x12,499
    41014cb0:	1e0ca393          	slti	x7,x25,480
    41014cb4:	4693ae93          	slti	x29,x7,1129
    41014cb8:	187ea813          	slti	x16,x29,391
    41014cbc:	0d582813          	slti	x16,x16,213
    41014cc0:	00f82d93          	slti	x27,x16,15
    41014cc4:	58cda413          	slti	x8,x27,1420
    41014cc8:	34142e93          	slti	x29,x8,833
    41014ccc:	0a6eaa93          	slti	x21,x29,166
    41014cd0:	403aac13          	slti	x24,x21,1027
    41014cd4:	6d5c2e93          	slti	x29,x24,1749
    41014cd8:	242eae13          	slti	x28,x29,578
    41014cdc:	4aae2b13          	slti	x22,x28,1194
    41014ce0:	539b2d13          	slti	x26,x22,1337
    41014ce4:	1c8d2c93          	slti	x25,x26,456
    41014ce8:	06ecae13          	slti	x28,x25,110
    41014cec:	437e2493          	slti	x9,x28,1079
    41014cf0:	4264a513          	slti	x10,x9,1062
    41014cf4:	7fb52813          	slti	x16,x10,2043
    41014cf8:	43b82893          	slti	x17,x16,1083
    41014cfc:	7618a393          	slti	x7,x17,1889
    41014d00:	33c3a793          	slti	x15,x7,828
    41014d04:	36d7a513          	slti	x10,x15,877
    41014d08:	75452c13          	slti	x24,x10,1876
    41014d0c:	646c2e13          	slti	x28,x24,1606
    41014d10:	106e2b13          	slti	x22,x28,262
    41014d14:	140b2313          	slti	x6,x22,320
    41014d18:	36d32713          	slti	x14,x6,877
    41014d1c:	10c72893          	slti	x17,x14,268
    41014d20:	3b08a613          	slti	x12,x17,944
    41014d24:	5e462693          	slti	x13,x12,1508
    41014d28:	2fe6a513          	slti	x10,x13,766
    41014d2c:	06f52613          	slti	x12,x10,111
    41014d30:	7cd62b93          	slti	x23,x12,1997
    41014d34:	7adbac93          	slti	x25,x23,1965
    41014d38:	496ca413          	slti	x8,x25,1174
    41014d3c:	17942713          	slti	x14,x8,377
    41014d40:	42472513          	slti	x10,x14,1060
    41014d44:	68e52f93          	slti	x31,x10,1678
    41014d48:	388fa613          	slti	x12,x31,904
    41014d4c:	79462613          	slti	x12,x12,1940
    41014d50:	38262793          	slti	x15,x12,898
    41014d54:	4ce7ac13          	slti	x24,x15,1230
    41014d58:	79ec2f13          	slti	x30,x24,1950
    41014d5c:	695f2513          	slti	x10,x30,1685
    41014d60:	66752f93          	slti	x31,x10,1639
    41014d64:	6f5fa813          	slti	x16,x31,1781
    41014d68:	53182a93          	slti	x21,x16,1329
    41014d6c:	394aa413          	slti	x8,x21,916
    41014d70:	14f42493          	slti	x9,x8,335
    41014d74:	3f94ae13          	slti	x28,x9,1017
    41014d78:	4c4e2813          	slti	x16,x28,1220
    41014d7c:	7f082b93          	slti	x23,x16,2032
    41014d80:	108baf13          	slti	x30,x23,264
    41014d84:	6d5f2313          	slti	x6,x30,1749
    41014d88:	2d132d93          	slti	x27,x6,721
    41014d8c:	12ddad93          	slti	x27,x27,301
    41014d90:	032da793          	slti	x15,x27,50
    41014d94:	2057a413          	slti	x8,x15,517
    41014d98:	5a742e93          	slti	x29,x8,1447
    41014d9c:	182ea893          	slti	x17,x29,386
    41014da0:	7d48a613          	slti	x12,x17,2004
    41014da4:	13862413          	slti	x8,x12,312
    41014da8:	51d42493          	slti	x9,x8,1309
    41014dac:	34f4a613          	slti	x12,x9,847
    41014db0:	49162f93          	slti	x31,x12,1169
    41014db4:	50dfaf93          	slti	x31,x31,1293
    41014db8:	203fa493          	slti	x9,x31,515
    41014dbc:	7db4ab13          	slti	x22,x9,2011
    41014dc0:	38cb2c13          	slti	x24,x22,908
    41014dc4:	3c5c2c93          	slti	x25,x24,965
    41014dc8:	3bacae13          	slti	x28,x25,954
    41014dcc:	184e2a13          	slti	x20,x28,388
    41014dd0:	c0102df3          	rdtime	x27
    41014dd4:	c0002773          	rdcycle	x14
    41014dd8:	c0202373          	rdinstret	x6
    41014ddc:	412d8533          	sub	x10,x27,x18
    41014de0:	41370633          	sub	x12,x14,x19
    41014de4:	40b305b3          	sub	x11,x6,x11
    41014de8:	00000693          	li	x13,0
    41014dec:	c0102a73          	rdtime	x20
    41014df0:	c0002373          	rdcycle	x6
    41014df4:	c02029f3          	rdinstret	x19
    41014df8:	3656ab93          	slti	x23,x13,869
    41014dfc:	37ebab13          	slti	x22,x23,894
    41014e00:	22ab2f13          	slti	x30,x22,554
    41014e04:	635f2913          	slti	x18,x30,1589
    41014e08:	1c492893          	slti	x17,x18,452
    41014e0c:	2d68ac13          	slti	x24,x17,726
    41014e10:	604c2b93          	slti	x23,x24,1540
    41014e14:	512bad13          	slti	x26,x23,1298
    41014e18:	7a1d2393          	slti	x7,x26,1953
    41014e1c:	0433a513          	slti	x10,x7,67
    41014e20:	69452d13          	slti	x26,x10,1684
    41014e24:	32bd2413          	slti	x8,x26,811
    41014e28:	4fb42793          	slti	x15,x8,1275
    41014e2c:	6b27ab93          	slti	x23,x15,1714
    41014e30:	03cba813          	slti	x16,x23,60
    41014e34:	36c82c93          	slti	x25,x16,876
    41014e38:	26eca393          	slti	x7,x25,622
    41014e3c:	7763a893          	slti	x17,x7,1910
    41014e40:	6bb8a393          	slti	x7,x17,1723
    41014e44:	0343af13          	slti	x30,x7,52
    41014e48:	7cbf2413          	slti	x8,x30,1995
    41014e4c:	74a42f13          	slti	x30,x8,1866
    41014e50:	464f2693          	slti	x13,x30,1124
    41014e54:	3d46ab13          	slti	x22,x13,980
    41014e58:	490b2f93          	slti	x31,x22,1168
    41014e5c:	21afa693          	slti	x13,x31,538
    41014e60:	5806ad93          	slti	x27,x13,1408
    41014e64:	22ddae13          	slti	x28,x27,557
    41014e68:	1fde2a93          	slti	x21,x28,509
    41014e6c:	3beaa713          	slti	x14,x21,958
    41014e70:	5b572913          	slti	x18,x14,1461
    41014e74:	3aa92893          	slti	x17,x18,938
    41014e78:	2ee8a893          	slti	x17,x17,750
    41014e7c:	42f8ac13          	slti	x24,x17,1071
    41014e80:	6c9c2c93          	slti	x25,x24,1737
    41014e84:	4f6ca713          	slti	x14,x25,1270
    41014e88:	3b472c93          	slti	x25,x14,948
    41014e8c:	745caa93          	slti	x21,x25,1861
    41014e90:	551aa513          	slti	x10,x21,1361
    41014e94:	1fb52613          	slti	x12,x10,507
    41014e98:	47562393          	slti	x7,x12,1141
    41014e9c:	6ca3ac93          	slti	x25,x7,1738
    41014ea0:	44aca413          	slti	x8,x25,1098
    41014ea4:	14942693          	slti	x13,x8,329
    41014ea8:	3b26a593          	slti	x11,x13,946
    41014eac:	2515a813          	slti	x16,x11,593
    41014eb0:	7a182593          	slti	x11,x16,1953
    41014eb4:	77f5a713          	slti	x14,x11,1919
    41014eb8:	60c72b13          	slti	x22,x14,1548
    41014ebc:	2e7b2513          	slti	x10,x22,743
    41014ec0:	35e52713          	slti	x14,x10,862
    41014ec4:	0e372513          	slti	x10,x14,227
    41014ec8:	40e52493          	slti	x9,x10,1038
    41014ecc:	57c4ac13          	slti	x24,x9,1404
    41014ed0:	731c2c93          	slti	x25,x24,1841
    41014ed4:	1faca813          	slti	x16,x25,506
    41014ed8:	5fc82c13          	slti	x24,x16,1532
    41014edc:	7c5c2713          	slti	x14,x24,1989
    41014ee0:	53c72613          	slti	x12,x14,1340
    41014ee4:	54a62f93          	slti	x31,x12,1354
    41014ee8:	7aefa493          	slti	x9,x31,1966
    41014eec:	31b4ab93          	slti	x23,x9,795
    41014ef0:	0f2ba493          	slti	x9,x23,242
    41014ef4:	3794ad13          	slti	x26,x9,889
    41014ef8:	4cbd2e13          	slti	x28,x26,1227
    41014efc:	3b4e2d13          	slti	x26,x28,948
    41014f00:	501d2513          	slti	x10,x26,1281
    41014f04:	42e52913          	slti	x18,x10,1070
    41014f08:	3a692c13          	slti	x24,x18,934
    41014f0c:	0bbc2413          	slti	x8,x24,187
    41014f10:	7b742913          	slti	x18,x8,1975
    41014f14:	5f292593          	slti	x11,x18,1522
    41014f18:	7c05ac13          	slti	x24,x11,1984
    41014f1c:	6adc2d13          	slti	x26,x24,1709
    41014f20:	322d2d13          	slti	x26,x26,802
    41014f24:	3a1d2d93          	slti	x27,x26,929
    41014f28:	4f1daf13          	slti	x30,x27,1265
    41014f2c:	78bf2413          	slti	x8,x30,1931
    41014f30:	62342c13          	slti	x24,x8,1571
    41014f34:	5b3c2d93          	slti	x27,x24,1459
    41014f38:	594da693          	slti	x13,x27,1428
    41014f3c:	5ec6ac93          	slti	x25,x13,1516
    41014f40:	2e9ca693          	slti	x13,x25,745
    41014f44:	7516ac13          	slti	x24,x13,1873
    41014f48:	665c2693          	slti	x13,x24,1637
    41014f4c:	4776a693          	slti	x13,x13,1143
    41014f50:	2cd6a893          	slti	x17,x13,717
    41014f54:	1568a413          	slti	x8,x17,342
    41014f58:	12f42493          	slti	x9,x8,303
    41014f5c:	1e14ab13          	slti	x22,x9,481
    41014f60:	554b2c93          	slti	x25,x22,1364
    41014f64:	72ecaf93          	slti	x31,x25,1838
    41014f68:	534fab93          	slti	x23,x31,1332
    41014f6c:	167baf93          	slti	x31,x23,359
    41014f70:	347fac13          	slti	x24,x31,839
    41014f74:	39ec2f93          	slti	x31,x24,926
    41014f78:	400faf13          	slti	x30,x31,1024
    41014f7c:	5adf2893          	slti	x17,x30,1453
    41014f80:	7ea8a393          	slti	x7,x17,2026
    41014f84:	5c93ad13          	slti	x26,x7,1481
    41014f88:	c0102573          	rdtime	x10
    41014f8c:	c00027f3          	rdcycle	x15
    41014f90:	c02024f3          	rdinstret	x9
    41014f94:	41450733          	sub	x14,x10,x20
    41014f98:	40678bb3          	sub	x23,x15,x6
    41014f9c:	41348eb3          	sub	x29,x9,x19
    41014fa0:	00000513          	li	x10,0
    41014fa4:	c0102e73          	rdtime	x28
    41014fa8:	c0002b73          	rdcycle	x22
    41014fac:	c0202f73          	rdinstret	x30
    41014fb0:	67952793          	slti	x15,x10,1657
    41014fb4:	1647a413          	slti	x8,x15,356
    41014fb8:	34442893          	slti	x17,x8,836
    41014fbc:	21f8a713          	slti	x14,x17,543
    41014fc0:	74e72c93          	slti	x25,x14,1870
    41014fc4:	283ca813          	slti	x16,x25,643
    41014fc8:	49382d93          	slti	x27,x16,1171
    41014fcc:	757dac13          	slti	x24,x27,1879
    41014fd0:	340c2693          	slti	x13,x24,832
    41014fd4:	2676a393          	slti	x7,x13,615
    41014fd8:	52f3a413          	slti	x8,x7,1327
    41014fdc:	5ba42f93          	slti	x31,x8,1466
    41014fe0:	647fa593          	slti	x11,x31,1607
    41014fe4:	7c45a593          	slti	x11,x11,1988
    41014fe8:	72e5a793          	slti	x15,x11,1838
    41014fec:	2207ad93          	slti	x27,x15,544
    41014ff0:	55fda693          	slti	x13,x27,1375
    41014ff4:	2856aa93          	slti	x21,x13,645
    41014ff8:	559aaa13          	slti	x20,x21,1369
    41014ffc:	01aa2413          	slti	x8,x20,26
    41015000:	33742613          	slti	x12,x8,823
    41015004:	4c062993          	slti	x19,x12,1216
    41015008:	0559ad13          	slti	x26,x19,85
    4101500c:	1a9d2c93          	slti	x25,x26,425
    41015010:	3a6ca693          	slti	x13,x25,934
    41015014:	0d26a913          	slti	x18,x13,210
    41015018:	0ed92c13          	slti	x24,x18,237
    4101501c:	018c2a13          	slti	x20,x24,24
    41015020:	78ca2d93          	slti	x27,x20,1932
    41015024:	6b5da713          	slti	x14,x27,1717
    41015028:	2e972393          	slti	x7,x14,745
    4101502c:	2973aa93          	slti	x21,x7,663
    41015030:	4daaa413          	slti	x8,x21,1242
    41015034:	28b42613          	slti	x12,x8,651
    41015038:	5e062a93          	slti	x21,x12,1504
    4101503c:	342aa793          	slti	x15,x21,834
    41015040:	1707a393          	slti	x7,x15,368
    41015044:	5fe3ac93          	slti	x25,x7,1534
    41015048:	6aeca693          	slti	x13,x25,1710
    4101504c:	7696a393          	slti	x7,x13,1897
    41015050:	29d3a713          	slti	x14,x7,669
    41015054:	64672a93          	slti	x21,x14,1606
    41015058:	0a7aa793          	slti	x15,x21,167
    4101505c:	43a7ad93          	slti	x27,x15,1082
    41015060:	4cfda913          	slti	x18,x27,1231
    41015064:	3da92613          	slti	x12,x18,986
    41015068:	33a62f93          	slti	x31,x12,826
    4101506c:	4f8faf93          	slti	x31,x31,1272
    41015070:	75dfa393          	slti	x7,x31,1885
    41015074:	1e53aa13          	slti	x20,x7,485
    41015078:	391a2f93          	slti	x31,x20,913
    4101507c:	717fa793          	slti	x15,x31,1815
    41015080:	0c47a613          	slti	x12,x15,196
    41015084:	4d662a93          	slti	x21,x12,1238
    41015088:	028aa793          	slti	x15,x21,40
    4101508c:	2c47ac93          	slti	x25,x15,708
    41015090:	041ca613          	slti	x12,x25,65
    41015094:	26f62513          	slti	x10,x12,623
    41015098:	3f552c93          	slti	x25,x10,1013
    4101509c:	121ca313          	slti	x6,x25,289
    410150a0:	5b932693          	slti	x13,x6,1465
    410150a4:	5ab6af93          	slti	x31,x13,1451
    410150a8:	06bfa313          	slti	x6,x31,107
    410150ac:	01632793          	slti	x15,x6,22
    410150b0:	2a67a813          	slti	x16,x15,678
    410150b4:	34282693          	slti	x13,x16,834
    410150b8:	3d66a313          	slti	x6,x13,982
    410150bc:	53932c93          	slti	x25,x6,1337
    410150c0:	731ca793          	slti	x15,x25,1841
    410150c4:	4eb7a793          	slti	x15,x15,1259
    410150c8:	7c67ad93          	slti	x27,x15,1990
    410150cc:	00ddac13          	slti	x24,x27,13
    410150d0:	703c2713          	slti	x14,x24,1795
    410150d4:	3de72513          	slti	x10,x14,990
    410150d8:	51f52993          	slti	x19,x10,1311
    410150dc:	7439aa13          	slti	x20,x19,1859
    410150e0:	49ca2393          	slti	x7,x20,1180
    410150e4:	1a33a793          	slti	x15,x7,419
    410150e8:	1cb7a413          	slti	x8,x15,459
    410150ec:	5f042993          	slti	x19,x8,1520
    410150f0:	4e89a613          	slti	x12,x19,1256
    410150f4:	2a162393          	slti	x7,x12,673
    410150f8:	1563ac13          	slti	x24,x7,342
    410150fc:	2aec2a93          	slti	x21,x24,686
    41015100:	26faa593          	slti	x11,x21,623
    41015104:	6425ad93          	slti	x27,x11,1602
    41015108:	6a7da993          	slti	x19,x27,1703
    4101510c:	3249af93          	slti	x31,x19,804
    41015110:	48efaa93          	slti	x21,x31,1166
    41015114:	4cbaad13          	slti	x26,x21,1227
    41015118:	5d2d2413          	slti	x8,x26,1490
    4101511c:	3e542313          	slti	x6,x8,997
    41015120:	3bc32513          	slti	x10,x6,956
    41015124:	61c52d13          	slti	x26,x10,1564
    41015128:	23fd2893          	slti	x17,x26,575
    4101512c:	0b28a993          	slti	x19,x17,178
    41015130:	40a9a513          	slti	x10,x19,1034
    41015134:	1b852913          	slti	x18,x10,440
    41015138:	49892f93          	slti	x31,x18,1176
    4101513c:	2f2fa993          	slti	x19,x31,754
    41015140:	c0102c73          	rdtime	x24
    41015144:	c0002673          	rdcycle	x12
    41015148:	c0202a73          	rdinstret	x20
    4101514c:	41cc0d33          	sub	x26,x24,x28
    41015150:	416605b3          	sub	x11,x12,x22
    41015154:	41ea03b3          	sub	x7,x20,x30
    41015158:	00bb8a63          	beq	x23,x11,4101516c <pass_label_4>
    4101515c:	43600b37          	lui	x22,0x43600
    41015160:	008b0b1b          	addiw	x22,x22,8 # 43600008 <failed_addr>
    41015164:	000b3a83          	ld	x21,0(x22)
    41015168:	000a8067          	jr	x21

000000004101516c <pass_label_4>:
    4101516c:	007e8a63          	beq	x29,x7,41015180 <SID_ZKT_03_SLTI_passed>
    41015170:	43600d37          	lui	x26,0x43600
    41015174:	008d0d1b          	addiw	x26,x26,8 # 43600008 <failed_addr>
    41015178:	000d3303          	ld	x6,0(x26)
    4101517c:	00030067          	jr	x6

0000000041015180 <SID_ZKT_03_SLTI_passed>:
    41015180:	436002b7          	lui	x5,0x43600
    41015184:	0182829b          	addiw	x5,x5,24 # 43600018 <os_passed_addr>
    41015188:	0002b303          	ld	x6,0(x5)
    4101518c:	00030067          	jr	x6

0000000041015190 <SID_ZKT_03_SLTIU>:
    41015190:	43987137          	lui	x2,0x43987
    41015194:	000012b7          	lui	x5,0x1
    41015198:	00510133          	add	x2,x2,x5
    4101519c:	ff017113          	andi	x2,x2,-16
    410151a0:	00000c13          	li	x24,0
    410151a4:	c01029f3          	rdtime	x19
    410151a8:	c0002e73          	rdcycle	x28
    410151ac:	c0202bf3          	rdinstret	x23
    410151b0:	46cc3313          	sltiu	x6,x24,1132
    410151b4:	23c33393          	sltiu	x7,x6,572
    410151b8:	4db3b693          	sltiu	x13,x7,1243
    410151bc:	21b6b593          	sltiu	x11,x13,539
    410151c0:	1475b813          	sltiu	x16,x11,327
    410151c4:	03783913          	sltiu	x18,x16,55
    410151c8:	52d93513          	sltiu	x10,x18,1325
    410151cc:	4f853513          	sltiu	x10,x10,1272
    410151d0:	7af53b13          	sltiu	x22,x10,1967
    410151d4:	336b3393          	sltiu	x7,x22,822
    410151d8:	41b3b593          	sltiu	x11,x7,1051
    410151dc:	74b5bc93          	sltiu	x25,x11,1867
    410151e0:	5c0cb713          	sltiu	x14,x25,1472
    410151e4:	06b73a13          	sltiu	x20,x14,107
    410151e8:	075a3593          	sltiu	x11,x20,117
    410151ec:	6465bf13          	sltiu	x30,x11,1606
    410151f0:	3eff3d13          	sltiu	x26,x30,1007
    410151f4:	192d3a13          	sltiu	x20,x26,402
    410151f8:	472a3613          	sltiu	x12,x20,1138
    410151fc:	29a63d93          	sltiu	x27,x12,666
    41015200:	785db613          	sltiu	x12,x27,1925
    41015204:	25a63413          	sltiu	x8,x12,602
    41015208:	5df43493          	sltiu	x9,x8,1503
    4101520c:	7ab4b413          	sltiu	x8,x9,1963
    41015210:	74143e93          	sltiu	x29,x8,1857
    41015214:	52deb493          	sltiu	x9,x29,1325
    41015218:	0614b593          	sltiu	x11,x9,97
    4101521c:	3c05bf13          	sltiu	x30,x11,960
    41015220:	2b1f3793          	sltiu	x15,x30,689
    41015224:	17c7b593          	sltiu	x11,x15,380
    41015228:	3965be93          	sltiu	x29,x11,918
    4101522c:	064eb893          	sltiu	x17,x29,100
    41015230:	1ac8b513          	sltiu	x10,x17,428
    41015234:	2f353513          	sltiu	x10,x10,755
    41015238:	21253713          	sltiu	x14,x10,530
    4101523c:	7cd73513          	sltiu	x10,x14,1997
    41015240:	5f653c13          	sltiu	x24,x10,1526
    41015244:	391c3393          	sltiu	x7,x24,913
    41015248:	2203b393          	sltiu	x7,x7,544
    4101524c:	56a3bd13          	sltiu	x26,x7,1386
    41015250:	408d3693          	sltiu	x13,x26,1032
    41015254:	70e6bb13          	sltiu	x22,x13,1806
    41015258:	203b3a13          	sltiu	x20,x22,515
    4101525c:	064a3313          	sltiu	x6,x20,100
    41015260:	5c433893          	sltiu	x17,x6,1476
    41015264:	2948b493          	sltiu	x9,x17,660
    41015268:	01a4b393          	sltiu	x7,x9,26
    4101526c:	35a3b913          	sltiu	x18,x7,858
    41015270:	53c93793          	sltiu	x15,x18,1340
    41015274:	1d27b493          	sltiu	x9,x15,466
    41015278:	17a4b393          	sltiu	x7,x9,378
    4101527c:	3133bd93          	sltiu	x27,x7,787
    41015280:	587db513          	sltiu	x10,x27,1415
    41015284:	57653693          	sltiu	x13,x10,1398
    41015288:	3db6b593          	sltiu	x11,x13,987
    4101528c:	1165b393          	sltiu	x7,x11,278
    41015290:	3633be93          	sltiu	x29,x7,867
    41015294:	591ebf13          	sltiu	x30,x29,1425
    41015298:	262f3493          	sltiu	x9,x30,610
    4101529c:	09a4b793          	sltiu	x15,x9,154
    410152a0:	5447bc93          	sltiu	x25,x15,1348
    410152a4:	7cccb693          	sltiu	x13,x25,1996
    410152a8:	1666b913          	sltiu	x18,x13,358
    410152ac:	61d93c93          	sltiu	x25,x18,1565
    410152b0:	653cb313          	sltiu	x6,x25,1619
    410152b4:	07233313          	sltiu	x6,x6,114
    410152b8:	35d33f93          	sltiu	x31,x6,861
    410152bc:	732fbe93          	sltiu	x29,x31,1842
    410152c0:	6abeb813          	sltiu	x16,x29,1707
    410152c4:	08a83f13          	sltiu	x30,x16,138
    410152c8:	7c0f3793          	sltiu	x15,x30,1984
    410152cc:	4437bf13          	sltiu	x30,x15,1091
    410152d0:	4a9f3f13          	sltiu	x30,x30,1193
    410152d4:	13cf3f13          	sltiu	x30,x30,316
    410152d8:	02ef3a13          	sltiu	x20,x30,46
    410152dc:	041a3f93          	sltiu	x31,x20,65
    410152e0:	2f0fb693          	sltiu	x13,x31,752
    410152e4:	1b96b813          	sltiu	x16,x13,441
    410152e8:	7d183f93          	sltiu	x31,x16,2001
    410152ec:	573fb613          	sltiu	x12,x31,1395
    410152f0:	53a63f93          	sltiu	x31,x12,1338
    410152f4:	48afb793          	sltiu	x15,x31,1162
    410152f8:	6147b913          	sltiu	x18,x15,1556
    410152fc:	45293513          	sltiu	x10,x18,1106
    41015300:	3d253c13          	sltiu	x24,x10,978
    41015304:	375c3a13          	sltiu	x20,x24,885
    41015308:	789a3493          	sltiu	x9,x20,1929
    4101530c:	55f4bc93          	sltiu	x25,x9,1375
    41015310:	744cb813          	sltiu	x16,x25,1860
    41015314:	63383593          	sltiu	x11,x16,1587
    41015318:	4e95b813          	sltiu	x16,x11,1257
    4101531c:	58483893          	sltiu	x17,x16,1412
    41015320:	4ba8b893          	sltiu	x17,x17,1210
    41015324:	2a68b313          	sltiu	x6,x17,678
    41015328:	0d633d13          	sltiu	x26,x6,214
    4101532c:	6bad3a93          	sltiu	x21,x26,1722
    41015330:	011ab613          	sltiu	x12,x21,17
    41015334:	0a063813          	sltiu	x16,x12,160
    41015338:	1a783813          	sltiu	x16,x16,423
    4101533c:	03283393          	sltiu	x7,x16,50
    41015340:	c0102a73          	rdtime	x20
    41015344:	c0002cf3          	rdcycle	x25
    41015348:	c0202673          	rdinstret	x12
    4101534c:	413a0733          	sub	x14,x20,x19
    41015350:	41cc8733          	sub	x14,x25,x28
    41015354:	41760e33          	sub	x28,x12,x23
    41015358:	00000f13          	li	x30,0
    4101535c:	c0102bf3          	rdtime	x23
    41015360:	c0002cf3          	rdcycle	x25
    41015364:	c0202b73          	rdinstret	x22
    41015368:	5c7f3d93          	sltiu	x27,x30,1479
    4101536c:	440db513          	sltiu	x10,x27,1088
    41015370:	6ca53e93          	sltiu	x29,x10,1738
    41015374:	7aeebe93          	sltiu	x29,x29,1966
    41015378:	62beb893          	sltiu	x17,x29,1579
    4101537c:	6a68be13          	sltiu	x28,x17,1702
    41015380:	71be3c13          	sltiu	x24,x28,1819
    41015384:	43ac3493          	sltiu	x9,x24,1082
    41015388:	0414bf13          	sltiu	x30,x9,65
    4101538c:	140f3993          	sltiu	x19,x30,320
    41015390:	03d9bf13          	sltiu	x30,x19,61
    41015394:	25ff3f93          	sltiu	x31,x30,607
    41015398:	20dfbf93          	sltiu	x31,x31,525
    4101539c:	0f8fbd93          	sltiu	x27,x31,248
    410153a0:	028dbc13          	sltiu	x24,x27,40
    410153a4:	528c3f13          	sltiu	x30,x24,1320
    410153a8:	4b3f3313          	sltiu	x6,x30,1203
    410153ac:	02b33913          	sltiu	x18,x6,43
    410153b0:	77293893          	sltiu	x17,x18,1906
    410153b4:	2cf8b713          	sltiu	x14,x17,719
    410153b8:	73373393          	sltiu	x7,x14,1843
    410153bc:	2363b413          	sltiu	x8,x7,566
    410153c0:	0dc43713          	sltiu	x14,x8,220
    410153c4:	31b73a13          	sltiu	x20,x14,795
    410153c8:	553a3e93          	sltiu	x29,x20,1363
    410153cc:	73deb793          	sltiu	x15,x29,1853
    410153d0:	5617be13          	sltiu	x28,x15,1377
    410153d4:	516e3513          	sltiu	x10,x28,1302
    410153d8:	54553e13          	sltiu	x28,x10,1349
    410153dc:	182e3393          	sltiu	x7,x28,386
    410153e0:	34d3b713          	sltiu	x14,x7,845
    410153e4:	01573413          	sltiu	x8,x14,21
    410153e8:	1e743893          	sltiu	x17,x8,487
    410153ec:	1c08b693          	sltiu	x13,x17,448
    410153f0:	7196bd13          	sltiu	x26,x13,1817
    410153f4:	150d3f13          	sltiu	x30,x26,336
    410153f8:	73df3793          	sltiu	x15,x30,1853
    410153fc:	4f57b713          	sltiu	x14,x15,1269
    41015400:	5be73d13          	sltiu	x26,x14,1470
    41015404:	37fd3793          	sltiu	x15,x26,895
    41015408:	45c7b413          	sltiu	x8,x15,1116
    4101540c:	6f643f93          	sltiu	x31,x8,1782
    41015410:	046fbe13          	sltiu	x28,x31,70
    41015414:	49ce3613          	sltiu	x12,x28,1180
    41015418:	23963693          	sltiu	x13,x12,569
    4101541c:	0d46bf13          	sltiu	x30,x13,212
    41015420:	1edf3793          	sltiu	x15,x30,493
    41015424:	4b27bf13          	sltiu	x30,x15,1202
    41015428:	1f4f3d93          	sltiu	x27,x30,500
    4101542c:	063dbe13          	sltiu	x28,x27,99
    41015430:	1bde3c13          	sltiu	x24,x28,445
    41015434:	690c3513          	sltiu	x10,x24,1680
    41015438:	55b53d93          	sltiu	x27,x10,1371
    4101543c:	1e7db993          	sltiu	x19,x27,487
    41015440:	5739b993          	sltiu	x19,x19,1395
    41015444:	69b9bf13          	sltiu	x30,x19,1691
    41015448:	16bf3493          	sltiu	x9,x30,363
    4101544c:	5014be13          	sltiu	x28,x9,1281
    41015450:	739e3a13          	sltiu	x20,x28,1849
    41015454:	684a3593          	sltiu	x11,x20,1668
    41015458:	0045bf93          	sltiu	x31,x11,4
    4101545c:	160fb813          	sltiu	x16,x31,352
    41015460:	7a883a13          	sltiu	x20,x16,1960
    41015464:	0ffa3593          	sltiu	x11,x20,255
    41015468:	4ad5b413          	sltiu	x8,x11,1197
    4101546c:	19c43a13          	sltiu	x20,x8,412
    41015470:	52ca3513          	sltiu	x10,x20,1324
    41015474:	1f253793          	sltiu	x15,x10,498
    41015478:	2437b413          	sltiu	x8,x15,579
    4101547c:	2a743a13          	sltiu	x20,x8,679
    41015480:	58aa3593          	sltiu	x11,x20,1418
    41015484:	0ad5b413          	sltiu	x8,x11,173
    41015488:	70543393          	sltiu	x7,x8,1797
    4101548c:	5303b913          	sltiu	x18,x7,1328
    41015490:	1a793a13          	sltiu	x20,x18,423
    41015494:	515a3693          	sltiu	x13,x20,1301
    41015498:	1106b713          	sltiu	x14,x13,272
    4101549c:	49273393          	sltiu	x7,x14,1170
    410154a0:	6503b493          	sltiu	x9,x7,1616
    410154a4:	7ae4b493          	sltiu	x9,x9,1966
    410154a8:	2014be13          	sltiu	x28,x9,513
    410154ac:	7ece3313          	sltiu	x6,x28,2028
    410154b0:	0db33d93          	sltiu	x27,x6,219
    410154b4:	2e3db493          	sltiu	x9,x27,739
    410154b8:	3f24be93          	sltiu	x29,x9,1010
    410154bc:	58cebf13          	sltiu	x30,x29,1420
    410154c0:	181f3413          	sltiu	x8,x30,385
    410154c4:	1b143893          	sltiu	x17,x8,433
    410154c8:	1b88ba93          	sltiu	x21,x17,440
    410154cc:	31bab893          	sltiu	x17,x21,795
    410154d0:	2488b313          	sltiu	x6,x17,584
    410154d4:	00933713          	sltiu	x14,x6,9
    410154d8:	0b073a93          	sltiu	x21,x14,176
    410154dc:	1d7abf93          	sltiu	x31,x21,471
    410154e0:	690fbf93          	sltiu	x31,x31,1680
    410154e4:	7f7fb613          	sltiu	x12,x31,2039
    410154e8:	48863713          	sltiu	x14,x12,1160
    410154ec:	27573f93          	sltiu	x31,x14,629
    410154f0:	53cfb493          	sltiu	x9,x31,1340
    410154f4:	2fb4b993          	sltiu	x19,x9,763
    410154f8:	c0102e73          	rdtime	x28
    410154fc:	c00025f3          	rdcycle	x11
    41015500:	c0202673          	rdinstret	x12
    41015504:	417e0733          	sub	x14,x28,x23
    41015508:	419586b3          	sub	x13,x11,x25
    4101550c:	41660533          	sub	x10,x12,x22
    41015510:	00000e93          	li	x29,0
    41015514:	c0102f73          	rdtime	x30
    41015518:	c0002373          	rdcycle	x6
    4101551c:	c0202e73          	rdinstret	x28
    41015520:	259eb413          	sltiu	x8,x29,601
    41015524:	45843713          	sltiu	x14,x8,1112
    41015528:	63673393          	sltiu	x7,x14,1590
    4101552c:	7943b493          	sltiu	x9,x7,1940
    41015530:	7b34b413          	sltiu	x8,x9,1971
    41015534:	28243d13          	sltiu	x26,x8,642
    41015538:	550d3413          	sltiu	x8,x26,1360
    4101553c:	05943c13          	sltiu	x24,x8,89
    41015540:	621c3413          	sltiu	x8,x24,1569
    41015544:	27e43d13          	sltiu	x26,x8,638
    41015548:	7d0d3a13          	sltiu	x20,x26,2000
    4101554c:	0baa3e93          	sltiu	x29,x20,186
    41015550:	7f9eb713          	sltiu	x14,x29,2041
    41015554:	3cf73393          	sltiu	x7,x14,975
    41015558:	4053b713          	sltiu	x14,x7,1029
    4101555c:	54573c13          	sltiu	x24,x14,1349
    41015560:	121c3393          	sltiu	x7,x24,289
    41015564:	4e03bb93          	sltiu	x23,x7,1248
    41015568:	48bbb413          	sltiu	x8,x23,1163
    4101556c:	2d943813          	sltiu	x16,x8,729
    41015570:	24e83593          	sltiu	x11,x16,590
    41015574:	7b85b793          	sltiu	x15,x11,1976
    41015578:	7447b913          	sltiu	x18,x15,1860
    4101557c:	50093c93          	sltiu	x25,x18,1280
    41015580:	363cb913          	sltiu	x18,x25,867
    41015584:	7fc93913          	sltiu	x18,x18,2044
    41015588:	4c693713          	sltiu	x14,x18,1222
    4101558c:	36a73613          	sltiu	x12,x14,874
    41015590:	71c63493          	sltiu	x9,x12,1820
    41015594:	52b4ba93          	sltiu	x21,x9,1323
    41015598:	683ab713          	sltiu	x14,x21,1667
    4101559c:	0ce73413          	sltiu	x8,x14,206
    410155a0:	7a043393          	sltiu	x7,x8,1952
    410155a4:	44c3b813          	sltiu	x16,x7,1100
    410155a8:	18183893          	sltiu	x17,x16,385
    410155ac:	52e8bb13          	sltiu	x22,x17,1326
    410155b0:	4d9b3c93          	sltiu	x25,x22,1241
    410155b4:	1dfcb793          	sltiu	x15,x25,479
    410155b8:	7657be93          	sltiu	x29,x15,1893
    410155bc:	501eba13          	sltiu	x20,x29,1281
    410155c0:	517a3613          	sltiu	x12,x20,1303
    410155c4:	11163493          	sltiu	x9,x12,273
    410155c8:	0874bc93          	sltiu	x25,x9,135
    410155cc:	3b4cbe93          	sltiu	x29,x25,948
    410155d0:	0a9eb613          	sltiu	x12,x29,169
    410155d4:	4de63493          	sltiu	x9,x12,1246
    410155d8:	1284ba93          	sltiu	x21,x9,296
    410155dc:	3d9ab413          	sltiu	x8,x21,985
    410155e0:	03f43493          	sltiu	x9,x8,63
    410155e4:	1394b813          	sltiu	x16,x9,313
    410155e8:	30483613          	sltiu	x12,x16,772
    410155ec:	18863493          	sltiu	x9,x12,392
    410155f0:	3d84b413          	sltiu	x8,x9,984
    410155f4:	30243c93          	sltiu	x25,x8,770
    410155f8:	431cba13          	sltiu	x20,x25,1073
    410155fc:	53aa3793          	sltiu	x15,x20,1338
    41015600:	1177b993          	sltiu	x19,x15,279
    41015604:	3799ba93          	sltiu	x21,x19,889
    41015608:	78babd13          	sltiu	x26,x21,1931
    4101560c:	19ed3a13          	sltiu	x20,x26,414
    41015610:	0d8a3593          	sltiu	x11,x20,216
    41015614:	2b75bb93          	sltiu	x23,x11,695
    41015618:	2bdbb613          	sltiu	x12,x23,701
    4101561c:	27a63c93          	sltiu	x25,x12,634
    41015620:	382cbd13          	sltiu	x26,x25,898
    41015624:	11cd3613          	sltiu	x12,x26,284
    41015628:	1fd63c13          	sltiu	x24,x12,509
    4101562c:	4b9c3a93          	sltiu	x21,x24,1209
    41015630:	215ab993          	sltiu	x19,x21,533
    41015634:	3c79bb93          	sltiu	x23,x19,967
    41015638:	673bb993          	sltiu	x19,x23,1651
    4101563c:	29d9b813          	sltiu	x16,x19,669
    41015640:	76783613          	sltiu	x12,x16,1895
    41015644:	00663d93          	sltiu	x27,x12,6
    41015648:	5dadb993          	sltiu	x19,x27,1498
    4101564c:	7529ba93          	sltiu	x21,x19,1874
    41015650:	6a3ab613          	sltiu	x12,x21,1699
    41015654:	05f63593          	sltiu	x11,x12,95
    41015658:	0125b593          	sltiu	x11,x11,18
    4101565c:	0ee5bc13          	sltiu	x24,x11,238
    41015660:	1abc3e93          	sltiu	x29,x24,427
    41015664:	25cebc13          	sltiu	x24,x29,604
    41015668:	076c3713          	sltiu	x14,x24,118
    4101566c:	65373f93          	sltiu	x31,x14,1619
    41015670:	38cfb413          	sltiu	x8,x31,908
    41015674:	78143d13          	sltiu	x26,x8,1921
    41015678:	407d3913          	sltiu	x18,x26,1031
    4101567c:	61593d93          	sltiu	x27,x18,1557
    41015680:	1cbdb893          	sltiu	x17,x27,459
    41015684:	1a98bc13          	sltiu	x24,x17,425
    41015688:	1f3c3a93          	sltiu	x21,x24,499
    4101568c:	6b9ab713          	sltiu	x14,x21,1721
    41015690:	0a073813          	sltiu	x16,x14,160
    41015694:	04583d13          	sltiu	x26,x16,69
    41015698:	03ad3c13          	sltiu	x24,x26,58
    4101569c:	0e8c3613          	sltiu	x12,x24,232
    410156a0:	31b63c13          	sltiu	x24,x12,795
    410156a4:	0e7c3913          	sltiu	x18,x24,231
    410156a8:	35693d93          	sltiu	x27,x18,854
    410156ac:	484db593          	sltiu	x11,x27,1156
    410156b0:	c01023f3          	rdtime	x7
    410156b4:	c0002ff3          	rdcycle	x31
    410156b8:	c0202bf3          	rdinstret	x23
    410156bc:	41e38ab3          	sub	x21,x7,x30
    410156c0:	406f8b33          	sub	x22,x31,x6
    410156c4:	41cb8433          	sub	x8,x23,x28
    410156c8:	01668a63          	beq	x13,x22,410156dc <pass_label_6>
    410156cc:	436004b7          	lui	x9,0x43600
    410156d0:	0084849b          	addiw	x9,x9,8 # 43600008 <failed_addr>
    410156d4:	0004b703          	ld	x14,0(x9)
    410156d8:	00070067          	jr	x14

00000000410156dc <pass_label_6>:
    410156dc:	00850a63          	beq	x10,x8,410156f0 <SID_ZKT_03_SLTIU_passed>
    410156e0:	436008b7          	lui	x17,0x43600
    410156e4:	0088889b          	addiw	x17,x17,8 # 43600008 <failed_addr>
    410156e8:	0008bd83          	ld	x27,0(x17)
    410156ec:	000d8067          	jr	x27

00000000410156f0 <SID_ZKT_03_SLTIU_passed>:
    410156f0:	436002b7          	lui	x5,0x43600
    410156f4:	0182829b          	addiw	x5,x5,24 # 43600018 <os_passed_addr>
    410156f8:	0002b303          	ld	x6,0(x5)
    410156fc:	00030067          	jr	x6

0000000041015700 <SID_ZKT_03_XORI>:
    41015700:	438eb137          	lui	x2,0x438eb
    41015704:	000012b7          	lui	x5,0x1
    41015708:	00510133          	add	x2,x2,x5
    4101570c:	ff017113          	andi	x2,x2,-16
    41015710:	00000813          	li	x16,0
    41015714:	c0102c73          	rdtime	x24
    41015718:	c00026f3          	rdcycle	x13
    4101571c:	c0202773          	rdinstret	x14
    41015720:	64a84793          	xori	x15,x16,1610
    41015724:	23b7c893          	xori	x17,x15,571
    41015728:	4928cc93          	xori	x25,x17,1170
    4101572c:	189ccc93          	xori	x25,x25,393
    41015730:	612ccd13          	xori	x26,x25,1554
    41015734:	570d4a13          	xori	x20,x26,1392
    41015738:	593a4513          	xori	x10,x20,1427
    4101573c:	2b454a13          	xori	x20,x10,692
    41015740:	71ea4b13          	xori	x22,x20,1822
    41015744:	31fb4a13          	xori	x20,x22,799
    41015748:	4b4a4313          	xori	x6,x20,1204
    4101574c:	10534f93          	xori	x31,x6,261
    41015750:	02ffcc93          	xori	x25,x31,47
    41015754:	067ccf93          	xori	x31,x25,103
    41015758:	0d4fc313          	xori	x6,x31,212
    4101575c:	1ff34793          	xori	x15,x6,511
    41015760:	34e7c613          	xori	x12,x15,846
    41015764:	54664e13          	xori	x28,x12,1350
    41015768:	0f5e4f13          	xori	x30,x28,245
    4101576c:	30cf4c93          	xori	x25,x30,780
    41015770:	27ecc793          	xori	x15,x25,638
    41015774:	11e7c593          	xori	x11,x15,286
    41015778:	2355c993          	xori	x19,x11,565
    4101577c:	19e9c613          	xori	x12,x19,414
    41015780:	7e064613          	xori	x12,x12,2016
    41015784:	34264993          	xori	x19,x12,834
    41015788:	7ba9cb13          	xori	x22,x19,1978
    4101578c:	043b4593          	xori	x11,x22,67
    41015790:	5655c513          	xori	x10,x11,1381
    41015794:	6e654413          	xori	x8,x10,1766
    41015798:	36144413          	xori	x8,x8,865
    4101579c:	6a344e13          	xori	x28,x8,1699
    410157a0:	350e4793          	xori	x15,x28,848
    410157a4:	2bc7c313          	xori	x6,x15,700
    410157a8:	09334913          	xori	x18,x6,147
    410157ac:	1b194a93          	xori	x21,x18,433
    410157b0:	3a2ac593          	xori	x11,x21,930
    410157b4:	7975cb13          	xori	x22,x11,1943
    410157b8:	128b4413          	xori	x8,x22,296
    410157bc:	58644413          	xori	x8,x8,1414
    410157c0:	44444493          	xori	x9,x8,1092
    410157c4:	5214c493          	xori	x9,x9,1313
    410157c8:	68a4c413          	xori	x8,x9,1674
    410157cc:	3b444893          	xori	x17,x8,948
    410157d0:	3378cf93          	xori	x31,x17,823
    410157d4:	3d8fc513          	xori	x10,x31,984
    410157d8:	5a954793          	xori	x15,x10,1449
    410157dc:	22b7c993          	xori	x19,x15,555
    410157e0:	6879c793          	xori	x15,x19,1671
    410157e4:	4f97cf93          	xori	x31,x15,1273
    410157e8:	754fce13          	xori	x28,x31,1876
    410157ec:	1d2e4993          	xori	x19,x28,466
    410157f0:	36d9cc93          	xori	x25,x19,877
    410157f4:	3b2cc793          	xori	x15,x25,946
    410157f8:	1e87cc93          	xori	x25,x15,488
    410157fc:	50dccc93          	xori	x25,x25,1293
    41015800:	720cc513          	xori	x10,x25,1824
    41015804:	6a054493          	xori	x9,x10,1696
    41015808:	4014c993          	xori	x19,x9,1025
    4101580c:	5199cb13          	xori	x22,x19,1305
    41015810:	232b4413          	xori	x8,x22,562
    41015814:	1ae44413          	xori	x8,x8,430
    41015818:	57a44813          	xori	x16,x8,1402
    4101581c:	3ce84c93          	xori	x25,x16,974
    41015820:	6ebccb13          	xori	x22,x25,1771
    41015824:	74bb4d13          	xori	x26,x22,1867
    41015828:	7e0d4613          	xori	x12,x26,2016
    4101582c:	6b564313          	xori	x6,x12,1717
    41015830:	30634d13          	xori	x26,x6,774
    41015834:	03cd4913          	xori	x18,x26,60
    41015838:	22194e93          	xori	x29,x18,545
    4101583c:	43fecb93          	xori	x23,x29,1087
    41015840:	203bcd93          	xori	x27,x23,515
    41015844:	74adc813          	xori	x16,x27,1866
    41015848:	26584f13          	xori	x30,x16,613
    4101584c:	288f4c93          	xori	x25,x30,648
    41015850:	1c0cce93          	xori	x29,x25,448
    41015854:	499ec313          	xori	x6,x29,1177
    41015858:	75e34f93          	xori	x31,x6,1886
    4101585c:	79cfc413          	xori	x8,x31,1948
    41015860:	51544d13          	xori	x26,x8,1301
    41015864:	359d4893          	xori	x17,x26,857
    41015868:	0698c393          	xori	x7,x17,105
    4101586c:	0ad3ca13          	xori	x20,x7,173
    41015870:	0c3a4813          	xori	x16,x20,195
    41015874:	6b784c93          	xori	x25,x16,1719
    41015878:	17ecc393          	xori	x7,x25,382
    4101587c:	7643c513          	xori	x10,x7,1892
    41015880:	7c254993          	xori	x19,x10,1986
    41015884:	1619ca13          	xori	x20,x19,353
    41015888:	2bfa4d93          	xori	x27,x20,703
    4101588c:	24edc493          	xori	x9,x27,590
    41015890:	6764c793          	xori	x15,x9,1654
    41015894:	4457cb13          	xori	x22,x15,1093
    41015898:	1cfb4b93          	xori	x23,x22,463
    4101589c:	540bce93          	xori	x29,x23,1344
    410158a0:	193ec313          	xori	x6,x29,403
    410158a4:	61834313          	xori	x6,x6,1560
    410158a8:	78c34f93          	xori	x31,x6,1932
    410158ac:	50afc613          	xori	x12,x31,1290
    410158b0:	c01023f3          	rdtime	x7
    410158b4:	c00025f3          	rdcycle	x11
    410158b8:	c0202873          	rdinstret	x16
    410158bc:	41838a33          	sub	x20,x7,x24
    410158c0:	40d58e33          	sub	x28,x11,x13
    410158c4:	40e80fb3          	sub	x31,x16,x14
    410158c8:	00000713          	li	x14,0
    410158cc:	c0102ff3          	rdtime	x31
    410158d0:	c00025f3          	rdcycle	x11
    410158d4:	c0202c73          	rdinstret	x24
    410158d8:	09d74d13          	xori	x26,x14,157
    410158dc:	0d5d4793          	xori	x15,x26,213
    410158e0:	4047c913          	xori	x18,x15,1028
    410158e4:	20c94693          	xori	x13,x18,524
    410158e8:	43f6c693          	xori	x13,x13,1087
    410158ec:	3a26cb13          	xori	x22,x13,930
    410158f0:	2b6b4d93          	xori	x27,x22,694
    410158f4:	40fdcc93          	xori	x25,x27,1039
    410158f8:	60fcc793          	xori	x15,x25,1551
    410158fc:	12e7cb93          	xori	x23,x15,302
    41015900:	6d8bce93          	xori	x29,x23,1752
    41015904:	186ece93          	xori	x29,x29,390
    41015908:	1d8ecd13          	xori	x26,x29,472
    4101590c:	0f5d4f13          	xori	x30,x26,245
    41015910:	26cf4c93          	xori	x25,x30,620
    41015914:	435ccd93          	xori	x27,x25,1077
    41015918:	3e6dc713          	xori	x14,x27,998
    4101591c:	61674a13          	xori	x20,x14,1558
    41015920:	3d9a4a13          	xori	x20,x20,985
    41015924:	3a3a4b93          	xori	x23,x20,931
    41015928:	512bcd13          	xori	x26,x23,1298
    4101592c:	58fd4413          	xori	x8,x26,1423
    41015930:	63444313          	xori	x6,x8,1588
    41015934:	41c34a13          	xori	x20,x6,1052
    41015938:	2b9a4e13          	xori	x28,x20,697
    4101593c:	243e4513          	xori	x10,x28,579
    41015940:	78954e93          	xori	x29,x10,1929
    41015944:	135eca93          	xori	x21,x29,309
    41015948:	3a9acd13          	xori	x26,x21,937
    4101594c:	392d4513          	xori	x10,x26,914
    41015950:	03d54893          	xori	x17,x10,61
    41015954:	7138cb93          	xori	x23,x17,1811
    41015958:	363bc393          	xori	x7,x23,867
    4101595c:	6473c793          	xori	x15,x7,1607
    41015960:	4407c313          	xori	x6,x15,1088
    41015964:	33334713          	xori	x14,x6,819
    41015968:	17974393          	xori	x7,x14,377
    4101596c:	75d3c393          	xori	x7,x7,1885
    41015970:	70c3cd13          	xori	x26,x7,1804
    41015974:	1ddd4813          	xori	x16,x26,477
    41015978:	4c884c93          	xori	x25,x16,1224
    4101597c:	295cc893          	xori	x17,x25,661
    41015980:	42c8c613          	xori	x12,x17,1068
    41015984:	35464813          	xori	x16,x12,852
    41015988:	24984893          	xori	x17,x16,585
    4101598c:	3908c713          	xori	x14,x17,912
    41015990:	11374d13          	xori	x26,x14,275
    41015994:	732d4413          	xori	x8,x26,1842
    41015998:	23744b13          	xori	x22,x8,567
    4101599c:	2efb4993          	xori	x19,x22,751
    410159a0:	5249c613          	xori	x12,x19,1316
    410159a4:	35d64c93          	xori	x25,x12,861
    410159a8:	579ccb93          	xori	x23,x25,1401
    410159ac:	722bc993          	xori	x19,x23,1826
    410159b0:	57a9c893          	xori	x17,x19,1402
    410159b4:	5568cd13          	xori	x26,x17,1366
    410159b8:	044d4713          	xori	x14,x26,68
    410159bc:	14a74513          	xori	x10,x14,330
    410159c0:	63c54d93          	xori	x27,x10,1596
    410159c4:	2fadcd13          	xori	x26,x27,762
    410159c8:	592d4713          	xori	x14,x26,1426
    410159cc:	68974313          	xori	x6,x14,1673
    410159d0:	57734513          	xori	x10,x6,1399
    410159d4:	6ad54b93          	xori	x23,x10,1709
    410159d8:	431bc393          	xori	x7,x23,1073
    410159dc:	7373c693          	xori	x13,x7,1847
    410159e0:	6d76ca13          	xori	x20,x13,1751
    410159e4:	483a4493          	xori	x9,x20,1155
    410159e8:	7b64cd93          	xori	x27,x9,1974
    410159ec:	1bfdce93          	xori	x29,x27,447
    410159f0:	4adec993          	xori	x19,x29,1197
    410159f4:	4a59cf13          	xori	x30,x19,1189
    410159f8:	378f4893          	xori	x17,x30,888
    410159fc:	2ba8c913          	xori	x18,x17,698
    41015a00:	45794613          	xori	x12,x18,1111
    41015a04:	1c164993          	xori	x19,x12,449
    41015a08:	66b9c413          	xori	x8,x19,1643
    41015a0c:	22e44393          	xori	x7,x8,558
    41015a10:	56d3c993          	xori	x19,x7,1389
    41015a14:	1209c413          	xori	x8,x19,288
    41015a18:	63844693          	xori	x13,x8,1592
    41015a1c:	5826c993          	xori	x19,x13,1410
    41015a20:	27c9cb13          	xori	x22,x19,636
    41015a24:	4a6b4793          	xori	x15,x22,1190
    41015a28:	4d37cb93          	xori	x23,x15,1235
    41015a2c:	7d3bc993          	xori	x19,x23,2003
    41015a30:	1e69cc93          	xori	x25,x19,486
    41015a34:	51ccc813          	xori	x16,x25,1308
    41015a38:	4a184313          	xori	x6,x16,1185
    41015a3c:	09c34b93          	xori	x23,x6,156
    41015a40:	021bcd93          	xori	x27,x23,33
    41015a44:	578dce13          	xori	x28,x27,1400
    41015a48:	448e4913          	xori	x18,x28,1096
    41015a4c:	59194313          	xori	x6,x18,1425
    41015a50:	5d434493          	xori	x9,x6,1492
    41015a54:	6924c493          	xori	x9,x9,1682
    41015a58:	74c4cd13          	xori	x26,x9,1868
    41015a5c:	62ad4793          	xori	x15,x26,1578
    41015a60:	3e47cb13          	xori	x22,x15,996
    41015a64:	012b4513          	xori	x10,x22,18
    41015a68:	c01026f3          	rdtime	x13
    41015a6c:	c0002973          	rdcycle	x18
    41015a70:	c0202573          	rdinstret	x10
    41015a74:	41f68e33          	sub	x28,x13,x31
    41015a78:	40b908b3          	sub	x17,x18,x11
    41015a7c:	41850533          	sub	x10,x10,x24
    41015a80:	00000f93          	li	x31,0
    41015a84:	c0102773          	rdtime	x14
    41015a88:	c00029f3          	rdcycle	x19
    41015a8c:	c02024f3          	rdinstret	x9
    41015a90:	6fefc813          	xori	x16,x31,1790
    41015a94:	45c84313          	xori	x6,x16,1116
    41015a98:	19d34393          	xori	x7,x6,413
    41015a9c:	7f53c813          	xori	x16,x7,2037
    41015aa0:	01a84313          	xori	x6,x16,26
    41015aa4:	08e34593          	xori	x11,x6,142
    41015aa8:	46f5c793          	xori	x15,x11,1135
    41015aac:	5307ce93          	xori	x29,x15,1328
    41015ab0:	2c2ecb13          	xori	x22,x29,706
    41015ab4:	15eb4693          	xori	x13,x22,350
    41015ab8:	32c6cb93          	xori	x23,x13,812
    41015abc:	173bcf13          	xori	x30,x23,371
    41015ac0:	4cdf4613          	xori	x12,x30,1229
    41015ac4:	4c064393          	xori	x7,x12,1216
    41015ac8:	60e3c693          	xori	x13,x7,1550
    41015acc:	2696cb13          	xori	x22,x13,617
    41015ad0:	6e9b4613          	xori	x12,x22,1769
    41015ad4:	35364a93          	xori	x21,x12,851
    41015ad8:	299acd13          	xori	x26,x21,665
    41015adc:	141d4d13          	xori	x26,x26,321
    41015ae0:	4abd4793          	xori	x15,x26,1195
    41015ae4:	78e7ce93          	xori	x29,x15,1934
    41015ae8:	50cec313          	xori	x6,x29,1292
    41015aec:	01534613          	xori	x12,x6,21
    41015af0:	57e64d13          	xori	x26,x12,1406
    41015af4:	432d4a13          	xori	x20,x26,1074
    41015af8:	4aea4913          	xori	x18,x20,1198
    41015afc:	62894d13          	xori	x26,x18,1576
    41015b00:	3bbd4693          	xori	x13,x26,955
    41015b04:	75a6ca13          	xori	x20,x13,1882
    41015b08:	67ca4d13          	xori	x26,x20,1660
    41015b0c:	741d4f93          	xori	x31,x26,1857
    41015b10:	02bfcf13          	xori	x30,x31,43
    41015b14:	30ef4393          	xori	x7,x30,782
    41015b18:	64d3cb13          	xori	x22,x7,1613
    41015b1c:	5eeb4c13          	xori	x24,x22,1518
    41015b20:	159c4413          	xori	x8,x24,345
    41015b24:	73544a13          	xori	x20,x8,1845
    41015b28:	178a4593          	xori	x11,x20,376
    41015b2c:	1fb5cd13          	xori	x26,x11,507
    41015b30:	562d4f93          	xori	x31,x26,1378
    41015b34:	0f5fc813          	xori	x16,x31,245
    41015b38:	3a684a13          	xori	x20,x16,934
    41015b3c:	1b3a4a13          	xori	x20,x20,435
    41015b40:	2c0a4f13          	xori	x30,x20,704
    41015b44:	1cbf4c13          	xori	x24,x30,459
    41015b48:	0a3c4693          	xori	x13,x24,163
    41015b4c:	2736c613          	xori	x12,x13,627
    41015b50:	06c64b13          	xori	x22,x12,108
    41015b54:	0c7b4a13          	xori	x20,x22,199
    41015b58:	227a4d93          	xori	x27,x20,551
    41015b5c:	37bdc413          	xori	x8,x27,891
    41015b60:	0c844813          	xori	x16,x8,200
    41015b64:	7c084593          	xori	x11,x16,1984
    41015b68:	5955cb93          	xori	x23,x11,1429
    41015b6c:	0c3bca93          	xori	x21,x23,195
    41015b70:	19eaca93          	xori	x21,x21,414
    41015b74:	5a8acd93          	xori	x27,x21,1448
    41015b78:	30edc313          	xori	x6,x27,782
    41015b7c:	19234393          	xori	x7,x6,402
    41015b80:	3613ce93          	xori	x29,x7,865
    41015b84:	48cec813          	xori	x16,x29,1164
    41015b88:	5a684313          	xori	x6,x16,1446
    41015b8c:	1fa34693          	xori	x13,x6,506
    41015b90:	68b6c393          	xori	x7,x13,1675
    41015b94:	3dc3c593          	xori	x11,x7,988
    41015b98:	5105cc93          	xori	x25,x11,1296
    41015b9c:	539ccc93          	xori	x25,x25,1337
    41015ba0:	1bfcce93          	xori	x29,x25,447
    41015ba4:	097ec793          	xori	x15,x29,151
    41015ba8:	11c7cf13          	xori	x30,x15,284
    41015bac:	6c3f4b13          	xori	x22,x30,1731
    41015bb0:	47cb4e13          	xori	x28,x22,1148
    41015bb4:	0a9e4613          	xori	x12,x28,169
    41015bb8:	2f064c93          	xori	x25,x12,752
    41015bbc:	722cc793          	xori	x15,x25,1826
    41015bc0:	5cf7c913          	xori	x18,x15,1487
    41015bc4:	19094d93          	xori	x27,x18,400
    41015bc8:	1bddcc93          	xori	x25,x27,445
    41015bcc:	2ddccc93          	xori	x25,x25,733
    41015bd0:	589cc813          	xori	x16,x25,1417
    41015bd4:	3d284813          	xori	x16,x16,978
    41015bd8:	2e084793          	xori	x15,x16,736
    41015bdc:	6807c793          	xori	x15,x15,1664
    41015be0:	2407cc13          	xori	x24,x15,576
    41015be4:	750c4593          	xori	x11,x24,1872
    41015be8:	1755c793          	xori	x15,x11,373
    41015bec:	3967cb93          	xori	x23,x15,918
    41015bf0:	60bbc693          	xori	x13,x23,1547
    41015bf4:	51a6c593          	xori	x11,x13,1306
    41015bf8:	40b5cc93          	xori	x25,x11,1035
    41015bfc:	239cc393          	xori	x7,x25,569
    41015c00:	45c3ce13          	xori	x28,x7,1116
    41015c04:	4b9e4b93          	xori	x23,x28,1209
    41015c08:	6abbca13          	xori	x20,x23,1707
    41015c0c:	0baa4313          	xori	x6,x20,186
    41015c10:	03a34c93          	xori	x25,x6,58
    41015c14:	437ccf93          	xori	x31,x25,1079
    41015c18:	45ffc913          	xori	x18,x31,1119
    41015c1c:	13094813          	xori	x16,x18,304
    41015c20:	c0102c73          	rdtime	x24
    41015c24:	c0002873          	rdcycle	x16
    41015c28:	c0202d73          	rdinstret	x26
    41015c2c:	40ec0ab3          	sub	x21,x24,x14
    41015c30:	41380c33          	sub	x24,x16,x19
    41015c34:	409d0e33          	sub	x28,x26,x9
    41015c38:	01888a63          	beq	x17,x24,41015c4c <pass_label_8>
    41015c3c:	43600737          	lui	x14,0x43600
    41015c40:	0087071b          	addiw	x14,x14,8 # 43600008 <failed_addr>
    41015c44:	00073583          	ld	x11,0(x14)
    41015c48:	00058067          	jr	x11

0000000041015c4c <pass_label_8>:
    41015c4c:	01c50a63          	beq	x10,x28,41015c60 <SID_ZKT_03_XORI_passed>
    41015c50:	43600cb7          	lui	x25,0x43600
    41015c54:	008c8c9b          	addiw	x25,x25,8 # 43600008 <failed_addr>
    41015c58:	000cba83          	ld	x21,0(x25)
    41015c5c:	000a8067          	jr	x21

0000000041015c60 <SID_ZKT_03_XORI_passed>:
    41015c60:	436002b7          	lui	x5,0x43600
    41015c64:	0182829b          	addiw	x5,x5,24 # 43600018 <os_passed_addr>
    41015c68:	0002b303          	ld	x6,0(x5)
    41015c6c:	00030067          	jr	x6

0000000041015c70 <SID_ZKT_03_ORI>:
    41015c70:	4462d137          	lui	x2,0x4462d
    41015c74:	000012b7          	lui	x5,0x1
    41015c78:	00510133          	add	x2,x2,x5
    41015c7c:	ff017113          	andi	x2,x2,-16
    41015c80:	00000393          	li	x7,0
    41015c84:	c01025f3          	rdtime	x11
    41015c88:	c0002d73          	rdcycle	x26
    41015c8c:	c0202c73          	rdinstret	x24
    41015c90:	4043ea13          	ori	x20,x7,1028
    41015c94:	620a6c93          	ori	x25,x20,1568
    41015c98:	5b8ce393          	ori	x7,x25,1464
    41015c9c:	50f3eb13          	ori	x22,x7,1295
    41015ca0:	6f2b6993          	ori	x19,x22,1778
    41015ca4:	01f9e693          	ori	x13,x19,31
    41015ca8:	2c86e793          	ori	x15,x13,712
    41015cac:	4ef7ea93          	ori	x21,x15,1263
    41015cb0:	567aee93          	ori	x29,x21,1383
    41015cb4:	7b0eef93          	ori	x31,x29,1968
    41015cb8:	2c9fe413          	ori	x8,x31,713
    41015cbc:	1c646c93          	ori	x25,x8,454
    41015cc0:	209ce393          	ori	x7,x25,521
    41015cc4:	0203e893          	ori	x17,x7,32
    41015cc8:	0738eb13          	ori	x22,x17,115
    41015ccc:	2c5b6e93          	ori	x29,x22,709
    41015cd0:	33feea13          	ori	x20,x29,831
    41015cd4:	025a6c93          	ori	x25,x20,37
    41015cd8:	4e2ce713          	ori	x14,x25,1250
    41015cdc:	7ec76413          	ori	x8,x14,2028
    41015ce0:	41546b13          	ori	x22,x8,1045
    41015ce4:	1ebb6893          	ori	x17,x22,491
    41015ce8:	3988eb93          	ori	x23,x17,920
    41015cec:	0f8beb93          	ori	x23,x23,248
    41015cf0:	62bbe693          	ori	x13,x23,1579
    41015cf4:	5286eb13          	ori	x22,x13,1320
    41015cf8:	3a3b6513          	ori	x10,x22,931
    41015cfc:	02556f93          	ori	x31,x10,37
    41015d00:	58afeb93          	ori	x23,x31,1418
    41015d04:	70fbe493          	ori	x9,x23,1807
    41015d08:	4754e913          	ori	x18,x9,1141
    41015d0c:	68d96e13          	ori	x28,x18,1677
    41015d10:	79ce6913          	ori	x18,x28,1948
    41015d14:	3a096f93          	ori	x31,x18,928
    41015d18:	2acfe993          	ori	x19,x31,684
    41015d1c:	1469e693          	ori	x13,x19,326
    41015d20:	38c6ee93          	ori	x29,x13,908
    41015d24:	28bee513          	ori	x10,x29,651
    41015d28:	62756d93          	ori	x27,x10,1575
    41015d2c:	4ebdef13          	ori	x30,x27,1259
    41015d30:	261f6693          	ori	x13,x30,609
    41015d34:	5916e893          	ori	x17,x13,1425
    41015d38:	65e8e313          	ori	x6,x17,1630
    41015d3c:	4c536993          	ori	x19,x6,1221
    41015d40:	29b9ef13          	ori	x30,x19,667
    41015d44:	22bf6b13          	ori	x22,x30,555
    41015d48:	13db6413          	ori	x8,x22,317
    41015d4c:	5c146693          	ori	x13,x8,1473
    41015d50:	4616ec93          	ori	x25,x13,1121
    41015d54:	6bbce713          	ori	x14,x25,1723
    41015d58:	47f76913          	ori	x18,x14,1151
    41015d5c:	33b96313          	ori	x6,x18,827
    41015d60:	27436a13          	ori	x20,x6,628
    41015d64:	06ba6493          	ori	x9,x20,107
    41015d68:	2324e993          	ori	x19,x9,562
    41015d6c:	5309ee93          	ori	x29,x19,1328
    41015d70:	7feee913          	ori	x18,x29,2046
    41015d74:	28d96913          	ori	x18,x18,653
    41015d78:	40b96a13          	ori	x20,x18,1035
    41015d7c:	73aa6a13          	ori	x20,x20,1850
    41015d80:	5b1a6993          	ori	x19,x20,1457
    41015d84:	4789e813          	ori	x16,x19,1144
    41015d88:	35e86f13          	ori	x30,x16,862
    41015d8c:	732f6613          	ori	x12,x30,1842
    41015d90:	46966693          	ori	x13,x12,1129
    41015d94:	66a6eb13          	ori	x22,x13,1642
    41015d98:	24cb6493          	ori	x9,x22,588
    41015d9c:	5484e413          	ori	x8,x9,1352
    41015da0:	15d46b13          	ori	x22,x8,349
    41015da4:	0a3b6a13          	ori	x20,x22,163
    41015da8:	6aca6b13          	ori	x22,x20,1708
    41015dac:	75cb6313          	ori	x6,x22,1884
    41015db0:	57736313          	ori	x6,x6,1399
    41015db4:	11b36893          	ori	x17,x6,283
    41015db8:	2728e513          	ori	x10,x17,626
    41015dbc:	48756313          	ori	x6,x10,1159
    41015dc0:	34236a13          	ori	x20,x6,834
    41015dc4:	2efa6813          	ori	x16,x20,751
    41015dc8:	47d86f93          	ori	x31,x16,1149
    41015dcc:	3f7fe913          	ori	x18,x31,1015
    41015dd0:	08896413          	ori	x8,x18,136
    41015dd4:	60f46f93          	ori	x31,x8,1551
    41015dd8:	4eefe613          	ori	x12,x31,1262
    41015ddc:	7ea66b93          	ori	x23,x12,2026
    41015de0:	7f8be513          	ori	x10,x23,2040
    41015de4:	21b56b13          	ori	x22,x10,539
    41015de8:	57db6d93          	ori	x27,x22,1405
    41015dec:	700de893          	ori	x17,x27,1792
    41015df0:	3bd8eb13          	ori	x22,x17,957
    41015df4:	24fb6613          	ori	x12,x22,591
    41015df8:	0f966413          	ori	x8,x12,249
    41015dfc:	56946793          	ori	x15,x8,1385
    41015e00:	4527e993          	ori	x19,x15,1106
    41015e04:	6639e313          	ori	x6,x19,1635
    41015e08:	4aa36613          	ori	x12,x6,1194
    41015e0c:	63866393          	ori	x7,x12,1592
    41015e10:	5973e313          	ori	x6,x7,1431
    41015e14:	7be36a93          	ori	x21,x6,1982
    41015e18:	712ae313          	ori	x6,x21,1810
    41015e1c:	6b436713          	ori	x14,x6,1716
    41015e20:	c01023f3          	rdtime	x7
    41015e24:	c00026f3          	rdcycle	x13
    41015e28:	c0202ef3          	rdinstret	x29
    41015e2c:	40b38e33          	sub	x28,x7,x11
    41015e30:	41a68cb3          	sub	x25,x13,x26
    41015e34:	418e8bb3          	sub	x23,x29,x24
    41015e38:	00000c13          	li	x24,0
    41015e3c:	c0102ff3          	rdtime	x31
    41015e40:	c00025f3          	rdcycle	x11
    41015e44:	c0202f73          	rdinstret	x30
    41015e48:	22ac6613          	ori	x12,x24,554
    41015e4c:	26766693          	ori	x13,x12,615
    41015e50:	0d96ea93          	ori	x21,x13,217
    41015e54:	6fdae813          	ori	x16,x21,1789
    41015e58:	7c386913          	ori	x18,x16,1987
    41015e5c:	4db96e93          	ori	x29,x18,1243
    41015e60:	449ee913          	ori	x18,x29,1097
    41015e64:	6fb96913          	ori	x18,x18,1787
    41015e68:	71c96e93          	ori	x29,x18,1820
    41015e6c:	5d3ee793          	ori	x15,x29,1491
    41015e70:	4d87ec93          	ori	x25,x15,1240
    41015e74:	0d8ce313          	ori	x6,x25,216
    41015e78:	73836993          	ori	x19,x6,1848
    41015e7c:	6049e793          	ori	x15,x19,1540
    41015e80:	4d37e613          	ori	x12,x15,1235
    41015e84:	34b66a13          	ori	x20,x12,843
    41015e88:	5d1a6413          	ori	x8,x20,1489
    41015e8c:	7e646413          	ori	x8,x8,2022
    41015e90:	51546693          	ori	x13,x8,1301
    41015e94:	5086ee13          	ori	x28,x13,1288
    41015e98:	7a2e6c13          	ori	x24,x28,1954
    41015e9c:	05fc6c93          	ori	x25,x24,95
    41015ea0:	605cee93          	ori	x29,x25,1541
    41015ea4:	039ee993          	ori	x19,x29,57
    41015ea8:	7cd9e393          	ori	x7,x19,1997
    41015eac:	4b63e713          	ori	x14,x7,1206
    41015eb0:	35776613          	ori	x12,x14,855
    41015eb4:	50666e13          	ori	x28,x12,1286
    41015eb8:	1a9e6813          	ori	x16,x28,425
    41015ebc:	29686d13          	ori	x26,x16,662
    41015ec0:	19fd6693          	ori	x13,x26,415
    41015ec4:	7bc6ec13          	ori	x24,x13,1980
    41015ec8:	3a9c6913          	ori	x18,x24,937
    41015ecc:	6af96a93          	ori	x21,x18,1711
    41015ed0:	476ae893          	ori	x17,x21,1142
    41015ed4:	24b8ed13          	ori	x26,x17,587
    41015ed8:	586d6713          	ori	x14,x26,1414
    41015edc:	6de76813          	ori	x16,x14,1758
    41015ee0:	3bb86b13          	ori	x22,x16,955
    41015ee4:	2a6b6513          	ori	x10,x22,678
    41015ee8:	7ba56313          	ori	x6,x10,1978
    41015eec:	2fe36e93          	ori	x29,x6,766
    41015ef0:	341ee893          	ori	x17,x29,833
    41015ef4:	2ac8e413          	ori	x8,x17,684
    41015ef8:	01446e93          	ori	x29,x8,20
    41015efc:	481ee393          	ori	x7,x29,1153
    41015f00:	43b3ea13          	ori	x20,x7,1083
    41015f04:	503a6a93          	ori	x21,x20,1283
    41015f08:	545ae393          	ori	x7,x21,1349
    41015f0c:	3cc3ed93          	ori	x27,x7,972
    41015f10:	1f2de713          	ori	x14,x27,498
    41015f14:	3da76493          	ori	x9,x14,986
    41015f18:	5f24ea13          	ori	x20,x9,1522
    41015f1c:	687a6d13          	ori	x26,x20,1671
    41015f20:	195d6c13          	ori	x24,x26,405
    41015f24:	538c6693          	ori	x13,x24,1336
    41015f28:	73e6e513          	ori	x10,x13,1854
    41015f2c:	48256e13          	ori	x28,x10,1154
    41015f30:	394e6b93          	ori	x23,x28,916
    41015f34:	57cbe893          	ori	x17,x23,1404
    41015f38:	7a18ea13          	ori	x20,x17,1953
    41015f3c:	6a7a6e13          	ori	x28,x20,1703
    41015f40:	4ebe6c13          	ori	x24,x28,1259
    41015f44:	4ddc6b93          	ori	x23,x24,1245
    41015f48:	5cdbed13          	ori	x26,x23,1485
    41015f4c:	4ffd6b93          	ori	x23,x26,1279
    41015f50:	1a8be813          	ori	x16,x23,424
    41015f54:	0e486d13          	ori	x26,x16,228
    41015f58:	70fd6493          	ori	x9,x26,1807
    41015f5c:	3254eb13          	ori	x22,x9,805
    41015f60:	7eeb6993          	ori	x19,x22,2030
    41015f64:	4479ec93          	ori	x25,x19,1095
    41015f68:	135cea93          	ori	x21,x25,309
    41015f6c:	32faea13          	ori	x20,x21,815
    41015f70:	4a5a6b93          	ori	x23,x20,1189
    41015f74:	305be913          	ori	x18,x23,773
    41015f78:	14b96893          	ori	x17,x18,331
    41015f7c:	4be8ee93          	ori	x29,x17,1214
    41015f80:	70eee313          	ori	x6,x29,1806
    41015f84:	57336913          	ori	x18,x6,1395
    41015f88:	6ed96e93          	ori	x29,x18,1773
    41015f8c:	329eec13          	ori	x24,x29,809
    41015f90:	74dc6b13          	ori	x22,x24,1869
    41015f94:	299b6e13          	ori	x28,x22,665
    41015f98:	628e6d93          	ori	x27,x28,1576
    41015f9c:	01cde913          	ori	x18,x27,28
    41015fa0:	31c96313          	ori	x6,x18,796
    41015fa4:	35636393          	ori	x7,x6,854
    41015fa8:	5103eb13          	ori	x22,x7,1296
    41015fac:	277b6a13          	ori	x20,x22,631
    41015fb0:	07ba6513          	ori	x10,x20,123
    41015fb4:	26b56b93          	ori	x23,x10,619
    41015fb8:	0dcbe693          	ori	x13,x23,220
    41015fbc:	1f66e313          	ori	x6,x13,502
    41015fc0:	47436893          	ori	x17,x6,1140
    41015fc4:	69f8ee13          	ori	x28,x17,1695
    41015fc8:	5f0e6b93          	ori	x23,x28,1520
    41015fcc:	222be413          	ori	x8,x23,546
    41015fd0:	25d46493          	ori	x9,x8,605
    41015fd4:	66b4e813          	ori	x16,x9,1643
    41015fd8:	c0102873          	rdtime	x16
    41015fdc:	c0002c73          	rdcycle	x24
    41015fe0:	c02026f3          	rdinstret	x13
    41015fe4:	41f80433          	sub	x8,x16,x31
    41015fe8:	40bc0eb3          	sub	x29,x24,x11
    41015fec:	41e68db3          	sub	x27,x13,x30
    41015ff0:	00000313          	li	x6,0
    41015ff4:	c01023f3          	rdtime	x7
    41015ff8:	c0002cf3          	rdcycle	x25
    41015ffc:	c0202973          	rdinstret	x18
    41016000:	01e36493          	ori	x9,x6,30
    41016004:	5e24e493          	ori	x9,x9,1506
    41016008:	05f4ec13          	ori	x24,x9,95
    4101600c:	74dc6c13          	ori	x24,x24,1869
    41016010:	2a6c6e13          	ori	x28,x24,678
    41016014:	037e6713          	ori	x14,x28,55
    41016018:	2fd76b93          	ori	x23,x14,765
    4101601c:	6b5be313          	ori	x6,x23,1717
    41016020:	74336313          	ori	x6,x6,1859
    41016024:	25e36893          	ori	x17,x6,606
    41016028:	5888e793          	ori	x15,x17,1416
    4101602c:	5b37e493          	ori	x9,x15,1459
    41016030:	7114e413          	ori	x8,x9,1809
    41016034:	7b646593          	ori	x11,x8,1974
    41016038:	60e5e813          	ori	x16,x11,1550
    4101603c:	31f86613          	ori	x12,x16,799
    41016040:	59d66693          	ori	x13,x12,1437
    41016044:	7746ec13          	ori	x24,x13,1908
    41016048:	61ec6613          	ori	x12,x24,1566
    4101604c:	36d66413          	ori	x8,x12,877
    41016050:	1c846993          	ori	x19,x8,456
    41016054:	1339e413          	ori	x8,x19,307
    41016058:	61346793          	ori	x15,x8,1555
    4101605c:	7f77ef13          	ori	x30,x15,2039
    41016060:	4a8f6b13          	ori	x22,x30,1192
    41016064:	04db6f13          	ori	x30,x22,77
    41016068:	52af6693          	ori	x13,x30,1322
    4101606c:	43c6e493          	ori	x9,x13,1084
    41016070:	3fa4e513          	ori	x10,x9,1018
    41016074:	48556893          	ori	x17,x10,1157
    41016078:	3978ef13          	ori	x30,x17,919
    4101607c:	6def6613          	ori	x12,x30,1758
    41016080:	6c266493          	ori	x9,x12,1730
    41016084:	61b4ef93          	ori	x31,x9,1563
    41016088:	668fe993          	ori	x19,x31,1640
    4101608c:	16f9ec13          	ori	x24,x19,367
    41016090:	18ec6593          	ori	x11,x24,398
    41016094:	3795e713          	ori	x14,x11,889
    41016098:	6e376a13          	ori	x20,x14,1763
    4101609c:	3c6a6593          	ori	x11,x20,966
    410160a0:	4545ec13          	ori	x24,x11,1108
    410160a4:	46ec6e13          	ori	x28,x24,1134
    410160a8:	082e6493          	ori	x9,x28,130
    410160ac:	7734e813          	ori	x16,x9,1907
    410160b0:	65486793          	ori	x15,x16,1620
    410160b4:	0c57e413          	ori	x8,x15,197
    410160b8:	70d46a13          	ori	x20,x8,1805
    410160bc:	095a6e13          	ori	x28,x20,149
    410160c0:	37be6413          	ori	x8,x28,891
    410160c4:	26c46993          	ori	x19,x8,620
    410160c8:	3729ea13          	ori	x20,x19,882
    410160cc:	29aa6b93          	ori	x23,x20,666
    410160d0:	22cbe493          	ori	x9,x23,556
    410160d4:	4454e713          	ori	x14,x9,1093
    410160d8:	19076313          	ori	x6,x14,400
    410160dc:	50336713          	ori	x14,x6,1283
    410160e0:	44976b13          	ori	x22,x14,1097
    410160e4:	5e4b6993          	ori	x19,x22,1508
    410160e8:	3829ef13          	ori	x30,x19,898
    410160ec:	0b0f6a13          	ori	x20,x30,176
    410160f0:	53da6593          	ori	x11,x20,1341
    410160f4:	0ff5e993          	ori	x19,x11,255
    410160f8:	5469ee13          	ori	x28,x19,1350
    410160fc:	649e6313          	ori	x6,x28,1609
    41016100:	18f36313          	ori	x6,x6,399
    41016104:	01f36a13          	ori	x20,x6,31
    41016108:	62ba6f13          	ori	x30,x20,1579
    4101610c:	592f6f13          	ori	x30,x30,1426
    41016110:	39ef6f13          	ori	x30,x30,926
    41016114:	0b4f6c13          	ori	x24,x30,180
    41016118:	345c6493          	ori	x9,x24,837
    4101611c:	4fc4ee13          	ori	x28,x9,1276
    41016120:	17ce6493          	ori	x9,x28,380
    41016124:	5594ed13          	ori	x26,x9,1369
    41016128:	4e5d6413          	ori	x8,x26,1253
    4101612c:	4b146c13          	ori	x24,x8,1201
    41016130:	573c6813          	ori	x16,x24,1395
    41016134:	09786693          	ori	x13,x16,151
    41016138:	6446e993          	ori	x19,x13,1604
    4101613c:	7759e813          	ori	x16,x19,1909
    41016140:	69386593          	ori	x11,x16,1683
    41016144:	5a45e693          	ori	x13,x11,1444
    41016148:	2ce6e713          	ori	x14,x13,718
    4101614c:	35676e13          	ori	x28,x14,854
    41016150:	461e6513          	ori	x10,x28,1121
    41016154:	3d356993          	ori	x19,x10,979
    41016158:	4ed9ef13          	ori	x30,x19,1261
    4101615c:	483f6613          	ori	x12,x30,1155
    41016160:	31f66c13          	ori	x24,x12,799
    41016164:	239c6693          	ori	x13,x24,569
    41016168:	0176e693          	ori	x13,x13,23
    4101616c:	7f16ec13          	ori	x24,x13,2033
    41016170:	5d7c6b13          	ori	x22,x24,1495
    41016174:	1a0b6b93          	ori	x23,x22,416
    41016178:	734be793          	ori	x15,x23,1844
    4101617c:	0207e693          	ori	x13,x15,32
    41016180:	3cd6ed13          	ori	x26,x13,973
    41016184:	70fd6813          	ori	x16,x26,1807
    41016188:	76286b93          	ori	x23,x16,1890
    4101618c:	46bbed13          	ori	x26,x23,1131
    41016190:	c01025f3          	rdtime	x11
    41016194:	c0002b73          	rdcycle	x22
    41016198:	c0202573          	rdinstret	x10
    4101619c:	40758d33          	sub	x26,x11,x7
    410161a0:	419b03b3          	sub	x7,x22,x25
    410161a4:	41250633          	sub	x12,x10,x18
    410161a8:	007e8a63          	beq	x29,x7,410161bc <pass_label_10>
    410161ac:	43600437          	lui	x8,0x43600
    410161b0:	0084041b          	addiw	x8,x8,8 # 43600008 <failed_addr>
    410161b4:	00043b03          	ld	x22,0(x8)
    410161b8:	000b0067          	jr	x22

00000000410161bc <pass_label_10>:
    410161bc:	00cd8a63          	beq	x27,x12,410161d0 <SID_ZKT_03_ORI_passed>
    410161c0:	436008b7          	lui	x17,0x43600
    410161c4:	0088889b          	addiw	x17,x17,8 # 43600008 <failed_addr>
    410161c8:	0008b703          	ld	x14,0(x17)
    410161cc:	00070067          	jr	x14

00000000410161d0 <SID_ZKT_03_ORI_passed>:
    410161d0:	436002b7          	lui	x5,0x43600
    410161d4:	0182829b          	addiw	x5,x5,24 # 43600018 <os_passed_addr>
    410161d8:	0002b303          	ld	x6,0(x5)
    410161dc:	00030067          	jr	x6

00000000410161e0 <SID_ZKT_03_ANDI>:
    410161e0:	43018137          	lui	x2,0x43018
    410161e4:	000012b7          	lui	x5,0x1
    410161e8:	00510133          	add	x2,x2,x5
    410161ec:	ff017113          	andi	x2,x2,-16
    410161f0:	00000b93          	li	x23,0
    410161f4:	c0102b73          	rdtime	x22
    410161f8:	c0002873          	rdcycle	x16
    410161fc:	c02028f3          	rdinstret	x17
    41016200:	5dfbf593          	andi	x11,x23,1503
    41016204:	2a25fc93          	andi	x25,x11,674
    41016208:	479cfb93          	andi	x23,x25,1145
    4101620c:	2fabfa93          	andi	x21,x23,762
    41016210:	2aeaf693          	andi	x13,x21,686
    41016214:	7eb6f413          	andi	x8,x13,2027
    41016218:	50747e93          	andi	x29,x8,1287
    4101621c:	34aefa13          	andi	x20,x29,842
    41016220:	2dda7d13          	andi	x26,x20,733
    41016224:	4ddd7713          	andi	x14,x26,1245
    41016228:	3f277b93          	andi	x23,x14,1010
    4101622c:	17bbf513          	andi	x10,x23,379
    41016230:	4b457413          	andi	x8,x10,1204
    41016234:	59c47713          	andi	x14,x8,1436
    41016238:	66877313          	andi	x6,x14,1640
    4101623c:	64037793          	andi	x15,x6,1600
    41016240:	18c7fc93          	andi	x25,x15,396
    41016244:	270cf593          	andi	x11,x25,624
    41016248:	7b85fa13          	andi	x20,x11,1976
    4101624c:	370a7a93          	andi	x21,x20,880
    41016250:	6cdaff13          	andi	x30,x21,1741
    41016254:	2c6f7c13          	andi	x24,x30,710
    41016258:	184c7c93          	andi	x25,x24,388
    4101625c:	5d3cf913          	andi	x18,x25,1491
    41016260:	74c97e13          	andi	x28,x18,1868
    41016264:	4ace7513          	andi	x10,x28,1196
    41016268:	22757c93          	andi	x25,x10,551
    4101626c:	750cfe93          	andi	x29,x25,1872
    41016270:	6c8ef413          	andi	x8,x29,1736
    41016274:	4ce47713          	andi	x14,x8,1230
    41016278:	1b777e13          	andi	x28,x14,439
    4101627c:	625e7a13          	andi	x20,x28,1573
    41016280:	6e7a7413          	andi	x8,x20,1767
    41016284:	44247e93          	andi	x29,x8,1090
    41016288:	6edef793          	andi	x15,x29,1773
    4101628c:	3a17f913          	andi	x18,x15,929
    41016290:	47c97d13          	andi	x26,x18,1148
    41016294:	3bbd7793          	andi	x15,x26,955
    41016298:	5727f993          	andi	x19,x15,1394
    4101629c:	1c69fa13          	andi	x20,x19,454
    410162a0:	60ca7413          	andi	x8,x20,1548
    410162a4:	3e947c13          	andi	x24,x8,1001
    410162a8:	518c7f13          	andi	x30,x24,1304
    410162ac:	4eef7993          	andi	x19,x30,1262
    410162b0:	2b19fd93          	andi	x27,x19,689
    410162b4:	4d5df613          	andi	x12,x27,1237
    410162b8:	62b67593          	andi	x11,x12,1579
    410162bc:	24f5fe13          	andi	x28,x11,591
    410162c0:	73de7f13          	andi	x30,x28,1853
    410162c4:	2b3f7c93          	andi	x25,x30,691
    410162c8:	44ccff93          	andi	x31,x25,1100
    410162cc:	4b2fff13          	andi	x30,x31,1202
    410162d0:	6e3f7c13          	andi	x24,x30,1763
    410162d4:	6dbc7e93          	andi	x29,x24,1755
    410162d8:	2e7efd13          	andi	x26,x29,743
    410162dc:	009d7693          	andi	x13,x26,9
    410162e0:	3986ff13          	andi	x30,x13,920
    410162e4:	653f7693          	andi	x13,x30,1619
    410162e8:	5736fd13          	andi	x26,x13,1395
    410162ec:	36cd7313          	andi	x6,x26,876
    410162f0:	28e37713          	andi	x14,x6,654
    410162f4:	63f77393          	andi	x7,x14,1599
    410162f8:	6523fd13          	andi	x26,x7,1618
    410162fc:	033d7513          	andi	x10,x26,51
    41016300:	66157393          	andi	x7,x10,1633
    41016304:	2203fc13          	andi	x24,x7,544
    41016308:	1a8c7993          	andi	x19,x24,424
    4101630c:	6919ff13          	andi	x30,x19,1681
    41016310:	337f7c13          	andi	x24,x30,823
    41016314:	66fc7f13          	andi	x30,x24,1647
    41016318:	710f7913          	andi	x18,x30,1808
    4101631c:	01597f93          	andi	x31,x18,21
    41016320:	423ffd13          	andi	x26,x31,1059
    41016324:	1c0d7f13          	andi	x30,x26,448
    41016328:	04cf7393          	andi	x7,x30,76
    4101632c:	3f63f393          	andi	x7,x7,1014
    41016330:	67a3f593          	andi	x11,x7,1658
    41016334:	59c5fa93          	andi	x21,x11,1436
    41016338:	179afc93          	andi	x25,x21,377
    4101633c:	2f6cf413          	andi	x8,x25,758
    41016340:	3c147c93          	andi	x25,x8,961
    41016344:	314cf713          	andi	x14,x25,788
    41016348:	73d77913          	andi	x18,x14,1853
    4101634c:	4c197c13          	andi	x24,x18,1217
    41016350:	621c7e13          	andi	x28,x24,1569
    41016354:	3d9e7593          	andi	x11,x28,985
    41016358:	5f75f513          	andi	x10,x11,1527
    4101635c:	48257913          	andi	x18,x10,1154
    41016360:	02597393          	andi	x7,x18,37
    41016364:	1b33fa13          	andi	x20,x7,435
    41016368:	1ffa7413          	andi	x8,x20,511
    4101636c:	2b047a93          	andi	x21,x8,688
    41016370:	0eeaf793          	andi	x15,x21,238
    41016374:	7037f493          	andi	x9,x15,1795
    41016378:	7db4f793          	andi	x15,x9,2011
    4101637c:	72c7f513          	andi	x10,x15,1836
    41016380:	1b957f13          	andi	x30,x10,441
    41016384:	755f7993          	andi	x19,x30,1877
    41016388:	14b9fd93          	andi	x27,x19,331
    4101638c:	1d6dfb93          	andi	x23,x27,470
    41016390:	c0102e73          	rdtime	x28
    41016394:	c0002d73          	rdcycle	x26
    41016398:	c0202f73          	rdinstret	x30
    4101639c:	416e0533          	sub	x10,x28,x22
    410163a0:	410d03b3          	sub	x7,x26,x16
    410163a4:	411f0fb3          	sub	x31,x30,x17
    410163a8:	00000d93          	li	x27,0
    410163ac:	c0102af3          	rdtime	x21
    410163b0:	c0002c73          	rdcycle	x24
    410163b4:	c0202873          	rdinstret	x16
    410163b8:	5b7dfa13          	andi	x20,x27,1463
    410163bc:	200a7613          	andi	x12,x20,512
    410163c0:	64267613          	andi	x12,x12,1602
    410163c4:	27c67f13          	andi	x30,x12,636
    410163c8:	5bef7613          	andi	x12,x30,1470
    410163cc:	0cc67893          	andi	x17,x12,204
    410163d0:	4448f393          	andi	x7,x17,1092
    410163d4:	1113fb93          	andi	x23,x7,273
    410163d8:	720bf993          	andi	x19,x23,1824
    410163dc:	6f09fb93          	andi	x23,x19,1776
    410163e0:	4cfbfd13          	andi	x26,x23,1231
    410163e4:	4f2d7513          	andi	x10,x26,1266
    410163e8:	04f57d93          	andi	x27,x10,79
    410163ec:	140df793          	andi	x15,x27,320
    410163f0:	6b27ff13          	andi	x30,x15,1714
    410163f4:	627f7e93          	andi	x29,x30,1575
    410163f8:	010ef493          	andi	x9,x29,16
    410163fc:	5ff4fc93          	andi	x25,x9,1535
    41016400:	7f6cfa13          	andi	x20,x25,2038
    41016404:	3ada7c93          	andi	x25,x20,941
    41016408:	4a7cfe93          	andi	x29,x25,1191
    4101640c:	06def693          	andi	x13,x29,109
    41016410:	5076f893          	andi	x17,x13,1287
    41016414:	4be8fe93          	andi	x29,x17,1214
    41016418:	1e9ef793          	andi	x15,x29,489
    4101641c:	2d57fd13          	andi	x26,x15,725
    41016420:	6e8d7493          	andi	x9,x26,1768
