
/home/abdullah/RiescueC/riescue/10x_R/paging/testsuite/paging/user_sv57/tp_paging_1:     file format elf64-littleriscv


Disassembly of section .runtime:

0000000041000000 <_start>:
    41000000:	00000093          	li	x1,0
    41000004:	00000113          	li	x2,0
    41000008:	00000193          	li	x3,0
    4100000c:	00000213          	li	x4,0
    41000010:	00000293          	li	x5,0
    41000014:	00000313          	li	x6,0
    41000018:	00000393          	li	x7,0
    4100001c:	00000413          	li	x8,0
    41000020:	00000493          	li	x9,0
    41000024:	00000513          	li	x10,0
    41000028:	00000593          	li	x11,0
    4100002c:	00000613          	li	x12,0
    41000030:	00000693          	li	x13,0
    41000034:	00000713          	li	x14,0
    41000038:	00000793          	li	x15,0
    4100003c:	00000813          	li	x16,0
    41000040:	00000893          	li	x17,0
    41000044:	00000913          	li	x18,0
    41000048:	00000993          	li	x19,0
    4100004c:	00000a13          	li	x20,0
    41000050:	00000a93          	li	x21,0
    41000054:	00000b13          	li	x22,0
    41000058:	00000b93          	li	x23,0
    4100005c:	00000c13          	li	x24,0
    41000060:	00000c93          	li	x25,0
    41000064:	00000d13          	li	x26,0
    41000068:	00000d93          	li	x27,0
    4100006c:	00000e13          	li	x28,0
    41000070:	00000e93          	li	x29,0
    41000074:	00000f13          	li	x30,0
    41000078:	00000f93          	li	x31,0

000000004100007c <loader__load_panic_address>:
    4100007c:	00001297          	auipc	x5,0x1
    41000080:	9e828293          	addi	x5,x5,-1560 # 41000a64 <eot__failed>
    41000084:	30529073          	csrw	mtvec,x5

0000000041000088 <loader__initialize_runtime>:
    41000088:	00000293          	li	x5,0
    4100008c:	3012a2f3          	csrrs	x5,misa,x5

0000000041000090 <loader__set_mstatus>:
    41000090:	000402b7          	lui	x5,0x40
    41000094:	00a2829b          	addiw	x5,x5,10 # 4000a <pma_region_0_size+0xa>
    41000098:	3002a2f3          	csrrs	x5,mstatus,x5
    4100009c:	41bd9237          	lui	x4,0x41bd9
    410000a0:	34021073          	csrw	mscratch,x4

00000000410000a4 <loader__setup_menvcfg>:
    410000a4:	00000297          	auipc	x5,0x0
    410000a8:	4a828293          	addi	x5,x5,1192 # 4100054c <trap_handler_m__trap_entry>
    410000ac:	30529073          	csrw	mtvec,x5

00000000410000b0 <loader__enable_paging>:
    410000b0:	fffd00b7          	lui	x1,0xfffd0
    410000b4:	03d0809b          	addiw	x1,x1,61 # fffffffffffd003d <mem6+0xf8fffffffd003d>
    410000b8:	02009093          	slli	x1,x1,0x20
    410000bc:	02108093          	addi	x1,x1,33
    410000c0:	00d09093          	slli	x1,x1,0xd
    410000c4:	be008093          	addi	x1,x1,-1056
    410000c8:	18009073          	csrw	satp,x1

00000000410000cc <loader__done>:
    410000cc:	1c10006f          	j	41000a8c <scheduler__init>

00000000410000d0 <loader__panic>:
    410000d0:	1950006f          	j	41000a64 <eot__failed>

00000000410000d4 <syscalls__syscall_check_schedule_next_test>:
    410000d4:	00f0029b          	addiw	x5,x0,15
    410000d8:	01c29293          	slli	x5,x5,0x1c
    410000dc:	00128293          	addi	x5,x5,1
    410000e0:	01f29a63          	bne	x5,x31,410000f4 <syscalls__syscall_check_fail_test>
    410000e4:	00000317          	auipc	x6,0x0
    410000e8:	46830313          	addi	x6,x6,1128 # 4100054c <trap_handler_m__trap_entry>
    410000ec:	30531073          	csrw	mtvec,x6
    410000f0:	6a00006f          	j	41000790 <enter_scheduler>

00000000410000f4 <syscalls__syscall_check_fail_test>:
    410000f4:	00f0029b          	addiw	x5,x0,15
    410000f8:	01c29293          	slli	x5,x5,0x1c
    410000fc:	00228293          	addi	x5,x5,2
    41000100:	01f29a63          	bne	x5,x31,41000114 <syscalls__syscall_check_end_test_without_failure>
    41000104:	00000317          	auipc	x6,0x0
    41000108:	44830313          	addi	x6,x6,1096 # 4100054c <trap_handler_m__trap_entry>
    4100010c:	30531073          	csrw	mtvec,x6
    41000110:	6b00006f          	j	410007c0 <test_failed>

0000000041000114 <syscalls__syscall_check_end_test_without_failure>:
    41000114:	00f0029b          	addiw	x5,x0,15
    41000118:	01c29293          	slli	x5,x5,0x1c
    4100011c:	00328293          	addi	x5,x5,3
    41000120:	01f29a63          	bne	x5,x31,41000134 <syscalls__syscall_check_switch_machine_mode>
    41000124:	00000317          	auipc	x6,0x0
    41000128:	42830313          	addi	x6,x6,1064 # 4100054c <trap_handler_m__trap_entry>
    4100012c:	30531073          	csrw	mtvec,x6
    41000130:	69c0006f          	j	410007cc <os_end_test>

0000000041000134 <syscalls__syscall_check_switch_machine_mode>:
    41000134:	000f02b7          	lui	x5,0xf0
    41000138:	0012829b          	addiw	x5,x5,1 # f0001 <tp_csr_storage+0x56001>
    4100013c:	00c29293          	slli	x5,x5,0xc
    41000140:	00128293          	addi	x5,x5,1
    41000144:	0a5f8463          	beq	x31,x5,410001ec <syscalls__os_fn_f0001001>

0000000041000148 <syscalls__syscall_check_switch_super_mode>:
    41000148:	000f02b7          	lui	x5,0xf0
    4100014c:	0012829b          	addiw	x5,x5,1 # f0001 <tp_csr_storage+0x56001>
    41000150:	00c29293          	slli	x5,x5,0xc
    41000154:	00228293          	addi	x5,x5,2
    41000158:	0c5f8063          	beq	x31,x5,41000218 <syscalls__os_fn_f0001002>

000000004100015c <syscalls__syscall_check_switch_user_mode>:
    4100015c:	000f02b7          	lui	x5,0xf0
    41000160:	0012829b          	addiw	x5,x5,1 # f0001 <tp_csr_storage+0x56001>
    41000164:	00c29293          	slli	x5,x5,0xc
    41000168:	00328293          	addi	x5,x5,3
    4100016c:	0c5f8e63          	beq	x31,x5,41000248 <syscalls__os_fn_f0001003>

0000000041000170 <syscalls__syscall_check_switch_test_mode>:
    41000170:	000f02b7          	lui	x5,0xf0
    41000174:	0012829b          	addiw	x5,x5,1 # f0001 <tp_csr_storage+0x56001>
    41000178:	00c29293          	slli	x5,x5,0xc
    4100017c:	00428293          	addi	x5,x5,4
    41000180:	0c5f8863          	beq	x31,x5,41000250 <syscalls__os_fn_f0001004>

0000000041000184 <syscalls__syscall_machine_csr_rw>:
    41000184:	000f02b7          	lui	x5,0xf0
    41000188:	0012829b          	addiw	x5,x5,1 # f0001 <tp_csr_storage+0x56001>
    4100018c:	00c29293          	slli	x5,x5,0xc
    41000190:	00528293          	addi	x5,x5,5
    41000194:	0e5f8263          	beq	x31,x5,41000278 <syscalls__os_fn_f0001005>

0000000041000198 <syscalls__syscall_supervisor_csr_rw>:
    41000198:	000f02b7          	lui	x5,0xf0
    4100019c:	0012829b          	addiw	x5,x5,1 # f0001 <tp_csr_storage+0x56001>
    410001a0:	00c29293          	slli	x5,x5,0xc
    410001a4:	00628293          	addi	x5,x5,6
    410001a8:	0e5f8e63          	beq	x31,x5,410002a4 <syscalls__os_fn_f0001006>

00000000410001ac <syscalls__syscall_machine_pte_read>:
    410001ac:	000f02b7          	lui	x5,0xf0
    410001b0:	0012829b          	addiw	x5,x5,1 # f0001 <tp_csr_storage+0x56001>
    410001b4:	00c29293          	slli	x5,x5,0xc
    410001b8:	00728293          	addi	x5,x5,7
    410001bc:	105f8c63          	beq	x31,x5,410002d4 <syscalls__os_fn_f0001007>

00000000410001c0 <syscalls__syscall_machine_pte_write>:
    410001c0:	000f02b7          	lui	x5,0xf0
    410001c4:	0012829b          	addiw	x5,x5,1 # f0001 <tp_csr_storage+0x56001>
    410001c8:	00c29293          	slli	x5,x5,0xc
    410001cc:	00828293          	addi	x5,x5,8
    410001d0:	1e5f8863          	beq	x31,x5,410003c0 <syscalls__os_fn_f0001008>

00000000410001d4 <syscalls__syscall_check_get_hart_context>:
    410001d4:	000782b7          	lui	x5,0x78
    410001d8:	0012829b          	addiw	x5,x5,1 # 78001 <pma_region_0_size+0x38001>
    410001dc:	00d29293          	slli	x5,x5,0xd
    410001e0:	00128293          	addi	x5,x5,1
    410001e4:	2c5f8463          	beq	x31,x5,410004ac <syscalls__os_get_hart_context>
    410001e8:	4c00006f          	j	410006a8 <trap_handler_m__check_exception_label>

00000000410001ec <syscalls__os_fn_f0001001>:
    410001ec:	000022b7          	lui	x5,0x2
    410001f0:	8002829b          	addiw	x5,x5,-2048 # 1800 <mem6__pt_level2+0x800>
    410001f4:	3002b073          	csrc	mstatus,x5
    410001f8:	000022b7          	lui	x5,0x2
    410001fc:	8002829b          	addiw	x5,x5,-2048 # 1800 <mem6__pt_level2+0x800>
    41000200:	3002a073          	csrs	mstatus,x5
    41000204:	0010029b          	addiw	x5,x0,1
    41000208:	02729293          	slli	x5,x5,0x27
    4100020c:	3002b073          	csrc	mstatus,x5
    41000210:	413092b7          	lui	x5,0x41309
    41000214:	2a80006f          	j	410004bc <syscalls__ret_from_os_fn>

0000000041000218 <syscalls__os_fn_f0001002>:
    41000218:	000022b7          	lui	x5,0x2
    4100021c:	8002829b          	addiw	x5,x5,-2048 # 1800 <mem6__pt_level2+0x800>
    41000220:	3002b073          	csrc	mstatus,x5
    41000224:	000012b7          	lui	x5,0x1
    41000228:	8002829b          	addiw	x5,x5,-2048 # 800 <XLEN+0x7c0>
    4100022c:	3002a073          	csrs	mstatus,x5
    41000230:	0010029b          	addiw	x5,x0,1
    41000234:	02729293          	slli	x5,x5,0x27
    41000238:	3002b073          	csrc	mstatus,x5
    4100023c:	12000073          	sfence.vma
    41000240:	412092b7          	lui	x5,0x41209
    41000244:	2780006f          	j	410004bc <syscalls__ret_from_os_fn>

0000000041000248 <syscalls__os_fn_f0001003>:
    41000248:	412892b7          	lui	x5,0x41289
    4100024c:	2700006f          	j	410004bc <syscalls__ret_from_os_fn>

0000000041000250 <syscalls__os_fn_f0001004>:
    41000250:	000022b7          	lui	x5,0x2
    41000254:	8002829b          	addiw	x5,x5,-2048 # 1800 <mem6__pt_level2+0x800>
    41000258:	3002b073          	csrc	mstatus,x5
    4100025c:	00000293          	li	x5,0
    41000260:	3002a073          	csrs	mstatus,x5
    41000264:	0010029b          	addiw	x5,x0,1
    41000268:	02729293          	slli	x5,x5,0x27
    4100026c:	3002b073          	csrc	mstatus,x5
    41000270:	17823283          	ld	x5,376(x4) # 41bd9178 <__section_hart_context+0x178>
    41000274:	2480006f          	j	410004bc <syscalls__ret_from_os_fn>

0000000041000278 <syscalls__os_fn_f0001005>:
    41000278:	000022b7          	lui	x5,0x2
    4100027c:	8002829b          	addiw	x5,x5,-2048 # 1800 <mem6__pt_level2+0x800>
    41000280:	3002b073          	csrc	mstatus,x5
    41000284:	000022b7          	lui	x5,0x2
    41000288:	8002829b          	addiw	x5,x5,-2048 # 1800 <mem6__pt_level2+0x800>
    4100028c:	3002a073          	csrs	mstatus,x5
    41000290:	0010029b          	addiw	x5,x0,1
    41000294:	02729293          	slli	x5,x5,0x27
    41000298:	3002b073          	csrc	mstatus,x5
    4100029c:	413892b7          	lui	x5,0x41389
    410002a0:	21c0006f          	j	410004bc <syscalls__ret_from_os_fn>

00000000410002a4 <syscalls__os_fn_f0001006>:
    410002a4:	000022b7          	lui	x5,0x2
    410002a8:	8002829b          	addiw	x5,x5,-2048 # 1800 <mem6__pt_level2+0x800>
    410002ac:	3002b073          	csrc	mstatus,x5
    410002b0:	000012b7          	lui	x5,0x1
    410002b4:	8002829b          	addiw	x5,x5,-2048 # 800 <XLEN+0x7c0>
    410002b8:	3002a073          	csrs	mstatus,x5
    410002bc:	0010029b          	addiw	x5,x0,1
    410002c0:	02729293          	slli	x5,x5,0x27
    410002c4:	3002b073          	csrc	mstatus,x5
    410002c8:	12000073          	sfence.vma
    410002cc:	4138a2b7          	lui	x5,0x4138a
    410002d0:	1ec0006f          	j	410004bc <syscalls__ret_from_os_fn>

00000000410002d4 <syscalls__os_fn_f0001007>:
    410002d4:	41b82fb7          	lui	x31,0x41b82
    410002d8:	0b0f8f9b          	addiw	x31,x31,176 # 41b820b0 <pte_access_flags_pa>
    410002dc:	000fbf83          	ld	x31,0(x31)
    410002e0:	41b822b7          	lui	x5,0x41b82
    410002e4:	0b82829b          	addiw	x5,x5,184 # 41b820b8 <pte_access_flags_pa+0x8>
    410002e8:	0002b283          	ld	x5,0(x5)
    410002ec:	41b82e37          	lui	x28,0x41b82
    410002f0:	0c0e0e1b          	addiw	x28,x28,192 # 41b820c0 <pte_access_flags_pa+0x10>
    410002f4:	000e3e03          	ld	x28,0(x28)

00000000410002f8 <syscalls__pte_walk_check_glevel_without_gstage_read>:
    410002f8:	fff00f93          	li	x31,-1
    410002fc:	0dfe1063          	bne	x28,x31,410003bc <syscalls__pte_walk_fail_read>
    41000300:	18002373          	csrr	x6,satp
    41000304:	03c35e93          	srli	x29,x6,0x3c
    41000308:	01431313          	slli	x6,x6,0x14
    4100030c:	01435313          	srli	x6,x6,0x14
    41000310:	00c31313          	slli	x6,x6,0xc
    41000314:	ff8e8e93          	addi	x29,x29,-8
    41000318:	003e9f13          	slli	x30,x29,0x3
    4100031c:	01df0eb3          	add	x29,x30,x29
    41000320:	01ee8e93          	addi	x29,x29,30
    41000324:	00000f13          	li	x30,0

0000000041000328 <syscalls__pte_walk_loop_read>:
    41000328:	41b82fb7          	lui	x31,0x41b82
    4100032c:	0b0f8f9b          	addiw	x31,x31,176 # 41b820b0 <pte_access_flags_pa>
    41000330:	000fbf83          	ld	x31,0(x31)
    41000334:	01dfdfb3          	srl	x31,x31,x29
    41000338:	1fffff93          	andi	x31,x31,511
    4100033c:	003f9f93          	slli	x31,x31,0x3
    41000340:	01f30333          	add	x6,x6,x31
    41000344:	005f0e63          	beq	x30,x5,41000360 <syscalls__pte_walk_done_read>
    41000348:	00033f83          	ld	x31,0(x6)
    4100034c:	00afdf93          	srli	x31,x31,0xa
    41000350:	00cf9313          	slli	x6,x31,0xc
    41000354:	001f0f13          	addi	x30,x30,1
    41000358:	ff7e8e93          	addi	x29,x29,-9
    4100035c:	fcdff06f          	j	41000328 <syscalls__pte_walk_loop_read>

0000000041000360 <syscalls__pte_walk_done_read>:
    41000360:	fff00f93          	li	x31,-1
    41000364:	05fe0263          	beq	x28,x31,410003a8 <syscalls__pte_walk_final_read>

0000000041000368 <syscalls__pte_walk_gstage_read>:
    41000368:	41b82fb7          	lui	x31,0x41b82
    4100036c:	0b0f8f9b          	addiw	x31,x31,176 # 41b820b0 <pte_access_flags_pa>
    41000370:	006fb023          	sd	x6,0(x31)
    41000374:	000e0293          	mv	x5,x28
    41000378:	fff00e13          	li	x28,-1
    4100037c:	68002373          	csrr	x6,hgatp
    41000380:	03c35e93          	srli	x29,x6,0x3c
    41000384:	01431313          	slli	x6,x6,0x14
    41000388:	01435313          	srli	x6,x6,0x14
    4100038c:	00c31313          	slli	x6,x6,0xc
    41000390:	ff8e8e93          	addi	x29,x29,-8
    41000394:	003e9f13          	slli	x30,x29,0x3
    41000398:	01df0eb3          	add	x29,x30,x29
    4100039c:	01ee8e93          	addi	x29,x29,30
    410003a0:	00000f13          	li	x30,0
    410003a4:	f85ff06f          	j	41000328 <syscalls__pte_walk_loop_read>

00000000410003a8 <syscalls__pte_walk_final_read>:
    410003a8:	00033383          	ld	x7,0(x6)
    410003ac:	341022f3          	csrr	x5,mepc
    410003b0:	00428293          	addi	x5,x5,4
    410003b4:	16523c23          	sd	x5,376(x4) # 178 <XLEN+0x138>
    410003b8:	e99ff06f          	j	41000250 <syscalls__os_fn_f0001004>

00000000410003bc <syscalls__pte_walk_fail_read>:
    410003bc:	4040006f          	j	410007c0 <test_failed>

00000000410003c0 <syscalls__os_fn_f0001008>:
    410003c0:	41b82fb7          	lui	x31,0x41b82
    410003c4:	0b0f8f9b          	addiw	x31,x31,176 # 41b820b0 <pte_access_flags_pa>
    410003c8:	000fbf83          	ld	x31,0(x31)
    410003cc:	41b822b7          	lui	x5,0x41b82
    410003d0:	0b82829b          	addiw	x5,x5,184 # 41b820b8 <pte_access_flags_pa+0x8>
    410003d4:	0002b283          	ld	x5,0(x5)
    410003d8:	41b82e37          	lui	x28,0x41b82
    410003dc:	0c0e0e1b          	addiw	x28,x28,192 # 41b820c0 <pte_access_flags_pa+0x10>
    410003e0:	000e3e03          	ld	x28,0(x28)

00000000410003e4 <syscalls__pte_walk_check_glevel_without_gstage_write>:
    410003e4:	fff00f93          	li	x31,-1
    410003e8:	0dfe1063          	bne	x28,x31,410004a8 <syscalls__pte_walk_fail_write>
    410003ec:	18002373          	csrr	x6,satp
    410003f0:	03c35e93          	srli	x29,x6,0x3c
    410003f4:	01431313          	slli	x6,x6,0x14
    410003f8:	01435313          	srli	x6,x6,0x14
    410003fc:	00c31313          	slli	x6,x6,0xc
    41000400:	ff8e8e93          	addi	x29,x29,-8
    41000404:	003e9f13          	slli	x30,x29,0x3
    41000408:	01df0eb3          	add	x29,x30,x29
    4100040c:	01ee8e93          	addi	x29,x29,30
    41000410:	00000f13          	li	x30,0

0000000041000414 <syscalls__pte_walk_loop_write>:
    41000414:	41b82fb7          	lui	x31,0x41b82
    41000418:	0b0f8f9b          	addiw	x31,x31,176 # 41b820b0 <pte_access_flags_pa>
    4100041c:	000fbf83          	ld	x31,0(x31)
    41000420:	01dfdfb3          	srl	x31,x31,x29
    41000424:	1fffff93          	andi	x31,x31,511
    41000428:	003f9f93          	slli	x31,x31,0x3
    4100042c:	01f30333          	add	x6,x6,x31
    41000430:	005f0e63          	beq	x30,x5,4100044c <syscalls__pte_walk_done_write>
    41000434:	00033f83          	ld	x31,0(x6)
    41000438:	00afdf93          	srli	x31,x31,0xa
    4100043c:	00cf9313          	slli	x6,x31,0xc
    41000440:	001f0f13          	addi	x30,x30,1
    41000444:	ff7e8e93          	addi	x29,x29,-9
    41000448:	fcdff06f          	j	41000414 <syscalls__pte_walk_loop_write>

000000004100044c <syscalls__pte_walk_done_write>:
    4100044c:	fff00f93          	li	x31,-1
    41000450:	05fe0263          	beq	x28,x31,41000494 <syscalls__pte_walk_final_write>

0000000041000454 <syscalls__pte_walk_gstage_write>:
    41000454:	41b82fb7          	lui	x31,0x41b82
    41000458:	0b0f8f9b          	addiw	x31,x31,176 # 41b820b0 <pte_access_flags_pa>
    4100045c:	006fb023          	sd	x6,0(x31)
    41000460:	000e0293          	mv	x5,x28
    41000464:	fff00e13          	li	x28,-1
    41000468:	68002373          	csrr	x6,hgatp
    4100046c:	03c35e93          	srli	x29,x6,0x3c
    41000470:	01431313          	slli	x6,x6,0x14
    41000474:	01435313          	srli	x6,x6,0x14
    41000478:	00c31313          	slli	x6,x6,0xc
    4100047c:	ff8e8e93          	addi	x29,x29,-8
    41000480:	003e9f13          	slli	x30,x29,0x3
    41000484:	01df0eb3          	add	x29,x30,x29
    41000488:	01ee8e93          	addi	x29,x29,30
    4100048c:	00000f13          	li	x30,0
    41000490:	f85ff06f          	j	41000414 <syscalls__pte_walk_loop_write>

0000000041000494 <syscalls__pte_walk_final_write>:
    41000494:	00733023          	sd	x7,0(x6)
    41000498:	341022f3          	csrr	x5,mepc
    4100049c:	00428293          	addi	x5,x5,4
    410004a0:	16523c23          	sd	x5,376(x4) # 178 <XLEN+0x138>
    410004a4:	dadff06f          	j	41000250 <syscalls__os_fn_f0001004>

00000000410004a8 <syscalls__pte_walk_fail_write>:
    410004a8:	3180006f          	j	410007c0 <test_failed>

00000000410004ac <syscalls__os_get_hart_context>:
    410004ac:	14002573          	csrr	x10,sscratch
    410004b0:	341022f3          	csrr	x5,mepc
    410004b4:	00428293          	addi	x5,x5,4
    410004b8:	0040006f          	j	410004bc <syscalls__ret_from_os_fn>

00000000410004bc <syscalls__ret_from_os_fn>:
    410004bc:	34102373          	csrr	x6,mepc
    410004c0:	00430313          	addi	x6,x6,4
    410004c4:	16623c23          	sd	x6,376(x4) # 178 <XLEN+0x138>
    410004c8:	34129073          	csrw	mepc,x5
    410004cc:	fff00f93          	li	x31,-1
    410004d0:	2a40006f          	j	41000774 <trap_handler_m__skip_xepc_write>

00000000410004d4 <trap_handler_m__invalid_interrupt>:
    410004d4:	2ec0006f          	j	410007c0 <test_failed>

00000000410004d8 <trap_handler_m__clear_all_interrupts>:
    410004d8:	34401073          	csrw	mip,x0
    410004dc:	30200073          	mret

00000000410004e0 <trap_handler_m___CLEAR_SSI>:
    410004e0:	00200293          	li	x5,2
    410004e4:	3442b073          	csrc	mip,x5
    410004e8:	30200073          	mret

00000000410004ec <trap_handler_m___CLEAR_MSI>:
    410004ec:	00800293          	li	x5,8
    410004f0:	3442b073          	csrc	mip,x5
    410004f4:	30200073          	mret

00000000410004f8 <trap_handler_m___CLEAR_STI>:
    410004f8:	02000293          	li	x5,32
    410004fc:	3442b073          	csrc	mip,x5
    41000500:	30200073          	mret

0000000041000504 <trap_handler_m___CLEAR_MTI>:
    41000504:	08000293          	li	x5,128
    41000508:	3442b073          	csrc	mip,x5
    4100050c:	30200073          	mret

0000000041000510 <trap_handler_m___CLEAR_SEI>:
    41000510:	20000293          	li	x5,512
    41000514:	3442b073          	csrc	mip,x5
    41000518:	30200073          	mret

000000004100051c <trap_handler_m___CLEAR_MEI>:
    4100051c:	000012b7          	lui	x5,0x1
    41000520:	8002829b          	addiw	x5,x5,-2048 # 800 <XLEN+0x7c0>
    41000524:	3442b073          	csrc	mip,x5
    41000528:	30200073          	mret

000000004100052c <trap_handler_m___CLEAR_COI>:
    4100052c:	000022b7          	lui	x5,0x2
    41000530:	3442b073          	csrc	mip,x5
    41000534:	30200073          	mret

0000000041000538 <trap_handler_m__clear_highest_priority_interrupt>:
    41000538:	344022f3          	csrr	x5,mip
    4100053c:	40500333          	neg	x6,x5
    41000540:	0062f2b3          	and	x5,x5,x6
    41000544:	3442b073          	csrc	mip,x5
    41000548:	30200073          	mret

000000004100054c <trap_handler_m__trap_entry>:
    4100054c:	0fc0006f          	j	41000648 <trap_handler_m__trap_handler>

0000000041000550 <trap_handler_m__interrupt_vector_table>:
    41000550:	f91ff06f          	j	410004e0 <trap_handler_m___CLEAR_SSI>
    41000554:	f81ff06f          	j	410004d4 <trap_handler_m__invalid_interrupt>
    41000558:	f95ff06f          	j	410004ec <trap_handler_m___CLEAR_MSI>
    4100055c:	f79ff06f          	j	410004d4 <trap_handler_m__invalid_interrupt>
    41000560:	f99ff06f          	j	410004f8 <trap_handler_m___CLEAR_STI>
    41000564:	f71ff06f          	j	410004d4 <trap_handler_m__invalid_interrupt>
    41000568:	f9dff06f          	j	41000504 <trap_handler_m___CLEAR_MTI>
    4100056c:	f69ff06f          	j	410004d4 <trap_handler_m__invalid_interrupt>
    41000570:	fa1ff06f          	j	41000510 <trap_handler_m___CLEAR_SEI>
    41000574:	f61ff06f          	j	410004d4 <trap_handler_m__invalid_interrupt>
    41000578:	fa5ff06f          	j	4100051c <trap_handler_m___CLEAR_MEI>
    4100057c:	f59ff06f          	j	410004d4 <trap_handler_m__invalid_interrupt>
    41000580:	fadff06f          	j	4100052c <trap_handler_m___CLEAR_COI>
    41000584:	f51ff06f          	j	410004d4 <trap_handler_m__invalid_interrupt>
    41000588:	f4dff06f          	j	410004d4 <trap_handler_m__invalid_interrupt>
    4100058c:	fadff06f          	j	41000538 <trap_handler_m__clear_highest_priority_interrupt>
    41000590:	fa9ff06f          	j	41000538 <trap_handler_m__clear_highest_priority_interrupt>
    41000594:	fa5ff06f          	j	41000538 <trap_handler_m__clear_highest_priority_interrupt>
    41000598:	fa1ff06f          	j	41000538 <trap_handler_m__clear_highest_priority_interrupt>
    4100059c:	f9dff06f          	j	41000538 <trap_handler_m__clear_highest_priority_interrupt>
    410005a0:	f99ff06f          	j	41000538 <trap_handler_m__clear_highest_priority_interrupt>
    410005a4:	f95ff06f          	j	41000538 <trap_handler_m__clear_highest_priority_interrupt>
    410005a8:	f91ff06f          	j	41000538 <trap_handler_m__clear_highest_priority_interrupt>
    410005ac:	f8dff06f          	j	41000538 <trap_handler_m__clear_highest_priority_interrupt>
    410005b0:	f89ff06f          	j	41000538 <trap_handler_m__clear_highest_priority_interrupt>
    410005b4:	f85ff06f          	j	41000538 <trap_handler_m__clear_highest_priority_interrupt>
    410005b8:	f81ff06f          	j	41000538 <trap_handler_m__clear_highest_priority_interrupt>
    410005bc:	f7dff06f          	j	41000538 <trap_handler_m__clear_highest_priority_interrupt>
    410005c0:	f79ff06f          	j	41000538 <trap_handler_m__clear_highest_priority_interrupt>
    410005c4:	f75ff06f          	j	41000538 <trap_handler_m__clear_highest_priority_interrupt>
    410005c8:	f71ff06f          	j	41000538 <trap_handler_m__clear_highest_priority_interrupt>
    410005cc:	f6dff06f          	j	41000538 <trap_handler_m__clear_highest_priority_interrupt>
    410005d0:	f69ff06f          	j	41000538 <trap_handler_m__clear_highest_priority_interrupt>
    410005d4:	f65ff06f          	j	41000538 <trap_handler_m__clear_highest_priority_interrupt>
    410005d8:	f61ff06f          	j	41000538 <trap_handler_m__clear_highest_priority_interrupt>
    410005dc:	f5dff06f          	j	41000538 <trap_handler_m__clear_highest_priority_interrupt>
    410005e0:	f59ff06f          	j	41000538 <trap_handler_m__clear_highest_priority_interrupt>
    410005e4:	f55ff06f          	j	41000538 <trap_handler_m__clear_highest_priority_interrupt>
    410005e8:	f51ff06f          	j	41000538 <trap_handler_m__clear_highest_priority_interrupt>
    410005ec:	f4dff06f          	j	41000538 <trap_handler_m__clear_highest_priority_interrupt>
    410005f0:	f49ff06f          	j	41000538 <trap_handler_m__clear_highest_priority_interrupt>
    410005f4:	f45ff06f          	j	41000538 <trap_handler_m__clear_highest_priority_interrupt>
    410005f8:	f41ff06f          	j	41000538 <trap_handler_m__clear_highest_priority_interrupt>
    410005fc:	f3dff06f          	j	41000538 <trap_handler_m__clear_highest_priority_interrupt>
    41000600:	f39ff06f          	j	41000538 <trap_handler_m__clear_highest_priority_interrupt>
    41000604:	f35ff06f          	j	41000538 <trap_handler_m__clear_highest_priority_interrupt>
    41000608:	f31ff06f          	j	41000538 <trap_handler_m__clear_highest_priority_interrupt>
    4100060c:	f2dff06f          	j	41000538 <trap_handler_m__clear_highest_priority_interrupt>
    41000610:	f29ff06f          	j	41000538 <trap_handler_m__clear_highest_priority_interrupt>
    41000614:	f25ff06f          	j	41000538 <trap_handler_m__clear_highest_priority_interrupt>
    41000618:	f21ff06f          	j	41000538 <trap_handler_m__clear_highest_priority_interrupt>
    4100061c:	f1dff06f          	j	41000538 <trap_handler_m__clear_highest_priority_interrupt>
    41000620:	f19ff06f          	j	41000538 <trap_handler_m__clear_highest_priority_interrupt>
    41000624:	f15ff06f          	j	41000538 <trap_handler_m__clear_highest_priority_interrupt>
    41000628:	f11ff06f          	j	41000538 <trap_handler_m__clear_highest_priority_interrupt>
    4100062c:	f0dff06f          	j	41000538 <trap_handler_m__clear_highest_priority_interrupt>
    41000630:	f09ff06f          	j	41000538 <trap_handler_m__clear_highest_priority_interrupt>
    41000634:	f05ff06f          	j	41000538 <trap_handler_m__clear_highest_priority_interrupt>
    41000638:	f01ff06f          	j	41000538 <trap_handler_m__clear_highest_priority_interrupt>
    4100063c:	efdff06f          	j	41000538 <trap_handler_m__clear_highest_priority_interrupt>
    41000640:	ef9ff06f          	j	41000538 <trap_handler_m__clear_highest_priority_interrupt>
    41000644:	ef5ff06f          	j	41000538 <trap_handler_m__clear_highest_priority_interrupt>

0000000041000648 <trap_handler_m__trap_handler>:
    41000648:	342022f3          	csrr	x5,mcause
    4100064c:	fff0031b          	addiw	x6,x0,-1
    41000650:	03f31313          	slli	x6,x6,0x3f
    41000654:	00537333          	and	x6,x6,x5
    41000658:	02030263          	beqz	x6,4100067c <trap_handler_m__exception_path>

000000004100065c <trap_handler_m__interrupt_handler>:
    4100065c:	fff0031b          	addiw	x6,x0,-1
    41000660:	03f31313          	slli	x6,x6,0x3f
    41000664:	0062c2b3          	xor	x5,x5,x6
    41000668:	00000317          	auipc	x6,0x0
    4100066c:	ee430313          	addi	x6,x6,-284 # 4100054c <trap_handler_m__trap_entry>
    41000670:	00229293          	slli	x5,x5,0x2
    41000674:	005302b3          	add	x5,x6,x5
    41000678:	00028067          	jr	x5 # 2000 <mem11__pt_level1>

000000004100067c <trap_handler_m__exception_path>:
    4100067c:	34021273          	csrrw	x4,mscratch,x4
    41000680:	00000297          	auipc	x5,0x0
    41000684:	10828293          	addi	x5,x5,264 # 41000788 <trap_handler_m__trap_panic>
    41000688:	30529073          	csrw	mtvec,x5
    4100068c:	0040006f          	j	41000690 <trap_handler_m__excp_entry>

0000000041000690 <trap_handler_m__excp_entry>:
    41000690:	34202373          	csrr	x6,mcause
    41000694:	00800293          	li	x5,8
    41000698:	00534863          	blt	x6,x5,410006a8 <trap_handler_m__check_exception_label>
    4100069c:	00b00293          	li	x5,11
    410006a0:	0062c463          	blt	x5,x6,410006a8 <trap_handler_m__check_exception_label>
    410006a4:	a31ff06f          	j	410000d4 <syscalls__syscall_check_schedule_next_test>

00000000410006a8 <trap_handler_m__check_exception_label>:
    410006a8:	04623c23          	sd	x6,88(x4) # 58 <XLEN+0x18>
    410006ac:	341022f3          	csrr	x5,mepc
    410006b0:	02523423          	sd	x5,40(x4) # 28 <SECURE_ACCESS_PROBABILITY+0xa>
    410006b4:	01820283          	lb	x5,24(x4) # 18 <STORE_GUEST_PAGE_FAULT+0x1>
    410006b8:	00029863          	bnez	x5,410006c8 <trap_handler_m__check_excp>
    410006bc:	00128293          	addi	x5,x5,1
    410006c0:	00520c23          	sb	x5,24(x4) # 18 <STORE_GUEST_PAGE_FAULT+0x1>
    410006c4:	0980006f          	j	4100075c <trap_handler_m__ecall_from_machine>

00000000410006c8 <trap_handler_m__check_excp>:
    410006c8:	06823283          	ld	x5,104(x4) # 68 <XLEN+0x28>
    410006cc:	06023423          	sd	x0,104(x4) # 68 <XLEN+0x28>
    410006d0:	00028663          	beqz	x5,410006dc <trap_handler_m__skip_mode_check>
    410006d4:	00100393          	li	x7,1
    410006d8:	0e729463          	bne	x5,x7,410007c0 <test_failed>

00000000410006dc <trap_handler_m__skip_mode_check>:
    410006dc:	05023283          	ld	x5,80(x4) # 50 <XLEN+0x10>
    410006e0:	04023823          	sd	x0,80(x4) # 50 <XLEN+0x10>
    410006e4:	0c531e63          	bne	x6,x5,410007c0 <test_failed>
    410006e8:	03823283          	ld	x5,56(x4) # 38 <SECURE_ACCESS_PROBABILITY+0x1a>
    410006ec:	02023c23          	sd	x0,56(x4) # 38 <SECURE_ACCESS_PROBABILITY+0x1a>
    410006f0:	06029463          	bnez	x5,41000758 <trap_handler_m__skip_gva_check>
    410006f4:	02023303          	ld	x6,32(x4) # 20 <SECURE_ACCESS_PROBABILITY+0x2>
    410006f8:	02023023          	sd	x0,32(x4) # 20 <SECURE_ACCESS_PROBABILITY+0x2>
    410006fc:	02823283          	ld	x5,40(x4) # 28 <SECURE_ACCESS_PROBABILITY+0xa>
    41000700:	02023423          	sd	x0,40(x4) # 28 <SECURE_ACCESS_PROBABILITY+0xa>
    41000704:	0a531e63          	bne	x6,x5,410007c0 <test_failed>
    41000708:	04023283          	ld	x5,64(x4) # 40 <XLEN>
    4100070c:	04023023          	sd	x0,64(x4) # 40 <XLEN>
    41000710:	00028663          	beqz	x5,4100071c <trap_handler_m__skip_nonzero_tval_check>

0000000041000714 <trap_handler_m__nonzero_tval_check>:
    41000714:	34302373          	csrr	x6,mtval
    41000718:	0a531463          	bne	x6,x5,410007c0 <test_failed>

000000004100071c <trap_handler_m__skip_nonzero_tval_check>:
    4100071c:	04823283          	ld	x5,72(x4) # 48 <XLEN+0x8>
    41000720:	04023423          	sd	x0,72(x4) # 48 <XLEN+0x8>
    41000724:	00028663          	beqz	x5,41000730 <trap_handler_m__skip_nonzero_htval_check>

0000000041000728 <trap_handler_m__nonzero_htval_check>:
    41000728:	34b02373          	csrr	x6,0x34b
    4100072c:	08531a63          	bne	x6,x5,410007c0 <test_failed>

0000000041000730 <trap_handler_m__skip_nonzero_htval_check>:
    41000730:	06023283          	ld	x5,96(x4) # 60 <XLEN+0x20>
    41000734:	06023023          	sd	x0,96(x4) # 60 <XLEN+0x20>
    41000738:	02028063          	beqz	x5,41000758 <trap_handler_m__skip_gva_check>

000000004100073c <trap_handler_m__gva_check>:
    4100073c:	30002373          	csrr	x6,mstatus
    41000740:	02635313          	srli	x6,x6,0x26
    41000744:	00137313          	andi	x6,x6,1
    41000748:	06030c63          	beqz	x6,410007c0 <test_failed>
    4100074c:	0010031b          	addiw	x6,x0,1
    41000750:	02631313          	slli	x6,x6,0x26
    41000754:	30033073          	csrc	mstatus,x6

0000000041000758 <trap_handler_m__skip_gva_check>:
    41000758:	0040006f          	j	4100075c <trap_handler_m__ecall_from_machine>

000000004100075c <trap_handler_m__ecall_from_machine>:
    4100075c:	03023283          	ld	x5,48(x4) # 30 <SECURE_ACCESS_PROBABILITY+0x12>
    41000760:	02023823          	sd	x0,48(x4) # 30 <SECURE_ACCESS_PROBABILITY+0x12>
    41000764:	07023303          	ld	x6,112(x4) # 70 <XLEN+0x30>
    41000768:	06023823          	sd	x0,112(x4) # 70 <XLEN+0x30>
    4100076c:	00031463          	bnez	x6,41000774 <trap_handler_m__skip_xepc_write>
    41000770:	34129073          	csrw	mepc,x5

0000000041000774 <trap_handler_m__skip_xepc_write>:
    41000774:	00000317          	auipc	x6,0x0
    41000778:	dd830313          	addi	x6,x6,-552 # 4100054c <trap_handler_m__trap_entry>
    4100077c:	30531073          	csrw	mtvec,x6
    41000780:	34021273          	csrrw	x4,mscratch,x4
    41000784:	30200073          	mret

0000000041000788 <trap_handler_m__trap_panic>:
    41000788:	00000193          	li	x3,0
    4100078c:	2b40006f          	j	41000a40 <eot__end_test>

0000000041000790 <enter_scheduler>:
    41000790:	0002f337          	lui	x6,0x2f
    41000794:	ab73031b          	addiw	x6,x6,-1353 # 2eab7 <mem6__pt_level3+0xab7>
    41000798:	00e31313          	slli	x6,x6,0xe
    4100079c:	0de30313          	addi	x6,x6,222
    410007a0:	02628063          	beq	x5,x6,410007c0 <test_failed>
    410007a4:	00000513          	li	x10,0
    410007a8:	030000ef          	jal	410007d8 <rvcp_print_test_result>
    410007ac:	3180006f          	j	41000ac4 <scheduler__dispatch>

00000000410007b0 <test_passed>:
    410007b0:	34021273          	csrrw	x4,mscratch,x4
    410007b4:	00000513          	li	x10,0
    410007b8:	020000ef          	jal	410007d8 <rvcp_print_test_result>
    410007bc:	3080006f          	j	41000ac4 <scheduler__dispatch>

00000000410007c0 <test_failed>:
    410007c0:	34021273          	csrrw	x4,mscratch,x4
    410007c4:	00300193          	li	x3,3
    410007c8:	2780006f          	j	41000a40 <eot__end_test>

00000000410007cc <os_end_test>:
    410007cc:	34021273          	csrrw	x4,mscratch,x4
    410007d0:	00100193          	li	x3,1
    410007d4:	26c0006f          	j	41000a40 <eot__end_test>

00000000410007d8 <rvcp_print_test_result>:
    410007d8:	00050e13          	mv	x28,x10
    410007dc:	18823283          	ld	x5,392(x4) # 188 <XLEN+0x148>
    410007e0:	0010031b          	addiw	x6,x0,1
    410007e4:	02031313          	slli	x6,x6,0x20
    410007e8:	ffe30313          	addi	x6,x6,-2
    410007ec:	1c628063          	beq	x5,x6,410009ac <rvcp_print_test_result+0x1d4>
    410007f0:	0010031b          	addiw	x6,x0,1
    410007f4:	02031313          	slli	x6,x6,0x20
    410007f8:	fff30313          	addi	x6,x6,-1
    410007fc:	1a628863          	beq	x5,x6,410009ac <rvcp_print_test_result+0x1d4>
    41000800:	1a02c663          	bltz	x5,410009ac <rvcp_print_test_result+0x1d4>
    41000804:	00000317          	auipc	x6,0x0
    41000808:	3f030313          	addi	x6,x6,1008 # 41000bf4 <dtest_descriptor_table>
    4100080c:	00329393          	slli	x7,x5,0x3
    41000810:	00730333          	add	x6,x6,x7
    41000814:	00033e83          	ld	x29,0(x6)
    41000818:	41b82f37          	lui	x30,0x41b82
    4100081c:	030f0f1b          	addiw	x30,x30,48 # 41b82030 <rvcp_prefix_str_pa>
    41000820:	000f4283          	lbu	x5,0(x30)
    41000824:	02028663          	beqz	x5,41000850 <rvcp_print_test_result+0x78>
    41000828:	1010031b          	addiw	x6,x0,257
    4100082c:	03031313          	slli	x6,x6,0x30
    41000830:	005362b3          	or	x5,x6,x5
    41000834:	0003f317          	auipc	x6,0x3f
    41000838:	7cc30313          	addi	x6,x6,1996 # 41040000 <tohost>
    4100083c:	00033383          	ld	x7,0(x6)
    41000840:	fe039ee3          	bnez	x7,4100083c <rvcp_print_test_result+0x64>
    41000844:	00533023          	sd	x5,0(x6)
    41000848:	001f0f13          	addi	x30,x30,1
    4100084c:	fd5ff06f          	j	41000820 <rvcp_print_test_result+0x48>
    41000850:	41b82f37          	lui	x30,0x41b82
    41000854:	041f0f1b          	addiw	x30,x30,65 # 41b82041 <rvcp_testname_str_pa>
    41000858:	000f4283          	lbu	x5,0(x30)
    4100085c:	02028663          	beqz	x5,41000888 <rvcp_print_test_result+0xb0>
    41000860:	1010031b          	addiw	x6,x0,257
    41000864:	03031313          	slli	x6,x6,0x30
    41000868:	005362b3          	or	x5,x6,x5
    4100086c:	0003f317          	auipc	x6,0x3f
    41000870:	79430313          	addi	x6,x6,1940 # 41040000 <tohost>
    41000874:	00033383          	ld	x7,0(x6)
    41000878:	fe039ee3          	bnez	x7,41000874 <rvcp_print_test_result+0x9c>
    4100087c:	00533023          	sd	x5,0(x6)
    41000880:	001f0f13          	addi	x30,x30,1
    41000884:	fd5ff06f          	j	41000858 <rvcp_print_test_result+0x80>
    41000888:	41b82f37          	lui	x30,0x41b82
    4100088c:	05bf0f1b          	addiw	x30,x30,91 # 41b8205b <rvcp_space_str_pa>
    41000890:	000f4283          	lbu	x5,0(x30)
    41000894:	02028663          	beqz	x5,410008c0 <rvcp_print_test_result+0xe8>
    41000898:	1010031b          	addiw	x6,x0,257
    4100089c:	03031313          	slli	x6,x6,0x30
    410008a0:	005362b3          	or	x5,x6,x5
    410008a4:	0003f317          	auipc	x6,0x3f
    410008a8:	75c30313          	addi	x6,x6,1884 # 41040000 <tohost>
    410008ac:	00033383          	ld	x7,0(x6)
    410008b0:	fe039ee3          	bnez	x7,410008ac <rvcp_print_test_result+0xd4>
    410008b4:	00533023          	sd	x5,0(x6)
    410008b8:	001f0f13          	addi	x30,x30,1
    410008bc:	fd5ff06f          	j	41000890 <rvcp_print_test_result+0xb8>
    410008c0:	000e8f13          	mv	x30,x29
    410008c4:	000f4283          	lbu	x5,0(x30)
    410008c8:	02028663          	beqz	x5,410008f4 <rvcp_print_test_result+0x11c>
    410008cc:	1010031b          	addiw	x6,x0,257
    410008d0:	03031313          	slli	x6,x6,0x30
    410008d4:	005362b3          	or	x5,x6,x5
    410008d8:	0003f317          	auipc	x6,0x3f
    410008dc:	72830313          	addi	x6,x6,1832 # 41040000 <tohost>
    410008e0:	00033383          	ld	x7,0(x6)
    410008e4:	fe039ee3          	bnez	x7,410008e0 <rvcp_print_test_result+0x108>
    410008e8:	00533023          	sd	x5,0(x6)
    410008ec:	001f0f13          	addi	x30,x30,1
    410008f0:	fd5ff06f          	j	410008c4 <rvcp_print_test_result+0xec>
    410008f4:	41b82f37          	lui	x30,0x41b82
    410008f8:	05bf0f1b          	addiw	x30,x30,91 # 41b8205b <rvcp_space_str_pa>
    410008fc:	000f4283          	lbu	x5,0(x30)
    41000900:	02028663          	beqz	x5,4100092c <rvcp_print_test_result+0x154>
    41000904:	1010031b          	addiw	x6,x0,257
    41000908:	03031313          	slli	x6,x6,0x30
    4100090c:	005362b3          	or	x5,x6,x5
    41000910:	0003f317          	auipc	x6,0x3f
    41000914:	6f030313          	addi	x6,x6,1776 # 41040000 <tohost>
    41000918:	00033383          	ld	x7,0(x6)
    4100091c:	fe039ee3          	bnez	x7,41000918 <rvcp_print_test_result+0x140>
    41000920:	00533023          	sd	x5,0(x6)
    41000924:	001f0f13          	addi	x30,x30,1
    41000928:	fd5ff06f          	j	410008fc <rvcp_print_test_result+0x124>
    4100092c:	000e1863          	bnez	x28,4100093c <rvcp_print_test_result+0x164>
    41000930:	41b82f37          	lui	x30,0x41b82
    41000934:	04df0f1b          	addiw	x30,x30,77 # 41b8204d <rvcp_passed_str_pa>
    41000938:	00c0006f          	j	41000944 <rvcp_print_test_result+0x16c>
    4100093c:	41b82f37          	lui	x30,0x41b82
    41000940:	054f0f1b          	addiw	x30,x30,84 # 41b82054 <rvcp_failed_str_pa>
    41000944:	000f4283          	lbu	x5,0(x30)
    41000948:	02028663          	beqz	x5,41000974 <rvcp_print_test_result+0x19c>
    4100094c:	1010031b          	addiw	x6,x0,257
    41000950:	03031313          	slli	x6,x6,0x30
    41000954:	005362b3          	or	x5,x6,x5
    41000958:	0003f317          	auipc	x6,0x3f
    4100095c:	6a830313          	addi	x6,x6,1704 # 41040000 <tohost>
    41000960:	00033383          	ld	x7,0(x6)
    41000964:	fe039ee3          	bnez	x7,41000960 <rvcp_print_test_result+0x188>
    41000968:	00533023          	sd	x5,0(x6)
    4100096c:	001f0f13          	addi	x30,x30,1
    41000970:	fd5ff06f          	j	41000944 <rvcp_print_test_result+0x16c>
    41000974:	41b82f37          	lui	x30,0x41b82
    41000978:	05df0f1b          	addiw	x30,x30,93 # 41b8205d <rvcp_newline_str_pa>
    4100097c:	000f4283          	lbu	x5,0(x30)
    41000980:	02028663          	beqz	x5,410009ac <rvcp_print_test_result+0x1d4>
    41000984:	1010031b          	addiw	x6,x0,257
    41000988:	03031313          	slli	x6,x6,0x30
    4100098c:	005362b3          	or	x5,x6,x5
    41000990:	0003f317          	auipc	x6,0x3f
    41000994:	67030313          	addi	x6,x6,1648 # 41040000 <tohost>
    41000998:	00033383          	ld	x7,0(x6)
    4100099c:	fe039ee3          	bnez	x7,41000998 <rvcp_print_test_result+0x1c0>
    410009a0:	00533023          	sd	x5,0(x6)
    410009a4:	001f0f13          	addi	x30,x30,1
    410009a8:	fd5ff06f          	j	4100097c <rvcp_print_test_result+0x1a4>
    410009ac:	00008067          	ret

00000000410009b0 <os_rng_orig>:
    410009b0:	f14023f3          	csrr	x7,mhartid
    410009b4:	00068313          	mv	x6,x13
    410009b8:	026383b3          	mul	x7,x7,x6
    410009bc:	00058313          	mv	x6,x11
    410009c0:	00730333          	add	x6,x6,x7
    410009c4:	00033283          	ld	x5,0(x6)
    410009c8:	01529313          	slli	x6,x5,0x15
    410009cc:	0062c2b3          	xor	x5,x5,x6
    410009d0:	0232d313          	srli	x6,x5,0x23
    410009d4:	0062c2b3          	xor	x5,x5,x6
    410009d8:	00429313          	slli	x6,x5,0x4
    410009dc:	0062c2b3          	xor	x5,x5,x6
    410009e0:	00058313          	mv	x6,x11
    410009e4:	00730333          	add	x6,x6,x7
    410009e8:	00533023          	sd	x5,0(x6)
    410009ec:	00060313          	mv	x6,x12
    410009f0:	0262f2b3          	remu	x5,x5,x6
    410009f4:	00028513          	mv	x10,x5
    410009f8:	00008067          	ret
    410009fc:	02a00513          	li	x10,42
    41000a00:	001965b7          	lui	x11,0x196
    41000a04:	60d5859b          	addiw	x11,x11,1549 # 19660d <hart_stack_0_end+0x6a60d>
    41000a08:	3c6ef637          	lui	x12,0x3c6ef
    41000a0c:	35f6061b          	addiw	x12,x12,863 # 3c6ef35f <mem13+0xb19635f>
    41000a10:	02200693          	li	x13,34
    41000a14:	02b50533          	mul	x10,x10,x11
    41000a18:	00c50533          	add	x10,x10,x12
    41000a1c:	02d56533          	rem	x10,x10,x13
    41000a20:	00b00593          	li	x11,11
    41000a24:	02b56533          	rem	x10,x10,x11
    41000a28:	00008067          	ret
    41000a2c:	0000                	.insn	2, 0x0000
	...

0000000041000a30 <tohost_mutex>:
	...

0000000041000a38 <tohost_addr_mem>:
    41000a38:	0000                	.insn	2, 0x0000
    41000a3a:	4104                	.insn	2, 0x4104
    41000a3c:	0000                	.insn	2, 0x0000
	...

0000000041000a40 <eot__end_test>:
    41000a40:	00100293          	li	x5,1
    41000a44:	00328463          	beq	x5,x3,41000a4c <eot__passed>
    41000a48:	01c0006f          	j	41000a64 <eot__failed>

0000000041000a4c <eot__passed>:
    41000a4c:	0ff0000f          	fence
    41000a50:	00000297          	auipc	x5,0x0
    41000a54:	fe82b283          	ld	x5,-24(x5) # 41000a38 <tohost_addr_mem>
    41000a58:	00100313          	li	x6,1
    41000a5c:	0062a023          	sw	x6,0(x5)
    41000a60:	0240006f          	j	41000a84 <eot__halt>

0000000041000a64 <eot__failed>:
    41000a64:	00100513          	li	x10,1
    41000a68:	d71ff0ef          	jal	410007d8 <rvcp_print_test_result>
    41000a6c:	0ff0000f          	fence
    41000a70:	00000297          	auipc	x5,0x0
    41000a74:	fc82b283          	ld	x5,-56(x5) # 41000a38 <tohost_addr_mem>
    41000a78:	00300313          	li	x6,3
    41000a7c:	0062a023          	sw	x6,0(x5)
    41000a80:	0040006f          	j	41000a84 <eot__halt>

0000000041000a84 <eot__halt>:
    41000a84:	10500073          	wfi
    41000a88:	ffdff06f          	j	41000a84 <eot__halt>

0000000041000a8c <scheduler__init>:
    41000a8c:	00000297          	auipc	x5,0x0
    41000a90:	0b828293          	addi	x5,x5,184 # 41000b44 <scheduler__panic>
    41000a94:	305292f3          	csrrw	x5,mtvec,x5
    41000a98:	18523023          	sd	x5,384(x4) # 180 <XLEN+0x140>
    41000a9c:	01400293          	li	x5,20
    41000aa0:	18523823          	sd	x5,400(x4) # 190 <XLEN+0x150>
    41000aa4:	0010029b          	addiw	x5,x0,1
    41000aa8:	02029293          	slli	x5,x5,0x20
    41000aac:	ffe28293          	addi	x5,x5,-2
    41000ab0:	18523423          	sd	x5,392(x4) # 188 <XLEN+0x148>
    41000ab4:	00000317          	auipc	x6,0x0
    41000ab8:	50030313          	addi	x6,x6,1280 # 41000fb4 <scheduler__test_setup_ptr>
    41000abc:	00033303          	ld	x6,0(x6)
    41000ac0:	05c0006f          	j	41000b1c <scheduler__execute_test>

0000000041000ac4 <scheduler__dispatch>:
    41000ac4:	00000297          	auipc	x5,0x0
    41000ac8:	08028293          	addi	x5,x5,128 # 41000b44 <scheduler__panic>
    41000acc:	305292f3          	csrrw	x5,mtvec,x5
    41000ad0:	18523023          	sd	x5,384(x4) # 180 <XLEN+0x140>

0000000041000ad4 <scheduler__csr_read_randomization>:
    41000ad4:	105022f3          	csrr	x5,stvec
    41000ad8:	105022f3          	csrr	x5,stvec
    41000adc:	144022f3          	csrr	x5,sip

0000000041000ae0 <scheduler__load_num_runs>:
    41000ae0:	19023303          	ld	x6,400(x4) # 190 <XLEN+0x150>
    41000ae4:	04030c63          	beqz	x6,41000b3c <scheduler__finished>

0000000041000ae8 <scheduler__decrement_num_runs>:
    41000ae8:	fff30393          	addi	x7,x6,-1
    41000aec:	18723823          	sd	x7,400(x4) # 190 <XLEN+0x150>
    41000af0:	00000e17          	auipc	x28,0x0
    41000af4:	474e0e13          	addi	x28,x28,1140 # 41000f64 <dtest_index_map>
    41000af8:	00239e93          	slli	x29,x7,0x2
    41000afc:	01de0e33          	add	x28,x28,x29
    41000b00:	000e2e03          	lw	x28,0(x28)
    41000b04:	19c23423          	sd	x28,392(x4) # 188 <XLEN+0x148>

0000000041000b08 <scheduler__calc_test_pointer>:
    41000b08:	00339293          	slli	x5,x7,0x3

0000000041000b0c <scheduler__load_test_addr>:
    41000b0c:	00000317          	auipc	x6,0x0
    41000b10:	04830313          	addi	x6,x6,72 # 41000b54 <os_test_sequence>
    41000b14:	006282b3          	add	x5,x5,x6
    41000b18:	0002b303          	ld	x6,0(x5)

0000000041000b1c <scheduler__execute_test>:
    41000b1c:	18023283          	ld	x5,384(x4) # 180 <XLEN+0x140>
    41000b20:	30529073          	csrw	mtvec,x5
    41000b24:	34021273          	csrrw	x4,mscratch,x4
    41000b28:	00000213          	li	x4,0
    41000b2c:	14131073          	csrw	sepc,x6
    41000b30:	10000293          	li	x5,256
    41000b34:	1002b073          	csrc	sstatus,x5
    41000b38:	10200073          	sret

0000000041000b3c <scheduler__finished>:
    41000b3c:	00100193          	li	x3,1
    41000b40:	f01ff06f          	j	41000a40 <eot__end_test>

0000000041000b44 <scheduler__panic>:
    41000b44:	00000193          	li	x3,0
    41000b48:	ef9ff06f          	j	41000a40 <eot__end_test>

0000000041000b4c <num_runs>:
    41000b4c:	0014                	.insn	2, 0x0014
    41000b4e:	0000                	.insn	2, 0x0000
    41000b50:	0000                	.insn	2, 0x0000
	...

0000000041000b54 <os_test_sequence>:
    41000b54:	6a3c                	.insn	2, 0x6a3c
    41000b56:	4101                	.insn	2, 0x4101
    41000b58:	0000                	.insn	2, 0x0000
    41000b5a:	0000                	.insn	2, 0x0000
    41000b5c:	5fec                	.insn	2, 0x5fec
    41000b5e:	4101                	.insn	2, 0x4101
    41000b60:	0000                	.insn	2, 0x0000
    41000b62:	0000                	.insn	2, 0x0000
    41000b64:	55c8                	.insn	2, 0x55c8
    41000b66:	4101                	.insn	2, 0x4101
    41000b68:	0000                	.insn	2, 0x0000
    41000b6a:	0000                	.insn	2, 0x0000
    41000b6c:	6944                	.insn	2, 0x6944
    41000b6e:	4101                	.insn	2, 0x4101
    41000b70:	0000                	.insn	2, 0x0000
    41000b72:	0000                	.insn	2, 0x0000
    41000b74:	6a04                	.insn	2, 0x6a04
    41000b76:	4101                	.insn	2, 0x4101
    41000b78:	0000                	.insn	2, 0x0000
    41000b7a:	0000                	.insn	2, 0x0000
    41000b7c:	5c88                	.insn	2, 0x5c88
    41000b7e:	4101                	.insn	2, 0x4101
    41000b80:	0000                	.insn	2, 0x0000
    41000b82:	0000                	.insn	2, 0x0000
    41000b84:	5110                	.insn	2, 0x5110
    41000b86:	4101                	.insn	2, 0x4101
    41000b88:	0000                	.insn	2, 0x0000
    41000b8a:	0000                	.insn	2, 0x0000
    41000b8c:	6730                	.insn	2, 0x6730
    41000b8e:	4101                	.insn	2, 0x4101
    41000b90:	0000                	.insn	2, 0x0000
    41000b92:	0000                	.insn	2, 0x0000
    41000b94:	5180                	.insn	2, 0x5180
    41000b96:	4101                	.insn	2, 0x4101
    41000b98:	0000                	.insn	2, 0x0000
    41000b9a:	0000                	.insn	2, 0x0000
    41000b9c:	65e8                	.insn	2, 0x65e8
    41000b9e:	4101                	.insn	2, 0x4101
    41000ba0:	0000                	.insn	2, 0x0000
    41000ba2:	0000                	.insn	2, 0x0000
    41000ba4:	5748                	.insn	2, 0x5748
    41000ba6:	4101                	.insn	2, 0x4101
    41000ba8:	0000                	.insn	2, 0x0000
    41000baa:	0000                	.insn	2, 0x0000
    41000bac:	5e64                	.insn	2, 0x5e64
    41000bae:	4101                	.insn	2, 0x4101
    41000bb0:	0000                	.insn	2, 0x0000
    41000bb2:	0000                	.insn	2, 0x0000
    41000bb4:	6338                	.insn	2, 0x6338
    41000bb6:	4101                	.insn	2, 0x4101
    41000bb8:	0000                	.insn	2, 0x0000
    41000bba:	0000                	.insn	2, 0x0000
    41000bbc:	6450                	.insn	2, 0x6450
    41000bbe:	4101                	.insn	2, 0x4101
    41000bc0:	0000                	.insn	2, 0x0000
    41000bc2:	0000                	.insn	2, 0x0000
    41000bc4:	61c4                	.insn	2, 0x61c4
    41000bc6:	4101                	.insn	2, 0x4101
    41000bc8:	0000                	.insn	2, 0x0000
    41000bca:	0000                	.insn	2, 0x0000
    41000bcc:	5928                	.insn	2, 0x5928
    41000bce:	4101                	.insn	2, 0x4101
    41000bd0:	0000                	.insn	2, 0x0000
    41000bd2:	0000                	.insn	2, 0x0000
    41000bd4:	5284                	.insn	2, 0x5284
    41000bd6:	4101                	.insn	2, 0x4101
    41000bd8:	0000                	.insn	2, 0x0000
    41000bda:	0000                	.insn	2, 0x0000
    41000bdc:	59a8                	.insn	2, 0x59a8
    41000bde:	4101                	.insn	2, 0x4101
    41000be0:	0000                	.insn	2, 0x0000
    41000be2:	0000                	.insn	2, 0x0000
    41000be4:	51e4                	.insn	2, 0x51e4
    41000be6:	4101                	.insn	2, 0x4101
    41000be8:	0000                	.insn	2, 0x0000
    41000bea:	0000                	.insn	2, 0x0000
    41000bec:	5344                	.insn	2, 0x5344
    41000bee:	4101                	.insn	2, 0x4101
    41000bf0:	0000                	.insn	2, 0x0000
	...

0000000041000bf4 <dtest_descriptor_table>:
    41000bf4:	0c8c                	.insn	2, 0x0c8c
    41000bf6:	4100                	.insn	2, 0x4100
    41000bf8:	0000                	.insn	2, 0x0000
    41000bfa:	0000                	.insn	2, 0x0000
    41000bfc:	0cb9                	.insn	2, 0x0cb9
    41000bfe:	4100                	.insn	2, 0x4100
    41000c00:	0000                	.insn	2, 0x0000
    41000c02:	0000                	.insn	2, 0x0000
    41000c04:	0cdf 4100 0000      	.insn	6, 0x41000cdf
    41000c0a:	0000                	.insn	2, 0x0000
    41000c0c:	0d08                	.insn	2, 0x0d08
    41000c0e:	4100                	.insn	2, 0x4100
    41000c10:	0000                	.insn	2, 0x0000
    41000c12:	0000                	.insn	2, 0x0000
    41000c14:	0d2e                	.insn	2, 0x0d2e
    41000c16:	4100                	.insn	2, 0x4100
    41000c18:	0000                	.insn	2, 0x0000
    41000c1a:	0000                	.insn	2, 0x0000
    41000c1c:	0d56                	.insn	2, 0x0d56
    41000c1e:	4100                	.insn	2, 0x4100
    41000c20:	0000                	.insn	2, 0x0000
    41000c22:	0000                	.insn	2, 0x0000
    41000c24:	0d80                	.insn	2, 0x0d80
    41000c26:	4100                	.insn	2, 0x4100
    41000c28:	0000                	.insn	2, 0x0000
    41000c2a:	0000                	.insn	2, 0x0000
    41000c2c:	41000da7          	.insn	4, 0x41000da7
    41000c30:	0000                	.insn	2, 0x0000
    41000c32:	0000                	.insn	2, 0x0000
    41000c34:	0dce                	.insn	2, 0x0dce
    41000c36:	4100                	.insn	2, 0x4100
    41000c38:	0000                	.insn	2, 0x0000
    41000c3a:	0000                	.insn	2, 0x0000
    41000c3c:	0dec                	.insn	2, 0x0dec
    41000c3e:	4100                	.insn	2, 0x4100
    41000c40:	0000                	.insn	2, 0x0000
    41000c42:	0000                	.insn	2, 0x0000
    41000c44:	0e0e                	.insn	2, 0x0e0e
    41000c46:	4100                	.insn	2, 0x4100
    41000c48:	0000                	.insn	2, 0x0000
    41000c4a:	0000                	.insn	2, 0x0000
    41000c4c:	41000e2f          	.insn	4, 0x41000e2f
    41000c50:	0000                	.insn	2, 0x0000
    41000c52:	0000                	.insn	2, 0x0000
    41000c54:	0e51                	.insn	2, 0x0e51
    41000c56:	4100                	.insn	2, 0x4100
    41000c58:	0000                	.insn	2, 0x0000
    41000c5a:	0000                	.insn	2, 0x0000
    41000c5c:	0e76                	.insn	2, 0x0e76
    41000c5e:	4100                	.insn	2, 0x4100
    41000c60:	0000                	.insn	2, 0x0000
    41000c62:	0000                	.insn	2, 0x0000
    41000c64:	41000e9b          	addiw	x29,x0,1040
    41000c68:	0000                	.insn	2, 0x0000
    41000c6a:	0000                	.insn	2, 0x0000
    41000c6c:	0ec0                	.insn	2, 0x0ec0
    41000c6e:	4100                	.insn	2, 0x4100
    41000c70:	0000                	.insn	2, 0x0000
    41000c72:	0000                	.insn	2, 0x0000
    41000c74:	41000ee3          	beq	x0,x16,41001890 <__section__runtime_1+0x890>
    41000c78:	0000                	.insn	2, 0x0000
    41000c7a:	0000                	.insn	2, 0x0000
    41000c7c:	0f08                	.insn	2, 0x0f08
    41000c7e:	4100                	.insn	2, 0x4100
    41000c80:	0000                	.insn	2, 0x0000
    41000c82:	0000                	.insn	2, 0x0000
    41000c84:	0f38                	.insn	2, 0x0f38
    41000c86:	4100                	.insn	2, 0x4100
    41000c88:	0000                	.insn	2, 0x0000
	...

0000000041000c8c <dtest_name_0>:
    41000c8c:	5f444953          	.insn	4, 0x5f444953
    41000c90:	4250                	.insn	2, 0x4250
    41000c92:	4d56                	.insn	2, 0x4d56
    41000c94:	30305f53          	.insn	4, 0x30305f53
    41000c98:	5f31                	.insn	2, 0x5f31
    41000c9a:	7470                	.insn	2, 0x7470
    41000c9c:	6f6e5f77          	.insn	4, 0x6f6e5f77
    41000ca0:	665f 7561 746c      	.insn	6, 0x746c7561665f
    41000ca6:	6c615f73          	csrrwi	x30,0x6c6,2
    41000caa:	5f6c                	.insn	2, 0x5f6c
    41000cac:	6361                	.insn	2, 0x6361
    41000cae:	73736563          	bltu	x6,x23,410013d8 <__section__runtime_1+0x3d8>
    41000cb2:	745f 7079 7365      	.insn	6, 0x73657079745f
	...

0000000041000cb9 <dtest_name_1>:
    41000cb9:	5f444953          	.insn	4, 0x5f444953
    41000cbd:	4250                	.insn	2, 0x4250
    41000cbf:	4d56                	.insn	2, 0x4d56
    41000cc1:	30305f53          	.insn	4, 0x30305f53
    41000cc5:	74705f33          	.insn	4, 0x74705f33
    41000cc9:	6c615f77          	.insn	4, 0x6c615f77
    41000ccd:	5f6c                	.insn	2, 0x5f6c
    41000ccf:	7270                	.insn	2, 0x7270
    41000cd1:	7669                	.insn	2, 0x7669
    41000cd3:	6c69                	.insn	2, 0x6c69
    41000cd5:	6765                	.insn	2, 0x6765
    41000cd7:	5f65                	.insn	2, 0x5f65
    41000cd9:	6f6d                	.insn	2, 0x6f6d
    41000cdb:	6564                	.insn	2, 0x6564
    41000cdd:	          	.insn	4, 0x49530073

0000000041000cdf <dtest_name_2>:
    41000cdf:	5f444953          	.insn	4, 0x5f444953
    41000ce3:	4250                	.insn	2, 0x4250
    41000ce5:	4d56                	.insn	2, 0x4d56
    41000ce7:	30305f53          	.insn	4, 0x30305f53
    41000ceb:	5f36                	.insn	2, 0x5f36
    41000ced:	7470                	.insn	2, 0x7470
    41000cef:	61705f77          	.insn	4, 0x61705f77
    41000cf3:	625f6567          	.insn	4, 0x625f6567
    41000cf7:	646e756f          	jal	x10,410e833d <__section__code_211+0x33d>
    41000cfb:	7261                	.insn	2, 0x7261
    41000cfd:	5f79                	.insn	2, 0x5f79
    41000cff:	736f7263          	bgeu	x30,x22,41001423 <__section__runtime_1+0x423>
    41000d03:	676e6973          	csrrsi	x18,0x676,28
	...

0000000041000d08 <dtest_name_3>:
    41000d08:	5f444953          	.insn	4, 0x5f444953
    41000d0c:	4250                	.insn	2, 0x4250
    41000d0e:	4d56                	.insn	2, 0x4d56
    41000d10:	30305f53          	.insn	4, 0x30305f53
    41000d14:	5f38                	.insn	2, 0x5f38
    41000d16:	6176                	.insn	2, 0x6176
    41000d18:	735f 6769 5f6e      	.insn	6, 0x5f6e6769735f
    41000d1e:	7865                	.insn	2, 0x7865
    41000d20:	6574                	.insn	2, 0x6574
    41000d22:	736e                	.insn	2, 0x736e
    41000d24:	6f69                	.insn	2, 0x6f69
    41000d26:	5f6e                	.insn	2, 0x5f6e
    41000d28:	6166                	.insn	2, 0x6166
    41000d2a:	6c75                	.insn	2, 0x6c75
    41000d2c:	0074                	.insn	2, 0x0074

0000000041000d2e <dtest_name_4>:
    41000d2e:	5f444953          	.insn	4, 0x5f444953
    41000d32:	4250                	.insn	2, 0x4250
    41000d34:	4d56                	.insn	2, 0x4d56
    41000d36:	30305f53          	.insn	4, 0x30305f53
    41000d3a:	5f39                	.insn	2, 0x5f39
    41000d3c:	65707573          	csrrci	x10,hviprio2h,0
    41000d40:	7072                	.insn	2, 0x7072
    41000d42:	6761                	.insn	2, 0x6761
    41000d44:	5f65                	.insn	2, 0x5f65
    41000d46:	6c61                	.insn	2, 0x6c61
    41000d48:	6769                	.insn	2, 0x6769
    41000d4a:	6d6e                	.insn	2, 0x6d6e
    41000d4c:	6e65                	.insn	2, 0x6e65
    41000d4e:	5f74                	.insn	2, 0x5f74
    41000d50:	6166                	.insn	2, 0x6166
    41000d52:	6c75                	.insn	2, 0x6c75
    41000d54:	0074                	.insn	2, 0x0074

0000000041000d56 <dtest_name_5>:
    41000d56:	5f444953          	.insn	4, 0x5f444953
    41000d5a:	4250                	.insn	2, 0x4250
    41000d5c:	4d56                	.insn	2, 0x4d56
    41000d5e:	31305f53          	.insn	4, 0x31305f53
    41000d62:	5f31                	.insn	2, 0x5f31
    41000d64:	7470                	.insn	2, 0x7470
    41000d66:	61665f77          	.insn	4, 0x61665f77
    41000d6a:	6c75                	.insn	2, 0x6c75
    41000d6c:	5f74                	.insn	2, 0x5f74
    41000d6e:	6f62                	.insn	2, 0x6f62
    41000d70:	6e75                	.insn	2, 0x6e75
    41000d72:	6164                	.insn	2, 0x6164
    41000d74:	7972                	.insn	2, 0x7972
    41000d76:	635f 6f72 7373      	.insn	6, 0x73736f72635f
    41000d7c:	6e69                	.insn	2, 0x6e69
    41000d7e:	          	jr	1173(x6)

0000000041000d80 <dtest_name_6>:
    41000d80:	5f444953          	.insn	4, 0x5f444953
    41000d84:	4250                	.insn	2, 0x4250
    41000d86:	4d56                	.insn	2, 0x4d56
    41000d88:	31305f53          	.insn	4, 0x31305f53
    41000d8c:	5f32                	.insn	2, 0x5f32
    41000d8e:	7470                	.insn	2, 0x7470
    41000d90:	61665f77          	.insn	4, 0x61665f77
    41000d94:	6c75                	.insn	2, 0x6c75
    41000d96:	5f74                	.insn	2, 0x5f74
    41000d98:	7270                	.insn	2, 0x7270
    41000d9a:	6f69                	.insn	2, 0x6f69
    41000d9c:	6972                	.insn	2, 0x6972
    41000d9e:	6974                	.insn	2, 0x6974
    41000da0:	617a                	.insn	2, 0x617a
    41000da2:	6974                	.insn	2, 0x6974
    41000da4:	          	jal	x28,410072d4 <__section__runtime_7+0x2d4>

0000000041000da7 <dtest_name_7>:
    41000da7:	5f444953          	.insn	4, 0x5f444953
    41000dab:	4250                	.insn	2, 0x4250
    41000dad:	4d56                	.insn	2, 0x4d56
    41000daf:	31305f53          	.insn	4, 0x31305f53
    41000db3:	74705f33          	.insn	4, 0x74705f33
    41000db7:	65705f77          	.insn	4, 0x65705f77
    41000dbb:	6d72                	.insn	2, 0x6d72
    41000dbd:	7369                	.insn	2, 0x7369
    41000dbf:	6e6f6973          	csrrsi	x18,0x6e6,30
    41000dc3:	655f 636e 646f      	.insn	6, 0x646f636e655f
    41000dc9:	6e69                	.insn	2, 0x6e69
    41000dcb:	          	.insn	4, 0x53007367

0000000041000dce <dtest_name_8>:
    41000dce:	5f444953          	.insn	4, 0x5f444953
    41000dd2:	4250                	.insn	2, 0x4250
    41000dd4:	4d56                	.insn	2, 0x4d56
    41000dd6:	31305f53          	.insn	4, 0x31305f53
    41000dda:	5f34                	.insn	2, 0x5f34
    41000ddc:	736d                	.insn	2, 0x736d
    41000dde:	6174                	.insn	2, 0x6174
    41000de0:	7574                	.insn	2, 0x7574
    41000de2:	75735f73          	csrrwi	x30,0x757,6
    41000de6:	5f6d                	.insn	2, 0x5f6d
    41000de8:	786d                	.insn	2, 0x786d
    41000dea:	0072                	.insn	2, 0x0072

0000000041000dec <dtest_name_9>:
    41000dec:	5f444953          	.insn	4, 0x5f444953
    41000df0:	4250                	.insn	2, 0x4250
    41000df2:	4d56                	.insn	2, 0x4d56
    41000df4:	31305f53          	.insn	4, 0x31305f53
    41000df8:	5f35                	.insn	2, 0x5f35
    41000dfa:	626f6c67          	.insn	4, 0x626f6c67
    41000dfe:	6c61                	.insn	2, 0x6c61
    41000e00:	625f 7469 685f      	.insn	6, 0x685f7469625f
    41000e06:	756f6e6f          	jal	x28,410f755c <__section__code_226+0x55c>
    41000e0a:	6572                	.insn	2, 0x6572
    41000e0c:	0064                	.insn	2, 0x0064

0000000041000e0e <dtest_name_10>:
    41000e0e:	5f444953          	.insn	4, 0x5f444953
    41000e12:	4250                	.insn	2, 0x4250
    41000e14:	4d56                	.insn	2, 0x4d56
    41000e16:	31305f53          	.insn	4, 0x31305f53
    41000e1a:	6c675f37          	lui	x30,0x6c675
    41000e1e:	6c61626f          	jal	x4,410174e4 <__section__code_2+0x4e4>
    41000e22:	615f 5f74 6f6e      	.insn	6, 0x6f6e5f74615f
    41000e28:	5f6e                	.insn	2, 0x5f6e
    41000e2a:	656c                	.insn	2, 0x656c
    41000e2c:	6661                	.insn	2, 0x6661
	...

0000000041000e2f <dtest_name_11>:
    41000e2f:	5f444953          	.insn	4, 0x5f444953
    41000e33:	4250                	.insn	2, 0x4250
    41000e35:	4d56                	.insn	2, 0x4d56
    41000e37:	31305f53          	.insn	4, 0x31305f53
    41000e3b:	5f38                	.insn	2, 0x5f38
    41000e3d:	7372                	.insn	2, 0x7372
    41000e3f:	69665f77          	.insn	4, 0x69665f77
    41000e43:	6c65                	.insn	2, 0x6c65
    41000e45:	7364                	.insn	2, 0x7364
    41000e47:	775f 6972 6174      	.insn	6, 0x61746972775f
    41000e4d:	6c62                	.insn	2, 0x6c62
    41000e4f:	0065                	.insn	2, 0x0065

0000000041000e51 <dtest_name_12>:
    41000e51:	5f444953          	.insn	4, 0x5f444953
    41000e55:	4250                	.insn	2, 0x4250
    41000e57:	4d56                	.insn	2, 0x4d56
    41000e59:	32305f53          	.insn	4, 0x32305f53
    41000e5d:	5f31                	.insn	2, 0x5f31
    41000e5f:	70746173          	csrrsi	x2,0x707,8
    41000e63:	765f 6c61 6469      	.insn	6, 0x64696c61765f
    41000e69:	745f 5f6f 6572      	.insn	6, 0x65725f6f745f
    41000e6f:	76726573          	csrrsi	x10,0x767,4
    41000e73:	6465                	.insn	2, 0x6465
	...

0000000041000e76 <dtest_name_13>:
    41000e76:	5f444953          	.insn	4, 0x5f444953
    41000e7a:	4250                	.insn	2, 0x4250
    41000e7c:	4d56                	.insn	2, 0x4d56
    41000e7e:	32305f53          	.insn	4, 0x32305f53
    41000e82:	5f32                	.insn	2, 0x5f32
    41000e84:	70746173          	csrrsi	x2,0x707,8
    41000e88:	635f 7273 615f      	.insn	6, 0x615f7273635f
    41000e8e:	73656363          	bltu	x10,x22,410015b4 <__section__runtime_1+0x5b4>
    41000e92:	69626973          	csrrsi	x18,0x696,4
    41000e96:	696c                	.insn	2, 0x696c
    41000e98:	7974                	.insn	2, 0x7974
	...

0000000041000e9b <dtest_name_14>:
    41000e9b:	5f444953          	.insn	4, 0x5f444953
    41000e9f:	4250                	.insn	2, 0x4250
    41000ea1:	4d56                	.insn	2, 0x4d56
    41000ea3:	32305f53          	.insn	4, 0x32305f53
    41000ea7:	61735f33          	ror	x30,x6,x23
    41000eab:	7074                	.insn	2, 0x7074
    41000ead:	615f 6973 6c64      	.insn	6, 0x6c646973615f
    41000eb3:	6e65                	.insn	2, 0x6e65
    41000eb5:	645f 7369 6f63      	.insn	6, 0x6f637369645f
    41000ebb:	6576                	.insn	2, 0x6576
    41000ebd:	7972                	.insn	2, 0x7972
	...

0000000041000ec0 <dtest_name_15>:
    41000ec0:	5f444953          	.insn	4, 0x5f444953
    41000ec4:	4250                	.insn	2, 0x4250
    41000ec6:	4d56                	.insn	2, 0x4d56
    41000ec8:	32305f53          	.insn	4, 0x32305f53
    41000ecc:	61735f37          	lui	x30,0x61735
    41000ed0:	7074                	.insn	2, 0x7074
    41000ed2:	755f 6573 5f72      	.insn	6, 0x5f726573755f
    41000ed8:	6f6d                	.insn	2, 0x6f6d
    41000eda:	6564                	.insn	2, 0x6564
    41000edc:	665f 7561 746c      	.insn	6, 0x746c7561665f
	...

0000000041000ee3 <dtest_name_16>:
    41000ee3:	5f444953          	.insn	4, 0x5f444953
    41000ee7:	4250                	.insn	2, 0x4250
    41000ee9:	4d56                	.insn	2, 0x4d56
    41000eeb:	34305f53          	.insn	4, 0x34305f53
    41000eef:	5f30                	.insn	2, 0x5f30
    41000ef1:	746e6f63          	bltu	x28,x6,4100164f <__section__runtime_1+0x64f>
    41000ef5:	7865                	.insn	2, 0x7865
    41000ef7:	5f74                	.insn	2, 0x5f74
    41000ef9:	6174                	.insn	2, 0x6174
    41000efb:	6c62                	.insn	2, 0x6c62
    41000efd:	5f65                	.insn	2, 0x5f65
    41000eff:	7265766f          	jal	x12,41058625 <__section__code_67+0x625>
    41000f03:	6c66                	.insn	2, 0x6c66
    41000f05:	          	jal	x14,41008435 <__section__runtime_8+0x435>

0000000041000f08 <dtest_name_17>:
    41000f08:	5f444953          	.insn	4, 0x5f444953
    41000f0c:	4250                	.insn	2, 0x4250
    41000f0e:	4d56                	.insn	2, 0x4d56
    41000f10:	34305f53          	.insn	4, 0x34305f53
    41000f14:	5f32                	.insn	2, 0x5f32
    41000f16:	6f6e6163          	bltu	x28,x22,410015f8 <__section__runtime_1+0x5f8>
    41000f1a:	696e                	.insn	2, 0x696e
    41000f1c:	5f6c6163          	bltu	x24,x22,410014fe <__section__runtime_1+0x4fe>
    41000f20:	6f62                	.insn	2, 0x6f62
    41000f22:	6e75                	.insn	2, 0x6e75
    41000f24:	6164                	.insn	2, 0x6164
    41000f26:	7972                	.insn	2, 0x7972
    41000f28:	635f 6f72 7373      	.insn	6, 0x73736f72635f
    41000f2e:	6e69                	.insn	2, 0x6e69
    41000f30:	61665f67          	.insn	4, 0x61665f67
    41000f34:	6c75                	.insn	2, 0x6c75
    41000f36:	0074                	.insn	2, 0x0074

0000000041000f38 <dtest_name_18>:
    41000f38:	5f444953          	.insn	4, 0x5f444953
    41000f3c:	4250                	.insn	2, 0x4250
    41000f3e:	4d56                	.insn	2, 0x4d56
    41000f40:	34305f53          	.insn	4, 0x34305f53
    41000f44:	65665f33          	.insn	4, 0x65665f33
    41000f48:	6374                	.insn	2, 0x6374
    41000f4a:	5f68                	.insn	2, 0x5f68
    41000f4c:	646e6977          	.insn	4, 0x646e6977
    41000f50:	735f776f          	jal	x14,410f8e84 <__section__code_227+0xe84>
    41000f54:	6970                	.insn	2, 0x6970
    41000f56:	6c6c                	.insn	2, 0x6c6c
    41000f58:	705f 6761 5f65      	.insn	6, 0x5f656761705f
    41000f5e:	736f7263          	bgeu	x30,x22,41001682 <__section__runtime_1+0x682>
    41000f62:	          	.insn	4, 0xffff0073

0000000041000f64 <dtest_index_map>:
    41000f64:	ffff                	.insn	2, 0xffff
    41000f66:	ffff                	.insn	2, 0xffff
    41000f68:	0000000b          	.insn	4, 0x000b
    41000f6c:	0005                	.insn	2, 0x0005
    41000f6e:	0000                	.insn	2, 0x0000
    41000f70:	0011                	.insn	2, 0x0011
    41000f72:	0000                	.insn	2, 0x0000
    41000f74:	0012                	.insn	2, 0x0012
    41000f76:	0000                	.insn	2, 0x0000
    41000f78:	0009                	.insn	2, 0x0009
    41000f7a:	0000                	.insn	2, 0x0000
    41000f7c:	0000                	.insn	2, 0x0000
    41000f7e:	0000                	.insn	2, 0x0000
    41000f80:	0010                	.insn	2, 0x0010
    41000f82:	0000                	.insn	2, 0x0000
    41000f84:	0001                	.insn	2, 0x0001
    41000f86:	0000                	.insn	2, 0x0000
    41000f88:	0000000f          	fence	unknown,unknown
    41000f8c:	0006                	.insn	2, 0x0006
    41000f8e:	0000                	.insn	2, 0x0000
    41000f90:	000a                	.insn	2, 0x000a
    41000f92:	0000                	.insn	2, 0x0000
    41000f94:	000d                	.insn	2, 0x000d
    41000f96:	0000                	.insn	2, 0x0000
    41000f98:	000e                	.insn	2, 0x000e
    41000f9a:	0000                	.insn	2, 0x0000
    41000f9c:	000c                	.insn	2, 0x000c
    41000f9e:	0000                	.insn	2, 0x0000
    41000fa0:	00000007          	vle8.v	v0,(x0),v0.t
    41000fa4:	00000003          	lb	x0,0(x0) # 0 <ALL_4KB_PAGES>
    41000fa8:	0008                	.insn	2, 0x0008
    41000faa:	0000                	.insn	2, 0x0000
    41000fac:	0002                	.insn	2, 0x0002
    41000fae:	0000                	.insn	2, 0x0000
    41000fb0:	0004                	.insn	2, 0x0004
	...

0000000041000fb4 <scheduler__test_setup_ptr>:
    41000fb4:	5100                	.insn	2, 0x5100
    41000fb6:	4101                	.insn	2, 0x4101
    41000fb8:	0000                	.insn	2, 0x0000
	...

0000000041000fbc <scheduler__test_cleanup_ptr>:
    41000fbc:	6a3c                	.insn	2, 0x6a3c
    41000fbe:	4101                	.insn	2, 0x4101
    41000fc0:	0000                	.insn	2, 0x0000
	...

Disassembly of section .runtime_s:

0000000041011000 <trap_handler_s__invalid_interrupt>:
    41011000:	1740006f          	j	41011174 <trap_handler_s__test_failed>

0000000041011004 <trap_handler_s__clear_all_interrupts>:
    41011004:	14401073          	csrw	sip,x0
    41011008:	10200073          	sret

000000004101100c <trap_handler_s___CLEAR_SSI>:
    4101100c:	00200293          	li	x5,2
    41011010:	1442b073          	csrc	sip,x5
    41011014:	10200073          	sret

0000000041011018 <trap_handler_s___CLEAR_MSI>:
    41011018:	00800293          	li	x5,8
    4101101c:	1442b073          	csrc	sip,x5
    41011020:	10200073          	sret

0000000041011024 <trap_handler_s___CLEAR_STI>:
    41011024:	02000293          	li	x5,32
    41011028:	1442b073          	csrc	sip,x5
    4101102c:	10200073          	sret

0000000041011030 <trap_handler_s___CLEAR_MTI>:
    41011030:	08000293          	li	x5,128
    41011034:	1442b073          	csrc	sip,x5
    41011038:	10200073          	sret

000000004101103c <trap_handler_s___CLEAR_SEI>:
    4101103c:	20000293          	li	x5,512
    41011040:	1442b073          	csrc	sip,x5
    41011044:	10200073          	sret

0000000041011048 <trap_handler_s___CLEAR_MEI>:
    41011048:	000012b7          	lui	x5,0x1
    4101104c:	8002829b          	addiw	x5,x5,-2048 # 800 <XLEN+0x7c0>
    41011050:	1442b073          	csrc	sip,x5
    41011054:	10200073          	sret

0000000041011058 <trap_handler_s___CLEAR_COI>:
    41011058:	000022b7          	lui	x5,0x2
    4101105c:	1442b073          	csrc	sip,x5
    41011060:	10200073          	sret

0000000041011064 <trap_handler_s__clear_highest_priority_interrupt>:
    41011064:	144022f3          	csrr	x5,sip
    41011068:	40500333          	neg	x6,x5
    4101106c:	0062f2b3          	and	x5,x5,x6
    41011070:	1442b073          	csrc	sip,x5
    41011074:	10200073          	sret

0000000041011078 <trap_handler_s__trap_entry>:
    41011078:	10c0006f          	j	41011184 <trap_handler_s__trap_handler>

000000004101107c <trap_handler_s__interrupt_vector_table>:
    4101107c:	f91ff06f          	j	4101100c <trap_handler_s___CLEAR_SSI>
    41011080:	f81ff06f          	j	41011000 <trap_handler_s__invalid_interrupt>
    41011084:	f95ff06f          	j	41011018 <trap_handler_s___CLEAR_MSI>
    41011088:	f79ff06f          	j	41011000 <trap_handler_s__invalid_interrupt>
    4101108c:	f99ff06f          	j	41011024 <trap_handler_s___CLEAR_STI>
    41011090:	f71ff06f          	j	41011000 <trap_handler_s__invalid_interrupt>
    41011094:	f9dff06f          	j	41011030 <trap_handler_s___CLEAR_MTI>
    41011098:	f69ff06f          	j	41011000 <trap_handler_s__invalid_interrupt>
    4101109c:	fa1ff06f          	j	4101103c <trap_handler_s___CLEAR_SEI>
    410110a0:	f61ff06f          	j	41011000 <trap_handler_s__invalid_interrupt>
    410110a4:	fa5ff06f          	j	41011048 <trap_handler_s___CLEAR_MEI>
    410110a8:	f59ff06f          	j	41011000 <trap_handler_s__invalid_interrupt>
    410110ac:	fadff06f          	j	41011058 <trap_handler_s___CLEAR_COI>
    410110b0:	f51ff06f          	j	41011000 <trap_handler_s__invalid_interrupt>
    410110b4:	f4dff06f          	j	41011000 <trap_handler_s__invalid_interrupt>
    410110b8:	fadff06f          	j	41011064 <trap_handler_s__clear_highest_priority_interrupt>
    410110bc:	fa9ff06f          	j	41011064 <trap_handler_s__clear_highest_priority_interrupt>
    410110c0:	fa5ff06f          	j	41011064 <trap_handler_s__clear_highest_priority_interrupt>
    410110c4:	fa1ff06f          	j	41011064 <trap_handler_s__clear_highest_priority_interrupt>
    410110c8:	f9dff06f          	j	41011064 <trap_handler_s__clear_highest_priority_interrupt>
    410110cc:	f99ff06f          	j	41011064 <trap_handler_s__clear_highest_priority_interrupt>
    410110d0:	f95ff06f          	j	41011064 <trap_handler_s__clear_highest_priority_interrupt>
    410110d4:	f91ff06f          	j	41011064 <trap_handler_s__clear_highest_priority_interrupt>
    410110d8:	f8dff06f          	j	41011064 <trap_handler_s__clear_highest_priority_interrupt>
    410110dc:	f89ff06f          	j	41011064 <trap_handler_s__clear_highest_priority_interrupt>
    410110e0:	f85ff06f          	j	41011064 <trap_handler_s__clear_highest_priority_interrupt>
    410110e4:	f81ff06f          	j	41011064 <trap_handler_s__clear_highest_priority_interrupt>
    410110e8:	f7dff06f          	j	41011064 <trap_handler_s__clear_highest_priority_interrupt>
    410110ec:	f79ff06f          	j	41011064 <trap_handler_s__clear_highest_priority_interrupt>
    410110f0:	f75ff06f          	j	41011064 <trap_handler_s__clear_highest_priority_interrupt>
    410110f4:	f71ff06f          	j	41011064 <trap_handler_s__clear_highest_priority_interrupt>
    410110f8:	f6dff06f          	j	41011064 <trap_handler_s__clear_highest_priority_interrupt>
    410110fc:	f69ff06f          	j	41011064 <trap_handler_s__clear_highest_priority_interrupt>
    41011100:	f65ff06f          	j	41011064 <trap_handler_s__clear_highest_priority_interrupt>
    41011104:	f61ff06f          	j	41011064 <trap_handler_s__clear_highest_priority_interrupt>
    41011108:	f5dff06f          	j	41011064 <trap_handler_s__clear_highest_priority_interrupt>
    4101110c:	f59ff06f          	j	41011064 <trap_handler_s__clear_highest_priority_interrupt>
    41011110:	f55ff06f          	j	41011064 <trap_handler_s__clear_highest_priority_interrupt>
    41011114:	f51ff06f          	j	41011064 <trap_handler_s__clear_highest_priority_interrupt>
    41011118:	f4dff06f          	j	41011064 <trap_handler_s__clear_highest_priority_interrupt>
    4101111c:	f49ff06f          	j	41011064 <trap_handler_s__clear_highest_priority_interrupt>
    41011120:	f45ff06f          	j	41011064 <trap_handler_s__clear_highest_priority_interrupt>
    41011124:	f41ff06f          	j	41011064 <trap_handler_s__clear_highest_priority_interrupt>
    41011128:	f3dff06f          	j	41011064 <trap_handler_s__clear_highest_priority_interrupt>
    4101112c:	f39ff06f          	j	41011064 <trap_handler_s__clear_highest_priority_interrupt>
    41011130:	f35ff06f          	j	41011064 <trap_handler_s__clear_highest_priority_interrupt>
    41011134:	f31ff06f          	j	41011064 <trap_handler_s__clear_highest_priority_interrupt>
    41011138:	f2dff06f          	j	41011064 <trap_handler_s__clear_highest_priority_interrupt>
    4101113c:	f29ff06f          	j	41011064 <trap_handler_s__clear_highest_priority_interrupt>
    41011140:	f25ff06f          	j	41011064 <trap_handler_s__clear_highest_priority_interrupt>
    41011144:	f21ff06f          	j	41011064 <trap_handler_s__clear_highest_priority_interrupt>
    41011148:	f1dff06f          	j	41011064 <trap_handler_s__clear_highest_priority_interrupt>
    4101114c:	f19ff06f          	j	41011064 <trap_handler_s__clear_highest_priority_interrupt>
    41011150:	f15ff06f          	j	41011064 <trap_handler_s__clear_highest_priority_interrupt>
    41011154:	f11ff06f          	j	41011064 <trap_handler_s__clear_highest_priority_interrupt>
    41011158:	f0dff06f          	j	41011064 <trap_handler_s__clear_highest_priority_interrupt>
    4101115c:	f09ff06f          	j	41011064 <trap_handler_s__clear_highest_priority_interrupt>
    41011160:	f05ff06f          	j	41011064 <trap_handler_s__clear_highest_priority_interrupt>
    41011164:	f01ff06f          	j	41011064 <trap_handler_s__clear_highest_priority_interrupt>
    41011168:	efdff06f          	j	41011064 <trap_handler_s__clear_highest_priority_interrupt>
    4101116c:	ef9ff06f          	j	41011064 <trap_handler_s__clear_highest_priority_interrupt>
    41011170:	ef5ff06f          	j	41011064 <trap_handler_s__clear_highest_priority_interrupt>

0000000041011174 <trap_handler_s__test_failed>:
    41011174:	00f00f9b          	addiw	x31,x0,15
    41011178:	01cf9f93          	slli	x31,x31,0x1c
    4101117c:	002f8f93          	addi	x31,x31,2
    41011180:	00000073          	ecall

0000000041011184 <trap_handler_s__trap_handler>:
    41011184:	142022f3          	csrr	x5,scause
    41011188:	fff0031b          	addiw	x6,x0,-1
    4101118c:	03f31313          	slli	x6,x6,0x3f
    41011190:	00537333          	and	x6,x6,x5
    41011194:	02030263          	beqz	x6,410111b8 <trap_handler_s__exception_path>

0000000041011198 <trap_handler_s__interrupt_handler>:
    41011198:	fff0031b          	addiw	x6,x0,-1
    4101119c:	03f31313          	slli	x6,x6,0x3f
    410111a0:	0062c2b3          	xor	x5,x5,x6
    410111a4:	00000317          	auipc	x6,0x0
    410111a8:	ed430313          	addi	x6,x6,-300 # 41011078 <trap_handler_s__trap_entry>
    410111ac:	00229293          	slli	x5,x5,0x2
    410111b0:	005302b3          	add	x5,x6,x5
    410111b4:	00028067          	jr	x5 # 2000 <mem11__pt_level1>

00000000410111b8 <trap_handler_s__exception_path>:
    410111b8:	14021273          	csrrw	x4,sscratch,x4
    410111bc:	00000297          	auipc	x5,0x0
    410111c0:	0cc28293          	addi	x5,x5,204 # 41011288 <trap_handler_s__trap_panic>
    410111c4:	10529073          	csrw	stvec,x5
    410111c8:	0040006f          	j	410111cc <trap_handler_s__excp_entry>

00000000410111cc <trap_handler_s__excp_entry>:
    410111cc:	14202373          	csrr	x6,scause
    410111d0:	00800293          	li	x5,8
    410111d4:	00534863          	blt	x6,x5,410111e4 <trap_handler_s__check_exception_label>
    410111d8:	00b00293          	li	x5,11
    410111dc:	0062c463          	blt	x5,x6,410111e4 <trap_handler_s__check_exception_label>
    410111e0:	0a80006f          	j	41011288 <trap_handler_s__trap_panic>

00000000410111e4 <trap_handler_s__check_exception_label>:
    410111e4:	04623c23          	sd	x6,88(x4) # 58 <XLEN+0x18>
    410111e8:	141022f3          	csrr	x5,sepc
    410111ec:	02523423          	sd	x5,40(x4) # 28 <SECURE_ACCESS_PROBABILITY+0xa>
    410111f0:	01820283          	lb	x5,24(x4) # 18 <STORE_GUEST_PAGE_FAULT+0x1>
    410111f4:	00029863          	bnez	x5,41011204 <trap_handler_s__check_excp>
    410111f8:	00128293          	addi	x5,x5,1
    410111fc:	00520c23          	sb	x5,24(x4) # 18 <STORE_GUEST_PAGE_FAULT+0x1>
    41011200:	05c0006f          	j	4101125c <trap_handler_s__ecall_from_machine>

0000000041011204 <trap_handler_s__check_excp>:
    41011204:	06823283          	ld	x5,104(x4) # 68 <XLEN+0x28>
    41011208:	06023423          	sd	x0,104(x4) # 68 <XLEN+0x28>
    4101120c:	00028663          	beqz	x5,41011218 <trap_handler_s__skip_mode_check>
    41011210:	00300393          	li	x7,3
    41011214:	f67290e3          	bne	x5,x7,41011174 <trap_handler_s__test_failed>

0000000041011218 <trap_handler_s__skip_mode_check>:
    41011218:	05023283          	ld	x5,80(x4) # 50 <XLEN+0x10>
    4101121c:	04023823          	sd	x0,80(x4) # 50 <XLEN+0x10>
    41011220:	f4531ae3          	bne	x6,x5,41011174 <trap_handler_s__test_failed>
    41011224:	03823283          	ld	x5,56(x4) # 38 <SECURE_ACCESS_PROBABILITY+0x1a>
    41011228:	02023c23          	sd	x0,56(x4) # 38 <SECURE_ACCESS_PROBABILITY+0x1a>
    4101122c:	02029663          	bnez	x5,41011258 <trap_handler_s__skip_nonzero_tval_check>
    41011230:	02023303          	ld	x6,32(x4) # 20 <SECURE_ACCESS_PROBABILITY+0x2>
    41011234:	02023023          	sd	x0,32(x4) # 20 <SECURE_ACCESS_PROBABILITY+0x2>
    41011238:	02823283          	ld	x5,40(x4) # 28 <SECURE_ACCESS_PROBABILITY+0xa>
    4101123c:	02023423          	sd	x0,40(x4) # 28 <SECURE_ACCESS_PROBABILITY+0xa>
    41011240:	f2531ae3          	bne	x6,x5,41011174 <trap_handler_s__test_failed>
    41011244:	04023283          	ld	x5,64(x4) # 40 <XLEN>
    41011248:	04023023          	sd	x0,64(x4) # 40 <XLEN>
    4101124c:	00028663          	beqz	x5,41011258 <trap_handler_s__skip_nonzero_tval_check>

0000000041011250 <trap_handler_s__nonzero_tval_check>:
    41011250:	14302373          	csrr	x6,stval
    41011254:	f25310e3          	bne	x6,x5,41011174 <trap_handler_s__test_failed>

0000000041011258 <trap_handler_s__skip_nonzero_tval_check>:
    41011258:	0040006f          	j	4101125c <trap_handler_s__ecall_from_machine>

000000004101125c <trap_handler_s__ecall_from_machine>:
    4101125c:	03023283          	ld	x5,48(x4) # 30 <SECURE_ACCESS_PROBABILITY+0x12>
    41011260:	02023823          	sd	x0,48(x4) # 30 <SECURE_ACCESS_PROBABILITY+0x12>
    41011264:	07023303          	ld	x6,112(x4) # 70 <XLEN+0x30>
    41011268:	06023823          	sd	x0,112(x4) # 70 <XLEN+0x30>
    4101126c:	00031463          	bnez	x6,41011274 <trap_handler_s__skip_xepc_write>
    41011270:	14129073          	csrw	sepc,x5

0000000041011274 <trap_handler_s__skip_xepc_write>:
    41011274:	00000317          	auipc	x6,0x0
    41011278:	e0430313          	addi	x6,x6,-508 # 41011078 <trap_handler_s__trap_entry>
    4101127c:	10531073          	csrw	stvec,x6
    41011280:	14021273          	csrrw	x4,sscratch,x4
    41011284:	10200073          	sret

0000000041011288 <trap_handler_s__trap_panic>:
    41011288:	00000193          	li	x3,0
    4101128c:	00f00f9b          	addiw	x31,x0,15
    41011290:	01cf9f93          	slli	x31,x31,0x1c
    41011294:	002f8f93          	addi	x31,x31,2
    41011298:	00000073          	ecall

Disassembly of section .code:

00000000410150d0 <passed>:
    410150d0:	00f00f9b          	addiw	x31,x0,15
    410150d4:	01cf9f93          	slli	x31,x31,0x1c
    410150d8:	001f8f93          	addi	x31,x31,1
    410150dc:	00000073          	ecall

00000000410150e0 <failed>:
    410150e0:	00f00f9b          	addiw	x31,x0,15
    410150e4:	01cf9f93          	slli	x31,x31,0x1c
    410150e8:	002f8f93          	addi	x31,x31,2
    410150ec:	00000073          	ecall

00000000410150f0 <end_test>:
    410150f0:	00f00f9b          	addiw	x31,x0,15
    410150f4:	01cf9f93          	slli	x31,x31,0x1c
    410150f8:	003f8f93          	addi	x31,x31,3
    410150fc:	00000073          	ecall

0000000041015100 <test_setup>:
    41015100:	00f00f9b          	addiw	x31,x0,15
    41015104:	01cf9f93          	slli	x31,x31,0x1c
    41015108:	001f8f93          	addi	x31,x31,1
    4101510c:	00000073          	ecall

0000000041015110 <SID_PBVMS_001_ptw_no_faults_all_access_types>:
    41015110:	001d1137          	lui	x2,0x1d1
    41015114:	56f1011b          	addiw	x2,x2,1391 # 1d156f <hart_stack_0_end+0xa556f>
    41015118:	00d11113          	slli	x2,x2,0xd
    4101511c:	000012b7          	lui	x5,0x1
    41015120:	00510133          	add	x2,x2,x5
    41015124:	ff017113          	andi	x2,x2,-16
    41015128:	6eb983b7          	lui	x7,0x6eb98
    4101512c:	0003a807          	flw	f16,0(x7) # 6eb98000 <mem0>
    41015130:	6eb98737          	lui	x14,0x6eb98
    41015134:	0004bfb7          	lui	x31,0x4b
    41015138:	647f8f9b          	addiw	x31,x31,1607 # 4b647 <pma_region_0_size+0xb647>
    4101513c:	00df9f93          	slli	x31,x31,0xd
    41015140:	a1cf8f93          	addi	x31,x31,-1508
    41015144:	01f72023          	sw	x31,0(x14) # 6eb98000 <mem0>
    41015148:	6eb98fb7          	lui	x31,0x6eb98
    4101514c:	00000a13          	li	x20,0
    41015150:	014f8b33          	add	x22,x31,x20
    41015154:	000b23af          	amoadd.w	x7,x0,(x22)
    41015158:	01be3637          	lui	x12,0x1be3
    4101515c:	f456061b          	addiw	x12,x12,-187 # 1be2f45 <mem11__pt_level2+0xba0f45>
    41015160:	00d61613          	slli	x12,x12,0xd
    41015164:	eeb60613          	addi	x12,x12,-277
    41015168:	01061613          	slli	x12,x12,0x10
    4101516c:	000600e7          	jalr	x12

0000000041015170 <SID_PBVMS_001_ptw_no_faults_all_access_types_passed>:
    41015170:	00f00f9b          	addiw	x31,x0,15
    41015174:	01cf9f93          	slli	x31,x31,0x1c
    41015178:	001f8f93          	addi	x31,x31,1 # 6eb98001 <mem0+0x1>
    4101517c:	00000073          	ecall

0000000041015180 <SID_PBVMS_003_ptw_all_privilege_modes>:
    41015180:	01c8a137          	lui	x2,0x1c8a
    41015184:	b531011b          	addiw	x2,x2,-1197 # 1c89b53 <mem11__pt_level2+0xc47b53>
    41015188:	00c11113          	slli	x2,x2,0xc
    4101518c:	b7f10113          	addi	x2,x2,-1153
    41015190:	00c11113          	slli	x2,x2,0xc
    41015194:	000012b7          	lui	x5,0x1
    41015198:	00510133          	add	x2,x2,x5
    4101519c:	ff017113          	andi	x2,x2,-16
    410151a0:	00712437          	lui	x8,0x712
    410151a4:	5cd4041b          	addiw	x8,x8,1485 # 7125cd <mem6__pt_level1+0x2e05cd>
    410151a8:	00d41413          	slli	x8,x8,0xd
    410151ac:	00042a83          	lw	x21,0(x8)
    410151b0:	00712eb7          	lui	x29,0x712
    410151b4:	5cde8e9b          	addiw	x29,x29,1485 # 7125cd <mem6__pt_level1+0x2e05cd>
    410151b8:	00de9e93          	slli	x29,x29,0xd
    410151bc:	00038c37          	lui	x24,0x38
    410151c0:	7ebc0c1b          	addiw	x24,x24,2027 # 387eb <mem6__pt_level3+0xa7eb>
    410151c4:	00ec1c13          	slli	x24,x24,0xe
    410151c8:	9dac0c13          	addi	x24,x24,-1574
    410151cc:	d03c7253          	fcvt.s.lu	f4,x24
    410151d0:	004eb027          	fsd	f4,0(x29)

00000000410151d4 <SID_PBVMS_003_ptw_all_privilege_modes_passed>:
    410151d4:	00f00f9b          	addiw	x31,x0,15
    410151d8:	01cf9f93          	slli	x31,x31,0x1c
    410151dc:	001f8f93          	addi	x31,x31,1
    410151e0:	00000073          	ecall

00000000410151e4 <SID_PBVMS_006_ptw_page_boundary_crossing>:
    410151e4:	0011f137          	lui	x2,0x11f
    410151e8:	000012b7          	lui	x5,0x1
    410151ec:	00510133          	add	x2,x2,x5
    410151f0:	ff017113          	andi	x2,x2,-16
    410151f4:	000588b7          	lui	x17,0x58
    410151f8:	7bb8889b          	addiw	x17,x17,1979 # 587bb <pma_region_0_size+0x187bb>
    410151fc:	01589893          	slli	x17,x17,0x15
    41015200:	00001b37          	lui	x22,0x1
    41015204:	ff8b0b1b          	addiw	x22,x22,-8 # ff8 <XLEN+0xfb8>
    41015208:	01688fb3          	add	x31,x17,x22
    4101520c:	000fb303          	ld	x6,0(x31)
    41015210:	00058c37          	lui	x24,0x58
    41015214:	7bbc0c1b          	addiw	x24,x24,1979 # 587bb <pma_region_0_size+0x187bb>
    41015218:	015c1c13          	slli	x24,x24,0x15
    4101521c:	00001437          	lui	x8,0x1
    41015220:	ff84041b          	addiw	x8,x8,-8 # ff8 <XLEN+0xfb8>
    41015224:	008c0933          	add	x18,x24,x8
    41015228:	000d7337          	lui	x6,0xd7
    4101522c:	0713031b          	addiw	x6,x6,113 # d7071 <tp_csr_storage+0x3d071>
    41015230:	00c31313          	slli	x6,x6,0xc
    41015234:	08130313          	addi	x6,x6,129
    41015238:	d0037e53          	fcvt.s.w	f28,x6
    4101523c:	01c93027          	fsd	f28,0(x18)
    41015240:	000588b7          	lui	x17,0x58
    41015244:	7bb8889b          	addiw	x17,x17,1979 # 587bb <pma_region_0_size+0x187bb>
    41015248:	01589893          	slli	x17,x17,0x15
    4101524c:	00001f37          	lui	x30,0x1
    41015250:	ff8f0f1b          	addiw	x30,x30,-8 # ff8 <XLEN+0xfb8>
    41015254:	01e88b33          	add	x22,x17,x30
    41015258:	00001bb7          	lui	x23,0x1
    4101525c:	ff8b8b9b          	addiw	x23,x23,-8 # ff8 <XLEN+0xfb8>
    41015260:	017b332f          	amoadd.d	x6,x23,(x22)
    41015264:	006656b7          	lui	x13,0x665
    41015268:	ec96869b          	addiw	x13,x13,-311 # 664ec9 <mem6__pt_level1+0x232ec9>
    4101526c:	00d69693          	slli	x13,x13,0xd
    41015270:	000680e7          	jalr	x13

0000000041015274 <SID_PBVMS_006_ptw_page_boundary_crossing_passed>:
    41015274:	00f00f9b          	addiw	x31,x0,15
    41015278:	01cf9f93          	slli	x31,x31,0x1c
    4101527c:	001f8f93          	addi	x31,x31,1
    41015280:	00000073          	ecall

0000000041015284 <SID_PBVMS_008_va_sign_extension_fault>:
    41015284:	00010137          	lui	x2,0x10
    41015288:	000012b7          	lui	x5,0x1
    4101528c:	00510133          	add	x2,x2,x5
    41015290:	ff017113          	andi	x2,x2,-16
    41015294:	397a8237          	lui	x4,0x397a8
    41015298:	ebd2021b          	addiw	x4,x4,-323 # 397a7ebd <mem13+0x824eebd>
    4101529c:	00d21213          	slli	x4,x4,0xd
    410152a0:	81120213          	addi	x4,x4,-2031 # fffffffffffff811 <mem6+0xf8fffffffff811>
    410152a4:	00d21213          	slli	x4,x4,0xd
    410152a8:	00d00e13          	li	x28,13
    410152ac:	05c23823          	sd	x28,80(x4) # 50 <XLEN+0x10>
    410152b0:	00000e17          	auipc	x28,0x0
    410152b4:	060e0e13          	addi	x28,x28,96 # 41015310 <fault_label_0>
    410152b8:	03c23023          	sd	x28,32(x4) # 20 <SECURE_ACCESS_PROBABILITY+0x2>
    410152bc:	00000e13          	li	x28,0
    410152c0:	05c23023          	sd	x28,64(x4) # 40 <XLEN>
    410152c4:	00000e13          	li	x28,0
    410152c8:	05c23423          	sd	x28,72(x4) # 48 <XLEN+0x8>
    410152cc:	00000e17          	auipc	x28,0x0
    410152d0:	068e0e13          	addi	x28,x28,104 # 41015334 <SID_PBVMS_008_va_sign_extension_fault_passed>
    410152d4:	03c23823          	sd	x28,48(x4) # 30 <SECURE_ACCESS_PROBABILITY+0x12>
    410152d8:	00000e13          	li	x28,0
    410152dc:	03c23c23          	sd	x28,56(x4) # 38 <SECURE_ACCESS_PROBABILITY+0x1a>
    410152e0:	00000e13          	li	x28,0
    410152e4:	07c23023          	sd	x28,96(x4) # 60 <XLEN+0x20>
    410152e8:	00000e13          	li	x28,0
    410152ec:	07c23423          	sd	x28,104(x4) # 68 <XLEN+0x28>
    410152f0:	00000e13          	li	x28,0
    410152f4:	07c23823          	sd	x28,112(x4) # 70 <XLEN+0x30>
    410152f8:	063ebb37          	lui	x22,0x63eb
    410152fc:	ecfb0b1b          	addiw	x22,x22,-305 # 63eaecf <mem21__pt_level2+0x1229ecf>
    41015300:	00cb1b13          	slli	x22,x22,0xc
    41015304:	fff0069b          	addiw	x13,x0,-1
    41015308:	03f69693          	slli	x13,x13,0x3f
    4101530c:	00db0333          	add	x6,x22,x13

0000000041015310 <fault_label_0>:
    41015310:	00033683          	ld	x13,0(x6)
    41015314:	0e81c737          	lui	x14,0xe81c
    41015318:	e6f7071b          	addiw	x14,x14,-401 # e81be6f <mem6__pt_level4+0x47ff637>
    4101531c:	00c71713          	slli	x14,x14,0xc
    41015320:	5b570713          	addi	x14,x14,1461
    41015324:	00e71713          	slli	x14,x14,0xe
    41015328:	00870713          	addi	x14,x14,8
    4101532c:	00073d83          	ld	x27,0(x14)
    41015330:	000d8067          	jr	x27

0000000041015334 <SID_PBVMS_008_va_sign_extension_fault_passed>:
    41015334:	00f00f9b          	addiw	x31,x0,15
    41015338:	01cf9f93          	slli	x31,x31,0x1c
    4101533c:	001f8f93          	addi	x31,x31,1
    41015340:	00000073          	ecall

0000000041015344 <SID_PBVMS_009_superpage_alignment_fault>:
    41015344:	0178a137          	lui	x2,0x178a
    41015348:	d1d1011b          	addiw	x2,x2,-739 # 1789d1d <mem11__pt_level2+0x747d1d>
    4101534c:	00c11113          	slli	x2,x2,0xc
    41015350:	000012b7          	lui	x5,0x1
    41015354:	00510133          	add	x2,x2,x5
    41015358:	ff017113          	andi	x2,x2,-16
    4101535c:	0e81cfb7          	lui	x31,0xe81c
    41015360:	e6ff8f9b          	addiw	x31,x31,-401 # e81be6f <mem6__pt_level4+0x47ff637>
    41015364:	00cf9f93          	slli	x31,x31,0xc
    41015368:	5b5f8f93          	addi	x31,x31,1461
    4101536c:	00ef9f93          	slli	x31,x31,0xe
    41015370:	0b0f8f93          	addi	x31,x31,176
    41015374:	f070029b          	addiw	x5,x0,-249
    41015378:	03029293          	slli	x5,x5,0x30
    4101537c:	005fb023          	sd	x5,0(x31)
    41015380:	00300293          	li	x5,3
    41015384:	005fb423          	sd	x5,8(x31)
    41015388:	fff00293          	li	x5,-1
    4101538c:	005fb823          	sd	x5,16(x31)
    41015390:	000f0fb7          	lui	x31,0xf0
    41015394:	001f8f9b          	addiw	x31,x31,1 # f0001 <tp_csr_storage+0x56001>
    41015398:	00cf9f93          	slli	x31,x31,0xc
    4101539c:	007f8f93          	addi	x31,x31,7
    410153a0:	00000073          	ecall
    410153a4:	40000b93          	li	x23,1024
    410153a8:	0173e933          	or	x18,x7,x23
    410153ac:	00090393          	mv	x7,x18
    410153b0:	0e81cfb7          	lui	x31,0xe81c
    410153b4:	e6ff8f9b          	addiw	x31,x31,-401 # e81be6f <mem6__pt_level4+0x47ff637>
    410153b8:	00cf9f93          	slli	x31,x31,0xc
    410153bc:	5b5f8f93          	addi	x31,x31,1461
    410153c0:	00ef9f93          	slli	x31,x31,0xe
    410153c4:	0b0f8f93          	addi	x31,x31,176
    410153c8:	f070029b          	addiw	x5,x0,-249
    410153cc:	03029293          	slli	x5,x5,0x30
    410153d0:	005fb023          	sd	x5,0(x31)
    410153d4:	00300293          	li	x5,3
    410153d8:	005fb423          	sd	x5,8(x31)
    410153dc:	fff00293          	li	x5,-1
    410153e0:	005fb823          	sd	x5,16(x31)
    410153e4:	000f0fb7          	lui	x31,0xf0
    410153e8:	001f8f9b          	addiw	x31,x31,1 # f0001 <tp_csr_storage+0x56001>
    410153ec:	00cf9f93          	slli	x31,x31,0xc
    410153f0:	008f8f93          	addi	x31,x31,8
    410153f4:	00000073          	ecall
    410153f8:	397a8237          	lui	x4,0x397a8
    410153fc:	ebd2021b          	addiw	x4,x4,-323 # 397a7ebd <mem13+0x824eebd>
    41015400:	00d21213          	slli	x4,x4,0xd
    41015404:	81120213          	addi	x4,x4,-2031 # fffffffffffff811 <mem6+0xf8fffffffff811>
    41015408:	00d21213          	slli	x4,x4,0xd
    4101540c:	00d00e13          	li	x28,13
    41015410:	05c23823          	sd	x28,80(x4) # 50 <XLEN+0x10>
    41015414:	00000e17          	auipc	x28,0x0
    41015418:	050e0e13          	addi	x28,x28,80 # 41015464 <fault_label_1>
    4101541c:	03c23023          	sd	x28,32(x4) # 20 <SECURE_ACCESS_PROBABILITY+0x2>
    41015420:	00000e13          	li	x28,0
    41015424:	05c23023          	sd	x28,64(x4) # 40 <XLEN>
    41015428:	00000e13          	li	x28,0
    4101542c:	05c23423          	sd	x28,72(x4) # 48 <XLEN+0x8>
    41015430:	00000e17          	auipc	x28,0x0
    41015434:	058e0e13          	addi	x28,x28,88 # 41015488 <excp_return_label_1>
    41015438:	03c23823          	sd	x28,48(x4) # 30 <SECURE_ACCESS_PROBABILITY+0x12>
    4101543c:	00000e13          	li	x28,0
    41015440:	03c23c23          	sd	x28,56(x4) # 38 <SECURE_ACCESS_PROBABILITY+0x1a>
    41015444:	00000e13          	li	x28,0
    41015448:	07c23023          	sd	x28,96(x4) # 60 <XLEN+0x20>
    4101544c:	00000e13          	li	x28,0
    41015450:	07c23423          	sd	x28,104(x4) # 68 <XLEN+0x28>
    41015454:	00000e13          	li	x28,0
    41015458:	07c23823          	sd	x28,112(x4) # 70 <XLEN+0x30>
    4101545c:	f0700d9b          	addiw	x27,x0,-249
    41015460:	030d9d93          	slli	x27,x27,0x30

0000000041015464 <fault_label_1>:
    41015464:	000da607          	flw	f12,0(x27)
    41015468:	0e81cb37          	lui	x22,0xe81c
    4101546c:	e6fb0b1b          	addiw	x22,x22,-401 # e81be6f <mem6__pt_level4+0x47ff637>
    41015470:	00cb1b13          	slli	x22,x22,0xc
    41015474:	5b5b0b13          	addi	x22,x22,1461
    41015478:	00eb1b13          	slli	x22,x22,0xe
    4101547c:	008b0b13          	addi	x22,x22,8
    41015480:	000b3783          	ld	x15,0(x22)
    41015484:	00078067          	jr	x15

0000000041015488 <excp_return_label_1>:
    41015488:	397a8237          	lui	x4,0x397a8
    4101548c:	ebd2021b          	addiw	x4,x4,-323 # 397a7ebd <mem13+0x824eebd>
    41015490:	00d21213          	slli	x4,x4,0xd
    41015494:	81120213          	addi	x4,x4,-2031 # fffffffffffff811 <mem6+0xf8fffffffff811>
    41015498:	00d21213          	slli	x4,x4,0xd
    4101549c:	00f00e13          	li	x28,15
    410154a0:	05c23823          	sd	x28,80(x4) # 50 <XLEN+0x10>
    410154a4:	00000e17          	auipc	x28,0x0
    410154a8:	058e0e13          	addi	x28,x28,88 # 410154fc <fault_label_2>
    410154ac:	03c23023          	sd	x28,32(x4) # 20 <SECURE_ACCESS_PROBABILITY+0x2>
    410154b0:	00000e13          	li	x28,0
    410154b4:	05c23023          	sd	x28,64(x4) # 40 <XLEN>
    410154b8:	00000e13          	li	x28,0
    410154bc:	05c23423          	sd	x28,72(x4) # 48 <XLEN+0x8>
    410154c0:	00000e17          	auipc	x28,0x0
    410154c4:	060e0e13          	addi	x28,x28,96 # 41015520 <excp_return_label_2>
    410154c8:	03c23823          	sd	x28,48(x4) # 30 <SECURE_ACCESS_PROBABILITY+0x12>
    410154cc:	00000e13          	li	x28,0
    410154d0:	03c23c23          	sd	x28,56(x4) # 38 <SECURE_ACCESS_PROBABILITY+0x1a>
    410154d4:	00000e13          	li	x28,0
    410154d8:	07c23023          	sd	x28,96(x4) # 60 <XLEN+0x20>
    410154dc:	00000e13          	li	x28,0
    410154e0:	07c23423          	sd	x28,104(x4) # 68 <XLEN+0x28>
    410154e4:	00000e13          	li	x28,0
    410154e8:	07c23823          	sd	x28,112(x4) # 70 <XLEN+0x30>
    410154ec:	f070091b          	addiw	x18,x0,-249
    410154f0:	03091913          	slli	x18,x18,0x30
    410154f4:	678a6eb7          	lui	x29,0x678a6
    410154f8:	aa6e8e9b          	addiw	x29,x29,-1370 # 678a5aa6 <SID_PBVMS_040_context_table_overflow_stack+0x111ddaa6>

00000000410154fc <fault_label_2>:
    410154fc:	01d93023          	sd	x29,0(x18)
    41015500:	0e81cbb7          	lui	x23,0xe81c
    41015504:	e6fb8b9b          	addiw	x23,x23,-401 # e81be6f <mem6__pt_level4+0x47ff637>
    41015508:	00cb9b93          	slli	x23,x23,0xc
    4101550c:	5b5b8b93          	addi	x23,x23,1461
    41015510:	00eb9b93          	slli	x23,x23,0xe
    41015514:	008b8b93          	addi	x23,x23,8
    41015518:	000bb903          	ld	x18,0(x23)
    4101551c:	00090067          	jr	x18

0000000041015520 <excp_return_label_2>:
    41015520:	397a8237          	lui	x4,0x397a8
    41015524:	ebd2021b          	addiw	x4,x4,-323 # 397a7ebd <mem13+0x824eebd>
    41015528:	00d21213          	slli	x4,x4,0xd
    4101552c:	81120213          	addi	x4,x4,-2031 # fffffffffffff811 <mem6+0xf8fffffffff811>
    41015530:	00d21213          	slli	x4,x4,0xd
    41015534:	00f00e13          	li	x28,15
    41015538:	05c23823          	sd	x28,80(x4) # 50 <XLEN+0x10>
    4101553c:	00000e17          	auipc	x28,0x0
    41015540:	058e0e13          	addi	x28,x28,88 # 41015594 <fault_label_3>
    41015544:	03c23023          	sd	x28,32(x4) # 20 <SECURE_ACCESS_PROBABILITY+0x2>
    41015548:	00000e13          	li	x28,0
    4101554c:	05c23023          	sd	x28,64(x4) # 40 <XLEN>
    41015550:	00000e13          	li	x28,0
    41015554:	05c23423          	sd	x28,72(x4) # 48 <XLEN+0x8>
    41015558:	00000e17          	auipc	x28,0x0
    4101555c:	060e0e13          	addi	x28,x28,96 # 410155b8 <SID_PBVMS_009_superpage_alignment_fault_passed>
    41015560:	03c23823          	sd	x28,48(x4) # 30 <SECURE_ACCESS_PROBABILITY+0x12>
    41015564:	00000e13          	li	x28,0
    41015568:	03c23c23          	sd	x28,56(x4) # 38 <SECURE_ACCESS_PROBABILITY+0x1a>
    4101556c:	00000e13          	li	x28,0
    41015570:	07c23023          	sd	x28,96(x4) # 60 <XLEN+0x20>
    41015574:	00000e13          	li	x28,0
    41015578:	07c23423          	sd	x28,104(x4) # 68 <XLEN+0x28>
    4101557c:	00000e13          	li	x28,0
    41015580:	07c23823          	sd	x28,112(x4) # 70 <XLEN+0x30>
    41015584:	f070031b          	addiw	x6,x0,-249
    41015588:	03031313          	slli	x6,x6,0x30
    4101558c:	00000c13          	li	x24,0
    41015590:	01830c33          	add	x24,x6,x24

0000000041015594 <fault_label_3>:
    41015594:	000c292f          	amoadd.w	x18,x0,(x24)
    41015598:	0e81cfb7          	lui	x31,0xe81c
    4101559c:	e6ff8f9b          	addiw	x31,x31,-401 # e81be6f <mem6__pt_level4+0x47ff637>
    410155a0:	00cf9f93          	slli	x31,x31,0xc
    410155a4:	5b5f8f93          	addi	x31,x31,1461
    410155a8:	00ef9f93          	slli	x31,x31,0xe
    410155ac:	008f8f93          	addi	x31,x31,8
    410155b0:	000fbf83          	ld	x31,0(x31)
    410155b4:	000f8067          	jr	x31

00000000410155b8 <SID_PBVMS_009_superpage_alignment_fault_passed>:
    410155b8:	00f00f9b          	addiw	x31,x0,15
    410155bc:	01cf9f93          	slli	x31,x31,0x1c
    410155c0:	001f8f93          	addi	x31,x31,1
    410155c4:	00000073          	ecall

00000000410155c8 <SID_PBVMS_011_ptw_fault_boundary_crossing>:
    410155c8:	1ae2b137          	lui	x2,0x1ae2b
    410155cc:	000012b7          	lui	x5,0x1
    410155d0:	00510133          	add	x2,x2,x5
    410155d4:	ff017113          	andi	x2,x2,-16
    410155d8:	013f93b7          	lui	x7,0x13f9
    410155dc:	0693839b          	addiw	x7,x7,105 # 13f9069 <mem11__pt_level2+0x3b7069>
    410155e0:	01739393          	slli	x7,x7,0x17
    410155e4:	0003bb03          	ld	x22,0(x7)
    410155e8:	397a8237          	lui	x4,0x397a8
    410155ec:	ebd2021b          	addiw	x4,x4,-323 # 397a7ebd <mem13+0x824eebd>
    410155f0:	00d21213          	slli	x4,x4,0xd
    410155f4:	81120213          	addi	x4,x4,-2031 # fffffffffffff811 <mem6+0xf8fffffffff811>
    410155f8:	00d21213          	slli	x4,x4,0xd
    410155fc:	00d00e13          	li	x28,13
    41015600:	05c23823          	sd	x28,80(x4) # 50 <XLEN+0x10>
    41015604:	00000e17          	auipc	x28,0x0
    41015608:	060e0e13          	addi	x28,x28,96 # 41015664 <fault_label_4>
    4101560c:	03c23023          	sd	x28,32(x4) # 20 <SECURE_ACCESS_PROBABILITY+0x2>
    41015610:	00000e13          	li	x28,0
    41015614:	05c23023          	sd	x28,64(x4) # 40 <XLEN>
    41015618:	00000e13          	li	x28,0
    4101561c:	05c23423          	sd	x28,72(x4) # 48 <XLEN+0x8>
    41015620:	00000e17          	auipc	x28,0x0
    41015624:	068e0e13          	addi	x28,x28,104 # 41015688 <excp_return_label_4>
    41015628:	03c23823          	sd	x28,48(x4) # 30 <SECURE_ACCESS_PROBABILITY+0x12>
    4101562c:	00000e13          	li	x28,0
    41015630:	03c23c23          	sd	x28,56(x4) # 38 <SECURE_ACCESS_PROBABILITY+0x1a>
    41015634:	00000e13          	li	x28,0
    41015638:	07c23023          	sd	x28,96(x4) # 60 <XLEN+0x20>
    4101563c:	00000e13          	li	x28,0
    41015640:	07c23423          	sd	x28,104(x4) # 68 <XLEN+0x28>
    41015644:	00000e13          	li	x28,0
    41015648:	07c23823          	sd	x28,112(x4) # 70 <XLEN+0x30>
    4101564c:	011eb937          	lui	x18,0x11eb
    41015650:	c519091b          	addiw	x18,x18,-943 # 11eac51 <mem11__pt_level2+0x1a8c51>
    41015654:	01691913          	slli	x18,x18,0x16
    41015658:	00001db7          	lui	x27,0x1
    4101565c:	ffad8d9b          	addiw	x27,x27,-6 # ffa <XLEN+0xfba>
    41015660:	01b90d33          	add	x26,x18,x27

0000000041015664 <fault_label_4>:
    41015664:	000d3683          	ld	x13,0(x26)
    41015668:	0e81ce37          	lui	x28,0xe81c
    4101566c:	e6fe0e1b          	addiw	x28,x28,-401 # e81be6f <mem6__pt_level4+0x47ff637>
    41015670:	00ce1e13          	slli	x28,x28,0xc
    41015674:	5b5e0e13          	addi	x28,x28,1461
    41015678:	00ee1e13          	slli	x28,x28,0xe
    4101567c:	008e0e13          	addi	x28,x28,8
    41015680:	000e3b83          	ld	x23,0(x28)
    41015684:	000b8067          	jr	x23

0000000041015688 <excp_return_label_4>:
    41015688:	397a8237          	lui	x4,0x397a8
    4101568c:	ebd2021b          	addiw	x4,x4,-323 # 397a7ebd <mem13+0x824eebd>
    41015690:	00d21213          	slli	x4,x4,0xd
    41015694:	81120213          	addi	x4,x4,-2031 # fffffffffffff811 <mem6+0xf8fffffffff811>
    41015698:	00d21213          	slli	x4,x4,0xd
    4101569c:	00f00e13          	li	x28,15
    410156a0:	05c23823          	sd	x28,80(x4) # 50 <XLEN+0x10>
    410156a4:	00000e17          	auipc	x28,0x0
    410156a8:	070e0e13          	addi	x28,x28,112 # 41015714 <fault_label_5>
    410156ac:	03c23023          	sd	x28,32(x4) # 20 <SECURE_ACCESS_PROBABILITY+0x2>
    410156b0:	00000e13          	li	x28,0
    410156b4:	05c23023          	sd	x28,64(x4) # 40 <XLEN>
    410156b8:	00000e13          	li	x28,0
    410156bc:	05c23423          	sd	x28,72(x4) # 48 <XLEN+0x8>
    410156c0:	00000e17          	auipc	x28,0x0
    410156c4:	078e0e13          	addi	x28,x28,120 # 41015738 <SID_PBVMS_011_ptw_fault_boundary_crossing_passed>
    410156c8:	03c23823          	sd	x28,48(x4) # 30 <SECURE_ACCESS_PROBABILITY+0x12>
    410156cc:	00000e13          	li	x28,0
    410156d0:	03c23c23          	sd	x28,56(x4) # 38 <SECURE_ACCESS_PROBABILITY+0x1a>
    410156d4:	00000e13          	li	x28,0
    410156d8:	07c23023          	sd	x28,96(x4) # 60 <XLEN+0x20>
    410156dc:	00000e13          	li	x28,0
    410156e0:	07c23423          	sd	x28,104(x4) # 68 <XLEN+0x28>
    410156e4:	00000e13          	li	x28,0
    410156e8:	07c23823          	sd	x28,112(x4) # 70 <XLEN+0x30>
    410156ec:	011ebeb7          	lui	x29,0x11eb
    410156f0:	c51e8e9b          	addiw	x29,x29,-943 # 11eac51 <mem11__pt_level2+0x1a8c51>
    410156f4:	016e9e93          	slli	x29,x29,0x16
    410156f8:	00001a37          	lui	x20,0x1
    410156fc:	ffaa0a1b          	addiw	x20,x20,-6 # ffa <XLEN+0xfba>
    41015700:	014e8cb3          	add	x25,x29,x20
    41015704:	000f3ab7          	lui	x21,0xf3
    41015708:	20da8a9b          	addiw	x21,x21,525 # f320d <tp_csr_storage+0x5920d>
    4101570c:	00ca9a93          	slli	x21,x21,0xc
    41015710:	d5aa8a93          	addi	x21,x21,-678

0000000041015714 <fault_label_5>:
    41015714:	015ca023          	sw	x21,0(x25)
    41015718:	0e81c337          	lui	x6,0xe81c
    4101571c:	e6f3031b          	addiw	x6,x6,-401 # e81be6f <mem6__pt_level4+0x47ff637>
    41015720:	00c31313          	slli	x6,x6,0xc
    41015724:	5b530313          	addi	x6,x6,1461
    41015728:	00e31313          	slli	x6,x6,0xe
    4101572c:	00830313          	addi	x6,x6,8
    41015730:	00033d03          	ld	x26,0(x6)
    41015734:	000d0067          	jr	x26

0000000041015738 <SID_PBVMS_011_ptw_fault_boundary_crossing_passed>:
    41015738:	00f00f9b          	addiw	x31,x0,15
    4101573c:	01cf9f93          	slli	x31,x31,0x1c
    41015740:	001f8f93          	addi	x31,x31,1
    41015744:	00000073          	ecall

0000000041015748 <SID_PBVMS_012_ptw_fault_prioritization>:
    41015748:	00326137          	lui	x2,0x326
    4101574c:	c9b1011b          	addiw	x2,x2,-869 # 325c9b <hart_stack_0_end+0x1f9c9b>
    41015750:	00d11113          	slli	x2,x2,0xd
    41015754:	ddd10113          	addi	x2,x2,-547
    41015758:	00c11113          	slli	x2,x2,0xc
    4101575c:	000012b7          	lui	x5,0x1
    41015760:	00510133          	add	x2,x2,x5
    41015764:	ff017113          	andi	x2,x2,-16
    41015768:	397a8237          	lui	x4,0x397a8
    4101576c:	ebd2021b          	addiw	x4,x4,-323 # 397a7ebd <mem13+0x824eebd>
    41015770:	00d21213          	slli	x4,x4,0xd
    41015774:	81120213          	addi	x4,x4,-2031 # fffffffffffff811 <mem6+0xf8fffffffff811>
    41015778:	00d21213          	slli	x4,x4,0xd
    4101577c:	00d00e13          	li	x28,13
    41015780:	05c23823          	sd	x28,80(x4) # 50 <XLEN+0x10>
    41015784:	00000e17          	auipc	x28,0x0
    41015788:	050e0e13          	addi	x28,x28,80 # 410157d4 <fault_label_6>
    4101578c:	03c23023          	sd	x28,32(x4) # 20 <SECURE_ACCESS_PROBABILITY+0x2>
    41015790:	00000e13          	li	x28,0
    41015794:	05c23023          	sd	x28,64(x4) # 40 <XLEN>
    41015798:	00000e13          	li	x28,0
    4101579c:	05c23423          	sd	x28,72(x4) # 48 <XLEN+0x8>
    410157a0:	00000e17          	auipc	x28,0x0
    410157a4:	058e0e13          	addi	x28,x28,88 # 410157f8 <excp_return_label_6>
    410157a8:	03c23823          	sd	x28,48(x4) # 30 <SECURE_ACCESS_PROBABILITY+0x12>
    410157ac:	00000e13          	li	x28,0
    410157b0:	03c23c23          	sd	x28,56(x4) # 38 <SECURE_ACCESS_PROBABILITY+0x1a>
    410157b4:	00000e13          	li	x28,0
    410157b8:	07c23023          	sd	x28,96(x4) # 60 <XLEN+0x20>
    410157bc:	00000e13          	li	x28,0
    410157c0:	07c23423          	sd	x28,104(x4) # 68 <XLEN+0x28>
    410157c4:	00000e13          	li	x28,0
    410157c8:	07c23823          	sd	x28,112(x4) # 70 <XLEN+0x30>
    410157cc:	00500c9b          	addiw	x25,x0,5
    410157d0:	031c9c93          	slli	x25,x25,0x31

00000000410157d4 <fault_label_6>:
    410157d4:	000ca087          	flw	f1,0(x25)
    410157d8:	0e81ccb7          	lui	x25,0xe81c
    410157dc:	e6fc8c9b          	addiw	x25,x25,-401 # e81be6f <mem6__pt_level4+0x47ff637>
    410157e0:	00cc9c93          	slli	x25,x25,0xc
    410157e4:	5b5c8c93          	addi	x25,x25,1461
    410157e8:	00ec9c93          	slli	x25,x25,0xe
    410157ec:	008c8c93          	addi	x25,x25,8
    410157f0:	000cb683          	ld	x13,0(x25)
    410157f4:	00068067          	jr	x13

00000000410157f8 <excp_return_label_6>:
    410157f8:	397a8237          	lui	x4,0x397a8
    410157fc:	ebd2021b          	addiw	x4,x4,-323 # 397a7ebd <mem13+0x824eebd>
    41015800:	00d21213          	slli	x4,x4,0xd
    41015804:	81120213          	addi	x4,x4,-2031 # fffffffffffff811 <mem6+0xf8fffffffff811>
    41015808:	00d21213          	slli	x4,x4,0xd
    4101580c:	00d00e13          	li	x28,13
    41015810:	05c23823          	sd	x28,80(x4) # 50 <XLEN+0x10>
    41015814:	00000e17          	auipc	x28,0x0
    41015818:	050e0e13          	addi	x28,x28,80 # 41015864 <fault_label_7>
    4101581c:	03c23023          	sd	x28,32(x4) # 20 <SECURE_ACCESS_PROBABILITY+0x2>
    41015820:	00000e13          	li	x28,0
    41015824:	05c23023          	sd	x28,64(x4) # 40 <XLEN>
    41015828:	00000e13          	li	x28,0
    4101582c:	05c23423          	sd	x28,72(x4) # 48 <XLEN+0x8>
    41015830:	00000e17          	auipc	x28,0x0
    41015834:	058e0e13          	addi	x28,x28,88 # 41015888 <excp_return_label_7>
    41015838:	03c23823          	sd	x28,48(x4) # 30 <SECURE_ACCESS_PROBABILITY+0x12>
    4101583c:	00000e13          	li	x28,0
    41015840:	03c23c23          	sd	x28,56(x4) # 38 <SECURE_ACCESS_PROBABILITY+0x1a>
    41015844:	00000e13          	li	x28,0
    41015848:	07c23023          	sd	x28,96(x4) # 60 <XLEN+0x20>
    4101584c:	00000e13          	li	x28,0
    41015850:	07c23423          	sd	x28,104(x4) # 68 <XLEN+0x28>
    41015854:	00000e13          	li	x28,0
    41015858:	07c23823          	sd	x28,112(x4) # 70 <XLEN+0x30>
    4101585c:	00100e1b          	addiw	x28,x0,1
    41015860:	031e1e13          	slli	x28,x28,0x31

0000000041015864 <fault_label_7>:
    41015864:	000e2583          	lw	x11,0(x28)
    41015868:	0e81cd37          	lui	x26,0xe81c
    4101586c:	e6fd0d1b          	addiw	x26,x26,-401 # e81be6f <mem6__pt_level4+0x47ff637>
    41015870:	00cd1d13          	slli	x26,x26,0xc
    41015874:	5b5d0d13          	addi	x26,x26,1461
    41015878:	00ed1d13          	slli	x26,x26,0xe
    4101587c:	008d0d13          	addi	x26,x26,8
    41015880:	000d3e83          	ld	x29,0(x26)
    41015884:	000e8067          	jr	x29

0000000041015888 <excp_return_label_7>:
    41015888:	397a8237          	lui	x4,0x397a8
    4101588c:	ebd2021b          	addiw	x4,x4,-323 # 397a7ebd <mem13+0x824eebd>
    41015890:	00d21213          	slli	x4,x4,0xd
    41015894:	81120213          	addi	x4,x4,-2031 # fffffffffffff811 <mem6+0xf8fffffffff811>
    41015898:	00d21213          	slli	x4,x4,0xd
    4101589c:	00d00e13          	li	x28,13
    410158a0:	05c23823          	sd	x28,80(x4) # 50 <XLEN+0x10>
    410158a4:	00000e17          	auipc	x28,0x0
    410158a8:	050e0e13          	addi	x28,x28,80 # 410158f4 <fault_label_8>
    410158ac:	03c23023          	sd	x28,32(x4) # 20 <SECURE_ACCESS_PROBABILITY+0x2>
    410158b0:	00000e13          	li	x28,0
    410158b4:	05c23023          	sd	x28,64(x4) # 40 <XLEN>
    410158b8:	00000e13          	li	x28,0
    410158bc:	05c23423          	sd	x28,72(x4) # 48 <XLEN+0x8>
    410158c0:	00000e17          	auipc	x28,0x0
    410158c4:	058e0e13          	addi	x28,x28,88 # 41015918 <SID_PBVMS_012_ptw_fault_prioritization_passed>
    410158c8:	03c23823          	sd	x28,48(x4) # 30 <SECURE_ACCESS_PROBABILITY+0x12>
    410158cc:	00000e13          	li	x28,0
    410158d0:	03c23c23          	sd	x28,56(x4) # 38 <SECURE_ACCESS_PROBABILITY+0x1a>
    410158d4:	00000e13          	li	x28,0
    410158d8:	07c23023          	sd	x28,96(x4) # 60 <XLEN+0x20>
    410158dc:	00000e13          	li	x28,0
    410158e0:	07c23423          	sd	x28,104(x4) # 68 <XLEN+0x28>
    410158e4:	00000e13          	li	x28,0
    410158e8:	07c23823          	sd	x28,112(x4) # 70 <XLEN+0x30>
    410158ec:	03b0061b          	addiw	x12,x0,59
    410158f0:	03161613          	slli	x12,x12,0x31

00000000410158f4 <fault_label_8>:
    410158f4:	00063e87          	fld	f29,0(x12)
    410158f8:	0e81c437          	lui	x8,0xe81c
    410158fc:	e6f4041b          	addiw	x8,x8,-401 # e81be6f <mem6__pt_level4+0x47ff637>
    41015900:	00c41413          	slli	x8,x8,0xc
    41015904:	5b540413          	addi	x8,x8,1461
    41015908:	00e41413          	slli	x8,x8,0xe
    4101590c:	00840413          	addi	x8,x8,8
    41015910:	00043403          	ld	x8,0(x8)
    41015914:	00040067          	jr	x8

0000000041015918 <SID_PBVMS_012_ptw_fault_prioritization_passed>:
    41015918:	00f00f9b          	addiw	x31,x0,15
    4101591c:	01cf9f93          	slli	x31,x31,0x1c
    41015920:	001f8f93          	addi	x31,x31,1
    41015924:	00000073          	ecall

0000000041015928 <SID_PBVMS_013_ptw_permission_encodings>:
    41015928:	2da6d137          	lui	x2,0x2da6d
    4101592c:	000012b7          	lui	x5,0x1
    41015930:	00510133          	add	x2,x2,x5
    41015934:	ff017113          	andi	x2,x2,-16
    41015938:	0032ff37          	lui	x30,0x32f
    4101593c:	07ff0f1b          	addiw	x30,x30,127 # 32f07f <hart_stack_0_end+0x20307f>
    41015940:	00cf1f13          	slli	x30,x30,0xc
    41015944:	bc1f0f13          	addi	x30,x30,-1087
    41015948:	00cf1f13          	slli	x30,x30,0xc
    4101594c:	000f2c87          	flw	f25,0(x30)
    41015950:	31559737          	lui	x14,0x31559
    41015954:	00075683          	lhu	x13,0(x14) # 31559000 <mem13>
    41015958:	31559837          	lui	x16,0x31559
    4101595c:	73f7c4b7          	lui	x9,0x73f7c
    41015960:	a914849b          	addiw	x9,x9,-1391 # 73f7ba91 <mem0+0x53e3a91>
    41015964:	00980023          	sb	x9,0(x16) # 31559000 <mem13>
    41015968:	40f804b7          	lui	x9,0x40f80
    4101596c:	0004ce83          	lbu	x29,0(x9) # 40f80000 <mem15>
    41015970:	010e6637          	lui	x12,0x10e6
    41015974:	80f6061b          	addiw	x12,x12,-2033 # 10e580f <mem11__pt_level2+0xa380f>
    41015978:	00c61613          	slli	x12,x12,0xc
    4101597c:	000600e7          	jalr	x12
    41015980:	06677b37          	lui	x22,0x6677
    41015984:	000b4a03          	lbu	x20,0(x22) # 6677000 <mem17>
    41015988:	06677437          	lui	x8,0x6677
    4101598c:	03ba38b7          	lui	x17,0x3ba3
    41015990:	3de8889b          	addiw	x17,x17,990 # 3ba33de <SID_PBVMS_043_fetch_window_spill_page_cross_stack+0x2113de>
    41015994:	01140023          	sb	x17,0(x8) # 6677000 <mem17>

0000000041015998 <SID_PBVMS_013_ptw_permission_encodings_passed>:
    41015998:	00f00f9b          	addiw	x31,x0,15
    4101599c:	01cf9f93          	slli	x31,x31,0x1c
    410159a0:	001f8f93          	addi	x31,x31,1
    410159a4:	00000073          	ecall

00000000410159a8 <SID_PBVMS_014_mstatus_sum_mxr>:
    410159a8:	0009a137          	lui	x2,0x9a
    410159ac:	0e81cfb7          	lui	x31,0xe81c
    410159b0:	e6ff8f9b          	addiw	x31,x31,-401 # e81be6f <mem6__pt_level4+0x47ff637>
    410159b4:	00cf9f93          	slli	x31,x31,0xc
    410159b8:	5b5f8f93          	addi	x31,x31,1461
    410159bc:	00ef9f93          	slli	x31,x31,0xe
    410159c0:	0a0f8f93          	addi	x31,x31,160
    410159c4:	00100f13          	li	x30,1
    410159c8:	01efb023          	sd	x30,0(x31)
    410159cc:	000f0fb7          	lui	x31,0xf0
    410159d0:	001f8f9b          	addiw	x31,x31,1 # f0001 <tp_csr_storage+0x56001>
    410159d4:	00cf9f93          	slli	x31,x31,0xc
    410159d8:	005f8f93          	addi	x31,x31,5
    410159dc:	00000073          	ecall
    410159e0:	00713023          	sd	x7,0(x2) # 9a000 <tp_csr_storage>
    410159e4:	0032f137          	lui	x2,0x32f
    410159e8:	07f1011b          	addiw	x2,x2,127 # 32f07f <hart_stack_0_end+0x20307f>
    410159ec:	00c11113          	slli	x2,x2,0xc
    410159f0:	bbf10113          	addi	x2,x2,-1089
    410159f4:	00c11113          	slli	x2,x2,0xc
    410159f8:	000012b7          	lui	x5,0x1
    410159fc:	00510133          	add	x2,x2,x5
    41015a00:	ff017113          	andi	x2,x2,-16
    41015a04:	000803b7          	lui	x7,0x80
    41015a08:	0e81cfb7          	lui	x31,0xe81c
    41015a0c:	e6ff8f9b          	addiw	x31,x31,-401 # e81be6f <mem6__pt_level4+0x47ff637>
    41015a10:	00cf9f93          	slli	x31,x31,0xc
    41015a14:	5b5f8f93          	addi	x31,x31,1461
    41015a18:	00ef9f93          	slli	x31,x31,0xe
    41015a1c:	0a0f8f93          	addi	x31,x31,160
    41015a20:	00200f13          	li	x30,2
    41015a24:	01efb023          	sd	x30,0(x31)
    41015a28:	000f0fb7          	lui	x31,0xf0
    41015a2c:	001f8f9b          	addiw	x31,x31,1 # f0001 <tp_csr_storage+0x56001>
    41015a30:	00cf9f93          	slli	x31,x31,0xc
    41015a34:	005f8f93          	addi	x31,x31,5
    41015a38:	00000073          	ecall
    41015a3c:	0f068e37          	lui	x28,0xf068
    41015a40:	d01e0e1b          	addiw	x28,x28,-767 # f067d01 <mem22__pt_level1+0x71dd01>
    41015a44:	00de1e13          	slli	x28,x28,0xd
    41015a48:	000e3783          	ld	x15,0(x28)
    41015a4c:	000803b7          	lui	x7,0x80
    41015a50:	0e81cfb7          	lui	x31,0xe81c
    41015a54:	e6ff8f9b          	addiw	x31,x31,-401 # e81be6f <mem6__pt_level4+0x47ff637>
    41015a58:	00cf9f93          	slli	x31,x31,0xc
    41015a5c:	5b5f8f93          	addi	x31,x31,1461
    41015a60:	00ef9f93          	slli	x31,x31,0xe
    41015a64:	0a0f8f93          	addi	x31,x31,160
    41015a68:	00300f13          	li	x30,3
    41015a6c:	01efb023          	sd	x30,0(x31)
    41015a70:	000f0fb7          	lui	x31,0xf0
    41015a74:	001f8f9b          	addiw	x31,x31,1 # f0001 <tp_csr_storage+0x56001>
    41015a78:	00cf9f93          	slli	x31,x31,0xc
    41015a7c:	005f8f93          	addi	x31,x31,5
    41015a80:	00000073          	ecall
    41015a84:	397a8237          	lui	x4,0x397a8
    41015a88:	ebd2021b          	addiw	x4,x4,-323 # 397a7ebd <mem13+0x824eebd>
    41015a8c:	00d21213          	slli	x4,x4,0xd
    41015a90:	81120213          	addi	x4,x4,-2031 # fffffffffffff811 <mem6+0xf8fffffffff811>
    41015a94:	00d21213          	slli	x4,x4,0xd
    41015a98:	00d00e13          	li	x28,13
    41015a9c:	05c23823          	sd	x28,80(x4) # 50 <XLEN+0x10>
    41015aa0:	00000e17          	auipc	x28,0x0
    41015aa4:	054e0e13          	addi	x28,x28,84 # 41015af4 <fault_label_9>
    41015aa8:	03c23023          	sd	x28,32(x4) # 20 <SECURE_ACCESS_PROBABILITY+0x2>
    41015aac:	00000e13          	li	x28,0
    41015ab0:	05c23023          	sd	x28,64(x4) # 40 <XLEN>
    41015ab4:	00000e13          	li	x28,0
    41015ab8:	05c23423          	sd	x28,72(x4) # 48 <XLEN+0x8>
    41015abc:	00000e17          	auipc	x28,0x0
    41015ac0:	05ce0e13          	addi	x28,x28,92 # 41015b18 <excp_return_label_9>
    41015ac4:	03c23823          	sd	x28,48(x4) # 30 <SECURE_ACCESS_PROBABILITY+0x12>
    41015ac8:	00000e13          	li	x28,0
    41015acc:	03c23c23          	sd	x28,56(x4) # 38 <SECURE_ACCESS_PROBABILITY+0x1a>
    41015ad0:	00000e13          	li	x28,0
    41015ad4:	07c23023          	sd	x28,96(x4) # 60 <XLEN+0x20>
    41015ad8:	00000e13          	li	x28,0
    41015adc:	07c23423          	sd	x28,104(x4) # 68 <XLEN+0x28>
    41015ae0:	00000e13          	li	x28,0
    41015ae4:	07c23823          	sd	x28,112(x4) # 70 <XLEN+0x30>
    41015ae8:	0f068eb7          	lui	x29,0xf068
    41015aec:	d01e8e9b          	addiw	x29,x29,-767 # f067d01 <mem22__pt_level1+0x71dd01>
    41015af0:	00de9e93          	slli	x29,x29,0xd

0000000041015af4 <fault_label_9>:
    41015af4:	000ede03          	lhu	x28,0(x29)
    41015af8:	0e81c8b7          	lui	x17,0xe81c
    41015afc:	e6f8889b          	addiw	x17,x17,-401 # e81be6f <mem6__pt_level4+0x47ff637>
    41015b00:	00c89893          	slli	x17,x17,0xc
    41015b04:	5b588893          	addi	x17,x17,1461
    41015b08:	00e89893          	slli	x17,x17,0xe
    41015b0c:	00888893          	addi	x17,x17,8
    41015b10:	0008bb83          	ld	x23,0(x17)
    41015b14:	000b8067          	jr	x23

0000000041015b18 <excp_return_label_9>:
    41015b18:	000403b7          	lui	x7,0x40
    41015b1c:	0e81cfb7          	lui	x31,0xe81c
    41015b20:	e6ff8f9b          	addiw	x31,x31,-401 # e81be6f <mem6__pt_level4+0x47ff637>
    41015b24:	00cf9f93          	slli	x31,x31,0xc
    41015b28:	5b5f8f93          	addi	x31,x31,1461
    41015b2c:	00ef9f93          	slli	x31,x31,0xe
    41015b30:	0a0f8f93          	addi	x31,x31,160
    41015b34:	00200f13          	li	x30,2
    41015b38:	01efb023          	sd	x30,0(x31)
    41015b3c:	000f0fb7          	lui	x31,0xf0
    41015b40:	001f8f9b          	addiw	x31,x31,1 # f0001 <tp_csr_storage+0x56001>
    41015b44:	00cf9f93          	slli	x31,x31,0xc
    41015b48:	005f8f93          	addi	x31,x31,5
    41015b4c:	00000073          	ecall
    41015b50:	001fee37          	lui	x28,0x1fe
    41015b54:	c81e0e1b          	addiw	x28,x28,-895 # 1fdc81 <hart_stack_0_end+0xd1c81>
    41015b58:	00ee1e13          	slli	x28,x28,0xe
    41015b5c:	94de0e13          	addi	x28,x28,-1715
    41015b60:	00ce1e13          	slli	x28,x28,0xc
    41015b64:	000e2587          	flw	f11,0(x28)
    41015b68:	000403b7          	lui	x7,0x40
    41015b6c:	0e81cfb7          	lui	x31,0xe81c
    41015b70:	e6ff8f9b          	addiw	x31,x31,-401 # e81be6f <mem6__pt_level4+0x47ff637>
    41015b74:	00cf9f93          	slli	x31,x31,0xc
    41015b78:	5b5f8f93          	addi	x31,x31,1461
    41015b7c:	00ef9f93          	slli	x31,x31,0xe
    41015b80:	0a0f8f93          	addi	x31,x31,160
    41015b84:	00300f13          	li	x30,3
    41015b88:	01efb023          	sd	x30,0(x31)
    41015b8c:	000f0fb7          	lui	x31,0xf0
    41015b90:	001f8f9b          	addiw	x31,x31,1 # f0001 <tp_csr_storage+0x56001>
    41015b94:	00cf9f93          	slli	x31,x31,0xc
    41015b98:	005f8f93          	addi	x31,x31,5
    41015b9c:	00000073          	ecall
    41015ba0:	397a8237          	lui	x4,0x397a8
    41015ba4:	ebd2021b          	addiw	x4,x4,-323 # 397a7ebd <mem13+0x824eebd>
    41015ba8:	00d21213          	slli	x4,x4,0xd
    41015bac:	81120213          	addi	x4,x4,-2031 # fffffffffffff811 <mem6+0xf8fffffffff811>
    41015bb0:	00d21213          	slli	x4,x4,0xd
    41015bb4:	00d00e13          	li	x28,13
    41015bb8:	05c23823          	sd	x28,80(x4) # 50 <XLEN+0x10>
    41015bbc:	00000e17          	auipc	x28,0x0
    41015bc0:	05ce0e13          	addi	x28,x28,92 # 41015c18 <fault_label_10>
    41015bc4:	03c23023          	sd	x28,32(x4) # 20 <SECURE_ACCESS_PROBABILITY+0x2>
    41015bc8:	00000e13          	li	x28,0
    41015bcc:	05c23023          	sd	x28,64(x4) # 40 <XLEN>
    41015bd0:	00000e13          	li	x28,0
    41015bd4:	05c23423          	sd	x28,72(x4) # 48 <XLEN+0x8>
    41015bd8:	00000e17          	auipc	x28,0x0
    41015bdc:	064e0e13          	addi	x28,x28,100 # 41015c3c <excp_return_label_10>
    41015be0:	03c23823          	sd	x28,48(x4) # 30 <SECURE_ACCESS_PROBABILITY+0x12>
    41015be4:	00000e13          	li	x28,0
    41015be8:	03c23c23          	sd	x28,56(x4) # 38 <SECURE_ACCESS_PROBABILITY+0x1a>
    41015bec:	00000e13          	li	x28,0
    41015bf0:	07c23023          	sd	x28,96(x4) # 60 <XLEN+0x20>
    41015bf4:	00000e13          	li	x28,0
    41015bf8:	07c23423          	sd	x28,104(x4) # 68 <XLEN+0x28>
    41015bfc:	00000e13          	li	x28,0
    41015c00:	07c23823          	sd	x28,112(x4) # 70 <XLEN+0x30>
    41015c04:	001fecb7          	lui	x25,0x1fe
    41015c08:	c81c8c9b          	addiw	x25,x25,-895 # 1fdc81 <hart_stack_0_end+0xd1c81>
    41015c0c:	00ec9c93          	slli	x25,x25,0xe
    41015c10:	94dc8c93          	addi	x25,x25,-1715
    41015c14:	00cc9c93          	slli	x25,x25,0xc

0000000041015c18 <fault_label_10>:
    41015c18:	000cbd03          	ld	x26,0(x25)
    41015c1c:	0e81c537          	lui	x10,0xe81c
    41015c20:	e6f5051b          	addiw	x10,x10,-401 # e81be6f <mem6__pt_level4+0x47ff637>
    41015c24:	00c51513          	slli	x10,x10,0xc
    41015c28:	5b550513          	addi	x10,x10,1461
    41015c2c:	00e51513          	slli	x10,x10,0xe
    41015c30:	00850513          	addi	x10,x10,8
    41015c34:	00053303          	ld	x6,0(x10)
    41015c38:	00030067          	jr	x6

0000000041015c3c <excp_return_label_10>:
    41015c3c:	0009a137          	lui	x2,0x9a
    41015c40:	00013383          	ld	x7,0(x2) # 9a000 <tp_csr_storage>
    41015c44:	0e81cfb7          	lui	x31,0xe81c
    41015c48:	e6ff8f9b          	addiw	x31,x31,-401 # e81be6f <mem6__pt_level4+0x47ff637>
    41015c4c:	00cf9f93          	slli	x31,x31,0xc
    41015c50:	5b5f8f93          	addi	x31,x31,1461
    41015c54:	00ef9f93          	slli	x31,x31,0xe
    41015c58:	0a0f8f93          	addi	x31,x31,160
    41015c5c:	00600f13          	li	x30,6
    41015c60:	01efb023          	sd	x30,0(x31)
    41015c64:	000f0fb7          	lui	x31,0xf0
    41015c68:	001f8f9b          	addiw	x31,x31,1 # f0001 <tp_csr_storage+0x56001>
    41015c6c:	00cf9f93          	slli	x31,x31,0xc
    41015c70:	005f8f93          	addi	x31,x31,5
    41015c74:	00000073          	ecall

0000000041015c78 <SID_PBVMS_014_mstatus_sum_mxr_passed>:
    41015c78:	00f00f9b          	addiw	x31,x0,15
    41015c7c:	01cf9f93          	slli	x31,x31,0x1c
    41015c80:	001f8f93          	addi	x31,x31,1
    41015c84:	00000073          	ecall

0000000041015c88 <SID_PBVMS_015_global_bit_honoured>:
    41015c88:	0009a137          	lui	x2,0x9a
    41015c8c:	0e81cfb7          	lui	x31,0xe81c
    41015c90:	e6ff8f9b          	addiw	x31,x31,-401 # e81be6f <mem6__pt_level4+0x47ff637>
    41015c94:	00cf9f93          	slli	x31,x31,0xc
    41015c98:	5b5f8f93          	addi	x31,x31,1461
    41015c9c:	00ef9f93          	slli	x31,x31,0xe
    41015ca0:	0a0f8f93          	addi	x31,x31,160
    41015ca4:	00700f13          	li	x30,7
    41015ca8:	01efb023          	sd	x30,0(x31)
    41015cac:	000f0fb7          	lui	x31,0xf0
    41015cb0:	001f8f9b          	addiw	x31,x31,1 # f0001 <tp_csr_storage+0x56001>
    41015cb4:	00cf9f93          	slli	x31,x31,0xc
    41015cb8:	005f8f93          	addi	x31,x31,5
    41015cbc:	00000073          	ecall
    41015cc0:	00713023          	sd	x7,0(x2) # 9a000 <tp_csr_storage>
    41015cc4:	00f05137          	lui	x2,0xf05
    41015cc8:	4b51011b          	addiw	x2,x2,1205 # f054b5 <mem22__pt_level2+0x1c24b5>
    41015ccc:	00c11113          	slli	x2,x2,0xc
    41015cd0:	000012b7          	lui	x5,0x1
    41015cd4:	00510133          	add	x2,x2,x5
    41015cd8:	ff017113          	andi	x2,x2,-16
    41015cdc:	0e81cfb7          	lui	x31,0xe81c
    41015ce0:	e6ff8f9b          	addiw	x31,x31,-401 # e81be6f <mem6__pt_level4+0x47ff637>
    41015ce4:	00cf9f93          	slli	x31,x31,0xc
    41015ce8:	5b5f8f93          	addi	x31,x31,1461
    41015cec:	00ef9f93          	slli	x31,x31,0xe
    41015cf0:	0a8f8f93          	addi	x31,x31,168
    41015cf4:	00800f13          	li	x30,8
    41015cf8:	01efb023          	sd	x30,0(x31)
    41015cfc:	000f0fb7          	lui	x31,0xf0
    41015d00:	001f8f9b          	addiw	x31,x31,1 # f0001 <tp_csr_storage+0x56001>
    41015d04:	00cf9f93          	slli	x31,x31,0xc
    41015d08:	006f8f93          	addi	x31,x31,6
    41015d0c:	00000073          	ecall
    41015d10:	00038393          	mv	x7,x7
    41015d14:	00038713          	mv	x14,x7
    41015d18:	00f0039b          	addiw	x7,x0,15
    41015d1c:	02c39393          	slli	x7,x7,0x2c
    41015d20:	0e81cfb7          	lui	x31,0xe81c
    41015d24:	e6ff8f9b          	addiw	x31,x31,-401 # e81be6f <mem6__pt_level4+0x47ff637>
    41015d28:	00cf9f93          	slli	x31,x31,0xc
    41015d2c:	5b5f8f93          	addi	x31,x31,1461
    41015d30:	00ef9f93          	slli	x31,x31,0xe
    41015d34:	0a8f8f93          	addi	x31,x31,168
    41015d38:	00900f13          	li	x30,9
    41015d3c:	01efb023          	sd	x30,0(x31)
    41015d40:	000f0fb7          	lui	x31,0xf0
    41015d44:	001f8f9b          	addiw	x31,x31,1 # f0001 <tp_csr_storage+0x56001>
    41015d48:	00cf9f93          	slli	x31,x31,0xc
    41015d4c:	006f8f93          	addi	x31,x31,6
    41015d50:	00000073          	ecall
    41015d54:	7875f837          	lui	x16,0x7875f
    41015d58:	45d8081b          	addiw	x16,x16,1117 # 7875f45d <mem0+0x9bc745d>
    41015d5c:	00c81813          	slli	x16,x16,0xc
    41015d60:	b2f80813          	addi	x16,x16,-1233
    41015d64:	00c81813          	slli	x16,x16,0xc
    41015d68:	6bc15537          	lui	x10,0x6bc15
    41015d6c:	3885051b          	addiw	x10,x10,904 # 6bc15388 <SID_PBVMS_040_context_table_overflow_stack+0x1554d388>
    41015d70:	00a81023          	sh	x10,0(x16)
    41015d74:	00f0039b          	addiw	x7,x0,15
    41015d78:	02c39393          	slli	x7,x7,0x2c
    41015d7c:	0e81cfb7          	lui	x31,0xe81c
    41015d80:	e6ff8f9b          	addiw	x31,x31,-401 # e81be6f <mem6__pt_level4+0x47ff637>
    41015d84:	00cf9f93          	slli	x31,x31,0xc
    41015d88:	5b5f8f93          	addi	x31,x31,1461
    41015d8c:	00ef9f93          	slli	x31,x31,0xe
    41015d90:	0a8f8f93          	addi	x31,x31,168
    41015d94:	00a00f13          	li	x30,10
    41015d98:	01efb023          	sd	x30,0(x31)
    41015d9c:	000f0fb7          	lui	x31,0xf0
    41015da0:	001f8f9b          	addiw	x31,x31,1 # f0001 <tp_csr_storage+0x56001>
    41015da4:	00cf9f93          	slli	x31,x31,0xc
    41015da8:	006f8f93          	addi	x31,x31,6
    41015dac:	00000073          	ecall
    41015db0:	7875f937          	lui	x18,0x7875f
    41015db4:	45d9091b          	addiw	x18,x18,1117 # 7875f45d <mem0+0x9bc745d>
    41015db8:	00c91913          	slli	x18,x18,0xc
    41015dbc:	b2f90913          	addi	x18,x18,-1233
    41015dc0:	00c91913          	slli	x18,x18,0xc
    41015dc4:	00096383          	lwu	x7,0(x18)
    41015dc8:	00070393          	mv	x7,x14
    41015dcc:	0e81cfb7          	lui	x31,0xe81c
    41015dd0:	e6ff8f9b          	addiw	x31,x31,-401 # e81be6f <mem6__pt_level4+0x47ff637>
    41015dd4:	00cf9f93          	slli	x31,x31,0xc
    41015dd8:	5b5f8f93          	addi	x31,x31,1461
    41015ddc:	00ef9f93          	slli	x31,x31,0xe
    41015de0:	0a8f8f93          	addi	x31,x31,168
    41015de4:	00b00f13          	li	x30,11
    41015de8:	01efb023          	sd	x30,0(x31)
    41015dec:	000f0fb7          	lui	x31,0xf0
    41015df0:	001f8f9b          	addiw	x31,x31,1 # f0001 <tp_csr_storage+0x56001>
    41015df4:	00cf9f93          	slli	x31,x31,0xc
    41015df8:	006f8f93          	addi	x31,x31,6
    41015dfc:	00000073          	ecall
    41015e00:	7875fdb7          	lui	x27,0x7875f
    41015e04:	45dd8d9b          	addiw	x27,x27,1117 # 7875f45d <mem0+0x9bc745d>
    41015e08:	00cd9d93          	slli	x27,x27,0xc
    41015e0c:	b2fd8d93          	addi	x27,x27,-1233
    41015e10:	00cd9d93          	slli	x27,x27,0xc
    41015e14:	000da783          	lw	x15,0(x27)
    41015e18:	0009a137          	lui	x2,0x9a
    41015e1c:	00013383          	ld	x7,0(x2) # 9a000 <tp_csr_storage>
    41015e20:	0e81cfb7          	lui	x31,0xe81c
    41015e24:	e6ff8f9b          	addiw	x31,x31,-401 # e81be6f <mem6__pt_level4+0x47ff637>
    41015e28:	00cf9f93          	slli	x31,x31,0xc
    41015e2c:	5b5f8f93          	addi	x31,x31,1461
    41015e30:	00ef9f93          	slli	x31,x31,0xe
    41015e34:	0a0f8f93          	addi	x31,x31,160
    41015e38:	00c00f13          	li	x30,12
    41015e3c:	01efb023          	sd	x30,0(x31)
    41015e40:	000f0fb7          	lui	x31,0xf0
    41015e44:	001f8f9b          	addiw	x31,x31,1 # f0001 <tp_csr_storage+0x56001>
    41015e48:	00cf9f93          	slli	x31,x31,0xc
    41015e4c:	005f8f93          	addi	x31,x31,5
    41015e50:	00000073          	ecall

0000000041015e54 <SID_PBVMS_015_global_bit_honoured_passed>:
    41015e54:	00f00f9b          	addiw	x31,x0,15
    41015e58:	01cf9f93          	slli	x31,x31,0x1c
    41015e5c:	001f8f93          	addi	x31,x31,1
    41015e60:	00000073          	ecall

0000000041015e64 <SID_PBVMS_017_global_at_non_leaf>:
    41015e64:	0009a137          	lui	x2,0x9a
    41015e68:	0e81cfb7          	lui	x31,0xe81c
    41015e6c:	e6ff8f9b          	addiw	x31,x31,-401 # e81be6f <mem6__pt_level4+0x47ff637>
    41015e70:	00cf9f93          	slli	x31,x31,0xc
    41015e74:	5b5f8f93          	addi	x31,x31,1461
    41015e78:	00ef9f93          	slli	x31,x31,0xe
    41015e7c:	0a0f8f93          	addi	x31,x31,160
    41015e80:	00700f13          	li	x30,7
    41015e84:	01efb023          	sd	x30,0(x31)
    41015e88:	000f0fb7          	lui	x31,0xf0
    41015e8c:	001f8f9b          	addiw	x31,x31,1 # f0001 <tp_csr_storage+0x56001>
    41015e90:	00cf9f93          	slli	x31,x31,0xc
    41015e94:	005f8f93          	addi	x31,x31,5
    41015e98:	00000073          	ecall
    41015e9c:	00713023          	sd	x7,0(x2) # 9a000 <tp_csr_storage>
    41015ea0:	04163137          	lui	x2,0x4163
    41015ea4:	20f1011b          	addiw	x2,x2,527 # 416320f <pma_region_2_size+0x16320f>
    41015ea8:	00d11113          	slli	x2,x2,0xd
    41015eac:	000012b7          	lui	x5,0x1
    41015eb0:	00510133          	add	x2,x2,x5
    41015eb4:	ff017113          	andi	x2,x2,-16
    41015eb8:	0e81cfb7          	lui	x31,0xe81c
    41015ebc:	e6ff8f9b          	addiw	x31,x31,-401 # e81be6f <mem6__pt_level4+0x47ff637>
    41015ec0:	00cf9f93          	slli	x31,x31,0xc
    41015ec4:	5b5f8f93          	addi	x31,x31,1461
    41015ec8:	00ef9f93          	slli	x31,x31,0xe
    41015ecc:	0b0f8f93          	addi	x31,x31,176
    41015ed0:	0070029b          	addiw	x5,x0,7
    41015ed4:	03329293          	slli	x5,x5,0x33
    41015ed8:	005fb023          	sd	x5,0(x31)
    41015edc:	00100293          	li	x5,1
    41015ee0:	005fb423          	sd	x5,8(x31)
    41015ee4:	fff00293          	li	x5,-1
    41015ee8:	005fb823          	sd	x5,16(x31)
    41015eec:	000f0fb7          	lui	x31,0xf0
    41015ef0:	001f8f9b          	addiw	x31,x31,1 # f0001 <tp_csr_storage+0x56001>
    41015ef4:	00cf9f93          	slli	x31,x31,0xc
    41015ef8:	007f8f93          	addi	x31,x31,7
    41015efc:	00000073          	ecall
    41015f00:	00038393          	mv	x7,x7
    41015f04:	0e81cfb7          	lui	x31,0xe81c
    41015f08:	e6ff8f9b          	addiw	x31,x31,-401 # e81be6f <mem6__pt_level4+0x47ff637>
    41015f0c:	00cf9f93          	slli	x31,x31,0xc
    41015f10:	5b5f8f93          	addi	x31,x31,1461
    41015f14:	00ef9f93          	slli	x31,x31,0xe
    41015f18:	0b0f8f93          	addi	x31,x31,176
    41015f1c:	0070029b          	addiw	x5,x0,7
    41015f20:	03329293          	slli	x5,x5,0x33
    41015f24:	005fb023          	sd	x5,0(x31)
    41015f28:	00100293          	li	x5,1
    41015f2c:	005fb423          	sd	x5,8(x31)
    41015f30:	fff00293          	li	x5,-1
    41015f34:	005fb823          	sd	x5,16(x31)
    41015f38:	000f0fb7          	lui	x31,0xf0
    41015f3c:	001f8f9b          	addiw	x31,x31,1 # f0001 <tp_csr_storage+0x56001>
    41015f40:	00cf9f93          	slli	x31,x31,0xc
    41015f44:	008f8f93          	addi	x31,x31,8
    41015f48:	00000073          	ecall
    41015f4c:	0070071b          	addiw	x14,x0,7
    41015f50:	03371713          	slli	x14,x14,0x33
    41015f54:	00076303          	lwu	x6,0(x14)
    41015f58:	0ff0039b          	addiw	x7,x0,255
    41015f5c:	02c39393          	slli	x7,x7,0x2c
    41015f60:	0e81cfb7          	lui	x31,0xe81c
    41015f64:	e6ff8f9b          	addiw	x31,x31,-401 # e81be6f <mem6__pt_level4+0x47ff637>
    41015f68:	00cf9f93          	slli	x31,x31,0xc
    41015f6c:	5b5f8f93          	addi	x31,x31,1461
    41015f70:	00ef9f93          	slli	x31,x31,0xe
    41015f74:	0a8f8f93          	addi	x31,x31,168
    41015f78:	00900f13          	li	x30,9
    41015f7c:	01efb023          	sd	x30,0(x31)
    41015f80:	000f0fb7          	lui	x31,0xf0
    41015f84:	001f8f9b          	addiw	x31,x31,1 # f0001 <tp_csr_storage+0x56001>
    41015f88:	00cf9f93          	slli	x31,x31,0xc
    41015f8c:	006f8f93          	addi	x31,x31,6
    41015f90:	00000073          	ecall
    41015f94:	00700a9b          	addiw	x21,x0,7
    41015f98:	033a9a93          	slli	x21,x21,0x33
    41015f9c:	000a8603          	lb	x12,0(x21)
    41015fa0:	0009a137          	lui	x2,0x9a
    41015fa4:	00013383          	ld	x7,0(x2) # 9a000 <tp_csr_storage>
    41015fa8:	0e81cfb7          	lui	x31,0xe81c
    41015fac:	e6ff8f9b          	addiw	x31,x31,-401 # e81be6f <mem6__pt_level4+0x47ff637>
    41015fb0:	00cf9f93          	slli	x31,x31,0xc
    41015fb4:	5b5f8f93          	addi	x31,x31,1461
    41015fb8:	00ef9f93          	slli	x31,x31,0xe
    41015fbc:	0a0f8f93          	addi	x31,x31,160
    41015fc0:	00c00f13          	li	x30,12
    41015fc4:	01efb023          	sd	x30,0(x31)
    41015fc8:	000f0fb7          	lui	x31,0xf0
    41015fcc:	001f8f9b          	addiw	x31,x31,1 # f0001 <tp_csr_storage+0x56001>
    41015fd0:	00cf9f93          	slli	x31,x31,0xc
    41015fd4:	005f8f93          	addi	x31,x31,5
    41015fd8:	00000073          	ecall

0000000041015fdc <SID_PBVMS_017_global_at_non_leaf_passed>:
    41015fdc:	00f00f9b          	addiw	x31,x0,15
    41015fe0:	01cf9f93          	slli	x31,x31,0x1c
    41015fe4:	001f8f93          	addi	x31,x31,1
    41015fe8:	00000073          	ecall

0000000041015fec <SID_PBVMS_018_rsw_fields_writable>:
    41015fec:	37ac6137          	lui	x2,0x37ac6
    41015ff0:	a711011b          	addiw	x2,x2,-1423 # 37ac5a71 <mem13+0x656ca71>
    41015ff4:	00c11113          	slli	x2,x2,0xc
    41015ff8:	000012b7          	lui	x5,0x1
    41015ffc:	00510133          	add	x2,x2,x5
    41016000:	ff017113          	andi	x2,x2,-16
    41016004:	0e81cfb7          	lui	x31,0xe81c
    41016008:	e6ff8f9b          	addiw	x31,x31,-401 # e81be6f <mem6__pt_level4+0x47ff637>
    4101600c:	00cf9f93          	slli	x31,x31,0xc
    41016010:	5b5f8f93          	addi	x31,x31,1461
    41016014:	00ef9f93          	slli	x31,x31,0xe
    41016018:	0b0f8f93          	addi	x31,x31,176
    4101601c:	0770029b          	addiw	x5,x0,119
    41016020:	03029293          	slli	x5,x5,0x30
    41016024:	005fb023          	sd	x5,0(x31)
    41016028:	00400293          	li	x5,4
    4101602c:	005fb423          	sd	x5,8(x31)
    41016030:	fff00293          	li	x5,-1
    41016034:	005fb823          	sd	x5,16(x31)
    41016038:	000f0fb7          	lui	x31,0xf0
    4101603c:	001f8f9b          	addiw	x31,x31,1 # f0001 <tp_csr_storage+0x56001>
    41016040:	00cf9f93          	slli	x31,x31,0xc
    41016044:	007f8f93          	addi	x31,x31,7
    41016048:	00000073          	ecall
    4101604c:	30000693          	li	x13,768
    41016050:	00d3eb33          	or	x22,x7,x13
    41016054:	000b0393          	mv	x7,x22
    41016058:	0e81cfb7          	lui	x31,0xe81c
    4101605c:	e6ff8f9b          	addiw	x31,x31,-401 # e81be6f <mem6__pt_level4+0x47ff637>
    41016060:	00cf9f93          	slli	x31,x31,0xc
    41016064:	5b5f8f93          	addi	x31,x31,1461
    41016068:	00ef9f93          	slli	x31,x31,0xe
    4101606c:	0b0f8f93          	addi	x31,x31,176
    41016070:	0770029b          	addiw	x5,x0,119
    41016074:	03029293          	slli	x5,x5,0x30
    41016078:	005fb023          	sd	x5,0(x31)
    4101607c:	00400293          	li	x5,4
    41016080:	005fb423          	sd	x5,8(x31)
    41016084:	fff00293          	li	x5,-1
    41016088:	005fb823          	sd	x5,16(x31)
    4101608c:	000f0fb7          	lui	x31,0xf0
    41016090:	001f8f9b          	addiw	x31,x31,1 # f0001 <tp_csr_storage+0x56001>
    41016094:	00cf9f93          	slli	x31,x31,0xc
    41016098:	008f8f93          	addi	x31,x31,8
    4101609c:	00000073          	ecall
    410160a0:	0e81cfb7          	lui	x31,0xe81c
    410160a4:	e6ff8f9b          	addiw	x31,x31,-401 # e81be6f <mem6__pt_level4+0x47ff637>
    410160a8:	00cf9f93          	slli	x31,x31,0xc
    410160ac:	5b5f8f93          	addi	x31,x31,1461
    410160b0:	00ef9f93          	slli	x31,x31,0xe
    410160b4:	0b0f8f93          	addi	x31,x31,176
    410160b8:	0770029b          	addiw	x5,x0,119
    410160bc:	03029293          	slli	x5,x5,0x30
    410160c0:	005fb023          	sd	x5,0(x31)
    410160c4:	00400293          	li	x5,4
    410160c8:	005fb423          	sd	x5,8(x31)
    410160cc:	fff00293          	li	x5,-1
    410160d0:	005fb823          	sd	x5,16(x31)
    410160d4:	000f0fb7          	lui	x31,0xf0
    410160d8:	001f8f9b          	addiw	x31,x31,1 # f0001 <tp_csr_storage+0x56001>
    410160dc:	00cf9f93          	slli	x31,x31,0xc
    410160e0:	007f8f93          	addi	x31,x31,7
    410160e4:	00000073          	ecall
    410160e8:	00d3ffb3          	and	x31,x7,x13
    410160ec:	02df8263          	beq	x31,x13,41016110 <pass_label_0>
    410160f0:	0e81ccb7          	lui	x25,0xe81c
    410160f4:	e6fc8c9b          	addiw	x25,x25,-401 # e81be6f <mem6__pt_level4+0x47ff637>
    410160f8:	00cc9c93          	slli	x25,x25,0xc
    410160fc:	5b5c8c93          	addi	x25,x25,1461
    41016100:	00ec9c93          	slli	x25,x25,0xe
    41016104:	008c8c93          	addi	x25,x25,8
    41016108:	000cbb03          	ld	x22,0(x25)
    4101610c:	000b0067          	jr	x22

0000000041016110 <pass_label_0>:
    41016110:	0e81cfb7          	lui	x31,0xe81c
    41016114:	e6ff8f9b          	addiw	x31,x31,-401 # e81be6f <mem6__pt_level4+0x47ff637>
    41016118:	00cf9f93          	slli	x31,x31,0xc
    4101611c:	5b5f8f93          	addi	x31,x31,1461
    41016120:	00ef9f93          	slli	x31,x31,0xe
    41016124:	0b0f8f93          	addi	x31,x31,176
    41016128:	0770029b          	addiw	x5,x0,119
    4101612c:	03029293          	slli	x5,x5,0x30
    41016130:	005fb023          	sd	x5,0(x31)
    41016134:	00100293          	li	x5,1
    41016138:	005fb423          	sd	x5,8(x31)
    4101613c:	fff00293          	li	x5,-1
    41016140:	005fb823          	sd	x5,16(x31)
    41016144:	000f0fb7          	lui	x31,0xf0
    41016148:	001f8f9b          	addiw	x31,x31,1 # f0001 <tp_csr_storage+0x56001>
    4101614c:	00cf9f93          	slli	x31,x31,0xc
    41016150:	007f8f93          	addi	x31,x31,7
    41016154:	00000073          	ecall
    41016158:	00d3eab3          	or	x21,x7,x13
    4101615c:	000a8393          	mv	x7,x21
    41016160:	0e81cfb7          	lui	x31,0xe81c
    41016164:	e6ff8f9b          	addiw	x31,x31,-401 # e81be6f <mem6__pt_level4+0x47ff637>
    41016168:	00cf9f93          	slli	x31,x31,0xc
    4101616c:	5b5f8f93          	addi	x31,x31,1461
    41016170:	00ef9f93          	slli	x31,x31,0xe
    41016174:	0b0f8f93          	addi	x31,x31,176
    41016178:	0770029b          	addiw	x5,x0,119
    4101617c:	03029293          	slli	x5,x5,0x30
    41016180:	005fb023          	sd	x5,0(x31)
    41016184:	00100293          	li	x5,1
    41016188:	005fb423          	sd	x5,8(x31)
    4101618c:	fff00293          	li	x5,-1
    41016190:	005fb823          	sd	x5,16(x31)
    41016194:	000f0fb7          	lui	x31,0xf0
    41016198:	001f8f9b          	addiw	x31,x31,1 # f0001 <tp_csr_storage+0x56001>
    4101619c:	00cf9f93          	slli	x31,x31,0xc
    410161a0:	008f8f93          	addi	x31,x31,8
    410161a4:	00000073          	ecall
    410161a8:	07700e1b          	addiw	x28,x0,119
    410161ac:	030e1e13          	slli	x28,x28,0x30
    410161b0:	000e0783          	lb	x15,0(x28)

00000000410161b4 <SID_PBVMS_018_rsw_fields_writable_passed>:
    410161b4:	00f00f9b          	addiw	x31,x0,15
    410161b8:	01cf9f93          	slli	x31,x31,0x1c
    410161bc:	001f8f93          	addi	x31,x31,1
    410161c0:	00000073          	ecall

00000000410161c4 <SID_PBVMS_021_satp_valid_to_reserved>:
    410161c4:	0009a137          	lui	x2,0x9a
    410161c8:	0e81cfb7          	lui	x31,0xe81c
    410161cc:	e6ff8f9b          	addiw	x31,x31,-401 # e81be6f <mem6__pt_level4+0x47ff637>
    410161d0:	00cf9f93          	slli	x31,x31,0xc
    410161d4:	5b5f8f93          	addi	x31,x31,1461
    410161d8:	00ef9f93          	slli	x31,x31,0xe
    410161dc:	0a0f8f93          	addi	x31,x31,160
    410161e0:	00700f13          	li	x30,7
    410161e4:	01efb023          	sd	x30,0(x31)
    410161e8:	000f0fb7          	lui	x31,0xf0
    410161ec:	001f8f9b          	addiw	x31,x31,1 # f0001 <tp_csr_storage+0x56001>
    410161f0:	00cf9f93          	slli	x31,x31,0xc
    410161f4:	005f8f93          	addi	x31,x31,5
    410161f8:	00000073          	ecall
    410161fc:	00713023          	sd	x7,0(x2) # 9a000 <tp_csr_storage>
    41016200:	00c02137          	lui	x2,0xc02
    41016204:	f0f1011b          	addiw	x2,x2,-241 # c01f0f <mem6__pt_level1+0x7cff0f>
    41016208:	00d11113          	slli	x2,x2,0xd
    4101620c:	000012b7          	lui	x5,0x1
    41016210:	00510133          	add	x2,x2,x5
    41016214:	ff017113          	andi	x2,x2,-16
    41016218:	0e81cfb7          	lui	x31,0xe81c
    4101621c:	e6ff8f9b          	addiw	x31,x31,-401 # e81be6f <mem6__pt_level4+0x47ff637>
    41016220:	00cf9f93          	slli	x31,x31,0xc
    41016224:	5b5f8f93          	addi	x31,x31,1461
    41016228:	00ef9f93          	slli	x31,x31,0xe
    4101622c:	0a8f8f93          	addi	x31,x31,168
    41016230:	00800f13          	li	x30,8
    41016234:	01efb023          	sd	x30,0(x31)
    41016238:	000f0fb7          	lui	x31,0xf0
    4101623c:	001f8f9b          	addiw	x31,x31,1 # f0001 <tp_csr_storage+0x56001>
    41016240:	00cf9f93          	slli	x31,x31,0xc
    41016244:	006f8f93          	addi	x31,x31,6
    41016248:	00000073          	ecall
    4101624c:	00038e13          	mv	x28,x7
    41016250:	00100f1b          	addiw	x30,x0,1
    41016254:	03df1f13          	slli	x30,x30,0x3d
    41016258:	000f0393          	mv	x7,x30
    4101625c:	0e81cfb7          	lui	x31,0xe81c
    41016260:	e6ff8f9b          	addiw	x31,x31,-401 # e81be6f <mem6__pt_level4+0x47ff637>
    41016264:	00cf9f93          	slli	x31,x31,0xc
    41016268:	5b5f8f93          	addi	x31,x31,1461
    4101626c:	00ef9f93          	slli	x31,x31,0xe
    41016270:	0a8f8f93          	addi	x31,x31,168
    41016274:	00b00f13          	li	x30,11
    41016278:	01efb023          	sd	x30,0(x31)
    4101627c:	000f0fb7          	lui	x31,0xf0
    41016280:	001f8f9b          	addiw	x31,x31,1 # f0001 <tp_csr_storage+0x56001>
    41016284:	00cf9f93          	slli	x31,x31,0xc
    41016288:	006f8f93          	addi	x31,x31,6
    4101628c:	00000073          	ecall
    41016290:	0e81cfb7          	lui	x31,0xe81c
    41016294:	e6ff8f9b          	addiw	x31,x31,-401 # e81be6f <mem6__pt_level4+0x47ff637>
    41016298:	00cf9f93          	slli	x31,x31,0xc
    4101629c:	5b5f8f93          	addi	x31,x31,1461
    410162a0:	00ef9f93          	slli	x31,x31,0xe
    410162a4:	0a8f8f93          	addi	x31,x31,168
    410162a8:	00800f13          	li	x30,8
    410162ac:	01efb023          	sd	x30,0(x31)
    410162b0:	000f0fb7          	lui	x31,0xf0
    410162b4:	001f8f9b          	addiw	x31,x31,1 # f0001 <tp_csr_storage+0x56001>
    410162b8:	00cf9f93          	slli	x31,x31,0xc
    410162bc:	006f8f93          	addi	x31,x31,6
    410162c0:	00000073          	ecall
    410162c4:	00038b93          	mv	x23,x7
    410162c8:	037e0263          	beq	x28,x23,410162ec <pass_label_1>
    410162cc:	0e81cab7          	lui	x21,0xe81c
    410162d0:	e6fa8a9b          	addiw	x21,x21,-401 # e81be6f <mem6__pt_level4+0x47ff637>
    410162d4:	00ca9a93          	slli	x21,x21,0xc
    410162d8:	5b5a8a93          	addi	x21,x21,1461
    410162dc:	00ea9a93          	slli	x21,x21,0xe
    410162e0:	008a8a93          	addi	x21,x21,8
    410162e4:	000ab703          	ld	x14,0(x21)
    410162e8:	00070067          	jr	x14

00000000410162ec <pass_label_1>:
    410162ec:	0009a137          	lui	x2,0x9a
    410162f0:	00013383          	ld	x7,0(x2) # 9a000 <tp_csr_storage>
    410162f4:	0e81cfb7          	lui	x31,0xe81c
    410162f8:	e6ff8f9b          	addiw	x31,x31,-401 # e81be6f <mem6__pt_level4+0x47ff637>
    410162fc:	00cf9f93          	slli	x31,x31,0xc
    41016300:	5b5f8f93          	addi	x31,x31,1461
    41016304:	00ef9f93          	slli	x31,x31,0xe
    41016308:	0a0f8f93          	addi	x31,x31,160
    4101630c:	00c00f13          	li	x30,12
    41016310:	01efb023          	sd	x30,0(x31)
    41016314:	000f0fb7          	lui	x31,0xf0
    41016318:	001f8f9b          	addiw	x31,x31,1 # f0001 <tp_csr_storage+0x56001>
    4101631c:	00cf9f93          	slli	x31,x31,0xc
    41016320:	005f8f93          	addi	x31,x31,5
    41016324:	00000073          	ecall

0000000041016328 <SID_PBVMS_021_satp_valid_to_reserved_passed>:
    41016328:	00f00f9b          	addiw	x31,x0,15
    4101632c:	01cf9f93          	slli	x31,x31,0x1c
    41016330:	001f8f93          	addi	x31,x31,1
    41016334:	00000073          	ecall

0000000041016338 <SID_PBVMS_022_satp_csr_accessibility>:
    41016338:	0009a137          	lui	x2,0x9a
    4101633c:	0e81cfb7          	lui	x31,0xe81c
    41016340:	e6ff8f9b          	addiw	x31,x31,-401 # e81be6f <mem6__pt_level4+0x47ff637>
    41016344:	00cf9f93          	slli	x31,x31,0xc
    41016348:	5b5f8f93          	addi	x31,x31,1461
    4101634c:	00ef9f93          	slli	x31,x31,0xe
    41016350:	0a0f8f93          	addi	x31,x31,160
    41016354:	00700f13          	li	x30,7
    41016358:	01efb023          	sd	x30,0(x31)
    4101635c:	000f0fb7          	lui	x31,0xf0
    41016360:	001f8f9b          	addiw	x31,x31,1 # f0001 <tp_csr_storage+0x56001>
    41016364:	00cf9f93          	slli	x31,x31,0xc
    41016368:	005f8f93          	addi	x31,x31,5
    4101636c:	00000073          	ecall
    41016370:	00713023          	sd	x7,0(x2) # 9a000 <tp_csr_storage>
    41016374:	1f619137          	lui	x2,0x1f619
    41016378:	31f1011b          	addiw	x2,x2,799 # 1f61931f <SID_PBVMS_011_ptw_fault_boundary_crossing_stack+0x47ee31f>
    4101637c:	00d11113          	slli	x2,x2,0xd
    41016380:	a9110113          	addi	x2,x2,-1391
    41016384:	00c11113          	slli	x2,x2,0xc
    41016388:	000012b7          	lui	x5,0x1
    4101638c:	00510133          	add	x2,x2,x5
    41016390:	ff017113          	andi	x2,x2,-16
    41016394:	0e81cfb7          	lui	x31,0xe81c
    41016398:	e6ff8f9b          	addiw	x31,x31,-401 # e81be6f <mem6__pt_level4+0x47ff637>
    4101639c:	00cf9f93          	slli	x31,x31,0xc
    410163a0:	5b5f8f93          	addi	x31,x31,1461
    410163a4:	00ef9f93          	slli	x31,x31,0xe
    410163a8:	0a8f8f93          	addi	x31,x31,168
    410163ac:	00800f13          	li	x30,8
    410163b0:	01efb023          	sd	x30,0(x31)
    410163b4:	000f0fb7          	lui	x31,0xf0
    410163b8:	001f8f9b          	addiw	x31,x31,1 # f0001 <tp_csr_storage+0x56001>
    410163bc:	00cf9f93          	slli	x31,x31,0xc
    410163c0:	006f8f93          	addi	x31,x31,6
    410163c4:	00000073          	ecall
    410163c8:	00038b93          	mv	x23,x7
    410163cc:	000b8393          	mv	x7,x23
    410163d0:	0e81cfb7          	lui	x31,0xe81c
    410163d4:	e6ff8f9b          	addiw	x31,x31,-401 # e81be6f <mem6__pt_level4+0x47ff637>
    410163d8:	00cf9f93          	slli	x31,x31,0xc
    410163dc:	5b5f8f93          	addi	x31,x31,1461
    410163e0:	00ef9f93          	slli	x31,x31,0xe
    410163e4:	0a8f8f93          	addi	x31,x31,168
    410163e8:	00b00f13          	li	x30,11
    410163ec:	01efb023          	sd	x30,0(x31)
    410163f0:	000f0fb7          	lui	x31,0xf0
    410163f4:	001f8f9b          	addiw	x31,x31,1 # f0001 <tp_csr_storage+0x56001>
    410163f8:	00cf9f93          	slli	x31,x31,0xc
    410163fc:	006f8f93          	addi	x31,x31,6
    41016400:	00000073          	ecall
    41016404:	0009a137          	lui	x2,0x9a
    41016408:	00013383          	ld	x7,0(x2) # 9a000 <tp_csr_storage>
    4101640c:	0e81cfb7          	lui	x31,0xe81c
    41016410:	e6ff8f9b          	addiw	x31,x31,-401 # e81be6f <mem6__pt_level4+0x47ff637>
    41016414:	00cf9f93          	slli	x31,x31,0xc
    41016418:	5b5f8f93          	addi	x31,x31,1461
    4101641c:	00ef9f93          	slli	x31,x31,0xe
    41016420:	0a0f8f93          	addi	x31,x31,160
    41016424:	00c00f13          	li	x30,12
    41016428:	01efb023          	sd	x30,0(x31)
    4101642c:	000f0fb7          	lui	x31,0xf0
    41016430:	001f8f9b          	addiw	x31,x31,1 # f0001 <tp_csr_storage+0x56001>
    41016434:	00cf9f93          	slli	x31,x31,0xc
    41016438:	005f8f93          	addi	x31,x31,5
    4101643c:	00000073          	ecall

0000000041016440 <SID_PBVMS_022_satp_csr_accessibility_passed>:
    41016440:	00f00f9b          	addiw	x31,x0,15
    41016444:	01cf9f93          	slli	x31,x31,0x1c
    41016448:	001f8f93          	addi	x31,x31,1
    4101644c:	00000073          	ecall

0000000041016450 <SID_PBVMS_023_satp_asidlen_discovery>:
    41016450:	0009a137          	lui	x2,0x9a
    41016454:	0e81cfb7          	lui	x31,0xe81c
    41016458:	e6ff8f9b          	addiw	x31,x31,-401 # e81be6f <mem6__pt_level4+0x47ff637>
    4101645c:	00cf9f93          	slli	x31,x31,0xc
    41016460:	5b5f8f93          	addi	x31,x31,1461
    41016464:	00ef9f93          	slli	x31,x31,0xe
    41016468:	0a0f8f93          	addi	x31,x31,160
    4101646c:	00700f13          	li	x30,7
    41016470:	01efb023          	sd	x30,0(x31)
    41016474:	000f0fb7          	lui	x31,0xf0
    41016478:	001f8f9b          	addiw	x31,x31,1 # f0001 <tp_csr_storage+0x56001>
    4101647c:	00cf9f93          	slli	x31,x31,0xc
    41016480:	005f8f93          	addi	x31,x31,5
    41016484:	00000073          	ecall
    41016488:	00713023          	sd	x7,0(x2) # 9a000 <tp_csr_storage>
    4101648c:	003b4137          	lui	x2,0x3b4
    41016490:	c6d1011b          	addiw	x2,x2,-915 # 3b3c6d <hart_stack_0_end+0x287c6d>
    41016494:	00f11113          	slli	x2,x2,0xf
    41016498:	83710113          	addi	x2,x2,-1993
    4101649c:	00f11113          	slli	x2,x2,0xf
    410164a0:	000012b7          	lui	x5,0x1
    410164a4:	00510133          	add	x2,x2,x5
    410164a8:	ff017113          	andi	x2,x2,-16
    410164ac:	0e81cfb7          	lui	x31,0xe81c
    410164b0:	e6ff8f9b          	addiw	x31,x31,-401 # e81be6f <mem6__pt_level4+0x47ff637>
    410164b4:	00cf9f93          	slli	x31,x31,0xc
    410164b8:	5b5f8f93          	addi	x31,x31,1461
    410164bc:	00ef9f93          	slli	x31,x31,0xe
    410164c0:	0a8f8f93          	addi	x31,x31,168
    410164c4:	00800f13          	li	x30,8
    410164c8:	01efb023          	sd	x30,0(x31)
    410164cc:	000f0fb7          	lui	x31,0xf0
    410164d0:	001f8f9b          	addiw	x31,x31,1 # f0001 <tp_csr_storage+0x56001>
    410164d4:	00cf9f93          	slli	x31,x31,0xc
    410164d8:	006f8f93          	addi	x31,x31,6
    410164dc:	00000073          	ecall
    410164e0:	00038d93          	mv	x27,x7
    410164e4:	00010337          	lui	x6,0x10
    410164e8:	fff3031b          	addiw	x6,x6,-1 # ffff <mem21__pt_level0+0xfff>
    410164ec:	02c31313          	slli	x6,x6,0x2c
    410164f0:	006dea33          	or	x20,x27,x6
    410164f4:	000a0393          	mv	x7,x20
    410164f8:	0e81cfb7          	lui	x31,0xe81c
    410164fc:	e6ff8f9b          	addiw	x31,x31,-401 # e81be6f <mem6__pt_level4+0x47ff637>
    41016500:	00cf9f93          	slli	x31,x31,0xc
    41016504:	5b5f8f93          	addi	x31,x31,1461
    41016508:	00ef9f93          	slli	x31,x31,0xe
    4101650c:	0a8f8f93          	addi	x31,x31,168
    41016510:	00b00f13          	li	x30,11
    41016514:	01efb023          	sd	x30,0(x31)
    41016518:	000f0fb7          	lui	x31,0xf0
    4101651c:	001f8f9b          	addiw	x31,x31,1 # f0001 <tp_csr_storage+0x56001>
    41016520:	00cf9f93          	slli	x31,x31,0xc
    41016524:	006f8f93          	addi	x31,x31,6
    41016528:	00000073          	ecall
    4101652c:	0e81cfb7          	lui	x31,0xe81c
    41016530:	e6ff8f9b          	addiw	x31,x31,-401 # e81be6f <mem6__pt_level4+0x47ff637>
    41016534:	00cf9f93          	slli	x31,x31,0xc
    41016538:	5b5f8f93          	addi	x31,x31,1461
    4101653c:	00ef9f93          	slli	x31,x31,0xe
    41016540:	0a8f8f93          	addi	x31,x31,168
    41016544:	00800f13          	li	x30,8
    41016548:	01efb023          	sd	x30,0(x31)
    4101654c:	000f0fb7          	lui	x31,0xf0
    41016550:	001f8f9b          	addiw	x31,x31,1 # f0001 <tp_csr_storage+0x56001>
    41016554:	00cf9f93          	slli	x31,x31,0xc
    41016558:	006f8f93          	addi	x31,x31,6
    4101655c:	00000073          	ecall
    41016560:	00038f93          	mv	x31,x7
    41016564:	02c00e13          	li	x28,44
    41016568:	01cfde33          	srl	x28,x31,x28
    4101656c:	00010937          	lui	x18,0x10
    41016570:	fff9091b          	addiw	x18,x18,-1 # ffff <mem21__pt_level0+0xfff>
    41016574:	012e7a33          	and	x20,x28,x18
    41016578:	032a0263          	beq	x20,x18,4101659c <pass_label_2>
    4101657c:	0e81c337          	lui	x6,0xe81c
    41016580:	e6f3031b          	addiw	x6,x6,-401 # e81be6f <mem6__pt_level4+0x47ff637>
    41016584:	00c31313          	slli	x6,x6,0xc
    41016588:	5b530313          	addi	x6,x6,1461
    4101658c:	00e31313          	slli	x6,x6,0xe
    41016590:	00830313          	addi	x6,x6,8
    41016594:	00033b83          	ld	x23,0(x6)
    41016598:	000b8067          	jr	x23

000000004101659c <pass_label_2>:
    4101659c:	0009a137          	lui	x2,0x9a
    410165a0:	00013383          	ld	x7,0(x2) # 9a000 <tp_csr_storage>
    410165a4:	0e81cfb7          	lui	x31,0xe81c
    410165a8:	e6ff8f9b          	addiw	x31,x31,-401 # e81be6f <mem6__pt_level4+0x47ff637>
    410165ac:	00cf9f93          	slli	x31,x31,0xc
    410165b0:	5b5f8f93          	addi	x31,x31,1461
    410165b4:	00ef9f93          	slli	x31,x31,0xe
    410165b8:	0a0f8f93          	addi	x31,x31,160
    410165bc:	00c00f13          	li	x30,12
    410165c0:	01efb023          	sd	x30,0(x31)
    410165c4:	000f0fb7          	lui	x31,0xf0
    410165c8:	001f8f9b          	addiw	x31,x31,1 # f0001 <tp_csr_storage+0x56001>
    410165cc:	00cf9f93          	slli	x31,x31,0xc
    410165d0:	005f8f93          	addi	x31,x31,5
    410165d4:	00000073          	ecall

00000000410165d8 <SID_PBVMS_023_satp_asidlen_discovery_passed>:
    410165d8:	00f00f9b          	addiw	x31,x0,15
    410165dc:	01cf9f93          	slli	x31,x31,0x1c
    410165e0:	001f8f93          	addi	x31,x31,1
    410165e4:	00000073          	ecall

00000000410165e8 <SID_PBVMS_027_satp_user_mode_fault>:
    410165e8:	01f29137          	lui	x2,0x1f29
    410165ec:	9011011b          	addiw	x2,x2,-1791 # 1f28901 <mem11__pt_level2+0xee6901>
    410165f0:	00d11113          	slli	x2,x2,0xd
    410165f4:	d8f10113          	addi	x2,x2,-625
    410165f8:	00c11113          	slli	x2,x2,0xc
    410165fc:	000012b7          	lui	x5,0x1
    41016600:	00510133          	add	x2,x2,x5
    41016604:	ff017113          	andi	x2,x2,-16
    41016608:	397a8237          	lui	x4,0x397a8
    4101660c:	ebd2021b          	addiw	x4,x4,-323 # 397a7ebd <mem13+0x824eebd>
    41016610:	00d21213          	slli	x4,x4,0xd
    41016614:	81120213          	addi	x4,x4,-2031 # fffffffffffff811 <mem6+0xf8fffffffff811>
    41016618:	00d21213          	slli	x4,x4,0xd
    4101661c:	00200e13          	li	x28,2
    41016620:	05c23823          	sd	x28,80(x4) # 50 <XLEN+0x10>
    41016624:	00000e17          	auipc	x28,0x0
    41016628:	048e0e13          	addi	x28,x28,72 # 4101666c <fault_label_11>
    4101662c:	03c23023          	sd	x28,32(x4) # 20 <SECURE_ACCESS_PROBABILITY+0x2>
    41016630:	00000e13          	li	x28,0
    41016634:	05c23023          	sd	x28,64(x4) # 40 <XLEN>
    41016638:	00000e13          	li	x28,0
    4101663c:	05c23423          	sd	x28,72(x4) # 48 <XLEN+0x8>
    41016640:	00000e17          	auipc	x28,0x0
    41016644:	054e0e13          	addi	x28,x28,84 # 41016694 <excp_return_label_11>
    41016648:	03c23823          	sd	x28,48(x4) # 30 <SECURE_ACCESS_PROBABILITY+0x12>
    4101664c:	00000e13          	li	x28,0
    41016650:	03c23c23          	sd	x28,56(x4) # 38 <SECURE_ACCESS_PROBABILITY+0x1a>
    41016654:	00000e13          	li	x28,0
    41016658:	07c23023          	sd	x28,96(x4) # 60 <XLEN+0x20>
    4101665c:	00000e13          	li	x28,0
    41016660:	07c23423          	sd	x28,104(x4) # 68 <XLEN+0x28>
    41016664:	00000e13          	li	x28,0
    41016668:	07c23823          	sd	x28,112(x4) # 70 <XLEN+0x30>

000000004101666c <fault_label_11>:
    4101666c:	180023f3          	csrr	x7,satp
    41016670:	00038413          	mv	x8,x7
    41016674:	0e81cfb7          	lui	x31,0xe81c
    41016678:	e6ff8f9b          	addiw	x31,x31,-401 # e81be6f <mem6__pt_level4+0x47ff637>
    4101667c:	00cf9f93          	slli	x31,x31,0xc
    41016680:	5b5f8f93          	addi	x31,x31,1461
    41016684:	00ef9f93          	slli	x31,x31,0xe
    41016688:	008f8f93          	addi	x31,x31,8
    4101668c:	000fb883          	ld	x17,0(x31)
    41016690:	00088067          	jr	x17

0000000041016694 <excp_return_label_11>:
    41016694:	397a8237          	lui	x4,0x397a8
    41016698:	ebd2021b          	addiw	x4,x4,-323 # 397a7ebd <mem13+0x824eebd>
    4101669c:	00d21213          	slli	x4,x4,0xd
    410166a0:	81120213          	addi	x4,x4,-2031 # fffffffffffff811 <mem6+0xf8fffffffff811>
    410166a4:	00d21213          	slli	x4,x4,0xd
    410166a8:	00200e13          	li	x28,2
    410166ac:	05c23823          	sd	x28,80(x4) # 50 <XLEN+0x10>
    410166b0:	00000e17          	auipc	x28,0x0
    410166b4:	04ce0e13          	addi	x28,x28,76 # 410166fc <fault_label_12>
    410166b8:	03c23023          	sd	x28,32(x4) # 20 <SECURE_ACCESS_PROBABILITY+0x2>
    410166bc:	00000e13          	li	x28,0
    410166c0:	05c23023          	sd	x28,64(x4) # 40 <XLEN>
    410166c4:	00000e13          	li	x28,0
    410166c8:	05c23423          	sd	x28,72(x4) # 48 <XLEN+0x8>
    410166cc:	00000e17          	auipc	x28,0x0
    410166d0:	054e0e13          	addi	x28,x28,84 # 41016720 <SID_PBVMS_027_satp_user_mode_fault_passed>
    410166d4:	03c23823          	sd	x28,48(x4) # 30 <SECURE_ACCESS_PROBABILITY+0x12>
    410166d8:	00000e13          	li	x28,0
    410166dc:	03c23c23          	sd	x28,56(x4) # 38 <SECURE_ACCESS_PROBABILITY+0x1a>
    410166e0:	00000e13          	li	x28,0
    410166e4:	07c23023          	sd	x28,96(x4) # 60 <XLEN+0x20>
    410166e8:	00000e13          	li	x28,0
    410166ec:	07c23423          	sd	x28,104(x4) # 68 <XLEN+0x28>
    410166f0:	00000e13          	li	x28,0
    410166f4:	07c23823          	sd	x28,112(x4) # 70 <XLEN+0x30>
    410166f8:	00000393          	li	x7,0

00000000410166fc <fault_label_12>:
    410166fc:	180393f3          	csrrw	x7,satp,x7
    41016700:	0e81c637          	lui	x12,0xe81c
    41016704:	e6f6061b          	addiw	x12,x12,-401 # e81be6f <mem6__pt_level4+0x47ff637>
    41016708:	00c61613          	slli	x12,x12,0xc
    4101670c:	5b560613          	addi	x12,x12,1461
    41016710:	00e61613          	slli	x12,x12,0xe
    41016714:	00860613          	addi	x12,x12,8
    41016718:	00063783          	ld	x15,0(x12)
    4101671c:	00078067          	jr	x15

0000000041016720 <SID_PBVMS_027_satp_user_mode_fault_passed>:
    41016720:	00f00f9b          	addiw	x31,x0,15
    41016724:	01cf9f93          	slli	x31,x31,0x1c
    41016728:	001f8f93          	addi	x31,x31,1
    4101672c:	00000073          	ecall

0000000041016730 <SID_PBVMS_040_context_table_overflow>:
    41016730:	0009a137          	lui	x2,0x9a
    41016734:	0e81cfb7          	lui	x31,0xe81c
    41016738:	e6ff8f9b          	addiw	x31,x31,-401 # e81be6f <mem6__pt_level4+0x47ff637>
    4101673c:	00cf9f93          	slli	x31,x31,0xc
    41016740:	5b5f8f93          	addi	x31,x31,1461
    41016744:	00ef9f93          	slli	x31,x31,0xe
    41016748:	0a0f8f93          	addi	x31,x31,160
    4101674c:	00700f13          	li	x30,7
    41016750:	01efb023          	sd	x30,0(x31)
    41016754:	000f0fb7          	lui	x31,0xf0
    41016758:	001f8f9b          	addiw	x31,x31,1 # f0001 <tp_csr_storage+0x56001>
    4101675c:	00cf9f93          	slli	x31,x31,0xc
    41016760:	005f8f93          	addi	x31,x31,5
    41016764:	00000073          	ecall
    41016768:	00713023          	sd	x7,0(x2) # 9a000 <tp_csr_storage>
    4101676c:	566c8137          	lui	x2,0x566c8
    41016770:	000012b7          	lui	x5,0x1
    41016774:	00510133          	add	x2,x2,x5
    41016778:	ff017113          	andi	x2,x2,-16
    4101677c:	0010039b          	addiw	x7,x0,1
    41016780:	02c39393          	slli	x7,x7,0x2c
    41016784:	0e81cfb7          	lui	x31,0xe81c
    41016788:	e6ff8f9b          	addiw	x31,x31,-401 # e81be6f <mem6__pt_level4+0x47ff637>
    4101678c:	00cf9f93          	slli	x31,x31,0xc
    41016790:	5b5f8f93          	addi	x31,x31,1461
    41016794:	00ef9f93          	slli	x31,x31,0xe
    41016798:	0a8f8f93          	addi	x31,x31,168
    4101679c:	00900f13          	li	x30,9
    410167a0:	01efb023          	sd	x30,0(x31)
    410167a4:	000f0fb7          	lui	x31,0xf0
    410167a8:	001f8f9b          	addiw	x31,x31,1 # f0001 <tp_csr_storage+0x56001>
    410167ac:	00cf9f93          	slli	x31,x31,0xc
    410167b0:	006f8f93          	addi	x31,x31,6
    410167b4:	00000073          	ecall
    410167b8:	295f6837          	lui	x16,0x295f6
    410167bc:	00080f83          	lb	x31,0(x16) # 295f6000 <mem23>
    410167c0:	293b6637          	lui	x12,0x293b6
    410167c4:	000600e7          	jalr	x12 # 293b6000 <code_mem24>
    410167c8:	0010039b          	addiw	x7,x0,1
    410167cc:	02d39393          	slli	x7,x7,0x2d
    410167d0:	0e81cfb7          	lui	x31,0xe81c
    410167d4:	e6ff8f9b          	addiw	x31,x31,-401 # e81be6f <mem6__pt_level4+0x47ff637>
    410167d8:	00cf9f93          	slli	x31,x31,0xc
    410167dc:	5b5f8f93          	addi	x31,x31,1461
    410167e0:	00ef9f93          	slli	x31,x31,0xe
    410167e4:	0a8f8f93          	addi	x31,x31,168
    410167e8:	00900f13          	li	x30,9
    410167ec:	01efb023          	sd	x30,0(x31)
    410167f0:	000f0fb7          	lui	x31,0xf0
    410167f4:	001f8f9b          	addiw	x31,x31,1 # f0001 <tp_csr_storage+0x56001>
    410167f8:	00cf9f93          	slli	x31,x31,0xc
    410167fc:	006f8f93          	addi	x31,x31,6
    41016800:	00000073          	ecall
    41016804:	295f6b37          	lui	x22,0x295f6
    41016808:	000b5e03          	lhu	x28,0(x22) # 295f6000 <mem23>
    4101680c:	293b68b7          	lui	x17,0x293b6
    41016810:	000880e7          	jalr	x17 # 293b6000 <code_mem24>
    41016814:	0030039b          	addiw	x7,x0,3
    41016818:	02c39393          	slli	x7,x7,0x2c
    4101681c:	0e81cfb7          	lui	x31,0xe81c
    41016820:	e6ff8f9b          	addiw	x31,x31,-401 # e81be6f <mem6__pt_level4+0x47ff637>
    41016824:	00cf9f93          	slli	x31,x31,0xc
    41016828:	5b5f8f93          	addi	x31,x31,1461
    4101682c:	00ef9f93          	slli	x31,x31,0xe
    41016830:	0a8f8f93          	addi	x31,x31,168
    41016834:	00900f13          	li	x30,9
    41016838:	01efb023          	sd	x30,0(x31)
    4101683c:	000f0fb7          	lui	x31,0xf0
    41016840:	001f8f9b          	addiw	x31,x31,1 # f0001 <tp_csr_storage+0x56001>
    41016844:	00cf9f93          	slli	x31,x31,0xc
    41016848:	006f8f93          	addi	x31,x31,6
    4101684c:	00000073          	ecall
    41016850:	295f65b7          	lui	x11,0x295f6
    41016854:	0005c303          	lbu	x6,0(x11) # 295f6000 <mem23>
    41016858:	293b6837          	lui	x16,0x293b6
    4101685c:	000800e7          	jalr	x16 # 293b6000 <code_mem24>
    41016860:	0010039b          	addiw	x7,x0,1
    41016864:	02e39393          	slli	x7,x7,0x2e
    41016868:	0e81cfb7          	lui	x31,0xe81c
    4101686c:	e6ff8f9b          	addiw	x31,x31,-401 # e81be6f <mem6__pt_level4+0x47ff637>
    41016870:	00cf9f93          	slli	x31,x31,0xc
    41016874:	5b5f8f93          	addi	x31,x31,1461
    41016878:	00ef9f93          	slli	x31,x31,0xe
    4101687c:	0a8f8f93          	addi	x31,x31,168
    41016880:	00900f13          	li	x30,9
    41016884:	01efb023          	sd	x30,0(x31)
    41016888:	000f0fb7          	lui	x31,0xf0
    4101688c:	001f8f9b          	addiw	x31,x31,1 # f0001 <tp_csr_storage+0x56001>
    41016890:	00cf9f93          	slli	x31,x31,0xc
    41016894:	006f8f93          	addi	x31,x31,6
    41016898:	00000073          	ecall
    4101689c:	295f64b7          	lui	x9,0x295f6
    410168a0:	0004cb03          	lbu	x22,0(x9) # 295f6000 <mem23>
    410168a4:	293b69b7          	lui	x19,0x293b6
    410168a8:	000980e7          	jalr	x19 # 293b6000 <code_mem24>
    410168ac:	0010039b          	addiw	x7,x0,1
    410168b0:	02c39393          	slli	x7,x7,0x2c
    410168b4:	0e81cfb7          	lui	x31,0xe81c
    410168b8:	e6ff8f9b          	addiw	x31,x31,-401 # e81be6f <mem6__pt_level4+0x47ff637>
    410168bc:	00cf9f93          	slli	x31,x31,0xc
    410168c0:	5b5f8f93          	addi	x31,x31,1461
    410168c4:	00ef9f93          	slli	x31,x31,0xe
    410168c8:	0a8f8f93          	addi	x31,x31,168
    410168cc:	00900f13          	li	x30,9
    410168d0:	01efb023          	sd	x30,0(x31)
    410168d4:	000f0fb7          	lui	x31,0xf0
    410168d8:	001f8f9b          	addiw	x31,x31,1 # f0001 <tp_csr_storage+0x56001>
    410168dc:	00cf9f93          	slli	x31,x31,0xc
    410168e0:	006f8f93          	addi	x31,x31,6
    410168e4:	00000073          	ecall
    410168e8:	295f68b7          	lui	x17,0x295f6
    410168ec:	0008df03          	lhu	x30,0(x17) # 295f6000 <mem23>
    410168f0:	293b6937          	lui	x18,0x293b6
    410168f4:	000900e7          	jalr	x18 # 293b6000 <code_mem24>
    410168f8:	0009a137          	lui	x2,0x9a
    410168fc:	00013383          	ld	x7,0(x2) # 9a000 <tp_csr_storage>
    41016900:	0e81cfb7          	lui	x31,0xe81c
    41016904:	e6ff8f9b          	addiw	x31,x31,-401 # e81be6f <mem6__pt_level4+0x47ff637>
    41016908:	00cf9f93          	slli	x31,x31,0xc
    4101690c:	5b5f8f93          	addi	x31,x31,1461
    41016910:	00ef9f93          	slli	x31,x31,0xe
    41016914:	0a0f8f93          	addi	x31,x31,160
    41016918:	00c00f13          	li	x30,12
    4101691c:	01efb023          	sd	x30,0(x31)
    41016920:	000f0fb7          	lui	x31,0xf0
    41016924:	001f8f9b          	addiw	x31,x31,1 # f0001 <tp_csr_storage+0x56001>
    41016928:	00cf9f93          	slli	x31,x31,0xc
    4101692c:	005f8f93          	addi	x31,x31,5
    41016930:	00000073          	ecall

0000000041016934 <SID_PBVMS_040_context_table_overflow_passed>:
    41016934:	00f00f9b          	addiw	x31,x0,15
    41016938:	01cf9f93          	slli	x31,x31,0x1c
    4101693c:	001f8f93          	addi	x31,x31,1
    41016940:	00000073          	ecall

0000000041016944 <SID_PBVMS_042_canonical_boundary_crossing_fault>:
    41016944:	0009a137          	lui	x2,0x9a
    41016948:	8791011b          	addiw	x2,x2,-1927 # 99879 <pma_region_0_size+0x59879>
    4101694c:	01311113          	slli	x2,x2,0x13
    41016950:	000012b7          	lui	x5,0x1
    41016954:	00510133          	add	x2,x2,x5
    41016958:	ff017113          	andi	x2,x2,-16
    4101695c:	397a8237          	lui	x4,0x397a8
    41016960:	ebd2021b          	addiw	x4,x4,-323 # 397a7ebd <mem13+0x824eebd>
    41016964:	00d21213          	slli	x4,x4,0xd
    41016968:	81120213          	addi	x4,x4,-2031 # fffffffffffff811 <mem6+0xf8fffffffff811>
    4101696c:	00d21213          	slli	x4,x4,0xd
    41016970:	00d00e13          	li	x28,13
    41016974:	05c23823          	sd	x28,80(x4) # 50 <XLEN+0x10>
    41016978:	00000e17          	auipc	x28,0x0
    4101697c:	058e0e13          	addi	x28,x28,88 # 410169d0 <fault_label_13>
    41016980:	03c23023          	sd	x28,32(x4) # 20 <SECURE_ACCESS_PROBABILITY+0x2>
    41016984:	00000e13          	li	x28,0
    41016988:	05c23023          	sd	x28,64(x4) # 40 <XLEN>
    4101698c:	00000e13          	li	x28,0
    41016990:	05c23423          	sd	x28,72(x4) # 48 <XLEN+0x8>
    41016994:	00000e17          	auipc	x28,0x0
    41016998:	060e0e13          	addi	x28,x28,96 # 410169f4 <SID_PBVMS_042_canonical_boundary_crossing_fault_passed>
    4101699c:	03c23823          	sd	x28,48(x4) # 30 <SECURE_ACCESS_PROBABILITY+0x12>
    410169a0:	00000e13          	li	x28,0
    410169a4:	03c23c23          	sd	x28,56(x4) # 38 <SECURE_ACCESS_PROBABILITY+0x1a>
    410169a8:	00000e13          	li	x28,0
    410169ac:	07c23023          	sd	x28,96(x4) # 60 <XLEN+0x20>
    410169b0:	00000e13          	li	x28,0
    410169b4:	07c23423          	sd	x28,104(x4) # 68 <XLEN+0x28>
    410169b8:	00000e13          	li	x28,0
    410169bc:	07c23823          	sd	x28,112(x4) # 70 <XLEN+0x30>
    410169c0:	0000d3b7          	lui	x7,0xd
    410169c4:	fff0099b          	addiw	x19,x0,-1
    410169c8:	03f99993          	slli	x19,x19,0x3f
    410169cc:	013386b3          	add	x13,x7,x19

00000000410169d0 <fault_label_13>:
    410169d0:	0006a607          	flw	f12,0(x13)
    410169d4:	0e81c537          	lui	x10,0xe81c
    410169d8:	e6f5051b          	addiw	x10,x10,-401 # e81be6f <mem6__pt_level4+0x47ff637>
    410169dc:	00c51513          	slli	x10,x10,0xc
    410169e0:	5b550513          	addi	x10,x10,1461
    410169e4:	00e51513          	slli	x10,x10,0xe
    410169e8:	00850513          	addi	x10,x10,8
    410169ec:	00053783          	ld	x15,0(x10)
    410169f0:	00078067          	jr	x15

00000000410169f4 <SID_PBVMS_042_canonical_boundary_crossing_fault_passed>:
    410169f4:	00f00f9b          	addiw	x31,x0,15
    410169f8:	01cf9f93          	slli	x31,x31,0x1c
    410169fc:	001f8f93          	addi	x31,x31,1
    41016a00:	00000073          	ecall

0000000041016a04 <SID_PBVMS_043_fetch_window_spill_page_cross>:
    41016a04:	03992137          	lui	x2,0x3992
    41016a08:	000012b7          	lui	x5,0x1
    41016a0c:	00510133          	add	x2,x2,x5
    41016a10:	ff017113          	andi	x2,x2,-16
    41016a14:	0005fc37          	lui	x24,0x5f
    41016a18:	a6bc0c1b          	addiw	x24,x24,-1429 # 5ea6b <pma_region_0_size+0x1ea6b>
    41016a1c:	00dc1c13          	slli	x24,x24,0xd
    41016a20:	dbfc0c13          	addi	x24,x24,-577
    41016a24:	00cc1c13          	slli	x24,x24,0xc
    41016a28:	000c00e7          	jalr	x24

0000000041016a2c <SID_PBVMS_043_fetch_window_spill_page_cross_passed>:
    41016a2c:	00f00f9b          	addiw	x31,x0,15
    41016a30:	01cf9f93          	slli	x31,x31,0x1c
    41016a34:	001f8f93          	addi	x31,x31,1
    41016a38:	00000073          	ecall

0000000041016a3c <test_cleanup>:
    41016a3c:	00f00f9b          	addiw	x31,x0,15
    41016a40:	01cf9f93          	slli	x31,x31,0x1c
    41016a44:	001f8f93          	addi	x31,x31,1
    41016a48:	00000073          	ecall

0000000041016a4c <local_test_failed>:
    41016a4c:	00f00f9b          	addiw	x31,x0,15
    41016a50:	01cf9f93          	slli	x31,x31,0x1c
    41016a54:	002f8f93          	addi	x31,x31,2
    41016a58:	00000073          	ecall

Disassembly of section .csr_machine_0:

0000000041389000 <csr_access_mstatus_machine_key_6_write-0x50>:
    41389000:	41b82fb7          	lui	x31,0x41b82
    41389004:	0a0f8f9b          	addiw	x31,x31,160 # 41b820a0 <machine_csr_jump_table_flags_pa>
    41389008:	000fbf83          	ld	x31,0(x31)
    4138900c:	00600293          	li	x5,6
    41389010:	045f8063          	beq	x31,x5,41389050 <csr_access_mstatus_machine_key_6_write>
    41389014:	00100293          	li	x5,1
    41389018:	045f8063          	beq	x31,x5,41389058 <csr_access_mstatus_machine_key_1_read>
    4138901c:	00200293          	li	x5,2
    41389020:	045f8063          	beq	x31,x5,41389060 <csr_access_mstatus_machine_key_2_set>
    41389024:	00300293          	li	x5,3
    41389028:	045f8063          	beq	x31,x5,41389068 <csr_access_mstatus_machine_key_3_clear>
    4138902c:	00c00293          	li	x5,12
    41389030:	045f8063          	beq	x31,x5,41389070 <csr_access_satp_supervisor_key_12_write>
    41389034:	00700293          	li	x5,7
    41389038:	045f8063          	beq	x31,x5,41389078 <csr_access_satp_supervisor_key_7_read>
    4138903c:	01000293          	li	x5,16
    41389040:	045f8063          	beq	x31,x5,41389080 <csr_access_mtvec_machine_key_16_set>
    41389044:	00f00293          	li	x5,15
    41389048:	045f8063          	beq	x31,x5,41389088 <csr_access_mtvec_machine_key_15_clear>
    4138904c:	0440006f          	j	41389090 <end_machine_label>

0000000041389050 <csr_access_mstatus_machine_key_6_write>:
    41389050:	30039073          	csrw	mstatus,x7
    41389054:	03c0006f          	j	41389090 <end_machine_label>

0000000041389058 <csr_access_mstatus_machine_key_1_read>:
    41389058:	300023f3          	csrr	x7,mstatus
    4138905c:	0340006f          	j	41389090 <end_machine_label>

0000000041389060 <csr_access_mstatus_machine_key_2_set>:
    41389060:	3003a073          	csrs	mstatus,x7
    41389064:	02c0006f          	j	41389090 <end_machine_label>

0000000041389068 <csr_access_mstatus_machine_key_3_clear>:
    41389068:	3003b073          	csrc	mstatus,x7
    4138906c:	0240006f          	j	41389090 <end_machine_label>

0000000041389070 <csr_access_satp_supervisor_key_12_write>:
    41389070:	18039073          	csrw	satp,x7
    41389074:	01c0006f          	j	41389090 <end_machine_label>

0000000041389078 <csr_access_satp_supervisor_key_7_read>:
    41389078:	180023f3          	csrr	x7,satp
    4138907c:	0140006f          	j	41389090 <end_machine_label>

0000000041389080 <csr_access_mtvec_machine_key_16_set>:
    41389080:	3053a073          	csrs	mtvec,x7
    41389084:	00c0006f          	j	41389090 <end_machine_label>

0000000041389088 <csr_access_mtvec_machine_key_15_clear>:
    41389088:	3053b073          	csrc	mtvec,x7
    4138908c:	0040006f          	j	41389090 <end_machine_label>

0000000041389090 <end_machine_label>:
    41389090:	000f0fb7          	lui	x31,0xf0
    41389094:	001f8f9b          	addiw	x31,x31,1 # f0001 <tp_csr_storage+0x56001>
    41389098:	00cf9f93          	slli	x31,x31,0xc
    4138909c:	004f8f93          	addi	x31,x31,4
    413890a0:	00000073          	ecall

Disassembly of section .csr_super_0:

000000004138a000 <csr_access_satp_supervisor_key_11_write-0x60>:
    4138a000:	0e81cfb7          	lui	x31,0xe81c
    4138a004:	e6ff8f9b          	addiw	x31,x31,-401 # e81be6f <mem6__pt_level4+0x47ff637>
    4138a008:	00cf9f93          	slli	x31,x31,0xc
    4138a00c:	5b5f8f93          	addi	x31,x31,1461
    4138a010:	00ef9f93          	slli	x31,x31,0xe
    4138a014:	0a8f8f93          	addi	x31,x31,168
    4138a018:	000fbf83          	ld	x31,0(x31)
    4138a01c:	00800293          	li	x5,8
    4138a020:	045f8463          	beq	x31,x5,4138a068 <csr_access_satp_supervisor_key_8_read>
    4138a024:	00b00293          	li	x5,11
    4138a028:	025f8c63          	beq	x31,x5,4138a060 <csr_access_satp_supervisor_key_11_write>
    4138a02c:	00900293          	li	x5,9
    4138a030:	045f8063          	beq	x31,x5,4138a070 <csr_access_satp_supervisor_key_9_set>
    4138a034:	00a00293          	li	x5,10
    4138a038:	045f8063          	beq	x31,x5,4138a078 <csr_access_satp_supervisor_key_10_clear>
    4138a03c:	00e00293          	li	x5,14
    4138a040:	045f8063          	beq	x31,x5,4138a080 <csr_access_sstatus_supervisor_key_14_set>
    4138a044:	00d00293          	li	x5,13
    4138a048:	045f8063          	beq	x31,x5,4138a088 <csr_access_sstatus_supervisor_key_13_clear>
    4138a04c:	01200293          	li	x5,18
    4138a050:	045f8063          	beq	x31,x5,4138a090 <csr_access_stvec_supervisor_key_18_set>
    4138a054:	01100293          	li	x5,17
    4138a058:	045f8063          	beq	x31,x5,4138a098 <csr_access_stvec_supervisor_key_17_clear>
    4138a05c:	0440006f          	j	4138a0a0 <end_super_label>

000000004138a060 <csr_access_satp_supervisor_key_11_write>:
    4138a060:	18039073          	csrw	satp,x7
    4138a064:	03c0006f          	j	4138a0a0 <end_super_label>

000000004138a068 <csr_access_satp_supervisor_key_8_read>:
    4138a068:	180023f3          	csrr	x7,satp
    4138a06c:	0340006f          	j	4138a0a0 <end_super_label>

000000004138a070 <csr_access_satp_supervisor_key_9_set>:
    4138a070:	1803a073          	csrs	satp,x7
    4138a074:	02c0006f          	j	4138a0a0 <end_super_label>

000000004138a078 <csr_access_satp_supervisor_key_10_clear>:
    4138a078:	1803b073          	csrc	satp,x7
    4138a07c:	0240006f          	j	4138a0a0 <end_super_label>

000000004138a080 <csr_access_sstatus_supervisor_key_14_set>:
    4138a080:	1003a073          	csrs	sstatus,x7
    4138a084:	01c0006f          	j	4138a0a0 <end_super_label>

000000004138a088 <csr_access_sstatus_supervisor_key_13_clear>:
    4138a088:	1003b073          	csrc	sstatus,x7
    4138a08c:	0140006f          	j	4138a0a0 <end_super_label>

000000004138a090 <csr_access_stvec_supervisor_key_18_set>:
    4138a090:	1053a073          	csrs	stvec,x7
    4138a094:	00c0006f          	j	4138a0a0 <end_super_label>

000000004138a098 <csr_access_stvec_supervisor_key_17_clear>:
    4138a098:	1053b073          	csrc	stvec,x7
    4138a09c:	0040006f          	j	4138a0a0 <end_super_label>

000000004138a0a0 <end_super_label>:
    4138a0a0:	000f0fb7          	lui	x31,0xf0
    4138a0a4:	001f8f9b          	addiw	x31,x31,1 # f0001 <tp_csr_storage+0x56001>
    4138a0a8:	00cf9f93          	slli	x31,x31,0xc
    4138a0ac:	004f8f93          	addi	x31,x31,4
    4138a0b0:	00000073          	ecall

Disassembly of section .os_data:

003a06f9bd6d4000 <passed_addr_ptr>:
  3a06f9bd6d4000:	50d0                	.insn	2, 0x50d0
  3a06f9bd6d4002:	4101                	.insn	2, 0x4101
  3a06f9bd6d4004:	0000                	.insn	2, 0x0000
	...

003a06f9bd6d4008 <failed_addr_ptr>:
  3a06f9bd6d4008:	50e0                	.insn	2, 0x50e0
  3a06f9bd6d400a:	4101                	.insn	2, 0x4101
  3a06f9bd6d400c:	0000                	.insn	2, 0x0000
	...

003a06f9bd6d4010 <end_test_addr_ptr>:
  3a06f9bd6d4010:	50f0                	.insn	2, 0x50f0
  3a06f9bd6d4012:	4101                	.insn	2, 0x4101
  3a06f9bd6d4014:	0000                	.insn	2, 0x0000
	...

003a06f9bd6d4018 <os_passed_addr_ptr>:
  3a06f9bd6d4018:	07b0                	.insn	2, 0x07b0
  3a06f9bd6d401a:	4100                	.insn	2, 0x4100
  3a06f9bd6d401c:	0000                	.insn	2, 0x0000
	...

003a06f9bd6d4020 <os_failed_addr_ptr>:
  3a06f9bd6d4020:	07c0                	.insn	2, 0x07c0
  3a06f9bd6d4022:	4100                	.insn	2, 0x4100
  3a06f9bd6d4024:	0000                	.insn	2, 0x0000
	...

003a06f9bd6d4028 <os_end_test_addr_ptr>:
  3a06f9bd6d4028:	07cc                	.insn	2, 0x07cc
  3a06f9bd6d402a:	4100                	.insn	2, 0x4100
  3a06f9bd6d402c:	0000                	.insn	2, 0x0000
	...

003a06f9bd6d4030 <rvcp_prefix_str_data>:
  3a06f9bd6d4030:	5652                	.insn	2, 0x5652
  3a06f9bd6d4032:	203a5043          	fmadd.s	f0,f20,f3,f4,unknown
  3a06f9bd6d4036:	6554                	.insn	2, 0x6554
  3a06f9bd6d4038:	46207473          	csrrci	x8,0x462,0
  3a06f9bd6d403c:	6c69                	.insn	2, 0x6c69
  3a06f9bd6d403e:	2065                	.insn	2, 0x2065
	...

003a06f9bd6d4041 <rvcp_testname_str_data>:
  3a06f9bd6d4041:	7074                	.insn	2, 0x7074
  3a06f9bd6d4043:	705f 6761 6e69      	.insn	6, 0x6e696761705f
  3a06f9bd6d4049:	00315f67          	.insn	4, 0x00315f67

003a06f9bd6d404d <rvcp_passed_str_data>:
  3a06f9bd6d404d:	4150                	.insn	2, 0x4150
  3a06f9bd6d404f:	44455353          	fround.h	f6,f10,unknown
	...

003a06f9bd6d4054 <rvcp_failed_str_data>:
  3a06f9bd6d4054:	4146                	.insn	2, 0x4146
  3a06f9bd6d4056:	4c49                	.insn	2, 0x4c49
  3a06f9bd6d4058:	4445                	.insn	2, 0x4445
	...

003a06f9bd6d405b <rvcp_space_str_data>:
  3a06f9bd6d405b:	0020                	.insn	2, 0x0020

003a06f9bd6d405d <rvcp_newline_str_data>:
  3a06f9bd6d405d:	000a                	.insn	2, 0x000a
	...

003a06f9bd6d4060 <excp_ignored_count_mem>:
	...

003a06f9bd6d4068 <machine_flags_mem>:
	...

003a06f9bd6d4070 <user_flags_mem>:
	...

003a06f9bd6d4078 <super_flags_mem>:
	...

003a06f9bd6d4080 <machine_area_mem>:
	...

003a06f9bd6d4088 <user_area_mem>:
	...

003a06f9bd6d4090 <super_area_mem>:
	...

003a06f9bd6d4098 <zero_data_mem>:
	...

003a06f9bd6d40a0 <machine_csr_jump_table_flags_mem>:
	...

003a06f9bd6d40a8 <super_csr_jump_table_flags_mem>:
	...

003a06f9bd6d40b0 <pte_access_flags_mem>:
	...

003a06f9bd6d40c8 <num_harts_ended_mem>:
	...

003a06f9bd6d40d0 <num_hard_fails_mem>:
	...

Disassembly of section .hart_context:

00e5e9faf3022000 <hart_context_0>:
  e5e9faf3022000:	c000                	.insn	2, 0xc000
  e5e9faf3022002:	0012                	.insn	2, 0x0012
	...
  e5e9faf3022018:	0001                	.insn	2, 0x0001
  e5e9faf302201a:	0000                	.insn	2, 0x0000
  e5e9faf302201c:	0000                	.insn	2, 0x0000
  e5e9faf302201e:	0000                	.insn	2, 0x0000
  e5e9faf3022020:	ffff                	.insn	2, 0xffff
  e5e9faf3022022:	ffff                	.insn	2, 0xffff
  e5e9faf3022024:	ffff                	.insn	2, 0xffff
  e5e9faf3022026:	ffff                	.insn	2, 0xffff
  e5e9faf3022028:	ffff                	.insn	2, 0xffff
  e5e9faf302202a:	ffff                	.insn	2, 0xffff
  e5e9faf302202c:	ffff                	.insn	2, 0xffff
  e5e9faf302202e:	ffff                	.insn	2, 0xffff
  e5e9faf3022030:	ffff                	.insn	2, 0xffff
  e5e9faf3022032:	ffff                	.insn	2, 0xffff
  e5e9faf3022034:	ffff                	.insn	2, 0xffff
  e5e9faf3022036:	ffff                	.insn	2, 0xffff
	...
  e5e9faf3022050:	00ff 0000 0000 0000 	.insn	10, 0x00ff00000000000000ff
  e5e9faf3022058:	00ff 
	...
  e5e9faf3022176:	0000                	.insn	2, 0x0000
  e5e9faf3022178:	ffff                	.insn	2, 0xffff
  e5e9faf302217a:	ffff                	.insn	2, 0xffff
  e5e9faf302217c:	ffff                	.insn	2, 0xffff
  e5e9faf302217e:	ffff                	.insn	2, 0xffff
	...
  e5e9faf3022188:	ffff                	.insn	2, 0xffff
  e5e9faf302218a:	ffff                	.insn	2, 0xffff
	...

Disassembly of section .hart_stack_0:

000000000012b000 <hart_stack_0>:
	...

Disassembly of section .io_htif:

0000000041040000 <tohost>:
	...

0000000041040040 <fromhost>:
	...

Disassembly of section .code_mem1:

0037c5e89eeb0000 <.code_mem1>:
  37c5e89eeb0000:	0020da17          	auipc	x20,0x20d
  37c5e89eeb0004:	7ed4db37          	lui	x22,0x7ed4d
  37c5e89eeb0008:	57eb0b1b          	addiw	x22,x22,1406 # 7ed4d57e <mem0+0x101b557e>
  37c5e89eeb000c:	000c3e37          	lui	x28,0xc3
  37c5e89eeb0010:	ce7e0e1b          	addiw	x28,x28,-793 # c2ce7 <tp_csr_storage+0x28ce7>
  37c5e89eeb0014:	00ce1e13          	slli	x28,x28,0xc
  37c5e89eeb0018:	f47e0e13          	addi	x28,x28,-185
  37c5e89eeb001c:	41cb093b          	subw	x18,x22,x28
  37c5e89eeb0020:	00008067          	ret

Disassembly of section .code_mem4:

0000000cc9d92000 <.code_mem4>:
   cc9d92000:	000d6eb7          	lui	x29,0xd6
   cc9d92004:	f4be8e9b          	addiw	x29,x29,-181 # d5f4b <tp_csr_storage+0x3bf4b>
   cc9d92008:	00ce9e93          	slli	x29,x29,0xc
   cc9d9200c:	3b5e8e93          	addi	x29,x29,949
   cc9d92010:	63ca86b7          	lui	x13,0x63ca8
   cc9d92014:	2906869b          	addiw	x13,x13,656 # 63ca8290 <SID_PBVMS_040_context_table_overflow_stack+0xd5e0290>
   cc9d92018:	02de9cb3          	mulh	x25,x29,x13
   cc9d9201c:	6ec9d4b7          	lui	x9,0x6ec9d
   cc9d92020:	2894849b          	addiw	x9,x9,649 # 6ec9d289 <mem0+0x105289>
   cc9d92024:	0009c937          	lui	x18,0x9c
   cc9d92028:	8119091b          	addiw	x18,x18,-2031 # 9b811 <tp_csr_storage+0x1811>
   cc9d9202c:	00c91913          	slli	x18,x18,0xc
   cc9d92030:	e7990913          	addi	x18,x18,-391
   cc9d92034:	41248333          	sub	x6,x9,x18
   cc9d92038:	000c33b7          	lui	x7,0xc3
   cc9d9203c:	24d3839b          	addiw	x7,x7,589 # c324d <tp_csr_storage+0x2924d>
   cc9d92040:	00c39393          	slli	x7,x7,0xc
   cc9d92044:	98838393          	addi	x7,x7,-1656
   cc9d92048:	000c4437          	lui	x8,0xc4
   cc9d9204c:	6474041b          	addiw	x8,x8,1607 # c4647 <tp_csr_storage+0x2a647>
   cc9d92050:	00c41413          	slli	x8,x8,0xc
   cc9d92054:	15c40413          	addi	x8,x8,348
   cc9d92058:	d013fad3          	fcvt.s.wu	f21,x7
   cc9d9205c:	d0247953          	fcvt.s.l	f18,x8
   cc9d92060:	012af0d3          	fadd.s	f1,f21,f18
   cc9d92064:	008a0c37          	lui	x24,0x8a0
   cc9d92068:	5a9c0c1b          	addiw	x24,x24,1449 # 8a05a9 <mem6__pt_level1+0x46e5a9>
   cc9d9206c:	728c0913          	addi	x18,x24,1832
   cc9d92070:	00008067          	ret

Disassembly of section .code_mem16:

00000010e580f000 <.code_mem16>:
  10e580f000:	000f8eb7          	lui	x29,0xf8
  10e580f004:	131e8e9b          	addiw	x29,x29,305 # f8131 <tp_csr_storage+0x5e131>
  10e580f008:	00ce9e93          	slli	x29,x29,0xc
  10e580f00c:	c45e8e93          	addi	x29,x29,-955
  10e580f010:	6c0fd337          	lui	x6,0x6c0fd
  10e580f014:	4f83031b          	addiw	x6,x6,1272 # 6c0fd4f8 <SID_PBVMS_040_context_table_overflow_stack+0x15a354f8>
  10e580f018:	026e9bb3          	mulh	x23,x29,x6
  10e580f01c:	00008067          	ret

Disassembly of section .code_mem24:

00000000293b6000 <.code_mem24>:
    293b6000:	000c4ab7          	lui	x21,0xc4
    293b6004:	81fa8a9b          	addiw	x21,x21,-2017 # c381f <tp_csr_storage+0x2981f>
    293b6008:	00ca9a93          	slli	x21,x21,0xc
    293b600c:	892a8a93          	addi	x21,x21,-1902
    293b6010:	70196c37          	lui	x24,0x70196
    293b6014:	6a3c0c1b          	addiw	x24,x24,1699 # 701966a3 <mem0+0x15fe6a3>
    293b6018:	038aa6b3          	mulhsu	x13,x21,x24
    293b601c:	00008067          	ret

Disassembly of section .code_mem27:

00000bd4d5dbf000 <.code_mem27>:
 bd4d5dbf000:	000f44b7          	lui	x9,0xf4
 bd4d5dbf004:	c654849b          	addiw	x9,x9,-923 # f3c65 <tp_csr_storage+0x59c65>
 bd4d5dbf008:	00c49493          	slli	x9,x9,0xc
 bd4d5dbf00c:	afa48493          	addi	x9,x9,-1286
 bd4d5dbf010:	4a2f2f37          	lui	x30,0x4a2f2
 bd4d5dbf014:	0adf0f1b          	addiw	x30,x30,173 # 4a2f20ad <mem11__pt_level4+0x1324cfd>
 bd4d5dbf018:	0be4b8b3          	clmulh	x17,x9,x30
 bd4d5dbf01c:	000ed4b7          	lui	x9,0xed
 bd4d5dbf020:	2f94849b          	addiw	x9,x9,761 # ed2f9 <tp_csr_storage+0x532f9>
 bd4d5dbf024:	00c49493          	slli	x9,x9,0xc
 bd4d5dbf028:	9dc48493          	addi	x9,x9,-1572
 bd4d5dbf02c:	05806fb7          	lui	x31,0x5806
 bd4d5dbf030:	978f8f9b          	addiw	x31,x31,-1672 # 5805978 <mem21__pt_level2+0x644978>
 bd4d5dbf034:	03f4ac33          	mulhsu	x24,x9,x31
 bd4d5dbf038:	6a8acab7          	lui	x21,0x6a8ac
 bd4d5dbf03c:	4bda8a9b          	addiw	x21,x21,1213 # 6a8ac4bd <SID_PBVMS_040_context_table_overflow_stack+0x141e44bd>
 bd4d5dbf040:	0001bd37          	lui	x26,0x1b
 bd4d5dbf044:	cd7d0d1b          	addiw	x26,x26,-809 # 1acd7 <SID_PBVMS_008_va_sign_extension_fault_stack+0xacd7>
 bd4d5dbf048:	00fd1d13          	slli	x26,x26,0xf
 bd4d5dbf04c:	2a1d0d13          	addi	x26,x26,673
 bd4d5dbf050:	03aaa4b3          	mulhsu	x9,x21,x26
 bd4d5dbf054:	000eb6b7          	lui	x13,0xeb
 bd4d5dbf058:	90b6869b          	addiw	x13,x13,-1781 # ea90b <tp_csr_storage+0x5090b>
 bd4d5dbf05c:	00c69693          	slli	x13,x13,0xc
 bd4d5dbf060:	8f368693          	addi	x13,x13,-1805
 bd4d5dbf064:	0008e937          	lui	x18,0x8e
 bd4d5dbf068:	73d9091b          	addiw	x18,x18,1853 # 8e73d <pma_region_0_size+0x4e73d>
 bd4d5dbf06c:	00c91913          	slli	x18,x18,0xc
 bd4d5dbf070:	a4a90913          	addi	x18,x18,-1462
 bd4d5dbf074:	000ec9b7          	lui	x19,0xec
 bd4d5dbf078:	1499899b          	addiw	x19,x19,329 # ec149 <tp_csr_storage+0x52149>
 bd4d5dbf07c:	00c99993          	slli	x19,x19,0xc
 bd4d5dbf080:	cb798993          	addi	x19,x19,-841
 bd4d5dbf084:	d236f9d3          	fcvt.d.lu	f19,x13
 bd4d5dbf088:	d2090f53          	fcvt.d.w	f30,x18
 bd4d5dbf08c:	d029f853          	fcvt.s.l	f16,x19
 bd4d5dbf090:	83e9ffcb          	fnmsub.d	f31,f19,f30,f16
 bd4d5dbf094:	00008067          	ret

Disassembly of section .mem0:

000000006eb98000 <.mem0>:
    6eb98000:	c0de                	.insn	2, 0xc0de
    6eb98002:	c001                	.insn	2, 0xc001
    6eb98004:	0000                	.insn	2, 0x0000
	...

Disassembly of section .mem2:

0000000e24b9a000 <.mem2>:
   e24b9a000:	c0de                	.insn	2, 0xc0de
   e24b9a002:	c001                	.insn	2, 0xc001
   e24b9a004:	0000                	.insn	2, 0x0000
	...

Disassembly of section .mem3:

000000b0f7600000 <.mem3>:
  b0f7600000:	c0de                	.insn	2, 0xc0de
  b0f7600002:	c001                	.insn	2, 0xc001
  b0f7600004:	0000                	.insn	2, 0x0000
	...

Disassembly of section .mem5:

00000063eaecf000 <.mem5>:
  63eaecf000:	c0de                	.insn	2, 0xc0de
  63eaecf002:	c001                	.insn	2, 0xc001
  63eaecf004:	0000                	.insn	2, 0x0000
	...

Disassembly of section .mem6:

ff07000000000000 <.mem6>:
ff07000000000000:	c0de                	.insn	2, 0xc0de
ff07000000000002:	c001                	.insn	2, 0xc001
ff07000000000004:	0000                	.insn	2, 0x0000
	...

Disassembly of section .mem7:

00009fc834800000 <.mem7>:
    9fc834800000:	c0de                	.insn	2, 0xc0de
    9fc834800002:	c001                	.insn	2, 0xc001
    9fc834800004:	0000                	.insn	2, 0x0000
	...

Disassembly of section .mem8:

000047ab14400000 <.mem8>:
    47ab14400000:	c0de                	.insn	2, 0xc0de
    47ab14400002:	c001                	.insn	2, 0xc001
    47ab14400004:	0000                	.insn	2, 0x0000
	...

Disassembly of section .mem9:

000a000000000000 <.mem9>:
   a000000000000:	c0de                	.insn	2, 0xc0de
   a000000000002:	c001                	.insn	2, 0xc001
   a000000000004:	0000                	.insn	2, 0x0000
	...

Disassembly of section .mem10:

0002000000000000 <.mem10>:
   2000000000000:	c0de                	.insn	2, 0xc0de
   2000000000002:	c001                	.insn	2, 0xc001
   2000000000004:	0000                	.insn	2, 0x0000
	...

Disassembly of section .mem11:

0076000000000000 <.mem11>:
  76000000000000:	c0de                	.insn	2, 0xc0de
  76000000000002:	c001                	.insn	2, 0xc001
  76000000000004:	0000                	.insn	2, 0x0000
	...

Disassembly of section .mem12:

000032f07ebc1000 <.mem12>:
    32f07ebc1000:	c0de                	.insn	2, 0xc0de
    32f07ebc1002:	c001                	.insn	2, 0xc001
    32f07ebc1004:	0000                	.insn	2, 0x0000
	...

Disassembly of section .mem13:

0000000031559000 <.mem13>:
    31559000:	c0de                	.insn	2, 0xc0de
    31559002:	c001                	.insn	2, 0xc001
    31559004:	0000                	.insn	2, 0x0000
	...

Disassembly of section .mem14:

000000aa044db000 <.mem14>:
  aa044db000:	c0de                	.insn	2, 0xc0de
  aa044db002:	c001                	.insn	2, 0xc001
  aa044db004:	0000                	.insn	2, 0x0000
	...

Disassembly of section .mem15:

0000000040f80000 <.mem15>:
    40f80000:	c0de                	.insn	2, 0xc0de
    40f80002:	c001                	.insn	2, 0xc001
    40f80004:	0000                	.insn	2, 0x0000
	...

Disassembly of section .mem17:

0000000006677000 <.mem17>:
 6677000:	c0de                	.insn	2, 0xc0de
 6677002:	c001                	.insn	2, 0xc001
 6677004:	0000                	.insn	2, 0x0000
	...

Disassembly of section .mem18:

000001e0cfa02000 <.mem18>:
 1e0cfa02000:	c0de                	.insn	2, 0xc0de
 1e0cfa02002:	c001                	.insn	2, 0xc001
 1e0cfa02004:	0000                	.insn	2, 0x0000
	...

Disassembly of section .mem19:

00007f720394d000 <.mem19>:
    7f720394d000:	c0de                	.insn	2, 0xc0de
    7f720394d002:	c001                	.insn	2, 0xc001
    7f720394d004:	0000                	.insn	2, 0x0000
	...

Disassembly of section .mem20:

007875f45cb2f000 <.mem20>:
  7875f45cb2f000:	c0de                	.insn	2, 0xc0de
  7875f45cb2f002:	c001                	.insn	2, 0xc001
  7875f45cb2f004:	0000                	.insn	2, 0x0000
	...

Disassembly of section .mem21:

0038000000000000 <.mem21>:
  38000000000000:	c0de                	.insn	2, 0xc0de
  38000000000002:	c001                	.insn	2, 0xc001
  38000000000004:	0000                	.insn	2, 0x0000
	...

Disassembly of section .mem22:

0077000000000000 <.mem22>:
  77000000000000:	c0de                	.insn	2, 0xc0de
  77000000000002:	c001                	.insn	2, 0xc001
  77000000000004:	0000                	.insn	2, 0x0000
	...

Disassembly of section .mem23:

00000000295f6000 <.mem23>:
    295f6000:	c0de                	.insn	2, 0xc0de
    295f6002:	c001                	.insn	2, 0xc001
    295f6004:	0000                	.insn	2, 0x0000
	...

Disassembly of section .mem25:

000000000000d000 <.mem25>:
    d000:	c0de                	.insn	2, 0xc0de
    d002:	c001                	.insn	2, 0xc001
    d004:	0000                	.insn	2, 0x0000
	...

Disassembly of section .mem26:

0000000003c00000 <.mem26>:
 3c00000:	c0de                	.insn	2, 0xc0de
 3c00002:	c001                	.insn	2, 0xc001
 3c00004:	0000                	.insn	2, 0x0000
	...

Disassembly of section .tp_csr_storage:

000000000009a000 <.tp_csr_storage>:
   9a000:	c0de                	.insn	2, 0xc0de
   9a002:	c001                	.insn	2, 0xc001
   9a004:	0000                	.insn	2, 0x0000
	...

Disassembly of section .SID_PBVMS_001_ptw_no_faults_all_access_types_stack:

00000003a2ade000 <.SID_PBVMS_001_ptw_no_faults_all_access_types_stack>:
   3a2ade000:	c0de                	.insn	2, 0xc0de
   3a2ade002:	c001                	.insn	2, 0xc001
   3a2ade004:	0000                	.insn	2, 0x0000
	...

Disassembly of section .SID_PBVMS_003_ptw_all_privilege_modes_stack:

0001c89b52b7f000 <.SID_PBVMS_003_ptw_all_privilege_modes_stack>:
   1c89b52b7f000:	c0de                	.insn	2, 0xc0de
   1c89b52b7f002:	c001                	.insn	2, 0xc001
   1c89b52b7f004:	0000                	.insn	2, 0x0000
	...

Disassembly of section .SID_PBVMS_006_ptw_page_boundary_crossing_stack:

000000000011f000 <.SID_PBVMS_006_ptw_page_boundary_crossing_stack>:
  11f000:	c0de                	.insn	2, 0xc0de
  11f002:	c001                	.insn	2, 0xc001
  11f004:	0000                	.insn	2, 0x0000
	...

Disassembly of section .SID_PBVMS_008_va_sign_extension_fault_stack:

0000000000010000 <.SID_PBVMS_008_va_sign_extension_fault_stack>:
   10000:	c0de                	.insn	2, 0xc0de
   10002:	c001                	.insn	2, 0xc001
   10004:	0000                	.insn	2, 0x0000
	...

Disassembly of section .SID_PBVMS_009_superpage_alignment_fault_stack:

0000001789d1d000 <.SID_PBVMS_009_superpage_alignment_fault_stack>:
  1789d1d000:	c0de                	.insn	2, 0xc0de
  1789d1d002:	c001                	.insn	2, 0xc001
  1789d1d004:	0000                	.insn	2, 0x0000
	...

Disassembly of section .SID_PBVMS_011_ptw_fault_boundary_crossing_stack:

000000001ae2b000 <.SID_PBVMS_011_ptw_fault_boundary_crossing_stack>:
    1ae2b000:	c0de                	.insn	2, 0xc0de
    1ae2b002:	c001                	.insn	2, 0xc001
    1ae2b004:	0000                	.insn	2, 0x0000
	...

Disassembly of section .SID_PBVMS_012_ptw_fault_prioritization_stack:

000064b935ddd000 <.SID_PBVMS_012_ptw_fault_prioritization_stack>:
    64b935ddd000:	c0de                	.insn	2, 0xc0de
    64b935ddd002:	c001                	.insn	2, 0xc001
    64b935ddd004:	0000                	.insn	2, 0x0000
	...

Disassembly of section .SID_PBVMS_013_ptw_permission_encodings_stack:

000000002da6d000 <.SID_PBVMS_013_ptw_permission_encodings_stack>:
    2da6d000:	c0de                	.insn	2, 0xc0de
    2da6d002:	c001                	.insn	2, 0xc001
    2da6d004:	0000                	.insn	2, 0x0000
	...

Disassembly of section .SID_PBVMS_014_mstatus_sum_mxr_stack:

000032f07ebbf000 <.SID_PBVMS_014_mstatus_sum_mxr_stack>:
    32f07ebbf000:	c0de                	.insn	2, 0xc0de
    32f07ebbf002:	c001                	.insn	2, 0xc001
    32f07ebbf004:	0000                	.insn	2, 0x0000
	...

Disassembly of section .SID_PBVMS_015_global_bit_honoured_stack:

0000000f054b5000 <.SID_PBVMS_015_global_bit_honoured_stack>:
   f054b5000:	c0de                	.insn	2, 0xc0de
   f054b5002:	c001                	.insn	2, 0xc001
   f054b5004:	0000                	.insn	2, 0x0000
	...

Disassembly of section .SID_PBVMS_017_global_at_non_leaf_stack:

00000082c641e000 <.SID_PBVMS_017_global_at_non_leaf_stack>:
  82c641e000:	c0de                	.insn	2, 0xc0de
  82c641e002:	c001                	.insn	2, 0xc001
  82c641e004:	0000                	.insn	2, 0x0000
	...

Disassembly of section .SID_PBVMS_018_rsw_fields_writable_stack:

0000037ac5a71000 <.SID_PBVMS_018_rsw_fields_writable_stack>:
 37ac5a71000:	c0de                	.insn	2, 0xc0de
 37ac5a71002:	c001                	.insn	2, 0xc001
 37ac5a71004:	0000                	.insn	2, 0x0000
	...

Disassembly of section .SID_PBVMS_021_satp_valid_to_reserved_stack:

0000001803e1e000 <.SID_PBVMS_021_satp_valid_to_reserved_stack>:
  1803e1e000:	c0de                	.insn	2, 0xc0de
  1803e1e002:	c001                	.insn	2, 0xc001
  1803e1e004:	0000                	.insn	2, 0x0000
	...

Disassembly of section .SID_PBVMS_022_satp_csr_accessibility_stack:

003ec3263da91000 <.SID_PBVMS_022_satp_csr_accessibility_stack>:
  3ec3263da91000:	c0de                	.insn	2, 0xc0de
  3ec3263da91002:	c001                	.insn	2, 0xc001
  3ec3263da91004:	0000                	.insn	2, 0x0000
	...

Disassembly of section .SID_PBVMS_023_satp_asidlen_discovery_stack:

000ecf1b3c1b8000 <.SID_PBVMS_023_satp_asidlen_discovery_stack>:
   ecf1b3c1b8000:	c0de                	.insn	2, 0xc0de
   ecf1b3c1b8002:	c001                	.insn	2, 0xc001
   ecf1b3c1b8004:	0000                	.insn	2, 0x0000
	...

Disassembly of section .SID_PBVMS_027_satp_user_mode_fault_stack:

0003e51201d8f000 <.SID_PBVMS_027_satp_user_mode_fault_stack>:
   3e51201d8f000:	c0de                	.insn	2, 0xc0de
   3e51201d8f002:	c001                	.insn	2, 0xc001
   3e51201d8f004:	0000                	.insn	2, 0x0000
	...

Disassembly of section .SID_PBVMS_040_context_table_overflow_stack:

00000000566c8000 <.SID_PBVMS_040_context_table_overflow_stack>:
    566c8000:	c0de                	.insn	2, 0xc0de
    566c8002:	c001                	.insn	2, 0xc001
    566c8004:	0000                	.insn	2, 0x0000
	...

Disassembly of section .SID_PBVMS_042_canonical_boundary_crossing_fault_stack:

0000004cc3c80000 <.SID_PBVMS_042_canonical_boundary_crossing_fault_stack>:
  4cc3c80000:	c0de                	.insn	2, 0xc0de
  4cc3c80002:	c001                	.insn	2, 0xc001
  4cc3c80004:	0000                	.insn	2, 0x0000
	...

Disassembly of section .SID_PBVMS_043_fetch_window_spill_page_cross_stack:

0000000003992000 <.SID_PBVMS_043_fetch_window_spill_page_cross_stack>:
 3992000:	c0de                	.insn	2, 0xc0de
 3992002:	c001                	.insn	2, 0xc001
 3992004:	0000                	.insn	2, 0x0000
	...

Disassembly of section .__pagetable_map_os_0x0000000041be0000:

0000000041be0000 <__pagetable_map_os_0x0000000041be0000>:
    41be0000:	7801                	.insn	2, 0x7801
    41be0002:	0000104f          	fnmadd.s	f0,f0,f0,f0,rtz
    41be0006:	0000                	.insn	2, 0x0000
    41be0008:	a401                	.insn	2, 0xa401
    41be000a:	00001073          	csrw	ustatus,x0
    41be000e:	0000                	.insn	2, 0x0000
    41be0010:	9801                	.insn	2, 0x9801
    41be0012:	0000104f          	fnmadd.s	f0,f0,f0,f0,rtz
    41be0016:	0000                	.insn	2, 0x0000
    41be0018:	7801                	.insn	2, 0x7801
    41be001a:	0000106f          	j	41be101a <mem6__pt_level4__phys+0x7e2>
	...
    41be004e:	0000                	.insn	2, 0x0000
    41be0050:	0001                	.insn	2, 0x0001
    41be0052:	1070                	.insn	2, 0x1070
	...
    41be0070:	2c01                	.insn	2, 0x2c01
    41be0072:	1072                	.insn	2, 0x1072
	...
    41be01b8:	ec01                	.insn	2, 0xec01
    41be01ba:	1099                	.insn	2, 0x1099
    41be01bc:	0000                	.insn	2, 0x0000
    41be01be:	0000                	.insn	2, 0x0000
    41be01c0:	5401                	.insn	2, 0x5401
    41be01c2:	0000106f          	j	41be11c2 <mem6__pt_level4__phys+0x98a>
	...
    41be01ce:	0000                	.insn	2, 0x0000
    41be01d0:	f001                	.insn	2, 0xf001
    41be01d2:	107e                	.insn	2, 0x107e
	...
    41be01f0:	f801                	.insn	2, 0xf801
    41be01f2:	0000104f          	fnmadd.s	f0,f0,f0,f0,rtz
	...
    41be03ae:	0000                	.insn	2, 0x0000
    41be03b0:	d001                	.insn	2, 0xd001
    41be03b2:	0000104f          	fnmadd.s	f0,f0,f0,f0,rtz
    41be03b6:	0000                	.insn	2, 0x0000
    41be03b8:	3001                	.insn	2, 0x3001
    41be03ba:	0000106f          	j	41be13ba <mem6__pt_level4__phys+0xb82>
    41be03be:	0000                	.insn	2, 0x0000
    41be03c0:	3801                	.insn	2, 0x3801
    41be03c2:	104e                	.insn	2, 0x104e
	...
    41be0728:	3801                	.insn	2, 0x3801
    41be072a:	0000106f          	j	41be172a <mem6__pt_level4__phys+0xef2>
	...
    41be0836:	0000                	.insn	2, 0x0000
    41be0838:	f801                	.insn	2, 0xf801
    41be083a:	0000108f          	.insn	4, 0x108f
	...

Disassembly of section .__pagetable_map_os_0x00000000413de000:

00000000413de000 <__pagetable_map_os_0x00000000413de000>:
    413de000:	7401                	.insn	2, 0x7401
    413de002:	106e                	.insn	2, 0x106e
    413de004:	0000                	.insn	2, 0x0000
    413de006:	0000                	.insn	2, 0x0000
    413de008:	0801                	.insn	2, 0x0801
    413de00a:	109c                	.insn	2, 0x109c
	...
    413de018:	0801                	.insn	2, 0x0801
    413de01a:	0000106f          	j	413df01a <__pagetable_map_os_0x00000000413df000+0x1a>
	...
    413de02e:	0000                	.insn	2, 0x0000
    413de030:	5801                	.insn	2, 0x5801
    413de032:	00001073          	csrw	ustatus,x0
	...
    413de0b6:	0000                	.insn	2, 0x0000
    413de0b8:	0401                	.insn	2, 0x0401
    413de0ba:	1115                	.insn	2, 0x1115
	...
    413de328:	e801                	.insn	2, 0xe801
    413de32a:	0000109b          	slliw	x1,x0,0x0
	...
    413de476:	0000                	.insn	2, 0x0000
    413de478:	1801                	.insn	2, 0x1801
    413de47a:	0000106f          	j	413df47a <__pagetable_map_os_0x00000000413df000+0x47a>
	...
    413de646:	0000                	.insn	2, 0x0000
    413de648:	8401                	.insn	2, 0x8401
    413de64a:	0000104f          	fnmadd.s	f0,f0,f0,f0,rtz
	...
    413de6ae:	0000                	.insn	2, 0x0000
    413de6b0:	0401                	.insn	2, 0x0401
    413de6b2:	0000104f          	fnmadd.s	f0,f0,f0,f0,rtz
	...
    413de7ee:	0000                	.insn	2, 0x0000
    413de7f0:	2c01                	.insn	2, 0x2c01
    413de7f2:	0000108f          	.insn	4, 0x108f
	...
    413de9f6:	0000                	.insn	2, 0x0000
    413de9f8:	c801                	.insn	2, 0xc801
    413de9fa:	0000104f          	fnmadd.s	f0,f0,f0,f0,rtz
	...

Disassembly of section .__pagetable_map_os_0x0000000041b9d000:

0000000041b9d000 <__pagetable_map_os_0x0000000041b9d000>:
    41b9d000:	6c01                	.insn	2, 0x6c01
    41b9d002:	106e                	.insn	2, 0x106e
    41b9d004:	0000                	.insn	2, 0x0000
    41b9d006:	0000                	.insn	2, 0x0000
    41b9d008:	fc01                	.insn	2, 0xfc01
    41b9d00a:	106d                	.insn	2, 0x106d
    41b9d00c:	0000                	.insn	2, 0x0000
    41b9d00e:	0000                	.insn	2, 0x0000
    41b9d010:	c801                	.insn	2, 0xc801
    41b9d012:	1081                	.insn	2, 0x1081
	...
    41b9d030:	0801                	.insn	2, 0x0801
    41b9d032:	1115                	.insn	2, 0x1115
	...
    41b9d040:	dc01                	.insn	2, 0xdc01
    41b9d042:	106d                	.insn	2, 0x106d
	...
    41b9d070:	d801                	.insn	2, 0xd801
    41b9d072:	0000104f          	fnmadd.s	f0,f0,f0,f0,rtz
	...
    41b9d096:	0000                	.insn	2, 0x0000
    41b9d098:	2401                	.insn	2, 0x2401
    41b9d09a:	00001087          	flh	f1,0(x0) # 0 <ALL_4KB_PAGES>
	...
    41b9d0e6:	0000                	.insn	2, 0x0000
    41b9d0e8:	2c01                	.insn	2, 0x2c01
    41b9d0ea:	109c                	.insn	2, 0x109c
	...
    41b9d198:	d801                	.insn	2, 0xd801
    41b9d19a:	106d                	.insn	2, 0x106d
	...
    41b9d1c0:	f001                	.insn	2, 0xf001
    41b9d1c2:	0000109b          	slliw	x1,x0,0x0
	...
    41b9d1de:	0000                	.insn	2, 0x0000
    41b9d1e0:	9c01                	.insn	2, 0x9c01
    41b9d1e2:	0000104f          	fnmadd.s	f0,f0,f0,f0,rtz
	...
    41b9d216:	0000                	.insn	2, 0x0000
    41b9d218:	f801                	.insn	2, 0xf801
    41b9d21a:	106d                	.insn	2, 0x106d
	...
    41b9d2f0:	e401                	.insn	2, 0xe401
    41b9d2f2:	10d8                	.insn	2, 0x10d8
	...
    41b9d300:	e801                	.insn	2, 0xe801
    41b9d302:	0000104f          	fnmadd.s	f0,f0,f0,f0,rtz
	...
    41b9d50e:	0000                	.insn	2, 0x0000
    41b9d510:	2401                	.insn	2, 0x2401
    41b9d512:	10e9                	.insn	2, 0x10e9
	...
    41b9d580:	3001                	.insn	2, 0x3001
    41b9d582:	104e                	.insn	2, 0x104e
	...
    41b9d998:	4401                	.insn	2, 0x4401
    41b9d99a:	0000106f          	j	41b9e99a <__pagetable_map_os_0x0000000041b9e000+0x99a>
	...
    41b9dc76:	0000                	.insn	2, 0x0000
    41b9dc78:	e401                	.insn	2, 0xe401
    41b9dc7a:	0000109b          	slliw	x1,x0,0x0
	...

Disassembly of section .__pagetable_map_os_0x0000000041b7f000:

0000000041b7f000 <__pagetable_map_os_0x0000000041b7f000>:
	...
    41b7f018:	0c01                	.insn	2, 0x0c01
    41b7f01a:	1072                	.insn	2, 0x1072
	...
    41b7f038:	5401                	.insn	2, 0x5401
    41b7f03a:	1140                	.insn	2, 0x1140
    41b7f03c:	0000                	.insn	2, 0x0000
    41b7f03e:	0000                	.insn	2, 0x0000
    41b7f040:	8801                	.insn	2, 0x8801
    41b7f042:	0000104f          	fnmadd.s	f0,f0,f0,f0,rtz
    41b7f046:	0000                	.insn	2, 0x0000
    41b7f048:	5c01                	.insn	2, 0x5c01
    41b7f04a:	106e                	.insn	2, 0x106e
	...
    41b7f068:	7001                	.insn	2, 0x7001
    41b7f06a:	0000106f          	j	41b8006a <__pagetable_map_os_0x0000000041b80000+0x6a>
	...
    41b7f236:	0000                	.insn	2, 0x0000
    41b7f238:	7001                	.insn	2, 0x7001
    41b7f23a:	1078                	.insn	2, 0x1078
	...
    41b7f2e8:	8001                	.insn	2, 0x8001
    41b7f2ea:	0000109b          	slliw	x1,x0,0x0
	...
    41b7f596:	0000                	.insn	2, 0x0000
    41b7f598:	e401                	.insn	2, 0xe401
    41b7f59a:	0000106f          	j	41b8059a <__pagetable_map_os_0x0000000041b80000+0x59a>
	...
    41b7fba6:	0000                	.insn	2, 0x0000
    41b7fba8:	9001                	.insn	2, 0x9001
    41b7fbaa:	108a                	.insn	2, 0x108a
    41b7fbac:	0000                	.insn	2, 0x0000
	...

Disassembly of section .__pagetable_map_os_0x00000000413e2000:

00000000413e2000 <__pagetable_map_os_0x00000000413e2000>:
	...
    413e2080:	40df 1040 0000      	.insn	6, 0x104040df
    413e2086:	0000                	.insn	2, 0x0000
    413e2088:	104044cf          	fnmadd.s	f9,f0,f4,f2,rmm
    413e208c:	0000                	.insn	2, 0x0000
    413e208e:	0000                	.insn	2, 0x0000
    413e2090:	104048cf          	fnmadd.s	f17,f0,f4,f2,rmm
    413e2094:	0000                	.insn	2, 0x0000
    413e2096:	0000                	.insn	2, 0x0000
    413e2098:	10404ccf          	fnmadd.s	f25,f0,f4,f2,rmm
    413e209c:	0000                	.insn	2, 0x0000
    413e209e:	0000                	.insn	2, 0x0000
    413e20a0:	104050cf          	fnmadd.s	f1,f0,f4,f2,unknown
    413e20a4:	0000                	.insn	2, 0x0000
    413e20a6:	0000                	.insn	2, 0x0000
    413e20a8:	00df 1060 0000      	.insn	6, 0x106000df
    413e20ae:	0000                	.insn	2, 0x0000
    413e20b0:	04df 1060 0000      	.insn	6, 0x106004df
    413e20b6:	0000                	.insn	2, 0x0000
    413e20b8:	08df 1060 0000      	.insn	6, 0x106008df
    413e20be:	0000                	.insn	2, 0x0000
    413e20c0:	0cdf 1060 0000      	.insn	6, 0x10600cdf
    413e20c6:	0000                	.insn	2, 0x0000
    413e20c8:	10df 1060 0000      	.insn	6, 0x106010df
    413e20ce:	0000                	.insn	2, 0x0000
    413e20d0:	14df 1060 0000      	.insn	6, 0x106014df
    413e20d6:	0000                	.insn	2, 0x0000
    413e20d8:	18df 1060 0000      	.insn	6, 0x106018df
    413e20de:	0000                	.insn	2, 0x0000
    413e20e0:	1cdf 1060 0000      	.insn	6, 0x10601cdf
    413e20e6:	0000                	.insn	2, 0x0000
    413e20e8:	20df 1060 0000      	.insn	6, 0x106020df
    413e20ee:	0000                	.insn	2, 0x0000
    413e20f0:	24df 1060 0000      	.insn	6, 0x106024df
    413e20f6:	0000                	.insn	2, 0x0000
    413e20f8:	28df 1060 0000      	.insn	6, 0x106028df
    413e20fe:	0000                	.insn	2, 0x0000
    413e2100:	2cdf 1060 0000      	.insn	6, 0x10602cdf
    413e2106:	0000                	.insn	2, 0x0000
    413e2108:	30df 1060 0000      	.insn	6, 0x106030df
    413e210e:	0000                	.insn	2, 0x0000
    413e2110:	34df 1060 0000      	.insn	6, 0x106034df
    413e2116:	0000                	.insn	2, 0x0000
    413e2118:	38df 1060 0000      	.insn	6, 0x106038df
    413e211e:	0000                	.insn	2, 0x0000
    413e2120:	3cdf 1060 0000      	.insn	6, 0x10603cdf
    413e2126:	0000                	.insn	2, 0x0000
    413e2128:	40df 1060 0000      	.insn	6, 0x106040df
    413e212e:	0000                	.insn	2, 0x0000
    413e2130:	44df 1060 0000      	.insn	6, 0x106044df
    413e2136:	0000                	.insn	2, 0x0000
    413e2138:	48df 1060 0000      	.insn	6, 0x106048df
    413e213e:	0000                	.insn	2, 0x0000
    413e2140:	4cdf 1060 0000      	.insn	6, 0x10604cdf
    413e2146:	0000                	.insn	2, 0x0000
    413e2148:	50df 1060 0000      	.insn	6, 0x106050df
    413e214e:	0000                	.insn	2, 0x0000
    413e2150:	54df 1060 0000      	.insn	6, 0x106054df
    413e2156:	0000                	.insn	2, 0x0000
    413e2158:	58df 1060 0000      	.insn	6, 0x106058df
    413e215e:	0000                	.insn	2, 0x0000
    413e2160:	5cdf 1060 0000      	.insn	6, 0x10605cdf
    413e2166:	0000                	.insn	2, 0x0000
    413e2168:	60df 1060 0000      	.insn	6, 0x106060df
    413e216e:	0000                	.insn	2, 0x0000
    413e2170:	64df 1060 0000      	.insn	6, 0x106064df
    413e2176:	0000                	.insn	2, 0x0000
    413e2178:	68df 1060 0000      	.insn	6, 0x106068df
    413e217e:	0000                	.insn	2, 0x0000
    413e2180:	6cdf 1060 0000      	.insn	6, 0x10606cdf
    413e2186:	0000                	.insn	2, 0x0000
    413e2188:	70df 1060 0000      	.insn	6, 0x106070df
    413e218e:	0000                	.insn	2, 0x0000
    413e2190:	74df 1060 0000      	.insn	6, 0x106074df
    413e2196:	0000                	.insn	2, 0x0000
    413e2198:	78df 1060 0000      	.insn	6, 0x106078df
    413e219e:	0000                	.insn	2, 0x0000
    413e21a0:	7cdf 1060 0000      	.insn	6, 0x10607cdf
    413e21a6:	0000                	.insn	2, 0x0000
    413e21a8:	80df 1060 0000      	.insn	6, 0x106080df
    413e21ae:	0000                	.insn	2, 0x0000
    413e21b0:	84df 1060 0000      	.insn	6, 0x106084df
    413e21b6:	0000                	.insn	2, 0x0000
    413e21b8:	88df 1060 0000      	.insn	6, 0x106088df
    413e21be:	0000                	.insn	2, 0x0000
    413e21c0:	8cdf 1060 0000      	.insn	6, 0x10608cdf
    413e21c6:	0000                	.insn	2, 0x0000
    413e21c8:	90df 1060 0000      	.insn	6, 0x106090df
    413e21ce:	0000                	.insn	2, 0x0000
    413e21d0:	94df 1060 0000      	.insn	6, 0x106094df
    413e21d6:	0000                	.insn	2, 0x0000
    413e21d8:	98df 1060 0000      	.insn	6, 0x106098df
    413e21de:	0000                	.insn	2, 0x0000
    413e21e0:	9cdf 1060 0000      	.insn	6, 0x10609cdf
    413e21e6:	0000                	.insn	2, 0x0000
    413e21e8:	a0df 1060 0000      	.insn	6, 0x1060a0df
    413e21ee:	0000                	.insn	2, 0x0000
    413e21f0:	a4df 1060 0000      	.insn	6, 0x1060a4df
    413e21f6:	0000                	.insn	2, 0x0000
    413e21f8:	a8df 1060 0000      	.insn	6, 0x1060a8df
    413e21fe:	0000                	.insn	2, 0x0000
    413e2200:	00df 1041 0000      	.insn	6, 0x104100df
    413e2206:	0000                	.insn	2, 0x0000
    413e2208:	b0df 1060 0000      	.insn	6, 0x1060b0df
    413e220e:	0000                	.insn	2, 0x0000
    413e2210:	b4df 1060 0000      	.insn	6, 0x1060b4df
    413e2216:	0000                	.insn	2, 0x0000
    413e2218:	b8df 1060 0000      	.insn	6, 0x1060b8df
    413e221e:	0000                	.insn	2, 0x0000
    413e2220:	bcdf 1060 0000      	.insn	6, 0x1060bcdf
    413e2226:	0000                	.insn	2, 0x0000
    413e2228:	c0df 1060 0000      	.insn	6, 0x1060c0df
    413e222e:	0000                	.insn	2, 0x0000
    413e2230:	c4df 1060 0000      	.insn	6, 0x1060c4df
    413e2236:	0000                	.insn	2, 0x0000
    413e2238:	c8df 1060 0000      	.insn	6, 0x1060c8df
    413e223e:	0000                	.insn	2, 0x0000
    413e2240:	ccdf 1060 0000      	.insn	6, 0x1060ccdf
    413e2246:	0000                	.insn	2, 0x0000
    413e2248:	d0df 1060 0000      	.insn	6, 0x1060d0df
    413e224e:	0000                	.insn	2, 0x0000
    413e2250:	d4df 1060 0000      	.insn	6, 0x1060d4df
    413e2256:	0000                	.insn	2, 0x0000
    413e2258:	d8df 1060 0000      	.insn	6, 0x1060d8df
    413e225e:	0000                	.insn	2, 0x0000
    413e2260:	dcdf 1060 0000      	.insn	6, 0x1060dcdf
    413e2266:	0000                	.insn	2, 0x0000
    413e2268:	e0df 1060 0000      	.insn	6, 0x1060e0df
    413e226e:	0000                	.insn	2, 0x0000
    413e2270:	e4df 1060 0000      	.insn	6, 0x1060e4df
    413e2276:	0000                	.insn	2, 0x0000
    413e2278:	e8df 1060 0000      	.insn	6, 0x1060e8df
    413e227e:	0000                	.insn	2, 0x0000
    413e2280:	ecdf 1060 0000      	.insn	6, 0x1060ecdf
    413e2286:	0000                	.insn	2, 0x0000
    413e2288:	f0df 1060 0000      	.insn	6, 0x1060f0df
    413e228e:	0000                	.insn	2, 0x0000
    413e2290:	f4df 1060 0000      	.insn	6, 0x1060f4df
    413e2296:	0000                	.insn	2, 0x0000
    413e2298:	f8df 1060 0000      	.insn	6, 0x1060f8df
    413e229e:	0000                	.insn	2, 0x0000
    413e22a0:	fcdf 1060 0000      	.insn	6, 0x1060fcdf
    413e22a6:	0000                	.insn	2, 0x0000
    413e22a8:	00df 1061 0000      	.insn	6, 0x106100df
    413e22ae:	0000                	.insn	2, 0x0000
    413e22b0:	04df 1061 0000      	.insn	6, 0x106104df
    413e22b6:	0000                	.insn	2, 0x0000
    413e22b8:	08df 1061 0000      	.insn	6, 0x106108df
    413e22be:	0000                	.insn	2, 0x0000
    413e22c0:	0cdf 1061 0000      	.insn	6, 0x10610cdf
    413e22c6:	0000                	.insn	2, 0x0000
    413e22c8:	10df 1061 0000      	.insn	6, 0x106110df
    413e22ce:	0000                	.insn	2, 0x0000
    413e22d0:	14df 1061 0000      	.insn	6, 0x106114df
    413e22d6:	0000                	.insn	2, 0x0000
    413e22d8:	18df 1061 0000      	.insn	6, 0x106118df
    413e22de:	0000                	.insn	2, 0x0000
    413e22e0:	1cdf 1061 0000      	.insn	6, 0x10611cdf
    413e22e6:	0000                	.insn	2, 0x0000
    413e22e8:	20df 1061 0000      	.insn	6, 0x106120df
    413e22ee:	0000                	.insn	2, 0x0000
    413e22f0:	24df 1061 0000      	.insn	6, 0x106124df
    413e22f6:	0000                	.insn	2, 0x0000
    413e22f8:	28df 1061 0000      	.insn	6, 0x106128df
    413e22fe:	0000                	.insn	2, 0x0000
    413e2300:	2cdf 1061 0000      	.insn	6, 0x10612cdf
    413e2306:	0000                	.insn	2, 0x0000
    413e2308:	30df 1061 0000      	.insn	6, 0x106130df
    413e230e:	0000                	.insn	2, 0x0000
    413e2310:	34df 1061 0000      	.insn	6, 0x106134df
    413e2316:	0000                	.insn	2, 0x0000
    413e2318:	38df 1061 0000      	.insn	6, 0x106138df
    413e231e:	0000                	.insn	2, 0x0000
    413e2320:	3cdf 1061 0000      	.insn	6, 0x10613cdf
    413e2326:	0000                	.insn	2, 0x0000
    413e2328:	40df 1061 0000      	.insn	6, 0x106140df
    413e232e:	0000                	.insn	2, 0x0000
    413e2330:	44df 1061 0000      	.insn	6, 0x106144df
    413e2336:	0000                	.insn	2, 0x0000
    413e2338:	48df 1061 0000      	.insn	6, 0x106148df
    413e233e:	0000                	.insn	2, 0x0000
    413e2340:	4cdf 1061 0000      	.insn	6, 0x10614cdf
    413e2346:	0000                	.insn	2, 0x0000
    413e2348:	50df 1061 0000      	.insn	6, 0x106150df
    413e234e:	0000                	.insn	2, 0x0000
    413e2350:	54df 1061 0000      	.insn	6, 0x106154df
    413e2356:	0000                	.insn	2, 0x0000
    413e2358:	58df 1061 0000      	.insn	6, 0x106158df
    413e235e:	0000                	.insn	2, 0x0000
    413e2360:	5cdf 1061 0000      	.insn	6, 0x10615cdf
    413e2366:	0000                	.insn	2, 0x0000
    413e2368:	60df 1061 0000      	.insn	6, 0x106160df
    413e236e:	0000                	.insn	2, 0x0000
    413e2370:	64df 1061 0000      	.insn	6, 0x106164df
    413e2376:	0000                	.insn	2, 0x0000
    413e2378:	68df 1061 0000      	.insn	6, 0x106168df
    413e237e:	0000                	.insn	2, 0x0000
    413e2380:	6cdf 1061 0000      	.insn	6, 0x10616cdf
    413e2386:	0000                	.insn	2, 0x0000
    413e2388:	70df 1061 0000      	.insn	6, 0x106170df
    413e238e:	0000                	.insn	2, 0x0000
    413e2390:	74df 1061 0000      	.insn	6, 0x106174df
    413e2396:	0000                	.insn	2, 0x0000
    413e2398:	78df 1061 0000      	.insn	6, 0x106178df
    413e239e:	0000                	.insn	2, 0x0000
    413e23a0:	7cdf 1061 0000      	.insn	6, 0x10617cdf
    413e23a6:	0000                	.insn	2, 0x0000
    413e23a8:	80df 1061 0000      	.insn	6, 0x106180df
    413e23ae:	0000                	.insn	2, 0x0000
    413e23b0:	84df 1061 0000      	.insn	6, 0x106184df
    413e23b6:	0000                	.insn	2, 0x0000
    413e23b8:	88df 1061 0000      	.insn	6, 0x106188df
    413e23be:	0000                	.insn	2, 0x0000
    413e23c0:	8cdf 1061 0000      	.insn	6, 0x10618cdf
    413e23c6:	0000                	.insn	2, 0x0000
    413e23c8:	90df 1061 0000      	.insn	6, 0x106190df
    413e23ce:	0000                	.insn	2, 0x0000
    413e23d0:	94df 1061 0000      	.insn	6, 0x106194df
    413e23d6:	0000                	.insn	2, 0x0000
    413e23d8:	98df 1061 0000      	.insn	6, 0x106198df
    413e23de:	0000                	.insn	2, 0x0000
    413e23e0:	9cdf 1061 0000      	.insn	6, 0x10619cdf
    413e23e6:	0000                	.insn	2, 0x0000
    413e23e8:	a0df 1061 0000      	.insn	6, 0x1061a0df
    413e23ee:	0000                	.insn	2, 0x0000
    413e23f0:	a4df 1061 0000      	.insn	6, 0x1061a4df
    413e23f6:	0000                	.insn	2, 0x0000
    413e23f8:	a8df 1061 0000      	.insn	6, 0x1061a8df
    413e23fe:	0000                	.insn	2, 0x0000
    413e2400:	acdf 1061 0000      	.insn	6, 0x1061acdf
    413e2406:	0000                	.insn	2, 0x0000
    413e2408:	b0df 1061 0000      	.insn	6, 0x1061b0df
    413e240e:	0000                	.insn	2, 0x0000
    413e2410:	b4df 1061 0000      	.insn	6, 0x1061b4df
    413e2416:	0000                	.insn	2, 0x0000
    413e2418:	b8df 1061 0000      	.insn	6, 0x1061b8df
    413e241e:	0000                	.insn	2, 0x0000
    413e2420:	bcdf 1061 0000      	.insn	6, 0x1061bcdf
    413e2426:	0000                	.insn	2, 0x0000
    413e2428:	c0df 1061 0000      	.insn	6, 0x1061c0df
    413e242e:	0000                	.insn	2, 0x0000
    413e2430:	c4df 1061 0000      	.insn	6, 0x1061c4df
    413e2436:	0000                	.insn	2, 0x0000
    413e2438:	c8df 1061 0000      	.insn	6, 0x1061c8df
    413e243e:	0000                	.insn	2, 0x0000
    413e2440:	ccdf 1061 0000      	.insn	6, 0x1061ccdf
    413e2446:	0000                	.insn	2, 0x0000
    413e2448:	d0df 1061 0000      	.insn	6, 0x1061d0df
    413e244e:	0000                	.insn	2, 0x0000
    413e2450:	d4df 1061 0000      	.insn	6, 0x1061d4df
    413e2456:	0000                	.insn	2, 0x0000
    413e2458:	d8df 1061 0000      	.insn	6, 0x1061d8df
    413e245e:	0000                	.insn	2, 0x0000
    413e2460:	dcdf 1061 0000      	.insn	6, 0x1061dcdf
    413e2466:	0000                	.insn	2, 0x0000
    413e2468:	e0df 1061 0000      	.insn	6, 0x1061e0df
    413e246e:	0000                	.insn	2, 0x0000
    413e2470:	e4df 1061 0000      	.insn	6, 0x1061e4df
    413e2476:	0000                	.insn	2, 0x0000
    413e2478:	e8df 1061 0000      	.insn	6, 0x1061e8df
    413e247e:	0000                	.insn	2, 0x0000
    413e2480:	ecdf 1061 0000      	.insn	6, 0x1061ecdf
    413e2486:	0000                	.insn	2, 0x0000
    413e2488:	f0df 1061 0000      	.insn	6, 0x1061f0df
    413e248e:	0000                	.insn	2, 0x0000
    413e2490:	f4df 1061 0000      	.insn	6, 0x1061f4df
    413e2496:	0000                	.insn	2, 0x0000
    413e2498:	f8df 1061 0000      	.insn	6, 0x1061f8df
    413e249e:	0000                	.insn	2, 0x0000
    413e24a0:	fcdf 1061 0000      	.insn	6, 0x1061fcdf
    413e24a6:	0000                	.insn	2, 0x0000
    413e24a8:	00df 1062 0000      	.insn	6, 0x106200df
    413e24ae:	0000                	.insn	2, 0x0000
    413e24b0:	04df 1062 0000      	.insn	6, 0x106204df
    413e24b6:	0000                	.insn	2, 0x0000
    413e24b8:	08df 1062 0000      	.insn	6, 0x106208df
    413e24be:	0000                	.insn	2, 0x0000
    413e24c0:	0cdf 1062 0000      	.insn	6, 0x10620cdf
    413e24c6:	0000                	.insn	2, 0x0000
    413e24c8:	10df 1062 0000      	.insn	6, 0x106210df
    413e24ce:	0000                	.insn	2, 0x0000
    413e24d0:	14df 1062 0000      	.insn	6, 0x106214df
    413e24d6:	0000                	.insn	2, 0x0000
    413e24d8:	18df 1062 0000      	.insn	6, 0x106218df
    413e24de:	0000                	.insn	2, 0x0000
    413e24e0:	1cdf 1062 0000      	.insn	6, 0x10621cdf
    413e24e6:	0000                	.insn	2, 0x0000
    413e24e8:	20df 1062 0000      	.insn	6, 0x106220df
    413e24ee:	0000                	.insn	2, 0x0000
    413e24f0:	24df 1062 0000      	.insn	6, 0x106224df
    413e24f6:	0000                	.insn	2, 0x0000
    413e24f8:	28df 1062 0000      	.insn	6, 0x106228df
    413e24fe:	0000                	.insn	2, 0x0000
    413e2500:	2cdf 1062 0000      	.insn	6, 0x10622cdf
    413e2506:	0000                	.insn	2, 0x0000
    413e2508:	30df 1062 0000      	.insn	6, 0x106230df
    413e250e:	0000                	.insn	2, 0x0000
    413e2510:	34df 1062 0000      	.insn	6, 0x106234df
    413e2516:	0000                	.insn	2, 0x0000
    413e2518:	38df 1062 0000      	.insn	6, 0x106238df
    413e251e:	0000                	.insn	2, 0x0000
    413e2520:	3cdf 1062 0000      	.insn	6, 0x10623cdf
    413e2526:	0000                	.insn	2, 0x0000
    413e2528:	40df 1062 0000      	.insn	6, 0x106240df
    413e252e:	0000                	.insn	2, 0x0000
    413e2530:	44df 1062 0000      	.insn	6, 0x106244df
    413e2536:	0000                	.insn	2, 0x0000
    413e2538:	48df 1062 0000      	.insn	6, 0x106248df
    413e253e:	0000                	.insn	2, 0x0000
    413e2540:	4cdf 1062 0000      	.insn	6, 0x10624cdf
    413e2546:	0000                	.insn	2, 0x0000
    413e2548:	50df 1062 0000      	.insn	6, 0x106250df
    413e254e:	0000                	.insn	2, 0x0000
    413e2550:	54df 1062 0000      	.insn	6, 0x106254df
    413e2556:	0000                	.insn	2, 0x0000
    413e2558:	58df 1062 0000      	.insn	6, 0x106258df
    413e255e:	0000                	.insn	2, 0x0000
    413e2560:	5cdf 1062 0000      	.insn	6, 0x10625cdf
    413e2566:	0000                	.insn	2, 0x0000
    413e2568:	60df 1062 0000      	.insn	6, 0x106260df
    413e256e:	0000                	.insn	2, 0x0000
    413e2570:	64df 1062 0000      	.insn	6, 0x106264df
    413e2576:	0000                	.insn	2, 0x0000
    413e2578:	68df 1062 0000      	.insn	6, 0x106268df
    413e257e:	0000                	.insn	2, 0x0000
    413e2580:	6cdf 1062 0000      	.insn	6, 0x10626cdf
    413e2586:	0000                	.insn	2, 0x0000
    413e2588:	70df 1062 0000      	.insn	6, 0x106270df
    413e258e:	0000                	.insn	2, 0x0000
    413e2590:	74df 1062 0000      	.insn	6, 0x106274df
    413e2596:	0000                	.insn	2, 0x0000
    413e2598:	78df 1062 0000      	.insn	6, 0x106278df
    413e259e:	0000                	.insn	2, 0x0000
    413e25a0:	7cdf 1062 0000      	.insn	6, 0x10627cdf
    413e25a6:	0000                	.insn	2, 0x0000
    413e25a8:	80df 1062 0000      	.insn	6, 0x106280df
    413e25ae:	0000                	.insn	2, 0x0000
    413e25b0:	84df 1062 0000      	.insn	6, 0x106284df
    413e25b6:	0000                	.insn	2, 0x0000
    413e25b8:	88df 1062 0000      	.insn	6, 0x106288df
    413e25be:	0000                	.insn	2, 0x0000
    413e25c0:	8cdf 1062 0000      	.insn	6, 0x10628cdf
    413e25c6:	0000                	.insn	2, 0x0000
    413e25c8:	90df 1062 0000      	.insn	6, 0x106290df
    413e25ce:	0000                	.insn	2, 0x0000
    413e25d0:	94df 1062 0000      	.insn	6, 0x106294df
    413e25d6:	0000                	.insn	2, 0x0000
    413e25d8:	98df 1062 0000      	.insn	6, 0x106298df
    413e25de:	0000                	.insn	2, 0x0000
    413e25e0:	9cdf 1062 0000      	.insn	6, 0x10629cdf
    413e25e6:	0000                	.insn	2, 0x0000
    413e25e8:	a0df 1062 0000      	.insn	6, 0x1062a0df
    413e25ee:	0000                	.insn	2, 0x0000
    413e25f0:	a4df 1062 0000      	.insn	6, 0x1062a4df
    413e25f6:	0000                	.insn	2, 0x0000
    413e25f8:	a8df 1062 0000      	.insn	6, 0x1062a8df
    413e25fe:	0000                	.insn	2, 0x0000
    413e2600:	acdf 1062 0000      	.insn	6, 0x1062acdf
    413e2606:	0000                	.insn	2, 0x0000
    413e2608:	b0df 1062 0000      	.insn	6, 0x1062b0df
    413e260e:	0000                	.insn	2, 0x0000
    413e2610:	b4df 1062 0000      	.insn	6, 0x1062b4df
    413e2616:	0000                	.insn	2, 0x0000
    413e2618:	b8df 1062 0000      	.insn	6, 0x1062b8df
    413e261e:	0000                	.insn	2, 0x0000
    413e2620:	bcdf 1062 0000      	.insn	6, 0x1062bcdf
    413e2626:	0000                	.insn	2, 0x0000
    413e2628:	c0df 1062 0000      	.insn	6, 0x1062c0df
    413e262e:	0000                	.insn	2, 0x0000
    413e2630:	c4df 1062 0000      	.insn	6, 0x1062c4df
    413e2636:	0000                	.insn	2, 0x0000
    413e2638:	c8df 1062 0000      	.insn	6, 0x1062c8df
    413e263e:	0000                	.insn	2, 0x0000
    413e2640:	ccdf 1062 0000      	.insn	6, 0x1062ccdf
    413e2646:	0000                	.insn	2, 0x0000
    413e2648:	d0df 1062 0000      	.insn	6, 0x1062d0df
    413e264e:	0000                	.insn	2, 0x0000
    413e2650:	d4df 1062 0000      	.insn	6, 0x1062d4df
    413e2656:	0000                	.insn	2, 0x0000
    413e2658:	d8df 1062 0000      	.insn	6, 0x1062d8df
    413e265e:	0000                	.insn	2, 0x0000
    413e2660:	dcdf 1062 0000      	.insn	6, 0x1062dcdf
    413e2666:	0000                	.insn	2, 0x0000
    413e2668:	e0df 1062 0000      	.insn	6, 0x1062e0df
    413e266e:	0000                	.insn	2, 0x0000
    413e2670:	e4df 1062 0000      	.insn	6, 0x1062e4df
    413e2676:	0000                	.insn	2, 0x0000
    413e2678:	e8df 1062 0000      	.insn	6, 0x1062e8df
    413e267e:	0000                	.insn	2, 0x0000
    413e2680:	ecdf 1062 0000      	.insn	6, 0x1062ecdf
    413e2686:	0000                	.insn	2, 0x0000
    413e2688:	f0df 1062 0000      	.insn	6, 0x1062f0df
    413e268e:	0000                	.insn	2, 0x0000
    413e2690:	f4df 1062 0000      	.insn	6, 0x1062f4df
    413e2696:	0000                	.insn	2, 0x0000
    413e2698:	f8df 1062 0000      	.insn	6, 0x1062f8df
    413e269e:	0000                	.insn	2, 0x0000
    413e26a0:	fcdf 1062 0000      	.insn	6, 0x1062fcdf
    413e26a6:	0000                	.insn	2, 0x0000
    413e26a8:	00df 1063 0000      	.insn	6, 0x106300df
    413e26ae:	0000                	.insn	2, 0x0000
    413e26b0:	04df 1063 0000      	.insn	6, 0x106304df
    413e26b6:	0000                	.insn	2, 0x0000
    413e26b8:	08df 1063 0000      	.insn	6, 0x106308df
    413e26be:	0000                	.insn	2, 0x0000
    413e26c0:	0cdf 1063 0000      	.insn	6, 0x10630cdf
    413e26c6:	0000                	.insn	2, 0x0000
    413e26c8:	10df 1063 0000      	.insn	6, 0x106310df
    413e26ce:	0000                	.insn	2, 0x0000
    413e26d0:	14df 1063 0000      	.insn	6, 0x106314df
    413e26d6:	0000                	.insn	2, 0x0000
    413e26d8:	18df 1063 0000      	.insn	6, 0x106318df
    413e26de:	0000                	.insn	2, 0x0000
    413e26e0:	1cdf 1063 0000      	.insn	6, 0x10631cdf
    413e26e6:	0000                	.insn	2, 0x0000
    413e26e8:	20df 1063 0000      	.insn	6, 0x106320df
    413e26ee:	0000                	.insn	2, 0x0000
    413e26f0:	24df 1063 0000      	.insn	6, 0x106324df
    413e26f6:	0000                	.insn	2, 0x0000
    413e26f8:	28df 1063 0000      	.insn	6, 0x106328df
    413e26fe:	0000                	.insn	2, 0x0000
    413e2700:	2cdf 1063 0000      	.insn	6, 0x10632cdf
    413e2706:	0000                	.insn	2, 0x0000
    413e2708:	30df 1063 0000      	.insn	6, 0x106330df
    413e270e:	0000                	.insn	2, 0x0000
    413e2710:	34df 1063 0000      	.insn	6, 0x106334df
    413e2716:	0000                	.insn	2, 0x0000
    413e2718:	38df 1063 0000      	.insn	6, 0x106338df
    413e271e:	0000                	.insn	2, 0x0000
    413e2720:	3cdf 1063 0000      	.insn	6, 0x10633cdf
    413e2726:	0000                	.insn	2, 0x0000
    413e2728:	40df 1063 0000      	.insn	6, 0x106340df
    413e272e:	0000                	.insn	2, 0x0000
    413e2730:	44df 1063 0000      	.insn	6, 0x106344df
    413e2736:	0000                	.insn	2, 0x0000
    413e2738:	48df 1063 0000      	.insn	6, 0x106348df
    413e273e:	0000                	.insn	2, 0x0000
    413e2740:	4cdf 1063 0000      	.insn	6, 0x10634cdf
    413e2746:	0000                	.insn	2, 0x0000
    413e2748:	50df 1063 0000      	.insn	6, 0x106350df
    413e274e:	0000                	.insn	2, 0x0000
    413e2750:	54df 1063 0000      	.insn	6, 0x106354df
    413e2756:	0000                	.insn	2, 0x0000
    413e2758:	58df 1063 0000      	.insn	6, 0x106358df
    413e275e:	0000                	.insn	2, 0x0000
    413e2760:	5cdf 1063 0000      	.insn	6, 0x10635cdf
    413e2766:	0000                	.insn	2, 0x0000
    413e2768:	60df 1063 0000      	.insn	6, 0x106360df
    413e276e:	0000                	.insn	2, 0x0000
    413e2770:	64df 1063 0000      	.insn	6, 0x106364df
    413e2776:	0000                	.insn	2, 0x0000
    413e2778:	68df 1063 0000      	.insn	6, 0x106368df
    413e277e:	0000                	.insn	2, 0x0000
    413e2780:	6cdf 1063 0000      	.insn	6, 0x10636cdf
    413e2786:	0000                	.insn	2, 0x0000
    413e2788:	70df 1063 0000      	.insn	6, 0x106370df
    413e278e:	0000                	.insn	2, 0x0000
    413e2790:	74df 1063 0000      	.insn	6, 0x106374df
    413e2796:	0000                	.insn	2, 0x0000
    413e2798:	78df 1063 0000      	.insn	6, 0x106378df
    413e279e:	0000                	.insn	2, 0x0000
    413e27a0:	7cdf 1063 0000      	.insn	6, 0x10637cdf
    413e27a6:	0000                	.insn	2, 0x0000
    413e27a8:	80df 1063 0000      	.insn	6, 0x106380df
    413e27ae:	0000                	.insn	2, 0x0000
    413e27b0:	84df 1063 0000      	.insn	6, 0x106384df
    413e27b6:	0000                	.insn	2, 0x0000
    413e27b8:	88df 1063 0000      	.insn	6, 0x106388df
    413e27be:	0000                	.insn	2, 0x0000
    413e27c0:	8cdf 1063 0000      	.insn	6, 0x10638cdf
    413e27c6:	0000                	.insn	2, 0x0000
    413e27c8:	90df 1063 0000      	.insn	6, 0x106390df
    413e27ce:	0000                	.insn	2, 0x0000
    413e27d0:	94df 1063 0000      	.insn	6, 0x106394df
    413e27d6:	0000                	.insn	2, 0x0000
    413e27d8:	98df 1063 0000      	.insn	6, 0x106398df
    413e27de:	0000                	.insn	2, 0x0000
    413e27e0:	9cdf 1063 0000      	.insn	6, 0x10639cdf
    413e27e6:	0000                	.insn	2, 0x0000
    413e27e8:	a0df 1063 0000      	.insn	6, 0x1063a0df
    413e27ee:	0000                	.insn	2, 0x0000
    413e27f0:	a4df 1063 0000      	.insn	6, 0x1063a4df
    413e27f6:	0000                	.insn	2, 0x0000
    413e27f8:	a8df 1063 0000      	.insn	6, 0x1063a8df
    413e27fe:	0000                	.insn	2, 0x0000
    413e2800:	acdf 1063 0000      	.insn	6, 0x1063acdf
    413e2806:	0000                	.insn	2, 0x0000
    413e2808:	b0df 1063 0000      	.insn	6, 0x1063b0df
    413e280e:	0000                	.insn	2, 0x0000
    413e2810:	b4df 1063 0000      	.insn	6, 0x1063b4df
    413e2816:	0000                	.insn	2, 0x0000
    413e2818:	b8df 1063 0000      	.insn	6, 0x1063b8df
    413e281e:	0000                	.insn	2, 0x0000
    413e2820:	bcdf 1063 0000      	.insn	6, 0x1063bcdf
    413e2826:	0000                	.insn	2, 0x0000
    413e2828:	c0df 1063 0000      	.insn	6, 0x1063c0df
    413e282e:	0000                	.insn	2, 0x0000
    413e2830:	c4df 1063 0000      	.insn	6, 0x1063c4df
    413e2836:	0000                	.insn	2, 0x0000
    413e2838:	c8df 1063 0000      	.insn	6, 0x1063c8df
    413e283e:	0000                	.insn	2, 0x0000
    413e2840:	ccdf 1063 0000      	.insn	6, 0x1063ccdf
    413e2846:	0000                	.insn	2, 0x0000
    413e2848:	d0df 1063 0000      	.insn	6, 0x1063d0df
    413e284e:	0000                	.insn	2, 0x0000
    413e2850:	d4df 1063 0000      	.insn	6, 0x1063d4df
    413e2856:	0000                	.insn	2, 0x0000
    413e2858:	d8df 1063 0000      	.insn	6, 0x1063d8df
    413e285e:	0000                	.insn	2, 0x0000
    413e2860:	dcdf 1063 0000      	.insn	6, 0x1063dcdf
    413e2866:	0000                	.insn	2, 0x0000
    413e2868:	e0df 1063 0000      	.insn	6, 0x1063e0df
    413e286e:	0000                	.insn	2, 0x0000
    413e2870:	e4df 1063 0000      	.insn	6, 0x1063e4df
    413e2876:	0000                	.insn	2, 0x0000
    413e2878:	e8df 1063 0000      	.insn	6, 0x1063e8df
    413e287e:	0000                	.insn	2, 0x0000
    413e2880:	ecdf 1063 0000      	.insn	6, 0x1063ecdf
    413e2886:	0000                	.insn	2, 0x0000
    413e2888:	f0df 1063 0000      	.insn	6, 0x1063f0df
    413e288e:	0000                	.insn	2, 0x0000
    413e2890:	f4df 1063 0000      	.insn	6, 0x1063f4df
    413e2896:	0000                	.insn	2, 0x0000
    413e2898:	f8df 1063 0000      	.insn	6, 0x1063f8df
    413e289e:	0000                	.insn	2, 0x0000
    413e28a0:	fcdf 1063 0000      	.insn	6, 0x1063fcdf
    413e28a6:	0000                	.insn	2, 0x0000
    413e28a8:	00df 1064 0000      	.insn	6, 0x106400df
    413e28ae:	0000                	.insn	2, 0x0000
    413e28b0:	04df 1064 0000      	.insn	6, 0x106404df
    413e28b6:	0000                	.insn	2, 0x0000
    413e28b8:	08df 1064 0000      	.insn	6, 0x106408df
    413e28be:	0000                	.insn	2, 0x0000
    413e28c0:	0cdf 1064 0000      	.insn	6, 0x10640cdf
    413e28c6:	0000                	.insn	2, 0x0000
    413e28c8:	10df 1064 0000      	.insn	6, 0x106410df
    413e28ce:	0000                	.insn	2, 0x0000
    413e28d0:	14df 1064 0000      	.insn	6, 0x106414df
    413e28d6:	0000                	.insn	2, 0x0000
    413e28d8:	18df 1064 0000      	.insn	6, 0x106418df
    413e28de:	0000                	.insn	2, 0x0000
    413e28e0:	1cdf 1064 0000      	.insn	6, 0x10641cdf
    413e28e6:	0000                	.insn	2, 0x0000
    413e28e8:	20df 1064 0000      	.insn	6, 0x106420df
    413e28ee:	0000                	.insn	2, 0x0000
    413e28f0:	24df 1064 0000      	.insn	6, 0x106424df
    413e28f6:	0000                	.insn	2, 0x0000
    413e28f8:	28df 1064 0000      	.insn	6, 0x106428df
    413e28fe:	0000                	.insn	2, 0x0000
    413e2900:	2cdf 1064 0000      	.insn	6, 0x10642cdf
    413e2906:	0000                	.insn	2, 0x0000
    413e2908:	30df 1064 0000      	.insn	6, 0x106430df
    413e290e:	0000                	.insn	2, 0x0000
    413e2910:	34df 1064 0000      	.insn	6, 0x106434df
    413e2916:	0000                	.insn	2, 0x0000
    413e2918:	38df 1064 0000      	.insn	6, 0x106438df
    413e291e:	0000                	.insn	2, 0x0000
    413e2920:	3cdf 1064 0000      	.insn	6, 0x10643cdf
    413e2926:	0000                	.insn	2, 0x0000
    413e2928:	40df 1064 0000      	.insn	6, 0x106440df
    413e292e:	0000                	.insn	2, 0x0000
    413e2930:	44df 1064 0000      	.insn	6, 0x106444df
    413e2936:	0000                	.insn	2, 0x0000
    413e2938:	48df 1064 0000      	.insn	6, 0x106448df
    413e293e:	0000                	.insn	2, 0x0000
    413e2940:	4cdf 1064 0000      	.insn	6, 0x10644cdf
    413e2946:	0000                	.insn	2, 0x0000
    413e2948:	50df 1064 0000      	.insn	6, 0x106450df
    413e294e:	0000                	.insn	2, 0x0000
    413e2950:	54df 1064 0000      	.insn	6, 0x106454df
    413e2956:	0000                	.insn	2, 0x0000
    413e2958:	58df 1064 0000      	.insn	6, 0x106458df
    413e295e:	0000                	.insn	2, 0x0000
    413e2960:	5cdf 1064 0000      	.insn	6, 0x10645cdf
    413e2966:	0000                	.insn	2, 0x0000
    413e2968:	60df 1064 0000      	.insn	6, 0x106460df
    413e296e:	0000                	.insn	2, 0x0000
    413e2970:	64df 1064 0000      	.insn	6, 0x106464df
    413e2976:	0000                	.insn	2, 0x0000
    413e2978:	68df 1064 0000      	.insn	6, 0x106468df
    413e297e:	0000                	.insn	2, 0x0000
    413e2980:	6cdf 1064 0000      	.insn	6, 0x10646cdf
    413e2986:	0000                	.insn	2, 0x0000
    413e2988:	70df 1064 0000      	.insn	6, 0x106470df
    413e298e:	0000                	.insn	2, 0x0000
    413e2990:	74df 1064 0000      	.insn	6, 0x106474df
    413e2996:	0000                	.insn	2, 0x0000
    413e2998:	78df 1064 0000      	.insn	6, 0x106478df
    413e299e:	0000                	.insn	2, 0x0000
    413e29a0:	7cdf 1064 0000      	.insn	6, 0x10647cdf
    413e29a6:	0000                	.insn	2, 0x0000
    413e29a8:	80df 1064 0000      	.insn	6, 0x106480df
    413e29ae:	0000                	.insn	2, 0x0000
    413e29b0:	84df 1064 0000      	.insn	6, 0x106484df
    413e29b6:	0000                	.insn	2, 0x0000
    413e29b8:	88df 1064 0000      	.insn	6, 0x106488df
    413e29be:	0000                	.insn	2, 0x0000
    413e29c0:	8cdf 1064 0000      	.insn	6, 0x10648cdf
    413e29c6:	0000                	.insn	2, 0x0000
    413e29c8:	90df 1064 0000      	.insn	6, 0x106490df
    413e29ce:	0000                	.insn	2, 0x0000
    413e29d0:	94df 1064 0000      	.insn	6, 0x106494df
    413e29d6:	0000                	.insn	2, 0x0000
    413e29d8:	98df 1064 0000      	.insn	6, 0x106498df
    413e29de:	0000                	.insn	2, 0x0000
    413e29e0:	9cdf 1064 0000      	.insn	6, 0x10649cdf
    413e29e6:	0000                	.insn	2, 0x0000
    413e29e8:	a0df 1064 0000      	.insn	6, 0x1064a0df
    413e29ee:	0000                	.insn	2, 0x0000
    413e29f0:	a4df 1064 0000      	.insn	6, 0x1064a4df
    413e29f6:	0000                	.insn	2, 0x0000
    413e29f8:	a8df 1064 0000      	.insn	6, 0x1064a8df
    413e29fe:	0000                	.insn	2, 0x0000
    413e2a00:	acdf 1064 0000      	.insn	6, 0x1064acdf
    413e2a06:	0000                	.insn	2, 0x0000
    413e2a08:	b0df 1064 0000      	.insn	6, 0x1064b0df
    413e2a0e:	0000                	.insn	2, 0x0000
    413e2a10:	b4df 1064 0000      	.insn	6, 0x1064b4df
    413e2a16:	0000                	.insn	2, 0x0000
    413e2a18:	b8df 1064 0000      	.insn	6, 0x1064b8df
    413e2a1e:	0000                	.insn	2, 0x0000
    413e2a20:	bcdf 1064 0000      	.insn	6, 0x1064bcdf
    413e2a26:	0000                	.insn	2, 0x0000
    413e2a28:	c0df 1064 0000      	.insn	6, 0x1064c0df
    413e2a2e:	0000                	.insn	2, 0x0000
    413e2a30:	c4df 1064 0000      	.insn	6, 0x1064c4df
    413e2a36:	0000                	.insn	2, 0x0000
    413e2a38:	c8df 1064 0000      	.insn	6, 0x1064c8df
    413e2a3e:	0000                	.insn	2, 0x0000
    413e2a40:	ccdf 1064 0000      	.insn	6, 0x1064ccdf
    413e2a46:	0000                	.insn	2, 0x0000
    413e2a48:	d0df 1064 0000      	.insn	6, 0x1064d0df
    413e2a4e:	0000                	.insn	2, 0x0000
    413e2a50:	d4df 1064 0000      	.insn	6, 0x1064d4df
    413e2a56:	0000                	.insn	2, 0x0000
    413e2a58:	d8df 1064 0000      	.insn	6, 0x1064d8df
    413e2a5e:	0000                	.insn	2, 0x0000
    413e2a60:	dcdf 1064 0000      	.insn	6, 0x1064dcdf
    413e2a66:	0000                	.insn	2, 0x0000
    413e2a68:	e0df 1064 0000      	.insn	6, 0x1064e0df
    413e2a6e:	0000                	.insn	2, 0x0000
    413e2a70:	e4df 1064 0000      	.insn	6, 0x1064e4df
    413e2a76:	0000                	.insn	2, 0x0000
    413e2a78:	e8df 1064 0000      	.insn	6, 0x1064e8df
    413e2a7e:	0000                	.insn	2, 0x0000
    413e2a80:	ecdf 1064 0000      	.insn	6, 0x1064ecdf
    413e2a86:	0000                	.insn	2, 0x0000
    413e2a88:	f0df 1064 0000      	.insn	6, 0x1064f0df
    413e2a8e:	0000                	.insn	2, 0x0000
    413e2a90:	f4df 1064 0000      	.insn	6, 0x1064f4df
    413e2a96:	0000                	.insn	2, 0x0000
    413e2a98:	f8df 1064 0000      	.insn	6, 0x1064f8df
    413e2a9e:	0000                	.insn	2, 0x0000
    413e2aa0:	fcdf 1064 0000      	.insn	6, 0x1064fcdf
    413e2aa6:	0000                	.insn	2, 0x0000
    413e2aa8:	00df 1065 0000      	.insn	6, 0x106500df
    413e2aae:	0000                	.insn	2, 0x0000
    413e2ab0:	04df 1065 0000      	.insn	6, 0x106504df
    413e2ab6:	0000                	.insn	2, 0x0000
    413e2ab8:	08df 1065 0000      	.insn	6, 0x106508df
    413e2abe:	0000                	.insn	2, 0x0000
    413e2ac0:	0cdf 1065 0000      	.insn	6, 0x10650cdf
    413e2ac6:	0000                	.insn	2, 0x0000
    413e2ac8:	10df 1065 0000      	.insn	6, 0x106510df
    413e2ace:	0000                	.insn	2, 0x0000
    413e2ad0:	14df 1065 0000      	.insn	6, 0x106514df
    413e2ad6:	0000                	.insn	2, 0x0000
    413e2ad8:	18df 1065 0000      	.insn	6, 0x106518df
    413e2ade:	0000                	.insn	2, 0x0000
    413e2ae0:	1cdf 1065 0000      	.insn	6, 0x10651cdf
    413e2ae6:	0000                	.insn	2, 0x0000
    413e2ae8:	20df 1065 0000      	.insn	6, 0x106520df
    413e2aee:	0000                	.insn	2, 0x0000
    413e2af0:	24df 1065 0000      	.insn	6, 0x106524df
    413e2af6:	0000                	.insn	2, 0x0000
    413e2af8:	28df 1065 0000      	.insn	6, 0x106528df
    413e2afe:	0000                	.insn	2, 0x0000
    413e2b00:	2cdf 1065 0000      	.insn	6, 0x10652cdf
    413e2b06:	0000                	.insn	2, 0x0000
    413e2b08:	30df 1065 0000      	.insn	6, 0x106530df
    413e2b0e:	0000                	.insn	2, 0x0000
    413e2b10:	34df 1065 0000      	.insn	6, 0x106534df
    413e2b16:	0000                	.insn	2, 0x0000
    413e2b18:	38df 1065 0000      	.insn	6, 0x106538df
    413e2b1e:	0000                	.insn	2, 0x0000
    413e2b20:	3cdf 1065 0000      	.insn	6, 0x10653cdf
    413e2b26:	0000                	.insn	2, 0x0000
    413e2b28:	40df 1065 0000      	.insn	6, 0x106540df
    413e2b2e:	0000                	.insn	2, 0x0000
    413e2b30:	44df 1065 0000      	.insn	6, 0x106544df
    413e2b36:	0000                	.insn	2, 0x0000
    413e2b38:	48df 1065 0000      	.insn	6, 0x106548df
    413e2b3e:	0000                	.insn	2, 0x0000
    413e2b40:	4cdf 1065 0000      	.insn	6, 0x10654cdf
    413e2b46:	0000                	.insn	2, 0x0000
    413e2b48:	50df 1065 0000      	.insn	6, 0x106550df
    413e2b4e:	0000                	.insn	2, 0x0000
    413e2b50:	54df 1065 0000      	.insn	6, 0x106554df
    413e2b56:	0000                	.insn	2, 0x0000
    413e2b58:	58df 1065 0000      	.insn	6, 0x106558df
    413e2b5e:	0000                	.insn	2, 0x0000
    413e2b60:	5cdf 1065 0000      	.insn	6, 0x10655cdf
    413e2b66:	0000                	.insn	2, 0x0000
    413e2b68:	60df 1065 0000      	.insn	6, 0x106560df
    413e2b6e:	0000                	.insn	2, 0x0000
    413e2b70:	64df 1065 0000      	.insn	6, 0x106564df
    413e2b76:	0000                	.insn	2, 0x0000
    413e2b78:	68df 1065 0000      	.insn	6, 0x106568df
    413e2b7e:	0000                	.insn	2, 0x0000
    413e2b80:	6cdf 1065 0000      	.insn	6, 0x10656cdf
    413e2b86:	0000                	.insn	2, 0x0000
    413e2b88:	70df 1065 0000      	.insn	6, 0x106570df
    413e2b8e:	0000                	.insn	2, 0x0000
    413e2b90:	74df 1065 0000      	.insn	6, 0x106574df
    413e2b96:	0000                	.insn	2, 0x0000
    413e2b98:	78df 1065 0000      	.insn	6, 0x106578df
    413e2b9e:	0000                	.insn	2, 0x0000
    413e2ba0:	7cdf 1065 0000      	.insn	6, 0x10657cdf
    413e2ba6:	0000                	.insn	2, 0x0000
    413e2ba8:	80df 1065 0000      	.insn	6, 0x106580df
    413e2bae:	0000                	.insn	2, 0x0000
    413e2bb0:	84df 1065 0000      	.insn	6, 0x106584df
    413e2bb6:	0000                	.insn	2, 0x0000
    413e2bb8:	88df 1065 0000      	.insn	6, 0x106588df
    413e2bbe:	0000                	.insn	2, 0x0000
    413e2bc0:	8cdf 1065 0000      	.insn	6, 0x10658cdf
    413e2bc6:	0000                	.insn	2, 0x0000
    413e2bc8:	90df 1065 0000      	.insn	6, 0x106590df
    413e2bce:	0000                	.insn	2, 0x0000
    413e2bd0:	94df 1065 0000      	.insn	6, 0x106594df
    413e2bd6:	0000                	.insn	2, 0x0000
    413e2bd8:	98df 1065 0000      	.insn	6, 0x106598df
    413e2bde:	0000                	.insn	2, 0x0000
    413e2be0:	9cdf 1065 0000      	.insn	6, 0x10659cdf
    413e2be6:	0000                	.insn	2, 0x0000
    413e2be8:	a0df 1065 0000      	.insn	6, 0x1065a0df
    413e2bee:	0000                	.insn	2, 0x0000
    413e2bf0:	a4df 1065 0000      	.insn	6, 0x1065a4df
    413e2bf6:	0000                	.insn	2, 0x0000
    413e2bf8:	a8df 1065 0000      	.insn	6, 0x1065a8df
    413e2bfe:	0000                	.insn	2, 0x0000
    413e2c00:	acdf 1065 0000      	.insn	6, 0x1065acdf
    413e2c06:	0000                	.insn	2, 0x0000
    413e2c08:	b0df 1065 0000      	.insn	6, 0x1065b0df
    413e2c0e:	0000                	.insn	2, 0x0000
    413e2c10:	b4df 1065 0000      	.insn	6, 0x1065b4df
    413e2c16:	0000                	.insn	2, 0x0000
    413e2c18:	b8df 1065 0000      	.insn	6, 0x1065b8df
    413e2c1e:	0000                	.insn	2, 0x0000
    413e2c20:	bcdf 1065 0000      	.insn	6, 0x1065bcdf
    413e2c26:	0000                	.insn	2, 0x0000
    413e2c28:	c0df 1065 0000      	.insn	6, 0x1065c0df
    413e2c2e:	0000                	.insn	2, 0x0000
    413e2c30:	c4df 1065 0000      	.insn	6, 0x1065c4df
    413e2c36:	0000                	.insn	2, 0x0000
    413e2c38:	c8df 1065 0000      	.insn	6, 0x1065c8df
    413e2c3e:	0000                	.insn	2, 0x0000
    413e2c40:	ccdf 1065 0000      	.insn	6, 0x1065ccdf
    413e2c46:	0000                	.insn	2, 0x0000
    413e2c48:	d0df 1065 0000      	.insn	6, 0x1065d0df
    413e2c4e:	0000                	.insn	2, 0x0000
    413e2c50:	d4df 1065 0000      	.insn	6, 0x1065d4df
    413e2c56:	0000                	.insn	2, 0x0000
    413e2c58:	d8df 1065 0000      	.insn	6, 0x1065d8df
    413e2c5e:	0000                	.insn	2, 0x0000
    413e2c60:	dcdf 1065 0000      	.insn	6, 0x1065dcdf
    413e2c66:	0000                	.insn	2, 0x0000
    413e2c68:	e0df 1065 0000      	.insn	6, 0x1065e0df
    413e2c6e:	0000                	.insn	2, 0x0000
    413e2c70:	e4df 1065 0000      	.insn	6, 0x1065e4df
    413e2c76:	0000                	.insn	2, 0x0000
    413e2c78:	e8df 1065 0000      	.insn	6, 0x1065e8df
    413e2c7e:	0000                	.insn	2, 0x0000
    413e2c80:	ecdf 1065 0000      	.insn	6, 0x1065ecdf
    413e2c86:	0000                	.insn	2, 0x0000
    413e2c88:	f0df 1065 0000      	.insn	6, 0x1065f0df
    413e2c8e:	0000                	.insn	2, 0x0000
    413e2c90:	f4df 1065 0000      	.insn	6, 0x1065f4df
    413e2c96:	0000                	.insn	2, 0x0000
    413e2c98:	f8df 1065 0000      	.insn	6, 0x1065f8df
    413e2c9e:	0000                	.insn	2, 0x0000
    413e2ca0:	fcdf 1065 0000      	.insn	6, 0x1065fcdf
    413e2ca6:	0000                	.insn	2, 0x0000
    413e2ca8:	00df 1066 0000      	.insn	6, 0x106600df
    413e2cae:	0000                	.insn	2, 0x0000
    413e2cb0:	04df 1066 0000      	.insn	6, 0x106604df
    413e2cb6:	0000                	.insn	2, 0x0000
    413e2cb8:	08df 1066 0000      	.insn	6, 0x106608df
    413e2cbe:	0000                	.insn	2, 0x0000
    413e2cc0:	0cdf 1066 0000      	.insn	6, 0x10660cdf
    413e2cc6:	0000                	.insn	2, 0x0000
    413e2cc8:	10df 1066 0000      	.insn	6, 0x106610df
    413e2cce:	0000                	.insn	2, 0x0000
    413e2cd0:	14df 1066 0000      	.insn	6, 0x106614df
    413e2cd6:	0000                	.insn	2, 0x0000
    413e2cd8:	18df 1066 0000      	.insn	6, 0x106618df
    413e2cde:	0000                	.insn	2, 0x0000
    413e2ce0:	1cdf 1066 0000      	.insn	6, 0x10661cdf
    413e2ce6:	0000                	.insn	2, 0x0000
    413e2ce8:	20df 1066 0000      	.insn	6, 0x106620df
    413e2cee:	0000                	.insn	2, 0x0000
    413e2cf0:	24df 1066 0000      	.insn	6, 0x106624df
    413e2cf6:	0000                	.insn	2, 0x0000
    413e2cf8:	28df 1066 0000      	.insn	6, 0x106628df
    413e2cfe:	0000                	.insn	2, 0x0000
    413e2d00:	2cdf 1066 0000      	.insn	6, 0x10662cdf
    413e2d06:	0000                	.insn	2, 0x0000
    413e2d08:	30df 1066 0000      	.insn	6, 0x106630df
    413e2d0e:	0000                	.insn	2, 0x0000
    413e2d10:	34df 1066 0000      	.insn	6, 0x106634df
    413e2d16:	0000                	.insn	2, 0x0000
    413e2d18:	38df 1066 0000      	.insn	6, 0x106638df
    413e2d1e:	0000                	.insn	2, 0x0000
    413e2d20:	3cdf 1066 0000      	.insn	6, 0x10663cdf
    413e2d26:	0000                	.insn	2, 0x0000
    413e2d28:	40df 1066 0000      	.insn	6, 0x106640df
    413e2d2e:	0000                	.insn	2, 0x0000
    413e2d30:	44df 1066 0000      	.insn	6, 0x106644df
    413e2d36:	0000                	.insn	2, 0x0000
    413e2d38:	48df 1066 0000      	.insn	6, 0x106648df
    413e2d3e:	0000                	.insn	2, 0x0000
    413e2d40:	4cdf 1066 0000      	.insn	6, 0x10664cdf
    413e2d46:	0000                	.insn	2, 0x0000
    413e2d48:	50df 1066 0000      	.insn	6, 0x106650df
    413e2d4e:	0000                	.insn	2, 0x0000
    413e2d50:	54df 1066 0000      	.insn	6, 0x106654df
    413e2d56:	0000                	.insn	2, 0x0000
    413e2d58:	58df 1066 0000      	.insn	6, 0x106658df
    413e2d5e:	0000                	.insn	2, 0x0000
    413e2d60:	5cdf 1066 0000      	.insn	6, 0x10665cdf
    413e2d66:	0000                	.insn	2, 0x0000
    413e2d68:	60df 1066 0000      	.insn	6, 0x106660df
    413e2d6e:	0000                	.insn	2, 0x0000
    413e2d70:	64df 1066 0000      	.insn	6, 0x106664df
    413e2d76:	0000                	.insn	2, 0x0000
    413e2d78:	68df 1066 0000      	.insn	6, 0x106668df
    413e2d7e:	0000                	.insn	2, 0x0000
    413e2d80:	6cdf 1066 0000      	.insn	6, 0x10666cdf
    413e2d86:	0000                	.insn	2, 0x0000
    413e2d88:	70df 1066 0000      	.insn	6, 0x106670df
    413e2d8e:	0000                	.insn	2, 0x0000
    413e2d90:	74df 1066 0000      	.insn	6, 0x106674df
    413e2d96:	0000                	.insn	2, 0x0000
    413e2d98:	78df 1066 0000      	.insn	6, 0x106678df
    413e2d9e:	0000                	.insn	2, 0x0000
    413e2da0:	7cdf 1066 0000      	.insn	6, 0x10667cdf
    413e2da6:	0000                	.insn	2, 0x0000
    413e2da8:	80df 1066 0000      	.insn	6, 0x106680df
    413e2dae:	0000                	.insn	2, 0x0000
    413e2db0:	84df 1066 0000      	.insn	6, 0x106684df
    413e2db6:	0000                	.insn	2, 0x0000
    413e2db8:	88df 1066 0000      	.insn	6, 0x106688df
    413e2dbe:	0000                	.insn	2, 0x0000
    413e2dc0:	8cdf 1066 0000      	.insn	6, 0x10668cdf
    413e2dc6:	0000                	.insn	2, 0x0000
    413e2dc8:	90df 1066 0000      	.insn	6, 0x106690df
    413e2dce:	0000                	.insn	2, 0x0000
    413e2dd0:	94df 1066 0000      	.insn	6, 0x106694df
    413e2dd6:	0000                	.insn	2, 0x0000
    413e2dd8:	98df 1066 0000      	.insn	6, 0x106698df
    413e2dde:	0000                	.insn	2, 0x0000
    413e2de0:	9cdf 1066 0000      	.insn	6, 0x10669cdf
    413e2de6:	0000                	.insn	2, 0x0000
    413e2de8:	a0df 1066 0000      	.insn	6, 0x1066a0df
    413e2dee:	0000                	.insn	2, 0x0000
    413e2df0:	a4df 1066 0000      	.insn	6, 0x1066a4df
    413e2df6:	0000                	.insn	2, 0x0000
    413e2df8:	a8df 1066 0000      	.insn	6, 0x1066a8df
    413e2dfe:	0000                	.insn	2, 0x0000
    413e2e00:	acdf 1066 0000      	.insn	6, 0x1066acdf
    413e2e06:	0000                	.insn	2, 0x0000
    413e2e08:	b0df 1066 0000      	.insn	6, 0x1066b0df
    413e2e0e:	0000                	.insn	2, 0x0000
    413e2e10:	b4df 1066 0000      	.insn	6, 0x1066b4df
    413e2e16:	0000                	.insn	2, 0x0000
    413e2e18:	b8df 1066 0000      	.insn	6, 0x1066b8df
    413e2e1e:	0000                	.insn	2, 0x0000
    413e2e20:	bcdf 1066 0000      	.insn	6, 0x1066bcdf
    413e2e26:	0000                	.insn	2, 0x0000
    413e2e28:	c0df 1066 0000      	.insn	6, 0x1066c0df
    413e2e2e:	0000                	.insn	2, 0x0000
    413e2e30:	c4df 1066 0000      	.insn	6, 0x1066c4df
    413e2e36:	0000                	.insn	2, 0x0000
    413e2e38:	c8df 1066 0000      	.insn	6, 0x1066c8df
    413e2e3e:	0000                	.insn	2, 0x0000
    413e2e40:	ccdf 1066 0000      	.insn	6, 0x1066ccdf
    413e2e46:	0000                	.insn	2, 0x0000
    413e2e48:	d0df 1066 0000      	.insn	6, 0x1066d0df
    413e2e4e:	0000                	.insn	2, 0x0000
    413e2e50:	d4df 1066 0000      	.insn	6, 0x1066d4df
    413e2e56:	0000                	.insn	2, 0x0000
    413e2e58:	d8df 1066 0000      	.insn	6, 0x1066d8df
    413e2e5e:	0000                	.insn	2, 0x0000
    413e2e60:	dcdf 1066 0000      	.insn	6, 0x1066dcdf
    413e2e66:	0000                	.insn	2, 0x0000
    413e2e68:	e0df 1066 0000      	.insn	6, 0x1066e0df
    413e2e6e:	0000                	.insn	2, 0x0000
    413e2e70:	e4df 1066 0000      	.insn	6, 0x1066e4df
    413e2e76:	0000                	.insn	2, 0x0000
    413e2e78:	e8df 1066 0000      	.insn	6, 0x1066e8df
    413e2e7e:	0000                	.insn	2, 0x0000
    413e2e80:	ecdf 1066 0000      	.insn	6, 0x1066ecdf
    413e2e86:	0000                	.insn	2, 0x0000
    413e2e88:	f0df 1066 0000      	.insn	6, 0x1066f0df
    413e2e8e:	0000                	.insn	2, 0x0000
    413e2e90:	f4df 1066 0000      	.insn	6, 0x1066f4df
    413e2e96:	0000                	.insn	2, 0x0000
    413e2e98:	f8df 1066 0000      	.insn	6, 0x1066f8df
    413e2e9e:	0000                	.insn	2, 0x0000
    413e2ea0:	fcdf 1066 0000      	.insn	6, 0x1066fcdf
    413e2ea6:	0000                	.insn	2, 0x0000
    413e2ea8:	00df 1067 0000      	.insn	6, 0x106700df
    413e2eae:	0000                	.insn	2, 0x0000
    413e2eb0:	04df 1067 0000      	.insn	6, 0x106704df
    413e2eb6:	0000                	.insn	2, 0x0000
    413e2eb8:	08df 1067 0000      	.insn	6, 0x106708df
    413e2ebe:	0000                	.insn	2, 0x0000
    413e2ec0:	0cdf 1067 0000      	.insn	6, 0x10670cdf
    413e2ec6:	0000                	.insn	2, 0x0000
    413e2ec8:	10df 1067 0000      	.insn	6, 0x106710df
    413e2ece:	0000                	.insn	2, 0x0000
    413e2ed0:	14df 1067 0000      	.insn	6, 0x106714df
    413e2ed6:	0000                	.insn	2, 0x0000
    413e2ed8:	18df 1067 0000      	.insn	6, 0x106718df
    413e2ede:	0000                	.insn	2, 0x0000
    413e2ee0:	1cdf 1067 0000      	.insn	6, 0x10671cdf
    413e2ee6:	0000                	.insn	2, 0x0000
    413e2ee8:	20df 1067 0000      	.insn	6, 0x106720df
    413e2eee:	0000                	.insn	2, 0x0000
    413e2ef0:	24df 1067 0000      	.insn	6, 0x106724df
    413e2ef6:	0000                	.insn	2, 0x0000
    413e2ef8:	28df 1067 0000      	.insn	6, 0x106728df
    413e2efe:	0000                	.insn	2, 0x0000
    413e2f00:	2cdf 1067 0000      	.insn	6, 0x10672cdf
    413e2f06:	0000                	.insn	2, 0x0000
    413e2f08:	30df 1067 0000      	.insn	6, 0x106730df
    413e2f0e:	0000                	.insn	2, 0x0000
    413e2f10:	34df 1067 0000      	.insn	6, 0x106734df
    413e2f16:	0000                	.insn	2, 0x0000
    413e2f18:	38df 1067 0000      	.insn	6, 0x106738df
    413e2f1e:	0000                	.insn	2, 0x0000
    413e2f20:	3cdf 1067 0000      	.insn	6, 0x10673cdf
    413e2f26:	0000                	.insn	2, 0x0000
    413e2f28:	40df 1067 0000      	.insn	6, 0x106740df
    413e2f2e:	0000                	.insn	2, 0x0000
    413e2f30:	44df 1067 0000      	.insn	6, 0x106744df
    413e2f36:	0000                	.insn	2, 0x0000
    413e2f38:	48df 1067 0000      	.insn	6, 0x106748df
    413e2f3e:	0000                	.insn	2, 0x0000
    413e2f40:	4cdf 1067 0000      	.insn	6, 0x10674cdf
    413e2f46:	0000                	.insn	2, 0x0000
    413e2f48:	50df 1067 0000      	.insn	6, 0x106750df
    413e2f4e:	0000                	.insn	2, 0x0000
    413e2f50:	54df 1067 0000      	.insn	6, 0x106754df
    413e2f56:	0000                	.insn	2, 0x0000
    413e2f58:	58df 1067 0000      	.insn	6, 0x106758df
    413e2f5e:	0000                	.insn	2, 0x0000
    413e2f60:	5cdf 1067 0000      	.insn	6, 0x10675cdf
    413e2f66:	0000                	.insn	2, 0x0000
    413e2f68:	60df 1067 0000      	.insn	6, 0x106760df
    413e2f6e:	0000                	.insn	2, 0x0000
    413e2f70:	64df 1067 0000      	.insn	6, 0x106764df
    413e2f76:	0000                	.insn	2, 0x0000
    413e2f78:	68df 1067 0000      	.insn	6, 0x106768df
    413e2f7e:	0000                	.insn	2, 0x0000
    413e2f80:	6cdf 1067 0000      	.insn	6, 0x10676cdf
    413e2f86:	0000                	.insn	2, 0x0000
    413e2f88:	70df 1067 0000      	.insn	6, 0x106770df
    413e2f8e:	0000                	.insn	2, 0x0000
    413e2f90:	74df 1067 0000      	.insn	6, 0x106774df
    413e2f96:	0000                	.insn	2, 0x0000
    413e2f98:	78df 1067 0000      	.insn	6, 0x106778df
    413e2f9e:	0000                	.insn	2, 0x0000
    413e2fa0:	7cdf 1067 0000      	.insn	6, 0x10677cdf
    413e2fa6:	0000                	.insn	2, 0x0000
    413e2fa8:	80df 1067 0000      	.insn	6, 0x106780df
    413e2fae:	0000                	.insn	2, 0x0000
    413e2fb0:	84df 1067 0000      	.insn	6, 0x106784df
    413e2fb6:	0000                	.insn	2, 0x0000
    413e2fb8:	88df 1067 0000      	.insn	6, 0x106788df
    413e2fbe:	0000                	.insn	2, 0x0000
    413e2fc0:	8cdf 1067 0000      	.insn	6, 0x10678cdf
    413e2fc6:	0000                	.insn	2, 0x0000
    413e2fc8:	90df 1067 0000      	.insn	6, 0x106790df
    413e2fce:	0000                	.insn	2, 0x0000
    413e2fd0:	94df 1067 0000      	.insn	6, 0x106794df
    413e2fd6:	0000                	.insn	2, 0x0000
    413e2fd8:	98df 1067 0000      	.insn	6, 0x106798df
    413e2fde:	0000                	.insn	2, 0x0000
    413e2fe0:	9cdf 1067 0000      	.insn	6, 0x10679cdf
    413e2fe6:	0000                	.insn	2, 0x0000
    413e2fe8:	a0df 1067 0000      	.insn	6, 0x1067a0df
    413e2fee:	0000                	.insn	2, 0x0000
    413e2ff0:	a4df 1067 0000      	.insn	6, 0x1067a4df
    413e2ff6:	0000                	.insn	2, 0x0000
    413e2ff8:	a8df 1067 0000      	.insn	6, 0x1067a8df
	...

Disassembly of section .__pagetable_map_os_0x0000000041b97000:

0000000041b97000 <__pagetable_map_os_0x0000000041b97000>:
    41b97000:	acdf 1067 0000      	.insn	6, 0x1067acdf
    41b97006:	0000                	.insn	2, 0x0000
    41b97008:	b0df 1067 0000      	.insn	6, 0x1067b0df
    41b9700e:	0000                	.insn	2, 0x0000
    41b97010:	b4df 1067 0000      	.insn	6, 0x1067b4df
    41b97016:	0000                	.insn	2, 0x0000
    41b97018:	b8df 1067 0000      	.insn	6, 0x1067b8df
    41b9701e:	0000                	.insn	2, 0x0000
    41b97020:	bcdf 1067 0000      	.insn	6, 0x1067bcdf
    41b97026:	0000                	.insn	2, 0x0000
    41b97028:	c0df 1067 0000      	.insn	6, 0x1067c0df
    41b9702e:	0000                	.insn	2, 0x0000
    41b97030:	c4df 1067 0000      	.insn	6, 0x1067c4df
    41b97036:	0000                	.insn	2, 0x0000
    41b97038:	c8df 1067 0000      	.insn	6, 0x1067c8df
    41b9703e:	0000                	.insn	2, 0x0000
    41b97040:	ccdf 1067 0000      	.insn	6, 0x1067ccdf
    41b97046:	0000                	.insn	2, 0x0000
    41b97048:	1067d0cf          	fnmadd.s	f1,f15,f6,f2,unknown
    41b9704c:	0000                	.insn	2, 0x0000
    41b9704e:	0000                	.insn	2, 0x0000
    41b97050:	1067d4cf          	fnmadd.s	f9,f15,f6,f2,unknown
    41b97054:	0000                	.insn	2, 0x0000
    41b97056:	0000                	.insn	2, 0x0000
    41b97058:	1067d8cf          	fnmadd.s	f17,f15,f6,f2,unknown
    41b9705c:	0000                	.insn	2, 0x0000
    41b9705e:	0000                	.insn	2, 0x0000
    41b97060:	1067dccf          	fnmadd.s	f25,f15,f6,f2,unknown
    41b97064:	0000                	.insn	2, 0x0000
    41b97066:	0000                	.insn	2, 0x0000
    41b97068:	1067e0cf          	fnmadd.s	f1,f15,f6,f2,unknown
    41b9706c:	0000                	.insn	2, 0x0000
    41b9706e:	0000                	.insn	2, 0x0000
    41b97070:	1067e4cf          	fnmadd.s	f9,f15,f6,f2,unknown
    41b97074:	0000                	.insn	2, 0x0000
    41b97076:	0000                	.insn	2, 0x0000
    41b97078:	1067e8cf          	fnmadd.s	f17,f15,f6,f2,unknown
    41b9707c:	0000                	.insn	2, 0x0000
    41b9707e:	0000                	.insn	2, 0x0000
    41b97080:	1067eccf          	fnmadd.s	f25,f15,f6,f2,unknown
    41b97084:	0000                	.insn	2, 0x0000
    41b97086:	0000                	.insn	2, 0x0000
    41b97088:	1067f0cf          	fnmadd.s	f1,f15,f6,f2
    41b9708c:	0000                	.insn	2, 0x0000
    41b9708e:	0000                	.insn	2, 0x0000
    41b97090:	1067f4cf          	fnmadd.s	f9,f15,f6,f2
    41b97094:	0000                	.insn	2, 0x0000
    41b97096:	0000                	.insn	2, 0x0000
    41b97098:	1067f8cf          	fnmadd.s	f17,f15,f6,f2
    41b9709c:	0000                	.insn	2, 0x0000
    41b9709e:	0000                	.insn	2, 0x0000
    41b970a0:	1067fccf          	fnmadd.s	f25,f15,f6,f2
    41b970a4:	0000                	.insn	2, 0x0000
    41b970a6:	0000                	.insn	2, 0x0000
    41b970a8:	106800cf          	fnmadd.s	f1,f16,f6,f2,rne
    41b970ac:	0000                	.insn	2, 0x0000
    41b970ae:	0000                	.insn	2, 0x0000
    41b970b0:	106804cf          	fnmadd.s	f9,f16,f6,f2,rne
    41b970b4:	0000                	.insn	2, 0x0000
    41b970b6:	0000                	.insn	2, 0x0000
    41b970b8:	106808cf          	fnmadd.s	f17,f16,f6,f2,rne
    41b970bc:	0000                	.insn	2, 0x0000
    41b970be:	0000                	.insn	2, 0x0000
    41b970c0:	10680ccf          	fnmadd.s	f25,f16,f6,f2,rne
    41b970c4:	0000                	.insn	2, 0x0000
    41b970c6:	0000                	.insn	2, 0x0000
    41b970c8:	106810cf          	fnmadd.s	f1,f16,f6,f2,rtz
    41b970cc:	0000                	.insn	2, 0x0000
    41b970ce:	0000                	.insn	2, 0x0000
    41b970d0:	106814cf          	fnmadd.s	f9,f16,f6,f2,rtz
    41b970d4:	0000                	.insn	2, 0x0000
    41b970d6:	0000                	.insn	2, 0x0000
    41b970d8:	106818cf          	fnmadd.s	f17,f16,f6,f2,rtz
    41b970dc:	0000                	.insn	2, 0x0000
    41b970de:	0000                	.insn	2, 0x0000
    41b970e0:	10681ccf          	fnmadd.s	f25,f16,f6,f2,rtz
    41b970e4:	0000                	.insn	2, 0x0000
    41b970e6:	0000                	.insn	2, 0x0000
    41b970e8:	106820cf          	fnmadd.s	f1,f16,f6,f2,rdn
    41b970ec:	0000                	.insn	2, 0x0000
    41b970ee:	0000                	.insn	2, 0x0000
    41b970f0:	106824cf          	fnmadd.s	f9,f16,f6,f2,rdn
    41b970f4:	0000                	.insn	2, 0x0000
    41b970f6:	0000                	.insn	2, 0x0000
    41b970f8:	106828cf          	fnmadd.s	f17,f16,f6,f2,rdn
    41b970fc:	0000                	.insn	2, 0x0000
    41b970fe:	0000                	.insn	2, 0x0000
    41b97100:	10682ccf          	fnmadd.s	f25,f16,f6,f2,rdn
    41b97104:	0000                	.insn	2, 0x0000
    41b97106:	0000                	.insn	2, 0x0000
    41b97108:	106830cf          	fnmadd.s	f1,f16,f6,f2,rup
    41b9710c:	0000                	.insn	2, 0x0000
    41b9710e:	0000                	.insn	2, 0x0000
    41b97110:	106834cf          	fnmadd.s	f9,f16,f6,f2,rup
    41b97114:	0000                	.insn	2, 0x0000
    41b97116:	0000                	.insn	2, 0x0000
    41b97118:	106838cf          	fnmadd.s	f17,f16,f6,f2,rup
    41b9711c:	0000                	.insn	2, 0x0000
    41b9711e:	0000                	.insn	2, 0x0000
    41b97120:	10683ccf          	fnmadd.s	f25,f16,f6,f2,rup
    41b97124:	0000                	.insn	2, 0x0000
    41b97126:	0000                	.insn	2, 0x0000
    41b97128:	106840cf          	fnmadd.s	f1,f16,f6,f2,rmm
    41b9712c:	0000                	.insn	2, 0x0000
    41b9712e:	0000                	.insn	2, 0x0000
    41b97130:	106844cf          	fnmadd.s	f9,f16,f6,f2,rmm
    41b97134:	0000                	.insn	2, 0x0000
    41b97136:	0000                	.insn	2, 0x0000
    41b97138:	106848cf          	fnmadd.s	f17,f16,f6,f2,rmm
    41b9713c:	0000                	.insn	2, 0x0000
    41b9713e:	0000                	.insn	2, 0x0000
    41b97140:	10684ccf          	fnmadd.s	f25,f16,f6,f2,rmm
    41b97144:	0000                	.insn	2, 0x0000
    41b97146:	0000                	.insn	2, 0x0000
    41b97148:	106850cf          	fnmadd.s	f1,f16,f6,f2,unknown
    41b9714c:	0000                	.insn	2, 0x0000
    41b9714e:	0000                	.insn	2, 0x0000
    41b97150:	106854cf          	fnmadd.s	f9,f16,f6,f2,unknown
    41b97154:	0000                	.insn	2, 0x0000
    41b97156:	0000                	.insn	2, 0x0000
    41b97158:	106858cf          	fnmadd.s	f17,f16,f6,f2,unknown
    41b9715c:	0000                	.insn	2, 0x0000
    41b9715e:	0000                	.insn	2, 0x0000
    41b97160:	10685ccf          	fnmadd.s	f25,f16,f6,f2,unknown
    41b97164:	0000                	.insn	2, 0x0000
    41b97166:	0000                	.insn	2, 0x0000
    41b97168:	106860cf          	fnmadd.s	f1,f16,f6,f2,unknown
    41b9716c:	0000                	.insn	2, 0x0000
    41b9716e:	0000                	.insn	2, 0x0000
    41b97170:	106864cf          	fnmadd.s	f9,f16,f6,f2,unknown
    41b97174:	0000                	.insn	2, 0x0000
    41b97176:	0000                	.insn	2, 0x0000
    41b97178:	106868cf          	fnmadd.s	f17,f16,f6,f2,unknown
    41b9717c:	0000                	.insn	2, 0x0000
    41b9717e:	0000                	.insn	2, 0x0000
    41b97180:	10686ccf          	fnmadd.s	f25,f16,f6,f2,unknown
    41b97184:	0000                	.insn	2, 0x0000
    41b97186:	0000                	.insn	2, 0x0000
    41b97188:	106870cf          	fnmadd.s	f1,f16,f6,f2
    41b9718c:	0000                	.insn	2, 0x0000
    41b9718e:	0000                	.insn	2, 0x0000
    41b97190:	106874cf          	fnmadd.s	f9,f16,f6,f2
    41b97194:	0000                	.insn	2, 0x0000
    41b97196:	0000                	.insn	2, 0x0000
    41b97198:	106878cf          	fnmadd.s	f17,f16,f6,f2
    41b9719c:	0000                	.insn	2, 0x0000
    41b9719e:	0000                	.insn	2, 0x0000
    41b971a0:	10687ccf          	fnmadd.s	f25,f16,f6,f2
    41b971a4:	0000                	.insn	2, 0x0000
    41b971a6:	0000                	.insn	2, 0x0000
    41b971a8:	106880cf          	fnmadd.s	f1,f17,f6,f2,rne
    41b971ac:	0000                	.insn	2, 0x0000
    41b971ae:	0000                	.insn	2, 0x0000
    41b971b0:	106884cf          	fnmadd.s	f9,f17,f6,f2,rne
    41b971b4:	0000                	.insn	2, 0x0000
    41b971b6:	0000                	.insn	2, 0x0000
    41b971b8:	106888cf          	fnmadd.s	f17,f17,f6,f2,rne
    41b971bc:	0000                	.insn	2, 0x0000
    41b971be:	0000                	.insn	2, 0x0000
    41b971c0:	10688ccf          	fnmadd.s	f25,f17,f6,f2,rne
    41b971c4:	0000                	.insn	2, 0x0000
    41b971c6:	0000                	.insn	2, 0x0000
    41b971c8:	106890cf          	fnmadd.s	f1,f17,f6,f2,rtz
    41b971cc:	0000                	.insn	2, 0x0000
    41b971ce:	0000                	.insn	2, 0x0000
    41b971d0:	106894cf          	fnmadd.s	f9,f17,f6,f2,rtz
    41b971d4:	0000                	.insn	2, 0x0000
    41b971d6:	0000                	.insn	2, 0x0000
    41b971d8:	106898cf          	fnmadd.s	f17,f17,f6,f2,rtz
    41b971dc:	0000                	.insn	2, 0x0000
    41b971de:	0000                	.insn	2, 0x0000
    41b971e0:	10689ccf          	fnmadd.s	f25,f17,f6,f2,rtz
    41b971e4:	0000                	.insn	2, 0x0000
    41b971e6:	0000                	.insn	2, 0x0000
    41b971e8:	1068a0cf          	fnmadd.s	f1,f17,f6,f2,rdn
    41b971ec:	0000                	.insn	2, 0x0000
    41b971ee:	0000                	.insn	2, 0x0000
    41b971f0:	1068a4cf          	fnmadd.s	f9,f17,f6,f2,rdn
    41b971f4:	0000                	.insn	2, 0x0000
    41b971f6:	0000                	.insn	2, 0x0000
    41b971f8:	1068a8cf          	fnmadd.s	f17,f17,f6,f2,rdn
    41b971fc:	0000                	.insn	2, 0x0000
    41b971fe:	0000                	.insn	2, 0x0000
    41b97200:	1068accf          	fnmadd.s	f25,f17,f6,f2,rdn
    41b97204:	0000                	.insn	2, 0x0000
    41b97206:	0000                	.insn	2, 0x0000
    41b97208:	1068b0cf          	fnmadd.s	f1,f17,f6,f2,rup
    41b9720c:	0000                	.insn	2, 0x0000
    41b9720e:	0000                	.insn	2, 0x0000
    41b97210:	1068b4cf          	fnmadd.s	f9,f17,f6,f2,rup
    41b97214:	0000                	.insn	2, 0x0000
    41b97216:	0000                	.insn	2, 0x0000
    41b97218:	1068b8cf          	fnmadd.s	f17,f17,f6,f2,rup
    41b9721c:	0000                	.insn	2, 0x0000
    41b9721e:	0000                	.insn	2, 0x0000
    41b97220:	1068bccf          	fnmadd.s	f25,f17,f6,f2,rup
    41b97224:	0000                	.insn	2, 0x0000
    41b97226:	0000                	.insn	2, 0x0000
    41b97228:	1068c0cf          	fnmadd.s	f1,f17,f6,f2,rmm
    41b9722c:	0000                	.insn	2, 0x0000
    41b9722e:	0000                	.insn	2, 0x0000
    41b97230:	1068c4cf          	fnmadd.s	f9,f17,f6,f2,rmm
    41b97234:	0000                	.insn	2, 0x0000
    41b97236:	0000                	.insn	2, 0x0000
    41b97238:	1068c8cf          	fnmadd.s	f17,f17,f6,f2,rmm
    41b9723c:	0000                	.insn	2, 0x0000
    41b9723e:	0000                	.insn	2, 0x0000
    41b97240:	1068cccf          	fnmadd.s	f25,f17,f6,f2,rmm
    41b97244:	0000                	.insn	2, 0x0000
    41b97246:	0000                	.insn	2, 0x0000
    41b97248:	1068d0cf          	fnmadd.s	f1,f17,f6,f2,unknown
    41b9724c:	0000                	.insn	2, 0x0000
    41b9724e:	0000                	.insn	2, 0x0000
    41b97250:	1068d4cf          	fnmadd.s	f9,f17,f6,f2,unknown
    41b97254:	0000                	.insn	2, 0x0000
    41b97256:	0000                	.insn	2, 0x0000
    41b97258:	1068d8cf          	fnmadd.s	f17,f17,f6,f2,unknown
    41b9725c:	0000                	.insn	2, 0x0000
    41b9725e:	0000                	.insn	2, 0x0000
    41b97260:	1068dccf          	fnmadd.s	f25,f17,f6,f2,unknown
    41b97264:	0000                	.insn	2, 0x0000
    41b97266:	0000                	.insn	2, 0x0000
    41b97268:	1068e0cf          	fnmadd.s	f1,f17,f6,f2,unknown
    41b9726c:	0000                	.insn	2, 0x0000
    41b9726e:	0000                	.insn	2, 0x0000
    41b97270:	1068e4cf          	fnmadd.s	f9,f17,f6,f2,unknown
    41b97274:	0000                	.insn	2, 0x0000
    41b97276:	0000                	.insn	2, 0x0000
    41b97278:	1068e8cf          	fnmadd.s	f17,f17,f6,f2,unknown
    41b9727c:	0000                	.insn	2, 0x0000
    41b9727e:	0000                	.insn	2, 0x0000
    41b97280:	1068eccf          	fnmadd.s	f25,f17,f6,f2,unknown
    41b97284:	0000                	.insn	2, 0x0000
    41b97286:	0000                	.insn	2, 0x0000
    41b97288:	1068f0cf          	fnmadd.s	f1,f17,f6,f2
    41b9728c:	0000                	.insn	2, 0x0000
    41b9728e:	0000                	.insn	2, 0x0000
    41b97290:	1068f4cf          	fnmadd.s	f9,f17,f6,f2
    41b97294:	0000                	.insn	2, 0x0000
    41b97296:	0000                	.insn	2, 0x0000
    41b97298:	1068f8cf          	fnmadd.s	f17,f17,f6,f2
    41b9729c:	0000                	.insn	2, 0x0000
    41b9729e:	0000                	.insn	2, 0x0000
    41b972a0:	1068fccf          	fnmadd.s	f25,f17,f6,f2
    41b972a4:	0000                	.insn	2, 0x0000
    41b972a6:	0000                	.insn	2, 0x0000
    41b972a8:	106900cf          	fnmadd.s	f1,f18,f6,f2,rne
    41b972ac:	0000                	.insn	2, 0x0000
    41b972ae:	0000                	.insn	2, 0x0000
    41b972b0:	106904cf          	fnmadd.s	f9,f18,f6,f2,rne
    41b972b4:	0000                	.insn	2, 0x0000
    41b972b6:	0000                	.insn	2, 0x0000
    41b972b8:	106908cf          	fnmadd.s	f17,f18,f6,f2,rne
    41b972bc:	0000                	.insn	2, 0x0000
    41b972be:	0000                	.insn	2, 0x0000
    41b972c0:	10690ccf          	fnmadd.s	f25,f18,f6,f2,rne
    41b972c4:	0000                	.insn	2, 0x0000
    41b972c6:	0000                	.insn	2, 0x0000
    41b972c8:	106910cf          	fnmadd.s	f1,f18,f6,f2,rtz
    41b972cc:	0000                	.insn	2, 0x0000
    41b972ce:	0000                	.insn	2, 0x0000
    41b972d0:	106914cf          	fnmadd.s	f9,f18,f6,f2,rtz
    41b972d4:	0000                	.insn	2, 0x0000
    41b972d6:	0000                	.insn	2, 0x0000
    41b972d8:	106918cf          	fnmadd.s	f17,f18,f6,f2,rtz
    41b972dc:	0000                	.insn	2, 0x0000
    41b972de:	0000                	.insn	2, 0x0000
    41b972e0:	10691ccf          	fnmadd.s	f25,f18,f6,f2,rtz
    41b972e4:	0000                	.insn	2, 0x0000
    41b972e6:	0000                	.insn	2, 0x0000
    41b972e8:	106920cf          	fnmadd.s	f1,f18,f6,f2,rdn
    41b972ec:	0000                	.insn	2, 0x0000
    41b972ee:	0000                	.insn	2, 0x0000
    41b972f0:	106924cf          	fnmadd.s	f9,f18,f6,f2,rdn
    41b972f4:	0000                	.insn	2, 0x0000
    41b972f6:	0000                	.insn	2, 0x0000
    41b972f8:	106928cf          	fnmadd.s	f17,f18,f6,f2,rdn
    41b972fc:	0000                	.insn	2, 0x0000
    41b972fe:	0000                	.insn	2, 0x0000
    41b97300:	10692ccf          	fnmadd.s	f25,f18,f6,f2,rdn
    41b97304:	0000                	.insn	2, 0x0000
    41b97306:	0000                	.insn	2, 0x0000
    41b97308:	106930cf          	fnmadd.s	f1,f18,f6,f2,rup
    41b9730c:	0000                	.insn	2, 0x0000
    41b9730e:	0000                	.insn	2, 0x0000
    41b97310:	106934cf          	fnmadd.s	f9,f18,f6,f2,rup
    41b97314:	0000                	.insn	2, 0x0000
    41b97316:	0000                	.insn	2, 0x0000
    41b97318:	106938cf          	fnmadd.s	f17,f18,f6,f2,rup
    41b9731c:	0000                	.insn	2, 0x0000
    41b9731e:	0000                	.insn	2, 0x0000
    41b97320:	10693ccf          	fnmadd.s	f25,f18,f6,f2,rup
    41b97324:	0000                	.insn	2, 0x0000
    41b97326:	0000                	.insn	2, 0x0000
    41b97328:	106940cf          	fnmadd.s	f1,f18,f6,f2,rmm
    41b9732c:	0000                	.insn	2, 0x0000
    41b9732e:	0000                	.insn	2, 0x0000
    41b97330:	106944cf          	fnmadd.s	f9,f18,f6,f2,rmm
    41b97334:	0000                	.insn	2, 0x0000
    41b97336:	0000                	.insn	2, 0x0000
    41b97338:	106948cf          	fnmadd.s	f17,f18,f6,f2,rmm
    41b9733c:	0000                	.insn	2, 0x0000
    41b9733e:	0000                	.insn	2, 0x0000
    41b97340:	10694ccf          	fnmadd.s	f25,f18,f6,f2,rmm
    41b97344:	0000                	.insn	2, 0x0000
    41b97346:	0000                	.insn	2, 0x0000
    41b97348:	106950cf          	fnmadd.s	f1,f18,f6,f2,unknown
    41b9734c:	0000                	.insn	2, 0x0000
    41b9734e:	0000                	.insn	2, 0x0000
    41b97350:	106954cf          	fnmadd.s	f9,f18,f6,f2,unknown
    41b97354:	0000                	.insn	2, 0x0000
    41b97356:	0000                	.insn	2, 0x0000
    41b97358:	106958cf          	fnmadd.s	f17,f18,f6,f2,unknown
    41b9735c:	0000                	.insn	2, 0x0000
    41b9735e:	0000                	.insn	2, 0x0000
    41b97360:	10695ccf          	fnmadd.s	f25,f18,f6,f2,unknown
    41b97364:	0000                	.insn	2, 0x0000
    41b97366:	0000                	.insn	2, 0x0000
    41b97368:	106960cf          	fnmadd.s	f1,f18,f6,f2,unknown
    41b9736c:	0000                	.insn	2, 0x0000
    41b9736e:	0000                	.insn	2, 0x0000
    41b97370:	106964cf          	fnmadd.s	f9,f18,f6,f2,unknown
    41b97374:	0000                	.insn	2, 0x0000
    41b97376:	0000                	.insn	2, 0x0000
    41b97378:	106968cf          	fnmadd.s	f17,f18,f6,f2,unknown
    41b9737c:	0000                	.insn	2, 0x0000
    41b9737e:	0000                	.insn	2, 0x0000
    41b97380:	10696ccf          	fnmadd.s	f25,f18,f6,f2,unknown
    41b97384:	0000                	.insn	2, 0x0000
    41b97386:	0000                	.insn	2, 0x0000
    41b97388:	106970cf          	fnmadd.s	f1,f18,f6,f2
    41b9738c:	0000                	.insn	2, 0x0000
    41b9738e:	0000                	.insn	2, 0x0000
    41b97390:	106974cf          	fnmadd.s	f9,f18,f6,f2
    41b97394:	0000                	.insn	2, 0x0000
    41b97396:	0000                	.insn	2, 0x0000
    41b97398:	106978cf          	fnmadd.s	f17,f18,f6,f2
    41b9739c:	0000                	.insn	2, 0x0000
    41b9739e:	0000                	.insn	2, 0x0000
    41b973a0:	10697ccf          	fnmadd.s	f25,f18,f6,f2
    41b973a4:	0000                	.insn	2, 0x0000
    41b973a6:	0000                	.insn	2, 0x0000
    41b973a8:	106980cf          	fnmadd.s	f1,f19,f6,f2,rne
    41b973ac:	0000                	.insn	2, 0x0000
    41b973ae:	0000                	.insn	2, 0x0000
    41b973b0:	106984cf          	fnmadd.s	f9,f19,f6,f2,rne
    41b973b4:	0000                	.insn	2, 0x0000
    41b973b6:	0000                	.insn	2, 0x0000
    41b973b8:	106988cf          	fnmadd.s	f17,f19,f6,f2,rne
    41b973bc:	0000                	.insn	2, 0x0000
    41b973be:	0000                	.insn	2, 0x0000
    41b973c0:	10698ccf          	fnmadd.s	f25,f19,f6,f2,rne
    41b973c4:	0000                	.insn	2, 0x0000
    41b973c6:	0000                	.insn	2, 0x0000
    41b973c8:	106990cf          	fnmadd.s	f1,f19,f6,f2,rtz
    41b973cc:	0000                	.insn	2, 0x0000
    41b973ce:	0000                	.insn	2, 0x0000
    41b973d0:	106994cf          	fnmadd.s	f9,f19,f6,f2,rtz
    41b973d4:	0000                	.insn	2, 0x0000
    41b973d6:	0000                	.insn	2, 0x0000
    41b973d8:	106998cf          	fnmadd.s	f17,f19,f6,f2,rtz
    41b973dc:	0000                	.insn	2, 0x0000
    41b973de:	0000                	.insn	2, 0x0000
    41b973e0:	10699ccf          	fnmadd.s	f25,f19,f6,f2,rtz
    41b973e4:	0000                	.insn	2, 0x0000
    41b973e6:	0000                	.insn	2, 0x0000
    41b973e8:	1069a0cf          	fnmadd.s	f1,f19,f6,f2,rdn
    41b973ec:	0000                	.insn	2, 0x0000
    41b973ee:	0000                	.insn	2, 0x0000
    41b973f0:	1069a4cf          	fnmadd.s	f9,f19,f6,f2,rdn
    41b973f4:	0000                	.insn	2, 0x0000
    41b973f6:	0000                	.insn	2, 0x0000
    41b973f8:	1069a8cf          	fnmadd.s	f17,f19,f6,f2,rdn
    41b973fc:	0000                	.insn	2, 0x0000
    41b973fe:	0000                	.insn	2, 0x0000
    41b97400:	1069accf          	fnmadd.s	f25,f19,f6,f2,rdn
    41b97404:	0000                	.insn	2, 0x0000
    41b97406:	0000                	.insn	2, 0x0000
    41b97408:	1069b0cf          	fnmadd.s	f1,f19,f6,f2,rup
    41b9740c:	0000                	.insn	2, 0x0000
    41b9740e:	0000                	.insn	2, 0x0000
    41b97410:	1069b4cf          	fnmadd.s	f9,f19,f6,f2,rup
    41b97414:	0000                	.insn	2, 0x0000
    41b97416:	0000                	.insn	2, 0x0000
    41b97418:	1069b8cf          	fnmadd.s	f17,f19,f6,f2,rup
    41b9741c:	0000                	.insn	2, 0x0000
    41b9741e:	0000                	.insn	2, 0x0000
    41b97420:	1069bccf          	fnmadd.s	f25,f19,f6,f2,rup
    41b97424:	0000                	.insn	2, 0x0000
    41b97426:	0000                	.insn	2, 0x0000
    41b97428:	1069c0cf          	fnmadd.s	f1,f19,f6,f2,rmm
    41b9742c:	0000                	.insn	2, 0x0000
    41b9742e:	0000                	.insn	2, 0x0000
    41b97430:	1069c4cf          	fnmadd.s	f9,f19,f6,f2,rmm
    41b97434:	0000                	.insn	2, 0x0000
    41b97436:	0000                	.insn	2, 0x0000
    41b97438:	1069c8cf          	fnmadd.s	f17,f19,f6,f2,rmm
    41b9743c:	0000                	.insn	2, 0x0000
    41b9743e:	0000                	.insn	2, 0x0000
    41b97440:	1069cccf          	fnmadd.s	f25,f19,f6,f2,rmm
    41b97444:	0000                	.insn	2, 0x0000
    41b97446:	0000                	.insn	2, 0x0000
    41b97448:	d0df 1069 0000      	.insn	6, 0x1069d0df
    41b9744e:	0000                	.insn	2, 0x0000
    41b97450:	d4df 1069 0000      	.insn	6, 0x1069d4df
    41b97456:	0000                	.insn	2, 0x0000
    41b97458:	d8df 1069 0000      	.insn	6, 0x1069d8df
    41b9745e:	0000                	.insn	2, 0x0000
    41b97460:	dcdf 1069 0000      	.insn	6, 0x1069dcdf
    41b97466:	0000                	.insn	2, 0x0000
    41b97468:	e0df 1069 0000      	.insn	6, 0x1069e0df
    41b9746e:	0000                	.insn	2, 0x0000
    41b97470:	e4df 1069 0000      	.insn	6, 0x1069e4df
    41b97476:	0000                	.insn	2, 0x0000
    41b97478:	e8df 1069 0000      	.insn	6, 0x1069e8df
    41b9747e:	0000                	.insn	2, 0x0000
    41b97480:	ecdf 1069 0000      	.insn	6, 0x1069ecdf
    41b97486:	0000                	.insn	2, 0x0000
    41b97488:	f0df 1069 0000      	.insn	6, 0x1069f0df
    41b9748e:	0000                	.insn	2, 0x0000
    41b97490:	f4df 1069 0000      	.insn	6, 0x1069f4df
    41b97496:	0000                	.insn	2, 0x0000
    41b97498:	f8df 1069 0000      	.insn	6, 0x1069f8df
    41b9749e:	0000                	.insn	2, 0x0000
    41b974a0:	fcdf 1069 0000      	.insn	6, 0x1069fcdf
    41b974a6:	0000                	.insn	2, 0x0000
    41b974a8:	00df 106a 0000      	.insn	6, 0x106a00df
    41b974ae:	0000                	.insn	2, 0x0000
    41b974b0:	04df 106a 0000      	.insn	6, 0x106a04df
    41b974b6:	0000                	.insn	2, 0x0000
    41b974b8:	08df 106a 0000      	.insn	6, 0x106a08df
    41b974be:	0000                	.insn	2, 0x0000
    41b974c0:	0cdf 106a 0000      	.insn	6, 0x106a0cdf
    41b974c6:	0000                	.insn	2, 0x0000
    41b974c8:	10df 106a 0000      	.insn	6, 0x106a10df
    41b974ce:	0000                	.insn	2, 0x0000
    41b974d0:	14df 106a 0000      	.insn	6, 0x106a14df
    41b974d6:	0000                	.insn	2, 0x0000
    41b974d8:	18df 106a 0000      	.insn	6, 0x106a18df
    41b974de:	0000                	.insn	2, 0x0000
    41b974e0:	1cdf 106a 0000      	.insn	6, 0x106a1cdf
    41b974e6:	0000                	.insn	2, 0x0000
    41b974e8:	20df 106a 0000      	.insn	6, 0x106a20df
    41b974ee:	0000                	.insn	2, 0x0000
    41b974f0:	24df 106a 0000      	.insn	6, 0x106a24df
    41b974f6:	0000                	.insn	2, 0x0000
    41b974f8:	28df 106a 0000      	.insn	6, 0x106a28df
    41b974fe:	0000                	.insn	2, 0x0000
    41b97500:	2cdf 106a 0000      	.insn	6, 0x106a2cdf
    41b97506:	0000                	.insn	2, 0x0000
    41b97508:	30df 106a 0000      	.insn	6, 0x106a30df
    41b9750e:	0000                	.insn	2, 0x0000
    41b97510:	34df 106a 0000      	.insn	6, 0x106a34df
    41b97516:	0000                	.insn	2, 0x0000
    41b97518:	38df 106a 0000      	.insn	6, 0x106a38df
    41b9751e:	0000                	.insn	2, 0x0000
    41b97520:	3cdf 106a 0000      	.insn	6, 0x106a3cdf
    41b97526:	0000                	.insn	2, 0x0000
    41b97528:	40df 106a 0000      	.insn	6, 0x106a40df
    41b9752e:	0000                	.insn	2, 0x0000
    41b97530:	44df 106a 0000      	.insn	6, 0x106a44df
    41b97536:	0000                	.insn	2, 0x0000
    41b97538:	48df 106a 0000      	.insn	6, 0x106a48df
    41b9753e:	0000                	.insn	2, 0x0000
    41b97540:	4cdf 106a 0000      	.insn	6, 0x106a4cdf
    41b97546:	0000                	.insn	2, 0x0000
    41b97548:	50df 106a 0000      	.insn	6, 0x106a50df
    41b9754e:	0000                	.insn	2, 0x0000
    41b97550:	54df 106a 0000      	.insn	6, 0x106a54df
    41b97556:	0000                	.insn	2, 0x0000
    41b97558:	58df 106a 0000      	.insn	6, 0x106a58df
    41b9755e:	0000                	.insn	2, 0x0000
    41b97560:	5cdf 106a 0000      	.insn	6, 0x106a5cdf
    41b97566:	0000                	.insn	2, 0x0000
    41b97568:	60df 106a 0000      	.insn	6, 0x106a60df
    41b9756e:	0000                	.insn	2, 0x0000
    41b97570:	64df 106a 0000      	.insn	6, 0x106a64df
    41b97576:	0000                	.insn	2, 0x0000
    41b97578:	68df 106a 0000      	.insn	6, 0x106a68df
    41b9757e:	0000                	.insn	2, 0x0000
    41b97580:	6cdf 106a 0000      	.insn	6, 0x106a6cdf
    41b97586:	0000                	.insn	2, 0x0000
    41b97588:	70df 106a 0000      	.insn	6, 0x106a70df
    41b9758e:	0000                	.insn	2, 0x0000
    41b97590:	74df 106a 0000      	.insn	6, 0x106a74df
    41b97596:	0000                	.insn	2, 0x0000
    41b97598:	78df 106a 0000      	.insn	6, 0x106a78df
    41b9759e:	0000                	.insn	2, 0x0000
    41b975a0:	7cdf 106a 0000      	.insn	6, 0x106a7cdf
    41b975a6:	0000                	.insn	2, 0x0000
    41b975a8:	80df 106a 0000      	.insn	6, 0x106a80df
    41b975ae:	0000                	.insn	2, 0x0000
    41b975b0:	84df 106a 0000      	.insn	6, 0x106a84df
    41b975b6:	0000                	.insn	2, 0x0000
    41b975b8:	88df 106a 0000      	.insn	6, 0x106a88df
    41b975be:	0000                	.insn	2, 0x0000
    41b975c0:	8cdf 106a 0000      	.insn	6, 0x106a8cdf
    41b975c6:	0000                	.insn	2, 0x0000
    41b975c8:	90df 106a 0000      	.insn	6, 0x106a90df
    41b975ce:	0000                	.insn	2, 0x0000
    41b975d0:	94df 106a 0000      	.insn	6, 0x106a94df
    41b975d6:	0000                	.insn	2, 0x0000
    41b975d8:	98df 106a 0000      	.insn	6, 0x106a98df
    41b975de:	0000                	.insn	2, 0x0000
    41b975e0:	9cdf 106a 0000      	.insn	6, 0x106a9cdf
    41b975e6:	0000                	.insn	2, 0x0000
    41b975e8:	a0df 106a 0000      	.insn	6, 0x106aa0df
    41b975ee:	0000                	.insn	2, 0x0000
    41b975f0:	a4df 106a 0000      	.insn	6, 0x106aa4df
    41b975f6:	0000                	.insn	2, 0x0000
    41b975f8:	a8df 106a 0000      	.insn	6, 0x106aa8df
    41b975fe:	0000                	.insn	2, 0x0000
    41b97600:	acdf 106a 0000      	.insn	6, 0x106aacdf
    41b97606:	0000                	.insn	2, 0x0000
    41b97608:	b0df 106a 0000      	.insn	6, 0x106ab0df
    41b9760e:	0000                	.insn	2, 0x0000
    41b97610:	b4df 106a 0000      	.insn	6, 0x106ab4df
    41b97616:	0000                	.insn	2, 0x0000
    41b97618:	b8df 106a 0000      	.insn	6, 0x106ab8df
    41b9761e:	0000                	.insn	2, 0x0000
    41b97620:	bcdf 106a 0000      	.insn	6, 0x106abcdf
    41b97626:	0000                	.insn	2, 0x0000
    41b97628:	c0df 106a 0000      	.insn	6, 0x106ac0df
    41b9762e:	0000                	.insn	2, 0x0000
    41b97630:	c4df 106a 0000      	.insn	6, 0x106ac4df
    41b97636:	0000                	.insn	2, 0x0000
    41b97638:	c8df 106a 0000      	.insn	6, 0x106ac8df
    41b9763e:	0000                	.insn	2, 0x0000
    41b97640:	ccdf 106a 0000      	.insn	6, 0x106accdf
    41b97646:	0000                	.insn	2, 0x0000
    41b97648:	d0df 106a 0000      	.insn	6, 0x106ad0df
    41b9764e:	0000                	.insn	2, 0x0000
    41b97650:	d4df 106a 0000      	.insn	6, 0x106ad4df
    41b97656:	0000                	.insn	2, 0x0000
    41b97658:	d8df 106a 0000      	.insn	6, 0x106ad8df
    41b9765e:	0000                	.insn	2, 0x0000
    41b97660:	dcdf 106a 0000      	.insn	6, 0x106adcdf
    41b97666:	0000                	.insn	2, 0x0000
    41b97668:	e0df 106a 0000      	.insn	6, 0x106ae0df
    41b9766e:	0000                	.insn	2, 0x0000
    41b97670:	e4df 106a 0000      	.insn	6, 0x106ae4df
    41b97676:	0000                	.insn	2, 0x0000
    41b97678:	e8df 106a 0000      	.insn	6, 0x106ae8df
    41b9767e:	0000                	.insn	2, 0x0000
    41b97680:	ecdf 106a 0000      	.insn	6, 0x106aecdf
    41b97686:	0000                	.insn	2, 0x0000
    41b97688:	f0df 106a 0000      	.insn	6, 0x106af0df
    41b9768e:	0000                	.insn	2, 0x0000
    41b97690:	f4df 106a 0000      	.insn	6, 0x106af4df
    41b97696:	0000                	.insn	2, 0x0000
    41b97698:	f8df 106a 0000      	.insn	6, 0x106af8df
    41b9769e:	0000                	.insn	2, 0x0000
    41b976a0:	fcdf 106a 0000      	.insn	6, 0x106afcdf
    41b976a6:	0000                	.insn	2, 0x0000
    41b976a8:	00df 106b 0000      	.insn	6, 0x106b00df
    41b976ae:	0000                	.insn	2, 0x0000
    41b976b0:	04df 106b 0000      	.insn	6, 0x106b04df
    41b976b6:	0000                	.insn	2, 0x0000
    41b976b8:	08df 106b 0000      	.insn	6, 0x106b08df
    41b976be:	0000                	.insn	2, 0x0000
    41b976c0:	0cdf 106b 0000      	.insn	6, 0x106b0cdf
    41b976c6:	0000                	.insn	2, 0x0000
    41b976c8:	10df 106b 0000      	.insn	6, 0x106b10df
    41b976ce:	0000                	.insn	2, 0x0000
    41b976d0:	14df 106b 0000      	.insn	6, 0x106b14df
    41b976d6:	0000                	.insn	2, 0x0000
    41b976d8:	18df 106b 0000      	.insn	6, 0x106b18df
    41b976de:	0000                	.insn	2, 0x0000
    41b976e0:	1cdf 106b 0000      	.insn	6, 0x106b1cdf
    41b976e6:	0000                	.insn	2, 0x0000
    41b976e8:	20df 106b 0000      	.insn	6, 0x106b20df
    41b976ee:	0000                	.insn	2, 0x0000
    41b976f0:	24df 106b 0000      	.insn	6, 0x106b24df
    41b976f6:	0000                	.insn	2, 0x0000
    41b976f8:	28df 106b 0000      	.insn	6, 0x106b28df
    41b976fe:	0000                	.insn	2, 0x0000
    41b97700:	2cdf 106b 0000      	.insn	6, 0x106b2cdf
    41b97706:	0000                	.insn	2, 0x0000
    41b97708:	30df 106b 0000      	.insn	6, 0x106b30df
    41b9770e:	0000                	.insn	2, 0x0000
    41b97710:	34df 106b 0000      	.insn	6, 0x106b34df
    41b97716:	0000                	.insn	2, 0x0000
    41b97718:	38df 106b 0000      	.insn	6, 0x106b38df
    41b9771e:	0000                	.insn	2, 0x0000
    41b97720:	3cdf 106b 0000      	.insn	6, 0x106b3cdf
    41b97726:	0000                	.insn	2, 0x0000
    41b97728:	40df 106b 0000      	.insn	6, 0x106b40df
    41b9772e:	0000                	.insn	2, 0x0000
    41b97730:	44df 106b 0000      	.insn	6, 0x106b44df
    41b97736:	0000                	.insn	2, 0x0000
    41b97738:	48df 106b 0000      	.insn	6, 0x106b48df
    41b9773e:	0000                	.insn	2, 0x0000
    41b97740:	4cdf 106b 0000      	.insn	6, 0x106b4cdf
    41b97746:	0000                	.insn	2, 0x0000
    41b97748:	50df 106b 0000      	.insn	6, 0x106b50df
    41b9774e:	0000                	.insn	2, 0x0000
    41b97750:	54df 106b 0000      	.insn	6, 0x106b54df
    41b97756:	0000                	.insn	2, 0x0000
    41b97758:	58df 106b 0000      	.insn	6, 0x106b58df
    41b9775e:	0000                	.insn	2, 0x0000
    41b97760:	5cdf 106b 0000      	.insn	6, 0x106b5cdf
    41b97766:	0000                	.insn	2, 0x0000
    41b97768:	60df 106b 0000      	.insn	6, 0x106b60df
    41b9776e:	0000                	.insn	2, 0x0000
    41b97770:	64df 106b 0000      	.insn	6, 0x106b64df
    41b97776:	0000                	.insn	2, 0x0000
    41b97778:	68df 106b 0000      	.insn	6, 0x106b68df
    41b9777e:	0000                	.insn	2, 0x0000
    41b97780:	6cdf 106b 0000      	.insn	6, 0x106b6cdf
    41b97786:	0000                	.insn	2, 0x0000
    41b97788:	70df 106b 0000      	.insn	6, 0x106b70df
    41b9778e:	0000                	.insn	2, 0x0000
    41b97790:	74df 106b 0000      	.insn	6, 0x106b74df
    41b97796:	0000                	.insn	2, 0x0000
    41b97798:	78df 106b 0000      	.insn	6, 0x106b78df
    41b9779e:	0000                	.insn	2, 0x0000
    41b977a0:	7cdf 106b 0000      	.insn	6, 0x106b7cdf
    41b977a6:	0000                	.insn	2, 0x0000
    41b977a8:	80df 106b 0000      	.insn	6, 0x106b80df
    41b977ae:	0000                	.insn	2, 0x0000
    41b977b0:	84df 106b 0000      	.insn	6, 0x106b84df
    41b977b6:	0000                	.insn	2, 0x0000
    41b977b8:	88df 106b 0000      	.insn	6, 0x106b88df
    41b977be:	0000                	.insn	2, 0x0000
    41b977c0:	8cdf 106b 0000      	.insn	6, 0x106b8cdf
    41b977c6:	0000                	.insn	2, 0x0000
    41b977c8:	90df 106b 0000      	.insn	6, 0x106b90df
    41b977ce:	0000                	.insn	2, 0x0000
    41b977d0:	94df 106b 0000      	.insn	6, 0x106b94df
    41b977d6:	0000                	.insn	2, 0x0000
    41b977d8:	98df 106b 0000      	.insn	6, 0x106b98df
    41b977de:	0000                	.insn	2, 0x0000
    41b977e0:	9cdf 106b 0000      	.insn	6, 0x106b9cdf
    41b977e6:	0000                	.insn	2, 0x0000
    41b977e8:	a0df 106b 0000      	.insn	6, 0x106ba0df
    41b977ee:	0000                	.insn	2, 0x0000
    41b977f0:	a4df 106b 0000      	.insn	6, 0x106ba4df
    41b977f6:	0000                	.insn	2, 0x0000
    41b977f8:	a8df 106b 0000      	.insn	6, 0x106ba8df
    41b977fe:	0000                	.insn	2, 0x0000
    41b97800:	acdf 106b 0000      	.insn	6, 0x106bacdf
    41b97806:	0000                	.insn	2, 0x0000
    41b97808:	b0df 106b 0000      	.insn	6, 0x106bb0df
    41b9780e:	0000                	.insn	2, 0x0000
    41b97810:	b4df 106b 0000      	.insn	6, 0x106bb4df
    41b97816:	0000                	.insn	2, 0x0000
    41b97818:	b8df 106b 0000      	.insn	6, 0x106bb8df
    41b9781e:	0000                	.insn	2, 0x0000
    41b97820:	bcdf 106b 0000      	.insn	6, 0x106bbcdf
    41b97826:	0000                	.insn	2, 0x0000
    41b97828:	c0df 106b 0000      	.insn	6, 0x106bc0df
    41b9782e:	0000                	.insn	2, 0x0000
    41b97830:	c4df 106b 0000      	.insn	6, 0x106bc4df
    41b97836:	0000                	.insn	2, 0x0000
    41b97838:	c8df 106b 0000      	.insn	6, 0x106bc8df
    41b9783e:	0000                	.insn	2, 0x0000
    41b97840:	ccdf 106b 0000      	.insn	6, 0x106bccdf
	...
    41b97c4e:	0000                	.insn	2, 0x0000
    41b97c50:	106dd4cf          	fnmadd.s	f9,f27,f6,f2,unknown
    41b97c54:	0000                	.insn	2, 0x0000
	...

Disassembly of section .__pagetable_map_os_0x0000000041bdc000:

0000000041bdc000 <__pagetable_map_os_0x0000000041bdc000>:
	...
    41bdcf00:	80df 106f 0000      	.insn	6, 0x106f80df
	...

Disassembly of section .__pagetable_map_os_0x00000000422a4000:

00000000422a4000 <__pagetable_map_os_0x00000000422a4000>:
	...
    422a4cc0:	1cdf 106e 0000      	.insn	6, 0x106e1cdf
	...

Disassembly of section .__pagetable_map_os_0x0000000045015000:

0000000045015000 <__pagetable_map_os_0x0000000045015000>:
	...
    45015c00:	104e9cdb          	.insn	4, 0x104e9cdb
    45015c04:	0000                	.insn	2, 0x0000
	...

Disassembly of section .__pagetable_map_os_0x0000000041bf9000:

0000000041bf9000 <__pagetable_map_os_0x0000000041bf9000>:
	...
    41bf9640:	104fc4d7          	vminu.vx	v9,v4,x31,v0.t
    41bf9644:	0000                	.insn	2, 0x0000
	...

Disassembly of section .__pagetable_map_os_0x0000000041c83000:

0000000041c83000 <__pagetable_map_os_0x0000000041c83000>:
	...
    41c83d78:	a0df 106e 0000      	.insn	6, 0x106ea0df
	...

Disassembly of section .__pagetable_map_os_0x0000000041e1c000:

0000000041e1c000 <__pagetable_map_os_0x0000000041e1c000>:
	...
    41e1ce68:	80df 106f 0000      	.insn	6, 0x106f80df
	...

Disassembly of section .__pagetable_map_os_0x00000000426e0000:

00000000426e0000 <__pagetable_map_os_0x00000000426e0000>:
	...
    426e0ff8:	d0df 104f 0000      	.insn	6, 0x104fd0df
	...

Disassembly of section .__pagetable_map_os_0x0000000041b9b000:

0000000041b9b000 <__pagetable_map_os_0x0000000041b9b000>:
    41b9b000:	8c01                	.insn	2, 0x8c01
    41b9b002:	106e                	.insn	2, 0x106e
	...
    41b9b010:	8001                	.insn	2, 0x8001
    41b9b012:	106e                	.insn	2, 0x106e
	...
    41b9b030:	9401                	.insn	2, 0x9401
    41b9b032:	0000107b          	.insn	4, 0x107b
	...
    41b9b03e:	0000                	.insn	2, 0x0000
    41b9b040:	9c01                	.insn	2, 0x9c01
    41b9b042:	0000106f          	j	41b9c042 <__pagetable_map_os_0x0000000041b9c000+0x42>
	...
    41b9b0de:	0000                	.insn	2, 0x0000
    41b9b0e0:	4401                	.insn	2, 0x4401
    41b9b0e2:	00001073          	csrw	ustatus,x0
	...
    41b9b0ee:	0000                	.insn	2, 0x0000
    41b9b0f0:	109000db          	.insn	4, 0x109000db
	...
    41b9b140:	1401                	.insn	2, 0x1401
    41b9b142:	0000109b          	slliw	x1,x0,0x0
	...
    41b9b196:	0000                	.insn	2, 0x0000
    41b9b198:	5001                	.insn	2, 0x5001
    41b9b19a:	1071                	.insn	2, 0x1071
	...
    41b9b280:	e401                	.insn	2, 0xe401
    41b9b282:	0000104f          	fnmadd.s	f0,f0,f0,f0,rtz
	...
    41b9b39e:	0000                	.insn	2, 0x0000
    41b9b3a0:	5001                	.insn	2, 0x5001
    41b9b3a2:	00001073          	csrw	ustatus,x0
	...
    41b9b5c6:	0000                	.insn	2, 0x0000
    41b9b5c8:	4c01                	.insn	2, 0x4c01
    41b9b5ca:	00001073          	csrw	ustatus,x0
	...
    41b9b6b6:	0000                	.insn	2, 0x0000
    41b9b6b8:	1401                	.insn	2, 0x1401
    41b9b6ba:	0000106f          	j	41b9c6ba <__pagetable_map_os_0x0000000041b9c000+0x6ba>
	...
    41b9b7d6:	0000                	.insn	2, 0x0000
    41b9b7d8:	e401                	.insn	2, 0xe401
    41b9b7da:	106e                	.insn	2, 0x106e
	...
    41b9ba48:	8c01                	.insn	2, 0x8c01
    41b9ba4a:	0000104f          	fnmadd.s	f0,f0,f0,f0,rtz
    41b9ba4e:	0000                	.insn	2, 0x0000
    41b9ba50:	1401                	.insn	2, 0x1401
    41b9ba52:	00001077          	.insn	4, 0x1077
	...
    41b9bb66:	0000                	.insn	2, 0x0000
    41b9bb68:	d401                	.insn	2, 0xd401
    41b9bb6a:	0000106f          	j	41b9cb6a <__pagetable_map_os_0x0000000041b9c000+0xb6a>
	...
    41b9bc4e:	0000                	.insn	2, 0x0000
    41b9bc50:	7c01                	.insn	2, 0x7c01
    41b9bc52:	0000104f          	fnmadd.s	f0,f0,f0,f0,rtz
	...

Disassembly of section .__pagetable_map_os_0x0000000041cd1000:

0000000041cd1000 <__pagetable_map_os_0x0000000041cd1000>:
	...
    41cd1690:	c8df 106f 0000      	.insn	6, 0x106fc8df
    41cd1696:	0000                	.insn	2, 0x0000
    41cd1698:	ccdf 106f 0000      	.insn	6, 0x106fccdf
	...
    41cd1c8e:	0000                	.insn	2, 0x0000
    41cd1c90:	106e14d7          	vfmin.vv	v9,v6,v28,v0.t
    41cd1c94:	0000                	.insn	2, 0x0000
	...

Disassembly of section .__pagetable_map_os_0x0000000041ba3000:

0000000041ba3000 <__pagetable_map_os_0x0000000041ba3000>:
	...
    41ba3008:	b8df 108d 0000      	.insn	6, 0x108db8df
    41ba300e:	0000                	.insn	2, 0x0000
    41ba3010:	84df 109b 0000      	.insn	6, 0x109b84df
	...
    41ba301e:	0000                	.insn	2, 0x0000
    41ba3020:	54df 106f 0000      	.insn	6, 0x106f54df
    41ba3026:	0000                	.insn	2, 0x0000
    41ba3028:	00df 1070 0000      	.insn	6, 0x107000df
    41ba302e:	0000                	.insn	2, 0x0000
    41ba3030:	80df 106f 0000      	.insn	6, 0x106f80df
	...
    41ba3066:	0000                	.insn	2, 0x0000
    41ba3068:	104fb8d7          	.insn	4, 0x104fb8d7
	...
    41ba3078:	80df 104f 0000      	.insn	6, 0x104f80df
    41ba307e:	0000                	.insn	2, 0x0000
    41ba3080:	104f6cd7          	.insn	4, 0x104f6cd7
	...
    41ba30f0:	30df 106f 0000      	.insn	6, 0x106f30df
	...
    41ba316e:	0000                	.insn	2, 0x0000
    41ba3170:	f8df 108f 0000      	.insn	6, 0x108ff8df
	...
    41ba34ce:	0000                	.insn	2, 0x0000
    41ba34d0:	106fb8d7          	.insn	4, 0x106fb8d7
	...
    41ba38f8:	104ff0d7          	vsetvli	x1,x31,260
	...
    41ba3958:	c0df 106f 0000      	.insn	6, 0x106fc0df
	...

Disassembly of section .__pagetable_map_os_0x00000000413e3000:

00000000413e3000 <__pagetable_map_os_0x00000000413e3000>:
	...
    413e3db0:	c4df 106f 0000      	.insn	6, 0x106fc4df
	...

Disassembly of section .__pagetable_map_os_0x00000000413df000:

00000000413df000 <__pagetable_map_os_0x00000000413df000>:
	...
    413dfac8:	106de4d7          	.insn	4, 0x106de4d7
    413dfacc:	0000                	.insn	2, 0x0000
	...

Disassembly of section .__pagetable_map_os_0x0000000041c54000:

0000000041c54000 <__pagetable_map_os_0x0000000041c54000>:
	...
    41c543b8:	ecdf 106d 0000      	.insn	6, 0x106decdf
	...

Disassembly of section .__pagetable_map_os_0x0000000041dc5000:

0000000041dc5000 <__pagetable_map_os_0x0000000041dc5000>:
	...
    41dc5fb0:	54df 1081 0000      	.insn	6, 0x108154df
	...

Disassembly of section .__pagetable_map_os_0x0000000041bc5000:

0000000041bc5000 <__pagetable_map_os_0x0000000041bc5000>:
	...
    41bc5158:	104fb0d7          	.insn	4, 0x104fb0d7
    41bc515c:	0000                	.insn	2, 0x0000
	...

Disassembly of section .__pagetable_map_os_0x0000000041bf5000:

0000000041bf5000 <__pagetable_map_os_0x0000000041bf5000>:
	...
    41bf5368:	104fa4d7          	vredminu.vs	v9,v4,v31,v0.t
    41bf536c:	0000                	.insn	2, 0x0000
	...

Disassembly of section .__pagetable_map_os_0x00000000413f9000:

00000000413f9000 <__pagetable_map_os_0x00000000413f9000>:
	...
    413f90e0:	80df 106f 0000      	.insn	6, 0x106f80df
	...

Disassembly of section .__pagetable_map_os_0x0000000041ba0000:

0000000041ba0000 <__pagetable_map_os_0x0000000041ba0000>:
	...
    41ba0190:	4cdf 104f 0000      	.insn	6, 0x104f4cdf
	...

Disassembly of section .__pagetable_map_os_0x0000000041cd3000:

0000000041cd3000 <__pagetable_map_os_0x0000000041cd3000>:
	...
    41cd3b40:	98df 104f 0000      	.insn	6, 0x104f98df
	...

Disassembly of section .__pagetable_map_os_0x0000000041be7000:

0000000041be7000 <__pagetable_map_os_0x0000000041be7000>:
	...
    41be7210:	70df 106e 0000      	.insn	6, 0x106e70df
	...

Disassembly of section .__pagetable_map_os_0x00000000426c5000:

00000000426c5000 <__pagetable_map_os_0x00000000426c5000>:
	...
    426c5e08:	ccdf 1140 0000      	.insn	6, 0x1140ccdf
	...

Disassembly of section .__pagetable_map_os_0x0000000041bb9000:

0000000041bb9000 <__pagetable_map_os_0x0000000041bb9000>:
	...
    41bb9c10:	80df 106f 0000      	.insn	6, 0x106f80df
	...

Disassembly of section .__pagetable_map_os_0x0000000041ee5000:

0000000041ee5000 <__pagetable_map_os_0x0000000041ee5000>:
	...
    41ee5a18:	1cdf 106f 0000      	.insn	6, 0x106f1cdf
	...

Disassembly of section .__pagetable_map_os_0x0000000041cd4000:

0000000041cd4000 <__pagetable_map_os_0x0000000041cd4000>:
	...
    41cd4a50:	24df 1140 0000      	.insn	6, 0x114024df
	...

Disassembly of section .__pagetable_map_os_0x0000000041b76000:

0000000041b76000 <__pagetable_map_os_0x0000000041b76000>:
	...
    41b76270:	f801                	.insn	2, 0xf801
    41b76272:	106e                	.insn	2, 0x106e
    41b76274:	0000                	.insn	2, 0x0000
	...

Disassembly of section .__pagetable_map_os_0x0000000041bbe000:

0000000041bbe000 <__pagetable_map_os_0x0000000041bbe000>:
	...
    41bbec90:	d8df 106e 0000      	.insn	6, 0x106ed8df
	...

Disassembly of section .__pagetable_map_os_0x0000000041b7e000:

0000000041b7e000 <__pagetable_map_os_0x0000000041b7e000>:
	...
    41b7e960:	7001                	.insn	2, 0x7001
    41b7e962:	1071                	.insn	2, 0x1071
    41b7e964:	0000                	.insn	2, 0x0000
	...

Disassembly of section .__pagetable_map_os_0x0000000041c5c000:

0000000041c5c000 <__pagetable_map_os_0x0000000041c5c000>:
	...
    41c5c078:	f4df 106d 0000      	.insn	6, 0x106df4df
	...

Disassembly of section .__pagetable_map_os_0x00000000426fc000:

00000000426fc000 <__pagetable_map_os_0x00000000426fc000>:
	...
    426fc928:	9401                	.insn	2, 0x9401
    426fc92a:	109a                	.insn	2, 0x109a
    426fc92c:	0000                	.insn	2, 0x0000
	...

Disassembly of section .__pagetable_map_os_0x00000000426a5000:

00000000426a5000 <__pagetable_map_os_0x00000000426a5000>:
	...
    426a5cd0:	106de8d7          	.insn	4, 0x106de8d7
    426a5cd4:	0000                	.insn	2, 0x0000
	...

Disassembly of section .__pagetable_map_os_0x00000000426f9000:

00000000426f9000 <__pagetable_map_os_0x00000000426f9000>:
	...
    426f9ab8:	6401                	.insn	2, 0x6401
    426f9aba:	109a                	.insn	2, 0x109a
    426f9abc:	0000                	.insn	2, 0x0000
	...

Disassembly of section .__pagetable_map_os_0x0000000042699000:

0000000042699000 <__pagetable_map_os_0x0000000042699000>:
	...
    42699678:	106f34db          	.insn	4, 0x106f34db
    4269967c:	0000                	.insn	2, 0x0000
	...

Disassembly of section .__pagetable_map_os_0x00000000413f6000:

00000000413f6000 <__pagetable_map_os_0x00000000413f6000>:
	...
    413f68a8:	0401                	.insn	2, 0x0401
    413f68aa:	106e                	.insn	2, 0x106e
	...
    413f6a28:	6801                	.insn	2, 0x6801
    413f6a2a:	000010fb          	.insn	4, 0x10fb
	...

Disassembly of section .__pagetable_map_os_0x0000000041b81000:

0000000041b81000 <__pagetable_map_os_0x0000000041b81000>:
	...
    41b816f0:	106e88d7          	vminu.vv	v17,v6,v29,v0.t
    41b816f4:	0000                	.insn	2, 0x0000
	...

Disassembly of section .__pagetable_map_os_0x0000000043eda000:

0000000043eda000 <__pagetable_map_os_0x0000000043eda000>:
	...
    43edacb8:	10df 106f 0000      	.insn	6, 0x106f10df
	...

Disassembly of section .__pagetable_map_os_0x0000000043639000:

0000000043639000 <__pagetable_map_os_0x0000000043639000>:
	...
    43639270:	3c01                	.insn	2, 0x3c01
    43639272:	0000104f          	fnmadd.s	f0,f0,f0,f0,rtz
	...

Disassembly of section .__pagetable_map_os_0x00000000413cf000:

00000000413cf000 <__pagetable_map_os_0x00000000413cf000>:
	...
    413cf8e8:	107920d7          	vredminu.vs	v1,v7,v18,v0.t
    413cf8ec:	0000                	.insn	2, 0x0000
	...

Disassembly of section .__pagetable_map_os_0x00000000413e7000:

00000000413e7000 <__pagetable_map_os_0x00000000413e7000>:
	...
    413e7150:	c801                	.insn	2, 0xc801
    413e7152:	1070                	.insn	2, 0x1070
    413e7154:	0000                	.insn	2, 0x0000
	...

Disassembly of section .__pagetable_map_os_0x0000000041c32000:

0000000041c32000 <__pagetable_map_os_0x0000000041c32000>:
	...
    41c325a8:	109b90d7          	vfmin.vv	v1,v9,v23,v0.t
    41c325ac:	0000                	.insn	2, 0x0000
	...

Disassembly of section .__pagetable_map_os_0x00000000413fa000:

00000000413fa000 <__pagetable_map_os_0x00000000413fa000>:
	...
    413fa0f8:	0c01                	.insn	2, 0x0c01
    413fa0fa:	0000106f          	j	413fb0fa <__pagetable_map_os_0x00000000413fa000+0x10fa>
	...

Disassembly of section .__pagetable_map_os_0x0000000041bc3000:

0000000041bc3000 <__pagetable_map_os_0x0000000041bc3000>:
	...
    41bc30f0:	104fb4d7          	.insn	4, 0x104fb4d7
    41bc30f4:	0000                	.insn	2, 0x0000
	...

Disassembly of section .__pagetable_map_os_0x0000000041bd1000:

0000000041bd1000 <__pagetable_map_os_0x0000000041bd1000>:
	...
    41bd10f0:	6801                	.insn	2, 0x6801
    41bd10f2:	109a                	.insn	2, 0x109a
    41bd10f4:	0000                	.insn	2, 0x0000
	...

Disassembly of section .__pagetable_map_os_0x000000004269a000:

000000004269a000 <__pagetable_map_os_0x000000004269a000>:
	...
    4269a400:	106e9cd7          	vfmin.vv	v25,v6,v29,v0.t
    4269a404:	0000                	.insn	2, 0x0000
	...

Disassembly of section .__pagetable_map_os_0x000000004138c000:

000000004138c000 <__pagetable_map_os_0x000000004138c000>:
	...
    4138c1f8:	2401                	.insn	2, 0x2401
    4138c1fa:	0000109b          	slliw	x1,x0,0x0
	...

Disassembly of section .__pagetable_map_os_0x00000000426c9000:

00000000426c9000 <__pagetable_map_os_0x00000000426c9000>:
    426c9000:	80df 106f 0000      	.insn	6, 0x106f80df
	...

Disassembly of section .__pagetable_map_os_0x0000000044542000:

0000000044542000 <__pagetable_map_os_0x0000000044542000>:
	...
    445424d0:	3401                	.insn	2, 0x3401
    445424d2:	1086                	.insn	2, 0x1086
    445424d4:	0000                	.insn	2, 0x0000
	...

Disassembly of section .__pagetable_map_os_0x000000004218d000:

000000004218d000 <__pagetable_map_os_0x000000004218d000>:
	...
    4218d950:	ccdf 1099 0000      	.insn	6, 0x1099ccdf
	...

Disassembly of section .__pagetable_map_os_0x0000000043a49000:

0000000043a49000 <__pagetable_map_os_0x0000000043a49000>:
	...
    43a49c70:	1c01                	.insn	2, 0x1c01
    43a49c72:	1079                	.insn	2, 0x1079
    43a49c74:	0000                	.insn	2, 0x0000
	...

Disassembly of section .__pagetable_map_os_0x0000000041e47000:

0000000041e47000 <__pagetable_map_os_0x0000000041e47000>:
	...
    41e47f90:	80df 106f 0000      	.insn	6, 0x106f80df
	...

Disassembly of section .__pagetable_map_os_0x0000000042072000:

0000000042072000 <__pagetable_map_os_0x0000000042072000>:
	...
    42072d68:	2401                	.insn	2, 0x2401
    42072d6a:	00001073          	csrw	ustatus,x0
	...

Disassembly of section .__pagetable_map_os_0x0000000041cc9000:

0000000041cc9000 <__pagetable_map_os_0x0000000041cc9000>:
	...
    41cc9228:	a8df 104f 0000      	.insn	6, 0x104fa8df
	...

Disassembly of section .__pagetable_map_os_0x0000000041b77000:

0000000041b77000 <__pagetable_map_os_0x0000000041b77000>:
	...
    41b770b0:	9401                	.insn	2, 0x9401
    41b770b2:	0000106f          	j	41b780b2 <__pagetable_map_os_0x0000000041b77000+0x10b2>
	...
    41b7768e:	0000                	.insn	2, 0x0000
    41b77690:	4801                	.insn	2, 0x4801
    41b77692:	0000104f          	fnmadd.s	f0,f0,f0,f0,rtz
	...

Disassembly of section .__pagetable_map_os_0x00000000413d2000:

00000000413d2000 <__pagetable_map_os_0x00000000413d2000>:
	...
    413d29b8:	78df 109b 0000      	.insn	6, 0x109b78df
	...

Disassembly of section .__pagetable_map_os_0x0000000041be5000:

0000000041be5000 <__pagetable_map_os_0x0000000041be5000>:
	...
    41be5128:	f0df 106e 0000      	.insn	6, 0x106ef0df
	...

Disassembly of section .__pagetable_map_os_0x00000000421c9000:

00000000421c9000 <__pagetable_map_os_0x00000000421c9000>:
	...
    421c9f88:	7401                	.insn	2, 0x7401
    421c9f8a:	10e9                	.insn	2, 0x10e9
    421c9f8c:	0000                	.insn	2, 0x0000
	...

Disassembly of section .__pagetable_map_os_0x0000000043a5d000:

0000000043a5d000 <__pagetable_map_os_0x0000000043a5d000>:
	...
    43a5d178:	c0df 104f 0000      	.insn	6, 0x104fc0df
	...

Disassembly of section .__pagetable_map_os_0x000000004270b000:

000000004270b000 <__pagetable_map_os_0x000000004270b000>:
	...
    4270b9b8:	ec01                	.insn	2, 0xec01
    4270b9ba:	1115                	.insn	2, 0x1115
    4270b9bc:	0000                	.insn	2, 0x0000
	...

Disassembly of section .__pagetable_map_os_0x000000004457b000:

000000004457b000 <__pagetable_map_os_0x000000004457b000>:
	...
    4457b730:	74df 106f 0000      	.insn	6, 0x106f74df
	...

Disassembly of section .__pagetable_map_os_0x0000000044541000:

0000000044541000 <__pagetable_map_os_0x0000000044541000>:
	...
    44541a98:	9001                	.insn	2, 0x9001
    44541a9a:	106e                	.insn	2, 0x106e
    44541a9c:	0000                	.insn	2, 0x0000
	...

Disassembly of section .__pagetable_map_os_0x0000000041ba4000:

0000000041ba4000 <__pagetable_map_os_0x0000000041ba4000>:
	...
    41ba4570:	9401                	.insn	2, 0x9401
    41ba4572:	106e                	.insn	2, 0x106e
    41ba4574:	0000                	.insn	2, 0x0000
	...

Disassembly of section .__pagetable_map_os_0x0000000041ba5000:

0000000041ba5000 <__pagetable_map_os_0x0000000041ba5000>:
	...
    41ba5df8:	2cdf 104e 0000      	.insn	6, 0x104e2cdf
	...

Disassembly of section .__pagetable_map_os_0x0000000042702000:

0000000042702000 <__pagetable_map_os_0x0000000042702000>:
	...
    42702058:	8c01                	.insn	2, 0x8c01
    4270205a:	0000109b          	slliw	x1,x0,0x0
	...
    4270253e:	0000                	.insn	2, 0x0000
    42702540:	6801                	.insn	2, 0x6801
    42702542:	0000106f          	j	42703542 <__pagetable_map_os_0x0000000042702000+0x1542>
	...
    42702616:	0000                	.insn	2, 0x0000
    42702618:	9801                	.insn	2, 0x9801
    4270261a:	106e                	.insn	2, 0x106e
    4270261c:	0000                	.insn	2, 0x0000
	...

Disassembly of section .__pagetable_map_os_0x0000000041ba6000:

0000000041ba6000 <__pagetable_map_os_0x0000000041ba6000>:
	...
    41ba6dd8:	00df 1050 0000      	.insn	6, 0x105000df
	...

Disassembly of section .__pagetable_map_os_0x0000000041bda000:

0000000041bda000 <__pagetable_map_os_0x0000000041bda000>:
	...
    41bda110:	4801                	.insn	2, 0x4801
    41bda112:	111d                	.insn	2, 0x111d
    41bda114:	0000                	.insn	2, 0x0000
	...

Disassembly of section .__pagetable_map_os_0x0000000044752000:

0000000044752000 <__pagetable_map_os_0x0000000044752000>:
	...
    447526d8:	28d9                	.insn	2, 0x28d9
    447526da:	0000106f          	j	447536da <SID_PBVMS_003_ptw_all_privilege_modes_stack_pa+0x6da>
	...

Disassembly of section .__pagetable_map_os_0x00000000426e3000:

00000000426e3000 <__pagetable_map_os_0x00000000426e3000>:
	...
    426e3190:	ec01                	.insn	2, 0xec01
    426e3192:	0000109b          	slliw	x1,x0,0x0
	...

Disassembly of section .__pagetable_map_os_0x00000000426fb000:

00000000426fb000 <__pagetable_map_os_0x00000000426fb000>:
	...
    426fb0f0:	111d50d7          	vfmin.vf	v1,v17,f26,v0.t
    426fb0f4:	0000                	.insn	2, 0x0000
	...

Disassembly of section .__pagetable_map_os_0x00000000413f2000:

00000000413f2000 <__pagetable_map_os_0x00000000413f2000>:
	...
    413f2900:	a401                	.insn	2, 0xa401
    413f2902:	106e                	.insn	2, 0x106e
    413f2904:	0000                	.insn	2, 0x0000
	...

Disassembly of section .__pagetable_map_os_0x0000000041ba9000:

0000000041ba9000 <__pagetable_map_os_0x0000000041ba9000>:
	...
    41ba9d20:	113800d7          	vminu.vv	v1,v19,v16,v0.t
    41ba9d24:	0000                	.insn	2, 0x0000
	...

Disassembly of section .__pagetable_map_os_0x0000000041bc6000:

0000000041bc6000 <__pagetable_map_os_0x0000000041bc6000>:
	...
    41bc6560:	6801                	.insn	2, 0x6801
    41bc6562:	106e                	.insn	2, 0x106e
    41bc6564:	0000                	.insn	2, 0x0000
	...

Disassembly of section .__pagetable_map_os_0x0000000041b9a000:

0000000041b9a000 <__pagetable_map_os_0x0000000041b9a000>:
	...
    41b9a510:	00d1                	.insn	2, 0x00d1
    41b9a512:	1058                	.insn	2, 0x1058
    41b9a514:	0000                	.insn	2, 0x0000
	...

Disassembly of section .__pagetable_map_os_0x00000000426fa000:

00000000426fa000 <__pagetable_map_os_0x00000000426fa000>:
	...
    426fae08:	7401                	.insn	2, 0x7401
    426fae0a:	0000104f          	fnmadd.s	f0,f0,f0,f0,rtz
	...

Disassembly of section .__pagetable_map_os_0x00000000413dd000:

00000000413dd000 <__pagetable_map_os_0x00000000413dd000>:
	...
    413ddfa8:	2c01                	.insn	2, 0x2c01
    413ddfaa:	0000104f          	fnmadd.s	f0,f0,f0,f0,rtz
	...

Disassembly of section .__pagetable_map_os_0x00000000413cb000:

00000000413cb000 <__pagetable_map_os_0x00000000413cb000>:
	...
    413cbdf8:	104f38d7          	.insn	4, 0x104f38d7
	...
    413cbe08:	106e10d3          	fmul.s	f1,f28,f6,rtz
    413cbe0c:	0000                	.insn	2, 0x0000
	...

Disassembly of section .__pagetable_map_os_0x0000000041bc2000:

0000000041bc2000 <__pagetable_map_os_0x0000000041bc2000>:
	...
    41bc2c18:	d801                	.insn	2, 0xd801
    41bc2c1a:	0000106f          	j	41bc3c1a <__pagetable_map_os_0x0000000041bc3000+0xc1a>
	...

Disassembly of section .__pagetable_map_os_0x0000000041bf6000:

0000000041bf6000 <__pagetable_map_os_0x0000000041bf6000>:
	...
    41bf63e8:	ac01                	.insn	2, 0xac01
    41bf63ea:	0000104f          	fnmadd.s	f0,f0,f0,f0,rtz
	...

Disassembly of section .__pagetable_map_os_0x00000000413eb000:

00000000413eb000 <__pagetable_map_os_0x00000000413eb000>:
	...
    413eb010:	f0d9                	.insn	2, 0xf0d9
    413eb012:	106d                	.insn	2, 0x106d
    413eb014:	0000                	.insn	2, 0x0000
	...

Disassembly of section .__pagetable_map_os_0x00000000423cb000:

00000000423cb000 <__pagetable_map_os_0x00000000423cb000>:
	...
    423cbe40:	0001                	.insn	2, 0x0001
    423cbe42:	106e                	.insn	2, 0x106e
    423cbe44:	0000                	.insn	2, 0x0000
	...

Disassembly of section .__pagetable_map_os_0x0000000041b80000:

0000000041b80000 <__pagetable_map_os_0x0000000041b80000>:
	...
    41b800e0:	a801                	.insn	2, 0xa801
    41b800e2:	1115                	.insn	2, 0x1115
    41b800e4:	0000                	.insn	2, 0x0000
	...

Disassembly of section .__pagetable_map_os_0x000000004456a000:

000000004456a000 <__pagetable_map_os_0x000000004456a000>:
	...
    4456aa68:	109c28d3          	fmul.s	f17,f24,f9,rdn
    4456aa6c:	0000                	.insn	2, 0x0000
	...

Disassembly of section .__pagetable_map_os_0x00000000413e1000:

00000000413e1000 <__pagetable_map_os_0x00000000413e1000>:
	...
    413e1720:	7c01                	.insn	2, 0x7c01
    413e1722:	0000109b          	slliw	x1,x0,0x0
	...

Disassembly of section .__pagetable_map_os_0x00000000426df000:

00000000426df000 <__pagetable_map_os_0x00000000426df000>:
	...
    426dfd70:	7c01                	.insn	2, 0x7c01
    426dfd72:	106e                	.insn	2, 0x106e
    426dfd74:	0000                	.insn	2, 0x0000
	...

Disassembly of section .__pagetable_map_os_0x0000000041b9f000:

0000000041b9f000 <__pagetable_map_os_0x0000000041b9f000>:
	...
    41b9fee8:	10829cd7          	vfmin.vv	v25,v8,v5,v0.t
    41b9feec:	0000                	.insn	2, 0x0000
	...

Disassembly of section .__pagetable_map_os_0x0000000041cd6000:

0000000041cd6000 <__pagetable_map_os_0x0000000041cd6000>:
	...
    41cd6f58:	0401                	.insn	2, 0x0401
    41cd6f5a:	0000106f          	j	41cd7f5a <__pagetable_map_os_0x0000000041cd6000+0x1f5a>
	...

Disassembly of section .__pagetable_map_os_0x0000000041bc1000:

0000000041bc1000 <__pagetable_map_os_0x0000000041bc1000>:
	...
    41bc1168:	5001                	.insn	2, 0x5001
    41bc116a:	1070                	.insn	2, 0x1070
    41bc116c:	0000                	.insn	2, 0x0000
	...

Disassembly of section .__pagetable_map_os_0x0000000041c14000:

0000000041c14000 <__pagetable_map_os_0x0000000041c14000>:
	...
    41c14388:	109800d7          	vminu.vv	v1,v9,v16,v0.t
    41c1438c:	0000                	.insn	2, 0x0000
	...

Disassembly of section .__pagetable_map_os_0x00000000413c1000:

00000000413c1000 <__pagetable_map_os_0x00000000413c1000>:
	...
    413c1df0:	2401                	.insn	2, 0x2401
    413c1df2:	10f8                	.insn	2, 0x10f8
    413c1df4:	0000                	.insn	2, 0x0000
	...

Disassembly of section .__pagetable_map_os_0x0000000043e09000:

0000000043e09000 <__pagetable_map_os_0x0000000043e09000>:
	...
    43e097b0:	4001                	.insn	2, 0x4001
    43e097b2:	0000104f          	fnmadd.s	f0,f0,f0,f0,rtz
	...

Disassembly of section .__pagetable_map_os_0x00000000413d0000:

00000000413d0000 <__pagetable_map_os_0x00000000413d0000>:
	...
    413d02f0:	58df 1088 0000      	.insn	6, 0x108858df
	...

Disassembly of section .__pagetable_map_os_0x0000000041fbc000:

0000000041fbc000 <__pagetable_map_os_0x0000000041fbc000>:
	...
    41fbc068:	bc01                	.insn	2, 0xbc01
    41fbc06a:	0000104f          	fnmadd.s	f0,f0,f0,f0,rtz
	...

Disassembly of section .__pagetable_map_os_0x00000000413ef000:

00000000413ef000 <__pagetable_map_os_0x00000000413ef000>:
	...
    413eff30:	7401                	.insn	2, 0x7401
    413eff32:	0000109b          	slliw	x1,x0,0x0
	...

Disassembly of section .__pagetable_map_os_0x00000000426dd000:

00000000426dd000 <__pagetable_map_os_0x00000000426dd000>:
	...
    426ddf58:	7001                	.insn	2, 0x7001
    426ddf5a:	0000104f          	fnmadd.s	f0,f0,f0,f0,rtz
	...

Disassembly of section .__pagetable_map_os_0x00000000413dc000:

00000000413dc000 <__pagetable_map_os_0x00000000413dc000>:
	...
    413dc6a0:	08df 106e 0000      	.insn	6, 0x106e08df
    413dc6a6:	0000                	.insn	2, 0x0000
    413dc6a8:	0cdf 106e 0000      	.insn	6, 0x106e0cdf
	...

Disassembly of section .__pagetable_map_os_0x0000000041bce000:

0000000041bce000 <__pagetable_map_os_0x0000000041bce000>:
	...
    41bcee98:	6001                	.insn	2, 0x6001
    41bcee9a:	106e                	.insn	2, 0x106e
    41bcee9c:	0000                	.insn	2, 0x0000
	...

Disassembly of section .__pagetable_map_os_0x0000000041b98000:

0000000041b98000 <__pagetable_map_os_0x0000000041b98000>:
	...
    41b98f58:	2c01                	.insn	2, 0x2c01
    41b98f5a:	0000106f          	j	41b99f5a <__pagetable_map_os_0x0000000041b99000+0xf5a>
	...

Disassembly of section .__pagetable_map_os_0x0000000041bcb000:

0000000041bcb000 <__pagetable_map_os_0x0000000041bcb000>:
	...
    41bcbcc0:	3c01                	.insn	2, 0x3c01
    41bcbcc2:	0000106f          	j	41bcccc2 <__pagetable_map_os_0x0000000041bcc000+0xcc2>
	...

Disassembly of section .__pagetable_map_os_0x0000000041bcf000:

0000000041bcf000 <__pagetable_map_os_0x0000000041bcf000>:
	...
    41bcf110:	64df 106f 0000      	.insn	6, 0x106f64df
	...

Disassembly of section .__pagetable_map_os_0x000000004267b000:

000000004267b000 <__pagetable_map_os_0x000000004267b000>:
	...
    4267bc58:	6401                	.insn	2, 0x6401
    4267bc5a:	106e                	.insn	2, 0x106e
    4267bc5c:	0000                	.insn	2, 0x0000
	...

Disassembly of section .__pagetable_map_os_0x0000000041b99000:

0000000041b99000 <__pagetable_map_os_0x0000000041b99000>:
	...
    41b99d10:	1801                	.insn	2, 0x1801
    41b99d12:	106e                	.insn	2, 0x106e
    41b99d14:	0000                	.insn	2, 0x0000
	...

Disassembly of section .__pagetable_map_os_0x0000000041b86000:

0000000041b86000 <__pagetable_map_os_0x0000000041b86000>:
	...
    41b867b8:	9001                	.insn	2, 0x9001
    41b867ba:	0000106f          	j	41b877ba <mem0_pa+0x7ba>
	...

Disassembly of section .__pagetable_map_os_0x0000000041be4000:

0000000041be4000 <__pagetable_map_os_0x0000000041be4000>:
	...
    41be4580:	bcdf 106f 0000      	.insn	6, 0x106fbcdf
	...

Disassembly of section .__pagetable_map_os_0x00000000423fe000:

00000000423fe000 <__pagetable_map_os_0x00000000423fe000>:
    423fe000:	b801                	.insn	2, 0xb801
    423fe002:	108d                	.insn	2, 0x108d
    423fe004:	0000                	.insn	2, 0x0000
	...

Disassembly of section .__pagetable_map_os_0x000000004236e000:

000000004236e000 <__pagetable_map_os_0x000000004236e000>:
    4236e000:	4c01                	.insn	2, 0x4c01
    4236e002:	0000104f          	fnmadd.s	f0,f0,f0,f0,rtz
	...

Disassembly of section .__pagetable_map_os_0x00000000413d3000:

00000000413d3000 <__pagetable_map_os_0x00000000413d3000>:
    413d3000:	00df 1130 0000      	.insn	6, 0x113000df
	...

Disassembly of section .__pagetable_map_os_0x0000000041c00000:

0000000041c00000 <__pagetable_map_os_0x0000000041c00000>:
    41c00000:	a001                	.insn	2, 0xa001
    41c00002:	106e                	.insn	2, 0x106e
    41c00004:	0000                	.insn	2, 0x0000
	...

Disassembly of section .__pagetable_map_os_0x0000000041ba8000:

0000000041ba8000 <__pagetable_map_os_0x0000000041ba8000>:
    41ba8000:	cc01                	.insn	2, 0xcc01
    41ba8002:	1099                	.insn	2, 0x1099
    41ba8004:	0000                	.insn	2, 0x0000
	...

Disassembly of section .__pagetable_map_os_0x0000000042673000:

0000000042673000 <__pagetable_map_os_0x0000000042673000>:
    42673000:	5801                	.insn	2, 0x5801
    42673002:	1088                	.insn	2, 0x1088
    42673004:	0000                	.insn	2, 0x0000
	...

Disassembly of section .__pagetable_map_os_0x0000000042216000:

0000000042216000 <__pagetable_map_os_0x0000000042216000>:
    42216000:	94d2                	.insn	2, 0x94d2
    42216002:	0000104f          	fnmadd.s	f0,f0,f0,f0,rtz
	...

Disassembly of section .__pagetable_map_os_0x00000000413e6000:

00000000413e6000 <__pagetable_map_os_0x00000000413e6000>:
    413e6000:	1001                	.insn	2, 0x1001
    413e6002:	0000106f          	j	413e7002 <__pagetable_map_os_0x00000000413e7000+0x2>
	...

Disassembly of section .__pagetable_map_os_0x0000000041bc4000:

0000000041bc4000 <__pagetable_map_os_0x0000000041bc4000>:
    41bc4000:	a801                	.insn	2, 0xa801
    41bc4002:	0000104f          	fnmadd.s	f0,f0,f0,f0,rtz
	...

Disassembly of section .__pagetable_map_os_0x00000000413ea000:

00000000413ea000 <__pagetable_map_os_0x00000000413ea000>:
    413ea000:	7801                	.insn	2, 0x7801
    413ea002:	0000109b          	slliw	x1,x0,0x0
	...

Disassembly of section .__pagetable_map_os_0x00000000426de000:

00000000426de000 <__pagetable_map_os_0x00000000426de000>:
    426de000:	24d5                	.insn	2, 0x24d5
    426de002:	0000106f          	j	426df002 <__pagetable_map_os_0x00000000426df000+0x2>
	...

Disassembly of section .__pagetable_map_os_0x00000000413f4000:

00000000413f4000 <__pagetable_map_os_0x00000000413f4000>:
    413f4000:	7001                	.insn	2, 0x7001
    413f4002:	106e                	.insn	2, 0x106e
    413f4004:	0000                	.insn	2, 0x0000
	...

Disassembly of section .__pagetable_map_os_0x0000000041b9c000:

0000000041b9c000 <__pagetable_map_os_0x0000000041b9c000>:
    41b9c000:	8401                	.insn	2, 0x8401
    41b9c002:	0000109b          	slliw	x1,x0,0x0
	...

Disassembly of section .__pagetable_map_os_0x00000000426e1000:

00000000426e1000 <__pagetable_map_os_0x00000000426e1000>:
    426e1000:	c001                	.insn	2, 0xc001
    426e1002:	0000104f          	fnmadd.s	f0,f0,f0,f0,rtz
	...

Disassembly of section .__pagetable_map_os_0x00000000413f0000:

00000000413f0000 <__pagetable_map_os_0x00000000413f0000>:
    413f0000:	ecd9                	.insn	2, 0xecd9
    413f0002:	106e                	.insn	2, 0x106e
    413f0004:	0000                	.insn	2, 0x0000
	...

Disassembly of section .__pagetable_map_os_0x000000004138e000:

000000004138e000 <__pagetable_map_os_0x000000004138e000>:
	...
    4138e758:	8801                	.insn	2, 0x8801
    4138e75a:	0000109b          	slliw	x1,x0,0x0
	...

Disassembly of section .__pagetable_map_os_0x00000000426e2000:

00000000426e2000 <__pagetable_map_os_0x00000000426e2000>:
	...
    426e2e88:	e001                	.insn	2, 0xe001
    426e2e8a:	0000104f          	fnmadd.s	f0,f0,f0,f0,rtz
	...

Disassembly of section .__pagetable_map_os_0x00000000413f8000:

00000000413f8000 <__pagetable_map_os_0x00000000413f8000>:
	...
    413f8728:	4401                	.insn	2, 0x4401
    413f872a:	1098                	.insn	2, 0x1098
    413f872c:	0000                	.insn	2, 0x0000
	...

Disassembly of section .__pagetable_map_os_0x0000000042611000:

0000000042611000 <__pagetable_map_os_0x0000000042611000>:
	...
    42611978:	106f40f7          	.insn	4, 0x106f40f7
    4261197c:	0000                	.insn	2, 0x0000
	...

Disassembly of section .__pagetable_map_os_0x0000000041bd5000:

0000000041bd5000 <__pagetable_map_os_0x0000000041bd5000>:
    41bd5000:	cc01                	.insn	2, 0xcc01
    41bd5002:	1140                	.insn	2, 0x1140
    41bd5004:	0000                	.insn	2, 0x0000
	...

Disassembly of section .__pagetable_map_os_0x0000000045033000:

0000000045033000 <__pagetable_map_os_0x0000000045033000>:
    45033000:	7401                	.insn	2, 0x7401
    45033002:	0000106f          	j	45034002 <__pagetable_map_os_0x0000000045033000+0x1002>
	...

Disassembly of section .__pagetable_map_os_0x0000000041bdd000:

0000000041bdd000 <__pagetable_map_os_0x0000000041bdd000>:
    41bdd000:	8001                	.insn	2, 0x8001
    41bdd002:	0000104f          	fnmadd.s	f0,f0,f0,f0,rtz
	...

Disassembly of section .__pagetable_map_os_0x00000000413e0000:

00000000413e0000 <__pagetable_map_os_0x00000000413e0000>:
    413e0000:	7cdf 106f 0000      	.insn	6, 0x106f7cdf
	...

Disassembly of section .__pagetable_map_os_0x0000000041bcc000:

0000000041bcc000 <__pagetable_map_os_0x0000000041bcc000>:
    41bcc000:	1c01                	.insn	2, 0x1c01
    41bcc002:	0000106f          	j	41bcd002 <mem5_pa+0x2>
	...

Disassembly of section .__pagetable_map_os_0x0000000041bc7000:

0000000041bc7000 <__pagetable_map_os_0x0000000041bc7000>:
    41bc7000:	2401                	.insn	2, 0x2401
    41bc7002:	1140                	.insn	2, 0x1140
    41bc7004:	0000                	.insn	2, 0x0000
	...

Disassembly of section .__pagetable_map_os_0x0000000045009000:

0000000045009000 <__pagetable_map_os_0x0000000045009000>:
    45009000:	f001                	.insn	2, 0xf001
    45009002:	106e                	.insn	2, 0x106e
    45009004:	0000                	.insn	2, 0x0000
	...

Disassembly of section .__pagetable_map_os_0x0000000041bbc000:

0000000041bbc000 <__pagetable_map_os_0x0000000041bbc000>:
    41bbc000:	104fccd7          	vminu.vx	v25,v4,x31,v0.t
    41bbc004:	0000                	.insn	2, 0x0000
	...

Disassembly of section .__pagetable_map_os_0x0000000041ce9000:

0000000041ce9000 <__pagetable_map_os_0x0000000041ce9000>:
	...
    41ce9c88:	c001                	.insn	2, 0xc001
    41ce9c8a:	0000108b          	.insn	4, 0x108b
	...

Disassembly of section .__pagetable_map_os_0x00000000422f0000:

00000000422f0000 <__pagetable_map_os_0x00000000422f0000>:
	...
    422f0368:	6401                	.insn	2, 0x6401
    422f036a:	112e                	.insn	2, 0x112e
    422f036c:	0000                	.insn	2, 0x0000
	...

Disassembly of section .__pagetable_map_os_0x0000000044b99000:

0000000044b99000 <__pagetable_map_os_0x0000000044b99000>:
	...
    44b994a8:	0001                	.insn	2, 0x0001
    44b994aa:	0000106f          	j	44b9a4aa <__pagetable_map_os_0x0000000044b99000+0x14aa>
	...

Disassembly of section .__pagetable_map_os_0x0000000041bc0000:

0000000041bc0000 <__pagetable_map_os_0x0000000041bc0000>:
	...
    41bc0bf8:	111d4cd7          	vminu.vx	v25,v17,x26,v0.t
    41bc0bfc:	0000                	.insn	2, 0x0000
	...

Disassembly of section .__pagetable_map_os_0x00000000413fe000:

00000000413fe000 <__pagetable_map_os_0x00000000413fe000>:
	...
    413fec30:	4401                	.insn	2, 0x4401
    413fec32:	0000104f          	fnmadd.s	f0,f0,f0,f0,rtz
	...

Disassembly of section .__pagetable_map_os_0x00000000413d1000:

00000000413d1000 <__pagetable_map_os_0x00000000413d1000>:
	...
    413d14c0:	7801                	.insn	2, 0x7801
    413d14c2:	106e                	.insn	2, 0x106e
    413d14c4:	0000                	.insn	2, 0x0000
	...

Disassembly of section .__pagetable_map_os_0x0000000041b9e000:

0000000041b9e000 <__pagetable_map_os_0x0000000041b9e000>:
	...
    41b9ef68:	9401                	.insn	2, 0x9401
    41b9ef6a:	00001073          	csrw	ustatus,x0
	...

Disassembly of section .__pagetable_map_os_0x0000000041ce5000:

0000000041ce5000 <__pagetable_map_os_0x0000000041ce5000>:
	...
    41ce5488:	104fa0d7          	vredminu.vs	v1,v4,v31,v0.t
    41ce548c:	0000                	.insn	2, 0x0000
	...

Disassembly of section .__pagetable_map_os_0x0000000041c8b000:

0000000041c8b000 <__pagetable_map_os_0x0000000041c8b000>:
	...
    41c8bcf0:	2401                	.insn	2, 0x2401
    41c8bcf2:	10c8                	.insn	2, 0x10c8
    41c8bcf4:	0000                	.insn	2, 0x0000
	...

Disassembly of section .__pagetable_map_os_0x0000000043209000:

0000000043209000 <__pagetable_map_os_0x0000000043209000>:
	...
    43209360:	3801                	.insn	2, 0x3801
    43209362:	1072                	.insn	2, 0x1072
    43209364:	0000                	.insn	2, 0x0000
	...

Disassembly of section .__pagetable_map_os_0x0000000041c8e000:

0000000041c8e000 <__pagetable_map_os_0x0000000041c8e000>:
	...
    41c8ef00:	4801                	.insn	2, 0x4801
    41c8ef02:	00001073          	csrw	ustatus,x0
	...

Disassembly of section .__pagetable_map_os_0x0000000041cd2000:

0000000041cd2000 <__pagetable_map_os_0x0000000041cd2000>:
	...
    41cd2dc0:	108ffcd7          	vsetvli	x25,x31,264
    41cd2dc4:	0000                	.insn	2, 0x0000
	...

Disassembly of section .__pagetable_map_os_0x0000000041bde000:

0000000041bde000 <__pagetable_map_os_0x0000000041bde000>:
	...
    41bdee50:	6c01                	.insn	2, 0x6c01
    41bdee52:	0000106f          	j	41bdfe52 <mem21_pa+0xe52>
	...

Disassembly of section .__pagetable_map_os_0x0000000041bdb000:

0000000041bdb000 <__pagetable_map_os_0x0000000041bdb000>:
	...
    41bdb240:	c001                	.insn	2, 0xc001
    41bdb242:	00001077          	.insn	4, 0x1077
	...

Disassembly of section .__pagetable_map_os_0x0000000041df0000:

0000000041df0000 <__pagetable_map_os_0x0000000041df0000>:
	...
    41df0070:	0801                	.insn	2, 0x0801
    41df0072:	0000109b          	slliw	x1,x0,0x0
	...

Disassembly of section .__pagetable_map_os_0x00000000426c2000:

00000000426c2000 <__pagetable_map_os_0x00000000426c2000>:
	...
    426c2c78:	104fd4d7          	vfmin.vf	v9,v4,f31,v0.t
    426c2c7c:	0000                	.insn	2, 0x0000
	...

Disassembly of section .riscv.attributes:

0000000000000000 <.riscv.attributes>:
   0:	1841                	.insn	2, 0x1841
   2:	0002                	.insn	2, 0x0002
   4:	7200                	.insn	2, 0x7200
   6:	7369                	.insn	2, 0x7369
   8:	01007663          	bgeu	x0,x16,14 <INSTRUCTION_GUEST_PAGE_FAULT>
   c:	020e                	.insn	2, 0x020e
   e:	0000                	.insn	2, 0x0000
  10:	7205                	.insn	2, 0x7205
  12:	3676                	.insn	2, 0x3676
  14:	6934                	.insn	2, 0x6934
  16:	7032                	.insn	2, 0x7032
  18:	5f31                	.insn	2, 0x5f31
  1a:	326d                	.insn	2, 0x326d
  1c:	3070                	.insn	2, 0x3070
  1e:	615f 7032 5f31      	.insn	6, 0x5f317032615f
  24:	3266                	.insn	2, 0x3266
  26:	3270                	.insn	2, 0x3270
  28:	645f 7032 5f32      	.insn	6, 0x5f327032645f
  2e:	30703263          	.insn	4, 0x30703263
  32:	625f 7031 5f30      	.insn	6, 0x5f307031625f
  38:	3176                	.insn	2, 0x3176
  3a:	3070                	.insn	2, 0x3070
  3c:	685f 7031 5f30      	.insn	6, 0x5f307031685f
  42:	697a                	.insn	2, 0x697a
  44:	6d6f6263          	bltu	x30,x22,708 <XLEN+0x6c8>
  48:	7031                	.insn	2, 0x7031
  4a:	5f30                	.insn	2, 0x5f30
  4c:	697a                	.insn	2, 0x697a
  4e:	706f6263          	bltu	x30,x6,752 <XLEN+0x712>
  52:	7031                	.insn	2, 0x7031
  54:	5f30                	.insn	2, 0x5f30
  56:	697a                	.insn	2, 0x697a
  58:	7a6f6263          	bltu	x30,x6,7fc <XLEN+0x7bc>
  5c:	7031                	.insn	2, 0x7031
  5e:	5f30                	.insn	2, 0x5f30
  60:	697a                	.insn	2, 0x697a
  62:	646e6f63          	bltu	x28,x6,6c0 <XLEN+0x680>
  66:	7031                	.insn	2, 0x7031
  68:	5f30                	.insn	2, 0x5f30
  6a:	697a                	.insn	2, 0x697a
  6c:	32727363          	bgeu	x4,x7,392 <XLEN+0x352>
  70:	3070                	.insn	2, 0x3070
  72:	7a5f 6669 6e65      	.insn	6, 0x6e6566697a5f
  78:	32696563          	bltu	x18,x6,3a2 <XLEN+0x362>
  7c:	3070                	.insn	2, 0x3070
  7e:	7a5f 6869 6e69      	.insn	6, 0x6e6968697a5f
  84:	7074                	.insn	2, 0x7074
  86:	7561                	.insn	2, 0x7561
  88:	70326573          	csrrsi	x10,0x703,4
  8c:	5f30                	.insn	2, 0x5f30
  8e:	6d7a                	.insn	2, 0x6d7a
  90:	756d                	.insn	2, 0x756d
  92:	316c                	.insn	2, 0x316c
  94:	3070                	.insn	2, 0x3070
  96:	7a5f 6161 6f6d      	.insn	6, 0x6f6d61617a5f
  9c:	7031                	.insn	2, 0x7031
  9e:	5f30                	.insn	2, 0x5f30
  a0:	617a                	.insn	2, 0x617a
  a2:	726c                	.insn	2, 0x726c
  a4:	70316373          	csrrsi	x6,0x703,2
  a8:	5f30                	.insn	2, 0x5f30
  aa:	617a                	.insn	2, 0x617a
  ac:	31737277          	.insn	4, 0x31737277
  b0:	3070                	.insn	2, 0x3070
  b2:	7a5f 6166 7031      	.insn	6, 0x703161667a5f
  b8:	5f30                	.insn	2, 0x5f30
  ba:	667a                	.insn	2, 0x667a
  bc:	6662                	.insn	2, 0x6662
  be:	696d                	.insn	2, 0x696d
  c0:	316e                	.insn	2, 0x316e
  c2:	3070                	.insn	2, 0x3070
  c4:	7a5f 6866 7031      	.insn	6, 0x703168667a5f
  ca:	5f30                	.insn	2, 0x5f30
  cc:	667a                	.insn	2, 0x667a
  ce:	6d68                	.insn	2, 0x6d68
  d0:	6e69                	.insn	2, 0x6e69
  d2:	7031                	.insn	2, 0x7031
  d4:	5f30                	.insn	2, 0x5f30
  d6:	637a                	.insn	2, 0x637a
  d8:	3161                	.insn	2, 0x3161
  da:	3070                	.insn	2, 0x3070
  dc:	7a5f 6463 7031      	.insn	6, 0x703164637a5f
  e2:	5f30                	.insn	2, 0x5f30
  e4:	627a                	.insn	2, 0x627a
  e6:	3161                	.insn	2, 0x3161
  e8:	3070                	.insn	2, 0x3070
  ea:	7a5f 6262 7031      	.insn	6, 0x703162627a5f
  f0:	5f30                	.insn	2, 0x5f30
  f2:	627a                	.insn	2, 0x627a
  f4:	30703163          	.insn	4, 0x30703163
  f8:	7a5f 6b62 3162      	.insn	6, 0x31626b627a5f
  fe:	3070                	.insn	2, 0x3070
 100:	7a5f 6b62 3163      	.insn	6, 0x31636b627a5f
 106:	3070                	.insn	2, 0x3070
 108:	7a5f 6b62 3178      	.insn	6, 0x31786b627a5f
 10e:	3070                	.insn	2, 0x3070
 110:	7a5f 7362 7031      	.insn	6, 0x703173627a5f
 116:	5f30                	.insn	2, 0x5f30
 118:	6b7a                	.insn	2, 0x6b7a
 11a:	7031                	.insn	2, 0x7031
 11c:	5f30                	.insn	2, 0x5f30
 11e:	6b7a                	.insn	2, 0x6b7a
 120:	316e                	.insn	2, 0x316e
 122:	3070                	.insn	2, 0x3070
 124:	7a5f 6e6b 3164      	.insn	6, 0x31646e6b7a5f
 12a:	3070                	.insn	2, 0x3070
 12c:	7a5f 6e6b 3165      	.insn	6, 0x31656e6b7a5f
 132:	3070                	.insn	2, 0x3070
 134:	7a5f 6e6b 3168      	.insn	6, 0x31686e6b7a5f
 13a:	3070                	.insn	2, 0x3070
 13c:	7a5f 726b 7031      	.insn	6, 0x7031726b7a5f
 142:	5f30                	.insn	2, 0x5f30
 144:	6b7a                	.insn	2, 0x6b7a
 146:	3174                	.insn	2, 0x3174
 148:	3070                	.insn	2, 0x3070
 14a:	7a5f 6276 3162      	.insn	6, 0x316262767a5f
 150:	3070                	.insn	2, 0x3070
 152:	7a5f 6276 3163      	.insn	6, 0x316362767a5f
 158:	3070                	.insn	2, 0x3070
 15a:	7a5f 6576 3233      	.insn	6, 0x323365767a5f
 160:	3166                	.insn	2, 0x3166
 162:	3070                	.insn	2, 0x3070
 164:	7a5f 6576 3233      	.insn	6, 0x323365767a5f
 16a:	3178                	.insn	2, 0x3178
 16c:	3070                	.insn	2, 0x3070
 16e:	7a5f 6576 3436      	.insn	6, 0x343665767a5f
 174:	3164                	.insn	2, 0x3164
 176:	3070                	.insn	2, 0x3070
 178:	7a5f 6576 3436      	.insn	6, 0x343665767a5f
 17e:	3166                	.insn	2, 0x3166
 180:	3070                	.insn	2, 0x3070
 182:	7a5f 6576 3436      	.insn	6, 0x343665767a5f
 188:	3178                	.insn	2, 0x3178
 18a:	3070                	.insn	2, 0x3070
 18c:	7a5f 6676 6662      	.insn	6, 0x666266767a5f
 192:	696d                	.insn	2, 0x696d
 194:	316e                	.insn	2, 0x316e
 196:	3070                	.insn	2, 0x3070
 198:	7a5f 6676 6662      	.insn	6, 0x666266767a5f
 19e:	31616d77          	.insn	4, 0x31616d77
 1a2:	3070                	.insn	2, 0x3070
 1a4:	7a5f 6b76 3162      	.insn	6, 0x31626b767a5f
 1aa:	3070                	.insn	2, 0x3070
 1ac:	7a5f 6b76 3167      	.insn	6, 0x31676b767a5f
 1b2:	3070                	.insn	2, 0x3070
 1b4:	7a5f 6b76 316e      	.insn	6, 0x316e6b767a5f
 1ba:	3070                	.insn	2, 0x3070
 1bc:	7a5f 6b76 636e      	.insn	6, 0x636e6b767a5f
 1c2:	7031                	.insn	2, 0x7031
 1c4:	5f30                	.insn	2, 0x5f30
 1c6:	767a                	.insn	2, 0x767a
 1c8:	64656e6b          	.insn	4, 0x64656e6b
 1cc:	7031                	.insn	2, 0x7031
 1ce:	5f30                	.insn	2, 0x5f30
 1d0:	767a                	.insn	2, 0x767a
 1d2:	31676e6b          	.insn	4, 0x31676e6b
 1d6:	3070                	.insn	2, 0x3070
 1d8:	7a5f 6b76 686e      	.insn	6, 0x686e6b767a5f
 1de:	3162                	.insn	2, 0x3162
 1e0:	3070                	.insn	2, 0x3070
 1e2:	7a5f 6b76 3174      	.insn	6, 0x31746b767a5f
 1e8:	3070                	.insn	2, 0x3070
 1ea:	7a5f 6c76 3231      	.insn	6, 0x32316c767a5f
 1f0:	6238                	.insn	2, 0x6238
 1f2:	7031                	.insn	2, 0x7031
 1f4:	5f30                	.insn	2, 0x5f30
 1f6:	767a                	.insn	2, 0x767a
 1f8:	336c                	.insn	2, 0x336c
 1fa:	6232                	.insn	2, 0x6232
 1fc:	7031                	.insn	2, 0x7031
 1fe:	5f30                	.insn	2, 0x5f30
 200:	767a                	.insn	2, 0x767a
 202:	366c                	.insn	2, 0x366c
 204:	6234                	.insn	2, 0x6234
 206:	7031                	.insn	2, 0x7031
 208:	5f30                	.insn	2, 0x5f30
 20a:	6e697673          	csrrci	x12,0x6e6,18
 20e:	6176                	.insn	2, 0x6176
 210:	316c                	.insn	2, 0x316c
 212:	3070                	.insn	2, 0x3070
 214:	0800                	.insn	2, 0x0800
 216:	0a01                	.insn	2, 0x0a01
 218:	0b                	.byte	0x0b
