
/home/abdullah/RiescueC/riescue/10x_R/zjpm/testsuite/zjpm/super_sv39/tp_zjpm_1:     file format elf64-littleriscv


Disassembly of section .runtime:

0000000080000000 <_start>:
    80000000:	00000093          	li	x1,0
    80000004:	00000113          	li	x2,0
    80000008:	00000193          	li	x3,0
    8000000c:	00000213          	li	x4,0
    80000010:	00000293          	li	x5,0
    80000014:	00000313          	li	x6,0
    80000018:	00000393          	li	x7,0
    8000001c:	00000413          	li	x8,0
    80000020:	00000493          	li	x9,0
    80000024:	00000513          	li	x10,0
    80000028:	00000593          	li	x11,0
    8000002c:	00000613          	li	x12,0
    80000030:	00000693          	li	x13,0
    80000034:	00000713          	li	x14,0
    80000038:	00000793          	li	x15,0
    8000003c:	00000813          	li	x16,0
    80000040:	00000893          	li	x17,0
    80000044:	00000913          	li	x18,0
    80000048:	00000993          	li	x19,0
    8000004c:	00000a13          	li	x20,0
    80000050:	00000a93          	li	x21,0
    80000054:	00000b13          	li	x22,0
    80000058:	00000b93          	li	x23,0
    8000005c:	00000c13          	li	x24,0
    80000060:	00000c93          	li	x25,0
    80000064:	00000d13          	li	x26,0
    80000068:	00000d93          	li	x27,0
    8000006c:	00000e13          	li	x28,0
    80000070:	00000e93          	li	x29,0
    80000074:	00000f13          	li	x30,0
    80000078:	00000f93          	li	x31,0

000000008000007c <loader__load_panic_address>:
    8000007c:	00001297          	auipc	x5,0x1
    80000080:	c0028293          	addi	x5,x5,-1024 # 80000c7c <eot__failed>
    80000084:	30529073          	csrw	mtvec,x5

0000000080000088 <loader__initialize_runtime>:
    80000088:	0010029b          	addiw	x5,x0,1
    8000008c:	03229293          	slli	x5,x5,0x32
    80000090:	20128293          	addi	x5,x5,513
    80000094:	00c29293          	slli	x5,x5,0xc
    80000098:	1ad28293          	addi	x5,x5,429
    8000009c:	3012a2f3          	csrrs	x5,misa,x5

00000000800000a0 <loader__set_mstatus>:
    800000a0:	000422b7          	lui	x5,0x42
    800000a4:	20a2829b          	addiw	x5,x5,522 # 4220a <_all_interrupts+0x3f760>
    800000a8:	3002a2f3          	csrrs	x5,mstatus,x5

00000000800000ac <loader__init_fp_registers>:
    800000ac:	000e82b7          	lui	x5,0xe8
    800000b0:	1bd2829b          	addiw	x5,x5,445 # e81bd <mem2+0x441bd>
    800000b4:	00d29293          	slli	x5,x5,0xd
    800000b8:	09828293          	addi	x5,x5,152
    800000bc:	0002b007          	fld	f0,0(x5)
    800000c0:	0002b087          	fld	f1,0(x5)
    800000c4:	0002b107          	fld	f2,0(x5)
    800000c8:	0002b187          	fld	f3,0(x5)
    800000cc:	0002b207          	fld	f4,0(x5)
    800000d0:	0002b287          	fld	f5,0(x5)
    800000d4:	0002b307          	fld	f6,0(x5)
    800000d8:	0002b387          	fld	f7,0(x5)
    800000dc:	0002b407          	fld	f8,0(x5)
    800000e0:	0002b487          	fld	f9,0(x5)
    800000e4:	0002b507          	fld	f10,0(x5)
    800000e8:	0002b587          	fld	f11,0(x5)
    800000ec:	0002b607          	fld	f12,0(x5)
    800000f0:	0002b687          	fld	f13,0(x5)
    800000f4:	0002b707          	fld	f14,0(x5)
    800000f8:	0002b787          	fld	f15,0(x5)
    800000fc:	0002b807          	fld	f16,0(x5)
    80000100:	0002b887          	fld	f17,0(x5)
    80000104:	0002b907          	fld	f18,0(x5)
    80000108:	0002b987          	fld	f19,0(x5)
    8000010c:	0002ba07          	fld	f20,0(x5)
    80000110:	0002ba87          	fld	f21,0(x5)
    80000114:	0002bb07          	fld	f22,0(x5)
    80000118:	0002bb87          	fld	f23,0(x5)
    8000011c:	0002bc07          	fld	f24,0(x5)
    80000120:	0002bc87          	fld	f25,0(x5)
    80000124:	0002bd07          	fld	f26,0(x5)
    80000128:	0002bd87          	fld	f27,0(x5)
    8000012c:	0002be07          	fld	f28,0(x5)
    80000130:	0002be87          	fld	f29,0(x5)
    80000134:	0002bf07          	fld	f30,0(x5)
    80000138:	0002bf87          	fld	f31,0(x5)

000000008000013c <loader__init_vector_registers>:
    8000013c:	00000213          	li	x4,0
    80000140:	00400293          	li	x5,4
    80000144:	0d800313          	li	x6,216
    80000148:	8062f257          	vsetvl	x4,x5,x6
    8000014c:	5e004057          	vmv.v.x	v0,x0
    80000150:	5e0040d7          	vmv.v.x	v1,x0
    80000154:	5e004157          	vmv.v.x	v2,x0
    80000158:	5e0041d7          	vmv.v.x	v3,x0
    8000015c:	5e004257          	vmv.v.x	v4,x0
    80000160:	5e0042d7          	vmv.v.x	v5,x0
    80000164:	5e004357          	vmv.v.x	v6,x0
    80000168:	5e0043d7          	vmv.v.x	v7,x0
    8000016c:	5e004457          	vmv.v.x	v8,x0
    80000170:	5e0044d7          	vmv.v.x	v9,x0
    80000174:	5e004557          	vmv.v.x	v10,x0
    80000178:	5e0045d7          	vmv.v.x	v11,x0
    8000017c:	5e004657          	vmv.v.x	v12,x0
    80000180:	5e0046d7          	vmv.v.x	v13,x0
    80000184:	5e004757          	vmv.v.x	v14,x0
    80000188:	5e0047d7          	vmv.v.x	v15,x0
    8000018c:	5e004857          	vmv.v.x	v16,x0
    80000190:	5e0048d7          	vmv.v.x	v17,x0
    80000194:	5e004957          	vmv.v.x	v18,x0
    80000198:	5e0049d7          	vmv.v.x	v19,x0
    8000019c:	5e004a57          	vmv.v.x	v20,x0
    800001a0:	5e004ad7          	vmv.v.x	v21,x0
    800001a4:	5e004b57          	vmv.v.x	v22,x0
    800001a8:	5e004bd7          	vmv.v.x	v23,x0
    800001ac:	5e004c57          	vmv.v.x	v24,x0
    800001b0:	5e004cd7          	vmv.v.x	v25,x0
    800001b4:	5e004d57          	vmv.v.x	v26,x0
    800001b8:	5e004dd7          	vmv.v.x	v27,x0
    800001bc:	5e004e57          	vmv.v.x	v28,x0
    800001c0:	5e004ed7          	vmv.v.x	v29,x0
    800001c4:	5e004f57          	vmv.v.x	v30,x0
    800001c8:	5e004fd7          	vmv.v.x	v31,x0
    800001cc:	00016237          	lui	x4,0x16
    800001d0:	8112021b          	addiw	x4,x4,-2031 # 15811 <_all_interrupts+0x12d67>
    800001d4:	00f21213          	slli	x4,x4,0xf
    800001d8:	34021073          	csrw	mscratch,x4
    800001dc:	00364237          	lui	x4,0x364
    800001e0:	ddb2021b          	addiw	x4,x4,-549 # 363ddb <mem1+0x12dddb>
    800001e4:	00d21213          	slli	x4,x4,0xd
    800001e8:	14021073          	csrw	sscratch,x4
    800001ec:	00016237          	lui	x4,0x16
    800001f0:	8112021b          	addiw	x4,x4,-2031 # 15811 <_all_interrupts+0x12d67>
    800001f4:	00f21213          	slli	x4,x4,0xf

00000000800001f8 <loader__setup_medeleg>:
    800001f8:	0035c2b7          	lui	x5,0x35c
    800001fc:	f992829b          	addiw	x5,x5,-103 # 35bf99 <mem1+0x125f99>
    80000200:	00d29293          	slli	x5,x5,0xd
    80000204:	5b928293          	addi	x5,x5,1465
    80000208:	00d29293          	slli	x5,x5,0xd
    8000020c:	7a728293          	addi	x5,x5,1959
    80000210:	00e29293          	slli	x5,x5,0xe
    80000214:	01628293          	addi	x5,x5,22
    80000218:	30229073          	csrw	medeleg,x5

000000008000021c <loader__setup_mideleg>:
    8000021c:	2a800293          	li	x5,680
    80000220:	30329073          	csrw	mideleg,x5

0000000080000224 <loader__setup_tvec>:
    80000224:	00000297          	auipc	x5,0x0
    80000228:	50828293          	addi	x5,x5,1288 # 8000072c <trap_handler_m__trap_entry>
    8000022c:	30529073          	csrw	mtvec,x5
    80000230:	00010297          	auipc	x5,0x10
    80000234:	e4828293          	addi	x5,x5,-440 # 80010078 <trap_handler_s__trap_entry>
    80000238:	10529073          	csrw	stvec,x5

000000008000023c <loader__enable_paging>:
    8000023c:	fc0070b7          	lui	x1,0xfc007
    80000240:	7010809b          	addiw	x1,x1,1793 # fffffffffc007701 <SID_22_pm_disabled_mxr_set_stack+0xce6efc701>
    80000244:	00c09093          	slli	x1,x1,0xc
    80000248:	a2508093          	addi	x1,x1,-1499
    8000024c:	00d09093          	slli	x1,x1,0xd
    80000250:	c4d08093          	addi	x1,x1,-947
    80000254:	00c09093          	slli	x1,x1,0xc
    80000258:	b8208093          	addi	x1,x1,-1150
    8000025c:	18009073          	csrw	satp,x1

0000000080000260 <loader__done>:
    80000260:	2450006f          	j	80000ca4 <scheduler__init>

0000000080000264 <loader__panic>:
    80000264:	2190006f          	j	80000c7c <eot__failed>

0000000080000268 <syscalls__syscall_check_schedule_next_test>:
    80000268:	00f0029b          	addiw	x5,x0,15
    8000026c:	01c29293          	slli	x5,x5,0x1c
    80000270:	00128293          	addi	x5,x5,1
    80000274:	01f29a63          	bne	x5,x31,80000288 <syscalls__syscall_check_fail_test>
    80000278:	00000317          	auipc	x6,0x0
    8000027c:	4b430313          	addi	x6,x6,1204 # 8000072c <trap_handler_m__trap_entry>
    80000280:	30531073          	csrw	mtvec,x6
    80000284:	6ec0006f          	j	80000970 <enter_scheduler>

0000000080000288 <syscalls__syscall_check_fail_test>:
    80000288:	00f0029b          	addiw	x5,x0,15
    8000028c:	01c29293          	slli	x5,x5,0x1c
    80000290:	00228293          	addi	x5,x5,2
    80000294:	01f29a63          	bne	x5,x31,800002a8 <syscalls__syscall_check_end_test_without_failure>
    80000298:	00000317          	auipc	x6,0x0
    8000029c:	49430313          	addi	x6,x6,1172 # 8000072c <trap_handler_m__trap_entry>
    800002a0:	30531073          	csrw	mtvec,x6
    800002a4:	6fc0006f          	j	800009a0 <test_failed>

00000000800002a8 <syscalls__syscall_check_end_test_without_failure>:
    800002a8:	00f0029b          	addiw	x5,x0,15
    800002ac:	01c29293          	slli	x5,x5,0x1c
    800002b0:	00328293          	addi	x5,x5,3
    800002b4:	01f29a63          	bne	x5,x31,800002c8 <syscalls__syscall_check_switch_machine_mode>
    800002b8:	00000317          	auipc	x6,0x0
    800002bc:	47430313          	addi	x6,x6,1140 # 8000072c <trap_handler_m__trap_entry>
    800002c0:	30531073          	csrw	mtvec,x6
    800002c4:	6e80006f          	j	800009ac <os_end_test>

00000000800002c8 <syscalls__syscall_check_switch_machine_mode>:
    800002c8:	000f02b7          	lui	x5,0xf0
    800002cc:	0012829b          	addiw	x5,x5,1 # f0001 <mem2+0x4c001>
    800002d0:	00c29293          	slli	x5,x5,0xc
    800002d4:	00128293          	addi	x5,x5,1
    800002d8:	0a5f8463          	beq	x31,x5,80000380 <syscalls__os_fn_f0001001>

00000000800002dc <syscalls__syscall_check_switch_super_mode>:
    800002dc:	000f02b7          	lui	x5,0xf0
    800002e0:	0012829b          	addiw	x5,x5,1 # f0001 <mem2+0x4c001>
    800002e4:	00c29293          	slli	x5,x5,0xc
    800002e8:	00228293          	addi	x5,x5,2
    800002ec:	0c5f8463          	beq	x31,x5,800003b4 <syscalls__os_fn_f0001002>

00000000800002f0 <syscalls__syscall_check_switch_user_mode>:
    800002f0:	000f02b7          	lui	x5,0xf0
    800002f4:	0012829b          	addiw	x5,x5,1 # f0001 <mem2+0x4c001>
    800002f8:	00c29293          	slli	x5,x5,0xc
    800002fc:	00328293          	addi	x5,x5,3
    80000300:	0c5f8263          	beq	x31,x5,800003c4 <syscalls__os_fn_f0001003>

0000000080000304 <syscalls__syscall_check_switch_test_mode>:
    80000304:	000f02b7          	lui	x5,0xf0
    80000308:	0012829b          	addiw	x5,x5,1 # f0001 <mem2+0x4c001>
    8000030c:	00c29293          	slli	x5,x5,0xc
    80000310:	00428293          	addi	x5,x5,4
    80000314:	0e5f8063          	beq	x31,x5,800003f4 <syscalls__os_fn_f0001004>

0000000080000318 <syscalls__syscall_machine_csr_rw>:
    80000318:	000f02b7          	lui	x5,0xf0
    8000031c:	0012829b          	addiw	x5,x5,1 # f0001 <mem2+0x4c001>
    80000320:	00c29293          	slli	x5,x5,0xc
    80000324:	00528293          	addi	x5,x5,5
    80000328:	0e5f8c63          	beq	x31,x5,80000420 <syscalls__os_fn_f0001005>

000000008000032c <syscalls__syscall_supervisor_csr_rw>:
    8000032c:	000f02b7          	lui	x5,0xf0
    80000330:	0012829b          	addiw	x5,x5,1 # f0001 <mem2+0x4c001>
    80000334:	00c29293          	slli	x5,x5,0xc
    80000338:	00628293          	addi	x5,x5,6
    8000033c:	105f8c63          	beq	x31,x5,80000454 <syscalls__os_fn_f0001006>

0000000080000340 <syscalls__syscall_machine_pte_read>:
    80000340:	000f02b7          	lui	x5,0xf0
    80000344:	0012829b          	addiw	x5,x5,1 # f0001 <mem2+0x4c001>
    80000348:	00c29293          	slli	x5,x5,0xc
    8000034c:	00728293          	addi	x5,x5,7
    80000350:	105f8a63          	beq	x31,x5,80000464 <syscalls__os_fn_f0001007>

0000000080000354 <syscalls__syscall_machine_pte_write>:
    80000354:	000f02b7          	lui	x5,0xf0
    80000358:	0012829b          	addiw	x5,x5,1 # f0001 <mem2+0x4c001>
    8000035c:	00c29293          	slli	x5,x5,0xc
    80000360:	00828293          	addi	x5,x5,8
    80000364:	205f8a63          	beq	x31,x5,80000578 <syscalls__os_fn_f0001008>

0000000080000368 <syscalls__syscall_check_get_hart_context>:
    80000368:	000782b7          	lui	x5,0x78
    8000036c:	0012829b          	addiw	x5,x5,1 # 78001 <_all_interrupts+0x75557>
    80000370:	00d29293          	slli	x5,x5,0xd
    80000374:	00128293          	addi	x5,x5,1
    80000378:	305f8a63          	beq	x31,x5,8000068c <syscalls__os_get_hart_context>
    8000037c:	50c0006f          	j	80000888 <trap_handler_m__check_exception_label>

0000000080000380 <syscalls__os_fn_f0001001>:
    80000380:	000022b7          	lui	x5,0x2
    80000384:	8002829b          	addiw	x5,x5,-2048 # 1800 <FS_RANDOMIZATION+0x179c>
    80000388:	3002b073          	csrc	mstatus,x5
    8000038c:	000022b7          	lui	x5,0x2
    80000390:	8002829b          	addiw	x5,x5,-2048 # 1800 <FS_RANDOMIZATION+0x179c>
    80000394:	3002a073          	csrs	mstatus,x5
    80000398:	0010029b          	addiw	x5,x0,1
    8000039c:	02729293          	slli	x5,x5,0x27
    800003a0:	3002b073          	csrc	mstatus,x5
    800003a4:	000202b7          	lui	x5,0x20
    800003a8:	0652829b          	addiw	x5,x5,101 # 20065 <_all_interrupts+0x1d5bb>
    800003ac:	00e29293          	slli	x5,x5,0xe
    800003b0:	2ec0006f          	j	8000069c <syscalls__ret_from_os_fn>

00000000800003b4 <syscalls__os_fn_f0001002>:
    800003b4:	000202b7          	lui	x5,0x20
    800003b8:	0252829b          	addiw	x5,x5,37 # 20025 <_all_interrupts+0x1d57b>
    800003bc:	00e29293          	slli	x5,x5,0xe
    800003c0:	2dc0006f          	j	8000069c <syscalls__ret_from_os_fn>

00000000800003c4 <syscalls__os_fn_f0001003>:
    800003c4:	000022b7          	lui	x5,0x2
    800003c8:	8002829b          	addiw	x5,x5,-2048 # 1800 <FS_RANDOMIZATION+0x179c>
    800003cc:	3002b073          	csrc	mstatus,x5
    800003d0:	00000293          	li	x5,0
    800003d4:	3002a073          	csrs	mstatus,x5
    800003d8:	0010029b          	addiw	x5,x0,1
    800003dc:	02729293          	slli	x5,x5,0x27
    800003e0:	3002b073          	csrc	mstatus,x5
    800003e4:	000202b7          	lui	x5,0x20
    800003e8:	0452829b          	addiw	x5,x5,69 # 20045 <_all_interrupts+0x1d59b>
    800003ec:	00e29293          	slli	x5,x5,0xe
    800003f0:	2ac0006f          	j	8000069c <syscalls__ret_from_os_fn>

00000000800003f4 <syscalls__os_fn_f0001004>:
    800003f4:	000022b7          	lui	x5,0x2
    800003f8:	8002829b          	addiw	x5,x5,-2048 # 1800 <FS_RANDOMIZATION+0x179c>
    800003fc:	3002b073          	csrc	mstatus,x5
    80000400:	000012b7          	lui	x5,0x1
    80000404:	8002829b          	addiw	x5,x5,-2048 # 800 <FS_RANDOMIZATION+0x79c>
    80000408:	3002a073          	csrs	mstatus,x5
    8000040c:	0010029b          	addiw	x5,x0,1
    80000410:	02729293          	slli	x5,x5,0x27
    80000414:	3002b073          	csrc	mstatus,x5
    80000418:	17823283          	ld	x5,376(x4) # 178 <FS_RANDOMIZATION+0x114>
    8000041c:	2800006f          	j	8000069c <syscalls__ret_from_os_fn>

0000000080000420 <syscalls__os_fn_f0001005>:
    80000420:	000022b7          	lui	x5,0x2
    80000424:	8002829b          	addiw	x5,x5,-2048 # 1800 <FS_RANDOMIZATION+0x179c>
    80000428:	3002b073          	csrc	mstatus,x5
    8000042c:	000022b7          	lui	x5,0x2
    80000430:	8002829b          	addiw	x5,x5,-2048 # 1800 <FS_RANDOMIZATION+0x179c>
    80000434:	3002a073          	csrs	mstatus,x5
    80000438:	0010029b          	addiw	x5,x0,1
    8000043c:	02729293          	slli	x5,x5,0x27
    80000440:	3002b073          	csrc	mstatus,x5
    80000444:	000202b7          	lui	x5,0x20
    80000448:	0852829b          	addiw	x5,x5,133 # 20085 <_all_interrupts+0x1d5db>
    8000044c:	00e29293          	slli	x5,x5,0xe
    80000450:	24c0006f          	j	8000069c <syscalls__ret_from_os_fn>

0000000080000454 <syscalls__os_fn_f0001006>:
    80000454:	000802b7          	lui	x5,0x80
    80000458:	2152829b          	addiw	x5,x5,533 # 80215 <num_hard_fails+0x145>
    8000045c:	00c29293          	slli	x5,x5,0xc
    80000460:	23c0006f          	j	8000069c <syscalls__ret_from_os_fn>

0000000080000464 <syscalls__os_fn_f0001007>:
    80000464:	000e8fb7          	lui	x31,0xe8
    80000468:	1bdf8f9b          	addiw	x31,x31,445 # e81bd <mem2+0x441bd>
    8000046c:	00df9f93          	slli	x31,x31,0xd
    80000470:	0b0f8f93          	addi	x31,x31,176
    80000474:	000fbf83          	ld	x31,0(x31)
    80000478:	000e82b7          	lui	x5,0xe8
    8000047c:	1bd2829b          	addiw	x5,x5,445 # e81bd <mem2+0x441bd>
    80000480:	00d29293          	slli	x5,x5,0xd
    80000484:	0b828293          	addi	x5,x5,184
    80000488:	0002b283          	ld	x5,0(x5)
    8000048c:	000e8e37          	lui	x28,0xe8
    80000490:	1bde0e1b          	addiw	x28,x28,445 # e81bd <mem2+0x441bd>
    80000494:	00de1e13          	slli	x28,x28,0xd
    80000498:	0c0e0e13          	addi	x28,x28,192
    8000049c:	000e3e03          	ld	x28,0(x28)

00000000800004a0 <syscalls__pte_walk_check_glevel_without_gstage_read>:
    800004a0:	fff00f93          	li	x31,-1
    800004a4:	0dfe1863          	bne	x28,x31,80000574 <syscalls__pte_walk_fail_read>
    800004a8:	18002373          	csrr	x6,satp
    800004ac:	03c35e93          	srli	x29,x6,0x3c
    800004b0:	01431313          	slli	x6,x6,0x14
    800004b4:	01435313          	srli	x6,x6,0x14
    800004b8:	00c31313          	slli	x6,x6,0xc
    800004bc:	ff8e8e93          	addi	x29,x29,-8
    800004c0:	003e9f13          	slli	x30,x29,0x3
    800004c4:	01df0eb3          	add	x29,x30,x29
    800004c8:	01ee8e93          	addi	x29,x29,30
    800004cc:	00000f13          	li	x30,0

00000000800004d0 <syscalls__pte_walk_loop_read>:
    800004d0:	000e8fb7          	lui	x31,0xe8
    800004d4:	1bdf8f9b          	addiw	x31,x31,445 # e81bd <mem2+0x441bd>
    800004d8:	00df9f93          	slli	x31,x31,0xd
    800004dc:	0b0f8f93          	addi	x31,x31,176
    800004e0:	000fbf83          	ld	x31,0(x31)
    800004e4:	01dfdfb3          	srl	x31,x31,x29
    800004e8:	1fffff93          	andi	x31,x31,511
    800004ec:	003f9f93          	slli	x31,x31,0x3
    800004f0:	01f30333          	add	x6,x6,x31
    800004f4:	005f0e63          	beq	x30,x5,80000510 <syscalls__pte_walk_done_read>
    800004f8:	00033f83          	ld	x31,0(x6)
    800004fc:	00afdf93          	srli	x31,x31,0xa
    80000500:	00cf9313          	slli	x6,x31,0xc
    80000504:	001f0f13          	addi	x30,x30,1
    80000508:	ff7e8e93          	addi	x29,x29,-9
    8000050c:	fc5ff06f          	j	800004d0 <syscalls__pte_walk_loop_read>

0000000080000510 <syscalls__pte_walk_done_read>:
    80000510:	fff00f93          	li	x31,-1
    80000514:	05fe0663          	beq	x28,x31,80000560 <syscalls__pte_walk_final_read>

0000000080000518 <syscalls__pte_walk_gstage_read>:
    80000518:	000e8fb7          	lui	x31,0xe8
    8000051c:	1bdf8f9b          	addiw	x31,x31,445 # e81bd <mem2+0x441bd>
    80000520:	00df9f93          	slli	x31,x31,0xd
    80000524:	0b0f8f93          	addi	x31,x31,176
    80000528:	006fb023          	sd	x6,0(x31)
    8000052c:	000e0293          	mv	x5,x28
    80000530:	fff00e13          	li	x28,-1
    80000534:	68002373          	csrr	x6,hgatp
    80000538:	03c35e93          	srli	x29,x6,0x3c
    8000053c:	01431313          	slli	x6,x6,0x14
    80000540:	01435313          	srli	x6,x6,0x14
    80000544:	00c31313          	slli	x6,x6,0xc
    80000548:	ff8e8e93          	addi	x29,x29,-8
    8000054c:	003e9f13          	slli	x30,x29,0x3
    80000550:	01df0eb3          	add	x29,x30,x29
    80000554:	01ee8e93          	addi	x29,x29,30
    80000558:	00000f13          	li	x30,0
    8000055c:	f75ff06f          	j	800004d0 <syscalls__pte_walk_loop_read>

0000000080000560 <syscalls__pte_walk_final_read>:
    80000560:	00033383          	ld	x7,0(x6)
    80000564:	341022f3          	csrr	x5,mepc
    80000568:	00428293          	addi	x5,x5,4
    8000056c:	16523c23          	sd	x5,376(x4) # 178 <FS_RANDOMIZATION+0x114>
    80000570:	e85ff06f          	j	800003f4 <syscalls__os_fn_f0001004>

0000000080000574 <syscalls__pte_walk_fail_read>:
    80000574:	42c0006f          	j	800009a0 <test_failed>

0000000080000578 <syscalls__os_fn_f0001008>:
    80000578:	000e8fb7          	lui	x31,0xe8
    8000057c:	1bdf8f9b          	addiw	x31,x31,445 # e81bd <mem2+0x441bd>
    80000580:	00df9f93          	slli	x31,x31,0xd
    80000584:	0b0f8f93          	addi	x31,x31,176
    80000588:	000fbf83          	ld	x31,0(x31)
    8000058c:	000e82b7          	lui	x5,0xe8
    80000590:	1bd2829b          	addiw	x5,x5,445 # e81bd <mem2+0x441bd>
    80000594:	00d29293          	slli	x5,x5,0xd
    80000598:	0b828293          	addi	x5,x5,184
    8000059c:	0002b283          	ld	x5,0(x5)
    800005a0:	000e8e37          	lui	x28,0xe8
    800005a4:	1bde0e1b          	addiw	x28,x28,445 # e81bd <mem2+0x441bd>
    800005a8:	00de1e13          	slli	x28,x28,0xd
    800005ac:	0c0e0e13          	addi	x28,x28,192
    800005b0:	000e3e03          	ld	x28,0(x28)

00000000800005b4 <syscalls__pte_walk_check_glevel_without_gstage_write>:
    800005b4:	fff00f93          	li	x31,-1
    800005b8:	0dfe1863          	bne	x28,x31,80000688 <syscalls__pte_walk_fail_write>
    800005bc:	18002373          	csrr	x6,satp
    800005c0:	03c35e93          	srli	x29,x6,0x3c
    800005c4:	01431313          	slli	x6,x6,0x14
    800005c8:	01435313          	srli	x6,x6,0x14
    800005cc:	00c31313          	slli	x6,x6,0xc
    800005d0:	ff8e8e93          	addi	x29,x29,-8
    800005d4:	003e9f13          	slli	x30,x29,0x3
    800005d8:	01df0eb3          	add	x29,x30,x29
    800005dc:	01ee8e93          	addi	x29,x29,30
    800005e0:	00000f13          	li	x30,0

00000000800005e4 <syscalls__pte_walk_loop_write>:
    800005e4:	000e8fb7          	lui	x31,0xe8
    800005e8:	1bdf8f9b          	addiw	x31,x31,445 # e81bd <mem2+0x441bd>
    800005ec:	00df9f93          	slli	x31,x31,0xd
    800005f0:	0b0f8f93          	addi	x31,x31,176
    800005f4:	000fbf83          	ld	x31,0(x31)
    800005f8:	01dfdfb3          	srl	x31,x31,x29
    800005fc:	1fffff93          	andi	x31,x31,511
    80000600:	003f9f93          	slli	x31,x31,0x3
    80000604:	01f30333          	add	x6,x6,x31
    80000608:	005f0e63          	beq	x30,x5,80000624 <syscalls__pte_walk_done_write>
    8000060c:	00033f83          	ld	x31,0(x6)
    80000610:	00afdf93          	srli	x31,x31,0xa
    80000614:	00cf9313          	slli	x6,x31,0xc
    80000618:	001f0f13          	addi	x30,x30,1
    8000061c:	ff7e8e93          	addi	x29,x29,-9
    80000620:	fc5ff06f          	j	800005e4 <syscalls__pte_walk_loop_write>

0000000080000624 <syscalls__pte_walk_done_write>:
    80000624:	fff00f93          	li	x31,-1
    80000628:	05fe0663          	beq	x28,x31,80000674 <syscalls__pte_walk_final_write>

000000008000062c <syscalls__pte_walk_gstage_write>:
    8000062c:	000e8fb7          	lui	x31,0xe8
    80000630:	1bdf8f9b          	addiw	x31,x31,445 # e81bd <mem2+0x441bd>
    80000634:	00df9f93          	slli	x31,x31,0xd
    80000638:	0b0f8f93          	addi	x31,x31,176
    8000063c:	006fb023          	sd	x6,0(x31)
    80000640:	000e0293          	mv	x5,x28
    80000644:	fff00e13          	li	x28,-1
    80000648:	68002373          	csrr	x6,hgatp
    8000064c:	03c35e93          	srli	x29,x6,0x3c
    80000650:	01431313          	slli	x6,x6,0x14
    80000654:	01435313          	srli	x6,x6,0x14
    80000658:	00c31313          	slli	x6,x6,0xc
    8000065c:	ff8e8e93          	addi	x29,x29,-8
    80000660:	003e9f13          	slli	x30,x29,0x3
    80000664:	01df0eb3          	add	x29,x30,x29
    80000668:	01ee8e93          	addi	x29,x29,30
    8000066c:	00000f13          	li	x30,0
    80000670:	f75ff06f          	j	800005e4 <syscalls__pte_walk_loop_write>

0000000080000674 <syscalls__pte_walk_final_write>:
    80000674:	00733023          	sd	x7,0(x6)
    80000678:	341022f3          	csrr	x5,mepc
    8000067c:	00428293          	addi	x5,x5,4
    80000680:	16523c23          	sd	x5,376(x4) # 178 <FS_RANDOMIZATION+0x114>
    80000684:	d71ff06f          	j	800003f4 <syscalls__os_fn_f0001004>

0000000080000688 <syscalls__pte_walk_fail_write>:
    80000688:	3180006f          	j	800009a0 <test_failed>

000000008000068c <syscalls__os_get_hart_context>:
    8000068c:	14002573          	csrr	x10,sscratch
    80000690:	341022f3          	csrr	x5,mepc
    80000694:	00428293          	addi	x5,x5,4
    80000698:	0040006f          	j	8000069c <syscalls__ret_from_os_fn>

000000008000069c <syscalls__ret_from_os_fn>:
    8000069c:	34102373          	csrr	x6,mepc
    800006a0:	00430313          	addi	x6,x6,4
    800006a4:	16623c23          	sd	x6,376(x4) # 178 <FS_RANDOMIZATION+0x114>
    800006a8:	34129073          	csrw	mepc,x5
    800006ac:	fff00f93          	li	x31,-1
    800006b0:	2a40006f          	j	80000954 <trap_handler_m__skip_xepc_write>

00000000800006b4 <trap_handler_m__invalid_interrupt>:
    800006b4:	2ec0006f          	j	800009a0 <test_failed>

00000000800006b8 <trap_handler_m__clear_all_interrupts>:
    800006b8:	34401073          	csrw	mip,x0
    800006bc:	30200073          	mret

00000000800006c0 <trap_handler_m___CLEAR_SSI>:
    800006c0:	00200293          	li	x5,2
    800006c4:	3442b073          	csrc	mip,x5
    800006c8:	30200073          	mret

00000000800006cc <trap_handler_m___CLEAR_MSI>:
    800006cc:	00800293          	li	x5,8
    800006d0:	3442b073          	csrc	mip,x5
    800006d4:	30200073          	mret

00000000800006d8 <trap_handler_m___CLEAR_STI>:
    800006d8:	02000293          	li	x5,32
    800006dc:	3442b073          	csrc	mip,x5
    800006e0:	30200073          	mret

00000000800006e4 <trap_handler_m___CLEAR_MTI>:
    800006e4:	08000293          	li	x5,128
    800006e8:	3442b073          	csrc	mip,x5
    800006ec:	30200073          	mret

00000000800006f0 <trap_handler_m___CLEAR_SEI>:
    800006f0:	20000293          	li	x5,512
    800006f4:	3442b073          	csrc	mip,x5
    800006f8:	30200073          	mret

00000000800006fc <trap_handler_m___CLEAR_MEI>:
    800006fc:	000012b7          	lui	x5,0x1
    80000700:	8002829b          	addiw	x5,x5,-2048 # 800 <FS_RANDOMIZATION+0x79c>
    80000704:	3442b073          	csrc	mip,x5
    80000708:	30200073          	mret

000000008000070c <trap_handler_m___CLEAR_COI>:
    8000070c:	000022b7          	lui	x5,0x2
    80000710:	3442b073          	csrc	mip,x5
    80000714:	30200073          	mret

0000000080000718 <trap_handler_m__clear_highest_priority_interrupt>:
    80000718:	344022f3          	csrr	x5,mip
    8000071c:	40500333          	neg	x6,x5
    80000720:	0062f2b3          	and	x5,x5,x6
    80000724:	3442b073          	csrc	mip,x5
    80000728:	30200073          	mret

000000008000072c <trap_handler_m__trap_entry>:
    8000072c:	0fc0006f          	j	80000828 <trap_handler_m__trap_handler>

0000000080000730 <trap_handler_m__interrupt_vector_table>:
    80000730:	f91ff06f          	j	800006c0 <trap_handler_m___CLEAR_SSI>
    80000734:	f81ff06f          	j	800006b4 <trap_handler_m__invalid_interrupt>
    80000738:	f95ff06f          	j	800006cc <trap_handler_m___CLEAR_MSI>
    8000073c:	f79ff06f          	j	800006b4 <trap_handler_m__invalid_interrupt>
    80000740:	f99ff06f          	j	800006d8 <trap_handler_m___CLEAR_STI>
    80000744:	f71ff06f          	j	800006b4 <trap_handler_m__invalid_interrupt>
    80000748:	f9dff06f          	j	800006e4 <trap_handler_m___CLEAR_MTI>
    8000074c:	f69ff06f          	j	800006b4 <trap_handler_m__invalid_interrupt>
    80000750:	fa1ff06f          	j	800006f0 <trap_handler_m___CLEAR_SEI>
    80000754:	f61ff06f          	j	800006b4 <trap_handler_m__invalid_interrupt>
    80000758:	fa5ff06f          	j	800006fc <trap_handler_m___CLEAR_MEI>
    8000075c:	f59ff06f          	j	800006b4 <trap_handler_m__invalid_interrupt>
    80000760:	fadff06f          	j	8000070c <trap_handler_m___CLEAR_COI>
    80000764:	f51ff06f          	j	800006b4 <trap_handler_m__invalid_interrupt>
    80000768:	f4dff06f          	j	800006b4 <trap_handler_m__invalid_interrupt>
    8000076c:	fadff06f          	j	80000718 <trap_handler_m__clear_highest_priority_interrupt>
    80000770:	fa9ff06f          	j	80000718 <trap_handler_m__clear_highest_priority_interrupt>
    80000774:	fa5ff06f          	j	80000718 <trap_handler_m__clear_highest_priority_interrupt>
    80000778:	fa1ff06f          	j	80000718 <trap_handler_m__clear_highest_priority_interrupt>
    8000077c:	f9dff06f          	j	80000718 <trap_handler_m__clear_highest_priority_interrupt>
    80000780:	f99ff06f          	j	80000718 <trap_handler_m__clear_highest_priority_interrupt>
    80000784:	f95ff06f          	j	80000718 <trap_handler_m__clear_highest_priority_interrupt>
    80000788:	f91ff06f          	j	80000718 <trap_handler_m__clear_highest_priority_interrupt>
    8000078c:	f8dff06f          	j	80000718 <trap_handler_m__clear_highest_priority_interrupt>
    80000790:	f89ff06f          	j	80000718 <trap_handler_m__clear_highest_priority_interrupt>
    80000794:	f85ff06f          	j	80000718 <trap_handler_m__clear_highest_priority_interrupt>
    80000798:	f81ff06f          	j	80000718 <trap_handler_m__clear_highest_priority_interrupt>
    8000079c:	f7dff06f          	j	80000718 <trap_handler_m__clear_highest_priority_interrupt>
    800007a0:	f79ff06f          	j	80000718 <trap_handler_m__clear_highest_priority_interrupt>
    800007a4:	f75ff06f          	j	80000718 <trap_handler_m__clear_highest_priority_interrupt>
    800007a8:	f71ff06f          	j	80000718 <trap_handler_m__clear_highest_priority_interrupt>
    800007ac:	f6dff06f          	j	80000718 <trap_handler_m__clear_highest_priority_interrupt>
    800007b0:	f69ff06f          	j	80000718 <trap_handler_m__clear_highest_priority_interrupt>
    800007b4:	f65ff06f          	j	80000718 <trap_handler_m__clear_highest_priority_interrupt>
    800007b8:	f61ff06f          	j	80000718 <trap_handler_m__clear_highest_priority_interrupt>
    800007bc:	f5dff06f          	j	80000718 <trap_handler_m__clear_highest_priority_interrupt>
    800007c0:	f59ff06f          	j	80000718 <trap_handler_m__clear_highest_priority_interrupt>
    800007c4:	f55ff06f          	j	80000718 <trap_handler_m__clear_highest_priority_interrupt>
    800007c8:	f51ff06f          	j	80000718 <trap_handler_m__clear_highest_priority_interrupt>
    800007cc:	f4dff06f          	j	80000718 <trap_handler_m__clear_highest_priority_interrupt>
    800007d0:	f49ff06f          	j	80000718 <trap_handler_m__clear_highest_priority_interrupt>
    800007d4:	f45ff06f          	j	80000718 <trap_handler_m__clear_highest_priority_interrupt>
    800007d8:	f41ff06f          	j	80000718 <trap_handler_m__clear_highest_priority_interrupt>
    800007dc:	f3dff06f          	j	80000718 <trap_handler_m__clear_highest_priority_interrupt>
    800007e0:	f39ff06f          	j	80000718 <trap_handler_m__clear_highest_priority_interrupt>
    800007e4:	f35ff06f          	j	80000718 <trap_handler_m__clear_highest_priority_interrupt>
    800007e8:	f31ff06f          	j	80000718 <trap_handler_m__clear_highest_priority_interrupt>
    800007ec:	f2dff06f          	j	80000718 <trap_handler_m__clear_highest_priority_interrupt>
    800007f0:	f29ff06f          	j	80000718 <trap_handler_m__clear_highest_priority_interrupt>
    800007f4:	f25ff06f          	j	80000718 <trap_handler_m__clear_highest_priority_interrupt>
    800007f8:	f21ff06f          	j	80000718 <trap_handler_m__clear_highest_priority_interrupt>
    800007fc:	f1dff06f          	j	80000718 <trap_handler_m__clear_highest_priority_interrupt>
    80000800:	f19ff06f          	j	80000718 <trap_handler_m__clear_highest_priority_interrupt>
    80000804:	f15ff06f          	j	80000718 <trap_handler_m__clear_highest_priority_interrupt>
    80000808:	f11ff06f          	j	80000718 <trap_handler_m__clear_highest_priority_interrupt>
    8000080c:	f0dff06f          	j	80000718 <trap_handler_m__clear_highest_priority_interrupt>
    80000810:	f09ff06f          	j	80000718 <trap_handler_m__clear_highest_priority_interrupt>
    80000814:	f05ff06f          	j	80000718 <trap_handler_m__clear_highest_priority_interrupt>
    80000818:	f01ff06f          	j	80000718 <trap_handler_m__clear_highest_priority_interrupt>
    8000081c:	efdff06f          	j	80000718 <trap_handler_m__clear_highest_priority_interrupt>
    80000820:	ef9ff06f          	j	80000718 <trap_handler_m__clear_highest_priority_interrupt>
    80000824:	ef5ff06f          	j	80000718 <trap_handler_m__clear_highest_priority_interrupt>

0000000080000828 <trap_handler_m__trap_handler>:
    80000828:	342022f3          	csrr	x5,mcause
    8000082c:	fff0031b          	addiw	x6,x0,-1
    80000830:	03f31313          	slli	x6,x6,0x3f
    80000834:	00537333          	and	x6,x6,x5
    80000838:	02030263          	beqz	x6,8000085c <trap_handler_m__exception_path>

000000008000083c <trap_handler_m__interrupt_handler>:
    8000083c:	fff0031b          	addiw	x6,x0,-1
    80000840:	03f31313          	slli	x6,x6,0x3f
    80000844:	0062c2b3          	xor	x5,x5,x6
    80000848:	00000317          	auipc	x6,0x0
    8000084c:	ee430313          	addi	x6,x6,-284 # 8000072c <trap_handler_m__trap_entry>
    80000850:	00229293          	slli	x5,x5,0x2
    80000854:	005302b3          	add	x5,x6,x5
    80000858:	00028067          	jr	x5 # 2000 <FS_RANDOMIZATION+0x1f9c>

000000008000085c <trap_handler_m__exception_path>:
    8000085c:	34021273          	csrrw	x4,mscratch,x4
    80000860:	00000297          	auipc	x5,0x0
    80000864:	10828293          	addi	x5,x5,264 # 80000968 <trap_handler_m__trap_panic>
    80000868:	30529073          	csrw	mtvec,x5
    8000086c:	0040006f          	j	80000870 <trap_handler_m__excp_entry>

0000000080000870 <trap_handler_m__excp_entry>:
    80000870:	34202373          	csrr	x6,mcause
    80000874:	00800293          	li	x5,8
    80000878:	00534863          	blt	x6,x5,80000888 <trap_handler_m__check_exception_label>
    8000087c:	00b00293          	li	x5,11
    80000880:	0062c463          	blt	x5,x6,80000888 <trap_handler_m__check_exception_label>
    80000884:	9e5ff06f          	j	80000268 <syscalls__syscall_check_schedule_next_test>

0000000080000888 <trap_handler_m__check_exception_label>:
    80000888:	04623c23          	sd	x6,88(x4) # 58 <XLEN+0x18>
    8000088c:	341022f3          	csrr	x5,mepc
    80000890:	02523423          	sd	x5,40(x4) # 28 <SECURE_ACCESS_PROBABILITY+0xa>
    80000894:	01820283          	lb	x5,24(x4) # 18 <STORE_GUEST_PAGE_FAULT+0x1>
    80000898:	00029863          	bnez	x5,800008a8 <trap_handler_m__check_excp>
    8000089c:	00128293          	addi	x5,x5,1
    800008a0:	00520c23          	sb	x5,24(x4) # 18 <STORE_GUEST_PAGE_FAULT+0x1>
    800008a4:	0980006f          	j	8000093c <trap_handler_m__ecall_from_machine>

00000000800008a8 <trap_handler_m__check_excp>:
    800008a8:	06820293          	addi	x5,x4,104 # 68 <FS_RANDOMIZATION+0x4>
    800008ac:	0802b2af          	amoswap.d	x5,x0,(x5)
    800008b0:	00028663          	beqz	x5,800008bc <trap_handler_m__skip_mode_check>
    800008b4:	00100393          	li	x7,1
    800008b8:	0e729463          	bne	x5,x7,800009a0 <test_failed>

00000000800008bc <trap_handler_m__skip_mode_check>:
    800008bc:	05020293          	addi	x5,x4,80 # 50 <XLEN+0x10>
    800008c0:	0802b2af          	amoswap.d	x5,x0,(x5)
    800008c4:	0c531e63          	bne	x6,x5,800009a0 <test_failed>
    800008c8:	03820293          	addi	x5,x4,56 # 38 <SECURE_ACCESS_PROBABILITY+0x1a>
    800008cc:	0802b2af          	amoswap.d	x5,x0,(x5)
    800008d0:	06029463          	bnez	x5,80000938 <trap_handler_m__skip_gva_check>
    800008d4:	02020313          	addi	x6,x4,32 # 20 <SECURE_ACCESS_PROBABILITY+0x2>
    800008d8:	0803332f          	amoswap.d	x6,x0,(x6)
    800008dc:	02820293          	addi	x5,x4,40 # 28 <SECURE_ACCESS_PROBABILITY+0xa>
    800008e0:	0802b2af          	amoswap.d	x5,x0,(x5)
    800008e4:	0a531e63          	bne	x6,x5,800009a0 <test_failed>
    800008e8:	04020293          	addi	x5,x4,64 # 40 <XLEN>
    800008ec:	0802b2af          	amoswap.d	x5,x0,(x5)
    800008f0:	00028663          	beqz	x5,800008fc <trap_handler_m__skip_nonzero_tval_check>

00000000800008f4 <trap_handler_m__nonzero_tval_check>:
    800008f4:	34302373          	csrr	x6,mtval
    800008f8:	0a531463          	bne	x6,x5,800009a0 <test_failed>

00000000800008fc <trap_handler_m__skip_nonzero_tval_check>:
    800008fc:	04820293          	addi	x5,x4,72 # 48 <XLEN+0x8>
    80000900:	0802b2af          	amoswap.d	x5,x0,(x5)
    80000904:	00028663          	beqz	x5,80000910 <trap_handler_m__skip_nonzero_htval_check>

0000000080000908 <trap_handler_m__nonzero_htval_check>:
    80000908:	34b02373          	csrr	x6,0x34b
    8000090c:	08531a63          	bne	x6,x5,800009a0 <test_failed>

0000000080000910 <trap_handler_m__skip_nonzero_htval_check>:
    80000910:	06020293          	addi	x5,x4,96 # 60 <XLEN+0x20>
    80000914:	0802b2af          	amoswap.d	x5,x0,(x5)
    80000918:	02028063          	beqz	x5,80000938 <trap_handler_m__skip_gva_check>

000000008000091c <trap_handler_m__gva_check>:
    8000091c:	30002373          	csrr	x6,mstatus
    80000920:	02635313          	srli	x6,x6,0x26
    80000924:	00137313          	andi	x6,x6,1
    80000928:	06030c63          	beqz	x6,800009a0 <test_failed>
    8000092c:	0010031b          	addiw	x6,x0,1
    80000930:	02631313          	slli	x6,x6,0x26
    80000934:	30033073          	csrc	mstatus,x6

0000000080000938 <trap_handler_m__skip_gva_check>:
    80000938:	0040006f          	j	8000093c <trap_handler_m__ecall_from_machine>

000000008000093c <trap_handler_m__ecall_from_machine>:
    8000093c:	03020293          	addi	x5,x4,48 # 30 <SECURE_ACCESS_PROBABILITY+0x12>
    80000940:	0802b2af          	amoswap.d	x5,x0,(x5)
    80000944:	07020313          	addi	x6,x4,112 # 70 <FS_RANDOMIZATION+0xc>
    80000948:	0803332f          	amoswap.d	x6,x0,(x6)
    8000094c:	00031463          	bnez	x6,80000954 <trap_handler_m__skip_xepc_write>
    80000950:	34129073          	csrw	mepc,x5

0000000080000954 <trap_handler_m__skip_xepc_write>:
    80000954:	00000317          	auipc	x6,0x0
    80000958:	dd830313          	addi	x6,x6,-552 # 8000072c <trap_handler_m__trap_entry>
    8000095c:	30531073          	csrw	mtvec,x6
    80000960:	34021273          	csrrw	x4,mscratch,x4
    80000964:	30200073          	mret

0000000080000968 <trap_handler_m__trap_panic>:
    80000968:	00000193          	li	x3,0
    8000096c:	2ec0006f          	j	80000c58 <eot__end_test>

0000000080000970 <enter_scheduler>:
    80000970:	0002f337          	lui	x6,0x2f
    80000974:	ab73031b          	addiw	x6,x6,-1353 # 2eab7 <_all_interrupts+0x2c00d>
    80000978:	00e31313          	slli	x6,x6,0xe
    8000097c:	0de30313          	addi	x6,x6,222
    80000980:	02628063          	beq	x5,x6,800009a0 <test_failed>
    80000984:	00000513          	li	x10,0
    80000988:	030000ef          	jal	800009b8 <rvcp_print_test_result>
    8000098c:	3500006f          	j	80000cdc <scheduler__dispatch>

0000000080000990 <test_passed>:
    80000990:	34021273          	csrrw	x4,mscratch,x4
    80000994:	00000513          	li	x10,0
    80000998:	020000ef          	jal	800009b8 <rvcp_print_test_result>
    8000099c:	3400006f          	j	80000cdc <scheduler__dispatch>

00000000800009a0 <test_failed>:
    800009a0:	34021273          	csrrw	x4,mscratch,x4
    800009a4:	00300193          	li	x3,3
    800009a8:	2b00006f          	j	80000c58 <eot__end_test>

00000000800009ac <os_end_test>:
    800009ac:	34021273          	csrrw	x4,mscratch,x4
    800009b0:	00100193          	li	x3,1
    800009b4:	2a40006f          	j	80000c58 <eot__end_test>

00000000800009b8 <rvcp_print_test_result>:
    800009b8:	00050e13          	mv	x28,x10
    800009bc:	19823283          	ld	x5,408(x4) # 198 <FS_RANDOMIZATION+0x134>
    800009c0:	0010031b          	addiw	x6,x0,1
    800009c4:	02031313          	slli	x6,x6,0x20
    800009c8:	ffe30313          	addi	x6,x6,-2
    800009cc:	1e628c63          	beq	x5,x6,80000bc4 <rvcp_print_test_result+0x20c>
    800009d0:	0010031b          	addiw	x6,x0,1
    800009d4:	02031313          	slli	x6,x6,0x20
    800009d8:	fff30313          	addi	x6,x6,-1
    800009dc:	1e628463          	beq	x5,x6,80000bc4 <rvcp_print_test_result+0x20c>
    800009e0:	1e02c263          	bltz	x5,80000bc4 <rvcp_print_test_result+0x20c>
    800009e4:	00000317          	auipc	x6,0x0
    800009e8:	55830313          	addi	x6,x6,1368 # 80000f3c <dtest_descriptor_table>
    800009ec:	00329393          	slli	x7,x5,0x3
    800009f0:	00730333          	add	x6,x6,x7
    800009f4:	00033e83          	ld	x29,0(x6)
    800009f8:	000e8f37          	lui	x30,0xe8
    800009fc:	1bdf0f1b          	addiw	x30,x30,445 # e81bd <mem2+0x441bd>
    80000a00:	00df1f13          	slli	x30,x30,0xd
    80000a04:	030f0f13          	addi	x30,x30,48
    80000a08:	000f4283          	lbu	x5,0(x30)
    80000a0c:	02028663          	beqz	x5,80000a38 <rvcp_print_test_result+0x80>
    80000a10:	1010031b          	addiw	x6,x0,257
    80000a14:	03031313          	slli	x6,x6,0x30
    80000a18:	005362b3          	or	x5,x6,x5
    80000a1c:	effff317          	auipc	x6,0xeffff
    80000a20:	5e430313          	addi	x6,x6,1508 # 70000000 <tohost>
    80000a24:	00033383          	ld	x7,0(x6)
    80000a28:	fe039ee3          	bnez	x7,80000a24 <rvcp_print_test_result+0x6c>
    80000a2c:	00533023          	sd	x5,0(x6)
    80000a30:	001f0f13          	addi	x30,x30,1
    80000a34:	fd5ff06f          	j	80000a08 <rvcp_print_test_result+0x50>
    80000a38:	000e8f37          	lui	x30,0xe8
    80000a3c:	1bdf0f1b          	addiw	x30,x30,445 # e81bd <mem2+0x441bd>
    80000a40:	00df1f13          	slli	x30,x30,0xd
    80000a44:	041f0f13          	addi	x30,x30,65
    80000a48:	000f4283          	lbu	x5,0(x30)
    80000a4c:	02028663          	beqz	x5,80000a78 <rvcp_print_test_result+0xc0>
    80000a50:	1010031b          	addiw	x6,x0,257
    80000a54:	03031313          	slli	x6,x6,0x30
    80000a58:	005362b3          	or	x5,x6,x5
    80000a5c:	effff317          	auipc	x6,0xeffff
    80000a60:	5a430313          	addi	x6,x6,1444 # 70000000 <tohost>
    80000a64:	00033383          	ld	x7,0(x6)
    80000a68:	fe039ee3          	bnez	x7,80000a64 <rvcp_print_test_result+0xac>
    80000a6c:	00533023          	sd	x5,0(x6)
    80000a70:	001f0f13          	addi	x30,x30,1
    80000a74:	fd5ff06f          	j	80000a48 <rvcp_print_test_result+0x90>
    80000a78:	000e8f37          	lui	x30,0xe8
    80000a7c:	1bdf0f1b          	addiw	x30,x30,445 # e81bd <mem2+0x441bd>
    80000a80:	00df1f13          	slli	x30,x30,0xd
    80000a84:	059f0f13          	addi	x30,x30,89
    80000a88:	000f4283          	lbu	x5,0(x30)
    80000a8c:	02028663          	beqz	x5,80000ab8 <rvcp_print_test_result+0x100>
    80000a90:	1010031b          	addiw	x6,x0,257
    80000a94:	03031313          	slli	x6,x6,0x30
    80000a98:	005362b3          	or	x5,x6,x5
    80000a9c:	effff317          	auipc	x6,0xeffff
    80000aa0:	56430313          	addi	x6,x6,1380 # 70000000 <tohost>
    80000aa4:	00033383          	ld	x7,0(x6)
    80000aa8:	fe039ee3          	bnez	x7,80000aa4 <rvcp_print_test_result+0xec>
    80000aac:	00533023          	sd	x5,0(x6)
    80000ab0:	001f0f13          	addi	x30,x30,1
    80000ab4:	fd5ff06f          	j	80000a88 <rvcp_print_test_result+0xd0>
    80000ab8:	000e8f13          	mv	x30,x29
    80000abc:	000f4283          	lbu	x5,0(x30)
    80000ac0:	02028663          	beqz	x5,80000aec <rvcp_print_test_result+0x134>
    80000ac4:	1010031b          	addiw	x6,x0,257
    80000ac8:	03031313          	slli	x6,x6,0x30
    80000acc:	005362b3          	or	x5,x6,x5
    80000ad0:	effff317          	auipc	x6,0xeffff
    80000ad4:	53030313          	addi	x6,x6,1328 # 70000000 <tohost>
    80000ad8:	00033383          	ld	x7,0(x6)
    80000adc:	fe039ee3          	bnez	x7,80000ad8 <rvcp_print_test_result+0x120>
    80000ae0:	00533023          	sd	x5,0(x6)
    80000ae4:	001f0f13          	addi	x30,x30,1
    80000ae8:	fd5ff06f          	j	80000abc <rvcp_print_test_result+0x104>
    80000aec:	000e8f37          	lui	x30,0xe8
    80000af0:	1bdf0f1b          	addiw	x30,x30,445 # e81bd <mem2+0x441bd>
    80000af4:	00df1f13          	slli	x30,x30,0xd
    80000af8:	059f0f13          	addi	x30,x30,89
    80000afc:	000f4283          	lbu	x5,0(x30)
    80000b00:	02028663          	beqz	x5,80000b2c <rvcp_print_test_result+0x174>
    80000b04:	1010031b          	addiw	x6,x0,257
    80000b08:	03031313          	slli	x6,x6,0x30
    80000b0c:	005362b3          	or	x5,x6,x5
    80000b10:	effff317          	auipc	x6,0xeffff
    80000b14:	4f030313          	addi	x6,x6,1264 # 70000000 <tohost>
    80000b18:	00033383          	ld	x7,0(x6)
    80000b1c:	fe039ee3          	bnez	x7,80000b18 <rvcp_print_test_result+0x160>
    80000b20:	00533023          	sd	x5,0(x6)
    80000b24:	001f0f13          	addi	x30,x30,1
    80000b28:	fd5ff06f          	j	80000afc <rvcp_print_test_result+0x144>
    80000b2c:	000e1c63          	bnez	x28,80000b44 <rvcp_print_test_result+0x18c>
    80000b30:	000e8f37          	lui	x30,0xe8
    80000b34:	1bdf0f1b          	addiw	x30,x30,445 # e81bd <mem2+0x441bd>
    80000b38:	00df1f13          	slli	x30,x30,0xd
    80000b3c:	04bf0f13          	addi	x30,x30,75
    80000b40:	0140006f          	j	80000b54 <rvcp_print_test_result+0x19c>
    80000b44:	000e8f37          	lui	x30,0xe8
    80000b48:	1bdf0f1b          	addiw	x30,x30,445 # e81bd <mem2+0x441bd>
    80000b4c:	00df1f13          	slli	x30,x30,0xd
    80000b50:	052f0f13          	addi	x30,x30,82
    80000b54:	000f4283          	lbu	x5,0(x30)
    80000b58:	02028663          	beqz	x5,80000b84 <rvcp_print_test_result+0x1cc>
    80000b5c:	1010031b          	addiw	x6,x0,257
    80000b60:	03031313          	slli	x6,x6,0x30
    80000b64:	005362b3          	or	x5,x6,x5
    80000b68:	effff317          	auipc	x6,0xeffff
    80000b6c:	49830313          	addi	x6,x6,1176 # 70000000 <tohost>
    80000b70:	00033383          	ld	x7,0(x6)
    80000b74:	fe039ee3          	bnez	x7,80000b70 <rvcp_print_test_result+0x1b8>
    80000b78:	00533023          	sd	x5,0(x6)
    80000b7c:	001f0f13          	addi	x30,x30,1
    80000b80:	fd5ff06f          	j	80000b54 <rvcp_print_test_result+0x19c>
    80000b84:	000e8f37          	lui	x30,0xe8
    80000b88:	1bdf0f1b          	addiw	x30,x30,445 # e81bd <mem2+0x441bd>
    80000b8c:	00df1f13          	slli	x30,x30,0xd
    80000b90:	05bf0f13          	addi	x30,x30,91
    80000b94:	000f4283          	lbu	x5,0(x30)
    80000b98:	02028663          	beqz	x5,80000bc4 <rvcp_print_test_result+0x20c>
    80000b9c:	1010031b          	addiw	x6,x0,257
    80000ba0:	03031313          	slli	x6,x6,0x30
    80000ba4:	005362b3          	or	x5,x6,x5
    80000ba8:	effff317          	auipc	x6,0xeffff
    80000bac:	45830313          	addi	x6,x6,1112 # 70000000 <tohost>
    80000bb0:	00033383          	ld	x7,0(x6)
    80000bb4:	fe039ee3          	bnez	x7,80000bb0 <rvcp_print_test_result+0x1f8>
    80000bb8:	00533023          	sd	x5,0(x6)
    80000bbc:	001f0f13          	addi	x30,x30,1
    80000bc0:	fd5ff06f          	j	80000b94 <rvcp_print_test_result+0x1dc>
    80000bc4:	00008067          	ret

0000000080000bc8 <os_rng_orig>:
    80000bc8:	f14023f3          	csrr	x7,mhartid
    80000bcc:	00068313          	mv	x6,x13
    80000bd0:	026383b3          	mul	x7,x7,x6
    80000bd4:	00058313          	mv	x6,x11
    80000bd8:	00730333          	add	x6,x6,x7
    80000bdc:	00033283          	ld	x5,0(x6)
    80000be0:	01529313          	slli	x6,x5,0x15
    80000be4:	0062c2b3          	xor	x5,x5,x6
    80000be8:	0232d313          	srli	x6,x5,0x23
    80000bec:	0062c2b3          	xor	x5,x5,x6
    80000bf0:	00429313          	slli	x6,x5,0x4
    80000bf4:	0062c2b3          	xor	x5,x5,x6
    80000bf8:	00058313          	mv	x6,x11
    80000bfc:	00730333          	add	x6,x6,x7
    80000c00:	00533023          	sd	x5,0(x6)
    80000c04:	00060313          	mv	x6,x12
    80000c08:	0262f2b3          	remu	x5,x5,x6
    80000c0c:	00028513          	mv	x10,x5
    80000c10:	00008067          	ret
    80000c14:	02a00513          	li	x10,42
    80000c18:	001965b7          	lui	x11,0x196
    80000c1c:	60d5859b          	addiw	x11,x11,1549 # 19660d <mem2+0xf260d>
    80000c20:	3c6ef637          	lui	x12,0x3c6ef
    80000c24:	35f6061b          	addiw	x12,x12,863 # 3c6ef35f <saplic_255+0x1bdf035f>
    80000c28:	02200693          	li	x13,34
    80000c2c:	02b50533          	mul	x10,x10,x11
    80000c30:	00c50533          	add	x10,x10,x12
    80000c34:	02d56533          	rem	x10,x10,x13
    80000c38:	00b00593          	li	x11,11
    80000c3c:	02b56533          	rem	x10,x10,x11
    80000c40:	00008067          	ret
    80000c44:	0000                	.insn	2, 0x0000
	...

0000000080000c48 <tohost_mutex>:
	...

0000000080000c50 <tohost_addr_mem>:
    80000c50:	0000                	.insn	2, 0x0000
    80000c52:	7000                	.insn	2, 0x7000
    80000c54:	0000                	.insn	2, 0x0000
	...

0000000080000c58 <eot__end_test>:
    80000c58:	00100293          	li	x5,1
    80000c5c:	00328463          	beq	x5,x3,80000c64 <eot__passed>
    80000c60:	01c0006f          	j	80000c7c <eot__failed>

0000000080000c64 <eot__passed>:
    80000c64:	0ff0000f          	fence
    80000c68:	00000297          	auipc	x5,0x0
    80000c6c:	fe82b283          	ld	x5,-24(x5) # 80000c50 <tohost_addr_mem>
    80000c70:	00100313          	li	x6,1
    80000c74:	0062a023          	sw	x6,0(x5)
    80000c78:	0240006f          	j	80000c9c <eot__halt>

0000000080000c7c <eot__failed>:
    80000c7c:	00100513          	li	x10,1
    80000c80:	d39ff0ef          	jal	800009b8 <rvcp_print_test_result>
    80000c84:	0ff0000f          	fence
    80000c88:	00000297          	auipc	x5,0x0
    80000c8c:	fc82b283          	ld	x5,-56(x5) # 80000c50 <tohost_addr_mem>
    80000c90:	00300313          	li	x6,3
    80000c94:	0062a023          	sw	x6,0(x5)
    80000c98:	0040006f          	j	80000c9c <eot__halt>

0000000080000c9c <eot__halt>:
    80000c9c:	10500073          	wfi
    80000ca0:	ffdff06f          	j	80000c9c <eot__halt>

0000000080000ca4 <scheduler__init>:
    80000ca4:	00000297          	auipc	x5,0x0
    80000ca8:	14428293          	addi	x5,x5,324 # 80000de8 <scheduler__panic>
    80000cac:	305292f3          	csrrw	x5,mtvec,x5
    80000cb0:	18523023          	sd	x5,384(x4) # 180 <FS_RANDOMIZATION+0x11c>
    80000cb4:	02500293          	li	x5,37
    80000cb8:	1a523023          	sd	x5,416(x4) # 1a0 <FS_RANDOMIZATION+0x13c>
    80000cbc:	0010029b          	addiw	x5,x0,1
    80000cc0:	02029293          	slli	x5,x5,0x20
    80000cc4:	ffe28293          	addi	x5,x5,-2
    80000cc8:	18523c23          	sd	x5,408(x4) # 198 <FS_RANDOMIZATION+0x134>
    80000ccc:	00000317          	auipc	x6,0x0
    80000cd0:	4c830313          	addi	x6,x6,1224 # 80001194 <scheduler__test_setup_ptr>
    80000cd4:	00033303          	ld	x6,0(x6)
    80000cd8:	0e80006f          	j	80000dc0 <scheduler__execute_test>

0000000080000cdc <scheduler__dispatch>:
    80000cdc:	00000297          	auipc	x5,0x0
    80000ce0:	10c28293          	addi	x5,x5,268 # 80000de8 <scheduler__panic>
    80000ce4:	305292f3          	csrrw	x5,mtvec,x5
    80000ce8:	18523023          	sd	x5,384(x4) # 180 <FS_RANDOMIZATION+0x11c>

0000000080000cec <scheduler__csr_read_randomization>:
    80000cec:	00000e17          	auipc	x28,0x0
    80000cf0:	238e0e13          	addi	x28,x28,568 # 80000f24 <fs_rr_table>
    80000cf4:	18823e83          	ld	x29,392(x4) # 188 <FS_RANDOMIZATION+0x124>
    80000cf8:	002e9f13          	slli	x30,x29,0x2
    80000cfc:	01ee0f33          	add	x30,x28,x30
    80000d00:	000f2f03          	lw	x30,0(x30)
    80000d04:	00df1f13          	slli	x30,x30,0xd
    80000d08:	00006e37          	lui	x28,0x6
    80000d0c:	100e3073          	csrc	sstatus,x28
    80000d10:	100f2073          	csrs	sstatus,x30
    80000d14:	001e8e93          	addi	x29,x29,1
    80000d18:	00300e13          	li	x28,3
    80000d1c:	01cec463          	blt	x29,x28,80000d24 <scheduler__csr_read_randomization+0x38>
    80000d20:	00000e93          	li	x29,0
    80000d24:	19d23423          	sd	x29,392(x4) # 188 <FS_RANDOMIZATION+0x124>
    80000d28:	00000e17          	auipc	x28,0x0
    80000d2c:	208e0e13          	addi	x28,x28,520 # 80000f30 <vs_rr_table>
    80000d30:	19023e83          	ld	x29,400(x4) # 190 <FS_RANDOMIZATION+0x12c>
    80000d34:	002e9f13          	slli	x30,x29,0x2
    80000d38:	01ee0f33          	add	x30,x28,x30
    80000d3c:	000f2f03          	lw	x30,0(x30)
    80000d40:	009f1f13          	slli	x30,x30,0x9
    80000d44:	60000e13          	li	x28,1536
    80000d48:	100e3073          	csrc	sstatus,x28
    80000d4c:	100f2073          	csrs	sstatus,x30
    80000d50:	001e8e93          	addi	x29,x29,1
    80000d54:	00300e13          	li	x28,3
    80000d58:	01cec463          	blt	x29,x28,80000d60 <scheduler__csr_read_randomization+0x74>
    80000d5c:	00000e93          	li	x29,0
    80000d60:	19d23823          	sd	x29,400(x4) # 190 <FS_RANDOMIZATION+0x12c>
    80000d64:	144022f3          	csrr	x5,sip
    80000d68:	302022f3          	csrr	x5,medeleg
    80000d6c:	343022f3          	csrr	x5,mtval
    80000d70:	104022f3          	csrr	x5,sie
    80000d74:	140022f3          	csrr	x5,sscratch
    80000d78:	144022f3          	csrr	x5,sip
    80000d7c:	141022f3          	csrr	x5,sepc
    80000d80:	305022f3          	csrr	x5,mtvec

0000000080000d84 <scheduler__load_num_runs>:
    80000d84:	1a023303          	ld	x6,416(x4) # 1a0 <FS_RANDOMIZATION+0x13c>
    80000d88:	04030c63          	beqz	x6,80000de0 <scheduler__finished>

0000000080000d8c <scheduler__decrement_num_runs>:
    80000d8c:	fff30393          	addi	x7,x6,-1
    80000d90:	1a723023          	sd	x7,416(x4) # 1a0 <FS_RANDOMIZATION+0x13c>
    80000d94:	00000e17          	auipc	x28,0x0
    80000d98:	36ce0e13          	addi	x28,x28,876 # 80001100 <dtest_index_map>
    80000d9c:	00239e93          	slli	x29,x7,0x2
    80000da0:	01de0e33          	add	x28,x28,x29
    80000da4:	000e2e03          	lw	x28,0(x28)
    80000da8:	19c23c23          	sd	x28,408(x4) # 198 <FS_RANDOMIZATION+0x134>

0000000080000dac <scheduler__calc_test_pointer>:
    80000dac:	00339293          	slli	x5,x7,0x3

0000000080000db0 <scheduler__load_test_addr>:
    80000db0:	00000317          	auipc	x6,0x0
    80000db4:	04c30313          	addi	x6,x6,76 # 80000dfc <os_test_sequence>
    80000db8:	006282b3          	add	x5,x5,x6
    80000dbc:	0002b303          	ld	x6,0(x5)

0000000080000dc0 <scheduler__execute_test>:
    80000dc0:	18023283          	ld	x5,384(x4) # 180 <FS_RANDOMIZATION+0x11c>
    80000dc4:	30529073          	csrw	mtvec,x5
    80000dc8:	34021273          	csrrw	x4,mscratch,x4
    80000dcc:	00000213          	li	x4,0
    80000dd0:	14131073          	csrw	sepc,x6
    80000dd4:	10000293          	li	x5,256
    80000dd8:	1002a073          	csrs	sstatus,x5
    80000ddc:	10200073          	sret

0000000080000de0 <scheduler__finished>:
    80000de0:	00100193          	li	x3,1
    80000de4:	e75ff06f          	j	80000c58 <eot__end_test>

0000000080000de8 <scheduler__panic>:
    80000de8:	00000193          	li	x3,0
    80000dec:	e6dff06f          	j	80000c58 <eot__end_test>
    80000df0:	0000                	.insn	2, 0x0000
	...

0000000080000df4 <num_runs>:
    80000df4:	0025                	.insn	2, 0x0025
    80000df6:	0000                	.insn	2, 0x0000
    80000df8:	0000                	.insn	2, 0x0000
	...

0000000080000dfc <os_test_sequence>:
    80000dfc:	4ce4                	.insn	2, 0x4ce4
    80000dfe:	8001                	.insn	2, 0x8001
    80000e00:	0000                	.insn	2, 0x0000
    80000e02:	0000                	.insn	2, 0x0000
    80000e04:	4bec                	.insn	2, 0x4bec
    80000e06:	8001                	.insn	2, 0x8001
    80000e08:	0000                	.insn	2, 0x0000
    80000e0a:	0000                	.insn	2, 0x0000
    80000e0c:	4878                	.insn	2, 0x4878
    80000e0e:	8001                	.insn	2, 0x8001
    80000e10:	0000                	.insn	2, 0x0000
    80000e12:	0000                	.insn	2, 0x0000
    80000e14:	40e0                	.insn	2, 0x40e0
    80000e16:	8001                	.insn	2, 0x8001
    80000e18:	0000                	.insn	2, 0x0000
    80000e1a:	0000                	.insn	2, 0x0000
    80000e1c:	4adc                	.insn	2, 0x4adc
    80000e1e:	8001                	.insn	2, 0x8001
    80000e20:	0000                	.insn	2, 0x0000
    80000e22:	0000                	.insn	2, 0x0000
    80000e24:	47b4                	.insn	2, 0x47b4
    80000e26:	8001                	.insn	2, 0x8001
    80000e28:	0000                	.insn	2, 0x0000
    80000e2a:	0000                	.insn	2, 0x0000
    80000e2c:	4a14                	.insn	2, 0x4a14
    80000e2e:	8001                	.insn	2, 0x8001
    80000e30:	0000                	.insn	2, 0x0000
    80000e32:	0000                	.insn	2, 0x0000
    80000e34:	4878                	.insn	2, 0x4878
    80000e36:	8001                	.insn	2, 0x8001
    80000e38:	0000                	.insn	2, 0x0000
    80000e3a:	0000                	.insn	2, 0x0000
    80000e3c:	46ec                	.insn	2, 0x46ec
    80000e3e:	8001                	.insn	2, 0x8001
    80000e40:	0000                	.insn	2, 0x0000
    80000e42:	0000                	.insn	2, 0x0000
    80000e44:	4bec                	.insn	2, 0x4bec
    80000e46:	8001                	.insn	2, 0x8001
    80000e48:	0000                	.insn	2, 0x0000
    80000e4a:	0000                	.insn	2, 0x0000
    80000e4c:	4448                	.insn	2, 0x4448
    80000e4e:	8001                	.insn	2, 0x8001
    80000e50:	0000                	.insn	2, 0x0000
    80000e52:	0000                	.insn	2, 0x0000
    80000e54:	4448                	.insn	2, 0x4448
    80000e56:	8001                	.insn	2, 0x8001
    80000e58:	0000                	.insn	2, 0x0000
    80000e5a:	0000                	.insn	2, 0x0000
    80000e5c:	47b4                	.insn	2, 0x47b4
    80000e5e:	8001                	.insn	2, 0x8001
    80000e60:	0000                	.insn	2, 0x0000
    80000e62:	0000                	.insn	2, 0x0000
    80000e64:	41ac                	.insn	2, 0x41ac
    80000e66:	8001                	.insn	2, 0x8001
    80000e68:	0000                	.insn	2, 0x0000
    80000e6a:	0000                	.insn	2, 0x0000
    80000e6c:	40e0                	.insn	2, 0x40e0
    80000e6e:	8001                	.insn	2, 0x8001
    80000e70:	0000                	.insn	2, 0x0000
    80000e72:	0000                	.insn	2, 0x0000
    80000e74:	4448                	.insn	2, 0x4448
    80000e76:	8001                	.insn	2, 0x8001
    80000e78:	0000                	.insn	2, 0x0000
    80000e7a:	0000                	.insn	2, 0x0000
    80000e7c:	4adc                	.insn	2, 0x4adc
    80000e7e:	8001                	.insn	2, 0x8001
    80000e80:	0000                	.insn	2, 0x0000
    80000e82:	0000                	.insn	2, 0x0000
    80000e84:	4bec                	.insn	2, 0x4bec
    80000e86:	8001                	.insn	2, 0x8001
    80000e88:	0000                	.insn	2, 0x0000
    80000e8a:	0000                	.insn	2, 0x0000
    80000e8c:	4a14                	.insn	2, 0x4a14
    80000e8e:	8001                	.insn	2, 0x8001
    80000e90:	0000                	.insn	2, 0x0000
    80000e92:	0000                	.insn	2, 0x0000
    80000e94:	4878                	.insn	2, 0x4878
    80000e96:	8001                	.insn	2, 0x8001
    80000e98:	0000                	.insn	2, 0x0000
    80000e9a:	0000                	.insn	2, 0x0000
    80000e9c:	4544                	.insn	2, 0x4544
    80000e9e:	8001                	.insn	2, 0x8001
    80000ea0:	0000                	.insn	2, 0x0000
    80000ea2:	0000                	.insn	2, 0x0000
    80000ea4:	493c                	.insn	2, 0x493c
    80000ea6:	8001                	.insn	2, 0x8001
    80000ea8:	0000                	.insn	2, 0x0000
    80000eaa:	0000                	.insn	2, 0x0000
    80000eac:	40e0                	.insn	2, 0x40e0
    80000eae:	8001                	.insn	2, 0x8001
    80000eb0:	0000                	.insn	2, 0x0000
    80000eb2:	0000                	.insn	2, 0x0000
    80000eb4:	4a14                	.insn	2, 0x4a14
    80000eb6:	8001                	.insn	2, 0x8001
    80000eb8:	0000                	.insn	2, 0x0000
    80000eba:	0000                	.insn	2, 0x0000
    80000ebc:	41ac                	.insn	2, 0x41ac
    80000ebe:	8001                	.insn	2, 0x8001
    80000ec0:	0000                	.insn	2, 0x0000
    80000ec2:	0000                	.insn	2, 0x0000
    80000ec4:	42e8                	.insn	2, 0x42e8
    80000ec6:	8001                	.insn	2, 0x8001
    80000ec8:	0000                	.insn	2, 0x0000
    80000eca:	0000                	.insn	2, 0x0000
    80000ecc:	493c                	.insn	2, 0x493c
    80000ece:	8001                	.insn	2, 0x8001
    80000ed0:	0000                	.insn	2, 0x0000
    80000ed2:	0000                	.insn	2, 0x0000
    80000ed4:	4544                	.insn	2, 0x4544
    80000ed6:	8001                	.insn	2, 0x8001
    80000ed8:	0000                	.insn	2, 0x0000
    80000eda:	0000                	.insn	2, 0x0000
    80000edc:	47b4                	.insn	2, 0x47b4
    80000ede:	8001                	.insn	2, 0x8001
    80000ee0:	0000                	.insn	2, 0x0000
    80000ee2:	0000                	.insn	2, 0x0000
    80000ee4:	46ec                	.insn	2, 0x46ec
    80000ee6:	8001                	.insn	2, 0x8001
    80000ee8:	0000                	.insn	2, 0x0000
    80000eea:	0000                	.insn	2, 0x0000
    80000eec:	4544                	.insn	2, 0x4544
    80000eee:	8001                	.insn	2, 0x8001
    80000ef0:	0000                	.insn	2, 0x0000
    80000ef2:	0000                	.insn	2, 0x0000
    80000ef4:	493c                	.insn	2, 0x493c
    80000ef6:	8001                	.insn	2, 0x8001
    80000ef8:	0000                	.insn	2, 0x0000
    80000efa:	0000                	.insn	2, 0x0000
    80000efc:	4adc                	.insn	2, 0x4adc
    80000efe:	8001                	.insn	2, 0x8001
    80000f00:	0000                	.insn	2, 0x0000
    80000f02:	0000                	.insn	2, 0x0000
    80000f04:	42e8                	.insn	2, 0x42e8
    80000f06:	8001                	.insn	2, 0x8001
    80000f08:	0000                	.insn	2, 0x0000
    80000f0a:	0000                	.insn	2, 0x0000
    80000f0c:	46ec                	.insn	2, 0x46ec
    80000f0e:	8001                	.insn	2, 0x8001
    80000f10:	0000                	.insn	2, 0x0000
    80000f12:	0000                	.insn	2, 0x0000
    80000f14:	41ac                	.insn	2, 0x41ac
    80000f16:	8001                	.insn	2, 0x8001
    80000f18:	0000                	.insn	2, 0x0000
    80000f1a:	0000                	.insn	2, 0x0000
    80000f1c:	42e8                	.insn	2, 0x42e8
    80000f1e:	8001                	.insn	2, 0x8001
    80000f20:	0000                	.insn	2, 0x0000
	...

0000000080000f24 <fs_rr_table>:
    80000f24:	0001                	.insn	2, 0x0001
    80000f26:	0000                	.insn	2, 0x0000
    80000f28:	0002                	.insn	2, 0x0002
    80000f2a:	0000                	.insn	2, 0x0000
    80000f2c:	00000003          	lb	x0,0(x0) # 0 <ALL_4KB_PAGES>

0000000080000f30 <vs_rr_table>:
    80000f30:	0001                	.insn	2, 0x0001
    80000f32:	0000                	.insn	2, 0x0000
    80000f34:	0002                	.insn	2, 0x0002
    80000f36:	0000                	.insn	2, 0x0000
    80000f38:	00000003          	lb	x0,0(x0) # 0 <ALL_4KB_PAGES>

0000000080000f3c <dtest_descriptor_table>:
    80000f3c:	0f9c                	.insn	2, 0x0f9c
    80000f3e:	8000                	.insn	2, 0x8000
    80000f40:	0000                	.insn	2, 0x0000
    80000f42:	0000                	.insn	2, 0x0000
    80000f44:	0fb4                	.insn	2, 0x0fb4
    80000f46:	8000                	.insn	2, 0x8000
    80000f48:	0000                	.insn	2, 0x0000
    80000f4a:	0000                	.insn	2, 0x0000
    80000f4c:	0fd4                	.insn	2, 0x0fd4
    80000f4e:	8000                	.insn	2, 0x8000
    80000f50:	0000                	.insn	2, 0x0000
    80000f52:	0000                	.insn	2, 0x0000
    80000f54:	0ff1                	.insn	2, 0x0ff1
    80000f56:	8000                	.insn	2, 0x8000
    80000f58:	0000                	.insn	2, 0x0000
    80000f5a:	0000                	.insn	2, 0x0000
    80000f5c:	100d                	.insn	2, 0x100d
    80000f5e:	8000                	.insn	2, 0x8000
    80000f60:	0000                	.insn	2, 0x0000
    80000f62:	0000                	.insn	2, 0x0000
    80000f64:	1028                	.insn	2, 0x1028
    80000f66:	8000                	.insn	2, 0x8000
    80000f68:	0000                	.insn	2, 0x0000
    80000f6a:	0000                	.insn	2, 0x0000
    80000f6c:	104c                	.insn	2, 0x104c
    80000f6e:	8000                	.insn	2, 0x8000
    80000f70:	0000                	.insn	2, 0x0000
    80000f72:	0000                	.insn	2, 0x0000
    80000f74:	1066                	.insn	2, 0x1066
    80000f76:	8000                	.insn	2, 0x8000
    80000f78:	0000                	.insn	2, 0x0000
    80000f7a:	0000                	.insn	2, 0x0000
    80000f7c:	1082                	.insn	2, 0x1082
    80000f7e:	8000                	.insn	2, 0x8000
    80000f80:	0000                	.insn	2, 0x0000
    80000f82:	0000                	.insn	2, 0x0000
    80000f84:	10a8                	.insn	2, 0x10a8
    80000f86:	8000                	.insn	2, 0x8000
    80000f88:	0000                	.insn	2, 0x0000
    80000f8a:	0000                	.insn	2, 0x0000
    80000f8c:	10c2                	.insn	2, 0x10c2
    80000f8e:	8000                	.insn	2, 0x8000
    80000f90:	0000                	.insn	2, 0x0000
    80000f92:	0000                	.insn	2, 0x0000
    80000f94:	10df 8000 0000      	.insn	6, 0x800010df
	...

0000000080000f9c <dtest_name_0>:
    80000f9c:	5f444953          	.insn	4, 0x5f444953
    80000fa0:	3130                	.insn	2, 0x3130
    80000fa2:	735f 6e65 6376      	.insn	6, 0x63766e65735f
    80000fa8:	6766                	.insn	2, 0x6766
    80000faa:	705f 6d6d 775f      	.insn	6, 0x775f6d6d705f
    80000fb0:	7261                	.insn	2, 0x7261
    80000fb2:	006c                	.insn	2, 0x006c

0000000080000fb4 <dtest_name_1>:
    80000fb4:	5f444953          	.insn	4, 0x5f444953
    80000fb8:	3230                	.insn	2, 0x3230
    80000fba:	685f 6e65 6376      	.insn	6, 0x63766e65685f
    80000fc0:	6766                	.insn	2, 0x6766
    80000fc2:	685f 7473 7461      	.insn	6, 0x74617473685f
    80000fc8:	7375                	.insn	2, 0x7375
    80000fca:	705f 6d6d 775f      	.insn	6, 0x775f6d6d705f
    80000fd0:	7261                	.insn	2, 0x7261
    80000fd2:	006c                	.insn	2, 0x006c

0000000080000fd4 <dtest_name_2>:
    80000fd4:	5f444953          	.insn	4, 0x5f444953
    80000fd8:	3730                	.insn	2, 0x3730
    80000fda:	705f 5f6d 6964      	.insn	6, 0x69645f6d705f
    80000fe0:	6c626173          	csrrsi	x2,0x6c6,4
    80000fe4:	6465                	.insn	2, 0x6465
    80000fe6:	735f 685f 5f73      	.insn	6, 0x5f73685f735f
    80000fec:	6f6d                	.insn	2, 0x6f6d
    80000fee:	6564                	.insn	2, 0x6564
	...

0000000080000ff1 <dtest_name_3>:
    80000ff1:	5f444953          	.insn	4, 0x5f444953
    80000ff5:	3131                	.insn	2, 0x3131
    80000ff7:	705f 5f6d 6e65      	.insn	6, 0x6e655f6d705f
    80000ffd:	6261                	.insn	2, 0x6261
    80000fff:	656c                	.insn	2, 0x656c
    80001001:	5f64                	.insn	2, 0x5f64
    80001003:	73685f73          	csrrwi	x30,mhpmevent22h,16
    80001007:	6d5f 646f 0065      	.insn	6, 0x0065646f6d5f

000000008000100d <dtest_name_4>:
    8000100d:	5f444953          	.insn	4, 0x5f444953
    80001011:	3232                	.insn	2, 0x3232
    80001013:	705f 5f6d 6964      	.insn	6, 0x69645f6d705f
    80001019:	6c626173          	csrrsi	x2,0x6c6,4
    8000101d:	6465                	.insn	2, 0x6465
    8000101f:	6d5f 7278 735f      	.insn	6, 0x735f72786d5f
    80001025:	7465                	.insn	2, 0x7465
	...

0000000080001028 <dtest_name_5>:
    80001028:	5f444953          	.insn	4, 0x5f444953
    8000102c:	3332                	.insn	2, 0x3332
    8000102e:	705f 5f6d 6e69      	.insn	6, 0x6e695f6d705f
    80001034:	6176                	.insn	2, 0x6176
    80001036:	696c                	.insn	2, 0x696c
    80001038:	6164                	.insn	2, 0x6164
    8000103a:	6974                	.insn	2, 0x6974
    8000103c:	695f6e6f          	jal	x28,800f7ed0 <code_super_99+0xed0>
    80001040:	736e                	.insn	2, 0x736e
    80001042:	7274                	.insn	2, 0x7274
    80001044:	6375                	.insn	2, 0x6375
    80001046:	6974                	.insn	2, 0x6974
    80001048:	00736e6f          	jal	x28,8003784e <__section__code_35+0x84e>

000000008000104c <dtest_name_6>:
    8000104c:	5f444953          	.insn	4, 0x5f444953
    80001050:	3432                	.insn	2, 0x3432
    80001052:	705f 5f6d 6e69      	.insn	6, 0x6e695f6d705f
    80001058:	75727473          	csrrci	x8,0x757,4
    8000105c:	6f697463          	bgeu	x18,x22,80001744 <scheduler__test_cleanup_ptr+0x5a8>
    80001060:	5f6e                	.insn	2, 0x5f6e
    80001062:	00746573          	csrrsi	x10,0x7,8

0000000080001066 <dtest_name_7>:
    80001066:	5f444953          	.insn	4, 0x5f444953
    8000106a:	3532                	.insn	2, 0x3532
    8000106c:	705f 5f6d 696d      	.insn	6, 0x696d5f6d705f
    80001072:	696c6173          	csrrsi	x2,0x696,24
    80001076:	64656e67          	.insn	4, 0x64656e67
    8000107a:	615f 6363 7365      	.insn	6, 0x73656363615f
    80001080:	          	.insn	4, 0x49530073

0000000080001082 <dtest_name_8>:
    80001082:	5f444953          	.insn	4, 0x5f444953
    80001086:	3632                	.insn	2, 0x3632
    80001088:	705f 5f6d 6964      	.insn	6, 0x69645f6d705f
    8000108e:	6666                	.insn	2, 0x6666
    80001090:	7265                	.insn	2, 0x7265
    80001092:	6e65                	.insn	2, 0x6e65
    80001094:	5f74                	.insn	2, 0x5f74
    80001096:	6174                	.insn	2, 0x6174
    80001098:	735f7367          	.insn	4, 0x735f7367
    8000109c:	6d61                	.insn	2, 0x6d61
    8000109e:	5f65                	.insn	2, 0x5f65
    800010a0:	6461                	.insn	2, 0x6461
    800010a2:	7264                	.insn	2, 0x7264
    800010a4:	7365                	.insn	2, 0x7365
    800010a6:	          	.insn	4, 0x49530073

00000000800010a8 <dtest_name_9>:
    800010a8:	5f444953          	.insn	4, 0x5f444953
    800010ac:	3732                	.insn	2, 0x3732
    800010ae:	705f 5f6d 6d69      	.insn	6, 0x6d695f6d705f
    800010b4:	6c70                	.insn	2, 0x6c70
    800010b6:	6369                	.insn	2, 0x6369
    800010b8:	7469                	.insn	2, 0x7469
    800010ba:	615f 6363 7365      	.insn	6, 0x73656363615f
    800010c0:	          	.insn	4, 0x49530073

00000000800010c2 <dtest_name_10>:
    800010c2:	5f444953          	.insn	4, 0x5f444953
    800010c6:	3832                	.insn	2, 0x3832
    800010c8:	705f 5f6d 6166      	.insn	6, 0x61665f6d705f
    800010ce:	6c75                	.insn	2, 0x6c75
    800010d0:	7374                	.insn	2, 0x7374
    800010d2:	745f 6172 5f70      	.insn	6, 0x5f706172745f
    800010d8:	6176                	.insn	2, 0x6176
    800010da:	756c                	.insn	2, 0x756c
    800010dc:	7365                	.insn	2, 0x7365
	...

00000000800010df <dtest_name_11>:
    800010df:	5f444953          	.insn	4, 0x5f444953
    800010e3:	3932                	.insn	2, 0x3932
    800010e5:	705f 5f6d 7478      	.insn	6, 0x74785f6d705f
    800010eb:	6576                	.insn	2, 0x6576
    800010ed:	61745f63          	bge	x8,x23,8000170b <scheduler__test_cleanup_ptr+0x56f>
    800010f1:	64656767          	.insn	4, 0x64656767
    800010f5:	615f 6464 6572      	.insn	6, 0x65726464615f
    800010fb:	00007373          	csrrci	x6,ustatus,0
	...

0000000080001100 <dtest_index_map>:
    80001100:	ffff                	.insn	2, 0xffff
    80001102:	ffff                	.insn	2, 0xffff
    80001104:	0000000b          	.insn	4, 0x000b
    80001108:	00000007          	vle8.v	v0,(x0),v0.t
    8000110c:	0000                	.insn	2, 0x0000
    8000110e:	0000                	.insn	2, 0x0000
    80001110:	000a                	.insn	2, 0x000a
    80001112:	0000                	.insn	2, 0x0000
    80001114:	0006                	.insn	2, 0x0006
    80001116:	0000                	.insn	2, 0x0000
    80001118:	0009                	.insn	2, 0x0009
    8000111a:	0000                	.insn	2, 0x0000
    8000111c:	00000007          	vle8.v	v0,(x0),v0.t
    80001120:	0005                	.insn	2, 0x0005
    80001122:	0000                	.insn	2, 0x0000
    80001124:	0000000b          	.insn	4, 0x000b
    80001128:	00000003          	lb	x0,0(x0) # 0 <ALL_4KB_PAGES>
    8000112c:	00000003          	lb	x0,0(x0) # 0 <ALL_4KB_PAGES>
    80001130:	0006                	.insn	2, 0x0006
    80001132:	0000                	.insn	2, 0x0000
    80001134:	0001                	.insn	2, 0x0001
    80001136:	0000                	.insn	2, 0x0000
    80001138:	0000                	.insn	2, 0x0000
    8000113a:	0000                	.insn	2, 0x0000
    8000113c:	00000003          	lb	x0,0(x0) # 0 <ALL_4KB_PAGES>
    80001140:	000a                	.insn	2, 0x000a
    80001142:	0000                	.insn	2, 0x0000
    80001144:	0000000b          	.insn	4, 0x000b
    80001148:	0009                	.insn	2, 0x0009
    8000114a:	0000                	.insn	2, 0x0000
    8000114c:	00000007          	vle8.v	v0,(x0),v0.t
    80001150:	0004                	.insn	2, 0x0004
    80001152:	0000                	.insn	2, 0x0000
    80001154:	0008                	.insn	2, 0x0008
    80001156:	0000                	.insn	2, 0x0000
    80001158:	0000                	.insn	2, 0x0000
    8000115a:	0000                	.insn	2, 0x0000
    8000115c:	0009                	.insn	2, 0x0009
    8000115e:	0000                	.insn	2, 0x0000
    80001160:	0001                	.insn	2, 0x0001
    80001162:	0000                	.insn	2, 0x0000
    80001164:	0002                	.insn	2, 0x0002
    80001166:	0000                	.insn	2, 0x0000
    80001168:	0008                	.insn	2, 0x0008
    8000116a:	0000                	.insn	2, 0x0000
    8000116c:	0004                	.insn	2, 0x0004
    8000116e:	0000                	.insn	2, 0x0000
    80001170:	0006                	.insn	2, 0x0006
    80001172:	0000                	.insn	2, 0x0000
    80001174:	0005                	.insn	2, 0x0005
    80001176:	0000                	.insn	2, 0x0000
    80001178:	0004                	.insn	2, 0x0004
    8000117a:	0000                	.insn	2, 0x0000
    8000117c:	0008                	.insn	2, 0x0008
    8000117e:	0000                	.insn	2, 0x0000
    80001180:	000a                	.insn	2, 0x000a
    80001182:	0000                	.insn	2, 0x0000
    80001184:	0002                	.insn	2, 0x0002
    80001186:	0000                	.insn	2, 0x0000
    80001188:	0005                	.insn	2, 0x0005
    8000118a:	0000                	.insn	2, 0x0000
    8000118c:	0001                	.insn	2, 0x0001
    8000118e:	0000                	.insn	2, 0x0000
    80001190:	0002                	.insn	2, 0x0002
	...

0000000080001194 <scheduler__test_setup_ptr>:
    80001194:	40d0                	.insn	2, 0x40d0
    80001196:	8001                	.insn	2, 0x8001
    80001198:	0000                	.insn	2, 0x0000
	...

000000008000119c <scheduler__test_cleanup_ptr>:
    8000119c:	4ce4                	.insn	2, 0x4ce4
    8000119e:	8001                	.insn	2, 0x8001
    800011a0:	0000                	.insn	2, 0x0000
	...

Disassembly of section .runtime_s:

0000000080010000 <trap_handler_s__invalid_interrupt>:
    80010000:	1740006f          	j	80010174 <trap_handler_s__test_failed>

0000000080010004 <trap_handler_s__clear_all_interrupts>:
    80010004:	14401073          	csrw	sip,x0
    80010008:	10200073          	sret

000000008001000c <trap_handler_s___CLEAR_SSI>:
    8001000c:	00200293          	li	x5,2
    80010010:	1442b073          	csrc	sip,x5
    80010014:	10200073          	sret

0000000080010018 <trap_handler_s___CLEAR_MSI>:
    80010018:	00800293          	li	x5,8
    8001001c:	1442b073          	csrc	sip,x5
    80010020:	10200073          	sret

0000000080010024 <trap_handler_s___CLEAR_STI>:
    80010024:	02000293          	li	x5,32
    80010028:	1442b073          	csrc	sip,x5
    8001002c:	10200073          	sret

0000000080010030 <trap_handler_s___CLEAR_MTI>:
    80010030:	08000293          	li	x5,128
    80010034:	1442b073          	csrc	sip,x5
    80010038:	10200073          	sret

000000008001003c <trap_handler_s___CLEAR_SEI>:
    8001003c:	20000293          	li	x5,512
    80010040:	1442b073          	csrc	sip,x5
    80010044:	10200073          	sret

0000000080010048 <trap_handler_s___CLEAR_MEI>:
    80010048:	000012b7          	lui	x5,0x1
    8001004c:	8002829b          	addiw	x5,x5,-2048 # 800 <FS_RANDOMIZATION+0x79c>
    80010050:	1442b073          	csrc	sip,x5
    80010054:	10200073          	sret

0000000080010058 <trap_handler_s___CLEAR_COI>:
    80010058:	000022b7          	lui	x5,0x2
    8001005c:	1442b073          	csrc	sip,x5
    80010060:	10200073          	sret

0000000080010064 <trap_handler_s__clear_highest_priority_interrupt>:
    80010064:	144022f3          	csrr	x5,sip
    80010068:	40500333          	neg	x6,x5
    8001006c:	0062f2b3          	and	x5,x5,x6
    80010070:	1442b073          	csrc	sip,x5
    80010074:	10200073          	sret

0000000080010078 <trap_handler_s__trap_entry>:
    80010078:	10c0006f          	j	80010184 <trap_handler_s__trap_handler>

000000008001007c <trap_handler_s__interrupt_vector_table>:
    8001007c:	f91ff06f          	j	8001000c <trap_handler_s___CLEAR_SSI>
    80010080:	f81ff06f          	j	80010000 <trap_handler_s__invalid_interrupt>
    80010084:	f95ff06f          	j	80010018 <trap_handler_s___CLEAR_MSI>
    80010088:	f79ff06f          	j	80010000 <trap_handler_s__invalid_interrupt>
    8001008c:	f99ff06f          	j	80010024 <trap_handler_s___CLEAR_STI>
    80010090:	f71ff06f          	j	80010000 <trap_handler_s__invalid_interrupt>
    80010094:	f9dff06f          	j	80010030 <trap_handler_s___CLEAR_MTI>
    80010098:	f69ff06f          	j	80010000 <trap_handler_s__invalid_interrupt>
    8001009c:	fa1ff06f          	j	8001003c <trap_handler_s___CLEAR_SEI>
    800100a0:	f61ff06f          	j	80010000 <trap_handler_s__invalid_interrupt>
    800100a4:	fa5ff06f          	j	80010048 <trap_handler_s___CLEAR_MEI>
    800100a8:	f59ff06f          	j	80010000 <trap_handler_s__invalid_interrupt>
    800100ac:	fadff06f          	j	80010058 <trap_handler_s___CLEAR_COI>
    800100b0:	f51ff06f          	j	80010000 <trap_handler_s__invalid_interrupt>
    800100b4:	f4dff06f          	j	80010000 <trap_handler_s__invalid_interrupt>
    800100b8:	fadff06f          	j	80010064 <trap_handler_s__clear_highest_priority_interrupt>
    800100bc:	fa9ff06f          	j	80010064 <trap_handler_s__clear_highest_priority_interrupt>
    800100c0:	fa5ff06f          	j	80010064 <trap_handler_s__clear_highest_priority_interrupt>
    800100c4:	fa1ff06f          	j	80010064 <trap_handler_s__clear_highest_priority_interrupt>
    800100c8:	f9dff06f          	j	80010064 <trap_handler_s__clear_highest_priority_interrupt>
    800100cc:	f99ff06f          	j	80010064 <trap_handler_s__clear_highest_priority_interrupt>
    800100d0:	f95ff06f          	j	80010064 <trap_handler_s__clear_highest_priority_interrupt>
    800100d4:	f91ff06f          	j	80010064 <trap_handler_s__clear_highest_priority_interrupt>
    800100d8:	f8dff06f          	j	80010064 <trap_handler_s__clear_highest_priority_interrupt>
    800100dc:	f89ff06f          	j	80010064 <trap_handler_s__clear_highest_priority_interrupt>
    800100e0:	f85ff06f          	j	80010064 <trap_handler_s__clear_highest_priority_interrupt>
    800100e4:	f81ff06f          	j	80010064 <trap_handler_s__clear_highest_priority_interrupt>
    800100e8:	f7dff06f          	j	80010064 <trap_handler_s__clear_highest_priority_interrupt>
    800100ec:	f79ff06f          	j	80010064 <trap_handler_s__clear_highest_priority_interrupt>
    800100f0:	f75ff06f          	j	80010064 <trap_handler_s__clear_highest_priority_interrupt>
    800100f4:	f71ff06f          	j	80010064 <trap_handler_s__clear_highest_priority_interrupt>
    800100f8:	f6dff06f          	j	80010064 <trap_handler_s__clear_highest_priority_interrupt>
    800100fc:	f69ff06f          	j	80010064 <trap_handler_s__clear_highest_priority_interrupt>
    80010100:	f65ff06f          	j	80010064 <trap_handler_s__clear_highest_priority_interrupt>
    80010104:	f61ff06f          	j	80010064 <trap_handler_s__clear_highest_priority_interrupt>
    80010108:	f5dff06f          	j	80010064 <trap_handler_s__clear_highest_priority_interrupt>
    8001010c:	f59ff06f          	j	80010064 <trap_handler_s__clear_highest_priority_interrupt>
    80010110:	f55ff06f          	j	80010064 <trap_handler_s__clear_highest_priority_interrupt>
    80010114:	f51ff06f          	j	80010064 <trap_handler_s__clear_highest_priority_interrupt>
    80010118:	f4dff06f          	j	80010064 <trap_handler_s__clear_highest_priority_interrupt>
    8001011c:	f49ff06f          	j	80010064 <trap_handler_s__clear_highest_priority_interrupt>
    80010120:	f45ff06f          	j	80010064 <trap_handler_s__clear_highest_priority_interrupt>
    80010124:	f41ff06f          	j	80010064 <trap_handler_s__clear_highest_priority_interrupt>
    80010128:	f3dff06f          	j	80010064 <trap_handler_s__clear_highest_priority_interrupt>
    8001012c:	f39ff06f          	j	80010064 <trap_handler_s__clear_highest_priority_interrupt>
    80010130:	f35ff06f          	j	80010064 <trap_handler_s__clear_highest_priority_interrupt>
    80010134:	f31ff06f          	j	80010064 <trap_handler_s__clear_highest_priority_interrupt>
    80010138:	f2dff06f          	j	80010064 <trap_handler_s__clear_highest_priority_interrupt>
    8001013c:	f29ff06f          	j	80010064 <trap_handler_s__clear_highest_priority_interrupt>
    80010140:	f25ff06f          	j	80010064 <trap_handler_s__clear_highest_priority_interrupt>
    80010144:	f21ff06f          	j	80010064 <trap_handler_s__clear_highest_priority_interrupt>
    80010148:	f1dff06f          	j	80010064 <trap_handler_s__clear_highest_priority_interrupt>
    8001014c:	f19ff06f          	j	80010064 <trap_handler_s__clear_highest_priority_interrupt>
    80010150:	f15ff06f          	j	80010064 <trap_handler_s__clear_highest_priority_interrupt>
    80010154:	f11ff06f          	j	80010064 <trap_handler_s__clear_highest_priority_interrupt>
    80010158:	f0dff06f          	j	80010064 <trap_handler_s__clear_highest_priority_interrupt>
    8001015c:	f09ff06f          	j	80010064 <trap_handler_s__clear_highest_priority_interrupt>
    80010160:	f05ff06f          	j	80010064 <trap_handler_s__clear_highest_priority_interrupt>
    80010164:	f01ff06f          	j	80010064 <trap_handler_s__clear_highest_priority_interrupt>
    80010168:	efdff06f          	j	80010064 <trap_handler_s__clear_highest_priority_interrupt>
    8001016c:	ef9ff06f          	j	80010064 <trap_handler_s__clear_highest_priority_interrupt>
    80010170:	ef5ff06f          	j	80010064 <trap_handler_s__clear_highest_priority_interrupt>

0000000080010174 <trap_handler_s__test_failed>:
    80010174:	00f00f9b          	addiw	x31,x0,15
    80010178:	01cf9f93          	slli	x31,x31,0x1c
    8001017c:	002f8f93          	addi	x31,x31,2
    80010180:	00000073          	ecall

0000000080010184 <trap_handler_s__trap_handler>:
    80010184:	142022f3          	csrr	x5,scause
    80010188:	fff0031b          	addiw	x6,x0,-1
    8001018c:	03f31313          	slli	x6,x6,0x3f
    80010190:	00537333          	and	x6,x6,x5
    80010194:	02030263          	beqz	x6,800101b8 <trap_handler_s__exception_path>

0000000080010198 <trap_handler_s__interrupt_handler>:
    80010198:	fff0031b          	addiw	x6,x0,-1
    8001019c:	03f31313          	slli	x6,x6,0x3f
    800101a0:	0062c2b3          	xor	x5,x5,x6
    800101a4:	00000317          	auipc	x6,0x0
    800101a8:	ed430313          	addi	x6,x6,-300 # 80010078 <trap_handler_s__trap_entry>
    800101ac:	00229293          	slli	x5,x5,0x2
    800101b0:	005302b3          	add	x5,x6,x5
    800101b4:	00028067          	jr	x5 # 2000 <FS_RANDOMIZATION+0x1f9c>

00000000800101b8 <trap_handler_s__exception_path>:
    800101b8:	14021273          	csrrw	x4,sscratch,x4
    800101bc:	00000297          	auipc	x5,0x0
    800101c0:	0cc28293          	addi	x5,x5,204 # 80010288 <trap_handler_s__trap_panic>
    800101c4:	10529073          	csrw	stvec,x5
    800101c8:	0040006f          	j	800101cc <trap_handler_s__excp_entry>

00000000800101cc <trap_handler_s__excp_entry>:
    800101cc:	14202373          	csrr	x6,scause
    800101d0:	00800293          	li	x5,8
    800101d4:	00534863          	blt	x6,x5,800101e4 <trap_handler_s__check_exception_label>
    800101d8:	00b00293          	li	x5,11
    800101dc:	0062c463          	blt	x5,x6,800101e4 <trap_handler_s__check_exception_label>
    800101e0:	0a80006f          	j	80010288 <trap_handler_s__trap_panic>

00000000800101e4 <trap_handler_s__check_exception_label>:
    800101e4:	04623c23          	sd	x6,88(x4) # 58 <XLEN+0x18>
    800101e8:	141022f3          	csrr	x5,sepc
    800101ec:	02523423          	sd	x5,40(x4) # 28 <SECURE_ACCESS_PROBABILITY+0xa>
    800101f0:	01820283          	lb	x5,24(x4) # 18 <STORE_GUEST_PAGE_FAULT+0x1>
    800101f4:	00029863          	bnez	x5,80010204 <trap_handler_s__check_excp>
    800101f8:	00128293          	addi	x5,x5,1
    800101fc:	00520c23          	sb	x5,24(x4) # 18 <STORE_GUEST_PAGE_FAULT+0x1>
    80010200:	05c0006f          	j	8001025c <trap_handler_s__ecall_from_machine>

0000000080010204 <trap_handler_s__check_excp>:
    80010204:	06820293          	addi	x5,x4,104 # 68 <FS_RANDOMIZATION+0x4>
    80010208:	0802b2af          	amoswap.d	x5,x0,(x5)
    8001020c:	00028663          	beqz	x5,80010218 <trap_handler_s__skip_mode_check>
    80010210:	00300393          	li	x7,3
    80010214:	f67290e3          	bne	x5,x7,80010174 <trap_handler_s__test_failed>

0000000080010218 <trap_handler_s__skip_mode_check>:
    80010218:	05020293          	addi	x5,x4,80 # 50 <XLEN+0x10>
    8001021c:	0802b2af          	amoswap.d	x5,x0,(x5)
    80010220:	f4531ae3          	bne	x6,x5,80010174 <trap_handler_s__test_failed>
    80010224:	03820293          	addi	x5,x4,56 # 38 <SECURE_ACCESS_PROBABILITY+0x1a>
    80010228:	0802b2af          	amoswap.d	x5,x0,(x5)
    8001022c:	02029663          	bnez	x5,80010258 <trap_handler_s__skip_nonzero_tval_check>
    80010230:	02020313          	addi	x6,x4,32 # 20 <SECURE_ACCESS_PROBABILITY+0x2>
    80010234:	0803332f          	amoswap.d	x6,x0,(x6)
    80010238:	02820293          	addi	x5,x4,40 # 28 <SECURE_ACCESS_PROBABILITY+0xa>
    8001023c:	0802b2af          	amoswap.d	x5,x0,(x5)
    80010240:	f2531ae3          	bne	x6,x5,80010174 <trap_handler_s__test_failed>
    80010244:	04020293          	addi	x5,x4,64 # 40 <XLEN>
    80010248:	0802b2af          	amoswap.d	x5,x0,(x5)
    8001024c:	00028663          	beqz	x5,80010258 <trap_handler_s__skip_nonzero_tval_check>

0000000080010250 <trap_handler_s__nonzero_tval_check>:
    80010250:	14302373          	csrr	x6,stval
    80010254:	f25310e3          	bne	x6,x5,80010174 <trap_handler_s__test_failed>

0000000080010258 <trap_handler_s__skip_nonzero_tval_check>:
    80010258:	0040006f          	j	8001025c <trap_handler_s__ecall_from_machine>

000000008001025c <trap_handler_s__ecall_from_machine>:
    8001025c:	03020293          	addi	x5,x4,48 # 30 <SECURE_ACCESS_PROBABILITY+0x12>
    80010260:	0802b2af          	amoswap.d	x5,x0,(x5)
    80010264:	07020313          	addi	x6,x4,112 # 70 <FS_RANDOMIZATION+0xc>
    80010268:	0803332f          	amoswap.d	x6,x0,(x6)
    8001026c:	00031463          	bnez	x6,80010274 <trap_handler_s__skip_xepc_write>
    80010270:	14129073          	csrw	sepc,x5

0000000080010274 <trap_handler_s__skip_xepc_write>:
    80010274:	00000317          	auipc	x6,0x0
    80010278:	e0430313          	addi	x6,x6,-508 # 80010078 <trap_handler_s__trap_entry>
    8001027c:	10531073          	csrw	stvec,x6
    80010280:	14021273          	csrrw	x4,sscratch,x4
    80010284:	10200073          	sret

0000000080010288 <trap_handler_s__trap_panic>:
    80010288:	00000193          	li	x3,0
    8001028c:	00f00f9b          	addiw	x31,x0,15
    80010290:	01cf9f93          	slli	x31,x31,0x1c
    80010294:	002f8f93          	addi	x31,x31,2
    80010298:	00000073          	ecall

Disassembly of section .code:

00000000800140a0 <passed>:
    800140a0:	00f00f9b          	addiw	x31,x0,15
    800140a4:	01cf9f93          	slli	x31,x31,0x1c
    800140a8:	001f8f93          	addi	x31,x31,1
    800140ac:	00000073          	ecall

00000000800140b0 <failed>:
    800140b0:	00f00f9b          	addiw	x31,x0,15
    800140b4:	01cf9f93          	slli	x31,x31,0x1c
    800140b8:	002f8f93          	addi	x31,x31,2
    800140bc:	00000073          	ecall

00000000800140c0 <end_test>:
    800140c0:	00f00f9b          	addiw	x31,x0,15
    800140c4:	01cf9f93          	slli	x31,x31,0x1c
    800140c8:	003f8f93          	addi	x31,x31,3
    800140cc:	00000073          	ecall

00000000800140d0 <test_setup>:
    800140d0:	00f00f9b          	addiw	x31,x0,15
    800140d4:	01cf9f93          	slli	x31,x31,0x1c
    800140d8:	001f8f93          	addi	x31,x31,1
    800140dc:	00000073          	ecall

00000000800140e0 <SID_01_senvcfg_pmm_warl>:
    800140e0:	0003c137          	lui	x2,0x3c
    800140e4:	7231011b          	addiw	x2,x2,1827 # 3c723 <_all_interrupts+0x39c79>
    800140e8:	00e11113          	slli	x2,x2,0xe
    800140ec:	00080fb7          	lui	x31,0x80
    800140f0:	0a0f8f9b          	addiw	x31,x31,160 # 800a0 <machine_csr_jump_table_flags>
    800140f4:	00100f13          	li	x30,1
    800140f8:	01efb023          	sd	x30,0(x31)
    800140fc:	000f0fb7          	lui	x31,0xf0
    80014100:	001f8f9b          	addiw	x31,x31,1 # f0001 <mem2+0x4c001>
    80014104:	00cf9f93          	slli	x31,x31,0xc
    80014108:	005f8f93          	addi	x31,x31,5
    8001410c:	00000073          	ecall
    80014110:	00713023          	sd	x7,0(x2)
    80014114:	00131137          	lui	x2,0x131
    80014118:	9911011b          	addiw	x2,x2,-1647 # 130991 <mem2+0x8c991>
    8001411c:	00c11113          	slli	x2,x2,0xc
    80014120:	000012b7          	lui	x5,0x1
    80014124:	00510133          	add	x2,x2,x5
    80014128:	ff017113          	andi	x2,x2,-16
    8001412c:	10a02af3          	csrr	x21,0x10a
    80014130:	020adf93          	srli	x31,x21,0x20
    80014134:	003ffa13          	andi	x20,x31,3
    80014138:	00100b9b          	addiw	x23,x0,1
    8001413c:	020b9b93          	slli	x23,x23,0x20
    80014140:	10ab9ef3          	csrrw	x29,0x10a,x23
    80014144:	10a02973          	csrr	x18,0x10a
    80014148:	02095913          	srli	x18,x18,0x20
    8001414c:	00397613          	andi	x12,x18,3
    80014150:	00100493          	li	x9,1
    80014154:	00961a63          	bne	x12,x9,80014168 <pass_label_0>
    80014158:	00080db7          	lui	x27,0x80
    8001415c:	008d8d9b          	addiw	x27,x27,8 # 80008 <failed_addr>
    80014160:	000db303          	ld	x6,0(x27)
    80014164:	00030067          	jr	x6

0000000080014168 <pass_label_0>:
    80014168:	0003c137          	lui	x2,0x3c
    8001416c:	7231011b          	addiw	x2,x2,1827 # 3c723 <_all_interrupts+0x39c79>
    80014170:	00e11113          	slli	x2,x2,0xe
    80014174:	00013383          	ld	x7,0(x2)
    80014178:	00080fb7          	lui	x31,0x80
    8001417c:	0a0f8f9b          	addiw	x31,x31,160 # 800a0 <machine_csr_jump_table_flags>
    80014180:	00200f13          	li	x30,2
    80014184:	01efb023          	sd	x30,0(x31)
    80014188:	000f0fb7          	lui	x31,0xf0
    8001418c:	001f8f9b          	addiw	x31,x31,1 # f0001 <mem2+0x4c001>
    80014190:	00cf9f93          	slli	x31,x31,0xc
    80014194:	005f8f93          	addi	x31,x31,5
    80014198:	00000073          	ecall

000000008001419c <SID_01_senvcfg_pmm_warl_passed>:
    8001419c:	00f00f9b          	addiw	x31,x0,15
    800141a0:	01cf9f93          	slli	x31,x31,0x1c
    800141a4:	001f8f93          	addi	x31,x31,1
    800141a8:	00000073          	ecall

00000000800141ac <SID_02_henvcfg_hstatus_pmm_warl>:
    800141ac:	0003c137          	lui	x2,0x3c
    800141b0:	7231011b          	addiw	x2,x2,1827 # 3c723 <_all_interrupts+0x39c79>
    800141b4:	00e11113          	slli	x2,x2,0xe
    800141b8:	00080fb7          	lui	x31,0x80
    800141bc:	0a0f8f9b          	addiw	x31,x31,160 # 800a0 <machine_csr_jump_table_flags>
    800141c0:	00300f13          	li	x30,3
    800141c4:	01efb023          	sd	x30,0(x31)
    800141c8:	000f0fb7          	lui	x31,0xf0
    800141cc:	001f8f9b          	addiw	x31,x31,1 # f0001 <mem2+0x4c001>
    800141d0:	00cf9f93          	slli	x31,x31,0xc
    800141d4:	005f8f93          	addi	x31,x31,5
    800141d8:	00000073          	ecall
    800141dc:	00713023          	sd	x7,0(x2)
    800141e0:	00080fb7          	lui	x31,0x80
    800141e4:	0a0f8f9b          	addiw	x31,x31,160 # 800a0 <machine_csr_jump_table_flags>
    800141e8:	00400f13          	li	x30,4
    800141ec:	01efb023          	sd	x30,0(x31)
    800141f0:	000f0fb7          	lui	x31,0xf0
    800141f4:	001f8f9b          	addiw	x31,x31,1 # f0001 <mem2+0x4c001>
    800141f8:	00cf9f93          	slli	x31,x31,0xc
    800141fc:	005f8f93          	addi	x31,x31,5
    80014200:	00000073          	ecall
    80014204:	00713423          	sd	x7,8(x2)
    80014208:	034e1137          	lui	x2,0x34e1
    8001420c:	000012b7          	lui	x5,0x1
    80014210:	00510133          	add	x2,x2,x5
    80014214:	ff017113          	andi	x2,x2,-16
    80014218:	60a02973          	csrr	x18,henvcfg
    8001421c:	00100a1b          	addiw	x20,x0,1
    80014220:	020a1a13          	slli	x20,x20,0x20
    80014224:	60aa1df3          	csrrw	x27,henvcfg,x20
    80014228:	60a02a73          	csrr	x20,henvcfg
    8001422c:	020a5d93          	srli	x27,x20,0x20
    80014230:	003df313          	andi	x6,x27,3
    80014234:	00100913          	li	x18,1
    80014238:	01231a63          	bne	x6,x18,8001424c <pass_label_1>
    8001423c:	00080bb7          	lui	x23,0x80
    80014240:	008b8b9b          	addiw	x23,x23,8 # 80008 <failed_addr>
    80014244:	000bb783          	ld	x15,0(x23)
    80014248:	00078067          	jr	x15

000000008001424c <pass_label_1>:
    8001424c:	60002bf3          	csrr	x23,hstatus
    80014250:	0010071b          	addiw	x14,x0,1
    80014254:	03071713          	slli	x14,x14,0x30
    80014258:	60071ff3          	csrrw	x31,hstatus,x14
    8001425c:	60002573          	csrr	x10,hstatus
    80014260:	03055b13          	srli	x22,x10,0x30
    80014264:	003b7393          	andi	x7,x22,3
    80014268:	01239a63          	bne	x7,x18,8001427c <pass_label_2>
    8001426c:	00080437          	lui	x8,0x80
    80014270:	0084041b          	addiw	x8,x8,8 # 80008 <failed_addr>
    80014274:	00043483          	ld	x9,0(x8)
    80014278:	00048067          	jr	x9

000000008001427c <pass_label_2>:
    8001427c:	0003c137          	lui	x2,0x3c
    80014280:	7231011b          	addiw	x2,x2,1827 # 3c723 <_all_interrupts+0x39c79>
    80014284:	00e11113          	slli	x2,x2,0xe
    80014288:	00013383          	ld	x7,0(x2)
    8001428c:	00080fb7          	lui	x31,0x80
    80014290:	0a0f8f9b          	addiw	x31,x31,160 # 800a0 <machine_csr_jump_table_flags>
    80014294:	00500f13          	li	x30,5
    80014298:	01efb023          	sd	x30,0(x31)
    8001429c:	000f0fb7          	lui	x31,0xf0
    800142a0:	001f8f9b          	addiw	x31,x31,1 # f0001 <mem2+0x4c001>
    800142a4:	00cf9f93          	slli	x31,x31,0xc
    800142a8:	005f8f93          	addi	x31,x31,5
    800142ac:	00000073          	ecall
    800142b0:	00813383          	ld	x7,8(x2)
    800142b4:	00080fb7          	lui	x31,0x80
    800142b8:	0a0f8f9b          	addiw	x31,x31,160 # 800a0 <machine_csr_jump_table_flags>
    800142bc:	00600f13          	li	x30,6
    800142c0:	01efb023          	sd	x30,0(x31)
    800142c4:	000f0fb7          	lui	x31,0xf0
    800142c8:	001f8f9b          	addiw	x31,x31,1 # f0001 <mem2+0x4c001>
    800142cc:	00cf9f93          	slli	x31,x31,0xc
    800142d0:	005f8f93          	addi	x31,x31,5
    800142d4:	00000073          	ecall

00000000800142d8 <SID_02_henvcfg_hstatus_pmm_warl_passed>:
    800142d8:	00f00f9b          	addiw	x31,x0,15
    800142dc:	01cf9f93          	slli	x31,x31,0x1c
    800142e0:	001f8f93          	addi	x31,x31,1
    800142e4:	00000073          	ecall

00000000800142e8 <SID_07_pm_disabled_s_hs_mode>:
    800142e8:	0003c137          	lui	x2,0x3c
    800142ec:	7231011b          	addiw	x2,x2,1827 # 3c723 <_all_interrupts+0x39c79>
    800142f0:	00e11113          	slli	x2,x2,0xe
    800142f4:	00080fb7          	lui	x31,0x80
    800142f8:	0a0f8f9b          	addiw	x31,x31,160 # 800a0 <machine_csr_jump_table_flags>
    800142fc:	00700f13          	li	x30,7
    80014300:	01efb023          	sd	x30,0(x31)
    80014304:	000f0fb7          	lui	x31,0xf0
    80014308:	001f8f9b          	addiw	x31,x31,1 # f0001 <mem2+0x4c001>
    8001430c:	00cf9f93          	slli	x31,x31,0xc
    80014310:	005f8f93          	addi	x31,x31,5
    80014314:	00000073          	ecall
    80014318:	00713023          	sd	x7,0(x2)
    8001431c:	07bce137          	lui	x2,0x7bce
    80014320:	000012b7          	lui	x5,0x1
    80014324:	00510133          	add	x2,x2,x5
    80014328:	ff017113          	andi	x2,x2,-16
    8001432c:	0030039b          	addiw	x7,x0,3
    80014330:	02039393          	slli	x7,x7,0x20
    80014334:	00080fb7          	lui	x31,0x80
    80014338:	0a0f8f9b          	addiw	x31,x31,160 # 800a0 <machine_csr_jump_table_flags>
    8001433c:	00800f13          	li	x30,8
    80014340:	01efb023          	sd	x30,0(x31)
    80014344:	000f0fb7          	lui	x31,0xf0
    80014348:	001f8f9b          	addiw	x31,x31,1 # f0001 <mem2+0x4c001>
    8001434c:	00cf9f93          	slli	x31,x31,0xc
    80014350:	005f8f93          	addi	x31,x31,5
    80014354:	00000073          	ecall
    80014358:	00008e37          	lui	x28,0x8
    8001435c:	f77e0e1b          	addiw	x28,x28,-137 # 7f77 <_all_interrupts+0x54cd>
    80014360:	011e1e13          	slli	x28,x28,0x11
    80014364:	acee0e13          	addi	x28,x28,-1330
    80014368:	00fde6b7          	lui	x13,0xfde
    8001436c:	f396869b          	addiw	x13,x13,-199 # fddf39 <__section_data_1+0x118f39>
    80014370:	00c69693          	slli	x13,x13,0xc
    80014374:	d00e7753          	fcvt.s.w	f14,x28
    80014378:	00e6a027          	fsw	f14,0(x13)
    8001437c:	00fde3b7          	lui	x7,0xfde
    80014380:	f393839b          	addiw	x7,x7,-199 # fddf39 <__section_data_1+0x118f39>
    80014384:	00c39393          	slli	x7,x7,0xc
    80014388:	fff0031b          	addiw	x6,x0,-1
    8001438c:	03931313          	slli	x6,x6,0x39
    80014390:	0063ccb3          	xor	x25,x7,x6
    80014394:	00364237          	lui	x4,0x364
    80014398:	ddb2021b          	addiw	x4,x4,-549 # 363ddb <mem1+0x12dddb>
    8001439c:	00d21213          	slli	x4,x4,0xd
    800143a0:	00d00e13          	li	x28,13
    800143a4:	05c23823          	sd	x28,80(x4) # 50 <XLEN+0x10>
    800143a8:	00000e17          	auipc	x28,0x0
    800143ac:	048e0e13          	addi	x28,x28,72 # 800143f0 <fault_label_0>
    800143b0:	03c23023          	sd	x28,32(x4) # 20 <SECURE_ACCESS_PROBABILITY+0x2>
    800143b4:	00000e13          	li	x28,0
    800143b8:	05c23023          	sd	x28,64(x4) # 40 <XLEN>
    800143bc:	00000e13          	li	x28,0
    800143c0:	05c23423          	sd	x28,72(x4) # 48 <XLEN+0x8>
    800143c4:	00000e17          	auipc	x28,0x0
    800143c8:	040e0e13          	addi	x28,x28,64 # 80014404 <excp_return_label_0>
    800143cc:	03c23823          	sd	x28,48(x4) # 30 <SECURE_ACCESS_PROBABILITY+0x12>
    800143d0:	00000e13          	li	x28,0
    800143d4:	03c23c23          	sd	x28,56(x4) # 38 <SECURE_ACCESS_PROBABILITY+0x1a>
    800143d8:	00000e13          	li	x28,0
    800143dc:	07c23023          	sd	x28,96(x4) # 60 <XLEN+0x20>
    800143e0:	00000e13          	li	x28,0
    800143e4:	07c23423          	sd	x28,104(x4) # 68 <FS_RANDOMIZATION+0x4>
    800143e8:	00000e13          	li	x28,0
    800143ec:	07c23823          	sd	x28,112(x4) # 70 <FS_RANDOMIZATION+0xc>

00000000800143f0 <fault_label_0>:
    800143f0:	000cb803          	ld	x16,0(x25)
    800143f4:	00080cb7          	lui	x25,0x80
    800143f8:	008c8c9b          	addiw	x25,x25,8 # 80008 <failed_addr>
    800143fc:	000cbc03          	ld	x24,0(x25)
    80014400:	000c0067          	jr	x24

0000000080014404 <excp_return_label_0>:
    80014404:	0003c137          	lui	x2,0x3c
    80014408:	7231011b          	addiw	x2,x2,1827 # 3c723 <_all_interrupts+0x39c79>
    8001440c:	00e11113          	slli	x2,x2,0xe
    80014410:	00013383          	ld	x7,0(x2)
    80014414:	00080fb7          	lui	x31,0x80
    80014418:	0a0f8f9b          	addiw	x31,x31,160 # 800a0 <machine_csr_jump_table_flags>
    8001441c:	00900f13          	li	x30,9
    80014420:	01efb023          	sd	x30,0(x31)
    80014424:	000f0fb7          	lui	x31,0xf0
    80014428:	001f8f9b          	addiw	x31,x31,1 # f0001 <mem2+0x4c001>
    8001442c:	00cf9f93          	slli	x31,x31,0xc
    80014430:	005f8f93          	addi	x31,x31,5
    80014434:	00000073          	ecall

0000000080014438 <SID_07_pm_disabled_s_hs_mode_passed>:
    80014438:	00f00f9b          	addiw	x31,x0,15
    8001443c:	01cf9f93          	slli	x31,x31,0x1c
    80014440:	001f8f93          	addi	x31,x31,1
    80014444:	00000073          	ecall

0000000080014448 <SID_11_pm_enabled_s_hs_mode>:
    80014448:	0003c137          	lui	x2,0x3c
    8001444c:	7231011b          	addiw	x2,x2,1827 # 3c723 <_all_interrupts+0x39c79>
    80014450:	00e11113          	slli	x2,x2,0xe
    80014454:	00080fb7          	lui	x31,0x80
    80014458:	0a0f8f9b          	addiw	x31,x31,160 # 800a0 <machine_csr_jump_table_flags>
    8001445c:	00700f13          	li	x30,7
    80014460:	01efb023          	sd	x30,0(x31)
    80014464:	000f0fb7          	lui	x31,0xf0
    80014468:	001f8f9b          	addiw	x31,x31,1 # f0001 <mem2+0x4c001>
    8001446c:	00cf9f93          	slli	x31,x31,0xc
    80014470:	005f8f93          	addi	x31,x31,5
    80014474:	00000073          	ecall
    80014478:	00713023          	sd	x7,0(x2)
    8001447c:	001b4137          	lui	x2,0x1b4
    80014480:	c891011b          	addiw	x2,x2,-887 # 1b3c89 <code_mem8+0x7c89>
    80014484:	00e11113          	slli	x2,x2,0xe
    80014488:	000012b7          	lui	x5,0x1
    8001448c:	00510133          	add	x2,x2,x5
    80014490:	ff017113          	andi	x2,x2,-16
    80014494:	0010039b          	addiw	x7,x0,1
    80014498:	02139393          	slli	x7,x7,0x21
    8001449c:	00080fb7          	lui	x31,0x80
    800144a0:	0a0f8f9b          	addiw	x31,x31,160 # 800a0 <machine_csr_jump_table_flags>
    800144a4:	00b00f13          	li	x30,11
    800144a8:	01efb023          	sd	x30,0(x31)
    800144ac:	000f0fb7          	lui	x31,0xf0
    800144b0:	001f8f9b          	addiw	x31,x31,1 # f0001 <mem2+0x4c001>
    800144b4:	00cf9f93          	slli	x31,x31,0xc
    800144b8:	005f8f93          	addi	x31,x31,5
    800144bc:	00000073          	ecall
    800144c0:	12345e37          	lui	x28,0x12345
    800144c4:	678e0e1b          	addiw	x28,x28,1656 # 12345678 <maplic_255+0x1a46678>
    800144c8:	00236737          	lui	x14,0x236
    800144cc:	01c72023          	sw	x28,0(x14) # 236000 <mem1>
    800144d0:	00236e37          	lui	x28,0x236
    800144d4:	fff00b1b          	addiw	x22,x0,-1
    800144d8:	039b1b13          	slli	x22,x22,0x39
    800144dc:	016e48b3          	xor	x17,x28,x22
    800144e0:	0008b303          	ld	x6,0(x17)
    800144e4:	000acc37          	lui	x24,0xac
    800144e8:	cdfc0c1b          	addiw	x24,x24,-801 # abcdf <mem2+0x7cdf>
    800144ec:	00cc1c13          	slli	x24,x24,0xc
    800144f0:	f00c0c13          	addi	x24,x24,-256
    800144f4:	01889023          	sh	x24,0(x17)
    800144f8:	00236f37          	lui	x30,0x236
    800144fc:	000f3e03          	ld	x28,0(x30) # 236000 <mem1>
    80014500:	0003c137          	lui	x2,0x3c
    80014504:	7231011b          	addiw	x2,x2,1827 # 3c723 <_all_interrupts+0x39c79>
    80014508:	00e11113          	slli	x2,x2,0xe
    8001450c:	00013383          	ld	x7,0(x2)
    80014510:	00080fb7          	lui	x31,0x80
    80014514:	0a0f8f9b          	addiw	x31,x31,160 # 800a0 <machine_csr_jump_table_flags>
    80014518:	00900f13          	li	x30,9
    8001451c:	01efb023          	sd	x30,0(x31)
    80014520:	000f0fb7          	lui	x31,0xf0
    80014524:	001f8f9b          	addiw	x31,x31,1 # f0001 <mem2+0x4c001>
    80014528:	00cf9f93          	slli	x31,x31,0xc
    8001452c:	005f8f93          	addi	x31,x31,5
    80014530:	00000073          	ecall

0000000080014534 <SID_11_pm_enabled_s_hs_mode_passed>:
    80014534:	00f00f9b          	addiw	x31,x0,15
    80014538:	01cf9f93          	slli	x31,x31,0x1c
    8001453c:	001f8f93          	addi	x31,x31,1
    80014540:	00000073          	ecall

0000000080014544 <SID_22_pm_disabled_mxr_set>:
    80014544:	0003c137          	lui	x2,0x3c
    80014548:	7231011b          	addiw	x2,x2,1827 # 3c723 <_all_interrupts+0x39c79>
    8001454c:	00e11113          	slli	x2,x2,0xe
    80014550:	00080fb7          	lui	x31,0x80
    80014554:	0a0f8f9b          	addiw	x31,x31,160 # 800a0 <machine_csr_jump_table_flags>
    80014558:	00d00f13          	li	x30,13
    8001455c:	01efb023          	sd	x30,0(x31)
    80014560:	000f0fb7          	lui	x31,0xf0
    80014564:	001f8f9b          	addiw	x31,x31,1 # f0001 <mem2+0x4c001>
    80014568:	00cf9f93          	slli	x31,x31,0xc
    8001456c:	005f8f93          	addi	x31,x31,5
    80014570:	00000073          	ecall
    80014574:	00713023          	sd	x7,0(x2)
    80014578:	00080fb7          	lui	x31,0x80
    8001457c:	0a0f8f9b          	addiw	x31,x31,160 # 800a0 <machine_csr_jump_table_flags>
    80014580:	00100f13          	li	x30,1
    80014584:	01efb023          	sd	x30,0(x31)
    80014588:	000f0fb7          	lui	x31,0xf0
    8001458c:	001f8f9b          	addiw	x31,x31,1 # f0001 <mem2+0x4c001>
    80014590:	00cf9f93          	slli	x31,x31,0xc
    80014594:	005f8f93          	addi	x31,x31,5
    80014598:	00000073          	ecall
    8001459c:	00713423          	sd	x7,8(x2)
    800145a0:	ff315137          	lui	x2,0xff315
    800145a4:	10b1011b          	addiw	x2,x2,267 # ffffffffff31510b <SID_22_pm_disabled_mxr_set_stack+0xcea20a10b>
    800145a8:	00c11113          	slli	x2,x2,0xc
    800145ac:	000012b7          	lui	x5,0x1
    800145b0:	00510133          	add	x2,x2,x5
    800145b4:	ff017113          	andi	x2,x2,-16
    800145b8:	00100d1b          	addiw	x26,x0,1
    800145bc:	021d1d13          	slli	x26,x26,0x21
    800145c0:	10ad2f73          	csrrs	x30,0x10a,x26
    800145c4:	000807b7          	lui	x15,0x80
    800145c8:	00078393          	mv	x7,x15
    800145cc:	00080fb7          	lui	x31,0x80
    800145d0:	0a0f8f9b          	addiw	x31,x31,160 # 800a0 <machine_csr_jump_table_flags>
    800145d4:	00f00f13          	li	x30,15
    800145d8:	01efb023          	sd	x30,0(x31)
    800145dc:	000f0fb7          	lui	x31,0xf0
    800145e0:	001f8f9b          	addiw	x31,x31,1 # f0001 <mem2+0x4c001>
    800145e4:	00cf9f93          	slli	x31,x31,0xc
    800145e8:	005f8f93          	addi	x31,x31,5
    800145ec:	00000073          	ecall
    800145f0:	12345537          	lui	x10,0x12345
    800145f4:	6785051b          	addiw	x10,x10,1656 # 12345678 <maplic_255+0x1a46678>
    800145f8:	000a47b7          	lui	x15,0xa4
    800145fc:	00a78023          	sb	x10,0(x15) # a4000 <mem2>
    80014600:	000a49b7          	lui	x19,0xa4
    80014604:	fff0051b          	addiw	x10,x0,-1
    80014608:	03951513          	slli	x10,x10,0x39
    8001460c:	00a9c533          	xor	x10,x19,x10
    80014610:	00364237          	lui	x4,0x364
    80014614:	ddb2021b          	addiw	x4,x4,-549 # 363ddb <mem1+0x12dddb>
    80014618:	00d21213          	slli	x4,x4,0xd
    8001461c:	00d00e13          	li	x28,13
    80014620:	05c23823          	sd	x28,80(x4) # 50 <XLEN+0x10>
    80014624:	00000e17          	auipc	x28,0x0
    80014628:	048e0e13          	addi	x28,x28,72 # 8001466c <fault_label_1>
    8001462c:	03c23023          	sd	x28,32(x4) # 20 <SECURE_ACCESS_PROBABILITY+0x2>
    80014630:	00000e13          	li	x28,0
    80014634:	05c23023          	sd	x28,64(x4) # 40 <XLEN>
    80014638:	00000e13          	li	x28,0
    8001463c:	05c23423          	sd	x28,72(x4) # 48 <XLEN+0x8>
    80014640:	00000e17          	auipc	x28,0x0
    80014644:	040e0e13          	addi	x28,x28,64 # 80014680 <excp_return_label_1>
    80014648:	03c23823          	sd	x28,48(x4) # 30 <SECURE_ACCESS_PROBABILITY+0x12>
    8001464c:	00000e13          	li	x28,0
    80014650:	03c23c23          	sd	x28,56(x4) # 38 <SECURE_ACCESS_PROBABILITY+0x1a>
    80014654:	00000e13          	li	x28,0
    80014658:	07c23023          	sd	x28,96(x4) # 60 <XLEN+0x20>
    8001465c:	00000e13          	li	x28,0
    80014660:	07c23423          	sd	x28,104(x4) # 68 <FS_RANDOMIZATION+0x4>
    80014664:	00000e13          	li	x28,0
    80014668:	07c23823          	sd	x28,112(x4) # 70 <FS_RANDOMIZATION+0xc>

000000008001466c <fault_label_1>:
    8001466c:	00053d83          	ld	x27,0(x10)
    80014670:	00080bb7          	lui	x23,0x80
    80014674:	008b8b9b          	addiw	x23,x23,8 # 80008 <failed_addr>
    80014678:	000bbe83          	ld	x29,0(x23)
    8001467c:	000e8067          	jr	x29

0000000080014680 <excp_return_label_1>:
    80014680:	0003c137          	lui	x2,0x3c
    80014684:	7231011b          	addiw	x2,x2,1827 # 3c723 <_all_interrupts+0x39c79>
    80014688:	00e11113          	slli	x2,x2,0xe
    8001468c:	00013383          	ld	x7,0(x2)
    80014690:	00080fb7          	lui	x31,0x80
    80014694:	0a0f8f9b          	addiw	x31,x31,160 # 800a0 <machine_csr_jump_table_flags>
    80014698:	01000f13          	li	x30,16
    8001469c:	01efb023          	sd	x30,0(x31)
    800146a0:	000f0fb7          	lui	x31,0xf0
    800146a4:	001f8f9b          	addiw	x31,x31,1 # f0001 <mem2+0x4c001>
    800146a8:	00cf9f93          	slli	x31,x31,0xc
    800146ac:	005f8f93          	addi	x31,x31,5
    800146b0:	00000073          	ecall
    800146b4:	00813383          	ld	x7,8(x2)
    800146b8:	00080fb7          	lui	x31,0x80
    800146bc:	0a0f8f9b          	addiw	x31,x31,160 # 800a0 <machine_csr_jump_table_flags>
    800146c0:	00200f13          	li	x30,2
    800146c4:	01efb023          	sd	x30,0(x31)
    800146c8:	000f0fb7          	lui	x31,0xf0
    800146cc:	001f8f9b          	addiw	x31,x31,1 # f0001 <mem2+0x4c001>
    800146d0:	00cf9f93          	slli	x31,x31,0xc
    800146d4:	005f8f93          	addi	x31,x31,5
    800146d8:	00000073          	ecall

00000000800146dc <SID_22_pm_disabled_mxr_set_passed>:
    800146dc:	00f00f9b          	addiw	x31,x0,15
    800146e0:	01cf9f93          	slli	x31,x31,0x1c
    800146e4:	001f8f93          	addi	x31,x31,1
    800146e8:	00000073          	ecall

00000000800146ec <SID_23_pm_invalidation_instructions>:
    800146ec:	0003c137          	lui	x2,0x3c
    800146f0:	7231011b          	addiw	x2,x2,1827 # 3c723 <_all_interrupts+0x39c79>
    800146f4:	00e11113          	slli	x2,x2,0xe
    800146f8:	00080fb7          	lui	x31,0x80
    800146fc:	0a0f8f9b          	addiw	x31,x31,160 # 800a0 <machine_csr_jump_table_flags>
    80014700:	00100f13          	li	x30,1
    80014704:	01efb023          	sd	x30,0(x31)
    80014708:	000f0fb7          	lui	x31,0xf0
    8001470c:	001f8f9b          	addiw	x31,x31,1 # f0001 <mem2+0x4c001>
    80014710:	00cf9f93          	slli	x31,x31,0xc
    80014714:	005f8f93          	addi	x31,x31,5
    80014718:	00000073          	ecall
    8001471c:	00713023          	sd	x7,0(x2)
    80014720:	00c4d137          	lui	x2,0xc4d
    80014724:	000012b7          	lui	x5,0x1
    80014728:	00510133          	add	x2,x2,x5
    8001472c:	ff017113          	andi	x2,x2,-16
    80014730:	0010079b          	addiw	x15,x0,1
    80014734:	02179793          	slli	x15,x15,0x21
    80014738:	10a7acf3          	csrrs	x25,0x10a,x15
    8001473c:	000acb37          	lui	x22,0xac
    80014740:	cd1b0b1b          	addiw	x22,x22,-815 # abcd1 <mem2+0x7cd1>
    80014744:	00cb1b13          	slli	x22,x22,0xc
    80014748:	234b0b13          	addi	x22,x22,564
    8001474c:	002cbc37          	lui	x24,0x2cb
    80014750:	abfc0c1b          	addiw	x24,x24,-1345 # 2caabf <mem1+0x94abf>
    80014754:	00dc1c13          	slli	x24,x24,0xd
    80014758:	d02b76d3          	fcvt.s.l	f13,x22
    8001475c:	00dc2027          	fsw	f13,0(x24)
    80014760:	002cbe37          	lui	x28,0x2cb
    80014764:	abfe0e1b          	addiw	x28,x28,-1345 # 2caabf <mem1+0x94abf>
    80014768:	00de1e13          	slli	x28,x28,0xd
    8001476c:	000e3383          	ld	x7,0(x28)
    80014770:	0003c137          	lui	x2,0x3c
    80014774:	7231011b          	addiw	x2,x2,1827 # 3c723 <_all_interrupts+0x39c79>
    80014778:	00e11113          	slli	x2,x2,0xe
    8001477c:	00013383          	ld	x7,0(x2)
    80014780:	00080fb7          	lui	x31,0x80
    80014784:	0a0f8f9b          	addiw	x31,x31,160 # 800a0 <machine_csr_jump_table_flags>
    80014788:	00200f13          	li	x30,2
    8001478c:	01efb023          	sd	x30,0(x31)
    80014790:	000f0fb7          	lui	x31,0xf0
    80014794:	001f8f9b          	addiw	x31,x31,1 # f0001 <mem2+0x4c001>
    80014798:	00cf9f93          	slli	x31,x31,0xc
    8001479c:	005f8f93          	addi	x31,x31,5
    800147a0:	00000073          	ecall

00000000800147a4 <SID_23_pm_invalidation_instructions_passed>:
    800147a4:	00f00f9b          	addiw	x31,x0,15
    800147a8:	01cf9f93          	slli	x31,x31,0x1c
    800147ac:	001f8f93          	addi	x31,x31,1
    800147b0:	00000073          	ecall

00000000800147b4 <SID_24_pm_instruction_set>:
    800147b4:	0003c137          	lui	x2,0x3c
    800147b8:	7231011b          	addiw	x2,x2,1827 # 3c723 <_all_interrupts+0x39c79>
    800147bc:	00e11113          	slli	x2,x2,0xe
    800147c0:	00080fb7          	lui	x31,0x80
    800147c4:	0a0f8f9b          	addiw	x31,x31,160 # 800a0 <machine_csr_jump_table_flags>
    800147c8:	00100f13          	li	x30,1
    800147cc:	01efb023          	sd	x30,0(x31)
    800147d0:	000f0fb7          	lui	x31,0xf0
    800147d4:	001f8f9b          	addiw	x31,x31,1 # f0001 <mem2+0x4c001>
    800147d8:	00cf9f93          	slli	x31,x31,0xc
    800147dc:	005f8f93          	addi	x31,x31,5
    800147e0:	00000073          	ecall
    800147e4:	00713023          	sd	x7,0(x2)
    800147e8:	00da1137          	lui	x2,0xda1
    800147ec:	e951011b          	addiw	x2,x2,-363 # da0e95 <SID_23_pm_invalidation_instructions_stack+0x153e95>
    800147f0:	00c11113          	slli	x2,x2,0xc
    800147f4:	000012b7          	lui	x5,0x1
    800147f8:	00510133          	add	x2,x2,x5
    800147fc:	ff017113          	andi	x2,x2,-16
    80014800:	00100e9b          	addiw	x29,x0,1
    80014804:	021e9e93          	slli	x29,x29,0x21
    80014808:	10aeaef3          	csrrs	x29,0x10a,x29
    8001480c:	11223937          	lui	x18,0x11223
    80014810:	3449091b          	addiw	x18,x18,836 # 11223344 <maplic_255+0x924344>
    80014814:	00131a37          	lui	x20,0x131
    80014818:	993a0a1b          	addiw	x20,x20,-1645 # 130993 <mem2+0x8c993>
    8001481c:	00ca1a13          	slli	x20,x20,0xc
    80014820:	012a2023          	sw	x18,0(x20)
    80014824:	00131f37          	lui	x30,0x131
    80014828:	993f0f1b          	addiw	x30,x30,-1645 # 130993 <mem2+0x8c993>
    8001482c:	00cf1f13          	slli	x30,x30,0xc
    80014830:	000f3583          	ld	x11,0(x30)
    80014834:	0003c137          	lui	x2,0x3c
    80014838:	7231011b          	addiw	x2,x2,1827 # 3c723 <_all_interrupts+0x39c79>
    8001483c:	00e11113          	slli	x2,x2,0xe
    80014840:	00013383          	ld	x7,0(x2)
    80014844:	00080fb7          	lui	x31,0x80
    80014848:	0a0f8f9b          	addiw	x31,x31,160 # 800a0 <machine_csr_jump_table_flags>
    8001484c:	00200f13          	li	x30,2
    80014850:	01efb023          	sd	x30,0(x31)
    80014854:	000f0fb7          	lui	x31,0xf0
    80014858:	001f8f9b          	addiw	x31,x31,1 # f0001 <mem2+0x4c001>
    8001485c:	00cf9f93          	slli	x31,x31,0xc
    80014860:	005f8f93          	addi	x31,x31,5
    80014864:	00000073          	ecall

0000000080014868 <SID_24_pm_instruction_set_passed>:
    80014868:	00f00f9b          	addiw	x31,x0,15
    8001486c:	01cf9f93          	slli	x31,x31,0x1c
    80014870:	001f8f93          	addi	x31,x31,1
    80014874:	00000073          	ecall

0000000080014878 <SID_25_pm_misaligned_access>:
    80014878:	0003c137          	lui	x2,0x3c
    8001487c:	7231011b          	addiw	x2,x2,1827 # 3c723 <_all_interrupts+0x39c79>
    80014880:	00e11113          	slli	x2,x2,0xe
    80014884:	00080fb7          	lui	x31,0x80
    80014888:	0a0f8f9b          	addiw	x31,x31,160 # 800a0 <machine_csr_jump_table_flags>
    8001488c:	00100f13          	li	x30,1
    80014890:	01efb023          	sd	x30,0(x31)
    80014894:	000f0fb7          	lui	x31,0xf0
    80014898:	001f8f9b          	addiw	x31,x31,1 # f0001 <mem2+0x4c001>
    8001489c:	00cf9f93          	slli	x31,x31,0xc
    800148a0:	005f8f93          	addi	x31,x31,5
    800148a4:	00000073          	ecall
    800148a8:	00713023          	sd	x7,0(x2)
    800148ac:	00087137          	lui	x2,0x87
    800148b0:	6811011b          	addiw	x2,x2,1665 # 87681 <__section_os_data_1+0x6681>
    800148b4:	00d11113          	slli	x2,x2,0xd
    800148b8:	000012b7          	lui	x5,0x1
    800148bc:	00510133          	add	x2,x2,x5
    800148c0:	ff017113          	andi	x2,x2,-16
    800148c4:	0030041b          	addiw	x8,x0,3
    800148c8:	02041413          	slli	x8,x8,0x20
    800148cc:	10a42af3          	csrrs	x21,0x10a,x8
    800148d0:	55667eb7          	lui	x29,0x55667
    800148d4:	788e8e9b          	addiw	x29,x29,1928 # 55667788 <SID_26_pm_different_tags_same_address_stack+0x1349b788>
    800148d8:	00001c37          	lui	x24,0x1
    800148dc:	0edc0c1b          	addiw	x24,x24,237 # 10ed <FS_RANDOMIZATION+0x1089>
    800148e0:	014c1c13          	slli	x24,x24,0x14
    800148e4:	01dc1023          	sh	x29,0(x24)
    800148e8:	00001537          	lui	x10,0x1
    800148ec:	0ed5051b          	addiw	x10,x10,237 # 10ed <FS_RANDOMIZATION+0x1089>
    800148f0:	01451513          	slli	x10,x10,0x14
    800148f4:	00053c87          	fld	f25,0(x10)
    800148f8:	0003c137          	lui	x2,0x3c
    800148fc:	7231011b          	addiw	x2,x2,1827 # 3c723 <_all_interrupts+0x39c79>
    80014900:	00e11113          	slli	x2,x2,0xe
    80014904:	00013383          	ld	x7,0(x2)
    80014908:	00080fb7          	lui	x31,0x80
    8001490c:	0a0f8f9b          	addiw	x31,x31,160 # 800a0 <machine_csr_jump_table_flags>
    80014910:	00200f13          	li	x30,2
    80014914:	01efb023          	sd	x30,0(x31)
    80014918:	000f0fb7          	lui	x31,0xf0
    8001491c:	001f8f9b          	addiw	x31,x31,1 # f0001 <mem2+0x4c001>
    80014920:	00cf9f93          	slli	x31,x31,0xc
    80014924:	005f8f93          	addi	x31,x31,5
    80014928:	00000073          	ecall

000000008001492c <SID_25_pm_misaligned_access_passed>:
    8001492c:	00f00f9b          	addiw	x31,x0,15
    80014930:	01cf9f93          	slli	x31,x31,0x1c
    80014934:	001f8f93          	addi	x31,x31,1
    80014938:	00000073          	ecall

000000008001493c <SID_26_pm_different_tags_same_address>:
    8001493c:	0003c137          	lui	x2,0x3c
    80014940:	7231011b          	addiw	x2,x2,1827 # 3c723 <_all_interrupts+0x39c79>
    80014944:	00e11113          	slli	x2,x2,0xe
    80014948:	00080fb7          	lui	x31,0x80
    8001494c:	0a0f8f9b          	addiw	x31,x31,160 # 800a0 <machine_csr_jump_table_flags>
    80014950:	00100f13          	li	x30,1
    80014954:	01efb023          	sd	x30,0(x31)
    80014958:	000f0fb7          	lui	x31,0xf0
    8001495c:	001f8f9b          	addiw	x31,x31,1 # f0001 <mem2+0x4c001>
    80014960:	00cf9f93          	slli	x31,x31,0xc
    80014964:	005f8f93          	addi	x31,x31,5
    80014968:	00000073          	ecall
    8001496c:	00713023          	sd	x7,0(x2)
    80014970:	421cc137          	lui	x2,0x421cc
    80014974:	000012b7          	lui	x5,0x1
    80014978:	00510133          	add	x2,x2,x5
    8001497c:	ff017113          	andi	x2,x2,-16
    80014980:	00300a9b          	addiw	x21,x0,3
    80014984:	020a9a93          	slli	x21,x21,0x20
    80014988:	10aaaf73          	csrrs	x30,0x10a,x21
    8001498c:	11111337          	lui	x6,0x11111
    80014990:	1113031b          	addiw	x6,x6,273 # 11111111 <maplic_255+0x812111>
    80014994:	007c6bb7          	lui	x23,0x7c6
    80014998:	54fb8b9b          	addiw	x23,x23,1359 # 7c654f <hart_stack_0_end+0x654f>
    8001499c:	00cb9b93          	slli	x23,x23,0xc
    800149a0:	006bb023          	sd	x6,0(x23)
    800149a4:	22222437          	lui	x8,0x22222
    800149a8:	2224041b          	addiw	x8,x8,546 # 22222222 <saplic_255+0x1923222>
    800149ac:	007c68b7          	lui	x17,0x7c6
    800149b0:	54f8889b          	addiw	x17,x17,1359 # 7c654f <hart_stack_0_end+0x654f>
    800149b4:	00c89893          	slli	x17,x17,0xc
    800149b8:	d0347bd3          	fcvt.s.lu	f23,x8
    800149bc:	0178b027          	fsd	f23,0(x17)
    800149c0:	007c6fb7          	lui	x31,0x7c6
    800149c4:	54ff8f9b          	addiw	x31,x31,1359 # 7c654f <hart_stack_0_end+0x654f>
    800149c8:	00cf9f93          	slli	x31,x31,0xc
    800149cc:	000fb987          	fld	f19,0(x31)
    800149d0:	0003c137          	lui	x2,0x3c
    800149d4:	7231011b          	addiw	x2,x2,1827 # 3c723 <_all_interrupts+0x39c79>
    800149d8:	00e11113          	slli	x2,x2,0xe
    800149dc:	00013383          	ld	x7,0(x2)
    800149e0:	00080fb7          	lui	x31,0x80
    800149e4:	0a0f8f9b          	addiw	x31,x31,160 # 800a0 <machine_csr_jump_table_flags>
    800149e8:	00200f13          	li	x30,2
    800149ec:	01efb023          	sd	x30,0(x31)
    800149f0:	000f0fb7          	lui	x31,0xf0
    800149f4:	001f8f9b          	addiw	x31,x31,1 # f0001 <mem2+0x4c001>
    800149f8:	00cf9f93          	slli	x31,x31,0xc
    800149fc:	005f8f93          	addi	x31,x31,5
    80014a00:	00000073          	ecall

0000000080014a04 <SID_26_pm_different_tags_same_address_passed>:
    80014a04:	00f00f9b          	addiw	x31,x0,15
    80014a08:	01cf9f93          	slli	x31,x31,0x1c
    80014a0c:	001f8f93          	addi	x31,x31,1
    80014a10:	00000073          	ecall

0000000080014a14 <SID_27_pm_implicit_access>:
    80014a14:	0003c137          	lui	x2,0x3c
    80014a18:	7231011b          	addiw	x2,x2,1827 # 3c723 <_all_interrupts+0x39c79>
    80014a1c:	00e11113          	slli	x2,x2,0xe
    80014a20:	00080fb7          	lui	x31,0x80
    80014a24:	0a0f8f9b          	addiw	x31,x31,160 # 800a0 <machine_csr_jump_table_flags>
    80014a28:	00100f13          	li	x30,1
    80014a2c:	01efb023          	sd	x30,0(x31)
    80014a30:	000f0fb7          	lui	x31,0xf0
    80014a34:	001f8f9b          	addiw	x31,x31,1 # f0001 <mem2+0x4c001>
    80014a38:	00cf9f93          	slli	x31,x31,0xc
    80014a3c:	005f8f93          	addi	x31,x31,5
    80014a40:	00000073          	ecall
    80014a44:	00713023          	sd	x7,0(x2)
    80014a48:	0009d137          	lui	x2,0x9d
    80014a4c:	a311011b          	addiw	x2,x2,-1487 # 9ca31 <__section_os_data_1+0x1ba31>
    80014a50:	00c11113          	slli	x2,x2,0xc
    80014a54:	000012b7          	lui	x5,0x1
    80014a58:	00510133          	add	x2,x2,x5
    80014a5c:	ff017113          	andi	x2,x2,-16
    80014a60:	0010059b          	addiw	x11,x0,1
    80014a64:	02159593          	slli	x11,x11,0x21
    80014a68:	10a5abf3          	csrrs	x23,0x10a,x11
    80014a6c:	00040737          	lui	x14,0x40
    80014a70:	bb77071b          	addiw	x14,x14,-1097 # 3fbb7 <_all_interrupts+0x3d10d>
    80014a74:	00e71713          	slli	x14,x14,0xe
    80014a78:	0de70713          	addi	x14,x14,222
    80014a7c:	03a15337          	lui	x6,0x3a15
    80014a80:	d2070cd3          	fcvt.d.w	f25,x14
    80014a84:	01933027          	fsd	f25,0(x6) # 3a15000 <mem7>
    80014a88:	03a157b7          	lui	x15,0x3a15
    80014a8c:	0007b907          	fld	f18,0(x15) # 3a15000 <mem7>
    80014a90:	001ace37          	lui	x28,0x1ac
    80014a94:	000e00e7          	jalr	x28 # 1ac000 <code_mem8>
    80014a98:	0003c137          	lui	x2,0x3c
    80014a9c:	7231011b          	addiw	x2,x2,1827 # 3c723 <_all_interrupts+0x39c79>
    80014aa0:	00e11113          	slli	x2,x2,0xe
    80014aa4:	00013383          	ld	x7,0(x2)
    80014aa8:	00080fb7          	lui	x31,0x80
    80014aac:	0a0f8f9b          	addiw	x31,x31,160 # 800a0 <machine_csr_jump_table_flags>
    80014ab0:	00200f13          	li	x30,2
    80014ab4:	01efb023          	sd	x30,0(x31)
    80014ab8:	000f0fb7          	lui	x31,0xf0
    80014abc:	001f8f9b          	addiw	x31,x31,1 # f0001 <mem2+0x4c001>
    80014ac0:	00cf9f93          	slli	x31,x31,0xc
    80014ac4:	005f8f93          	addi	x31,x31,5
    80014ac8:	00000073          	ecall

0000000080014acc <SID_27_pm_implicit_access_passed>:
    80014acc:	00f00f9b          	addiw	x31,x0,15
    80014ad0:	01cf9f93          	slli	x31,x31,0x1c
    80014ad4:	001f8f93          	addi	x31,x31,1
    80014ad8:	00000073          	ecall

0000000080014adc <SID_28_pm_faults_trap_values>:
    80014adc:	0003c137          	lui	x2,0x3c
    80014ae0:	7231011b          	addiw	x2,x2,1827 # 3c723 <_all_interrupts+0x39c79>
    80014ae4:	00e11113          	slli	x2,x2,0xe
    80014ae8:	00080fb7          	lui	x31,0x80
    80014aec:	0a0f8f9b          	addiw	x31,x31,160 # 800a0 <machine_csr_jump_table_flags>
    80014af0:	00100f13          	li	x30,1
    80014af4:	01efb023          	sd	x30,0(x31)
    80014af8:	000f0fb7          	lui	x31,0xf0
    80014afc:	001f8f9b          	addiw	x31,x31,1 # f0001 <mem2+0x4c001>
    80014b00:	00cf9f93          	slli	x31,x31,0xc
    80014b04:	005f8f93          	addi	x31,x31,5
    80014b08:	00000073          	ecall
    80014b0c:	00713023          	sd	x7,0(x2)
    80014b10:	03dd3137          	lui	x2,0x3dd3
    80014b14:	000012b7          	lui	x5,0x1
    80014b18:	00510133          	add	x2,x2,x5
    80014b1c:	ff017113          	andi	x2,x2,-16
    80014b20:	0010091b          	addiw	x18,x0,1
    80014b24:	02191913          	slli	x18,x18,0x21
    80014b28:	10a92bf3          	csrrs	x23,0x10a,x18
    80014b2c:	0badfa37          	lui	x20,0xbadf
    80014b30:	00da0a1b          	addiw	x20,x20,13 # badf00d <mem9+0x33ec00d>
    80014b34:	00364237          	lui	x4,0x364
    80014b38:	ddb2021b          	addiw	x4,x4,-549 # 363ddb <mem1+0x12dddb>
    80014b3c:	00d21213          	slli	x4,x4,0xd
    80014b40:	00f00e13          	li	x28,15
    80014b44:	05c23823          	sd	x28,80(x4) # 50 <XLEN+0x10>
    80014b48:	00000e17          	auipc	x28,0x0
    80014b4c:	04ce0e13          	addi	x28,x28,76 # 80014b94 <fault_label_2>
    80014b50:	03c23023          	sd	x28,32(x4) # 20 <SECURE_ACCESS_PROBABILITY+0x2>
    80014b54:	00000e13          	li	x28,0
    80014b58:	05c23023          	sd	x28,64(x4) # 40 <XLEN>
    80014b5c:	00000e13          	li	x28,0
    80014b60:	05c23423          	sd	x28,72(x4) # 48 <XLEN+0x8>
    80014b64:	00000e17          	auipc	x28,0x0
    80014b68:	044e0e13          	addi	x28,x28,68 # 80014ba8 <excp_return_label_2>
    80014b6c:	03c23823          	sd	x28,48(x4) # 30 <SECURE_ACCESS_PROBABILITY+0x12>
    80014b70:	00000e13          	li	x28,0
    80014b74:	03c23c23          	sd	x28,56(x4) # 38 <SECURE_ACCESS_PROBABILITY+0x1a>
    80014b78:	00000e13          	li	x28,0
    80014b7c:	07c23023          	sd	x28,96(x4) # 60 <XLEN+0x20>
    80014b80:	00000e13          	li	x28,0
    80014b84:	07c23423          	sd	x28,104(x4) # 68 <FS_RANDOMIZATION+0x4>
    80014b88:	00000e13          	li	x28,0
    80014b8c:	07c23823          	sd	x28,112(x4) # 70 <FS_RANDOMIZATION+0xc>
    80014b90:	086f3db7          	lui	x27,0x86f3

0000000080014b94 <fault_label_2>:
    80014b94:	014db023          	sd	x20,0(x27) # 86f3000 <mem9>
    80014b98:	000808b7          	lui	x17,0x80
    80014b9c:	0088889b          	addiw	x17,x17,8 # 80008 <failed_addr>
    80014ba0:	0008bc03          	ld	x24,0(x17)
    80014ba4:	000c0067          	jr	x24

0000000080014ba8 <excp_return_label_2>:
    80014ba8:	0003c137          	lui	x2,0x3c
    80014bac:	7231011b          	addiw	x2,x2,1827 # 3c723 <_all_interrupts+0x39c79>
    80014bb0:	00e11113          	slli	x2,x2,0xe
    80014bb4:	00013383          	ld	x7,0(x2)
    80014bb8:	00080fb7          	lui	x31,0x80
    80014bbc:	0a0f8f9b          	addiw	x31,x31,160 # 800a0 <machine_csr_jump_table_flags>
    80014bc0:	00200f13          	li	x30,2
    80014bc4:	01efb023          	sd	x30,0(x31)
    80014bc8:	000f0fb7          	lui	x31,0xf0
    80014bcc:	001f8f9b          	addiw	x31,x31,1 # f0001 <mem2+0x4c001>
    80014bd0:	00cf9f93          	slli	x31,x31,0xc
    80014bd4:	005f8f93          	addi	x31,x31,5
    80014bd8:	00000073          	ecall

0000000080014bdc <SID_28_pm_faults_trap_values_passed>:
    80014bdc:	00f00f9b          	addiw	x31,x0,15
    80014be0:	01cf9f93          	slli	x31,x31,0x1c
    80014be4:	001f8f93          	addi	x31,x31,1
    80014be8:	00000073          	ecall

0000000080014bec <SID_29_pm_xtvec_tagged_address>:
    80014bec:	0003c137          	lui	x2,0x3c
    80014bf0:	7231011b          	addiw	x2,x2,1827 # 3c723 <_all_interrupts+0x39c79>
    80014bf4:	00e11113          	slli	x2,x2,0xe
    80014bf8:	00080fb7          	lui	x31,0x80
    80014bfc:	0a0f8f9b          	addiw	x31,x31,160 # 800a0 <machine_csr_jump_table_flags>
    80014c00:	00100f13          	li	x30,1
    80014c04:	01efb023          	sd	x30,0(x31)
    80014c08:	000f0fb7          	lui	x31,0xf0
    80014c0c:	001f8f9b          	addiw	x31,x31,1 # f0001 <mem2+0x4c001>
    80014c10:	00cf9f93          	slli	x31,x31,0xc
    80014c14:	005f8f93          	addi	x31,x31,5
    80014c18:	00000073          	ecall
    80014c1c:	00713023          	sd	x7,0(x2)
    80014c20:	00080fb7          	lui	x31,0x80
    80014c24:	0a0f8f9b          	addiw	x31,x31,160 # 800a0 <machine_csr_jump_table_flags>
    80014c28:	01f00f13          	li	x30,31
    80014c2c:	01efb023          	sd	x30,0(x31)
    80014c30:	000f0fb7          	lui	x31,0xf0
    80014c34:	001f8f9b          	addiw	x31,x31,1 # f0001 <mem2+0x4c001>
    80014c38:	00cf9f93          	slli	x31,x31,0xc
    80014c3c:	005f8f93          	addi	x31,x31,5
    80014c40:	00000073          	ecall
    80014c44:	00713423          	sd	x7,8(x2)
    80014c48:	000a7137          	lui	x2,0xa7
    80014c4c:	ac31011b          	addiw	x2,x2,-1341 # a6ac3 <mem2+0x2ac3>
    80014c50:	00c11113          	slli	x2,x2,0xc
    80014c54:	000012b7          	lui	x5,0x1
    80014c58:	00510133          	add	x2,x2,x5
    80014c5c:	ff017113          	andi	x2,x2,-16
    80014c60:	0010071b          	addiw	x14,x0,1
    80014c64:	02171713          	slli	x14,x14,0x21
    80014c68:	10a72e73          	csrrs	x28,0x10a,x14
    80014c6c:	00013c37          	lui	x24,0x13
    80014c70:	105c1df3          	csrrw	x27,stvec,x24
    80014c74:	10502e73          	csrr	x28,stvec
    80014c78:	0003c137          	lui	x2,0x3c
    80014c7c:	7231011b          	addiw	x2,x2,1827 # 3c723 <_all_interrupts+0x39c79>
    80014c80:	00e11113          	slli	x2,x2,0xe
    80014c84:	00013383          	ld	x7,0(x2)
    80014c88:	00080fb7          	lui	x31,0x80
    80014c8c:	0a0f8f9b          	addiw	x31,x31,160 # 800a0 <machine_csr_jump_table_flags>
    80014c90:	00200f13          	li	x30,2
    80014c94:	01efb023          	sd	x30,0(x31)
    80014c98:	000f0fb7          	lui	x31,0xf0
    80014c9c:	001f8f9b          	addiw	x31,x31,1 # f0001 <mem2+0x4c001>
    80014ca0:	00cf9f93          	slli	x31,x31,0xc
    80014ca4:	005f8f93          	addi	x31,x31,5
    80014ca8:	00000073          	ecall
    80014cac:	00813383          	ld	x7,8(x2)
    80014cb0:	00080fb7          	lui	x31,0x80
    80014cb4:	0a0f8f9b          	addiw	x31,x31,160 # 800a0 <machine_csr_jump_table_flags>
    80014cb8:	02100f13          	li	x30,33
    80014cbc:	01efb023          	sd	x30,0(x31)
    80014cc0:	000f0fb7          	lui	x31,0xf0
    80014cc4:	001f8f9b          	addiw	x31,x31,1 # f0001 <mem2+0x4c001>
    80014cc8:	00cf9f93          	slli	x31,x31,0xc
    80014ccc:	005f8f93          	addi	x31,x31,5
    80014cd0:	00000073          	ecall

0000000080014cd4 <SID_29_pm_xtvec_tagged_address_passed>:
    80014cd4:	00f00f9b          	addiw	x31,x0,15
    80014cd8:	01cf9f93          	slli	x31,x31,0x1c
    80014cdc:	001f8f93          	addi	x31,x31,1
    80014ce0:	00000073          	ecall

0000000080014ce4 <test_cleanup>:
    80014ce4:	00f00f9b          	addiw	x31,x0,15
    80014ce8:	01cf9f93          	slli	x31,x31,0x1c
    80014cec:	001f8f93          	addi	x31,x31,1
    80014cf0:	00000073          	ecall

0000000080014cf4 <local_test_failed>:
    80014cf4:	00f00f9b          	addiw	x31,x0,15
    80014cf8:	01cf9f93          	slli	x31,x31,0x1c
    80014cfc:	002f8f93          	addi	x31,x31,2
    80014d00:	00000073          	ecall

Disassembly of section .csr_machine_0:

0000000080214000 <csr_access_senvcfg_supervisor_key_2_write-0xa8>:
    80214000:	000e8fb7          	lui	x31,0xe8
    80214004:	1bdf8f9b          	addiw	x31,x31,445 # e81bd <mem2+0x441bd>
    80214008:	00df9f93          	slli	x31,x31,0xd
    8021400c:	0a0f8f93          	addi	x31,x31,160
    80214010:	000fbf83          	ld	x31,0(x31)
    80214014:	00200293          	li	x5,2
    80214018:	085f8863          	beq	x31,x5,802140a8 <csr_access_senvcfg_supervisor_key_2_write>
    8021401c:	00100293          	li	x5,1
    80214020:	085f8863          	beq	x31,x5,802140b0 <csr_access_senvcfg_supervisor_key_1_read>
    80214024:	00500293          	li	x5,5
    80214028:	085f8863          	beq	x31,x5,802140b8 <csr_access_henvcfg_supervisor_key_5_write>
    8021402c:	00300293          	li	x5,3
    80214030:	085f8863          	beq	x31,x5,802140c0 <csr_access_henvcfg_supervisor_key_3_read>
    80214034:	00600293          	li	x5,6
    80214038:	085f8863          	beq	x31,x5,802140c8 <csr_access_hstatus_supervisor_key_6_write>
    8021403c:	00400293          	li	x5,4
    80214040:	085f8863          	beq	x31,x5,802140d0 <csr_access_hstatus_supervisor_key_4_read>
    80214044:	00900293          	li	x5,9
    80214048:	085f8863          	beq	x31,x5,802140d8 <csr_access_menvcfg_machine_key_9_write>
    8021404c:	00700293          	li	x5,7
    80214050:	085f8863          	beq	x31,x5,802140e0 <csr_access_menvcfg_machine_key_7_read>
    80214054:	00b00293          	li	x5,11
    80214058:	085f8863          	beq	x31,x5,802140e8 <csr_access_menvcfg_machine_key_11_set>
    8021405c:	00800293          	li	x5,8
    80214060:	085f8863          	beq	x31,x5,802140f0 <csr_access_menvcfg_machine_key_8_clear>
    80214064:	01000293          	li	x5,16
    80214068:	085f8863          	beq	x31,x5,802140f8 <csr_access_mstatus_machine_key_16_write>
    8021406c:	00d00293          	li	x5,13
    80214070:	085f8863          	beq	x31,x5,80214100 <csr_access_mstatus_machine_key_13_read>
    80214074:	00f00293          	li	x5,15
    80214078:	085f8863          	beq	x31,x5,80214108 <csr_access_mstatus_machine_key_15_set>
    8021407c:	02200293          	li	x5,34
    80214080:	085f8863          	beq	x31,x5,80214110 <csr_access_mstatus_machine_key_34_clear>
    80214084:	02100293          	li	x5,33
    80214088:	085f8863          	beq	x31,x5,80214118 <csr_access_stvec_supervisor_key_33_write>
    8021408c:	01f00293          	li	x5,31
    80214090:	085f8863          	beq	x31,x5,80214120 <csr_access_stvec_supervisor_key_31_read>
    80214094:	02400293          	li	x5,36
    80214098:	085f8863          	beq	x31,x5,80214128 <csr_access_mtvec_machine_key_36_set>
    8021409c:	02300293          	li	x5,35
    802140a0:	085f8863          	beq	x31,x5,80214130 <csr_access_mtvec_machine_key_35_clear>
    802140a4:	0940006f          	j	80214138 <end_machine_label>

00000000802140a8 <csr_access_senvcfg_supervisor_key_2_write>:
    802140a8:	10a39073          	csrw	0x10a,x7
    802140ac:	08c0006f          	j	80214138 <end_machine_label>

00000000802140b0 <csr_access_senvcfg_supervisor_key_1_read>:
    802140b0:	10a023f3          	csrr	x7,0x10a
    802140b4:	0840006f          	j	80214138 <end_machine_label>

00000000802140b8 <csr_access_henvcfg_supervisor_key_5_write>:
    802140b8:	60a39073          	csrw	henvcfg,x7
    802140bc:	07c0006f          	j	80214138 <end_machine_label>

00000000802140c0 <csr_access_henvcfg_supervisor_key_3_read>:
    802140c0:	60a023f3          	csrr	x7,henvcfg
    802140c4:	0740006f          	j	80214138 <end_machine_label>

00000000802140c8 <csr_access_hstatus_supervisor_key_6_write>:
    802140c8:	60039073          	csrw	hstatus,x7
    802140cc:	06c0006f          	j	80214138 <end_machine_label>

00000000802140d0 <csr_access_hstatus_supervisor_key_4_read>:
    802140d0:	600023f3          	csrr	x7,hstatus
    802140d4:	0640006f          	j	80214138 <end_machine_label>

00000000802140d8 <csr_access_menvcfg_machine_key_9_write>:
    802140d8:	30a39073          	csrw	0x30a,x7
    802140dc:	05c0006f          	j	80214138 <end_machine_label>

00000000802140e0 <csr_access_menvcfg_machine_key_7_read>:
    802140e0:	30a023f3          	csrr	x7,0x30a
    802140e4:	0540006f          	j	80214138 <end_machine_label>

00000000802140e8 <csr_access_menvcfg_machine_key_11_set>:
    802140e8:	30a3a073          	csrs	0x30a,x7
    802140ec:	04c0006f          	j	80214138 <end_machine_label>

00000000802140f0 <csr_access_menvcfg_machine_key_8_clear>:
    802140f0:	30a3b073          	csrc	0x30a,x7
    802140f4:	0440006f          	j	80214138 <end_machine_label>

00000000802140f8 <csr_access_mstatus_machine_key_16_write>:
    802140f8:	30039073          	csrw	mstatus,x7
    802140fc:	03c0006f          	j	80214138 <end_machine_label>

0000000080214100 <csr_access_mstatus_machine_key_13_read>:
    80214100:	300023f3          	csrr	x7,mstatus
    80214104:	0340006f          	j	80214138 <end_machine_label>

0000000080214108 <csr_access_mstatus_machine_key_15_set>:
    80214108:	3003a073          	csrs	mstatus,x7
    8021410c:	02c0006f          	j	80214138 <end_machine_label>

0000000080214110 <csr_access_mstatus_machine_key_34_clear>:
    80214110:	3003b073          	csrc	mstatus,x7
    80214114:	0240006f          	j	80214138 <end_machine_label>

0000000080214118 <csr_access_stvec_supervisor_key_33_write>:
    80214118:	10539073          	csrw	stvec,x7
    8021411c:	01c0006f          	j	80214138 <end_machine_label>

0000000080214120 <csr_access_stvec_supervisor_key_31_read>:
    80214120:	105023f3          	csrr	x7,stvec
    80214124:	0140006f          	j	80214138 <end_machine_label>

0000000080214128 <csr_access_mtvec_machine_key_36_set>:
    80214128:	3053a073          	csrs	mtvec,x7
    8021412c:	00c0006f          	j	80214138 <end_machine_label>

0000000080214130 <csr_access_mtvec_machine_key_35_clear>:
    80214130:	3053b073          	csrc	mtvec,x7
    80214134:	0040006f          	j	80214138 <end_machine_label>

0000000080214138 <end_machine_label>:
    80214138:	000f0fb7          	lui	x31,0xf0
    8021413c:	001f8f9b          	addiw	x31,x31,1 # f0001 <mem2+0x4c001>
    80214140:	00cf9f93          	slli	x31,x31,0xc
    80214144:	004f8f93          	addi	x31,x31,4
    80214148:	00000073          	ecall

Disassembly of section .csr_super_0:

0000000080215000 <end_super_label-0x10>:
    80215000:	00080fb7          	lui	x31,0x80
    80215004:	0a8f8f9b          	addiw	x31,x31,168 # 800a8 <super_csr_jump_table_flags>
    80215008:	000fbf83          	ld	x31,0(x31)
    8021500c:	0040006f          	j	80215010 <end_super_label>

0000000080215010 <end_super_label>:
    80215010:	000f0fb7          	lui	x31,0xf0
    80215014:	001f8f9b          	addiw	x31,x31,1 # f0001 <mem2+0x4c001>
    80215018:	00cf9f93          	slli	x31,x31,0xc
    8021501c:	004f8f93          	addi	x31,x31,4
    80215020:	00000073          	ecall

Disassembly of section .os_data:

0000000000080000 <passed_addr_ptr>:
   80000:	40a0                	.insn	2, 0x40a0
   80002:	8001                	.insn	2, 0x8001
   80004:	0000                	.insn	2, 0x0000
	...

0000000000080008 <failed_addr_ptr>:
   80008:	40b0                	.insn	2, 0x40b0
   8000a:	8001                	.insn	2, 0x8001
   8000c:	0000                	.insn	2, 0x0000
	...

0000000000080010 <end_test_addr_ptr>:
   80010:	40c0                	.insn	2, 0x40c0
   80012:	8001                	.insn	2, 0x8001
   80014:	0000                	.insn	2, 0x0000
	...

0000000000080018 <os_passed_addr_ptr>:
   80018:	0990                	.insn	2, 0x0990
   8001a:	8000                	.insn	2, 0x8000
   8001c:	0000                	.insn	2, 0x0000
	...

0000000000080020 <os_failed_addr_ptr>:
   80020:	09a0                	.insn	2, 0x09a0
   80022:	8000                	.insn	2, 0x8000
   80024:	0000                	.insn	2, 0x0000
	...

0000000000080028 <os_end_test_addr_ptr>:
   80028:	09ac                	.insn	2, 0x09ac
   8002a:	8000                	.insn	2, 0x8000
   8002c:	0000                	.insn	2, 0x0000
	...

0000000000080030 <rvcp_prefix_str_data>:
   80030:	5652                	.insn	2, 0x5652
   80032:	203a5043          	fmadd.s	f0,f20,f3,f4,unknown
   80036:	6554                	.insn	2, 0x6554
   80038:	46207473          	csrrci	x8,0x462,0
   8003c:	6c69                	.insn	2, 0x6c69
   8003e:	2065                	.insn	2, 0x2065
	...

0000000000080041 <rvcp_testname_str_data>:
   80041:	7074                	.insn	2, 0x7074
   80043:	7a5f 706a 5f6d      	.insn	6, 0x5f6d706a7a5f
   80049:	0031                	.insn	2, 0x0031

000000000008004b <rvcp_passed_str_data>:
   8004b:	4150                	.insn	2, 0x4150
   8004d:	44455353          	fround.h	f6,f10,unknown
	...

0000000000080052 <rvcp_failed_str_data>:
   80052:	4146                	.insn	2, 0x4146
   80054:	4c49                	.insn	2, 0x4c49
   80056:	4445                	.insn	2, 0x4445
	...

0000000000080059 <rvcp_space_str_data>:
   80059:	0020                	.insn	2, 0x0020

000000000008005b <rvcp_newline_str_data>:
   8005b:	000a                	.insn	2, 0x000a
   8005d:	0000                	.insn	2, 0x0000
	...

0000000000080060 <excp_ignored_count_mem>:
	...

0000000000080068 <machine_flags_mem>:
	...

0000000000080070 <user_flags_mem>:
	...

0000000000080078 <super_flags_mem>:
	...

0000000000080080 <machine_area_mem>:
	...

0000000000080088 <user_area_mem>:
	...

0000000000080090 <super_area_mem>:
	...

0000000000080098 <zero_data_mem>:
	...

00000000000800a0 <machine_csr_jump_table_flags_mem>:
	...

00000000000800a8 <super_csr_jump_table_flags_mem>:
	...

00000000000800b0 <pte_access_flags_mem>:
	...

00000000000800c8 <num_harts_ended_mem>:
	...

00000000000800d0 <num_hard_fails_mem>:
	...

Disassembly of section .hart_context:

00000006c7bb6000 <hart_context_0>:
   6c7bb6000:	0000                	.insn	2, 0x0000
   6c7bb6002:	007c                	.insn	2, 0x007c
	...
   6c7bb6018:	0001                	.insn	2, 0x0001
   6c7bb601a:	0000                	.insn	2, 0x0000
   6c7bb601c:	0000                	.insn	2, 0x0000
   6c7bb601e:	0000                	.insn	2, 0x0000
   6c7bb6020:	ffff                	.insn	2, 0xffff
   6c7bb6022:	ffff                	.insn	2, 0xffff
   6c7bb6024:	ffff                	.insn	2, 0xffff
   6c7bb6026:	ffff                	.insn	2, 0xffff
   6c7bb6028:	ffff                	.insn	2, 0xffff
   6c7bb602a:	ffff                	.insn	2, 0xffff
   6c7bb602c:	ffff                	.insn	2, 0xffff
   6c7bb602e:	ffff                	.insn	2, 0xffff
   6c7bb6030:	ffff                	.insn	2, 0xffff
   6c7bb6032:	ffff                	.insn	2, 0xffff
   6c7bb6034:	ffff                	.insn	2, 0xffff
   6c7bb6036:	ffff                	.insn	2, 0xffff
	...
   6c7bb6050:	00ff 0000 0000 0000 	.insn	10, 0x00ff00000000000000ff
   6c7bb6058:	00ff 
	...
   6c7bb6176:	0000                	.insn	2, 0x0000
   6c7bb6178:	ffff                	.insn	2, 0xffff
   6c7bb617a:	ffff                	.insn	2, 0xffff
   6c7bb617c:	ffff                	.insn	2, 0xffff
   6c7bb617e:	ffff                	.insn	2, 0xffff
	...
   6c7bb6198:	ffff                	.insn	2, 0xffff
   6c7bb619a:	ffff                	.insn	2, 0xffff
	...

Disassembly of section .hart_stack_0:

00000000007bf000 <hart_stack_0>:
	...

Disassembly of section .io_htif:

0000000070000000 <tohost>:
	...

0000000070000040 <fromhost>:
	...

Disassembly of section .code_mem8:

00000000001ac000 <.code_mem8>:
  1ac000:	0020d497          	auipc	x9,0x20d
  1ac004:	00008067          	ret

Disassembly of section .mem0:

0000000fddf39000 <.mem0>:
   fddf39000:	c0de                	.insn	2, 0xc0de
   fddf39002:	c001                	.insn	2, 0xc001
   fddf39004:	0000                	.insn	2, 0x0000
	...

Disassembly of section .mem1:

0000000000236000 <.mem1>:
  236000:	c0de                	.insn	2, 0xc0de
  236002:	c001                	.insn	2, 0xc001
  236004:	0000                	.insn	2, 0x0000
	...

Disassembly of section .mem2:

00000000000a4000 <.mem2>:
   a4000:	c0de                	.insn	2, 0xc0de
   a4002:	c001                	.insn	2, 0xc001
   a4004:	0000                	.insn	2, 0x0000
	...

Disassembly of section .mem3:

000000059557e000 <.mem3>:
   59557e000:	c0de                	.insn	2, 0xc0de
   59557e002:	c001                	.insn	2, 0xc001
   59557e004:	0000                	.insn	2, 0x0000
	...

Disassembly of section .mem4:

0000000130993000 <.mem4>:
   130993000:	c0de                	.insn	2, 0xc0de
   130993002:	c001                	.insn	2, 0xc001
   130993004:	0000                	.insn	2, 0x0000
	...

Disassembly of section .mem5:

000000010ed00000 <.mem5>:
   10ed00000:	c0de                	.insn	2, 0xc0de
   10ed00002:	c001                	.insn	2, 0xc001
   10ed00004:	0000                	.insn	2, 0x0000
	...

Disassembly of section .mem6:

00000007c654f000 <.mem6>:
   7c654f000:	c0de                	.insn	2, 0xc0de
   7c654f002:	c001                	.insn	2, 0xc001
   7c654f004:	0000                	.insn	2, 0x0000
	...

Disassembly of section .mem7:

0000000003a15000 <.mem7>:
 3a15000:	c0de                	.insn	2, 0xc0de
 3a15002:	c001                	.insn	2, 0xc001
 3a15004:	0000                	.insn	2, 0x0000
	...

Disassembly of section .mem9:

00000000086f3000 <.mem9>:
 86f3000:	c0de                	.insn	2, 0xc0de
 86f3002:	c001                	.insn	2, 0xc001
 86f3004:	0000                	.insn	2, 0x0000
	...

Disassembly of section .tp_csr_storage:

00000000f1c8c000 <.tp_csr_storage>:
    f1c8c000:	c0de                	.insn	2, 0xc0de
    f1c8c002:	c001                	.insn	2, 0xc001
    f1c8c004:	0000                	.insn	2, 0x0000
	...

Disassembly of section .SID_01_senvcfg_pmm_warl_stack:

0000000130991000 <.SID_01_senvcfg_pmm_warl_stack>:
   130991000:	c0de                	.insn	2, 0xc0de
   130991002:	c001                	.insn	2, 0xc001
   130991004:	0000                	.insn	2, 0x0000
	...

Disassembly of section .SID_02_henvcfg_hstatus_pmm_warl_stack:

00000000034e1000 <.SID_02_henvcfg_hstatus_pmm_warl_stack>:
 34e1000:	c0de                	.insn	2, 0xc0de
 34e1002:	c001                	.insn	2, 0xc001
 34e1004:	0000                	.insn	2, 0x0000
	...

Disassembly of section .SID_07_pm_disabled_s_hs_mode_stack:

0000000007bce000 <.SID_07_pm_disabled_s_hs_mode_stack>:
 7bce000:	c0de                	.insn	2, 0xc0de
 7bce002:	c001                	.insn	2, 0xc001
 7bce004:	0000                	.insn	2, 0x0000
	...

Disassembly of section .SID_11_pm_enabled_s_hs_mode_stack:

00000006cf224000 <.SID_11_pm_enabled_s_hs_mode_stack>:
   6cf224000:	c0de                	.insn	2, 0xc0de
   6cf224002:	c001                	.insn	2, 0xc001
   6cf224004:	0000                	.insn	2, 0x0000
	...

Disassembly of section .SID_22_pm_disabled_mxr_set_stack:

fffffff31510b000 <.SID_22_pm_disabled_mxr_set_stack>:
fffffff31510b000:	c0de                	.insn	2, 0xc0de
fffffff31510b002:	c001                	.insn	2, 0xc001
fffffff31510b004:	0000                	.insn	2, 0x0000
	...

Disassembly of section .SID_23_pm_invalidation_instructions_stack:

0000000000c4d000 <.SID_23_pm_invalidation_instructions_stack>:
  c4d000:	c0de                	.insn	2, 0xc0de
  c4d002:	c001                	.insn	2, 0xc001
  c4d004:	0000                	.insn	2, 0x0000
	...

Disassembly of section .SID_24_pm_instruction_set_stack:

0000000da0e95000 <.SID_24_pm_instruction_set_stack>:
   da0e95000:	c0de                	.insn	2, 0xc0de
   da0e95002:	c001                	.insn	2, 0xc001
   da0e95004:	0000                	.insn	2, 0x0000
	...

Disassembly of section .SID_25_pm_misaligned_access_stack:

000000010ed02000 <.SID_25_pm_misaligned_access_stack>:
   10ed02000:	c0de                	.insn	2, 0xc0de
   10ed02002:	c001                	.insn	2, 0xc001
   10ed02004:	0000                	.insn	2, 0x0000
	...

Disassembly of section .SID_26_pm_different_tags_same_address_stack:

00000000421cc000 <.SID_26_pm_different_tags_same_address_stack>:
    421cc000:	c0de                	.insn	2, 0xc0de
    421cc002:	c001                	.insn	2, 0xc001
    421cc004:	0000                	.insn	2, 0x0000
	...

Disassembly of section .SID_27_pm_implicit_access_stack:

000000009ca31000 <.SID_27_pm_implicit_access_stack>:
    9ca31000:	c0de                	.insn	2, 0xc0de
    9ca31002:	c001                	.insn	2, 0xc001
    9ca31004:	0000                	.insn	2, 0x0000
	...

Disassembly of section .SID_28_pm_faults_trap_values_stack:

0000000003dd3000 <.SID_28_pm_faults_trap_values_stack>:
 3dd3000:	c0de                	.insn	2, 0xc0de
 3dd3002:	c001                	.insn	2, 0xc001
 3dd3004:	0000                	.insn	2, 0x0000
	...

Disassembly of section .SID_29_pm_xtvec_tagged_address_stack:

00000000a6ac3000 <.SID_29_pm_xtvec_tagged_address_stack>:
    a6ac3000:	c0de                	.insn	2, 0xc0de
    a6ac3002:	c001                	.insn	2, 0xc001
    a6ac3004:	0000                	.insn	2, 0x0000
	...

Disassembly of section .__pagetable_map_os_0x0001449c4cb82000:

0001449c4cb82000 <__pagetable_map_os_0x0001449c4cb82000>:
   1449c4cb82000:	c001                	.insn	2, 0xc001
   1449c4cb82002:	a7cc                	.insn	2, 0xa7cc
   1449c4cb82004:	3e96                	.insn	2, 0x3e96
   1449c4cb82006:	0000                	.insn	2, 0x0000
   1449c4cb82008:	e001                	.insn	2, 0xe001
   1449c4cb8200a:	d425                	.insn	2, 0xd425
   1449c4cb8200c:	0081                	.insn	2, 0x0081
   1449c4cb8200e:	0000                	.insn	2, 0x0000
   1449c4cb82010:	5c01                	.insn	2, 0x5c01
   1449c4cb82012:	061c                	.insn	2, 0x061c
   1449c4cb82014:	0c1a                	.insn	2, 0x0c1a
   1449c4cb82016:	0000                	.insn	2, 0x0000
   1449c4cb82018:	3c01                	.insn	2, 0x3c01
   1449c4cb8201a:	cfad                	.insn	2, 0xcfad
   1449c4cb8201c:	b578                	.insn	2, 0xb578
   1449c4cb8201e:	0000                	.insn	2, 0x0000
   1449c4cb82020:	0c01                	.insn	2, 0x0c01
   1449c4cb82022:	0bf1                	.insn	2, 0x0bf1
   1449c4cb82024:	0158                	.insn	2, 0x0158
	...
   1449c4cb820ae:	0000                	.insn	2, 0x0000
   1449c4cb820b0:	5801                	.insn	2, 0x5801
   1449c4cb820b2:	ea38                	.insn	2, 0xea38
   1449c4cb820b4:	0001                	.insn	2, 0x0001
	...
   1449c4cb820d6:	0000                	.insn	2, 0x0000
   1449c4cb820d8:	6401                	.insn	2, 0x6401
   1449c4cb820da:	00003bcb          	fnmsub.s	f23,f0,f0,f0,rup
	...
   1449c4cb820f6:	0000                	.insn	2, 0x0000
   1449c4cb820f8:	4c01                	.insn	2, 0x4c01
   1449c4cb820fa:	dee9                	.insn	2, 0xdee9
   1449c4cb820fc:	001e                	.insn	2, 0x001e
	...
   1449c4cb821ae:	0000                	.insn	2, 0x0000
   1449c4cb821b0:	8001                	.insn	2, 0x8001
   1449c4cb821b2:	a556                	.insn	2, 0xa556
   1449c4cb821b4:	00ec                	.insn	2, 0x00ec
	...
   1449c4cb821f6:	0000                	.insn	2, 0x0000
   1449c4cb821f8:	3801                	.insn	2, 0x3801
   1449c4cb821fa:	dde6                	.insn	2, 0xdde6
   1449c4cb821fc:	0001                	.insn	2, 0x0001
	...
   1449c4cb82386:	0000                	.insn	2, 0x0000
   1449c4cb82388:	2801                	.insn	2, 0x2801
   1449c4cb8238a:	75d0                	.insn	2, 0x75d0
   1449c4cb8238c:	10f0                	.insn	2, 0x10f0
	...
   1449c4cb82e5e:	0000                	.insn	2, 0x0000
   1449c4cb82e60:	9401                	.insn	2, 0x9401
   1449c4cb82e62:	8e5f 5061 0000      	.insn	6, 0x50618e5f

Disassembly of section .__pagetable_map_os_0x0000306818717000:

0000306818717000 <__pagetable_map_os_0x0000306818717000>:
    306818717000:	2001                	.insn	2, 0x2001
    306818717002:	2745                	.insn	2, 0x2745
    306818717004:	020e                	.insn	2, 0x020e
    306818717006:	0000                	.insn	2, 0x0000
    306818717008:	2801                	.insn	2, 0x2801
    30681871700a:	3e41                	.insn	2, 0x3e41
	...
    306818717728:	6401                	.insn	2, 0x6401
    30681871772a:	0002212b          	.insn	4, 0x0002212b
	...
    3068187179a6:	0000                	.insn	2, 0x0000
    3068187179a8:	1001                	.insn	2, 0x1001
    3068187179aa:	642d                	.insn	2, 0x642d
    3068187179ac:	00002657          	vredsum.vs	v12,v0,v0,v0.t

Disassembly of section .__pagetable_map_os_0x000008389d148000:

000008389d148000 <__pagetable_map_os_0x000008389d148000>:
	...
 8389d148080:	200040cf          	fnmadd.s	f1,f0,f0,f4,rmm
 8389d148084:	0000                	.insn	2, 0x0000
 8389d148086:	0000                	.insn	2, 0x0000
 8389d148088:	200044cf          	fnmadd.s	f9,f0,f0,f4,rmm
 8389d14808c:	0000                	.insn	2, 0x0000
 8389d14808e:	0000                	.insn	2, 0x0000
 8389d148090:	200048cf          	fnmadd.s	f17,f0,f0,f4,rmm
 8389d148094:	0000                	.insn	2, 0x0000
 8389d148096:	0000                	.insn	2, 0x0000
 8389d148098:	20004ccf          	fnmadd.s	f25,f0,f0,f4,rmm
 8389d14809c:	0000                	.insn	2, 0x0000
 8389d14809e:	0000                	.insn	2, 0x0000
 8389d1480a0:	d19800cf          	fnmadd.s	f1,f16,f25,f26,rne
 8389d1480a4:	0600                	.insn	2, 0x0600
 8389d1480a6:	0000                	.insn	2, 0x0000
 8389d1480a8:	d19804cf          	fnmadd.s	f9,f16,f25,f26,rne
 8389d1480ac:	0600                	.insn	2, 0x0600
 8389d1480ae:	0000                	.insn	2, 0x0000
 8389d1480b0:	d19808cf          	fnmadd.s	f17,f16,f25,f26,rne
 8389d1480b4:	0600                	.insn	2, 0x0600
 8389d1480b6:	0000                	.insn	2, 0x0000
 8389d1480b8:	d1980ccf          	fnmadd.s	f25,f16,f25,f26,rne
 8389d1480bc:	0600                	.insn	2, 0x0600
 8389d1480be:	0000                	.insn	2, 0x0000
 8389d1480c0:	d19810cf          	fnmadd.s	f1,f16,f25,f26,rtz
 8389d1480c4:	0600                	.insn	2, 0x0600
 8389d1480c6:	0000                	.insn	2, 0x0000
 8389d1480c8:	d19814cf          	fnmadd.s	f9,f16,f25,f26,rtz
 8389d1480cc:	0600                	.insn	2, 0x0600
 8389d1480ce:	0000                	.insn	2, 0x0000
 8389d1480d0:	d19818cf          	fnmadd.s	f17,f16,f25,f26,rtz
 8389d1480d4:	0600                	.insn	2, 0x0600
 8389d1480d6:	0000                	.insn	2, 0x0000
 8389d1480d8:	d1981ccf          	fnmadd.s	f25,f16,f25,f26,rtz
 8389d1480dc:	0600                	.insn	2, 0x0600
 8389d1480de:	0000                	.insn	2, 0x0000
 8389d1480e0:	d19820cf          	fnmadd.s	f1,f16,f25,f26,rdn
 8389d1480e4:	0600                	.insn	2, 0x0600
 8389d1480e6:	0000                	.insn	2, 0x0000
 8389d1480e8:	d19824cf          	fnmadd.s	f9,f16,f25,f26,rdn
 8389d1480ec:	0600                	.insn	2, 0x0600
 8389d1480ee:	0000                	.insn	2, 0x0000
 8389d1480f0:	d19828cf          	fnmadd.s	f17,f16,f25,f26,rdn
 8389d1480f4:	0600                	.insn	2, 0x0600
 8389d1480f6:	0000                	.insn	2, 0x0000
 8389d1480f8:	d1982ccf          	fnmadd.s	f25,f16,f25,f26,rdn
 8389d1480fc:	0600                	.insn	2, 0x0600
 8389d1480fe:	0000                	.insn	2, 0x0000
 8389d148100:	d19830cf          	fnmadd.s	f1,f16,f25,f26,rup
 8389d148104:	0600                	.insn	2, 0x0600
 8389d148106:	0000                	.insn	2, 0x0000
 8389d148108:	d19834cf          	fnmadd.s	f9,f16,f25,f26,rup
 8389d14810c:	0600                	.insn	2, 0x0600
 8389d14810e:	0000                	.insn	2, 0x0000
 8389d148110:	d19838cf          	fnmadd.s	f17,f16,f25,f26,rup
 8389d148114:	0600                	.insn	2, 0x0600
 8389d148116:	0000                	.insn	2, 0x0000
 8389d148118:	d1983ccf          	fnmadd.s	f25,f16,f25,f26,rup
 8389d14811c:	0600                	.insn	2, 0x0600
 8389d14811e:	0000                	.insn	2, 0x0000
 8389d148120:	d19840cf          	fnmadd.s	f1,f16,f25,f26,rmm
 8389d148124:	0600                	.insn	2, 0x0600
 8389d148126:	0000                	.insn	2, 0x0000
 8389d148128:	d19844cf          	fnmadd.s	f9,f16,f25,f26,rmm
 8389d14812c:	0600                	.insn	2, 0x0600
 8389d14812e:	0000                	.insn	2, 0x0000
 8389d148130:	d19848cf          	fnmadd.s	f17,f16,f25,f26,rmm
 8389d148134:	0600                	.insn	2, 0x0600
 8389d148136:	0000                	.insn	2, 0x0000
 8389d148138:	d1984ccf          	fnmadd.s	f25,f16,f25,f26,rmm
 8389d14813c:	0600                	.insn	2, 0x0600
 8389d14813e:	0000                	.insn	2, 0x0000
 8389d148140:	d19850cf          	fnmadd.s	f1,f16,f25,f26,unknown
 8389d148144:	0600                	.insn	2, 0x0600
 8389d148146:	0000                	.insn	2, 0x0000
 8389d148148:	d19854cf          	fnmadd.s	f9,f16,f25,f26,unknown
 8389d14814c:	0600                	.insn	2, 0x0600
 8389d14814e:	0000                	.insn	2, 0x0000
 8389d148150:	d19858cf          	fnmadd.s	f17,f16,f25,f26,unknown
 8389d148154:	0600                	.insn	2, 0x0600
 8389d148156:	0000                	.insn	2, 0x0000
 8389d148158:	d1985ccf          	fnmadd.s	f25,f16,f25,f26,unknown
 8389d14815c:	0600                	.insn	2, 0x0600
 8389d14815e:	0000                	.insn	2, 0x0000
 8389d148160:	d19860cf          	fnmadd.s	f1,f16,f25,f26,unknown
 8389d148164:	0600                	.insn	2, 0x0600
 8389d148166:	0000                	.insn	2, 0x0000
 8389d148168:	d19864cf          	fnmadd.s	f9,f16,f25,f26,unknown
 8389d14816c:	0600                	.insn	2, 0x0600
 8389d14816e:	0000                	.insn	2, 0x0000
 8389d148170:	d19868cf          	fnmadd.s	f17,f16,f25,f26,unknown
 8389d148174:	0600                	.insn	2, 0x0600
 8389d148176:	0000                	.insn	2, 0x0000
 8389d148178:	d1986ccf          	fnmadd.s	f25,f16,f25,f26,unknown
 8389d14817c:	0600                	.insn	2, 0x0600
 8389d14817e:	0000                	.insn	2, 0x0000
 8389d148180:	d19870cf          	fnmadd.s	f1,f16,f25,f26
 8389d148184:	0600                	.insn	2, 0x0600
 8389d148186:	0000                	.insn	2, 0x0000
 8389d148188:	d19874cf          	fnmadd.s	f9,f16,f25,f26
 8389d14818c:	0600                	.insn	2, 0x0600
 8389d14818e:	0000                	.insn	2, 0x0000
 8389d148190:	d19878cf          	fnmadd.s	f17,f16,f25,f26
 8389d148194:	0600                	.insn	2, 0x0600
 8389d148196:	0000                	.insn	2, 0x0000
 8389d148198:	d1987ccf          	fnmadd.s	f25,f16,f25,f26
 8389d14819c:	0600                	.insn	2, 0x0600
 8389d14819e:	0000                	.insn	2, 0x0000
 8389d1481a0:	d19880cf          	fnmadd.s	f1,f17,f25,f26,rne
 8389d1481a4:	0600                	.insn	2, 0x0600
 8389d1481a6:	0000                	.insn	2, 0x0000
 8389d1481a8:	d19884cf          	fnmadd.s	f9,f17,f25,f26,rne
 8389d1481ac:	0600                	.insn	2, 0x0600
 8389d1481ae:	0000                	.insn	2, 0x0000
 8389d1481b0:	d19888cf          	fnmadd.s	f17,f17,f25,f26,rne
 8389d1481b4:	0600                	.insn	2, 0x0600
 8389d1481b6:	0000                	.insn	2, 0x0000
 8389d1481b8:	d1988ccf          	fnmadd.s	f25,f17,f25,f26,rne
 8389d1481bc:	0600                	.insn	2, 0x0600
 8389d1481be:	0000                	.insn	2, 0x0000
 8389d1481c0:	d19890cf          	fnmadd.s	f1,f17,f25,f26,rtz
 8389d1481c4:	0600                	.insn	2, 0x0600
 8389d1481c6:	0000                	.insn	2, 0x0000
 8389d1481c8:	d19894cf          	fnmadd.s	f9,f17,f25,f26,rtz
 8389d1481cc:	0600                	.insn	2, 0x0600
 8389d1481ce:	0000                	.insn	2, 0x0000
 8389d1481d0:	d19898cf          	fnmadd.s	f17,f17,f25,f26,rtz
 8389d1481d4:	0600                	.insn	2, 0x0600
 8389d1481d6:	0000                	.insn	2, 0x0000
 8389d1481d8:	d1989ccf          	fnmadd.s	f25,f17,f25,f26,rtz
 8389d1481dc:	0600                	.insn	2, 0x0600
 8389d1481de:	0000                	.insn	2, 0x0000
 8389d1481e0:	d198a0cf          	fnmadd.s	f1,f17,f25,f26,rdn
 8389d1481e4:	0600                	.insn	2, 0x0600
 8389d1481e6:	0000                	.insn	2, 0x0000
 8389d1481e8:	d198a4cf          	fnmadd.s	f9,f17,f25,f26,rdn
 8389d1481ec:	0600                	.insn	2, 0x0600
 8389d1481ee:	0000                	.insn	2, 0x0000
 8389d1481f0:	d198a8cf          	fnmadd.s	f17,f17,f25,f26,rdn
 8389d1481f4:	0600                	.insn	2, 0x0600
 8389d1481f6:	0000                	.insn	2, 0x0000
 8389d1481f8:	d198accf          	fnmadd.s	f25,f17,f25,f26,rdn
 8389d1481fc:	0600                	.insn	2, 0x0600
 8389d1481fe:	0000                	.insn	2, 0x0000
 8389d148200:	d198b0cf          	fnmadd.s	f1,f17,f25,f26,rup
 8389d148204:	0600                	.insn	2, 0x0600
 8389d148206:	0000                	.insn	2, 0x0000
 8389d148208:	d198b4cf          	fnmadd.s	f9,f17,f25,f26,rup
 8389d14820c:	0600                	.insn	2, 0x0600
 8389d14820e:	0000                	.insn	2, 0x0000
 8389d148210:	d198b8cf          	fnmadd.s	f17,f17,f25,f26,rup
 8389d148214:	0600                	.insn	2, 0x0600
 8389d148216:	0000                	.insn	2, 0x0000
 8389d148218:	d198bccf          	fnmadd.s	f25,f17,f25,f26,rup
 8389d14821c:	0600                	.insn	2, 0x0600
 8389d14821e:	0000                	.insn	2, 0x0000
 8389d148220:	d198c0cf          	fnmadd.s	f1,f17,f25,f26,rmm
 8389d148224:	0600                	.insn	2, 0x0600
 8389d148226:	0000                	.insn	2, 0x0000
 8389d148228:	d198c4cf          	fnmadd.s	f9,f17,f25,f26,rmm
 8389d14822c:	0600                	.insn	2, 0x0600
 8389d14822e:	0000                	.insn	2, 0x0000
 8389d148230:	d198c8cf          	fnmadd.s	f17,f17,f25,f26,rmm
 8389d148234:	0600                	.insn	2, 0x0600
 8389d148236:	0000                	.insn	2, 0x0000
 8389d148238:	d198cccf          	fnmadd.s	f25,f17,f25,f26,rmm
 8389d14823c:	0600                	.insn	2, 0x0600
 8389d14823e:	0000                	.insn	2, 0x0000
 8389d148240:	d198d0cf          	fnmadd.s	f1,f17,f25,f26,unknown
 8389d148244:	0600                	.insn	2, 0x0600
 8389d148246:	0000                	.insn	2, 0x0000
 8389d148248:	d198d4cf          	fnmadd.s	f9,f17,f25,f26,unknown
 8389d14824c:	0600                	.insn	2, 0x0600
 8389d14824e:	0000                	.insn	2, 0x0000
 8389d148250:	d198d8cf          	fnmadd.s	f17,f17,f25,f26,unknown
 8389d148254:	0600                	.insn	2, 0x0600
 8389d148256:	0000                	.insn	2, 0x0000
 8389d148258:	d198dccf          	fnmadd.s	f25,f17,f25,f26,unknown
 8389d14825c:	0600                	.insn	2, 0x0600
 8389d14825e:	0000                	.insn	2, 0x0000
 8389d148260:	d198e0cf          	fnmadd.s	f1,f17,f25,f26,unknown
 8389d148264:	0600                	.insn	2, 0x0600
 8389d148266:	0000                	.insn	2, 0x0000
 8389d148268:	d198e4cf          	fnmadd.s	f9,f17,f25,f26,unknown
 8389d14826c:	0600                	.insn	2, 0x0600
 8389d14826e:	0000                	.insn	2, 0x0000
 8389d148270:	d198e8cf          	fnmadd.s	f17,f17,f25,f26,unknown
 8389d148274:	0600                	.insn	2, 0x0600
 8389d148276:	0000                	.insn	2, 0x0000
 8389d148278:	d198eccf          	fnmadd.s	f25,f17,f25,f26,unknown
 8389d14827c:	0600                	.insn	2, 0x0600
 8389d14827e:	0000                	.insn	2, 0x0000
 8389d148280:	d198f0cf          	fnmadd.s	f1,f17,f25,f26
 8389d148284:	0600                	.insn	2, 0x0600
 8389d148286:	0000                	.insn	2, 0x0000
 8389d148288:	d198f4cf          	fnmadd.s	f9,f17,f25,f26
 8389d14828c:	0600                	.insn	2, 0x0600
 8389d14828e:	0000                	.insn	2, 0x0000
 8389d148290:	d198f8cf          	fnmadd.s	f17,f17,f25,f26
 8389d148294:	0600                	.insn	2, 0x0600
 8389d148296:	0000                	.insn	2, 0x0000
 8389d148298:	d198fccf          	fnmadd.s	f25,f17,f25,f26
 8389d14829c:	0600                	.insn	2, 0x0600
 8389d14829e:	0000                	.insn	2, 0x0000
 8389d1482a0:	d19900cf          	fnmadd.s	f1,f18,f25,f26,rne
 8389d1482a4:	0600                	.insn	2, 0x0600
 8389d1482a6:	0000                	.insn	2, 0x0000
 8389d1482a8:	d19904cf          	fnmadd.s	f9,f18,f25,f26,rne
 8389d1482ac:	0600                	.insn	2, 0x0600
 8389d1482ae:	0000                	.insn	2, 0x0000
 8389d1482b0:	d19908cf          	fnmadd.s	f17,f18,f25,f26,rne
 8389d1482b4:	0600                	.insn	2, 0x0600
 8389d1482b6:	0000                	.insn	2, 0x0000
 8389d1482b8:	d1990ccf          	fnmadd.s	f25,f18,f25,f26,rne
 8389d1482bc:	0600                	.insn	2, 0x0600
 8389d1482be:	0000                	.insn	2, 0x0000
 8389d1482c0:	d19910cf          	fnmadd.s	f1,f18,f25,f26,rtz
 8389d1482c4:	0600                	.insn	2, 0x0600
 8389d1482c6:	0000                	.insn	2, 0x0000
 8389d1482c8:	d19914cf          	fnmadd.s	f9,f18,f25,f26,rtz
 8389d1482cc:	0600                	.insn	2, 0x0600
 8389d1482ce:	0000                	.insn	2, 0x0000
 8389d1482d0:	d19918cf          	fnmadd.s	f17,f18,f25,f26,rtz
 8389d1482d4:	0600                	.insn	2, 0x0600
 8389d1482d6:	0000                	.insn	2, 0x0000
 8389d1482d8:	d1991ccf          	fnmadd.s	f25,f18,f25,f26,rtz
 8389d1482dc:	0600                	.insn	2, 0x0600
 8389d1482de:	0000                	.insn	2, 0x0000
 8389d1482e0:	d19920cf          	fnmadd.s	f1,f18,f25,f26,rdn
 8389d1482e4:	0600                	.insn	2, 0x0600
 8389d1482e6:	0000                	.insn	2, 0x0000
 8389d1482e8:	d19924cf          	fnmadd.s	f9,f18,f25,f26,rdn
 8389d1482ec:	0600                	.insn	2, 0x0600
 8389d1482ee:	0000                	.insn	2, 0x0000
 8389d1482f0:	d19928cf          	fnmadd.s	f17,f18,f25,f26,rdn
 8389d1482f4:	0600                	.insn	2, 0x0600
 8389d1482f6:	0000                	.insn	2, 0x0000
 8389d1482f8:	d1992ccf          	fnmadd.s	f25,f18,f25,f26,rdn
 8389d1482fc:	0600                	.insn	2, 0x0600
 8389d1482fe:	0000                	.insn	2, 0x0000
 8389d148300:	d19930cf          	fnmadd.s	f1,f18,f25,f26,rup
 8389d148304:	0600                	.insn	2, 0x0600
 8389d148306:	0000                	.insn	2, 0x0000
 8389d148308:	d19934cf          	fnmadd.s	f9,f18,f25,f26,rup
 8389d14830c:	0600                	.insn	2, 0x0600
 8389d14830e:	0000                	.insn	2, 0x0000
 8389d148310:	d19938cf          	fnmadd.s	f17,f18,f25,f26,rup
 8389d148314:	0600                	.insn	2, 0x0600
 8389d148316:	0000                	.insn	2, 0x0000
 8389d148318:	d1993ccf          	fnmadd.s	f25,f18,f25,f26,rup
 8389d14831c:	0600                	.insn	2, 0x0600
 8389d14831e:	0000                	.insn	2, 0x0000
 8389d148320:	d19940cf          	fnmadd.s	f1,f18,f25,f26,rmm
 8389d148324:	0600                	.insn	2, 0x0600
 8389d148326:	0000                	.insn	2, 0x0000
 8389d148328:	d19944cf          	fnmadd.s	f9,f18,f25,f26,rmm
 8389d14832c:	0600                	.insn	2, 0x0600
 8389d14832e:	0000                	.insn	2, 0x0000
 8389d148330:	d19948cf          	fnmadd.s	f17,f18,f25,f26,rmm
 8389d148334:	0600                	.insn	2, 0x0600
 8389d148336:	0000                	.insn	2, 0x0000
 8389d148338:	d1994ccf          	fnmadd.s	f25,f18,f25,f26,rmm
 8389d14833c:	0600                	.insn	2, 0x0600
 8389d14833e:	0000                	.insn	2, 0x0000
 8389d148340:	d19950cf          	fnmadd.s	f1,f18,f25,f26,unknown
 8389d148344:	0600                	.insn	2, 0x0600
 8389d148346:	0000                	.insn	2, 0x0000
 8389d148348:	d19954cf          	fnmadd.s	f9,f18,f25,f26,unknown
 8389d14834c:	0600                	.insn	2, 0x0600
 8389d14834e:	0000                	.insn	2, 0x0000
 8389d148350:	d19958cf          	fnmadd.s	f17,f18,f25,f26,unknown
 8389d148354:	0600                	.insn	2, 0x0600
 8389d148356:	0000                	.insn	2, 0x0000
 8389d148358:	d1995ccf          	fnmadd.s	f25,f18,f25,f26,unknown
 8389d14835c:	0600                	.insn	2, 0x0600
 8389d14835e:	0000                	.insn	2, 0x0000
 8389d148360:	d19960cf          	fnmadd.s	f1,f18,f25,f26,unknown
 8389d148364:	0600                	.insn	2, 0x0600
 8389d148366:	0000                	.insn	2, 0x0000
 8389d148368:	d19964cf          	fnmadd.s	f9,f18,f25,f26,unknown
 8389d14836c:	0600                	.insn	2, 0x0600
 8389d14836e:	0000                	.insn	2, 0x0000
 8389d148370:	d19968cf          	fnmadd.s	f17,f18,f25,f26,unknown
 8389d148374:	0600                	.insn	2, 0x0600
 8389d148376:	0000                	.insn	2, 0x0000
 8389d148378:	d1996ccf          	fnmadd.s	f25,f18,f25,f26,unknown
 8389d14837c:	0600                	.insn	2, 0x0600
 8389d14837e:	0000                	.insn	2, 0x0000
 8389d148380:	d19970cf          	fnmadd.s	f1,f18,f25,f26
 8389d148384:	0600                	.insn	2, 0x0600
 8389d148386:	0000                	.insn	2, 0x0000
 8389d148388:	d19974cf          	fnmadd.s	f9,f18,f25,f26
 8389d14838c:	0600                	.insn	2, 0x0600
 8389d14838e:	0000                	.insn	2, 0x0000
 8389d148390:	d19978cf          	fnmadd.s	f17,f18,f25,f26
 8389d148394:	0600                	.insn	2, 0x0600
 8389d148396:	0000                	.insn	2, 0x0000
 8389d148398:	d1997ccf          	fnmadd.s	f25,f18,f25,f26
 8389d14839c:	0600                	.insn	2, 0x0600
 8389d14839e:	0000                	.insn	2, 0x0000
 8389d1483a0:	d19980cf          	fnmadd.s	f1,f19,f25,f26,rne
 8389d1483a4:	0600                	.insn	2, 0x0600
 8389d1483a6:	0000                	.insn	2, 0x0000
 8389d1483a8:	d19984cf          	fnmadd.s	f9,f19,f25,f26,rne
 8389d1483ac:	0600                	.insn	2, 0x0600
 8389d1483ae:	0000                	.insn	2, 0x0000
 8389d1483b0:	d19988cf          	fnmadd.s	f17,f19,f25,f26,rne
 8389d1483b4:	0600                	.insn	2, 0x0600
 8389d1483b6:	0000                	.insn	2, 0x0000
 8389d1483b8:	d1998ccf          	fnmadd.s	f25,f19,f25,f26,rne
 8389d1483bc:	0600                	.insn	2, 0x0600
 8389d1483be:	0000                	.insn	2, 0x0000
 8389d1483c0:	d19990cf          	fnmadd.s	f1,f19,f25,f26,rtz
 8389d1483c4:	0600                	.insn	2, 0x0600
 8389d1483c6:	0000                	.insn	2, 0x0000
 8389d1483c8:	d19994cf          	fnmadd.s	f9,f19,f25,f26,rtz
 8389d1483cc:	0600                	.insn	2, 0x0600
 8389d1483ce:	0000                	.insn	2, 0x0000
 8389d1483d0:	d19998cf          	fnmadd.s	f17,f19,f25,f26,rtz
 8389d1483d4:	0600                	.insn	2, 0x0600
 8389d1483d6:	0000                	.insn	2, 0x0000
 8389d1483d8:	d1999ccf          	fnmadd.s	f25,f19,f25,f26,rtz
 8389d1483dc:	0600                	.insn	2, 0x0600
 8389d1483de:	0000                	.insn	2, 0x0000
 8389d1483e0:	d199a0cf          	fnmadd.s	f1,f19,f25,f26,rdn
 8389d1483e4:	0600                	.insn	2, 0x0600
 8389d1483e6:	0000                	.insn	2, 0x0000
 8389d1483e8:	d199a4cf          	fnmadd.s	f9,f19,f25,f26,rdn
 8389d1483ec:	0600                	.insn	2, 0x0600
 8389d1483ee:	0000                	.insn	2, 0x0000
 8389d1483f0:	d199a8cf          	fnmadd.s	f17,f19,f25,f26,rdn
 8389d1483f4:	0600                	.insn	2, 0x0600
 8389d1483f6:	0000                	.insn	2, 0x0000
 8389d1483f8:	d199accf          	fnmadd.s	f25,f19,f25,f26,rdn
 8389d1483fc:	0600                	.insn	2, 0x0600
 8389d1483fe:	0000                	.insn	2, 0x0000
 8389d148400:	d199b0cf          	fnmadd.s	f1,f19,f25,f26,rup
 8389d148404:	0600                	.insn	2, 0x0600
 8389d148406:	0000                	.insn	2, 0x0000
 8389d148408:	d199b4cf          	fnmadd.s	f9,f19,f25,f26,rup
 8389d14840c:	0600                	.insn	2, 0x0600
 8389d14840e:	0000                	.insn	2, 0x0000
 8389d148410:	d199b8cf          	fnmadd.s	f17,f19,f25,f26,rup
 8389d148414:	0600                	.insn	2, 0x0600
 8389d148416:	0000                	.insn	2, 0x0000
 8389d148418:	d199bccf          	fnmadd.s	f25,f19,f25,f26,rup
 8389d14841c:	0600                	.insn	2, 0x0600
 8389d14841e:	0000                	.insn	2, 0x0000
 8389d148420:	d199c0cf          	fnmadd.s	f1,f19,f25,f26,rmm
 8389d148424:	0600                	.insn	2, 0x0600
 8389d148426:	0000                	.insn	2, 0x0000
 8389d148428:	d199c4cf          	fnmadd.s	f9,f19,f25,f26,rmm
 8389d14842c:	0600                	.insn	2, 0x0600
 8389d14842e:	0000                	.insn	2, 0x0000
 8389d148430:	d199c8cf          	fnmadd.s	f17,f19,f25,f26,rmm
 8389d148434:	0600                	.insn	2, 0x0600
 8389d148436:	0000                	.insn	2, 0x0000
 8389d148438:	d199cccf          	fnmadd.s	f25,f19,f25,f26,rmm
 8389d14843c:	0600                	.insn	2, 0x0600
 8389d14843e:	0000                	.insn	2, 0x0000
 8389d148440:	d199d0cf          	fnmadd.s	f1,f19,f25,f26,unknown
 8389d148444:	0600                	.insn	2, 0x0600
 8389d148446:	0000                	.insn	2, 0x0000
 8389d148448:	d199d4cf          	fnmadd.s	f9,f19,f25,f26,unknown
 8389d14844c:	0600                	.insn	2, 0x0600
 8389d14844e:	0000                	.insn	2, 0x0000
 8389d148450:	d199d8cf          	fnmadd.s	f17,f19,f25,f26,unknown
 8389d148454:	0600                	.insn	2, 0x0600
 8389d148456:	0000                	.insn	2, 0x0000
 8389d148458:	d199dccf          	fnmadd.s	f25,f19,f25,f26,unknown
 8389d14845c:	0600                	.insn	2, 0x0600
 8389d14845e:	0000                	.insn	2, 0x0000
 8389d148460:	d199e0cf          	fnmadd.s	f1,f19,f25,f26,unknown
 8389d148464:	0600                	.insn	2, 0x0600
 8389d148466:	0000                	.insn	2, 0x0000
 8389d148468:	d199e4cf          	fnmadd.s	f9,f19,f25,f26,unknown
 8389d14846c:	0600                	.insn	2, 0x0600
 8389d14846e:	0000                	.insn	2, 0x0000
 8389d148470:	d199e8cf          	fnmadd.s	f17,f19,f25,f26,unknown
 8389d148474:	0600                	.insn	2, 0x0600
 8389d148476:	0000                	.insn	2, 0x0000
 8389d148478:	d199eccf          	fnmadd.s	f25,f19,f25,f26,unknown
 8389d14847c:	0600                	.insn	2, 0x0600
 8389d14847e:	0000                	.insn	2, 0x0000
 8389d148480:	d199f0cf          	fnmadd.s	f1,f19,f25,f26
 8389d148484:	0600                	.insn	2, 0x0600
 8389d148486:	0000                	.insn	2, 0x0000
 8389d148488:	d199f4cf          	fnmadd.s	f9,f19,f25,f26
 8389d14848c:	0600                	.insn	2, 0x0600
 8389d14848e:	0000                	.insn	2, 0x0000
 8389d148490:	d199f8cf          	fnmadd.s	f17,f19,f25,f26
 8389d148494:	0600                	.insn	2, 0x0600
 8389d148496:	0000                	.insn	2, 0x0000
 8389d148498:	d199fccf          	fnmadd.s	f25,f19,f25,f26
 8389d14849c:	0600                	.insn	2, 0x0600
 8389d14849e:	0000                	.insn	2, 0x0000
 8389d1484a0:	d19a00cf          	fnmadd.s	f1,f20,f25,f26,rne
 8389d1484a4:	0600                	.insn	2, 0x0600
 8389d1484a6:	0000                	.insn	2, 0x0000
 8389d1484a8:	d19a04cf          	fnmadd.s	f9,f20,f25,f26,rne
 8389d1484ac:	0600                	.insn	2, 0x0600
 8389d1484ae:	0000                	.insn	2, 0x0000
 8389d1484b0:	d19a08cf          	fnmadd.s	f17,f20,f25,f26,rne
 8389d1484b4:	0600                	.insn	2, 0x0600
 8389d1484b6:	0000                	.insn	2, 0x0000
 8389d1484b8:	d19a0ccf          	fnmadd.s	f25,f20,f25,f26,rne
 8389d1484bc:	0600                	.insn	2, 0x0600
 8389d1484be:	0000                	.insn	2, 0x0000
 8389d1484c0:	d19a10cf          	fnmadd.s	f1,f20,f25,f26,rtz
 8389d1484c4:	0600                	.insn	2, 0x0600
 8389d1484c6:	0000                	.insn	2, 0x0000
 8389d1484c8:	d19a14cf          	fnmadd.s	f9,f20,f25,f26,rtz
 8389d1484cc:	0600                	.insn	2, 0x0600
 8389d1484ce:	0000                	.insn	2, 0x0000
 8389d1484d0:	d19a18cf          	fnmadd.s	f17,f20,f25,f26,rtz
 8389d1484d4:	0600                	.insn	2, 0x0600
 8389d1484d6:	0000                	.insn	2, 0x0000
 8389d1484d8:	d19a1ccf          	fnmadd.s	f25,f20,f25,f26,rtz
 8389d1484dc:	0600                	.insn	2, 0x0600
 8389d1484de:	0000                	.insn	2, 0x0000
 8389d1484e0:	d19a20cf          	fnmadd.s	f1,f20,f25,f26,rdn
 8389d1484e4:	0600                	.insn	2, 0x0600
 8389d1484e6:	0000                	.insn	2, 0x0000
 8389d1484e8:	d19a24cf          	fnmadd.s	f9,f20,f25,f26,rdn
 8389d1484ec:	0600                	.insn	2, 0x0600
 8389d1484ee:	0000                	.insn	2, 0x0000
 8389d1484f0:	d19a28cf          	fnmadd.s	f17,f20,f25,f26,rdn
 8389d1484f4:	0600                	.insn	2, 0x0600
 8389d1484f6:	0000                	.insn	2, 0x0000
 8389d1484f8:	d19a2ccf          	fnmadd.s	f25,f20,f25,f26,rdn
 8389d1484fc:	0600                	.insn	2, 0x0600
 8389d1484fe:	0000                	.insn	2, 0x0000
 8389d148500:	d19a30cf          	fnmadd.s	f1,f20,f25,f26,rup
 8389d148504:	0600                	.insn	2, 0x0600
 8389d148506:	0000                	.insn	2, 0x0000
 8389d148508:	d19a34cf          	fnmadd.s	f9,f20,f25,f26,rup
 8389d14850c:	0600                	.insn	2, 0x0600
 8389d14850e:	0000                	.insn	2, 0x0000
 8389d148510:	d19a38cf          	fnmadd.s	f17,f20,f25,f26,rup
 8389d148514:	0600                	.insn	2, 0x0600
 8389d148516:	0000                	.insn	2, 0x0000
 8389d148518:	d19a3ccf          	fnmadd.s	f25,f20,f25,f26,rup
 8389d14851c:	0600                	.insn	2, 0x0600
 8389d14851e:	0000                	.insn	2, 0x0000
 8389d148520:	d19a40cf          	fnmadd.s	f1,f20,f25,f26,rmm
 8389d148524:	0600                	.insn	2, 0x0600
 8389d148526:	0000                	.insn	2, 0x0000
 8389d148528:	d19a44cf          	fnmadd.s	f9,f20,f25,f26,rmm
 8389d14852c:	0600                	.insn	2, 0x0600
 8389d14852e:	0000                	.insn	2, 0x0000
 8389d148530:	d19a48cf          	fnmadd.s	f17,f20,f25,f26,rmm
 8389d148534:	0600                	.insn	2, 0x0600
 8389d148536:	0000                	.insn	2, 0x0000
 8389d148538:	d19a4ccf          	fnmadd.s	f25,f20,f25,f26,rmm
 8389d14853c:	0600                	.insn	2, 0x0600
 8389d14853e:	0000                	.insn	2, 0x0000
 8389d148540:	d19a50cf          	fnmadd.s	f1,f20,f25,f26,unknown
 8389d148544:	0600                	.insn	2, 0x0600
 8389d148546:	0000                	.insn	2, 0x0000
 8389d148548:	d19a54cf          	fnmadd.s	f9,f20,f25,f26,unknown
 8389d14854c:	0600                	.insn	2, 0x0600
 8389d14854e:	0000                	.insn	2, 0x0000
 8389d148550:	d19a58cf          	fnmadd.s	f17,f20,f25,f26,unknown
 8389d148554:	0600                	.insn	2, 0x0600
 8389d148556:	0000                	.insn	2, 0x0000
 8389d148558:	d19a5ccf          	fnmadd.s	f25,f20,f25,f26,unknown
 8389d14855c:	0600                	.insn	2, 0x0600
 8389d14855e:	0000                	.insn	2, 0x0000
 8389d148560:	d19a60cf          	fnmadd.s	f1,f20,f25,f26,unknown
 8389d148564:	0600                	.insn	2, 0x0600
 8389d148566:	0000                	.insn	2, 0x0000
 8389d148568:	d19a64cf          	fnmadd.s	f9,f20,f25,f26,unknown
 8389d14856c:	0600                	.insn	2, 0x0600
 8389d14856e:	0000                	.insn	2, 0x0000
 8389d148570:	d19a68cf          	fnmadd.s	f17,f20,f25,f26,unknown
 8389d148574:	0600                	.insn	2, 0x0600
 8389d148576:	0000                	.insn	2, 0x0000
 8389d148578:	d19a6ccf          	fnmadd.s	f25,f20,f25,f26,unknown
 8389d14857c:	0600                	.insn	2, 0x0600
 8389d14857e:	0000                	.insn	2, 0x0000
 8389d148580:	d19a70cf          	fnmadd.s	f1,f20,f25,f26
 8389d148584:	0600                	.insn	2, 0x0600
 8389d148586:	0000                	.insn	2, 0x0000
 8389d148588:	d19a74cf          	fnmadd.s	f9,f20,f25,f26
 8389d14858c:	0600                	.insn	2, 0x0600
 8389d14858e:	0000                	.insn	2, 0x0000
 8389d148590:	d19a78cf          	fnmadd.s	f17,f20,f25,f26
 8389d148594:	0600                	.insn	2, 0x0600
 8389d148596:	0000                	.insn	2, 0x0000
 8389d148598:	d19a7ccf          	fnmadd.s	f25,f20,f25,f26
 8389d14859c:	0600                	.insn	2, 0x0600
 8389d14859e:	0000                	.insn	2, 0x0000
 8389d1485a0:	d19a80cf          	fnmadd.s	f1,f21,f25,f26,rne
 8389d1485a4:	0600                	.insn	2, 0x0600
 8389d1485a6:	0000                	.insn	2, 0x0000
 8389d1485a8:	d19a84cf          	fnmadd.s	f9,f21,f25,f26,rne
 8389d1485ac:	0600                	.insn	2, 0x0600
 8389d1485ae:	0000                	.insn	2, 0x0000
 8389d1485b0:	d19a88cf          	fnmadd.s	f17,f21,f25,f26,rne
 8389d1485b4:	0600                	.insn	2, 0x0600
 8389d1485b6:	0000                	.insn	2, 0x0000
 8389d1485b8:	d19a8ccf          	fnmadd.s	f25,f21,f25,f26,rne
 8389d1485bc:	0600                	.insn	2, 0x0600
 8389d1485be:	0000                	.insn	2, 0x0000
 8389d1485c0:	d19a90cf          	fnmadd.s	f1,f21,f25,f26,rtz
 8389d1485c4:	0600                	.insn	2, 0x0600
 8389d1485c6:	0000                	.insn	2, 0x0000
 8389d1485c8:	d19a94cf          	fnmadd.s	f9,f21,f25,f26,rtz
 8389d1485cc:	0600                	.insn	2, 0x0600
 8389d1485ce:	0000                	.insn	2, 0x0000
 8389d1485d0:	d19a98cf          	fnmadd.s	f17,f21,f25,f26,rtz
 8389d1485d4:	0600                	.insn	2, 0x0600
 8389d1485d6:	0000                	.insn	2, 0x0000
 8389d1485d8:	d19a9ccf          	fnmadd.s	f25,f21,f25,f26,rtz
 8389d1485dc:	0600                	.insn	2, 0x0600
 8389d1485de:	0000                	.insn	2, 0x0000
 8389d1485e0:	d19aa0cf          	fnmadd.s	f1,f21,f25,f26,rdn
 8389d1485e4:	0600                	.insn	2, 0x0600
 8389d1485e6:	0000                	.insn	2, 0x0000
 8389d1485e8:	d19aa4cf          	fnmadd.s	f9,f21,f25,f26,rdn
 8389d1485ec:	0600                	.insn	2, 0x0600
 8389d1485ee:	0000                	.insn	2, 0x0000
 8389d1485f0:	d19aa8cf          	fnmadd.s	f17,f21,f25,f26,rdn
 8389d1485f4:	0600                	.insn	2, 0x0600
 8389d1485f6:	0000                	.insn	2, 0x0000
 8389d1485f8:	d19aaccf          	fnmadd.s	f25,f21,f25,f26,rdn
 8389d1485fc:	0600                	.insn	2, 0x0600
 8389d1485fe:	0000                	.insn	2, 0x0000
 8389d148600:	d19ab0cf          	fnmadd.s	f1,f21,f25,f26,rup
 8389d148604:	0600                	.insn	2, 0x0600
 8389d148606:	0000                	.insn	2, 0x0000
 8389d148608:	d19ab4cf          	fnmadd.s	f9,f21,f25,f26,rup
 8389d14860c:	0600                	.insn	2, 0x0600
 8389d14860e:	0000                	.insn	2, 0x0000
 8389d148610:	d19ab8cf          	fnmadd.s	f17,f21,f25,f26,rup
 8389d148614:	0600                	.insn	2, 0x0600
 8389d148616:	0000                	.insn	2, 0x0000
 8389d148618:	d19abccf          	fnmadd.s	f25,f21,f25,f26,rup
 8389d14861c:	0600                	.insn	2, 0x0600
 8389d14861e:	0000                	.insn	2, 0x0000
 8389d148620:	d19ac0cf          	fnmadd.s	f1,f21,f25,f26,rmm
 8389d148624:	0600                	.insn	2, 0x0600
 8389d148626:	0000                	.insn	2, 0x0000
 8389d148628:	d19ac4cf          	fnmadd.s	f9,f21,f25,f26,rmm
 8389d14862c:	0600                	.insn	2, 0x0600
 8389d14862e:	0000                	.insn	2, 0x0000
 8389d148630:	d19ac8cf          	fnmadd.s	f17,f21,f25,f26,rmm
 8389d148634:	0600                	.insn	2, 0x0600
 8389d148636:	0000                	.insn	2, 0x0000
 8389d148638:	d19acccf          	fnmadd.s	f25,f21,f25,f26,rmm
 8389d14863c:	0600                	.insn	2, 0x0600
 8389d14863e:	0000                	.insn	2, 0x0000
 8389d148640:	d19ad0cf          	fnmadd.s	f1,f21,f25,f26,unknown
 8389d148644:	0600                	.insn	2, 0x0600
 8389d148646:	0000                	.insn	2, 0x0000
 8389d148648:	d19ad4cf          	fnmadd.s	f9,f21,f25,f26,unknown
 8389d14864c:	0600                	.insn	2, 0x0600
 8389d14864e:	0000                	.insn	2, 0x0000
 8389d148650:	d19ad8cf          	fnmadd.s	f17,f21,f25,f26,unknown
 8389d148654:	0600                	.insn	2, 0x0600
 8389d148656:	0000                	.insn	2, 0x0000
 8389d148658:	d19adccf          	fnmadd.s	f25,f21,f25,f26,unknown
 8389d14865c:	0600                	.insn	2, 0x0600
 8389d14865e:	0000                	.insn	2, 0x0000
 8389d148660:	d19ae0cf          	fnmadd.s	f1,f21,f25,f26,unknown
 8389d148664:	0600                	.insn	2, 0x0600
 8389d148666:	0000                	.insn	2, 0x0000
 8389d148668:	d19ae4cf          	fnmadd.s	f9,f21,f25,f26,unknown
 8389d14866c:	0600                	.insn	2, 0x0600
 8389d14866e:	0000                	.insn	2, 0x0000
 8389d148670:	d19ae8cf          	fnmadd.s	f17,f21,f25,f26,unknown
 8389d148674:	0600                	.insn	2, 0x0600
 8389d148676:	0000                	.insn	2, 0x0000
 8389d148678:	d19aeccf          	fnmadd.s	f25,f21,f25,f26,unknown
 8389d14867c:	0600                	.insn	2, 0x0600
 8389d14867e:	0000                	.insn	2, 0x0000
 8389d148680:	d19af0cf          	fnmadd.s	f1,f21,f25,f26
 8389d148684:	0600                	.insn	2, 0x0600
 8389d148686:	0000                	.insn	2, 0x0000
 8389d148688:	d19af4cf          	fnmadd.s	f9,f21,f25,f26
 8389d14868c:	0600                	.insn	2, 0x0600
 8389d14868e:	0000                	.insn	2, 0x0000
 8389d148690:	d19af8cf          	fnmadd.s	f17,f21,f25,f26
 8389d148694:	0600                	.insn	2, 0x0600
 8389d148696:	0000                	.insn	2, 0x0000
 8389d148698:	d19afccf          	fnmadd.s	f25,f21,f25,f26
 8389d14869c:	0600                	.insn	2, 0x0600
 8389d14869e:	0000                	.insn	2, 0x0000
 8389d1486a0:	d19b00cf          	fnmadd.s	f1,f22,f25,f26,rne
 8389d1486a4:	0600                	.insn	2, 0x0600
 8389d1486a6:	0000                	.insn	2, 0x0000
 8389d1486a8:	d19b04cf          	fnmadd.s	f9,f22,f25,f26,rne
 8389d1486ac:	0600                	.insn	2, 0x0600
 8389d1486ae:	0000                	.insn	2, 0x0000
 8389d1486b0:	d19b08cf          	fnmadd.s	f17,f22,f25,f26,rne
 8389d1486b4:	0600                	.insn	2, 0x0600
 8389d1486b6:	0000                	.insn	2, 0x0000
 8389d1486b8:	d19b0ccf          	fnmadd.s	f25,f22,f25,f26,rne
 8389d1486bc:	0600                	.insn	2, 0x0600
 8389d1486be:	0000                	.insn	2, 0x0000
 8389d1486c0:	d19b10cf          	fnmadd.s	f1,f22,f25,f26,rtz
 8389d1486c4:	0600                	.insn	2, 0x0600
 8389d1486c6:	0000                	.insn	2, 0x0000
 8389d1486c8:	d19b14cf          	fnmadd.s	f9,f22,f25,f26,rtz
 8389d1486cc:	0600                	.insn	2, 0x0600
 8389d1486ce:	0000                	.insn	2, 0x0000
 8389d1486d0:	d19b18cf          	fnmadd.s	f17,f22,f25,f26,rtz
 8389d1486d4:	0600                	.insn	2, 0x0600
 8389d1486d6:	0000                	.insn	2, 0x0000
 8389d1486d8:	d19b1ccf          	fnmadd.s	f25,f22,f25,f26,rtz
 8389d1486dc:	0600                	.insn	2, 0x0600
 8389d1486de:	0000                	.insn	2, 0x0000
 8389d1486e0:	d19b20cf          	fnmadd.s	f1,f22,f25,f26,rdn
 8389d1486e4:	0600                	.insn	2, 0x0600
 8389d1486e6:	0000                	.insn	2, 0x0000
 8389d1486e8:	d19b24cf          	fnmadd.s	f9,f22,f25,f26,rdn
 8389d1486ec:	0600                	.insn	2, 0x0600
 8389d1486ee:	0000                	.insn	2, 0x0000
 8389d1486f0:	d19b28cf          	fnmadd.s	f17,f22,f25,f26,rdn
 8389d1486f4:	0600                	.insn	2, 0x0600
 8389d1486f6:	0000                	.insn	2, 0x0000
 8389d1486f8:	d19b2ccf          	fnmadd.s	f25,f22,f25,f26,rdn
 8389d1486fc:	0600                	.insn	2, 0x0600
 8389d1486fe:	0000                	.insn	2, 0x0000
 8389d148700:	d19b30cf          	fnmadd.s	f1,f22,f25,f26,rup
 8389d148704:	0600                	.insn	2, 0x0600
 8389d148706:	0000                	.insn	2, 0x0000
 8389d148708:	d19b34cf          	fnmadd.s	f9,f22,f25,f26,rup
 8389d14870c:	0600                	.insn	2, 0x0600
 8389d14870e:	0000                	.insn	2, 0x0000
 8389d148710:	d19b38cf          	fnmadd.s	f17,f22,f25,f26,rup
 8389d148714:	0600                	.insn	2, 0x0600
 8389d148716:	0000                	.insn	2, 0x0000
 8389d148718:	d19b3ccf          	fnmadd.s	f25,f22,f25,f26,rup
 8389d14871c:	0600                	.insn	2, 0x0600
 8389d14871e:	0000                	.insn	2, 0x0000
 8389d148720:	d19b40cf          	fnmadd.s	f1,f22,f25,f26,rmm
 8389d148724:	0600                	.insn	2, 0x0600
 8389d148726:	0000                	.insn	2, 0x0000
 8389d148728:	d19b44cf          	fnmadd.s	f9,f22,f25,f26,rmm
 8389d14872c:	0600                	.insn	2, 0x0600
 8389d14872e:	0000                	.insn	2, 0x0000
 8389d148730:	d19b48cf          	fnmadd.s	f17,f22,f25,f26,rmm
 8389d148734:	0600                	.insn	2, 0x0600
 8389d148736:	0000                	.insn	2, 0x0000
 8389d148738:	d19b4ccf          	fnmadd.s	f25,f22,f25,f26,rmm
 8389d14873c:	0600                	.insn	2, 0x0600
 8389d14873e:	0000                	.insn	2, 0x0000
 8389d148740:	d19b50cf          	fnmadd.s	f1,f22,f25,f26,unknown
 8389d148744:	0600                	.insn	2, 0x0600
 8389d148746:	0000                	.insn	2, 0x0000
 8389d148748:	d19b54cf          	fnmadd.s	f9,f22,f25,f26,unknown
 8389d14874c:	0600                	.insn	2, 0x0600
 8389d14874e:	0000                	.insn	2, 0x0000
 8389d148750:	d19b58cf          	fnmadd.s	f17,f22,f25,f26,unknown
 8389d148754:	0600                	.insn	2, 0x0600
 8389d148756:	0000                	.insn	2, 0x0000
 8389d148758:	d19b5ccf          	fnmadd.s	f25,f22,f25,f26,unknown
 8389d14875c:	0600                	.insn	2, 0x0600
 8389d14875e:	0000                	.insn	2, 0x0000
 8389d148760:	d19b60cf          	fnmadd.s	f1,f22,f25,f26,unknown
 8389d148764:	0600                	.insn	2, 0x0600
 8389d148766:	0000                	.insn	2, 0x0000
 8389d148768:	d19b64cf          	fnmadd.s	f9,f22,f25,f26,unknown
 8389d14876c:	0600                	.insn	2, 0x0600
 8389d14876e:	0000                	.insn	2, 0x0000
 8389d148770:	d19b68cf          	fnmadd.s	f17,f22,f25,f26,unknown
 8389d148774:	0600                	.insn	2, 0x0600
 8389d148776:	0000                	.insn	2, 0x0000
 8389d148778:	d19b6ccf          	fnmadd.s	f25,f22,f25,f26,unknown
 8389d14877c:	0600                	.insn	2, 0x0600
 8389d14877e:	0000                	.insn	2, 0x0000
 8389d148780:	d19b70cf          	fnmadd.s	f1,f22,f25,f26
 8389d148784:	0600                	.insn	2, 0x0600
 8389d148786:	0000                	.insn	2, 0x0000
 8389d148788:	d19b74cf          	fnmadd.s	f9,f22,f25,f26
 8389d14878c:	0600                	.insn	2, 0x0600
 8389d14878e:	0000                	.insn	2, 0x0000
 8389d148790:	d19b78cf          	fnmadd.s	f17,f22,f25,f26
 8389d148794:	0600                	.insn	2, 0x0600
 8389d148796:	0000                	.insn	2, 0x0000
 8389d148798:	d19b7ccf          	fnmadd.s	f25,f22,f25,f26
 8389d14879c:	0600                	.insn	2, 0x0600
 8389d14879e:	0000                	.insn	2, 0x0000
 8389d1487a0:	d19b80cf          	fnmadd.s	f1,f23,f25,f26,rne
 8389d1487a4:	0600                	.insn	2, 0x0600
 8389d1487a6:	0000                	.insn	2, 0x0000
 8389d1487a8:	d19b84cf          	fnmadd.s	f9,f23,f25,f26,rne
 8389d1487ac:	0600                	.insn	2, 0x0600
 8389d1487ae:	0000                	.insn	2, 0x0000
 8389d1487b0:	d19b88cf          	fnmadd.s	f17,f23,f25,f26,rne
 8389d1487b4:	0600                	.insn	2, 0x0600
 8389d1487b6:	0000                	.insn	2, 0x0000
 8389d1487b8:	d19b8ccf          	fnmadd.s	f25,f23,f25,f26,rne
 8389d1487bc:	0600                	.insn	2, 0x0600
 8389d1487be:	0000                	.insn	2, 0x0000
 8389d1487c0:	d19b90cf          	fnmadd.s	f1,f23,f25,f26,rtz
 8389d1487c4:	0600                	.insn	2, 0x0600
 8389d1487c6:	0000                	.insn	2, 0x0000
 8389d1487c8:	d19b94cf          	fnmadd.s	f9,f23,f25,f26,rtz
 8389d1487cc:	0600                	.insn	2, 0x0600
 8389d1487ce:	0000                	.insn	2, 0x0000
 8389d1487d0:	d19b98cf          	fnmadd.s	f17,f23,f25,f26,rtz
 8389d1487d4:	0600                	.insn	2, 0x0600
 8389d1487d6:	0000                	.insn	2, 0x0000
 8389d1487d8:	d19b9ccf          	fnmadd.s	f25,f23,f25,f26,rtz
 8389d1487dc:	0600                	.insn	2, 0x0600
 8389d1487de:	0000                	.insn	2, 0x0000
 8389d1487e0:	d19ba0cf          	fnmadd.s	f1,f23,f25,f26,rdn
 8389d1487e4:	0600                	.insn	2, 0x0600
 8389d1487e6:	0000                	.insn	2, 0x0000
 8389d1487e8:	d19ba4cf          	fnmadd.s	f9,f23,f25,f26,rdn
 8389d1487ec:	0600                	.insn	2, 0x0600
 8389d1487ee:	0000                	.insn	2, 0x0000
 8389d1487f0:	d19ba8cf          	fnmadd.s	f17,f23,f25,f26,rdn
 8389d1487f4:	0600                	.insn	2, 0x0600
 8389d1487f6:	0000                	.insn	2, 0x0000
 8389d1487f8:	d19baccf          	fnmadd.s	f25,f23,f25,f26,rdn
 8389d1487fc:	0600                	.insn	2, 0x0600
 8389d1487fe:	0000                	.insn	2, 0x0000
 8389d148800:	d19bb0cf          	fnmadd.s	f1,f23,f25,f26,rup
 8389d148804:	0600                	.insn	2, 0x0600
 8389d148806:	0000                	.insn	2, 0x0000
 8389d148808:	d19bb4cf          	fnmadd.s	f9,f23,f25,f26,rup
 8389d14880c:	0600                	.insn	2, 0x0600
 8389d14880e:	0000                	.insn	2, 0x0000
 8389d148810:	d19bb8cf          	fnmadd.s	f17,f23,f25,f26,rup
 8389d148814:	0600                	.insn	2, 0x0600
 8389d148816:	0000                	.insn	2, 0x0000
 8389d148818:	d19bbccf          	fnmadd.s	f25,f23,f25,f26,rup
 8389d14881c:	0600                	.insn	2, 0x0600
 8389d14881e:	0000                	.insn	2, 0x0000
 8389d148820:	d19bc0cf          	fnmadd.s	f1,f23,f25,f26,rmm
 8389d148824:	0600                	.insn	2, 0x0600
 8389d148826:	0000                	.insn	2, 0x0000
 8389d148828:	d19bc4cf          	fnmadd.s	f9,f23,f25,f26,rmm
 8389d14882c:	0600                	.insn	2, 0x0600
 8389d14882e:	0000                	.insn	2, 0x0000
 8389d148830:	d19bc8cf          	fnmadd.s	f17,f23,f25,f26,rmm
 8389d148834:	0600                	.insn	2, 0x0600
 8389d148836:	0000                	.insn	2, 0x0000
 8389d148838:	d19bcccf          	fnmadd.s	f25,f23,f25,f26,rmm
 8389d14883c:	0600                	.insn	2, 0x0600
 8389d14883e:	0000                	.insn	2, 0x0000
 8389d148840:	d19bd0cf          	fnmadd.s	f1,f23,f25,f26,unknown
 8389d148844:	0600                	.insn	2, 0x0600
 8389d148846:	0000                	.insn	2, 0x0000
 8389d148848:	d19bd4cf          	fnmadd.s	f9,f23,f25,f26,unknown
 8389d14884c:	0600                	.insn	2, 0x0600
 8389d14884e:	0000                	.insn	2, 0x0000
 8389d148850:	d19bd8cf          	fnmadd.s	f17,f23,f25,f26,unknown
 8389d148854:	0600                	.insn	2, 0x0600
 8389d148856:	0000                	.insn	2, 0x0000
 8389d148858:	d19bdccf          	fnmadd.s	f25,f23,f25,f26,unknown
 8389d14885c:	0600                	.insn	2, 0x0600
 8389d14885e:	0000                	.insn	2, 0x0000
 8389d148860:	d19be0cf          	fnmadd.s	f1,f23,f25,f26,unknown
 8389d148864:	0600                	.insn	2, 0x0600
 8389d148866:	0000                	.insn	2, 0x0000
 8389d148868:	d19be4cf          	fnmadd.s	f9,f23,f25,f26,unknown
 8389d14886c:	0600                	.insn	2, 0x0600
 8389d14886e:	0000                	.insn	2, 0x0000
 8389d148870:	d19be8cf          	fnmadd.s	f17,f23,f25,f26,unknown
 8389d148874:	0600                	.insn	2, 0x0600
 8389d148876:	0000                	.insn	2, 0x0000
 8389d148878:	d19beccf          	fnmadd.s	f25,f23,f25,f26,unknown
 8389d14887c:	0600                	.insn	2, 0x0600
 8389d14887e:	0000                	.insn	2, 0x0000
 8389d148880:	d19bf0cf          	fnmadd.s	f1,f23,f25,f26
 8389d148884:	0600                	.insn	2, 0x0600
 8389d148886:	0000                	.insn	2, 0x0000
 8389d148888:	d19bf4cf          	fnmadd.s	f9,f23,f25,f26
 8389d14888c:	0600                	.insn	2, 0x0600
 8389d14888e:	0000                	.insn	2, 0x0000
 8389d148890:	d19bf8cf          	fnmadd.s	f17,f23,f25,f26
 8389d148894:	0600                	.insn	2, 0x0600
 8389d148896:	0000                	.insn	2, 0x0000
 8389d148898:	d19bfccf          	fnmadd.s	f25,f23,f25,f26
 8389d14889c:	0600                	.insn	2, 0x0600
 8389d14889e:	0000                	.insn	2, 0x0000
 8389d1488a0:	00df d19c 0600      	.insn	6, 0x0600d19c00df
 8389d1488a6:	0000                	.insn	2, 0x0000
 8389d1488a8:	04df d19c 0600      	.insn	6, 0x0600d19c04df
 8389d1488ae:	0000                	.insn	2, 0x0000
 8389d1488b0:	08df d19c 0600      	.insn	6, 0x0600d19c08df
 8389d1488b6:	0000                	.insn	2, 0x0000
 8389d1488b8:	0cdf d19c 0600      	.insn	6, 0x0600d19c0cdf
 8389d1488be:	0000                	.insn	2, 0x0000
 8389d1488c0:	10df d19c 0600      	.insn	6, 0x0600d19c10df
 8389d1488c6:	0000                	.insn	2, 0x0000
 8389d1488c8:	14df d19c 0600      	.insn	6, 0x0600d19c14df
 8389d1488ce:	0000                	.insn	2, 0x0000
 8389d1488d0:	18df d19c 0600      	.insn	6, 0x0600d19c18df
 8389d1488d6:	0000                	.insn	2, 0x0000
 8389d1488d8:	1cdf d19c 0600      	.insn	6, 0x0600d19c1cdf
 8389d1488de:	0000                	.insn	2, 0x0000
 8389d1488e0:	20df d19c 0600      	.insn	6, 0x0600d19c20df
 8389d1488e6:	0000                	.insn	2, 0x0000
 8389d1488e8:	24df d19c 0600      	.insn	6, 0x0600d19c24df
 8389d1488ee:	0000                	.insn	2, 0x0000
 8389d1488f0:	28df d19c 0600      	.insn	6, 0x0600d19c28df
 8389d1488f6:	0000                	.insn	2, 0x0000
 8389d1488f8:	2cdf d19c 0600      	.insn	6, 0x0600d19c2cdf
 8389d1488fe:	0000                	.insn	2, 0x0000
 8389d148900:	30df d19c 0600      	.insn	6, 0x0600d19c30df
 8389d148906:	0000                	.insn	2, 0x0000
 8389d148908:	34df d19c 0600      	.insn	6, 0x0600d19c34df
 8389d14890e:	0000                	.insn	2, 0x0000
 8389d148910:	38df d19c 0600      	.insn	6, 0x0600d19c38df
 8389d148916:	0000                	.insn	2, 0x0000
 8389d148918:	3cdf d19c 0600      	.insn	6, 0x0600d19c3cdf
 8389d14891e:	0000                	.insn	2, 0x0000
 8389d148920:	40df d19c 0600      	.insn	6, 0x0600d19c40df
 8389d148926:	0000                	.insn	2, 0x0000
 8389d148928:	44df d19c 0600      	.insn	6, 0x0600d19c44df
 8389d14892e:	0000                	.insn	2, 0x0000
 8389d148930:	48df d19c 0600      	.insn	6, 0x0600d19c48df
 8389d148936:	0000                	.insn	2, 0x0000
 8389d148938:	4cdf d19c 0600      	.insn	6, 0x0600d19c4cdf
 8389d14893e:	0000                	.insn	2, 0x0000
 8389d148940:	50df d19c 0600      	.insn	6, 0x0600d19c50df
 8389d148946:	0000                	.insn	2, 0x0000
 8389d148948:	54df d19c 0600      	.insn	6, 0x0600d19c54df
 8389d14894e:	0000                	.insn	2, 0x0000
 8389d148950:	58df d19c 0600      	.insn	6, 0x0600d19c58df
 8389d148956:	0000                	.insn	2, 0x0000
 8389d148958:	5cdf d19c 0600      	.insn	6, 0x0600d19c5cdf
 8389d14895e:	0000                	.insn	2, 0x0000
 8389d148960:	60df d19c 0600      	.insn	6, 0x0600d19c60df
 8389d148966:	0000                	.insn	2, 0x0000
 8389d148968:	64df d19c 0600      	.insn	6, 0x0600d19c64df
 8389d14896e:	0000                	.insn	2, 0x0000
 8389d148970:	68df d19c 0600      	.insn	6, 0x0600d19c68df
 8389d148976:	0000                	.insn	2, 0x0000
 8389d148978:	6cdf d19c 0600      	.insn	6, 0x0600d19c6cdf
 8389d14897e:	0000                	.insn	2, 0x0000
 8389d148980:	70df d19c 0600      	.insn	6, 0x0600d19c70df
 8389d148986:	0000                	.insn	2, 0x0000
 8389d148988:	74df d19c 0600      	.insn	6, 0x0600d19c74df
 8389d14898e:	0000                	.insn	2, 0x0000
 8389d148990:	78df d19c 0600      	.insn	6, 0x0600d19c78df
 8389d148996:	0000                	.insn	2, 0x0000
 8389d148998:	7cdf d19c 0600      	.insn	6, 0x0600d19c7cdf
 8389d14899e:	0000                	.insn	2, 0x0000
 8389d1489a0:	80df d19c 0600      	.insn	6, 0x0600d19c80df
 8389d1489a6:	0000                	.insn	2, 0x0000
 8389d1489a8:	84df d19c 0600      	.insn	6, 0x0600d19c84df
 8389d1489ae:	0000                	.insn	2, 0x0000
 8389d1489b0:	88df d19c 0600      	.insn	6, 0x0600d19c88df
 8389d1489b6:	0000                	.insn	2, 0x0000
 8389d1489b8:	8cdf d19c 0600      	.insn	6, 0x0600d19c8cdf
 8389d1489be:	0000                	.insn	2, 0x0000
 8389d1489c0:	90df d19c 0600      	.insn	6, 0x0600d19c90df
 8389d1489c6:	0000                	.insn	2, 0x0000
 8389d1489c8:	94df d19c 0600      	.insn	6, 0x0600d19c94df
 8389d1489ce:	0000                	.insn	2, 0x0000
 8389d1489d0:	98df d19c 0600      	.insn	6, 0x0600d19c98df
 8389d1489d6:	0000                	.insn	2, 0x0000
 8389d1489d8:	9cdf d19c 0600      	.insn	6, 0x0600d19c9cdf
 8389d1489de:	0000                	.insn	2, 0x0000
 8389d1489e0:	a0df d19c 0600      	.insn	6, 0x0600d19ca0df
 8389d1489e6:	0000                	.insn	2, 0x0000
 8389d1489e8:	a4df d19c 0600      	.insn	6, 0x0600d19ca4df
 8389d1489ee:	0000                	.insn	2, 0x0000
 8389d1489f0:	a8df d19c 0600      	.insn	6, 0x0600d19ca8df
 8389d1489f6:	0000                	.insn	2, 0x0000
 8389d1489f8:	acdf d19c 0600      	.insn	6, 0x0600d19cacdf
 8389d1489fe:	0000                	.insn	2, 0x0000
 8389d148a00:	b0df d19c 0600      	.insn	6, 0x0600d19cb0df
 8389d148a06:	0000                	.insn	2, 0x0000
 8389d148a08:	b4df d19c 0600      	.insn	6, 0x0600d19cb4df
 8389d148a0e:	0000                	.insn	2, 0x0000
 8389d148a10:	b8df d19c 0600      	.insn	6, 0x0600d19cb8df
 8389d148a16:	0000                	.insn	2, 0x0000
 8389d148a18:	bcdf d19c 0600      	.insn	6, 0x0600d19cbcdf
 8389d148a1e:	0000                	.insn	2, 0x0000
 8389d148a20:	c0df d19c 0600      	.insn	6, 0x0600d19cc0df
 8389d148a26:	0000                	.insn	2, 0x0000
 8389d148a28:	c4df d19c 0600      	.insn	6, 0x0600d19cc4df
 8389d148a2e:	0000                	.insn	2, 0x0000
 8389d148a30:	c8df d19c 0600      	.insn	6, 0x0600d19cc8df
 8389d148a36:	0000                	.insn	2, 0x0000
 8389d148a38:	ccdf d19c 0600      	.insn	6, 0x0600d19cccdf
 8389d148a3e:	0000                	.insn	2, 0x0000
 8389d148a40:	d0df d19c 0600      	.insn	6, 0x0600d19cd0df
 8389d148a46:	0000                	.insn	2, 0x0000
 8389d148a48:	d4df d19c 0600      	.insn	6, 0x0600d19cd4df
 8389d148a4e:	0000                	.insn	2, 0x0000
 8389d148a50:	d8df d19c 0600      	.insn	6, 0x0600d19cd8df
 8389d148a56:	0000                	.insn	2, 0x0000
 8389d148a58:	dcdf d19c 0600      	.insn	6, 0x0600d19cdcdf
 8389d148a5e:	0000                	.insn	2, 0x0000
 8389d148a60:	e0df d19c 0600      	.insn	6, 0x0600d19ce0df
 8389d148a66:	0000                	.insn	2, 0x0000
 8389d148a68:	e4df d19c 0600      	.insn	6, 0x0600d19ce4df
 8389d148a6e:	0000                	.insn	2, 0x0000
 8389d148a70:	e8df d19c 0600      	.insn	6, 0x0600d19ce8df
 8389d148a76:	0000                	.insn	2, 0x0000
 8389d148a78:	ecdf d19c 0600      	.insn	6, 0x0600d19cecdf
 8389d148a7e:	0000                	.insn	2, 0x0000
 8389d148a80:	f0df d19c 0600      	.insn	6, 0x0600d19cf0df
 8389d148a86:	0000                	.insn	2, 0x0000
 8389d148a88:	f4df d19c 0600      	.insn	6, 0x0600d19cf4df
 8389d148a8e:	0000                	.insn	2, 0x0000
 8389d148a90:	f8df d19c 0600      	.insn	6, 0x0600d19cf8df
 8389d148a96:	0000                	.insn	2, 0x0000
 8389d148a98:	fcdf d19c 0600      	.insn	6, 0x0600d19cfcdf
 8389d148a9e:	0000                	.insn	2, 0x0000
 8389d148aa0:	00df d19d 0600      	.insn	6, 0x0600d19d00df
 8389d148aa6:	0000                	.insn	2, 0x0000
 8389d148aa8:	04df d19d 0600      	.insn	6, 0x0600d19d04df
 8389d148aae:	0000                	.insn	2, 0x0000
 8389d148ab0:	08df d19d 0600      	.insn	6, 0x0600d19d08df
 8389d148ab6:	0000                	.insn	2, 0x0000
 8389d148ab8:	0cdf d19d 0600      	.insn	6, 0x0600d19d0cdf
 8389d148abe:	0000                	.insn	2, 0x0000
 8389d148ac0:	10df d19d 0600      	.insn	6, 0x0600d19d10df
 8389d148ac6:	0000                	.insn	2, 0x0000
 8389d148ac8:	14df d19d 0600      	.insn	6, 0x0600d19d14df
 8389d148ace:	0000                	.insn	2, 0x0000
 8389d148ad0:	18df d19d 0600      	.insn	6, 0x0600d19d18df
 8389d148ad6:	0000                	.insn	2, 0x0000
 8389d148ad8:	1cdf d19d 0600      	.insn	6, 0x0600d19d1cdf
 8389d148ade:	0000                	.insn	2, 0x0000
 8389d148ae0:	20df d19d 0600      	.insn	6, 0x0600d19d20df
 8389d148ae6:	0000                	.insn	2, 0x0000
 8389d148ae8:	24df d19d 0600      	.insn	6, 0x0600d19d24df
 8389d148aee:	0000                	.insn	2, 0x0000
 8389d148af0:	28df d19d 0600      	.insn	6, 0x0600d19d28df
 8389d148af6:	0000                	.insn	2, 0x0000
 8389d148af8:	2cdf d19d 0600      	.insn	6, 0x0600d19d2cdf
 8389d148afe:	0000                	.insn	2, 0x0000
 8389d148b00:	30df d19d 0600      	.insn	6, 0x0600d19d30df
 8389d148b06:	0000                	.insn	2, 0x0000
 8389d148b08:	34df d19d 0600      	.insn	6, 0x0600d19d34df
 8389d148b0e:	0000                	.insn	2, 0x0000
 8389d148b10:	38df d19d 0600      	.insn	6, 0x0600d19d38df
 8389d148b16:	0000                	.insn	2, 0x0000
 8389d148b18:	3cdf d19d 0600      	.insn	6, 0x0600d19d3cdf
 8389d148b1e:	0000                	.insn	2, 0x0000
 8389d148b20:	40df d19d 0600      	.insn	6, 0x0600d19d40df
 8389d148b26:	0000                	.insn	2, 0x0000
 8389d148b28:	44df d19d 0600      	.insn	6, 0x0600d19d44df
 8389d148b2e:	0000                	.insn	2, 0x0000
 8389d148b30:	48df d19d 0600      	.insn	6, 0x0600d19d48df
 8389d148b36:	0000                	.insn	2, 0x0000
 8389d148b38:	4cdf d19d 0600      	.insn	6, 0x0600d19d4cdf
 8389d148b3e:	0000                	.insn	2, 0x0000
 8389d148b40:	50df d19d 0600      	.insn	6, 0x0600d19d50df
 8389d148b46:	0000                	.insn	2, 0x0000
 8389d148b48:	54df d19d 0600      	.insn	6, 0x0600d19d54df
 8389d148b4e:	0000                	.insn	2, 0x0000
 8389d148b50:	58df d19d 0600      	.insn	6, 0x0600d19d58df
 8389d148b56:	0000                	.insn	2, 0x0000
 8389d148b58:	5cdf d19d 0600      	.insn	6, 0x0600d19d5cdf
 8389d148b5e:	0000                	.insn	2, 0x0000
 8389d148b60:	60df d19d 0600      	.insn	6, 0x0600d19d60df
 8389d148b66:	0000                	.insn	2, 0x0000
 8389d148b68:	64df d19d 0600      	.insn	6, 0x0600d19d64df
 8389d148b6e:	0000                	.insn	2, 0x0000
 8389d148b70:	68df d19d 0600      	.insn	6, 0x0600d19d68df
 8389d148b76:	0000                	.insn	2, 0x0000
 8389d148b78:	6cdf d19d 0600      	.insn	6, 0x0600d19d6cdf
 8389d148b7e:	0000                	.insn	2, 0x0000
 8389d148b80:	70df d19d 0600      	.insn	6, 0x0600d19d70df
 8389d148b86:	0000                	.insn	2, 0x0000
 8389d148b88:	74df d19d 0600      	.insn	6, 0x0600d19d74df
 8389d148b8e:	0000                	.insn	2, 0x0000
 8389d148b90:	78df d19d 0600      	.insn	6, 0x0600d19d78df
 8389d148b96:	0000                	.insn	2, 0x0000
 8389d148b98:	7cdf d19d 0600      	.insn	6, 0x0600d19d7cdf
 8389d148b9e:	0000                	.insn	2, 0x0000
 8389d148ba0:	80df d19d 0600      	.insn	6, 0x0600d19d80df
 8389d148ba6:	0000                	.insn	2, 0x0000
 8389d148ba8:	84df d19d 0600      	.insn	6, 0x0600d19d84df
 8389d148bae:	0000                	.insn	2, 0x0000
 8389d148bb0:	88df d19d 0600      	.insn	6, 0x0600d19d88df
 8389d148bb6:	0000                	.insn	2, 0x0000
 8389d148bb8:	8cdf d19d 0600      	.insn	6, 0x0600d19d8cdf
 8389d148bbe:	0000                	.insn	2, 0x0000
 8389d148bc0:	90df d19d 0600      	.insn	6, 0x0600d19d90df
 8389d148bc6:	0000                	.insn	2, 0x0000
 8389d148bc8:	94df d19d 0600      	.insn	6, 0x0600d19d94df
 8389d148bce:	0000                	.insn	2, 0x0000
 8389d148bd0:	98df d19d 0600      	.insn	6, 0x0600d19d98df
 8389d148bd6:	0000                	.insn	2, 0x0000
 8389d148bd8:	9cdf d19d 0600      	.insn	6, 0x0600d19d9cdf
 8389d148bde:	0000                	.insn	2, 0x0000
 8389d148be0:	a0df d19d 0600      	.insn	6, 0x0600d19da0df
 8389d148be6:	0000                	.insn	2, 0x0000
 8389d148be8:	a4df d19d 0600      	.insn	6, 0x0600d19da4df
 8389d148bee:	0000                	.insn	2, 0x0000
 8389d148bf0:	a8df d19d 0600      	.insn	6, 0x0600d19da8df
 8389d148bf6:	0000                	.insn	2, 0x0000
 8389d148bf8:	acdf d19d 0600      	.insn	6, 0x0600d19dacdf
 8389d148bfe:	0000                	.insn	2, 0x0000
 8389d148c00:	b0df d19d 0600      	.insn	6, 0x0600d19db0df
 8389d148c06:	0000                	.insn	2, 0x0000
 8389d148c08:	b4df d19d 0600      	.insn	6, 0x0600d19db4df
 8389d148c0e:	0000                	.insn	2, 0x0000
 8389d148c10:	b8df d19d 0600      	.insn	6, 0x0600d19db8df
 8389d148c16:	0000                	.insn	2, 0x0000
 8389d148c18:	bcdf d19d 0600      	.insn	6, 0x0600d19dbcdf
 8389d148c1e:	0000                	.insn	2, 0x0000
 8389d148c20:	c0df d19d 0600      	.insn	6, 0x0600d19dc0df
 8389d148c26:	0000                	.insn	2, 0x0000
 8389d148c28:	c4df d19d 0600      	.insn	6, 0x0600d19dc4df
 8389d148c2e:	0000                	.insn	2, 0x0000
 8389d148c30:	c8df d19d 0600      	.insn	6, 0x0600d19dc8df
 8389d148c36:	0000                	.insn	2, 0x0000
 8389d148c38:	ccdf d19d 0600      	.insn	6, 0x0600d19dccdf
 8389d148c3e:	0000                	.insn	2, 0x0000
 8389d148c40:	d0df d19d 0600      	.insn	6, 0x0600d19dd0df
 8389d148c46:	0000                	.insn	2, 0x0000
 8389d148c48:	d4df d19d 0600      	.insn	6, 0x0600d19dd4df
 8389d148c4e:	0000                	.insn	2, 0x0000
 8389d148c50:	d8df d19d 0600      	.insn	6, 0x0600d19dd8df
 8389d148c56:	0000                	.insn	2, 0x0000
 8389d148c58:	dcdf d19d 0600      	.insn	6, 0x0600d19ddcdf
 8389d148c5e:	0000                	.insn	2, 0x0000
 8389d148c60:	e0df d19d 0600      	.insn	6, 0x0600d19de0df
 8389d148c66:	0000                	.insn	2, 0x0000
 8389d148c68:	e4df d19d 0600      	.insn	6, 0x0600d19de4df
 8389d148c6e:	0000                	.insn	2, 0x0000
 8389d148c70:	e8df d19d 0600      	.insn	6, 0x0600d19de8df
 8389d148c76:	0000                	.insn	2, 0x0000
 8389d148c78:	ecdf d19d 0600      	.insn	6, 0x0600d19decdf
 8389d148c7e:	0000                	.insn	2, 0x0000
 8389d148c80:	f0df d19d 0600      	.insn	6, 0x0600d19df0df
 8389d148c86:	0000                	.insn	2, 0x0000
 8389d148c88:	f4df d19d 0600      	.insn	6, 0x0600d19df4df
 8389d148c8e:	0000                	.insn	2, 0x0000
 8389d148c90:	f8df d19d 0600      	.insn	6, 0x0600d19df8df
 8389d148c96:	0000                	.insn	2, 0x0000
 8389d148c98:	fcdf d19d 0600      	.insn	6, 0x0600d19dfcdf
	...

Disassembly of section .__pagetable_map_os_0x00000000f904a000:

00000000f904a000 <__pagetable_map_os_0x00000000f904a000>:
	...
    f904a0a8:	d1a004cf          	fnmadd.s	f9,f0,f26,f26,rne
    f904a0ac:	0600                	.insn	2, 0x0600
	...

Disassembly of section .__pagetable_map_os_0x0000000884ad9000:

0000000884ad9000 <__pagetable_map_os_0x0000000884ad9000>:
	...
   884ad9188:	7ded64c7          	fmsub.h	f9,f26,f30,f15,unknown
   884ad918c:	0000004f          	fnmadd.s	f0,f0,f0,f0,rne

Disassembly of section .__pagetable_map_os_0x0000995d90b44000:

0000995d90b44000 <__pagetable_map_os_0x0000995d90b44000>:
	...
    995d90b44618:	4934fcc7          	fmsub.s	f25,f9,f19,f9
    995d90b4461c:	0218                	.insn	2, 0x0218
	...

Disassembly of section .__pagetable_map_os_0x0000fa5a9f330000:

0000fa5a9f330000 <__pagetable_map_os_0x0000fa5a9f330000>:
    fa5a9f330000:	9001                	.insn	2, 0x9001
    fa5a9f330002:	b35e                	.insn	2, 0xb35e
    fa5a9f330004:	000007cb          	fnmsub.s	f15,f0,f0,f0,rne
    fa5a9f330008:	a801                	.insn	2, 0xa801
    fa5a9f33000a:	000453e3          	bgez	x8,fa5a9f330810 <__pagetable_map_os_0x0000fa5a9f330000+0x810>
	...
    fa5a9f330016:	0000                	.insn	2, 0x0000
    fa5a9f330018:	7001                	.insn	2, 0x7001
    fa5a9f33001a:	e680                	.insn	2, 0xe680
    fa5a9f33001c:	0004                	.insn	2, 0x0004
	...
    fa5a9f33002e:	0000                	.insn	2, 0x0000
    fa5a9f330030:	e801                	.insn	2, 0xe801
    fa5a9f330032:	6f22                	.insn	2, 0x6f22
    fa5a9f330034:	0edd                	.insn	2, 0x0edd
    fa5a9f330036:	0001                	.insn	2, 0x0001
    fa5a9f330038:	e001                	.insn	2, 0xe001
    fa5a9f33003a:	000fcf27          	.insn	4, 0x000fcf27
	...
    fa5a9f3300ce:	0000                	.insn	2, 0x0000
    fa5a9f3300d0:	4001                	.insn	2, 0x4001
    fa5a9f3300d2:	127a6723          	.insn	4, 0x127a6723
    fa5a9f3300d6:	0001                	.insn	2, 0x0001
	...
    fa5a9f3300e8:	5c01                	.insn	2, 0x5c01
    fa5a9f3300ea:	dc61                	.insn	2, 0xdc61
    fa5a9f3300ec:	e049                	.insn	2, 0xe049
    fa5a9f3300ee:	0000                	.insn	2, 0x0000
    fa5a9f3300f0:	3801                	.insn	2, 0x3801
    fa5a9f3300f2:	0001e60f          	.insn	4, 0x0001e60f
	...
    fa5a9f3301e6:	0000                	.insn	2, 0x0000
    fa5a9f3301e8:	3001                	.insn	2, 0x3001
    fa5a9f3301ea:	7c7d                	.insn	2, 0x7c7d
    fa5a9f3301ec:	0004                	.insn	2, 0x0004
	...
    fa5a9f330216:	0000                	.insn	2, 0x0000
    fa5a9f330218:	5001                	.insn	2, 0x5001
    fa5a9f33021a:	0ddf1b47          	fmsub.h	f22,f30,f29,f1,rtz
	...
    fa5a9f33041e:	0000                	.insn	2, 0x0000
    fa5a9f330420:	5401                	.insn	2, 0x5401
    fa5a9f330422:	27ff 3f47 0000 0000 	.insn	14, 0x3f4727ff
    fa5a9f33042a:	0000 0000 0000 
	...
    fa5a9f330820:	a001                	.insn	2, 0xa001
    fa5a9f330822:	7d55                	.insn	2, 0x7d55
    fa5a9f330824:	0000                	.insn	2, 0x0000
	...

Disassembly of section .__pagetable_map_os_0x0000003f3c9f8000:

0000003f3c9f8000 <__pagetable_map_os_0x0000003f3c9f8000>:
	...
  3f3c9f8620:	d0b108cf          	fnmadd.s	f17,f2,f11,f26,rne
  3f3c9f8624:	008d                	.insn	2, 0x008d
  3f3c9f8626:	0000                	.insn	2, 0x0000
  3f3c9f8628:	d0b10ccf          	fnmadd.s	f25,f2,f11,f26,rne
  3f3c9f862c:	008d                	.insn	2, 0x008d
	...

Disassembly of section .__pagetable_map_os_0x00001f2ecd7a4000:

00001f2ecd7a4000 <__pagetable_map_os_0x00001f2ecd7a4000>:
	...
    1f2ecd7a4400:	740de8cf          	fnmadd.h	f17,f27,f0,f14,unknown
    1f2ecd7a4404:	0000                	.insn	2, 0x0000
    1f2ecd7a4406:	0000                	.insn	2, 0x0000
    1f2ecd7a4408:	740deccf          	fnmadd.h	f25,f27,f0,f14,unknown
	...
    1f2ecd7a4520:	6562e8c7          	fmsub.h	f17,f5,f22,f12,unknown
    1f2ecd7a4524:	00000dd3          	fadd.s	f27,f0,f0,rne
	...
    1f2ecd7a4d60:	4ea074cf          	.insn	4, 0x4ea074cf
    1f2ecd7a4d64:	0000000f          	fence	unknown,unknown

Disassembly of section .__pagetable_map_os_0x000000139a01c000:

000000139a01c000 <__pagetable_map_os_0x000000139a01c000>:
	...
  139a01cdf8:	457864cf          	fnmadd.h	f9,f16,f23,f8,unknown
  139a01cdfc:	0020                	.insn	2, 0x0020
	...

Disassembly of section .__pagetable_map_os_0x0000fd1c9ffd5000:

0000fd1c9ffd5000 <__pagetable_map_os_0x0000fd1c9ffd5000>:
    fd1c9ffd5000:	042000cf          	fnmadd.h	f1,f0,f2,f0,rne
    fd1c9ffd5004:	0000                	.insn	2, 0x0000
    fd1c9ffd5006:	0000                	.insn	2, 0x0000
    fd1c9ffd5008:	042004cf          	fnmadd.h	f9,f0,f2,f0,rne
    fd1c9ffd500c:	0000                	.insn	2, 0x0000
    fd1c9ffd500e:	0000                	.insn	2, 0x0000
    fd1c9ffd5010:	042008cf          	fnmadd.h	f17,f0,f2,f0,rne
    fd1c9ffd5014:	0000                	.insn	2, 0x0000
    fd1c9ffd5016:	0000                	.insn	2, 0x0000
    fd1c9ffd5018:	04200ccf          	fnmadd.h	f25,f0,f2,f0,rne
    fd1c9ffd501c:	0000                	.insn	2, 0x0000
    fd1c9ffd501e:	0000                	.insn	2, 0x0000
    fd1c9ffd5020:	042010cf          	fnmadd.h	f1,f0,f2,f0,rtz
    fd1c9ffd5024:	0000                	.insn	2, 0x0000
    fd1c9ffd5026:	0000                	.insn	2, 0x0000
    fd1c9ffd5028:	042014cf          	fnmadd.h	f9,f0,f2,f0,rtz
    fd1c9ffd502c:	0000                	.insn	2, 0x0000
    fd1c9ffd502e:	0000                	.insn	2, 0x0000
    fd1c9ffd5030:	042018cf          	fnmadd.h	f17,f0,f2,f0,rtz
    fd1c9ffd5034:	0000                	.insn	2, 0x0000
    fd1c9ffd5036:	0000                	.insn	2, 0x0000
    fd1c9ffd5038:	04201ccf          	fnmadd.h	f25,f0,f2,f0,rtz
    fd1c9ffd503c:	0000                	.insn	2, 0x0000
    fd1c9ffd503e:	0000                	.insn	2, 0x0000
    fd1c9ffd5040:	042020cf          	fnmadd.h	f1,f0,f2,f0,rdn
    fd1c9ffd5044:	0000                	.insn	2, 0x0000
    fd1c9ffd5046:	0000                	.insn	2, 0x0000
    fd1c9ffd5048:	042024cf          	fnmadd.h	f9,f0,f2,f0,rdn
    fd1c9ffd504c:	0000                	.insn	2, 0x0000
    fd1c9ffd504e:	0000                	.insn	2, 0x0000
    fd1c9ffd5050:	042028cf          	fnmadd.h	f17,f0,f2,f0,rdn
    fd1c9ffd5054:	0000                	.insn	2, 0x0000
    fd1c9ffd5056:	0000                	.insn	2, 0x0000
    fd1c9ffd5058:	04202ccf          	fnmadd.h	f25,f0,f2,f0,rdn
    fd1c9ffd505c:	0000                	.insn	2, 0x0000
    fd1c9ffd505e:	0000                	.insn	2, 0x0000
    fd1c9ffd5060:	042030cf          	fnmadd.h	f1,f0,f2,f0,rup
    fd1c9ffd5064:	0000                	.insn	2, 0x0000
    fd1c9ffd5066:	0000                	.insn	2, 0x0000
    fd1c9ffd5068:	042034cf          	fnmadd.h	f9,f0,f2,f0,rup
    fd1c9ffd506c:	0000                	.insn	2, 0x0000
    fd1c9ffd506e:	0000                	.insn	2, 0x0000
    fd1c9ffd5070:	042038cf          	fnmadd.h	f17,f0,f2,f0,rup
    fd1c9ffd5074:	0000                	.insn	2, 0x0000
    fd1c9ffd5076:	0000                	.insn	2, 0x0000
    fd1c9ffd5078:	04203ccf          	fnmadd.h	f25,f0,f2,f0,rup
    fd1c9ffd507c:	0000                	.insn	2, 0x0000
    fd1c9ffd507e:	0000                	.insn	2, 0x0000
    fd1c9ffd5080:	042040cf          	fnmadd.h	f1,f0,f2,f0,rmm
    fd1c9ffd5084:	0000                	.insn	2, 0x0000
    fd1c9ffd5086:	0000                	.insn	2, 0x0000
    fd1c9ffd5088:	042044cf          	fnmadd.h	f9,f0,f2,f0,rmm
    fd1c9ffd508c:	0000                	.insn	2, 0x0000
    fd1c9ffd508e:	0000                	.insn	2, 0x0000
    fd1c9ffd5090:	042048cf          	fnmadd.h	f17,f0,f2,f0,rmm
    fd1c9ffd5094:	0000                	.insn	2, 0x0000
    fd1c9ffd5096:	0000                	.insn	2, 0x0000
    fd1c9ffd5098:	04204ccf          	fnmadd.h	f25,f0,f2,f0,rmm
    fd1c9ffd509c:	0000                	.insn	2, 0x0000
    fd1c9ffd509e:	0000                	.insn	2, 0x0000
    fd1c9ffd50a0:	042050cf          	fnmadd.h	f1,f0,f2,f0,unknown
    fd1c9ffd50a4:	0000                	.insn	2, 0x0000
    fd1c9ffd50a6:	0000                	.insn	2, 0x0000
    fd1c9ffd50a8:	042054cf          	fnmadd.h	f9,f0,f2,f0,unknown
    fd1c9ffd50ac:	0000                	.insn	2, 0x0000
    fd1c9ffd50ae:	0000                	.insn	2, 0x0000
    fd1c9ffd50b0:	042058cf          	fnmadd.h	f17,f0,f2,f0,unknown
    fd1c9ffd50b4:	0000                	.insn	2, 0x0000
    fd1c9ffd50b6:	0000                	.insn	2, 0x0000
    fd1c9ffd50b8:	04205ccf          	fnmadd.h	f25,f0,f2,f0,unknown
    fd1c9ffd50bc:	0000                	.insn	2, 0x0000
    fd1c9ffd50be:	0000                	.insn	2, 0x0000
    fd1c9ffd50c0:	042060cf          	fnmadd.h	f1,f0,f2,f0,unknown
    fd1c9ffd50c4:	0000                	.insn	2, 0x0000
    fd1c9ffd50c6:	0000                	.insn	2, 0x0000
    fd1c9ffd50c8:	042064cf          	fnmadd.h	f9,f0,f2,f0,unknown
    fd1c9ffd50cc:	0000                	.insn	2, 0x0000
    fd1c9ffd50ce:	0000                	.insn	2, 0x0000
    fd1c9ffd50d0:	042068cf          	fnmadd.h	f17,f0,f2,f0,unknown
    fd1c9ffd50d4:	0000                	.insn	2, 0x0000
    fd1c9ffd50d6:	0000                	.insn	2, 0x0000
    fd1c9ffd50d8:	04206ccf          	fnmadd.h	f25,f0,f2,f0,unknown
    fd1c9ffd50dc:	0000                	.insn	2, 0x0000
    fd1c9ffd50de:	0000                	.insn	2, 0x0000
    fd1c9ffd50e0:	042070cf          	fnmadd.h	f1,f0,f2,f0
    fd1c9ffd50e4:	0000                	.insn	2, 0x0000
    fd1c9ffd50e6:	0000                	.insn	2, 0x0000
    fd1c9ffd50e8:	042074cf          	fnmadd.h	f9,f0,f2,f0
    fd1c9ffd50ec:	0000                	.insn	2, 0x0000
    fd1c9ffd50ee:	0000                	.insn	2, 0x0000
    fd1c9ffd50f0:	042078cf          	fnmadd.h	f17,f0,f2,f0
    fd1c9ffd50f4:	0000                	.insn	2, 0x0000
    fd1c9ffd50f6:	0000                	.insn	2, 0x0000
    fd1c9ffd50f8:	04207ccf          	fnmadd.h	f25,f0,f2,f0
    fd1c9ffd50fc:	0000                	.insn	2, 0x0000
    fd1c9ffd50fe:	0000                	.insn	2, 0x0000
    fd1c9ffd5100:	042080cf          	fnmadd.h	f1,f1,f2,f0,rne
    fd1c9ffd5104:	0000                	.insn	2, 0x0000
    fd1c9ffd5106:	0000                	.insn	2, 0x0000
    fd1c9ffd5108:	042084cf          	fnmadd.h	f9,f1,f2,f0,rne
    fd1c9ffd510c:	0000                	.insn	2, 0x0000
    fd1c9ffd510e:	0000                	.insn	2, 0x0000
    fd1c9ffd5110:	042088cf          	fnmadd.h	f17,f1,f2,f0,rne
    fd1c9ffd5114:	0000                	.insn	2, 0x0000
    fd1c9ffd5116:	0000                	.insn	2, 0x0000
    fd1c9ffd5118:	04208ccf          	fnmadd.h	f25,f1,f2,f0,rne
    fd1c9ffd511c:	0000                	.insn	2, 0x0000
    fd1c9ffd511e:	0000                	.insn	2, 0x0000
    fd1c9ffd5120:	042090cf          	fnmadd.h	f1,f1,f2,f0,rtz
    fd1c9ffd5124:	0000                	.insn	2, 0x0000
    fd1c9ffd5126:	0000                	.insn	2, 0x0000
    fd1c9ffd5128:	042094cf          	fnmadd.h	f9,f1,f2,f0,rtz
    fd1c9ffd512c:	0000                	.insn	2, 0x0000
    fd1c9ffd512e:	0000                	.insn	2, 0x0000
    fd1c9ffd5130:	042098cf          	fnmadd.h	f17,f1,f2,f0,rtz
    fd1c9ffd5134:	0000                	.insn	2, 0x0000
    fd1c9ffd5136:	0000                	.insn	2, 0x0000
    fd1c9ffd5138:	04209ccf          	fnmadd.h	f25,f1,f2,f0,rtz
    fd1c9ffd513c:	0000                	.insn	2, 0x0000
    fd1c9ffd513e:	0000                	.insn	2, 0x0000
    fd1c9ffd5140:	0420a0cf          	fnmadd.h	f1,f1,f2,f0,rdn
    fd1c9ffd5144:	0000                	.insn	2, 0x0000
    fd1c9ffd5146:	0000                	.insn	2, 0x0000
    fd1c9ffd5148:	0420a4cf          	fnmadd.h	f9,f1,f2,f0,rdn
    fd1c9ffd514c:	0000                	.insn	2, 0x0000
    fd1c9ffd514e:	0000                	.insn	2, 0x0000
    fd1c9ffd5150:	0420a8cf          	fnmadd.h	f17,f1,f2,f0,rdn
    fd1c9ffd5154:	0000                	.insn	2, 0x0000
    fd1c9ffd5156:	0000                	.insn	2, 0x0000
    fd1c9ffd5158:	0420accf          	fnmadd.h	f25,f1,f2,f0,rdn
    fd1c9ffd515c:	0000                	.insn	2, 0x0000
    fd1c9ffd515e:	0000                	.insn	2, 0x0000
    fd1c9ffd5160:	0420b0cf          	fnmadd.h	f1,f1,f2,f0,rup
    fd1c9ffd5164:	0000                	.insn	2, 0x0000
    fd1c9ffd5166:	0000                	.insn	2, 0x0000
    fd1c9ffd5168:	0420b4cf          	fnmadd.h	f9,f1,f2,f0,rup
    fd1c9ffd516c:	0000                	.insn	2, 0x0000
    fd1c9ffd516e:	0000                	.insn	2, 0x0000
    fd1c9ffd5170:	0420b8cf          	fnmadd.h	f17,f1,f2,f0,rup
    fd1c9ffd5174:	0000                	.insn	2, 0x0000
    fd1c9ffd5176:	0000                	.insn	2, 0x0000
    fd1c9ffd5178:	0420bccf          	fnmadd.h	f25,f1,f2,f0,rup
    fd1c9ffd517c:	0000                	.insn	2, 0x0000
    fd1c9ffd517e:	0000                	.insn	2, 0x0000
    fd1c9ffd5180:	0420c0cf          	fnmadd.h	f1,f1,f2,f0,rmm
    fd1c9ffd5184:	0000                	.insn	2, 0x0000
    fd1c9ffd5186:	0000                	.insn	2, 0x0000
    fd1c9ffd5188:	0420c4cf          	fnmadd.h	f9,f1,f2,f0,rmm
    fd1c9ffd518c:	0000                	.insn	2, 0x0000
    fd1c9ffd518e:	0000                	.insn	2, 0x0000
    fd1c9ffd5190:	0420c8cf          	fnmadd.h	f17,f1,f2,f0,rmm
    fd1c9ffd5194:	0000                	.insn	2, 0x0000
    fd1c9ffd5196:	0000                	.insn	2, 0x0000
    fd1c9ffd5198:	0420cccf          	fnmadd.h	f25,f1,f2,f0,rmm
    fd1c9ffd519c:	0000                	.insn	2, 0x0000
    fd1c9ffd519e:	0000                	.insn	2, 0x0000
    fd1c9ffd51a0:	0420d0cf          	fnmadd.h	f1,f1,f2,f0,unknown
    fd1c9ffd51a4:	0000                	.insn	2, 0x0000
    fd1c9ffd51a6:	0000                	.insn	2, 0x0000
    fd1c9ffd51a8:	0420d4cf          	fnmadd.h	f9,f1,f2,f0,unknown
    fd1c9ffd51ac:	0000                	.insn	2, 0x0000
    fd1c9ffd51ae:	0000                	.insn	2, 0x0000
    fd1c9ffd51b0:	0420d8cf          	fnmadd.h	f17,f1,f2,f0,unknown
    fd1c9ffd51b4:	0000                	.insn	2, 0x0000
    fd1c9ffd51b6:	0000                	.insn	2, 0x0000
    fd1c9ffd51b8:	0420dccf          	fnmadd.h	f25,f1,f2,f0,unknown
    fd1c9ffd51bc:	0000                	.insn	2, 0x0000
    fd1c9ffd51be:	0000                	.insn	2, 0x0000
    fd1c9ffd51c0:	0420e0cf          	fnmadd.h	f1,f1,f2,f0,unknown
    fd1c9ffd51c4:	0000                	.insn	2, 0x0000
    fd1c9ffd51c6:	0000                	.insn	2, 0x0000
    fd1c9ffd51c8:	0420e4cf          	fnmadd.h	f9,f1,f2,f0,unknown
    fd1c9ffd51cc:	0000                	.insn	2, 0x0000
    fd1c9ffd51ce:	0000                	.insn	2, 0x0000
    fd1c9ffd51d0:	0420e8cf          	fnmadd.h	f17,f1,f2,f0,unknown
    fd1c9ffd51d4:	0000                	.insn	2, 0x0000
    fd1c9ffd51d6:	0000                	.insn	2, 0x0000
    fd1c9ffd51d8:	0420eccf          	fnmadd.h	f25,f1,f2,f0,unknown
    fd1c9ffd51dc:	0000                	.insn	2, 0x0000
    fd1c9ffd51de:	0000                	.insn	2, 0x0000
    fd1c9ffd51e0:	0420f0cf          	fnmadd.h	f1,f1,f2,f0
    fd1c9ffd51e4:	0000                	.insn	2, 0x0000
    fd1c9ffd51e6:	0000                	.insn	2, 0x0000
    fd1c9ffd51e8:	0420f4cf          	fnmadd.h	f9,f1,f2,f0
    fd1c9ffd51ec:	0000                	.insn	2, 0x0000
    fd1c9ffd51ee:	0000                	.insn	2, 0x0000
    fd1c9ffd51f0:	0420f8cf          	fnmadd.h	f17,f1,f2,f0
    fd1c9ffd51f4:	0000                	.insn	2, 0x0000
    fd1c9ffd51f6:	0000                	.insn	2, 0x0000
    fd1c9ffd51f8:	0420fccf          	fnmadd.h	f25,f1,f2,f0
    fd1c9ffd51fc:	0000                	.insn	2, 0x0000
    fd1c9ffd51fe:	0000                	.insn	2, 0x0000
    fd1c9ffd5200:	042100cf          	fnmadd.h	f1,f2,f2,f0,rne
    fd1c9ffd5204:	0000                	.insn	2, 0x0000
    fd1c9ffd5206:	0000                	.insn	2, 0x0000
    fd1c9ffd5208:	042104cf          	fnmadd.h	f9,f2,f2,f0,rne
    fd1c9ffd520c:	0000                	.insn	2, 0x0000
    fd1c9ffd520e:	0000                	.insn	2, 0x0000
    fd1c9ffd5210:	042108cf          	fnmadd.h	f17,f2,f2,f0,rne
    fd1c9ffd5214:	0000                	.insn	2, 0x0000
    fd1c9ffd5216:	0000                	.insn	2, 0x0000
    fd1c9ffd5218:	04210ccf          	fnmadd.h	f25,f2,f2,f0,rne
    fd1c9ffd521c:	0000                	.insn	2, 0x0000
    fd1c9ffd521e:	0000                	.insn	2, 0x0000
    fd1c9ffd5220:	042110cf          	fnmadd.h	f1,f2,f2,f0,rtz
    fd1c9ffd5224:	0000                	.insn	2, 0x0000
    fd1c9ffd5226:	0000                	.insn	2, 0x0000
    fd1c9ffd5228:	042114cf          	fnmadd.h	f9,f2,f2,f0,rtz
    fd1c9ffd522c:	0000                	.insn	2, 0x0000
    fd1c9ffd522e:	0000                	.insn	2, 0x0000
    fd1c9ffd5230:	042118cf          	fnmadd.h	f17,f2,f2,f0,rtz
    fd1c9ffd5234:	0000                	.insn	2, 0x0000
    fd1c9ffd5236:	0000                	.insn	2, 0x0000
    fd1c9ffd5238:	04211ccf          	fnmadd.h	f25,f2,f2,f0,rtz
    fd1c9ffd523c:	0000                	.insn	2, 0x0000
    fd1c9ffd523e:	0000                	.insn	2, 0x0000
    fd1c9ffd5240:	042120cf          	fnmadd.h	f1,f2,f2,f0,rdn
    fd1c9ffd5244:	0000                	.insn	2, 0x0000
    fd1c9ffd5246:	0000                	.insn	2, 0x0000
    fd1c9ffd5248:	042124cf          	fnmadd.h	f9,f2,f2,f0,rdn
    fd1c9ffd524c:	0000                	.insn	2, 0x0000
    fd1c9ffd524e:	0000                	.insn	2, 0x0000
    fd1c9ffd5250:	042128cf          	fnmadd.h	f17,f2,f2,f0,rdn
    fd1c9ffd5254:	0000                	.insn	2, 0x0000
    fd1c9ffd5256:	0000                	.insn	2, 0x0000
    fd1c9ffd5258:	04212ccf          	fnmadd.h	f25,f2,f2,f0,rdn
    fd1c9ffd525c:	0000                	.insn	2, 0x0000
    fd1c9ffd525e:	0000                	.insn	2, 0x0000
    fd1c9ffd5260:	042130cf          	fnmadd.h	f1,f2,f2,f0,rup
    fd1c9ffd5264:	0000                	.insn	2, 0x0000
    fd1c9ffd5266:	0000                	.insn	2, 0x0000
    fd1c9ffd5268:	042134cf          	fnmadd.h	f9,f2,f2,f0,rup
    fd1c9ffd526c:	0000                	.insn	2, 0x0000
    fd1c9ffd526e:	0000                	.insn	2, 0x0000
    fd1c9ffd5270:	042138cf          	fnmadd.h	f17,f2,f2,f0,rup
    fd1c9ffd5274:	0000                	.insn	2, 0x0000
    fd1c9ffd5276:	0000                	.insn	2, 0x0000
    fd1c9ffd5278:	04213ccf          	fnmadd.h	f25,f2,f2,f0,rup
    fd1c9ffd527c:	0000                	.insn	2, 0x0000
    fd1c9ffd527e:	0000                	.insn	2, 0x0000
    fd1c9ffd5280:	042140cf          	fnmadd.h	f1,f2,f2,f0,rmm
    fd1c9ffd5284:	0000                	.insn	2, 0x0000
    fd1c9ffd5286:	0000                	.insn	2, 0x0000
    fd1c9ffd5288:	042144cf          	fnmadd.h	f9,f2,f2,f0,rmm
    fd1c9ffd528c:	0000                	.insn	2, 0x0000
    fd1c9ffd528e:	0000                	.insn	2, 0x0000
    fd1c9ffd5290:	042148cf          	fnmadd.h	f17,f2,f2,f0,rmm
    fd1c9ffd5294:	0000                	.insn	2, 0x0000
    fd1c9ffd5296:	0000                	.insn	2, 0x0000
    fd1c9ffd5298:	04214ccf          	fnmadd.h	f25,f2,f2,f0,rmm
    fd1c9ffd529c:	0000                	.insn	2, 0x0000
    fd1c9ffd529e:	0000                	.insn	2, 0x0000
    fd1c9ffd52a0:	042150cf          	fnmadd.h	f1,f2,f2,f0,unknown
    fd1c9ffd52a4:	0000                	.insn	2, 0x0000
    fd1c9ffd52a6:	0000                	.insn	2, 0x0000
    fd1c9ffd52a8:	042154cf          	fnmadd.h	f9,f2,f2,f0,unknown
    fd1c9ffd52ac:	0000                	.insn	2, 0x0000
    fd1c9ffd52ae:	0000                	.insn	2, 0x0000
    fd1c9ffd52b0:	042158cf          	fnmadd.h	f17,f2,f2,f0,unknown
    fd1c9ffd52b4:	0000                	.insn	2, 0x0000
    fd1c9ffd52b6:	0000                	.insn	2, 0x0000
    fd1c9ffd52b8:	04215ccf          	fnmadd.h	f25,f2,f2,f0,unknown
    fd1c9ffd52bc:	0000                	.insn	2, 0x0000
    fd1c9ffd52be:	0000                	.insn	2, 0x0000
    fd1c9ffd52c0:	042160cf          	fnmadd.h	f1,f2,f2,f0,unknown
    fd1c9ffd52c4:	0000                	.insn	2, 0x0000
    fd1c9ffd52c6:	0000                	.insn	2, 0x0000
    fd1c9ffd52c8:	042164cf          	fnmadd.h	f9,f2,f2,f0,unknown
    fd1c9ffd52cc:	0000                	.insn	2, 0x0000
    fd1c9ffd52ce:	0000                	.insn	2, 0x0000
    fd1c9ffd52d0:	042168cf          	fnmadd.h	f17,f2,f2,f0,unknown
    fd1c9ffd52d4:	0000                	.insn	2, 0x0000
    fd1c9ffd52d6:	0000                	.insn	2, 0x0000
    fd1c9ffd52d8:	04216ccf          	fnmadd.h	f25,f2,f2,f0,unknown
    fd1c9ffd52dc:	0000                	.insn	2, 0x0000
    fd1c9ffd52de:	0000                	.insn	2, 0x0000
    fd1c9ffd52e0:	042170cf          	fnmadd.h	f1,f2,f2,f0
    fd1c9ffd52e4:	0000                	.insn	2, 0x0000
    fd1c9ffd52e6:	0000                	.insn	2, 0x0000
    fd1c9ffd52e8:	042174cf          	fnmadd.h	f9,f2,f2,f0
    fd1c9ffd52ec:	0000                	.insn	2, 0x0000
    fd1c9ffd52ee:	0000                	.insn	2, 0x0000
    fd1c9ffd52f0:	042178cf          	fnmadd.h	f17,f2,f2,f0
    fd1c9ffd52f4:	0000                	.insn	2, 0x0000
    fd1c9ffd52f6:	0000                	.insn	2, 0x0000
    fd1c9ffd52f8:	04217ccf          	fnmadd.h	f25,f2,f2,f0
    fd1c9ffd52fc:	0000                	.insn	2, 0x0000
    fd1c9ffd52fe:	0000                	.insn	2, 0x0000
    fd1c9ffd5300:	042180cf          	fnmadd.h	f1,f3,f2,f0,rne
    fd1c9ffd5304:	0000                	.insn	2, 0x0000
    fd1c9ffd5306:	0000                	.insn	2, 0x0000
    fd1c9ffd5308:	042184cf          	fnmadd.h	f9,f3,f2,f0,rne
    fd1c9ffd530c:	0000                	.insn	2, 0x0000
    fd1c9ffd530e:	0000                	.insn	2, 0x0000
    fd1c9ffd5310:	042188cf          	fnmadd.h	f17,f3,f2,f0,rne
    fd1c9ffd5314:	0000                	.insn	2, 0x0000
    fd1c9ffd5316:	0000                	.insn	2, 0x0000
    fd1c9ffd5318:	04218ccf          	fnmadd.h	f25,f3,f2,f0,rne
    fd1c9ffd531c:	0000                	.insn	2, 0x0000
    fd1c9ffd531e:	0000                	.insn	2, 0x0000
    fd1c9ffd5320:	042190cf          	fnmadd.h	f1,f3,f2,f0,rtz
    fd1c9ffd5324:	0000                	.insn	2, 0x0000
    fd1c9ffd5326:	0000                	.insn	2, 0x0000
    fd1c9ffd5328:	042194cf          	fnmadd.h	f9,f3,f2,f0,rtz
    fd1c9ffd532c:	0000                	.insn	2, 0x0000
    fd1c9ffd532e:	0000                	.insn	2, 0x0000
    fd1c9ffd5330:	042198cf          	fnmadd.h	f17,f3,f2,f0,rtz
    fd1c9ffd5334:	0000                	.insn	2, 0x0000
    fd1c9ffd5336:	0000                	.insn	2, 0x0000
    fd1c9ffd5338:	04219ccf          	fnmadd.h	f25,f3,f2,f0,rtz
    fd1c9ffd533c:	0000                	.insn	2, 0x0000
    fd1c9ffd533e:	0000                	.insn	2, 0x0000
    fd1c9ffd5340:	0421a0cf          	fnmadd.h	f1,f3,f2,f0,rdn
    fd1c9ffd5344:	0000                	.insn	2, 0x0000
    fd1c9ffd5346:	0000                	.insn	2, 0x0000
    fd1c9ffd5348:	0421a4cf          	fnmadd.h	f9,f3,f2,f0,rdn
    fd1c9ffd534c:	0000                	.insn	2, 0x0000
    fd1c9ffd534e:	0000                	.insn	2, 0x0000
    fd1c9ffd5350:	0421a8cf          	fnmadd.h	f17,f3,f2,f0,rdn
    fd1c9ffd5354:	0000                	.insn	2, 0x0000
    fd1c9ffd5356:	0000                	.insn	2, 0x0000
    fd1c9ffd5358:	0421accf          	fnmadd.h	f25,f3,f2,f0,rdn
    fd1c9ffd535c:	0000                	.insn	2, 0x0000
    fd1c9ffd535e:	0000                	.insn	2, 0x0000
    fd1c9ffd5360:	0421b0cf          	fnmadd.h	f1,f3,f2,f0,rup
    fd1c9ffd5364:	0000                	.insn	2, 0x0000
    fd1c9ffd5366:	0000                	.insn	2, 0x0000
    fd1c9ffd5368:	0421b4cf          	fnmadd.h	f9,f3,f2,f0,rup
    fd1c9ffd536c:	0000                	.insn	2, 0x0000
    fd1c9ffd536e:	0000                	.insn	2, 0x0000
    fd1c9ffd5370:	0421b8cf          	fnmadd.h	f17,f3,f2,f0,rup
    fd1c9ffd5374:	0000                	.insn	2, 0x0000
    fd1c9ffd5376:	0000                	.insn	2, 0x0000
    fd1c9ffd5378:	0421bccf          	fnmadd.h	f25,f3,f2,f0,rup
    fd1c9ffd537c:	0000                	.insn	2, 0x0000
    fd1c9ffd537e:	0000                	.insn	2, 0x0000
    fd1c9ffd5380:	0421c0cf          	fnmadd.h	f1,f3,f2,f0,rmm
    fd1c9ffd5384:	0000                	.insn	2, 0x0000
    fd1c9ffd5386:	0000                	.insn	2, 0x0000
    fd1c9ffd5388:	0421c4cf          	fnmadd.h	f9,f3,f2,f0,rmm
    fd1c9ffd538c:	0000                	.insn	2, 0x0000
    fd1c9ffd538e:	0000                	.insn	2, 0x0000
    fd1c9ffd5390:	0421c8cf          	fnmadd.h	f17,f3,f2,f0,rmm
    fd1c9ffd5394:	0000                	.insn	2, 0x0000
    fd1c9ffd5396:	0000                	.insn	2, 0x0000
    fd1c9ffd5398:	0421cccf          	fnmadd.h	f25,f3,f2,f0,rmm
    fd1c9ffd539c:	0000                	.insn	2, 0x0000
    fd1c9ffd539e:	0000                	.insn	2, 0x0000
    fd1c9ffd53a0:	0421d0cf          	fnmadd.h	f1,f3,f2,f0,unknown
    fd1c9ffd53a4:	0000                	.insn	2, 0x0000
    fd1c9ffd53a6:	0000                	.insn	2, 0x0000
    fd1c9ffd53a8:	0421d4cf          	fnmadd.h	f9,f3,f2,f0,unknown
    fd1c9ffd53ac:	0000                	.insn	2, 0x0000
    fd1c9ffd53ae:	0000                	.insn	2, 0x0000
    fd1c9ffd53b0:	0421d8cf          	fnmadd.h	f17,f3,f2,f0,unknown
    fd1c9ffd53b4:	0000                	.insn	2, 0x0000
    fd1c9ffd53b6:	0000                	.insn	2, 0x0000
    fd1c9ffd53b8:	0421dccf          	fnmadd.h	f25,f3,f2,f0,unknown
    fd1c9ffd53bc:	0000                	.insn	2, 0x0000
    fd1c9ffd53be:	0000                	.insn	2, 0x0000
    fd1c9ffd53c0:	0421e0cf          	fnmadd.h	f1,f3,f2,f0,unknown
    fd1c9ffd53c4:	0000                	.insn	2, 0x0000
    fd1c9ffd53c6:	0000                	.insn	2, 0x0000
    fd1c9ffd53c8:	0421e4cf          	fnmadd.h	f9,f3,f2,f0,unknown
    fd1c9ffd53cc:	0000                	.insn	2, 0x0000
    fd1c9ffd53ce:	0000                	.insn	2, 0x0000
    fd1c9ffd53d0:	0421e8cf          	fnmadd.h	f17,f3,f2,f0,unknown
    fd1c9ffd53d4:	0000                	.insn	2, 0x0000
    fd1c9ffd53d6:	0000                	.insn	2, 0x0000
    fd1c9ffd53d8:	0421eccf          	fnmadd.h	f25,f3,f2,f0,unknown
    fd1c9ffd53dc:	0000                	.insn	2, 0x0000
    fd1c9ffd53de:	0000                	.insn	2, 0x0000
    fd1c9ffd53e0:	0421f0cf          	fnmadd.h	f1,f3,f2,f0
    fd1c9ffd53e4:	0000                	.insn	2, 0x0000
    fd1c9ffd53e6:	0000                	.insn	2, 0x0000
    fd1c9ffd53e8:	0421f4cf          	fnmadd.h	f9,f3,f2,f0
    fd1c9ffd53ec:	0000                	.insn	2, 0x0000
    fd1c9ffd53ee:	0000                	.insn	2, 0x0000
    fd1c9ffd53f0:	0421f8cf          	fnmadd.h	f17,f3,f2,f0
    fd1c9ffd53f4:	0000                	.insn	2, 0x0000
    fd1c9ffd53f6:	0000                	.insn	2, 0x0000
    fd1c9ffd53f8:	0421fccf          	fnmadd.h	f25,f3,f2,f0
    fd1c9ffd53fc:	0000                	.insn	2, 0x0000
    fd1c9ffd53fe:	0000                	.insn	2, 0x0000
    fd1c9ffd5400:	042200cf          	fnmadd.h	f1,f4,f2,f0,rne
    fd1c9ffd5404:	0000                	.insn	2, 0x0000
    fd1c9ffd5406:	0000                	.insn	2, 0x0000
    fd1c9ffd5408:	042204cf          	fnmadd.h	f9,f4,f2,f0,rne
    fd1c9ffd540c:	0000                	.insn	2, 0x0000
    fd1c9ffd540e:	0000                	.insn	2, 0x0000
    fd1c9ffd5410:	042208cf          	fnmadd.h	f17,f4,f2,f0,rne
    fd1c9ffd5414:	0000                	.insn	2, 0x0000
    fd1c9ffd5416:	0000                	.insn	2, 0x0000
    fd1c9ffd5418:	04220ccf          	fnmadd.h	f25,f4,f2,f0,rne
    fd1c9ffd541c:	0000                	.insn	2, 0x0000
    fd1c9ffd541e:	0000                	.insn	2, 0x0000
    fd1c9ffd5420:	042210cf          	fnmadd.h	f1,f4,f2,f0,rtz
    fd1c9ffd5424:	0000                	.insn	2, 0x0000
    fd1c9ffd5426:	0000                	.insn	2, 0x0000
    fd1c9ffd5428:	042214cf          	fnmadd.h	f9,f4,f2,f0,rtz
    fd1c9ffd542c:	0000                	.insn	2, 0x0000
    fd1c9ffd542e:	0000                	.insn	2, 0x0000
    fd1c9ffd5430:	042218cf          	fnmadd.h	f17,f4,f2,f0,rtz
    fd1c9ffd5434:	0000                	.insn	2, 0x0000
    fd1c9ffd5436:	0000                	.insn	2, 0x0000
    fd1c9ffd5438:	04221ccf          	fnmadd.h	f25,f4,f2,f0,rtz
    fd1c9ffd543c:	0000                	.insn	2, 0x0000
    fd1c9ffd543e:	0000                	.insn	2, 0x0000
    fd1c9ffd5440:	042220cf          	fnmadd.h	f1,f4,f2,f0,rdn
    fd1c9ffd5444:	0000                	.insn	2, 0x0000
    fd1c9ffd5446:	0000                	.insn	2, 0x0000
    fd1c9ffd5448:	042224cf          	fnmadd.h	f9,f4,f2,f0,rdn
    fd1c9ffd544c:	0000                	.insn	2, 0x0000
    fd1c9ffd544e:	0000                	.insn	2, 0x0000
    fd1c9ffd5450:	042228cf          	fnmadd.h	f17,f4,f2,f0,rdn
    fd1c9ffd5454:	0000                	.insn	2, 0x0000
    fd1c9ffd5456:	0000                	.insn	2, 0x0000
    fd1c9ffd5458:	04222ccf          	fnmadd.h	f25,f4,f2,f0,rdn
    fd1c9ffd545c:	0000                	.insn	2, 0x0000
    fd1c9ffd545e:	0000                	.insn	2, 0x0000
    fd1c9ffd5460:	042230cf          	fnmadd.h	f1,f4,f2,f0,rup
    fd1c9ffd5464:	0000                	.insn	2, 0x0000
    fd1c9ffd5466:	0000                	.insn	2, 0x0000
    fd1c9ffd5468:	042234cf          	fnmadd.h	f9,f4,f2,f0,rup
    fd1c9ffd546c:	0000                	.insn	2, 0x0000
    fd1c9ffd546e:	0000                	.insn	2, 0x0000
    fd1c9ffd5470:	042238cf          	fnmadd.h	f17,f4,f2,f0,rup
    fd1c9ffd5474:	0000                	.insn	2, 0x0000
    fd1c9ffd5476:	0000                	.insn	2, 0x0000
    fd1c9ffd5478:	04223ccf          	fnmadd.h	f25,f4,f2,f0,rup
    fd1c9ffd547c:	0000                	.insn	2, 0x0000
    fd1c9ffd547e:	0000                	.insn	2, 0x0000
    fd1c9ffd5480:	042240cf          	fnmadd.h	f1,f4,f2,f0,rmm
    fd1c9ffd5484:	0000                	.insn	2, 0x0000
    fd1c9ffd5486:	0000                	.insn	2, 0x0000
    fd1c9ffd5488:	042244cf          	fnmadd.h	f9,f4,f2,f0,rmm
    fd1c9ffd548c:	0000                	.insn	2, 0x0000
    fd1c9ffd548e:	0000                	.insn	2, 0x0000
    fd1c9ffd5490:	042248cf          	fnmadd.h	f17,f4,f2,f0,rmm
    fd1c9ffd5494:	0000                	.insn	2, 0x0000
    fd1c9ffd5496:	0000                	.insn	2, 0x0000
    fd1c9ffd5498:	04224ccf          	fnmadd.h	f25,f4,f2,f0,rmm
    fd1c9ffd549c:	0000                	.insn	2, 0x0000
    fd1c9ffd549e:	0000                	.insn	2, 0x0000
    fd1c9ffd54a0:	042250cf          	fnmadd.h	f1,f4,f2,f0,unknown
    fd1c9ffd54a4:	0000                	.insn	2, 0x0000
    fd1c9ffd54a6:	0000                	.insn	2, 0x0000
    fd1c9ffd54a8:	042254cf          	fnmadd.h	f9,f4,f2,f0,unknown
    fd1c9ffd54ac:	0000                	.insn	2, 0x0000
    fd1c9ffd54ae:	0000                	.insn	2, 0x0000
    fd1c9ffd54b0:	042258cf          	fnmadd.h	f17,f4,f2,f0,unknown
    fd1c9ffd54b4:	0000                	.insn	2, 0x0000
    fd1c9ffd54b6:	0000                	.insn	2, 0x0000
    fd1c9ffd54b8:	04225ccf          	fnmadd.h	f25,f4,f2,f0,unknown
    fd1c9ffd54bc:	0000                	.insn	2, 0x0000
    fd1c9ffd54be:	0000                	.insn	2, 0x0000
    fd1c9ffd54c0:	042260cf          	fnmadd.h	f1,f4,f2,f0,unknown
    fd1c9ffd54c4:	0000                	.insn	2, 0x0000
    fd1c9ffd54c6:	0000                	.insn	2, 0x0000
    fd1c9ffd54c8:	042264cf          	fnmadd.h	f9,f4,f2,f0,unknown
    fd1c9ffd54cc:	0000                	.insn	2, 0x0000
    fd1c9ffd54ce:	0000                	.insn	2, 0x0000
    fd1c9ffd54d0:	042268cf          	fnmadd.h	f17,f4,f2,f0,unknown
    fd1c9ffd54d4:	0000                	.insn	2, 0x0000
    fd1c9ffd54d6:	0000                	.insn	2, 0x0000
    fd1c9ffd54d8:	04226ccf          	fnmadd.h	f25,f4,f2,f0,unknown
    fd1c9ffd54dc:	0000                	.insn	2, 0x0000
    fd1c9ffd54de:	0000                	.insn	2, 0x0000
    fd1c9ffd54e0:	042270cf          	fnmadd.h	f1,f4,f2,f0
    fd1c9ffd54e4:	0000                	.insn	2, 0x0000
    fd1c9ffd54e6:	0000                	.insn	2, 0x0000
    fd1c9ffd54e8:	042274cf          	fnmadd.h	f9,f4,f2,f0
    fd1c9ffd54ec:	0000                	.insn	2, 0x0000
    fd1c9ffd54ee:	0000                	.insn	2, 0x0000
    fd1c9ffd54f0:	042278cf          	fnmadd.h	f17,f4,f2,f0
    fd1c9ffd54f4:	0000                	.insn	2, 0x0000
    fd1c9ffd54f6:	0000                	.insn	2, 0x0000
    fd1c9ffd54f8:	04227ccf          	fnmadd.h	f25,f4,f2,f0
    fd1c9ffd54fc:	0000                	.insn	2, 0x0000
    fd1c9ffd54fe:	0000                	.insn	2, 0x0000
    fd1c9ffd5500:	042280cf          	fnmadd.h	f1,f5,f2,f0,rne
    fd1c9ffd5504:	0000                	.insn	2, 0x0000
    fd1c9ffd5506:	0000                	.insn	2, 0x0000
    fd1c9ffd5508:	042284cf          	fnmadd.h	f9,f5,f2,f0,rne
    fd1c9ffd550c:	0000                	.insn	2, 0x0000
    fd1c9ffd550e:	0000                	.insn	2, 0x0000
    fd1c9ffd5510:	042288cf          	fnmadd.h	f17,f5,f2,f0,rne
    fd1c9ffd5514:	0000                	.insn	2, 0x0000
    fd1c9ffd5516:	0000                	.insn	2, 0x0000
    fd1c9ffd5518:	04228ccf          	fnmadd.h	f25,f5,f2,f0,rne
    fd1c9ffd551c:	0000                	.insn	2, 0x0000
    fd1c9ffd551e:	0000                	.insn	2, 0x0000
    fd1c9ffd5520:	042290cf          	fnmadd.h	f1,f5,f2,f0,rtz
    fd1c9ffd5524:	0000                	.insn	2, 0x0000
    fd1c9ffd5526:	0000                	.insn	2, 0x0000
    fd1c9ffd5528:	042294cf          	fnmadd.h	f9,f5,f2,f0,rtz
    fd1c9ffd552c:	0000                	.insn	2, 0x0000
    fd1c9ffd552e:	0000                	.insn	2, 0x0000
    fd1c9ffd5530:	042298cf          	fnmadd.h	f17,f5,f2,f0,rtz
    fd1c9ffd5534:	0000                	.insn	2, 0x0000
    fd1c9ffd5536:	0000                	.insn	2, 0x0000
    fd1c9ffd5538:	04229ccf          	fnmadd.h	f25,f5,f2,f0,rtz
    fd1c9ffd553c:	0000                	.insn	2, 0x0000
    fd1c9ffd553e:	0000                	.insn	2, 0x0000
    fd1c9ffd5540:	0422a0cf          	fnmadd.h	f1,f5,f2,f0,rdn
    fd1c9ffd5544:	0000                	.insn	2, 0x0000
    fd1c9ffd5546:	0000                	.insn	2, 0x0000
    fd1c9ffd5548:	0422a4cf          	fnmadd.h	f9,f5,f2,f0,rdn
    fd1c9ffd554c:	0000                	.insn	2, 0x0000
    fd1c9ffd554e:	0000                	.insn	2, 0x0000
    fd1c9ffd5550:	0422a8cf          	fnmadd.h	f17,f5,f2,f0,rdn
    fd1c9ffd5554:	0000                	.insn	2, 0x0000
    fd1c9ffd5556:	0000                	.insn	2, 0x0000
    fd1c9ffd5558:	0422accf          	fnmadd.h	f25,f5,f2,f0,rdn
    fd1c9ffd555c:	0000                	.insn	2, 0x0000
    fd1c9ffd555e:	0000                	.insn	2, 0x0000
    fd1c9ffd5560:	0422b0cf          	fnmadd.h	f1,f5,f2,f0,rup
    fd1c9ffd5564:	0000                	.insn	2, 0x0000
    fd1c9ffd5566:	0000                	.insn	2, 0x0000
    fd1c9ffd5568:	0422b4cf          	fnmadd.h	f9,f5,f2,f0,rup
    fd1c9ffd556c:	0000                	.insn	2, 0x0000
    fd1c9ffd556e:	0000                	.insn	2, 0x0000
    fd1c9ffd5570:	0422b8cf          	fnmadd.h	f17,f5,f2,f0,rup
    fd1c9ffd5574:	0000                	.insn	2, 0x0000
    fd1c9ffd5576:	0000                	.insn	2, 0x0000
    fd1c9ffd5578:	0422bccf          	fnmadd.h	f25,f5,f2,f0,rup
    fd1c9ffd557c:	0000                	.insn	2, 0x0000
    fd1c9ffd557e:	0000                	.insn	2, 0x0000
    fd1c9ffd5580:	0422c0cf          	fnmadd.h	f1,f5,f2,f0,rmm
    fd1c9ffd5584:	0000                	.insn	2, 0x0000
    fd1c9ffd5586:	0000                	.insn	2, 0x0000
    fd1c9ffd5588:	0422c4cf          	fnmadd.h	f9,f5,f2,f0,rmm
    fd1c9ffd558c:	0000                	.insn	2, 0x0000
    fd1c9ffd558e:	0000                	.insn	2, 0x0000
    fd1c9ffd5590:	0422c8cf          	fnmadd.h	f17,f5,f2,f0,rmm
    fd1c9ffd5594:	0000                	.insn	2, 0x0000
    fd1c9ffd5596:	0000                	.insn	2, 0x0000
    fd1c9ffd5598:	0422cccf          	fnmadd.h	f25,f5,f2,f0,rmm
    fd1c9ffd559c:	0000                	.insn	2, 0x0000
    fd1c9ffd559e:	0000                	.insn	2, 0x0000
    fd1c9ffd55a0:	0422d0cf          	fnmadd.h	f1,f5,f2,f0,unknown
    fd1c9ffd55a4:	0000                	.insn	2, 0x0000
    fd1c9ffd55a6:	0000                	.insn	2, 0x0000
    fd1c9ffd55a8:	0422d4cf          	fnmadd.h	f9,f5,f2,f0,unknown
    fd1c9ffd55ac:	0000                	.insn	2, 0x0000
    fd1c9ffd55ae:	0000                	.insn	2, 0x0000
    fd1c9ffd55b0:	0422d8cf          	fnmadd.h	f17,f5,f2,f0,unknown
    fd1c9ffd55b4:	0000                	.insn	2, 0x0000
    fd1c9ffd55b6:	0000                	.insn	2, 0x0000
    fd1c9ffd55b8:	0422dccf          	fnmadd.h	f25,f5,f2,f0,unknown
    fd1c9ffd55bc:	0000                	.insn	2, 0x0000
    fd1c9ffd55be:	0000                	.insn	2, 0x0000
    fd1c9ffd55c0:	0422e0cf          	fnmadd.h	f1,f5,f2,f0,unknown
    fd1c9ffd55c4:	0000                	.insn	2, 0x0000
    fd1c9ffd55c6:	0000                	.insn	2, 0x0000
    fd1c9ffd55c8:	0422e4cf          	fnmadd.h	f9,f5,f2,f0,unknown
    fd1c9ffd55cc:	0000                	.insn	2, 0x0000
    fd1c9ffd55ce:	0000                	.insn	2, 0x0000
    fd1c9ffd55d0:	0422e8cf          	fnmadd.h	f17,f5,f2,f0,unknown
    fd1c9ffd55d4:	0000                	.insn	2, 0x0000
    fd1c9ffd55d6:	0000                	.insn	2, 0x0000
    fd1c9ffd55d8:	0422eccf          	fnmadd.h	f25,f5,f2,f0,unknown
    fd1c9ffd55dc:	0000                	.insn	2, 0x0000
    fd1c9ffd55de:	0000                	.insn	2, 0x0000
    fd1c9ffd55e0:	0422f0cf          	fnmadd.h	f1,f5,f2,f0
    fd1c9ffd55e4:	0000                	.insn	2, 0x0000
    fd1c9ffd55e6:	0000                	.insn	2, 0x0000
    fd1c9ffd55e8:	0422f4cf          	fnmadd.h	f9,f5,f2,f0
    fd1c9ffd55ec:	0000                	.insn	2, 0x0000
    fd1c9ffd55ee:	0000                	.insn	2, 0x0000
    fd1c9ffd55f0:	0422f8cf          	fnmadd.h	f17,f5,f2,f0
    fd1c9ffd55f4:	0000                	.insn	2, 0x0000
    fd1c9ffd55f6:	0000                	.insn	2, 0x0000
    fd1c9ffd55f8:	0422fccf          	fnmadd.h	f25,f5,f2,f0
    fd1c9ffd55fc:	0000                	.insn	2, 0x0000
    fd1c9ffd55fe:	0000                	.insn	2, 0x0000
    fd1c9ffd5600:	042300cf          	fnmadd.h	f1,f6,f2,f0,rne
    fd1c9ffd5604:	0000                	.insn	2, 0x0000
    fd1c9ffd5606:	0000                	.insn	2, 0x0000
    fd1c9ffd5608:	042304cf          	fnmadd.h	f9,f6,f2,f0,rne
    fd1c9ffd560c:	0000                	.insn	2, 0x0000
    fd1c9ffd560e:	0000                	.insn	2, 0x0000
    fd1c9ffd5610:	042308cf          	fnmadd.h	f17,f6,f2,f0,rne
    fd1c9ffd5614:	0000                	.insn	2, 0x0000
    fd1c9ffd5616:	0000                	.insn	2, 0x0000
    fd1c9ffd5618:	04230ccf          	fnmadd.h	f25,f6,f2,f0,rne
    fd1c9ffd561c:	0000                	.insn	2, 0x0000
    fd1c9ffd561e:	0000                	.insn	2, 0x0000
    fd1c9ffd5620:	042310cf          	fnmadd.h	f1,f6,f2,f0,rtz
    fd1c9ffd5624:	0000                	.insn	2, 0x0000
    fd1c9ffd5626:	0000                	.insn	2, 0x0000
    fd1c9ffd5628:	042314cf          	fnmadd.h	f9,f6,f2,f0,rtz
    fd1c9ffd562c:	0000                	.insn	2, 0x0000
    fd1c9ffd562e:	0000                	.insn	2, 0x0000
    fd1c9ffd5630:	042318cf          	fnmadd.h	f17,f6,f2,f0,rtz
    fd1c9ffd5634:	0000                	.insn	2, 0x0000
    fd1c9ffd5636:	0000                	.insn	2, 0x0000
    fd1c9ffd5638:	04231ccf          	fnmadd.h	f25,f6,f2,f0,rtz
    fd1c9ffd563c:	0000                	.insn	2, 0x0000
    fd1c9ffd563e:	0000                	.insn	2, 0x0000
    fd1c9ffd5640:	042320cf          	fnmadd.h	f1,f6,f2,f0,rdn
    fd1c9ffd5644:	0000                	.insn	2, 0x0000
    fd1c9ffd5646:	0000                	.insn	2, 0x0000
