
/home/abdullah/RiescueC/riescue/10x_R/zjpm/testsuite/zjpm/user_sv39/tp_zjpm_1:     file format elf64-littleriscv


Disassembly of section .runtime:

0000000080000000 <_start>:
    80000000:	00000093          	li	x1,0
    80000004:	00000113          	li	x2,0
    80000008:	00000193          	li	x3,0
    8000000c:	00000213          	li	x4,0
    80000010:	00000293          	li	x5,0
    80000014:	00000313          	li	x6,0
    80000018:	00000393          	li	x7,0
    8000001c:	00000413          	li	x8,0
    80000020:	00000493          	li	x9,0
    80000024:	00000513          	li	x10,0
    80000028:	00000593          	li	x11,0
    8000002c:	00000613          	li	x12,0
    80000030:	00000693          	li	x13,0
    80000034:	00000713          	li	x14,0
    80000038:	00000793          	li	x15,0
    8000003c:	00000813          	li	x16,0
    80000040:	00000893          	li	x17,0
    80000044:	00000913          	li	x18,0
    80000048:	00000993          	li	x19,0
    8000004c:	00000a13          	li	x20,0
    80000050:	00000a93          	li	x21,0
    80000054:	00000b13          	li	x22,0
    80000058:	00000b93          	li	x23,0
    8000005c:	00000c13          	li	x24,0
    80000060:	00000c93          	li	x25,0
    80000064:	00000d13          	li	x26,0
    80000068:	00000d93          	li	x27,0
    8000006c:	00000e13          	li	x28,0
    80000070:	00000e93          	li	x29,0
    80000074:	00000f13          	li	x30,0
    80000078:	00000f93          	li	x31,0

000000008000007c <loader__load_panic_address>:
    8000007c:	00001297          	auipc	x5,0x1
    80000080:	cb828293          	addi	x5,x5,-840 # 80000d34 <eot__failed>
    80000084:	30529073          	csrw	mtvec,x5

0000000080000088 <loader__initialize_runtime>:
    80000088:	0010029b          	addiw	x5,x0,1
    8000008c:	03229293          	slli	x5,x5,0x32
    80000090:	20128293          	addi	x5,x5,513
    80000094:	00c29293          	slli	x5,x5,0xc
    80000098:	1ad28293          	addi	x5,x5,429
    8000009c:	3012a2f3          	csrrs	x5,misa,x5

00000000800000a0 <loader__set_mstatus>:
    800000a0:	000422b7          	lui	x5,0x42
    800000a4:	20a2829b          	addiw	x5,x5,522 # 4220a <_all_interrupts+0x3f760>
    800000a8:	3002a2f3          	csrrs	x5,mstatus,x5

00000000800000ac <loader__init_fp_registers>:
    800000ac:	007d22b7          	lui	x5,0x7d2
    800000b0:	8ed2829b          	addiw	x5,x5,-1811 # 7d18ed <mem1+0x6188ed>
    800000b4:	00d29293          	slli	x5,x5,0xd
    800000b8:	9e128293          	addi	x5,x5,-1567
    800000bc:	00d29293          	slli	x5,x5,0xd
    800000c0:	09828293          	addi	x5,x5,152
    800000c4:	0002b007          	fld	f0,0(x5)
    800000c8:	0002b087          	fld	f1,0(x5)
    800000cc:	0002b107          	fld	f2,0(x5)
    800000d0:	0002b187          	fld	f3,0(x5)
    800000d4:	0002b207          	fld	f4,0(x5)
    800000d8:	0002b287          	fld	f5,0(x5)
    800000dc:	0002b307          	fld	f6,0(x5)
    800000e0:	0002b387          	fld	f7,0(x5)
    800000e4:	0002b407          	fld	f8,0(x5)
    800000e8:	0002b487          	fld	f9,0(x5)
    800000ec:	0002b507          	fld	f10,0(x5)
    800000f0:	0002b587          	fld	f11,0(x5)
    800000f4:	0002b607          	fld	f12,0(x5)
    800000f8:	0002b687          	fld	f13,0(x5)
    800000fc:	0002b707          	fld	f14,0(x5)
    80000100:	0002b787          	fld	f15,0(x5)
    80000104:	0002b807          	fld	f16,0(x5)
    80000108:	0002b887          	fld	f17,0(x5)
    8000010c:	0002b907          	fld	f18,0(x5)
    80000110:	0002b987          	fld	f19,0(x5)
    80000114:	0002ba07          	fld	f20,0(x5)
    80000118:	0002ba87          	fld	f21,0(x5)
    8000011c:	0002bb07          	fld	f22,0(x5)
    80000120:	0002bb87          	fld	f23,0(x5)
    80000124:	0002bc07          	fld	f24,0(x5)
    80000128:	0002bc87          	fld	f25,0(x5)
    8000012c:	0002bd07          	fld	f26,0(x5)
    80000130:	0002bd87          	fld	f27,0(x5)
    80000134:	0002be07          	fld	f28,0(x5)
    80000138:	0002be87          	fld	f29,0(x5)
    8000013c:	0002bf07          	fld	f30,0(x5)
    80000140:	0002bf87          	fld	f31,0(x5)

0000000080000144 <loader__init_vector_registers>:
    80000144:	00000213          	li	x4,0
    80000148:	00400293          	li	x5,4
    8000014c:	0d800313          	li	x6,216
    80000150:	8062f257          	vsetvl	x4,x5,x6
    80000154:	5e004057          	vmv.v.x	v0,x0
    80000158:	5e0040d7          	vmv.v.x	v1,x0
    8000015c:	5e004157          	vmv.v.x	v2,x0
    80000160:	5e0041d7          	vmv.v.x	v3,x0
    80000164:	5e004257          	vmv.v.x	v4,x0
    80000168:	5e0042d7          	vmv.v.x	v5,x0
    8000016c:	5e004357          	vmv.v.x	v6,x0
    80000170:	5e0043d7          	vmv.v.x	v7,x0
    80000174:	5e004457          	vmv.v.x	v8,x0
    80000178:	5e0044d7          	vmv.v.x	v9,x0
    8000017c:	5e004557          	vmv.v.x	v10,x0
    80000180:	5e0045d7          	vmv.v.x	v11,x0
    80000184:	5e004657          	vmv.v.x	v12,x0
    80000188:	5e0046d7          	vmv.v.x	v13,x0
    8000018c:	5e004757          	vmv.v.x	v14,x0
    80000190:	5e0047d7          	vmv.v.x	v15,x0
    80000194:	5e004857          	vmv.v.x	v16,x0
    80000198:	5e0048d7          	vmv.v.x	v17,x0
    8000019c:	5e004957          	vmv.v.x	v18,x0
    800001a0:	5e0049d7          	vmv.v.x	v19,x0
    800001a4:	5e004a57          	vmv.v.x	v20,x0
    800001a8:	5e004ad7          	vmv.v.x	v21,x0
    800001ac:	5e004b57          	vmv.v.x	v22,x0
    800001b0:	5e004bd7          	vmv.v.x	v23,x0
    800001b4:	5e004c57          	vmv.v.x	v24,x0
    800001b8:	5e004cd7          	vmv.v.x	v25,x0
    800001bc:	5e004d57          	vmv.v.x	v26,x0
    800001c0:	5e004dd7          	vmv.v.x	v27,x0
    800001c4:	5e004e57          	vmv.v.x	v28,x0
    800001c8:	5e004ed7          	vmv.v.x	v29,x0
    800001cc:	5e004f57          	vmv.v.x	v30,x0
    800001d0:	5e004fd7          	vmv.v.x	v31,x0
    800001d4:	00947237          	lui	x4,0x947
    800001d8:	e9b2021b          	addiw	x4,x4,-357 # 946e9b <mem1+0x78de9b>
    800001dc:	00c21213          	slli	x4,x4,0xc
    800001e0:	34021073          	csrw	mscratch,x4
    800001e4:	0026b237          	lui	x4,0x26b
    800001e8:	0df2021b          	addiw	x4,x4,223 # 26b0df <mem1+0xb20df>
    800001ec:	00c21213          	slli	x4,x4,0xc
    800001f0:	14021073          	csrw	sscratch,x4
    800001f4:	00947237          	lui	x4,0x947
    800001f8:	e9b2021b          	addiw	x4,x4,-357 # 946e9b <mem1+0x78de9b>
    800001fc:	00c21213          	slli	x4,x4,0xc

0000000080000200 <loader__setup_medeleg>:
    80000200:	0035c2b7          	lui	x5,0x35c
    80000204:	f992829b          	addiw	x5,x5,-103 # 35bf99 <mem1+0x1a2f99>
    80000208:	00d29293          	slli	x5,x5,0xd
    8000020c:	5b928293          	addi	x5,x5,1465
    80000210:	00d29293          	slli	x5,x5,0xd
    80000214:	7a728293          	addi	x5,x5,1959
    80000218:	00e29293          	slli	x5,x5,0xe
    8000021c:	01628293          	addi	x5,x5,22
    80000220:	30229073          	csrw	medeleg,x5

0000000080000224 <loader__setup_mideleg>:
    80000224:	2a800293          	li	x5,680
    80000228:	30329073          	csrw	mideleg,x5

000000008000022c <loader__setup_tvec>:
    8000022c:	00000297          	auipc	x5,0x0
    80000230:	58428293          	addi	x5,x5,1412 # 800007b0 <trap_handler_m__trap_entry>
    80000234:	30529073          	csrw	mtvec,x5
    80000238:	00011297          	auipc	x5,0x11
    8000023c:	e4028293          	addi	x5,x5,-448 # 80011078 <trap_handler_s__trap_entry>
    80000240:	10529073          	csrw	stvec,x5

0000000080000244 <loader__enable_paging>:
    80000244:	fff800b7          	lui	x1,0xfff80
    80000248:	1dd0809b          	addiw	x1,x1,477 # fffffffffff801dd <__section_data_1+0x1a093f31dd>
    8000024c:	01409093          	slli	x1,x1,0x14
    80000250:	00108093          	addi	x1,x1,1
    80000254:	00c09093          	slli	x1,x1,0xc
    80000258:	94708093          	addi	x1,x1,-1721
    8000025c:	00c09093          	slli	x1,x1,0xc
    80000260:	e9c08093          	addi	x1,x1,-356
    80000264:	18009073          	csrw	satp,x1

0000000080000268 <loader__done>:
    80000268:	2f50006f          	j	80000d5c <scheduler__init>

000000008000026c <loader__panic>:
    8000026c:	2c90006f          	j	80000d34 <eot__failed>

0000000080000270 <syscalls__syscall_check_schedule_next_test>:
    80000270:	00f0029b          	addiw	x5,x0,15
    80000274:	01c29293          	slli	x5,x5,0x1c
    80000278:	00128293          	addi	x5,x5,1
    8000027c:	01f29a63          	bne	x5,x31,80000290 <syscalls__syscall_check_fail_test>
    80000280:	00000317          	auipc	x6,0x0
    80000284:	53030313          	addi	x6,x6,1328 # 800007b0 <trap_handler_m__trap_entry>
    80000288:	30531073          	csrw	mtvec,x6
    8000028c:	7680006f          	j	800009f4 <enter_scheduler>

0000000080000290 <syscalls__syscall_check_fail_test>:
    80000290:	00f0029b          	addiw	x5,x0,15
    80000294:	01c29293          	slli	x5,x5,0x1c
    80000298:	00228293          	addi	x5,x5,2
    8000029c:	01f29a63          	bne	x5,x31,800002b0 <syscalls__syscall_check_end_test_without_failure>
    800002a0:	00000317          	auipc	x6,0x0
    800002a4:	51030313          	addi	x6,x6,1296 # 800007b0 <trap_handler_m__trap_entry>
    800002a8:	30531073          	csrw	mtvec,x6
    800002ac:	7780006f          	j	80000a24 <test_failed>

00000000800002b0 <syscalls__syscall_check_end_test_without_failure>:
    800002b0:	00f0029b          	addiw	x5,x0,15
    800002b4:	01c29293          	slli	x5,x5,0x1c
    800002b8:	00328293          	addi	x5,x5,3
    800002bc:	01f29a63          	bne	x5,x31,800002d0 <syscalls__syscall_check_switch_machine_mode>
    800002c0:	00000317          	auipc	x6,0x0
    800002c4:	4f030313          	addi	x6,x6,1264 # 800007b0 <trap_handler_m__trap_entry>
    800002c8:	30531073          	csrw	mtvec,x6
    800002cc:	7640006f          	j	80000a30 <os_end_test>

00000000800002d0 <syscalls__syscall_check_switch_machine_mode>:
    800002d0:	000f02b7          	lui	x5,0xf0
    800002d4:	0012829b          	addiw	x5,x5,1 # f0001 <SID_26_pm_different_tags_same_address_stack+0x7f001>
    800002d8:	00c29293          	slli	x5,x5,0xc
    800002dc:	00128293          	addi	x5,x5,1
    800002e0:	0a5f8463          	beq	x31,x5,80000388 <syscalls__os_fn_f0001001>

00000000800002e4 <syscalls__syscall_check_switch_super_mode>:
    800002e4:	000f02b7          	lui	x5,0xf0
    800002e8:	0012829b          	addiw	x5,x5,1 # f0001 <SID_26_pm_different_tags_same_address_stack+0x7f001>
    800002ec:	00c29293          	slli	x5,x5,0xc
    800002f0:	00228293          	addi	x5,x5,2
    800002f4:	0c5f8463          	beq	x31,x5,800003bc <syscalls__os_fn_f0001002>

00000000800002f8 <syscalls__syscall_check_switch_user_mode>:
    800002f8:	000f02b7          	lui	x5,0xf0
    800002fc:	0012829b          	addiw	x5,x5,1 # f0001 <SID_26_pm_different_tags_same_address_stack+0x7f001>
    80000300:	00c29293          	slli	x5,x5,0xc
    80000304:	00328293          	addi	x5,x5,3
    80000308:	0e5f8663          	beq	x31,x5,800003f4 <syscalls__os_fn_f0001003>

000000008000030c <syscalls__syscall_check_switch_test_mode>:
    8000030c:	000f02b7          	lui	x5,0xf0
    80000310:	0012829b          	addiw	x5,x5,1 # f0001 <SID_26_pm_different_tags_same_address_stack+0x7f001>
    80000314:	00c29293          	slli	x5,x5,0xc
    80000318:	00428293          	addi	x5,x5,4
    8000031c:	0e5f8463          	beq	x31,x5,80000404 <syscalls__os_fn_f0001004>

0000000080000320 <syscalls__syscall_machine_csr_rw>:
    80000320:	000f02b7          	lui	x5,0xf0
    80000324:	0012829b          	addiw	x5,x5,1 # f0001 <SID_26_pm_different_tags_same_address_stack+0x7f001>
    80000328:	00c29293          	slli	x5,x5,0xc
    8000032c:	00528293          	addi	x5,x5,5
    80000330:	0e5f8e63          	beq	x31,x5,8000042c <syscalls__os_fn_f0001005>

0000000080000334 <syscalls__syscall_supervisor_csr_rw>:
    80000334:	000f02b7          	lui	x5,0xf0
    80000338:	0012829b          	addiw	x5,x5,1 # f0001 <SID_26_pm_different_tags_same_address_stack+0x7f001>
    8000033c:	00c29293          	slli	x5,x5,0xc
    80000340:	00628293          	addi	x5,x5,6
    80000344:	105f8e63          	beq	x31,x5,80000460 <syscalls__os_fn_f0001006>

0000000080000348 <syscalls__syscall_machine_pte_read>:
    80000348:	000f02b7          	lui	x5,0xf0
    8000034c:	0012829b          	addiw	x5,x5,1 # f0001 <SID_26_pm_different_tags_same_address_stack+0x7f001>
    80000350:	00c29293          	slli	x5,x5,0xc
    80000354:	00728293          	addi	x5,x5,7
    80000358:	145f8063          	beq	x31,x5,80000498 <syscalls__os_fn_f0001007>

000000008000035c <syscalls__syscall_machine_pte_write>:
    8000035c:	000f02b7          	lui	x5,0xf0
    80000360:	0012829b          	addiw	x5,x5,1 # f0001 <SID_26_pm_different_tags_same_address_stack+0x7f001>
    80000364:	00c29293          	slli	x5,x5,0xc
    80000368:	00828293          	addi	x5,x5,8
    8000036c:	265f8463          	beq	x31,x5,800005d4 <syscalls__os_fn_f0001008>

0000000080000370 <syscalls__syscall_check_get_hart_context>:
    80000370:	000782b7          	lui	x5,0x78
    80000374:	0012829b          	addiw	x5,x5,1 # 78001 <SID_26_pm_different_tags_same_address_stack+0x7001>
    80000378:	00d29293          	slli	x5,x5,0xd
    8000037c:	00128293          	addi	x5,x5,1
    80000380:	385f8863          	beq	x31,x5,80000710 <syscalls__os_get_hart_context>
    80000384:	5880006f          	j	8000090c <trap_handler_m__check_exception_label>

0000000080000388 <syscalls__os_fn_f0001001>:
    80000388:	000022b7          	lui	x5,0x2
    8000038c:	8002829b          	addiw	x5,x5,-2048 # 1800 <FS_RANDOMIZATION+0x179c>
    80000390:	3002b073          	csrc	mstatus,x5
    80000394:	000022b7          	lui	x5,0x2
    80000398:	8002829b          	addiw	x5,x5,-2048 # 1800 <FS_RANDOMIZATION+0x179c>
    8000039c:	3002a073          	csrs	mstatus,x5
    800003a0:	0010029b          	addiw	x5,x0,1
    800003a4:	02729293          	slli	x5,x5,0x27
    800003a8:	3002b073          	csrc	mstatus,x5
    800003ac:	000802b7          	lui	x5,0x80
    800003b0:	1952829b          	addiw	x5,x5,405 # 80195 <SID_26_pm_different_tags_same_address_stack+0xf195>
    800003b4:	00c29293          	slli	x5,x5,0xc
    800003b8:	3680006f          	j	80000720 <syscalls__ret_from_os_fn>

00000000800003bc <syscalls__os_fn_f0001002>:
    800003bc:	000022b7          	lui	x5,0x2
    800003c0:	8002829b          	addiw	x5,x5,-2048 # 1800 <FS_RANDOMIZATION+0x179c>
    800003c4:	3002b073          	csrc	mstatus,x5
    800003c8:	000012b7          	lui	x5,0x1
    800003cc:	8002829b          	addiw	x5,x5,-2048 # 800 <FS_RANDOMIZATION+0x79c>
    800003d0:	3002a073          	csrs	mstatus,x5
    800003d4:	0010029b          	addiw	x5,x0,1
    800003d8:	02729293          	slli	x5,x5,0x27
    800003dc:	3002b073          	csrc	mstatus,x5
    800003e0:	12000073          	sfence.vma
    800003e4:	000802b7          	lui	x5,0x80
    800003e8:	0952829b          	addiw	x5,x5,149 # 80095 <SID_26_pm_different_tags_same_address_stack+0xf095>
    800003ec:	00c29293          	slli	x5,x5,0xc
    800003f0:	3300006f          	j	80000720 <syscalls__ret_from_os_fn>

00000000800003f4 <syscalls__os_fn_f0001003>:
    800003f4:	000802b7          	lui	x5,0x80
    800003f8:	1152829b          	addiw	x5,x5,277 # 80115 <SID_26_pm_different_tags_same_address_stack+0xf115>
    800003fc:	00c29293          	slli	x5,x5,0xc
    80000400:	3200006f          	j	80000720 <syscalls__ret_from_os_fn>

0000000080000404 <syscalls__os_fn_f0001004>:
    80000404:	000022b7          	lui	x5,0x2
    80000408:	8002829b          	addiw	x5,x5,-2048 # 1800 <FS_RANDOMIZATION+0x179c>
    8000040c:	3002b073          	csrc	mstatus,x5
    80000410:	00000293          	li	x5,0
    80000414:	3002a073          	csrs	mstatus,x5
    80000418:	0010029b          	addiw	x5,x0,1
    8000041c:	02729293          	slli	x5,x5,0x27
    80000420:	3002b073          	csrc	mstatus,x5
    80000424:	17823283          	ld	x5,376(x4) # 178 <FS_RANDOMIZATION+0x114>
    80000428:	2f80006f          	j	80000720 <syscalls__ret_from_os_fn>

000000008000042c <syscalls__os_fn_f0001005>:
    8000042c:	000022b7          	lui	x5,0x2
    80000430:	8002829b          	addiw	x5,x5,-2048 # 1800 <FS_RANDOMIZATION+0x179c>
    80000434:	3002b073          	csrc	mstatus,x5
    80000438:	000022b7          	lui	x5,0x2
    8000043c:	8002829b          	addiw	x5,x5,-2048 # 1800 <FS_RANDOMIZATION+0x179c>
    80000440:	3002a073          	csrs	mstatus,x5
    80000444:	0010029b          	addiw	x5,x0,1
    80000448:	02729293          	slli	x5,x5,0x27
    8000044c:	3002b073          	csrc	mstatus,x5
    80000450:	000802b7          	lui	x5,0x80
    80000454:	2152829b          	addiw	x5,x5,533 # 80215 <SID_26_pm_different_tags_same_address_stack+0xf215>
    80000458:	00c29293          	slli	x5,x5,0xc
    8000045c:	2c40006f          	j	80000720 <syscalls__ret_from_os_fn>

0000000080000460 <syscalls__os_fn_f0001006>:
    80000460:	000022b7          	lui	x5,0x2
    80000464:	8002829b          	addiw	x5,x5,-2048 # 1800 <FS_RANDOMIZATION+0x179c>
    80000468:	3002b073          	csrc	mstatus,x5
    8000046c:	000012b7          	lui	x5,0x1
    80000470:	8002829b          	addiw	x5,x5,-2048 # 800 <FS_RANDOMIZATION+0x79c>
    80000474:	3002a073          	csrs	mstatus,x5
    80000478:	0010029b          	addiw	x5,x0,1
    8000047c:	02729293          	slli	x5,x5,0x27
    80000480:	3002b073          	csrc	mstatus,x5
    80000484:	12000073          	sfence.vma
    80000488:	000402b7          	lui	x5,0x40
    8000048c:	10b2829b          	addiw	x5,x5,267 # 4010b <_all_interrupts+0x3d661>
    80000490:	00d29293          	slli	x5,x5,0xd
    80000494:	28c0006f          	j	80000720 <syscalls__ret_from_os_fn>

0000000080000498 <syscalls__os_fn_f0001007>:
    80000498:	007d2fb7          	lui	x31,0x7d2
    8000049c:	8edf8f9b          	addiw	x31,x31,-1811 # 7d18ed <mem1+0x6188ed>
    800004a0:	00df9f93          	slli	x31,x31,0xd
    800004a4:	9e1f8f93          	addi	x31,x31,-1567
    800004a8:	00df9f93          	slli	x31,x31,0xd
    800004ac:	0b0f8f93          	addi	x31,x31,176
    800004b0:	000fbf83          	ld	x31,0(x31)
    800004b4:	007d22b7          	lui	x5,0x7d2
    800004b8:	8ed2829b          	addiw	x5,x5,-1811 # 7d18ed <mem1+0x6188ed>
    800004bc:	00d29293          	slli	x5,x5,0xd
    800004c0:	9e128293          	addi	x5,x5,-1567
    800004c4:	00d29293          	slli	x5,x5,0xd
    800004c8:	0b828293          	addi	x5,x5,184
    800004cc:	0002b283          	ld	x5,0(x5)
    800004d0:	007d2e37          	lui	x28,0x7d2
    800004d4:	8ede0e1b          	addiw	x28,x28,-1811 # 7d18ed <mem1+0x6188ed>
    800004d8:	00de1e13          	slli	x28,x28,0xd
    800004dc:	9e1e0e13          	addi	x28,x28,-1567
    800004e0:	00de1e13          	slli	x28,x28,0xd
    800004e4:	0c0e0e13          	addi	x28,x28,192
    800004e8:	000e3e03          	ld	x28,0(x28)

00000000800004ec <syscalls__pte_walk_check_glevel_without_gstage_read>:
    800004ec:	fff00f93          	li	x31,-1
    800004f0:	0ffe1063          	bne	x28,x31,800005d0 <syscalls__pte_walk_fail_read>
    800004f4:	18002373          	csrr	x6,satp
    800004f8:	03c35e93          	srli	x29,x6,0x3c
    800004fc:	01431313          	slli	x6,x6,0x14
    80000500:	01435313          	srli	x6,x6,0x14
    80000504:	00c31313          	slli	x6,x6,0xc
    80000508:	ff8e8e93          	addi	x29,x29,-8
    8000050c:	003e9f13          	slli	x30,x29,0x3
    80000510:	01df0eb3          	add	x29,x30,x29
    80000514:	01ee8e93          	addi	x29,x29,30
    80000518:	00000f13          	li	x30,0

000000008000051c <syscalls__pte_walk_loop_read>:
    8000051c:	007d2fb7          	lui	x31,0x7d2
    80000520:	8edf8f9b          	addiw	x31,x31,-1811 # 7d18ed <mem1+0x6188ed>
    80000524:	00df9f93          	slli	x31,x31,0xd
    80000528:	9e1f8f93          	addi	x31,x31,-1567
    8000052c:	00df9f93          	slli	x31,x31,0xd
    80000530:	0b0f8f93          	addi	x31,x31,176
    80000534:	000fbf83          	ld	x31,0(x31)
    80000538:	01dfdfb3          	srl	x31,x31,x29
    8000053c:	1fffff93          	andi	x31,x31,511
    80000540:	003f9f93          	slli	x31,x31,0x3
    80000544:	01f30333          	add	x6,x6,x31
    80000548:	005f0e63          	beq	x30,x5,80000564 <syscalls__pte_walk_done_read>
    8000054c:	00033f83          	ld	x31,0(x6)
    80000550:	00afdf93          	srli	x31,x31,0xa
    80000554:	00cf9313          	slli	x6,x31,0xc
    80000558:	001f0f13          	addi	x30,x30,1
    8000055c:	ff7e8e93          	addi	x29,x29,-9
    80000560:	fbdff06f          	j	8000051c <syscalls__pte_walk_loop_read>

0000000080000564 <syscalls__pte_walk_done_read>:
    80000564:	fff00f93          	li	x31,-1
    80000568:	05fe0a63          	beq	x28,x31,800005bc <syscalls__pte_walk_final_read>

000000008000056c <syscalls__pte_walk_gstage_read>:
    8000056c:	007d2fb7          	lui	x31,0x7d2
    80000570:	8edf8f9b          	addiw	x31,x31,-1811 # 7d18ed <mem1+0x6188ed>
    80000574:	00df9f93          	slli	x31,x31,0xd
    80000578:	9e1f8f93          	addi	x31,x31,-1567
    8000057c:	00df9f93          	slli	x31,x31,0xd
    80000580:	0b0f8f93          	addi	x31,x31,176
    80000584:	006fb023          	sd	x6,0(x31)
    80000588:	000e0293          	mv	x5,x28
    8000058c:	fff00e13          	li	x28,-1
    80000590:	68002373          	csrr	x6,hgatp
    80000594:	03c35e93          	srli	x29,x6,0x3c
    80000598:	01431313          	slli	x6,x6,0x14
    8000059c:	01435313          	srli	x6,x6,0x14
    800005a0:	00c31313          	slli	x6,x6,0xc
    800005a4:	ff8e8e93          	addi	x29,x29,-8
    800005a8:	003e9f13          	slli	x30,x29,0x3
    800005ac:	01df0eb3          	add	x29,x30,x29
    800005b0:	01ee8e93          	addi	x29,x29,30
    800005b4:	00000f13          	li	x30,0
    800005b8:	f65ff06f          	j	8000051c <syscalls__pte_walk_loop_read>

00000000800005bc <syscalls__pte_walk_final_read>:
    800005bc:	00033383          	ld	x7,0(x6)
    800005c0:	341022f3          	csrr	x5,mepc
    800005c4:	00428293          	addi	x5,x5,4
    800005c8:	16523c23          	sd	x5,376(x4) # 178 <FS_RANDOMIZATION+0x114>
    800005cc:	e39ff06f          	j	80000404 <syscalls__os_fn_f0001004>

00000000800005d0 <syscalls__pte_walk_fail_read>:
    800005d0:	4540006f          	j	80000a24 <test_failed>

00000000800005d4 <syscalls__os_fn_f0001008>:
    800005d4:	007d2fb7          	lui	x31,0x7d2
    800005d8:	8edf8f9b          	addiw	x31,x31,-1811 # 7d18ed <mem1+0x6188ed>
    800005dc:	00df9f93          	slli	x31,x31,0xd
    800005e0:	9e1f8f93          	addi	x31,x31,-1567
    800005e4:	00df9f93          	slli	x31,x31,0xd
    800005e8:	0b0f8f93          	addi	x31,x31,176
    800005ec:	000fbf83          	ld	x31,0(x31)
    800005f0:	007d22b7          	lui	x5,0x7d2
    800005f4:	8ed2829b          	addiw	x5,x5,-1811 # 7d18ed <mem1+0x6188ed>
    800005f8:	00d29293          	slli	x5,x5,0xd
    800005fc:	9e128293          	addi	x5,x5,-1567
    80000600:	00d29293          	slli	x5,x5,0xd
    80000604:	0b828293          	addi	x5,x5,184
    80000608:	0002b283          	ld	x5,0(x5)
    8000060c:	007d2e37          	lui	x28,0x7d2
    80000610:	8ede0e1b          	addiw	x28,x28,-1811 # 7d18ed <mem1+0x6188ed>
    80000614:	00de1e13          	slli	x28,x28,0xd
    80000618:	9e1e0e13          	addi	x28,x28,-1567
    8000061c:	00de1e13          	slli	x28,x28,0xd
    80000620:	0c0e0e13          	addi	x28,x28,192
    80000624:	000e3e03          	ld	x28,0(x28)

0000000080000628 <syscalls__pte_walk_check_glevel_without_gstage_write>:
    80000628:	fff00f93          	li	x31,-1
    8000062c:	0ffe1063          	bne	x28,x31,8000070c <syscalls__pte_walk_fail_write>
    80000630:	18002373          	csrr	x6,satp
    80000634:	03c35e93          	srli	x29,x6,0x3c
    80000638:	01431313          	slli	x6,x6,0x14
    8000063c:	01435313          	srli	x6,x6,0x14
    80000640:	00c31313          	slli	x6,x6,0xc
    80000644:	ff8e8e93          	addi	x29,x29,-8
    80000648:	003e9f13          	slli	x30,x29,0x3
    8000064c:	01df0eb3          	add	x29,x30,x29
    80000650:	01ee8e93          	addi	x29,x29,30
    80000654:	00000f13          	li	x30,0

0000000080000658 <syscalls__pte_walk_loop_write>:
    80000658:	007d2fb7          	lui	x31,0x7d2
    8000065c:	8edf8f9b          	addiw	x31,x31,-1811 # 7d18ed <mem1+0x6188ed>
    80000660:	00df9f93          	slli	x31,x31,0xd
    80000664:	9e1f8f93          	addi	x31,x31,-1567
    80000668:	00df9f93          	slli	x31,x31,0xd
    8000066c:	0b0f8f93          	addi	x31,x31,176
    80000670:	000fbf83          	ld	x31,0(x31)
    80000674:	01dfdfb3          	srl	x31,x31,x29
    80000678:	1fffff93          	andi	x31,x31,511
    8000067c:	003f9f93          	slli	x31,x31,0x3
    80000680:	01f30333          	add	x6,x6,x31
    80000684:	005f0e63          	beq	x30,x5,800006a0 <syscalls__pte_walk_done_write>
    80000688:	00033f83          	ld	x31,0(x6)
    8000068c:	00afdf93          	srli	x31,x31,0xa
    80000690:	00cf9313          	slli	x6,x31,0xc
    80000694:	001f0f13          	addi	x30,x30,1
    80000698:	ff7e8e93          	addi	x29,x29,-9
    8000069c:	fbdff06f          	j	80000658 <syscalls__pte_walk_loop_write>

00000000800006a0 <syscalls__pte_walk_done_write>:
    800006a0:	fff00f93          	li	x31,-1
    800006a4:	05fe0a63          	beq	x28,x31,800006f8 <syscalls__pte_walk_final_write>

00000000800006a8 <syscalls__pte_walk_gstage_write>:
    800006a8:	007d2fb7          	lui	x31,0x7d2
    800006ac:	8edf8f9b          	addiw	x31,x31,-1811 # 7d18ed <mem1+0x6188ed>
    800006b0:	00df9f93          	slli	x31,x31,0xd
    800006b4:	9e1f8f93          	addi	x31,x31,-1567
    800006b8:	00df9f93          	slli	x31,x31,0xd
    800006bc:	0b0f8f93          	addi	x31,x31,176
    800006c0:	006fb023          	sd	x6,0(x31)
    800006c4:	000e0293          	mv	x5,x28
    800006c8:	fff00e13          	li	x28,-1
    800006cc:	68002373          	csrr	x6,hgatp
    800006d0:	03c35e93          	srli	x29,x6,0x3c
    800006d4:	01431313          	slli	x6,x6,0x14
    800006d8:	01435313          	srli	x6,x6,0x14
    800006dc:	00c31313          	slli	x6,x6,0xc
    800006e0:	ff8e8e93          	addi	x29,x29,-8
    800006e4:	003e9f13          	slli	x30,x29,0x3
    800006e8:	01df0eb3          	add	x29,x30,x29
    800006ec:	01ee8e93          	addi	x29,x29,30
    800006f0:	00000f13          	li	x30,0
    800006f4:	f65ff06f          	j	80000658 <syscalls__pte_walk_loop_write>

00000000800006f8 <syscalls__pte_walk_final_write>:
    800006f8:	00733023          	sd	x7,0(x6)
    800006fc:	341022f3          	csrr	x5,mepc
    80000700:	00428293          	addi	x5,x5,4
    80000704:	16523c23          	sd	x5,376(x4) # 178 <FS_RANDOMIZATION+0x114>
    80000708:	cfdff06f          	j	80000404 <syscalls__os_fn_f0001004>

000000008000070c <syscalls__pte_walk_fail_write>:
    8000070c:	3180006f          	j	80000a24 <test_failed>

0000000080000710 <syscalls__os_get_hart_context>:
    80000710:	14002573          	csrr	x10,sscratch
    80000714:	341022f3          	csrr	x5,mepc
    80000718:	00428293          	addi	x5,x5,4
    8000071c:	0040006f          	j	80000720 <syscalls__ret_from_os_fn>

0000000080000720 <syscalls__ret_from_os_fn>:
    80000720:	34102373          	csrr	x6,mepc
    80000724:	00430313          	addi	x6,x6,4
    80000728:	16623c23          	sd	x6,376(x4) # 178 <FS_RANDOMIZATION+0x114>
    8000072c:	34129073          	csrw	mepc,x5
    80000730:	fff00f93          	li	x31,-1
    80000734:	2a40006f          	j	800009d8 <trap_handler_m__skip_xepc_write>

0000000080000738 <trap_handler_m__invalid_interrupt>:
    80000738:	2ec0006f          	j	80000a24 <test_failed>

000000008000073c <trap_handler_m__clear_all_interrupts>:
    8000073c:	34401073          	csrw	mip,x0
    80000740:	30200073          	mret

0000000080000744 <trap_handler_m___CLEAR_SSI>:
    80000744:	00200293          	li	x5,2
    80000748:	3442b073          	csrc	mip,x5
    8000074c:	30200073          	mret

0000000080000750 <trap_handler_m___CLEAR_MSI>:
    80000750:	00800293          	li	x5,8
    80000754:	3442b073          	csrc	mip,x5
    80000758:	30200073          	mret

000000008000075c <trap_handler_m___CLEAR_STI>:
    8000075c:	02000293          	li	x5,32
    80000760:	3442b073          	csrc	mip,x5
    80000764:	30200073          	mret

0000000080000768 <trap_handler_m___CLEAR_MTI>:
    80000768:	08000293          	li	x5,128
    8000076c:	3442b073          	csrc	mip,x5
    80000770:	30200073          	mret

0000000080000774 <trap_handler_m___CLEAR_SEI>:
    80000774:	20000293          	li	x5,512
    80000778:	3442b073          	csrc	mip,x5
    8000077c:	30200073          	mret

0000000080000780 <trap_handler_m___CLEAR_MEI>:
    80000780:	000012b7          	lui	x5,0x1
    80000784:	8002829b          	addiw	x5,x5,-2048 # 800 <FS_RANDOMIZATION+0x79c>
    80000788:	3442b073          	csrc	mip,x5
    8000078c:	30200073          	mret

0000000080000790 <trap_handler_m___CLEAR_COI>:
    80000790:	000022b7          	lui	x5,0x2
    80000794:	3442b073          	csrc	mip,x5
    80000798:	30200073          	mret

000000008000079c <trap_handler_m__clear_highest_priority_interrupt>:
    8000079c:	344022f3          	csrr	x5,mip
    800007a0:	40500333          	neg	x6,x5
    800007a4:	0062f2b3          	and	x5,x5,x6
    800007a8:	3442b073          	csrc	mip,x5
    800007ac:	30200073          	mret

00000000800007b0 <trap_handler_m__trap_entry>:
    800007b0:	0fc0006f          	j	800008ac <trap_handler_m__trap_handler>

00000000800007b4 <trap_handler_m__interrupt_vector_table>:
    800007b4:	f91ff06f          	j	80000744 <trap_handler_m___CLEAR_SSI>
    800007b8:	f81ff06f          	j	80000738 <trap_handler_m__invalid_interrupt>
    800007bc:	f95ff06f          	j	80000750 <trap_handler_m___CLEAR_MSI>
    800007c0:	f79ff06f          	j	80000738 <trap_handler_m__invalid_interrupt>
    800007c4:	f99ff06f          	j	8000075c <trap_handler_m___CLEAR_STI>
    800007c8:	f71ff06f          	j	80000738 <trap_handler_m__invalid_interrupt>
    800007cc:	f9dff06f          	j	80000768 <trap_handler_m___CLEAR_MTI>
    800007d0:	f69ff06f          	j	80000738 <trap_handler_m__invalid_interrupt>
    800007d4:	fa1ff06f          	j	80000774 <trap_handler_m___CLEAR_SEI>
    800007d8:	f61ff06f          	j	80000738 <trap_handler_m__invalid_interrupt>
    800007dc:	fa5ff06f          	j	80000780 <trap_handler_m___CLEAR_MEI>
    800007e0:	f59ff06f          	j	80000738 <trap_handler_m__invalid_interrupt>
    800007e4:	fadff06f          	j	80000790 <trap_handler_m___CLEAR_COI>
    800007e8:	f51ff06f          	j	80000738 <trap_handler_m__invalid_interrupt>
    800007ec:	f4dff06f          	j	80000738 <trap_handler_m__invalid_interrupt>
    800007f0:	fadff06f          	j	8000079c <trap_handler_m__clear_highest_priority_interrupt>
    800007f4:	fa9ff06f          	j	8000079c <trap_handler_m__clear_highest_priority_interrupt>
    800007f8:	fa5ff06f          	j	8000079c <trap_handler_m__clear_highest_priority_interrupt>
    800007fc:	fa1ff06f          	j	8000079c <trap_handler_m__clear_highest_priority_interrupt>
    80000800:	f9dff06f          	j	8000079c <trap_handler_m__clear_highest_priority_interrupt>
    80000804:	f99ff06f          	j	8000079c <trap_handler_m__clear_highest_priority_interrupt>
    80000808:	f95ff06f          	j	8000079c <trap_handler_m__clear_highest_priority_interrupt>
    8000080c:	f91ff06f          	j	8000079c <trap_handler_m__clear_highest_priority_interrupt>
    80000810:	f8dff06f          	j	8000079c <trap_handler_m__clear_highest_priority_interrupt>
    80000814:	f89ff06f          	j	8000079c <trap_handler_m__clear_highest_priority_interrupt>
    80000818:	f85ff06f          	j	8000079c <trap_handler_m__clear_highest_priority_interrupt>
    8000081c:	f81ff06f          	j	8000079c <trap_handler_m__clear_highest_priority_interrupt>
    80000820:	f7dff06f          	j	8000079c <trap_handler_m__clear_highest_priority_interrupt>
    80000824:	f79ff06f          	j	8000079c <trap_handler_m__clear_highest_priority_interrupt>
    80000828:	f75ff06f          	j	8000079c <trap_handler_m__clear_highest_priority_interrupt>
    8000082c:	f71ff06f          	j	8000079c <trap_handler_m__clear_highest_priority_interrupt>
    80000830:	f6dff06f          	j	8000079c <trap_handler_m__clear_highest_priority_interrupt>
    80000834:	f69ff06f          	j	8000079c <trap_handler_m__clear_highest_priority_interrupt>
    80000838:	f65ff06f          	j	8000079c <trap_handler_m__clear_highest_priority_interrupt>
    8000083c:	f61ff06f          	j	8000079c <trap_handler_m__clear_highest_priority_interrupt>
    80000840:	f5dff06f          	j	8000079c <trap_handler_m__clear_highest_priority_interrupt>
    80000844:	f59ff06f          	j	8000079c <trap_handler_m__clear_highest_priority_interrupt>
    80000848:	f55ff06f          	j	8000079c <trap_handler_m__clear_highest_priority_interrupt>
    8000084c:	f51ff06f          	j	8000079c <trap_handler_m__clear_highest_priority_interrupt>
    80000850:	f4dff06f          	j	8000079c <trap_handler_m__clear_highest_priority_interrupt>
    80000854:	f49ff06f          	j	8000079c <trap_handler_m__clear_highest_priority_interrupt>
    80000858:	f45ff06f          	j	8000079c <trap_handler_m__clear_highest_priority_interrupt>
    8000085c:	f41ff06f          	j	8000079c <trap_handler_m__clear_highest_priority_interrupt>
    80000860:	f3dff06f          	j	8000079c <trap_handler_m__clear_highest_priority_interrupt>
    80000864:	f39ff06f          	j	8000079c <trap_handler_m__clear_highest_priority_interrupt>
    80000868:	f35ff06f          	j	8000079c <trap_handler_m__clear_highest_priority_interrupt>
    8000086c:	f31ff06f          	j	8000079c <trap_handler_m__clear_highest_priority_interrupt>
    80000870:	f2dff06f          	j	8000079c <trap_handler_m__clear_highest_priority_interrupt>
    80000874:	f29ff06f          	j	8000079c <trap_handler_m__clear_highest_priority_interrupt>
    80000878:	f25ff06f          	j	8000079c <trap_handler_m__clear_highest_priority_interrupt>
    8000087c:	f21ff06f          	j	8000079c <trap_handler_m__clear_highest_priority_interrupt>
    80000880:	f1dff06f          	j	8000079c <trap_handler_m__clear_highest_priority_interrupt>
    80000884:	f19ff06f          	j	8000079c <trap_handler_m__clear_highest_priority_interrupt>
    80000888:	f15ff06f          	j	8000079c <trap_handler_m__clear_highest_priority_interrupt>
    8000088c:	f11ff06f          	j	8000079c <trap_handler_m__clear_highest_priority_interrupt>
    80000890:	f0dff06f          	j	8000079c <trap_handler_m__clear_highest_priority_interrupt>
    80000894:	f09ff06f          	j	8000079c <trap_handler_m__clear_highest_priority_interrupt>
    80000898:	f05ff06f          	j	8000079c <trap_handler_m__clear_highest_priority_interrupt>
    8000089c:	f01ff06f          	j	8000079c <trap_handler_m__clear_highest_priority_interrupt>
    800008a0:	efdff06f          	j	8000079c <trap_handler_m__clear_highest_priority_interrupt>
    800008a4:	ef9ff06f          	j	8000079c <trap_handler_m__clear_highest_priority_interrupt>
    800008a8:	ef5ff06f          	j	8000079c <trap_handler_m__clear_highest_priority_interrupt>

00000000800008ac <trap_handler_m__trap_handler>:
    800008ac:	342022f3          	csrr	x5,mcause
    800008b0:	fff0031b          	addiw	x6,x0,-1
    800008b4:	03f31313          	slli	x6,x6,0x3f
    800008b8:	00537333          	and	x6,x6,x5
    800008bc:	02030263          	beqz	x6,800008e0 <trap_handler_m__exception_path>

00000000800008c0 <trap_handler_m__interrupt_handler>:
    800008c0:	fff0031b          	addiw	x6,x0,-1
    800008c4:	03f31313          	slli	x6,x6,0x3f
    800008c8:	0062c2b3          	xor	x5,x5,x6
    800008cc:	00000317          	auipc	x6,0x0
    800008d0:	ee430313          	addi	x6,x6,-284 # 800007b0 <trap_handler_m__trap_entry>
    800008d4:	00229293          	slli	x5,x5,0x2
    800008d8:	005302b3          	add	x5,x6,x5
    800008dc:	00028067          	jr	x5 # 2000 <FS_RANDOMIZATION+0x1f9c>

00000000800008e0 <trap_handler_m__exception_path>:
    800008e0:	34021273          	csrrw	x4,mscratch,x4
    800008e4:	00000297          	auipc	x5,0x0
    800008e8:	10828293          	addi	x5,x5,264 # 800009ec <trap_handler_m__trap_panic>
    800008ec:	30529073          	csrw	mtvec,x5
    800008f0:	0040006f          	j	800008f4 <trap_handler_m__excp_entry>

00000000800008f4 <trap_handler_m__excp_entry>:
    800008f4:	34202373          	csrr	x6,mcause
    800008f8:	00800293          	li	x5,8
    800008fc:	00534863          	blt	x6,x5,8000090c <trap_handler_m__check_exception_label>
    80000900:	00b00293          	li	x5,11
    80000904:	0062c463          	blt	x5,x6,8000090c <trap_handler_m__check_exception_label>
    80000908:	969ff06f          	j	80000270 <syscalls__syscall_check_schedule_next_test>

000000008000090c <trap_handler_m__check_exception_label>:
    8000090c:	04623c23          	sd	x6,88(x4) # 58 <XLEN+0x18>
    80000910:	341022f3          	csrr	x5,mepc
    80000914:	02523423          	sd	x5,40(x4) # 28 <SECURE_ACCESS_PROBABILITY+0xa>
    80000918:	01820283          	lb	x5,24(x4) # 18 <STORE_GUEST_PAGE_FAULT+0x1>
    8000091c:	00029863          	bnez	x5,8000092c <trap_handler_m__check_excp>
    80000920:	00128293          	addi	x5,x5,1
    80000924:	00520c23          	sb	x5,24(x4) # 18 <STORE_GUEST_PAGE_FAULT+0x1>
    80000928:	0980006f          	j	800009c0 <trap_handler_m__ecall_from_machine>

000000008000092c <trap_handler_m__check_excp>:
    8000092c:	06820293          	addi	x5,x4,104 # 68 <FS_RANDOMIZATION+0x4>
    80000930:	0802b2af          	amoswap.d	x5,x0,(x5)
    80000934:	00028663          	beqz	x5,80000940 <trap_handler_m__skip_mode_check>
    80000938:	00100393          	li	x7,1
    8000093c:	0e729463          	bne	x5,x7,80000a24 <test_failed>

0000000080000940 <trap_handler_m__skip_mode_check>:
    80000940:	05020293          	addi	x5,x4,80 # 50 <XLEN+0x10>
    80000944:	0802b2af          	amoswap.d	x5,x0,(x5)
    80000948:	0c531e63          	bne	x6,x5,80000a24 <test_failed>
    8000094c:	03820293          	addi	x5,x4,56 # 38 <SECURE_ACCESS_PROBABILITY+0x1a>
    80000950:	0802b2af          	amoswap.d	x5,x0,(x5)
    80000954:	06029463          	bnez	x5,800009bc <trap_handler_m__skip_gva_check>
    80000958:	02020313          	addi	x6,x4,32 # 20 <SECURE_ACCESS_PROBABILITY+0x2>
    8000095c:	0803332f          	amoswap.d	x6,x0,(x6)
    80000960:	02820293          	addi	x5,x4,40 # 28 <SECURE_ACCESS_PROBABILITY+0xa>
    80000964:	0802b2af          	amoswap.d	x5,x0,(x5)
    80000968:	0a531e63          	bne	x6,x5,80000a24 <test_failed>
    8000096c:	04020293          	addi	x5,x4,64 # 40 <XLEN>
    80000970:	0802b2af          	amoswap.d	x5,x0,(x5)
    80000974:	00028663          	beqz	x5,80000980 <trap_handler_m__skip_nonzero_tval_check>

0000000080000978 <trap_handler_m__nonzero_tval_check>:
    80000978:	34302373          	csrr	x6,mtval
    8000097c:	0a531463          	bne	x6,x5,80000a24 <test_failed>

0000000080000980 <trap_handler_m__skip_nonzero_tval_check>:
    80000980:	04820293          	addi	x5,x4,72 # 48 <XLEN+0x8>
    80000984:	0802b2af          	amoswap.d	x5,x0,(x5)
    80000988:	00028663          	beqz	x5,80000994 <trap_handler_m__skip_nonzero_htval_check>

000000008000098c <trap_handler_m__nonzero_htval_check>:
    8000098c:	34b02373          	csrr	x6,0x34b
    80000990:	08531a63          	bne	x6,x5,80000a24 <test_failed>

0000000080000994 <trap_handler_m__skip_nonzero_htval_check>:
    80000994:	06020293          	addi	x5,x4,96 # 60 <XLEN+0x20>
    80000998:	0802b2af          	amoswap.d	x5,x0,(x5)
    8000099c:	02028063          	beqz	x5,800009bc <trap_handler_m__skip_gva_check>

00000000800009a0 <trap_handler_m__gva_check>:
    800009a0:	30002373          	csrr	x6,mstatus
    800009a4:	02635313          	srli	x6,x6,0x26
    800009a8:	00137313          	andi	x6,x6,1
    800009ac:	06030c63          	beqz	x6,80000a24 <test_failed>
    800009b0:	0010031b          	addiw	x6,x0,1
    800009b4:	02631313          	slli	x6,x6,0x26
    800009b8:	30033073          	csrc	mstatus,x6

00000000800009bc <trap_handler_m__skip_gva_check>:
    800009bc:	0040006f          	j	800009c0 <trap_handler_m__ecall_from_machine>

00000000800009c0 <trap_handler_m__ecall_from_machine>:
    800009c0:	03020293          	addi	x5,x4,48 # 30 <SECURE_ACCESS_PROBABILITY+0x12>
    800009c4:	0802b2af          	amoswap.d	x5,x0,(x5)
    800009c8:	07020313          	addi	x6,x4,112 # 70 <FS_RANDOMIZATION+0xc>
    800009cc:	0803332f          	amoswap.d	x6,x0,(x6)
    800009d0:	00031463          	bnez	x6,800009d8 <trap_handler_m__skip_xepc_write>
    800009d4:	34129073          	csrw	mepc,x5

00000000800009d8 <trap_handler_m__skip_xepc_write>:
    800009d8:	00000317          	auipc	x6,0x0
    800009dc:	dd830313          	addi	x6,x6,-552 # 800007b0 <trap_handler_m__trap_entry>
    800009e0:	30531073          	csrw	mtvec,x6
    800009e4:	34021273          	csrrw	x4,mscratch,x4
    800009e8:	30200073          	mret

00000000800009ec <trap_handler_m__trap_panic>:
    800009ec:	00000193          	li	x3,0
    800009f0:	3200006f          	j	80000d10 <eot__end_test>

00000000800009f4 <enter_scheduler>:
    800009f4:	0002f337          	lui	x6,0x2f
    800009f8:	ab73031b          	addiw	x6,x6,-1353 # 2eab7 <_all_interrupts+0x2c00d>
    800009fc:	00e31313          	slli	x6,x6,0xe
    80000a00:	0de30313          	addi	x6,x6,222
    80000a04:	02628063          	beq	x5,x6,80000a24 <test_failed>
    80000a08:	00000513          	li	x10,0
    80000a0c:	030000ef          	jal	80000a3c <rvcp_print_test_result>
    80000a10:	3840006f          	j	80000d94 <scheduler__dispatch>

0000000080000a14 <test_passed>:
    80000a14:	34021273          	csrrw	x4,mscratch,x4
    80000a18:	00000513          	li	x10,0
    80000a1c:	020000ef          	jal	80000a3c <rvcp_print_test_result>
    80000a20:	3740006f          	j	80000d94 <scheduler__dispatch>

0000000080000a24 <test_failed>:
    80000a24:	34021273          	csrrw	x4,mscratch,x4
    80000a28:	00300193          	li	x3,3
    80000a2c:	2e40006f          	j	80000d10 <eot__end_test>

0000000080000a30 <os_end_test>:
    80000a30:	34021273          	csrrw	x4,mscratch,x4
    80000a34:	00100193          	li	x3,1
    80000a38:	2d80006f          	j	80000d10 <eot__end_test>

0000000080000a3c <rvcp_print_test_result>:
    80000a3c:	00050e13          	mv	x28,x10
    80000a40:	19823283          	ld	x5,408(x4) # 198 <FS_RANDOMIZATION+0x134>
    80000a44:	0010031b          	addiw	x6,x0,1
    80000a48:	02031313          	slli	x6,x6,0x20
    80000a4c:	ffe30313          	addi	x6,x6,-2
    80000a50:	22628863          	beq	x5,x6,80000c80 <rvcp_print_test_result+0x244>
    80000a54:	0010031b          	addiw	x6,x0,1
    80000a58:	02031313          	slli	x6,x6,0x20
    80000a5c:	fff30313          	addi	x6,x6,-1
    80000a60:	22628063          	beq	x5,x6,80000c80 <rvcp_print_test_result+0x244>
    80000a64:	2002ce63          	bltz	x5,80000c80 <rvcp_print_test_result+0x244>
    80000a68:	00000317          	auipc	x6,0x0
    80000a6c:	51430313          	addi	x6,x6,1300 # 80000f7c <dtest_descriptor_table>
    80000a70:	00329393          	slli	x7,x5,0x3
    80000a74:	00730333          	add	x6,x6,x7
    80000a78:	00033e83          	ld	x29,0(x6)
    80000a7c:	007d2f37          	lui	x30,0x7d2
    80000a80:	8edf0f1b          	addiw	x30,x30,-1811 # 7d18ed <mem1+0x6188ed>
    80000a84:	00df1f13          	slli	x30,x30,0xd
    80000a88:	9e1f0f13          	addi	x30,x30,-1567
    80000a8c:	00df1f13          	slli	x30,x30,0xd
    80000a90:	030f0f13          	addi	x30,x30,48
    80000a94:	000f4283          	lbu	x5,0(x30)
    80000a98:	02028663          	beqz	x5,80000ac4 <rvcp_print_test_result+0x88>
    80000a9c:	1010031b          	addiw	x6,x0,257
    80000aa0:	03031313          	slli	x6,x6,0x30
    80000aa4:	005362b3          	or	x5,x6,x5
    80000aa8:	effff317          	auipc	x6,0xeffff
    80000aac:	55830313          	addi	x6,x6,1368 # 70000000 <tohost>
    80000ab0:	00033383          	ld	x7,0(x6)
    80000ab4:	fe039ee3          	bnez	x7,80000ab0 <rvcp_print_test_result+0x74>
    80000ab8:	00533023          	sd	x5,0(x6)
    80000abc:	001f0f13          	addi	x30,x30,1
    80000ac0:	fd5ff06f          	j	80000a94 <rvcp_print_test_result+0x58>
    80000ac4:	007d2f37          	lui	x30,0x7d2
    80000ac8:	8edf0f1b          	addiw	x30,x30,-1811 # 7d18ed <mem1+0x6188ed>
    80000acc:	00df1f13          	slli	x30,x30,0xd
    80000ad0:	9e1f0f13          	addi	x30,x30,-1567
    80000ad4:	00df1f13          	slli	x30,x30,0xd
    80000ad8:	041f0f13          	addi	x30,x30,65
    80000adc:	000f4283          	lbu	x5,0(x30)
    80000ae0:	02028663          	beqz	x5,80000b0c <rvcp_print_test_result+0xd0>
    80000ae4:	1010031b          	addiw	x6,x0,257
    80000ae8:	03031313          	slli	x6,x6,0x30
    80000aec:	005362b3          	or	x5,x6,x5
    80000af0:	effff317          	auipc	x6,0xeffff
    80000af4:	51030313          	addi	x6,x6,1296 # 70000000 <tohost>
    80000af8:	00033383          	ld	x7,0(x6)
    80000afc:	fe039ee3          	bnez	x7,80000af8 <rvcp_print_test_result+0xbc>
    80000b00:	00533023          	sd	x5,0(x6)
    80000b04:	001f0f13          	addi	x30,x30,1
    80000b08:	fd5ff06f          	j	80000adc <rvcp_print_test_result+0xa0>
    80000b0c:	007d2f37          	lui	x30,0x7d2
    80000b10:	8edf0f1b          	addiw	x30,x30,-1811 # 7d18ed <mem1+0x6188ed>
    80000b14:	00df1f13          	slli	x30,x30,0xd
    80000b18:	9e1f0f13          	addi	x30,x30,-1567
    80000b1c:	00df1f13          	slli	x30,x30,0xd
    80000b20:	059f0f13          	addi	x30,x30,89
    80000b24:	000f4283          	lbu	x5,0(x30)
    80000b28:	02028663          	beqz	x5,80000b54 <rvcp_print_test_result+0x118>
    80000b2c:	1010031b          	addiw	x6,x0,257
    80000b30:	03031313          	slli	x6,x6,0x30
    80000b34:	005362b3          	or	x5,x6,x5
    80000b38:	effff317          	auipc	x6,0xeffff
    80000b3c:	4c830313          	addi	x6,x6,1224 # 70000000 <tohost>
    80000b40:	00033383          	ld	x7,0(x6)
    80000b44:	fe039ee3          	bnez	x7,80000b40 <rvcp_print_test_result+0x104>
    80000b48:	00533023          	sd	x5,0(x6)
    80000b4c:	001f0f13          	addi	x30,x30,1
    80000b50:	fd5ff06f          	j	80000b24 <rvcp_print_test_result+0xe8>
    80000b54:	000e8f13          	mv	x30,x29
    80000b58:	000f4283          	lbu	x5,0(x30)
    80000b5c:	02028663          	beqz	x5,80000b88 <rvcp_print_test_result+0x14c>
    80000b60:	1010031b          	addiw	x6,x0,257
    80000b64:	03031313          	slli	x6,x6,0x30
    80000b68:	005362b3          	or	x5,x6,x5
    80000b6c:	effff317          	auipc	x6,0xeffff
    80000b70:	49430313          	addi	x6,x6,1172 # 70000000 <tohost>
    80000b74:	00033383          	ld	x7,0(x6)
    80000b78:	fe039ee3          	bnez	x7,80000b74 <rvcp_print_test_result+0x138>
    80000b7c:	00533023          	sd	x5,0(x6)
    80000b80:	001f0f13          	addi	x30,x30,1
    80000b84:	fd5ff06f          	j	80000b58 <rvcp_print_test_result+0x11c>
    80000b88:	007d2f37          	lui	x30,0x7d2
    80000b8c:	8edf0f1b          	addiw	x30,x30,-1811 # 7d18ed <mem1+0x6188ed>
    80000b90:	00df1f13          	slli	x30,x30,0xd
    80000b94:	9e1f0f13          	addi	x30,x30,-1567
    80000b98:	00df1f13          	slli	x30,x30,0xd
    80000b9c:	059f0f13          	addi	x30,x30,89
    80000ba0:	000f4283          	lbu	x5,0(x30)
    80000ba4:	02028663          	beqz	x5,80000bd0 <rvcp_print_test_result+0x194>
    80000ba8:	1010031b          	addiw	x6,x0,257
    80000bac:	03031313          	slli	x6,x6,0x30
    80000bb0:	005362b3          	or	x5,x6,x5
    80000bb4:	effff317          	auipc	x6,0xeffff
    80000bb8:	44c30313          	addi	x6,x6,1100 # 70000000 <tohost>
    80000bbc:	00033383          	ld	x7,0(x6)
    80000bc0:	fe039ee3          	bnez	x7,80000bbc <rvcp_print_test_result+0x180>
    80000bc4:	00533023          	sd	x5,0(x6)
    80000bc8:	001f0f13          	addi	x30,x30,1
    80000bcc:	fd5ff06f          	j	80000ba0 <rvcp_print_test_result+0x164>
    80000bd0:	020e1063          	bnez	x28,80000bf0 <rvcp_print_test_result+0x1b4>
    80000bd4:	007d2f37          	lui	x30,0x7d2
    80000bd8:	8edf0f1b          	addiw	x30,x30,-1811 # 7d18ed <mem1+0x6188ed>
    80000bdc:	00df1f13          	slli	x30,x30,0xd
    80000be0:	9e1f0f13          	addi	x30,x30,-1567
    80000be4:	00df1f13          	slli	x30,x30,0xd
    80000be8:	04bf0f13          	addi	x30,x30,75
    80000bec:	01c0006f          	j	80000c08 <rvcp_print_test_result+0x1cc>
    80000bf0:	007d2f37          	lui	x30,0x7d2
    80000bf4:	8edf0f1b          	addiw	x30,x30,-1811 # 7d18ed <mem1+0x6188ed>
    80000bf8:	00df1f13          	slli	x30,x30,0xd
    80000bfc:	9e1f0f13          	addi	x30,x30,-1567
    80000c00:	00df1f13          	slli	x30,x30,0xd
    80000c04:	052f0f13          	addi	x30,x30,82
    80000c08:	000f4283          	lbu	x5,0(x30)
    80000c0c:	02028663          	beqz	x5,80000c38 <rvcp_print_test_result+0x1fc>
    80000c10:	1010031b          	addiw	x6,x0,257
    80000c14:	03031313          	slli	x6,x6,0x30
    80000c18:	005362b3          	or	x5,x6,x5
    80000c1c:	effff317          	auipc	x6,0xeffff
    80000c20:	3e430313          	addi	x6,x6,996 # 70000000 <tohost>
    80000c24:	00033383          	ld	x7,0(x6)
    80000c28:	fe039ee3          	bnez	x7,80000c24 <rvcp_print_test_result+0x1e8>
    80000c2c:	00533023          	sd	x5,0(x6)
    80000c30:	001f0f13          	addi	x30,x30,1
    80000c34:	fd5ff06f          	j	80000c08 <rvcp_print_test_result+0x1cc>
    80000c38:	007d2f37          	lui	x30,0x7d2
    80000c3c:	8edf0f1b          	addiw	x30,x30,-1811 # 7d18ed <mem1+0x6188ed>
    80000c40:	00df1f13          	slli	x30,x30,0xd
    80000c44:	9e1f0f13          	addi	x30,x30,-1567
    80000c48:	00df1f13          	slli	x30,x30,0xd
    80000c4c:	05bf0f13          	addi	x30,x30,91
    80000c50:	000f4283          	lbu	x5,0(x30)
    80000c54:	02028663          	beqz	x5,80000c80 <rvcp_print_test_result+0x244>
    80000c58:	1010031b          	addiw	x6,x0,257
    80000c5c:	03031313          	slli	x6,x6,0x30
    80000c60:	005362b3          	or	x5,x6,x5
    80000c64:	effff317          	auipc	x6,0xeffff
    80000c68:	39c30313          	addi	x6,x6,924 # 70000000 <tohost>
    80000c6c:	00033383          	ld	x7,0(x6)
    80000c70:	fe039ee3          	bnez	x7,80000c6c <rvcp_print_test_result+0x230>
    80000c74:	00533023          	sd	x5,0(x6)
    80000c78:	001f0f13          	addi	x30,x30,1
    80000c7c:	fd5ff06f          	j	80000c50 <rvcp_print_test_result+0x214>
    80000c80:	00008067          	ret

0000000080000c84 <os_rng_orig>:
    80000c84:	f14023f3          	csrr	x7,mhartid
    80000c88:	00068313          	mv	x6,x13
    80000c8c:	026383b3          	mul	x7,x7,x6
    80000c90:	00058313          	mv	x6,x11
    80000c94:	00730333          	add	x6,x6,x7
    80000c98:	00033283          	ld	x5,0(x6)
    80000c9c:	01529313          	slli	x6,x5,0x15
    80000ca0:	0062c2b3          	xor	x5,x5,x6
    80000ca4:	0232d313          	srli	x6,x5,0x23
    80000ca8:	0062c2b3          	xor	x5,x5,x6
    80000cac:	00429313          	slli	x6,x5,0x4
    80000cb0:	0062c2b3          	xor	x5,x5,x6
    80000cb4:	00058313          	mv	x6,x11
    80000cb8:	00730333          	add	x6,x6,x7
    80000cbc:	00533023          	sd	x5,0(x6)
    80000cc0:	00060313          	mv	x6,x12
    80000cc4:	0262f2b3          	remu	x5,x5,x6
    80000cc8:	00028513          	mv	x10,x5
    80000ccc:	00008067          	ret
    80000cd0:	02a00513          	li	x10,42
    80000cd4:	001965b7          	lui	x11,0x196
    80000cd8:	60d5859b          	addiw	x11,x11,1549 # 19660d <SID_24_pm_instruction_set_stack+0xa160d>
    80000cdc:	3c6ef637          	lui	x12,0x3c6ef
    80000ce0:	35f6061b          	addiw	x12,x12,863 # 3c6ef35f <saplic_255+0x1bdf035f>
    80000ce4:	02200693          	li	x13,34
    80000ce8:	02b50533          	mul	x10,x10,x11
    80000cec:	00c50533          	add	x10,x10,x12
    80000cf0:	02d56533          	rem	x10,x10,x13
    80000cf4:	00b00593          	li	x11,11
    80000cf8:	02b56533          	rem	x10,x10,x11
    80000cfc:	00008067          	ret

0000000080000d00 <tohost_mutex>:
	...

0000000080000d08 <tohost_addr_mem>:
    80000d08:	0000                	.insn	2, 0x0000
    80000d0a:	7000                	.insn	2, 0x7000
    80000d0c:	0000                	.insn	2, 0x0000
	...

0000000080000d10 <eot__end_test>:
    80000d10:	00100293          	li	x5,1
    80000d14:	00328463          	beq	x5,x3,80000d1c <eot__passed>
    80000d18:	01c0006f          	j	80000d34 <eot__failed>

0000000080000d1c <eot__passed>:
    80000d1c:	0ff0000f          	fence
    80000d20:	00000297          	auipc	x5,0x0
    80000d24:	fe82b283          	ld	x5,-24(x5) # 80000d08 <tohost_addr_mem>
    80000d28:	00100313          	li	x6,1
    80000d2c:	0062a023          	sw	x6,0(x5)
    80000d30:	0240006f          	j	80000d54 <eot__halt>

0000000080000d34 <eot__failed>:
    80000d34:	00100513          	li	x10,1
    80000d38:	d05ff0ef          	jal	80000a3c <rvcp_print_test_result>
    80000d3c:	0ff0000f          	fence
    80000d40:	00000297          	auipc	x5,0x0
    80000d44:	fc82b283          	ld	x5,-56(x5) # 80000d08 <tohost_addr_mem>
    80000d48:	00300313          	li	x6,3
    80000d4c:	0062a023          	sw	x6,0(x5)
    80000d50:	0040006f          	j	80000d54 <eot__halt>

0000000080000d54 <eot__halt>:
    80000d54:	10500073          	wfi
    80000d58:	ffdff06f          	j	80000d54 <eot__halt>

0000000080000d5c <scheduler__init>:
    80000d5c:	00000297          	auipc	x5,0x0
    80000d60:	14828293          	addi	x5,x5,328 # 80000ea4 <scheduler__panic>
    80000d64:	305292f3          	csrrw	x5,mtvec,x5
    80000d68:	18523023          	sd	x5,384(x4) # 180 <FS_RANDOMIZATION+0x11c>
    80000d6c:	01600293          	li	x5,22
    80000d70:	1a523023          	sd	x5,416(x4) # 1a0 <FS_RANDOMIZATION+0x13c>
    80000d74:	0010029b          	addiw	x5,x0,1
    80000d78:	02029293          	slli	x5,x5,0x20
    80000d7c:	ffe28293          	addi	x5,x5,-2
    80000d80:	18523c23          	sd	x5,408(x4) # 198 <FS_RANDOMIZATION+0x134>
    80000d84:	00000317          	auipc	x6,0x0
    80000d88:	35830313          	addi	x6,x6,856 # 800010dc <scheduler__test_setup_ptr>
    80000d8c:	00033303          	ld	x6,0(x6)
    80000d90:	0ec0006f          	j	80000e7c <scheduler__execute_test>

0000000080000d94 <scheduler__dispatch>:
    80000d94:	00000297          	auipc	x5,0x0
    80000d98:	11028293          	addi	x5,x5,272 # 80000ea4 <scheduler__panic>
    80000d9c:	305292f3          	csrrw	x5,mtvec,x5
    80000da0:	18523023          	sd	x5,384(x4) # 180 <FS_RANDOMIZATION+0x11c>

0000000080000da4 <scheduler__csr_read_randomization>:
    80000da4:	00000e17          	auipc	x28,0x0
    80000da8:	1c0e0e13          	addi	x28,x28,448 # 80000f64 <fs_rr_table>
    80000dac:	18823e83          	ld	x29,392(x4) # 188 <FS_RANDOMIZATION+0x124>
    80000db0:	002e9f13          	slli	x30,x29,0x2
    80000db4:	01ee0f33          	add	x30,x28,x30
    80000db8:	000f2f03          	lw	x30,0(x30)
    80000dbc:	00df1f13          	slli	x30,x30,0xd
    80000dc0:	00006e37          	lui	x28,0x6
    80000dc4:	100e3073          	csrc	sstatus,x28
    80000dc8:	100f2073          	csrs	sstatus,x30
    80000dcc:	001e8e93          	addi	x29,x29,1
    80000dd0:	00300e13          	li	x28,3
    80000dd4:	01cec463          	blt	x29,x28,80000ddc <scheduler__csr_read_randomization+0x38>
    80000dd8:	00000e93          	li	x29,0
    80000ddc:	19d23423          	sd	x29,392(x4) # 188 <FS_RANDOMIZATION+0x124>
    80000de0:	00000e17          	auipc	x28,0x0
    80000de4:	190e0e13          	addi	x28,x28,400 # 80000f70 <vs_rr_table>
    80000de8:	19023e83          	ld	x29,400(x4) # 190 <FS_RANDOMIZATION+0x12c>
    80000dec:	002e9f13          	slli	x30,x29,0x2
    80000df0:	01ee0f33          	add	x30,x28,x30
    80000df4:	000f2f03          	lw	x30,0(x30)
    80000df8:	009f1f13          	slli	x30,x30,0x9
    80000dfc:	60000e13          	li	x28,1536
    80000e00:	100e3073          	csrc	sstatus,x28
    80000e04:	100f2073          	csrs	sstatus,x30
    80000e08:	001e8e93          	addi	x29,x29,1
    80000e0c:	00300e13          	li	x28,3
    80000e10:	01cec463          	blt	x29,x28,80000e18 <scheduler__csr_read_randomization+0x74>
    80000e14:	00000e93          	li	x29,0
    80000e18:	19d23823          	sd	x29,400(x4) # 190 <FS_RANDOMIZATION+0x12c>
    80000e1c:	106022f3          	csrr	x5,scounteren
    80000e20:	105022f3          	csrr	x5,stvec
    80000e24:	341022f3          	csrr	x5,mepc
    80000e28:	143022f3          	csrr	x5,stval
    80000e2c:	106022f3          	csrr	x5,scounteren
    80000e30:	144022f3          	csrr	x5,sip
    80000e34:	10a022f3          	csrr	x5,0x10a
    80000e38:	141022f3          	csrr	x5,sepc
    80000e3c:	141022f3          	csrr	x5,sepc

0000000080000e40 <scheduler__load_num_runs>:
    80000e40:	1a023303          	ld	x6,416(x4) # 1a0 <FS_RANDOMIZATION+0x13c>
    80000e44:	04030c63          	beqz	x6,80000e9c <scheduler__finished>

0000000080000e48 <scheduler__decrement_num_runs>:
    80000e48:	fff30393          	addi	x7,x6,-1
    80000e4c:	1a723023          	sd	x7,416(x4) # 1a0 <FS_RANDOMIZATION+0x13c>
    80000e50:	00000e17          	auipc	x28,0x0
    80000e54:	230e0e13          	addi	x28,x28,560 # 80001080 <dtest_index_map>
    80000e58:	00239e93          	slli	x29,x7,0x2
    80000e5c:	01de0e33          	add	x28,x28,x29
    80000e60:	000e2e03          	lw	x28,0(x28)
    80000e64:	19c23c23          	sd	x28,408(x4) # 198 <FS_RANDOMIZATION+0x134>

0000000080000e68 <scheduler__calc_test_pointer>:
    80000e68:	00339293          	slli	x5,x7,0x3

0000000080000e6c <scheduler__load_test_addr>:
    80000e6c:	00000317          	auipc	x6,0x0
    80000e70:	04830313          	addi	x6,x6,72 # 80000eb4 <os_test_sequence>
    80000e74:	006282b3          	add	x5,x5,x6
    80000e78:	0002b303          	ld	x6,0(x5)

0000000080000e7c <scheduler__execute_test>:
    80000e7c:	18023283          	ld	x5,384(x4) # 180 <FS_RANDOMIZATION+0x11c>
    80000e80:	30529073          	csrw	mtvec,x5
    80000e84:	34021273          	csrrw	x4,mscratch,x4
    80000e88:	00000213          	li	x4,0
    80000e8c:	14131073          	csrw	sepc,x6
    80000e90:	10000293          	li	x5,256
    80000e94:	1002b073          	csrc	sstatus,x5
    80000e98:	10200073          	sret

0000000080000e9c <scheduler__finished>:
    80000e9c:	00100193          	li	x3,1
    80000ea0:	e71ff06f          	j	80000d10 <eot__end_test>

0000000080000ea4 <scheduler__panic>:
    80000ea4:	00000193          	li	x3,0
    80000ea8:	e69ff06f          	j	80000d10 <eot__end_test>

0000000080000eac <num_runs>:
    80000eac:	0016                	.insn	2, 0x0016
    80000eae:	0000                	.insn	2, 0x0000
    80000eb0:	0000                	.insn	2, 0x0000
	...

0000000080000eb4 <os_test_sequence>:
    80000eb4:	5720                	.insn	2, 0x5720
    80000eb6:	8001                	.insn	2, 0x8001
    80000eb8:	0000                	.insn	2, 0x0000
    80000eba:	0000                	.insn	2, 0x0000
    80000ebc:	55ec                	.insn	2, 0x55ec
    80000ebe:	8001                	.insn	2, 0x8001
    80000ec0:	0000                	.insn	2, 0x0000
    80000ec2:	0000                	.insn	2, 0x0000
    80000ec4:	5520                	.insn	2, 0x5520
    80000ec6:	8001                	.insn	2, 0x8001
    80000ec8:	0000                	.insn	2, 0x0000
    80000eca:	0000                	.insn	2, 0x0000
    80000ecc:	55ec                	.insn	2, 0x55ec
    80000ece:	8001                	.insn	2, 0x8001
    80000ed0:	0000                	.insn	2, 0x0000
    80000ed2:	0000                	.insn	2, 0x0000
    80000ed4:	5388                	.insn	2, 0x5388
    80000ed6:	8001                	.insn	2, 0x8001
    80000ed8:	0000                	.insn	2, 0x0000
    80000eda:	0000                	.insn	2, 0x0000
    80000edc:	51d4                	.insn	2, 0x51d4
    80000ede:	8001                	.insn	2, 0x8001
    80000ee0:	0000                	.insn	2, 0x0000
    80000ee2:	0000                	.insn	2, 0x0000
    80000ee4:	5388                	.insn	2, 0x5388
    80000ee6:	8001                	.insn	2, 0x8001
    80000ee8:	0000                	.insn	2, 0x0000
    80000eea:	0000                	.insn	2, 0x0000
    80000eec:	5090                	.insn	2, 0x5090
    80000eee:	8001                	.insn	2, 0x8001
    80000ef0:	0000                	.insn	2, 0x0000
    80000ef2:	0000                	.insn	2, 0x0000
    80000ef4:	5454                	.insn	2, 0x5454
    80000ef6:	8001                	.insn	2, 0x8001
    80000ef8:	0000                	.insn	2, 0x0000
    80000efa:	0000                	.insn	2, 0x0000
    80000efc:	5090                	.insn	2, 0x5090
    80000efe:	8001                	.insn	2, 0x8001
    80000f00:	0000                	.insn	2, 0x0000
    80000f02:	0000                	.insn	2, 0x0000
    80000f04:	5520                	.insn	2, 0x5520
    80000f06:	8001                	.insn	2, 0x8001
    80000f08:	0000                	.insn	2, 0x0000
    80000f0a:	0000                	.insn	2, 0x0000
    80000f0c:	52cc                	.insn	2, 0x52cc
    80000f0e:	8001                	.insn	2, 0x8001
    80000f10:	0000                	.insn	2, 0x0000
    80000f12:	0000                	.insn	2, 0x0000
    80000f14:	5388                	.insn	2, 0x5388
    80000f16:	8001                	.insn	2, 0x8001
    80000f18:	0000                	.insn	2, 0x0000
    80000f1a:	0000                	.insn	2, 0x0000
    80000f1c:	5454                	.insn	2, 0x5454
    80000f1e:	8001                	.insn	2, 0x8001
    80000f20:	0000                	.insn	2, 0x0000
    80000f22:	0000                	.insn	2, 0x0000
    80000f24:	52cc                	.insn	2, 0x52cc
    80000f26:	8001                	.insn	2, 0x8001
    80000f28:	0000                	.insn	2, 0x0000
    80000f2a:	0000                	.insn	2, 0x0000
    80000f2c:	5454                	.insn	2, 0x5454
    80000f2e:	8001                	.insn	2, 0x8001
    80000f30:	0000                	.insn	2, 0x0000
    80000f32:	0000                	.insn	2, 0x0000
    80000f34:	5520                	.insn	2, 0x5520
    80000f36:	8001                	.insn	2, 0x8001
    80000f38:	0000                	.insn	2, 0x0000
    80000f3a:	0000                	.insn	2, 0x0000
    80000f3c:	51d4                	.insn	2, 0x51d4
    80000f3e:	8001                	.insn	2, 0x8001
    80000f40:	0000                	.insn	2, 0x0000
    80000f42:	0000                	.insn	2, 0x0000
    80000f44:	52cc                	.insn	2, 0x52cc
    80000f46:	8001                	.insn	2, 0x8001
    80000f48:	0000                	.insn	2, 0x0000
    80000f4a:	0000                	.insn	2, 0x0000
    80000f4c:	5090                	.insn	2, 0x5090
    80000f4e:	8001                	.insn	2, 0x8001
    80000f50:	0000                	.insn	2, 0x0000
    80000f52:	0000                	.insn	2, 0x0000
    80000f54:	55ec                	.insn	2, 0x55ec
    80000f56:	8001                	.insn	2, 0x8001
    80000f58:	0000                	.insn	2, 0x0000
    80000f5a:	0000                	.insn	2, 0x0000
    80000f5c:	51d4                	.insn	2, 0x51d4
    80000f5e:	8001                	.insn	2, 0x8001
    80000f60:	0000                	.insn	2, 0x0000
	...

0000000080000f64 <fs_rr_table>:
    80000f64:	0001                	.insn	2, 0x0001
    80000f66:	0000                	.insn	2, 0x0000
    80000f68:	0002                	.insn	2, 0x0002
    80000f6a:	0000                	.insn	2, 0x0000
    80000f6c:	00000003          	lb	x0,0(x0) # 0 <ALL_4KB_PAGES>

0000000080000f70 <vs_rr_table>:
    80000f70:	0001                	.insn	2, 0x0001
    80000f72:	0000                	.insn	2, 0x0000
    80000f74:	0002                	.insn	2, 0x0002
    80000f76:	0000                	.insn	2, 0x0000
    80000f78:	00000003          	lb	x0,0(x0) # 0 <ALL_4KB_PAGES>

0000000080000f7c <dtest_descriptor_table>:
    80000f7c:	0fb4                	.insn	2, 0x0fb4
    80000f7e:	8000                	.insn	2, 0x8000
    80000f80:	0000                	.insn	2, 0x0000
    80000f82:	0000                	.insn	2, 0x0000
    80000f84:	0fd1                	.insn	2, 0x0fd1
    80000f86:	8000                	.insn	2, 0x8000
    80000f88:	0000                	.insn	2, 0x0000
    80000f8a:	0000                	.insn	2, 0x0000
    80000f8c:	0fed                	.insn	2, 0x0fed
    80000f8e:	8000                	.insn	2, 0x8000
    80000f90:	0000                	.insn	2, 0x0000
    80000f92:	0000                	.insn	2, 0x0000
    80000f94:	80001007          	flh	f0,-2048(x0) # fffffffffffff800 <__section_data_1+0x1a09472800>
    80000f98:	0000                	.insn	2, 0x0000
    80000f9a:	0000                	.insn	2, 0x0000
    80000f9c:	80001023          	sh	x0,-2048(x0) # fffffffffffff800 <__section_data_1+0x1a09472800>
    80000fa0:	0000                	.insn	2, 0x0000
    80000fa2:	0000                	.insn	2, 0x0000
    80000fa4:	1049                	.insn	2, 0x1049
    80000fa6:	8000                	.insn	2, 0x8000
    80000fa8:	0000                	.insn	2, 0x0000
    80000faa:	0000                	.insn	2, 0x0000
    80000fac:	80001063          	bnez	x0,7fffffac <SID_25_pm_misaligned_access_stack+0x820fac>
    80000fb0:	0000                	.insn	2, 0x0000
	...

0000000080000fb4 <dtest_name_0>:
    80000fb4:	5f444953          	.insn	4, 0x5f444953
    80000fb8:	3530                	.insn	2, 0x3530
    80000fba:	705f 5f6d 6964      	.insn	6, 0x69645f6d705f
    80000fc0:	6c626173          	csrrsi	x2,0x6c6,4
    80000fc4:	6465                	.insn	2, 0x6465
    80000fc6:	755f 765f 5f75      	.insn	6, 0x5f75765f755f
    80000fcc:	6f6d                	.insn	2, 0x6f6d
    80000fce:	6564                	.insn	2, 0x6564
	...

0000000080000fd1 <dtest_name_1>:
    80000fd1:	5f444953          	.insn	4, 0x5f444953
    80000fd5:	3331                	.insn	2, 0x3331
    80000fd7:	705f 5f6d 6e65      	.insn	6, 0x6e655f6d705f
    80000fdd:	6261                	.insn	2, 0x6261
    80000fdf:	656c                	.insn	2, 0x656c
    80000fe1:	5f64                	.insn	2, 0x5f64
    80000fe3:	5f75                	.insn	2, 0x5f75
    80000fe5:	7576                	.insn	2, 0x7576
    80000fe7:	6d5f 646f 0065      	.insn	6, 0x0065646f6d5f

0000000080000fed <dtest_name_2>:
    80000fed:	5f444953          	.insn	4, 0x5f444953
    80000ff1:	3432                	.insn	2, 0x3432
    80000ff3:	705f 5f6d 6e69      	.insn	6, 0x6e695f6d705f
    80000ff9:	75727473          	csrrci	x8,0x757,4
    80000ffd:	6f697463          	bgeu	x18,x22,800016e5 <scheduler__test_cleanup_ptr+0x601>
    80001001:	5f6e                	.insn	2, 0x5f6e
    80001003:	00746573          	csrrsi	x10,0x7,8

0000000080001007 <dtest_name_3>:
    80001007:	5f444953          	.insn	4, 0x5f444953
    8000100b:	3532                	.insn	2, 0x3532
    8000100d:	705f 5f6d 696d      	.insn	6, 0x696d5f6d705f
    80001013:	696c6173          	csrrsi	x2,0x696,24
    80001017:	64656e67          	.insn	4, 0x64656e67
    8000101b:	615f 6363 7365      	.insn	6, 0x73656363615f
    80001021:	          	.insn	4, 0x49530073

0000000080001023 <dtest_name_4>:
    80001023:	5f444953          	.insn	4, 0x5f444953
    80001027:	3632                	.insn	2, 0x3632
    80001029:	705f 5f6d 6964      	.insn	6, 0x69645f6d705f
    8000102f:	6666                	.insn	2, 0x6666
    80001031:	7265                	.insn	2, 0x7265
    80001033:	6e65                	.insn	2, 0x6e65
    80001035:	5f74                	.insn	2, 0x5f74
    80001037:	6174                	.insn	2, 0x6174
    80001039:	735f7367          	.insn	4, 0x735f7367
    8000103d:	6d61                	.insn	2, 0x6d61
    8000103f:	5f65                	.insn	2, 0x5f65
    80001041:	6461                	.insn	2, 0x6461
    80001043:	7264                	.insn	2, 0x7264
    80001045:	7365                	.insn	2, 0x7365
    80001047:	          	.insn	4, 0x49530073

0000000080001049 <dtest_name_5>:
    80001049:	5f444953          	.insn	4, 0x5f444953
    8000104d:	3732                	.insn	2, 0x3732
    8000104f:	705f 5f6d 6d69      	.insn	6, 0x6d695f6d705f
    80001055:	6c70                	.insn	2, 0x6c70
    80001057:	6369                	.insn	2, 0x6369
    80001059:	7469                	.insn	2, 0x7469
    8000105b:	615f 6363 7365      	.insn	6, 0x73656363615f
    80001061:	          	.insn	4, 0x49530073

0000000080001063 <dtest_name_6>:
    80001063:	5f444953          	.insn	4, 0x5f444953
    80001067:	3832                	.insn	2, 0x3832
    80001069:	705f 5f6d 6166      	.insn	6, 0x61665f6d705f
    8000106f:	6c75                	.insn	2, 0x6c75
    80001071:	7374                	.insn	2, 0x7374
    80001073:	745f 6172 5f70      	.insn	6, 0x5f706172745f
    80001079:	6176                	.insn	2, 0x6176
    8000107b:	756c                	.insn	2, 0x756c
    8000107d:	7365                	.insn	2, 0x7365
	...

0000000080001080 <dtest_index_map>:
    80001080:	ffff                	.insn	2, 0xffff
    80001082:	ffff                	.insn	2, 0xffff
    80001084:	0006                	.insn	2, 0x0006
    80001086:	0000                	.insn	2, 0x0000
    80001088:	0005                	.insn	2, 0x0005
    8000108a:	0000                	.insn	2, 0x0000
    8000108c:	0006                	.insn	2, 0x0006
    8000108e:	0000                	.insn	2, 0x0000
    80001090:	00000003          	lb	x0,0(x0) # 0 <ALL_4KB_PAGES>
    80001094:	0001                	.insn	2, 0x0001
    80001096:	0000                	.insn	2, 0x0000
    80001098:	00000003          	lb	x0,0(x0) # 0 <ALL_4KB_PAGES>
    8000109c:	0000                	.insn	2, 0x0000
    8000109e:	0000                	.insn	2, 0x0000
    800010a0:	0004                	.insn	2, 0x0004
    800010a2:	0000                	.insn	2, 0x0000
    800010a4:	0000                	.insn	2, 0x0000
    800010a6:	0000                	.insn	2, 0x0000
    800010a8:	0005                	.insn	2, 0x0005
    800010aa:	0000                	.insn	2, 0x0000
    800010ac:	0002                	.insn	2, 0x0002
    800010ae:	0000                	.insn	2, 0x0000
    800010b0:	00000003          	lb	x0,0(x0) # 0 <ALL_4KB_PAGES>
    800010b4:	0004                	.insn	2, 0x0004
    800010b6:	0000                	.insn	2, 0x0000
    800010b8:	0002                	.insn	2, 0x0002
    800010ba:	0000                	.insn	2, 0x0000
    800010bc:	0004                	.insn	2, 0x0004
    800010be:	0000                	.insn	2, 0x0000
    800010c0:	0005                	.insn	2, 0x0005
    800010c2:	0000                	.insn	2, 0x0000
    800010c4:	0001                	.insn	2, 0x0001
    800010c6:	0000                	.insn	2, 0x0000
    800010c8:	0002                	.insn	2, 0x0002
    800010ca:	0000                	.insn	2, 0x0000
    800010cc:	0000                	.insn	2, 0x0000
    800010ce:	0000                	.insn	2, 0x0000
    800010d0:	0006                	.insn	2, 0x0006
    800010d2:	0000                	.insn	2, 0x0000
    800010d4:	0001                	.insn	2, 0x0001
    800010d6:	0000                	.insn	2, 0x0000
    800010d8:	0000                	.insn	2, 0x0000
	...

00000000800010dc <scheduler__test_setup_ptr>:
    800010dc:	5080                	.insn	2, 0x5080
    800010de:	8001                	.insn	2, 0x8001
    800010e0:	0000                	.insn	2, 0x0000
	...

00000000800010e4 <scheduler__test_cleanup_ptr>:
    800010e4:	5720                	.insn	2, 0x5720
    800010e6:	8001                	.insn	2, 0x8001
    800010e8:	0000                	.insn	2, 0x0000
	...

Disassembly of section .runtime_s:

0000000080011000 <trap_handler_s__invalid_interrupt>:
    80011000:	1740006f          	j	80011174 <trap_handler_s__test_failed>

0000000080011004 <trap_handler_s__clear_all_interrupts>:
    80011004:	14401073          	csrw	sip,x0
    80011008:	10200073          	sret

000000008001100c <trap_handler_s___CLEAR_SSI>:
    8001100c:	00200293          	li	x5,2
    80011010:	1442b073          	csrc	sip,x5
    80011014:	10200073          	sret

0000000080011018 <trap_handler_s___CLEAR_MSI>:
    80011018:	00800293          	li	x5,8
    8001101c:	1442b073          	csrc	sip,x5
    80011020:	10200073          	sret

0000000080011024 <trap_handler_s___CLEAR_STI>:
    80011024:	02000293          	li	x5,32
    80011028:	1442b073          	csrc	sip,x5
    8001102c:	10200073          	sret

0000000080011030 <trap_handler_s___CLEAR_MTI>:
    80011030:	08000293          	li	x5,128
    80011034:	1442b073          	csrc	sip,x5
    80011038:	10200073          	sret

000000008001103c <trap_handler_s___CLEAR_SEI>:
    8001103c:	20000293          	li	x5,512
    80011040:	1442b073          	csrc	sip,x5
    80011044:	10200073          	sret

0000000080011048 <trap_handler_s___CLEAR_MEI>:
    80011048:	000012b7          	lui	x5,0x1
    8001104c:	8002829b          	addiw	x5,x5,-2048 # 800 <FS_RANDOMIZATION+0x79c>
    80011050:	1442b073          	csrc	sip,x5
    80011054:	10200073          	sret

0000000080011058 <trap_handler_s___CLEAR_COI>:
    80011058:	000022b7          	lui	x5,0x2
    8001105c:	1442b073          	csrc	sip,x5
    80011060:	10200073          	sret

0000000080011064 <trap_handler_s__clear_highest_priority_interrupt>:
    80011064:	144022f3          	csrr	x5,sip
    80011068:	40500333          	neg	x6,x5
    8001106c:	0062f2b3          	and	x5,x5,x6
    80011070:	1442b073          	csrc	sip,x5
    80011074:	10200073          	sret

0000000080011078 <trap_handler_s__trap_entry>:
    80011078:	10c0006f          	j	80011184 <trap_handler_s__trap_handler>

000000008001107c <trap_handler_s__interrupt_vector_table>:
    8001107c:	f91ff06f          	j	8001100c <trap_handler_s___CLEAR_SSI>
    80011080:	f81ff06f          	j	80011000 <trap_handler_s__invalid_interrupt>
    80011084:	f95ff06f          	j	80011018 <trap_handler_s___CLEAR_MSI>
    80011088:	f79ff06f          	j	80011000 <trap_handler_s__invalid_interrupt>
    8001108c:	f99ff06f          	j	80011024 <trap_handler_s___CLEAR_STI>
    80011090:	f71ff06f          	j	80011000 <trap_handler_s__invalid_interrupt>
    80011094:	f9dff06f          	j	80011030 <trap_handler_s___CLEAR_MTI>
    80011098:	f69ff06f          	j	80011000 <trap_handler_s__invalid_interrupt>
    8001109c:	fa1ff06f          	j	8001103c <trap_handler_s___CLEAR_SEI>
    800110a0:	f61ff06f          	j	80011000 <trap_handler_s__invalid_interrupt>
    800110a4:	fa5ff06f          	j	80011048 <trap_handler_s___CLEAR_MEI>
    800110a8:	f59ff06f          	j	80011000 <trap_handler_s__invalid_interrupt>
    800110ac:	fadff06f          	j	80011058 <trap_handler_s___CLEAR_COI>
    800110b0:	f51ff06f          	j	80011000 <trap_handler_s__invalid_interrupt>
    800110b4:	f4dff06f          	j	80011000 <trap_handler_s__invalid_interrupt>
    800110b8:	fadff06f          	j	80011064 <trap_handler_s__clear_highest_priority_interrupt>
    800110bc:	fa9ff06f          	j	80011064 <trap_handler_s__clear_highest_priority_interrupt>
    800110c0:	fa5ff06f          	j	80011064 <trap_handler_s__clear_highest_priority_interrupt>
    800110c4:	fa1ff06f          	j	80011064 <trap_handler_s__clear_highest_priority_interrupt>
    800110c8:	f9dff06f          	j	80011064 <trap_handler_s__clear_highest_priority_interrupt>
    800110cc:	f99ff06f          	j	80011064 <trap_handler_s__clear_highest_priority_interrupt>
    800110d0:	f95ff06f          	j	80011064 <trap_handler_s__clear_highest_priority_interrupt>
    800110d4:	f91ff06f          	j	80011064 <trap_handler_s__clear_highest_priority_interrupt>
    800110d8:	f8dff06f          	j	80011064 <trap_handler_s__clear_highest_priority_interrupt>
    800110dc:	f89ff06f          	j	80011064 <trap_handler_s__clear_highest_priority_interrupt>
    800110e0:	f85ff06f          	j	80011064 <trap_handler_s__clear_highest_priority_interrupt>
    800110e4:	f81ff06f          	j	80011064 <trap_handler_s__clear_highest_priority_interrupt>
    800110e8:	f7dff06f          	j	80011064 <trap_handler_s__clear_highest_priority_interrupt>
    800110ec:	f79ff06f          	j	80011064 <trap_handler_s__clear_highest_priority_interrupt>
    800110f0:	f75ff06f          	j	80011064 <trap_handler_s__clear_highest_priority_interrupt>
    800110f4:	f71ff06f          	j	80011064 <trap_handler_s__clear_highest_priority_interrupt>
    800110f8:	f6dff06f          	j	80011064 <trap_handler_s__clear_highest_priority_interrupt>
    800110fc:	f69ff06f          	j	80011064 <trap_handler_s__clear_highest_priority_interrupt>
    80011100:	f65ff06f          	j	80011064 <trap_handler_s__clear_highest_priority_interrupt>
    80011104:	f61ff06f          	j	80011064 <trap_handler_s__clear_highest_priority_interrupt>
    80011108:	f5dff06f          	j	80011064 <trap_handler_s__clear_highest_priority_interrupt>
    8001110c:	f59ff06f          	j	80011064 <trap_handler_s__clear_highest_priority_interrupt>
    80011110:	f55ff06f          	j	80011064 <trap_handler_s__clear_highest_priority_interrupt>
    80011114:	f51ff06f          	j	80011064 <trap_handler_s__clear_highest_priority_interrupt>
    80011118:	f4dff06f          	j	80011064 <trap_handler_s__clear_highest_priority_interrupt>
    8001111c:	f49ff06f          	j	80011064 <trap_handler_s__clear_highest_priority_interrupt>
    80011120:	f45ff06f          	j	80011064 <trap_handler_s__clear_highest_priority_interrupt>
    80011124:	f41ff06f          	j	80011064 <trap_handler_s__clear_highest_priority_interrupt>
    80011128:	f3dff06f          	j	80011064 <trap_handler_s__clear_highest_priority_interrupt>
    8001112c:	f39ff06f          	j	80011064 <trap_handler_s__clear_highest_priority_interrupt>
    80011130:	f35ff06f          	j	80011064 <trap_handler_s__clear_highest_priority_interrupt>
    80011134:	f31ff06f          	j	80011064 <trap_handler_s__clear_highest_priority_interrupt>
    80011138:	f2dff06f          	j	80011064 <trap_handler_s__clear_highest_priority_interrupt>
    8001113c:	f29ff06f          	j	80011064 <trap_handler_s__clear_highest_priority_interrupt>
    80011140:	f25ff06f          	j	80011064 <trap_handler_s__clear_highest_priority_interrupt>
    80011144:	f21ff06f          	j	80011064 <trap_handler_s__clear_highest_priority_interrupt>
    80011148:	f1dff06f          	j	80011064 <trap_handler_s__clear_highest_priority_interrupt>
    8001114c:	f19ff06f          	j	80011064 <trap_handler_s__clear_highest_priority_interrupt>
    80011150:	f15ff06f          	j	80011064 <trap_handler_s__clear_highest_priority_interrupt>
    80011154:	f11ff06f          	j	80011064 <trap_handler_s__clear_highest_priority_interrupt>
    80011158:	f0dff06f          	j	80011064 <trap_handler_s__clear_highest_priority_interrupt>
    8001115c:	f09ff06f          	j	80011064 <trap_handler_s__clear_highest_priority_interrupt>
    80011160:	f05ff06f          	j	80011064 <trap_handler_s__clear_highest_priority_interrupt>
    80011164:	f01ff06f          	j	80011064 <trap_handler_s__clear_highest_priority_interrupt>
    80011168:	efdff06f          	j	80011064 <trap_handler_s__clear_highest_priority_interrupt>
    8001116c:	ef9ff06f          	j	80011064 <trap_handler_s__clear_highest_priority_interrupt>
    80011170:	ef5ff06f          	j	80011064 <trap_handler_s__clear_highest_priority_interrupt>

0000000080011174 <trap_handler_s__test_failed>:
    80011174:	00f00f9b          	addiw	x31,x0,15
    80011178:	01cf9f93          	slli	x31,x31,0x1c
    8001117c:	002f8f93          	addi	x31,x31,2
    80011180:	00000073          	ecall

0000000080011184 <trap_handler_s__trap_handler>:
    80011184:	142022f3          	csrr	x5,scause
    80011188:	fff0031b          	addiw	x6,x0,-1
    8001118c:	03f31313          	slli	x6,x6,0x3f
    80011190:	00537333          	and	x6,x6,x5
    80011194:	02030263          	beqz	x6,800111b8 <trap_handler_s__exception_path>

0000000080011198 <trap_handler_s__interrupt_handler>:
    80011198:	fff0031b          	addiw	x6,x0,-1
    8001119c:	03f31313          	slli	x6,x6,0x3f
    800111a0:	0062c2b3          	xor	x5,x5,x6
    800111a4:	00000317          	auipc	x6,0x0
    800111a8:	ed430313          	addi	x6,x6,-300 # 80011078 <trap_handler_s__trap_entry>
    800111ac:	00229293          	slli	x5,x5,0x2
    800111b0:	005302b3          	add	x5,x6,x5
    800111b4:	00028067          	jr	x5 # 2000 <FS_RANDOMIZATION+0x1f9c>

00000000800111b8 <trap_handler_s__exception_path>:
    800111b8:	14021273          	csrrw	x4,sscratch,x4
    800111bc:	00000297          	auipc	x5,0x0
    800111c0:	0cc28293          	addi	x5,x5,204 # 80011288 <trap_handler_s__trap_panic>
    800111c4:	10529073          	csrw	stvec,x5
    800111c8:	0040006f          	j	800111cc <trap_handler_s__excp_entry>

00000000800111cc <trap_handler_s__excp_entry>:
    800111cc:	14202373          	csrr	x6,scause
    800111d0:	00800293          	li	x5,8
    800111d4:	00534863          	blt	x6,x5,800111e4 <trap_handler_s__check_exception_label>
    800111d8:	00b00293          	li	x5,11
    800111dc:	0062c463          	blt	x5,x6,800111e4 <trap_handler_s__check_exception_label>
    800111e0:	0a80006f          	j	80011288 <trap_handler_s__trap_panic>

00000000800111e4 <trap_handler_s__check_exception_label>:
    800111e4:	04623c23          	sd	x6,88(x4) # 58 <XLEN+0x18>
    800111e8:	141022f3          	csrr	x5,sepc
    800111ec:	02523423          	sd	x5,40(x4) # 28 <SECURE_ACCESS_PROBABILITY+0xa>
    800111f0:	01820283          	lb	x5,24(x4) # 18 <STORE_GUEST_PAGE_FAULT+0x1>
    800111f4:	00029863          	bnez	x5,80011204 <trap_handler_s__check_excp>
    800111f8:	00128293          	addi	x5,x5,1
    800111fc:	00520c23          	sb	x5,24(x4) # 18 <STORE_GUEST_PAGE_FAULT+0x1>
    80011200:	05c0006f          	j	8001125c <trap_handler_s__ecall_from_machine>

0000000080011204 <trap_handler_s__check_excp>:
    80011204:	06820293          	addi	x5,x4,104 # 68 <FS_RANDOMIZATION+0x4>
    80011208:	0802b2af          	amoswap.d	x5,x0,(x5)
    8001120c:	00028663          	beqz	x5,80011218 <trap_handler_s__skip_mode_check>
    80011210:	00300393          	li	x7,3
    80011214:	f67290e3          	bne	x5,x7,80011174 <trap_handler_s__test_failed>

0000000080011218 <trap_handler_s__skip_mode_check>:
    80011218:	05020293          	addi	x5,x4,80 # 50 <XLEN+0x10>
    8001121c:	0802b2af          	amoswap.d	x5,x0,(x5)
    80011220:	f4531ae3          	bne	x6,x5,80011174 <trap_handler_s__test_failed>
    80011224:	03820293          	addi	x5,x4,56 # 38 <SECURE_ACCESS_PROBABILITY+0x1a>
    80011228:	0802b2af          	amoswap.d	x5,x0,(x5)
    8001122c:	02029663          	bnez	x5,80011258 <trap_handler_s__skip_nonzero_tval_check>
    80011230:	02020313          	addi	x6,x4,32 # 20 <SECURE_ACCESS_PROBABILITY+0x2>
    80011234:	0803332f          	amoswap.d	x6,x0,(x6)
    80011238:	02820293          	addi	x5,x4,40 # 28 <SECURE_ACCESS_PROBABILITY+0xa>
    8001123c:	0802b2af          	amoswap.d	x5,x0,(x5)
    80011240:	f2531ae3          	bne	x6,x5,80011174 <trap_handler_s__test_failed>
    80011244:	04020293          	addi	x5,x4,64 # 40 <XLEN>
    80011248:	0802b2af          	amoswap.d	x5,x0,(x5)
    8001124c:	00028663          	beqz	x5,80011258 <trap_handler_s__skip_nonzero_tval_check>

0000000080011250 <trap_handler_s__nonzero_tval_check>:
    80011250:	14302373          	csrr	x6,stval
    80011254:	f25310e3          	bne	x6,x5,80011174 <trap_handler_s__test_failed>

0000000080011258 <trap_handler_s__skip_nonzero_tval_check>:
    80011258:	0040006f          	j	8001125c <trap_handler_s__ecall_from_machine>

000000008001125c <trap_handler_s__ecall_from_machine>:
    8001125c:	03020293          	addi	x5,x4,48 # 30 <SECURE_ACCESS_PROBABILITY+0x12>
    80011260:	0802b2af          	amoswap.d	x5,x0,(x5)
    80011264:	07020313          	addi	x6,x4,112 # 70 <FS_RANDOMIZATION+0xc>
    80011268:	0803332f          	amoswap.d	x6,x0,(x6)
    8001126c:	00031463          	bnez	x6,80011274 <trap_handler_s__skip_xepc_write>
    80011270:	14129073          	csrw	sepc,x5

0000000080011274 <trap_handler_s__skip_xepc_write>:
    80011274:	00000317          	auipc	x6,0x0
    80011278:	e0430313          	addi	x6,x6,-508 # 80011078 <trap_handler_s__trap_entry>
    8001127c:	10531073          	csrw	stvec,x6
    80011280:	14021273          	csrrw	x4,sscratch,x4
    80011284:	10200073          	sret

0000000080011288 <trap_handler_s__trap_panic>:
    80011288:	00000193          	li	x3,0
    8001128c:	00f00f9b          	addiw	x31,x0,15
    80011290:	01cf9f93          	slli	x31,x31,0x1c
    80011294:	002f8f93          	addi	x31,x31,2
    80011298:	00000073          	ecall

Disassembly of section .code:

0000000080015050 <passed>:
    80015050:	00f00f9b          	addiw	x31,x0,15
    80015054:	01cf9f93          	slli	x31,x31,0x1c
    80015058:	001f8f93          	addi	x31,x31,1
    8001505c:	00000073          	ecall

0000000080015060 <failed>:
    80015060:	00f00f9b          	addiw	x31,x0,15
    80015064:	01cf9f93          	slli	x31,x31,0x1c
    80015068:	002f8f93          	addi	x31,x31,2
    8001506c:	00000073          	ecall

0000000080015070 <end_test>:
    80015070:	00f00f9b          	addiw	x31,x0,15
    80015074:	01cf9f93          	slli	x31,x31,0x1c
    80015078:	003f8f93          	addi	x31,x31,3
    8001507c:	00000073          	ecall

0000000080015080 <test_setup>:
    80015080:	00f00f9b          	addiw	x31,x0,15
    80015084:	01cf9f93          	slli	x31,x31,0x1c
    80015088:	001f8f93          	addi	x31,x31,1
    8001508c:	00000073          	ecall

0000000080015090 <SID_05_pm_disabled_u_vu_mode>:
    80015090:	002f5137          	lui	x2,0x2f5
    80015094:	e731011b          	addiw	x2,x2,-397 # 2f4e73 <mem1+0x13be73>
    80015098:	00d11113          	slli	x2,x2,0xd
    8001509c:	004ebfb7          	lui	x31,0x4eb
    800150a0:	1d9f8f9b          	addiw	x31,x31,473 # 4eb1d9 <mem1+0x3321d9>
    800150a4:	00ff9f93          	slli	x31,x31,0xf
    800150a8:	0a0f8f93          	addi	x31,x31,160
    800150ac:	00100f13          	li	x30,1
    800150b0:	01efb023          	sd	x30,0(x31)
    800150b4:	000f0fb7          	lui	x31,0xf0
    800150b8:	001f8f9b          	addiw	x31,x31,1 # f0001 <SID_26_pm_different_tags_same_address_stack+0x7f001>
    800150bc:	00cf9f93          	slli	x31,x31,0xc
    800150c0:	005f8f93          	addi	x31,x31,5
    800150c4:	00000073          	ecall
    800150c8:	00713023          	sd	x7,0(x2)
    800150cc:	7c90f137          	lui	x2,0x7c90f
    800150d0:	000012b7          	lui	x5,0x1
    800150d4:	00510133          	add	x2,x2,x5
    800150d8:	ff017113          	andi	x2,x2,-16
    800150dc:	0030039b          	addiw	x7,x0,3
    800150e0:	02039393          	slli	x7,x7,0x20
    800150e4:	10a3b3f3          	csrrc	x7,0x10a,x7
    800150e8:	00038b37          	lui	x22,0x38
    800150ec:	ab7b0b1b          	addiw	x22,x22,-1353 # 37ab7 <_all_interrupts+0x3500d>
    800150f0:	00eb1b13          	slli	x22,x22,0xe
    800150f4:	eefb0b13          	addi	x22,x22,-273
    800150f8:	01e8de37          	lui	x28,0x1e8d
    800150fc:	016e2023          	sw	x22,0(x28) # 1e8d000 <mem0>
    80015100:	01e8d9b7          	lui	x19,0x1e8d
    80015104:	fff0069b          	addiw	x13,x0,-1
    80015108:	03969693          	slli	x13,x13,0x39
    8001510c:	00d9c5b3          	xor	x11,x19,x13
    80015110:	0026b237          	lui	x4,0x26b
    80015114:	0df2021b          	addiw	x4,x4,223 # 26b0df <mem1+0xb20df>
    80015118:	00c21213          	slli	x4,x4,0xc
    8001511c:	00d00e13          	li	x28,13
    80015120:	05c23823          	sd	x28,80(x4) # 50 <XLEN+0x10>
    80015124:	00000e17          	auipc	x28,0x0
    80015128:	048e0e13          	addi	x28,x28,72 # 8001516c <fault_label_0>
    8001512c:	03c23023          	sd	x28,32(x4) # 20 <SECURE_ACCESS_PROBABILITY+0x2>
    80015130:	00000e13          	li	x28,0
    80015134:	05c23023          	sd	x28,64(x4) # 40 <XLEN>
    80015138:	00000e13          	li	x28,0
    8001513c:	05c23423          	sd	x28,72(x4) # 48 <XLEN+0x8>
    80015140:	00000e17          	auipc	x28,0x0
    80015144:	048e0e13          	addi	x28,x28,72 # 80015188 <excp_return_label_0>
    80015148:	03c23823          	sd	x28,48(x4) # 30 <SECURE_ACCESS_PROBABILITY+0x12>
    8001514c:	00000e13          	li	x28,0
    80015150:	03c23c23          	sd	x28,56(x4) # 38 <SECURE_ACCESS_PROBABILITY+0x1a>
    80015154:	00000e13          	li	x28,0
    80015158:	07c23023          	sd	x28,96(x4) # 60 <XLEN+0x20>
    8001515c:	00000e13          	li	x28,0
    80015160:	07c23423          	sd	x28,104(x4) # 68 <FS_RANDOMIZATION+0x4>
    80015164:	00000e13          	li	x28,0
    80015168:	07c23823          	sd	x28,112(x4) # 70 <FS_RANDOMIZATION+0xc>

000000008001516c <fault_label_0>:
    8001516c:	0005b807          	fld	f16,0(x11)
    80015170:	004eb337          	lui	x6,0x4eb
    80015174:	1d93031b          	addiw	x6,x6,473 # 4eb1d9 <mem1+0x3321d9>
    80015178:	00f31313          	slli	x6,x6,0xf
    8001517c:	00830313          	addi	x6,x6,8
    80015180:	00033c03          	ld	x24,0(x6)
    80015184:	000c0067          	jr	x24

0000000080015188 <excp_return_label_0>:
    80015188:	002f5137          	lui	x2,0x2f5
    8001518c:	e731011b          	addiw	x2,x2,-397 # 2f4e73 <mem1+0x13be73>
    80015190:	00d11113          	slli	x2,x2,0xd
    80015194:	00013383          	ld	x7,0(x2)
    80015198:	004ebfb7          	lui	x31,0x4eb
    8001519c:	1d9f8f9b          	addiw	x31,x31,473 # 4eb1d9 <mem1+0x3321d9>
    800151a0:	00ff9f93          	slli	x31,x31,0xf
    800151a4:	0a0f8f93          	addi	x31,x31,160
    800151a8:	00300f13          	li	x30,3
    800151ac:	01efb023          	sd	x30,0(x31)
    800151b0:	000f0fb7          	lui	x31,0xf0
    800151b4:	001f8f9b          	addiw	x31,x31,1 # f0001 <SID_26_pm_different_tags_same_address_stack+0x7f001>
    800151b8:	00cf9f93          	slli	x31,x31,0xc
    800151bc:	005f8f93          	addi	x31,x31,5
    800151c0:	00000073          	ecall

00000000800151c4 <SID_05_pm_disabled_u_vu_mode_passed>:
    800151c4:	00f00f9b          	addiw	x31,x0,15
    800151c8:	01cf9f93          	slli	x31,x31,0x1c
    800151cc:	001f8f93          	addi	x31,x31,1
    800151d0:	00000073          	ecall

00000000800151d4 <SID_13_pm_enabled_u_vu_mode>:
    800151d4:	002f5137          	lui	x2,0x2f5
    800151d8:	e731011b          	addiw	x2,x2,-397 # 2f4e73 <mem1+0x13be73>
    800151dc:	00d11113          	slli	x2,x2,0xd
    800151e0:	004ebfb7          	lui	x31,0x4eb
    800151e4:	1d9f8f9b          	addiw	x31,x31,473 # 4eb1d9 <mem1+0x3321d9>
    800151e8:	00ff9f93          	slli	x31,x31,0xf
    800151ec:	0a0f8f93          	addi	x31,x31,160
    800151f0:	00100f13          	li	x30,1
    800151f4:	01efb023          	sd	x30,0(x31)
    800151f8:	000f0fb7          	lui	x31,0xf0
    800151fc:	001f8f9b          	addiw	x31,x31,1 # f0001 <SID_26_pm_different_tags_same_address_stack+0x7f001>
    80015200:	00cf9f93          	slli	x31,x31,0xc
    80015204:	005f8f93          	addi	x31,x31,5
    80015208:	00000073          	ecall
    8001520c:	00713023          	sd	x7,0(x2)
    80015210:	fe72c137          	lui	x2,0xfe72c
    80015214:	5311011b          	addiw	x2,x2,1329 # fffffffffe72c531 <__section_data_1+0x1a07b9f531>
    80015218:	00d11113          	slli	x2,x2,0xd
    8001521c:	000012b7          	lui	x5,0x1
    80015220:	00510133          	add	x2,x2,x5
    80015224:	ff017113          	andi	x2,x2,-16
    80015228:	0010039b          	addiw	x7,x0,1
    8001522c:	02139393          	slli	x7,x7,0x21
    80015230:	10a3a3f3          	csrrs	x7,0x10a,x7
    80015234:	000acf37          	lui	x30,0xac
    80015238:	cd1f0f1b          	addiw	x30,x30,-815 # abcd1 <SID_26_pm_different_tags_same_address_stack+0x3acd1>
    8001523c:	00cf1f13          	slli	x30,x30,0xc
    80015240:	234f0f13          	addi	x30,x30,564
    80015244:	001b9737          	lui	x14,0x1b9
    80015248:	01e72023          	sw	x30,0(x14) # 1b9000 <mem1>
    8001524c:	001b9d37          	lui	x26,0x1b9
    80015250:	fff0051b          	addiw	x10,x0,-1
    80015254:	03951513          	slli	x10,x10,0x39
    80015258:	00ad49b3          	xor	x19,x26,x10
    8001525c:	0009b303          	ld	x6,0(x19) # 1e8d000 <mem0>
    80015260:	00033437          	lui	x8,0x33
    80015264:	bfb4041b          	addiw	x8,x8,-1029 # 32bfb <_all_interrupts+0x30151>
    80015268:	00e41413          	slli	x8,x8,0xe
    8001526c:	abe40413          	addi	x8,x8,-1346
    80015270:	d02470d3          	fcvt.s.l	f1,x8
    80015274:	0019a027          	fsw	f1,0(x19)
    80015278:	001b9737          	lui	x14,0x1b9
    8001527c:	00073987          	fld	f19,0(x14) # 1b9000 <mem1>
    80015280:	002f5137          	lui	x2,0x2f5
    80015284:	e731011b          	addiw	x2,x2,-397 # 2f4e73 <mem1+0x13be73>
    80015288:	00d11113          	slli	x2,x2,0xd
    8001528c:	00013383          	ld	x7,0(x2)
    80015290:	004ebfb7          	lui	x31,0x4eb
    80015294:	1d9f8f9b          	addiw	x31,x31,473 # 4eb1d9 <mem1+0x3321d9>
    80015298:	00ff9f93          	slli	x31,x31,0xf
    8001529c:	0a0f8f93          	addi	x31,x31,160
    800152a0:	00300f13          	li	x30,3
    800152a4:	01efb023          	sd	x30,0(x31)
    800152a8:	000f0fb7          	lui	x31,0xf0
    800152ac:	001f8f9b          	addiw	x31,x31,1 # f0001 <SID_26_pm_different_tags_same_address_stack+0x7f001>
    800152b0:	00cf9f93          	slli	x31,x31,0xc
    800152b4:	005f8f93          	addi	x31,x31,5
    800152b8:	00000073          	ecall

00000000800152bc <SID_13_pm_enabled_u_vu_mode_passed>:
    800152bc:	00f00f9b          	addiw	x31,x0,15
    800152c0:	01cf9f93          	slli	x31,x31,0x1c
    800152c4:	001f8f93          	addi	x31,x31,1
    800152c8:	00000073          	ecall

00000000800152cc <SID_24_pm_instruction_set>:
    800152cc:	002f5137          	lui	x2,0x2f5
    800152d0:	e731011b          	addiw	x2,x2,-397 # 2f4e73 <mem1+0x13be73>
    800152d4:	00d11113          	slli	x2,x2,0xd
    800152d8:	004ebfb7          	lui	x31,0x4eb
    800152dc:	1d9f8f9b          	addiw	x31,x31,473 # 4eb1d9 <mem1+0x3321d9>
    800152e0:	00ff9f93          	slli	x31,x31,0xf
    800152e4:	0a0f8f93          	addi	x31,x31,160
    800152e8:	00100f13          	li	x30,1
    800152ec:	01efb023          	sd	x30,0(x31)
    800152f0:	000f0fb7          	lui	x31,0xf0
    800152f4:	001f8f9b          	addiw	x31,x31,1 # f0001 <SID_26_pm_different_tags_same_address_stack+0x7f001>
    800152f8:	00cf9f93          	slli	x31,x31,0xc
    800152fc:	005f8f93          	addi	x31,x31,5
    80015300:	00000073          	ecall
    80015304:	00713023          	sd	x7,0(x2)
    80015308:	000f5137          	lui	x2,0xf5
    8001530c:	000012b7          	lui	x5,0x1
    80015310:	00510133          	add	x2,x2,x5
    80015314:	ff017113          	andi	x2,x2,-16
    80015318:	0010039b          	addiw	x7,x0,1
    8001531c:	02139393          	slli	x7,x7,0x21
    80015320:	10a3a3f3          	csrrs	x7,0x10a,x7
    80015324:	11223e37          	lui	x28,0x11223
    80015328:	344e0e1b          	addiw	x28,x28,836 # 11223344 <maplic_255+0x924344>
    8001532c:	00fb36b7          	lui	x13,0xfb3
    80015330:	01c68023          	sb	x28,0(x13) # fb3000 <mem2>
    80015334:	00fb3ab7          	lui	x21,0xfb3
    80015338:	000abc07          	fld	f24,0(x21) # fb3000 <mem2>
    8001533c:	002f5137          	lui	x2,0x2f5
    80015340:	e731011b          	addiw	x2,x2,-397 # 2f4e73 <mem1+0x13be73>
    80015344:	00d11113          	slli	x2,x2,0xd
    80015348:	00013383          	ld	x7,0(x2)
    8001534c:	004ebfb7          	lui	x31,0x4eb
    80015350:	1d9f8f9b          	addiw	x31,x31,473 # 4eb1d9 <mem1+0x3321d9>
    80015354:	00ff9f93          	slli	x31,x31,0xf
    80015358:	0a0f8f93          	addi	x31,x31,160
    8001535c:	00300f13          	li	x30,3
    80015360:	01efb023          	sd	x30,0(x31)
    80015364:	000f0fb7          	lui	x31,0xf0
    80015368:	001f8f9b          	addiw	x31,x31,1 # f0001 <SID_26_pm_different_tags_same_address_stack+0x7f001>
    8001536c:	00cf9f93          	slli	x31,x31,0xc
    80015370:	005f8f93          	addi	x31,x31,5
    80015374:	00000073          	ecall

0000000080015378 <SID_24_pm_instruction_set_passed>:
    80015378:	00f00f9b          	addiw	x31,x0,15
    8001537c:	01cf9f93          	slli	x31,x31,0x1c
    80015380:	001f8f93          	addi	x31,x31,1
    80015384:	00000073          	ecall

0000000080015388 <SID_25_pm_misaligned_access>:
    80015388:	002f5137          	lui	x2,0x2f5
    8001538c:	e731011b          	addiw	x2,x2,-397 # 2f4e73 <mem1+0x13be73>
    80015390:	00d11113          	slli	x2,x2,0xd
    80015394:	004ebfb7          	lui	x31,0x4eb
    80015398:	1d9f8f9b          	addiw	x31,x31,473 # 4eb1d9 <mem1+0x3321d9>
    8001539c:	00ff9f93          	slli	x31,x31,0xf
    800153a0:	0a0f8f93          	addi	x31,x31,160
    800153a4:	00100f13          	li	x30,1
    800153a8:	01efb023          	sd	x30,0(x31)
    800153ac:	000f0fb7          	lui	x31,0xf0
    800153b0:	001f8f9b          	addiw	x31,x31,1 # f0001 <SID_26_pm_different_tags_same_address_stack+0x7f001>
    800153b4:	00cf9f93          	slli	x31,x31,0xc
    800153b8:	005f8f93          	addi	x31,x31,5
    800153bc:	00000073          	ecall
    800153c0:	00713023          	sd	x7,0(x2)
    800153c4:	7f7df137          	lui	x2,0x7f7df
    800153c8:	000012b7          	lui	x5,0x1
    800153cc:	00510133          	add	x2,x2,x5
    800153d0:	ff017113          	andi	x2,x2,-16
    800153d4:	0030039b          	addiw	x7,x0,3
    800153d8:	02039393          	slli	x7,x7,0x20
    800153dc:	10a3a3f3          	csrrs	x7,0x10a,x7
    800153e0:	55667fb7          	lui	x31,0x55667
    800153e4:	788f8f9b          	addiw	x31,x31,1928 # 55667788 <saplic_255+0x34d68788>
    800153e8:	006eaab7          	lui	x21,0x6ea
    800153ec:	b29a8a9b          	addiw	x21,x21,-1239 # 6e9b29 <mem1+0x530b29>
    800153f0:	00ca9a93          	slli	x21,x21,0xc
    800153f4:	01fa8023          	sb	x31,0(x21)
    800153f8:	006eabb7          	lui	x23,0x6ea
    800153fc:	b29b8b9b          	addiw	x23,x23,-1239 # 6e9b29 <mem1+0x530b29>
    80015400:	00cb9b93          	slli	x23,x23,0xc
    80015404:	000bbd03          	ld	x26,0(x23)
    80015408:	002f5137          	lui	x2,0x2f5
    8001540c:	e731011b          	addiw	x2,x2,-397 # 2f4e73 <mem1+0x13be73>
    80015410:	00d11113          	slli	x2,x2,0xd
    80015414:	00013383          	ld	x7,0(x2)
    80015418:	004ebfb7          	lui	x31,0x4eb
    8001541c:	1d9f8f9b          	addiw	x31,x31,473 # 4eb1d9 <mem1+0x3321d9>
    80015420:	00ff9f93          	slli	x31,x31,0xf
    80015424:	0a0f8f93          	addi	x31,x31,160
    80015428:	00300f13          	li	x30,3
    8001542c:	01efb023          	sd	x30,0(x31)
    80015430:	000f0fb7          	lui	x31,0xf0
    80015434:	001f8f9b          	addiw	x31,x31,1 # f0001 <SID_26_pm_different_tags_same_address_stack+0x7f001>
    80015438:	00cf9f93          	slli	x31,x31,0xc
    8001543c:	005f8f93          	addi	x31,x31,5
    80015440:	00000073          	ecall

0000000080015444 <SID_25_pm_misaligned_access_passed>:
    80015444:	00f00f9b          	addiw	x31,x0,15
    80015448:	01cf9f93          	slli	x31,x31,0x1c
    8001544c:	001f8f93          	addi	x31,x31,1
    80015450:	00000073          	ecall

0000000080015454 <SID_26_pm_different_tags_same_address>:
    80015454:	002f5137          	lui	x2,0x2f5
    80015458:	e731011b          	addiw	x2,x2,-397 # 2f4e73 <mem1+0x13be73>
    8001545c:	00d11113          	slli	x2,x2,0xd
    80015460:	004ebfb7          	lui	x31,0x4eb
    80015464:	1d9f8f9b          	addiw	x31,x31,473 # 4eb1d9 <mem1+0x3321d9>
    80015468:	00ff9f93          	slli	x31,x31,0xf
    8001546c:	0a0f8f93          	addi	x31,x31,160
    80015470:	00100f13          	li	x30,1
    80015474:	01efb023          	sd	x30,0(x31)
    80015478:	000f0fb7          	lui	x31,0xf0
    8001547c:	001f8f9b          	addiw	x31,x31,1 # f0001 <SID_26_pm_different_tags_same_address_stack+0x7f001>
    80015480:	00cf9f93          	slli	x31,x31,0xc
    80015484:	005f8f93          	addi	x31,x31,5
    80015488:	00000073          	ecall
    8001548c:	00713023          	sd	x7,0(x2)
    80015490:	00071137          	lui	x2,0x71
    80015494:	000012b7          	lui	x5,0x1
    80015498:	00510133          	add	x2,x2,x5
    8001549c:	ff017113          	andi	x2,x2,-16
    800154a0:	0030039b          	addiw	x7,x0,3
    800154a4:	02039393          	slli	x7,x7,0x20
    800154a8:	10a3a3f3          	csrrs	x7,0x10a,x7
    800154ac:	11111e37          	lui	x28,0x11111
    800154b0:	111e0e1b          	addiw	x28,x28,273 # 11111111 <maplic_255+0x812111>
    800154b4:	09693737          	lui	x14,0x9693
    800154b8:	01c73023          	sd	x28,0(x14) # 9693000 <mem4>
    800154bc:	22222e37          	lui	x28,0x22222
    800154c0:	222e0e1b          	addiw	x28,x28,546 # 22222222 <saplic_255+0x1923222>
    800154c4:	09693b37          	lui	x22,0x9693
    800154c8:	01cb1023          	sh	x28,0(x22) # 9693000 <mem4>
    800154cc:	096938b7          	lui	x17,0x9693
    800154d0:	0008b303          	ld	x6,0(x17) # 9693000 <mem4>
    800154d4:	002f5137          	lui	x2,0x2f5
    800154d8:	e731011b          	addiw	x2,x2,-397 # 2f4e73 <mem1+0x13be73>
    800154dc:	00d11113          	slli	x2,x2,0xd
    800154e0:	00013383          	ld	x7,0(x2)
    800154e4:	004ebfb7          	lui	x31,0x4eb
    800154e8:	1d9f8f9b          	addiw	x31,x31,473 # 4eb1d9 <mem1+0x3321d9>
    800154ec:	00ff9f93          	slli	x31,x31,0xf
    800154f0:	0a0f8f93          	addi	x31,x31,160
    800154f4:	00300f13          	li	x30,3
    800154f8:	01efb023          	sd	x30,0(x31)
    800154fc:	000f0fb7          	lui	x31,0xf0
    80015500:	001f8f9b          	addiw	x31,x31,1 # f0001 <SID_26_pm_different_tags_same_address_stack+0x7f001>
    80015504:	00cf9f93          	slli	x31,x31,0xc
    80015508:	005f8f93          	addi	x31,x31,5
    8001550c:	00000073          	ecall

0000000080015510 <SID_26_pm_different_tags_same_address_passed>:
    80015510:	00f00f9b          	addiw	x31,x0,15
    80015514:	01cf9f93          	slli	x31,x31,0x1c
    80015518:	001f8f93          	addi	x31,x31,1
    8001551c:	00000073          	ecall

0000000080015520 <SID_27_pm_implicit_access>:
    80015520:	002f5137          	lui	x2,0x2f5
    80015524:	e731011b          	addiw	x2,x2,-397 # 2f4e73 <mem1+0x13be73>
    80015528:	00d11113          	slli	x2,x2,0xd
    8001552c:	004ebfb7          	lui	x31,0x4eb
    80015530:	1d9f8f9b          	addiw	x31,x31,473 # 4eb1d9 <mem1+0x3321d9>
    80015534:	00ff9f93          	slli	x31,x31,0xf
    80015538:	0a0f8f93          	addi	x31,x31,160
    8001553c:	00100f13          	li	x30,1
    80015540:	01efb023          	sd	x30,0(x31)
    80015544:	000f0fb7          	lui	x31,0xf0
    80015548:	001f8f9b          	addiw	x31,x31,1 # f0001 <SID_26_pm_different_tags_same_address_stack+0x7f001>
    8001554c:	00cf9f93          	slli	x31,x31,0xc
    80015550:	005f8f93          	addi	x31,x31,5
    80015554:	00000073          	ecall
    80015558:	00713023          	sd	x7,0(x2)
    8001555c:	0154b137          	lui	x2,0x154b
    80015560:	000012b7          	lui	x5,0x1
    80015564:	00510133          	add	x2,x2,x5
    80015568:	ff017113          	andi	x2,x2,-16
    8001556c:	0010039b          	addiw	x7,x0,1
    80015570:	02139393          	slli	x7,x7,0x21
    80015574:	10a3a3f3          	csrrs	x7,0x10a,x7
    80015578:	00040637          	lui	x12,0x40
    8001557c:	bb76061b          	addiw	x12,x12,-1097 # 3fbb7 <_all_interrupts+0x3d10d>
    80015580:	00e61613          	slli	x12,x12,0xe
    80015584:	0de60613          	addi	x12,x12,222
    80015588:	00063e37          	lui	x28,0x63
    8001558c:	00ce2023          	sw	x12,0(x28) # 63000 <mem5>
    80015590:	000633b7          	lui	x7,0x63
    80015594:	0003b883          	ld	x17,0(x7) # 63000 <mem5>
    80015598:	022fc537          	lui	x10,0x22fc
    8001559c:	000500e7          	jalr	x10 # 22fc000 <code_mem6>
    800155a0:	002f5137          	lui	x2,0x2f5
    800155a4:	e731011b          	addiw	x2,x2,-397 # 2f4e73 <mem1+0x13be73>
    800155a8:	00d11113          	slli	x2,x2,0xd
    800155ac:	00013383          	ld	x7,0(x2)
    800155b0:	004ebfb7          	lui	x31,0x4eb
    800155b4:	1d9f8f9b          	addiw	x31,x31,473 # 4eb1d9 <mem1+0x3321d9>
    800155b8:	00ff9f93          	slli	x31,x31,0xf
    800155bc:	0a0f8f93          	addi	x31,x31,160
    800155c0:	00300f13          	li	x30,3
    800155c4:	01efb023          	sd	x30,0(x31)
    800155c8:	000f0fb7          	lui	x31,0xf0
    800155cc:	001f8f9b          	addiw	x31,x31,1 # f0001 <SID_26_pm_different_tags_same_address_stack+0x7f001>
    800155d0:	00cf9f93          	slli	x31,x31,0xc
    800155d4:	005f8f93          	addi	x31,x31,5
    800155d8:	00000073          	ecall

00000000800155dc <SID_27_pm_implicit_access_passed>:
    800155dc:	00f00f9b          	addiw	x31,x0,15
    800155e0:	01cf9f93          	slli	x31,x31,0x1c
    800155e4:	001f8f93          	addi	x31,x31,1
    800155e8:	00000073          	ecall

00000000800155ec <SID_28_pm_faults_trap_values>:
    800155ec:	002f5137          	lui	x2,0x2f5
    800155f0:	e731011b          	addiw	x2,x2,-397 # 2f4e73 <mem1+0x13be73>
    800155f4:	00d11113          	slli	x2,x2,0xd
    800155f8:	004ebfb7          	lui	x31,0x4eb
    800155fc:	1d9f8f9b          	addiw	x31,x31,473 # 4eb1d9 <mem1+0x3321d9>
    80015600:	00ff9f93          	slli	x31,x31,0xf
    80015604:	0a0f8f93          	addi	x31,x31,160
    80015608:	00100f13          	li	x30,1
    8001560c:	01efb023          	sd	x30,0(x31)
    80015610:	000f0fb7          	lui	x31,0xf0
    80015614:	001f8f9b          	addiw	x31,x31,1 # f0001 <SID_26_pm_different_tags_same_address_stack+0x7f001>
    80015618:	00cf9f93          	slli	x31,x31,0xc
    8001561c:	005f8f93          	addi	x31,x31,5
    80015620:	00000073          	ecall
    80015624:	00713023          	sd	x7,0(x2)
    80015628:	ff302137          	lui	x2,0xff302
    8001562c:	a971011b          	addiw	x2,x2,-1385 # ffffffffff301a97 <__section_data_1+0x1a08774a97>
    80015630:	00e11113          	slli	x2,x2,0xe
    80015634:	000012b7          	lui	x5,0x1
    80015638:	00510133          	add	x2,x2,x5
    8001563c:	ff017113          	andi	x2,x2,-16
    80015640:	0010039b          	addiw	x7,x0,1
    80015644:	02139393          	slli	x7,x7,0x21
    80015648:	10a3a3f3          	csrrs	x7,0x10a,x7
    8001564c:	0badffb7          	lui	x31,0xbadf
    80015650:	00df8f9b          	addiw	x31,x31,13 # badf00d <mem7+0x226f00d>
    80015654:	0026b237          	lui	x4,0x26b
    80015658:	0df2021b          	addiw	x4,x4,223 # 26b0df <mem1+0xb20df>
    8001565c:	00c21213          	slli	x4,x4,0xc
    80015660:	00f00e13          	li	x28,15
    80015664:	05c23823          	sd	x28,80(x4) # 50 <XLEN+0x10>
    80015668:	00000e17          	auipc	x28,0x0
    8001566c:	050e0e13          	addi	x28,x28,80 # 800156b8 <fault_label_1>
    80015670:	03c23023          	sd	x28,32(x4) # 20 <SECURE_ACCESS_PROBABILITY+0x2>
    80015674:	00000e13          	li	x28,0
    80015678:	05c23023          	sd	x28,64(x4) # 40 <XLEN>
    8001567c:	00000e13          	li	x28,0
    80015680:	05c23423          	sd	x28,72(x4) # 48 <XLEN+0x8>
    80015684:	00000e17          	auipc	x28,0x0
    80015688:	050e0e13          	addi	x28,x28,80 # 800156d4 <excp_return_label_1>
    8001568c:	03c23823          	sd	x28,48(x4) # 30 <SECURE_ACCESS_PROBABILITY+0x12>
    80015690:	00000e13          	li	x28,0
    80015694:	03c23c23          	sd	x28,56(x4) # 38 <SECURE_ACCESS_PROBABILITY+0x1a>
    80015698:	00000e13          	li	x28,0
    8001569c:	07c23023          	sd	x28,96(x4) # 60 <XLEN+0x20>
    800156a0:	00000e13          	li	x28,0
    800156a4:	07c23423          	sd	x28,104(x4) # 68 <FS_RANDOMIZATION+0x4>
    800156a8:	00000e13          	li	x28,0
    800156ac:	07c23823          	sd	x28,112(x4) # 70 <FS_RANDOMIZATION+0xc>
    800156b0:	09870bb7          	lui	x23,0x9870
    800156b4:	d03fff53          	fcvt.s.lu	f30,x31

00000000800156b8 <fault_label_1>:
    800156b8:	01eba027          	fsw	f30,0(x23) # 9870000 <mem7>
    800156bc:	004eba37          	lui	x20,0x4eb
    800156c0:	1d9a0a1b          	addiw	x20,x20,473 # 4eb1d9 <mem1+0x3321d9>
    800156c4:	00fa1a13          	slli	x20,x20,0xf
    800156c8:	008a0a13          	addi	x20,x20,8
    800156cc:	000a3c83          	ld	x25,0(x20)
    800156d0:	000c8067          	jr	x25

00000000800156d4 <excp_return_label_1>:
    800156d4:	002f5137          	lui	x2,0x2f5
    800156d8:	e731011b          	addiw	x2,x2,-397 # 2f4e73 <mem1+0x13be73>
    800156dc:	00d11113          	slli	x2,x2,0xd
    800156e0:	00013383          	ld	x7,0(x2)
    800156e4:	004ebfb7          	lui	x31,0x4eb
    800156e8:	1d9f8f9b          	addiw	x31,x31,473 # 4eb1d9 <mem1+0x3321d9>
    800156ec:	00ff9f93          	slli	x31,x31,0xf
    800156f0:	0a0f8f93          	addi	x31,x31,160
    800156f4:	00300f13          	li	x30,3
    800156f8:	01efb023          	sd	x30,0(x31)
    800156fc:	000f0fb7          	lui	x31,0xf0
    80015700:	001f8f9b          	addiw	x31,x31,1 # f0001 <SID_26_pm_different_tags_same_address_stack+0x7f001>
    80015704:	00cf9f93          	slli	x31,x31,0xc
    80015708:	005f8f93          	addi	x31,x31,5
    8001570c:	00000073          	ecall

0000000080015710 <SID_28_pm_faults_trap_values_passed>:
    80015710:	00f00f9b          	addiw	x31,x0,15
    80015714:	01cf9f93          	slli	x31,x31,0x1c
    80015718:	001f8f93          	addi	x31,x31,1
    8001571c:	00000073          	ecall

0000000080015720 <test_cleanup>:
    80015720:	00f00f9b          	addiw	x31,x0,15
    80015724:	01cf9f93          	slli	x31,x31,0x1c
    80015728:	001f8f93          	addi	x31,x31,1
    8001572c:	00000073          	ecall

0000000080015730 <local_test_failed>:
    80015730:	00f00f9b          	addiw	x31,x0,15
    80015734:	01cf9f93          	slli	x31,x31,0x1c
    80015738:	002f8f93          	addi	x31,x31,2
    8001573c:	00000073          	ecall

Disassembly of section .csr_machine_0:

0000000080215000 <csr_access_senvcfg_supervisor_key_3_write-0x50>:
    80215000:	007d2fb7          	lui	x31,0x7d2
    80215004:	8edf8f9b          	addiw	x31,x31,-1811 # 7d18ed <mem1+0x6188ed>
    80215008:	00df9f93          	slli	x31,x31,0xd
    8021500c:	9e1f8f93          	addi	x31,x31,-1567
    80215010:	00df9f93          	slli	x31,x31,0xd
    80215014:	0a0f8f93          	addi	x31,x31,160
    80215018:	000fbf83          	ld	x31,0(x31)
    8021501c:	00300293          	li	x5,3
    80215020:	025f8863          	beq	x31,x5,80215050 <csr_access_senvcfg_supervisor_key_3_write>
    80215024:	00100293          	li	x5,1
    80215028:	025f8863          	beq	x31,x5,80215058 <csr_access_senvcfg_supervisor_key_1_read>
    8021502c:	00800293          	li	x5,8
    80215030:	025f8863          	beq	x31,x5,80215060 <csr_access_mstatus_machine_key_8_set>
    80215034:	00600293          	li	x5,6
    80215038:	025f8863          	beq	x31,x5,80215068 <csr_access_mstatus_machine_key_6_clear>
    8021503c:	00b00293          	li	x5,11
    80215040:	025f8863          	beq	x31,x5,80215070 <csr_access_mtvec_machine_key_11_set>
    80215044:	00a00293          	li	x5,10
    80215048:	025f8863          	beq	x31,x5,80215078 <csr_access_mtvec_machine_key_10_clear>
    8021504c:	0340006f          	j	80215080 <end_machine_label>

0000000080215050 <csr_access_senvcfg_supervisor_key_3_write>:
    80215050:	10a39073          	csrw	0x10a,x7
    80215054:	02c0006f          	j	80215080 <end_machine_label>

0000000080215058 <csr_access_senvcfg_supervisor_key_1_read>:
    80215058:	10a023f3          	csrr	x7,0x10a
    8021505c:	0240006f          	j	80215080 <end_machine_label>

0000000080215060 <csr_access_mstatus_machine_key_8_set>:
    80215060:	3003a073          	csrs	mstatus,x7
    80215064:	01c0006f          	j	80215080 <end_machine_label>

0000000080215068 <csr_access_mstatus_machine_key_6_clear>:
    80215068:	3003b073          	csrc	mstatus,x7
    8021506c:	0140006f          	j	80215080 <end_machine_label>

0000000080215070 <csr_access_mtvec_machine_key_11_set>:
    80215070:	3053a073          	csrs	mtvec,x7
    80215074:	00c0006f          	j	80215080 <end_machine_label>

0000000080215078 <csr_access_mtvec_machine_key_10_clear>:
    80215078:	3053b073          	csrc	mtvec,x7
    8021507c:	0040006f          	j	80215080 <end_machine_label>

0000000080215080 <end_machine_label>:
    80215080:	000f0fb7          	lui	x31,0xf0
    80215084:	001f8f9b          	addiw	x31,x31,1 # f0001 <SID_26_pm_different_tags_same_address_stack+0x7f001>
    80215088:	00cf9f93          	slli	x31,x31,0xc
    8021508c:	004f8f93          	addi	x31,x31,4
    80215090:	00000073          	ecall

Disassembly of section .csr_super_0:

0000000080216000 <csr_access_senvcfg_supervisor_key_5_set-0x48>:
    80216000:	004ebfb7          	lui	x31,0x4eb
    80216004:	1d9f8f9b          	addiw	x31,x31,473 # 4eb1d9 <mem1+0x3321d9>
    80216008:	00ff9f93          	slli	x31,x31,0xf
    8021600c:	0a8f8f93          	addi	x31,x31,168
    80216010:	000fbf83          	ld	x31,0(x31)
    80216014:	00500293          	li	x5,5
    80216018:	025f8863          	beq	x31,x5,80216048 <csr_access_senvcfg_supervisor_key_5_set>
    8021601c:	00200293          	li	x5,2
    80216020:	025f8863          	beq	x31,x5,80216050 <csr_access_senvcfg_supervisor_key_2_clear>
    80216024:	00900293          	li	x5,9
    80216028:	025f8863          	beq	x31,x5,80216058 <csr_access_sstatus_supervisor_key_9_set>
    8021602c:	00700293          	li	x5,7
    80216030:	025f8863          	beq	x31,x5,80216060 <csr_access_sstatus_supervisor_key_7_clear>
    80216034:	00d00293          	li	x5,13
    80216038:	025f8863          	beq	x31,x5,80216068 <csr_access_stvec_supervisor_key_13_set>
    8021603c:	00c00293          	li	x5,12
    80216040:	025f8863          	beq	x31,x5,80216070 <csr_access_stvec_supervisor_key_12_clear>
    80216044:	0340006f          	j	80216078 <end_super_label>

0000000080216048 <csr_access_senvcfg_supervisor_key_5_set>:
    80216048:	10a3a073          	csrs	0x10a,x7
    8021604c:	02c0006f          	j	80216078 <end_super_label>

0000000080216050 <csr_access_senvcfg_supervisor_key_2_clear>:
    80216050:	10a3b073          	csrc	0x10a,x7
    80216054:	0240006f          	j	80216078 <end_super_label>

0000000080216058 <csr_access_sstatus_supervisor_key_9_set>:
    80216058:	1003a073          	csrs	sstatus,x7
    8021605c:	01c0006f          	j	80216078 <end_super_label>

0000000080216060 <csr_access_sstatus_supervisor_key_7_clear>:
    80216060:	1003b073          	csrc	sstatus,x7
    80216064:	0140006f          	j	80216078 <end_super_label>

0000000080216068 <csr_access_stvec_supervisor_key_13_set>:
    80216068:	1053a073          	csrs	stvec,x7
    8021606c:	00c0006f          	j	80216078 <end_super_label>

0000000080216070 <csr_access_stvec_supervisor_key_12_clear>:
    80216070:	1053b073          	csrc	stvec,x7
    80216074:	0040006f          	j	80216078 <end_super_label>

0000000080216078 <end_super_label>:
    80216078:	000f0fb7          	lui	x31,0xf0
    8021607c:	001f8f9b          	addiw	x31,x31,1 # f0001 <SID_26_pm_different_tags_same_address_stack+0x7f001>
    80216080:	00cf9f93          	slli	x31,x31,0xc
    80216084:	004f8f93          	addi	x31,x31,4
    80216088:	00000073          	ecall

Disassembly of section .os_data:

0000002758ec8000 <passed_addr_ptr>:
  2758ec8000:	5050                	.insn	2, 0x5050
  2758ec8002:	8001                	.insn	2, 0x8001
  2758ec8004:	0000                	.insn	2, 0x0000
	...

0000002758ec8008 <failed_addr_ptr>:
  2758ec8008:	5060                	.insn	2, 0x5060
  2758ec800a:	8001                	.insn	2, 0x8001
  2758ec800c:	0000                	.insn	2, 0x0000
	...

0000002758ec8010 <end_test_addr_ptr>:
  2758ec8010:	5070                	.insn	2, 0x5070
  2758ec8012:	8001                	.insn	2, 0x8001
  2758ec8014:	0000                	.insn	2, 0x0000
	...

0000002758ec8018 <os_passed_addr_ptr>:
  2758ec8018:	0a14                	.insn	2, 0x0a14
  2758ec801a:	8000                	.insn	2, 0x8000
  2758ec801c:	0000                	.insn	2, 0x0000
	...

0000002758ec8020 <os_failed_addr_ptr>:
  2758ec8020:	0a24                	.insn	2, 0x0a24
  2758ec8022:	8000                	.insn	2, 0x8000
  2758ec8024:	0000                	.insn	2, 0x0000
	...

0000002758ec8028 <os_end_test_addr_ptr>:
  2758ec8028:	0a30                	.insn	2, 0x0a30
  2758ec802a:	8000                	.insn	2, 0x8000
  2758ec802c:	0000                	.insn	2, 0x0000
	...

0000002758ec8030 <rvcp_prefix_str_data>:
  2758ec8030:	5652                	.insn	2, 0x5652
  2758ec8032:	203a5043          	fmadd.s	f0,f20,f3,f4,unknown
  2758ec8036:	6554                	.insn	2, 0x6554
  2758ec8038:	46207473          	csrrci	x8,0x462,0
  2758ec803c:	6c69                	.insn	2, 0x6c69
  2758ec803e:	2065                	.insn	2, 0x2065
	...

0000002758ec8041 <rvcp_testname_str_data>:
  2758ec8041:	7074                	.insn	2, 0x7074
  2758ec8043:	7a5f 706a 5f6d      	.insn	6, 0x5f6d706a7a5f
  2758ec8049:	0031                	.insn	2, 0x0031

0000002758ec804b <rvcp_passed_str_data>:
  2758ec804b:	4150                	.insn	2, 0x4150
  2758ec804d:	44455353          	fround.h	f6,f10,unknown
	...

0000002758ec8052 <rvcp_failed_str_data>:
  2758ec8052:	4146                	.insn	2, 0x4146
  2758ec8054:	4c49                	.insn	2, 0x4c49
  2758ec8056:	4445                	.insn	2, 0x4445
	...

0000002758ec8059 <rvcp_space_str_data>:
  2758ec8059:	0020                	.insn	2, 0x0020

0000002758ec805b <rvcp_newline_str_data>:
  2758ec805b:	000a                	.insn	2, 0x000a
  2758ec805d:	0000                	.insn	2, 0x0000
	...

0000002758ec8060 <excp_ignored_count_mem>:
	...

0000002758ec8068 <machine_flags_mem>:
	...

0000002758ec8070 <user_flags_mem>:
	...

0000002758ec8078 <super_flags_mem>:
	...

0000002758ec8080 <machine_area_mem>:
	...

0000002758ec8088 <user_area_mem>:
	...

0000002758ec8090 <super_area_mem>:
	...

0000002758ec8098 <zero_data_mem>:
	...

0000002758ec80a0 <machine_csr_jump_table_flags_mem>:
	...

0000002758ec80a8 <super_csr_jump_table_flags_mem>:
	...

0000002758ec80b0 <pte_access_flags_mem>:
	...

0000002758ec80c8 <num_harts_ended_mem>:
	...

0000002758ec80d0 <num_hard_fails_mem>:
	...

Disassembly of section .hart_context:

000000026b0df000 <hart_context_0>:
   26b0df000:	7000                	.insn	2, 0x7000
   26b0df002:	34dd                	.insn	2, 0x34dd
   26b0df004:	0000000f          	fence	unknown,unknown
	...
   26b0df018:	0001                	.insn	2, 0x0001
   26b0df01a:	0000                	.insn	2, 0x0000
   26b0df01c:	0000                	.insn	2, 0x0000
   26b0df01e:	0000                	.insn	2, 0x0000
   26b0df020:	ffff                	.insn	2, 0xffff
   26b0df022:	ffff                	.insn	2, 0xffff
   26b0df024:	ffff                	.insn	2, 0xffff
   26b0df026:	ffff                	.insn	2, 0xffff
   26b0df028:	ffff                	.insn	2, 0xffff
   26b0df02a:	ffff                	.insn	2, 0xffff
   26b0df02c:	ffff                	.insn	2, 0xffff
   26b0df02e:	ffff                	.insn	2, 0xffff
   26b0df030:	ffff                	.insn	2, 0xffff
   26b0df032:	ffff                	.insn	2, 0xffff
   26b0df034:	ffff                	.insn	2, 0xffff
   26b0df036:	ffff                	.insn	2, 0xffff
	...
   26b0df050:	00ff 0000 0000 0000 	.insn	10, 0x00ff00000000000000ff
   26b0df058:	00ff 
	...
   26b0df176:	0000                	.insn	2, 0x0000
   26b0df178:	ffff                	.insn	2, 0xffff
   26b0df17a:	ffff                	.insn	2, 0xffff
   26b0df17c:	ffff                	.insn	2, 0xffff
   26b0df17e:	ffff                	.insn	2, 0xffff
	...
   26b0df198:	ffff                	.insn	2, 0xffff
   26b0df19a:	ffff                	.insn	2, 0xffff
	...

Disassembly of section .hart_stack_0:

0000000f34dd6000 <hart_stack_0>:
	...

Disassembly of section .io_htif:

0000000070000000 <tohost>:
	...

0000000070000040 <fromhost>:
	...

Disassembly of section .code_mem6:

00000000022fc000 <.code_mem6>:
 22fc000:	0020d497          	auipc	x9,0x20d
 22fc004:	00008067          	ret

Disassembly of section .mem0:

0000000001e8d000 <.mem0>:
 1e8d000:	c0de                	.insn	2, 0xc0de
 1e8d002:	c001                	.insn	2, 0xc001
 1e8d004:	0000                	.insn	2, 0x0000
	...

Disassembly of section .mem1:

00000000001b9000 <.mem1>:
  1b9000:	c0de                	.insn	2, 0xc0de
  1b9002:	c001                	.insn	2, 0xc001
  1b9004:	0000                	.insn	2, 0x0000
	...

Disassembly of section .mem2:

0000000000fb3000 <.mem2>:
  fb3000:	c0de                	.insn	2, 0xc0de
  fb3002:	c001                	.insn	2, 0xc001
  fb3004:	0000                	.insn	2, 0x0000
	...

Disassembly of section .mem3:

00000006e9b29000 <.mem3>:
   6e9b29000:	c0de                	.insn	2, 0xc0de
   6e9b29002:	c001                	.insn	2, 0xc001
   6e9b29004:	0000                	.insn	2, 0x0000
	...

Disassembly of section .mem4:

0000000009693000 <.mem4>:
 9693000:	c0de                	.insn	2, 0xc0de
 9693002:	c001                	.insn	2, 0xc001
 9693004:	0000                	.insn	2, 0x0000
	...

Disassembly of section .mem5:

0000000000063000 <.mem5>:
   63000:	c0de                	.insn	2, 0xc0de
   63002:	c001                	.insn	2, 0xc001
   63004:	0000                	.insn	2, 0x0000
	...

Disassembly of section .mem7:

0000000009870000 <.mem7>:
 9870000:	c0de                	.insn	2, 0xc0de
 9870002:	c001                	.insn	2, 0xc001
 9870004:	0000                	.insn	2, 0x0000
	...

Disassembly of section .tp_csr_storage:

00000005e9ce6000 <.tp_csr_storage>:
   5e9ce6000:	c0de                	.insn	2, 0xc0de
   5e9ce6002:	c001                	.insn	2, 0xc001
   5e9ce6004:	0000                	.insn	2, 0x0000
	...

Disassembly of section .SID_05_pm_disabled_u_vu_mode_stack:

000000007c90f000 <.SID_05_pm_disabled_u_vu_mode_stack>:
    7c90f000:	c0de                	.insn	2, 0xc0de
    7c90f002:	c001                	.insn	2, 0xc001
    7c90f004:	0000                	.insn	2, 0x0000
	...

Disassembly of section .SID_13_pm_enabled_u_vu_mode_stack:

ffffffce58a62000 <.SID_13_pm_enabled_u_vu_mode_stack>:
ffffffce58a62000:	c0de                	.insn	2, 0xc0de
ffffffce58a62002:	c001                	.insn	2, 0xc001
ffffffce58a62004:	0000                	.insn	2, 0x0000
	...

Disassembly of section .SID_24_pm_instruction_set_stack:

00000000000f5000 <.SID_24_pm_instruction_set_stack>:
   f5000:	c0de                	.insn	2, 0xc0de
   f5002:	c001                	.insn	2, 0xc001
   f5004:	0000                	.insn	2, 0x0000
	...

Disassembly of section .SID_25_pm_misaligned_access_stack:

000000007f7df000 <.SID_25_pm_misaligned_access_stack>:
    7f7df000:	c0de                	.insn	2, 0xc0de
    7f7df002:	c001                	.insn	2, 0xc001
    7f7df004:	0000                	.insn	2, 0x0000
	...

Disassembly of section .SID_26_pm_different_tags_same_address_stack:

0000000000071000 <.SID_26_pm_different_tags_same_address_stack>:
   71000:	c0de                	.insn	2, 0xc0de
   71002:	c001                	.insn	2, 0xc001
   71004:	0000                	.insn	2, 0x0000
	...

Disassembly of section .SID_27_pm_implicit_access_stack:

000000000154b000 <.SID_27_pm_implicit_access_stack>:
 154b000:	c0de                	.insn	2, 0xc0de
 154b002:	c001                	.insn	2, 0xc001
 154b004:	0000                	.insn	2, 0x0000
	...

Disassembly of section .SID_28_pm_faults_trap_values_stack:

ffffffcc06a5c000 <.SID_28_pm_faults_trap_values_stack>:
ffffffcc06a5c000:	c0de                	.insn	2, 0xc0de
ffffffcc06a5c002:	c001                	.insn	2, 0xc001
ffffffcc06a5c004:	0000                	.insn	2, 0x0000
	...

Disassembly of section .__pagetable_map_os_0x0000000946e9c000:

0000000946e9c000 <__pagetable_map_os_0x0000000946e9c000>:
   946e9c000:	2401                	.insn	2, 0x2401
   946e9c002:	eb45                	.insn	2, 0xeb45
   946e9c004:	16bd                	.insn	2, 0x16bd
   946e9c006:	0000                	.insn	2, 0x0000
   946e9c008:	7c01                	.insn	2, 0x7c01
   946e9c00a:	f2fc2133          	.insn	4, 0xf2fc2133
   946e9c00e:	0000                	.insn	2, 0x0000
   946e9c010:	4801                	.insn	2, 0x4801
   946e9c012:	003fb94f          	fnmadd.s	f18,f31,f3,f0,rup
	...
   946e9c046:	0000                	.insn	2, 0x0000
   946e9c048:	9001                	.insn	2, 0x9001
   946e9c04a:	2090                	.insn	2, 0x2090
   946e9c04c:	015e                	.insn	2, 0x015e
	...
   946e9c0b6:	0000                	.insn	2, 0x0000
   946e9c0b8:	2401                	.insn	2, 0x2401
   946e9c0ba:	ad10                	.insn	2, 0xad10
   946e9c0bc:	0000007b          	.insn	4, 0x007b
	...
   946e9c0d8:	9001                	.insn	2, 0x9001
   946e9c0da:	7c62                	.insn	2, 0x7c62
   946e9c0dc:	10d5                	.insn	2, 0x10d5
	...
   946e9c126:	0000                	.insn	2, 0x0000
   946e9c128:	6c01                	.insn	2, 0x6c01
   946e9c12a:	0236f887          	.insn	4, 0x0236f887
	...
   946e9c1de:	0000                	.insn	2, 0x0000
   946e9c1e0:	2801                	.insn	2, 0x2801
   946e9c1e2:	e461                	.insn	2, 0xe461
   946e9c1e4:	0771                	.insn	2, 0x0771
	...
   946e9c4e6:	0000                	.insn	2, 0x0000
   946e9c4e8:	fc01                	.insn	2, 0xfc01
   946e9c4ea:	01b6                	.insn	2, 0x01b6
   946e9c4ec:	0002                	.insn	2, 0x0002
	...
   946e9c97e:	0000                	.insn	2, 0x0000
   946e9c980:	d401                	.insn	2, 0xd401
   946e9c982:	b7a2                	.insn	2, 0xb7a2
   946e9c984:	00000853          	fadd.s	f16,f0,f0,rne
	...
   946e9c9c8:	9001                	.insn	2, 0x9001
   946e9c9ca:	f8b5                	.insn	2, 0xf8b5
   946e9c9cc:	00ca                	.insn	2, 0x00ca
	...
   946e9ccb6:	0000                	.insn	2, 0x0000
   946e9ccb8:	a801                	.insn	2, 0xa801
   946e9ccba:	00002813          	slti	x16,x0,0
	...

Disassembly of section .__pagetable_map_os_0x000000fee53d2000:

000000fee53d2000 <__pagetable_map_os_0x000000fee53d2000>:
  fee53d2000:	d801                	.insn	2, 0xd801
  fee53d2002:	2845                	.insn	2, 0x2845
  fee53d2004:	03d9                	.insn	2, 0x03d9
  fee53d2006:	0000                	.insn	2, 0x0000
  fee53d2008:	8001                	.insn	2, 0x8001
  fee53d200a:	5c0e                	.insn	2, 0x5c0e
  fee53d200c:	1d06                	.insn	2, 0x1d06
	...

Disassembly of section .__pagetable_map_os_0x00000f64a1176000:

00000f64a1176000 <__pagetable_map_os_0x00000f64a1176000>:
	...
 f64a1176080:	40df 2000 0000      	.insn	6, 0x200040df
 f64a1176086:	0000                	.insn	2, 0x0000
 f64a1176088:	200044cf          	fnmadd.s	f9,f0,f0,f4,rmm
 f64a117608c:	0000                	.insn	2, 0x0000
 f64a117608e:	0000                	.insn	2, 0x0000
 f64a1176090:	200048cf          	fnmadd.s	f17,f0,f0,f4,rmm
 f64a1176094:	0000                	.insn	2, 0x0000
 f64a1176096:	0000                	.insn	2, 0x0000
 f64a1176098:	20004ccf          	fnmadd.s	f25,f0,f0,f4,rmm
 f64a117609c:	0000                	.insn	2, 0x0000
 f64a117609e:	0000                	.insn	2, 0x0000
 f64a11760a0:	200050cf          	fnmadd.s	f1,f0,f0,f4,unknown
 f64a11760a4:	0000                	.insn	2, 0x0000
 f64a11760a6:	0000                	.insn	2, 0x0000
 f64a11760a8:	00df 0b28 0007      	.insn	6, 0x00070b2800df
 f64a11760ae:	0000                	.insn	2, 0x0000
 f64a11760b0:	04df 0b28 0007      	.insn	6, 0x00070b2804df
 f64a11760b6:	0000                	.insn	2, 0x0000
 f64a11760b8:	08df 0b28 0007      	.insn	6, 0x00070b2808df
 f64a11760be:	0000                	.insn	2, 0x0000
 f64a11760c0:	0cdf 0b28 0007      	.insn	6, 0x00070b280cdf
 f64a11760c6:	0000                	.insn	2, 0x0000
 f64a11760c8:	10df 0b28 0007      	.insn	6, 0x00070b2810df
 f64a11760ce:	0000                	.insn	2, 0x0000
 f64a11760d0:	14df 0b28 0007      	.insn	6, 0x00070b2814df
 f64a11760d6:	0000                	.insn	2, 0x0000
 f64a11760d8:	18df 0b28 0007      	.insn	6, 0x00070b2818df
 f64a11760de:	0000                	.insn	2, 0x0000
 f64a11760e0:	1cdf 0b28 0007      	.insn	6, 0x00070b281cdf
 f64a11760e6:	0000                	.insn	2, 0x0000
 f64a11760e8:	20df 0b28 0007      	.insn	6, 0x00070b2820df
 f64a11760ee:	0000                	.insn	2, 0x0000
 f64a11760f0:	24df 0b28 0007      	.insn	6, 0x00070b2824df
 f64a11760f6:	0000                	.insn	2, 0x0000
 f64a11760f8:	28df 0b28 0007      	.insn	6, 0x00070b2828df
 f64a11760fe:	0000                	.insn	2, 0x0000
 f64a1176100:	2cdf 0b28 0007      	.insn	6, 0x00070b282cdf
 f64a1176106:	0000                	.insn	2, 0x0000
 f64a1176108:	30df 0b28 0007      	.insn	6, 0x00070b2830df
 f64a117610e:	0000                	.insn	2, 0x0000
 f64a1176110:	34df 0b28 0007      	.insn	6, 0x00070b2834df
 f64a1176116:	0000                	.insn	2, 0x0000
 f64a1176118:	38df 0b28 0007      	.insn	6, 0x00070b2838df
 f64a117611e:	0000                	.insn	2, 0x0000
 f64a1176120:	3cdf 0b28 0007      	.insn	6, 0x00070b283cdf
 f64a1176126:	0000                	.insn	2, 0x0000
 f64a1176128:	40df 0b28 0007      	.insn	6, 0x00070b2840df
 f64a117612e:	0000                	.insn	2, 0x0000
 f64a1176130:	44df 0b28 0007      	.insn	6, 0x00070b2844df
 f64a1176136:	0000                	.insn	2, 0x0000
 f64a1176138:	48df 0b28 0007      	.insn	6, 0x00070b2848df
 f64a117613e:	0000                	.insn	2, 0x0000
 f64a1176140:	4cdf 0b28 0007      	.insn	6, 0x00070b284cdf
 f64a1176146:	0000                	.insn	2, 0x0000
 f64a1176148:	50df 0b28 0007      	.insn	6, 0x00070b2850df
 f64a117614e:	0000                	.insn	2, 0x0000
 f64a1176150:	54df 0b28 0007      	.insn	6, 0x00070b2854df
 f64a1176156:	0000                	.insn	2, 0x0000
 f64a1176158:	58df 0b28 0007      	.insn	6, 0x00070b2858df
 f64a117615e:	0000                	.insn	2, 0x0000
 f64a1176160:	5cdf 0b28 0007      	.insn	6, 0x00070b285cdf
 f64a1176166:	0000                	.insn	2, 0x0000
 f64a1176168:	60df 0b28 0007      	.insn	6, 0x00070b2860df
 f64a117616e:	0000                	.insn	2, 0x0000
 f64a1176170:	64df 0b28 0007      	.insn	6, 0x00070b2864df
 f64a1176176:	0000                	.insn	2, 0x0000
 f64a1176178:	68df 0b28 0007      	.insn	6, 0x00070b2868df
 f64a117617e:	0000                	.insn	2, 0x0000
 f64a1176180:	6cdf 0b28 0007      	.insn	6, 0x00070b286cdf
 f64a1176186:	0000                	.insn	2, 0x0000
 f64a1176188:	70df 0b28 0007      	.insn	6, 0x00070b2870df
 f64a117618e:	0000                	.insn	2, 0x0000
 f64a1176190:	74df 0b28 0007      	.insn	6, 0x00070b2874df
 f64a1176196:	0000                	.insn	2, 0x0000
 f64a1176198:	78df 0b28 0007      	.insn	6, 0x00070b2878df
 f64a117619e:	0000                	.insn	2, 0x0000
 f64a11761a0:	7cdf 0b28 0007      	.insn	6, 0x00070b287cdf
 f64a11761a6:	0000                	.insn	2, 0x0000
 f64a11761a8:	80df 0b28 0007      	.insn	6, 0x00070b2880df
 f64a11761ae:	0000                	.insn	2, 0x0000
 f64a11761b0:	84df 0b28 0007      	.insn	6, 0x00070b2884df
 f64a11761b6:	0000                	.insn	2, 0x0000
 f64a11761b8:	88df 0b28 0007      	.insn	6, 0x00070b2888df
 f64a11761be:	0000                	.insn	2, 0x0000
 f64a11761c0:	8cdf 0b28 0007      	.insn	6, 0x00070b288cdf
 f64a11761c6:	0000                	.insn	2, 0x0000
 f64a11761c8:	90df 0b28 0007      	.insn	6, 0x00070b2890df
 f64a11761ce:	0000                	.insn	2, 0x0000
 f64a11761d0:	94df 0b28 0007      	.insn	6, 0x00070b2894df
 f64a11761d6:	0000                	.insn	2, 0x0000
 f64a11761d8:	98df 0b28 0007      	.insn	6, 0x00070b2898df
 f64a11761de:	0000                	.insn	2, 0x0000
 f64a11761e0:	9cdf 0b28 0007      	.insn	6, 0x00070b289cdf
 f64a11761e6:	0000                	.insn	2, 0x0000
 f64a11761e8:	a0df 0b28 0007      	.insn	6, 0x00070b28a0df
 f64a11761ee:	0000                	.insn	2, 0x0000
 f64a11761f0:	a4df 0b28 0007      	.insn	6, 0x00070b28a4df
 f64a11761f6:	0000                	.insn	2, 0x0000
 f64a11761f8:	a8df 0b28 0007      	.insn	6, 0x00070b28a8df
 f64a11761fe:	0000                	.insn	2, 0x0000
 f64a1176200:	acdf 0b28 0007      	.insn	6, 0x00070b28acdf
 f64a1176206:	0000                	.insn	2, 0x0000
 f64a1176208:	b0df 0b28 0007      	.insn	6, 0x00070b28b0df
 f64a117620e:	0000                	.insn	2, 0x0000
 f64a1176210:	b4df 0b28 0007      	.insn	6, 0x00070b28b4df
 f64a1176216:	0000                	.insn	2, 0x0000
 f64a1176218:	b8df 0b28 0007      	.insn	6, 0x00070b28b8df
 f64a117621e:	0000                	.insn	2, 0x0000
 f64a1176220:	bcdf 0b28 0007      	.insn	6, 0x00070b28bcdf
 f64a1176226:	0000                	.insn	2, 0x0000
 f64a1176228:	c0df 0b28 0007      	.insn	6, 0x00070b28c0df
 f64a117622e:	0000                	.insn	2, 0x0000
 f64a1176230:	c4df 0b28 0007      	.insn	6, 0x00070b28c4df
 f64a1176236:	0000                	.insn	2, 0x0000
 f64a1176238:	c8df 0b28 0007      	.insn	6, 0x00070b28c8df
 f64a117623e:	0000                	.insn	2, 0x0000
 f64a1176240:	ccdf 0b28 0007      	.insn	6, 0x00070b28ccdf
 f64a1176246:	0000                	.insn	2, 0x0000
 f64a1176248:	d0df 0b28 0007      	.insn	6, 0x00070b28d0df
 f64a117624e:	0000                	.insn	2, 0x0000
 f64a1176250:	d4df 0b28 0007      	.insn	6, 0x00070b28d4df
 f64a1176256:	0000                	.insn	2, 0x0000
 f64a1176258:	d8df 0b28 0007      	.insn	6, 0x00070b28d8df
 f64a117625e:	0000                	.insn	2, 0x0000
 f64a1176260:	dcdf 0b28 0007      	.insn	6, 0x00070b28dcdf
 f64a1176266:	0000                	.insn	2, 0x0000
 f64a1176268:	e0df 0b28 0007      	.insn	6, 0x00070b28e0df
 f64a117626e:	0000                	.insn	2, 0x0000
 f64a1176270:	e4df 0b28 0007      	.insn	6, 0x00070b28e4df
 f64a1176276:	0000                	.insn	2, 0x0000
 f64a1176278:	e8df 0b28 0007      	.insn	6, 0x00070b28e8df
 f64a117627e:	0000                	.insn	2, 0x0000
 f64a1176280:	ecdf 0b28 0007      	.insn	6, 0x00070b28ecdf
 f64a1176286:	0000                	.insn	2, 0x0000
 f64a1176288:	f0df 0b28 0007      	.insn	6, 0x00070b28f0df
 f64a117628e:	0000                	.insn	2, 0x0000
 f64a1176290:	f4df 0b28 0007      	.insn	6, 0x00070b28f4df
 f64a1176296:	0000                	.insn	2, 0x0000
 f64a1176298:	f8df 0b28 0007      	.insn	6, 0x00070b28f8df
 f64a117629e:	0000                	.insn	2, 0x0000
 f64a11762a0:	fcdf 0b28 0007      	.insn	6, 0x00070b28fcdf
 f64a11762a6:	0000                	.insn	2, 0x0000
 f64a11762a8:	00df 0b29 0007      	.insn	6, 0x00070b2900df
 f64a11762ae:	0000                	.insn	2, 0x0000
 f64a11762b0:	04df 0b29 0007      	.insn	6, 0x00070b2904df
 f64a11762b6:	0000                	.insn	2, 0x0000
 f64a11762b8:	08df 0b29 0007      	.insn	6, 0x00070b2908df
 f64a11762be:	0000                	.insn	2, 0x0000
 f64a11762c0:	0cdf 0b29 0007      	.insn	6, 0x00070b290cdf
 f64a11762c6:	0000                	.insn	2, 0x0000
 f64a11762c8:	10df 0b29 0007      	.insn	6, 0x00070b2910df
 f64a11762ce:	0000                	.insn	2, 0x0000
 f64a11762d0:	14df 0b29 0007      	.insn	6, 0x00070b2914df
 f64a11762d6:	0000                	.insn	2, 0x0000
 f64a11762d8:	18df 0b29 0007      	.insn	6, 0x00070b2918df
 f64a11762de:	0000                	.insn	2, 0x0000
 f64a11762e0:	1cdf 0b29 0007      	.insn	6, 0x00070b291cdf
 f64a11762e6:	0000                	.insn	2, 0x0000
 f64a11762e8:	20df 0b29 0007      	.insn	6, 0x00070b2920df
 f64a11762ee:	0000                	.insn	2, 0x0000
 f64a11762f0:	24df 0b29 0007      	.insn	6, 0x00070b2924df
 f64a11762f6:	0000                	.insn	2, 0x0000
 f64a11762f8:	28df 0b29 0007      	.insn	6, 0x00070b2928df
 f64a11762fe:	0000                	.insn	2, 0x0000
 f64a1176300:	2cdf 0b29 0007      	.insn	6, 0x00070b292cdf
 f64a1176306:	0000                	.insn	2, 0x0000
 f64a1176308:	30df 0b29 0007      	.insn	6, 0x00070b2930df
 f64a117630e:	0000                	.insn	2, 0x0000
 f64a1176310:	34df 0b29 0007      	.insn	6, 0x00070b2934df
 f64a1176316:	0000                	.insn	2, 0x0000
 f64a1176318:	38df 0b29 0007      	.insn	6, 0x00070b2938df
 f64a117631e:	0000                	.insn	2, 0x0000
 f64a1176320:	3cdf 0b29 0007      	.insn	6, 0x00070b293cdf
 f64a1176326:	0000                	.insn	2, 0x0000
 f64a1176328:	40df 0b29 0007      	.insn	6, 0x00070b2940df
 f64a117632e:	0000                	.insn	2, 0x0000
 f64a1176330:	44df 0b29 0007      	.insn	6, 0x00070b2944df
 f64a1176336:	0000                	.insn	2, 0x0000
 f64a1176338:	48df 0b29 0007      	.insn	6, 0x00070b2948df
 f64a117633e:	0000                	.insn	2, 0x0000
 f64a1176340:	4cdf 0b29 0007      	.insn	6, 0x00070b294cdf
 f64a1176346:	0000                	.insn	2, 0x0000
 f64a1176348:	50df 0b29 0007      	.insn	6, 0x00070b2950df
 f64a117634e:	0000                	.insn	2, 0x0000
 f64a1176350:	54df 0b29 0007      	.insn	6, 0x00070b2954df
 f64a1176356:	0000                	.insn	2, 0x0000
 f64a1176358:	58df 0b29 0007      	.insn	6, 0x00070b2958df
 f64a117635e:	0000                	.insn	2, 0x0000
 f64a1176360:	5cdf 0b29 0007      	.insn	6, 0x00070b295cdf
 f64a1176366:	0000                	.insn	2, 0x0000
 f64a1176368:	60df 0b29 0007      	.insn	6, 0x00070b2960df
 f64a117636e:	0000                	.insn	2, 0x0000
 f64a1176370:	64df 0b29 0007      	.insn	6, 0x00070b2964df
 f64a1176376:	0000                	.insn	2, 0x0000
 f64a1176378:	68df 0b29 0007      	.insn	6, 0x00070b2968df
 f64a117637e:	0000                	.insn	2, 0x0000
 f64a1176380:	6cdf 0b29 0007      	.insn	6, 0x00070b296cdf
 f64a1176386:	0000                	.insn	2, 0x0000
 f64a1176388:	70df 0b29 0007      	.insn	6, 0x00070b2970df
 f64a117638e:	0000                	.insn	2, 0x0000
 f64a1176390:	74df 0b29 0007      	.insn	6, 0x00070b2974df
 f64a1176396:	0000                	.insn	2, 0x0000
 f64a1176398:	78df 0b29 0007      	.insn	6, 0x00070b2978df
 f64a117639e:	0000                	.insn	2, 0x0000
 f64a11763a0:	7cdf 0b29 0007      	.insn	6, 0x00070b297cdf
 f64a11763a6:	0000                	.insn	2, 0x0000
 f64a11763a8:	80df 0b29 0007      	.insn	6, 0x00070b2980df
 f64a11763ae:	0000                	.insn	2, 0x0000
 f64a11763b0:	84df 0b29 0007      	.insn	6, 0x00070b2984df
 f64a11763b6:	0000                	.insn	2, 0x0000
 f64a11763b8:	88df 0b29 0007      	.insn	6, 0x00070b2988df
 f64a11763be:	0000                	.insn	2, 0x0000
 f64a11763c0:	8cdf 0b29 0007      	.insn	6, 0x00070b298cdf
 f64a11763c6:	0000                	.insn	2, 0x0000
 f64a11763c8:	90df 0b29 0007      	.insn	6, 0x00070b2990df
 f64a11763ce:	0000                	.insn	2, 0x0000
 f64a11763d0:	94df 0b29 0007      	.insn	6, 0x00070b2994df
 f64a11763d6:	0000                	.insn	2, 0x0000
 f64a11763d8:	98df 0b29 0007      	.insn	6, 0x00070b2998df
 f64a11763de:	0000                	.insn	2, 0x0000
 f64a11763e0:	9cdf 0b29 0007      	.insn	6, 0x00070b299cdf
 f64a11763e6:	0000                	.insn	2, 0x0000
 f64a11763e8:	a0df 0b29 0007      	.insn	6, 0x00070b29a0df
 f64a11763ee:	0000                	.insn	2, 0x0000
 f64a11763f0:	a4df 0b29 0007      	.insn	6, 0x00070b29a4df
 f64a11763f6:	0000                	.insn	2, 0x0000
 f64a11763f8:	a8df 0b29 0007      	.insn	6, 0x00070b29a8df
 f64a11763fe:	0000                	.insn	2, 0x0000
 f64a1176400:	acdf 0b29 0007      	.insn	6, 0x00070b29acdf
 f64a1176406:	0000                	.insn	2, 0x0000
 f64a1176408:	b0df 0b29 0007      	.insn	6, 0x00070b29b0df
 f64a117640e:	0000                	.insn	2, 0x0000
 f64a1176410:	b4df 0b29 0007      	.insn	6, 0x00070b29b4df
 f64a1176416:	0000                	.insn	2, 0x0000
 f64a1176418:	b8df 0b29 0007      	.insn	6, 0x00070b29b8df
 f64a117641e:	0000                	.insn	2, 0x0000
 f64a1176420:	bcdf 0b29 0007      	.insn	6, 0x00070b29bcdf
 f64a1176426:	0000                	.insn	2, 0x0000
 f64a1176428:	c0df 0b29 0007      	.insn	6, 0x00070b29c0df
 f64a117642e:	0000                	.insn	2, 0x0000
 f64a1176430:	c4df 0b29 0007      	.insn	6, 0x00070b29c4df
 f64a1176436:	0000                	.insn	2, 0x0000
 f64a1176438:	c8df 0b29 0007      	.insn	6, 0x00070b29c8df
 f64a117643e:	0000                	.insn	2, 0x0000
 f64a1176440:	ccdf 0b29 0007      	.insn	6, 0x00070b29ccdf
 f64a1176446:	0000                	.insn	2, 0x0000
 f64a1176448:	d0df 0b29 0007      	.insn	6, 0x00070b29d0df
 f64a117644e:	0000                	.insn	2, 0x0000
 f64a1176450:	d4df 0b29 0007      	.insn	6, 0x00070b29d4df
 f64a1176456:	0000                	.insn	2, 0x0000
 f64a1176458:	d8df 0b29 0007      	.insn	6, 0x00070b29d8df
 f64a117645e:	0000                	.insn	2, 0x0000
 f64a1176460:	dcdf 0b29 0007      	.insn	6, 0x00070b29dcdf
 f64a1176466:	0000                	.insn	2, 0x0000
 f64a1176468:	e0df 0b29 0007      	.insn	6, 0x00070b29e0df
 f64a117646e:	0000                	.insn	2, 0x0000
 f64a1176470:	e4df 0b29 0007      	.insn	6, 0x00070b29e4df
 f64a1176476:	0000                	.insn	2, 0x0000
 f64a1176478:	e8df 0b29 0007      	.insn	6, 0x00070b29e8df
 f64a117647e:	0000                	.insn	2, 0x0000
 f64a1176480:	ecdf 0b29 0007      	.insn	6, 0x00070b29ecdf
 f64a1176486:	0000                	.insn	2, 0x0000
 f64a1176488:	f0df 0b29 0007      	.insn	6, 0x00070b29f0df
 f64a117648e:	0000                	.insn	2, 0x0000
 f64a1176490:	f4df 0b29 0007      	.insn	6, 0x00070b29f4df
 f64a1176496:	0000                	.insn	2, 0x0000
 f64a1176498:	f8df 0b29 0007      	.insn	6, 0x00070b29f8df
 f64a117649e:	0000                	.insn	2, 0x0000
 f64a11764a0:	fcdf 0b29 0007      	.insn	6, 0x00070b29fcdf
 f64a11764a6:	0000                	.insn	2, 0x0000
 f64a11764a8:	0b2a00cf          	fnmadd.d	f1,f20,f18,f1,rne
 f64a11764ac:	00000007          	vle8.v	v0,(x0),v0.t
 f64a11764b0:	0b2a04cf          	fnmadd.d	f9,f20,f18,f1,rne
 f64a11764b4:	00000007          	vle8.v	v0,(x0),v0.t
 f64a11764b8:	0b2a08cf          	fnmadd.d	f17,f20,f18,f1,rne
 f64a11764bc:	00000007          	vle8.v	v0,(x0),v0.t
 f64a11764c0:	0b2a0ccf          	fnmadd.d	f25,f20,f18,f1,rne
 f64a11764c4:	00000007          	vle8.v	v0,(x0),v0.t
 f64a11764c8:	0b2a10cf          	fnmadd.d	f1,f20,f18,f1,rtz
 f64a11764cc:	00000007          	vle8.v	v0,(x0),v0.t
 f64a11764d0:	0b2a14cf          	fnmadd.d	f9,f20,f18,f1,rtz
 f64a11764d4:	00000007          	vle8.v	v0,(x0),v0.t
 f64a11764d8:	0b2a18cf          	fnmadd.d	f17,f20,f18,f1,rtz
 f64a11764dc:	00000007          	vle8.v	v0,(x0),v0.t
 f64a11764e0:	0b2a1ccf          	fnmadd.d	f25,f20,f18,f1,rtz
 f64a11764e4:	00000007          	vle8.v	v0,(x0),v0.t
 f64a11764e8:	0b2a20cf          	fnmadd.d	f1,f20,f18,f1,rdn
 f64a11764ec:	00000007          	vle8.v	v0,(x0),v0.t
 f64a11764f0:	0b2a24cf          	fnmadd.d	f9,f20,f18,f1,rdn
 f64a11764f4:	00000007          	vle8.v	v0,(x0),v0.t
 f64a11764f8:	0b2a28cf          	fnmadd.d	f17,f20,f18,f1,rdn
 f64a11764fc:	00000007          	vle8.v	v0,(x0),v0.t
 f64a1176500:	0b2a2ccf          	fnmadd.d	f25,f20,f18,f1,rdn
 f64a1176504:	00000007          	vle8.v	v0,(x0),v0.t
 f64a1176508:	0b2a30cf          	fnmadd.d	f1,f20,f18,f1,rup
 f64a117650c:	00000007          	vle8.v	v0,(x0),v0.t
 f64a1176510:	0b2a34cf          	fnmadd.d	f9,f20,f18,f1,rup
 f64a1176514:	00000007          	vle8.v	v0,(x0),v0.t
 f64a1176518:	0b2a38cf          	fnmadd.d	f17,f20,f18,f1,rup
 f64a117651c:	00000007          	vle8.v	v0,(x0),v0.t
 f64a1176520:	0b2a3ccf          	fnmadd.d	f25,f20,f18,f1,rup
 f64a1176524:	00000007          	vle8.v	v0,(x0),v0.t
 f64a1176528:	0b2a40cf          	fnmadd.d	f1,f20,f18,f1,rmm
 f64a117652c:	00000007          	vle8.v	v0,(x0),v0.t
 f64a1176530:	0b2a44cf          	fnmadd.d	f9,f20,f18,f1,rmm
 f64a1176534:	00000007          	vle8.v	v0,(x0),v0.t
 f64a1176538:	0b2a48cf          	fnmadd.d	f17,f20,f18,f1,rmm
 f64a117653c:	00000007          	vle8.v	v0,(x0),v0.t
 f64a1176540:	0b2a4ccf          	fnmadd.d	f25,f20,f18,f1,rmm
 f64a1176544:	00000007          	vle8.v	v0,(x0),v0.t
 f64a1176548:	0b2a50cf          	fnmadd.d	f1,f20,f18,f1,unknown
 f64a117654c:	00000007          	vle8.v	v0,(x0),v0.t
 f64a1176550:	0b2a54cf          	fnmadd.d	f9,f20,f18,f1,unknown
 f64a1176554:	00000007          	vle8.v	v0,(x0),v0.t
 f64a1176558:	0b2a58cf          	fnmadd.d	f17,f20,f18,f1,unknown
 f64a117655c:	00000007          	vle8.v	v0,(x0),v0.t
 f64a1176560:	0b2a5ccf          	fnmadd.d	f25,f20,f18,f1,unknown
 f64a1176564:	00000007          	vle8.v	v0,(x0),v0.t
 f64a1176568:	0b2a60cf          	fnmadd.d	f1,f20,f18,f1,unknown
 f64a117656c:	00000007          	vle8.v	v0,(x0),v0.t
 f64a1176570:	0b2a64cf          	fnmadd.d	f9,f20,f18,f1,unknown
 f64a1176574:	00000007          	vle8.v	v0,(x0),v0.t
 f64a1176578:	0b2a68cf          	fnmadd.d	f17,f20,f18,f1,unknown
 f64a117657c:	00000007          	vle8.v	v0,(x0),v0.t
 f64a1176580:	0b2a6ccf          	fnmadd.d	f25,f20,f18,f1,unknown
 f64a1176584:	00000007          	vle8.v	v0,(x0),v0.t
 f64a1176588:	0b2a70cf          	fnmadd.d	f1,f20,f18,f1
 f64a117658c:	00000007          	vle8.v	v0,(x0),v0.t
 f64a1176590:	0b2a74cf          	fnmadd.d	f9,f20,f18,f1
 f64a1176594:	00000007          	vle8.v	v0,(x0),v0.t
 f64a1176598:	0b2a78cf          	fnmadd.d	f17,f20,f18,f1
 f64a117659c:	00000007          	vle8.v	v0,(x0),v0.t
 f64a11765a0:	0b2a7ccf          	fnmadd.d	f25,f20,f18,f1
 f64a11765a4:	00000007          	vle8.v	v0,(x0),v0.t
 f64a11765a8:	0b2a80cf          	fnmadd.d	f1,f21,f18,f1,rne
 f64a11765ac:	00000007          	vle8.v	v0,(x0),v0.t
 f64a11765b0:	0b2a84cf          	fnmadd.d	f9,f21,f18,f1,rne
 f64a11765b4:	00000007          	vle8.v	v0,(x0),v0.t
 f64a11765b8:	0b2a88cf          	fnmadd.d	f17,f21,f18,f1,rne
 f64a11765bc:	00000007          	vle8.v	v0,(x0),v0.t
 f64a11765c0:	0b2a8ccf          	fnmadd.d	f25,f21,f18,f1,rne
 f64a11765c4:	00000007          	vle8.v	v0,(x0),v0.t
 f64a11765c8:	0b2a90cf          	fnmadd.d	f1,f21,f18,f1,rtz
 f64a11765cc:	00000007          	vle8.v	v0,(x0),v0.t
 f64a11765d0:	0b2a94cf          	fnmadd.d	f9,f21,f18,f1,rtz
 f64a11765d4:	00000007          	vle8.v	v0,(x0),v0.t
 f64a11765d8:	0b2a98cf          	fnmadd.d	f17,f21,f18,f1,rtz
 f64a11765dc:	00000007          	vle8.v	v0,(x0),v0.t
 f64a11765e0:	0b2a9ccf          	fnmadd.d	f25,f21,f18,f1,rtz
 f64a11765e4:	00000007          	vle8.v	v0,(x0),v0.t
 f64a11765e8:	0b2aa0cf          	fnmadd.d	f1,f21,f18,f1,rdn
 f64a11765ec:	00000007          	vle8.v	v0,(x0),v0.t
 f64a11765f0:	0b2aa4cf          	fnmadd.d	f9,f21,f18,f1,rdn
 f64a11765f4:	00000007          	vle8.v	v0,(x0),v0.t
 f64a11765f8:	0b2aa8cf          	fnmadd.d	f17,f21,f18,f1,rdn
 f64a11765fc:	00000007          	vle8.v	v0,(x0),v0.t
 f64a1176600:	0b2aaccf          	fnmadd.d	f25,f21,f18,f1,rdn
 f64a1176604:	00000007          	vle8.v	v0,(x0),v0.t
 f64a1176608:	0b2ab0cf          	fnmadd.d	f1,f21,f18,f1,rup
 f64a117660c:	00000007          	vle8.v	v0,(x0),v0.t
 f64a1176610:	0b2ab4cf          	fnmadd.d	f9,f21,f18,f1,rup
 f64a1176614:	00000007          	vle8.v	v0,(x0),v0.t
 f64a1176618:	0b2ab8cf          	fnmadd.d	f17,f21,f18,f1,rup
 f64a117661c:	00000007          	vle8.v	v0,(x0),v0.t
 f64a1176620:	0b2abccf          	fnmadd.d	f25,f21,f18,f1,rup
 f64a1176624:	00000007          	vle8.v	v0,(x0),v0.t
 f64a1176628:	0b2ac0cf          	fnmadd.d	f1,f21,f18,f1,rmm
 f64a117662c:	00000007          	vle8.v	v0,(x0),v0.t
 f64a1176630:	0b2ac4cf          	fnmadd.d	f9,f21,f18,f1,rmm
 f64a1176634:	00000007          	vle8.v	v0,(x0),v0.t
 f64a1176638:	0b2ac8cf          	fnmadd.d	f17,f21,f18,f1,rmm
 f64a117663c:	00000007          	vle8.v	v0,(x0),v0.t
 f64a1176640:	0b2acccf          	fnmadd.d	f25,f21,f18,f1,rmm
 f64a1176644:	00000007          	vle8.v	v0,(x0),v0.t
 f64a1176648:	0b2ad0cf          	fnmadd.d	f1,f21,f18,f1,unknown
 f64a117664c:	00000007          	vle8.v	v0,(x0),v0.t
 f64a1176650:	0b2ad4cf          	fnmadd.d	f9,f21,f18,f1,unknown
 f64a1176654:	00000007          	vle8.v	v0,(x0),v0.t
 f64a1176658:	0b2ad8cf          	fnmadd.d	f17,f21,f18,f1,unknown
 f64a117665c:	00000007          	vle8.v	v0,(x0),v0.t
 f64a1176660:	0b2adccf          	fnmadd.d	f25,f21,f18,f1,unknown
 f64a1176664:	00000007          	vle8.v	v0,(x0),v0.t
 f64a1176668:	0b2ae0cf          	fnmadd.d	f1,f21,f18,f1,unknown
 f64a117666c:	00000007          	vle8.v	v0,(x0),v0.t
 f64a1176670:	0b2ae4cf          	fnmadd.d	f9,f21,f18,f1,unknown
 f64a1176674:	00000007          	vle8.v	v0,(x0),v0.t
 f64a1176678:	0b2ae8cf          	fnmadd.d	f17,f21,f18,f1,unknown
 f64a117667c:	00000007          	vle8.v	v0,(x0),v0.t
 f64a1176680:	0b2aeccf          	fnmadd.d	f25,f21,f18,f1,unknown
 f64a1176684:	00000007          	vle8.v	v0,(x0),v0.t
 f64a1176688:	0b2af0cf          	fnmadd.d	f1,f21,f18,f1
 f64a117668c:	00000007          	vle8.v	v0,(x0),v0.t
 f64a1176690:	0b2af4cf          	fnmadd.d	f9,f21,f18,f1
 f64a1176694:	00000007          	vle8.v	v0,(x0),v0.t
 f64a1176698:	0b2af8cf          	fnmadd.d	f17,f21,f18,f1
 f64a117669c:	00000007          	vle8.v	v0,(x0),v0.t
 f64a11766a0:	0b2afccf          	fnmadd.d	f25,f21,f18,f1
 f64a11766a4:	00000007          	vle8.v	v0,(x0),v0.t
 f64a11766a8:	0b2b00cf          	fnmadd.d	f1,f22,f18,f1,rne
 f64a11766ac:	00000007          	vle8.v	v0,(x0),v0.t
 f64a11766b0:	0b2b04cf          	fnmadd.d	f9,f22,f18,f1,rne
 f64a11766b4:	00000007          	vle8.v	v0,(x0),v0.t
 f64a11766b8:	0b2b08cf          	fnmadd.d	f17,f22,f18,f1,rne
 f64a11766bc:	00000007          	vle8.v	v0,(x0),v0.t
 f64a11766c0:	0b2b0ccf          	fnmadd.d	f25,f22,f18,f1,rne
 f64a11766c4:	00000007          	vle8.v	v0,(x0),v0.t
 f64a11766c8:	0b2b10cf          	fnmadd.d	f1,f22,f18,f1,rtz
 f64a11766cc:	00000007          	vle8.v	v0,(x0),v0.t
 f64a11766d0:	0b2b14cf          	fnmadd.d	f9,f22,f18,f1,rtz
 f64a11766d4:	00000007          	vle8.v	v0,(x0),v0.t
 f64a11766d8:	0b2b18cf          	fnmadd.d	f17,f22,f18,f1,rtz
 f64a11766dc:	00000007          	vle8.v	v0,(x0),v0.t
 f64a11766e0:	0b2b1ccf          	fnmadd.d	f25,f22,f18,f1,rtz
 f64a11766e4:	00000007          	vle8.v	v0,(x0),v0.t
 f64a11766e8:	0b2b20cf          	fnmadd.d	f1,f22,f18,f1,rdn
 f64a11766ec:	00000007          	vle8.v	v0,(x0),v0.t
 f64a11766f0:	0b2b24cf          	fnmadd.d	f9,f22,f18,f1,rdn
 f64a11766f4:	00000007          	vle8.v	v0,(x0),v0.t
 f64a11766f8:	0b2b28cf          	fnmadd.d	f17,f22,f18,f1,rdn
 f64a11766fc:	00000007          	vle8.v	v0,(x0),v0.t
 f64a1176700:	0b2b2ccf          	fnmadd.d	f25,f22,f18,f1,rdn
 f64a1176704:	00000007          	vle8.v	v0,(x0),v0.t
 f64a1176708:	0b2b30cf          	fnmadd.d	f1,f22,f18,f1,rup
 f64a117670c:	00000007          	vle8.v	v0,(x0),v0.t
 f64a1176710:	0b2b34cf          	fnmadd.d	f9,f22,f18,f1,rup
 f64a1176714:	00000007          	vle8.v	v0,(x0),v0.t
 f64a1176718:	0b2b38cf          	fnmadd.d	f17,f22,f18,f1,rup
 f64a117671c:	00000007          	vle8.v	v0,(x0),v0.t
 f64a1176720:	0b2b3ccf          	fnmadd.d	f25,f22,f18,f1,rup
 f64a1176724:	00000007          	vle8.v	v0,(x0),v0.t
 f64a1176728:	0b2b40cf          	fnmadd.d	f1,f22,f18,f1,rmm
 f64a117672c:	00000007          	vle8.v	v0,(x0),v0.t
 f64a1176730:	0b2b44cf          	fnmadd.d	f9,f22,f18,f1,rmm
 f64a1176734:	00000007          	vle8.v	v0,(x0),v0.t
 f64a1176738:	0b2b48cf          	fnmadd.d	f17,f22,f18,f1,rmm
 f64a117673c:	00000007          	vle8.v	v0,(x0),v0.t
 f64a1176740:	0b2b4ccf          	fnmadd.d	f25,f22,f18,f1,rmm
 f64a1176744:	00000007          	vle8.v	v0,(x0),v0.t
 f64a1176748:	0b2b50cf          	fnmadd.d	f1,f22,f18,f1,unknown
 f64a117674c:	00000007          	vle8.v	v0,(x0),v0.t
 f64a1176750:	0b2b54cf          	fnmadd.d	f9,f22,f18,f1,unknown
 f64a1176754:	00000007          	vle8.v	v0,(x0),v0.t
 f64a1176758:	0b2b58cf          	fnmadd.d	f17,f22,f18,f1,unknown
 f64a117675c:	00000007          	vle8.v	v0,(x0),v0.t
 f64a1176760:	0b2b5ccf          	fnmadd.d	f25,f22,f18,f1,unknown
 f64a1176764:	00000007          	vle8.v	v0,(x0),v0.t
 f64a1176768:	0b2b60cf          	fnmadd.d	f1,f22,f18,f1,unknown
 f64a117676c:	00000007          	vle8.v	v0,(x0),v0.t
 f64a1176770:	0b2b64cf          	fnmadd.d	f9,f22,f18,f1,unknown
 f64a1176774:	00000007          	vle8.v	v0,(x0),v0.t
 f64a1176778:	0b2b68cf          	fnmadd.d	f17,f22,f18,f1,unknown
 f64a117677c:	00000007          	vle8.v	v0,(x0),v0.t
 f64a1176780:	0b2b6ccf          	fnmadd.d	f25,f22,f18,f1,unknown
 f64a1176784:	00000007          	vle8.v	v0,(x0),v0.t
 f64a1176788:	0b2b70cf          	fnmadd.d	f1,f22,f18,f1
 f64a117678c:	00000007          	vle8.v	v0,(x0),v0.t
 f64a1176790:	0b2b74cf          	fnmadd.d	f9,f22,f18,f1
 f64a1176794:	00000007          	vle8.v	v0,(x0),v0.t
 f64a1176798:	0b2b78cf          	fnmadd.d	f17,f22,f18,f1
 f64a117679c:	00000007          	vle8.v	v0,(x0),v0.t
 f64a11767a0:	0b2b7ccf          	fnmadd.d	f25,f22,f18,f1
 f64a11767a4:	00000007          	vle8.v	v0,(x0),v0.t
 f64a11767a8:	0b2b80cf          	fnmadd.d	f1,f23,f18,f1,rne
 f64a11767ac:	00000007          	vle8.v	v0,(x0),v0.t
 f64a11767b0:	0b2b84cf          	fnmadd.d	f9,f23,f18,f1,rne
 f64a11767b4:	00000007          	vle8.v	v0,(x0),v0.t
 f64a11767b8:	0b2b88cf          	fnmadd.d	f17,f23,f18,f1,rne
 f64a11767bc:	00000007          	vle8.v	v0,(x0),v0.t
 f64a11767c0:	0b2b8ccf          	fnmadd.d	f25,f23,f18,f1,rne
 f64a11767c4:	00000007          	vle8.v	v0,(x0),v0.t
 f64a11767c8:	0b2b90cf          	fnmadd.d	f1,f23,f18,f1,rtz
 f64a11767cc:	00000007          	vle8.v	v0,(x0),v0.t
 f64a11767d0:	0b2b94cf          	fnmadd.d	f9,f23,f18,f1,rtz
 f64a11767d4:	00000007          	vle8.v	v0,(x0),v0.t
 f64a11767d8:	0b2b98cf          	fnmadd.d	f17,f23,f18,f1,rtz
 f64a11767dc:	00000007          	vle8.v	v0,(x0),v0.t
 f64a11767e0:	0b2b9ccf          	fnmadd.d	f25,f23,f18,f1,rtz
 f64a11767e4:	00000007          	vle8.v	v0,(x0),v0.t
 f64a11767e8:	0b2ba0cf          	fnmadd.d	f1,f23,f18,f1,rdn
 f64a11767ec:	00000007          	vle8.v	v0,(x0),v0.t
 f64a11767f0:	0b2ba4cf          	fnmadd.d	f9,f23,f18,f1,rdn
 f64a11767f4:	00000007          	vle8.v	v0,(x0),v0.t
 f64a11767f8:	0b2ba8cf          	fnmadd.d	f17,f23,f18,f1,rdn
 f64a11767fc:	00000007          	vle8.v	v0,(x0),v0.t
 f64a1176800:	0b2baccf          	fnmadd.d	f25,f23,f18,f1,rdn
 f64a1176804:	00000007          	vle8.v	v0,(x0),v0.t
 f64a1176808:	0b2bb0cf          	fnmadd.d	f1,f23,f18,f1,rup
 f64a117680c:	00000007          	vle8.v	v0,(x0),v0.t
 f64a1176810:	0b2bb4cf          	fnmadd.d	f9,f23,f18,f1,rup
 f64a1176814:	00000007          	vle8.v	v0,(x0),v0.t
 f64a1176818:	0b2bb8cf          	fnmadd.d	f17,f23,f18,f1,rup
 f64a117681c:	00000007          	vle8.v	v0,(x0),v0.t
 f64a1176820:	0b2bbccf          	fnmadd.d	f25,f23,f18,f1,rup
 f64a1176824:	00000007          	vle8.v	v0,(x0),v0.t
 f64a1176828:	0b2bc0cf          	fnmadd.d	f1,f23,f18,f1,rmm
 f64a117682c:	00000007          	vle8.v	v0,(x0),v0.t
 f64a1176830:	0b2bc4cf          	fnmadd.d	f9,f23,f18,f1,rmm
 f64a1176834:	00000007          	vle8.v	v0,(x0),v0.t
 f64a1176838:	0b2bc8cf          	fnmadd.d	f17,f23,f18,f1,rmm
 f64a117683c:	00000007          	vle8.v	v0,(x0),v0.t
 f64a1176840:	0b2bcccf          	fnmadd.d	f25,f23,f18,f1,rmm
 f64a1176844:	00000007          	vle8.v	v0,(x0),v0.t
 f64a1176848:	0b2bd0cf          	fnmadd.d	f1,f23,f18,f1,unknown
 f64a117684c:	00000007          	vle8.v	v0,(x0),v0.t
 f64a1176850:	0b2bd4cf          	fnmadd.d	f9,f23,f18,f1,unknown
 f64a1176854:	00000007          	vle8.v	v0,(x0),v0.t
 f64a1176858:	0b2bd8cf          	fnmadd.d	f17,f23,f18,f1,unknown
 f64a117685c:	00000007          	vle8.v	v0,(x0),v0.t
 f64a1176860:	0b2bdccf          	fnmadd.d	f25,f23,f18,f1,unknown
 f64a1176864:	00000007          	vle8.v	v0,(x0),v0.t
 f64a1176868:	0b2be0cf          	fnmadd.d	f1,f23,f18,f1,unknown
 f64a117686c:	00000007          	vle8.v	v0,(x0),v0.t
 f64a1176870:	0b2be4cf          	fnmadd.d	f9,f23,f18,f1,unknown
 f64a1176874:	00000007          	vle8.v	v0,(x0),v0.t
 f64a1176878:	0b2be8cf          	fnmadd.d	f17,f23,f18,f1,unknown
 f64a117687c:	00000007          	vle8.v	v0,(x0),v0.t
 f64a1176880:	0b2beccf          	fnmadd.d	f25,f23,f18,f1,unknown
 f64a1176884:	00000007          	vle8.v	v0,(x0),v0.t
 f64a1176888:	0b2bf0cf          	fnmadd.d	f1,f23,f18,f1
 f64a117688c:	00000007          	vle8.v	v0,(x0),v0.t
 f64a1176890:	0b2bf4cf          	fnmadd.d	f9,f23,f18,f1
 f64a1176894:	00000007          	vle8.v	v0,(x0),v0.t
 f64a1176898:	0b2bf8cf          	fnmadd.d	f17,f23,f18,f1
 f64a117689c:	00000007          	vle8.v	v0,(x0),v0.t
 f64a11768a0:	0b2bfccf          	fnmadd.d	f25,f23,f18,f1
 f64a11768a4:	00000007          	vle8.v	v0,(x0),v0.t
 f64a11768a8:	00df 0b2c 0007      	.insn	6, 0x00070b2c00df
 f64a11768ae:	0000                	.insn	2, 0x0000
 f64a11768b0:	04df 0b2c 0007      	.insn	6, 0x00070b2c04df
 f64a11768b6:	0000                	.insn	2, 0x0000
 f64a11768b8:	08df 0b2c 0007      	.insn	6, 0x00070b2c08df
 f64a11768be:	0000                	.insn	2, 0x0000
 f64a11768c0:	0cdf 0b2c 0007      	.insn	6, 0x00070b2c0cdf
 f64a11768c6:	0000                	.insn	2, 0x0000
 f64a11768c8:	10df 0b2c 0007      	.insn	6, 0x00070b2c10df
 f64a11768ce:	0000                	.insn	2, 0x0000
 f64a11768d0:	14df 0b2c 0007      	.insn	6, 0x00070b2c14df
 f64a11768d6:	0000                	.insn	2, 0x0000
 f64a11768d8:	18df 0b2c 0007      	.insn	6, 0x00070b2c18df
 f64a11768de:	0000                	.insn	2, 0x0000
 f64a11768e0:	1cdf 0b2c 0007      	.insn	6, 0x00070b2c1cdf
 f64a11768e6:	0000                	.insn	2, 0x0000
 f64a11768e8:	20df 0b2c 0007      	.insn	6, 0x00070b2c20df
 f64a11768ee:	0000                	.insn	2, 0x0000
 f64a11768f0:	24df 0b2c 0007      	.insn	6, 0x00070b2c24df
 f64a11768f6:	0000                	.insn	2, 0x0000
 f64a11768f8:	28df 0b2c 0007      	.insn	6, 0x00070b2c28df
 f64a11768fe:	0000                	.insn	2, 0x0000
 f64a1176900:	2cdf 0b2c 0007      	.insn	6, 0x00070b2c2cdf
 f64a1176906:	0000                	.insn	2, 0x0000
 f64a1176908:	30df 0b2c 0007      	.insn	6, 0x00070b2c30df
 f64a117690e:	0000                	.insn	2, 0x0000
 f64a1176910:	34df 0b2c 0007      	.insn	6, 0x00070b2c34df
 f64a1176916:	0000                	.insn	2, 0x0000
 f64a1176918:	38df 0b2c 0007      	.insn	6, 0x00070b2c38df
 f64a117691e:	0000                	.insn	2, 0x0000
 f64a1176920:	3cdf 0b2c 0007      	.insn	6, 0x00070b2c3cdf
 f64a1176926:	0000                	.insn	2, 0x0000
 f64a1176928:	40df 0b2c 0007      	.insn	6, 0x00070b2c40df
 f64a117692e:	0000                	.insn	2, 0x0000
 f64a1176930:	44df 0b2c 0007      	.insn	6, 0x00070b2c44df
 f64a1176936:	0000                	.insn	2, 0x0000
 f64a1176938:	48df 0b2c 0007      	.insn	6, 0x00070b2c48df
 f64a117693e:	0000                	.insn	2, 0x0000
 f64a1176940:	4cdf 0b2c 0007      	.insn	6, 0x00070b2c4cdf
 f64a1176946:	0000                	.insn	2, 0x0000
 f64a1176948:	50df 0b2c 0007      	.insn	6, 0x00070b2c50df
 f64a117694e:	0000                	.insn	2, 0x0000
 f64a1176950:	54df 0b2c 0007      	.insn	6, 0x00070b2c54df
 f64a1176956:	0000                	.insn	2, 0x0000
 f64a1176958:	58df 0b2c 0007      	.insn	6, 0x00070b2c58df
 f64a117695e:	0000                	.insn	2, 0x0000
 f64a1176960:	5cdf 0b2c 0007      	.insn	6, 0x00070b2c5cdf
 f64a1176966:	0000                	.insn	2, 0x0000
 f64a1176968:	60df 0b2c 0007      	.insn	6, 0x00070b2c60df
 f64a117696e:	0000                	.insn	2, 0x0000
 f64a1176970:	64df 0b2c 0007      	.insn	6, 0x00070b2c64df
 f64a1176976:	0000                	.insn	2, 0x0000
 f64a1176978:	68df 0b2c 0007      	.insn	6, 0x00070b2c68df
 f64a117697e:	0000                	.insn	2, 0x0000
 f64a1176980:	6cdf 0b2c 0007      	.insn	6, 0x00070b2c6cdf
 f64a1176986:	0000                	.insn	2, 0x0000
 f64a1176988:	70df 0b2c 0007      	.insn	6, 0x00070b2c70df
 f64a117698e:	0000                	.insn	2, 0x0000
 f64a1176990:	74df 0b2c 0007      	.insn	6, 0x00070b2c74df
 f64a1176996:	0000                	.insn	2, 0x0000
 f64a1176998:	78df 0b2c 0007      	.insn	6, 0x00070b2c78df
 f64a117699e:	0000                	.insn	2, 0x0000
 f64a11769a0:	7cdf 0b2c 0007      	.insn	6, 0x00070b2c7cdf
 f64a11769a6:	0000                	.insn	2, 0x0000
 f64a11769a8:	80df 0b2c 0007      	.insn	6, 0x00070b2c80df
 f64a11769ae:	0000                	.insn	2, 0x0000
 f64a11769b0:	84df 0b2c 0007      	.insn	6, 0x00070b2c84df
 f64a11769b6:	0000                	.insn	2, 0x0000
 f64a11769b8:	88df 0b2c 0007      	.insn	6, 0x00070b2c88df
 f64a11769be:	0000                	.insn	2, 0x0000
 f64a11769c0:	8cdf 0b2c 0007      	.insn	6, 0x00070b2c8cdf
 f64a11769c6:	0000                	.insn	2, 0x0000
 f64a11769c8:	90df 0b2c 0007      	.insn	6, 0x00070b2c90df
 f64a11769ce:	0000                	.insn	2, 0x0000
 f64a11769d0:	94df 0b2c 0007      	.insn	6, 0x00070b2c94df
 f64a11769d6:	0000                	.insn	2, 0x0000
 f64a11769d8:	98df 0b2c 0007      	.insn	6, 0x00070b2c98df
 f64a11769de:	0000                	.insn	2, 0x0000
 f64a11769e0:	9cdf 0b2c 0007      	.insn	6, 0x00070b2c9cdf
 f64a11769e6:	0000                	.insn	2, 0x0000
 f64a11769e8:	a0df 0b2c 0007      	.insn	6, 0x00070b2ca0df
 f64a11769ee:	0000                	.insn	2, 0x0000
 f64a11769f0:	a4df 0b2c 0007      	.insn	6, 0x00070b2ca4df
 f64a11769f6:	0000                	.insn	2, 0x0000
 f64a11769f8:	a8df 0b2c 0007      	.insn	6, 0x00070b2ca8df
 f64a11769fe:	0000                	.insn	2, 0x0000
 f64a1176a00:	acdf 0b2c 0007      	.insn	6, 0x00070b2cacdf
 f64a1176a06:	0000                	.insn	2, 0x0000
 f64a1176a08:	b0df 0b2c 0007      	.insn	6, 0x00070b2cb0df
 f64a1176a0e:	0000                	.insn	2, 0x0000
 f64a1176a10:	b4df 0b2c 0007      	.insn	6, 0x00070b2cb4df
 f64a1176a16:	0000                	.insn	2, 0x0000
 f64a1176a18:	b8df 0b2c 0007      	.insn	6, 0x00070b2cb8df
 f64a1176a1e:	0000                	.insn	2, 0x0000
 f64a1176a20:	bcdf 0b2c 0007      	.insn	6, 0x00070b2cbcdf
 f64a1176a26:	0000                	.insn	2, 0x0000
 f64a1176a28:	c0df 0b2c 0007      	.insn	6, 0x00070b2cc0df
 f64a1176a2e:	0000                	.insn	2, 0x0000
 f64a1176a30:	c4df 0b2c 0007      	.insn	6, 0x00070b2cc4df
 f64a1176a36:	0000                	.insn	2, 0x0000
 f64a1176a38:	c8df 0b2c 0007      	.insn	6, 0x00070b2cc8df
 f64a1176a3e:	0000                	.insn	2, 0x0000
 f64a1176a40:	ccdf 0b2c 0007      	.insn	6, 0x00070b2cccdf
 f64a1176a46:	0000                	.insn	2, 0x0000
 f64a1176a48:	d0df 0b2c 0007      	.insn	6, 0x00070b2cd0df
 f64a1176a4e:	0000                	.insn	2, 0x0000
 f64a1176a50:	d4df 0b2c 0007      	.insn	6, 0x00070b2cd4df
 f64a1176a56:	0000                	.insn	2, 0x0000
 f64a1176a58:	d8df 0b2c 0007      	.insn	6, 0x00070b2cd8df
 f64a1176a5e:	0000                	.insn	2, 0x0000
 f64a1176a60:	dcdf 0b2c 0007      	.insn	6, 0x00070b2cdcdf
 f64a1176a66:	0000                	.insn	2, 0x0000
 f64a1176a68:	e0df 0b2c 0007      	.insn	6, 0x00070b2ce0df
 f64a1176a6e:	0000                	.insn	2, 0x0000
 f64a1176a70:	e4df 0b2c 0007      	.insn	6, 0x00070b2ce4df
 f64a1176a76:	0000                	.insn	2, 0x0000
 f64a1176a78:	e8df 0b2c 0007      	.insn	6, 0x00070b2ce8df
 f64a1176a7e:	0000                	.insn	2, 0x0000
 f64a1176a80:	ecdf 0b2c 0007      	.insn	6, 0x00070b2cecdf
 f64a1176a86:	0000                	.insn	2, 0x0000
 f64a1176a88:	f0df 0b2c 0007      	.insn	6, 0x00070b2cf0df
 f64a1176a8e:	0000                	.insn	2, 0x0000
 f64a1176a90:	f4df 0b2c 0007      	.insn	6, 0x00070b2cf4df
 f64a1176a96:	0000                	.insn	2, 0x0000
 f64a1176a98:	f8df 0b2c 0007      	.insn	6, 0x00070b2cf8df
 f64a1176a9e:	0000                	.insn	2, 0x0000
 f64a1176aa0:	fcdf 0b2c 0007      	.insn	6, 0x00070b2cfcdf
 f64a1176aa6:	0000                	.insn	2, 0x0000
 f64a1176aa8:	00df 0b2d 0007      	.insn	6, 0x00070b2d00df
 f64a1176aae:	0000                	.insn	2, 0x0000
 f64a1176ab0:	04df 0b2d 0007      	.insn	6, 0x00070b2d04df
 f64a1176ab6:	0000                	.insn	2, 0x0000
 f64a1176ab8:	08df 0b2d 0007      	.insn	6, 0x00070b2d08df
 f64a1176abe:	0000                	.insn	2, 0x0000
 f64a1176ac0:	0cdf 0b2d 0007      	.insn	6, 0x00070b2d0cdf
 f64a1176ac6:	0000                	.insn	2, 0x0000
 f64a1176ac8:	10df 0b2d 0007      	.insn	6, 0x00070b2d10df
 f64a1176ace:	0000                	.insn	2, 0x0000
 f64a1176ad0:	14df 0b2d 0007      	.insn	6, 0x00070b2d14df
 f64a1176ad6:	0000                	.insn	2, 0x0000
 f64a1176ad8:	18df 0b2d 0007      	.insn	6, 0x00070b2d18df
 f64a1176ade:	0000                	.insn	2, 0x0000
 f64a1176ae0:	1cdf 0b2d 0007      	.insn	6, 0x00070b2d1cdf
 f64a1176ae6:	0000                	.insn	2, 0x0000
 f64a1176ae8:	20df 0b2d 0007      	.insn	6, 0x00070b2d20df
 f64a1176aee:	0000                	.insn	2, 0x0000
 f64a1176af0:	24df 0b2d 0007      	.insn	6, 0x00070b2d24df
 f64a1176af6:	0000                	.insn	2, 0x0000
 f64a1176af8:	28df 0b2d 0007      	.insn	6, 0x00070b2d28df
 f64a1176afe:	0000                	.insn	2, 0x0000
 f64a1176b00:	2cdf 0b2d 0007      	.insn	6, 0x00070b2d2cdf
 f64a1176b06:	0000                	.insn	2, 0x0000
 f64a1176b08:	30df 0b2d 0007      	.insn	6, 0x00070b2d30df
 f64a1176b0e:	0000                	.insn	2, 0x0000
 f64a1176b10:	34df 0b2d 0007      	.insn	6, 0x00070b2d34df
 f64a1176b16:	0000                	.insn	2, 0x0000
 f64a1176b18:	38df 0b2d 0007      	.insn	6, 0x00070b2d38df
 f64a1176b1e:	0000                	.insn	2, 0x0000
 f64a1176b20:	3cdf 0b2d 0007      	.insn	6, 0x00070b2d3cdf
 f64a1176b26:	0000                	.insn	2, 0x0000
 f64a1176b28:	40df 0b2d 0007      	.insn	6, 0x00070b2d40df
 f64a1176b2e:	0000                	.insn	2, 0x0000
 f64a1176b30:	44df 0b2d 0007      	.insn	6, 0x00070b2d44df
 f64a1176b36:	0000                	.insn	2, 0x0000
 f64a1176b38:	48df 0b2d 0007      	.insn	6, 0x00070b2d48df
 f64a1176b3e:	0000                	.insn	2, 0x0000
 f64a1176b40:	4cdf 0b2d 0007      	.insn	6, 0x00070b2d4cdf
 f64a1176b46:	0000                	.insn	2, 0x0000
 f64a1176b48:	50df 0b2d 0007      	.insn	6, 0x00070b2d50df
 f64a1176b4e:	0000                	.insn	2, 0x0000
 f64a1176b50:	54df 0b2d 0007      	.insn	6, 0x00070b2d54df
 f64a1176b56:	0000                	.insn	2, 0x0000
 f64a1176b58:	58df 0b2d 0007      	.insn	6, 0x00070b2d58df
 f64a1176b5e:	0000                	.insn	2, 0x0000
 f64a1176b60:	5cdf 0b2d 0007      	.insn	6, 0x00070b2d5cdf
 f64a1176b66:	0000                	.insn	2, 0x0000
 f64a1176b68:	60df 0b2d 0007      	.insn	6, 0x00070b2d60df
 f64a1176b6e:	0000                	.insn	2, 0x0000
 f64a1176b70:	64df 0b2d 0007      	.insn	6, 0x00070b2d64df
 f64a1176b76:	0000                	.insn	2, 0x0000
 f64a1176b78:	68df 0b2d 0007      	.insn	6, 0x00070b2d68df
 f64a1176b7e:	0000                	.insn	2, 0x0000
 f64a1176b80:	6cdf 0b2d 0007      	.insn	6, 0x00070b2d6cdf
 f64a1176b86:	0000                	.insn	2, 0x0000
 f64a1176b88:	70df 0b2d 0007      	.insn	6, 0x00070b2d70df
 f64a1176b8e:	0000                	.insn	2, 0x0000
 f64a1176b90:	74df 0b2d 0007      	.insn	6, 0x00070b2d74df
 f64a1176b96:	0000                	.insn	2, 0x0000
 f64a1176b98:	78df 0b2d 0007      	.insn	6, 0x00070b2d78df
 f64a1176b9e:	0000                	.insn	2, 0x0000
 f64a1176ba0:	7cdf 0b2d 0007      	.insn	6, 0x00070b2d7cdf
 f64a1176ba6:	0000                	.insn	2, 0x0000
 f64a1176ba8:	80df 0b2d 0007      	.insn	6, 0x00070b2d80df
 f64a1176bae:	0000                	.insn	2, 0x0000
 f64a1176bb0:	84df 0b2d 0007      	.insn	6, 0x00070b2d84df
 f64a1176bb6:	0000                	.insn	2, 0x0000
 f64a1176bb8:	88df 0b2d 0007      	.insn	6, 0x00070b2d88df
 f64a1176bbe:	0000                	.insn	2, 0x0000
 f64a1176bc0:	8cdf 0b2d 0007      	.insn	6, 0x00070b2d8cdf
 f64a1176bc6:	0000                	.insn	2, 0x0000
 f64a1176bc8:	90df 0b2d 0007      	.insn	6, 0x00070b2d90df
 f64a1176bce:	0000                	.insn	2, 0x0000
 f64a1176bd0:	94df 0b2d 0007      	.insn	6, 0x00070b2d94df
 f64a1176bd6:	0000                	.insn	2, 0x0000
 f64a1176bd8:	98df 0b2d 0007      	.insn	6, 0x00070b2d98df
 f64a1176bde:	0000                	.insn	2, 0x0000
 f64a1176be0:	9cdf 0b2d 0007      	.insn	6, 0x00070b2d9cdf
 f64a1176be6:	0000                	.insn	2, 0x0000
 f64a1176be8:	a0df 0b2d 0007      	.insn	6, 0x00070b2da0df
 f64a1176bee:	0000                	.insn	2, 0x0000
 f64a1176bf0:	a4df 0b2d 0007      	.insn	6, 0x00070b2da4df
 f64a1176bf6:	0000                	.insn	2, 0x0000
 f64a1176bf8:	a8df 0b2d 0007      	.insn	6, 0x00070b2da8df
 f64a1176bfe:	0000                	.insn	2, 0x0000
 f64a1176c00:	acdf 0b2d 0007      	.insn	6, 0x00070b2dacdf
 f64a1176c06:	0000                	.insn	2, 0x0000
 f64a1176c08:	b0df 0b2d 0007      	.insn	6, 0x00070b2db0df
 f64a1176c0e:	0000                	.insn	2, 0x0000
 f64a1176c10:	b4df 0b2d 0007      	.insn	6, 0x00070b2db4df
 f64a1176c16:	0000                	.insn	2, 0x0000
 f64a1176c18:	b8df 0b2d 0007      	.insn	6, 0x00070b2db8df
 f64a1176c1e:	0000                	.insn	2, 0x0000
 f64a1176c20:	bcdf 0b2d 0007      	.insn	6, 0x00070b2dbcdf
 f64a1176c26:	0000                	.insn	2, 0x0000
 f64a1176c28:	c0df 0b2d 0007      	.insn	6, 0x00070b2dc0df
 f64a1176c2e:	0000                	.insn	2, 0x0000
 f64a1176c30:	c4df 0b2d 0007      	.insn	6, 0x00070b2dc4df
 f64a1176c36:	0000                	.insn	2, 0x0000
 f64a1176c38:	c8df 0b2d 0007      	.insn	6, 0x00070b2dc8df
 f64a1176c3e:	0000                	.insn	2, 0x0000
 f64a1176c40:	ccdf 0b2d 0007      	.insn	6, 0x00070b2dccdf
 f64a1176c46:	0000                	.insn	2, 0x0000
 f64a1176c48:	d0df 0b2d 0007      	.insn	6, 0x00070b2dd0df
 f64a1176c4e:	0000                	.insn	2, 0x0000
 f64a1176c50:	d4df 0b2d 0007      	.insn	6, 0x00070b2dd4df
 f64a1176c56:	0000                	.insn	2, 0x0000
 f64a1176c58:	d8df 0b2d 0007      	.insn	6, 0x00070b2dd8df
 f64a1176c5e:	0000                	.insn	2, 0x0000
 f64a1176c60:	dcdf 0b2d 0007      	.insn	6, 0x00070b2ddcdf
 f64a1176c66:	0000                	.insn	2, 0x0000
 f64a1176c68:	e0df 0b2d 0007      	.insn	6, 0x00070b2de0df
 f64a1176c6e:	0000                	.insn	2, 0x0000
 f64a1176c70:	e4df 0b2d 0007      	.insn	6, 0x00070b2de4df
 f64a1176c76:	0000                	.insn	2, 0x0000
 f64a1176c78:	e8df 0b2d 0007      	.insn	6, 0x00070b2de8df
 f64a1176c7e:	0000                	.insn	2, 0x0000
 f64a1176c80:	ecdf 0b2d 0007      	.insn	6, 0x00070b2decdf
 f64a1176c86:	0000                	.insn	2, 0x0000
 f64a1176c88:	f0df 0b2d 0007      	.insn	6, 0x00070b2df0df
 f64a1176c8e:	0000                	.insn	2, 0x0000
 f64a1176c90:	f4df 0b2d 0007      	.insn	6, 0x00070b2df4df
 f64a1176c96:	0000                	.insn	2, 0x0000
 f64a1176c98:	f8df 0b2d 0007      	.insn	6, 0x00070b2df8df
 f64a1176c9e:	0000                	.insn	2, 0x0000
 f64a1176ca0:	fcdf 0b2d 0007      	.insn	6, 0x00070b2dfcdf
	...

Disassembly of section .__pagetable_map_os_0x00007419703a0000:

00007419703a0000 <__pagetable_map_os_0x00007419703a0000>:
	...
    7419703a00b0:	0b3004cf          	fnmadd.d	f9,f0,f19,f1,rne
    7419703a00b4:	00000007          	vle8.v	v0,(x0),v0.t

Disassembly of section .__pagetable_map_os_0x00000000a04ea000:

00000000a04ea000 <__pagetable_map_os_0x00000000a04ea000>:
	...
    a04eada8:	dc01                	.insn	2, 0xdc01
    a04eadaa:	2845                	.insn	2, 0x2845
    a04eadac:	03d9                	.insn	2, 0x03d9
	...

Disassembly of section .__pagetable_map_os_0x00000f64a1177000:

00000f64a1177000 <__pagetable_map_os_0x00000f64a1177000>:
	...
 f64a1177c60:	c8df 34f7 3e24      	.insn	6, 0x3e2434f7c8df
 f64a1177c66:	0001                	.insn	2, 0x0001
 f64a1177c68:	ccdf 34f7 3e24      	.insn	6, 0x3e2434f7ccdf
 f64a1177c6e:	0001                	.insn	2, 0x0001

Disassembly of section .__pagetable_map_os_0x0000000806dbf000:

0000000806dbf000 <__pagetable_map_os_0x0000000806dbf000>:
	...
   806dbf638:	d401                	.insn	2, 0xd401
   806dbf63a:	02c85da7          	.insn	4, 0x02c85da7
	...

Disassembly of section .__pagetable_map_os_0x00000b21769f5000:

00000b21769f5000 <__pagetable_map_os_0x00000b21769f5000>:
	...
 b21769f5640:	08df eccf 7d18      	.insn	6, 0x7d18eccf08df
 b21769f5646:	0000                	.insn	2, 0x0000
 b21769f5648:	0cdf eccf 7d18      	.insn	6, 0x7d18eccf0cdf
	...

Disassembly of section .__pagetable_map_os_0x0000057882424000:

0000057882424000 <__pagetable_map_os_0x0000057882424000>:
	...
 57882424ac0:	f801                	.insn	2, 0xf801
 57882424ac2:	8a5d                	.insn	2, 0x8a5d
 57882424ac4:	0008                	.insn	2, 0x0008
	...

Disassembly of section .__pagetable_map_os_0x000000222977e000:

000000222977e000 <__pagetable_map_os_0x000000222977e000>:
	...
  222977e6f8:	6cdf 51ba 0002      	.insn	6, 0x000251ba6cdf
	...

Disassembly of section .__pagetable_map_os_0x00001dc79184a000:

00001dc79184a000 <__pagetable_map_os_0x00001dc79184a000>:
	...
    1dc79184ad30:	4401                	.insn	2, 0x4401
    1dc79184ad32:	11cf978b          	.insn	4, 0x11cf978b
	...

Disassembly of section .__pagetable_map_os_0x0000473e5e2d1000:

0000473e5e2d1000 <__pagetable_map_os_0x0000473e5e2d1000>:
	...
    473e5e2d1eb0:	48df 548f 0000      	.insn	6, 0x548f48df
	...

Disassembly of section .__pagetable_map_os_0x0003cbf084cdf000:

0003cbf084cdf000 <__pagetable_map_os_0x0003cbf084cdf000>:
	...
   3cbf084cdfc00:	a401                	.insn	2, 0xa401
   3cbf084cdfc02:	5a45                	.insn	2, 0x5a45
   3cbf084cdfc04:	00000347          	fmsub.s	f6,f0,f0,f0,rne
	...
   3cbf084cdff20:	9801                	.insn	2, 0x9801
   3cbf084cdff22:	9fc4                	.insn	2, 0x9fc4
   3cbf084cdff24:	01be                	.insn	2, 0x01be
	...
   3cbf084cdffd6:	0000                	.insn	2, 0x0000
   3cbf084cdffd8:	4001                	.insn	2, 0x4001
   3cbf084cdffda:	0001b8cb          	fnmsub.s	f17,f3,f0,f0,rup
	...

Disassembly of section .__pagetable_map_os_0x00000d1d69169000:

00000d1d69169000 <__pagetable_map_os_0x00000d1d69169000>:
 d1d69169000:	00df 1c00 0000      	.insn	6, 0x1c0000df
	...

Disassembly of section .__pagetable_map_os_0x000006fa7f126000:

000006fa7f126000 <__pagetable_map_os_0x000006fa7f126000>:
	...
 6fa7f126878:	cf04d8d7          	.insn	4, 0xcf04d8d7
 6fa7f12687c:	0046                	.insn	2, 0x0046
	...

Disassembly of section .__pagetable_map_os_0x00000006e32d0000:

00000006e32d0000 <__pagetable_map_os_0x00000006e32d0000>:
	...
   6e32d0ef8:	02cb68d7          	.insn	4, 0x02cb68d7
   6e32d0efc:	0002                	.insn	2, 0x0002
	...

Disassembly of section .__pagetable_map_os_0x00005af7ad149000:

00005af7ad149000 <__pagetable_map_os_0x00005af7ad149000>:
    5af7ad149000:	e001                	.insn	2, 0xe001
    5af7ad149002:	2ce6                	.insn	2, 0x2ce6
    5af7ad149004:	07b4                	.insn	2, 0x07b4
	...
    5af7ad149036:	0000                	.insn	2, 0x0000
    5af7ad149038:	4801                	.insn	2, 0x4801
    5af7ad14903a:	000036c3          	fmadd.s	f13,f0,f0,f0,rup
	...
    5af7ad14904e:	0000                	.insn	2, 0x0000
    5af7ad149050:	dc01                	.insn	2, 0xdc01
    5af7ad149052:	bf84                	.insn	2, 0xbf84
    5af7ad149054:	0794                	.insn	2, 0x0794
	...
    5af7ad149076:	0000                	.insn	2, 0x0000
    5af7ad149078:	8c01                	.insn	2, 0x8c01
    5af7ad14907a:	7ce0                	.insn	2, 0x7ce0
    5af7ad14907c:	0000000f          	fence	unknown,unknown
	...
    5af7ad149088:	2801                	.insn	2, 0x2801
    5af7ad14908a:	378dec47          	.insn	4, 0x378dec47
	...
    5af7ad149256:	0000                	.insn	2, 0x0000
    5af7ad149258:	a401                	.insn	2, 0xa401
    5af7ad14925a:	2f75                	.insn	2, 0x2f75
    5af7ad14925c:	00f6                	.insn	2, 0x00f6
    5af7ad14925e:	0000                	.insn	2, 0x0000
    5af7ad149260:	f801                	.insn	2, 0xf801
    5af7ad149262:	87be                	.insn	2, 0x87be
    5af7ad149264:	00004073          	.insn	4, 0x4073
	...
    5af7ad149420:	1c01                	.insn	2, 0x1c01
    5af7ad149422:	025e5333          	divu	x6,x28,x5
	...
    5af7ad14981e:	0000                	.insn	2, 0x0000
    5af7ad149820:	dc01                	.insn	2, 0xdc01
    5af7ad149822:	27c4                	.insn	2, 0x27c4
    5af7ad149824:	085d                	.insn	2, 0x085d
	...

Disassembly of section .__pagetable_map_os_0x000009794ccc7000:

000009794ccc7000 <__pagetable_map_os_0x000009794ccc7000>:
 9794ccc7000:	00df 0420 0000      	.insn	6, 0x042000df
 9794ccc7006:	0000                	.insn	2, 0x0000
 9794ccc7008:	04df 0420 0000      	.insn	6, 0x042004df
 9794ccc700e:	0000                	.insn	2, 0x0000
 9794ccc7010:	08df 0420 0000      	.insn	6, 0x042008df
 9794ccc7016:	0000                	.insn	2, 0x0000
 9794ccc7018:	0cdf 0420 0000      	.insn	6, 0x04200cdf
 9794ccc701e:	0000                	.insn	2, 0x0000
 9794ccc7020:	10df 0420 0000      	.insn	6, 0x042010df
 9794ccc7026:	0000                	.insn	2, 0x0000
 9794ccc7028:	14df 0420 0000      	.insn	6, 0x042014df
 9794ccc702e:	0000                	.insn	2, 0x0000
 9794ccc7030:	18df 0420 0000      	.insn	6, 0x042018df
 9794ccc7036:	0000                	.insn	2, 0x0000
 9794ccc7038:	1cdf 0420 0000      	.insn	6, 0x04201cdf
 9794ccc703e:	0000                	.insn	2, 0x0000
 9794ccc7040:	20df 0420 0000      	.insn	6, 0x042020df
 9794ccc7046:	0000                	.insn	2, 0x0000
 9794ccc7048:	24df 0420 0000      	.insn	6, 0x042024df
 9794ccc704e:	0000                	.insn	2, 0x0000
 9794ccc7050:	28df 0420 0000      	.insn	6, 0x042028df
 9794ccc7056:	0000                	.insn	2, 0x0000
 9794ccc7058:	2cdf 0420 0000      	.insn	6, 0x04202cdf
 9794ccc705e:	0000                	.insn	2, 0x0000
 9794ccc7060:	30df 0420 0000      	.insn	6, 0x042030df
 9794ccc7066:	0000                	.insn	2, 0x0000
 9794ccc7068:	34df 0420 0000      	.insn	6, 0x042034df
 9794ccc706e:	0000                	.insn	2, 0x0000
 9794ccc7070:	38df 0420 0000      	.insn	6, 0x042038df
 9794ccc7076:	0000                	.insn	2, 0x0000
 9794ccc7078:	3cdf 0420 0000      	.insn	6, 0x04203cdf
 9794ccc707e:	0000                	.insn	2, 0x0000
 9794ccc7080:	40df 0420 0000      	.insn	6, 0x042040df
 9794ccc7086:	0000                	.insn	2, 0x0000
 9794ccc7088:	44df 0420 0000      	.insn	6, 0x042044df
 9794ccc708e:	0000                	.insn	2, 0x0000
 9794ccc7090:	48df 0420 0000      	.insn	6, 0x042048df
 9794ccc7096:	0000                	.insn	2, 0x0000
 9794ccc7098:	4cdf 0420 0000      	.insn	6, 0x04204cdf
 9794ccc709e:	0000                	.insn	2, 0x0000
 9794ccc70a0:	50df 0420 0000      	.insn	6, 0x042050df
 9794ccc70a6:	0000                	.insn	2, 0x0000
 9794ccc70a8:	54df 0420 0000      	.insn	6, 0x042054df
 9794ccc70ae:	0000                	.insn	2, 0x0000
 9794ccc70b0:	58df 0420 0000      	.insn	6, 0x042058df
 9794ccc70b6:	0000                	.insn	2, 0x0000
 9794ccc70b8:	5cdf 0420 0000      	.insn	6, 0x04205cdf
 9794ccc70be:	0000                	.insn	2, 0x0000
 9794ccc70c0:	60df 0420 0000      	.insn	6, 0x042060df
 9794ccc70c6:	0000                	.insn	2, 0x0000
 9794ccc70c8:	64df 0420 0000      	.insn	6, 0x042064df
 9794ccc70ce:	0000                	.insn	2, 0x0000
 9794ccc70d0:	68df 0420 0000      	.insn	6, 0x042068df
 9794ccc70d6:	0000                	.insn	2, 0x0000
 9794ccc70d8:	6cdf 0420 0000      	.insn	6, 0x04206cdf
 9794ccc70de:	0000                	.insn	2, 0x0000
 9794ccc70e0:	70df 0420 0000      	.insn	6, 0x042070df
 9794ccc70e6:	0000                	.insn	2, 0x0000
 9794ccc70e8:	74df 0420 0000      	.insn	6, 0x042074df
 9794ccc70ee:	0000                	.insn	2, 0x0000
 9794ccc70f0:	78df 0420 0000      	.insn	6, 0x042078df
 9794ccc70f6:	0000                	.insn	2, 0x0000
 9794ccc70f8:	7cdf 0420 0000      	.insn	6, 0x04207cdf
 9794ccc70fe:	0000                	.insn	2, 0x0000
 9794ccc7100:	80df 0420 0000      	.insn	6, 0x042080df
 9794ccc7106:	0000                	.insn	2, 0x0000
 9794ccc7108:	84df 0420 0000      	.insn	6, 0x042084df
 9794ccc710e:	0000                	.insn	2, 0x0000
 9794ccc7110:	88df 0420 0000      	.insn	6, 0x042088df
 9794ccc7116:	0000                	.insn	2, 0x0000
 9794ccc7118:	8cdf 0420 0000      	.insn	6, 0x04208cdf
 9794ccc711e:	0000                	.insn	2, 0x0000
 9794ccc7120:	90df 0420 0000      	.insn	6, 0x042090df
 9794ccc7126:	0000                	.insn	2, 0x0000
 9794ccc7128:	94df 0420 0000      	.insn	6, 0x042094df
 9794ccc712e:	0000                	.insn	2, 0x0000
 9794ccc7130:	98df 0420 0000      	.insn	6, 0x042098df
 9794ccc7136:	0000                	.insn	2, 0x0000
 9794ccc7138:	9cdf 0420 0000      	.insn	6, 0x04209cdf
 9794ccc713e:	0000                	.insn	2, 0x0000
 9794ccc7140:	a0df 0420 0000      	.insn	6, 0x0420a0df
 9794ccc7146:	0000                	.insn	2, 0x0000
 9794ccc7148:	a4df 0420 0000      	.insn	6, 0x0420a4df
 9794ccc714e:	0000                	.insn	2, 0x0000
 9794ccc7150:	a8df 0420 0000      	.insn	6, 0x0420a8df
 9794ccc7156:	0000                	.insn	2, 0x0000
 9794ccc7158:	acdf 0420 0000      	.insn	6, 0x0420acdf
 9794ccc715e:	0000                	.insn	2, 0x0000
 9794ccc7160:	b0df 0420 0000      	.insn	6, 0x0420b0df
 9794ccc7166:	0000                	.insn	2, 0x0000
 9794ccc7168:	b4df 0420 0000      	.insn	6, 0x0420b4df
 9794ccc716e:	0000                	.insn	2, 0x0000
 9794ccc7170:	b8df 0420 0000      	.insn	6, 0x0420b8df
 9794ccc7176:	0000                	.insn	2, 0x0000
 9794ccc7178:	bcdf 0420 0000      	.insn	6, 0x0420bcdf
 9794ccc717e:	0000                	.insn	2, 0x0000
 9794ccc7180:	c0df 0420 0000      	.insn	6, 0x0420c0df
 9794ccc7186:	0000                	.insn	2, 0x0000
 9794ccc7188:	c4df 0420 0000      	.insn	6, 0x0420c4df
 9794ccc718e:	0000                	.insn	2, 0x0000
 9794ccc7190:	c8df 0420 0000      	.insn	6, 0x0420c8df
 9794ccc7196:	0000                	.insn	2, 0x0000
 9794ccc7198:	ccdf 0420 0000      	.insn	6, 0x0420ccdf
 9794ccc719e:	0000                	.insn	2, 0x0000
 9794ccc71a0:	d0df 0420 0000      	.insn	6, 0x0420d0df
 9794ccc71a6:	0000                	.insn	2, 0x0000
 9794ccc71a8:	d4df 0420 0000      	.insn	6, 0x0420d4df
 9794ccc71ae:	0000                	.insn	2, 0x0000
 9794ccc71b0:	d8df 0420 0000      	.insn	6, 0x0420d8df
 9794ccc71b6:	0000                	.insn	2, 0x0000
 9794ccc71b8:	dcdf 0420 0000      	.insn	6, 0x0420dcdf
 9794ccc71be:	0000                	.insn	2, 0x0000
 9794ccc71c0:	e0df 0420 0000      	.insn	6, 0x0420e0df
 9794ccc71c6:	0000                	.insn	2, 0x0000
 9794ccc71c8:	e4df 0420 0000      	.insn	6, 0x0420e4df
 9794ccc71ce:	0000                	.insn	2, 0x0000
 9794ccc71d0:	e8df 0420 0000      	.insn	6, 0x0420e8df
 9794ccc71d6:	0000                	.insn	2, 0x0000
 9794ccc71d8:	ecdf 0420 0000      	.insn	6, 0x0420ecdf
 9794ccc71de:	0000                	.insn	2, 0x0000
 9794ccc71e0:	f0df 0420 0000      	.insn	6, 0x0420f0df
 9794ccc71e6:	0000                	.insn	2, 0x0000
 9794ccc71e8:	f4df 0420 0000      	.insn	6, 0x0420f4df
 9794ccc71ee:	0000                	.insn	2, 0x0000
 9794ccc71f0:	f8df 0420 0000      	.insn	6, 0x0420f8df
 9794ccc71f6:	0000                	.insn	2, 0x0000
 9794ccc71f8:	fcdf 0420 0000      	.insn	6, 0x0420fcdf
 9794ccc71fe:	0000                	.insn	2, 0x0000
 9794ccc7200:	00df 0421 0000      	.insn	6, 0x042100df
 9794ccc7206:	0000                	.insn	2, 0x0000
 9794ccc7208:	04df 0421 0000      	.insn	6, 0x042104df
 9794ccc720e:	0000                	.insn	2, 0x0000
 9794ccc7210:	08df 0421 0000      	.insn	6, 0x042108df
 9794ccc7216:	0000                	.insn	2, 0x0000
 9794ccc7218:	0cdf 0421 0000      	.insn	6, 0x04210cdf
 9794ccc721e:	0000                	.insn	2, 0x0000
 9794ccc7220:	10df 0421 0000      	.insn	6, 0x042110df
 9794ccc7226:	0000                	.insn	2, 0x0000
 9794ccc7228:	14df 0421 0000      	.insn	6, 0x042114df
 9794ccc722e:	0000                	.insn	2, 0x0000
 9794ccc7230:	18df 0421 0000      	.insn	6, 0x042118df
 9794ccc7236:	0000                	.insn	2, 0x0000
 9794ccc7238:	1cdf 0421 0000      	.insn	6, 0x04211cdf
 9794ccc723e:	0000                	.insn	2, 0x0000
 9794ccc7240:	20df 0421 0000      	.insn	6, 0x042120df
 9794ccc7246:	0000                	.insn	2, 0x0000
 9794ccc7248:	24df 0421 0000      	.insn	6, 0x042124df
 9794ccc724e:	0000                	.insn	2, 0x0000
 9794ccc7250:	28df 0421 0000      	.insn	6, 0x042128df
 9794ccc7256:	0000                	.insn	2, 0x0000
 9794ccc7258:	2cdf 0421 0000      	.insn	6, 0x04212cdf
 9794ccc725e:	0000                	.insn	2, 0x0000
 9794ccc7260:	30df 0421 0000      	.insn	6, 0x042130df
 9794ccc7266:	0000                	.insn	2, 0x0000
 9794ccc7268:	34df 0421 0000      	.insn	6, 0x042134df
 9794ccc726e:	0000                	.insn	2, 0x0000
 9794ccc7270:	38df 0421 0000      	.insn	6, 0x042138df
 9794ccc7276:	0000                	.insn	2, 0x0000
 9794ccc7278:	3cdf 0421 0000      	.insn	6, 0x04213cdf
 9794ccc727e:	0000                	.insn	2, 0x0000
 9794ccc7280:	40df 0421 0000      	.insn	6, 0x042140df
 9794ccc7286:	0000                	.insn	2, 0x0000
 9794ccc7288:	44df 0421 0000      	.insn	6, 0x042144df
 9794ccc728e:	0000                	.insn	2, 0x0000
 9794ccc7290:	48df 0421 0000      	.insn	6, 0x042148df
 9794ccc7296:	0000                	.insn	2, 0x0000
 9794ccc7298:	4cdf 0421 0000      	.insn	6, 0x04214cdf
 9794ccc729e:	0000                	.insn	2, 0x0000
 9794ccc72a0:	50df 0421 0000      	.insn	6, 0x042150df
 9794ccc72a6:	0000                	.insn	2, 0x0000
 9794ccc72a8:	54df 0421 0000      	.insn	6, 0x042154df
 9794ccc72ae:	0000                	.insn	2, 0x0000
 9794ccc72b0:	58df 0421 0000      	.insn	6, 0x042158df
 9794ccc72b6:	0000                	.insn	2, 0x0000
 9794ccc72b8:	5cdf 0421 0000      	.insn	6, 0x04215cdf
 9794ccc72be:	0000                	.insn	2, 0x0000
 9794ccc72c0:	60df 0421 0000      	.insn	6, 0x042160df
 9794ccc72c6:	0000                	.insn	2, 0x0000
 9794ccc72c8:	64df 0421 0000      	.insn	6, 0x042164df
 9794ccc72ce:	0000                	.insn	2, 0x0000
 9794ccc72d0:	68df 0421 0000      	.insn	6, 0x042168df
 9794ccc72d6:	0000                	.insn	2, 0x0000
 9794ccc72d8:	6cdf 0421 0000      	.insn	6, 0x04216cdf
 9794ccc72de:	0000                	.insn	2, 0x0000
 9794ccc72e0:	70df 0421 0000      	.insn	6, 0x042170df
 9794ccc72e6:	0000                	.insn	2, 0x0000
 9794ccc72e8:	74df 0421 0000      	.insn	6, 0x042174df
 9794ccc72ee:	0000                	.insn	2, 0x0000
 9794ccc72f0:	78df 0421 0000      	.insn	6, 0x042178df
 9794ccc72f6:	0000                	.insn	2, 0x0000
 9794ccc72f8:	7cdf 0421 0000      	.insn	6, 0x04217cdf
 9794ccc72fe:	0000                	.insn	2, 0x0000
 9794ccc7300:	80df 0421 0000      	.insn	6, 0x042180df
 9794ccc7306:	0000                	.insn	2, 0x0000
 9794ccc7308:	84df 0421 0000      	.insn	6, 0x042184df
 9794ccc730e:	0000                	.insn	2, 0x0000
 9794ccc7310:	88df 0421 0000      	.insn	6, 0x042188df
 9794ccc7316:	0000                	.insn	2, 0x0000
 9794ccc7318:	8cdf 0421 0000      	.insn	6, 0x04218cdf
 9794ccc731e:	0000                	.insn	2, 0x0000
 9794ccc7320:	90df 0421 0000      	.insn	6, 0x042190df
 9794ccc7326:	0000                	.insn	2, 0x0000
 9794ccc7328:	94df 0421 0000      	.insn	6, 0x042194df
 9794ccc732e:	0000                	.insn	2, 0x0000
 9794ccc7330:	98df 0421 0000      	.insn	6, 0x042198df
 9794ccc7336:	0000                	.insn	2, 0x0000
 9794ccc7338:	9cdf 0421 0000      	.insn	6, 0x04219cdf
 9794ccc733e:	0000                	.insn	2, 0x0000
 9794ccc7340:	a0df 0421 0000      	.insn	6, 0x0421a0df
 9794ccc7346:	0000                	.insn	2, 0x0000
 9794ccc7348:	a4df 0421 0000      	.insn	6, 0x0421a4df
 9794ccc734e:	0000                	.insn	2, 0x0000
 9794ccc7350:	a8df 0421 0000      	.insn	6, 0x0421a8df
 9794ccc7356:	0000                	.insn	2, 0x0000
 9794ccc7358:	acdf 0421 0000      	.insn	6, 0x0421acdf
 9794ccc735e:	0000                	.insn	2, 0x0000
 9794ccc7360:	b0df 0421 0000      	.insn	6, 0x0421b0df
 9794ccc7366:	0000                	.insn	2, 0x0000
 9794ccc7368:	b4df 0421 0000      	.insn	6, 0x0421b4df
 9794ccc736e:	0000                	.insn	2, 0x0000
 9794ccc7370:	b8df 0421 0000      	.insn	6, 0x0421b8df
 9794ccc7376:	0000                	.insn	2, 0x0000
 9794ccc7378:	bcdf 0421 0000      	.insn	6, 0x0421bcdf
 9794ccc737e:	0000                	.insn	2, 0x0000
 9794ccc7380:	c0df 0421 0000      	.insn	6, 0x0421c0df
 9794ccc7386:	0000                	.insn	2, 0x0000
 9794ccc7388:	c4df 0421 0000      	.insn	6, 0x0421c4df
 9794ccc738e:	0000                	.insn	2, 0x0000
 9794ccc7390:	c8df 0421 0000      	.insn	6, 0x0421c8df
 9794ccc7396:	0000                	.insn	2, 0x0000
 9794ccc7398:	ccdf 0421 0000      	.insn	6, 0x0421ccdf
 9794ccc739e:	0000                	.insn	2, 0x0000
 9794ccc73a0:	d0df 0421 0000      	.insn	6, 0x0421d0df
 9794ccc73a6:	0000                	.insn	2, 0x0000
 9794ccc73a8:	d4df 0421 0000      	.insn	6, 0x0421d4df
 9794ccc73ae:	0000                	.insn	2, 0x0000
 9794ccc73b0:	d8df 0421 0000      	.insn	6, 0x0421d8df
 9794ccc73b6:	0000                	.insn	2, 0x0000
 9794ccc73b8:	dcdf 0421 0000      	.insn	6, 0x0421dcdf
 9794ccc73be:	0000                	.insn	2, 0x0000
 9794ccc73c0:	e0df 0421 0000      	.insn	6, 0x0421e0df
 9794ccc73c6:	0000                	.insn	2, 0x0000
 9794ccc73c8:	e4df 0421 0000      	.insn	6, 0x0421e4df
 9794ccc73ce:	0000                	.insn	2, 0x0000
 9794ccc73d0:	e8df 0421 0000      	.insn	6, 0x0421e8df
 9794ccc73d6:	0000                	.insn	2, 0x0000
 9794ccc73d8:	ecdf 0421 0000      	.insn	6, 0x0421ecdf
 9794ccc73de:	0000                	.insn	2, 0x0000
 9794ccc73e0:	f0df 0421 0000      	.insn	6, 0x0421f0df
 9794ccc73e6:	0000                	.insn	2, 0x0000
 9794ccc73e8:	f4df 0421 0000      	.insn	6, 0x0421f4df
 9794ccc73ee:	0000                	.insn	2, 0x0000
 9794ccc73f0:	f8df 0421 0000      	.insn	6, 0x0421f8df
 9794ccc73f6:	0000                	.insn	2, 0x0000
 9794ccc73f8:	fcdf 0421 0000      	.insn	6, 0x0421fcdf
 9794ccc73fe:	0000                	.insn	2, 0x0000
 9794ccc7400:	00df 0422 0000      	.insn	6, 0x042200df
 9794ccc7406:	0000                	.insn	2, 0x0000
 9794ccc7408:	04df 0422 0000      	.insn	6, 0x042204df
 9794ccc740e:	0000                	.insn	2, 0x0000
 9794ccc7410:	08df 0422 0000      	.insn	6, 0x042208df
 9794ccc7416:	0000                	.insn	2, 0x0000
 9794ccc7418:	0cdf 0422 0000      	.insn	6, 0x04220cdf
 9794ccc741e:	0000                	.insn	2, 0x0000
 9794ccc7420:	10df 0422 0000      	.insn	6, 0x042210df
 9794ccc7426:	0000                	.insn	2, 0x0000
 9794ccc7428:	14df 0422 0000      	.insn	6, 0x042214df
 9794ccc742e:	0000                	.insn	2, 0x0000
 9794ccc7430:	18df 0422 0000      	.insn	6, 0x042218df
 9794ccc7436:	0000                	.insn	2, 0x0000
 9794ccc7438:	1cdf 0422 0000      	.insn	6, 0x04221cdf
 9794ccc743e:	0000                	.insn	2, 0x0000
 9794ccc7440:	20df 0422 0000      	.insn	6, 0x042220df
 9794ccc7446:	0000                	.insn	2, 0x0000
 9794ccc7448:	24df 0422 0000      	.insn	6, 0x042224df
 9794ccc744e:	0000                	.insn	2, 0x0000
 9794ccc7450:	28df 0422 0000      	.insn	6, 0x042228df
 9794ccc7456:	0000                	.insn	2, 0x0000
 9794ccc7458:	2cdf 0422 0000      	.insn	6, 0x04222cdf
 9794ccc745e:	0000                	.insn	2, 0x0000
 9794ccc7460:	30df 0422 0000      	.insn	6, 0x042230df
 9794ccc7466:	0000                	.insn	2, 0x0000
 9794ccc7468:	34df 0422 0000      	.insn	6, 0x042234df
 9794ccc746e:	0000                	.insn	2, 0x0000
 9794ccc7470:	38df 0422 0000      	.insn	6, 0x042238df
 9794ccc7476:	0000                	.insn	2, 0x0000
 9794ccc7478:	3cdf 0422 0000      	.insn	6, 0x04223cdf
 9794ccc747e:	0000                	.insn	2, 0x0000
 9794ccc7480:	40df 0422 0000      	.insn	6, 0x042240df
 9794ccc7486:	0000                	.insn	2, 0x0000
 9794ccc7488:	44df 0422 0000      	.insn	6, 0x042244df
 9794ccc748e:	0000                	.insn	2, 0x0000
 9794ccc7490:	48df 0422 0000      	.insn	6, 0x042248df
 9794ccc7496:	0000                	.insn	2, 0x0000
 9794ccc7498:	4cdf 0422 0000      	.insn	6, 0x04224cdf
 9794ccc749e:	0000                	.insn	2, 0x0000
 9794ccc74a0:	50df 0422 0000      	.insn	6, 0x042250df
 9794ccc74a6:	0000                	.insn	2, 0x0000
 9794ccc74a8:	54df 0422 0000      	.insn	6, 0x042254df
 9794ccc74ae:	0000                	.insn	2, 0x0000
 9794ccc74b0:	58df 0422 0000      	.insn	6, 0x042258df
 9794ccc74b6:	0000                	.insn	2, 0x0000
 9794ccc74b8:	5cdf 0422 0000      	.insn	6, 0x04225cdf
 9794ccc74be:	0000                	.insn	2, 0x0000
 9794ccc74c0:	60df 0422 0000      	.insn	6, 0x042260df
 9794ccc74c6:	0000                	.insn	2, 0x0000
 9794ccc74c8:	64df 0422 0000      	.insn	6, 0x042264df
 9794ccc74ce:	0000                	.insn	2, 0x0000
 9794ccc74d0:	68df 0422 0000      	.insn	6, 0x042268df
 9794ccc74d6:	0000                	.insn	2, 0x0000
 9794ccc74d8:	6cdf 0422 0000      	.insn	6, 0x04226cdf
 9794ccc74de:	0000                	.insn	2, 0x0000
 9794ccc74e0:	70df 0422 0000      	.insn	6, 0x042270df
 9794ccc74e6:	0000                	.insn	2, 0x0000
 9794ccc74e8:	74df 0422 0000      	.insn	6, 0x042274df
 9794ccc74ee:	0000                	.insn	2, 0x0000
 9794ccc74f0:	78df 0422 0000      	.insn	6, 0x042278df
 9794ccc74f6:	0000                	.insn	2, 0x0000
 9794ccc74f8:	7cdf 0422 0000      	.insn	6, 0x04227cdf
 9794ccc74fe:	0000                	.insn	2, 0x0000
 9794ccc7500:	80df 0422 0000      	.insn	6, 0x042280df
 9794ccc7506:	0000                	.insn	2, 0x0000
 9794ccc7508:	84df 0422 0000      	.insn	6, 0x042284df
 9794ccc750e:	0000                	.insn	2, 0x0000
 9794ccc7510:	88df 0422 0000      	.insn	6, 0x042288df
 9794ccc7516:	0000                	.insn	2, 0x0000
 9794ccc7518:	8cdf 0422 0000      	.insn	6, 0x04228cdf
 9794ccc751e:	0000                	.insn	2, 0x0000
 9794ccc7520:	90df 0422 0000      	.insn	6, 0x042290df
 9794ccc7526:	0000                	.insn	2, 0x0000
 9794ccc7528:	94df 0422 0000      	.insn	6, 0x042294df
 9794ccc752e:	0000                	.insn	2, 0x0000
 9794ccc7530:	98df 0422 0000      	.insn	6, 0x042298df
 9794ccc7536:	0000                	.insn	2, 0x0000
 9794ccc7538:	9cdf 0422 0000      	.insn	6, 0x04229cdf
 9794ccc753e:	0000                	.insn	2, 0x0000
 9794ccc7540:	a0df 0422 0000      	.insn	6, 0x0422a0df
 9794ccc7546:	0000                	.insn	2, 0x0000
 9794ccc7548:	a4df 0422 0000      	.insn	6, 0x0422a4df
 9794ccc754e:	0000                	.insn	2, 0x0000
 9794ccc7550:	a8df 0422 0000      	.insn	6, 0x0422a8df
 9794ccc7556:	0000                	.insn	2, 0x0000
 9794ccc7558:	acdf 0422 0000      	.insn	6, 0x0422acdf
 9794ccc755e:	0000                	.insn	2, 0x0000
 9794ccc7560:	b0df 0422 0000      	.insn	6, 0x0422b0df
 9794ccc7566:	0000                	.insn	2, 0x0000
 9794ccc7568:	b4df 0422 0000      	.insn	6, 0x0422b4df
 9794ccc756e:	0000                	.insn	2, 0x0000
 9794ccc7570:	b8df 0422 0000      	.insn	6, 0x0422b8df
 9794ccc7576:	0000                	.insn	2, 0x0000
 9794ccc7578:	bcdf 0422 0000      	.insn	6, 0x0422bcdf
 9794ccc757e:	0000                	.insn	2, 0x0000
 9794ccc7580:	c0df 0422 0000      	.insn	6, 0x0422c0df
 9794ccc7586:	0000                	.insn	2, 0x0000
 9794ccc7588:	c4df 0422 0000      	.insn	6, 0x0422c4df
 9794ccc758e:	0000                	.insn	2, 0x0000
 9794ccc7590:	c8df 0422 0000      	.insn	6, 0x0422c8df
 9794ccc7596:	0000                	.insn	2, 0x0000
 9794ccc7598:	ccdf 0422 0000      	.insn	6, 0x0422ccdf
 9794ccc759e:	0000                	.insn	2, 0x0000
 9794ccc75a0:	d0df 0422 0000      	.insn	6, 0x0422d0df
 9794ccc75a6:	0000                	.insn	2, 0x0000
 9794ccc75a8:	d4df 0422 0000      	.insn	6, 0x0422d4df
 9794ccc75ae:	0000                	.insn	2, 0x0000
 9794ccc75b0:	d8df 0422 0000      	.insn	6, 0x0422d8df
 9794ccc75b6:	0000                	.insn	2, 0x0000
 9794ccc75b8:	dcdf 0422 0000      	.insn	6, 0x0422dcdf
 9794ccc75be:	0000                	.insn	2, 0x0000
 9794ccc75c0:	e0df 0422 0000      	.insn	6, 0x0422e0df
 9794ccc75c6:	0000                	.insn	2, 0x0000
 9794ccc75c8:	e4df 0422 0000      	.insn	6, 0x0422e4df
 9794ccc75ce:	0000                	.insn	2, 0x0000
 9794ccc75d0:	e8df 0422 0000      	.insn	6, 0x0422e8df
 9794ccc75d6:	0000                	.insn	2, 0x0000
 9794ccc75d8:	ecdf 0422 0000      	.insn	6, 0x0422ecdf
 9794ccc75de:	0000                	.insn	2, 0x0000
 9794ccc75e0:	f0df 0422 0000      	.insn	6, 0x0422f0df
 9794ccc75e6:	0000                	.insn	2, 0x0000
 9794ccc75e8:	f4df 0422 0000      	.insn	6, 0x0422f4df
 9794ccc75ee:	0000                	.insn	2, 0x0000
 9794ccc75f0:	f8df 0422 0000      	.insn	6, 0x0422f8df
 9794ccc75f6:	0000                	.insn	2, 0x0000
 9794ccc75f8:	fcdf 0422 0000      	.insn	6, 0x0422fcdf
 9794ccc75fe:	0000                	.insn	2, 0x0000
 9794ccc7600:	00df 0423 0000      	.insn	6, 0x042300df
 9794ccc7606:	0000                	.insn	2, 0x0000
 9794ccc7608:	04df 0423 0000      	.insn	6, 0x042304df
 9794ccc760e:	0000                	.insn	2, 0x0000
 9794ccc7610:	08df 0423 0000      	.insn	6, 0x042308df
 9794ccc7616:	0000                	.insn	2, 0x0000
 9794ccc7618:	0cdf 0423 0000      	.insn	6, 0x04230cdf
 9794ccc761e:	0000                	.insn	2, 0x0000
 9794ccc7620:	10df 0423 0000      	.insn	6, 0x042310df
 9794ccc7626:	0000                	.insn	2, 0x0000
 9794ccc7628:	14df 0423 0000      	.insn	6, 0x042314df
 9794ccc762e:	0000                	.insn	2, 0x0000
 9794ccc7630:	18df 0423 0000      	.insn	6, 0x042318df
 9794ccc7636:	0000                	.insn	2, 0x0000
 9794ccc7638:	1cdf 0423 0000      	.insn	6, 0x04231cdf
 9794ccc763e:	0000                	.insn	2, 0x0000
 9794ccc7640:	20df 0423 0000      	.insn	6, 0x042320df
 9794ccc7646:	0000                	.insn	2, 0x0000
 9794ccc7648:	24df 0423 0000      	.insn	6, 0x042324df
 9794ccc764e:	0000                	.insn	2, 0x0000
 9794ccc7650:	28df 0423 0000      	.insn	6, 0x042328df
 9794ccc7656:	0000                	.insn	2, 0x0000
 9794ccc7658:	2cdf 0423 0000      	.insn	6, 0x04232cdf
 9794ccc765e:	0000                	.insn	2, 0x0000
 9794ccc7660:	30df 0423 0000      	.insn	6, 0x042330df
 9794ccc7666:	0000                	.insn	2, 0x0000
 9794ccc7668:	34df 0423 0000      	.insn	6, 0x042334df
 9794ccc766e:	0000                	.insn	2, 0x0000
 9794ccc7670:	38df 0423 0000      	.insn	6, 0x042338df
 9794ccc7676:	0000                	.insn	2, 0x0000
 9794ccc7678:	3cdf 0423 0000      	.insn	6, 0x04233cdf
 9794ccc767e:	0000                	.insn	2, 0x0000
 9794ccc7680:	40df 0423 0000      	.insn	6, 0x042340df
 9794ccc7686:	0000                	.insn	2, 0x0000
 9794ccc7688:	44df 0423 0000      	.insn	6, 0x042344df
 9794ccc768e:	0000                	.insn	2, 0x0000
 9794ccc7690:	48df 0423 0000      	.insn	6, 0x042348df
 9794ccc7696:	0000                	.insn	2, 0x0000
 9794ccc7698:	4cdf 0423 0000      	.insn	6, 0x04234cdf
 9794ccc769e:	0000                	.insn	2, 0x0000
 9794ccc76a0:	50df 0423 0000      	.insn	6, 0x042350df
 9794ccc76a6:	0000                	.insn	2, 0x0000
 9794ccc76a8:	54df 0423 0000      	.insn	6, 0x042354df
 9794ccc76ae:	0000                	.insn	2, 0x0000
 9794ccc76b0:	58df 0423 0000      	.insn	6, 0x042358df
 9794ccc76b6:	0000                	.insn	2, 0x0000
 9794ccc76b8:	5cdf 0423 0000      	.insn	6, 0x04235cdf
 9794ccc76be:	0000                	.insn	2, 0x0000
 9794ccc76c0:	60df 0423 0000      	.insn	6, 0x042360df
 9794ccc76c6:	0000                	.insn	2, 0x0000
 9794ccc76c8:	64df 0423 0000      	.insn	6, 0x042364df
 9794ccc76ce:	0000                	.insn	2, 0x0000
 9794ccc76d0:	68df 0423 0000      	.insn	6, 0x042368df
 9794ccc76d6:	0000                	.insn	2, 0x0000
 9794ccc76d8:	6cdf 0423 0000      	.insn	6, 0x04236cdf
 9794ccc76de:	0000                	.insn	2, 0x0000
 9794ccc76e0:	70df 0423 0000      	.insn	6, 0x042370df
 9794ccc76e6:	0000                	.insn	2, 0x0000
 9794ccc76e8:	74df 0423 0000      	.insn	6, 0x042374df
 9794ccc76ee:	0000                	.insn	2, 0x0000
 9794ccc76f0:	78df 0423 0000      	.insn	6, 0x042378df
 9794ccc76f6:	0000                	.insn	2, 0x0000
 9794ccc76f8:	7cdf 0423 0000      	.insn	6, 0x04237cdf
 9794ccc76fe:	0000                	.insn	2, 0x0000
 9794ccc7700:	80df 0423 0000      	.insn	6, 0x042380df
 9794ccc7706:	0000                	.insn	2, 0x0000
 9794ccc7708:	84df 0423 0000      	.insn	6, 0x042384df
 9794ccc770e:	0000                	.insn	2, 0x0000
 9794ccc7710:	88df 0423 0000      	.insn	6, 0x042388df
 9794ccc7716:	0000                	.insn	2, 0x0000
 9794ccc7718:	8cdf 0423 0000      	.insn	6, 0x04238cdf
 9794ccc771e:	0000                	.insn	2, 0x0000
 9794ccc7720:	90df 0423 0000      	.insn	6, 0x042390df
 9794ccc7726:	0000                	.insn	2, 0x0000
 9794ccc7728:	94df 0423 0000      	.insn	6, 0x042394df
 9794ccc772e:	0000                	.insn	2, 0x0000
 9794ccc7730:	98df 0423 0000      	.insn	6, 0x042398df
 9794ccc7736:	0000                	.insn	2, 0x0000
 9794ccc7738:	9cdf 0423 0000      	.insn	6, 0x04239cdf
 9794ccc773e:	0000                	.insn	2, 0x0000
 9794ccc7740:	a0df 0423 0000      	.insn	6, 0x0423a0df
 9794ccc7746:	0000                	.insn	2, 0x0000
 9794ccc7748:	a4df 0423 0000      	.insn	6, 0x0423a4df
 9794ccc774e:	0000                	.insn	2, 0x0000
 9794ccc7750:	a8df 0423 0000      	.insn	6, 0x0423a8df
 9794ccc7756:	0000                	.insn	2, 0x0000
 9794ccc7758:	acdf 0423 0000      	.insn	6, 0x0423acdf
 9794ccc775e:	0000                	.insn	2, 0x0000
 9794ccc7760:	b0df 0423 0000      	.insn	6, 0x0423b0df
 9794ccc7766:	0000                	.insn	2, 0x0000
 9794ccc7768:	b4df 0423 0000      	.insn	6, 0x0423b4df
 9794ccc776e:	0000                	.insn	2, 0x0000
 9794ccc7770:	b8df 0423 0000      	.insn	6, 0x0423b8df
 9794ccc7776:	0000                	.insn	2, 0x0000
 9794ccc7778:	bcdf 0423 0000      	.insn	6, 0x0423bcdf
 9794ccc777e:	0000                	.insn	2, 0x0000
 9794ccc7780:	c0df 0423 0000      	.insn	6, 0x0423c0df
 9794ccc7786:	0000                	.insn	2, 0x0000
 9794ccc7788:	c4df 0423 0000      	.insn	6, 0x0423c4df
 9794ccc778e:	0000                	.insn	2, 0x0000
 9794ccc7790:	c8df 0423 0000      	.insn	6, 0x0423c8df
 9794ccc7796:	0000                	.insn	2, 0x0000
 9794ccc7798:	ccdf 0423 0000      	.insn	6, 0x0423ccdf
 9794ccc779e:	0000                	.insn	2, 0x0000
 9794ccc77a0:	d0df 0423 0000      	.insn	6, 0x0423d0df
 9794ccc77a6:	0000                	.insn	2, 0x0000
 9794ccc77a8:	d4df 0423 0000      	.insn	6, 0x0423d4df
 9794ccc77ae:	0000                	.insn	2, 0x0000
 9794ccc77b0:	d8df 0423 0000      	.insn	6, 0x0423d8df
 9794ccc77b6:	0000                	.insn	2, 0x0000
 9794ccc77b8:	dcdf 0423 0000      	.insn	6, 0x0423dcdf
 9794ccc77be:	0000                	.insn	2, 0x0000
 9794ccc77c0:	e0df 0423 0000      	.insn	6, 0x0423e0df
 9794ccc77c6:	0000                	.insn	2, 0x0000
 9794ccc77c8:	e4df 0423 0000      	.insn	6, 0x0423e4df
 9794ccc77ce:	0000                	.insn	2, 0x0000
 9794ccc77d0:	e8df 0423 0000      	.insn	6, 0x0423e8df
 9794ccc77d6:	0000                	.insn	2, 0x0000
 9794ccc77d8:	ecdf 0423 0000      	.insn	6, 0x0423ecdf
 9794ccc77de:	0000                	.insn	2, 0x0000
 9794ccc77e0:	f0df 0423 0000      	.insn	6, 0x0423f0df
 9794ccc77e6:	0000                	.insn	2, 0x0000
 9794ccc77e8:	f4df 0423 0000      	.insn	6, 0x0423f4df
 9794ccc77ee:	0000                	.insn	2, 0x0000
 9794ccc77f0:	f8df 0423 0000      	.insn	6, 0x0423f8df
 9794ccc77f6:	0000                	.insn	2, 0x0000
 9794ccc77f8:	fcdf 0423 0000      	.insn	6, 0x0423fcdf
	...

Disassembly of section .__pagetable_map_os_0x000021749f137000:

000021749f137000 <__pagetable_map_os_0x000021749f137000>:
    21749f137000:	00df 0820 0000      	.insn	6, 0x082000df
    21749f137006:	0000                	.insn	2, 0x0000
    21749f137008:	04df 0820 0000      	.insn	6, 0x082004df
    21749f13700e:	0000                	.insn	2, 0x0000
    21749f137010:	08df 0820 0000      	.insn	6, 0x082008df
    21749f137016:	0000                	.insn	2, 0x0000
    21749f137018:	0cdf 0820 0000      	.insn	6, 0x08200cdf
    21749f13701e:	0000                	.insn	2, 0x0000
    21749f137020:	10df 0820 0000      	.insn	6, 0x082010df
    21749f137026:	0000                	.insn	2, 0x0000
    21749f137028:	14df 0820 0000      	.insn	6, 0x082014df
    21749f13702e:	0000                	.insn	2, 0x0000
    21749f137030:	18df 0820 0000      	.insn	6, 0x082018df
    21749f137036:	0000                	.insn	2, 0x0000
    21749f137038:	1cdf 0820 0000      	.insn	6, 0x08201cdf
    21749f13703e:	0000                	.insn	2, 0x0000
    21749f137040:	20df 0820 0000      	.insn	6, 0x082020df
    21749f137046:	0000                	.insn	2, 0x0000
    21749f137048:	24df 0820 0000      	.insn	6, 0x082024df
    21749f13704e:	0000                	.insn	2, 0x0000
    21749f137050:	28df 0820 0000      	.insn	6, 0x082028df
    21749f137056:	0000                	.insn	2, 0x0000
    21749f137058:	2cdf 0820 0000      	.insn	6, 0x08202cdf
    21749f13705e:	0000                	.insn	2, 0x0000
    21749f137060:	30df 0820 0000      	.insn	6, 0x082030df
    21749f137066:	0000                	.insn	2, 0x0000
    21749f137068:	34df 0820 0000      	.insn	6, 0x082034df
    21749f13706e:	0000                	.insn	2, 0x0000
    21749f137070:	38df 0820 0000      	.insn	6, 0x082038df
    21749f137076:	0000                	.insn	2, 0x0000
    21749f137078:	3cdf 0820 0000      	.insn	6, 0x08203cdf
    21749f13707e:	0000                	.insn	2, 0x0000
    21749f137080:	40df 0820 0000      	.insn	6, 0x082040df
    21749f137086:	0000                	.insn	2, 0x0000
    21749f137088:	44df 0820 0000      	.insn	6, 0x082044df
    21749f13708e:	0000                	.insn	2, 0x0000
    21749f137090:	48df 0820 0000      	.insn	6, 0x082048df
    21749f137096:	0000                	.insn	2, 0x0000
    21749f137098:	4cdf 0820 0000      	.insn	6, 0x08204cdf
    21749f13709e:	0000                	.insn	2, 0x0000
    21749f1370a0:	50df 0820 0000      	.insn	6, 0x082050df
    21749f1370a6:	0000                	.insn	2, 0x0000
    21749f1370a8:	54df 0820 0000      	.insn	6, 0x082054df
    21749f1370ae:	0000                	.insn	2, 0x0000
    21749f1370b0:	58df 0820 0000      	.insn	6, 0x082058df
    21749f1370b6:	0000                	.insn	2, 0x0000
    21749f1370b8:	5cdf 0820 0000      	.insn	6, 0x08205cdf
    21749f1370be:	0000                	.insn	2, 0x0000
    21749f1370c0:	60df 0820 0000      	.insn	6, 0x082060df
    21749f1370c6:	0000                	.insn	2, 0x0000
    21749f1370c8:	64df 0820 0000      	.insn	6, 0x082064df
    21749f1370ce:	0000                	.insn	2, 0x0000
    21749f1370d0:	68df 0820 0000      	.insn	6, 0x082068df
    21749f1370d6:	0000                	.insn	2, 0x0000
    21749f1370d8:	6cdf 0820 0000      	.insn	6, 0x08206cdf
    21749f1370de:	0000                	.insn	2, 0x0000
    21749f1370e0:	70df 0820 0000      	.insn	6, 0x082070df
    21749f1370e6:	0000                	.insn	2, 0x0000
    21749f1370e8:	74df 0820 0000      	.insn	6, 0x082074df
    21749f1370ee:	0000                	.insn	2, 0x0000
    21749f1370f0:	78df 0820 0000      	.insn	6, 0x082078df
    21749f1370f6:	0000                	.insn	2, 0x0000
    21749f1370f8:	7cdf 0820 0000      	.insn	6, 0x08207cdf
    21749f1370fe:	0000                	.insn	2, 0x0000
    21749f137100:	80df 0820 0000      	.insn	6, 0x082080df
    21749f137106:	0000                	.insn	2, 0x0000
    21749f137108:	84df 0820 0000      	.insn	6, 0x082084df
    21749f13710e:	0000                	.insn	2, 0x0000
    21749f137110:	88df 0820 0000      	.insn	6, 0x082088df
    21749f137116:	0000                	.insn	2, 0x0000
    21749f137118:	8cdf 0820 0000      	.insn	6, 0x08208cdf
    21749f13711e:	0000                	.insn	2, 0x0000
    21749f137120:	90df 0820 0000      	.insn	6, 0x082090df
    21749f137126:	0000                	.insn	2, 0x0000
    21749f137128:	94df 0820 0000      	.insn	6, 0x082094df
    21749f13712e:	0000                	.insn	2, 0x0000
    21749f137130:	98df 0820 0000      	.insn	6, 0x082098df
    21749f137136:	0000                	.insn	2, 0x0000
    21749f137138:	9cdf 0820 0000      	.insn	6, 0x08209cdf
    21749f13713e:	0000                	.insn	2, 0x0000
    21749f137140:	a0df 0820 0000      	.insn	6, 0x0820a0df
    21749f137146:	0000                	.insn	2, 0x0000
    21749f137148:	a4df 0820 0000      	.insn	6, 0x0820a4df
    21749f13714e:	0000                	.insn	2, 0x0000
    21749f137150:	a8df 0820 0000      	.insn	6, 0x0820a8df
    21749f137156:	0000                	.insn	2, 0x0000
    21749f137158:	acdf 0820 0000      	.insn	6, 0x0820acdf
    21749f13715e:	0000                	.insn	2, 0x0000
    21749f137160:	b0df 0820 0000      	.insn	6, 0x0820b0df
    21749f137166:	0000                	.insn	2, 0x0000
    21749f137168:	b4df 0820 0000      	.insn	6, 0x0820b4df
    21749f13716e:	0000                	.insn	2, 0x0000
    21749f137170:	b8df 0820 0000      	.insn	6, 0x0820b8df
    21749f137176:	0000                	.insn	2, 0x0000
    21749f137178:	bcdf 0820 0000      	.insn	6, 0x0820bcdf
    21749f13717e:	0000                	.insn	2, 0x0000
    21749f137180:	c0df 0820 0000      	.insn	6, 0x0820c0df
    21749f137186:	0000                	.insn	2, 0x0000
    21749f137188:	c4df 0820 0000      	.insn	6, 0x0820c4df
    21749f13718e:	0000                	.insn	2, 0x0000
    21749f137190:	c8df 0820 0000      	.insn	6, 0x0820c8df
    21749f137196:	0000                	.insn	2, 0x0000
    21749f137198:	ccdf 0820 0000      	.insn	6, 0x0820ccdf
    21749f13719e:	0000                	.insn	2, 0x0000
    21749f1371a0:	d0df 0820 0000      	.insn	6, 0x0820d0df
    21749f1371a6:	0000                	.insn	2, 0x0000
    21749f1371a8:	d4df 0820 0000      	.insn	6, 0x0820d4df
    21749f1371ae:	0000                	.insn	2, 0x0000
    21749f1371b0:	d8df 0820 0000      	.insn	6, 0x0820d8df
    21749f1371b6:	0000                	.insn	2, 0x0000
    21749f1371b8:	dcdf 0820 0000      	.insn	6, 0x0820dcdf
    21749f1371be:	0000                	.insn	2, 0x0000
    21749f1371c0:	e0df 0820 0000      	.insn	6, 0x0820e0df
    21749f1371c6:	0000                	.insn	2, 0x0000
    21749f1371c8:	e4df 0820 0000      	.insn	6, 0x0820e4df
    21749f1371ce:	0000                	.insn	2, 0x0000
    21749f1371d0:	e8df 0820 0000      	.insn	6, 0x0820e8df
    21749f1371d6:	0000                	.insn	2, 0x0000
    21749f1371d8:	ecdf 0820 0000      	.insn	6, 0x0820ecdf
    21749f1371de:	0000                	.insn	2, 0x0000
    21749f1371e0:	f0df 0820 0000      	.insn	6, 0x0820f0df
    21749f1371e6:	0000                	.insn	2, 0x0000
    21749f1371e8:	f4df 0820 0000      	.insn	6, 0x0820f4df
    21749f1371ee:	0000                	.insn	2, 0x0000
    21749f1371f0:	f8df 0820 0000      	.insn	6, 0x0820f8df
    21749f1371f6:	0000                	.insn	2, 0x0000
    21749f1371f8:	fcdf 0820 0000      	.insn	6, 0x0820fcdf
    21749f1371fe:	0000                	.insn	2, 0x0000
    21749f137200:	00df 0821 0000      	.insn	6, 0x082100df
    21749f137206:	0000                	.insn	2, 0x0000
    21749f137208:	04df 0821 0000      	.insn	6, 0x082104df
    21749f13720e:	0000                	.insn	2, 0x0000
    21749f137210:	08df 0821 0000      	.insn	6, 0x082108df
    21749f137216:	0000                	.insn	2, 0x0000
    21749f137218:	0cdf 0821 0000      	.insn	6, 0x08210cdf
    21749f13721e:	0000                	.insn	2, 0x0000
    21749f137220:	10df 0821 0000      	.insn	6, 0x082110df
    21749f137226:	0000                	.insn	2, 0x0000
    21749f137228:	14df 0821 0000      	.insn	6, 0x082114df
    21749f13722e:	0000                	.insn	2, 0x0000
    21749f137230:	18df 0821 0000      	.insn	6, 0x082118df
    21749f137236:	0000                	.insn	2, 0x0000
    21749f137238:	1cdf 0821 0000      	.insn	6, 0x08211cdf
    21749f13723e:	0000                	.insn	2, 0x0000
    21749f137240:	20df 0821 0000      	.insn	6, 0x082120df
    21749f137246:	0000                	.insn	2, 0x0000
    21749f137248:	24df 0821 0000      	.insn	6, 0x082124df
    21749f13724e:	0000                	.insn	2, 0x0000
    21749f137250:	28df 0821 0000      	.insn	6, 0x082128df
    21749f137256:	0000                	.insn	2, 0x0000
    21749f137258:	2cdf 0821 0000      	.insn	6, 0x08212cdf
    21749f13725e:	0000                	.insn	2, 0x0000
    21749f137260:	30df 0821 0000      	.insn	6, 0x082130df
    21749f137266:	0000                	.insn	2, 0x0000
    21749f137268:	34df 0821 0000      	.insn	6, 0x082134df
    21749f13726e:	0000                	.insn	2, 0x0000
    21749f137270:	38df 0821 0000      	.insn	6, 0x082138df
    21749f137276:	0000                	.insn	2, 0x0000
    21749f137278:	3cdf 0821 0000      	.insn	6, 0x08213cdf
    21749f13727e:	0000                	.insn	2, 0x0000
    21749f137280:	40df 0821 0000      	.insn	6, 0x082140df
    21749f137286:	0000                	.insn	2, 0x0000
    21749f137288:	44df 0821 0000      	.insn	6, 0x082144df
    21749f13728e:	0000                	.insn	2, 0x0000
    21749f137290:	48df 0821 0000      	.insn	6, 0x082148df
    21749f137296:	0000                	.insn	2, 0x0000
    21749f137298:	4cdf 0821 0000      	.insn	6, 0x08214cdf
    21749f13729e:	0000                	.insn	2, 0x0000
    21749f1372a0:	50df 0821 0000      	.insn	6, 0x082150df
    21749f1372a6:	0000                	.insn	2, 0x0000
    21749f1372a8:	54df 0821 0000      	.insn	6, 0x082154df
    21749f1372ae:	0000                	.insn	2, 0x0000
    21749f1372b0:	58df 0821 0000      	.insn	6, 0x082158df
    21749f1372b6:	0000                	.insn	2, 0x0000
    21749f1372b8:	5cdf 0821 0000      	.insn	6, 0x08215cdf
    21749f1372be:	0000                	.insn	2, 0x0000
    21749f1372c0:	60df 0821 0000      	.insn	6, 0x082160df
    21749f1372c6:	0000                	.insn	2, 0x0000
    21749f1372c8:	64df 0821 0000      	.insn	6, 0x082164df
    21749f1372ce:	0000                	.insn	2, 0x0000
    21749f1372d0:	68df 0821 0000      	.insn	6, 0x082168df
    21749f1372d6:	0000                	.insn	2, 0x0000
    21749f1372d8:	6cdf 0821 0000      	.insn	6, 0x08216cdf
    21749f1372de:	0000                	.insn	2, 0x0000
    21749f1372e0:	70df 0821 0000      	.insn	6, 0x082170df
    21749f1372e6:	0000                	.insn	2, 0x0000
    21749f1372e8:	74df 0821 0000      	.insn	6, 0x082174df
    21749f1372ee:	0000                	.insn	2, 0x0000
    21749f1372f0:	78df 0821 0000      	.insn	6, 0x082178df
    21749f1372f6:	0000                	.insn	2, 0x0000
    21749f1372f8:	7cdf 0821 0000      	.insn	6, 0x08217cdf
    21749f1372fe:	0000                	.insn	2, 0x0000
    21749f137300:	80df 0821 0000      	.insn	6, 0x082180df
    21749f137306:	0000                	.insn	2, 0x0000
    21749f137308:	84df 0821 0000      	.insn	6, 0x082184df
    21749f13730e:	0000                	.insn	2, 0x0000
    21749f137310:	88df 0821 0000      	.insn	6, 0x082188df
    21749f137316:	0000                	.insn	2, 0x0000
    21749f137318:	8cdf 0821 0000      	.insn	6, 0x08218cdf
    21749f13731e:	0000                	.insn	2, 0x0000
    21749f137320:	90df 0821 0000      	.insn	6, 0x082190df
    21749f137326:	0000                	.insn	2, 0x0000
    21749f137328:	94df 0821 0000      	.insn	6, 0x082194df
    21749f13732e:	0000                	.insn	2, 0x0000
    21749f137330:	98df 0821 0000      	.insn	6, 0x082198df
    21749f137336:	0000                	.insn	2, 0x0000
    21749f137338:	9cdf 0821 0000      	.insn	6, 0x08219cdf
    21749f13733e:	0000                	.insn	2, 0x0000
    21749f137340:	a0df 0821 0000      	.insn	6, 0x0821a0df
    21749f137346:	0000                	.insn	2, 0x0000
    21749f137348:	a4df 0821 0000      	.insn	6, 0x0821a4df
    21749f13734e:	0000                	.insn	2, 0x0000
    21749f137350:	a8df 0821 0000      	.insn	6, 0x0821a8df
    21749f137356:	0000                	.insn	2, 0x0000
    21749f137358:	acdf 0821 0000      	.insn	6, 0x0821acdf
    21749f13735e:	0000                	.insn	2, 0x0000
    21749f137360:	b0df 0821 0000      	.insn	6, 0x0821b0df
    21749f137366:	0000                	.insn	2, 0x0000
    21749f137368:	b4df 0821 0000      	.insn	6, 0x0821b4df
    21749f13736e:	0000                	.insn	2, 0x0000
    21749f137370:	b8df 0821 0000      	.insn	6, 0x0821b8df
    21749f137376:	0000                	.insn	2, 0x0000
    21749f137378:	bcdf 0821 0000      	.insn	6, 0x0821bcdf
    21749f13737e:	0000                	.insn	2, 0x0000
    21749f137380:	c0df 0821 0000      	.insn	6, 0x0821c0df
    21749f137386:	0000                	.insn	2, 0x0000
    21749f137388:	c4df 0821 0000      	.insn	6, 0x0821c4df
    21749f13738e:	0000                	.insn	2, 0x0000
    21749f137390:	c8df 0821 0000      	.insn	6, 0x0821c8df
    21749f137396:	0000                	.insn	2, 0x0000
    21749f137398:	ccdf 0821 0000      	.insn	6, 0x0821ccdf
    21749f13739e:	0000                	.insn	2, 0x0000
    21749f1373a0:	d0df 0821 0000      	.insn	6, 0x0821d0df
    21749f1373a6:	0000                	.insn	2, 0x0000
    21749f1373a8:	d4df 0821 0000      	.insn	6, 0x0821d4df
    21749f1373ae:	0000                	.insn	2, 0x0000
    21749f1373b0:	d8df 0821 0000      	.insn	6, 0x0821d8df
    21749f1373b6:	0000                	.insn	2, 0x0000
    21749f1373b8:	dcdf 0821 0000      	.insn	6, 0x0821dcdf
    21749f1373be:	0000                	.insn	2, 0x0000
    21749f1373c0:	e0df 0821 0000      	.insn	6, 0x0821e0df
    21749f1373c6:	0000                	.insn	2, 0x0000
    21749f1373c8:	e4df 0821 0000      	.insn	6, 0x0821e4df
    21749f1373ce:	0000                	.insn	2, 0x0000
    21749f1373d0:	e8df 0821 0000      	.insn	6, 0x0821e8df
    21749f1373d6:	0000                	.insn	2, 0x0000
    21749f1373d8:	ecdf 0821 0000      	.insn	6, 0x0821ecdf
    21749f1373de:	0000                	.insn	2, 0x0000
    21749f1373e0:	f0df 0821 0000      	.insn	6, 0x0821f0df
    21749f1373e6:	0000                	.insn	2, 0x0000
    21749f1373e8:	f4df 0821 0000      	.insn	6, 0x0821f4df
    21749f1373ee:	0000                	.insn	2, 0x0000
    21749f1373f0:	f8df 0821 0000      	.insn	6, 0x0821f8df
    21749f1373f6:	0000                	.insn	2, 0x0000
    21749f1373f8:	fcdf 0821 0000      	.insn	6, 0x0821fcdf
    21749f1373fe:	0000                	.insn	2, 0x0000
    21749f137400:	00df 0822 0000      	.insn	6, 0x082200df
    21749f137406:	0000                	.insn	2, 0x0000
    21749f137408:	04df 0822 0000      	.insn	6, 0x082204df
    21749f13740e:	0000                	.insn	2, 0x0000
    21749f137410:	08df 0822 0000      	.insn	6, 0x082208df
    21749f137416:	0000                	.insn	2, 0x0000
    21749f137418:	0cdf 0822 0000      	.insn	6, 0x08220cdf
    21749f13741e:	0000                	.insn	2, 0x0000
    21749f137420:	10df 0822 0000      	.insn	6, 0x082210df
    21749f137426:	0000                	.insn	2, 0x0000
    21749f137428:	14df 0822 0000      	.insn	6, 0x082214df
    21749f13742e:	0000                	.insn	2, 0x0000
    21749f137430:	18df 0822 0000      	.insn	6, 0x082218df
    21749f137436:	0000                	.insn	2, 0x0000
    21749f137438:	1cdf 0822 0000      	.insn	6, 0x08221cdf
    21749f13743e:	0000                	.insn	2, 0x0000
    21749f137440:	20df 0822 0000      	.insn	6, 0x082220df
    21749f137446:	0000                	.insn	2, 0x0000
    21749f137448:	24df 0822 0000      	.insn	6, 0x082224df
    21749f13744e:	0000                	.insn	2, 0x0000
    21749f137450:	28df 0822 0000      	.insn	6, 0x082228df
    21749f137456:	0000                	.insn	2, 0x0000
    21749f137458:	2cdf 0822 0000      	.insn	6, 0x08222cdf
    21749f13745e:	0000                	.insn	2, 0x0000
    21749f137460:	30df 0822 0000      	.insn	6, 0x082230df
    21749f137466:	0000                	.insn	2, 0x0000
    21749f137468:	34df 0822 0000      	.insn	6, 0x082234df
    21749f13746e:	0000                	.insn	2, 0x0000
    21749f137470:	38df 0822 0000      	.insn	6, 0x082238df
    21749f137476:	0000                	.insn	2, 0x0000
    21749f137478:	3cdf 0822 0000      	.insn	6, 0x08223cdf
    21749f13747e:	0000                	.insn	2, 0x0000
    21749f137480:	40df 0822 0000      	.insn	6, 0x082240df
    21749f137486:	0000                	.insn	2, 0x0000
    21749f137488:	44df 0822 0000      	.insn	6, 0x082244df
    21749f13748e:	0000                	.insn	2, 0x0000
    21749f137490:	48df 0822 0000      	.insn	6, 0x082248df
    21749f137496:	0000                	.insn	2, 0x0000
    21749f137498:	4cdf 0822 0000      	.insn	6, 0x08224cdf
    21749f13749e:	0000                	.insn	2, 0x0000
    21749f1374a0:	50df 0822 0000      	.insn	6, 0x082250df
    21749f1374a6:	0000                	.insn	2, 0x0000
    21749f1374a8:	54df 0822 0000      	.insn	6, 0x082254df
    21749f1374ae:	0000                	.insn	2, 0x0000
    21749f1374b0:	58df 0822 0000      	.insn	6, 0x082258df
    21749f1374b6:	0000                	.insn	2, 0x0000
    21749f1374b8:	5cdf 0822 0000      	.insn	6, 0x08225cdf
    21749f1374be:	0000                	.insn	2, 0x0000
    21749f1374c0:	60df 0822 0000      	.insn	6, 0x082260df
    21749f1374c6:	0000                	.insn	2, 0x0000
    21749f1374c8:	64df 0822 0000      	.insn	6, 0x082264df
    21749f1374ce:	0000                	.insn	2, 0x0000
    21749f1374d0:	68df 0822 0000      	.insn	6, 0x082268df
    21749f1374d6:	0000                	.insn	2, 0x0000
    21749f1374d8:	6cdf 0822 0000      	.insn	6, 0x08226cdf
    21749f1374de:	0000                	.insn	2, 0x0000
    21749f1374e0:	70df 0822 0000      	.insn	6, 0x082270df
    21749f1374e6:	0000                	.insn	2, 0x0000
    21749f1374e8:	74df 0822 0000      	.insn	6, 0x082274df
    21749f1374ee:	0000                	.insn	2, 0x0000
    21749f1374f0:	78df 0822 0000      	.insn	6, 0x082278df
    21749f1374f6:	0000                	.insn	2, 0x0000
    21749f1374f8:	7cdf 0822 0000      	.insn	6, 0x08227cdf
    21749f1374fe:	0000                	.insn	2, 0x0000
    21749f137500:	80df 0822 0000      	.insn	6, 0x082280df
    21749f137506:	0000                	.insn	2, 0x0000
    21749f137508:	84df 0822 0000      	.insn	6, 0x082284df
    21749f13750e:	0000                	.insn	2, 0x0000
    21749f137510:	88df 0822 0000      	.insn	6, 0x082288df
    21749f137516:	0000                	.insn	2, 0x0000
    21749f137518:	8cdf 0822 0000      	.insn	6, 0x08228cdf
    21749f13751e:	0000                	.insn	2, 0x0000
    21749f137520:	90df 0822 0000      	.insn	6, 0x082290df
    21749f137526:	0000                	.insn	2, 0x0000
    21749f137528:	94df 0822 0000      	.insn	6, 0x082294df
    21749f13752e:	0000                	.insn	2, 0x0000
    21749f137530:	98df 0822 0000      	.insn	6, 0x082298df
    21749f137536:	0000                	.insn	2, 0x0000
    21749f137538:	9cdf 0822 0000      	.insn	6, 0x08229cdf
    21749f13753e:	0000                	.insn	2, 0x0000
    21749f137540:	a0df 0822 0000      	.insn	6, 0x0822a0df
    21749f137546:	0000                	.insn	2, 0x0000
    21749f137548:	a4df 0822 0000      	.insn	6, 0x0822a4df
    21749f13754e:	0000                	.insn	2, 0x0000
    21749f137550:	a8df 0822 0000      	.insn	6, 0x0822a8df
    21749f137556:	0000                	.insn	2, 0x0000
    21749f137558:	acdf 0822 0000      	.insn	6, 0x0822acdf
    21749f13755e:	0000                	.insn	2, 0x0000
    21749f137560:	b0df 0822 0000      	.insn	6, 0x0822b0df
    21749f137566:	0000                	.insn	2, 0x0000
    21749f137568:	b4df 0822 0000      	.insn	6, 0x0822b4df
    21749f13756e:	0000                	.insn	2, 0x0000
    21749f137570:	b8df 0822 0000      	.insn	6, 0x0822b8df
    21749f137576:	0000                	.insn	2, 0x0000
    21749f137578:	bcdf 0822 0000      	.insn	6, 0x0822bcdf
    21749f13757e:	0000                	.insn	2, 0x0000
    21749f137580:	c0df 0822 0000      	.insn	6, 0x0822c0df
    21749f137586:	0000                	.insn	2, 0x0000
    21749f137588:	c4df 0822 0000      	.insn	6, 0x0822c4df
    21749f13758e:	0000                	.insn	2, 0x0000
    21749f137590:	c8df 0822 0000      	.insn	6, 0x0822c8df
    21749f137596:	0000                	.insn	2, 0x0000
    21749f137598:	ccdf 0822 0000      	.insn	6, 0x0822ccdf
    21749f13759e:	0000                	.insn	2, 0x0000
    21749f1375a0:	d0df 0822 0000      	.insn	6, 0x0822d0df
    21749f1375a6:	0000                	.insn	2, 0x0000
    21749f1375a8:	d4df 0822 0000      	.insn	6, 0x0822d4df
    21749f1375ae:	0000                	.insn	2, 0x0000
    21749f1375b0:	d8df 0822 0000      	.insn	6, 0x0822d8df
    21749f1375b6:	0000                	.insn	2, 0x0000
    21749f1375b8:	dcdf 0822 0000      	.insn	6, 0x0822dcdf
    21749f1375be:	0000                	.insn	2, 0x0000
    21749f1375c0:	e0df 0822 0000      	.insn	6, 0x0822e0df
    21749f1375c6:	0000                	.insn	2, 0x0000
    21749f1375c8:	e4df 0822 0000      	.insn	6, 0x0822e4df
    21749f1375ce:	0000                	.insn	2, 0x0000
    21749f1375d0:	e8df 0822 0000      	.insn	6, 0x0822e8df
    21749f1375d6:	0000                	.insn	2, 0x0000
    21749f1375d8:	ecdf 0822 0000      	.insn	6, 0x0822ecdf
    21749f1375de:	0000                	.insn	2, 0x0000
    21749f1375e0:	f0df 0822 0000      	.insn	6, 0x0822f0df
    21749f1375e6:	0000                	.insn	2, 0x0000
    21749f1375e8:	f4df 0822 0000      	.insn	6, 0x0822f4df
    21749f1375ee:	0000                	.insn	2, 0x0000
    21749f1375f0:	f8df 0822 0000      	.insn	6, 0x0822f8df
    21749f1375f6:	0000                	.insn	2, 0x0000
    21749f1375f8:	fcdf 0822 0000      	.insn	6, 0x0822fcdf
    21749f1375fe:	0000                	.insn	2, 0x0000
    21749f137600:	00df 0823 0000      	.insn	6, 0x082300df
    21749f137606:	0000                	.insn	2, 0x0000
    21749f137608:	04df 0823 0000      	.insn	6, 0x082304df
    21749f13760e:	0000                	.insn	2, 0x0000
    21749f137610:	08df 0823 0000      	.insn	6, 0x082308df
    21749f137616:	0000                	.insn	2, 0x0000
    21749f137618:	0cdf 0823 0000      	.insn	6, 0x08230cdf
    21749f13761e:	0000                	.insn	2, 0x0000
    21749f137620:	10df 0823 0000      	.insn	6, 0x082310df
    21749f137626:	0000                	.insn	2, 0x0000
    21749f137628:	14df 0823 0000      	.insn	6, 0x082314df
    21749f13762e:	0000                	.insn	2, 0x0000
    21749f137630:	18df 0823 0000      	.insn	6, 0x082318df
    21749f137636:	0000                	.insn	2, 0x0000
    21749f137638:	1cdf 0823 0000      	.insn	6, 0x08231cdf
    21749f13763e:	0000                	.insn	2, 0x0000
    21749f137640:	20df 0823 0000      	.insn	6, 0x082320df
    21749f137646:	0000                	.insn	2, 0x0000
    21749f137648:	24df 0823 0000      	.insn	6, 0x082324df
    21749f13764e:	0000                	.insn	2, 0x0000
    21749f137650:	28df 0823 0000      	.insn	6, 0x082328df
    21749f137656:	0000                	.insn	2, 0x0000
    21749f137658:	2cdf 0823 0000      	.insn	6, 0x08232cdf
    21749f13765e:	0000                	.insn	2, 0x0000
    21749f137660:	30df 0823 0000      	.insn	6, 0x082330df
    21749f137666:	0000                	.insn	2, 0x0000
    21749f137668:	34df 0823 0000      	.insn	6, 0x082334df
    21749f13766e:	0000                	.insn	2, 0x0000
    21749f137670:	38df 0823 0000      	.insn	6, 0x082338df
    21749f137676:	0000                	.insn	2, 0x0000
    21749f137678:	3cdf 0823 0000      	.insn	6, 0x08233cdf
    21749f13767e:	0000                	.insn	2, 0x0000
    21749f137680:	40df 0823 0000      	.insn	6, 0x082340df
    21749f137686:	0000                	.insn	2, 0x0000
    21749f137688:	44df 0823 0000      	.insn	6, 0x082344df
    21749f13768e:	0000                	.insn	2, 0x0000
    21749f137690:	48df 0823 0000      	.insn	6, 0x082348df
    21749f137696:	0000                	.insn	2, 0x0000
    21749f137698:	4cdf 0823 0000      	.insn	6, 0x08234cdf
    21749f13769e:	0000                	.insn	2, 0x0000
    21749f1376a0:	50df 0823 0000      	.insn	6, 0x082350df
    21749f1376a6:	0000                	.insn	2, 0x0000
    21749f1376a8:	54df 0823 0000      	.insn	6, 0x082354df
    21749f1376ae:	0000                	.insn	2, 0x0000
    21749f1376b0:	58df 0823 0000      	.insn	6, 0x082358df
    21749f1376b6:	0000                	.insn	2, 0x0000
    21749f1376b8:	5cdf 0823 0000      	.insn	6, 0x08235cdf
    21749f1376be:	0000                	.insn	2, 0x0000
    21749f1376c0:	60df 0823 0000      	.insn	6, 0x082360df
    21749f1376c6:	0000                	.insn	2, 0x0000
    21749f1376c8:	64df 0823 0000      	.insn	6, 0x082364df
    21749f1376ce:	0000                	.insn	2, 0x0000
    21749f1376d0:	68df 0823 0000      	.insn	6, 0x082368df
    21749f1376d6:	0000                	.insn	2, 0x0000
    21749f1376d8:	6cdf 0823 0000      	.insn	6, 0x08236cdf
    21749f1376de:	0000                	.insn	2, 0x0000
    21749f1376e0:	70df 0823 0000      	.insn	6, 0x082370df
    21749f1376e6:	0000                	.insn	2, 0x0000
    21749f1376e8:	74df 0823 0000      	.insn	6, 0x082374df
    21749f1376ee:	0000                	.insn	2, 0x0000
    21749f1376f0:	78df 0823 0000      	.insn	6, 0x082378df
    21749f1376f6:	0000                	.insn	2, 0x0000
    21749f1376f8:	7cdf 0823 0000      	.insn	6, 0x08237cdf
    21749f1376fe:	0000                	.insn	2, 0x0000
    21749f137700:	80df 0823 0000      	.insn	6, 0x082380df
    21749f137706:	0000                	.insn	2, 0x0000
    21749f137708:	84df 0823 0000      	.insn	6, 0x082384df
    21749f13770e:	0000                	.insn	2, 0x0000
    21749f137710:	88df 0823 0000      	.insn	6, 0x082388df
    21749f137716:	0000                	.insn	2, 0x0000
    21749f137718:	8cdf 0823 0000      	.insn	6, 0x08238cdf
    21749f13771e:	0000                	.insn	2, 0x0000
    21749f137720:	90df 0823 0000      	.insn	6, 0x082390df
    21749f137726:	0000                	.insn	2, 0x0000
    21749f137728:	94df 0823 0000      	.insn	6, 0x082394df
    21749f13772e:	0000                	.insn	2, 0x0000
    21749f137730:	98df 0823 0000      	.insn	6, 0x082398df
    21749f137736:	0000                	.insn	2, 0x0000
    21749f137738:	9cdf 0823 0000      	.insn	6, 0x08239cdf
    21749f13773e:	0000                	.insn	2, 0x0000
    21749f137740:	a0df 0823 0000      	.insn	6, 0x0823a0df
    21749f137746:	0000                	.insn	2, 0x0000
    21749f137748:	a4df 0823 0000      	.insn	6, 0x0823a4df
    21749f13774e:	0000                	.insn	2, 0x0000
    21749f137750:	a8df 0823 0000      	.insn	6, 0x0823a8df
    21749f137756:	0000                	.insn	2, 0x0000
    21749f137758:	acdf 0823 0000      	.insn	6, 0x0823acdf
    21749f13775e:	0000                	.insn	2, 0x0000
    21749f137760:	b0df 0823 0000      	.insn	6, 0x0823b0df
    21749f137766:	0000                	.insn	2, 0x0000
    21749f137768:	b4df 0823 0000      	.insn	6, 0x0823b4df
    21749f13776e:	0000                	.insn	2, 0x0000
    21749f137770:	b8df 0823 0000      	.insn	6, 0x0823b8df
    21749f137776:	0000                	.insn	2, 0x0000
    21749f137778:	bcdf 0823 0000      	.insn	6, 0x0823bcdf
    21749f13777e:	0000                	.insn	2, 0x0000
    21749f137780:	c0df 0823 0000      	.insn	6, 0x0823c0df
    21749f137786:	0000                	.insn	2, 0x0000
    21749f137788:	c4df 0823 0000      	.insn	6, 0x0823c4df
    21749f13778e:	0000                	.insn	2, 0x0000
    21749f137790:	c8df 0823 0000      	.insn	6, 0x0823c8df
    21749f137796:	0000                	.insn	2, 0x0000
    21749f137798:	ccdf 0823 0000      	.insn	6, 0x0823ccdf
    21749f13779e:	0000                	.insn	2, 0x0000
    21749f1377a0:	d0df 0823 0000      	.insn	6, 0x0823d0df
    21749f1377a6:	0000                	.insn	2, 0x0000
    21749f1377a8:	d4df 0823 0000      	.insn	6, 0x0823d4df
    21749f1377ae:	0000                	.insn	2, 0x0000
    21749f1377b0:	d8df 0823 0000      	.insn	6, 0x0823d8df
    21749f1377b6:	0000                	.insn	2, 0x0000
    21749f1377b8:	dcdf 0823 0000      	.insn	6, 0x0823dcdf
    21749f1377be:	0000                	.insn	2, 0x0000
    21749f1377c0:	e0df 0823 0000      	.insn	6, 0x0823e0df
    21749f1377c6:	0000                	.insn	2, 0x0000
    21749f1377c8:	e4df 0823 0000      	.insn	6, 0x0823e4df
    21749f1377ce:	0000                	.insn	2, 0x0000
    21749f1377d0:	e8df 0823 0000      	.insn	6, 0x0823e8df
    21749f1377d6:	0000                	.insn	2, 0x0000
    21749f1377d8:	ecdf 0823 0000      	.insn	6, 0x0823ecdf
    21749f1377de:	0000                	.insn	2, 0x0000
    21749f1377e0:	f0df 0823 0000      	.insn	6, 0x0823f0df
    21749f1377e6:	0000                	.insn	2, 0x0000
    21749f1377e8:	f4df 0823 0000      	.insn	6, 0x0823f4df
    21749f1377ee:	0000                	.insn	2, 0x0000
    21749f1377f0:	f8df 0823 0000      	.insn	6, 0x0823f8df
    21749f1377f6:	0000                	.insn	2, 0x0000
    21749f1377f8:	fcdf 0823 0000      	.insn	6, 0x0823fcdf
	...

Disassembly of section .__pagetable_map_os_0x0000de37b11ca000:

0000de37b11ca000 <__pagetable_map_os_0x0000de37b11ca000>:
	...
    de37b11ca7e0:	68df 3219 0007      	.insn	6, 0x0007321968df
	...

Disassembly of section .__pagetable_map_os_0x0000003df3823000:

0000003df3823000 <__pagetable_map_os_0x0000003df3823000>:
	...
  3df3823468:	6c1150d7          	vmflt.vf	v1,v1,f2,v0.t
  3df382346c:	0015                	.insn	2, 0x0015
	...

Disassembly of section .__pagetable_map_os_0x00001ed0b39b8000:

00001ed0b39b8000 <__pagetable_map_os_0x00001ed0b39b8000>:
	...
    1ed0b39b8318:	68df b2d6 e62b      	.insn	6, 0xe62bb2d668df
    1ed0b39b831e:	0002                	.insn	2, 0x0002
	...
    1ed0b39b8388:	140f38d7          	.insn	4, 0x140f38d7
    1ed0b39b838c:	003a                	.insn	2, 0x003a
	...
    1ed0b39b87a6:	0000                	.insn	2, 0x0000
    1ed0b39b87a8:	661834d7          	vmsne.vi	v9,v1,-16
	...
    1ed0b39b8dc8:	9a15a0d7          	vmulhsu.vv	v1,v1,v11
    1ed0b39b8dcc:	0001                	.insn	2, 0x0001
	...

Disassembly of section .__pagetable_map_os_0x00000000db0d2000:

00000000db0d2000 <__pagetable_map_os_0x00000000db0d2000>:
	...
    db0d2d98:	6096c4d7          	vmseq.vx	v9,v9,x13,v0.t
    db0d2d9c:	0000                	.insn	2, 0x0000
	...

Disassembly of section .__pagetable_map_os_0x000003d8bdd69000:

000003d8bdd69000 <__pagetable_map_os_0x000003d8bdd69000>:
	...
 3d8bdd69498:	17c0b0d7          	.insn	4, 0x17c0b0d7
 3d8bdd6949c:	1b44                	.insn	2, 0x1b44
 3d8bdd6949e:	0001                	.insn	2, 0x0001

Disassembly of section .__pagetable_map_os_0x000101ce1efbe000:

000101ce1efbe000 <__pagetable_map_os_0x000101ce1efbe000>:
	...
   101ce1efbe380:	23d6e8d3          	.insn	4, 0x23d6e8d3
   101ce1efbe384:	000e                	.insn	2, 0x000e
	...

Disassembly of section .__pagetable_map_os_0x00001e52fe137000:

00001e52fe137000 <__pagetable_map_os_0x00001e52fe137000>:
	...
    1e52fe137a58:	20f644d7          	.insn	4, 0x20f644d7
    1e52fe137a5c:	0000                	.insn	2, 0x0000
	...

Disassembly of section .__pagetable_map_os_0x000008dbe21db000:

000008dbe21db000 <__pagetable_map_os_0x000008dbe21db000>:
	...
 8dbe21db1b8:	8801                	.insn	2, 0x8801
 8dbe21db1ba:	3c2a                	.insn	2, 0x3c2a
 8dbe21db1bc:	0000                	.insn	2, 0x0000
	...

Disassembly of section .__pagetable_map_os_0x00000000f0aa2000:

00000000f0aa2000 <__pagetable_map_os_0x00000000f0aa2000>:
	...
    f0aa24e0:	70df 51ba 0002      	.insn	6, 0x000251ba70df
	...

Disassembly of section .__pagetable_map_os_0x00004355f18a4000:

00004355f18a4000 <__pagetable_map_os_0x00004355f18a4000>:
	...
    4355f18a4a68:	f401                	.insn	2, 0xf401
    4355f18a4a6a:	28ad                	.insn	2, 0x28ad
    4355f18a4a6c:	0006                	.insn	2, 0x0006
	...

Disassembly of section .__pagetable_map_os_0x00000018a2b7d000:

00000018a2b7d000 <__pagetable_map_os_0x00000018a2b7d000>:
	...
  18a2b7d948:	aeddf0d7          	.insn	4, 0xaeddf0d7
  18a2b7d94c:	09bd                	.insn	2, 0x09bd
	...

Disassembly of section .__pagetable_map_os_0x000001eeb4409000:

000001eeb4409000 <__pagetable_map_os_0x000001eeb4409000>:
	...
 1eeb4409a70:	d401                	.insn	2, 0xd401
 1eeb4409a72:	0040                	.insn	2, 0x0040
 1eeb4409a74:	0002                	.insn	2, 0x0002
	...

Disassembly of section .__pagetable_map_os_0x0000000801035000:

0000000801035000 <__pagetable_map_os_0x0000000801035000>:
	...
   801035730:	500e94d7          	.insn	4, 0x500e94d7
   801035734:	0884                	.insn	2, 0x0884
	...

Disassembly of section .__pagetable_map_os_0x0000032be2d64000:

0000032be2d64000 <__pagetable_map_os_0x0000032be2d64000>:
	...
 32be2d64628:	d801                	.insn	2, 0xd801
 32be2d6462a:	9001                	.insn	2, 0x9001
 32be2d6462c:	00020e9b          	sext.w	x29,x4

Disassembly of section .__pagetable_map_os_0x00083a6e40076000:

00083a6e40076000 <__pagetable_map_os_0x00083a6e40076000>:
	...
   83a6e40076310:	cfb6d8d7          	.insn	4, 0xcfb6d8d7
   83a6e40076314:	00004bf7          	.insn	4, 0x4bf7

Disassembly of section .__pagetable_map_os_0x0000214ede8b5000:

0000214ede8b5000 <__pagetable_map_os_0x0000214ede8b5000>:
	...
    214ede8b51a8:	9401                	.insn	2, 0x9401
    214ede8b51aa:	1075                	.insn	2, 0x1075
    214ede8b51ac:	39dd                	.insn	2, 0x39dd
    214ede8b51ae:	0003                	.short	0x0003

Disassembly of section .__pagetable_map_os_0x000ce77441d65000:

000ce77441d65000 <__pagetable_map_os_0x000ce77441d65000>:
	...
   ce77441d652e0:	6905d4d7          	.insn	4, 0x6905d4d7
   ce77441d652e4:	038a                	.insn	2, 0x038a
	...
