
/home/abdullah/RiescueC/riescue/10x_R/zicntr_zihpm_sscounterenw/testsuite/zicntr_zihpm_sscounterenw/machine/tp_zicntr_zihpm_sscounterenw_2:     file format elf64-littleriscv


Disassembly of section .runtime:

0000000041000000 <_start>:
    41000000:	00000093          	li	x1,0
    41000004:	00000113          	li	x2,0
    41000008:	00000193          	li	x3,0
    4100000c:	00000213          	li	x4,0
    41000010:	00000293          	li	x5,0
    41000014:	00000313          	li	x6,0
    41000018:	00000393          	li	x7,0
    4100001c:	00000413          	li	x8,0
    41000020:	00000493          	li	x9,0
    41000024:	00000513          	li	x10,0
    41000028:	00000593          	li	x11,0
    4100002c:	00000613          	li	x12,0
    41000030:	00000693          	li	x13,0
    41000034:	00000713          	li	x14,0
    41000038:	00000793          	li	x15,0
    4100003c:	00000813          	li	x16,0
    41000040:	00000893          	li	x17,0
    41000044:	00000913          	li	x18,0
    41000048:	00000993          	li	x19,0
    4100004c:	00000a13          	li	x20,0
    41000050:	00000a93          	li	x21,0
    41000054:	00000b13          	li	x22,0
    41000058:	00000b93          	li	x23,0
    4100005c:	00000c13          	li	x24,0
    41000060:	00000c93          	li	x25,0
    41000064:	00000d13          	li	x26,0
    41000068:	00000d93          	li	x27,0
    4100006c:	00000e13          	li	x28,0
    41000070:	00000e93          	li	x29,0
    41000074:	00000f13          	li	x30,0
    41000078:	00000f93          	li	x31,0

000000004100007c <loader__load_panic_address>:
    4100007c:	00001297          	auipc	x5,0x1
    41000080:	96028293          	addi	x5,x5,-1696 # 410009dc <eot__failed>
    41000084:	30529073          	csrw	mtvec,x5

0000000041000088 <loader__initialize_runtime>:
    41000088:	00000293          	li	x5,0
    4100008c:	3012a2f3          	csrrs	x5,misa,x5

0000000041000090 <loader__set_mstatus>:
    41000090:	000402b7          	lui	x5,0x40
    41000094:	00a2829b          	addiw	x5,x5,10 # 4000a <pma_region_0_size+0xa>
    41000098:	3002a2f3          	csrrs	x5,mstatus,x5
    4100009c:	44c40237          	lui	x4,0x44c40
    410000a0:	34021073          	csrw	mscratch,x4

00000000410000a4 <loader__setup_tvec>:
    410000a4:	00000297          	auipc	x5,0x0
    410000a8:	42028293          	addi	x5,x5,1056 # 410004c4 <trap_handler_m__trap_entry>
    410000ac:	30529073          	csrw	mtvec,x5

00000000410000b0 <loader__done>:
    410000b0:	1550006f          	j	41000a04 <scheduler__init>

00000000410000b4 <loader__panic>:
    410000b4:	1290006f          	j	410009dc <eot__failed>

00000000410000b8 <syscalls__syscall_check_schedule_next_test>:
    410000b8:	00f0029b          	addiw	x5,x0,15
    410000bc:	01c29293          	slli	x5,x5,0x1c
    410000c0:	00128293          	addi	x5,x5,1
    410000c4:	01f29a63          	bne	x5,x31,410000d8 <syscalls__syscall_check_fail_test>
    410000c8:	00000317          	auipc	x6,0x0
    410000cc:	3fc30313          	addi	x6,x6,1020 # 410004c4 <trap_handler_m__trap_entry>
    410000d0:	30531073          	csrw	mtvec,x6
    410000d4:	6340006f          	j	41000708 <enter_scheduler>

00000000410000d8 <syscalls__syscall_check_fail_test>:
    410000d8:	00f0029b          	addiw	x5,x0,15
    410000dc:	01c29293          	slli	x5,x5,0x1c
    410000e0:	00228293          	addi	x5,x5,2
    410000e4:	01f29a63          	bne	x5,x31,410000f8 <syscalls__syscall_check_end_test_without_failure>
    410000e8:	00000317          	auipc	x6,0x0
    410000ec:	3dc30313          	addi	x6,x6,988 # 410004c4 <trap_handler_m__trap_entry>
    410000f0:	30531073          	csrw	mtvec,x6
    410000f4:	6440006f          	j	41000738 <test_failed>

00000000410000f8 <syscalls__syscall_check_end_test_without_failure>:
    410000f8:	00f0029b          	addiw	x5,x0,15
    410000fc:	01c29293          	slli	x5,x5,0x1c
    41000100:	00328293          	addi	x5,x5,3
    41000104:	01f29a63          	bne	x5,x31,41000118 <syscalls__syscall_check_switch_machine_mode>
    41000108:	00000317          	auipc	x6,0x0
    4100010c:	3bc30313          	addi	x6,x6,956 # 410004c4 <trap_handler_m__trap_entry>
    41000110:	30531073          	csrw	mtvec,x6
    41000114:	6300006f          	j	41000744 <os_end_test>

0000000041000118 <syscalls__syscall_check_switch_machine_mode>:
    41000118:	000f02b7          	lui	x5,0xf0
    4100011c:	0012829b          	addiw	x5,x5,1 # f0001 <pma_region_0_size+0xb0001>
    41000120:	00c29293          	slli	x5,x5,0xc
    41000124:	00128293          	addi	x5,x5,1
    41000128:	0a5f8463          	beq	x31,x5,410001d0 <syscalls__os_fn_f0001001>

000000004100012c <syscalls__syscall_check_switch_super_mode>:
    4100012c:	000f02b7          	lui	x5,0xf0
    41000130:	0012829b          	addiw	x5,x5,1 # f0001 <pma_region_0_size+0xb0001>
    41000134:	00c29293          	slli	x5,x5,0xc
    41000138:	00228293          	addi	x5,x5,2
    4100013c:	085f8e63          	beq	x31,x5,410001d8 <syscalls__os_fn_f0001002>

0000000041000140 <syscalls__syscall_check_switch_user_mode>:
    41000140:	000f02b7          	lui	x5,0xf0
    41000144:	0012829b          	addiw	x5,x5,1 # f0001 <pma_region_0_size+0xb0001>
    41000148:	00c29293          	slli	x5,x5,0xc
    4100014c:	00328293          	addi	x5,x5,3
    41000150:	0a5f8c63          	beq	x31,x5,41000208 <syscalls__os_fn_f0001003>

0000000041000154 <syscalls__syscall_check_switch_test_mode>:
    41000154:	000f02b7          	lui	x5,0xf0
    41000158:	0012829b          	addiw	x5,x5,1 # f0001 <pma_region_0_size+0xb0001>
    4100015c:	00c29293          	slli	x5,x5,0xc
    41000160:	00428293          	addi	x5,x5,4
    41000164:	0c5f8663          	beq	x31,x5,41000230 <syscalls__os_fn_f0001004>

0000000041000168 <syscalls__syscall_machine_csr_rw>:
    41000168:	000f02b7          	lui	x5,0xf0
    4100016c:	0012829b          	addiw	x5,x5,1 # f0001 <pma_region_0_size+0xb0001>
    41000170:	00c29293          	slli	x5,x5,0xc
    41000174:	00528293          	addi	x5,x5,5
    41000178:	0e5f8263          	beq	x31,x5,4100025c <syscalls__os_fn_f0001005>

000000004100017c <syscalls__syscall_supervisor_csr_rw>:
    4100017c:	000f02b7          	lui	x5,0xf0
    41000180:	0012829b          	addiw	x5,x5,1 # f0001 <pma_region_0_size+0xb0001>
    41000184:	00c29293          	slli	x5,x5,0xc
    41000188:	00628293          	addi	x5,x5,6
    4100018c:	0c5f8c63          	beq	x31,x5,41000264 <syscalls__os_fn_f0001006>

0000000041000190 <syscalls__syscall_machine_pte_read>:
    41000190:	000f02b7          	lui	x5,0xf0
    41000194:	0012829b          	addiw	x5,x5,1 # f0001 <pma_region_0_size+0xb0001>
    41000198:	00c29293          	slli	x5,x5,0xc
    4100019c:	00728293          	addi	x5,x5,7
    410001a0:	0e5f8a63          	beq	x31,x5,41000294 <syscalls__os_fn_f0001007>

00000000410001a4 <syscalls__syscall_machine_pte_write>:
    410001a4:	000f02b7          	lui	x5,0xf0
    410001a8:	0012829b          	addiw	x5,x5,1 # f0001 <pma_region_0_size+0xb0001>
    410001ac:	00c29293          	slli	x5,x5,0xc
    410001b0:	00828293          	addi	x5,x5,8
    410001b4:	1a5f8463          	beq	x31,x5,4100035c <syscalls__os_fn_f0001008>

00000000410001b8 <syscalls__syscall_check_get_hart_context>:
    410001b8:	000782b7          	lui	x5,0x78
    410001bc:	0012829b          	addiw	x5,x5,1 # 78001 <pma_region_0_size+0x38001>
    410001c0:	00d29293          	slli	x5,x5,0xd
    410001c4:	00128293          	addi	x5,x5,1
    410001c8:	245f8e63          	beq	x31,x5,41000424 <syscalls__os_get_hart_context>
    410001cc:	4540006f          	j	41000620 <trap_handler_m__check_exception_label>

00000000410001d0 <syscalls__os_fn_f0001001>:
    410001d0:	411942b7          	lui	x5,0x41194
    410001d4:	2600006f          	j	41000434 <syscalls__ret_from_os_fn>

00000000410001d8 <syscalls__os_fn_f0001002>:
    410001d8:	000022b7          	lui	x5,0x2
    410001dc:	8002829b          	addiw	x5,x5,-2048 # 1800 <pma_region_1_size+0x800>
    410001e0:	3002b073          	csrc	mstatus,x5
    410001e4:	000012b7          	lui	x5,0x1
    410001e8:	8002829b          	addiw	x5,x5,-2048 # 800 <XLEN+0x7c0>
    410001ec:	3002a073          	csrs	mstatus,x5
    410001f0:	0010029b          	addiw	x5,x0,1
    410001f4:	02729293          	slli	x5,x5,0x27
    410001f8:	3002b073          	csrc	mstatus,x5
    410001fc:	12000073          	sfence.vma
    41000200:	410942b7          	lui	x5,0x41094
    41000204:	2300006f          	j	41000434 <syscalls__ret_from_os_fn>

0000000041000208 <syscalls__os_fn_f0001003>:
    41000208:	000022b7          	lui	x5,0x2
    4100020c:	8002829b          	addiw	x5,x5,-2048 # 1800 <pma_region_1_size+0x800>
    41000210:	3002b073          	csrc	mstatus,x5
    41000214:	00000293          	li	x5,0
    41000218:	3002a073          	csrs	mstatus,x5
    4100021c:	0010029b          	addiw	x5,x0,1
    41000220:	02729293          	slli	x5,x5,0x27
    41000224:	3002b073          	csrc	mstatus,x5
    41000228:	411142b7          	lui	x5,0x41114
    4100022c:	2080006f          	j	41000434 <syscalls__ret_from_os_fn>

0000000041000230 <syscalls__os_fn_f0001004>:
    41000230:	000022b7          	lui	x5,0x2
    41000234:	8002829b          	addiw	x5,x5,-2048 # 1800 <pma_region_1_size+0x800>
    41000238:	3002b073          	csrc	mstatus,x5
    4100023c:	000022b7          	lui	x5,0x2
    41000240:	8002829b          	addiw	x5,x5,-2048 # 1800 <pma_region_1_size+0x800>
    41000244:	3002a073          	csrs	mstatus,x5
    41000248:	0010029b          	addiw	x5,x0,1
    4100024c:	02729293          	slli	x5,x5,0x27
    41000250:	3002b073          	csrc	mstatus,x5
    41000254:	17823283          	ld	x5,376(x4) # 44c40178 <os_save_ecall_fn_epc>
    41000258:	1dc0006f          	j	41000434 <syscalls__ret_from_os_fn>

000000004100025c <syscalls__os_fn_f0001005>:
    4100025c:	412142b7          	lui	x5,0x41214
    41000260:	1d40006f          	j	41000434 <syscalls__ret_from_os_fn>

0000000041000264 <syscalls__os_fn_f0001006>:
    41000264:	000022b7          	lui	x5,0x2
    41000268:	8002829b          	addiw	x5,x5,-2048 # 1800 <pma_region_1_size+0x800>
    4100026c:	3002b073          	csrc	mstatus,x5
    41000270:	000012b7          	lui	x5,0x1
    41000274:	8002829b          	addiw	x5,x5,-2048 # 800 <XLEN+0x7c0>
    41000278:	3002a073          	csrs	mstatus,x5
    4100027c:	0010029b          	addiw	x5,x0,1
    41000280:	02729293          	slli	x5,x5,0x27
    41000284:	3002b073          	csrc	mstatus,x5
    41000288:	12000073          	sfence.vma
    4100028c:	412152b7          	lui	x5,0x41215
    41000290:	1a40006f          	j	41000434 <syscalls__ret_from_os_fn>

0000000041000294 <syscalls__os_fn_f0001007>:
    41000294:	44db4fb7          	lui	x31,0x44db4
    41000298:	0c8f8f9b          	addiw	x31,x31,200 # 44db40c8 <pte_access_flags>
    4100029c:	000fbf83          	ld	x31,0(x31)
    410002a0:	44db42b7          	lui	x5,0x44db4
    410002a4:	0d02829b          	addiw	x5,x5,208 # 44db40d0 <pte_access_flags+0x8>
    410002a8:	0002b283          	ld	x5,0(x5)
    410002ac:	44db4e37          	lui	x28,0x44db4
    410002b0:	0d8e0e1b          	addiw	x28,x28,216 # 44db40d8 <pte_access_flags+0x10>
    410002b4:	000e3e03          	ld	x28,0(x28)

00000000410002b8 <syscalls__pte_walk_check_paging_disabled_nonvirt_target_level_read>:
    410002b8:	0a029063          	bnez	x5,41000358 <syscalls__pte_walk_fail_read>

00000000410002bc <syscalls__pte_walk_check_glevel_without_gstage_read>:
    410002bc:	fff00f93          	li	x31,-1
    410002c0:	09fe1c63          	bne	x28,x31,41000358 <syscalls__pte_walk_fail_read>

00000000410002c4 <syscalls__pte_walk_loop_read>:
    410002c4:	44db4fb7          	lui	x31,0x44db4
    410002c8:	0c8f8f9b          	addiw	x31,x31,200 # 44db40c8 <pte_access_flags>
    410002cc:	000fbf83          	ld	x31,0(x31)
    410002d0:	01dfdfb3          	srl	x31,x31,x29
    410002d4:	1fffff93          	andi	x31,x31,511
    410002d8:	003f9f93          	slli	x31,x31,0x3
    410002dc:	01f30333          	add	x6,x6,x31
    410002e0:	005f0e63          	beq	x30,x5,410002fc <syscalls__pte_walk_done_read>
    410002e4:	00033f83          	ld	x31,0(x6)
    410002e8:	00afdf93          	srli	x31,x31,0xa
    410002ec:	00cf9313          	slli	x6,x31,0xc
    410002f0:	001f0f13          	addi	x30,x30,1
    410002f4:	ff7e8e93          	addi	x29,x29,-9
    410002f8:	fcdff06f          	j	410002c4 <syscalls__pte_walk_loop_read>

00000000410002fc <syscalls__pte_walk_done_read>:
    410002fc:	fff00f93          	li	x31,-1
    41000300:	05fe0263          	beq	x28,x31,41000344 <syscalls__pte_walk_final_read>

0000000041000304 <syscalls__pte_walk_gstage_read>:
    41000304:	44db4fb7          	lui	x31,0x44db4
    41000308:	0c8f8f9b          	addiw	x31,x31,200 # 44db40c8 <pte_access_flags>
    4100030c:	006fb023          	sd	x6,0(x31)
    41000310:	000e0293          	mv	x5,x28
    41000314:	fff00e13          	li	x28,-1
    41000318:	68002373          	csrr	x6,hgatp
    4100031c:	03c35e93          	srli	x29,x6,0x3c
    41000320:	01431313          	slli	x6,x6,0x14
    41000324:	01435313          	srli	x6,x6,0x14
    41000328:	00c31313          	slli	x6,x6,0xc
    4100032c:	ff8e8e93          	addi	x29,x29,-8
    41000330:	003e9f13          	slli	x30,x29,0x3
    41000334:	01df0eb3          	add	x29,x30,x29
    41000338:	01ee8e93          	addi	x29,x29,30
    4100033c:	00000f13          	li	x30,0
    41000340:	f85ff06f          	j	410002c4 <syscalls__pte_walk_loop_read>

0000000041000344 <syscalls__pte_walk_final_read>:
    41000344:	00033383          	ld	x7,0(x6)
    41000348:	341022f3          	csrr	x5,mepc
    4100034c:	00428293          	addi	x5,x5,4
    41000350:	16523c23          	sd	x5,376(x4) # 178 <XLEN+0x138>
    41000354:	eddff06f          	j	41000230 <syscalls__os_fn_f0001004>

0000000041000358 <syscalls__pte_walk_fail_read>:
    41000358:	3e00006f          	j	41000738 <test_failed>

000000004100035c <syscalls__os_fn_f0001008>:
    4100035c:	44db4fb7          	lui	x31,0x44db4
    41000360:	0c8f8f9b          	addiw	x31,x31,200 # 44db40c8 <pte_access_flags>
    41000364:	000fbf83          	ld	x31,0(x31)
    41000368:	44db42b7          	lui	x5,0x44db4
    4100036c:	0d02829b          	addiw	x5,x5,208 # 44db40d0 <pte_access_flags+0x8>
    41000370:	0002b283          	ld	x5,0(x5)
    41000374:	44db4e37          	lui	x28,0x44db4
    41000378:	0d8e0e1b          	addiw	x28,x28,216 # 44db40d8 <pte_access_flags+0x10>
    4100037c:	000e3e03          	ld	x28,0(x28)

0000000041000380 <syscalls__pte_walk_check_paging_disabled_nonvirt_target_level_write>:
    41000380:	0a029063          	bnez	x5,41000420 <syscalls__pte_walk_fail_write>

0000000041000384 <syscalls__pte_walk_check_glevel_without_gstage_write>:
    41000384:	fff00f93          	li	x31,-1
    41000388:	09fe1c63          	bne	x28,x31,41000420 <syscalls__pte_walk_fail_write>

000000004100038c <syscalls__pte_walk_loop_write>:
    4100038c:	44db4fb7          	lui	x31,0x44db4
    41000390:	0c8f8f9b          	addiw	x31,x31,200 # 44db40c8 <pte_access_flags>
    41000394:	000fbf83          	ld	x31,0(x31)
    41000398:	01dfdfb3          	srl	x31,x31,x29
    4100039c:	1fffff93          	andi	x31,x31,511
    410003a0:	003f9f93          	slli	x31,x31,0x3
    410003a4:	01f30333          	add	x6,x6,x31
    410003a8:	005f0e63          	beq	x30,x5,410003c4 <syscalls__pte_walk_done_write>
    410003ac:	00033f83          	ld	x31,0(x6)
    410003b0:	00afdf93          	srli	x31,x31,0xa
    410003b4:	00cf9313          	slli	x6,x31,0xc
    410003b8:	001f0f13          	addi	x30,x30,1
    410003bc:	ff7e8e93          	addi	x29,x29,-9
    410003c0:	fcdff06f          	j	4100038c <syscalls__pte_walk_loop_write>

00000000410003c4 <syscalls__pte_walk_done_write>:
    410003c4:	fff00f93          	li	x31,-1
    410003c8:	05fe0263          	beq	x28,x31,4100040c <syscalls__pte_walk_final_write>

00000000410003cc <syscalls__pte_walk_gstage_write>:
    410003cc:	44db4fb7          	lui	x31,0x44db4
    410003d0:	0c8f8f9b          	addiw	x31,x31,200 # 44db40c8 <pte_access_flags>
    410003d4:	006fb023          	sd	x6,0(x31)
    410003d8:	000e0293          	mv	x5,x28
    410003dc:	fff00e13          	li	x28,-1
    410003e0:	68002373          	csrr	x6,hgatp
    410003e4:	03c35e93          	srli	x29,x6,0x3c
    410003e8:	01431313          	slli	x6,x6,0x14
    410003ec:	01435313          	srli	x6,x6,0x14
    410003f0:	00c31313          	slli	x6,x6,0xc
    410003f4:	ff8e8e93          	addi	x29,x29,-8
    410003f8:	003e9f13          	slli	x30,x29,0x3
    410003fc:	01df0eb3          	add	x29,x30,x29
    41000400:	01ee8e93          	addi	x29,x29,30
    41000404:	00000f13          	li	x30,0
    41000408:	f85ff06f          	j	4100038c <syscalls__pte_walk_loop_write>

000000004100040c <syscalls__pte_walk_final_write>:
    4100040c:	00733023          	sd	x7,0(x6)
    41000410:	341022f3          	csrr	x5,mepc
    41000414:	00428293          	addi	x5,x5,4
    41000418:	16523c23          	sd	x5,376(x4) # 178 <XLEN+0x138>
    4100041c:	e15ff06f          	j	41000230 <syscalls__os_fn_f0001004>

0000000041000420 <syscalls__pte_walk_fail_write>:
    41000420:	3180006f          	j	41000738 <test_failed>

0000000041000424 <syscalls__os_get_hart_context>:
    41000424:	00020513          	mv	x10,x4
    41000428:	341022f3          	csrr	x5,mepc
    4100042c:	00428293          	addi	x5,x5,4
    41000430:	0040006f          	j	41000434 <syscalls__ret_from_os_fn>

0000000041000434 <syscalls__ret_from_os_fn>:
    41000434:	34102373          	csrr	x6,mepc
    41000438:	00430313          	addi	x6,x6,4
    4100043c:	16623c23          	sd	x6,376(x4) # 178 <XLEN+0x138>
    41000440:	34129073          	csrw	mepc,x5
    41000444:	fff00f93          	li	x31,-1
    41000448:	2a40006f          	j	410006ec <trap_handler_m__skip_xepc_write>

000000004100044c <trap_handler_m__invalid_interrupt>:
    4100044c:	2ec0006f          	j	41000738 <test_failed>

0000000041000450 <trap_handler_m__clear_all_interrupts>:
    41000450:	34401073          	csrw	mip,x0
    41000454:	30200073          	mret

0000000041000458 <trap_handler_m___CLEAR_SSI>:
    41000458:	00200293          	li	x5,2
    4100045c:	3442b073          	csrc	mip,x5
    41000460:	30200073          	mret

0000000041000464 <trap_handler_m___CLEAR_MSI>:
    41000464:	00800293          	li	x5,8
    41000468:	3442b073          	csrc	mip,x5
    4100046c:	30200073          	mret

0000000041000470 <trap_handler_m___CLEAR_STI>:
    41000470:	02000293          	li	x5,32
    41000474:	3442b073          	csrc	mip,x5
    41000478:	30200073          	mret

000000004100047c <trap_handler_m___CLEAR_MTI>:
    4100047c:	08000293          	li	x5,128
    41000480:	3442b073          	csrc	mip,x5
    41000484:	30200073          	mret

0000000041000488 <trap_handler_m___CLEAR_SEI>:
    41000488:	20000293          	li	x5,512
    4100048c:	3442b073          	csrc	mip,x5
    41000490:	30200073          	mret

0000000041000494 <trap_handler_m___CLEAR_MEI>:
    41000494:	000012b7          	lui	x5,0x1
    41000498:	8002829b          	addiw	x5,x5,-2048 # 800 <XLEN+0x7c0>
    4100049c:	3442b073          	csrc	mip,x5
    410004a0:	30200073          	mret

00000000410004a4 <trap_handler_m___CLEAR_COI>:
    410004a4:	000022b7          	lui	x5,0x2
    410004a8:	3442b073          	csrc	mip,x5
    410004ac:	30200073          	mret

00000000410004b0 <trap_handler_m__clear_highest_priority_interrupt>:
    410004b0:	344022f3          	csrr	x5,mip
    410004b4:	40500333          	neg	x6,x5
    410004b8:	0062f2b3          	and	x5,x5,x6
    410004bc:	3442b073          	csrc	mip,x5
    410004c0:	30200073          	mret

00000000410004c4 <trap_handler_m__trap_entry>:
    410004c4:	0fc0006f          	j	410005c0 <trap_handler_m__trap_handler>

00000000410004c8 <trap_handler_m__interrupt_vector_table>:
    410004c8:	f91ff06f          	j	41000458 <trap_handler_m___CLEAR_SSI>
    410004cc:	f81ff06f          	j	4100044c <trap_handler_m__invalid_interrupt>
    410004d0:	f95ff06f          	j	41000464 <trap_handler_m___CLEAR_MSI>
    410004d4:	f79ff06f          	j	4100044c <trap_handler_m__invalid_interrupt>
    410004d8:	f99ff06f          	j	41000470 <trap_handler_m___CLEAR_STI>
    410004dc:	f71ff06f          	j	4100044c <trap_handler_m__invalid_interrupt>
    410004e0:	f9dff06f          	j	4100047c <trap_handler_m___CLEAR_MTI>
    410004e4:	f69ff06f          	j	4100044c <trap_handler_m__invalid_interrupt>
    410004e8:	fa1ff06f          	j	41000488 <trap_handler_m___CLEAR_SEI>
    410004ec:	f61ff06f          	j	4100044c <trap_handler_m__invalid_interrupt>
    410004f0:	fa5ff06f          	j	41000494 <trap_handler_m___CLEAR_MEI>
    410004f4:	f59ff06f          	j	4100044c <trap_handler_m__invalid_interrupt>
    410004f8:	fadff06f          	j	410004a4 <trap_handler_m___CLEAR_COI>
    410004fc:	f51ff06f          	j	4100044c <trap_handler_m__invalid_interrupt>
    41000500:	f4dff06f          	j	4100044c <trap_handler_m__invalid_interrupt>
    41000504:	fadff06f          	j	410004b0 <trap_handler_m__clear_highest_priority_interrupt>
    41000508:	fa9ff06f          	j	410004b0 <trap_handler_m__clear_highest_priority_interrupt>
    4100050c:	fa5ff06f          	j	410004b0 <trap_handler_m__clear_highest_priority_interrupt>
    41000510:	fa1ff06f          	j	410004b0 <trap_handler_m__clear_highest_priority_interrupt>
    41000514:	f9dff06f          	j	410004b0 <trap_handler_m__clear_highest_priority_interrupt>
    41000518:	f99ff06f          	j	410004b0 <trap_handler_m__clear_highest_priority_interrupt>
    4100051c:	f95ff06f          	j	410004b0 <trap_handler_m__clear_highest_priority_interrupt>
    41000520:	f91ff06f          	j	410004b0 <trap_handler_m__clear_highest_priority_interrupt>
    41000524:	f8dff06f          	j	410004b0 <trap_handler_m__clear_highest_priority_interrupt>
    41000528:	f89ff06f          	j	410004b0 <trap_handler_m__clear_highest_priority_interrupt>
    4100052c:	f85ff06f          	j	410004b0 <trap_handler_m__clear_highest_priority_interrupt>
    41000530:	f81ff06f          	j	410004b0 <trap_handler_m__clear_highest_priority_interrupt>
    41000534:	f7dff06f          	j	410004b0 <trap_handler_m__clear_highest_priority_interrupt>
    41000538:	f79ff06f          	j	410004b0 <trap_handler_m__clear_highest_priority_interrupt>
    4100053c:	f75ff06f          	j	410004b0 <trap_handler_m__clear_highest_priority_interrupt>
    41000540:	f71ff06f          	j	410004b0 <trap_handler_m__clear_highest_priority_interrupt>
    41000544:	f6dff06f          	j	410004b0 <trap_handler_m__clear_highest_priority_interrupt>
    41000548:	f69ff06f          	j	410004b0 <trap_handler_m__clear_highest_priority_interrupt>
    4100054c:	f65ff06f          	j	410004b0 <trap_handler_m__clear_highest_priority_interrupt>
    41000550:	f61ff06f          	j	410004b0 <trap_handler_m__clear_highest_priority_interrupt>
    41000554:	f5dff06f          	j	410004b0 <trap_handler_m__clear_highest_priority_interrupt>
    41000558:	f59ff06f          	j	410004b0 <trap_handler_m__clear_highest_priority_interrupt>
    4100055c:	f55ff06f          	j	410004b0 <trap_handler_m__clear_highest_priority_interrupt>
    41000560:	f51ff06f          	j	410004b0 <trap_handler_m__clear_highest_priority_interrupt>
    41000564:	f4dff06f          	j	410004b0 <trap_handler_m__clear_highest_priority_interrupt>
    41000568:	f49ff06f          	j	410004b0 <trap_handler_m__clear_highest_priority_interrupt>
    4100056c:	f45ff06f          	j	410004b0 <trap_handler_m__clear_highest_priority_interrupt>
    41000570:	f41ff06f          	j	410004b0 <trap_handler_m__clear_highest_priority_interrupt>
    41000574:	f3dff06f          	j	410004b0 <trap_handler_m__clear_highest_priority_interrupt>
    41000578:	f39ff06f          	j	410004b0 <trap_handler_m__clear_highest_priority_interrupt>
    4100057c:	f35ff06f          	j	410004b0 <trap_handler_m__clear_highest_priority_interrupt>
    41000580:	f31ff06f          	j	410004b0 <trap_handler_m__clear_highest_priority_interrupt>
    41000584:	f2dff06f          	j	410004b0 <trap_handler_m__clear_highest_priority_interrupt>
    41000588:	f29ff06f          	j	410004b0 <trap_handler_m__clear_highest_priority_interrupt>
    4100058c:	f25ff06f          	j	410004b0 <trap_handler_m__clear_highest_priority_interrupt>
    41000590:	f21ff06f          	j	410004b0 <trap_handler_m__clear_highest_priority_interrupt>
    41000594:	f1dff06f          	j	410004b0 <trap_handler_m__clear_highest_priority_interrupt>
    41000598:	f19ff06f          	j	410004b0 <trap_handler_m__clear_highest_priority_interrupt>
    4100059c:	f15ff06f          	j	410004b0 <trap_handler_m__clear_highest_priority_interrupt>
    410005a0:	f11ff06f          	j	410004b0 <trap_handler_m__clear_highest_priority_interrupt>
    410005a4:	f0dff06f          	j	410004b0 <trap_handler_m__clear_highest_priority_interrupt>
    410005a8:	f09ff06f          	j	410004b0 <trap_handler_m__clear_highest_priority_interrupt>
    410005ac:	f05ff06f          	j	410004b0 <trap_handler_m__clear_highest_priority_interrupt>
    410005b0:	f01ff06f          	j	410004b0 <trap_handler_m__clear_highest_priority_interrupt>
    410005b4:	efdff06f          	j	410004b0 <trap_handler_m__clear_highest_priority_interrupt>
    410005b8:	ef9ff06f          	j	410004b0 <trap_handler_m__clear_highest_priority_interrupt>
    410005bc:	ef5ff06f          	j	410004b0 <trap_handler_m__clear_highest_priority_interrupt>

00000000410005c0 <trap_handler_m__trap_handler>:
    410005c0:	342022f3          	csrr	x5,mcause
    410005c4:	fff0031b          	addiw	x6,x0,-1
    410005c8:	03f31313          	slli	x6,x6,0x3f
    410005cc:	00537333          	and	x6,x6,x5
    410005d0:	02030263          	beqz	x6,410005f4 <trap_handler_m__exception_path>

00000000410005d4 <trap_handler_m__interrupt_handler>:
    410005d4:	fff0031b          	addiw	x6,x0,-1
    410005d8:	03f31313          	slli	x6,x6,0x3f
    410005dc:	0062c2b3          	xor	x5,x5,x6
    410005e0:	00000317          	auipc	x6,0x0
    410005e4:	ee430313          	addi	x6,x6,-284 # 410004c4 <trap_handler_m__trap_entry>
    410005e8:	00229293          	slli	x5,x5,0x2
    410005ec:	005302b3          	add	x5,x6,x5
    410005f0:	00028067          	jr	x5 # 2000 <pma_region_1_size+0x1000>

00000000410005f4 <trap_handler_m__exception_path>:
    410005f4:	34021273          	csrrw	x4,mscratch,x4
    410005f8:	00000297          	auipc	x5,0x0
    410005fc:	10828293          	addi	x5,x5,264 # 41000700 <trap_handler_m__trap_panic>
    41000600:	30529073          	csrw	mtvec,x5
    41000604:	0040006f          	j	41000608 <trap_handler_m__excp_entry>

0000000041000608 <trap_handler_m__excp_entry>:
    41000608:	34202373          	csrr	x6,mcause
    4100060c:	00800293          	li	x5,8
    41000610:	00534863          	blt	x6,x5,41000620 <trap_handler_m__check_exception_label>
    41000614:	00b00293          	li	x5,11
    41000618:	0062c463          	blt	x5,x6,41000620 <trap_handler_m__check_exception_label>
    4100061c:	a9dff06f          	j	410000b8 <syscalls__syscall_check_schedule_next_test>

0000000041000620 <trap_handler_m__check_exception_label>:
    41000620:	04623c23          	sd	x6,88(x4) # 58 <XLEN+0x18>
    41000624:	341022f3          	csrr	x5,mepc
    41000628:	02523423          	sd	x5,40(x4) # 28 <SECURE_ACCESS_PROBABILITY+0xa>
    4100062c:	01820283          	lb	x5,24(x4) # 18 <STORE_GUEST_PAGE_FAULT+0x1>
    41000630:	00029863          	bnez	x5,41000640 <trap_handler_m__check_excp>
    41000634:	00128293          	addi	x5,x5,1
    41000638:	00520c23          	sb	x5,24(x4) # 18 <STORE_GUEST_PAGE_FAULT+0x1>
    4100063c:	0980006f          	j	410006d4 <trap_handler_m__ecall_from_machine>

0000000041000640 <trap_handler_m__check_excp>:
    41000640:	06823283          	ld	x5,104(x4) # 68 <XLEN+0x28>
    41000644:	06023423          	sd	x0,104(x4) # 68 <XLEN+0x28>
    41000648:	00028663          	beqz	x5,41000654 <trap_handler_m__skip_mode_check>
    4100064c:	00100393          	li	x7,1
    41000650:	0e729463          	bne	x5,x7,41000738 <test_failed>

0000000041000654 <trap_handler_m__skip_mode_check>:
    41000654:	05023283          	ld	x5,80(x4) # 50 <XLEN+0x10>
    41000658:	04023823          	sd	x0,80(x4) # 50 <XLEN+0x10>
    4100065c:	0c531e63          	bne	x6,x5,41000738 <test_failed>
    41000660:	03823283          	ld	x5,56(x4) # 38 <SECURE_ACCESS_PROBABILITY+0x1a>
    41000664:	02023c23          	sd	x0,56(x4) # 38 <SECURE_ACCESS_PROBABILITY+0x1a>
    41000668:	06029463          	bnez	x5,410006d0 <trap_handler_m__skip_gva_check>
    4100066c:	02023303          	ld	x6,32(x4) # 20 <SECURE_ACCESS_PROBABILITY+0x2>
    41000670:	02023023          	sd	x0,32(x4) # 20 <SECURE_ACCESS_PROBABILITY+0x2>
    41000674:	02823283          	ld	x5,40(x4) # 28 <SECURE_ACCESS_PROBABILITY+0xa>
    41000678:	02023423          	sd	x0,40(x4) # 28 <SECURE_ACCESS_PROBABILITY+0xa>
    4100067c:	0a531e63          	bne	x6,x5,41000738 <test_failed>
    41000680:	04023283          	ld	x5,64(x4) # 40 <XLEN>
    41000684:	04023023          	sd	x0,64(x4) # 40 <XLEN>
    41000688:	00028663          	beqz	x5,41000694 <trap_handler_m__skip_nonzero_tval_check>

000000004100068c <trap_handler_m__nonzero_tval_check>:
    4100068c:	34302373          	csrr	x6,mtval
    41000690:	0a531463          	bne	x6,x5,41000738 <test_failed>

0000000041000694 <trap_handler_m__skip_nonzero_tval_check>:
    41000694:	04823283          	ld	x5,72(x4) # 48 <XLEN+0x8>
    41000698:	04023423          	sd	x0,72(x4) # 48 <XLEN+0x8>
    4100069c:	00028663          	beqz	x5,410006a8 <trap_handler_m__skip_nonzero_htval_check>

00000000410006a0 <trap_handler_m__nonzero_htval_check>:
    410006a0:	34b02373          	csrr	x6,0x34b
    410006a4:	08531a63          	bne	x6,x5,41000738 <test_failed>

00000000410006a8 <trap_handler_m__skip_nonzero_htval_check>:
    410006a8:	06023283          	ld	x5,96(x4) # 60 <XLEN+0x20>
    410006ac:	06023023          	sd	x0,96(x4) # 60 <XLEN+0x20>
    410006b0:	02028063          	beqz	x5,410006d0 <trap_handler_m__skip_gva_check>

00000000410006b4 <trap_handler_m__gva_check>:
    410006b4:	30002373          	csrr	x6,mstatus
    410006b8:	02635313          	srli	x6,x6,0x26
    410006bc:	00137313          	andi	x6,x6,1
    410006c0:	06030c63          	beqz	x6,41000738 <test_failed>
    410006c4:	0010031b          	addiw	x6,x0,1
    410006c8:	02631313          	slli	x6,x6,0x26
    410006cc:	30033073          	csrc	mstatus,x6

00000000410006d0 <trap_handler_m__skip_gva_check>:
    410006d0:	0040006f          	j	410006d4 <trap_handler_m__ecall_from_machine>

00000000410006d4 <trap_handler_m__ecall_from_machine>:
    410006d4:	03023283          	ld	x5,48(x4) # 30 <SECURE_ACCESS_PROBABILITY+0x12>
    410006d8:	02023823          	sd	x0,48(x4) # 30 <SECURE_ACCESS_PROBABILITY+0x12>
    410006dc:	07023303          	ld	x6,112(x4) # 70 <XLEN+0x30>
    410006e0:	06023823          	sd	x0,112(x4) # 70 <XLEN+0x30>
    410006e4:	00031463          	bnez	x6,410006ec <trap_handler_m__skip_xepc_write>
    410006e8:	34129073          	csrw	mepc,x5

00000000410006ec <trap_handler_m__skip_xepc_write>:
    410006ec:	00000317          	auipc	x6,0x0
    410006f0:	dd830313          	addi	x6,x6,-552 # 410004c4 <trap_handler_m__trap_entry>
    410006f4:	30531073          	csrw	mtvec,x6
    410006f8:	34021273          	csrrw	x4,mscratch,x4
    410006fc:	30200073          	mret

0000000041000700 <trap_handler_m__trap_panic>:
    41000700:	00000193          	li	x3,0
    41000704:	2b40006f          	j	410009b8 <eot__end_test>

0000000041000708 <enter_scheduler>:
    41000708:	0002f337          	lui	x6,0x2f
    4100070c:	ab73031b          	addiw	x6,x6,-1353 # 2eab7 <_all_interrupts+0x2c00d>
    41000710:	00e31313          	slli	x6,x6,0xe
    41000714:	0de30313          	addi	x6,x6,222
    41000718:	02628063          	beq	x5,x6,41000738 <test_failed>
    4100071c:	00000513          	li	x10,0
    41000720:	030000ef          	jal	41000750 <rvcp_print_test_result>
    41000724:	3180006f          	j	41000a3c <scheduler__dispatch>

0000000041000728 <test_passed>:
    41000728:	34021273          	csrrw	x4,mscratch,x4
    4100072c:	00000513          	li	x10,0
    41000730:	020000ef          	jal	41000750 <rvcp_print_test_result>
    41000734:	3080006f          	j	41000a3c <scheduler__dispatch>

0000000041000738 <test_failed>:
    41000738:	34021273          	csrrw	x4,mscratch,x4
    4100073c:	00300193          	li	x3,3
    41000740:	2780006f          	j	410009b8 <eot__end_test>

0000000041000744 <os_end_test>:
    41000744:	34021273          	csrrw	x4,mscratch,x4
    41000748:	00100193          	li	x3,1
    4100074c:	26c0006f          	j	410009b8 <eot__end_test>

0000000041000750 <rvcp_print_test_result>:
    41000750:	00050e13          	mv	x28,x10
    41000754:	18823283          	ld	x5,392(x4) # 188 <XLEN+0x148>
    41000758:	0010031b          	addiw	x6,x0,1
    4100075c:	02031313          	slli	x6,x6,0x20
    41000760:	ffe30313          	addi	x6,x6,-2
    41000764:	1c628063          	beq	x5,x6,41000924 <rvcp_print_test_result+0x1d4>
    41000768:	0010031b          	addiw	x6,x0,1
    4100076c:	02031313          	slli	x6,x6,0x20
    41000770:	fff30313          	addi	x6,x6,-1
    41000774:	1a628863          	beq	x5,x6,41000924 <rvcp_print_test_result+0x1d4>
    41000778:	1a02c663          	bltz	x5,41000924 <rvcp_print_test_result+0x1d4>
    4100077c:	00000317          	auipc	x6,0x0
    41000780:	41030313          	addi	x6,x6,1040 # 41000b8c <dtest_descriptor_table>
    41000784:	00329393          	slli	x7,x5,0x3
    41000788:	00730333          	add	x6,x6,x7
    4100078c:	00033e83          	ld	x29,0(x6)
    41000790:	44db4f37          	lui	x30,0x44db4
    41000794:	030f0f1b          	addiw	x30,x30,48 # 44db4030 <rvcp_prefix_str>
    41000798:	000f4283          	lbu	x5,0(x30)
    4100079c:	02028663          	beqz	x5,410007c8 <rvcp_print_test_result+0x78>
    410007a0:	1010031b          	addiw	x6,x0,257
    410007a4:	03031313          	slli	x6,x6,0x30
    410007a8:	005362b3          	or	x5,x6,x5
    410007ac:	00040317          	auipc	x6,0x40
    410007b0:	85430313          	addi	x6,x6,-1964 # 41040000 <tohost>
    410007b4:	00033383          	ld	x7,0(x6)
    410007b8:	fe039ee3          	bnez	x7,410007b4 <rvcp_print_test_result+0x64>
    410007bc:	00533023          	sd	x5,0(x6)
    410007c0:	001f0f13          	addi	x30,x30,1
    410007c4:	fd5ff06f          	j	41000798 <rvcp_print_test_result+0x48>
    410007c8:	44db4f37          	lui	x30,0x44db4
    410007cc:	041f0f1b          	addiw	x30,x30,65 # 44db4041 <rvcp_testname_str>
    410007d0:	000f4283          	lbu	x5,0(x30)
    410007d4:	02028663          	beqz	x5,41000800 <rvcp_print_test_result+0xb0>
    410007d8:	1010031b          	addiw	x6,x0,257
    410007dc:	03031313          	slli	x6,x6,0x30
    410007e0:	005362b3          	or	x5,x6,x5
    410007e4:	00040317          	auipc	x6,0x40
    410007e8:	81c30313          	addi	x6,x6,-2020 # 41040000 <tohost>
    410007ec:	00033383          	ld	x7,0(x6)
    410007f0:	fe039ee3          	bnez	x7,410007ec <rvcp_print_test_result+0x9c>
    410007f4:	00533023          	sd	x5,0(x6)
    410007f8:	001f0f13          	addi	x30,x30,1
    410007fc:	fd5ff06f          	j	410007d0 <rvcp_print_test_result+0x80>
    41000800:	44db4f37          	lui	x30,0x44db4
    41000804:	06ef0f1b          	addiw	x30,x30,110 # 44db406e <rvcp_space_str>
    41000808:	000f4283          	lbu	x5,0(x30)
    4100080c:	02028663          	beqz	x5,41000838 <rvcp_print_test_result+0xe8>
    41000810:	1010031b          	addiw	x6,x0,257
    41000814:	03031313          	slli	x6,x6,0x30
    41000818:	005362b3          	or	x5,x6,x5
    4100081c:	0003f317          	auipc	x6,0x3f
    41000820:	7e430313          	addi	x6,x6,2020 # 41040000 <tohost>
    41000824:	00033383          	ld	x7,0(x6)
    41000828:	fe039ee3          	bnez	x7,41000824 <rvcp_print_test_result+0xd4>
    4100082c:	00533023          	sd	x5,0(x6)
    41000830:	001f0f13          	addi	x30,x30,1
    41000834:	fd5ff06f          	j	41000808 <rvcp_print_test_result+0xb8>
    41000838:	000e8f13          	mv	x30,x29
    4100083c:	000f4283          	lbu	x5,0(x30)
    41000840:	02028663          	beqz	x5,4100086c <rvcp_print_test_result+0x11c>
    41000844:	1010031b          	addiw	x6,x0,257
    41000848:	03031313          	slli	x6,x6,0x30
    4100084c:	005362b3          	or	x5,x6,x5
    41000850:	0003f317          	auipc	x6,0x3f
    41000854:	7b030313          	addi	x6,x6,1968 # 41040000 <tohost>
    41000858:	00033383          	ld	x7,0(x6)
    4100085c:	fe039ee3          	bnez	x7,41000858 <rvcp_print_test_result+0x108>
    41000860:	00533023          	sd	x5,0(x6)
    41000864:	001f0f13          	addi	x30,x30,1
    41000868:	fd5ff06f          	j	4100083c <rvcp_print_test_result+0xec>
    4100086c:	44db4f37          	lui	x30,0x44db4
    41000870:	06ef0f1b          	addiw	x30,x30,110 # 44db406e <rvcp_space_str>
    41000874:	000f4283          	lbu	x5,0(x30)
    41000878:	02028663          	beqz	x5,410008a4 <rvcp_print_test_result+0x154>
    4100087c:	1010031b          	addiw	x6,x0,257
    41000880:	03031313          	slli	x6,x6,0x30
    41000884:	005362b3          	or	x5,x6,x5
    41000888:	0003f317          	auipc	x6,0x3f
    4100088c:	77830313          	addi	x6,x6,1912 # 41040000 <tohost>
    41000890:	00033383          	ld	x7,0(x6)
    41000894:	fe039ee3          	bnez	x7,41000890 <rvcp_print_test_result+0x140>
    41000898:	00533023          	sd	x5,0(x6)
    4100089c:	001f0f13          	addi	x30,x30,1
    410008a0:	fd5ff06f          	j	41000874 <rvcp_print_test_result+0x124>
    410008a4:	000e1863          	bnez	x28,410008b4 <rvcp_print_test_result+0x164>
    410008a8:	44db4f37          	lui	x30,0x44db4
    410008ac:	060f0f1b          	addiw	x30,x30,96 # 44db4060 <rvcp_passed_str>
    410008b0:	00c0006f          	j	410008bc <rvcp_print_test_result+0x16c>
    410008b4:	44db4f37          	lui	x30,0x44db4
    410008b8:	067f0f1b          	addiw	x30,x30,103 # 44db4067 <rvcp_failed_str>
    410008bc:	000f4283          	lbu	x5,0(x30)
    410008c0:	02028663          	beqz	x5,410008ec <rvcp_print_test_result+0x19c>
    410008c4:	1010031b          	addiw	x6,x0,257
    410008c8:	03031313          	slli	x6,x6,0x30
    410008cc:	005362b3          	or	x5,x6,x5
    410008d0:	0003f317          	auipc	x6,0x3f
    410008d4:	73030313          	addi	x6,x6,1840 # 41040000 <tohost>
    410008d8:	00033383          	ld	x7,0(x6)
    410008dc:	fe039ee3          	bnez	x7,410008d8 <rvcp_print_test_result+0x188>
    410008e0:	00533023          	sd	x5,0(x6)
    410008e4:	001f0f13          	addi	x30,x30,1
    410008e8:	fd5ff06f          	j	410008bc <rvcp_print_test_result+0x16c>
    410008ec:	44db4f37          	lui	x30,0x44db4
    410008f0:	070f0f1b          	addiw	x30,x30,112 # 44db4070 <rvcp_newline_str>
    410008f4:	000f4283          	lbu	x5,0(x30)
    410008f8:	02028663          	beqz	x5,41000924 <rvcp_print_test_result+0x1d4>
    410008fc:	1010031b          	addiw	x6,x0,257
    41000900:	03031313          	slli	x6,x6,0x30
    41000904:	005362b3          	or	x5,x6,x5
    41000908:	0003f317          	auipc	x6,0x3f
    4100090c:	6f830313          	addi	x6,x6,1784 # 41040000 <tohost>
    41000910:	00033383          	ld	x7,0(x6)
    41000914:	fe039ee3          	bnez	x7,41000910 <rvcp_print_test_result+0x1c0>
    41000918:	00533023          	sd	x5,0(x6)
    4100091c:	001f0f13          	addi	x30,x30,1
    41000920:	fd5ff06f          	j	410008f4 <rvcp_print_test_result+0x1a4>
    41000924:	00008067          	ret

0000000041000928 <os_rng_orig>:
    41000928:	f14023f3          	csrr	x7,mhartid
    4100092c:	00068313          	mv	x6,x13
    41000930:	026383b3          	mul	x7,x7,x6
    41000934:	00058313          	mv	x6,x11
    41000938:	00730333          	add	x6,x6,x7
    4100093c:	00033283          	ld	x5,0(x6)
    41000940:	01529313          	slli	x6,x5,0x15
    41000944:	0062c2b3          	xor	x5,x5,x6
    41000948:	0232d313          	srli	x6,x5,0x23
    4100094c:	0062c2b3          	xor	x5,x5,x6
    41000950:	00429313          	slli	x6,x5,0x4
    41000954:	0062c2b3          	xor	x5,x5,x6
    41000958:	00058313          	mv	x6,x11
    4100095c:	00730333          	add	x6,x6,x7
    41000960:	00533023          	sd	x5,0(x6)
    41000964:	00060313          	mv	x6,x12
    41000968:	0262f2b3          	remu	x5,x5,x6
    4100096c:	00028513          	mv	x10,x5
    41000970:	00008067          	ret
    41000974:	02a00513          	li	x10,42
    41000978:	001965b7          	lui	x11,0x196
    4100097c:	60d5859b          	addiw	x11,x11,1549 # 19660d <pma_region_0_size+0x15660d>
    41000980:	3c6ef637          	lui	x12,0x3c6ef
    41000984:	35f6061b          	addiw	x12,x12,863 # 3c6ef35f <pma_region_2_size+0x386ef35f>
    41000988:	02200693          	li	x13,34
    4100098c:	02b50533          	mul	x10,x10,x11
    41000990:	00c50533          	add	x10,x10,x12
    41000994:	02d56533          	rem	x10,x10,x13
    41000998:	00b00593          	li	x11,11
    4100099c:	02b56533          	rem	x10,x10,x11
    410009a0:	00008067          	ret
    410009a4:	0000                	.insn	2, 0x0000
	...

00000000410009a8 <tohost_mutex>:
	...

00000000410009b0 <tohost_addr_mem>:
    410009b0:	0000                	.insn	2, 0x0000
    410009b2:	4104                	.insn	2, 0x4104
    410009b4:	0000                	.insn	2, 0x0000
	...

00000000410009b8 <eot__end_test>:
    410009b8:	00100293          	li	x5,1
    410009bc:	00328463          	beq	x5,x3,410009c4 <eot__passed>
    410009c0:	01c0006f          	j	410009dc <eot__failed>

00000000410009c4 <eot__passed>:
    410009c4:	0ff0000f          	fence
    410009c8:	00000297          	auipc	x5,0x0
    410009cc:	fe82b283          	ld	x5,-24(x5) # 410009b0 <tohost_addr_mem>
    410009d0:	00100313          	li	x6,1
    410009d4:	0062a023          	sw	x6,0(x5)
    410009d8:	0240006f          	j	410009fc <eot__halt>

00000000410009dc <eot__failed>:
    410009dc:	00100513          	li	x10,1
    410009e0:	d71ff0ef          	jal	41000750 <rvcp_print_test_result>
    410009e4:	0ff0000f          	fence
    410009e8:	00000297          	auipc	x5,0x0
    410009ec:	fc82b283          	ld	x5,-56(x5) # 410009b0 <tohost_addr_mem>
    410009f0:	00300313          	li	x6,3
    410009f4:	0062a023          	sw	x6,0(x5)
    410009f8:	0040006f          	j	410009fc <eot__halt>

00000000410009fc <eot__halt>:
    410009fc:	10500073          	wfi
    41000a00:	ffdff06f          	j	410009fc <eot__halt>

0000000041000a04 <scheduler__init>:
    41000a04:	00000297          	auipc	x5,0x0
    41000a08:	0dc28293          	addi	x5,x5,220 # 41000ae0 <scheduler__panic>
    41000a0c:	305292f3          	csrrw	x5,mtvec,x5
    41000a10:	18523023          	sd	x5,384(x4) # 180 <XLEN+0x140>
    41000a14:	01300293          	li	x5,19
    41000a18:	18523823          	sd	x5,400(x4) # 190 <XLEN+0x150>
    41000a1c:	0010029b          	addiw	x5,x0,1
    41000a20:	02029293          	slli	x5,x5,0x20
    41000a24:	ffe28293          	addi	x5,x5,-2
    41000a28:	18523423          	sd	x5,392(x4) # 188 <XLEN+0x148>
    41000a2c:	00000317          	auipc	x6,0x0
    41000a30:	25830313          	addi	x6,x6,600 # 41000c84 <scheduler__test_setup_ptr>
    41000a34:	00033303          	ld	x6,0(x6)
    41000a38:	07c0006f          	j	41000ab4 <scheduler__execute_test>

0000000041000a3c <scheduler__dispatch>:
    41000a3c:	300472f3          	csrrci	x5,mstatus,8
    41000a40:	0082f293          	andi	x5,x5,8
    41000a44:	00429293          	slli	x5,x5,0x4
    41000a48:	3002a073          	csrs	mstatus,x5
    41000a4c:	00000297          	auipc	x5,0x0
    41000a50:	09428293          	addi	x5,x5,148 # 41000ae0 <scheduler__panic>
    41000a54:	305292f3          	csrrw	x5,mtvec,x5
    41000a58:	18523023          	sd	x5,384(x4) # 180 <XLEN+0x140>

0000000041000a5c <scheduler__csr_read_randomization>:
    41000a5c:	104022f3          	csrr	x5,sie
    41000a60:	f12022f3          	csrr	x5,marchid
    41000a64:	142022f3          	csrr	x5,scause
    41000a68:	105022f3          	csrr	x5,stvec
    41000a6c:	f14022f3          	csrr	x5,mhartid
    41000a70:	302022f3          	csrr	x5,medeleg
    41000a74:	10a022f3          	csrr	x5,0x10a

0000000041000a78 <scheduler__load_num_runs>:
    41000a78:	19023303          	ld	x6,400(x4) # 190 <XLEN+0x150>
    41000a7c:	04030e63          	beqz	x6,41000ad8 <scheduler__finished>

0000000041000a80 <scheduler__decrement_num_runs>:
    41000a80:	fff30393          	addi	x7,x6,-1
    41000a84:	18723823          	sd	x7,400(x4) # 190 <XLEN+0x150>
    41000a88:	00000e17          	auipc	x28,0x0
    41000a8c:	1ace0e13          	addi	x28,x28,428 # 41000c34 <dtest_index_map>
    41000a90:	00239e93          	slli	x29,x7,0x2
    41000a94:	01de0e33          	add	x28,x28,x29
    41000a98:	000e2e03          	lw	x28,0(x28)
    41000a9c:	19c23423          	sd	x28,392(x4) # 188 <XLEN+0x148>

0000000041000aa0 <scheduler__calc_test_pointer>:
    41000aa0:	00339293          	slli	x5,x7,0x3

0000000041000aa4 <scheduler__load_test_addr>:
    41000aa4:	00000317          	auipc	x6,0x0
    41000aa8:	05030313          	addi	x6,x6,80 # 41000af4 <os_test_sequence>
    41000aac:	006282b3          	add	x5,x5,x6
    41000ab0:	0002b303          	ld	x6,0(x5)

0000000041000ab4 <scheduler__execute_test>:
    41000ab4:	18023283          	ld	x5,384(x4) # 180 <XLEN+0x140>
    41000ab8:	30529073          	csrw	mtvec,x5
    41000abc:	34021273          	csrrw	x4,mscratch,x4
    41000ac0:	00000213          	li	x4,0
    41000ac4:	300022f3          	csrr	x5,mstatus
    41000ac8:	0802f293          	andi	x5,x5,128
    41000acc:	0042d293          	srli	x5,x5,0x4
    41000ad0:	3002a073          	csrs	mstatus,x5
    41000ad4:	00030067          	jr	x6

0000000041000ad8 <scheduler__finished>:
    41000ad8:	00100193          	li	x3,1
    41000adc:	eddff06f          	j	410009b8 <eot__end_test>

0000000041000ae0 <scheduler__panic>:
    41000ae0:	00000193          	li	x3,0
    41000ae4:	ed5ff06f          	j	410009b8 <eot__end_test>
    41000ae8:	0000                	.insn	2, 0x0000
	...

0000000041000aec <num_runs>:
    41000aec:	00000013          	nop
    41000af0:	0000                	.insn	2, 0x0000
	...

0000000041000af4 <os_test_sequence>:
    41000af4:	6830                	.insn	2, 0x6830
    41000af6:	4101                	.insn	2, 0x4101
    41000af8:	0000                	.insn	2, 0x0000
    41000afa:	0000                	.insn	2, 0x0000
    41000afc:	44d0                	.insn	2, 0x44d0
    41000afe:	4101                	.insn	2, 0x4101
    41000b00:	0000                	.insn	2, 0x0000
    41000b02:	0000                	.insn	2, 0x0000
    41000b04:	44d0                	.insn	2, 0x44d0
    41000b06:	4101                	.insn	2, 0x4101
    41000b08:	0000                	.insn	2, 0x0000
    41000b0a:	0000                	.insn	2, 0x0000
    41000b0c:	4300                	.insn	2, 0x4300
    41000b0e:	4101                	.insn	2, 0x4101
    41000b10:	0000                	.insn	2, 0x0000
    41000b12:	0000                	.insn	2, 0x0000
    41000b14:	5600                	.insn	2, 0x5600
    41000b16:	4101                	.insn	2, 0x4101
    41000b18:	0000                	.insn	2, 0x0000
    41000b1a:	0000                	.insn	2, 0x0000
    41000b1c:	4300                	.insn	2, 0x4300
    41000b1e:	4101                	.insn	2, 0x4101
    41000b20:	0000                	.insn	2, 0x0000
    41000b22:	0000                	.insn	2, 0x0000
    41000b24:	4130                	.insn	2, 0x4130
    41000b26:	4101                	.insn	2, 0x4101
    41000b28:	0000                	.insn	2, 0x0000
    41000b2a:	0000                	.insn	2, 0x0000
    41000b2c:	4300                	.insn	2, 0x4300
    41000b2e:	4101                	.insn	2, 0x4101
    41000b30:	0000                	.insn	2, 0x0000
    41000b32:	0000                	.insn	2, 0x0000
    41000b34:	4218                	.insn	2, 0x4218
    41000b36:	4101                	.insn	2, 0x4101
    41000b38:	0000                	.insn	2, 0x0000
    41000b3a:	0000                	.insn	2, 0x0000
    41000b3c:	43e8                	.insn	2, 0x43e8
    41000b3e:	4101                	.insn	2, 0x4101
    41000b40:	0000                	.insn	2, 0x0000
    41000b42:	0000                	.insn	2, 0x0000
    41000b44:	4218                	.insn	2, 0x4218
    41000b46:	4101                	.insn	2, 0x4101
    41000b48:	0000                	.insn	2, 0x0000
    41000b4a:	0000                	.insn	2, 0x0000
    41000b4c:	43e8                	.insn	2, 0x43e8
    41000b4e:	4101                	.insn	2, 0x4101
    41000b50:	0000                	.insn	2, 0x0000
    41000b52:	0000                	.insn	2, 0x0000
    41000b54:	43e8                	.insn	2, 0x43e8
    41000b56:	4101                	.insn	2, 0x4101
    41000b58:	0000                	.insn	2, 0x0000
    41000b5a:	0000                	.insn	2, 0x0000
    41000b5c:	5600                	.insn	2, 0x5600
    41000b5e:	4101                	.insn	2, 0x4101
    41000b60:	0000                	.insn	2, 0x0000
    41000b62:	0000                	.insn	2, 0x0000
    41000b64:	44d0                	.insn	2, 0x44d0
    41000b66:	4101                	.insn	2, 0x4101
    41000b68:	0000                	.insn	2, 0x0000
    41000b6a:	0000                	.insn	2, 0x0000
    41000b6c:	4218                	.insn	2, 0x4218
    41000b6e:	4101                	.insn	2, 0x4101
    41000b70:	0000                	.insn	2, 0x0000
    41000b72:	0000                	.insn	2, 0x0000
    41000b74:	5600                	.insn	2, 0x5600
    41000b76:	4101                	.insn	2, 0x4101
    41000b78:	0000                	.insn	2, 0x0000
    41000b7a:	0000                	.insn	2, 0x0000
    41000b7c:	4130                	.insn	2, 0x4130
    41000b7e:	4101                	.insn	2, 0x4101
    41000b80:	0000                	.insn	2, 0x0000
    41000b82:	0000                	.insn	2, 0x0000
    41000b84:	4130                	.insn	2, 0x4130
    41000b86:	4101                	.insn	2, 0x4101
    41000b88:	0000                	.insn	2, 0x0000
	...

0000000041000b8c <dtest_descriptor_table>:
    41000b8c:	0bbc                	.insn	2, 0x0bbc
    41000b8e:	4100                	.insn	2, 0x4100
    41000b90:	0000                	.insn	2, 0x0000
    41000b92:	0000                	.insn	2, 0x0000
    41000b94:	0bd0                	.insn	2, 0x0bd0
    41000b96:	4100                	.insn	2, 0x4100
    41000b98:	0000                	.insn	2, 0x0000
    41000b9a:	0000                	.insn	2, 0x0000
    41000b9c:	0be4                	.insn	2, 0x0be4
    41000b9e:	4100                	.insn	2, 0x4100
    41000ba0:	0000                	.insn	2, 0x0000
    41000ba2:	0000                	.insn	2, 0x0000
    41000ba4:	0bf8                	.insn	2, 0x0bf8
    41000ba6:	4100                	.insn	2, 0x4100
    41000ba8:	0000                	.insn	2, 0x0000
    41000baa:	0000                	.insn	2, 0x0000
    41000bac:	0c0c                	.insn	2, 0x0c0c
    41000bae:	4100                	.insn	2, 0x4100
    41000bb0:	0000                	.insn	2, 0x0000
    41000bb2:	0000                	.insn	2, 0x0000
    41000bb4:	0c20                	.insn	2, 0x0c20
    41000bb6:	4100                	.insn	2, 0x4100
    41000bb8:	0000                	.insn	2, 0x0000
	...

0000000041000bbc <dtest_name_0>:
    41000bbc:	5f444953          	.insn	4, 0x5f444953
    41000bc0:	4358                	.insn	2, 0x4358
    41000bc2:	544e554f          	fnmadd.h	f10,f28,f4,f10,unknown
    41000bc6:	5245                	.insn	2, 0x5245
    41000bc8:	4e45                	.insn	2, 0x4e45
    41000bca:	305f 5f31 004d      	.insn	6, 0x004d5f31305f

0000000041000bd0 <dtest_name_1>:
    41000bd0:	5f444953          	.insn	4, 0x5f444953
    41000bd4:	4358                	.insn	2, 0x4358
    41000bd6:	544e554f          	fnmadd.h	f10,f28,f4,f10,unknown
    41000bda:	5245                	.insn	2, 0x5245
    41000bdc:	4e45                	.insn	2, 0x4e45
    41000bde:	305f 5f32 004d      	.insn	6, 0x004d5f32305f

0000000041000be4 <dtest_name_2>:
    41000be4:	5f444953          	.insn	4, 0x5f444953
    41000be8:	4358                	.insn	2, 0x4358
    41000bea:	544e554f          	fnmadd.h	f10,f28,f4,f10,unknown
    41000bee:	5245                	.insn	2, 0x5245
    41000bf0:	4e45                	.insn	2, 0x4e45
    41000bf2:	305f 5f33 004d      	.insn	6, 0x004d5f33305f

0000000041000bf8 <dtest_name_3>:
    41000bf8:	5f444953          	.insn	4, 0x5f444953
    41000bfc:	4358                	.insn	2, 0x4358
    41000bfe:	544e554f          	fnmadd.h	f10,f28,f4,f10,unknown
    41000c02:	5245                	.insn	2, 0x5245
    41000c04:	4e45                	.insn	2, 0x4e45
    41000c06:	305f 5f34 004d      	.insn	6, 0x004d5f34305f

0000000041000c0c <dtest_name_4>:
    41000c0c:	5f444953          	.insn	4, 0x5f444953
    41000c10:	4358                	.insn	2, 0x4358
    41000c12:	544e554f          	fnmadd.h	f10,f28,f4,f10,unknown
    41000c16:	5245                	.insn	2, 0x5245
    41000c18:	4e45                	.insn	2, 0x4e45
    41000c1a:	305f 5f35 004d      	.insn	6, 0x004d5f35305f

0000000041000c20 <dtest_name_5>:
    41000c20:	5f444953          	.insn	4, 0x5f444953
    41000c24:	4358                	.insn	2, 0x4358
    41000c26:	544e554f          	fnmadd.h	f10,f28,f4,f10,unknown
    41000c2a:	5245                	.insn	2, 0x5245
    41000c2c:	4e45                	.insn	2, 0x4e45
    41000c2e:	305f 5f36 004d      	.insn	6, 0x004d5f36305f

0000000041000c34 <dtest_index_map>:
    41000c34:	ffff                	.insn	2, 0xffff
    41000c36:	ffff                	.insn	2, 0xffff
    41000c38:	0004                	.insn	2, 0x0004
    41000c3a:	0000                	.insn	2, 0x0000
    41000c3c:	0004                	.insn	2, 0x0004
    41000c3e:	0000                	.insn	2, 0x0000
    41000c40:	0002                	.insn	2, 0x0002
    41000c42:	0000                	.insn	2, 0x0000
    41000c44:	0005                	.insn	2, 0x0005
    41000c46:	0000                	.insn	2, 0x0000
    41000c48:	0002                	.insn	2, 0x0002
    41000c4a:	0000                	.insn	2, 0x0000
    41000c4c:	0000                	.insn	2, 0x0000
    41000c4e:	0000                	.insn	2, 0x0000
    41000c50:	0002                	.insn	2, 0x0002
    41000c52:	0000                	.insn	2, 0x0000
    41000c54:	0001                	.insn	2, 0x0001
    41000c56:	0000                	.insn	2, 0x0000
    41000c58:	00000003          	lb	x0,0(x0) # 0 <ALL_4KB_PAGES>
    41000c5c:	0001                	.insn	2, 0x0001
    41000c5e:	0000                	.insn	2, 0x0000
    41000c60:	00000003          	lb	x0,0(x0) # 0 <ALL_4KB_PAGES>
    41000c64:	00000003          	lb	x0,0(x0) # 0 <ALL_4KB_PAGES>
    41000c68:	0005                	.insn	2, 0x0005
    41000c6a:	0000                	.insn	2, 0x0000
    41000c6c:	0004                	.insn	2, 0x0004
    41000c6e:	0000                	.insn	2, 0x0000
    41000c70:	0001                	.insn	2, 0x0001
    41000c72:	0000                	.insn	2, 0x0000
    41000c74:	0005                	.insn	2, 0x0005
	...

0000000041000c84 <scheduler__test_setup_ptr>:
    41000c84:	4120                	.insn	2, 0x4120
    41000c86:	4101                	.insn	2, 0x4101
    41000c88:	0000                	.insn	2, 0x0000
	...

0000000041000c8c <scheduler__test_cleanup_ptr>:
    41000c8c:	6830                	.insn	2, 0x6830
    41000c8e:	4101                	.insn	2, 0x4101
    41000c90:	0000                	.insn	2, 0x0000
	...

Disassembly of section .runtime_s:

0000000041010000 <trap_handler_s__invalid_interrupt>:
    41010000:	1740006f          	j	41010174 <trap_handler_s__test_failed>

0000000041010004 <trap_handler_s__clear_all_interrupts>:
    41010004:	14401073          	csrw	sip,x0
    41010008:	10200073          	sret

000000004101000c <trap_handler_s___CLEAR_SSI>:
    4101000c:	00200293          	li	x5,2
    41010010:	1442b073          	csrc	sip,x5
    41010014:	10200073          	sret

0000000041010018 <trap_handler_s___CLEAR_MSI>:
    41010018:	00800293          	li	x5,8
    4101001c:	1442b073          	csrc	sip,x5
    41010020:	10200073          	sret

0000000041010024 <trap_handler_s___CLEAR_STI>:
    41010024:	02000293          	li	x5,32
    41010028:	1442b073          	csrc	sip,x5
    4101002c:	10200073          	sret

0000000041010030 <trap_handler_s___CLEAR_MTI>:
    41010030:	08000293          	li	x5,128
    41010034:	1442b073          	csrc	sip,x5
    41010038:	10200073          	sret

000000004101003c <trap_handler_s___CLEAR_SEI>:
    4101003c:	20000293          	li	x5,512
    41010040:	1442b073          	csrc	sip,x5
    41010044:	10200073          	sret

0000000041010048 <trap_handler_s___CLEAR_MEI>:
    41010048:	000012b7          	lui	x5,0x1
    4101004c:	8002829b          	addiw	x5,x5,-2048 # 800 <XLEN+0x7c0>
    41010050:	1442b073          	csrc	sip,x5
    41010054:	10200073          	sret

0000000041010058 <trap_handler_s___CLEAR_COI>:
    41010058:	000022b7          	lui	x5,0x2
    4101005c:	1442b073          	csrc	sip,x5
    41010060:	10200073          	sret

0000000041010064 <trap_handler_s__clear_highest_priority_interrupt>:
    41010064:	144022f3          	csrr	x5,sip
    41010068:	40500333          	neg	x6,x5
    4101006c:	0062f2b3          	and	x5,x5,x6
    41010070:	1442b073          	csrc	sip,x5
    41010074:	10200073          	sret

0000000041010078 <trap_handler_s__trap_entry>:
    41010078:	10c0006f          	j	41010184 <trap_handler_s__trap_handler>

000000004101007c <trap_handler_s__interrupt_vector_table>:
    4101007c:	f91ff06f          	j	4101000c <trap_handler_s___CLEAR_SSI>
    41010080:	f81ff06f          	j	41010000 <trap_handler_s__invalid_interrupt>
    41010084:	f95ff06f          	j	41010018 <trap_handler_s___CLEAR_MSI>
    41010088:	f79ff06f          	j	41010000 <trap_handler_s__invalid_interrupt>
    4101008c:	f99ff06f          	j	41010024 <trap_handler_s___CLEAR_STI>
    41010090:	f71ff06f          	j	41010000 <trap_handler_s__invalid_interrupt>
    41010094:	f9dff06f          	j	41010030 <trap_handler_s___CLEAR_MTI>
    41010098:	f69ff06f          	j	41010000 <trap_handler_s__invalid_interrupt>
    4101009c:	fa1ff06f          	j	4101003c <trap_handler_s___CLEAR_SEI>
    410100a0:	f61ff06f          	j	41010000 <trap_handler_s__invalid_interrupt>
    410100a4:	fa5ff06f          	j	41010048 <trap_handler_s___CLEAR_MEI>
    410100a8:	f59ff06f          	j	41010000 <trap_handler_s__invalid_interrupt>
    410100ac:	fadff06f          	j	41010058 <trap_handler_s___CLEAR_COI>
    410100b0:	f51ff06f          	j	41010000 <trap_handler_s__invalid_interrupt>
    410100b4:	f4dff06f          	j	41010000 <trap_handler_s__invalid_interrupt>
    410100b8:	fadff06f          	j	41010064 <trap_handler_s__clear_highest_priority_interrupt>
    410100bc:	fa9ff06f          	j	41010064 <trap_handler_s__clear_highest_priority_interrupt>
    410100c0:	fa5ff06f          	j	41010064 <trap_handler_s__clear_highest_priority_interrupt>
    410100c4:	fa1ff06f          	j	41010064 <trap_handler_s__clear_highest_priority_interrupt>
    410100c8:	f9dff06f          	j	41010064 <trap_handler_s__clear_highest_priority_interrupt>
    410100cc:	f99ff06f          	j	41010064 <trap_handler_s__clear_highest_priority_interrupt>
    410100d0:	f95ff06f          	j	41010064 <trap_handler_s__clear_highest_priority_interrupt>
    410100d4:	f91ff06f          	j	41010064 <trap_handler_s__clear_highest_priority_interrupt>
    410100d8:	f8dff06f          	j	41010064 <trap_handler_s__clear_highest_priority_interrupt>
    410100dc:	f89ff06f          	j	41010064 <trap_handler_s__clear_highest_priority_interrupt>
    410100e0:	f85ff06f          	j	41010064 <trap_handler_s__clear_highest_priority_interrupt>
    410100e4:	f81ff06f          	j	41010064 <trap_handler_s__clear_highest_priority_interrupt>
    410100e8:	f7dff06f          	j	41010064 <trap_handler_s__clear_highest_priority_interrupt>
    410100ec:	f79ff06f          	j	41010064 <trap_handler_s__clear_highest_priority_interrupt>
    410100f0:	f75ff06f          	j	41010064 <trap_handler_s__clear_highest_priority_interrupt>
    410100f4:	f71ff06f          	j	41010064 <trap_handler_s__clear_highest_priority_interrupt>
    410100f8:	f6dff06f          	j	41010064 <trap_handler_s__clear_highest_priority_interrupt>
    410100fc:	f69ff06f          	j	41010064 <trap_handler_s__clear_highest_priority_interrupt>
    41010100:	f65ff06f          	j	41010064 <trap_handler_s__clear_highest_priority_interrupt>
    41010104:	f61ff06f          	j	41010064 <trap_handler_s__clear_highest_priority_interrupt>
    41010108:	f5dff06f          	j	41010064 <trap_handler_s__clear_highest_priority_interrupt>
    4101010c:	f59ff06f          	j	41010064 <trap_handler_s__clear_highest_priority_interrupt>
    41010110:	f55ff06f          	j	41010064 <trap_handler_s__clear_highest_priority_interrupt>
    41010114:	f51ff06f          	j	41010064 <trap_handler_s__clear_highest_priority_interrupt>
    41010118:	f4dff06f          	j	41010064 <trap_handler_s__clear_highest_priority_interrupt>
    4101011c:	f49ff06f          	j	41010064 <trap_handler_s__clear_highest_priority_interrupt>
    41010120:	f45ff06f          	j	41010064 <trap_handler_s__clear_highest_priority_interrupt>
    41010124:	f41ff06f          	j	41010064 <trap_handler_s__clear_highest_priority_interrupt>
    41010128:	f3dff06f          	j	41010064 <trap_handler_s__clear_highest_priority_interrupt>
    4101012c:	f39ff06f          	j	41010064 <trap_handler_s__clear_highest_priority_interrupt>
    41010130:	f35ff06f          	j	41010064 <trap_handler_s__clear_highest_priority_interrupt>
    41010134:	f31ff06f          	j	41010064 <trap_handler_s__clear_highest_priority_interrupt>
    41010138:	f2dff06f          	j	41010064 <trap_handler_s__clear_highest_priority_interrupt>
    4101013c:	f29ff06f          	j	41010064 <trap_handler_s__clear_highest_priority_interrupt>
    41010140:	f25ff06f          	j	41010064 <trap_handler_s__clear_highest_priority_interrupt>
    41010144:	f21ff06f          	j	41010064 <trap_handler_s__clear_highest_priority_interrupt>
    41010148:	f1dff06f          	j	41010064 <trap_handler_s__clear_highest_priority_interrupt>
    4101014c:	f19ff06f          	j	41010064 <trap_handler_s__clear_highest_priority_interrupt>
    41010150:	f15ff06f          	j	41010064 <trap_handler_s__clear_highest_priority_interrupt>
    41010154:	f11ff06f          	j	41010064 <trap_handler_s__clear_highest_priority_interrupt>
    41010158:	f0dff06f          	j	41010064 <trap_handler_s__clear_highest_priority_interrupt>
    4101015c:	f09ff06f          	j	41010064 <trap_handler_s__clear_highest_priority_interrupt>
    41010160:	f05ff06f          	j	41010064 <trap_handler_s__clear_highest_priority_interrupt>
    41010164:	f01ff06f          	j	41010064 <trap_handler_s__clear_highest_priority_interrupt>
    41010168:	efdff06f          	j	41010064 <trap_handler_s__clear_highest_priority_interrupt>
    4101016c:	ef9ff06f          	j	41010064 <trap_handler_s__clear_highest_priority_interrupt>
    41010170:	ef5ff06f          	j	41010064 <trap_handler_s__clear_highest_priority_interrupt>

0000000041010174 <trap_handler_s__test_failed>:
    41010174:	00f00f9b          	addiw	x31,x0,15
    41010178:	01cf9f93          	slli	x31,x31,0x1c
    4101017c:	002f8f93          	addi	x31,x31,2
    41010180:	00000073          	ecall

0000000041010184 <trap_handler_s__trap_handler>:
    41010184:	142022f3          	csrr	x5,scause
    41010188:	fff0031b          	addiw	x6,x0,-1
    4101018c:	03f31313          	slli	x6,x6,0x3f
    41010190:	00537333          	and	x6,x6,x5
    41010194:	02030263          	beqz	x6,410101b8 <trap_handler_s__exception_path>

0000000041010198 <trap_handler_s__interrupt_handler>:
    41010198:	fff0031b          	addiw	x6,x0,-1
    4101019c:	03f31313          	slli	x6,x6,0x3f
    410101a0:	0062c2b3          	xor	x5,x5,x6
    410101a4:	00000317          	auipc	x6,0x0
    410101a8:	ed430313          	addi	x6,x6,-300 # 41010078 <trap_handler_s__trap_entry>
    410101ac:	00229293          	slli	x5,x5,0x2
    410101b0:	005302b3          	add	x5,x6,x5
    410101b4:	00028067          	jr	x5 # 2000 <pma_region_1_size+0x1000>

00000000410101b8 <trap_handler_s__exception_path>:
    410101b8:	14021273          	csrrw	x4,sscratch,x4
    410101bc:	00000297          	auipc	x5,0x0
    410101c0:	0cc28293          	addi	x5,x5,204 # 41010288 <trap_handler_s__trap_panic>
    410101c4:	10529073          	csrw	stvec,x5
    410101c8:	0040006f          	j	410101cc <trap_handler_s__excp_entry>

00000000410101cc <trap_handler_s__excp_entry>:
    410101cc:	14202373          	csrr	x6,scause
    410101d0:	00800293          	li	x5,8
    410101d4:	00534863          	blt	x6,x5,410101e4 <trap_handler_s__check_exception_label>
    410101d8:	00b00293          	li	x5,11
    410101dc:	0062c463          	blt	x5,x6,410101e4 <trap_handler_s__check_exception_label>
    410101e0:	0a80006f          	j	41010288 <trap_handler_s__trap_panic>

00000000410101e4 <trap_handler_s__check_exception_label>:
    410101e4:	04623c23          	sd	x6,88(x4) # 58 <XLEN+0x18>
    410101e8:	141022f3          	csrr	x5,sepc
    410101ec:	02523423          	sd	x5,40(x4) # 28 <SECURE_ACCESS_PROBABILITY+0xa>
    410101f0:	01820283          	lb	x5,24(x4) # 18 <STORE_GUEST_PAGE_FAULT+0x1>
    410101f4:	00029863          	bnez	x5,41010204 <trap_handler_s__check_excp>
    410101f8:	00128293          	addi	x5,x5,1
    410101fc:	00520c23          	sb	x5,24(x4) # 18 <STORE_GUEST_PAGE_FAULT+0x1>
    41010200:	05c0006f          	j	4101025c <trap_handler_s__ecall_from_machine>

0000000041010204 <trap_handler_s__check_excp>:
    41010204:	06823283          	ld	x5,104(x4) # 68 <XLEN+0x28>
    41010208:	06023423          	sd	x0,104(x4) # 68 <XLEN+0x28>
    4101020c:	00028663          	beqz	x5,41010218 <trap_handler_s__skip_mode_check>
    41010210:	00300393          	li	x7,3
    41010214:	f67290e3          	bne	x5,x7,41010174 <trap_handler_s__test_failed>

0000000041010218 <trap_handler_s__skip_mode_check>:
    41010218:	05023283          	ld	x5,80(x4) # 50 <XLEN+0x10>
    4101021c:	04023823          	sd	x0,80(x4) # 50 <XLEN+0x10>
    41010220:	f4531ae3          	bne	x6,x5,41010174 <trap_handler_s__test_failed>
    41010224:	03823283          	ld	x5,56(x4) # 38 <SECURE_ACCESS_PROBABILITY+0x1a>
    41010228:	02023c23          	sd	x0,56(x4) # 38 <SECURE_ACCESS_PROBABILITY+0x1a>
    4101022c:	02029663          	bnez	x5,41010258 <trap_handler_s__skip_nonzero_tval_check>
    41010230:	02023303          	ld	x6,32(x4) # 20 <SECURE_ACCESS_PROBABILITY+0x2>
    41010234:	02023023          	sd	x0,32(x4) # 20 <SECURE_ACCESS_PROBABILITY+0x2>
    41010238:	02823283          	ld	x5,40(x4) # 28 <SECURE_ACCESS_PROBABILITY+0xa>
    4101023c:	02023423          	sd	x0,40(x4) # 28 <SECURE_ACCESS_PROBABILITY+0xa>
    41010240:	f2531ae3          	bne	x6,x5,41010174 <trap_handler_s__test_failed>
    41010244:	04023283          	ld	x5,64(x4) # 40 <XLEN>
    41010248:	04023023          	sd	x0,64(x4) # 40 <XLEN>
    4101024c:	00028663          	beqz	x5,41010258 <trap_handler_s__skip_nonzero_tval_check>

0000000041010250 <trap_handler_s__nonzero_tval_check>:
    41010250:	14302373          	csrr	x6,stval
    41010254:	f25310e3          	bne	x6,x5,41010174 <trap_handler_s__test_failed>

0000000041010258 <trap_handler_s__skip_nonzero_tval_check>:
    41010258:	0040006f          	j	4101025c <trap_handler_s__ecall_from_machine>

000000004101025c <trap_handler_s__ecall_from_machine>:
    4101025c:	03023283          	ld	x5,48(x4) # 30 <SECURE_ACCESS_PROBABILITY+0x12>
    41010260:	02023823          	sd	x0,48(x4) # 30 <SECURE_ACCESS_PROBABILITY+0x12>
    41010264:	07023303          	ld	x6,112(x4) # 70 <XLEN+0x30>
    41010268:	06023823          	sd	x0,112(x4) # 70 <XLEN+0x30>
    4101026c:	00031463          	bnez	x6,41010274 <trap_handler_s__skip_xepc_write>
    41010270:	14129073          	csrw	sepc,x5

0000000041010274 <trap_handler_s__skip_xepc_write>:
    41010274:	00000317          	auipc	x6,0x0
    41010278:	e0430313          	addi	x6,x6,-508 # 41010078 <trap_handler_s__trap_entry>
    4101027c:	10531073          	csrw	stvec,x6
    41010280:	14021273          	csrrw	x4,sscratch,x4
    41010284:	10200073          	sret

0000000041010288 <trap_handler_s__trap_panic>:
    41010288:	00000193          	li	x3,0
    4101028c:	00f00f9b          	addiw	x31,x0,15
    41010290:	01cf9f93          	slli	x31,x31,0x1c
    41010294:	002f8f93          	addi	x31,x31,2
    41010298:	00000073          	ecall

Disassembly of section .code:

00000000410140f0 <passed>:
    410140f0:	44db42b7          	lui	x5,0x44db4
    410140f4:	0182829b          	addiw	x5,x5,24 # 44db4018 <os_passed_addr>
    410140f8:	0002b303          	ld	x6,0(x5)
    410140fc:	00030067          	jr	x6

0000000041014100 <failed>:
    41014100:	44db42b7          	lui	x5,0x44db4
    41014104:	0202829b          	addiw	x5,x5,32 # 44db4020 <os_failed_addr>
    41014108:	0002b303          	ld	x6,0(x5)
    4101410c:	00030067          	jr	x6

0000000041014110 <end_test>:
    41014110:	44db42b7          	lui	x5,0x44db4
    41014114:	0282829b          	addiw	x5,x5,40 # 44db4028 <os_end_test_addr>
    41014118:	0002b303          	ld	x6,0(x5)
    4101411c:	00030067          	jr	x6

0000000041014120 <test_setup>:
    41014120:	44db42b7          	lui	x5,0x44db4
    41014124:	0182829b          	addiw	x5,x5,24 # 44db4018 <os_passed_addr>
    41014128:	0002b303          	ld	x6,0(x5)
    4101412c:	00030067          	jr	x6

0000000041014130 <SID_XCOUNTEREN_01_M>:
    41014130:	41216137          	lui	x2,0x41216
    41014134:	306023f3          	csrr	x7,mcounteren
    41014138:	00713023          	sd	x7,0(x2) # 41216000 <tp_csr_storage>
    4101413c:	106023f3          	csrr	x7,scounteren
    41014140:	00713423          	sd	x7,8(x2)
    41014144:	44dad137          	lui	x2,0x44dad
    41014148:	000012b7          	lui	x5,0x1
    4101414c:	00510133          	add	x2,x2,x5
    41014150:	ff017113          	andi	x2,x2,-16
    41014154:	0010039b          	addiw	x7,x0,1
    41014158:	02039393          	slli	x7,x7,0x20
    4101415c:	fff38393          	addi	x7,x7,-1
    41014160:	3063a4f3          	csrrs	x9,mcounteren,x7
    41014164:	0010051b          	addiw	x10,x0,1
    41014168:	02051513          	slli	x10,x10,0x20
    4101416c:	fff50513          	addi	x10,x10,-1
    41014170:	10652a73          	csrrs	x20,scounteren,x10
    41014174:	c0002773          	rdcycle	x14
    41014178:	c0102573          	rdtime	x10
    4101417c:	c0202573          	rdinstret	x10
    41014180:	c03023f3          	csrr	x7,hpmcounter3
    41014184:	c04029f3          	csrr	x19,hpmcounter4
    41014188:	c0502973          	csrr	x18,hpmcounter5
    4101418c:	c06024f3          	csrr	x9,hpmcounter6
    41014190:	c0702873          	csrr	x16,hpmcounter7
    41014194:	c0802773          	csrr	x14,hpmcounter8
    41014198:	c0902473          	csrr	x8,hpmcounter9
    4101419c:	c0a02573          	csrr	x10,hpmcounter10
    410141a0:	c0b024f3          	csrr	x9,hpmcounter11
    410141a4:	c0c028f3          	csrr	x17,hpmcounter12
    410141a8:	c0d02ef3          	csrr	x29,hpmcounter13
    410141ac:	c0e02773          	csrr	x14,hpmcounter14
    410141b0:	c0f02e73          	csrr	x28,hpmcounter15
    410141b4:	c1002e73          	csrr	x28,hpmcounter16
    410141b8:	c1102ef3          	csrr	x29,hpmcounter17
    410141bc:	c12029f3          	csrr	x19,hpmcounter18
    410141c0:	c1302df3          	csrr	x27,hpmcounter19
    410141c4:	c1402473          	csrr	x8,hpmcounter20
    410141c8:	c15023f3          	csrr	x7,hpmcounter21
    410141cc:	c1602573          	csrr	x10,hpmcounter22
    410141d0:	c1702c73          	csrr	x24,hpmcounter23
    410141d4:	c18025f3          	csrr	x11,hpmcounter24
    410141d8:	c1902373          	csrr	x6,hpmcounter25
    410141dc:	c1a02973          	csrr	x18,hpmcounter26
    410141e0:	c1b02773          	csrr	x14,hpmcounter27
    410141e4:	c1c02a73          	csrr	x20,hpmcounter28
    410141e8:	c1d028f3          	csrr	x17,hpmcounter29
    410141ec:	c1e02ef3          	csrr	x29,hpmcounter30
    410141f0:	c1f023f3          	csrr	x7,hpmcounter31
    410141f4:	41216137          	lui	x2,0x41216
    410141f8:	00013383          	ld	x7,0(x2) # 41216000 <tp_csr_storage>
    410141fc:	306393f3          	csrrw	x7,mcounteren,x7
    41014200:	00813383          	ld	x7,8(x2)
    41014204:	106393f3          	csrrw	x7,scounteren,x7

0000000041014208 <SID_XCOUNTEREN_01_M_passed>:
    41014208:	44db42b7          	lui	x5,0x44db4
    4101420c:	0182829b          	addiw	x5,x5,24 # 44db4018 <os_passed_addr>
    41014210:	0002b303          	ld	x6,0(x5)
    41014214:	00030067          	jr	x6

0000000041014218 <SID_XCOUNTEREN_02_M>:
    41014218:	41216137          	lui	x2,0x41216
    4101421c:	306023f3          	csrr	x7,mcounteren
    41014220:	00713023          	sd	x7,0(x2) # 41216000 <tp_csr_storage>
    41014224:	106023f3          	csrr	x7,scounteren
    41014228:	00713423          	sd	x7,8(x2)
    4101422c:	45002137          	lui	x2,0x45002
    41014230:	000012b7          	lui	x5,0x1
    41014234:	00510133          	add	x2,x2,x5
    41014238:	ff017113          	andi	x2,x2,-16
    4101423c:	0010059b          	addiw	x11,x0,1
    41014240:	02059593          	slli	x11,x11,0x20
    41014244:	fff58593          	addi	x11,x11,-1
    41014248:	3065ac73          	csrrs	x24,mcounteren,x11
    4101424c:	0010061b          	addiw	x12,x0,1
    41014250:	02061613          	slli	x12,x12,0x20
    41014254:	fff60613          	addi	x12,x12,-1
    41014258:	106637f3          	csrrc	x15,scounteren,x12
    4101425c:	c0002873          	rdcycle	x16
    41014260:	c0102373          	rdtime	x6
    41014264:	c0202773          	rdinstret	x14
    41014268:	c0302b73          	csrr	x22,hpmcounter3
    4101426c:	c04028f3          	csrr	x17,hpmcounter4
    41014270:	c05026f3          	csrr	x13,hpmcounter5
    41014274:	c06025f3          	csrr	x11,hpmcounter6
    41014278:	c0702c73          	csrr	x24,hpmcounter7
    4101427c:	c0802df3          	csrr	x27,hpmcounter8
    41014280:	c09027f3          	csrr	x15,hpmcounter9
    41014284:	c0a026f3          	csrr	x13,hpmcounter10
    41014288:	c0b02373          	csrr	x6,hpmcounter11
    4101428c:	c0c029f3          	csrr	x19,hpmcounter12
    41014290:	c0d02673          	csrr	x12,hpmcounter13
    41014294:	c0e02673          	csrr	x12,hpmcounter14
    41014298:	c0f02ff3          	csrr	x31,hpmcounter15
    4101429c:	c10029f3          	csrr	x19,hpmcounter16
    410142a0:	c11028f3          	csrr	x17,hpmcounter17
    410142a4:	c12029f3          	csrr	x19,hpmcounter18
    410142a8:	c1302ef3          	csrr	x29,hpmcounter19
    410142ac:	c1402ef3          	csrr	x29,hpmcounter20
    410142b0:	c15027f3          	csrr	x15,hpmcounter21
    410142b4:	c1602f73          	csrr	x30,hpmcounter22
    410142b8:	c1702873          	csrr	x16,hpmcounter23
    410142bc:	c1802c73          	csrr	x24,hpmcounter24
    410142c0:	c1902a73          	csrr	x20,hpmcounter25
    410142c4:	c1a02c73          	csrr	x24,hpmcounter26
    410142c8:	c1b025f3          	csrr	x11,hpmcounter27
    410142cc:	c1c02873          	csrr	x16,hpmcounter28
    410142d0:	c1d02c73          	csrr	x24,hpmcounter29
    410142d4:	c1e02373          	csrr	x6,hpmcounter30
    410142d8:	c1f02f73          	csrr	x30,hpmcounter31
    410142dc:	41216137          	lui	x2,0x41216
    410142e0:	00013383          	ld	x7,0(x2) # 41216000 <tp_csr_storage>
    410142e4:	306393f3          	csrrw	x7,mcounteren,x7
    410142e8:	00813383          	ld	x7,8(x2)
    410142ec:	106393f3          	csrrw	x7,scounteren,x7

00000000410142f0 <SID_XCOUNTEREN_02_M_passed>:
    410142f0:	44db42b7          	lui	x5,0x44db4
    410142f4:	0182829b          	addiw	x5,x5,24 # 44db4018 <os_passed_addr>
    410142f8:	0002b303          	ld	x6,0(x5)
    410142fc:	00030067          	jr	x6

0000000041014300 <SID_XCOUNTEREN_03_M>:
    41014300:	41216137          	lui	x2,0x41216
    41014304:	306023f3          	csrr	x7,mcounteren
    41014308:	00713023          	sd	x7,0(x2) # 41216000 <tp_csr_storage>
    4101430c:	106023f3          	csrr	x7,scounteren
    41014310:	00713423          	sd	x7,8(x2)
    41014314:	44dae137          	lui	x2,0x44dae
    41014318:	000012b7          	lui	x5,0x1
    4101431c:	00510133          	add	x2,x2,x5
    41014320:	ff017113          	andi	x2,x2,-16
    41014324:	00100b1b          	addiw	x22,x0,1
    41014328:	020b1b13          	slli	x22,x22,0x20
    4101432c:	fffb0b13          	addi	x22,x22,-1
    41014330:	306b36f3          	csrrc	x13,mcounteren,x22
    41014334:	00100b9b          	addiw	x23,x0,1
    41014338:	020b9b93          	slli	x23,x23,0x20
    4101433c:	fffb8b93          	addi	x23,x23,-1
    41014340:	106ba7f3          	csrrs	x15,scounteren,x23
    41014344:	c0002cf3          	rdcycle	x25
    41014348:	c0102df3          	rdtime	x27
    4101434c:	c0202e73          	rdinstret	x28
    41014350:	c0302e73          	csrr	x28,hpmcounter3
    41014354:	c04029f3          	csrr	x19,hpmcounter4
    41014358:	c05027f3          	csrr	x15,hpmcounter5
    4101435c:	c0602d73          	csrr	x26,hpmcounter6
    41014360:	c0702ef3          	csrr	x29,hpmcounter7
    41014364:	c0802a73          	csrr	x20,hpmcounter8
    41014368:	c0902cf3          	csrr	x25,hpmcounter9
    4101436c:	c0a02ef3          	csrr	x29,hpmcounter10
    41014370:	c0b02bf3          	csrr	x23,hpmcounter11
    41014374:	c0c02cf3          	csrr	x25,hpmcounter12
    41014378:	c0d02ff3          	csrr	x31,hpmcounter13
    4101437c:	c0e026f3          	csrr	x13,hpmcounter14
    41014380:	c0f02ef3          	csrr	x29,hpmcounter15
    41014384:	c1002773          	csrr	x14,hpmcounter16
    41014388:	c1102af3          	csrr	x21,hpmcounter17
    4101438c:	c12026f3          	csrr	x13,hpmcounter18
    41014390:	c13025f3          	csrr	x11,hpmcounter19
    41014394:	c1402cf3          	csrr	x25,hpmcounter20
    41014398:	c1502973          	csrr	x18,hpmcounter21
    4101439c:	c1602cf3          	csrr	x25,hpmcounter22
    410143a0:	c1702d73          	csrr	x26,hpmcounter23
    410143a4:	c1802f73          	csrr	x30,hpmcounter24
    410143a8:	c1902b73          	csrr	x22,hpmcounter25
    410143ac:	c1a02b73          	csrr	x22,hpmcounter26
    410143b0:	c1b02cf3          	csrr	x25,hpmcounter27
    410143b4:	c1c02ef3          	csrr	x29,hpmcounter28
    410143b8:	c1d02af3          	csrr	x21,hpmcounter29
    410143bc:	c1e02773          	csrr	x14,hpmcounter30
    410143c0:	c1f026f3          	csrr	x13,hpmcounter31
    410143c4:	41216137          	lui	x2,0x41216
    410143c8:	00013383          	ld	x7,0(x2) # 41216000 <tp_csr_storage>
    410143cc:	306393f3          	csrrw	x7,mcounteren,x7
    410143d0:	00813383          	ld	x7,8(x2)
    410143d4:	106393f3          	csrrw	x7,scounteren,x7

00000000410143d8 <SID_XCOUNTEREN_03_M_passed>:
    410143d8:	44db42b7          	lui	x5,0x44db4
    410143dc:	0182829b          	addiw	x5,x5,24 # 44db4018 <os_passed_addr>
    410143e0:	0002b303          	ld	x6,0(x5)
    410143e4:	00030067          	jr	x6

00000000410143e8 <SID_XCOUNTEREN_04_M>:
    410143e8:	41216137          	lui	x2,0x41216
    410143ec:	306023f3          	csrr	x7,mcounteren
    410143f0:	00713023          	sd	x7,0(x2) # 41216000 <tp_csr_storage>
    410143f4:	106023f3          	csrr	x7,scounteren
    410143f8:	00713423          	sd	x7,8(x2)
    410143fc:	44f56137          	lui	x2,0x44f56
    41014400:	000012b7          	lui	x5,0x1
    41014404:	00510133          	add	x2,x2,x5
    41014408:	ff017113          	andi	x2,x2,-16
    4101440c:	00100d1b          	addiw	x26,x0,1
    41014410:	020d1d13          	slli	x26,x26,0x20
    41014414:	fffd0d13          	addi	x26,x26,-1
    41014418:	306d3cf3          	csrrc	x25,mcounteren,x26
    4101441c:	00100c1b          	addiw	x24,x0,1
    41014420:	020c1c13          	slli	x24,x24,0x20
    41014424:	fffc0c13          	addi	x24,x24,-1
    41014428:	106c39f3          	csrrc	x19,scounteren,x24
    4101442c:	c00027f3          	rdcycle	x15
    41014430:	c0102c73          	rdtime	x24
    41014434:	c0202673          	rdinstret	x12
    41014438:	c0302df3          	csrr	x27,hpmcounter3
    4101443c:	c0402ef3          	csrr	x29,hpmcounter4
    41014440:	c0502a73          	csrr	x20,hpmcounter5
    41014444:	c0602c73          	csrr	x24,hpmcounter6
    41014448:	c07029f3          	csrr	x19,hpmcounter7
    4101444c:	c0802473          	csrr	x8,hpmcounter8
    41014450:	c0902473          	csrr	x8,hpmcounter9
    41014454:	c0a02af3          	csrr	x21,hpmcounter10
    41014458:	c0b029f3          	csrr	x19,hpmcounter11
    4101445c:	c0c02373          	csrr	x6,hpmcounter12
    41014460:	c0d02873          	csrr	x16,hpmcounter13
    41014464:	c0e029f3          	csrr	x19,hpmcounter14
    41014468:	c0f025f3          	csrr	x11,hpmcounter15
    4101446c:	c10024f3          	csrr	x9,hpmcounter16
    41014470:	c1102c73          	csrr	x24,hpmcounter17
    41014474:	c1202373          	csrr	x6,hpmcounter18
    41014478:	c1302573          	csrr	x10,hpmcounter19
    4101447c:	c1402f73          	csrr	x30,hpmcounter20
    41014480:	c1502873          	csrr	x16,hpmcounter21
    41014484:	c1602e73          	csrr	x28,hpmcounter22
    41014488:	c1702373          	csrr	x6,hpmcounter23
    4101448c:	c18028f3          	csrr	x17,hpmcounter24
    41014490:	c1902373          	csrr	x6,hpmcounter25
    41014494:	c1a029f3          	csrr	x19,hpmcounter26
    41014498:	c1b02b73          	csrr	x22,hpmcounter27
    4101449c:	c1c027f3          	csrr	x15,hpmcounter28
    410144a0:	c1d02cf3          	csrr	x25,hpmcounter29
    410144a4:	c1e02d73          	csrr	x26,hpmcounter30
    410144a8:	c1f026f3          	csrr	x13,hpmcounter31
    410144ac:	41216137          	lui	x2,0x41216
    410144b0:	00013383          	ld	x7,0(x2) # 41216000 <tp_csr_storage>
    410144b4:	306393f3          	csrrw	x7,mcounteren,x7
    410144b8:	00813383          	ld	x7,8(x2)
    410144bc:	106393f3          	csrrw	x7,scounteren,x7

00000000410144c0 <SID_XCOUNTEREN_04_M_passed>:
    410144c0:	44db42b7          	lui	x5,0x44db4
    410144c4:	0182829b          	addiw	x5,x5,24 # 44db4018 <os_passed_addr>
    410144c8:	0002b303          	ld	x6,0(x5)
    410144cc:	00030067          	jr	x6

00000000410144d0 <SID_XCOUNTEREN_05_M>:
    410144d0:	41216137          	lui	x2,0x41216
    410144d4:	306023f3          	csrr	x7,mcounteren
    410144d8:	00713023          	sd	x7,0(x2) # 41216000 <tp_csr_storage>
    410144dc:	44daf137          	lui	x2,0x44daf
    410144e0:	000012b7          	lui	x5,0x1
    410144e4:	00510133          	add	x2,x2,x5
    410144e8:	ff017113          	andi	x2,x2,-16
    410144ec:	106059f3          	csrrwi	x19,scounteren,0
    410144f0:	3060def3          	csrrwi	x29,mcounteren,1
    410144f4:	c00029f3          	rdcycle	x19
    410144f8:	c01023f3          	rdtime	x7
    410144fc:	c0202473          	rdinstret	x8
    41014500:	c0302a73          	csrr	x20,hpmcounter3
    41014504:	c0402af3          	csrr	x21,hpmcounter4
    41014508:	c05026f3          	csrr	x13,hpmcounter5
    4101450c:	c0602873          	csrr	x16,hpmcounter6
    41014510:	c0702473          	csrr	x8,hpmcounter7
    41014514:	c0802373          	csrr	x6,hpmcounter8
    41014518:	c09025f3          	csrr	x11,hpmcounter9
    4101451c:	c0a02773          	csrr	x14,hpmcounter10
    41014520:	c0b02673          	csrr	x12,hpmcounter11
    41014524:	c0c024f3          	csrr	x9,hpmcounter12
    41014528:	c0d027f3          	csrr	x15,hpmcounter13
    4101452c:	c0e02673          	csrr	x12,hpmcounter14
    41014530:	c0f02573          	csrr	x10,hpmcounter15
    41014534:	c1002ef3          	csrr	x29,hpmcounter16
    41014538:	c1102e73          	csrr	x28,hpmcounter17
    4101453c:	c1202c73          	csrr	x24,hpmcounter18
    41014540:	c1302d73          	csrr	x26,hpmcounter19
    41014544:	c1402e73          	csrr	x28,hpmcounter20
    41014548:	c1502df3          	csrr	x27,hpmcounter21
    4101454c:	c1602773          	csrr	x14,hpmcounter22
    41014550:	c1702d73          	csrr	x26,hpmcounter23
    41014554:	c18028f3          	csrr	x17,hpmcounter24
    41014558:	c1902473          	csrr	x8,hpmcounter25
    4101455c:	c1a02ef3          	csrr	x29,hpmcounter26
    41014560:	c1b02b73          	csrr	x22,hpmcounter27
    41014564:	c1c02b73          	csrr	x22,hpmcounter28
    41014568:	c1d02a73          	csrr	x20,hpmcounter29
    4101456c:	c1e02ff3          	csrr	x31,hpmcounter30
    41014570:	c1f02bf3          	csrr	x23,hpmcounter31
    41014574:	30615973          	csrrwi	x18,mcounteren,2
    41014578:	c0102673          	rdtime	x12
    4101457c:	c0002ef3          	rdcycle	x29
    41014580:	c0202a73          	rdinstret	x20
    41014584:	c0302673          	csrr	x12,hpmcounter3
    41014588:	c0402ef3          	csrr	x29,hpmcounter4
    4101458c:	c05023f3          	csrr	x7,hpmcounter5
    41014590:	c06027f3          	csrr	x15,hpmcounter6
    41014594:	c0702c73          	csrr	x24,hpmcounter7
    41014598:	c0802473          	csrr	x8,hpmcounter8
    4101459c:	c0902cf3          	csrr	x25,hpmcounter9
    410145a0:	c0a02e73          	csrr	x28,hpmcounter10
    410145a4:	c0b02ff3          	csrr	x31,hpmcounter11
    410145a8:	c0c02673          	csrr	x12,hpmcounter12
    410145ac:	c0d02ff3          	csrr	x31,hpmcounter13
    410145b0:	c0e027f3          	csrr	x15,hpmcounter14
    410145b4:	c0f02673          	csrr	x12,hpmcounter15
    410145b8:	c10029f3          	csrr	x19,hpmcounter16
    410145bc:	c1102df3          	csrr	x27,hpmcounter17
    410145c0:	c12029f3          	csrr	x19,hpmcounter18
    410145c4:	c1302bf3          	csrr	x23,hpmcounter19
    410145c8:	c1402e73          	csrr	x28,hpmcounter20
    410145cc:	c1502df3          	csrr	x27,hpmcounter21
    410145d0:	c1602373          	csrr	x6,hpmcounter22
    410145d4:	c1702c73          	csrr	x24,hpmcounter23
    410145d8:	c1802773          	csrr	x14,hpmcounter24
    410145dc:	c19026f3          	csrr	x13,hpmcounter25
    410145e0:	c1a02df3          	csrr	x27,hpmcounter26
    410145e4:	c1b02373          	csrr	x6,hpmcounter27
    410145e8:	c1c02a73          	csrr	x20,hpmcounter28
    410145ec:	c1d025f3          	csrr	x11,hpmcounter29
    410145f0:	c1e02f73          	csrr	x30,hpmcounter30
    410145f4:	c1f02673          	csrr	x12,hpmcounter31
    410145f8:	30625673          	csrrwi	x12,mcounteren,4
    410145fc:	c0202d73          	rdinstret	x26
    41014600:	c0002c73          	rdcycle	x24
    41014604:	c0102df3          	rdtime	x27
    41014608:	c0302c73          	csrr	x24,hpmcounter3
    4101460c:	c04027f3          	csrr	x15,hpmcounter4
    41014610:	c0502773          	csrr	x14,hpmcounter5
    41014614:	c0602373          	csrr	x6,hpmcounter6
    41014618:	c0702cf3          	csrr	x25,hpmcounter7
    4101461c:	c08028f3          	csrr	x17,hpmcounter8
    41014620:	c09029f3          	csrr	x19,hpmcounter9
    41014624:	c0a02473          	csrr	x8,hpmcounter10
    41014628:	c0b02ff3          	csrr	x31,hpmcounter11
    4101462c:	c0c02773          	csrr	x14,hpmcounter12
    41014630:	c0d02f73          	csrr	x30,hpmcounter13
    41014634:	c0e028f3          	csrr	x17,hpmcounter14
    41014638:	c0f02af3          	csrr	x21,hpmcounter15
    4101463c:	c1002773          	csrr	x14,hpmcounter16
    41014640:	c1102373          	csrr	x6,hpmcounter17
    41014644:	c1202973          	csrr	x18,hpmcounter18
    41014648:	c13028f3          	csrr	x17,hpmcounter19
    4101464c:	c14024f3          	csrr	x9,hpmcounter20
    41014650:	c1502a73          	csrr	x20,hpmcounter21
    41014654:	c1602573          	csrr	x10,hpmcounter22
    41014658:	c1702bf3          	csrr	x23,hpmcounter23
    4101465c:	c18026f3          	csrr	x13,hpmcounter24
    41014660:	c19025f3          	csrr	x11,hpmcounter25
    41014664:	c1a023f3          	csrr	x7,hpmcounter26
    41014668:	c1b02af3          	csrr	x21,hpmcounter27
    4101466c:	c1c02573          	csrr	x10,hpmcounter28
    41014670:	c1d02c73          	csrr	x24,hpmcounter29
    41014674:	c1e028f3          	csrr	x17,hpmcounter30
    41014678:	c1f02af3          	csrr	x21,hpmcounter31
    4101467c:	30645b73          	csrrwi	x22,mcounteren,8
    41014680:	c0302cf3          	csrr	x25,hpmcounter3
    41014684:	c00029f3          	rdcycle	x19
    41014688:	c0102af3          	rdtime	x21
    4101468c:	c0202a73          	rdinstret	x20
    41014690:	c0402e73          	csrr	x28,hpmcounter4
    41014694:	c0502f73          	csrr	x30,hpmcounter5
    41014698:	c0602673          	csrr	x12,hpmcounter6
    4101469c:	c0702b73          	csrr	x22,hpmcounter7
    410146a0:	c0802773          	csrr	x14,hpmcounter8
    410146a4:	c0902af3          	csrr	x21,hpmcounter9
    410146a8:	c0a02af3          	csrr	x21,hpmcounter10
    410146ac:	c0b02af3          	csrr	x21,hpmcounter11
    410146b0:	c0c02a73          	csrr	x20,hpmcounter12
    410146b4:	c0d02b73          	csrr	x22,hpmcounter13
    410146b8:	c0e026f3          	csrr	x13,hpmcounter14
    410146bc:	c0f02973          	csrr	x18,hpmcounter15
    410146c0:	c1002af3          	csrr	x21,hpmcounter16
    410146c4:	c1102c73          	csrr	x24,hpmcounter17
    410146c8:	c12024f3          	csrr	x9,hpmcounter18
    410146cc:	c1302f73          	csrr	x30,hpmcounter19
    410146d0:	c14024f3          	csrr	x9,hpmcounter20
    410146d4:	c1502873          	csrr	x16,hpmcounter21
    410146d8:	c1602473          	csrr	x8,hpmcounter22
    410146dc:	c1702d73          	csrr	x26,hpmcounter23
    410146e0:	c1802e73          	csrr	x28,hpmcounter24
    410146e4:	c1902773          	csrr	x14,hpmcounter25
    410146e8:	c1a02bf3          	csrr	x23,hpmcounter26
    410146ec:	c1b02ff3          	csrr	x31,hpmcounter27
    410146f0:	c1c02c73          	csrr	x24,hpmcounter28
    410146f4:	c1d02bf3          	csrr	x23,hpmcounter29
    410146f8:	c1e027f3          	csrr	x15,hpmcounter30
    410146fc:	c1f02cf3          	csrr	x25,hpmcounter31
    41014700:	306855f3          	csrrwi	x11,mcounteren,16
    41014704:	c04023f3          	csrr	x7,hpmcounter4
    41014708:	c0002ef3          	rdcycle	x29
    4101470c:	c0102673          	rdtime	x12
    41014710:	c0202ef3          	rdinstret	x29
    41014714:	c03026f3          	csrr	x13,hpmcounter3
    41014718:	c05028f3          	csrr	x17,hpmcounter5
    4101471c:	c0602973          	csrr	x18,hpmcounter6
    41014720:	c0702df3          	csrr	x27,hpmcounter7
    41014724:	c08027f3          	csrr	x15,hpmcounter8
    41014728:	c09026f3          	csrr	x13,hpmcounter9
    4101472c:	c0a02c73          	csrr	x24,hpmcounter10
    41014730:	c0b02bf3          	csrr	x23,hpmcounter11
    41014734:	c0c02473          	csrr	x8,hpmcounter12
    41014738:	c0d02ef3          	csrr	x29,hpmcounter13
    4101473c:	c0e027f3          	csrr	x15,hpmcounter14
    41014740:	c0f02ff3          	csrr	x31,hpmcounter15
    41014744:	c1002f73          	csrr	x30,hpmcounter16
    41014748:	c1102473          	csrr	x8,hpmcounter17
    4101474c:	c1202f73          	csrr	x30,hpmcounter18
    41014750:	c13024f3          	csrr	x9,hpmcounter19
    41014754:	c1402473          	csrr	x8,hpmcounter20
    41014758:	c1502473          	csrr	x8,hpmcounter21
    4101475c:	c1602673          	csrr	x12,hpmcounter22
    41014760:	c17028f3          	csrr	x17,hpmcounter23
    41014764:	c1802c73          	csrr	x24,hpmcounter24
    41014768:	c1902373          	csrr	x6,hpmcounter25
    4101476c:	c1a02ff3          	csrr	x31,hpmcounter26
    41014770:	c1b02f73          	csrr	x30,hpmcounter27
    41014774:	c1c029f3          	csrr	x19,hpmcounter28
    41014778:	c1d026f3          	csrr	x13,hpmcounter29
    4101477c:	c1e024f3          	csrr	x9,hpmcounter30
    41014780:	c1f028f3          	csrr	x17,hpmcounter31
    41014784:	02000d13          	li	x26,32
    41014788:	306d1af3          	csrrw	x21,mcounteren,x26
    4101478c:	c05026f3          	csrr	x13,hpmcounter5
    41014790:	c00026f3          	rdcycle	x13
    41014794:	c0102673          	rdtime	x12
    41014798:	c0202bf3          	rdinstret	x23
    4101479c:	c0302573          	csrr	x10,hpmcounter3
    410147a0:	c0402f73          	csrr	x30,hpmcounter4
    410147a4:	c0602e73          	csrr	x28,hpmcounter6
    410147a8:	c0702af3          	csrr	x21,hpmcounter7
    410147ac:	c0802473          	csrr	x8,hpmcounter8
    410147b0:	c0902ef3          	csrr	x29,hpmcounter9
    410147b4:	c0a02e73          	csrr	x28,hpmcounter10
    410147b8:	c0b02373          	csrr	x6,hpmcounter11
    410147bc:	c0c027f3          	csrr	x15,hpmcounter12
    410147c0:	c0d02a73          	csrr	x20,hpmcounter13
    410147c4:	c0e02ef3          	csrr	x29,hpmcounter14
    410147c8:	c0f02d73          	csrr	x26,hpmcounter15
    410147cc:	c1002cf3          	csrr	x25,hpmcounter16
    410147d0:	c11025f3          	csrr	x11,hpmcounter17
    410147d4:	c12024f3          	csrr	x9,hpmcounter18
    410147d8:	c1302c73          	csrr	x24,hpmcounter19
    410147dc:	c14024f3          	csrr	x9,hpmcounter20
    410147e0:	c1502d73          	csrr	x26,hpmcounter21
    410147e4:	c1602b73          	csrr	x22,hpmcounter22
    410147e8:	c1702b73          	csrr	x22,hpmcounter23
    410147ec:	c1802473          	csrr	x8,hpmcounter24
    410147f0:	c1902773          	csrr	x14,hpmcounter25
    410147f4:	c1a02e73          	csrr	x28,hpmcounter26
    410147f8:	c1b024f3          	csrr	x9,hpmcounter27
    410147fc:	c1c02a73          	csrr	x20,hpmcounter28
    41014800:	c1d027f3          	csrr	x15,hpmcounter29
    41014804:	c1e028f3          	csrr	x17,hpmcounter30
    41014808:	c1f02b73          	csrr	x22,hpmcounter31
    4101480c:	04000713          	li	x14,64
    41014810:	30671973          	csrrw	x18,mcounteren,x14
    41014814:	c0602873          	csrr	x16,hpmcounter6
    41014818:	c0002af3          	rdcycle	x21
    4101481c:	c01023f3          	rdtime	x7
    41014820:	c02025f3          	rdinstret	x11
    41014824:	c0302ef3          	csrr	x29,hpmcounter3
    41014828:	c04023f3          	csrr	x7,hpmcounter4
    4101482c:	c05029f3          	csrr	x19,hpmcounter5
    41014830:	c0702373          	csrr	x6,hpmcounter7
    41014834:	c08029f3          	csrr	x19,hpmcounter8
    41014838:	c09028f3          	csrr	x17,hpmcounter9
    4101483c:	c0a02f73          	csrr	x30,hpmcounter10
    41014840:	c0b02673          	csrr	x12,hpmcounter11
    41014844:	c0c025f3          	csrr	x11,hpmcounter12
    41014848:	c0d02a73          	csrr	x20,hpmcounter13
    4101484c:	c0e02b73          	csrr	x22,hpmcounter14
    41014850:	c0f02673          	csrr	x12,hpmcounter15
    41014854:	c1002873          	csrr	x16,hpmcounter16
    41014858:	c1102573          	csrr	x10,hpmcounter17
    4101485c:	c1202873          	csrr	x16,hpmcounter18
    41014860:	c1302773          	csrr	x14,hpmcounter19
    41014864:	c1402af3          	csrr	x21,hpmcounter20
    41014868:	c1502bf3          	csrr	x23,hpmcounter21
    4101486c:	c16024f3          	csrr	x9,hpmcounter22
    41014870:	c1702cf3          	csrr	x25,hpmcounter23
    41014874:	c1802c73          	csrr	x24,hpmcounter24
    41014878:	c19026f3          	csrr	x13,hpmcounter25
    4101487c:	c1a02773          	csrr	x14,hpmcounter26
    41014880:	c1b029f3          	csrr	x19,hpmcounter27
    41014884:	c1c024f3          	csrr	x9,hpmcounter28
    41014888:	c1d025f3          	csrr	x11,hpmcounter29
    4101488c:	c1e02973          	csrr	x18,hpmcounter30
    41014890:	c1f029f3          	csrr	x19,hpmcounter31
    41014894:	08000413          	li	x8,128
    41014898:	30641df3          	csrrw	x27,mcounteren,x8
    4101489c:	c0702773          	csrr	x14,hpmcounter7
    410148a0:	c0002973          	rdcycle	x18
    410148a4:	c0102bf3          	rdtime	x23
    410148a8:	c0202973          	rdinstret	x18
    410148ac:	c0302d73          	csrr	x26,hpmcounter3
    410148b0:	c0402bf3          	csrr	x23,hpmcounter4
    410148b4:	c0502773          	csrr	x14,hpmcounter5
    410148b8:	c0602c73          	csrr	x24,hpmcounter6
    410148bc:	c0802b73          	csrr	x22,hpmcounter8
    410148c0:	c0902873          	csrr	x16,hpmcounter9
    410148c4:	c0a024f3          	csrr	x9,hpmcounter10
    410148c8:	c0b023f3          	csrr	x7,hpmcounter11
    410148cc:	c0c023f3          	csrr	x7,hpmcounter12
    410148d0:	c0d02cf3          	csrr	x25,hpmcounter13
    410148d4:	c0e02673          	csrr	x12,hpmcounter14
    410148d8:	c0f02973          	csrr	x18,hpmcounter15
    410148dc:	c1002bf3          	csrr	x23,hpmcounter16
    410148e0:	c1102d73          	csrr	x26,hpmcounter17
    410148e4:	c1202973          	csrr	x18,hpmcounter18
    410148e8:	c1302bf3          	csrr	x23,hpmcounter19
    410148ec:	c1402bf3          	csrr	x23,hpmcounter20
    410148f0:	c1502473          	csrr	x8,hpmcounter21
    410148f4:	c1602c73          	csrr	x24,hpmcounter22
    410148f8:	c1702d73          	csrr	x26,hpmcounter23
    410148fc:	c1802af3          	csrr	x21,hpmcounter24
    41014900:	c1902df3          	csrr	x27,hpmcounter25
    41014904:	c1a02a73          	csrr	x20,hpmcounter26
    41014908:	c1b028f3          	csrr	x17,hpmcounter27
    4101490c:	c1c02cf3          	csrr	x25,hpmcounter28
    41014910:	c1d02c73          	csrr	x24,hpmcounter29
    41014914:	c1e025f3          	csrr	x11,hpmcounter30
    41014918:	c1f02473          	csrr	x8,hpmcounter31
    4101491c:	10000393          	li	x7,256
    41014920:	30639c73          	csrrw	x24,mcounteren,x7
    41014924:	c0802cf3          	csrr	x25,hpmcounter8
    41014928:	c0002473          	rdcycle	x8
    4101492c:	c01027f3          	rdtime	x15
    41014930:	c0202a73          	rdinstret	x20
    41014934:	c0302473          	csrr	x8,hpmcounter3
    41014938:	c04028f3          	csrr	x17,hpmcounter4
    4101493c:	c0502373          	csrr	x6,hpmcounter5
    41014940:	c0602ef3          	csrr	x29,hpmcounter6
    41014944:	c0702973          	csrr	x18,hpmcounter7
    41014948:	c09029f3          	csrr	x19,hpmcounter9
    4101494c:	c0a02cf3          	csrr	x25,hpmcounter10
    41014950:	c0b026f3          	csrr	x13,hpmcounter11
    41014954:	c0c026f3          	csrr	x13,hpmcounter12
    41014958:	c0d025f3          	csrr	x11,hpmcounter13
    4101495c:	c0e02f73          	csrr	x30,hpmcounter14
    41014960:	c0f02f73          	csrr	x30,hpmcounter15
    41014964:	c1002573          	csrr	x10,hpmcounter16
    41014968:	c1102cf3          	csrr	x25,hpmcounter17
    4101496c:	c1202cf3          	csrr	x25,hpmcounter18
    41014970:	c13029f3          	csrr	x19,hpmcounter19
    41014974:	c1402e73          	csrr	x28,hpmcounter20
    41014978:	c15024f3          	csrr	x9,hpmcounter21
    4101497c:	c16023f3          	csrr	x7,hpmcounter22
    41014980:	c1702473          	csrr	x8,hpmcounter23
    41014984:	c1802af3          	csrr	x21,hpmcounter24
    41014988:	c19024f3          	csrr	x9,hpmcounter25
    4101498c:	c1a02e73          	csrr	x28,hpmcounter26
    41014990:	c1b023f3          	csrr	x7,hpmcounter27
    41014994:	c1c02a73          	csrr	x20,hpmcounter28
    41014998:	c1d026f3          	csrr	x13,hpmcounter29
    4101499c:	c1e02bf3          	csrr	x23,hpmcounter30
    410149a0:	c1f02cf3          	csrr	x25,hpmcounter31
    410149a4:	20000893          	li	x17,512
    410149a8:	30689873          	csrrw	x16,mcounteren,x17
    410149ac:	c0902d73          	csrr	x26,hpmcounter9
    410149b0:	c0002e73          	rdcycle	x28
    410149b4:	c0102d73          	rdtime	x26
    410149b8:	c02029f3          	rdinstret	x19
    410149bc:	c0302673          	csrr	x12,hpmcounter3
    410149c0:	c0402f73          	csrr	x30,hpmcounter4
    410149c4:	c05026f3          	csrr	x13,hpmcounter5
    410149c8:	c0602ef3          	csrr	x29,hpmcounter6
    410149cc:	c0702673          	csrr	x12,hpmcounter7
    410149d0:	c0802cf3          	csrr	x25,hpmcounter8
    410149d4:	c0a025f3          	csrr	x11,hpmcounter10
    410149d8:	c0b027f3          	csrr	x15,hpmcounter11
    410149dc:	c0c02373          	csrr	x6,hpmcounter12
    410149e0:	c0d02873          	csrr	x16,hpmcounter13
    410149e4:	c0e025f3          	csrr	x11,hpmcounter14
    410149e8:	c0f02473          	csrr	x8,hpmcounter15
    410149ec:	c10028f3          	csrr	x17,hpmcounter16
    410149f0:	c1102bf3          	csrr	x23,hpmcounter17
    410149f4:	c1202bf3          	csrr	x23,hpmcounter18
    410149f8:	c13028f3          	csrr	x17,hpmcounter19
    410149fc:	c1402cf3          	csrr	x25,hpmcounter20
    41014a00:	c1502bf3          	csrr	x23,hpmcounter21
    41014a04:	c1602c73          	csrr	x24,hpmcounter22
    41014a08:	c17026f3          	csrr	x13,hpmcounter23
    41014a0c:	c1802ef3          	csrr	x29,hpmcounter24
    41014a10:	c1902c73          	csrr	x24,hpmcounter25
    41014a14:	c1a02ff3          	csrr	x31,hpmcounter26
    41014a18:	c1b02ff3          	csrr	x31,hpmcounter27
    41014a1c:	c1c028f3          	csrr	x17,hpmcounter28
    41014a20:	c1d02f73          	csrr	x30,hpmcounter29
    41014a24:	c1e02ff3          	csrr	x31,hpmcounter30
    41014a28:	c1f02af3          	csrr	x21,hpmcounter31
    41014a2c:	40000793          	li	x15,1024
    41014a30:	30679cf3          	csrrw	x25,mcounteren,x15
    41014a34:	c0a02b73          	csrr	x22,hpmcounter10
    41014a38:	c0002bf3          	rdcycle	x23
    41014a3c:	c0102d73          	rdtime	x26
    41014a40:	c02025f3          	rdinstret	x11
    41014a44:	c03029f3          	csrr	x19,hpmcounter3
    41014a48:	c0402bf3          	csrr	x23,hpmcounter4
    41014a4c:	c05025f3          	csrr	x11,hpmcounter5
    41014a50:	c0602ef3          	csrr	x29,hpmcounter6
    41014a54:	c07029f3          	csrr	x19,hpmcounter7
    41014a58:	c0802b73          	csrr	x22,hpmcounter8
    41014a5c:	c0902f73          	csrr	x30,hpmcounter9
    41014a60:	c0b02473          	csrr	x8,hpmcounter11
    41014a64:	c0c02cf3          	csrr	x25,hpmcounter12
    41014a68:	c0d02873          	csrr	x16,hpmcounter13
    41014a6c:	c0e02f73          	csrr	x30,hpmcounter14
    41014a70:	c0f02cf3          	csrr	x25,hpmcounter15
    41014a74:	c1002b73          	csrr	x22,hpmcounter16
    41014a78:	c1102973          	csrr	x18,hpmcounter17
    41014a7c:	c1202b73          	csrr	x22,hpmcounter18
    41014a80:	c1302cf3          	csrr	x25,hpmcounter19
    41014a84:	c1402673          	csrr	x12,hpmcounter20
    41014a88:	c1502ef3          	csrr	x29,hpmcounter21
    41014a8c:	c1602873          	csrr	x16,hpmcounter22
    41014a90:	c1702e73          	csrr	x28,hpmcounter23
    41014a94:	c18027f3          	csrr	x15,hpmcounter24
    41014a98:	c1902673          	csrr	x12,hpmcounter25
    41014a9c:	c1a02d73          	csrr	x26,hpmcounter26
    41014aa0:	c1b02ef3          	csrr	x29,hpmcounter27
    41014aa4:	c1c02773          	csrr	x14,hpmcounter28
    41014aa8:	c1d02af3          	csrr	x21,hpmcounter29
    41014aac:	c1e02f73          	csrr	x30,hpmcounter30
    41014ab0:	c1f02cf3          	csrr	x25,hpmcounter31
    41014ab4:	00001737          	lui	x14,0x1
    41014ab8:	8007071b          	addiw	x14,x14,-2048 # 800 <XLEN+0x7c0>
    41014abc:	30671973          	csrrw	x18,mcounteren,x14
    41014ac0:	c0b02ef3          	csrr	x29,hpmcounter11
    41014ac4:	c0002373          	rdcycle	x6
    41014ac8:	c01023f3          	rdtime	x7
    41014acc:	c0202df3          	rdinstret	x27
    41014ad0:	c0302873          	csrr	x16,hpmcounter3
    41014ad4:	c0402ff3          	csrr	x31,hpmcounter4
    41014ad8:	c0502df3          	csrr	x27,hpmcounter5
    41014adc:	c0602773          	csrr	x14,hpmcounter6
    41014ae0:	c0702ef3          	csrr	x29,hpmcounter7
    41014ae4:	c08027f3          	csrr	x15,hpmcounter8
    41014ae8:	c0902bf3          	csrr	x23,hpmcounter9
    41014aec:	c0a026f3          	csrr	x13,hpmcounter10
    41014af0:	c0c02af3          	csrr	x21,hpmcounter12
    41014af4:	c0d02873          	csrr	x16,hpmcounter13
    41014af8:	c0e02af3          	csrr	x21,hpmcounter14
    41014afc:	c0f02af3          	csrr	x21,hpmcounter15
    41014b00:	c10029f3          	csrr	x19,hpmcounter16
    41014b04:	c1102e73          	csrr	x28,hpmcounter17
    41014b08:	c1202af3          	csrr	x21,hpmcounter18
    41014b0c:	c1302ef3          	csrr	x29,hpmcounter19
    41014b10:	c14027f3          	csrr	x15,hpmcounter20
    41014b14:	c1502473          	csrr	x8,hpmcounter21
    41014b18:	c1602df3          	csrr	x27,hpmcounter22
    41014b1c:	c1702df3          	csrr	x27,hpmcounter23
    41014b20:	c18029f3          	csrr	x19,hpmcounter24
    41014b24:	c19028f3          	csrr	x17,hpmcounter25
    41014b28:	c1a02573          	csrr	x10,hpmcounter26
    41014b2c:	c1b02ef3          	csrr	x29,hpmcounter27
    41014b30:	c1c02df3          	csrr	x27,hpmcounter28
    41014b34:	c1d02773          	csrr	x14,hpmcounter29
    41014b38:	c1e02873          	csrr	x16,hpmcounter30
    41014b3c:	c1f02cf3          	csrr	x25,hpmcounter31
    41014b40:	000017b7          	lui	x15,0x1
    41014b44:	306798f3          	csrrw	x17,mcounteren,x15
    41014b48:	c0c02673          	csrr	x12,hpmcounter12
    41014b4c:	c0002af3          	rdcycle	x21
    41014b50:	c01027f3          	rdtime	x15
    41014b54:	c0202f73          	rdinstret	x30
    41014b58:	c03027f3          	csrr	x15,hpmcounter3
    41014b5c:	c0402c73          	csrr	x24,hpmcounter4
    41014b60:	c0502e73          	csrr	x28,hpmcounter5
    41014b64:	c06024f3          	csrr	x9,hpmcounter6
    41014b68:	c0702773          	csrr	x14,hpmcounter7
    41014b6c:	c08028f3          	csrr	x17,hpmcounter8
    41014b70:	c0902c73          	csrr	x24,hpmcounter9
    41014b74:	c0a02e73          	csrr	x28,hpmcounter10
    41014b78:	c0b02b73          	csrr	x22,hpmcounter11
    41014b7c:	c0d02e73          	csrr	x28,hpmcounter13
    41014b80:	c0e02f73          	csrr	x30,hpmcounter14
    41014b84:	c0f02cf3          	csrr	x25,hpmcounter15
    41014b88:	c1002c73          	csrr	x24,hpmcounter16
    41014b8c:	c11029f3          	csrr	x19,hpmcounter17
    41014b90:	c1202673          	csrr	x12,hpmcounter18
    41014b94:	c13026f3          	csrr	x13,hpmcounter19
    41014b98:	c1402773          	csrr	x14,hpmcounter20
    41014b9c:	c15027f3          	csrr	x15,hpmcounter21
    41014ba0:	c1602a73          	csrr	x20,hpmcounter22
    41014ba4:	c1702973          	csrr	x18,hpmcounter23
    41014ba8:	c18029f3          	csrr	x19,hpmcounter24
    41014bac:	c1902973          	csrr	x18,hpmcounter25
    41014bb0:	c1a02af3          	csrr	x21,hpmcounter26
    41014bb4:	c1b02bf3          	csrr	x23,hpmcounter27
    41014bb8:	c1c02af3          	csrr	x21,hpmcounter28
    41014bbc:	c1d02bf3          	csrr	x23,hpmcounter29
    41014bc0:	c1e02bf3          	csrr	x23,hpmcounter30
    41014bc4:	c1f02b73          	csrr	x22,hpmcounter31
    41014bc8:	00002db7          	lui	x27,0x2
    41014bcc:	306d9973          	csrrw	x18,mcounteren,x27
    41014bd0:	c0d029f3          	csrr	x19,hpmcounter13
    41014bd4:	c00029f3          	rdcycle	x19
    41014bd8:	c0102df3          	rdtime	x27
    41014bdc:	c0202ff3          	rdinstret	x31
    41014be0:	c0302d73          	csrr	x26,hpmcounter3
    41014be4:	c0402ef3          	csrr	x29,hpmcounter4
    41014be8:	c05027f3          	csrr	x15,hpmcounter5
    41014bec:	c0602673          	csrr	x12,hpmcounter6
    41014bf0:	c0702a73          	csrr	x20,hpmcounter7
    41014bf4:	c0802d73          	csrr	x26,hpmcounter8
    41014bf8:	c0902f73          	csrr	x30,hpmcounter9
    41014bfc:	c0a02573          	csrr	x10,hpmcounter10
    41014c00:	c0b025f3          	csrr	x11,hpmcounter11
    41014c04:	c0c026f3          	csrr	x13,hpmcounter12
    41014c08:	c0e02ef3          	csrr	x29,hpmcounter14
    41014c0c:	c0f029f3          	csrr	x19,hpmcounter15
    41014c10:	c1002373          	csrr	x6,hpmcounter16
    41014c14:	c1102b73          	csrr	x22,hpmcounter17
    41014c18:	c1202473          	csrr	x8,hpmcounter18
    41014c1c:	c1302f73          	csrr	x30,hpmcounter19
    41014c20:	c1402ff3          	csrr	x31,hpmcounter20
    41014c24:	c15026f3          	csrr	x13,hpmcounter21
    41014c28:	c1602a73          	csrr	x20,hpmcounter22
    41014c2c:	c1702c73          	csrr	x24,hpmcounter23
    41014c30:	c1802f73          	csrr	x30,hpmcounter24
    41014c34:	c1902973          	csrr	x18,hpmcounter25
    41014c38:	c1a02ef3          	csrr	x29,hpmcounter26
    41014c3c:	c1b026f3          	csrr	x13,hpmcounter27
    41014c40:	c1c02e73          	csrr	x28,hpmcounter28
    41014c44:	c1d02373          	csrr	x6,hpmcounter29
    41014c48:	c1e02ef3          	csrr	x29,hpmcounter30
    41014c4c:	c1f02ff3          	csrr	x31,hpmcounter31
    41014c50:	00004e37          	lui	x28,0x4
    41014c54:	306e17f3          	csrrw	x15,mcounteren,x28
    41014c58:	c0e024f3          	csrr	x9,hpmcounter14
    41014c5c:	c0002673          	rdcycle	x12
    41014c60:	c01025f3          	rdtime	x11
    41014c64:	c0202573          	rdinstret	x10
    41014c68:	c0302b73          	csrr	x22,hpmcounter3
    41014c6c:	c04027f3          	csrr	x15,hpmcounter4
    41014c70:	c05027f3          	csrr	x15,hpmcounter5
    41014c74:	c06029f3          	csrr	x19,hpmcounter6
    41014c78:	c0702673          	csrr	x12,hpmcounter7
    41014c7c:	c08025f3          	csrr	x11,hpmcounter8
    41014c80:	c0902f73          	csrr	x30,hpmcounter9
    41014c84:	c0a02ff3          	csrr	x31,hpmcounter10
    41014c88:	c0b028f3          	csrr	x17,hpmcounter11
    41014c8c:	c0c024f3          	csrr	x9,hpmcounter12
    41014c90:	c0d02673          	csrr	x12,hpmcounter13
    41014c94:	c0f02df3          	csrr	x27,hpmcounter15
    41014c98:	c1002373          	csrr	x6,hpmcounter16
    41014c9c:	c1102f73          	csrr	x30,hpmcounter17
    41014ca0:	c12027f3          	csrr	x15,hpmcounter18
    41014ca4:	c1302af3          	csrr	x21,hpmcounter19
    41014ca8:	c1402af3          	csrr	x21,hpmcounter20
    41014cac:	c15025f3          	csrr	x11,hpmcounter21
    41014cb0:	c1602df3          	csrr	x27,hpmcounter22
    41014cb4:	c1702cf3          	csrr	x25,hpmcounter23
    41014cb8:	c18026f3          	csrr	x13,hpmcounter24
    41014cbc:	c1902873          	csrr	x16,hpmcounter25
    41014cc0:	c1a02973          	csrr	x18,hpmcounter26
    41014cc4:	c1b024f3          	csrr	x9,hpmcounter27
    41014cc8:	c1c027f3          	csrr	x15,hpmcounter28
    41014ccc:	c1d02ef3          	csrr	x29,hpmcounter29
    41014cd0:	c1e02af3          	csrr	x21,hpmcounter30
    41014cd4:	c1f02573          	csrr	x10,hpmcounter31
    41014cd8:	00008737          	lui	x14,0x8
    41014cdc:	30671473          	csrrw	x8,mcounteren,x14
    41014ce0:	c0f02a73          	csrr	x20,hpmcounter15
    41014ce4:	c0002af3          	rdcycle	x21
    41014ce8:	c0102af3          	rdtime	x21
    41014cec:	c02025f3          	rdinstret	x11
    41014cf0:	c0302f73          	csrr	x30,hpmcounter3
    41014cf4:	c04029f3          	csrr	x19,hpmcounter4
    41014cf8:	c0502df3          	csrr	x27,hpmcounter5
    41014cfc:	c06026f3          	csrr	x13,hpmcounter6
    41014d00:	c0702d73          	csrr	x26,hpmcounter7
    41014d04:	c0802873          	csrr	x16,hpmcounter8
    41014d08:	c0902573          	csrr	x10,hpmcounter9
    41014d0c:	c0a024f3          	csrr	x9,hpmcounter10
    41014d10:	c0b02ff3          	csrr	x31,hpmcounter11
    41014d14:	c0c02af3          	csrr	x21,hpmcounter12
    41014d18:	c0d02a73          	csrr	x20,hpmcounter13
    41014d1c:	c0e02973          	csrr	x18,hpmcounter14
    41014d20:	c1002f73          	csrr	x30,hpmcounter16
    41014d24:	c1102b73          	csrr	x22,hpmcounter17
    41014d28:	c1202a73          	csrr	x20,hpmcounter18
    41014d2c:	c1302df3          	csrr	x27,hpmcounter19
    41014d30:	c1402af3          	csrr	x21,hpmcounter20
    41014d34:	c1502373          	csrr	x6,hpmcounter21
    41014d38:	c1602ef3          	csrr	x29,hpmcounter22
    41014d3c:	c17025f3          	csrr	x11,hpmcounter23
    41014d40:	c1802673          	csrr	x12,hpmcounter24
    41014d44:	c1902e73          	csrr	x28,hpmcounter25
    41014d48:	c1a02473          	csrr	x8,hpmcounter26
    41014d4c:	c1b02f73          	csrr	x30,hpmcounter27
    41014d50:	c1c02773          	csrr	x14,hpmcounter28
    41014d54:	c1d02f73          	csrr	x30,hpmcounter29
    41014d58:	c1e02673          	csrr	x12,hpmcounter30
    41014d5c:	c1f024f3          	csrr	x9,hpmcounter31
    41014d60:	000107b7          	lui	x15,0x10
    41014d64:	30679973          	csrrw	x18,mcounteren,x15
    41014d68:	c1002cf3          	csrr	x25,hpmcounter16
    41014d6c:	c0002cf3          	rdcycle	x25
    41014d70:	c01029f3          	rdtime	x19
    41014d74:	c0202573          	rdinstret	x10
    41014d78:	c0302b73          	csrr	x22,hpmcounter3
    41014d7c:	c0402b73          	csrr	x22,hpmcounter4
    41014d80:	c0502f73          	csrr	x30,hpmcounter5
    41014d84:	c0602973          	csrr	x18,hpmcounter6
    41014d88:	c0702ef3          	csrr	x29,hpmcounter7
    41014d8c:	c08025f3          	csrr	x11,hpmcounter8
    41014d90:	c09025f3          	csrr	x11,hpmcounter9
    41014d94:	c0a02973          	csrr	x18,hpmcounter10
    41014d98:	c0b02af3          	csrr	x21,hpmcounter11
    41014d9c:	c0c02a73          	csrr	x20,hpmcounter12
    41014da0:	c0d02973          	csrr	x18,hpmcounter13
    41014da4:	c0e02b73          	csrr	x22,hpmcounter14
    41014da8:	c0f02cf3          	csrr	x25,hpmcounter15
    41014dac:	c1102f73          	csrr	x30,hpmcounter17
    41014db0:	c1202973          	csrr	x18,hpmcounter18
    41014db4:	c1302cf3          	csrr	x25,hpmcounter19
    41014db8:	c1402e73          	csrr	x28,hpmcounter20
    41014dbc:	c1502973          	csrr	x18,hpmcounter21
    41014dc0:	c1602673          	csrr	x12,hpmcounter22
    41014dc4:	c1702973          	csrr	x18,hpmcounter23
    41014dc8:	c1802cf3          	csrr	x25,hpmcounter24
    41014dcc:	c1902e73          	csrr	x28,hpmcounter25
    41014dd0:	c1a02b73          	csrr	x22,hpmcounter26
    41014dd4:	c1b02e73          	csrr	x28,hpmcounter27
    41014dd8:	c1c02973          	csrr	x18,hpmcounter28
    41014ddc:	c1d02373          	csrr	x6,hpmcounter29
    41014de0:	c1e02af3          	csrr	x21,hpmcounter30
    41014de4:	c1f02673          	csrr	x12,hpmcounter31
    41014de8:	00020b37          	lui	x22,0x20
    41014dec:	306b1973          	csrrw	x18,mcounteren,x22
    41014df0:	c1102c73          	csrr	x24,hpmcounter17
    41014df4:	c00027f3          	rdcycle	x15
    41014df8:	c0102773          	rdtime	x14
    41014dfc:	c0202ef3          	rdinstret	x29
    41014e00:	c0302cf3          	csrr	x25,hpmcounter3
    41014e04:	c0402873          	csrr	x16,hpmcounter4
    41014e08:	c05024f3          	csrr	x9,hpmcounter5
    41014e0c:	c0602a73          	csrr	x20,hpmcounter6
    41014e10:	c0702af3          	csrr	x21,hpmcounter7
    41014e14:	c0802b73          	csrr	x22,hpmcounter8
    41014e18:	c09028f3          	csrr	x17,hpmcounter9
    41014e1c:	c0a02df3          	csrr	x27,hpmcounter10
    41014e20:	c0b02e73          	csrr	x28,hpmcounter11
    41014e24:	c0c02973          	csrr	x18,hpmcounter12
    41014e28:	c0d02ff3          	csrr	x31,hpmcounter13
    41014e2c:	c0e023f3          	csrr	x7,hpmcounter14
    41014e30:	c0f02473          	csrr	x8,hpmcounter15
    41014e34:	c1002773          	csrr	x14,hpmcounter16
    41014e38:	c12025f3          	csrr	x11,hpmcounter18
    41014e3c:	c1302cf3          	csrr	x25,hpmcounter19
    41014e40:	c1402d73          	csrr	x26,hpmcounter20
    41014e44:	c15025f3          	csrr	x11,hpmcounter21
    41014e48:	c1602d73          	csrr	x26,hpmcounter22
    41014e4c:	c17023f3          	csrr	x7,hpmcounter23
    41014e50:	c1802af3          	csrr	x21,hpmcounter24
    41014e54:	c1902bf3          	csrr	x23,hpmcounter25
    41014e58:	c1a02ff3          	csrr	x31,hpmcounter26
    41014e5c:	c1b024f3          	csrr	x9,hpmcounter27
    41014e60:	c1c027f3          	csrr	x15,hpmcounter28
    41014e64:	c1d02d73          	csrr	x26,hpmcounter29
    41014e68:	c1e02df3          	csrr	x27,hpmcounter30
    41014e6c:	c1f025f3          	csrr	x11,hpmcounter31
    41014e70:	00040a37          	lui	x20,0x40
    41014e74:	306a1cf3          	csrrw	x25,mcounteren,x20
    41014e78:	c12027f3          	csrr	x15,hpmcounter18
    41014e7c:	c0002373          	rdcycle	x6
    41014e80:	c0102973          	rdtime	x18
    41014e84:	c0202e73          	rdinstret	x28
    41014e88:	c0302ef3          	csrr	x29,hpmcounter3
    41014e8c:	c04024f3          	csrr	x9,hpmcounter4
    41014e90:	c0502f73          	csrr	x30,hpmcounter5
    41014e94:	c0602c73          	csrr	x24,hpmcounter6
    41014e98:	c0702c73          	csrr	x24,hpmcounter7
    41014e9c:	c08028f3          	csrr	x17,hpmcounter8
    41014ea0:	c0902bf3          	csrr	x23,hpmcounter9
    41014ea4:	c0a023f3          	csrr	x7,hpmcounter10
    41014ea8:	c0b02873          	csrr	x16,hpmcounter11
    41014eac:	c0c02cf3          	csrr	x25,hpmcounter12
    41014eb0:	c0d025f3          	csrr	x11,hpmcounter13
    41014eb4:	c0e02ff3          	csrr	x31,hpmcounter14
    41014eb8:	c0f02573          	csrr	x10,hpmcounter15
    41014ebc:	c10027f3          	csrr	x15,hpmcounter16
    41014ec0:	c1102af3          	csrr	x21,hpmcounter17
    41014ec4:	c1302df3          	csrr	x27,hpmcounter19
    41014ec8:	c1402573          	csrr	x10,hpmcounter20
    41014ecc:	c1502a73          	csrr	x20,hpmcounter21
    41014ed0:	c1602df3          	csrr	x27,hpmcounter22
    41014ed4:	c17025f3          	csrr	x11,hpmcounter23
    41014ed8:	c18029f3          	csrr	x19,hpmcounter24
    41014edc:	c19024f3          	csrr	x9,hpmcounter25
    41014ee0:	c1a02c73          	csrr	x24,hpmcounter26
    41014ee4:	c1b02a73          	csrr	x20,hpmcounter27
    41014ee8:	c1c02c73          	csrr	x24,hpmcounter28
    41014eec:	c1d02573          	csrr	x10,hpmcounter29
    41014ef0:	c1e02673          	csrr	x12,hpmcounter30
    41014ef4:	c1f02d73          	csrr	x26,hpmcounter31
    41014ef8:	00080937          	lui	x18,0x80
    41014efc:	30691473          	csrrw	x8,mcounteren,x18
    41014f00:	c13027f3          	csrr	x15,hpmcounter19
    41014f04:	c0002df3          	rdcycle	x27
    41014f08:	c01027f3          	rdtime	x15
    41014f0c:	c0202bf3          	rdinstret	x23
    41014f10:	c0302e73          	csrr	x28,hpmcounter3
    41014f14:	c0402ff3          	csrr	x31,hpmcounter4
    41014f18:	c0502573          	csrr	x10,hpmcounter5
    41014f1c:	c0602973          	csrr	x18,hpmcounter6
    41014f20:	c0702373          	csrr	x6,hpmcounter7
    41014f24:	c08025f3          	csrr	x11,hpmcounter8
    41014f28:	c0902e73          	csrr	x28,hpmcounter9
    41014f2c:	c0a025f3          	csrr	x11,hpmcounter10
    41014f30:	c0b02973          	csrr	x18,hpmcounter11
    41014f34:	c0c02bf3          	csrr	x23,hpmcounter12
    41014f38:	c0d02a73          	csrr	x20,hpmcounter13
    41014f3c:	c0e02873          	csrr	x16,hpmcounter14
    41014f40:	c0f02b73          	csrr	x22,hpmcounter15
    41014f44:	c1002d73          	csrr	x26,hpmcounter16
    41014f48:	c1102b73          	csrr	x22,hpmcounter17
    41014f4c:	c1202ff3          	csrr	x31,hpmcounter18
    41014f50:	c1402573          	csrr	x10,hpmcounter20
    41014f54:	c1502bf3          	csrr	x23,hpmcounter21
    41014f58:	c1602c73          	csrr	x24,hpmcounter22
    41014f5c:	c1702973          	csrr	x18,hpmcounter23
    41014f60:	c1802d73          	csrr	x26,hpmcounter24
    41014f64:	c1902b73          	csrr	x22,hpmcounter25
    41014f68:	c1a02ef3          	csrr	x29,hpmcounter26
    41014f6c:	c1b02ff3          	csrr	x31,hpmcounter27
    41014f70:	c1c02a73          	csrr	x20,hpmcounter28
    41014f74:	c1d02573          	csrr	x10,hpmcounter29
    41014f78:	c1e02b73          	csrr	x22,hpmcounter30
    41014f7c:	c1f025f3          	csrr	x11,hpmcounter31
    41014f80:	001007b7          	lui	x15,0x100
    41014f84:	30679573          	csrrw	x10,mcounteren,x15
    41014f88:	c1402873          	csrr	x16,hpmcounter20
    41014f8c:	c0002cf3          	rdcycle	x25
    41014f90:	c0102bf3          	rdtime	x23
    41014f94:	c0202e73          	rdinstret	x28
    41014f98:	c0302ff3          	csrr	x31,hpmcounter3
    41014f9c:	c0402d73          	csrr	x26,hpmcounter4
    41014fa0:	c0502773          	csrr	x14,hpmcounter5
    41014fa4:	c06023f3          	csrr	x7,hpmcounter6
    41014fa8:	c0702b73          	csrr	x22,hpmcounter7
    41014fac:	c0802cf3          	csrr	x25,hpmcounter8
    41014fb0:	c09029f3          	csrr	x19,hpmcounter9
    41014fb4:	c0a02af3          	csrr	x21,hpmcounter10
    41014fb8:	c0b023f3          	csrr	x7,hpmcounter11
    41014fbc:	c0c02bf3          	csrr	x23,hpmcounter12
    41014fc0:	c0d02473          	csrr	x8,hpmcounter13
    41014fc4:	c0e028f3          	csrr	x17,hpmcounter14
    41014fc8:	c0f02573          	csrr	x10,hpmcounter15
    41014fcc:	c1002a73          	csrr	x20,hpmcounter16
    41014fd0:	c1102d73          	csrr	x26,hpmcounter17
    41014fd4:	c1202d73          	csrr	x26,hpmcounter18
    41014fd8:	c13028f3          	csrr	x17,hpmcounter19
    41014fdc:	c15026f3          	csrr	x13,hpmcounter21
    41014fe0:	c16025f3          	csrr	x11,hpmcounter22
    41014fe4:	c1702df3          	csrr	x27,hpmcounter23
    41014fe8:	c1802d73          	csrr	x26,hpmcounter24
    41014fec:	c1902773          	csrr	x14,hpmcounter25
    41014ff0:	c1a027f3          	csrr	x15,hpmcounter26
    41014ff4:	c1b02973          	csrr	x18,hpmcounter27
    41014ff8:	c1c02f73          	csrr	x30,hpmcounter28
    41014ffc:	c1d02ef3          	csrr	x29,hpmcounter29
    41015000:	c1e02473          	csrr	x8,hpmcounter30
    41015004:	c1f027f3          	csrr	x15,hpmcounter31
    41015008:	00200337          	lui	x6,0x200
    4101500c:	306313f3          	csrrw	x7,mcounteren,x6
    41015010:	c1502f73          	csrr	x30,hpmcounter21
    41015014:	c00026f3          	rdcycle	x13
    41015018:	c0102673          	rdtime	x12
    4101501c:	c0202d73          	rdinstret	x26
    41015020:	c03029f3          	csrr	x19,hpmcounter3
    41015024:	c0402873          	csrr	x16,hpmcounter4
    41015028:	c0502ef3          	csrr	x29,hpmcounter5
    4101502c:	c0602b73          	csrr	x22,hpmcounter6
    41015030:	c07023f3          	csrr	x7,hpmcounter7
    41015034:	c08024f3          	csrr	x9,hpmcounter8
    41015038:	c0902af3          	csrr	x21,hpmcounter9
    4101503c:	c0a02b73          	csrr	x22,hpmcounter10
    41015040:	c0b026f3          	csrr	x13,hpmcounter11
    41015044:	c0c02d73          	csrr	x26,hpmcounter12
    41015048:	c0d02e73          	csrr	x28,hpmcounter13
    4101504c:	c0e02ff3          	csrr	x31,hpmcounter14
    41015050:	c0f025f3          	csrr	x11,hpmcounter15
    41015054:	c10023f3          	csrr	x7,hpmcounter16
    41015058:	c1102c73          	csrr	x24,hpmcounter17
    4101505c:	c12024f3          	csrr	x9,hpmcounter18
    41015060:	c1302373          	csrr	x6,hpmcounter19
    41015064:	c14025f3          	csrr	x11,hpmcounter20
    41015068:	c1602b73          	csrr	x22,hpmcounter22
    4101506c:	c1702973          	csrr	x18,hpmcounter23
    41015070:	c18028f3          	csrr	x17,hpmcounter24
    41015074:	c1902873          	csrr	x16,hpmcounter25
    41015078:	c1a02e73          	csrr	x28,hpmcounter26
    4101507c:	c1b02cf3          	csrr	x25,hpmcounter27
    41015080:	c1c02773          	csrr	x14,hpmcounter28
    41015084:	c1d02373          	csrr	x6,hpmcounter29
    41015088:	c1e02df3          	csrr	x27,hpmcounter30
    4101508c:	c1f029f3          	csrr	x19,hpmcounter31
    41015090:	00400437          	lui	x8,0x400
    41015094:	306415f3          	csrrw	x11,mcounteren,x8
    41015098:	c1602ef3          	csrr	x29,hpmcounter22
    4101509c:	c0002ef3          	rdcycle	x29
    410150a0:	c0102573          	rdtime	x10
    410150a4:	c0202373          	rdinstret	x6
    410150a8:	c03026f3          	csrr	x13,hpmcounter3
    410150ac:	c0402473          	csrr	x8,hpmcounter4
    410150b0:	c0502973          	csrr	x18,hpmcounter5
    410150b4:	c06024f3          	csrr	x9,hpmcounter6
    410150b8:	c0702ef3          	csrr	x29,hpmcounter7
    410150bc:	c0802373          	csrr	x6,hpmcounter8
    410150c0:	c0902873          	csrr	x16,hpmcounter9
    410150c4:	c0a024f3          	csrr	x9,hpmcounter10
    410150c8:	c0b029f3          	csrr	x19,hpmcounter11
    410150cc:	c0c025f3          	csrr	x11,hpmcounter12
    410150d0:	c0d029f3          	csrr	x19,hpmcounter13
    410150d4:	c0e02373          	csrr	x6,hpmcounter14
    410150d8:	c0f02af3          	csrr	x21,hpmcounter15
    410150dc:	c10026f3          	csrr	x13,hpmcounter16
    410150e0:	c1102f73          	csrr	x30,hpmcounter17
    410150e4:	c1202d73          	csrr	x26,hpmcounter18
    410150e8:	c13029f3          	csrr	x19,hpmcounter19
    410150ec:	c1402c73          	csrr	x24,hpmcounter20
    410150f0:	c15023f3          	csrr	x7,hpmcounter21
    410150f4:	c1702473          	csrr	x8,hpmcounter23
    410150f8:	c18028f3          	csrr	x17,hpmcounter24
    410150fc:	c1902df3          	csrr	x27,hpmcounter25
    41015100:	c1a02973          	csrr	x18,hpmcounter26
    41015104:	c1b025f3          	csrr	x11,hpmcounter27
    41015108:	c1c02ff3          	csrr	x31,hpmcounter28
    4101510c:	c1d02af3          	csrr	x21,hpmcounter29
    41015110:	c1e02b73          	csrr	x22,hpmcounter30
    41015114:	c1f026f3          	csrr	x13,hpmcounter31
    41015118:	008004b7          	lui	x9,0x800
    4101511c:	306494f3          	csrrw	x9,mcounteren,x9
    41015120:	c1702873          	csrr	x16,hpmcounter23
    41015124:	c0002873          	rdcycle	x16
    41015128:	c0102673          	rdtime	x12
    4101512c:	c0202973          	rdinstret	x18
    41015130:	c0302e73          	csrr	x28,hpmcounter3
    41015134:	c0402df3          	csrr	x27,hpmcounter4
    41015138:	c0502f73          	csrr	x30,hpmcounter5
    4101513c:	c06029f3          	csrr	x19,hpmcounter6
    41015140:	c0702b73          	csrr	x22,hpmcounter7
    41015144:	c08029f3          	csrr	x19,hpmcounter8
    41015148:	c0902af3          	csrr	x21,hpmcounter9
    4101514c:	c0a02d73          	csrr	x26,hpmcounter10
    41015150:	c0b02373          	csrr	x6,hpmcounter11
    41015154:	c0c026f3          	csrr	x13,hpmcounter12
    41015158:	c0d02af3          	csrr	x21,hpmcounter13
    4101515c:	c0e02773          	csrr	x14,hpmcounter14
    41015160:	c0f02373          	csrr	x6,hpmcounter15
    41015164:	c1002df3          	csrr	x27,hpmcounter16
    41015168:	c11026f3          	csrr	x13,hpmcounter17
    4101516c:	c1202cf3          	csrr	x25,hpmcounter18
    41015170:	c1302bf3          	csrr	x23,hpmcounter19
    41015174:	c1402af3          	csrr	x21,hpmcounter20
    41015178:	c15029f3          	csrr	x19,hpmcounter21
    4101517c:	c1602af3          	csrr	x21,hpmcounter22
    41015180:	c1802473          	csrr	x8,hpmcounter24
    41015184:	c19028f3          	csrr	x17,hpmcounter25
    41015188:	c1a025f3          	csrr	x11,hpmcounter26
    4101518c:	c1b02f73          	csrr	x30,hpmcounter27
    41015190:	c1c02cf3          	csrr	x25,hpmcounter28
    41015194:	c1d027f3          	csrr	x15,hpmcounter29
    41015198:	c1e02473          	csrr	x8,hpmcounter30
    4101519c:	c1f023f3          	csrr	x7,hpmcounter31
    410151a0:	010005b7          	lui	x11,0x1000
    410151a4:	30659a73          	csrrw	x20,mcounteren,x11
    410151a8:	c18023f3          	csrr	x7,hpmcounter24
    410151ac:	c0002e73          	rdcycle	x28
    410151b0:	c01025f3          	rdtime	x11
    410151b4:	c02023f3          	rdinstret	x7
    410151b8:	c03029f3          	csrr	x19,hpmcounter3
    410151bc:	c0402f73          	csrr	x30,hpmcounter4
    410151c0:	c0502ef3          	csrr	x29,hpmcounter5
    410151c4:	c06029f3          	csrr	x19,hpmcounter6
    410151c8:	c0702ef3          	csrr	x29,hpmcounter7
    410151cc:	c0802b73          	csrr	x22,hpmcounter8
    410151d0:	c0902873          	csrr	x16,hpmcounter9
    410151d4:	c0a025f3          	csrr	x11,hpmcounter10
    410151d8:	c0b026f3          	csrr	x13,hpmcounter11
    410151dc:	c0c02c73          	csrr	x24,hpmcounter12
    410151e0:	c0d02873          	csrr	x16,hpmcounter13
    410151e4:	c0e02773          	csrr	x14,hpmcounter14
    410151e8:	c0f02673          	csrr	x12,hpmcounter15
    410151ec:	c1002d73          	csrr	x26,hpmcounter16
    410151f0:	c11026f3          	csrr	x13,hpmcounter17
    410151f4:	c1202773          	csrr	x14,hpmcounter18
    410151f8:	c1302ef3          	csrr	x29,hpmcounter19
    410151fc:	c1402df3          	csrr	x27,hpmcounter20
    41015200:	c1502ef3          	csrr	x29,hpmcounter21
    41015204:	c16024f3          	csrr	x9,hpmcounter22
    41015208:	c17026f3          	csrr	x13,hpmcounter23
    4101520c:	c19029f3          	csrr	x19,hpmcounter25
    41015210:	c1a02773          	csrr	x14,hpmcounter26
    41015214:	c1b02473          	csrr	x8,hpmcounter27
    41015218:	c1c028f3          	csrr	x17,hpmcounter28
    4101521c:	c1d02af3          	csrr	x21,hpmcounter29
    41015220:	c1e02f73          	csrr	x30,hpmcounter30
    41015224:	c1f02473          	csrr	x8,hpmcounter31
    41015228:	02000e37          	lui	x28,0x2000
    4101522c:	306e1ef3          	csrrw	x29,mcounteren,x28
    41015230:	c19029f3          	csrr	x19,hpmcounter25
    41015234:	c0002973          	rdcycle	x18
    41015238:	c0102d73          	rdtime	x26
    4101523c:	c0202df3          	rdinstret	x27
    41015240:	c0302ef3          	csrr	x29,hpmcounter3
    41015244:	c0402d73          	csrr	x26,hpmcounter4
    41015248:	c0502ff3          	csrr	x31,hpmcounter5
    4101524c:	c0602773          	csrr	x14,hpmcounter6
    41015250:	c0702c73          	csrr	x24,hpmcounter7
    41015254:	c0802ef3          	csrr	x29,hpmcounter8
    41015258:	c0902cf3          	csrr	x25,hpmcounter9
    4101525c:	c0a02d73          	csrr	x26,hpmcounter10
    41015260:	c0b02c73          	csrr	x24,hpmcounter11
    41015264:	c0c02cf3          	csrr	x25,hpmcounter12
    41015268:	c0d02873          	csrr	x16,hpmcounter13
    4101526c:	c0e02573          	csrr	x10,hpmcounter14
    41015270:	c0f025f3          	csrr	x11,hpmcounter15
    41015274:	c1002e73          	csrr	x28,hpmcounter16
    41015278:	c1102af3          	csrr	x21,hpmcounter17
    4101527c:	c12026f3          	csrr	x13,hpmcounter18
    41015280:	c1302d73          	csrr	x26,hpmcounter19
    41015284:	c1402af3          	csrr	x21,hpmcounter20
    41015288:	c1502973          	csrr	x18,hpmcounter21
    4101528c:	c1602873          	csrr	x16,hpmcounter22
    41015290:	c1702c73          	csrr	x24,hpmcounter23
    41015294:	c1802973          	csrr	x18,hpmcounter24
    41015298:	c1a02673          	csrr	x12,hpmcounter26
    4101529c:	c1b02773          	csrr	x14,hpmcounter27
    410152a0:	c1c02673          	csrr	x12,hpmcounter28
    410152a4:	c1d023f3          	csrr	x7,hpmcounter29
    410152a8:	c1e02973          	csrr	x18,hpmcounter30
    410152ac:	c1f024f3          	csrr	x9,hpmcounter31
    410152b0:	040004b7          	lui	x9,0x4000
    410152b4:	306495f3          	csrrw	x11,mcounteren,x9
    410152b8:	c1a02e73          	csrr	x28,hpmcounter26
    410152bc:	c0002ef3          	rdcycle	x29
    410152c0:	c0102573          	rdtime	x10
    410152c4:	c0202873          	rdinstret	x16
    410152c8:	c0302973          	csrr	x18,hpmcounter3
    410152cc:	c04029f3          	csrr	x19,hpmcounter4
    410152d0:	c05025f3          	csrr	x11,hpmcounter5
    410152d4:	c0602f73          	csrr	x30,hpmcounter6
    410152d8:	c0702e73          	csrr	x28,hpmcounter7
    410152dc:	c0802673          	csrr	x12,hpmcounter8
    410152e0:	c0902773          	csrr	x14,hpmcounter9
    410152e4:	c0a02473          	csrr	x8,hpmcounter10
    410152e8:	c0b02773          	csrr	x14,hpmcounter11
    410152ec:	c0c02ef3          	csrr	x29,hpmcounter12
    410152f0:	c0d029f3          	csrr	x19,hpmcounter13
    410152f4:	c0e02d73          	csrr	x26,hpmcounter14
    410152f8:	c0f026f3          	csrr	x13,hpmcounter15
    410152fc:	c10027f3          	csrr	x15,hpmcounter16
    41015300:	c1102df3          	csrr	x27,hpmcounter17
    41015304:	c1202573          	csrr	x10,hpmcounter18
    41015308:	c1302ef3          	csrr	x29,hpmcounter19
    4101530c:	c1402d73          	csrr	x26,hpmcounter20
    41015310:	c1502e73          	csrr	x28,hpmcounter21
    41015314:	c1602af3          	csrr	x21,hpmcounter22
    41015318:	c1702e73          	csrr	x28,hpmcounter23
    4101531c:	c18027f3          	csrr	x15,hpmcounter24
    41015320:	c1902573          	csrr	x10,hpmcounter25
    41015324:	c1b02d73          	csrr	x26,hpmcounter27
    41015328:	c1c026f3          	csrr	x13,hpmcounter28
    4101532c:	c1d028f3          	csrr	x17,hpmcounter29
    41015330:	c1e027f3          	csrr	x15,hpmcounter30
    41015334:	c1f02873          	csrr	x16,hpmcounter31
    41015338:	08000c37          	lui	x24,0x8000
    4101533c:	306c1af3          	csrrw	x21,mcounteren,x24
    41015340:	c1b025f3          	csrr	x11,hpmcounter27
    41015344:	c0002b73          	rdcycle	x22
    41015348:	c0102373          	rdtime	x6
    4101534c:	c0202373          	rdinstret	x6
    41015350:	c0302bf3          	csrr	x23,hpmcounter3
    41015354:	c0402f73          	csrr	x30,hpmcounter4
    41015358:	c0502df3          	csrr	x27,hpmcounter5
    4101535c:	c0602ff3          	csrr	x31,hpmcounter6
    41015360:	c0702e73          	csrr	x28,hpmcounter7
    41015364:	c0802af3          	csrr	x21,hpmcounter8
    41015368:	c09029f3          	csrr	x19,hpmcounter9
    4101536c:	c0a029f3          	csrr	x19,hpmcounter10
    41015370:	c0b02e73          	csrr	x28,hpmcounter11
    41015374:	c0c02df3          	csrr	x27,hpmcounter12
    41015378:	c0d02d73          	csrr	x26,hpmcounter13
    4101537c:	c0e02c73          	csrr	x24,hpmcounter14
    41015380:	c0f023f3          	csrr	x7,hpmcounter15
    41015384:	c10025f3          	csrr	x11,hpmcounter16
    41015388:	c1102bf3          	csrr	x23,hpmcounter17
    4101538c:	c1202c73          	csrr	x24,hpmcounter18
    41015390:	c1302a73          	csrr	x20,hpmcounter19
    41015394:	c14028f3          	csrr	x17,hpmcounter20
    41015398:	c1502df3          	csrr	x27,hpmcounter21
    4101539c:	c1602d73          	csrr	x26,hpmcounter22
    410153a0:	c1702473          	csrr	x8,hpmcounter23
    410153a4:	c1802573          	csrr	x10,hpmcounter24
    410153a8:	c1902773          	csrr	x14,hpmcounter25
    410153ac:	c1a026f3          	csrr	x13,hpmcounter26
    410153b0:	c1c028f3          	csrr	x17,hpmcounter28
    410153b4:	c1d026f3          	csrr	x13,hpmcounter29
    410153b8:	c1e029f3          	csrr	x19,hpmcounter30
    410153bc:	c1f028f3          	csrr	x17,hpmcounter31
    410153c0:	10000937          	lui	x18,0x10000
    410153c4:	30691573          	csrrw	x10,mcounteren,x18
    410153c8:	c1c02d73          	csrr	x26,hpmcounter28
    410153cc:	c0002bf3          	rdcycle	x23
    410153d0:	c0102f73          	rdtime	x30
    410153d4:	c02028f3          	rdinstret	x17
    410153d8:	c0302673          	csrr	x12,hpmcounter3
    410153dc:	c0402473          	csrr	x8,hpmcounter4
    410153e0:	c0502773          	csrr	x14,hpmcounter5
    410153e4:	c0602773          	csrr	x14,hpmcounter6
    410153e8:	c0702773          	csrr	x14,hpmcounter7
    410153ec:	c0802ff3          	csrr	x31,hpmcounter8
    410153f0:	c0902873          	csrr	x16,hpmcounter9
    410153f4:	c0a02bf3          	csrr	x23,hpmcounter10
    410153f8:	c0b025f3          	csrr	x11,hpmcounter11
    410153fc:	c0c02e73          	csrr	x28,hpmcounter12
    41015400:	c0d02af3          	csrr	x21,hpmcounter13
    41015404:	c0e02773          	csrr	x14,hpmcounter14
    41015408:	c0f025f3          	csrr	x11,hpmcounter15
    4101540c:	c10026f3          	csrr	x13,hpmcounter16
    41015410:	c1102ff3          	csrr	x31,hpmcounter17
    41015414:	c1202bf3          	csrr	x23,hpmcounter18
    41015418:	c13025f3          	csrr	x11,hpmcounter19
    4101541c:	c1402573          	csrr	x10,hpmcounter20
    41015420:	c1502473          	csrr	x8,hpmcounter21
    41015424:	c1602f73          	csrr	x30,hpmcounter22
    41015428:	c1702c73          	csrr	x24,hpmcounter23
    4101542c:	c1802bf3          	csrr	x23,hpmcounter24
    41015430:	c19023f3          	csrr	x7,hpmcounter25
    41015434:	c1a026f3          	csrr	x13,hpmcounter26
    41015438:	c1b024f3          	csrr	x9,hpmcounter27
    4101543c:	c1d02973          	csrr	x18,hpmcounter29
    41015440:	c1e02bf3          	csrr	x23,hpmcounter30
    41015444:	c1f029f3          	csrr	x19,hpmcounter31
    41015448:	20000337          	lui	x6,0x20000
    4101544c:	306313f3          	csrrw	x7,mcounteren,x6
    41015450:	c1d029f3          	csrr	x19,hpmcounter29
    41015454:	c0002773          	rdcycle	x14
    41015458:	c01025f3          	rdtime	x11
    4101545c:	c0202b73          	rdinstret	x22
    41015460:	c0302f73          	csrr	x30,hpmcounter3
    41015464:	c0402573          	csrr	x10,hpmcounter4
    41015468:	c0502473          	csrr	x8,hpmcounter5
    4101546c:	c0602973          	csrr	x18,hpmcounter6
    41015470:	c0702c73          	csrr	x24,hpmcounter7
    41015474:	c0802e73          	csrr	x28,hpmcounter8
    41015478:	c09028f3          	csrr	x17,hpmcounter9
    4101547c:	c0a02873          	csrr	x16,hpmcounter10
    41015480:	c0b02af3          	csrr	x21,hpmcounter11
    41015484:	c0c02ef3          	csrr	x29,hpmcounter12
    41015488:	c0d02573          	csrr	x10,hpmcounter13
    4101548c:	c0e02f73          	csrr	x30,hpmcounter14
    41015490:	c0f02a73          	csrr	x20,hpmcounter15
    41015494:	c10028f3          	csrr	x17,hpmcounter16
    41015498:	c1102c73          	csrr	x24,hpmcounter17
    4101549c:	c1202573          	csrr	x10,hpmcounter18
    410154a0:	c1302cf3          	csrr	x25,hpmcounter19
    410154a4:	c1402df3          	csrr	x27,hpmcounter20
    410154a8:	c1502b73          	csrr	x22,hpmcounter21
    410154ac:	c1602573          	csrr	x10,hpmcounter22
    410154b0:	c1702973          	csrr	x18,hpmcounter23
    410154b4:	c1802473          	csrr	x8,hpmcounter24
    410154b8:	c1902373          	csrr	x6,hpmcounter25
    410154bc:	c1a02a73          	csrr	x20,hpmcounter26
    410154c0:	c1b029f3          	csrr	x19,hpmcounter27
    410154c4:	c1c02ff3          	csrr	x31,hpmcounter28
    410154c8:	c1e02af3          	csrr	x21,hpmcounter30
    410154cc:	c1f02df3          	csrr	x27,hpmcounter31
    410154d0:	40000eb7          	lui	x29,0x40000
    410154d4:	306e9573          	csrrw	x10,mcounteren,x29
    410154d8:	c1e02573          	csrr	x10,hpmcounter30
    410154dc:	c0002b73          	rdcycle	x22
    410154e0:	c0102a73          	rdtime	x20
    410154e4:	c0202673          	rdinstret	x12
    410154e8:	c0302573          	csrr	x10,hpmcounter3
    410154ec:	c0402973          	csrr	x18,hpmcounter4
    410154f0:	c0502673          	csrr	x12,hpmcounter5
    410154f4:	c0602a73          	csrr	x20,hpmcounter6
    410154f8:	c07025f3          	csrr	x11,hpmcounter7
    410154fc:	c0802873          	csrr	x16,hpmcounter8
    41015500:	c09027f3          	csrr	x15,hpmcounter9
    41015504:	c0a02d73          	csrr	x26,hpmcounter10
    41015508:	c0b02df3          	csrr	x27,hpmcounter11
    4101550c:	c0c024f3          	csrr	x9,hpmcounter12
    41015510:	c0d02e73          	csrr	x28,hpmcounter13
    41015514:	c0e02873          	csrr	x16,hpmcounter14
    41015518:	c0f02f73          	csrr	x30,hpmcounter15
    4101551c:	c1002cf3          	csrr	x25,hpmcounter16
    41015520:	c1102af3          	csrr	x21,hpmcounter17
    41015524:	c1202373          	csrr	x6,hpmcounter18
    41015528:	c1302d73          	csrr	x26,hpmcounter19
    4101552c:	c1402bf3          	csrr	x23,hpmcounter20
    41015530:	c1502873          	csrr	x16,hpmcounter21
    41015534:	c1602c73          	csrr	x24,hpmcounter22
    41015538:	c1702af3          	csrr	x21,hpmcounter23
    4101553c:	c1802573          	csrr	x10,hpmcounter24
    41015540:	c1902af3          	csrr	x21,hpmcounter25
    41015544:	c1a028f3          	csrr	x17,hpmcounter26
    41015548:	c1b02bf3          	csrr	x23,hpmcounter27
    4101554c:	c1c02cf3          	csrr	x25,hpmcounter28
    41015550:	c1d02373          	csrr	x6,hpmcounter29
    41015554:	c1f02773          	csrr	x14,hpmcounter31
    41015558:	0010089b          	addiw	x17,x0,1
    4101555c:	01f89893          	slli	x17,x17,0x1f
    41015560:	30689bf3          	csrrw	x23,mcounteren,x17
    41015564:	c1f02ff3          	csrr	x31,hpmcounter31
    41015568:	c0002e73          	rdcycle	x28
    4101556c:	c01028f3          	rdtime	x17
    41015570:	c0202ef3          	rdinstret	x29
    41015574:	c03023f3          	csrr	x7,hpmcounter3
    41015578:	c0402df3          	csrr	x27,hpmcounter4
    4101557c:	c0502cf3          	csrr	x25,hpmcounter5
    41015580:	c06028f3          	csrr	x17,hpmcounter6
    41015584:	c07027f3          	csrr	x15,hpmcounter7
    41015588:	c0802373          	csrr	x6,hpmcounter8
    4101558c:	c0902473          	csrr	x8,hpmcounter9
    41015590:	c0a02e73          	csrr	x28,hpmcounter10
    41015594:	c0b02c73          	csrr	x24,hpmcounter11
    41015598:	c0c02e73          	csrr	x28,hpmcounter12
    4101559c:	c0d02873          	csrr	x16,hpmcounter13
    410155a0:	c0e02373          	csrr	x6,hpmcounter14
    410155a4:	c0f02973          	csrr	x18,hpmcounter15
    410155a8:	c10027f3          	csrr	x15,hpmcounter16
    410155ac:	c1102773          	csrr	x14,hpmcounter17
    410155b0:	c1202673          	csrr	x12,hpmcounter18
    410155b4:	c1302e73          	csrr	x28,hpmcounter19
    410155b8:	c1402e73          	csrr	x28,hpmcounter20
    410155bc:	c1502ff3          	csrr	x31,hpmcounter21
    410155c0:	c1602ef3          	csrr	x29,hpmcounter22
    410155c4:	c1702ef3          	csrr	x29,hpmcounter23
    410155c8:	c18027f3          	csrr	x15,hpmcounter24
    410155cc:	c1902573          	csrr	x10,hpmcounter25
    410155d0:	c1a02573          	csrr	x10,hpmcounter26
    410155d4:	c1b02c73          	csrr	x24,hpmcounter27
    410155d8:	c1c02bf3          	csrr	x23,hpmcounter28
    410155dc:	c1d02973          	csrr	x18,hpmcounter29
    410155e0:	c1e02ff3          	csrr	x31,hpmcounter30
    410155e4:	41216137          	lui	x2,0x41216
    410155e8:	00013383          	ld	x7,0(x2) # 41216000 <tp_csr_storage>
    410155ec:	306393f3          	csrrw	x7,mcounteren,x7

00000000410155f0 <SID_XCOUNTEREN_05_M_passed>:
    410155f0:	44db42b7          	lui	x5,0x44db4
    410155f4:	0182829b          	addiw	x5,x5,24 # 44db4018 <os_passed_addr>
    410155f8:	0002b303          	ld	x6,0(x5)
    410155fc:	00030067          	jr	x6 # 20000000 <pma_region_2_size+0x1c000000>

0000000041015600 <SID_XCOUNTEREN_06_M>:
    41015600:	41216137          	lui	x2,0x41216
    41015604:	306023f3          	csrr	x7,mcounteren
    41015608:	00713023          	sd	x7,0(x2) # 41216000 <tp_csr_storage>
    4101560c:	106023f3          	csrr	x7,scounteren
    41015610:	00713423          	sd	x7,8(x2)
    41015614:	44d1d137          	lui	x2,0x44d1d
    41015618:	000012b7          	lui	x5,0x1
    4101561c:	00510133          	add	x2,x2,x5
    41015620:	ff017113          	andi	x2,x2,-16
    41015624:	3060d573          	csrrwi	x10,mcounteren,1
    41015628:	1060d373          	csrrwi	x6,scounteren,1
    4101562c:	c0002473          	rdcycle	x8
    41015630:	c01029f3          	rdtime	x19
    41015634:	c0202bf3          	rdinstret	x23
    41015638:	c0302ff3          	csrr	x31,hpmcounter3
    4101563c:	c04023f3          	csrr	x7,hpmcounter4
    41015640:	c0502b73          	csrr	x22,hpmcounter5
    41015644:	c06029f3          	csrr	x19,hpmcounter6
    41015648:	c0702f73          	csrr	x30,hpmcounter7
    4101564c:	c08023f3          	csrr	x7,hpmcounter8
    41015650:	c09025f3          	csrr	x11,hpmcounter9
    41015654:	c0a02b73          	csrr	x22,hpmcounter10
    41015658:	c0b026f3          	csrr	x13,hpmcounter11
    4101565c:	c0c023f3          	csrr	x7,hpmcounter12
    41015660:	c0d02473          	csrr	x8,hpmcounter13
    41015664:	c0e02373          	csrr	x6,hpmcounter14
    41015668:	c0f02f73          	csrr	x30,hpmcounter15
    4101566c:	c1002373          	csrr	x6,hpmcounter16
    41015670:	c1102e73          	csrr	x28,hpmcounter17
    41015674:	c1202ef3          	csrr	x29,hpmcounter18
    41015678:	c1302573          	csrr	x10,hpmcounter19
    4101567c:	c1402a73          	csrr	x20,hpmcounter20
    41015680:	c1502a73          	csrr	x20,hpmcounter21
    41015684:	c16028f3          	csrr	x17,hpmcounter22
    41015688:	c1702973          	csrr	x18,hpmcounter23
    4101568c:	c1802373          	csrr	x6,hpmcounter24
    41015690:	c1902673          	csrr	x12,hpmcounter25
    41015694:	c1a024f3          	csrr	x9,hpmcounter26
    41015698:	c1b02ef3          	csrr	x29,hpmcounter27
    4101569c:	c1c024f3          	csrr	x9,hpmcounter28
    410156a0:	c1d02673          	csrr	x12,hpmcounter29
    410156a4:	c1e025f3          	csrr	x11,hpmcounter30
    410156a8:	c1f02373          	csrr	x6,hpmcounter31
    410156ac:	30615cf3          	csrrwi	x25,mcounteren,2
    410156b0:	106159f3          	csrrwi	x19,scounteren,2
    410156b4:	c0102773          	rdtime	x14
    410156b8:	c0002873          	rdcycle	x16
    410156bc:	c0202b73          	rdinstret	x22
    410156c0:	c0302673          	csrr	x12,hpmcounter3
    410156c4:	c0402673          	csrr	x12,hpmcounter4
    410156c8:	c05026f3          	csrr	x13,hpmcounter5
    410156cc:	c0602a73          	csrr	x20,hpmcounter6
    410156d0:	c0702c73          	csrr	x24,hpmcounter7
    410156d4:	c08028f3          	csrr	x17,hpmcounter8
    410156d8:	c0902df3          	csrr	x27,hpmcounter9
    410156dc:	c0a02b73          	csrr	x22,hpmcounter10
    410156e0:	c0b02d73          	csrr	x26,hpmcounter11
    410156e4:	c0c02e73          	csrr	x28,hpmcounter12
    410156e8:	c0d02573          	csrr	x10,hpmcounter13
    410156ec:	c0e026f3          	csrr	x13,hpmcounter14
    410156f0:	c0f02f73          	csrr	x30,hpmcounter15
    410156f4:	c1002ff3          	csrr	x31,hpmcounter16
    410156f8:	c11027f3          	csrr	x15,hpmcounter17
    410156fc:	c12026f3          	csrr	x13,hpmcounter18
    41015700:	c1302873          	csrr	x16,hpmcounter19
    41015704:	c14023f3          	csrr	x7,hpmcounter20
    41015708:	c1502b73          	csrr	x22,hpmcounter21
    4101570c:	c1602cf3          	csrr	x25,hpmcounter22
    41015710:	c1702f73          	csrr	x30,hpmcounter23
    41015714:	c18026f3          	csrr	x13,hpmcounter24
    41015718:	c1902373          	csrr	x6,hpmcounter25
    4101571c:	c1a02bf3          	csrr	x23,hpmcounter26
    41015720:	c1b02ff3          	csrr	x31,hpmcounter27
    41015724:	c1c027f3          	csrr	x15,hpmcounter28
    41015728:	c1d02873          	csrr	x16,hpmcounter29
    4101572c:	c1e02df3          	csrr	x27,hpmcounter30
    41015730:	c1f02e73          	csrr	x28,hpmcounter31
    41015734:	30625e73          	csrrwi	x28,mcounteren,4
    41015738:	106254f3          	csrrwi	x9,scounteren,4
    4101573c:	c02025f3          	rdinstret	x11
    41015740:	c0002b73          	rdcycle	x22
    41015744:	c01029f3          	rdtime	x19
    41015748:	c03026f3          	csrr	x13,hpmcounter3
    4101574c:	c0402b73          	csrr	x22,hpmcounter4
    41015750:	c05023f3          	csrr	x7,hpmcounter5
    41015754:	c0602473          	csrr	x8,hpmcounter6
    41015758:	c0702e73          	csrr	x28,hpmcounter7
    4101575c:	c0802a73          	csrr	x20,hpmcounter8
    41015760:	c0902df3          	csrr	x27,hpmcounter9
    41015764:	c0a027f3          	csrr	x15,hpmcounter10
    41015768:	c0b02ff3          	csrr	x31,hpmcounter11
    4101576c:	c0c023f3          	csrr	x7,hpmcounter12
    41015770:	c0d023f3          	csrr	x7,hpmcounter13
    41015774:	c0e02e73          	csrr	x28,hpmcounter14
    41015778:	c0f024f3          	csrr	x9,hpmcounter15
    4101577c:	c1002c73          	csrr	x24,hpmcounter16
    41015780:	c11026f3          	csrr	x13,hpmcounter17
    41015784:	c12027f3          	csrr	x15,hpmcounter18
    41015788:	c1302673          	csrr	x12,hpmcounter19
    4101578c:	c1402873          	csrr	x16,hpmcounter20
    41015790:	c15028f3          	csrr	x17,hpmcounter21
    41015794:	c1602af3          	csrr	x21,hpmcounter22
    41015798:	c1702bf3          	csrr	x23,hpmcounter23
    4101579c:	c1802873          	csrr	x16,hpmcounter24
    410157a0:	c1902cf3          	csrr	x25,hpmcounter25
    410157a4:	c1a02573          	csrr	x10,hpmcounter26
    410157a8:	c1b028f3          	csrr	x17,hpmcounter27
    410157ac:	c1c023f3          	csrr	x7,hpmcounter28
    410157b0:	c1d02673          	csrr	x12,hpmcounter29
    410157b4:	c1e02873          	csrr	x16,hpmcounter30
    410157b8:	c1f02b73          	csrr	x22,hpmcounter31
    410157bc:	30645c73          	csrrwi	x24,mcounteren,8
    410157c0:	106457f3          	csrrwi	x15,scounteren,8
    410157c4:	c03026f3          	csrr	x13,hpmcounter3
    410157c8:	c00025f3          	rdcycle	x11
    410157cc:	c0102af3          	rdtime	x21
    410157d0:	c0202bf3          	rdinstret	x23
    410157d4:	c0402a73          	csrr	x20,hpmcounter4
    410157d8:	c0502bf3          	csrr	x23,hpmcounter5
    410157dc:	c0602473          	csrr	x8,hpmcounter6
    410157e0:	c0702cf3          	csrr	x25,hpmcounter7
    410157e4:	c0802473          	csrr	x8,hpmcounter8
    410157e8:	c09025f3          	csrr	x11,hpmcounter9
    410157ec:	c0a02ef3          	csrr	x29,hpmcounter10
    410157f0:	c0b023f3          	csrr	x7,hpmcounter11
    410157f4:	c0c02a73          	csrr	x20,hpmcounter12
    410157f8:	c0d02973          	csrr	x18,hpmcounter13
    410157fc:	c0e02b73          	csrr	x22,hpmcounter14
    41015800:	c0f02573          	csrr	x10,hpmcounter15
    41015804:	c1002773          	csrr	x14,hpmcounter16
    41015808:	c1102473          	csrr	x8,hpmcounter17
    4101580c:	c1202bf3          	csrr	x23,hpmcounter18
    41015810:	c13023f3          	csrr	x7,hpmcounter19
    41015814:	c14028f3          	csrr	x17,hpmcounter20
    41015818:	c1502773          	csrr	x14,hpmcounter21
    4101581c:	c1602673          	csrr	x12,hpmcounter22
    41015820:	c17024f3          	csrr	x9,hpmcounter23
    41015824:	c1802ef3          	csrr	x29,hpmcounter24
    41015828:	c1902773          	csrr	x14,hpmcounter25
    4101582c:	c1a02a73          	csrr	x20,hpmcounter26
    41015830:	c1b02af3          	csrr	x21,hpmcounter27
    41015834:	c1c02473          	csrr	x8,hpmcounter28
    41015838:	c1d02673          	csrr	x12,hpmcounter29
    4101583c:	c1e02b73          	csrr	x22,hpmcounter30
    41015840:	c1f02a73          	csrr	x20,hpmcounter31
    41015844:	30685873          	csrrwi	x16,mcounteren,16
    41015848:	106854f3          	csrrwi	x9,scounteren,16
    4101584c:	c0402ef3          	csrr	x29,hpmcounter4
    41015850:	c0002ff3          	rdcycle	x31
    41015854:	c01023f3          	rdtime	x7
    41015858:	c0202cf3          	rdinstret	x25
    4101585c:	c03023f3          	csrr	x7,hpmcounter3
    41015860:	c0502573          	csrr	x10,hpmcounter5
    41015864:	c0602773          	csrr	x14,hpmcounter6
    41015868:	c07029f3          	csrr	x19,hpmcounter7
    4101586c:	c0802a73          	csrr	x20,hpmcounter8
    41015870:	c09023f3          	csrr	x7,hpmcounter9
    41015874:	c0a026f3          	csrr	x13,hpmcounter10
    41015878:	c0b02a73          	csrr	x20,hpmcounter11
    4101587c:	c0c02573          	csrr	x10,hpmcounter12
    41015880:	c0d029f3          	csrr	x19,hpmcounter13
    41015884:	c0e02473          	csrr	x8,hpmcounter14
    41015888:	c0f02df3          	csrr	x27,hpmcounter15
    4101588c:	c1002873          	csrr	x16,hpmcounter16
    41015890:	c11026f3          	csrr	x13,hpmcounter17
    41015894:	c1202ef3          	csrr	x29,hpmcounter18
    41015898:	c1302573          	csrr	x10,hpmcounter19
    4101589c:	c1402773          	csrr	x14,hpmcounter20
    410158a0:	c1502ff3          	csrr	x31,hpmcounter21
    410158a4:	c1602373          	csrr	x6,hpmcounter22
    410158a8:	c1702773          	csrr	x14,hpmcounter23
    410158ac:	c18024f3          	csrr	x9,hpmcounter24
    410158b0:	c1902a73          	csrr	x20,hpmcounter25
    410158b4:	c1a02ef3          	csrr	x29,hpmcounter26
    410158b8:	c1b02a73          	csrr	x20,hpmcounter27
    410158bc:	c1c02773          	csrr	x14,hpmcounter28
    410158c0:	c1d024f3          	csrr	x9,hpmcounter29
    410158c4:	c1e02a73          	csrr	x20,hpmcounter30
    410158c8:	c1f02b73          	csrr	x22,hpmcounter31
    410158cc:	02000b13          	li	x22,32
    410158d0:	306b16f3          	csrrw	x13,mcounteren,x22
    410158d4:	02000c93          	li	x25,32
    410158d8:	106c95f3          	csrrw	x11,scounteren,x25
    410158dc:	c05027f3          	csrr	x15,hpmcounter5
    410158e0:	c0002af3          	rdcycle	x21
    410158e4:	c01026f3          	rdtime	x13
    410158e8:	c0202b73          	rdinstret	x22
    410158ec:	c0302bf3          	csrr	x23,hpmcounter3
    410158f0:	c0402ff3          	csrr	x31,hpmcounter4
    410158f4:	c0602ef3          	csrr	x29,hpmcounter6
    410158f8:	c07024f3          	csrr	x9,hpmcounter7
    410158fc:	c0802bf3          	csrr	x23,hpmcounter8
    41015900:	c0902ef3          	csrr	x29,hpmcounter9
    41015904:	c0a02ef3          	csrr	x29,hpmcounter10
    41015908:	c0b028f3          	csrr	x17,hpmcounter11
    4101590c:	c0c02773          	csrr	x14,hpmcounter12
    41015910:	c0d02473          	csrr	x8,hpmcounter13
    41015914:	c0e02573          	csrr	x10,hpmcounter14
    41015918:	c0f02ff3          	csrr	x31,hpmcounter15
    4101591c:	c1002cf3          	csrr	x25,hpmcounter16
    41015920:	c1102873          	csrr	x16,hpmcounter17
    41015924:	c1202773          	csrr	x14,hpmcounter18
    41015928:	c1302ff3          	csrr	x31,hpmcounter19
    4101592c:	c1402ff3          	csrr	x31,hpmcounter20
    41015930:	c1502df3          	csrr	x27,hpmcounter21
    41015934:	c1602cf3          	csrr	x25,hpmcounter22
    41015938:	c17025f3          	csrr	x11,hpmcounter23
    4101593c:	c1802773          	csrr	x14,hpmcounter24
    41015940:	c1902d73          	csrr	x26,hpmcounter25
    41015944:	c1a02b73          	csrr	x22,hpmcounter26
    41015948:	c1b02873          	csrr	x16,hpmcounter27
    4101594c:	c1c02e73          	csrr	x28,hpmcounter28
    41015950:	c1d02373          	csrr	x6,hpmcounter29
    41015954:	c1e02473          	csrr	x8,hpmcounter30
    41015958:	c1f02673          	csrr	x12,hpmcounter31
    4101595c:	04000393          	li	x7,64
    41015960:	30639f73          	csrrw	x30,mcounteren,x7
    41015964:	04000513          	li	x10,64
    41015968:	106518f3          	csrrw	x17,scounteren,x10
    4101596c:	c0602373          	csrr	x6,hpmcounter6
    41015970:	c0002ff3          	rdcycle	x31
    41015974:	c01028f3          	rdtime	x17
    41015978:	c02025f3          	rdinstret	x11
    4101597c:	c0302af3          	csrr	x21,hpmcounter3
    41015980:	c04028f3          	csrr	x17,hpmcounter4
    41015984:	c0502cf3          	csrr	x25,hpmcounter5
    41015988:	c0702cf3          	csrr	x25,hpmcounter7
    4101598c:	c08029f3          	csrr	x19,hpmcounter8
    41015990:	c09023f3          	csrr	x7,hpmcounter9
    41015994:	c0a02ff3          	csrr	x31,hpmcounter10
    41015998:	c0b02673          	csrr	x12,hpmcounter11
    4101599c:	c0c02873          	csrr	x16,hpmcounter12
    410159a0:	c0d028f3          	csrr	x17,hpmcounter13
    410159a4:	c0e02ef3          	csrr	x29,hpmcounter14
    410159a8:	c0f02573          	csrr	x10,hpmcounter15
    410159ac:	c10027f3          	csrr	x15,hpmcounter16
    410159b0:	c1102ff3          	csrr	x31,hpmcounter17
    410159b4:	c1202c73          	csrr	x24,hpmcounter18
    410159b8:	c1302f73          	csrr	x30,hpmcounter19
    410159bc:	c1402973          	csrr	x18,hpmcounter20
    410159c0:	c1502473          	csrr	x8,hpmcounter21
    410159c4:	c1602673          	csrr	x12,hpmcounter22
    410159c8:	c1702df3          	csrr	x27,hpmcounter23
    410159cc:	c1802973          	csrr	x18,hpmcounter24
    410159d0:	c1902473          	csrr	x8,hpmcounter25
    410159d4:	c1a026f3          	csrr	x13,hpmcounter26
    410159d8:	c1b02a73          	csrr	x20,hpmcounter27
    410159dc:	c1c029f3          	csrr	x19,hpmcounter28
    410159e0:	c1d028f3          	csrr	x17,hpmcounter29
    410159e4:	c1e02ff3          	csrr	x31,hpmcounter30
    410159e8:	c1f02473          	csrr	x8,hpmcounter31
    410159ec:	08000913          	li	x18,128
    410159f0:	306914f3          	csrrw	x9,mcounteren,x18
    410159f4:	08000f13          	li	x30,128
    410159f8:	106f18f3          	csrrw	x17,scounteren,x30
    410159fc:	c0702a73          	csrr	x20,hpmcounter7
    41015a00:	c00025f3          	rdcycle	x11
    41015a04:	c0102cf3          	rdtime	x25
    41015a08:	c0202a73          	rdinstret	x20
    41015a0c:	c0302973          	csrr	x18,hpmcounter3
    41015a10:	c0402573          	csrr	x10,hpmcounter4
    41015a14:	c0502373          	csrr	x6,hpmcounter5
    41015a18:	c0602c73          	csrr	x24,hpmcounter6
    41015a1c:	c08027f3          	csrr	x15,hpmcounter8
    41015a20:	c0902c73          	csrr	x24,hpmcounter9
    41015a24:	c0a029f3          	csrr	x19,hpmcounter10
    41015a28:	c0b02cf3          	csrr	x25,hpmcounter11
    41015a2c:	c0c02973          	csrr	x18,hpmcounter12
    41015a30:	c0d029f3          	csrr	x19,hpmcounter13
    41015a34:	c0e02f73          	csrr	x30,hpmcounter14
    41015a38:	c0f024f3          	csrr	x9,hpmcounter15
    41015a3c:	c1002f73          	csrr	x30,hpmcounter16
    41015a40:	c1102ef3          	csrr	x29,hpmcounter17
    41015a44:	c1202d73          	csrr	x26,hpmcounter18
    41015a48:	c1302373          	csrr	x6,hpmcounter19
    41015a4c:	c1402873          	csrr	x16,hpmcounter20
    41015a50:	c1502973          	csrr	x18,hpmcounter21
    41015a54:	c16028f3          	csrr	x17,hpmcounter22
    41015a58:	c1702df3          	csrr	x27,hpmcounter23
    41015a5c:	c1802a73          	csrr	x20,hpmcounter24
    41015a60:	c1902573          	csrr	x10,hpmcounter25
    41015a64:	c1a02573          	csrr	x10,hpmcounter26
    41015a68:	c1b023f3          	csrr	x7,hpmcounter27
    41015a6c:	c1c02ff3          	csrr	x31,hpmcounter28
    41015a70:	c1d02373          	csrr	x6,hpmcounter29
    41015a74:	c1e02373          	csrr	x6,hpmcounter30
    41015a78:	c1f02df3          	csrr	x27,hpmcounter31
    41015a7c:	10000f93          	li	x31,256
    41015a80:	306f98f3          	csrrw	x17,mcounteren,x31
    41015a84:	10000413          	li	x8,256
    41015a88:	106416f3          	csrrw	x13,scounteren,x8
    41015a8c:	c0802573          	csrr	x10,hpmcounter8
    41015a90:	c0002d73          	rdcycle	x26
    41015a94:	c01027f3          	rdtime	x15
    41015a98:	c0202ef3          	rdinstret	x29
    41015a9c:	c0302cf3          	csrr	x25,hpmcounter3
    41015aa0:	c04028f3          	csrr	x17,hpmcounter4
    41015aa4:	c05025f3          	csrr	x11,hpmcounter5
    41015aa8:	c0602ff3          	csrr	x31,hpmcounter6
    41015aac:	c0702673          	csrr	x12,hpmcounter7
    41015ab0:	c0902bf3          	csrr	x23,hpmcounter9
    41015ab4:	c0a02373          	csrr	x6,hpmcounter10
    41015ab8:	c0b02bf3          	csrr	x23,hpmcounter11
    41015abc:	c0c02573          	csrr	x10,hpmcounter12
    41015ac0:	c0d02373          	csrr	x6,hpmcounter13
    41015ac4:	c0e023f3          	csrr	x7,hpmcounter14
    41015ac8:	c0f02ff3          	csrr	x31,hpmcounter15
    41015acc:	c10029f3          	csrr	x19,hpmcounter16
    41015ad0:	c1102573          	csrr	x10,hpmcounter17
    41015ad4:	c1202f73          	csrr	x30,hpmcounter18
    41015ad8:	c13029f3          	csrr	x19,hpmcounter19
    41015adc:	c1402ff3          	csrr	x31,hpmcounter20
    41015ae0:	c1502bf3          	csrr	x23,hpmcounter21
    41015ae4:	c16024f3          	csrr	x9,hpmcounter22
    41015ae8:	c17028f3          	csrr	x17,hpmcounter23
    41015aec:	c1802573          	csrr	x10,hpmcounter24
    41015af0:	c1902773          	csrr	x14,hpmcounter25
    41015af4:	c1a02773          	csrr	x14,hpmcounter26
    41015af8:	c1b028f3          	csrr	x17,hpmcounter27
    41015afc:	c1c02873          	csrr	x16,hpmcounter28
    41015b00:	c1d02df3          	csrr	x27,hpmcounter29
    41015b04:	c1e02773          	csrr	x14,hpmcounter30
    41015b08:	c1f02473          	csrr	x8,hpmcounter31
    41015b0c:	20000b13          	li	x22,512
    41015b10:	306b1573          	csrrw	x10,mcounteren,x22
    41015b14:	20000c13          	li	x24,512
    41015b18:	106c19f3          	csrrw	x19,scounteren,x24
    41015b1c:	c0902c73          	csrr	x24,hpmcounter9
    41015b20:	c0002773          	rdcycle	x14
    41015b24:	c01027f3          	rdtime	x15
    41015b28:	c0202c73          	rdinstret	x24
    41015b2c:	c0302d73          	csrr	x26,hpmcounter3
    41015b30:	c0402673          	csrr	x12,hpmcounter4
    41015b34:	c0502bf3          	csrr	x23,hpmcounter5
    41015b38:	c06029f3          	csrr	x19,hpmcounter6
    41015b3c:	c0702e73          	csrr	x28,hpmcounter7
    41015b40:	c0802af3          	csrr	x21,hpmcounter8
    41015b44:	c0a028f3          	csrr	x17,hpmcounter10
    41015b48:	c0b02ef3          	csrr	x29,hpmcounter11
    41015b4c:	c0c024f3          	csrr	x9,hpmcounter12
    41015b50:	c0d02a73          	csrr	x20,hpmcounter13
    41015b54:	c0e02bf3          	csrr	x23,hpmcounter14
    41015b58:	c0f02b73          	csrr	x22,hpmcounter15
    41015b5c:	c1002d73          	csrr	x26,hpmcounter16
    41015b60:	c1102773          	csrr	x14,hpmcounter17
    41015b64:	c12025f3          	csrr	x11,hpmcounter18
    41015b68:	c1302cf3          	csrr	x25,hpmcounter19
    41015b6c:	c1402e73          	csrr	x28,hpmcounter20
    41015b70:	c1502ff3          	csrr	x31,hpmcounter21
    41015b74:	c1602f73          	csrr	x30,hpmcounter22
    41015b78:	c1702f73          	csrr	x30,hpmcounter23
    41015b7c:	c1802ff3          	csrr	x31,hpmcounter24
    41015b80:	c1902ef3          	csrr	x29,hpmcounter25
    41015b84:	c1a025f3          	csrr	x11,hpmcounter26
    41015b88:	c1b02373          	csrr	x6,hpmcounter27
    41015b8c:	c1c02c73          	csrr	x24,hpmcounter28
    41015b90:	c1d02df3          	csrr	x27,hpmcounter29
    41015b94:	c1e02d73          	csrr	x26,hpmcounter30
    41015b98:	c1f02e73          	csrr	x28,hpmcounter31
    41015b9c:	40000393          	li	x7,1024
    41015ba0:	306393f3          	csrrw	x7,mcounteren,x7
    41015ba4:	40000f13          	li	x30,1024
    41015ba8:	106f1d73          	csrrw	x26,scounteren,x30
    41015bac:	c0a02d73          	csrr	x26,hpmcounter10
    41015bb0:	c00028f3          	rdcycle	x17
    41015bb4:	c01024f3          	rdtime	x9
    41015bb8:	c0202973          	rdinstret	x18
    41015bbc:	c0302c73          	csrr	x24,hpmcounter3
    41015bc0:	c0402df3          	csrr	x27,hpmcounter4
    41015bc4:	c05029f3          	csrr	x19,hpmcounter5
    41015bc8:	c0602473          	csrr	x8,hpmcounter6
    41015bcc:	c07025f3          	csrr	x11,hpmcounter7
    41015bd0:	c0802673          	csrr	x12,hpmcounter8
    41015bd4:	c0902a73          	csrr	x20,hpmcounter9
    41015bd8:	c0b02973          	csrr	x18,hpmcounter11
    41015bdc:	c0c02ff3          	csrr	x31,hpmcounter12
    41015be0:	c0d02d73          	csrr	x26,hpmcounter13
    41015be4:	c0e02b73          	csrr	x22,hpmcounter14
    41015be8:	c0f02873          	csrr	x16,hpmcounter15
    41015bec:	c1002ff3          	csrr	x31,hpmcounter16
    41015bf0:	c11023f3          	csrr	x7,hpmcounter17
    41015bf4:	c1202df3          	csrr	x27,hpmcounter18
    41015bf8:	c1302df3          	csrr	x27,hpmcounter19
    41015bfc:	c1402573          	csrr	x10,hpmcounter20
    41015c00:	c1502773          	csrr	x14,hpmcounter21
    41015c04:	c1602e73          	csrr	x28,hpmcounter22
    41015c08:	c1702873          	csrr	x16,hpmcounter23
    41015c0c:	c18029f3          	csrr	x19,hpmcounter24
    41015c10:	c1902df3          	csrr	x27,hpmcounter25
    41015c14:	c1a024f3          	csrr	x9,hpmcounter26
    41015c18:	c1b024f3          	csrr	x9,hpmcounter27
    41015c1c:	c1c02873          	csrr	x16,hpmcounter28
    41015c20:	c1d02773          	csrr	x14,hpmcounter29
    41015c24:	c1e02bf3          	csrr	x23,hpmcounter30
    41015c28:	c1f02f73          	csrr	x30,hpmcounter31
    41015c2c:	00001eb7          	lui	x29,0x1
    41015c30:	800e8e9b          	addiw	x29,x29,-2048 # 800 <XLEN+0x7c0>
    41015c34:	306e9473          	csrrw	x8,mcounteren,x29
    41015c38:	000016b7          	lui	x13,0x1
    41015c3c:	8006869b          	addiw	x13,x13,-2048 # 800 <XLEN+0x7c0>
    41015c40:	10669d73          	csrrw	x26,scounteren,x13
    41015c44:	c0b02373          	csrr	x6,hpmcounter11
    41015c48:	c0002973          	rdcycle	x18
    41015c4c:	c01028f3          	rdtime	x17
    41015c50:	c0202e73          	rdinstret	x28
    41015c54:	c03028f3          	csrr	x17,hpmcounter3
    41015c58:	c0402cf3          	csrr	x25,hpmcounter4
    41015c5c:	c0502f73          	csrr	x30,hpmcounter5
    41015c60:	c0602f73          	csrr	x30,hpmcounter6
    41015c64:	c0702e73          	csrr	x28,hpmcounter7
    41015c68:	c0802d73          	csrr	x26,hpmcounter8
    41015c6c:	c0902673          	csrr	x12,hpmcounter9
    41015c70:	c0a024f3          	csrr	x9,hpmcounter10
    41015c74:	c0c02a73          	csrr	x20,hpmcounter12
    41015c78:	c0d02ef3          	csrr	x29,hpmcounter13
    41015c7c:	c0e024f3          	csrr	x9,hpmcounter14
    41015c80:	c0f02a73          	csrr	x20,hpmcounter15
    41015c84:	c10023f3          	csrr	x7,hpmcounter16
    41015c88:	c1102873          	csrr	x16,hpmcounter17
    41015c8c:	c1202f73          	csrr	x30,hpmcounter18
    41015c90:	c1302873          	csrr	x16,hpmcounter19
    41015c94:	c14027f3          	csrr	x15,hpmcounter20
    41015c98:	c1502873          	csrr	x16,hpmcounter21
    41015c9c:	c1602af3          	csrr	x21,hpmcounter22
    41015ca0:	c17026f3          	csrr	x13,hpmcounter23
    41015ca4:	c18023f3          	csrr	x7,hpmcounter24
    41015ca8:	c1902573          	csrr	x10,hpmcounter25
    41015cac:	c1a026f3          	csrr	x13,hpmcounter26
    41015cb0:	c1b02b73          	csrr	x22,hpmcounter27
    41015cb4:	c1c02a73          	csrr	x20,hpmcounter28
    41015cb8:	c1d02b73          	csrr	x22,hpmcounter29
    41015cbc:	c1e025f3          	csrr	x11,hpmcounter30
    41015cc0:	c1f02773          	csrr	x14,hpmcounter31
    41015cc4:	00001b37          	lui	x22,0x1
    41015cc8:	306b1f73          	csrrw	x30,mcounteren,x22
    41015ccc:	00001eb7          	lui	x29,0x1
    41015cd0:	106e95f3          	csrrw	x11,scounteren,x29
    41015cd4:	c0c02d73          	csrr	x26,hpmcounter12
    41015cd8:	c0002af3          	rdcycle	x21
    41015cdc:	c0102f73          	rdtime	x30
    41015ce0:	c0202cf3          	rdinstret	x25
    41015ce4:	c0302e73          	csrr	x28,hpmcounter3
    41015ce8:	c04029f3          	csrr	x19,hpmcounter4
    41015cec:	c0502d73          	csrr	x26,hpmcounter5
    41015cf0:	c0602473          	csrr	x8,hpmcounter6
    41015cf4:	c07029f3          	csrr	x19,hpmcounter7
    41015cf8:	c0802bf3          	csrr	x23,hpmcounter8
    41015cfc:	c0902c73          	csrr	x24,hpmcounter9
    41015d00:	c0a02373          	csrr	x6,hpmcounter10
    41015d04:	c0b02673          	csrr	x12,hpmcounter11
    41015d08:	c0d02773          	csrr	x14,hpmcounter13
    41015d0c:	c0e02c73          	csrr	x24,hpmcounter14
    41015d10:	c0f024f3          	csrr	x9,hpmcounter15
    41015d14:	c1002a73          	csrr	x20,hpmcounter16
    41015d18:	c11024f3          	csrr	x9,hpmcounter17
    41015d1c:	c12029f3          	csrr	x19,hpmcounter18
    41015d20:	c1302773          	csrr	x14,hpmcounter19
    41015d24:	c1402473          	csrr	x8,hpmcounter20
    41015d28:	c15027f3          	csrr	x15,hpmcounter21
    41015d2c:	c1602973          	csrr	x18,hpmcounter22
    41015d30:	c1702b73          	csrr	x22,hpmcounter23
    41015d34:	c1802a73          	csrr	x20,hpmcounter24
    41015d38:	c1902973          	csrr	x18,hpmcounter25
    41015d3c:	c1a02a73          	csrr	x20,hpmcounter26
    41015d40:	c1b02b73          	csrr	x22,hpmcounter27
    41015d44:	c1c02ef3          	csrr	x29,hpmcounter28
    41015d48:	c1d02ef3          	csrr	x29,hpmcounter29
    41015d4c:	c1e02cf3          	csrr	x25,hpmcounter30
    41015d50:	c1f028f3          	csrr	x17,hpmcounter31
    41015d54:	000026b7          	lui	x13,0x2
    41015d58:	30669b73          	csrrw	x22,mcounteren,x13
    41015d5c:	00002c37          	lui	x24,0x2
    41015d60:	106c1af3          	csrrw	x21,scounteren,x24
    41015d64:	c0d029f3          	csrr	x19,hpmcounter13
    41015d68:	c00028f3          	rdcycle	x17
    41015d6c:	c0102b73          	rdtime	x22
    41015d70:	c0202df3          	rdinstret	x27
    41015d74:	c0302673          	csrr	x12,hpmcounter3
    41015d78:	c04027f3          	csrr	x15,hpmcounter4
    41015d7c:	c0502ef3          	csrr	x29,hpmcounter5
    41015d80:	c06028f3          	csrr	x17,hpmcounter6
    41015d84:	c0702c73          	csrr	x24,hpmcounter7
    41015d88:	c0802773          	csrr	x14,hpmcounter8
    41015d8c:	c0902f73          	csrr	x30,hpmcounter9
    41015d90:	c0a029f3          	csrr	x19,hpmcounter10
    41015d94:	c0b02573          	csrr	x10,hpmcounter11
    41015d98:	c0c02c73          	csrr	x24,hpmcounter12
    41015d9c:	c0e02873          	csrr	x16,hpmcounter14
    41015da0:	c0f02d73          	csrr	x26,hpmcounter15
    41015da4:	c10029f3          	csrr	x19,hpmcounter16
    41015da8:	c1102af3          	csrr	x21,hpmcounter17
    41015dac:	c1202bf3          	csrr	x23,hpmcounter18
    41015db0:	c1302673          	csrr	x12,hpmcounter19
    41015db4:	c1402bf3          	csrr	x23,hpmcounter20
    41015db8:	c1502673          	csrr	x12,hpmcounter21
    41015dbc:	c1602af3          	csrr	x21,hpmcounter22
    41015dc0:	c1702973          	csrr	x18,hpmcounter23
    41015dc4:	c1802d73          	csrr	x26,hpmcounter24
    41015dc8:	c1902cf3          	csrr	x25,hpmcounter25
    41015dcc:	c1a029f3          	csrr	x19,hpmcounter26
    41015dd0:	c1b02c73          	csrr	x24,hpmcounter27
    41015dd4:	c1c02d73          	csrr	x26,hpmcounter28
    41015dd8:	c1d02e73          	csrr	x28,hpmcounter29
    41015ddc:	c1e025f3          	csrr	x11,hpmcounter30
    41015de0:	c1f02bf3          	csrr	x23,hpmcounter31
    41015de4:	00004937          	lui	x18,0x4
    41015de8:	306915f3          	csrrw	x11,mcounteren,x18
    41015dec:	000049b7          	lui	x19,0x4
    41015df0:	10699a73          	csrrw	x20,scounteren,x19
    41015df4:	c0e02b73          	csrr	x22,hpmcounter14
    41015df8:	c0002973          	rdcycle	x18
    41015dfc:	c0102e73          	rdtime	x28
    41015e00:	c02029f3          	rdinstret	x19
    41015e04:	c0302b73          	csrr	x22,hpmcounter3
    41015e08:	c0402373          	csrr	x6,hpmcounter4
    41015e0c:	c0502d73          	csrr	x26,hpmcounter5
    41015e10:	c0602f73          	csrr	x30,hpmcounter6
    41015e14:	c07026f3          	csrr	x13,hpmcounter7
    41015e18:	c08025f3          	csrr	x11,hpmcounter8
    41015e1c:	c09028f3          	csrr	x17,hpmcounter9
    41015e20:	c0a02773          	csrr	x14,hpmcounter10
    41015e24:	c0b02f73          	csrr	x30,hpmcounter11
    41015e28:	c0c02a73          	csrr	x20,hpmcounter12
    41015e2c:	c0d025f3          	csrr	x11,hpmcounter13
    41015e30:	c0f02c73          	csrr	x24,hpmcounter15
    41015e34:	c1002e73          	csrr	x28,hpmcounter16
    41015e38:	c1102473          	csrr	x8,hpmcounter17
    41015e3c:	c1202cf3          	csrr	x25,hpmcounter18
    41015e40:	c1302873          	csrr	x16,hpmcounter19
    41015e44:	c14023f3          	csrr	x7,hpmcounter20
    41015e48:	c1502b73          	csrr	x22,hpmcounter21
    41015e4c:	c16027f3          	csrr	x15,hpmcounter22
    41015e50:	c17026f3          	csrr	x13,hpmcounter23
    41015e54:	c1802ff3          	csrr	x31,hpmcounter24
    41015e58:	c1902473          	csrr	x8,hpmcounter25
    41015e5c:	c1a02573          	csrr	x10,hpmcounter26
    41015e60:	c1b02ff3          	csrr	x31,hpmcounter27
    41015e64:	c1c02ff3          	csrr	x31,hpmcounter28
    41015e68:	c1d02373          	csrr	x6,hpmcounter29
    41015e6c:	c1e02f73          	csrr	x30,hpmcounter30
    41015e70:	c1f023f3          	csrr	x7,hpmcounter31
    41015e74:	000089b7          	lui	x19,0x8
    41015e78:	30699a73          	csrrw	x20,mcounteren,x19
    41015e7c:	00008cb7          	lui	x25,0x8
    41015e80:	106c9d73          	csrrw	x26,scounteren,x25
    41015e84:	c0f02df3          	csrr	x27,hpmcounter15
    41015e88:	c0002bf3          	rdcycle	x23
    41015e8c:	c01028f3          	rdtime	x17
    41015e90:	c0202973          	rdinstret	x18
    41015e94:	c0302bf3          	csrr	x23,hpmcounter3
    41015e98:	c04025f3          	csrr	x11,hpmcounter4
    41015e9c:	c0502573          	csrr	x10,hpmcounter5
    41015ea0:	c0602773          	csrr	x14,hpmcounter6
    41015ea4:	c0702af3          	csrr	x21,hpmcounter7
    41015ea8:	c0802973          	csrr	x18,hpmcounter8
    41015eac:	c0902473          	csrr	x8,hpmcounter9
    41015eb0:	c0a02973          	csrr	x18,hpmcounter10
    41015eb4:	c0b029f3          	csrr	x19,hpmcounter11
    41015eb8:	c0c02cf3          	csrr	x25,hpmcounter12
    41015ebc:	c0d024f3          	csrr	x9,hpmcounter13
    41015ec0:	c0e02e73          	csrr	x28,hpmcounter14
    41015ec4:	c1002df3          	csrr	x27,hpmcounter16
    41015ec8:	c1102ef3          	csrr	x29,hpmcounter17
    41015ecc:	c12024f3          	csrr	x9,hpmcounter18
    41015ed0:	c1302b73          	csrr	x22,hpmcounter19
    41015ed4:	c1402c73          	csrr	x24,hpmcounter20
    41015ed8:	c1502f73          	csrr	x30,hpmcounter21
    41015edc:	c1602773          	csrr	x14,hpmcounter22
    41015ee0:	c1702673          	csrr	x12,hpmcounter23
    41015ee4:	c1802a73          	csrr	x20,hpmcounter24
    41015ee8:	c1902a73          	csrr	x20,hpmcounter25
    41015eec:	c1a02473          	csrr	x8,hpmcounter26
    41015ef0:	c1b02573          	csrr	x10,hpmcounter27
    41015ef4:	c1c02373          	csrr	x6,hpmcounter28
    41015ef8:	c1d02d73          	csrr	x26,hpmcounter29
    41015efc:	c1e02af3          	csrr	x21,hpmcounter30
    41015f00:	c1f02973          	csrr	x18,hpmcounter31
    41015f04:	00010937          	lui	x18,0x10
    41015f08:	306919f3          	csrrw	x19,mcounteren,x18
    41015f0c:	00010a37          	lui	x20,0x10
    41015f10:	106a15f3          	csrrw	x11,scounteren,x20
    41015f14:	c1002673          	csrr	x12,hpmcounter16
    41015f18:	c0002df3          	rdcycle	x27
    41015f1c:	c0102ef3          	rdtime	x29
    41015f20:	c0202af3          	rdinstret	x21
    41015f24:	c0302773          	csrr	x14,hpmcounter3
    41015f28:	c0402373          	csrr	x6,hpmcounter4
    41015f2c:	c0502d73          	csrr	x26,hpmcounter5
    41015f30:	c0602f73          	csrr	x30,hpmcounter6
    41015f34:	c0702d73          	csrr	x26,hpmcounter7
    41015f38:	c08024f3          	csrr	x9,hpmcounter8
    41015f3c:	c0902573          	csrr	x10,hpmcounter9
    41015f40:	c0a028f3          	csrr	x17,hpmcounter10
    41015f44:	c0b02373          	csrr	x6,hpmcounter11
    41015f48:	c0c02373          	csrr	x6,hpmcounter12
    41015f4c:	c0d02a73          	csrr	x20,hpmcounter13
    41015f50:	c0e02c73          	csrr	x24,hpmcounter14
    41015f54:	c0f02c73          	csrr	x24,hpmcounter15
    41015f58:	c1102f73          	csrr	x30,hpmcounter17
    41015f5c:	c1202df3          	csrr	x27,hpmcounter18
    41015f60:	c1302773          	csrr	x14,hpmcounter19
    41015f64:	c1402673          	csrr	x12,hpmcounter20
    41015f68:	c15028f3          	csrr	x17,hpmcounter21
    41015f6c:	c1602df3          	csrr	x27,hpmcounter22
    41015f70:	c1702973          	csrr	x18,hpmcounter23
    41015f74:	c1802373          	csrr	x6,hpmcounter24
    41015f78:	c19026f3          	csrr	x13,hpmcounter25
    41015f7c:	c1a02f73          	csrr	x30,hpmcounter26
    41015f80:	c1b02873          	csrr	x16,hpmcounter27
    41015f84:	c1c029f3          	csrr	x19,hpmcounter28
    41015f88:	c1d02573          	csrr	x10,hpmcounter29
    41015f8c:	c1e02df3          	csrr	x27,hpmcounter30
    41015f90:	c1f02c73          	csrr	x24,hpmcounter31
    41015f94:	00020537          	lui	x10,0x20
    41015f98:	306513f3          	csrrw	x7,mcounteren,x10
    41015f9c:	00020937          	lui	x18,0x20
    41015fa0:	106916f3          	csrrw	x13,scounteren,x18
    41015fa4:	c11028f3          	csrr	x17,hpmcounter17
    41015fa8:	c0002f73          	rdcycle	x30
    41015fac:	c0102573          	rdtime	x10
    41015fb0:	c0202ef3          	rdinstret	x29
    41015fb4:	c0302b73          	csrr	x22,hpmcounter3
    41015fb8:	c04025f3          	csrr	x11,hpmcounter4
    41015fbc:	c0502673          	csrr	x12,hpmcounter5
    41015fc0:	c0602cf3          	csrr	x25,hpmcounter6
    41015fc4:	c07025f3          	csrr	x11,hpmcounter7
    41015fc8:	c08024f3          	csrr	x9,hpmcounter8
    41015fcc:	c0902d73          	csrr	x26,hpmcounter9
    41015fd0:	c0a023f3          	csrr	x7,hpmcounter10
    41015fd4:	c0b02473          	csrr	x8,hpmcounter11
    41015fd8:	c0c02573          	csrr	x10,hpmcounter12
    41015fdc:	c0d02773          	csrr	x14,hpmcounter13
    41015fe0:	c0e02b73          	csrr	x22,hpmcounter14
    41015fe4:	c0f026f3          	csrr	x13,hpmcounter15
    41015fe8:	c1002a73          	csrr	x20,hpmcounter16
    41015fec:	c1202bf3          	csrr	x23,hpmcounter18
    41015ff0:	c1302973          	csrr	x18,hpmcounter19
    41015ff4:	c14025f3          	csrr	x11,hpmcounter20
    41015ff8:	c1502373          	csrr	x6,hpmcounter21
    41015ffc:	c16025f3          	csrr	x11,hpmcounter22
    41016000:	c1702473          	csrr	x8,hpmcounter23
    41016004:	c1802e73          	csrr	x28,hpmcounter24
    41016008:	c19025f3          	csrr	x11,hpmcounter25
    4101600c:	c1a02cf3          	csrr	x25,hpmcounter26
    41016010:	c1b02373          	csrr	x6,hpmcounter27
    41016014:	c1c02df3          	csrr	x27,hpmcounter28
    41016018:	c1d02f73          	csrr	x30,hpmcounter29
    4101601c:	c1e02f73          	csrr	x30,hpmcounter30
    41016020:	c1f02bf3          	csrr	x23,hpmcounter31
    41016024:	00040fb7          	lui	x31,0x40
    41016028:	306f9b73          	csrrw	x22,mcounteren,x31
    4101602c:	00040e37          	lui	x28,0x40
    41016030:	106e1af3          	csrrw	x21,scounteren,x28
    41016034:	c12026f3          	csrr	x13,hpmcounter18
    41016038:	c0002373          	rdcycle	x6
    4101603c:	c01026f3          	rdtime	x13
    41016040:	c02023f3          	rdinstret	x7
    41016044:	c03024f3          	csrr	x9,hpmcounter3
    41016048:	c0402ef3          	csrr	x29,hpmcounter4
    4101604c:	c05023f3          	csrr	x7,hpmcounter5
    41016050:	c06025f3          	csrr	x11,hpmcounter6
    41016054:	c07025f3          	csrr	x11,hpmcounter7
    41016058:	c0802573          	csrr	x10,hpmcounter8
    4101605c:	c0902d73          	csrr	x26,hpmcounter9
    41016060:	c0a02373          	csrr	x6,hpmcounter10
    41016064:	c0b02a73          	csrr	x20,hpmcounter11
    41016068:	c0c02af3          	csrr	x21,hpmcounter12
    4101606c:	c0d02473          	csrr	x8,hpmcounter13
    41016070:	c0e02ef3          	csrr	x29,hpmcounter14
    41016074:	c0f02cf3          	csrr	x25,hpmcounter15
    41016078:	c1002d73          	csrr	x26,hpmcounter16
    4101607c:	c1102df3          	csrr	x27,hpmcounter17
    41016080:	c1302673          	csrr	x12,hpmcounter19
    41016084:	c14027f3          	csrr	x15,hpmcounter20
    41016088:	c1502ef3          	csrr	x29,hpmcounter21
    4101608c:	c1602473          	csrr	x8,hpmcounter22
    41016090:	c17024f3          	csrr	x9,hpmcounter23
    41016094:	c1802a73          	csrr	x20,hpmcounter24
    41016098:	c1902ef3          	csrr	x29,hpmcounter25
    4101609c:	c1a029f3          	csrr	x19,hpmcounter26
    410160a0:	c1b02c73          	csrr	x24,hpmcounter27
    410160a4:	c1c02c73          	csrr	x24,hpmcounter28
    410160a8:	c1d02cf3          	csrr	x25,hpmcounter29
    410160ac:	c1e02ff3          	csrr	x31,hpmcounter30
    410160b0:	c1f027f3          	csrr	x15,hpmcounter31
    410160b4:	000805b7          	lui	x11,0x80
    410160b8:	306593f3          	csrrw	x7,mcounteren,x11
    410160bc:	000807b7          	lui	x15,0x80
    410160c0:	10679c73          	csrrw	x24,scounteren,x15
    410160c4:	c13028f3          	csrr	x17,hpmcounter19
    410160c8:	c0002473          	rdcycle	x8
    410160cc:	c0102af3          	rdtime	x21
    410160d0:	c0202b73          	rdinstret	x22
    410160d4:	c0302ef3          	csrr	x29,hpmcounter3
    410160d8:	c0402773          	csrr	x14,hpmcounter4
    410160dc:	c0502573          	csrr	x10,hpmcounter5
    410160e0:	c0602a73          	csrr	x20,hpmcounter6
    410160e4:	c0702df3          	csrr	x27,hpmcounter7
    410160e8:	c0802573          	csrr	x10,hpmcounter8
    410160ec:	c09023f3          	csrr	x7,hpmcounter9
    410160f0:	c0a02673          	csrr	x12,hpmcounter10
    410160f4:	c0b02a73          	csrr	x20,hpmcounter11
    410160f8:	c0c02473          	csrr	x8,hpmcounter12
    410160fc:	c0d024f3          	csrr	x9,hpmcounter13
    41016100:	c0e02973          	csrr	x18,hpmcounter14
    41016104:	c0f02473          	csrr	x8,hpmcounter15
    41016108:	c10025f3          	csrr	x11,hpmcounter16
    4101610c:	c1102873          	csrr	x16,hpmcounter17
    41016110:	c1202b73          	csrr	x22,hpmcounter18
    41016114:	c14024f3          	csrr	x9,hpmcounter20
    41016118:	c1502cf3          	csrr	x25,hpmcounter21
    4101611c:	c1602d73          	csrr	x26,hpmcounter22
    41016120:	c1702773          	csrr	x14,hpmcounter23
    41016124:	c18024f3          	csrr	x9,hpmcounter24
    41016128:	c1902b73          	csrr	x22,hpmcounter25
    4101612c:	c1a02673          	csrr	x12,hpmcounter26
    41016130:	c1b02373          	csrr	x6,hpmcounter27
    41016134:	c1c023f3          	csrr	x7,hpmcounter28
    41016138:	c1d02b73          	csrr	x22,hpmcounter29
    4101613c:	c1e02af3          	csrr	x21,hpmcounter30
    41016140:	c1f02e73          	csrr	x28,hpmcounter31
    41016144:	00100337          	lui	x6,0x100
    41016148:	306317f3          	csrrw	x15,mcounteren,x6
    4101614c:	00100337          	lui	x6,0x100
    41016150:	10631373          	csrrw	x6,scounteren,x6
    41016154:	c1402bf3          	csrr	x23,hpmcounter20
    41016158:	c0002873          	rdcycle	x16
    4101615c:	c01029f3          	rdtime	x19
    41016160:	c02023f3          	rdinstret	x7
    41016164:	c0302af3          	csrr	x21,hpmcounter3
    41016168:	c04028f3          	csrr	x17,hpmcounter4
    4101616c:	c0502f73          	csrr	x30,hpmcounter5
    41016170:	c06026f3          	csrr	x13,hpmcounter6
    41016174:	c0702773          	csrr	x14,hpmcounter7
    41016178:	c0802973          	csrr	x18,hpmcounter8
    4101617c:	c09028f3          	csrr	x17,hpmcounter9
    41016180:	c0a02af3          	csrr	x21,hpmcounter10
    41016184:	c0b029f3          	csrr	x19,hpmcounter11
    41016188:	c0c02af3          	csrr	x21,hpmcounter12
    4101618c:	c0d02873          	csrr	x16,hpmcounter13
    41016190:	c0e02373          	csrr	x6,hpmcounter14
    41016194:	c0f02e73          	csrr	x28,hpmcounter15
    41016198:	c10029f3          	csrr	x19,hpmcounter16
    4101619c:	c1102e73          	csrr	x28,hpmcounter17
    410161a0:	c1202973          	csrr	x18,hpmcounter18
    410161a4:	c1302373          	csrr	x6,hpmcounter19
    410161a8:	c1502773          	csrr	x14,hpmcounter21
    410161ac:	c16024f3          	csrr	x9,hpmcounter22
    410161b0:	c1702df3          	csrr	x27,hpmcounter23
    410161b4:	c1802ff3          	csrr	x31,hpmcounter24
    410161b8:	c1902573          	csrr	x10,hpmcounter25
    410161bc:	c1a02d73          	csrr	x26,hpmcounter26
    410161c0:	c1b02c73          	csrr	x24,hpmcounter27
    410161c4:	c1c02573          	csrr	x10,hpmcounter28
    410161c8:	c1d02e73          	csrr	x28,hpmcounter29
    410161cc:	c1e02573          	csrr	x10,hpmcounter30
    410161d0:	c1f02973          	csrr	x18,hpmcounter31
    410161d4:	00200eb7          	lui	x29,0x200
    410161d8:	306e9673          	csrrw	x12,mcounteren,x29
    410161dc:	00200a37          	lui	x20,0x200
    410161e0:	106a18f3          	csrrw	x17,scounteren,x20
    410161e4:	c15026f3          	csrr	x13,hpmcounter21
    410161e8:	c0002b73          	rdcycle	x22
    410161ec:	c0102473          	rdtime	x8
    410161f0:	c0202673          	rdinstret	x12
    410161f4:	c0302973          	csrr	x18,hpmcounter3
    410161f8:	c04025f3          	csrr	x11,hpmcounter4
    410161fc:	c0502df3          	csrr	x27,hpmcounter5
    41016200:	c0602373          	csrr	x6,hpmcounter6
    41016204:	c07023f3          	csrr	x7,hpmcounter7
    41016208:	c0802e73          	csrr	x28,hpmcounter8
    4101620c:	c09025f3          	csrr	x11,hpmcounter9
    41016210:	c0a02df3          	csrr	x27,hpmcounter10
    41016214:	c0b02973          	csrr	x18,hpmcounter11
    41016218:	c0c023f3          	csrr	x7,hpmcounter12
    4101621c:	c0d02873          	csrr	x16,hpmcounter13
    41016220:	c0e02a73          	csrr	x20,hpmcounter14
    41016224:	c0f02cf3          	csrr	x25,hpmcounter15
    41016228:	c1002ff3          	csrr	x31,hpmcounter16
    4101622c:	c11024f3          	csrr	x9,hpmcounter17
    41016230:	c1202773          	csrr	x14,hpmcounter18
    41016234:	c13023f3          	csrr	x7,hpmcounter19
    41016238:	c1402ff3          	csrr	x31,hpmcounter20
    4101623c:	c1602673          	csrr	x12,hpmcounter22
    41016240:	c1702973          	csrr	x18,hpmcounter23
    41016244:	c1802bf3          	csrr	x23,hpmcounter24
    41016248:	c1902cf3          	csrr	x25,hpmcounter25
    4101624c:	c1a028f3          	csrr	x17,hpmcounter26
    41016250:	c1b029f3          	csrr	x19,hpmcounter27
    41016254:	c1c026f3          	csrr	x13,hpmcounter28
    41016258:	c1d02ff3          	csrr	x31,hpmcounter29
    4101625c:	c1e02b73          	csrr	x22,hpmcounter30
    41016260:	c1f02f73          	csrr	x30,hpmcounter31
    41016264:	00400437          	lui	x8,0x400
    41016268:	306416f3          	csrrw	x13,mcounteren,x8
    4101626c:	00400e37          	lui	x28,0x400
    41016270:	106e1b73          	csrrw	x22,scounteren,x28
    41016274:	c1602ef3          	csrr	x29,hpmcounter22
    41016278:	c0002ff3          	rdcycle	x31
    4101627c:	c01027f3          	rdtime	x15
    41016280:	c02025f3          	rdinstret	x11
    41016284:	c0302573          	csrr	x10,hpmcounter3
    41016288:	c04026f3          	csrr	x13,hpmcounter4
    4101628c:	c0502a73          	csrr	x20,hpmcounter5
    41016290:	c0602ff3          	csrr	x31,hpmcounter6
    41016294:	c0702773          	csrr	x14,hpmcounter7
    41016298:	c0802973          	csrr	x18,hpmcounter8
    4101629c:	c0902cf3          	csrr	x25,hpmcounter9
    410162a0:	c0a02ff3          	csrr	x31,hpmcounter10
    410162a4:	c0b02c73          	csrr	x24,hpmcounter11
    410162a8:	c0c02a73          	csrr	x20,hpmcounter12
    410162ac:	c0d023f3          	csrr	x7,hpmcounter13
    410162b0:	c0e02973          	csrr	x18,hpmcounter14
    410162b4:	c0f02873          	csrr	x16,hpmcounter15
    410162b8:	c1002773          	csrr	x14,hpmcounter16
    410162bc:	c1102773          	csrr	x14,hpmcounter17
    410162c0:	c12028f3          	csrr	x17,hpmcounter18
    410162c4:	c1302df3          	csrr	x27,hpmcounter19
    410162c8:	c1402ef3          	csrr	x29,hpmcounter20
    410162cc:	c1502cf3          	csrr	x25,hpmcounter21
    410162d0:	c17028f3          	csrr	x17,hpmcounter23
    410162d4:	c1802bf3          	csrr	x23,hpmcounter24
    410162d8:	c1902f73          	csrr	x30,hpmcounter25
    410162dc:	c1a02473          	csrr	x8,hpmcounter26
    410162e0:	c1b02ff3          	csrr	x31,hpmcounter27
    410162e4:	c1c025f3          	csrr	x11,hpmcounter28
    410162e8:	c1d02af3          	csrr	x21,hpmcounter29
    410162ec:	c1e024f3          	csrr	x9,hpmcounter30
    410162f0:	c1f02573          	csrr	x10,hpmcounter31
    410162f4:	00800bb7          	lui	x23,0x800
    410162f8:	306b9a73          	csrrw	x20,mcounteren,x23
    410162fc:	008005b7          	lui	x11,0x800
    41016300:	10659873          	csrrw	x16,scounteren,x11
    41016304:	c17023f3          	csrr	x7,hpmcounter23
    41016308:	c0002ff3          	rdcycle	x31
    4101630c:	c01023f3          	rdtime	x7
    41016310:	c0202973          	rdinstret	x18
    41016314:	c03025f3          	csrr	x11,hpmcounter3
    41016318:	c0402373          	csrr	x6,hpmcounter4
    4101631c:	c05025f3          	csrr	x11,hpmcounter5
    41016320:	c0602df3          	csrr	x27,hpmcounter6
    41016324:	c07029f3          	csrr	x19,hpmcounter7
    41016328:	c0802573          	csrr	x10,hpmcounter8
    4101632c:	c0902a73          	csrr	x20,hpmcounter9
    41016330:	c0a025f3          	csrr	x11,hpmcounter10
    41016334:	c0b027f3          	csrr	x15,hpmcounter11
    41016338:	c0c02373          	csrr	x6,hpmcounter12
    4101633c:	c0d02973          	csrr	x18,hpmcounter13
    41016340:	c0e02473          	csrr	x8,hpmcounter14
    41016344:	c0f028f3          	csrr	x17,hpmcounter15
    41016348:	c1002a73          	csrr	x20,hpmcounter16
    4101634c:	c1102873          	csrr	x16,hpmcounter17
    41016350:	c12027f3          	csrr	x15,hpmcounter18
    41016354:	c1302ff3          	csrr	x31,hpmcounter19
    41016358:	c1402473          	csrr	x8,hpmcounter20
    4101635c:	c1502b73          	csrr	x22,hpmcounter21
    41016360:	c1602373          	csrr	x6,hpmcounter22
    41016364:	c1802773          	csrr	x14,hpmcounter24
    41016368:	c19027f3          	csrr	x15,hpmcounter25
    4101636c:	c1a02873          	csrr	x16,hpmcounter26
    41016370:	c1b02f73          	csrr	x30,hpmcounter27
    41016374:	c1c02473          	csrr	x8,hpmcounter28
    41016378:	c1d02373          	csrr	x6,hpmcounter29
    4101637c:	c1e02c73          	csrr	x24,hpmcounter30
    41016380:	c1f02e73          	csrr	x28,hpmcounter31
    41016384:	010008b7          	lui	x17,0x1000
    41016388:	306896f3          	csrrw	x13,mcounteren,x17
    4101638c:	01000f37          	lui	x30,0x1000
    41016390:	106f1af3          	csrrw	x21,scounteren,x30
    41016394:	c1802773          	csrr	x14,hpmcounter24
    41016398:	c0002d73          	rdcycle	x26
    4101639c:	c0102bf3          	rdtime	x23
    410163a0:	c0202b73          	rdinstret	x22
    410163a4:	c03029f3          	csrr	x19,hpmcounter3
    410163a8:	c0402c73          	csrr	x24,hpmcounter4
    410163ac:	c05027f3          	csrr	x15,hpmcounter5
    410163b0:	c06026f3          	csrr	x13,hpmcounter6
    410163b4:	c0702bf3          	csrr	x23,hpmcounter7
    410163b8:	c08023f3          	csrr	x7,hpmcounter8
    410163bc:	c0902e73          	csrr	x28,hpmcounter9
    410163c0:	c0a025f3          	csrr	x11,hpmcounter10
    410163c4:	c0b024f3          	csrr	x9,hpmcounter11
    410163c8:	c0c02373          	csrr	x6,hpmcounter12
    410163cc:	c0d028f3          	csrr	x17,hpmcounter13
    410163d0:	c0e02473          	csrr	x8,hpmcounter14
    410163d4:	c0f02b73          	csrr	x22,hpmcounter15
    410163d8:	c1002573          	csrr	x10,hpmcounter16
    410163dc:	c1102873          	csrr	x16,hpmcounter17
    410163e0:	c12025f3          	csrr	x11,hpmcounter18
    410163e4:	c1302af3          	csrr	x21,hpmcounter19
    410163e8:	c14023f3          	csrr	x7,hpmcounter20
    410163ec:	c15023f3          	csrr	x7,hpmcounter21
    410163f0:	c16029f3          	csrr	x19,hpmcounter22
    410163f4:	c1702673          	csrr	x12,hpmcounter23
    410163f8:	c19023f3          	csrr	x7,hpmcounter25
    410163fc:	c1a02cf3          	csrr	x25,hpmcounter26
    41016400:	c1b02ef3          	csrr	x29,hpmcounter27
    41016404:	c1c02ff3          	csrr	x31,hpmcounter28
    41016408:	c1d02c73          	csrr	x24,hpmcounter29
    4101640c:	c1e02e73          	csrr	x28,hpmcounter30
    41016410:	c1f02973          	csrr	x18,hpmcounter31
    41016414:	02000937          	lui	x18,0x2000
    41016418:	30691873          	csrrw	x16,mcounteren,x18
    4101641c:	020009b7          	lui	x19,0x2000
    41016420:	10699873          	csrrw	x16,scounteren,x19
    41016424:	c1902bf3          	csrr	x23,hpmcounter25
    41016428:	c00026f3          	rdcycle	x13
    4101642c:	c0102373          	rdtime	x6
    41016430:	c0202f73          	rdinstret	x30
    41016434:	c0302a73          	csrr	x20,hpmcounter3
    41016438:	c0402df3          	csrr	x27,hpmcounter4
    4101643c:	c05024f3          	csrr	x9,hpmcounter5
    41016440:	c0602ef3          	csrr	x29,hpmcounter6
    41016444:	c07028f3          	csrr	x17,hpmcounter7
    41016448:	c0802e73          	csrr	x28,hpmcounter8
    4101644c:	c0902373          	csrr	x6,hpmcounter9
    41016450:	c0a02f73          	csrr	x30,hpmcounter10
    41016454:	c0b02973          	csrr	x18,hpmcounter11
    41016458:	c0c02ef3          	csrr	x29,hpmcounter12
    4101645c:	c0d026f3          	csrr	x13,hpmcounter13
    41016460:	c0e02773          	csrr	x14,hpmcounter14
    41016464:	c0f026f3          	csrr	x13,hpmcounter15
    41016468:	c1002ef3          	csrr	x29,hpmcounter16
    4101646c:	c1102d73          	csrr	x26,hpmcounter17
    41016470:	c1202af3          	csrr	x21,hpmcounter18
    41016474:	c1302573          	csrr	x10,hpmcounter19
    41016478:	c1402cf3          	csrr	x25,hpmcounter20
    4101647c:	c1502c73          	csrr	x24,hpmcounter21
    41016480:	c1602b73          	csrr	x22,hpmcounter22
    41016484:	c1702573          	csrr	x10,hpmcounter23
    41016488:	c1802bf3          	csrr	x23,hpmcounter24
    4101648c:	c1a02773          	csrr	x14,hpmcounter26
    41016490:	c1b02ef3          	csrr	x29,hpmcounter27
    41016494:	c1c02a73          	csrr	x20,hpmcounter28
    41016498:	c1d02673          	csrr	x12,hpmcounter29
    4101649c:	c1e02a73          	csrr	x20,hpmcounter30
    410164a0:	c1f02a73          	csrr	x20,hpmcounter31
    410164a4:	040009b7          	lui	x19,0x4000
    410164a8:	30699a73          	csrrw	x20,mcounteren,x19
    410164ac:	04000537          	lui	x10,0x4000
    410164b0:	10651e73          	csrrw	x28,scounteren,x10
    410164b4:	c1a02df3          	csrr	x27,hpmcounter26
    410164b8:	c0002573          	rdcycle	x10
    410164bc:	c0102ef3          	rdtime	x29
    410164c0:	c02025f3          	rdinstret	x11
    410164c4:	c03024f3          	csrr	x9,hpmcounter3
    410164c8:	c0402df3          	csrr	x27,hpmcounter4
    410164cc:	c05027f3          	csrr	x15,hpmcounter5
    410164d0:	c0602473          	csrr	x8,hpmcounter6
    410164d4:	c07025f3          	csrr	x11,hpmcounter7
    410164d8:	c08028f3          	csrr	x17,hpmcounter8
    410164dc:	c09024f3          	csrr	x9,hpmcounter9
    410164e0:	c0a024f3          	csrr	x9,hpmcounter10
    410164e4:	c0b02673          	csrr	x12,hpmcounter11
    410164e8:	c0c029f3          	csrr	x19,hpmcounter12
    410164ec:	c0d023f3          	csrr	x7,hpmcounter13
    410164f0:	c0e025f3          	csrr	x11,hpmcounter14
    410164f4:	c0f027f3          	csrr	x15,hpmcounter15
    410164f8:	c1002ff3          	csrr	x31,hpmcounter16
    410164fc:	c1102cf3          	csrr	x25,hpmcounter17
    41016500:	c12025f3          	csrr	x11,hpmcounter18
    41016504:	c1302773          	csrr	x14,hpmcounter19
    41016508:	c14027f3          	csrr	x15,hpmcounter20
    4101650c:	c1502f73          	csrr	x30,hpmcounter21
    41016510:	c1602b73          	csrr	x22,hpmcounter22
    41016514:	c1702773          	csrr	x14,hpmcounter23
    41016518:	c1802a73          	csrr	x20,hpmcounter24
    4101651c:	c1902a73          	csrr	x20,hpmcounter25
    41016520:	c1b02773          	csrr	x14,hpmcounter27
    41016524:	c1c026f3          	csrr	x13,hpmcounter28
    41016528:	c1d02c73          	csrr	x24,hpmcounter29
    4101652c:	c1e02e73          	csrr	x28,hpmcounter30
    41016530:	c1f02973          	csrr	x18,hpmcounter31
    41016534:	080003b7          	lui	x7,0x8000
    41016538:	30639473          	csrrw	x8,mcounteren,x7
    4101653c:	080007b7          	lui	x15,0x8000
    41016540:	10679af3          	csrrw	x21,scounteren,x15
    41016544:	c1b024f3          	csrr	x9,hpmcounter27
    41016548:	c0002e73          	rdcycle	x28
    4101654c:	c0102973          	rdtime	x18
    41016550:	c0202573          	rdinstret	x10
    41016554:	c0302cf3          	csrr	x25,hpmcounter3
    41016558:	c0402b73          	csrr	x22,hpmcounter4
    4101655c:	c0502673          	csrr	x12,hpmcounter5
    41016560:	c0602af3          	csrr	x21,hpmcounter6
    41016564:	c07029f3          	csrr	x19,hpmcounter7
    41016568:	c08028f3          	csrr	x17,hpmcounter8
    4101656c:	c09027f3          	csrr	x15,hpmcounter9
    41016570:	c0a02473          	csrr	x8,hpmcounter10
    41016574:	c0b02bf3          	csrr	x23,hpmcounter11
    41016578:	c0c02973          	csrr	x18,hpmcounter12
    4101657c:	c0d023f3          	csrr	x7,hpmcounter13
    41016580:	c0e028f3          	csrr	x17,hpmcounter14
    41016584:	c0f026f3          	csrr	x13,hpmcounter15
    41016588:	c1002973          	csrr	x18,hpmcounter16
    4101658c:	c1102373          	csrr	x6,hpmcounter17
    41016590:	c1202b73          	csrr	x22,hpmcounter18
    41016594:	c1302d73          	csrr	x26,hpmcounter19
    41016598:	c1402673          	csrr	x12,hpmcounter20
    4101659c:	c15029f3          	csrr	x19,hpmcounter21
    410165a0:	c1602d73          	csrr	x26,hpmcounter22
    410165a4:	c1702373          	csrr	x6,hpmcounter23
    410165a8:	c1802673          	csrr	x12,hpmcounter24
    410165ac:	c19029f3          	csrr	x19,hpmcounter25
    410165b0:	c1a02773          	csrr	x14,hpmcounter26
    410165b4:	c1c02773          	csrr	x14,hpmcounter28
    410165b8:	c1d028f3          	csrr	x17,hpmcounter29
    410165bc:	c1e027f3          	csrr	x15,hpmcounter30
    410165c0:	c1f02973          	csrr	x18,hpmcounter31
    410165c4:	10000637          	lui	x12,0x10000
    410165c8:	30661973          	csrrw	x18,mcounteren,x12
    410165cc:	10000eb7          	lui	x29,0x10000
    410165d0:	106e9ef3          	csrrw	x29,scounteren,x29
    410165d4:	c1c028f3          	csrr	x17,hpmcounter28
    410165d8:	c00028f3          	rdcycle	x17
    410165dc:	c0102b73          	rdtime	x22
    410165e0:	c0202473          	rdinstret	x8
    410165e4:	c0302e73          	csrr	x28,hpmcounter3
    410165e8:	c04025f3          	csrr	x11,hpmcounter4
    410165ec:	c0502373          	csrr	x6,hpmcounter5
    410165f0:	c0602af3          	csrr	x21,hpmcounter6
    410165f4:	c0702bf3          	csrr	x23,hpmcounter7
    410165f8:	c0802373          	csrr	x6,hpmcounter8
    410165fc:	c0902773          	csrr	x14,hpmcounter9
    41016600:	c0a02573          	csrr	x10,hpmcounter10
    41016604:	c0b02773          	csrr	x14,hpmcounter11
    41016608:	c0c02af3          	csrr	x21,hpmcounter12
    4101660c:	c0d02773          	csrr	x14,hpmcounter13
    41016610:	c0e02c73          	csrr	x24,hpmcounter14
    41016614:	c0f02573          	csrr	x10,hpmcounter15
    41016618:	c10023f3          	csrr	x7,hpmcounter16
    4101661c:	c1102f73          	csrr	x30,hpmcounter17
    41016620:	c12023f3          	csrr	x7,hpmcounter18
    41016624:	c1302873          	csrr	x16,hpmcounter19
    41016628:	c14027f3          	csrr	x15,hpmcounter20
    4101662c:	c1502373          	csrr	x6,hpmcounter21
    41016630:	c16023f3          	csrr	x7,hpmcounter22
    41016634:	c1702cf3          	csrr	x25,hpmcounter23
    41016638:	c1802473          	csrr	x8,hpmcounter24
    4101663c:	c19025f3          	csrr	x11,hpmcounter25
    41016640:	c1a02f73          	csrr	x30,hpmcounter26
    41016644:	c1b02473          	csrr	x8,hpmcounter27
    41016648:	c1d02ff3          	csrr	x31,hpmcounter29
    4101664c:	c1e02cf3          	csrr	x25,hpmcounter30
    41016650:	c1f025f3          	csrr	x11,hpmcounter31
    41016654:	20000d37          	lui	x26,0x20000
    41016658:	306d1ff3          	csrrw	x31,mcounteren,x26
    4101665c:	20000f37          	lui	x30,0x20000
    41016660:	106f1a73          	csrrw	x20,scounteren,x30
    41016664:	c1d024f3          	csrr	x9,hpmcounter29
    41016668:	c00028f3          	rdcycle	x17
    4101666c:	c01026f3          	rdtime	x13
    41016670:	c0202a73          	rdinstret	x20
    41016674:	c0302af3          	csrr	x21,hpmcounter3
    41016678:	c04025f3          	csrr	x11,hpmcounter4
    4101667c:	c0502af3          	csrr	x21,hpmcounter5
    41016680:	c0602b73          	csrr	x22,hpmcounter6
    41016684:	c0702e73          	csrr	x28,hpmcounter7
    41016688:	c0802d73          	csrr	x26,hpmcounter8
    4101668c:	c0902373          	csrr	x6,hpmcounter9
    41016690:	c0a02af3          	csrr	x21,hpmcounter10
    41016694:	c0b02673          	csrr	x12,hpmcounter11
    41016698:	c0c02d73          	csrr	x26,hpmcounter12
    4101669c:	c0d02ff3          	csrr	x31,hpmcounter13
    410166a0:	c0e02a73          	csrr	x20,hpmcounter14
    410166a4:	c0f02e73          	csrr	x28,hpmcounter15
    410166a8:	c1002773          	csrr	x14,hpmcounter16
    410166ac:	c1102ef3          	csrr	x29,hpmcounter17
    410166b0:	c12028f3          	csrr	x17,hpmcounter18
    410166b4:	c1302473          	csrr	x8,hpmcounter19
    410166b8:	c14027f3          	csrr	x15,hpmcounter20
    410166bc:	c1502df3          	csrr	x27,hpmcounter21
    410166c0:	c1602773          	csrr	x14,hpmcounter22
    410166c4:	c17023f3          	csrr	x7,hpmcounter23
    410166c8:	c1802773          	csrr	x14,hpmcounter24
    410166cc:	c19024f3          	csrr	x9,hpmcounter25
    410166d0:	c1a02973          	csrr	x18,hpmcounter26
    410166d4:	c1b026f3          	csrr	x13,hpmcounter27
    410166d8:	c1c02f73          	csrr	x30,hpmcounter28
    410166dc:	c1e02773          	csrr	x14,hpmcounter30
    410166e0:	c1f02ef3          	csrr	x29,hpmcounter31
    410166e4:	40000437          	lui	x8,0x40000
    410166e8:	30641773          	csrrw	x14,mcounteren,x8
    410166ec:	400008b7          	lui	x17,0x40000
    410166f0:	10689e73          	csrrw	x28,scounteren,x17
    410166f4:	c1e028f3          	csrr	x17,hpmcounter30
    410166f8:	c00029f3          	rdcycle	x19
    410166fc:	c0102c73          	rdtime	x24
    41016700:	c0202d73          	rdinstret	x26
    41016704:	c03023f3          	csrr	x7,hpmcounter3
    41016708:	c0402f73          	csrr	x30,hpmcounter4
    4101670c:	c0502e73          	csrr	x28,hpmcounter5
    41016710:	c06029f3          	csrr	x19,hpmcounter6
    41016714:	c0702ef3          	csrr	x29,hpmcounter7
    41016718:	c0802373          	csrr	x6,hpmcounter8
    4101671c:	c0902973          	csrr	x18,hpmcounter9
    41016720:	c0a02cf3          	csrr	x25,hpmcounter10
    41016724:	c0b02773          	csrr	x14,hpmcounter11
    41016728:	c0c028f3          	csrr	x17,hpmcounter12
    4101672c:	c0d023f3          	csrr	x7,hpmcounter13
    41016730:	c0e02973          	csrr	x18,hpmcounter14
    41016734:	c0f02af3          	csrr	x21,hpmcounter15
    41016738:	c10029f3          	csrr	x19,hpmcounter16
    4101673c:	c1102673          	csrr	x12,hpmcounter17
    41016740:	c12024f3          	csrr	x9,hpmcounter18
    41016744:	c13028f3          	csrr	x17,hpmcounter19
    41016748:	c1402b73          	csrr	x22,hpmcounter20
    4101674c:	c1502673          	csrr	x12,hpmcounter21
    41016750:	c1602773          	csrr	x14,hpmcounter22
    41016754:	c17025f3          	csrr	x11,hpmcounter23
    41016758:	c18023f3          	csrr	x7,hpmcounter24
    4101675c:	c19027f3          	csrr	x15,hpmcounter25
    41016760:	c1a02bf3          	csrr	x23,hpmcounter26
    41016764:	c1b02e73          	csrr	x28,hpmcounter27
    41016768:	c1c027f3          	csrr	x15,hpmcounter28
    4101676c:	c1d027f3          	csrr	x15,hpmcounter29
    41016770:	c1f02873          	csrr	x16,hpmcounter31
    41016774:	0010071b          	addiw	x14,x0,1
    41016778:	01f71713          	slli	x14,x14,0x1f
    4101677c:	306717f3          	csrrw	x15,mcounteren,x14
    41016780:	0010059b          	addiw	x11,x0,1
    41016784:	01f59593          	slli	x11,x11,0x1f
    41016788:	10659f73          	csrrw	x30,scounteren,x11
    4101678c:	c1f02e73          	csrr	x28,hpmcounter31
    41016790:	c0002e73          	rdcycle	x28
    41016794:	c0102af3          	rdtime	x21
    41016798:	c0202cf3          	rdinstret	x25
    4101679c:	c0302773          	csrr	x14,hpmcounter3
    410167a0:	c04027f3          	csrr	x15,hpmcounter4
    410167a4:	c0502873          	csrr	x16,hpmcounter5
    410167a8:	c0602e73          	csrr	x28,hpmcounter6
    410167ac:	c07026f3          	csrr	x13,hpmcounter7
    410167b0:	c0802a73          	csrr	x20,hpmcounter8
    410167b4:	c0902af3          	csrr	x21,hpmcounter9
    410167b8:	c0a02373          	csrr	x6,hpmcounter10
    410167bc:	c0b02c73          	csrr	x24,hpmcounter11
    410167c0:	c0c027f3          	csrr	x15,hpmcounter12
    410167c4:	c0d02b73          	csrr	x22,hpmcounter13
    410167c8:	c0e02373          	csrr	x6,hpmcounter14
    410167cc:	c0f02673          	csrr	x12,hpmcounter15
    410167d0:	c1002ff3          	csrr	x31,hpmcounter16
    410167d4:	c1102ff3          	csrr	x31,hpmcounter17
    410167d8:	c12029f3          	csrr	x19,hpmcounter18
    410167dc:	c1302c73          	csrr	x24,hpmcounter19
    410167e0:	c1402df3          	csrr	x27,hpmcounter20
    410167e4:	c15028f3          	csrr	x17,hpmcounter21
    410167e8:	c1602773          	csrr	x14,hpmcounter22
    410167ec:	c1702473          	csrr	x8,hpmcounter23
    410167f0:	c1802573          	csrr	x10,hpmcounter24
    410167f4:	c1902473          	csrr	x8,hpmcounter25
    410167f8:	c1a02df3          	csrr	x27,hpmcounter26
    410167fc:	c1b02b73          	csrr	x22,hpmcounter27
    41016800:	c1c02a73          	csrr	x20,hpmcounter28
    41016804:	c1d028f3          	csrr	x17,hpmcounter29
    41016808:	c1e023f3          	csrr	x7,hpmcounter30
    4101680c:	41216137          	lui	x2,0x41216
    41016810:	00013383          	ld	x7,0(x2) # 41216000 <tp_csr_storage>
    41016814:	306393f3          	csrrw	x7,mcounteren,x7
    41016818:	00813383          	ld	x7,8(x2)
    4101681c:	106393f3          	csrrw	x7,scounteren,x7

0000000041016820 <SID_XCOUNTEREN_06_M_passed>:
    41016820:	44db42b7          	lui	x5,0x44db4
    41016824:	0182829b          	addiw	x5,x5,24 # 44db4018 <os_passed_addr>
    41016828:	0002b303          	ld	x6,0(x5)
    4101682c:	00030067          	jr	x6 # 100000 <pma_region_0_size+0xc0000>

0000000041016830 <test_cleanup>:
    41016830:	44db42b7          	lui	x5,0x44db4
    41016834:	0182829b          	addiw	x5,x5,24 # 44db4018 <os_passed_addr>
    41016838:	0002b303          	ld	x6,0(x5)
    4101683c:	00030067          	jr	x6

0000000041016840 <local_test_failed>:
    41016840:	44db42b7          	lui	x5,0x44db4
    41016844:	0202829b          	addiw	x5,x5,32 # 44db4020 <os_failed_addr>
    41016848:	0002b303          	ld	x6,0(x5)
    4101684c:	00030067          	jr	x6

Disassembly of section .csr_machine_0:

0000000041214000 <csr_access_mcounteren_machine_key_3_write-0x30>:
    41214000:	44db4fb7          	lui	x31,0x44db4
    41214004:	0b8f8f9b          	addiw	x31,x31,184 # 44db40b8 <machine_csr_jump_table_flags>
    41214008:	000fbf83          	ld	x31,0(x31)
    4121400c:	00300293          	li	x5,3
    41214010:	025f8063          	beq	x31,x5,41214030 <csr_access_mcounteren_machine_key_3_write>
    41214014:	00100293          	li	x5,1
    41214018:	025f8063          	beq	x31,x5,41214038 <csr_access_mcounteren_machine_key_1_read>
    4121401c:	00400293          	li	x5,4
    41214020:	025f8063          	beq	x31,x5,41214040 <csr_access_scounteren_supervisor_key_4_write>
    41214024:	00200293          	li	x5,2
    41214028:	025f8063          	beq	x31,x5,41214048 <csr_access_scounteren_supervisor_key_2_read>
    4121402c:	0240006f          	j	41214050 <end_machine_label>

0000000041214030 <csr_access_mcounteren_machine_key_3_write>:
    41214030:	30639073          	csrw	mcounteren,x7
    41214034:	01c0006f          	j	41214050 <end_machine_label>

0000000041214038 <csr_access_mcounteren_machine_key_1_read>:
    41214038:	306023f3          	csrr	x7,mcounteren
    4121403c:	0140006f          	j	41214050 <end_machine_label>

0000000041214040 <csr_access_scounteren_supervisor_key_4_write>:
    41214040:	10639073          	csrw	scounteren,x7
    41214044:	00c0006f          	j	41214050 <end_machine_label>

0000000041214048 <csr_access_scounteren_supervisor_key_2_read>:
    41214048:	106023f3          	csrr	x7,scounteren
    4121404c:	0040006f          	j	41214050 <end_machine_label>

0000000041214050 <end_machine_label>:
    41214050:	000f0fb7          	lui	x31,0xf0
    41214054:	001f8f9b          	addiw	x31,x31,1 # f0001 <pma_region_0_size+0xb0001>
    41214058:	00cf9f93          	slli	x31,x31,0xc
    4121405c:	004f8f93          	addi	x31,x31,4
    41214060:	00000073          	ecall

Disassembly of section .csr_super_0:

0000000041215000 <end_super_label-0x10>:
    41215000:	44db4fb7          	lui	x31,0x44db4
    41215004:	0c0f8f9b          	addiw	x31,x31,192 # 44db40c0 <super_csr_jump_table_flags>
    41215008:	000fbf83          	ld	x31,0(x31)
    4121500c:	0040006f          	j	41215010 <end_super_label>

0000000041215010 <end_super_label>:
    41215010:	000f0fb7          	lui	x31,0xf0
    41215014:	001f8f9b          	addiw	x31,x31,1 # f0001 <pma_region_0_size+0xb0001>
    41215018:	00cf9f93          	slli	x31,x31,0xc
    4121501c:	004f8f93          	addi	x31,x31,4
    41215020:	00000073          	ecall

Disassembly of section .os_data:

0000000044db4000 <passed_addr_ptr>:
    44db4000:	40f0                	.insn	2, 0x40f0
    44db4002:	4101                	.insn	2, 0x4101
    44db4004:	0000                	.insn	2, 0x0000
	...

0000000044db4008 <failed_addr_ptr>:
    44db4008:	4100                	.insn	2, 0x4100
    44db400a:	4101                	.insn	2, 0x4101
    44db400c:	0000                	.insn	2, 0x0000
	...

0000000044db4010 <end_test_addr_ptr>:
    44db4010:	4110                	.insn	2, 0x4110
    44db4012:	4101                	.insn	2, 0x4101
    44db4014:	0000                	.insn	2, 0x0000
	...

0000000044db4018 <os_passed_addr_ptr>:
    44db4018:	0728                	.insn	2, 0x0728
    44db401a:	4100                	.insn	2, 0x4100
    44db401c:	0000                	.insn	2, 0x0000
	...

0000000044db4020 <os_failed_addr_ptr>:
    44db4020:	0738                	.insn	2, 0x0738
    44db4022:	4100                	.insn	2, 0x4100
    44db4024:	0000                	.insn	2, 0x0000
	...

0000000044db4028 <os_end_test_addr_ptr>:
    44db4028:	0744                	.insn	2, 0x0744
    44db402a:	4100                	.insn	2, 0x4100
    44db402c:	0000                	.insn	2, 0x0000
	...

0000000044db4030 <rvcp_prefix_str_data>:
    44db4030:	5652                	.insn	2, 0x5652
    44db4032:	203a5043          	fmadd.s	f0,f20,f3,f4,unknown
    44db4036:	6554                	.insn	2, 0x6554
    44db4038:	46207473          	csrrci	x8,0x462,0
    44db403c:	6c69                	.insn	2, 0x6c69
    44db403e:	2065                	.insn	2, 0x2065
	...

0000000044db4041 <rvcp_testname_str_data>:
    44db4041:	7074                	.insn	2, 0x7074
    44db4043:	7a5f 6369 746e      	.insn	6, 0x746e63697a5f
    44db4049:	5f72                	.insn	2, 0x5f72
    44db404b:	697a                	.insn	2, 0x697a
    44db404d:	7068                	.insn	2, 0x7068
    44db404f:	5f6d                	.insn	2, 0x5f6d
    44db4051:	6f637373          	csrrci	x6,0x6f6,6
    44db4055:	6e75                	.insn	2, 0x6e75
    44db4057:	6574                	.insn	2, 0x6574
    44db4059:	6572                	.insn	2, 0x6572
    44db405b:	776e                	.insn	2, 0x776e
    44db405d:	325f        	.insn	6, 0x53415000325f

0000000044db4060 <rvcp_passed_str_data>:
    44db4060:	4150                	.insn	2, 0x4150
    44db4062:	44455353          	fround.h	f6,f10,unknown
	...

0000000044db4067 <rvcp_failed_str_data>:
    44db4067:	4146                	.insn	2, 0x4146
    44db4069:	4c49                	.insn	2, 0x4c49
    44db406b:	4445                	.insn	2, 0x4445
	...

0000000044db406e <rvcp_space_str_data>:
    44db406e:	0020                	.insn	2, 0x0020

0000000044db4070 <rvcp_newline_str_data>:
    44db4070:	000a                	.insn	2, 0x000a
    44db4072:	0000                	.insn	2, 0x0000
    44db4074:	0000                	.insn	2, 0x0000
	...

0000000044db4078 <excp_ignored_count_mem>:
	...

0000000044db4080 <machine_flags_mem>:
	...

0000000044db4088 <user_flags_mem>:
	...

0000000044db4090 <super_flags_mem>:
	...

0000000044db4098 <machine_area_mem>:
	...

0000000044db40a0 <user_area_mem>:
	...

0000000044db40a8 <super_area_mem>:
	...

0000000044db40b0 <zero_data_mem>:
	...

0000000044db40b8 <machine_csr_jump_table_flags_mem>:
	...

0000000044db40c0 <super_csr_jump_table_flags_mem>:
	...

0000000044db40c8 <pte_access_flags_mem>:
	...

0000000044db40e0 <num_harts_ended_mem>:
	...

0000000044db40e8 <num_hard_fails_mem>:
	...

Disassembly of section .hart_context:

0000000044c40000 <hart_context_0>:
    44c40000:	9000                	.insn	2, 0x9000
    44c40002:	44da                	.insn	2, 0x44da
	...
    44c40018:	0001                	.insn	2, 0x0001
    44c4001a:	0000                	.insn	2, 0x0000
    44c4001c:	0000                	.insn	2, 0x0000
    44c4001e:	0000                	.insn	2, 0x0000
    44c40020:	ffff                	.insn	2, 0xffff
    44c40022:	ffff                	.insn	2, 0xffff
    44c40024:	ffff                	.insn	2, 0xffff
    44c40026:	ffff                	.insn	2, 0xffff
    44c40028:	ffff                	.insn	2, 0xffff
    44c4002a:	ffff                	.insn	2, 0xffff
    44c4002c:	ffff                	.insn	2, 0xffff
    44c4002e:	ffff                	.insn	2, 0xffff
    44c40030:	ffff                	.insn	2, 0xffff
    44c40032:	ffff                	.insn	2, 0xffff
    44c40034:	ffff                	.insn	2, 0xffff
    44c40036:	ffff                	.insn	2, 0xffff
	...
    44c40050:	00ff 0000 0000 0000 	.insn	10, 0x00ff00000000000000ff
    44c40058:	00ff 
	...
    44c40176:	0000                	.insn	2, 0x0000
    44c40178:	ffff                	.insn	2, 0xffff
    44c4017a:	ffff                	.insn	2, 0xffff
    44c4017c:	ffff                	.insn	2, 0xffff
    44c4017e:	ffff                	.insn	2, 0xffff
	...
    44c40188:	ffff                	.insn	2, 0xffff
    44c4018a:	ffff                	.insn	2, 0xffff
	...

Disassembly of section .hart_stack_0:

0000000044da8000 <hart_stack_0>:
	...

Disassembly of section .io_htif:

0000000041040000 <tohost>:
	...

0000000041040040 <fromhost>:
	...

Disassembly of section .tp_csr_storage:

0000000041216000 <.tp_csr_storage>:
    41216000:	c0de                	.insn	2, 0xc0de
    41216002:	c001                	.insn	2, 0xc001
    41216004:	0000                	.insn	2, 0x0000
	...

Disassembly of section .SID_XCOUNTEREN_01_M_stack:

0000000044dad000 <.SID_XCOUNTEREN_01_M_stack>:
    44dad000:	c0de                	.insn	2, 0xc0de
    44dad002:	c001                	.insn	2, 0xc001
    44dad004:	0000                	.insn	2, 0x0000
	...

Disassembly of section .SID_XCOUNTEREN_02_M_stack:

0000000045002000 <.SID_XCOUNTEREN_02_M_stack>:
    45002000:	c0de                	.insn	2, 0xc0de
    45002002:	c001                	.insn	2, 0xc001
    45002004:	0000                	.insn	2, 0x0000
	...

Disassembly of section .SID_XCOUNTEREN_03_M_stack:

0000000044dae000 <.SID_XCOUNTEREN_03_M_stack>:
    44dae000:	c0de                	.insn	2, 0xc0de
    44dae002:	c001                	.insn	2, 0xc001
    44dae004:	0000                	.insn	2, 0x0000
	...

Disassembly of section .SID_XCOUNTEREN_04_M_stack:

0000000044f56000 <.SID_XCOUNTEREN_04_M_stack>:
    44f56000:	c0de                	.insn	2, 0xc0de
    44f56002:	c001                	.insn	2, 0xc001
    44f56004:	0000                	.insn	2, 0x0000
	...

Disassembly of section .SID_XCOUNTEREN_05_M_stack:

0000000044daf000 <.SID_XCOUNTEREN_05_M_stack>:
    44daf000:	c0de                	.insn	2, 0xc0de
    44daf002:	c001                	.insn	2, 0xc001
    44daf004:	0000                	.insn	2, 0x0000
	...

Disassembly of section .SID_XCOUNTEREN_06_M_stack:

0000000044d1d000 <.SID_XCOUNTEREN_06_M_stack>:
    44d1d000:	c0de                	.insn	2, 0xc0de
    44d1d002:	c001                	.insn	2, 0xc001
    44d1d004:	0000                	.insn	2, 0x0000
	...
