
/home/abdullah/RiescueC/riescue/10x_R/zicond/testsuite/zicond/user_sv48/tp_zicond_2:     file format elf64-littleriscv


Disassembly of section .runtime:

0000000041000000 <_start>:
    41000000:	00000093          	li	x1,0
    41000004:	00000113          	li	x2,0
    41000008:	00000193          	li	x3,0
    4100000c:	00000213          	li	x4,0
    41000010:	00000293          	li	x5,0
    41000014:	00000313          	li	x6,0
    41000018:	00000393          	li	x7,0
    4100001c:	00000413          	li	x8,0
    41000020:	00000493          	li	x9,0
    41000024:	00000513          	li	x10,0
    41000028:	00000593          	li	x11,0
    4100002c:	00000613          	li	x12,0
    41000030:	00000693          	li	x13,0
    41000034:	00000713          	li	x14,0
    41000038:	00000793          	li	x15,0
    4100003c:	00000813          	li	x16,0
    41000040:	00000893          	li	x17,0
    41000044:	00000913          	li	x18,0
    41000048:	00000993          	li	x19,0
    4100004c:	00000a13          	li	x20,0
    41000050:	00000a93          	li	x21,0
    41000054:	00000b13          	li	x22,0
    41000058:	00000b93          	li	x23,0
    4100005c:	00000c13          	li	x24,0
    41000060:	00000c93          	li	x25,0
    41000064:	00000d13          	li	x26,0
    41000068:	00000d93          	li	x27,0
    4100006c:	00000e13          	li	x28,0
    41000070:	00000e93          	li	x29,0
    41000074:	00000f13          	li	x30,0
    41000078:	00000f93          	li	x31,0

000000004100007c <loader__load_panic_address>:
    4100007c:	00001297          	auipc	x5,0x1
    41000080:	9e828293          	addi	x5,x5,-1560 # 41000a64 <eot__failed>
    41000084:	30529073          	csrw	mtvec,x5

0000000041000088 <loader__initialize_runtime>:
    41000088:	00000293          	li	x5,0
    4100008c:	3012a2f3          	csrrs	x5,misa,x5

0000000041000090 <loader__set_mstatus>:
    41000090:	000402b7          	lui	x5,0x40
    41000094:	00a2829b          	addiw	x5,x5,10 # 4000a <pma_region_0_size+0xa>
    41000098:	3002a2f3          	csrrs	x5,mstatus,x5
    4100009c:	4469a237          	lui	x4,0x4469a
    410000a0:	34021073          	csrw	mscratch,x4

00000000410000a4 <loader__setup_menvcfg>:
    410000a4:	00000297          	auipc	x5,0x0
    410000a8:	4a828293          	addi	x5,x5,1192 # 4100054c <trap_handler_m__trap_entry>
    410000ac:	30529073          	csrw	mtvec,x5

00000000410000b0 <loader__enable_paging>:
    410000b0:	fffc80b7          	lui	x1,0xfffc8
    410000b4:	04d0809b          	addiw	x1,x1,77 # fffffffffffc804d <SID_EXCEP_04_2_1_MUX_SELECT_0_stack+0xffffe69dcd4d304d>
    410000b8:	01f09093          	slli	x1,x1,0x1f
    410000bc:	01108093          	addi	x1,x1,17
    410000c0:	00e09093          	slli	x1,x1,0xe
    410000c4:	61208093          	addi	x1,x1,1554
    410000c8:	18009073          	csrw	satp,x1

00000000410000cc <loader__done>:
    410000cc:	1c10006f          	j	41000a8c <scheduler__init>

00000000410000d0 <loader__panic>:
    410000d0:	1950006f          	j	41000a64 <eot__failed>

00000000410000d4 <syscalls__syscall_check_schedule_next_test>:
    410000d4:	00f0029b          	addiw	x5,x0,15
    410000d8:	01c29293          	slli	x5,x5,0x1c
    410000dc:	00128293          	addi	x5,x5,1
    410000e0:	01f29a63          	bne	x5,x31,410000f4 <syscalls__syscall_check_fail_test>
    410000e4:	00000317          	auipc	x6,0x0
    410000e8:	46830313          	addi	x6,x6,1128 # 4100054c <trap_handler_m__trap_entry>
    410000ec:	30531073          	csrw	mtvec,x6
    410000f0:	6a00006f          	j	41000790 <enter_scheduler>

00000000410000f4 <syscalls__syscall_check_fail_test>:
    410000f4:	00f0029b          	addiw	x5,x0,15
    410000f8:	01c29293          	slli	x5,x5,0x1c
    410000fc:	00228293          	addi	x5,x5,2
    41000100:	01f29a63          	bne	x5,x31,41000114 <syscalls__syscall_check_end_test_without_failure>
    41000104:	00000317          	auipc	x6,0x0
    41000108:	44830313          	addi	x6,x6,1096 # 4100054c <trap_handler_m__trap_entry>
    4100010c:	30531073          	csrw	mtvec,x6
    41000110:	6b00006f          	j	410007c0 <test_failed>

0000000041000114 <syscalls__syscall_check_end_test_without_failure>:
    41000114:	00f0029b          	addiw	x5,x0,15
    41000118:	01c29293          	slli	x5,x5,0x1c
    4100011c:	00328293          	addi	x5,x5,3
    41000120:	01f29a63          	bne	x5,x31,41000134 <syscalls__syscall_check_switch_machine_mode>
    41000124:	00000317          	auipc	x6,0x0
    41000128:	42830313          	addi	x6,x6,1064 # 4100054c <trap_handler_m__trap_entry>
    4100012c:	30531073          	csrw	mtvec,x6
    41000130:	69c0006f          	j	410007cc <os_end_test>

0000000041000134 <syscalls__syscall_check_switch_machine_mode>:
    41000134:	000f02b7          	lui	x5,0xf0
    41000138:	0012829b          	addiw	x5,x5,1 # f0001 <SID_EXCEP_04_NEZ_PASSING_AND_stack+0x7b001>
    4100013c:	00c29293          	slli	x5,x5,0xc
    41000140:	00128293          	addi	x5,x5,1
    41000144:	0a5f8463          	beq	x31,x5,410001ec <syscalls__os_fn_f0001001>

0000000041000148 <syscalls__syscall_check_switch_super_mode>:
    41000148:	000f02b7          	lui	x5,0xf0
    4100014c:	0012829b          	addiw	x5,x5,1 # f0001 <SID_EXCEP_04_NEZ_PASSING_AND_stack+0x7b001>
    41000150:	00c29293          	slli	x5,x5,0xc
    41000154:	00228293          	addi	x5,x5,2
    41000158:	0c5f8063          	beq	x31,x5,41000218 <syscalls__os_fn_f0001002>

000000004100015c <syscalls__syscall_check_switch_user_mode>:
    4100015c:	000f02b7          	lui	x5,0xf0
    41000160:	0012829b          	addiw	x5,x5,1 # f0001 <SID_EXCEP_04_NEZ_PASSING_AND_stack+0x7b001>
    41000164:	00c29293          	slli	x5,x5,0xc
    41000168:	00328293          	addi	x5,x5,3
    4100016c:	0c5f8e63          	beq	x31,x5,41000248 <syscalls__os_fn_f0001003>

0000000041000170 <syscalls__syscall_check_switch_test_mode>:
    41000170:	000f02b7          	lui	x5,0xf0
    41000174:	0012829b          	addiw	x5,x5,1 # f0001 <SID_EXCEP_04_NEZ_PASSING_AND_stack+0x7b001>
    41000178:	00c29293          	slli	x5,x5,0xc
    4100017c:	00428293          	addi	x5,x5,4
    41000180:	0c5f8863          	beq	x31,x5,41000250 <syscalls__os_fn_f0001004>

0000000041000184 <syscalls__syscall_machine_csr_rw>:
    41000184:	000f02b7          	lui	x5,0xf0
    41000188:	0012829b          	addiw	x5,x5,1 # f0001 <SID_EXCEP_04_NEZ_PASSING_AND_stack+0x7b001>
    4100018c:	00c29293          	slli	x5,x5,0xc
    41000190:	00528293          	addi	x5,x5,5
    41000194:	0e5f8263          	beq	x31,x5,41000278 <syscalls__os_fn_f0001005>

0000000041000198 <syscalls__syscall_supervisor_csr_rw>:
    41000198:	000f02b7          	lui	x5,0xf0
    4100019c:	0012829b          	addiw	x5,x5,1 # f0001 <SID_EXCEP_04_NEZ_PASSING_AND_stack+0x7b001>
    410001a0:	00c29293          	slli	x5,x5,0xc
    410001a4:	00628293          	addi	x5,x5,6
    410001a8:	0e5f8e63          	beq	x31,x5,410002a4 <syscalls__os_fn_f0001006>

00000000410001ac <syscalls__syscall_machine_pte_read>:
    410001ac:	000f02b7          	lui	x5,0xf0
    410001b0:	0012829b          	addiw	x5,x5,1 # f0001 <SID_EXCEP_04_NEZ_PASSING_AND_stack+0x7b001>
    410001b4:	00c29293          	slli	x5,x5,0xc
    410001b8:	00728293          	addi	x5,x5,7
    410001bc:	105f8c63          	beq	x31,x5,410002d4 <syscalls__os_fn_f0001007>

00000000410001c0 <syscalls__syscall_machine_pte_write>:
    410001c0:	000f02b7          	lui	x5,0xf0
    410001c4:	0012829b          	addiw	x5,x5,1 # f0001 <SID_EXCEP_04_NEZ_PASSING_AND_stack+0x7b001>
    410001c8:	00c29293          	slli	x5,x5,0xc
    410001cc:	00828293          	addi	x5,x5,8
    410001d0:	1e5f8863          	beq	x31,x5,410003c0 <syscalls__os_fn_f0001008>

00000000410001d4 <syscalls__syscall_check_get_hart_context>:
    410001d4:	000782b7          	lui	x5,0x78
    410001d8:	0012829b          	addiw	x5,x5,1 # 78001 <SID_EXCEP_04_NEZ_PASSING_AND_stack+0x3001>
    410001dc:	00d29293          	slli	x5,x5,0xd
    410001e0:	00128293          	addi	x5,x5,1
    410001e4:	2c5f8463          	beq	x31,x5,410004ac <syscalls__os_get_hart_context>
    410001e8:	4c00006f          	j	410006a8 <trap_handler_m__check_exception_label>

00000000410001ec <syscalls__os_fn_f0001001>:
    410001ec:	000022b7          	lui	x5,0x2
    410001f0:	8002829b          	addiw	x5,x5,-2048 # 1800 <pma_region_1_size+0x800>
    410001f4:	3002b073          	csrc	mstatus,x5
    410001f8:	000022b7          	lui	x5,0x2
    410001fc:	8002829b          	addiw	x5,x5,-2048 # 1800 <pma_region_1_size+0x800>
    41000200:	3002a073          	csrs	mstatus,x5
    41000204:	0010029b          	addiw	x5,x0,1
    41000208:	02729293          	slli	x5,x5,0x27
    4100020c:	3002b073          	csrc	mstatus,x5
    41000210:	411952b7          	lui	x5,0x41195
    41000214:	2a80006f          	j	410004bc <syscalls__ret_from_os_fn>

0000000041000218 <syscalls__os_fn_f0001002>:
    41000218:	000022b7          	lui	x5,0x2
    4100021c:	8002829b          	addiw	x5,x5,-2048 # 1800 <pma_region_1_size+0x800>
    41000220:	3002b073          	csrc	mstatus,x5
    41000224:	000012b7          	lui	x5,0x1
    41000228:	8002829b          	addiw	x5,x5,-2048 # 800 <XLEN+0x7c0>
    4100022c:	3002a073          	csrs	mstatus,x5
    41000230:	0010029b          	addiw	x5,x0,1
    41000234:	02729293          	slli	x5,x5,0x27
    41000238:	3002b073          	csrc	mstatus,x5
    4100023c:	12000073          	sfence.vma
    41000240:	410952b7          	lui	x5,0x41095
    41000244:	2780006f          	j	410004bc <syscalls__ret_from_os_fn>

0000000041000248 <syscalls__os_fn_f0001003>:
    41000248:	411152b7          	lui	x5,0x41115
    4100024c:	2700006f          	j	410004bc <syscalls__ret_from_os_fn>

0000000041000250 <syscalls__os_fn_f0001004>:
    41000250:	000022b7          	lui	x5,0x2
    41000254:	8002829b          	addiw	x5,x5,-2048 # 1800 <pma_region_1_size+0x800>
    41000258:	3002b073          	csrc	mstatus,x5
    4100025c:	00000293          	li	x5,0
    41000260:	3002a073          	csrs	mstatus,x5
    41000264:	0010029b          	addiw	x5,x0,1
    41000268:	02729293          	slli	x5,x5,0x27
    4100026c:	3002b073          	csrc	mstatus,x5
    41000270:	17823283          	ld	x5,376(x4) # 4469a178 <__section_hart_context+0x178>
    41000274:	2480006f          	j	410004bc <syscalls__ret_from_os_fn>

0000000041000278 <syscalls__os_fn_f0001005>:
    41000278:	000022b7          	lui	x5,0x2
    4100027c:	8002829b          	addiw	x5,x5,-2048 # 1800 <pma_region_1_size+0x800>
    41000280:	3002b073          	csrc	mstatus,x5
    41000284:	000022b7          	lui	x5,0x2
    41000288:	8002829b          	addiw	x5,x5,-2048 # 1800 <pma_region_1_size+0x800>
    4100028c:	3002a073          	csrs	mstatus,x5
    41000290:	0010029b          	addiw	x5,x0,1
    41000294:	02729293          	slli	x5,x5,0x27
    41000298:	3002b073          	csrc	mstatus,x5
    4100029c:	412152b7          	lui	x5,0x41215
    410002a0:	21c0006f          	j	410004bc <syscalls__ret_from_os_fn>

00000000410002a4 <syscalls__os_fn_f0001006>:
    410002a4:	000022b7          	lui	x5,0x2
    410002a8:	8002829b          	addiw	x5,x5,-2048 # 1800 <pma_region_1_size+0x800>
    410002ac:	3002b073          	csrc	mstatus,x5
    410002b0:	000012b7          	lui	x5,0x1
    410002b4:	8002829b          	addiw	x5,x5,-2048 # 800 <XLEN+0x7c0>
    410002b8:	3002a073          	csrs	mstatus,x5
    410002bc:	0010029b          	addiw	x5,x0,1
    410002c0:	02729293          	slli	x5,x5,0x27
    410002c4:	3002b073          	csrc	mstatus,x5
    410002c8:	12000073          	sfence.vma
    410002cc:	412162b7          	lui	x5,0x41216
    410002d0:	1ec0006f          	j	410004bc <syscalls__ret_from_os_fn>

00000000410002d4 <syscalls__os_fn_f0001007>:
    410002d4:	43aacfb7          	lui	x31,0x43aac
    410002d8:	0b0f8f9b          	addiw	x31,x31,176 # 43aac0b0 <pte_access_flags_pa>
    410002dc:	000fbf83          	ld	x31,0(x31)
    410002e0:	43aac2b7          	lui	x5,0x43aac
    410002e4:	0b82829b          	addiw	x5,x5,184 # 43aac0b8 <pte_access_flags_pa+0x8>
    410002e8:	0002b283          	ld	x5,0(x5)
    410002ec:	43aace37          	lui	x28,0x43aac
    410002f0:	0c0e0e1b          	addiw	x28,x28,192 # 43aac0c0 <pte_access_flags_pa+0x10>
    410002f4:	000e3e03          	ld	x28,0(x28)

00000000410002f8 <syscalls__pte_walk_check_glevel_without_gstage_read>:
    410002f8:	fff00f93          	li	x31,-1
    410002fc:	0dfe1063          	bne	x28,x31,410003bc <syscalls__pte_walk_fail_read>
    41000300:	18002373          	csrr	x6,satp
    41000304:	03c35e93          	srli	x29,x6,0x3c
    41000308:	01431313          	slli	x6,x6,0x14
    4100030c:	01435313          	srli	x6,x6,0x14
    41000310:	00c31313          	slli	x6,x6,0xc
    41000314:	ff8e8e93          	addi	x29,x29,-8
    41000318:	003e9f13          	slli	x30,x29,0x3
    4100031c:	01df0eb3          	add	x29,x30,x29
    41000320:	01ee8e93          	addi	x29,x29,30
    41000324:	00000f13          	li	x30,0

0000000041000328 <syscalls__pte_walk_loop_read>:
    41000328:	43aacfb7          	lui	x31,0x43aac
    4100032c:	0b0f8f9b          	addiw	x31,x31,176 # 43aac0b0 <pte_access_flags_pa>
    41000330:	000fbf83          	ld	x31,0(x31)
    41000334:	01dfdfb3          	srl	x31,x31,x29
    41000338:	1fffff93          	andi	x31,x31,511
    4100033c:	003f9f93          	slli	x31,x31,0x3
    41000340:	01f30333          	add	x6,x6,x31
    41000344:	005f0e63          	beq	x30,x5,41000360 <syscalls__pte_walk_done_read>
    41000348:	00033f83          	ld	x31,0(x6)
    4100034c:	00afdf93          	srli	x31,x31,0xa
    41000350:	00cf9313          	slli	x6,x31,0xc
    41000354:	001f0f13          	addi	x30,x30,1
    41000358:	ff7e8e93          	addi	x29,x29,-9
    4100035c:	fcdff06f          	j	41000328 <syscalls__pte_walk_loop_read>

0000000041000360 <syscalls__pte_walk_done_read>:
    41000360:	fff00f93          	li	x31,-1
    41000364:	05fe0263          	beq	x28,x31,410003a8 <syscalls__pte_walk_final_read>

0000000041000368 <syscalls__pte_walk_gstage_read>:
    41000368:	43aacfb7          	lui	x31,0x43aac
    4100036c:	0b0f8f9b          	addiw	x31,x31,176 # 43aac0b0 <pte_access_flags_pa>
    41000370:	006fb023          	sd	x6,0(x31)
    41000374:	000e0293          	mv	x5,x28
    41000378:	fff00e13          	li	x28,-1
    4100037c:	68002373          	csrr	x6,hgatp
    41000380:	03c35e93          	srli	x29,x6,0x3c
    41000384:	01431313          	slli	x6,x6,0x14
    41000388:	01435313          	srli	x6,x6,0x14
    4100038c:	00c31313          	slli	x6,x6,0xc
    41000390:	ff8e8e93          	addi	x29,x29,-8
    41000394:	003e9f13          	slli	x30,x29,0x3
    41000398:	01df0eb3          	add	x29,x30,x29
    4100039c:	01ee8e93          	addi	x29,x29,30
    410003a0:	00000f13          	li	x30,0
    410003a4:	f85ff06f          	j	41000328 <syscalls__pte_walk_loop_read>

00000000410003a8 <syscalls__pte_walk_final_read>:
    410003a8:	00033383          	ld	x7,0(x6)
    410003ac:	341022f3          	csrr	x5,mepc
    410003b0:	00428293          	addi	x5,x5,4
    410003b4:	16523c23          	sd	x5,376(x4) # 178 <XLEN+0x138>
    410003b8:	e99ff06f          	j	41000250 <syscalls__os_fn_f0001004>

00000000410003bc <syscalls__pte_walk_fail_read>:
    410003bc:	4040006f          	j	410007c0 <test_failed>

00000000410003c0 <syscalls__os_fn_f0001008>:
    410003c0:	43aacfb7          	lui	x31,0x43aac
    410003c4:	0b0f8f9b          	addiw	x31,x31,176 # 43aac0b0 <pte_access_flags_pa>
    410003c8:	000fbf83          	ld	x31,0(x31)
    410003cc:	43aac2b7          	lui	x5,0x43aac
    410003d0:	0b82829b          	addiw	x5,x5,184 # 43aac0b8 <pte_access_flags_pa+0x8>
    410003d4:	0002b283          	ld	x5,0(x5)
    410003d8:	43aace37          	lui	x28,0x43aac
    410003dc:	0c0e0e1b          	addiw	x28,x28,192 # 43aac0c0 <pte_access_flags_pa+0x10>
    410003e0:	000e3e03          	ld	x28,0(x28)

00000000410003e4 <syscalls__pte_walk_check_glevel_without_gstage_write>:
    410003e4:	fff00f93          	li	x31,-1
    410003e8:	0dfe1063          	bne	x28,x31,410004a8 <syscalls__pte_walk_fail_write>
    410003ec:	18002373          	csrr	x6,satp
    410003f0:	03c35e93          	srli	x29,x6,0x3c
    410003f4:	01431313          	slli	x6,x6,0x14
    410003f8:	01435313          	srli	x6,x6,0x14
    410003fc:	00c31313          	slli	x6,x6,0xc
    41000400:	ff8e8e93          	addi	x29,x29,-8
    41000404:	003e9f13          	slli	x30,x29,0x3
    41000408:	01df0eb3          	add	x29,x30,x29
    4100040c:	01ee8e93          	addi	x29,x29,30
    41000410:	00000f13          	li	x30,0

0000000041000414 <syscalls__pte_walk_loop_write>:
    41000414:	43aacfb7          	lui	x31,0x43aac
    41000418:	0b0f8f9b          	addiw	x31,x31,176 # 43aac0b0 <pte_access_flags_pa>
    4100041c:	000fbf83          	ld	x31,0(x31)
    41000420:	01dfdfb3          	srl	x31,x31,x29
    41000424:	1fffff93          	andi	x31,x31,511
    41000428:	003f9f93          	slli	x31,x31,0x3
    4100042c:	01f30333          	add	x6,x6,x31
    41000430:	005f0e63          	beq	x30,x5,4100044c <syscalls__pte_walk_done_write>
    41000434:	00033f83          	ld	x31,0(x6)
    41000438:	00afdf93          	srli	x31,x31,0xa
    4100043c:	00cf9313          	slli	x6,x31,0xc
    41000440:	001f0f13          	addi	x30,x30,1
    41000444:	ff7e8e93          	addi	x29,x29,-9
    41000448:	fcdff06f          	j	41000414 <syscalls__pte_walk_loop_write>

000000004100044c <syscalls__pte_walk_done_write>:
    4100044c:	fff00f93          	li	x31,-1
    41000450:	05fe0263          	beq	x28,x31,41000494 <syscalls__pte_walk_final_write>

0000000041000454 <syscalls__pte_walk_gstage_write>:
    41000454:	43aacfb7          	lui	x31,0x43aac
    41000458:	0b0f8f9b          	addiw	x31,x31,176 # 43aac0b0 <pte_access_flags_pa>
    4100045c:	006fb023          	sd	x6,0(x31)
    41000460:	000e0293          	mv	x5,x28
    41000464:	fff00e13          	li	x28,-1
    41000468:	68002373          	csrr	x6,hgatp
    4100046c:	03c35e93          	srli	x29,x6,0x3c
    41000470:	01431313          	slli	x6,x6,0x14
    41000474:	01435313          	srli	x6,x6,0x14
    41000478:	00c31313          	slli	x6,x6,0xc
    4100047c:	ff8e8e93          	addi	x29,x29,-8
    41000480:	003e9f13          	slli	x30,x29,0x3
    41000484:	01df0eb3          	add	x29,x30,x29
    41000488:	01ee8e93          	addi	x29,x29,30
    4100048c:	00000f13          	li	x30,0
    41000490:	f85ff06f          	j	41000414 <syscalls__pte_walk_loop_write>

0000000041000494 <syscalls__pte_walk_final_write>:
    41000494:	00733023          	sd	x7,0(x6)
    41000498:	341022f3          	csrr	x5,mepc
    4100049c:	00428293          	addi	x5,x5,4
    410004a0:	16523c23          	sd	x5,376(x4) # 178 <XLEN+0x138>
    410004a4:	dadff06f          	j	41000250 <syscalls__os_fn_f0001004>

00000000410004a8 <syscalls__pte_walk_fail_write>:
    410004a8:	3180006f          	j	410007c0 <test_failed>

00000000410004ac <syscalls__os_get_hart_context>:
    410004ac:	14002573          	csrr	x10,sscratch
    410004b0:	341022f3          	csrr	x5,mepc
    410004b4:	00428293          	addi	x5,x5,4
    410004b8:	0040006f          	j	410004bc <syscalls__ret_from_os_fn>

00000000410004bc <syscalls__ret_from_os_fn>:
    410004bc:	34102373          	csrr	x6,mepc
    410004c0:	00430313          	addi	x6,x6,4
    410004c4:	16623c23          	sd	x6,376(x4) # 178 <XLEN+0x138>
    410004c8:	34129073          	csrw	mepc,x5
    410004cc:	fff00f93          	li	x31,-1
    410004d0:	2a40006f          	j	41000774 <trap_handler_m__skip_xepc_write>

00000000410004d4 <trap_handler_m__invalid_interrupt>:
    410004d4:	2ec0006f          	j	410007c0 <test_failed>

00000000410004d8 <trap_handler_m__clear_all_interrupts>:
    410004d8:	34401073          	csrw	mip,x0
    410004dc:	30200073          	mret

00000000410004e0 <trap_handler_m___CLEAR_SSI>:
    410004e0:	00200293          	li	x5,2
    410004e4:	3442b073          	csrc	mip,x5
    410004e8:	30200073          	mret

00000000410004ec <trap_handler_m___CLEAR_MSI>:
    410004ec:	00800293          	li	x5,8
    410004f0:	3442b073          	csrc	mip,x5
    410004f4:	30200073          	mret

00000000410004f8 <trap_handler_m___CLEAR_STI>:
    410004f8:	02000293          	li	x5,32
    410004fc:	3442b073          	csrc	mip,x5
    41000500:	30200073          	mret

0000000041000504 <trap_handler_m___CLEAR_MTI>:
    41000504:	08000293          	li	x5,128
    41000508:	3442b073          	csrc	mip,x5
    4100050c:	30200073          	mret

0000000041000510 <trap_handler_m___CLEAR_SEI>:
    41000510:	20000293          	li	x5,512
    41000514:	3442b073          	csrc	mip,x5
    41000518:	30200073          	mret

000000004100051c <trap_handler_m___CLEAR_MEI>:
    4100051c:	000012b7          	lui	x5,0x1
    41000520:	8002829b          	addiw	x5,x5,-2048 # 800 <XLEN+0x7c0>
    41000524:	3442b073          	csrc	mip,x5
    41000528:	30200073          	mret

000000004100052c <trap_handler_m___CLEAR_COI>:
    4100052c:	000022b7          	lui	x5,0x2
    41000530:	3442b073          	csrc	mip,x5
    41000534:	30200073          	mret

0000000041000538 <trap_handler_m__clear_highest_priority_interrupt>:
    41000538:	344022f3          	csrr	x5,mip
    4100053c:	40500333          	neg	x6,x5
    41000540:	0062f2b3          	and	x5,x5,x6
    41000544:	3442b073          	csrc	mip,x5
    41000548:	30200073          	mret

000000004100054c <trap_handler_m__trap_entry>:
    4100054c:	0fc0006f          	j	41000648 <trap_handler_m__trap_handler>

0000000041000550 <trap_handler_m__interrupt_vector_table>:
    41000550:	f91ff06f          	j	410004e0 <trap_handler_m___CLEAR_SSI>
    41000554:	f81ff06f          	j	410004d4 <trap_handler_m__invalid_interrupt>
    41000558:	f95ff06f          	j	410004ec <trap_handler_m___CLEAR_MSI>
    4100055c:	f79ff06f          	j	410004d4 <trap_handler_m__invalid_interrupt>
    41000560:	f99ff06f          	j	410004f8 <trap_handler_m___CLEAR_STI>
    41000564:	f71ff06f          	j	410004d4 <trap_handler_m__invalid_interrupt>
    41000568:	f9dff06f          	j	41000504 <trap_handler_m___CLEAR_MTI>
    4100056c:	f69ff06f          	j	410004d4 <trap_handler_m__invalid_interrupt>
    41000570:	fa1ff06f          	j	41000510 <trap_handler_m___CLEAR_SEI>
    41000574:	f61ff06f          	j	410004d4 <trap_handler_m__invalid_interrupt>
    41000578:	fa5ff06f          	j	4100051c <trap_handler_m___CLEAR_MEI>
    4100057c:	f59ff06f          	j	410004d4 <trap_handler_m__invalid_interrupt>
    41000580:	fadff06f          	j	4100052c <trap_handler_m___CLEAR_COI>
    41000584:	f51ff06f          	j	410004d4 <trap_handler_m__invalid_interrupt>
    41000588:	f4dff06f          	j	410004d4 <trap_handler_m__invalid_interrupt>
    4100058c:	fadff06f          	j	41000538 <trap_handler_m__clear_highest_priority_interrupt>
    41000590:	fa9ff06f          	j	41000538 <trap_handler_m__clear_highest_priority_interrupt>
    41000594:	fa5ff06f          	j	41000538 <trap_handler_m__clear_highest_priority_interrupt>
    41000598:	fa1ff06f          	j	41000538 <trap_handler_m__clear_highest_priority_interrupt>
    4100059c:	f9dff06f          	j	41000538 <trap_handler_m__clear_highest_priority_interrupt>
    410005a0:	f99ff06f          	j	41000538 <trap_handler_m__clear_highest_priority_interrupt>
    410005a4:	f95ff06f          	j	41000538 <trap_handler_m__clear_highest_priority_interrupt>
    410005a8:	f91ff06f          	j	41000538 <trap_handler_m__clear_highest_priority_interrupt>
    410005ac:	f8dff06f          	j	41000538 <trap_handler_m__clear_highest_priority_interrupt>
    410005b0:	f89ff06f          	j	41000538 <trap_handler_m__clear_highest_priority_interrupt>
    410005b4:	f85ff06f          	j	41000538 <trap_handler_m__clear_highest_priority_interrupt>
    410005b8:	f81ff06f          	j	41000538 <trap_handler_m__clear_highest_priority_interrupt>
    410005bc:	f7dff06f          	j	41000538 <trap_handler_m__clear_highest_priority_interrupt>
    410005c0:	f79ff06f          	j	41000538 <trap_handler_m__clear_highest_priority_interrupt>
    410005c4:	f75ff06f          	j	41000538 <trap_handler_m__clear_highest_priority_interrupt>
    410005c8:	f71ff06f          	j	41000538 <trap_handler_m__clear_highest_priority_interrupt>
    410005cc:	f6dff06f          	j	41000538 <trap_handler_m__clear_highest_priority_interrupt>
    410005d0:	f69ff06f          	j	41000538 <trap_handler_m__clear_highest_priority_interrupt>
    410005d4:	f65ff06f          	j	41000538 <trap_handler_m__clear_highest_priority_interrupt>
    410005d8:	f61ff06f          	j	41000538 <trap_handler_m__clear_highest_priority_interrupt>
    410005dc:	f5dff06f          	j	41000538 <trap_handler_m__clear_highest_priority_interrupt>
    410005e0:	f59ff06f          	j	41000538 <trap_handler_m__clear_highest_priority_interrupt>
    410005e4:	f55ff06f          	j	41000538 <trap_handler_m__clear_highest_priority_interrupt>
    410005e8:	f51ff06f          	j	41000538 <trap_handler_m__clear_highest_priority_interrupt>
    410005ec:	f4dff06f          	j	41000538 <trap_handler_m__clear_highest_priority_interrupt>
    410005f0:	f49ff06f          	j	41000538 <trap_handler_m__clear_highest_priority_interrupt>
    410005f4:	f45ff06f          	j	41000538 <trap_handler_m__clear_highest_priority_interrupt>
    410005f8:	f41ff06f          	j	41000538 <trap_handler_m__clear_highest_priority_interrupt>
    410005fc:	f3dff06f          	j	41000538 <trap_handler_m__clear_highest_priority_interrupt>
    41000600:	f39ff06f          	j	41000538 <trap_handler_m__clear_highest_priority_interrupt>
    41000604:	f35ff06f          	j	41000538 <trap_handler_m__clear_highest_priority_interrupt>
    41000608:	f31ff06f          	j	41000538 <trap_handler_m__clear_highest_priority_interrupt>
    4100060c:	f2dff06f          	j	41000538 <trap_handler_m__clear_highest_priority_interrupt>
    41000610:	f29ff06f          	j	41000538 <trap_handler_m__clear_highest_priority_interrupt>
    41000614:	f25ff06f          	j	41000538 <trap_handler_m__clear_highest_priority_interrupt>
    41000618:	f21ff06f          	j	41000538 <trap_handler_m__clear_highest_priority_interrupt>
    4100061c:	f1dff06f          	j	41000538 <trap_handler_m__clear_highest_priority_interrupt>
    41000620:	f19ff06f          	j	41000538 <trap_handler_m__clear_highest_priority_interrupt>
    41000624:	f15ff06f          	j	41000538 <trap_handler_m__clear_highest_priority_interrupt>
    41000628:	f11ff06f          	j	41000538 <trap_handler_m__clear_highest_priority_interrupt>
    4100062c:	f0dff06f          	j	41000538 <trap_handler_m__clear_highest_priority_interrupt>
    41000630:	f09ff06f          	j	41000538 <trap_handler_m__clear_highest_priority_interrupt>
    41000634:	f05ff06f          	j	41000538 <trap_handler_m__clear_highest_priority_interrupt>
    41000638:	f01ff06f          	j	41000538 <trap_handler_m__clear_highest_priority_interrupt>
    4100063c:	efdff06f          	j	41000538 <trap_handler_m__clear_highest_priority_interrupt>
    41000640:	ef9ff06f          	j	41000538 <trap_handler_m__clear_highest_priority_interrupt>
    41000644:	ef5ff06f          	j	41000538 <trap_handler_m__clear_highest_priority_interrupt>

0000000041000648 <trap_handler_m__trap_handler>:
    41000648:	342022f3          	csrr	x5,mcause
    4100064c:	fff0031b          	addiw	x6,x0,-1
    41000650:	03f31313          	slli	x6,x6,0x3f
    41000654:	00537333          	and	x6,x6,x5
    41000658:	02030263          	beqz	x6,4100067c <trap_handler_m__exception_path>

000000004100065c <trap_handler_m__interrupt_handler>:
    4100065c:	fff0031b          	addiw	x6,x0,-1
    41000660:	03f31313          	slli	x6,x6,0x3f
    41000664:	0062c2b3          	xor	x5,x5,x6
    41000668:	00000317          	auipc	x6,0x0
    4100066c:	ee430313          	addi	x6,x6,-284 # 4100054c <trap_handler_m__trap_entry>
    41000670:	00229293          	slli	x5,x5,0x2
    41000674:	005302b3          	add	x5,x6,x5
    41000678:	00028067          	jr	x5 # 2000 <SID_EXCEP_02_NEZ_RS1_Z_stack>

000000004100067c <trap_handler_m__exception_path>:
    4100067c:	34021273          	csrrw	x4,mscratch,x4
    41000680:	00000297          	auipc	x5,0x0
    41000684:	10828293          	addi	x5,x5,264 # 41000788 <trap_handler_m__trap_panic>
    41000688:	30529073          	csrw	mtvec,x5
    4100068c:	0040006f          	j	41000690 <trap_handler_m__excp_entry>

0000000041000690 <trap_handler_m__excp_entry>:
    41000690:	34202373          	csrr	x6,mcause
    41000694:	00800293          	li	x5,8
    41000698:	00534863          	blt	x6,x5,410006a8 <trap_handler_m__check_exception_label>
    4100069c:	00b00293          	li	x5,11
    410006a0:	0062c463          	blt	x5,x6,410006a8 <trap_handler_m__check_exception_label>
    410006a4:	a31ff06f          	j	410000d4 <syscalls__syscall_check_schedule_next_test>

00000000410006a8 <trap_handler_m__check_exception_label>:
    410006a8:	04623c23          	sd	x6,88(x4) # 58 <XLEN+0x18>
    410006ac:	341022f3          	csrr	x5,mepc
    410006b0:	02523423          	sd	x5,40(x4) # 28 <SECURE_ACCESS_PROBABILITY+0xa>
    410006b4:	01820283          	lb	x5,24(x4) # 18 <STORE_GUEST_PAGE_FAULT+0x1>
    410006b8:	00029863          	bnez	x5,410006c8 <trap_handler_m__check_excp>
    410006bc:	00128293          	addi	x5,x5,1
    410006c0:	00520c23          	sb	x5,24(x4) # 18 <STORE_GUEST_PAGE_FAULT+0x1>
    410006c4:	0980006f          	j	4100075c <trap_handler_m__ecall_from_machine>

00000000410006c8 <trap_handler_m__check_excp>:
    410006c8:	06823283          	ld	x5,104(x4) # 68 <XLEN+0x28>
    410006cc:	06023423          	sd	x0,104(x4) # 68 <XLEN+0x28>
    410006d0:	00028663          	beqz	x5,410006dc <trap_handler_m__skip_mode_check>
    410006d4:	00100393          	li	x7,1
    410006d8:	0e729463          	bne	x5,x7,410007c0 <test_failed>

00000000410006dc <trap_handler_m__skip_mode_check>:
    410006dc:	05023283          	ld	x5,80(x4) # 50 <XLEN+0x10>
    410006e0:	04023823          	sd	x0,80(x4) # 50 <XLEN+0x10>
    410006e4:	0c531e63          	bne	x6,x5,410007c0 <test_failed>
    410006e8:	03823283          	ld	x5,56(x4) # 38 <SECURE_ACCESS_PROBABILITY+0x1a>
    410006ec:	02023c23          	sd	x0,56(x4) # 38 <SECURE_ACCESS_PROBABILITY+0x1a>
    410006f0:	06029463          	bnez	x5,41000758 <trap_handler_m__skip_gva_check>
    410006f4:	02023303          	ld	x6,32(x4) # 20 <SECURE_ACCESS_PROBABILITY+0x2>
    410006f8:	02023023          	sd	x0,32(x4) # 20 <SECURE_ACCESS_PROBABILITY+0x2>
    410006fc:	02823283          	ld	x5,40(x4) # 28 <SECURE_ACCESS_PROBABILITY+0xa>
    41000700:	02023423          	sd	x0,40(x4) # 28 <SECURE_ACCESS_PROBABILITY+0xa>
    41000704:	0a531e63          	bne	x6,x5,410007c0 <test_failed>
    41000708:	04023283          	ld	x5,64(x4) # 40 <XLEN>
    4100070c:	04023023          	sd	x0,64(x4) # 40 <XLEN>
    41000710:	00028663          	beqz	x5,4100071c <trap_handler_m__skip_nonzero_tval_check>

0000000041000714 <trap_handler_m__nonzero_tval_check>:
    41000714:	34302373          	csrr	x6,mtval
    41000718:	0a531463          	bne	x6,x5,410007c0 <test_failed>

000000004100071c <trap_handler_m__skip_nonzero_tval_check>:
    4100071c:	04823283          	ld	x5,72(x4) # 48 <XLEN+0x8>
    41000720:	04023423          	sd	x0,72(x4) # 48 <XLEN+0x8>
    41000724:	00028663          	beqz	x5,41000730 <trap_handler_m__skip_nonzero_htval_check>

0000000041000728 <trap_handler_m__nonzero_htval_check>:
    41000728:	34b02373          	csrr	x6,0x34b
    4100072c:	08531a63          	bne	x6,x5,410007c0 <test_failed>

0000000041000730 <trap_handler_m__skip_nonzero_htval_check>:
    41000730:	06023283          	ld	x5,96(x4) # 60 <XLEN+0x20>
    41000734:	06023023          	sd	x0,96(x4) # 60 <XLEN+0x20>
    41000738:	02028063          	beqz	x5,41000758 <trap_handler_m__skip_gva_check>

000000004100073c <trap_handler_m__gva_check>:
    4100073c:	30002373          	csrr	x6,mstatus
    41000740:	02635313          	srli	x6,x6,0x26
    41000744:	00137313          	andi	x6,x6,1
    41000748:	06030c63          	beqz	x6,410007c0 <test_failed>
    4100074c:	0010031b          	addiw	x6,x0,1
    41000750:	02631313          	slli	x6,x6,0x26
    41000754:	30033073          	csrc	mstatus,x6

0000000041000758 <trap_handler_m__skip_gva_check>:
    41000758:	0040006f          	j	4100075c <trap_handler_m__ecall_from_machine>

000000004100075c <trap_handler_m__ecall_from_machine>:
    4100075c:	03023283          	ld	x5,48(x4) # 30 <SECURE_ACCESS_PROBABILITY+0x12>
    41000760:	02023823          	sd	x0,48(x4) # 30 <SECURE_ACCESS_PROBABILITY+0x12>
    41000764:	07023303          	ld	x6,112(x4) # 70 <XLEN+0x30>
    41000768:	06023823          	sd	x0,112(x4) # 70 <XLEN+0x30>
    4100076c:	00031463          	bnez	x6,41000774 <trap_handler_m__skip_xepc_write>
    41000770:	34129073          	csrw	mepc,x5

0000000041000774 <trap_handler_m__skip_xepc_write>:
    41000774:	00000317          	auipc	x6,0x0
    41000778:	dd830313          	addi	x6,x6,-552 # 4100054c <trap_handler_m__trap_entry>
    4100077c:	30531073          	csrw	mtvec,x6
    41000780:	34021273          	csrrw	x4,mscratch,x4
    41000784:	30200073          	mret

0000000041000788 <trap_handler_m__trap_panic>:
    41000788:	00000193          	li	x3,0
    4100078c:	2b40006f          	j	41000a40 <eot__end_test>

0000000041000790 <enter_scheduler>:
    41000790:	0002f337          	lui	x6,0x2f
    41000794:	ab73031b          	addiw	x6,x6,-1353 # 2eab7 <SID_EXCEP_01_EQZ_RS1_NZ_stack+0x11ab7>
    41000798:	00e31313          	slli	x6,x6,0xe
    4100079c:	0de30313          	addi	x6,x6,222
    410007a0:	02628063          	beq	x5,x6,410007c0 <test_failed>
    410007a4:	00000513          	li	x10,0
    410007a8:	030000ef          	jal	410007d8 <rvcp_print_test_result>
    410007ac:	3180006f          	j	41000ac4 <scheduler__dispatch>

00000000410007b0 <test_passed>:
    410007b0:	34021273          	csrrw	x4,mscratch,x4
    410007b4:	00000513          	li	x10,0
    410007b8:	020000ef          	jal	410007d8 <rvcp_print_test_result>
    410007bc:	3080006f          	j	41000ac4 <scheduler__dispatch>

00000000410007c0 <test_failed>:
    410007c0:	34021273          	csrrw	x4,mscratch,x4
    410007c4:	00300193          	li	x3,3
    410007c8:	2780006f          	j	41000a40 <eot__end_test>

00000000410007cc <os_end_test>:
    410007cc:	34021273          	csrrw	x4,mscratch,x4
    410007d0:	00100193          	li	x3,1
    410007d4:	26c0006f          	j	41000a40 <eot__end_test>

00000000410007d8 <rvcp_print_test_result>:
    410007d8:	00050e13          	mv	x28,x10
    410007dc:	18823283          	ld	x5,392(x4) # 188 <XLEN+0x148>
    410007e0:	0010031b          	addiw	x6,x0,1
    410007e4:	02031313          	slli	x6,x6,0x20
    410007e8:	ffe30313          	addi	x6,x6,-2
    410007ec:	1c628063          	beq	x5,x6,410009ac <rvcp_print_test_result+0x1d4>
    410007f0:	0010031b          	addiw	x6,x0,1
    410007f4:	02031313          	slli	x6,x6,0x20
    410007f8:	fff30313          	addi	x6,x6,-1
    410007fc:	1a628863          	beq	x5,x6,410009ac <rvcp_print_test_result+0x1d4>
    41000800:	1a02c663          	bltz	x5,410009ac <rvcp_print_test_result+0x1d4>
    41000804:	00000317          	auipc	x6,0x0
    41000808:	5d830313          	addi	x6,x6,1496 # 41000ddc <dtest_descriptor_table>
    4100080c:	00329393          	slli	x7,x5,0x3
    41000810:	00730333          	add	x6,x6,x7
    41000814:	00033e83          	ld	x29,0(x6)
    41000818:	43aacf37          	lui	x30,0x43aac
    4100081c:	030f0f1b          	addiw	x30,x30,48 # 43aac030 <rvcp_prefix_str_pa>
    41000820:	000f4283          	lbu	x5,0(x30)
    41000824:	02028663          	beqz	x5,41000850 <rvcp_print_test_result+0x78>
    41000828:	1010031b          	addiw	x6,x0,257
    4100082c:	03031313          	slli	x6,x6,0x30
    41000830:	005362b3          	or	x5,x6,x5
    41000834:	0003f317          	auipc	x6,0x3f
    41000838:	7cc30313          	addi	x6,x6,1996 # 41040000 <tohost>
    4100083c:	00033383          	ld	x7,0(x6)
    41000840:	fe039ee3          	bnez	x7,4100083c <rvcp_print_test_result+0x64>
    41000844:	00533023          	sd	x5,0(x6)
    41000848:	001f0f13          	addi	x30,x30,1
    4100084c:	fd5ff06f          	j	41000820 <rvcp_print_test_result+0x48>
    41000850:	43aacf37          	lui	x30,0x43aac
    41000854:	041f0f1b          	addiw	x30,x30,65 # 43aac041 <rvcp_testname_str_pa>
    41000858:	000f4283          	lbu	x5,0(x30)
    4100085c:	02028663          	beqz	x5,41000888 <rvcp_print_test_result+0xb0>
    41000860:	1010031b          	addiw	x6,x0,257
    41000864:	03031313          	slli	x6,x6,0x30
    41000868:	005362b3          	or	x5,x6,x5
    4100086c:	0003f317          	auipc	x6,0x3f
    41000870:	79430313          	addi	x6,x6,1940 # 41040000 <tohost>
    41000874:	00033383          	ld	x7,0(x6)
    41000878:	fe039ee3          	bnez	x7,41000874 <rvcp_print_test_result+0x9c>
    4100087c:	00533023          	sd	x5,0(x6)
    41000880:	001f0f13          	addi	x30,x30,1
    41000884:	fd5ff06f          	j	41000858 <rvcp_print_test_result+0x80>
    41000888:	43aacf37          	lui	x30,0x43aac
    4100088c:	05bf0f1b          	addiw	x30,x30,91 # 43aac05b <rvcp_space_str_pa>
    41000890:	000f4283          	lbu	x5,0(x30)
    41000894:	02028663          	beqz	x5,410008c0 <rvcp_print_test_result+0xe8>
    41000898:	1010031b          	addiw	x6,x0,257
    4100089c:	03031313          	slli	x6,x6,0x30
    410008a0:	005362b3          	or	x5,x6,x5
    410008a4:	0003f317          	auipc	x6,0x3f
    410008a8:	75c30313          	addi	x6,x6,1884 # 41040000 <tohost>
    410008ac:	00033383          	ld	x7,0(x6)
    410008b0:	fe039ee3          	bnez	x7,410008ac <rvcp_print_test_result+0xd4>
    410008b4:	00533023          	sd	x5,0(x6)
    410008b8:	001f0f13          	addi	x30,x30,1
    410008bc:	fd5ff06f          	j	41000890 <rvcp_print_test_result+0xb8>
    410008c0:	000e8f13          	mv	x30,x29
    410008c4:	000f4283          	lbu	x5,0(x30)
    410008c8:	02028663          	beqz	x5,410008f4 <rvcp_print_test_result+0x11c>
    410008cc:	1010031b          	addiw	x6,x0,257
    410008d0:	03031313          	slli	x6,x6,0x30
    410008d4:	005362b3          	or	x5,x6,x5
    410008d8:	0003f317          	auipc	x6,0x3f
    410008dc:	72830313          	addi	x6,x6,1832 # 41040000 <tohost>
    410008e0:	00033383          	ld	x7,0(x6)
    410008e4:	fe039ee3          	bnez	x7,410008e0 <rvcp_print_test_result+0x108>
    410008e8:	00533023          	sd	x5,0(x6)
    410008ec:	001f0f13          	addi	x30,x30,1
    410008f0:	fd5ff06f          	j	410008c4 <rvcp_print_test_result+0xec>
    410008f4:	43aacf37          	lui	x30,0x43aac
    410008f8:	05bf0f1b          	addiw	x30,x30,91 # 43aac05b <rvcp_space_str_pa>
    410008fc:	000f4283          	lbu	x5,0(x30)
    41000900:	02028663          	beqz	x5,4100092c <rvcp_print_test_result+0x154>
    41000904:	1010031b          	addiw	x6,x0,257
    41000908:	03031313          	slli	x6,x6,0x30
    4100090c:	005362b3          	or	x5,x6,x5
    41000910:	0003f317          	auipc	x6,0x3f
    41000914:	6f030313          	addi	x6,x6,1776 # 41040000 <tohost>
    41000918:	00033383          	ld	x7,0(x6)
    4100091c:	fe039ee3          	bnez	x7,41000918 <rvcp_print_test_result+0x140>
    41000920:	00533023          	sd	x5,0(x6)
    41000924:	001f0f13          	addi	x30,x30,1
    41000928:	fd5ff06f          	j	410008fc <rvcp_print_test_result+0x124>
    4100092c:	000e1863          	bnez	x28,4100093c <rvcp_print_test_result+0x164>
    41000930:	43aacf37          	lui	x30,0x43aac
    41000934:	04df0f1b          	addiw	x30,x30,77 # 43aac04d <rvcp_passed_str_pa>
    41000938:	00c0006f          	j	41000944 <rvcp_print_test_result+0x16c>
    4100093c:	43aacf37          	lui	x30,0x43aac
    41000940:	054f0f1b          	addiw	x30,x30,84 # 43aac054 <rvcp_failed_str_pa>
    41000944:	000f4283          	lbu	x5,0(x30)
    41000948:	02028663          	beqz	x5,41000974 <rvcp_print_test_result+0x19c>
    4100094c:	1010031b          	addiw	x6,x0,257
    41000950:	03031313          	slli	x6,x6,0x30
    41000954:	005362b3          	or	x5,x6,x5
    41000958:	0003f317          	auipc	x6,0x3f
    4100095c:	6a830313          	addi	x6,x6,1704 # 41040000 <tohost>
    41000960:	00033383          	ld	x7,0(x6)
    41000964:	fe039ee3          	bnez	x7,41000960 <rvcp_print_test_result+0x188>
    41000968:	00533023          	sd	x5,0(x6)
    4100096c:	001f0f13          	addi	x30,x30,1
    41000970:	fd5ff06f          	j	41000944 <rvcp_print_test_result+0x16c>
    41000974:	43aacf37          	lui	x30,0x43aac
    41000978:	05df0f1b          	addiw	x30,x30,93 # 43aac05d <rvcp_newline_str_pa>
    4100097c:	000f4283          	lbu	x5,0(x30)
    41000980:	02028663          	beqz	x5,410009ac <rvcp_print_test_result+0x1d4>
    41000984:	1010031b          	addiw	x6,x0,257
    41000988:	03031313          	slli	x6,x6,0x30
    4100098c:	005362b3          	or	x5,x6,x5
    41000990:	0003f317          	auipc	x6,0x3f
    41000994:	67030313          	addi	x6,x6,1648 # 41040000 <tohost>
    41000998:	00033383          	ld	x7,0(x6)
    4100099c:	fe039ee3          	bnez	x7,41000998 <rvcp_print_test_result+0x1c0>
    410009a0:	00533023          	sd	x5,0(x6)
    410009a4:	001f0f13          	addi	x30,x30,1
    410009a8:	fd5ff06f          	j	4100097c <rvcp_print_test_result+0x1a4>
    410009ac:	00008067          	ret

00000000410009b0 <os_rng_orig>:
    410009b0:	f14023f3          	csrr	x7,mhartid
    410009b4:	00068313          	mv	x6,x13
    410009b8:	026383b3          	mul	x7,x7,x6
    410009bc:	00058313          	mv	x6,x11
    410009c0:	00730333          	add	x6,x6,x7
    410009c4:	00033283          	ld	x5,0(x6)
    410009c8:	01529313          	slli	x6,x5,0x15
    410009cc:	0062c2b3          	xor	x5,x5,x6
    410009d0:	0232d313          	srli	x6,x5,0x23
    410009d4:	0062c2b3          	xor	x5,x5,x6
    410009d8:	00429313          	slli	x6,x5,0x4
    410009dc:	0062c2b3          	xor	x5,x5,x6
    410009e0:	00058313          	mv	x6,x11
    410009e4:	00730333          	add	x6,x6,x7
    410009e8:	00533023          	sd	x5,0(x6)
    410009ec:	00060313          	mv	x6,x12
    410009f0:	0262f2b3          	remu	x5,x5,x6
    410009f4:	00028513          	mv	x10,x5
    410009f8:	00008067          	ret
    410009fc:	02a00513          	li	x10,42
    41000a00:	001965b7          	lui	x11,0x196
    41000a04:	60d5859b          	addiw	x11,x11,1549 # 19660d <SID_EXCEP_04_NEZ_PASSING_AND_stack+0x12160d>
    41000a08:	3c6ef637          	lui	x12,0x3c6ef
    41000a0c:	35f6061b          	addiw	x12,x12,863 # 3c6ef35f <SID_EXCEP_04_EQZ_PASSING_SUB_stack+0xcf5b35f>
    41000a10:	02200693          	li	x13,34
    41000a14:	02b50533          	mul	x10,x10,x11
    41000a18:	00c50533          	add	x10,x10,x12
    41000a1c:	02d56533          	rem	x10,x10,x13
    41000a20:	00b00593          	li	x11,11
    41000a24:	02b56533          	rem	x10,x10,x11
    41000a28:	00008067          	ret
    41000a2c:	0000                	.insn	2, 0x0000
	...

0000000041000a30 <tohost_mutex>:
	...

0000000041000a38 <tohost_addr_mem>:
    41000a38:	0000                	.insn	2, 0x0000
    41000a3a:	4104                	.insn	2, 0x4104
    41000a3c:	0000                	.insn	2, 0x0000
	...

0000000041000a40 <eot__end_test>:
    41000a40:	00100293          	li	x5,1
    41000a44:	00328463          	beq	x5,x3,41000a4c <eot__passed>
    41000a48:	01c0006f          	j	41000a64 <eot__failed>

0000000041000a4c <eot__passed>:
    41000a4c:	0ff0000f          	fence
    41000a50:	00000297          	auipc	x5,0x0
    41000a54:	fe82b283          	ld	x5,-24(x5) # 41000a38 <tohost_addr_mem>
    41000a58:	00100313          	li	x6,1
    41000a5c:	0062a023          	sw	x6,0(x5)
    41000a60:	0240006f          	j	41000a84 <eot__halt>

0000000041000a64 <eot__failed>:
    41000a64:	00100513          	li	x10,1
    41000a68:	d71ff0ef          	jal	410007d8 <rvcp_print_test_result>
    41000a6c:	0ff0000f          	fence
    41000a70:	00000297          	auipc	x5,0x0
    41000a74:	fc82b283          	ld	x5,-56(x5) # 41000a38 <tohost_addr_mem>
    41000a78:	00300313          	li	x6,3
    41000a7c:	0062a023          	sw	x6,0(x5)
    41000a80:	0040006f          	j	41000a84 <eot__halt>

0000000041000a84 <eot__halt>:
    41000a84:	10500073          	wfi
    41000a88:	ffdff06f          	j	41000a84 <eot__halt>

0000000041000a8c <scheduler__init>:
    41000a8c:	00000297          	auipc	x5,0x0
    41000a90:	0c828293          	addi	x5,x5,200 # 41000b54 <scheduler__panic>
    41000a94:	305292f3          	csrrw	x5,mtvec,x5
    41000a98:	18523023          	sd	x5,384(x4) # 180 <XLEN+0x140>
    41000a9c:	04f00293          	li	x5,79
    41000aa0:	18523823          	sd	x5,400(x4) # 190 <XLEN+0x150>
    41000aa4:	0010029b          	addiw	x5,x0,1
    41000aa8:	02029293          	slli	x5,x5,0x20
    41000aac:	ffe28293          	addi	x5,x5,-2
    41000ab0:	18523423          	sd	x5,392(x4) # 188 <XLEN+0x148>
    41000ab4:	00001317          	auipc	x6,0x1
    41000ab8:	80030313          	addi	x6,x6,-2048 # 410012b4 <scheduler__test_setup_ptr>
    41000abc:	00033303          	ld	x6,0(x6)
    41000ac0:	06c0006f          	j	41000b2c <scheduler__execute_test>

0000000041000ac4 <scheduler__dispatch>:
    41000ac4:	00000297          	auipc	x5,0x0
    41000ac8:	09028293          	addi	x5,x5,144 # 41000b54 <scheduler__panic>
    41000acc:	305292f3          	csrrw	x5,mtvec,x5
    41000ad0:	18523023          	sd	x5,384(x4) # 180 <XLEN+0x140>

0000000041000ad4 <scheduler__csr_read_randomization>:
    41000ad4:	104022f3          	csrr	x5,sie
    41000ad8:	f11022f3          	csrr	x5,mvendorid
    41000adc:	143022f3          	csrr	x5,stval
    41000ae0:	141022f3          	csrr	x5,sepc
    41000ae4:	140022f3          	csrr	x5,sscratch
    41000ae8:	f11022f3          	csrr	x5,mvendorid
    41000aec:	305022f3          	csrr	x5,mtvec

0000000041000af0 <scheduler__load_num_runs>:
    41000af0:	19023303          	ld	x6,400(x4) # 190 <XLEN+0x150>
    41000af4:	04030c63          	beqz	x6,41000b4c <scheduler__finished>

0000000041000af8 <scheduler__decrement_num_runs>:
    41000af8:	fff30393          	addi	x7,x6,-1
    41000afc:	18723823          	sd	x7,400(x4) # 190 <XLEN+0x150>
    41000b00:	00000e17          	auipc	x28,0x0
    41000b04:	674e0e13          	addi	x28,x28,1652 # 41001174 <dtest_index_map>
    41000b08:	00239e93          	slli	x29,x7,0x2
    41000b0c:	01de0e33          	add	x28,x28,x29
    41000b10:	000e2e03          	lw	x28,0(x28)
    41000b14:	19c23423          	sd	x28,392(x4) # 188 <XLEN+0x148>

0000000041000b18 <scheduler__calc_test_pointer>:
    41000b18:	00339293          	slli	x5,x7,0x3

0000000041000b1c <scheduler__load_test_addr>:
    41000b1c:	00000317          	auipc	x6,0x0
    41000b20:	04830313          	addi	x6,x6,72 # 41000b64 <os_test_sequence>
    41000b24:	006282b3          	add	x5,x5,x6
    41000b28:	0002b303          	ld	x6,0(x5)

0000000041000b2c <scheduler__execute_test>:
    41000b2c:	18023283          	ld	x5,384(x4) # 180 <XLEN+0x140>
    41000b30:	30529073          	csrw	mtvec,x5
    41000b34:	34021273          	csrrw	x4,mscratch,x4
    41000b38:	00000213          	li	x4,0
    41000b3c:	14131073          	csrw	sepc,x6
    41000b40:	10000293          	li	x5,256
    41000b44:	1002b073          	csrc	sstatus,x5
    41000b48:	10200073          	sret

0000000041000b4c <scheduler__finished>:
    41000b4c:	00100193          	li	x3,1
    41000b50:	ef1ff06f          	j	41000a40 <eot__end_test>

0000000041000b54 <scheduler__panic>:
    41000b54:	00000193          	li	x3,0
    41000b58:	ee9ff06f          	j	41000a40 <eot__end_test>

0000000041000b5c <num_runs>:
    41000b5c:	0000004f          	fnmadd.s	f0,f0,f0,f0,rne
    41000b60:	0000                	.insn	2, 0x0000
	...

0000000041000b64 <os_test_sequence>:
    41000b64:	5980                	.insn	2, 0x5980
    41000b66:	4101                	.insn	2, 0x4101
    41000b68:	0000                	.insn	2, 0x0000
    41000b6a:	0000                	.insn	2, 0x0000
    41000b6c:	5130                	.insn	2, 0x5130
    41000b6e:	4101                	.insn	2, 0x4101
    41000b70:	0000                	.insn	2, 0x0000
    41000b72:	0000                	.insn	2, 0x0000
    41000b74:	5178                	.insn	2, 0x5178
    41000b76:	4101                	.insn	2, 0x4101
    41000b78:	0000                	.insn	2, 0x0000
    41000b7a:	0000                	.insn	2, 0x0000
    41000b7c:	586c                	.insn	2, 0x586c
    41000b7e:	4101                	.insn	2, 0x4101
    41000b80:	0000                	.insn	2, 0x0000
    41000b82:	0000                	.insn	2, 0x0000
    41000b84:	51c4                	.insn	2, 0x51c4
    41000b86:	4101                	.insn	2, 0x4101
    41000b88:	0000                	.insn	2, 0x0000
    41000b8a:	0000                	.insn	2, 0x0000
    41000b8c:	572c                	.insn	2, 0x572c
    41000b8e:	4101                	.insn	2, 0x4101
    41000b90:	0000                	.insn	2, 0x0000
    41000b92:	0000                	.insn	2, 0x0000
    41000b94:	55dc                	.insn	2, 0x55dc
    41000b96:	4101                	.insn	2, 0x4101
    41000b98:	0000                	.insn	2, 0x0000
    41000b9a:	0000                	.insn	2, 0x0000
    41000b9c:	58b8                	.insn	2, 0x58b8
    41000b9e:	4101                	.insn	2, 0x4101
    41000ba0:	0000                	.insn	2, 0x0000
    41000ba2:	0000                	.insn	2, 0x0000
    41000ba4:	5684                	.insn	2, 0x5684
    41000ba6:	4101                	.insn	2, 0x4101
    41000ba8:	0000                	.insn	2, 0x0000
    41000baa:	0000                	.insn	2, 0x0000
    41000bac:	53b8                	.insn	2, 0x53b8
    41000bae:	4101                	.insn	2, 0x4101
    41000bb0:	0000                	.insn	2, 0x0000
    41000bb2:	0000                	.insn	2, 0x0000
    41000bb4:	5780                	.insn	2, 0x5780
    41000bb6:	4101                	.insn	2, 0x4101
    41000bb8:	0000                	.insn	2, 0x0000
    41000bba:	0000                	.insn	2, 0x0000
    41000bbc:	5220                	.insn	2, 0x5220
    41000bbe:	4101                	.insn	2, 0x4101
    41000bc0:	0000                	.insn	2, 0x0000
    41000bc2:	0000                	.insn	2, 0x0000
    41000bc4:	572c                	.insn	2, 0x572c
    41000bc6:	4101                	.insn	2, 0x4101
    41000bc8:	0000                	.insn	2, 0x0000
    41000bca:	0000                	.insn	2, 0x0000
    41000bcc:	5270                	.insn	2, 0x5270
    41000bce:	4101                	.insn	2, 0x4101
    41000bd0:	0000                	.insn	2, 0x0000
    41000bd2:	0000                	.insn	2, 0x0000
    41000bd4:	5320                	.insn	2, 0x5320
    41000bd6:	4101                	.insn	2, 0x4101
    41000bd8:	0000                	.insn	2, 0x0000
    41000bda:	0000                	.insn	2, 0x0000
    41000bdc:	5818                	.insn	2, 0x5818
    41000bde:	4101                	.insn	2, 0x4101
    41000be0:	0000                	.insn	2, 0x0000
    41000be2:	0000                	.insn	2, 0x0000
    41000be4:	5458                	.insn	2, 0x5458
    41000be6:	4101                	.insn	2, 0x4101
    41000be8:	0000                	.insn	2, 0x0000
    41000bea:	0000                	.insn	2, 0x0000
    41000bec:	5320                	.insn	2, 0x5320
    41000bee:	4101                	.insn	2, 0x4101
    41000bf0:	0000                	.insn	2, 0x0000
    41000bf2:	0000                	.insn	2, 0x0000
    41000bf4:	553c                	.insn	2, 0x553c
    41000bf6:	4101                	.insn	2, 0x4101
    41000bf8:	0000                	.insn	2, 0x0000
    41000bfa:	0000                	.insn	2, 0x0000
    41000bfc:	57cc                	.insn	2, 0x57cc
    41000bfe:	4101                	.insn	2, 0x4101
    41000c00:	0000                	.insn	2, 0x0000
    41000c02:	0000                	.insn	2, 0x0000
    41000c04:	5924                	.insn	2, 0x5924
    41000c06:	4101                	.insn	2, 0x4101
    41000c08:	0000                	.insn	2, 0x0000
    41000c0a:	0000                	.insn	2, 0x0000
    41000c0c:	52d0                	.insn	2, 0x52d0
    41000c0e:	4101                	.insn	2, 0x4101
    41000c10:	0000                	.insn	2, 0x0000
    41000c12:	0000                	.insn	2, 0x0000
    41000c14:	5588                	.insn	2, 0x5588
    41000c16:	4101                	.insn	2, 0x4101
    41000c18:	0000                	.insn	2, 0x0000
    41000c1a:	0000                	.insn	2, 0x0000
    41000c1c:	54a4                	.insn	2, 0x54a4
    41000c1e:	4101                	.insn	2, 0x4101
    41000c20:	0000                	.insn	2, 0x0000
    41000c22:	0000                	.insn	2, 0x0000
    41000c24:	54f0                	.insn	2, 0x54f0
    41000c26:	4101                	.insn	2, 0x4101
    41000c28:	0000                	.insn	2, 0x0000
    41000c2a:	0000                	.insn	2, 0x0000
    41000c2c:	5458                	.insn	2, 0x5458
    41000c2e:	4101                	.insn	2, 0x4101
    41000c30:	0000                	.insn	2, 0x0000
    41000c32:	0000                	.insn	2, 0x0000
    41000c34:	5270                	.insn	2, 0x5270
    41000c36:	4101                	.insn	2, 0x4101
    41000c38:	0000                	.insn	2, 0x0000
    41000c3a:	0000                	.insn	2, 0x0000
    41000c3c:	5684                	.insn	2, 0x5684
    41000c3e:	4101                	.insn	2, 0x4101
    41000c40:	0000                	.insn	2, 0x0000
    41000c42:	0000                	.insn	2, 0x0000
    41000c44:	5178                	.insn	2, 0x5178
    41000c46:	4101                	.insn	2, 0x4101
    41000c48:	0000                	.insn	2, 0x0000
    41000c4a:	0000                	.insn	2, 0x0000
    41000c4c:	58b8                	.insn	2, 0x58b8
    41000c4e:	4101                	.insn	2, 0x4101
    41000c50:	0000                	.insn	2, 0x0000
    41000c52:	0000                	.insn	2, 0x0000
    41000c54:	5684                	.insn	2, 0x5684
    41000c56:	4101                	.insn	2, 0x4101
    41000c58:	0000                	.insn	2, 0x0000
    41000c5a:	0000                	.insn	2, 0x0000
    41000c5c:	54f0                	.insn	2, 0x54f0
    41000c5e:	4101                	.insn	2, 0x4101
    41000c60:	0000                	.insn	2, 0x0000
    41000c62:	0000                	.insn	2, 0x0000
    41000c64:	536c                	.insn	2, 0x536c
    41000c66:	4101                	.insn	2, 0x4101
    41000c68:	0000                	.insn	2, 0x0000
    41000c6a:	0000                	.insn	2, 0x0000
    41000c6c:	54f0                	.insn	2, 0x54f0
    41000c6e:	4101                	.insn	2, 0x4101
    41000c70:	0000                	.insn	2, 0x0000
    41000c72:	0000                	.insn	2, 0x0000
    41000c74:	53b8                	.insn	2, 0x53b8
    41000c76:	4101                	.insn	2, 0x4101
    41000c78:	0000                	.insn	2, 0x0000
    41000c7a:	0000                	.insn	2, 0x0000
    41000c7c:	5404                	.insn	2, 0x5404
    41000c7e:	4101                	.insn	2, 0x4101
    41000c80:	0000                	.insn	2, 0x0000
    41000c82:	0000                	.insn	2, 0x0000
    41000c84:	5588                	.insn	2, 0x5588
    41000c86:	4101                	.insn	2, 0x4101
    41000c88:	0000                	.insn	2, 0x0000
    41000c8a:	0000                	.insn	2, 0x0000
    41000c8c:	5630                	.insn	2, 0x5630
    41000c8e:	4101                	.insn	2, 0x4101
    41000c90:	0000                	.insn	2, 0x0000
    41000c92:	0000                	.insn	2, 0x0000
    41000c94:	58b8                	.insn	2, 0x58b8
    41000c96:	4101                	.insn	2, 0x4101
    41000c98:	0000                	.insn	2, 0x0000
    41000c9a:	0000                	.insn	2, 0x0000
    41000c9c:	57cc                	.insn	2, 0x57cc
    41000c9e:	4101                	.insn	2, 0x4101
    41000ca0:	0000                	.insn	2, 0x0000
    41000ca2:	0000                	.insn	2, 0x0000
    41000ca4:	553c                	.insn	2, 0x553c
    41000ca6:	4101                	.insn	2, 0x4101
    41000ca8:	0000                	.insn	2, 0x0000
    41000caa:	0000                	.insn	2, 0x0000
    41000cac:	5780                	.insn	2, 0x5780
    41000cae:	4101                	.insn	2, 0x4101
    41000cb0:	0000                	.insn	2, 0x0000
    41000cb2:	0000                	.insn	2, 0x0000
    41000cb4:	51c4                	.insn	2, 0x51c4
    41000cb6:	4101                	.insn	2, 0x4101
    41000cb8:	0000                	.insn	2, 0x0000
    41000cba:	0000                	.insn	2, 0x0000
    41000cbc:	5588                	.insn	2, 0x5588
    41000cbe:	4101                	.insn	2, 0x4101
    41000cc0:	0000                	.insn	2, 0x0000
    41000cc2:	0000                	.insn	2, 0x0000
    41000cc4:	56d8                	.insn	2, 0x56d8
    41000cc6:	4101                	.insn	2, 0x4101
    41000cc8:	0000                	.insn	2, 0x0000
    41000cca:	0000                	.insn	2, 0x0000
    41000ccc:	5630                	.insn	2, 0x5630
    41000cce:	4101                	.insn	2, 0x4101
    41000cd0:	0000                	.insn	2, 0x0000
    41000cd2:	0000                	.insn	2, 0x0000
    41000cd4:	5780                	.insn	2, 0x5780
    41000cd6:	4101                	.insn	2, 0x4101
    41000cd8:	0000                	.insn	2, 0x0000
    41000cda:	0000                	.insn	2, 0x0000
    41000cdc:	5270                	.insn	2, 0x5270
    41000cde:	4101                	.insn	2, 0x4101
    41000ce0:	0000                	.insn	2, 0x0000
    41000ce2:	0000                	.insn	2, 0x0000
    41000ce4:	52d0                	.insn	2, 0x52d0
    41000ce6:	4101                	.insn	2, 0x4101
    41000ce8:	0000                	.insn	2, 0x0000
    41000cea:	0000                	.insn	2, 0x0000
    41000cec:	5924                	.insn	2, 0x5924
    41000cee:	4101                	.insn	2, 0x4101
    41000cf0:	0000                	.insn	2, 0x0000
    41000cf2:	0000                	.insn	2, 0x0000
    41000cf4:	54a4                	.insn	2, 0x54a4
    41000cf6:	4101                	.insn	2, 0x4101
    41000cf8:	0000                	.insn	2, 0x0000
    41000cfa:	0000                	.insn	2, 0x0000
    41000cfc:	5924                	.insn	2, 0x5924
    41000cfe:	4101                	.insn	2, 0x4101
    41000d00:	0000                	.insn	2, 0x0000
    41000d02:	0000                	.insn	2, 0x0000
    41000d04:	54a4                	.insn	2, 0x54a4
    41000d06:	4101                	.insn	2, 0x4101
    41000d08:	0000                	.insn	2, 0x0000
    41000d0a:	0000                	.insn	2, 0x0000
    41000d0c:	586c                	.insn	2, 0x586c
    41000d0e:	4101                	.insn	2, 0x4101
    41000d10:	0000                	.insn	2, 0x0000
    41000d12:	0000                	.insn	2, 0x0000
    41000d14:	53b8                	.insn	2, 0x53b8
    41000d16:	4101                	.insn	2, 0x4101
    41000d18:	0000                	.insn	2, 0x0000
    41000d1a:	0000                	.insn	2, 0x0000
    41000d1c:	5818                	.insn	2, 0x5818
    41000d1e:	4101                	.insn	2, 0x4101
    41000d20:	0000                	.insn	2, 0x0000
    41000d22:	0000                	.insn	2, 0x0000
    41000d24:	5404                	.insn	2, 0x5404
    41000d26:	4101                	.insn	2, 0x4101
    41000d28:	0000                	.insn	2, 0x0000
    41000d2a:	0000                	.insn	2, 0x0000
    41000d2c:	536c                	.insn	2, 0x536c
    41000d2e:	4101                	.insn	2, 0x4101
    41000d30:	0000                	.insn	2, 0x0000
    41000d32:	0000                	.insn	2, 0x0000
    41000d34:	5130                	.insn	2, 0x5130
    41000d36:	4101                	.insn	2, 0x4101
    41000d38:	0000                	.insn	2, 0x0000
    41000d3a:	0000                	.insn	2, 0x0000
    41000d3c:	5818                	.insn	2, 0x5818
    41000d3e:	4101                	.insn	2, 0x4101
    41000d40:	0000                	.insn	2, 0x0000
    41000d42:	0000                	.insn	2, 0x0000
    41000d44:	5130                	.insn	2, 0x5130
    41000d46:	4101                	.insn	2, 0x4101
    41000d48:	0000                	.insn	2, 0x0000
    41000d4a:	0000                	.insn	2, 0x0000
    41000d4c:	572c                	.insn	2, 0x572c
    41000d4e:	4101                	.insn	2, 0x4101
    41000d50:	0000                	.insn	2, 0x0000
    41000d52:	0000                	.insn	2, 0x0000
    41000d54:	52d0                	.insn	2, 0x52d0
    41000d56:	4101                	.insn	2, 0x4101
    41000d58:	0000                	.insn	2, 0x0000
    41000d5a:	0000                	.insn	2, 0x0000
    41000d5c:	586c                	.insn	2, 0x586c
    41000d5e:	4101                	.insn	2, 0x4101
    41000d60:	0000                	.insn	2, 0x0000
    41000d62:	0000                	.insn	2, 0x0000
    41000d64:	56d8                	.insn	2, 0x56d8
    41000d66:	4101                	.insn	2, 0x4101
    41000d68:	0000                	.insn	2, 0x0000
    41000d6a:	0000                	.insn	2, 0x0000
    41000d6c:	55dc                	.insn	2, 0x55dc
    41000d6e:	4101                	.insn	2, 0x4101
    41000d70:	0000                	.insn	2, 0x0000
    41000d72:	0000                	.insn	2, 0x0000
    41000d74:	57cc                	.insn	2, 0x57cc
    41000d76:	4101                	.insn	2, 0x4101
    41000d78:	0000                	.insn	2, 0x0000
    41000d7a:	0000                	.insn	2, 0x0000
    41000d7c:	5630                	.insn	2, 0x5630
    41000d7e:	4101                	.insn	2, 0x4101
    41000d80:	0000                	.insn	2, 0x0000
    41000d82:	0000                	.insn	2, 0x0000
    41000d84:	56d8                	.insn	2, 0x56d8
    41000d86:	4101                	.insn	2, 0x4101
    41000d88:	0000                	.insn	2, 0x0000
    41000d8a:	0000                	.insn	2, 0x0000
    41000d8c:	5320                	.insn	2, 0x5320
    41000d8e:	4101                	.insn	2, 0x4101
    41000d90:	0000                	.insn	2, 0x0000
    41000d92:	0000                	.insn	2, 0x0000
    41000d94:	5178                	.insn	2, 0x5178
    41000d96:	4101                	.insn	2, 0x4101
    41000d98:	0000                	.insn	2, 0x0000
    41000d9a:	0000                	.insn	2, 0x0000
    41000d9c:	5404                	.insn	2, 0x5404
    41000d9e:	4101                	.insn	2, 0x4101
    41000da0:	0000                	.insn	2, 0x0000
    41000da2:	0000                	.insn	2, 0x0000
    41000da4:	5458                	.insn	2, 0x5458
    41000da6:	4101                	.insn	2, 0x4101
    41000da8:	0000                	.insn	2, 0x0000
    41000daa:	0000                	.insn	2, 0x0000
    41000dac:	553c                	.insn	2, 0x553c
    41000dae:	4101                	.insn	2, 0x4101
    41000db0:	0000                	.insn	2, 0x0000
    41000db2:	0000                	.insn	2, 0x0000
    41000db4:	536c                	.insn	2, 0x536c
    41000db6:	4101                	.insn	2, 0x4101
    41000db8:	0000                	.insn	2, 0x0000
    41000dba:	0000                	.insn	2, 0x0000
    41000dbc:	55dc                	.insn	2, 0x55dc
    41000dbe:	4101                	.insn	2, 0x4101
    41000dc0:	0000                	.insn	2, 0x0000
    41000dc2:	0000                	.insn	2, 0x0000
    41000dc4:	5220                	.insn	2, 0x5220
    41000dc6:	4101                	.insn	2, 0x4101
    41000dc8:	0000                	.insn	2, 0x0000
    41000dca:	0000                	.insn	2, 0x0000
    41000dcc:	5220                	.insn	2, 0x5220
    41000dce:	4101                	.insn	2, 0x4101
    41000dd0:	0000                	.insn	2, 0x0000
    41000dd2:	0000                	.insn	2, 0x0000
    41000dd4:	51c4                	.insn	2, 0x51c4
    41000dd6:	4101                	.insn	2, 0x4101
    41000dd8:	0000                	.insn	2, 0x0000
	...

0000000041000ddc <dtest_descriptor_table>:
    41000ddc:	0eac                	.insn	2, 0x0eac
    41000dde:	4100                	.insn	2, 0x4100
    41000de0:	0000                	.insn	2, 0x0000
    41000de2:	0000                	.insn	2, 0x0000
    41000de4:	0ec4                	.insn	2, 0x0ec4
    41000de6:	4100                	.insn	2, 0x4100
    41000de8:	0000                	.insn	2, 0x0000
    41000dea:	0000                	.insn	2, 0x0000
    41000dec:	41000edb          	.insn	4, 0x41000edb
    41000df0:	0000                	.insn	2, 0x0000
    41000df2:	0000                	.insn	2, 0x0000
    41000df4:	41000ef3          	.insn	4, 0x41000ef3
    41000df8:	0000                	.insn	2, 0x0000
    41000dfa:	0000                	.insn	2, 0x0000
    41000dfc:	0f0a                	.insn	2, 0x0f0a
    41000dfe:	4100                	.insn	2, 0x4100
    41000e00:	0000                	.insn	2, 0x0000
    41000e02:	0000                	.insn	2, 0x0000
    41000e04:	0f22                	.insn	2, 0x0f22
    41000e06:	4100                	.insn	2, 0x4100
    41000e08:	0000                	.insn	2, 0x0000
    41000e0a:	0000                	.insn	2, 0x0000
    41000e0c:	0f39                	.insn	2, 0x0f39
    41000e0e:	4100                	.insn	2, 0x4100
    41000e10:	0000                	.insn	2, 0x0000
    41000e12:	0000                	.insn	2, 0x0000
    41000e14:	0f50                	.insn	2, 0x0f50
    41000e16:	4100                	.insn	2, 0x4100
    41000e18:	0000                	.insn	2, 0x0000
    41000e1a:	0000                	.insn	2, 0x0000
    41000e1c:	0f68                	.insn	2, 0x0f68
    41000e1e:	4100                	.insn	2, 0x4100
    41000e20:	0000                	.insn	2, 0x0000
    41000e22:	0000                	.insn	2, 0x0000
    41000e24:	0f85                	.insn	2, 0x0f85
    41000e26:	4100                	.insn	2, 0x4100
    41000e28:	0000                	.insn	2, 0x0000
    41000e2a:	0000                	.insn	2, 0x0000
    41000e2c:	0fa2                	.insn	2, 0x0fa2
    41000e2e:	4100                	.insn	2, 0x4100
    41000e30:	0000                	.insn	2, 0x0000
    41000e32:	0000                	.insn	2, 0x0000
    41000e34:	41000fbf 00000000 	.insn	8, 0x41000fbf
    41000e3c:	0fdc                	.insn	2, 0x0fdc
    41000e3e:	4100                	.insn	2, 0x4100
    41000e40:	0000                	.insn	2, 0x0000
    41000e42:	0000                	.insn	2, 0x0000
    41000e44:	0ff9                	.insn	2, 0x0ff9
    41000e46:	4100                	.insn	2, 0x4100
    41000e48:	0000                	.insn	2, 0x0000
    41000e4a:	0000                	.insn	2, 0x0000
    41000e4c:	1016                	.insn	2, 0x1016
    41000e4e:	4100                	.insn	2, 0x4100
    41000e50:	0000                	.insn	2, 0x0000
    41000e52:	0000                	.insn	2, 0x0000
    41000e54:	41001033          	.insn	4, 0x41001033
    41000e58:	0000                	.insn	2, 0x0000
    41000e5a:	0000                	.insn	2, 0x0000
    41000e5c:	1050                	.insn	2, 0x1050
    41000e5e:	4100                	.insn	2, 0x4100
    41000e60:	0000                	.insn	2, 0x0000
    41000e62:	0000                	.insn	2, 0x0000
    41000e64:	106d                	.insn	2, 0x106d
    41000e66:	4100                	.insn	2, 0x4100
    41000e68:	0000                	.insn	2, 0x0000
    41000e6a:	0000                	.insn	2, 0x0000
    41000e6c:	108a                	.insn	2, 0x108a
    41000e6e:	4100                	.insn	2, 0x4100
    41000e70:	0000                	.insn	2, 0x0000
    41000e72:	0000                	.insn	2, 0x0000
    41000e74:	410010a7          	fsh	f16,1025(x0) # 401 <XLEN+0x3c1>
    41000e78:	0000                	.insn	2, 0x0000
    41000e7a:	0000                	.insn	2, 0x0000
    41000e7c:	10c4                	.insn	2, 0x10c4
    41000e7e:	4100                	.insn	2, 0x4100
    41000e80:	0000                	.insn	2, 0x0000
    41000e82:	0000                	.insn	2, 0x0000
    41000e84:	10e1                	.insn	2, 0x10e1
    41000e86:	4100                	.insn	2, 0x4100
    41000e88:	0000                	.insn	2, 0x0000
    41000e8a:	0000                	.insn	2, 0x0000
    41000e8c:	10fe                	.insn	2, 0x10fe
    41000e8e:	4100                	.insn	2, 0x4100
    41000e90:	0000                	.insn	2, 0x0000
    41000e92:	0000                	.insn	2, 0x0000
    41000e94:	4100111b          	.insn	4, 0x4100111b
    41000e98:	0000                	.insn	2, 0x0000
    41000e9a:	0000                	.insn	2, 0x0000
    41000e9c:	1138                	.insn	2, 0x1138
    41000e9e:	4100                	.insn	2, 0x4100
    41000ea0:	0000                	.insn	2, 0x0000
    41000ea2:	0000                	.insn	2, 0x0000
    41000ea4:	1156                	.insn	2, 0x1156
    41000ea6:	4100                	.insn	2, 0x4100
    41000ea8:	0000                	.insn	2, 0x0000
	...

0000000041000eac <dtest_name_0>:
    41000eac:	5f444953          	.insn	4, 0x5f444953
    41000eb0:	5845                	.insn	2, 0x5845
    41000eb2:	5f504543          	.insn	4, 0x5f504543
    41000eb6:	3130                	.insn	2, 0x3130
    41000eb8:	455f 5a51 525f      	.insn	6, 0x525f5a51455f
    41000ebe:	4e5f3153          	.insn	4, 0x4e5f3153
    41000ec2:	005a                	.insn	2, 0x005a

0000000041000ec4 <dtest_name_1>:
    41000ec4:	5f444953          	.insn	4, 0x5f444953
    41000ec8:	5845                	.insn	2, 0x5845
    41000eca:	5f504543          	.insn	4, 0x5f504543
    41000ece:	3130                	.insn	2, 0x3130
    41000ed0:	455f 5a51 525f      	.insn	6, 0x525f5a51455f
    41000ed6:	5a5f3153          	.insn	4, 0x5a5f3153
	...

0000000041000edb <dtest_name_2>:
    41000edb:	5f444953          	.insn	4, 0x5f444953
    41000edf:	5845                	.insn	2, 0x5845
    41000ee1:	5f504543          	.insn	4, 0x5f504543
    41000ee5:	3130                	.insn	2, 0x3130
    41000ee7:	4e5f 5a45 525f      	.insn	6, 0x525f5a454e5f
    41000eed:	4e5f3153          	.insn	4, 0x4e5f3153
    41000ef1:	005a                	.insn	2, 0x005a

0000000041000ef3 <dtest_name_3>:
    41000ef3:	5f444953          	.insn	4, 0x5f444953
    41000ef7:	5845                	.insn	2, 0x5845
    41000ef9:	5f504543          	.insn	4, 0x5f504543
    41000efd:	3130                	.insn	2, 0x3130
    41000eff:	4e5f 5a45 525f      	.insn	6, 0x525f5a454e5f
    41000f05:	5a5f3153          	.insn	4, 0x5a5f3153
	...

0000000041000f0a <dtest_name_4>:
    41000f0a:	5f444953          	.insn	4, 0x5f444953
    41000f0e:	5845                	.insn	2, 0x5845
    41000f10:	5f504543          	.insn	4, 0x5f504543
    41000f14:	3230                	.insn	2, 0x3230
    41000f16:	455f 5a51 525f      	.insn	6, 0x525f5a51455f
    41000f1c:	4e5f3153          	.insn	4, 0x4e5f3153
    41000f20:	005a                	.insn	2, 0x005a

0000000041000f22 <dtest_name_5>:
    41000f22:	5f444953          	.insn	4, 0x5f444953
    41000f26:	5845                	.insn	2, 0x5845
    41000f28:	5f504543          	.insn	4, 0x5f504543
    41000f2c:	3230                	.insn	2, 0x3230
    41000f2e:	455f 5a51 525f      	.insn	6, 0x525f5a51455f
    41000f34:	5a5f3153          	.insn	4, 0x5a5f3153
	...

0000000041000f39 <dtest_name_6>:
    41000f39:	5f444953          	.insn	4, 0x5f444953
    41000f3d:	5845                	.insn	2, 0x5845
    41000f3f:	5f504543          	.insn	4, 0x5f504543
    41000f43:	3230                	.insn	2, 0x3230
    41000f45:	4e5f 5a45 525f      	.insn	6, 0x525f5a454e5f
    41000f4b:	5a5f3153          	.insn	4, 0x5a5f3153
	...

0000000041000f50 <dtest_name_7>:
    41000f50:	5f444953          	.insn	4, 0x5f444953
    41000f54:	5845                	.insn	2, 0x5845
    41000f56:	5f504543          	.insn	4, 0x5f504543
    41000f5a:	3230                	.insn	2, 0x3230
    41000f5c:	4e5f 5a45 525f      	.insn	6, 0x525f5a454e5f
    41000f62:	4e5f3153          	.insn	4, 0x4e5f3153
    41000f66:	005a                	.insn	2, 0x005a

0000000041000f68 <dtest_name_8>:
    41000f68:	5f444953          	.insn	4, 0x5f444953
    41000f6c:	5845                	.insn	2, 0x5845
    41000f6e:	5f504543          	.insn	4, 0x5f504543
    41000f72:	3430                	.insn	2, 0x3430
    41000f74:	455f 5a51 505f      	.insn	6, 0x505f5a51455f
    41000f7a:	5341                	.insn	2, 0x5341
    41000f7c:	474e4953          	.insn	4, 0x474e4953
    41000f80:	415f 4444       	.insn	6, 0x53004444415f

0000000041000f85 <dtest_name_9>:
    41000f85:	5f444953          	.insn	4, 0x5f444953
    41000f89:	5845                	.insn	2, 0x5845
    41000f8b:	5f504543          	.insn	4, 0x5f504543
    41000f8f:	3430                	.insn	2, 0x3430
    41000f91:	455f 5a51 465f      	.insn	6, 0x465f5a51455f
    41000f97:	4941                	.insn	2, 0x4941
    41000f99:	494c                	.insn	2, 0x494c
    41000f9b:	474e                	.insn	2, 0x474e
    41000f9d:	415f 4444       	.insn	6, 0x53004444415f

0000000041000fa2 <dtest_name_10>:
    41000fa2:	5f444953          	.insn	4, 0x5f444953
    41000fa6:	5845                	.insn	2, 0x5845
    41000fa8:	5f504543          	.insn	4, 0x5f504543
    41000fac:	3430                	.insn	2, 0x3430
    41000fae:	4e5f 5a45 505f      	.insn	6, 0x505f5a454e5f
    41000fb4:	5341                	.insn	2, 0x5341
    41000fb6:	474e4953          	.insn	4, 0x474e4953
    41000fba:	535f 4255       	.insn	6, 0x53004255535f

0000000041000fbf <dtest_name_11>:
    41000fbf:	5f444953          	.insn	4, 0x5f444953
    41000fc3:	5845                	.insn	2, 0x5845
    41000fc5:	5f504543          	.insn	4, 0x5f504543
    41000fc9:	3430                	.insn	2, 0x3430
    41000fcb:	4e5f 5a45 465f      	.insn	6, 0x465f5a454e5f
    41000fd1:	4941                	.insn	2, 0x4941
    41000fd3:	494c                	.insn	2, 0x494c
    41000fd5:	474e                	.insn	2, 0x474e
    41000fd7:	535f 4255       	.insn	6, 0x53004255535f

0000000041000fdc <dtest_name_12>:
    41000fdc:	5f444953          	.insn	4, 0x5f444953
    41000fe0:	5845                	.insn	2, 0x5845
    41000fe2:	5f504543          	.insn	4, 0x5f504543
    41000fe6:	3430                	.insn	2, 0x3430
    41000fe8:	455f 5a51 505f      	.insn	6, 0x505f5a51455f
    41000fee:	5341                	.insn	2, 0x5341
    41000ff0:	474e4953          	.insn	4, 0x474e4953
    41000ff4:	535f 4255       	.insn	6, 0x53004255535f

0000000041000ff9 <dtest_name_13>:
    41000ff9:	5f444953          	.insn	4, 0x5f444953
    41000ffd:	5845                	.insn	2, 0x5845
    41000fff:	5f504543          	.insn	4, 0x5f504543
    41001003:	3430                	.insn	2, 0x3430
    41001005:	455f 5a51 465f      	.insn	6, 0x465f5a51455f
    4100100b:	4941                	.insn	2, 0x4941
    4100100d:	494c                	.insn	2, 0x494c
    4100100f:	474e                	.insn	2, 0x474e
    41001011:	535f 4255       	.insn	6, 0x53004255535f

0000000041001016 <dtest_name_14>:
    41001016:	5f444953          	.insn	4, 0x5f444953
    4100101a:	5845                	.insn	2, 0x5845
    4100101c:	5f504543          	.insn	4, 0x5f504543
    41001020:	3430                	.insn	2, 0x3430
    41001022:	4e5f 5a45 505f      	.insn	6, 0x505f5a454e5f
    41001028:	5341                	.insn	2, 0x5341
    4100102a:	474e4953          	.insn	4, 0x474e4953
    4100102e:	415f 4444       	.insn	6, 0x53004444415f

0000000041001033 <dtest_name_15>:
    41001033:	5f444953          	.insn	4, 0x5f444953
    41001037:	5845                	.insn	2, 0x5845
    41001039:	5f504543          	.insn	4, 0x5f504543
    4100103d:	3430                	.insn	2, 0x3430
    4100103f:	4e5f 5a45 465f      	.insn	6, 0x465f5a454e5f
    41001045:	4941                	.insn	2, 0x4941
    41001047:	494c                	.insn	2, 0x494c
    41001049:	474e                	.insn	2, 0x474e
    4100104b:	415f 4444       	.insn	6, 0x53004444415f

0000000041001050 <dtest_name_16>:
    41001050:	5f444953          	.insn	4, 0x5f444953
    41001054:	5845                	.insn	2, 0x5845
    41001056:	5f504543          	.insn	4, 0x5f504543
    4100105a:	3430                	.insn	2, 0x3430
    4100105c:	455f 5a51 505f      	.insn	6, 0x505f5a51455f
    41001062:	5341                	.insn	2, 0x5341
    41001064:	474e4953          	.insn	4, 0x474e4953
    41001068:	415f 444e       	.insn	6, 0x5300444e415f

000000004100106d <dtest_name_17>:
    4100106d:	5f444953          	.insn	4, 0x5f444953
    41001071:	5845                	.insn	2, 0x5845
    41001073:	5f504543          	.insn	4, 0x5f504543
    41001077:	3430                	.insn	2, 0x3430
    41001079:	455f 5a51 465f      	.insn	6, 0x465f5a51455f
    4100107f:	4941                	.insn	2, 0x4941
    41001081:	494c                	.insn	2, 0x494c
    41001083:	474e                	.insn	2, 0x474e
    41001085:	415f 444e       	.insn	6, 0x5300444e415f

000000004100108a <dtest_name_18>:
    4100108a:	5f444953          	.insn	4, 0x5f444953
    4100108e:	5845                	.insn	2, 0x5845
    41001090:	5f504543          	.insn	4, 0x5f504543
    41001094:	3430                	.insn	2, 0x3430
    41001096:	455f 5a51 505f      	.insn	6, 0x505f5a51455f
    4100109c:	5341                	.insn	2, 0x5341
    4100109e:	474e4953          	.insn	4, 0x474e4953
    410010a2:	585f 524f       	.insn	6, 0x5300524f585f

00000000410010a7 <dtest_name_19>:
    410010a7:	5f444953          	.insn	4, 0x5f444953
    410010ab:	5845                	.insn	2, 0x5845
    410010ad:	5f504543          	.insn	4, 0x5f504543
    410010b1:	3430                	.insn	2, 0x3430
    410010b3:	455f 5a51 465f      	.insn	6, 0x465f5a51455f
    410010b9:	4941                	.insn	2, 0x4941
    410010bb:	494c                	.insn	2, 0x494c
    410010bd:	474e                	.insn	2, 0x474e
    410010bf:	585f 524f       	.insn	6, 0x5300524f585f

00000000410010c4 <dtest_name_20>:
    410010c4:	5f444953          	.insn	4, 0x5f444953
    410010c8:	5845                	.insn	2, 0x5845
    410010ca:	5f504543          	.insn	4, 0x5f504543
    410010ce:	3430                	.insn	2, 0x3430
    410010d0:	4e5f 5a45 505f      	.insn	6, 0x505f5a454e5f
    410010d6:	5341                	.insn	2, 0x5341
    410010d8:	474e4953          	.insn	4, 0x474e4953
    410010dc:	415f 444e       	.insn	6, 0x5300444e415f

00000000410010e1 <dtest_name_21>:
    410010e1:	5f444953          	.insn	4, 0x5f444953
    410010e5:	5845                	.insn	2, 0x5845
    410010e7:	5f504543          	.insn	4, 0x5f504543
    410010eb:	3430                	.insn	2, 0x3430
    410010ed:	4e5f 5a45 465f      	.insn	6, 0x465f5a454e5f
    410010f3:	4941                	.insn	2, 0x4941
    410010f5:	494c                	.insn	2, 0x494c
    410010f7:	474e                	.insn	2, 0x474e
    410010f9:	415f 444e       	.insn	6, 0x5300444e415f

00000000410010fe <dtest_name_22>:
    410010fe:	5f444953          	.insn	4, 0x5f444953
    41001102:	5845                	.insn	2, 0x5845
    41001104:	5f504543          	.insn	4, 0x5f504543
    41001108:	3430                	.insn	2, 0x3430
    4100110a:	4e5f 5a45 505f      	.insn	6, 0x505f5a454e5f
    41001110:	5341                	.insn	2, 0x5341
    41001112:	474e4953          	.insn	4, 0x474e4953
    41001116:	585f 524f       	.insn	6, 0x5300524f585f

000000004100111b <dtest_name_23>:
    4100111b:	5f444953          	.insn	4, 0x5f444953
    4100111f:	5845                	.insn	2, 0x5845
    41001121:	5f504543          	.insn	4, 0x5f504543
    41001125:	3430                	.insn	2, 0x3430
    41001127:	4e5f 5a45 465f      	.insn	6, 0x465f5a454e5f
    4100112d:	4941                	.insn	2, 0x4941
    4100112f:	494c                	.insn	2, 0x494c
    41001131:	474e                	.insn	2, 0x474e
    41001133:	585f 524f       	.insn	6, 0x5300524f585f

0000000041001138 <dtest_name_24>:
    41001138:	5f444953          	.insn	4, 0x5f444953
    4100113c:	5845                	.insn	2, 0x5845
    4100113e:	5f504543          	.insn	4, 0x5f504543
    41001142:	3430                	.insn	2, 0x3430
    41001144:	325f 315f 4d5f      	.insn	6, 0x4d5f315f325f
    4100114a:	5855                	.insn	2, 0x5855
    4100114c:	535f 4c45 4345      	.insn	6, 0x43454c45535f
    41001152:	5f54                	.insn	2, 0x5f54
    41001154:	0030                	.insn	2, 0x0030

0000000041001156 <dtest_name_25>:
    41001156:	5f444953          	.insn	4, 0x5f444953
    4100115a:	5845                	.insn	2, 0x5845
    4100115c:	5f504543          	.insn	4, 0x5f504543
    41001160:	3430                	.insn	2, 0x3430
    41001162:	325f 315f 4d5f      	.insn	6, 0x4d5f315f325f
    41001168:	5855                	.insn	2, 0x5855
    4100116a:	535f 4c45 4345      	.insn	6, 0x43454c45535f
    41001170:	5f54                	.insn	2, 0x5f54
    41001172:	0031                	.insn	2, 0x0031

0000000041001174 <dtest_index_map>:
    41001174:	ffff                	.insn	2, 0xffff
    41001176:	ffff                	.insn	2, 0xffff
    41001178:	0000                	.insn	2, 0x0000
    4100117a:	0000                	.insn	2, 0x0000
    4100117c:	0001                	.insn	2, 0x0001
    4100117e:	0000                	.insn	2, 0x0000
    41001180:	00000017          	auipc	x0,0x0
    41001184:	0002                	.insn	2, 0x0002
    41001186:	0000                	.insn	2, 0x0000
    41001188:	00000013          	nop
    4100118c:	0000000f          	fence	unknown,unknown
    41001190:	0018                	.insn	2, 0x0018
    41001192:	0000                	.insn	2, 0x0000
    41001194:	0011                	.insn	2, 0x0011
    41001196:	0000                	.insn	2, 0x0000
    41001198:	0008                	.insn	2, 0x0008
    4100119a:	0000                	.insn	2, 0x0000
    4100119c:	0014                	.insn	2, 0x0014
    4100119e:	0000                	.insn	2, 0x0000
    410011a0:	00000003          	lb	x0,0(x0) # 0 <ALL_4KB_PAGES>
    410011a4:	00000013          	nop
    410011a8:	0004                	.insn	2, 0x0004
    410011aa:	0000                	.insn	2, 0x0000
    410011ac:	0006                	.insn	2, 0x0006
    410011ae:	0000                	.insn	2, 0x0000
    410011b0:	0016                	.insn	2, 0x0016
    410011b2:	0000                	.insn	2, 0x0000
    410011b4:	000a                	.insn	2, 0x000a
    410011b6:	0000                	.insn	2, 0x0000
    410011b8:	0006                	.insn	2, 0x0006
    410011ba:	0000                	.insn	2, 0x0000
    410011bc:	000d                	.insn	2, 0x000d
    410011be:	0000                	.insn	2, 0x0000
    410011c0:	0015                	.insn	2, 0x0015
    410011c2:	0000                	.insn	2, 0x0000
    410011c4:	0019                	.insn	2, 0x0019
    410011c6:	0000                	.insn	2, 0x0000
    410011c8:	0005                	.insn	2, 0x0005
    410011ca:	0000                	.insn	2, 0x0000
    410011cc:	000e                	.insn	2, 0x000e
    410011ce:	0000                	.insn	2, 0x0000
    410011d0:	0000000b          	.insn	4, 0x000b
    410011d4:	000c                	.insn	2, 0x000c
    410011d6:	0000                	.insn	2, 0x0000
    410011d8:	000a                	.insn	2, 0x000a
    410011da:	0000                	.insn	2, 0x0000
    410011dc:	0004                	.insn	2, 0x0004
    410011de:	0000                	.insn	2, 0x0000
    410011e0:	0011                	.insn	2, 0x0011
    410011e2:	0000                	.insn	2, 0x0000
    410011e4:	0001                	.insn	2, 0x0001
    410011e6:	0000                	.insn	2, 0x0000
    410011e8:	0018                	.insn	2, 0x0018
    410011ea:	0000                	.insn	2, 0x0000
    410011ec:	0011                	.insn	2, 0x0011
    410011ee:	0000                	.insn	2, 0x0000
    410011f0:	000c                	.insn	2, 0x000c
    410011f2:	0000                	.insn	2, 0x0000
    410011f4:	00000007          	vle8.v	v0,(x0),v0.t
    410011f8:	000c                	.insn	2, 0x000c
    410011fa:	0000                	.insn	2, 0x0000
    410011fc:	0008                	.insn	2, 0x0008
    410011fe:	0000                	.insn	2, 0x0000
    41001200:	0009                	.insn	2, 0x0009
    41001202:	0000                	.insn	2, 0x0000
    41001204:	000e                	.insn	2, 0x000e
    41001206:	0000                	.insn	2, 0x0000
    41001208:	0010                	.insn	2, 0x0010
    4100120a:	0000                	.insn	2, 0x0000
    4100120c:	0018                	.insn	2, 0x0018
    4100120e:	0000                	.insn	2, 0x0000
    41001210:	0015                	.insn	2, 0x0015
    41001212:	0000                	.insn	2, 0x0000
    41001214:	000d                	.insn	2, 0x000d
    41001216:	0000                	.insn	2, 0x0000
    41001218:	0014                	.insn	2, 0x0014
    4100121a:	0000                	.insn	2, 0x0000
    4100121c:	0002                	.insn	2, 0x0002
    4100121e:	0000                	.insn	2, 0x0000
    41001220:	000e                	.insn	2, 0x000e
    41001222:	0000                	.insn	2, 0x0000
    41001224:	0012                	.insn	2, 0x0012
    41001226:	0000                	.insn	2, 0x0000
    41001228:	0010                	.insn	2, 0x0010
    4100122a:	0000                	.insn	2, 0x0000
    4100122c:	0014                	.insn	2, 0x0014
    4100122e:	0000                	.insn	2, 0x0000
    41001230:	0004                	.insn	2, 0x0004
    41001232:	0000                	.insn	2, 0x0000
    41001234:	0005                	.insn	2, 0x0005
    41001236:	0000                	.insn	2, 0x0000
    41001238:	0019                	.insn	2, 0x0019
    4100123a:	0000                	.insn	2, 0x0000
    4100123c:	0000000b          	.insn	4, 0x000b
    41001240:	0019                	.insn	2, 0x0019
    41001242:	0000                	.insn	2, 0x0000
    41001244:	0000000b          	.insn	4, 0x000b
    41001248:	00000017          	auipc	x0,0x0
    4100124c:	0008                	.insn	2, 0x0008
    4100124e:	0000                	.insn	2, 0x0000
    41001250:	0016                	.insn	2, 0x0016
    41001252:	0000                	.insn	2, 0x0000
    41001254:	0009                	.insn	2, 0x0009
    41001256:	0000                	.insn	2, 0x0000
    41001258:	00000007          	vle8.v	v0,(x0),v0.t
    4100125c:	0000                	.insn	2, 0x0000
    4100125e:	0000                	.insn	2, 0x0000
    41001260:	0016                	.insn	2, 0x0016
    41001262:	0000                	.insn	2, 0x0000
    41001264:	0000                	.insn	2, 0x0000
    41001266:	0000                	.insn	2, 0x0000
    41001268:	00000013          	nop
    4100126c:	0005                	.insn	2, 0x0005
    4100126e:	0000                	.insn	2, 0x0000
    41001270:	00000017          	auipc	x0,0x0
    41001274:	0012                	.insn	2, 0x0012
    41001276:	0000                	.insn	2, 0x0000
    41001278:	0000000f          	fence	unknown,unknown
    4100127c:	0015                	.insn	2, 0x0015
    4100127e:	0000                	.insn	2, 0x0000
    41001280:	0010                	.insn	2, 0x0010
    41001282:	0000                	.insn	2, 0x0000
    41001284:	0012                	.insn	2, 0x0012
    41001286:	0000                	.insn	2, 0x0000
    41001288:	0006                	.insn	2, 0x0006
    4100128a:	0000                	.insn	2, 0x0000
    4100128c:	0001                	.insn	2, 0x0001
    4100128e:	0000                	.insn	2, 0x0000
    41001290:	0009                	.insn	2, 0x0009
    41001292:	0000                	.insn	2, 0x0000
    41001294:	000a                	.insn	2, 0x000a
    41001296:	0000                	.insn	2, 0x0000
    41001298:	000d                	.insn	2, 0x000d
    4100129a:	0000                	.insn	2, 0x0000
    4100129c:	00000007          	vle8.v	v0,(x0),v0.t
    410012a0:	0000000f          	fence	unknown,unknown
    410012a4:	00000003          	lb	x0,0(x0) # 0 <ALL_4KB_PAGES>
    410012a8:	00000003          	lb	x0,0(x0) # 0 <ALL_4KB_PAGES>
    410012ac:	0002                	.insn	2, 0x0002
    410012ae:	0000                	.insn	2, 0x0000
    410012b0:	0000                	.insn	2, 0x0000
	...

00000000410012b4 <scheduler__test_setup_ptr>:
    410012b4:	5120                	.insn	2, 0x5120
    410012b6:	4101                	.insn	2, 0x4101
    410012b8:	0000                	.insn	2, 0x0000
	...

00000000410012bc <scheduler__test_cleanup_ptr>:
    410012bc:	5980                	.insn	2, 0x5980
    410012be:	4101                	.insn	2, 0x4101
    410012c0:	0000                	.insn	2, 0x0000
	...

Disassembly of section .runtime_s:

0000000041011000 <trap_handler_s__invalid_interrupt>:
    41011000:	1740006f          	j	41011174 <trap_handler_s__test_failed>

0000000041011004 <trap_handler_s__clear_all_interrupts>:
    41011004:	14401073          	csrw	sip,x0
    41011008:	10200073          	sret

000000004101100c <trap_handler_s___CLEAR_SSI>:
    4101100c:	00200293          	li	x5,2
    41011010:	1442b073          	csrc	sip,x5
    41011014:	10200073          	sret

0000000041011018 <trap_handler_s___CLEAR_MSI>:
    41011018:	00800293          	li	x5,8
    4101101c:	1442b073          	csrc	sip,x5
    41011020:	10200073          	sret

0000000041011024 <trap_handler_s___CLEAR_STI>:
    41011024:	02000293          	li	x5,32
    41011028:	1442b073          	csrc	sip,x5
    4101102c:	10200073          	sret

0000000041011030 <trap_handler_s___CLEAR_MTI>:
    41011030:	08000293          	li	x5,128
    41011034:	1442b073          	csrc	sip,x5
    41011038:	10200073          	sret

000000004101103c <trap_handler_s___CLEAR_SEI>:
    4101103c:	20000293          	li	x5,512
    41011040:	1442b073          	csrc	sip,x5
    41011044:	10200073          	sret

0000000041011048 <trap_handler_s___CLEAR_MEI>:
    41011048:	000012b7          	lui	x5,0x1
    4101104c:	8002829b          	addiw	x5,x5,-2048 # 800 <XLEN+0x7c0>
    41011050:	1442b073          	csrc	sip,x5
    41011054:	10200073          	sret

0000000041011058 <trap_handler_s___CLEAR_COI>:
    41011058:	000022b7          	lui	x5,0x2
    4101105c:	1442b073          	csrc	sip,x5
    41011060:	10200073          	sret

0000000041011064 <trap_handler_s__clear_highest_priority_interrupt>:
    41011064:	144022f3          	csrr	x5,sip
    41011068:	40500333          	neg	x6,x5
    4101106c:	0062f2b3          	and	x5,x5,x6
    41011070:	1442b073          	csrc	sip,x5
    41011074:	10200073          	sret

0000000041011078 <trap_handler_s__trap_entry>:
    41011078:	10c0006f          	j	41011184 <trap_handler_s__trap_handler>

000000004101107c <trap_handler_s__interrupt_vector_table>:
    4101107c:	f91ff06f          	j	4101100c <trap_handler_s___CLEAR_SSI>
    41011080:	f81ff06f          	j	41011000 <trap_handler_s__invalid_interrupt>
    41011084:	f95ff06f          	j	41011018 <trap_handler_s___CLEAR_MSI>
    41011088:	f79ff06f          	j	41011000 <trap_handler_s__invalid_interrupt>
    4101108c:	f99ff06f          	j	41011024 <trap_handler_s___CLEAR_STI>
    41011090:	f71ff06f          	j	41011000 <trap_handler_s__invalid_interrupt>
    41011094:	f9dff06f          	j	41011030 <trap_handler_s___CLEAR_MTI>
    41011098:	f69ff06f          	j	41011000 <trap_handler_s__invalid_interrupt>
    4101109c:	fa1ff06f          	j	4101103c <trap_handler_s___CLEAR_SEI>
    410110a0:	f61ff06f          	j	41011000 <trap_handler_s__invalid_interrupt>
    410110a4:	fa5ff06f          	j	41011048 <trap_handler_s___CLEAR_MEI>
    410110a8:	f59ff06f          	j	41011000 <trap_handler_s__invalid_interrupt>
    410110ac:	fadff06f          	j	41011058 <trap_handler_s___CLEAR_COI>
    410110b0:	f51ff06f          	j	41011000 <trap_handler_s__invalid_interrupt>
    410110b4:	f4dff06f          	j	41011000 <trap_handler_s__invalid_interrupt>
    410110b8:	fadff06f          	j	41011064 <trap_handler_s__clear_highest_priority_interrupt>
    410110bc:	fa9ff06f          	j	41011064 <trap_handler_s__clear_highest_priority_interrupt>
    410110c0:	fa5ff06f          	j	41011064 <trap_handler_s__clear_highest_priority_interrupt>
    410110c4:	fa1ff06f          	j	41011064 <trap_handler_s__clear_highest_priority_interrupt>
    410110c8:	f9dff06f          	j	41011064 <trap_handler_s__clear_highest_priority_interrupt>
    410110cc:	f99ff06f          	j	41011064 <trap_handler_s__clear_highest_priority_interrupt>
    410110d0:	f95ff06f          	j	41011064 <trap_handler_s__clear_highest_priority_interrupt>
    410110d4:	f91ff06f          	j	41011064 <trap_handler_s__clear_highest_priority_interrupt>
    410110d8:	f8dff06f          	j	41011064 <trap_handler_s__clear_highest_priority_interrupt>
    410110dc:	f89ff06f          	j	41011064 <trap_handler_s__clear_highest_priority_interrupt>
    410110e0:	f85ff06f          	j	41011064 <trap_handler_s__clear_highest_priority_interrupt>
    410110e4:	f81ff06f          	j	41011064 <trap_handler_s__clear_highest_priority_interrupt>
    410110e8:	f7dff06f          	j	41011064 <trap_handler_s__clear_highest_priority_interrupt>
    410110ec:	f79ff06f          	j	41011064 <trap_handler_s__clear_highest_priority_interrupt>
    410110f0:	f75ff06f          	j	41011064 <trap_handler_s__clear_highest_priority_interrupt>
    410110f4:	f71ff06f          	j	41011064 <trap_handler_s__clear_highest_priority_interrupt>
    410110f8:	f6dff06f          	j	41011064 <trap_handler_s__clear_highest_priority_interrupt>
    410110fc:	f69ff06f          	j	41011064 <trap_handler_s__clear_highest_priority_interrupt>
    41011100:	f65ff06f          	j	41011064 <trap_handler_s__clear_highest_priority_interrupt>
    41011104:	f61ff06f          	j	41011064 <trap_handler_s__clear_highest_priority_interrupt>
    41011108:	f5dff06f          	j	41011064 <trap_handler_s__clear_highest_priority_interrupt>
    4101110c:	f59ff06f          	j	41011064 <trap_handler_s__clear_highest_priority_interrupt>
    41011110:	f55ff06f          	j	41011064 <trap_handler_s__clear_highest_priority_interrupt>
    41011114:	f51ff06f          	j	41011064 <trap_handler_s__clear_highest_priority_interrupt>
    41011118:	f4dff06f          	j	41011064 <trap_handler_s__clear_highest_priority_interrupt>
    4101111c:	f49ff06f          	j	41011064 <trap_handler_s__clear_highest_priority_interrupt>
    41011120:	f45ff06f          	j	41011064 <trap_handler_s__clear_highest_priority_interrupt>
    41011124:	f41ff06f          	j	41011064 <trap_handler_s__clear_highest_priority_interrupt>
    41011128:	f3dff06f          	j	41011064 <trap_handler_s__clear_highest_priority_interrupt>
    4101112c:	f39ff06f          	j	41011064 <trap_handler_s__clear_highest_priority_interrupt>
    41011130:	f35ff06f          	j	41011064 <trap_handler_s__clear_highest_priority_interrupt>
    41011134:	f31ff06f          	j	41011064 <trap_handler_s__clear_highest_priority_interrupt>
    41011138:	f2dff06f          	j	41011064 <trap_handler_s__clear_highest_priority_interrupt>
    4101113c:	f29ff06f          	j	41011064 <trap_handler_s__clear_highest_priority_interrupt>
    41011140:	f25ff06f          	j	41011064 <trap_handler_s__clear_highest_priority_interrupt>
    41011144:	f21ff06f          	j	41011064 <trap_handler_s__clear_highest_priority_interrupt>
    41011148:	f1dff06f          	j	41011064 <trap_handler_s__clear_highest_priority_interrupt>
    4101114c:	f19ff06f          	j	41011064 <trap_handler_s__clear_highest_priority_interrupt>
    41011150:	f15ff06f          	j	41011064 <trap_handler_s__clear_highest_priority_interrupt>
    41011154:	f11ff06f          	j	41011064 <trap_handler_s__clear_highest_priority_interrupt>
    41011158:	f0dff06f          	j	41011064 <trap_handler_s__clear_highest_priority_interrupt>
    4101115c:	f09ff06f          	j	41011064 <trap_handler_s__clear_highest_priority_interrupt>
    41011160:	f05ff06f          	j	41011064 <trap_handler_s__clear_highest_priority_interrupt>
    41011164:	f01ff06f          	j	41011064 <trap_handler_s__clear_highest_priority_interrupt>
    41011168:	efdff06f          	j	41011064 <trap_handler_s__clear_highest_priority_interrupt>
    4101116c:	ef9ff06f          	j	41011064 <trap_handler_s__clear_highest_priority_interrupt>
    41011170:	ef5ff06f          	j	41011064 <trap_handler_s__clear_highest_priority_interrupt>

0000000041011174 <trap_handler_s__test_failed>:
    41011174:	00f00f9b          	addiw	x31,x0,15
    41011178:	01cf9f93          	slli	x31,x31,0x1c
    4101117c:	002f8f93          	addi	x31,x31,2
    41011180:	00000073          	ecall

0000000041011184 <trap_handler_s__trap_handler>:
    41011184:	142022f3          	csrr	x5,scause
    41011188:	fff0031b          	addiw	x6,x0,-1
    4101118c:	03f31313          	slli	x6,x6,0x3f
    41011190:	00537333          	and	x6,x6,x5
    41011194:	02030263          	beqz	x6,410111b8 <trap_handler_s__exception_path>

0000000041011198 <trap_handler_s__interrupt_handler>:
    41011198:	fff0031b          	addiw	x6,x0,-1
    4101119c:	03f31313          	slli	x6,x6,0x3f
    410111a0:	0062c2b3          	xor	x5,x5,x6
    410111a4:	00000317          	auipc	x6,0x0
    410111a8:	ed430313          	addi	x6,x6,-300 # 41011078 <trap_handler_s__trap_entry>
    410111ac:	00229293          	slli	x5,x5,0x2
    410111b0:	005302b3          	add	x5,x6,x5
    410111b4:	00028067          	jr	x5 # 2000 <SID_EXCEP_02_NEZ_RS1_Z_stack>

00000000410111b8 <trap_handler_s__exception_path>:
    410111b8:	14021273          	csrrw	x4,sscratch,x4
    410111bc:	00000297          	auipc	x5,0x0
    410111c0:	0cc28293          	addi	x5,x5,204 # 41011288 <trap_handler_s__trap_panic>
    410111c4:	10529073          	csrw	stvec,x5
    410111c8:	0040006f          	j	410111cc <trap_handler_s__excp_entry>

00000000410111cc <trap_handler_s__excp_entry>:
    410111cc:	14202373          	csrr	x6,scause
    410111d0:	00800293          	li	x5,8
    410111d4:	00534863          	blt	x6,x5,410111e4 <trap_handler_s__check_exception_label>
    410111d8:	00b00293          	li	x5,11
    410111dc:	0062c463          	blt	x5,x6,410111e4 <trap_handler_s__check_exception_label>
    410111e0:	0a80006f          	j	41011288 <trap_handler_s__trap_panic>

00000000410111e4 <trap_handler_s__check_exception_label>:
    410111e4:	04623c23          	sd	x6,88(x4) # 58 <XLEN+0x18>
    410111e8:	141022f3          	csrr	x5,sepc
    410111ec:	02523423          	sd	x5,40(x4) # 28 <SECURE_ACCESS_PROBABILITY+0xa>
    410111f0:	01820283          	lb	x5,24(x4) # 18 <STORE_GUEST_PAGE_FAULT+0x1>
    410111f4:	00029863          	bnez	x5,41011204 <trap_handler_s__check_excp>
    410111f8:	00128293          	addi	x5,x5,1
    410111fc:	00520c23          	sb	x5,24(x4) # 18 <STORE_GUEST_PAGE_FAULT+0x1>
    41011200:	05c0006f          	j	4101125c <trap_handler_s__ecall_from_machine>

0000000041011204 <trap_handler_s__check_excp>:
    41011204:	06823283          	ld	x5,104(x4) # 68 <XLEN+0x28>
    41011208:	06023423          	sd	x0,104(x4) # 68 <XLEN+0x28>
    4101120c:	00028663          	beqz	x5,41011218 <trap_handler_s__skip_mode_check>
    41011210:	00300393          	li	x7,3
    41011214:	f67290e3          	bne	x5,x7,41011174 <trap_handler_s__test_failed>

0000000041011218 <trap_handler_s__skip_mode_check>:
    41011218:	05023283          	ld	x5,80(x4) # 50 <XLEN+0x10>
    4101121c:	04023823          	sd	x0,80(x4) # 50 <XLEN+0x10>
    41011220:	f4531ae3          	bne	x6,x5,41011174 <trap_handler_s__test_failed>
    41011224:	03823283          	ld	x5,56(x4) # 38 <SECURE_ACCESS_PROBABILITY+0x1a>
    41011228:	02023c23          	sd	x0,56(x4) # 38 <SECURE_ACCESS_PROBABILITY+0x1a>
    4101122c:	02029663          	bnez	x5,41011258 <trap_handler_s__skip_nonzero_tval_check>
    41011230:	02023303          	ld	x6,32(x4) # 20 <SECURE_ACCESS_PROBABILITY+0x2>
    41011234:	02023023          	sd	x0,32(x4) # 20 <SECURE_ACCESS_PROBABILITY+0x2>
    41011238:	02823283          	ld	x5,40(x4) # 28 <SECURE_ACCESS_PROBABILITY+0xa>
    4101123c:	02023423          	sd	x0,40(x4) # 28 <SECURE_ACCESS_PROBABILITY+0xa>
    41011240:	f2531ae3          	bne	x6,x5,41011174 <trap_handler_s__test_failed>
    41011244:	04023283          	ld	x5,64(x4) # 40 <XLEN>
    41011248:	04023023          	sd	x0,64(x4) # 40 <XLEN>
    4101124c:	00028663          	beqz	x5,41011258 <trap_handler_s__skip_nonzero_tval_check>

0000000041011250 <trap_handler_s__nonzero_tval_check>:
    41011250:	14302373          	csrr	x6,stval
    41011254:	f25310e3          	bne	x6,x5,41011174 <trap_handler_s__test_failed>

0000000041011258 <trap_handler_s__skip_nonzero_tval_check>:
    41011258:	0040006f          	j	4101125c <trap_handler_s__ecall_from_machine>

000000004101125c <trap_handler_s__ecall_from_machine>:
    4101125c:	03023283          	ld	x5,48(x4) # 30 <SECURE_ACCESS_PROBABILITY+0x12>
    41011260:	02023823          	sd	x0,48(x4) # 30 <SECURE_ACCESS_PROBABILITY+0x12>
    41011264:	07023303          	ld	x6,112(x4) # 70 <XLEN+0x30>
    41011268:	06023823          	sd	x0,112(x4) # 70 <XLEN+0x30>
    4101126c:	00031463          	bnez	x6,41011274 <trap_handler_s__skip_xepc_write>
    41011270:	14129073          	csrw	sepc,x5

0000000041011274 <trap_handler_s__skip_xepc_write>:
    41011274:	00000317          	auipc	x6,0x0
    41011278:	e0430313          	addi	x6,x6,-508 # 41011078 <trap_handler_s__trap_entry>
    4101127c:	10531073          	csrw	stvec,x6
    41011280:	14021273          	csrrw	x4,sscratch,x4
    41011284:	10200073          	sret

0000000041011288 <trap_handler_s__trap_panic>:
    41011288:	00000193          	li	x3,0
    4101128c:	00f00f9b          	addiw	x31,x0,15
    41011290:	01cf9f93          	slli	x31,x31,0x1c
    41011294:	002f8f93          	addi	x31,x31,2
    41011298:	00000073          	ecall

Disassembly of section .code:

00000000410150f0 <passed>:
    410150f0:	00f00f9b          	addiw	x31,x0,15
    410150f4:	01cf9f93          	slli	x31,x31,0x1c
    410150f8:	001f8f93          	addi	x31,x31,1
    410150fc:	00000073          	ecall

0000000041015100 <failed>:
    41015100:	00f00f9b          	addiw	x31,x0,15
    41015104:	01cf9f93          	slli	x31,x31,0x1c
    41015108:	002f8f93          	addi	x31,x31,2
    4101510c:	00000073          	ecall

0000000041015110 <end_test>:
    41015110:	00f00f9b          	addiw	x31,x0,15
    41015114:	01cf9f93          	slli	x31,x31,0x1c
    41015118:	003f8f93          	addi	x31,x31,3
    4101511c:	00000073          	ecall

0000000041015120 <test_setup>:
    41015120:	00f00f9b          	addiw	x31,x0,15
    41015124:	01cf9f93          	slli	x31,x31,0x1c
    41015128:	001f8f93          	addi	x31,x31,1
    4101512c:	00000073          	ecall

0000000041015130 <SID_EXCEP_01_EQZ_RS1_NZ>:
    41015130:	0001d137          	lui	x2,0x1d
    41015134:	000012b7          	lui	x5,0x1
    41015138:	00510133          	add	x2,x2,x5
    4101513c:	ff017113          	andi	x2,x2,-16
    41015140:	00000393          	li	x7,0
    41015144:	00c104b7          	lui	x9,0xc10
    41015148:	fee4849b          	addiw	x9,x9,-18 # c0ffee <tp_csr_storage+0x82bfee>
    4101514c:	0e74d533          	czero.eqz	x10,x9,x7
    41015150:	00000a13          	li	x20,0
    41015154:	01450a63          	beq	x10,x20,41015168 <SID_EXCEP_01_EQZ_RS1_NZ_passed>
    41015158:	00046737          	lui	x14,0x46
    4101515c:	0087071b          	addiw	x14,x14,8 # 46008 <failed_addr>
    41015160:	00073503          	ld	x10,0(x14)
    41015164:	00050067          	jr	x10

0000000041015168 <SID_EXCEP_01_EQZ_RS1_NZ_passed>:
    41015168:	00f00f9b          	addiw	x31,x0,15
    4101516c:	01cf9f93          	slli	x31,x31,0x1c
    41015170:	001f8f93          	addi	x31,x31,1
    41015174:	00000073          	ecall

0000000041015178 <SID_EXCEP_01_EQZ_RS1_Z>:
    41015178:	00357137          	lui	x2,0x357
    4101517c:	92b1011b          	addiw	x2,x2,-1749 # 35692b <SID_EXCEP_04_NEZ_PASSING_AND_stack+0x2e192b>
    41015180:	00e11113          	slli	x2,x2,0xe
    41015184:	000012b7          	lui	x5,0x1
    41015188:	00510133          	add	x2,x2,x5
    4101518c:	ff017113          	andi	x2,x2,-16
    41015190:	00000f93          	li	x31,0
    41015194:	00000d93          	li	x27,0
    41015198:	0ffdd7b3          	czero.eqz	x15,x27,x31
    4101519c:	00000713          	li	x14,0
    410151a0:	00e78a63          	beq	x15,x14,410151b4 <SID_EXCEP_01_EQZ_RS1_Z_passed>
    410151a4:	00046e37          	lui	x28,0x46
    410151a8:	008e0e1b          	addiw	x28,x28,8 # 46008 <failed_addr>
    410151ac:	000e3603          	ld	x12,0(x28)
    410151b0:	00060067          	jr	x12

00000000410151b4 <SID_EXCEP_01_EQZ_RS1_Z_passed>:
    410151b4:	00f00f9b          	addiw	x31,x0,15
    410151b8:	01cf9f93          	slli	x31,x31,0x1c
    410151bc:	001f8f93          	addi	x31,x31,1
    410151c0:	00000073          	ecall

00000000410151c4 <SID_EXCEP_01_NEZ_RS1_NZ>:
    410151c4:	00018137          	lui	x2,0x18
    410151c8:	f8f1011b          	addiw	x2,x2,-113 # 17f8f <hart_stack_0_end+0xef8f>
    410151cc:	00f11113          	slli	x2,x2,0xf
    410151d0:	000012b7          	lui	x5,0x1
    410151d4:	00510133          	add	x2,x2,x5
    410151d8:	ff017113          	andi	x2,x2,-16
    410151dc:	00038cb7          	lui	x25,0x38
    410151e0:	ab7c8c9b          	addiw	x25,x25,-1353 # 37ab7 <SID_EXCEP_01_EQZ_RS1_NZ_stack+0x1aab7>
    410151e4:	00ec9c93          	slli	x25,x25,0xe
    410151e8:	eefc8c93          	addi	x25,x25,-273
    410151ec:	00c103b7          	lui	x7,0xc10
    410151f0:	fee3839b          	addiw	x7,x7,-18 # c0ffee <tp_csr_storage+0x82bfee>
    410151f4:	0f93fd33          	czero.nez	x26,x7,x25
    410151f8:	00000f13          	li	x30,0
    410151fc:	01ed0a63          	beq	x26,x30,41015210 <SID_EXCEP_01_NEZ_RS1_NZ_passed>
    41015200:	00046637          	lui	x12,0x46
    41015204:	0086061b          	addiw	x12,x12,8 # 46008 <failed_addr>
    41015208:	00063a83          	ld	x21,0(x12)
    4101520c:	000a8067          	jr	x21

0000000041015210 <SID_EXCEP_01_NEZ_RS1_NZ_passed>:
    41015210:	00f00f9b          	addiw	x31,x0,15
    41015214:	01cf9f93          	slli	x31,x31,0x1c
    41015218:	001f8f93          	addi	x31,x31,1
    4101521c:	00000073          	ecall

0000000041015220 <SID_EXCEP_01_NEZ_RS1_Z>:
    41015220:	15cd9137          	lui	x2,0x15cd9
    41015224:	000012b7          	lui	x5,0x1
    41015228:	00510133          	add	x2,x2,x5
    4101522c:	ff017113          	andi	x2,x2,-16
    41015230:	00038d37          	lui	x26,0x38
    41015234:	ab7d0d1b          	addiw	x26,x26,-1353 # 37ab7 <SID_EXCEP_01_EQZ_RS1_NZ_stack+0x1aab7>
    41015238:	00ed1d13          	slli	x26,x26,0xe
    4101523c:	eefd0d13          	addi	x26,x26,-273
    41015240:	00000913          	li	x18,0
    41015244:	0fa97933          	czero.nez	x18,x18,x26
    41015248:	00000f93          	li	x31,0
    4101524c:	01f90a63          	beq	x18,x31,41015260 <SID_EXCEP_01_NEZ_RS1_Z_passed>
    41015250:	00046bb7          	lui	x23,0x46
    41015254:	008b8b9b          	addiw	x23,x23,8 # 46008 <failed_addr>
    41015258:	000bb883          	ld	x17,0(x23)
    4101525c:	00088067          	jr	x17

0000000041015260 <SID_EXCEP_01_NEZ_RS1_Z_passed>:
    41015260:	00f00f9b          	addiw	x31,x0,15
    41015264:	01cf9f93          	slli	x31,x31,0x1c
    41015268:	001f8f93          	addi	x31,x31,1
    4101526c:	00000073          	ecall

0000000041015270 <SID_EXCEP_02_EQZ_RS1_NZ>:
    41015270:	07d4b137          	lui	x2,0x7d4b
    41015274:	2871011b          	addiw	x2,x2,647 # 7d4b287 <SID_EXCEP_04_EQZ_FAILING_SUB_stack+0xd10287>
    41015278:	00d11113          	slli	x2,x2,0xd
    4101527c:	000012b7          	lui	x5,0x1
    41015280:	00510133          	add	x2,x2,x5
    41015284:	ff017113          	andi	x2,x2,-16
    41015288:	00038bb7          	lui	x23,0x38
    4101528c:	ab7b8b9b          	addiw	x23,x23,-1353 # 37ab7 <SID_EXCEP_01_EQZ_RS1_NZ_stack+0x1aab7>
    41015290:	00eb9b93          	slli	x23,x23,0xe
    41015294:	eefb8b93          	addi	x23,x23,-273
    41015298:	00c10a37          	lui	x20,0xc10
    4101529c:	feea0a1b          	addiw	x20,x20,-18 # c0ffee <tp_csr_storage+0x82bfee>
    410152a0:	0f7a5c33          	czero.eqz	x24,x20,x23
    410152a4:	00c10737          	lui	x14,0xc10
    410152a8:	fee7071b          	addiw	x14,x14,-18 # c0ffee <tp_csr_storage+0x82bfee>
    410152ac:	00ec0a63          	beq	x24,x14,410152c0 <SID_EXCEP_02_EQZ_RS1_NZ_passed>
    410152b0:	000463b7          	lui	x7,0x46
    410152b4:	0083839b          	addiw	x7,x7,8 # 46008 <failed_addr>
    410152b8:	0003b303          	ld	x6,0(x7)
    410152bc:	00030067          	jr	x6

00000000410152c0 <SID_EXCEP_02_EQZ_RS1_NZ_passed>:
    410152c0:	00f00f9b          	addiw	x31,x0,15
    410152c4:	01cf9f93          	slli	x31,x31,0x1c
    410152c8:	001f8f93          	addi	x31,x31,1
    410152cc:	00000073          	ecall

00000000410152d0 <SID_EXCEP_02_EQZ_RS1_Z>:
    410152d0:	09800137          	lui	x2,0x9800
    410152d4:	000012b7          	lui	x5,0x1
    410152d8:	00510133          	add	x2,x2,x5
    410152dc:	ff017113          	andi	x2,x2,-16
    410152e0:	000388b7          	lui	x17,0x38
    410152e4:	ab78889b          	addiw	x17,x17,-1353 # 37ab7 <SID_EXCEP_01_EQZ_RS1_NZ_stack+0x1aab7>
    410152e8:	00e89893          	slli	x17,x17,0xe
    410152ec:	eef88893          	addi	x17,x17,-273
    410152f0:	00000a93          	li	x21,0
    410152f4:	0f1ad833          	czero.eqz	x16,x21,x17
    410152f8:	00000a13          	li	x20,0
    410152fc:	01480a63          	beq	x16,x20,41015310 <SID_EXCEP_02_EQZ_RS1_Z_passed>
    41015300:	00046bb7          	lui	x23,0x46
    41015304:	008b8b9b          	addiw	x23,x23,8 # 46008 <failed_addr>
    41015308:	000bbd83          	ld	x27,0(x23)
    4101530c:	000d8067          	jr	x27

0000000041015310 <SID_EXCEP_02_EQZ_RS1_Z_passed>:
    41015310:	00f00f9b          	addiw	x31,x0,15
    41015314:	01cf9f93          	slli	x31,x31,0x1c
    41015318:	001f8f93          	addi	x31,x31,1
    4101531c:	00000073          	ecall

0000000041015320 <SID_EXCEP_02_NEZ_RS1_Z>:
    41015320:	00002137          	lui	x2,0x2
    41015324:	000012b7          	lui	x5,0x1
    41015328:	00510133          	add	x2,x2,x5
    4101532c:	ff017113          	andi	x2,x2,-16
    41015330:	00000593          	li	x11,0
    41015334:	00c10c37          	lui	x24,0xc10
    41015338:	feec0c1b          	addiw	x24,x24,-18 # c0ffee <tp_csr_storage+0x82bfee>
    4101533c:	0ebc7633          	czero.nez	x12,x24,x11
    41015340:	00c107b7          	lui	x15,0xc10
    41015344:	fee7879b          	addiw	x15,x15,-18 # c0ffee <tp_csr_storage+0x82bfee>
    41015348:	00f60a63          	beq	x12,x15,4101535c <SID_EXCEP_02_NEZ_RS1_Z_passed>
    4101534c:	00046837          	lui	x16,0x46
    41015350:	0088081b          	addiw	x16,x16,8 # 46008 <failed_addr>
    41015354:	00083303          	ld	x6,0(x16)
    41015358:	00030067          	jr	x6

000000004101535c <SID_EXCEP_02_NEZ_RS1_Z_passed>:
    4101535c:	00f00f9b          	addiw	x31,x0,15
    41015360:	01cf9f93          	slli	x31,x31,0x1c
    41015364:	001f8f93          	addi	x31,x31,1
    41015368:	00000073          	ecall

000000004101536c <SID_EXCEP_02_NEZ_RS1_NZ>:
    4101536c:	0025d137          	lui	x2,0x25d
    41015370:	4931011b          	addiw	x2,x2,1171 # 25d493 <SID_EXCEP_04_NEZ_PASSING_AND_stack+0x1e8493>
    41015374:	00f11113          	slli	x2,x2,0xf
    41015378:	000012b7          	lui	x5,0x1
    4101537c:	00510133          	add	x2,x2,x5
    41015380:	ff017113          	andi	x2,x2,-16
    41015384:	00000593          	li	x11,0
    41015388:	00000893          	li	x17,0
    4101538c:	0eb8f633          	czero.nez	x12,x17,x11
    41015390:	00000513          	li	x10,0
    41015394:	00a60a63          	beq	x12,x10,410153a8 <SID_EXCEP_02_NEZ_RS1_NZ_passed>
    41015398:	00046d37          	lui	x26,0x46
    4101539c:	008d0d1b          	addiw	x26,x26,8 # 46008 <failed_addr>
    410153a0:	000d3d83          	ld	x27,0(x26)
    410153a4:	000d8067          	jr	x27

00000000410153a8 <SID_EXCEP_02_NEZ_RS1_NZ_passed>:
    410153a8:	00f00f9b          	addiw	x31,x0,15
    410153ac:	01cf9f93          	slli	x31,x31,0x1c
    410153b0:	001f8f93          	addi	x31,x31,1
    410153b4:	00000073          	ecall

00000000410153b8 <SID_EXCEP_04_EQZ_PASSING_ADD>:
    410153b8:	00044137          	lui	x2,0x44
    410153bc:	000012b7          	lui	x5,0x1
    410153c0:	00510133          	add	x2,x2,x5
    410153c4:	ff017113          	andi	x2,x2,-16
    410153c8:	00a00893          	li	x17,10
    410153cc:	00300b93          	li	x23,3
    410153d0:	00000e93          	li	x29,0
    410153d4:	01788cb3          	add	x25,x17,x23
    410153d8:	0fdcd5b3          	czero.eqz	x11,x25,x29
    410153dc:	00000b13          	li	x22,0
    410153e0:	01658a63          	beq	x11,x22,410153f4 <SID_EXCEP_04_EQZ_PASSING_ADD_passed>
    410153e4:	00046b37          	lui	x22,0x46
    410153e8:	008b0b1b          	addiw	x22,x22,8 # 46008 <failed_addr>
    410153ec:	000b3a83          	ld	x21,0(x22)
    410153f0:	000a8067          	jr	x21

00000000410153f4 <SID_EXCEP_04_EQZ_PASSING_ADD_passed>:
    410153f4:	00f00f9b          	addiw	x31,x0,15
    410153f8:	01cf9f93          	slli	x31,x31,0x1c
    410153fc:	001f8f93          	addi	x31,x31,1
    41015400:	00000073          	ecall

0000000041015404 <SID_EXCEP_04_EQZ_FAILING_ADD>:
    41015404:	00085137          	lui	x2,0x85
    41015408:	b1f1011b          	addiw	x2,x2,-1249 # 84b1f <SID_EXCEP_04_NEZ_PASSING_AND_stack+0xfb1f>
    4101540c:	00c11113          	slli	x2,x2,0xc
    41015410:	000012b7          	lui	x5,0x1
    41015414:	00510133          	add	x2,x2,x5
    41015418:	ff017113          	andi	x2,x2,-16
    4101541c:	00a00e93          	li	x29,10
    41015420:	00300b13          	li	x22,3
    41015424:	00100893          	li	x17,1
    41015428:	016e8d33          	add	x26,x29,x22
    4101542c:	0f1d5933          	czero.eqz	x18,x26,x17
    41015430:	00d00993          	li	x19,13
    41015434:	01390a63          	beq	x18,x19,41015448 <SID_EXCEP_04_EQZ_FAILING_ADD_passed>
    41015438:	00046c37          	lui	x24,0x46
    4101543c:	008c0c1b          	addiw	x24,x24,8 # 46008 <failed_addr>
    41015440:	000c3583          	ld	x11,0(x24)
    41015444:	00058067          	jr	x11

0000000041015448 <SID_EXCEP_04_EQZ_FAILING_ADD_passed>:
    41015448:	00f00f9b          	addiw	x31,x0,15
    4101544c:	01cf9f93          	slli	x31,x31,0x1c
    41015450:	001f8f93          	addi	x31,x31,1
    41015454:	00000073          	ecall

0000000041015458 <SID_EXCEP_04_NEZ_PASSING_SUB>:
    41015458:	6a318137          	lui	x2,0x6a318
    4101545c:	000012b7          	lui	x5,0x1
    41015460:	00510133          	add	x2,x2,x5
    41015464:	ff017113          	andi	x2,x2,-16
    41015468:	00a00f13          	li	x30,10
    4101546c:	00300913          	li	x18,3
    41015470:	00100e93          	li	x29,1
    41015474:	412f0f33          	sub	x30,x30,x18
    41015478:	0fdf7ab3          	czero.nez	x21,x30,x29
    4101547c:	00000e13          	li	x28,0
    41015480:	01ca8a63          	beq	x21,x28,41015494 <SID_EXCEP_04_NEZ_PASSING_SUB_passed>
    41015484:	00046c37          	lui	x24,0x46
    41015488:	008c0c1b          	addiw	x24,x24,8 # 46008 <failed_addr>
    4101548c:	000c3683          	ld	x13,0(x24)
    41015490:	00068067          	jr	x13

0000000041015494 <SID_EXCEP_04_NEZ_PASSING_SUB_passed>:
    41015494:	00f00f9b          	addiw	x31,x0,15
    41015498:	01cf9f93          	slli	x31,x31,0x1c
    4101549c:	001f8f93          	addi	x31,x31,1
    410154a0:	00000073          	ecall

00000000410154a4 <SID_EXCEP_04_NEZ_FAILING_SUB>:
    410154a4:	00041137          	lui	x2,0x41
    410154a8:	000012b7          	lui	x5,0x1
    410154ac:	00510133          	add	x2,x2,x5
    410154b0:	ff017113          	andi	x2,x2,-16
    410154b4:	00a00a93          	li	x21,10
    410154b8:	00300713          	li	x14,3
    410154bc:	00000b93          	li	x23,0
    410154c0:	40ea8cb3          	sub	x25,x21,x14
    410154c4:	0f7cfd33          	czero.nez	x26,x25,x23
    410154c8:	00700913          	li	x18,7
    410154cc:	012d0a63          	beq	x26,x18,410154e0 <SID_EXCEP_04_NEZ_FAILING_SUB_passed>
    410154d0:	00046737          	lui	x14,0x46
    410154d4:	0087071b          	addiw	x14,x14,8 # 46008 <failed_addr>
    410154d8:	00073c03          	ld	x24,0(x14)
    410154dc:	000c0067          	jr	x24

00000000410154e0 <SID_EXCEP_04_NEZ_FAILING_SUB_passed>:
    410154e0:	00f00f9b          	addiw	x31,x0,15
    410154e4:	01cf9f93          	slli	x31,x31,0x1c
    410154e8:	001f8f93          	addi	x31,x31,1
    410154ec:	00000073          	ecall

00000000410154f0 <SID_EXCEP_04_EQZ_PASSING_SUB>:
    410154f0:	2f794137          	lui	x2,0x2f794
    410154f4:	000012b7          	lui	x5,0x1
    410154f8:	00510133          	add	x2,x2,x5
    410154fc:	ff017113          	andi	x2,x2,-16
    41015500:	00a00a13          	li	x20,10
    41015504:	00300893          	li	x17,3
    41015508:	00000d13          	li	x26,0
    4101550c:	411a0a33          	sub	x20,x20,x17
    41015510:	0faa5cb3          	czero.eqz	x25,x20,x26
    41015514:	00000d13          	li	x26,0
    41015518:	01ac8a63          	beq	x25,x26,4101552c <SID_EXCEP_04_EQZ_PASSING_SUB_passed>
    4101551c:	00046b37          	lui	x22,0x46
    41015520:	008b0b1b          	addiw	x22,x22,8 # 46008 <failed_addr>
    41015524:	000b3c03          	ld	x24,0(x22)
    41015528:	000c0067          	jr	x24

000000004101552c <SID_EXCEP_04_EQZ_PASSING_SUB_passed>:
    4101552c:	00f00f9b          	addiw	x31,x0,15
    41015530:	01cf9f93          	slli	x31,x31,0x1c
    41015534:	001f8f93          	addi	x31,x31,1
    41015538:	00000073          	ecall

000000004101553c <SID_EXCEP_04_EQZ_FAILING_SUB>:
    4101553c:	0703b137          	lui	x2,0x703b
    41015540:	000012b7          	lui	x5,0x1
    41015544:	00510133          	add	x2,x2,x5
    41015548:	ff017113          	andi	x2,x2,-16
    4101554c:	00a00d93          	li	x27,10
    41015550:	00300693          	li	x13,3
    41015554:	00100893          	li	x17,1
    41015558:	40dd8fb3          	sub	x31,x27,x13
    4101555c:	0f1fd5b3          	czero.eqz	x11,x31,x17
    41015560:	00700e93          	li	x29,7
    41015564:	01d58a63          	beq	x11,x29,41015578 <SID_EXCEP_04_EQZ_FAILING_SUB_passed>
    41015568:	00046837          	lui	x16,0x46
    4101556c:	0088081b          	addiw	x16,x16,8 # 46008 <failed_addr>
    41015570:	00083e83          	ld	x29,0(x16)
    41015574:	000e8067          	jr	x29

0000000041015578 <SID_EXCEP_04_EQZ_FAILING_SUB_passed>:
    41015578:	00f00f9b          	addiw	x31,x0,15
    4101557c:	01cf9f93          	slli	x31,x31,0x1c
    41015580:	001f8f93          	addi	x31,x31,1
    41015584:	00000073          	ecall

0000000041015588 <SID_EXCEP_04_NEZ_PASSING_ADD>:
    41015588:	0861a137          	lui	x2,0x861a
    4101558c:	c511011b          	addiw	x2,x2,-943 # 8619c51 <SID_EXCEP_04_EQZ_FAILING_SUB_stack+0x15dec51>
    41015590:	00d11113          	slli	x2,x2,0xd
    41015594:	000012b7          	lui	x5,0x1
    41015598:	00510133          	add	x2,x2,x5
    4101559c:	ff017113          	andi	x2,x2,-16
    410155a0:	00a00a93          	li	x21,10
    410155a4:	00300793          	li	x15,3
    410155a8:	00100813          	li	x16,1
    410155ac:	00fa8fb3          	add	x31,x21,x15
    410155b0:	0f0ffcb3          	czero.nez	x25,x31,x16
    410155b4:	00000d93          	li	x27,0
    410155b8:	01bc8a63          	beq	x25,x27,410155cc <SID_EXCEP_04_NEZ_PASSING_ADD_passed>
    410155bc:	00046d37          	lui	x26,0x46
    410155c0:	008d0d1b          	addiw	x26,x26,8 # 46008 <failed_addr>
    410155c4:	000d3e03          	ld	x28,0(x26)
    410155c8:	000e0067          	jr	x28

00000000410155cc <SID_EXCEP_04_NEZ_PASSING_ADD_passed>:
    410155cc:	00f00f9b          	addiw	x31,x0,15
    410155d0:	01cf9f93          	slli	x31,x31,0x1c
    410155d4:	001f8f93          	addi	x31,x31,1
    410155d8:	00000073          	ecall

00000000410155dc <SID_EXCEP_04_NEZ_FAILING_ADD>:
    410155dc:	0005f137          	lui	x2,0x5f
    410155e0:	aa91011b          	addiw	x2,x2,-1367 # 5eaa9 <__section_os_data_1+0x17aa9>
    410155e4:	00d11113          	slli	x2,x2,0xd
    410155e8:	000012b7          	lui	x5,0x1
    410155ec:	00510133          	add	x2,x2,x5
    410155f0:	ff017113          	andi	x2,x2,-16
    410155f4:	00a00d13          	li	x26,10
    410155f8:	00300c93          	li	x25,3
    410155fc:	00000c13          	li	x24,0
    41015600:	019d09b3          	add	x19,x26,x25
    41015604:	0f89f7b3          	czero.nez	x15,x19,x24
    41015608:	00d00c13          	li	x24,13
    4101560c:	01878a63          	beq	x15,x24,41015620 <SID_EXCEP_04_NEZ_FAILING_ADD_passed>
    41015610:	00046637          	lui	x12,0x46
    41015614:	0086061b          	addiw	x12,x12,8 # 46008 <failed_addr>
    41015618:	00063d83          	ld	x27,0(x12)
    4101561c:	000d8067          	jr	x27

0000000041015620 <SID_EXCEP_04_NEZ_FAILING_ADD_passed>:
    41015620:	00f00f9b          	addiw	x31,x0,15
    41015624:	01cf9f93          	slli	x31,x31,0x1c
    41015628:	001f8f93          	addi	x31,x31,1
    4101562c:	00000073          	ecall

0000000041015630 <SID_EXCEP_04_EQZ_PASSING_AND>:
    41015630:	1e1de137          	lui	x2,0x1e1de
    41015634:	e4d1011b          	addiw	x2,x2,-435 # 1e1dde4d <SID_EXCEP_01_NEZ_RS1_Z_stack+0x8504e4d>
    41015638:	00c11113          	slli	x2,x2,0xc
    4101563c:	000012b7          	lui	x5,0x1
    41015640:	00510133          	add	x2,x2,x5
    41015644:	ff017113          	andi	x2,x2,-16
    41015648:	0f000b13          	li	x22,240
    4101564c:	0aa00893          	li	x17,170
    41015650:	00000e93          	li	x29,0
    41015654:	011b7db3          	and	x27,x22,x17
    41015658:	0fddd433          	czero.eqz	x8,x27,x29
    4101565c:	00000913          	li	x18,0
    41015660:	01240a63          	beq	x8,x18,41015674 <SID_EXCEP_04_EQZ_PASSING_AND_passed>
    41015664:	00046db7          	lui	x27,0x46
    41015668:	008d8d9b          	addiw	x27,x27,8 # 46008 <failed_addr>
    4101566c:	000db303          	ld	x6,0(x27)
    41015670:	00030067          	jr	x6

0000000041015674 <SID_EXCEP_04_EQZ_PASSING_AND_passed>:
    41015674:	00f00f9b          	addiw	x31,x0,15
    41015678:	01cf9f93          	slli	x31,x31,0x1c
    4101567c:	001f8f93          	addi	x31,x31,1
    41015680:	00000073          	ecall

0000000041015684 <SID_EXCEP_04_EQZ_FAILING_AND>:
    41015684:	00336137          	lui	x2,0x336
    41015688:	8ff1011b          	addiw	x2,x2,-1793 # 3358ff <SID_EXCEP_04_NEZ_PASSING_AND_stack+0x2c08ff>
    4101568c:	00c11113          	slli	x2,x2,0xc
    41015690:	000012b7          	lui	x5,0x1
    41015694:	00510133          	add	x2,x2,x5
    41015698:	ff017113          	andi	x2,x2,-16
    4101569c:	0f000613          	li	x12,240
    410156a0:	0aa00f13          	li	x30,170
    410156a4:	00100493          	li	x9,1
    410156a8:	01e673b3          	and	x7,x12,x30
    410156ac:	0e93ddb3          	czero.eqz	x27,x7,x9
    410156b0:	0a000f93          	li	x31,160
    410156b4:	01fd8a63          	beq	x27,x31,410156c8 <SID_EXCEP_04_EQZ_FAILING_AND_passed>
    410156b8:	00046437          	lui	x8,0x46
    410156bc:	0084041b          	addiw	x8,x8,8 # 46008 <failed_addr>
    410156c0:	00043903          	ld	x18,0(x8)
    410156c4:	00090067          	jr	x18

00000000410156c8 <SID_EXCEP_04_EQZ_FAILING_AND_passed>:
    410156c8:	00f00f9b          	addiw	x31,x0,15
    410156cc:	01cf9f93          	slli	x31,x31,0x1c
    410156d0:	001f8f93          	addi	x31,x31,1
    410156d4:	00000073          	ecall

00000000410156d8 <SID_EXCEP_04_EQZ_PASSING_XOR>:
    410156d8:	2a9fb137          	lui	x2,0x2a9fb
    410156dc:	b911011b          	addiw	x2,x2,-1135 # 2a9fab91 <SID_EXCEP_01_NEZ_RS1_Z_stack+0x14d21b91>
    410156e0:	00c11113          	slli	x2,x2,0xc
    410156e4:	000012b7          	lui	x5,0x1
    410156e8:	00510133          	add	x2,x2,x5
    410156ec:	ff017113          	andi	x2,x2,-16
    410156f0:	0f000c13          	li	x24,240
    410156f4:	0aa00693          	li	x13,170
    410156f8:	00000e93          	li	x29,0
    410156fc:	00dc44b3          	xor	x9,x24,x13
    41015700:	0fd4deb3          	czero.eqz	x29,x9,x29
    41015704:	00000c93          	li	x25,0
    41015708:	019e8a63          	beq	x29,x25,4101571c <SID_EXCEP_04_EQZ_PASSING_XOR_passed>
    4101570c:	000465b7          	lui	x11,0x46
    41015710:	0085859b          	addiw	x11,x11,8 # 46008 <failed_addr>
    41015714:	0005b883          	ld	x17,0(x11)
    41015718:	00088067          	jr	x17

000000004101571c <SID_EXCEP_04_EQZ_PASSING_XOR_passed>:
    4101571c:	00f00f9b          	addiw	x31,x0,15
    41015720:	01cf9f93          	slli	x31,x31,0x1c
    41015724:	001f8f93          	addi	x31,x31,1
    41015728:	00000073          	ecall

000000004101572c <SID_EXCEP_04_EQZ_FAILING_XOR>:
    4101572c:	09cee137          	lui	x2,0x9cee
    41015730:	ef31011b          	addiw	x2,x2,-269 # 9cedef3 <SID_EXCEP_02_EQZ_RS1_Z_stack+0x4edef3>
    41015734:	00e11113          	slli	x2,x2,0xe
    41015738:	000012b7          	lui	x5,0x1
    4101573c:	00510133          	add	x2,x2,x5
    41015740:	ff017113          	andi	x2,x2,-16
    41015744:	0f000693          	li	x13,240
    41015748:	0aa00613          	li	x12,170
    4101574c:	00100393          	li	x7,1
    41015750:	00c6cb33          	xor	x22,x13,x12
    41015754:	0e7b56b3          	czero.eqz	x13,x22,x7
    41015758:	05a00b13          	li	x22,90
    4101575c:	01668a63          	beq	x13,x22,41015770 <SID_EXCEP_04_EQZ_FAILING_XOR_passed>
    41015760:	00046437          	lui	x8,0x46
    41015764:	0084041b          	addiw	x8,x8,8 # 46008 <failed_addr>
    41015768:	00043483          	ld	x9,0(x8)
    4101576c:	00048067          	jr	x9

0000000041015770 <SID_EXCEP_04_EQZ_FAILING_XOR_passed>:
    41015770:	00f00f9b          	addiw	x31,x0,15
    41015774:	01cf9f93          	slli	x31,x31,0x1c
    41015778:	001f8f93          	addi	x31,x31,1
    4101577c:	00000073          	ecall

0000000041015780 <SID_EXCEP_04_NEZ_PASSING_AND>:
    41015780:	00075137          	lui	x2,0x75
    41015784:	000012b7          	lui	x5,0x1
    41015788:	00510133          	add	x2,x2,x5
    4101578c:	ff017113          	andi	x2,x2,-16
    41015790:	0f000893          	li	x17,240
    41015794:	0aa00913          	li	x18,170
    41015798:	00100593          	li	x11,1
    4101579c:	0128f733          	and	x14,x17,x18
    410157a0:	0eb77fb3          	czero.nez	x31,x14,x11
    410157a4:	00000313          	li	x6,0
    410157a8:	006f8a63          	beq	x31,x6,410157bc <SID_EXCEP_04_NEZ_PASSING_AND_passed>
    410157ac:	000464b7          	lui	x9,0x46
    410157b0:	0084849b          	addiw	x9,x9,8 # 46008 <failed_addr>
    410157b4:	0004b603          	ld	x12,0(x9)
    410157b8:	00060067          	jr	x12

00000000410157bc <SID_EXCEP_04_NEZ_PASSING_AND_passed>:
    410157bc:	00f00f9b          	addiw	x31,x0,15
    410157c0:	01cf9f93          	slli	x31,x31,0x1c
    410157c4:	001f8f93          	addi	x31,x31,1
    410157c8:	00000073          	ecall

00000000410157cc <SID_EXCEP_04_NEZ_FAILING_AND>:
    410157cc:	00039137          	lui	x2,0x39
    410157d0:	000012b7          	lui	x5,0x1
    410157d4:	00510133          	add	x2,x2,x5
    410157d8:	ff017113          	andi	x2,x2,-16
    410157dc:	0f000413          	li	x8,240
    410157e0:	0aa00313          	li	x6,170
    410157e4:	00000493          	li	x9,0
    410157e8:	00647433          	and	x8,x8,x6
    410157ec:	0e9473b3          	czero.nez	x7,x8,x9
    410157f0:	0a000a93          	li	x21,160
    410157f4:	01538a63          	beq	x7,x21,41015808 <SID_EXCEP_04_NEZ_FAILING_AND_passed>
    410157f8:	00046937          	lui	x18,0x46
    410157fc:	0089091b          	addiw	x18,x18,8 # 46008 <failed_addr>
    41015800:	00093703          	ld	x14,0(x18)
    41015804:	00070067          	jr	x14

0000000041015808 <SID_EXCEP_04_NEZ_FAILING_AND_passed>:
    41015808:	00f00f9b          	addiw	x31,x0,15
    4101580c:	01cf9f93          	slli	x31,x31,0x1c
    41015810:	001f8f93          	addi	x31,x31,1
    41015814:	00000073          	ecall

0000000041015818 <SID_EXCEP_04_NEZ_PASSING_XOR>:
    41015818:	139dc137          	lui	x2,0x139dc
    4101581c:	de71011b          	addiw	x2,x2,-537 # 139dbde7 <SID_EXCEP_02_EQZ_RS1_Z_stack+0xa1dbde7>
    41015820:	00d11113          	slli	x2,x2,0xd
    41015824:	000012b7          	lui	x5,0x1
    41015828:	00510133          	add	x2,x2,x5
    4101582c:	ff017113          	andi	x2,x2,-16
    41015830:	0f000593          	li	x11,240
    41015834:	0aa00f13          	li	x30,170
    41015838:	00100613          	li	x12,1
    4101583c:	01e5cc33          	xor	x24,x11,x30
    41015840:	0ecc75b3          	czero.nez	x11,x24,x12
    41015844:	00000313          	li	x6,0
    41015848:	00658a63          	beq	x11,x6,4101585c <SID_EXCEP_04_NEZ_PASSING_XOR_passed>
    4101584c:	00046ab7          	lui	x21,0x46
    41015850:	008a8a9b          	addiw	x21,x21,8 # 46008 <failed_addr>
    41015854:	000abe83          	ld	x29,0(x21)
    41015858:	000e8067          	jr	x29

000000004101585c <SID_EXCEP_04_NEZ_PASSING_XOR_passed>:
    4101585c:	00f00f9b          	addiw	x31,x0,15
    41015860:	01cf9f93          	slli	x31,x31,0x1c
    41015864:	001f8f93          	addi	x31,x31,1
    41015868:	00000073          	ecall

000000004101586c <SID_EXCEP_04_NEZ_FAILING_XOR>:
    4101586c:	00005137          	lui	x2,0x5
    41015870:	000012b7          	lui	x5,0x1
    41015874:	00510133          	add	x2,x2,x5
    41015878:	ff017113          	andi	x2,x2,-16
    4101587c:	0f000393          	li	x7,240
    41015880:	0aa00713          	li	x14,170
    41015884:	00000593          	li	x11,0
    41015888:	00e3c433          	xor	x8,x7,x14
    4101588c:	0eb47333          	czero.nez	x6,x8,x11
    41015890:	05a00b13          	li	x22,90
    41015894:	01630a63          	beq	x6,x22,410158a8 <SID_EXCEP_04_NEZ_FAILING_XOR_passed>
    41015898:	00046fb7          	lui	x31,0x46
    4101589c:	008f8f9b          	addiw	x31,x31,8 # 46008 <failed_addr>
    410158a0:	000fb703          	ld	x14,0(x31)
    410158a4:	00070067          	jr	x14

00000000410158a8 <SID_EXCEP_04_NEZ_FAILING_XOR_passed>:
    410158a8:	00f00f9b          	addiw	x31,x0,15
    410158ac:	01cf9f93          	slli	x31,x31,0x1c
    410158b0:	001f8f93          	addi	x31,x31,1
    410158b4:	00000073          	ecall

00000000410158b8 <SID_EXCEP_04_2_1_MUX_SELECT_0>:
    410158b8:	00196137          	lui	x2,0x196
    410158bc:	2331011b          	addiw	x2,x2,563 # 196233 <SID_EXCEP_04_NEZ_PASSING_AND_stack+0x121233>
    410158c0:	00c11113          	slli	x2,x2,0xc
    410158c4:	af510113          	addi	x2,x2,-1291
    410158c8:	00c11113          	slli	x2,x2,0xc
    410158cc:	000012b7          	lui	x5,0x1
    410158d0:	00510133          	add	x2,x2,x5
    410158d4:	ff017113          	andi	x2,x2,-16
    410158d8:	0000eeb7          	lui	x29,0xe
    410158dc:	eade8e9b          	addiw	x29,x29,-339 # dead <hart_stack_0_end+0x4ead>
    410158e0:	0000cf37          	lui	x30,0xc
    410158e4:	eeff0f1b          	addiw	x30,x30,-273 # beef <hart_stack_0_end+0x2eef>
    410158e8:	00000493          	li	x9,0
    410158ec:	0e9ef833          	czero.nez	x16,x29,x9
    410158f0:	0e9f5933          	czero.eqz	x18,x30,x9
    410158f4:	01286c33          	or	x24,x16,x18
    410158f8:	0000e337          	lui	x6,0xe
    410158fc:	ead3031b          	addiw	x6,x6,-339 # dead <hart_stack_0_end+0x4ead>
    41015900:	006c0a63          	beq	x24,x6,41015914 <SID_EXCEP_04_2_1_MUX_SELECT_0_passed>
    41015904:	000469b7          	lui	x19,0x46
    41015908:	0089899b          	addiw	x19,x19,8 # 46008 <failed_addr>
    4101590c:	0009bd03          	ld	x26,0(x19)
    41015910:	000d0067          	jr	x26

0000000041015914 <SID_EXCEP_04_2_1_MUX_SELECT_0_passed>:
    41015914:	00f00f9b          	addiw	x31,x0,15
    41015918:	01cf9f93          	slli	x31,x31,0x1c
    4101591c:	001f8f93          	addi	x31,x31,1
    41015920:	00000073          	ecall

0000000041015924 <SID_EXCEP_04_2_1_MUX_SELECT_1>:
    41015924:	00019137          	lui	x2,0x19
    41015928:	000012b7          	lui	x5,0x1
    4101592c:	00510133          	add	x2,x2,x5
    41015930:	ff017113          	andi	x2,x2,-16
    41015934:	0000ebb7          	lui	x23,0xe
    41015938:	eadb8b9b          	addiw	x23,x23,-339 # dead <hart_stack_0_end+0x4ead>
    4101593c:	0000cfb7          	lui	x31,0xc
    41015940:	eeff8f9b          	addiw	x31,x31,-273 # beef <hart_stack_0_end+0x2eef>
    41015944:	00100d13          	li	x26,1
    41015948:	0fabfbb3          	czero.nez	x23,x23,x26
    4101594c:	0fafd3b3          	czero.eqz	x7,x31,x26
    41015950:	007be7b3          	or	x15,x23,x7
    41015954:	0000c3b7          	lui	x7,0xc
    41015958:	eef3839b          	addiw	x7,x7,-273 # beef <hart_stack_0_end+0x2eef>
    4101595c:	00778a63          	beq	x15,x7,41015970 <SID_EXCEP_04_2_1_MUX_SELECT_1_passed>
    41015960:	00046a37          	lui	x20,0x46
    41015964:	008a0a1b          	addiw	x20,x20,8 # 46008 <failed_addr>
    41015968:	000a3f03          	ld	x30,0(x20)
    4101596c:	000f0067          	jr	x30

0000000041015970 <SID_EXCEP_04_2_1_MUX_SELECT_1_passed>:
    41015970:	00f00f9b          	addiw	x31,x0,15
    41015974:	01cf9f93          	slli	x31,x31,0x1c
    41015978:	001f8f93          	addi	x31,x31,1
    4101597c:	00000073          	ecall

0000000041015980 <test_cleanup>:
    41015980:	00f00f9b          	addiw	x31,x0,15
    41015984:	01cf9f93          	slli	x31,x31,0x1c
    41015988:	001f8f93          	addi	x31,x31,1
    4101598c:	00000073          	ecall

0000000041015990 <local_test_failed>:
    41015990:	00f00f9b          	addiw	x31,x0,15
    41015994:	01cf9f93          	slli	x31,x31,0x1c
    41015998:	002f8f93          	addi	x31,x31,2
    4101599c:	00000073          	ecall

Disassembly of section .csr_machine_0:

0000000041215000 <csr_access_mstatus_machine_key_3_set-0x30>:
    41215000:	43aacfb7          	lui	x31,0x43aac
    41215004:	0a0f8f9b          	addiw	x31,x31,160 # 43aac0a0 <machine_csr_jump_table_flags_pa>
    41215008:	000fbf83          	ld	x31,0(x31)
    4121500c:	00300293          	li	x5,3
    41215010:	025f8063          	beq	x31,x5,41215030 <csr_access_mstatus_machine_key_3_set>
    41215014:	00100293          	li	x5,1
    41215018:	025f8063          	beq	x31,x5,41215038 <csr_access_mstatus_machine_key_1_clear>
    4121501c:	00600293          	li	x5,6
    41215020:	025f8063          	beq	x31,x5,41215040 <csr_access_mtvec_machine_key_6_set>
    41215024:	00500293          	li	x5,5
    41215028:	025f8063          	beq	x31,x5,41215048 <csr_access_mtvec_machine_key_5_clear>
    4121502c:	0240006f          	j	41215050 <end_machine_label>

0000000041215030 <csr_access_mstatus_machine_key_3_set>:
    41215030:	3003a073          	csrs	mstatus,x7
    41215034:	01c0006f          	j	41215050 <end_machine_label>

0000000041215038 <csr_access_mstatus_machine_key_1_clear>:
    41215038:	3003b073          	csrc	mstatus,x7
    4121503c:	0140006f          	j	41215050 <end_machine_label>

0000000041215040 <csr_access_mtvec_machine_key_6_set>:
    41215040:	3053a073          	csrs	mtvec,x7
    41215044:	00c0006f          	j	41215050 <end_machine_label>

0000000041215048 <csr_access_mtvec_machine_key_5_clear>:
    41215048:	3053b073          	csrc	mtvec,x7
    4121504c:	0040006f          	j	41215050 <end_machine_label>

0000000041215050 <end_machine_label>:
    41215050:	000f0fb7          	lui	x31,0xf0
    41215054:	001f8f9b          	addiw	x31,x31,1 # f0001 <SID_EXCEP_04_NEZ_PASSING_AND_stack+0x7b001>
    41215058:	00cf9f93          	slli	x31,x31,0xc
    4121505c:	004f8f93          	addi	x31,x31,4
    41215060:	00000073          	ecall

Disassembly of section .csr_super_0:

0000000041216000 <csr_access_sstatus_supervisor_key_4_set-0x30>:
    41216000:	00046fb7          	lui	x31,0x46
    41216004:	0a8f8f9b          	addiw	x31,x31,168 # 460a8 <super_csr_jump_table_flags>
    41216008:	000fbf83          	ld	x31,0(x31)
    4121600c:	00400293          	li	x5,4
    41216010:	025f8063          	beq	x31,x5,41216030 <csr_access_sstatus_supervisor_key_4_set>
    41216014:	00200293          	li	x5,2
    41216018:	025f8063          	beq	x31,x5,41216038 <csr_access_sstatus_supervisor_key_2_clear>
    4121601c:	00800293          	li	x5,8
    41216020:	025f8063          	beq	x31,x5,41216040 <csr_access_stvec_supervisor_key_8_set>
    41216024:	00700293          	li	x5,7
    41216028:	025f8063          	beq	x31,x5,41216048 <csr_access_stvec_supervisor_key_7_clear>
    4121602c:	0240006f          	j	41216050 <end_super_label>

0000000041216030 <csr_access_sstatus_supervisor_key_4_set>:
    41216030:	1003a073          	csrs	sstatus,x7
    41216034:	01c0006f          	j	41216050 <end_super_label>

0000000041216038 <csr_access_sstatus_supervisor_key_2_clear>:
    41216038:	1003b073          	csrc	sstatus,x7
    4121603c:	0140006f          	j	41216050 <end_super_label>

0000000041216040 <csr_access_stvec_supervisor_key_8_set>:
    41216040:	1053a073          	csrs	stvec,x7
    41216044:	00c0006f          	j	41216050 <end_super_label>

0000000041216048 <csr_access_stvec_supervisor_key_7_clear>:
    41216048:	1053b073          	csrc	stvec,x7
    4121604c:	0040006f          	j	41216050 <end_super_label>

0000000041216050 <end_super_label>:
    41216050:	000f0fb7          	lui	x31,0xf0
    41216054:	001f8f9b          	addiw	x31,x31,1 # f0001 <SID_EXCEP_04_NEZ_PASSING_AND_stack+0x7b001>
    41216058:	00cf9f93          	slli	x31,x31,0xc
    4121605c:	004f8f93          	addi	x31,x31,4
    41216060:	00000073          	ecall

Disassembly of section .os_data:

0000000000046000 <passed_addr_ptr>:
   46000:	50f0                	.insn	2, 0x50f0
   46002:	4101                	.insn	2, 0x4101
   46004:	0000                	.insn	2, 0x0000
	...

0000000000046008 <failed_addr_ptr>:
   46008:	5100                	.insn	2, 0x5100
   4600a:	4101                	.insn	2, 0x4101
   4600c:	0000                	.insn	2, 0x0000
	...

0000000000046010 <end_test_addr_ptr>:
   46010:	5110                	.insn	2, 0x5110
   46012:	4101                	.insn	2, 0x4101
   46014:	0000                	.insn	2, 0x0000
	...

0000000000046018 <os_passed_addr_ptr>:
   46018:	07b0                	.insn	2, 0x07b0
   4601a:	4100                	.insn	2, 0x4100
   4601c:	0000                	.insn	2, 0x0000
	...

0000000000046020 <os_failed_addr_ptr>:
   46020:	07c0                	.insn	2, 0x07c0
   46022:	4100                	.insn	2, 0x4100
   46024:	0000                	.insn	2, 0x0000
	...

0000000000046028 <os_end_test_addr_ptr>:
   46028:	07cc                	.insn	2, 0x07cc
   4602a:	4100                	.insn	2, 0x4100
   4602c:	0000                	.insn	2, 0x0000
	...

0000000000046030 <rvcp_prefix_str_data>:
   46030:	5652                	.insn	2, 0x5652
   46032:	203a5043          	fmadd.s	f0,f20,f3,f4,unknown
   46036:	6554                	.insn	2, 0x6554
   46038:	46207473          	csrrci	x8,0x462,0
   4603c:	6c69                	.insn	2, 0x6c69
   4603e:	2065                	.insn	2, 0x2065
	...

0000000000046041 <rvcp_testname_str_data>:
   46041:	7074                	.insn	2, 0x7074
   46043:	7a5f 6369 6e6f      	.insn	6, 0x6e6f63697a5f
   46049:	5f64                	.insn	2, 0x5f64
   4604b:	0032                	.insn	2, 0x0032

000000000004604d <rvcp_passed_str_data>:
   4604d:	4150                	.insn	2, 0x4150
   4604f:	44455353          	fround.h	f6,f10,unknown
	...

0000000000046054 <rvcp_failed_str_data>:
   46054:	4146                	.insn	2, 0x4146
   46056:	4c49                	.insn	2, 0x4c49
   46058:	4445                	.insn	2, 0x4445
	...

000000000004605b <rvcp_space_str_data>:
   4605b:	0020                	.insn	2, 0x0020

000000000004605d <rvcp_newline_str_data>:
   4605d:	000a                	.insn	2, 0x000a
	...

0000000000046060 <excp_ignored_count_mem>:
	...

0000000000046068 <machine_flags_mem>:
	...

0000000000046070 <user_flags_mem>:
	...

0000000000046078 <super_flags_mem>:
	...

0000000000046080 <machine_area_mem>:
	...

0000000000046088 <user_area_mem>:
	...

0000000000046090 <super_area_mem>:
	...

0000000000046098 <zero_data_mem>:
	...

00000000000460a0 <machine_csr_jump_table_flags_mem>:
	...

00000000000460a8 <super_csr_jump_table_flags_mem>:
	...

00000000000460b0 <pte_access_flags_mem>:
	...

00000000000460c8 <num_harts_ended_mem>:
	...

00000000000460d0 <num_hard_fails_mem>:
	...

Disassembly of section .hart_context:

00000000011c6000 <hart_context_0>:
 11c6000:	9000                	.insn	2, 0x9000
	...
 11c6016:	0000                	.insn	2, 0x0000
 11c6018:	0001                	.insn	2, 0x0001
 11c601a:	0000                	.insn	2, 0x0000
 11c601c:	0000                	.insn	2, 0x0000
 11c601e:	0000                	.insn	2, 0x0000
 11c6020:	ffff                	.insn	2, 0xffff
 11c6022:	ffff                	.insn	2, 0xffff
 11c6024:	ffff                	.insn	2, 0xffff
 11c6026:	ffff                	.insn	2, 0xffff
 11c6028:	ffff                	.insn	2, 0xffff
 11c602a:	ffff                	.insn	2, 0xffff
 11c602c:	ffff                	.insn	2, 0xffff
 11c602e:	ffff                	.insn	2, 0xffff
 11c6030:	ffff                	.insn	2, 0xffff
 11c6032:	ffff                	.insn	2, 0xffff
 11c6034:	ffff                	.insn	2, 0xffff
 11c6036:	ffff                	.insn	2, 0xffff
	...
 11c6050:	00ff 0000 0000 0000 	.insn	10, 0x00ff00000000000000ff
 11c6058:	00ff 
	...
 11c6176:	0000                	.insn	2, 0x0000
 11c6178:	ffff                	.insn	2, 0xffff
 11c617a:	ffff                	.insn	2, 0xffff
 11c617c:	ffff                	.insn	2, 0xffff
 11c617e:	ffff                	.insn	2, 0xffff
	...
 11c6188:	ffff                	.insn	2, 0xffff
 11c618a:	ffff                	.insn	2, 0xffff
	...

Disassembly of section .hart_stack_0:

0000000000008000 <hart_stack_0>:
	...

Disassembly of section .io_htif:

0000000041040000 <tohost>:
	...

0000000041040040 <fromhost>:
	...

Disassembly of section .tp_csr_storage:

00000000003e4000 <.tp_csr_storage>:
  3e4000:	c0de                	.insn	2, 0xc0de
  3e4002:	c001                	.insn	2, 0xc001
  3e4004:	0000                	.insn	2, 0x0000
	...

Disassembly of section .SID_EXCEP_01_EQZ_RS1_NZ_stack:

000000000001d000 <.SID_EXCEP_01_EQZ_RS1_NZ_stack>:
   1d000:	c0de                	.insn	2, 0xc0de
   1d002:	c001                	.insn	2, 0xc001
   1d004:	0000                	.insn	2, 0x0000
	...

Disassembly of section .SID_EXCEP_01_EQZ_RS1_Z_stack:

0000000d5a4ac000 <.SID_EXCEP_01_EQZ_RS1_Z_stack>:
   d5a4ac000:	c0de                	.insn	2, 0xc0de
   d5a4ac002:	c001                	.insn	2, 0xc001
   d5a4ac004:	0000                	.insn	2, 0x0000
	...

Disassembly of section .SID_EXCEP_01_NEZ_RS1_NZ_stack:

00000000bfc78000 <.SID_EXCEP_01_NEZ_RS1_NZ_stack>:
    bfc78000:	c0de                	.insn	2, 0xc0de
    bfc78002:	c001                	.insn	2, 0xc001
    bfc78004:	0000                	.insn	2, 0x0000
	...

Disassembly of section .SID_EXCEP_01_NEZ_RS1_Z_stack:

0000000015cd9000 <.SID_EXCEP_01_NEZ_RS1_Z_stack>:
    15cd9000:	c0de                	.insn	2, 0xc0de
    15cd9002:	c001                	.insn	2, 0xc001
    15cd9004:	0000                	.insn	2, 0x0000
	...

Disassembly of section .SID_EXCEP_02_EQZ_RS1_NZ_stack:

000000fa9650e000 <.SID_EXCEP_02_EQZ_RS1_NZ_stack>:
  fa9650e000:	c0de                	.insn	2, 0xc0de
  fa9650e002:	c001                	.insn	2, 0xc001
  fa9650e004:	0000                	.insn	2, 0x0000
	...

Disassembly of section .SID_EXCEP_02_EQZ_RS1_Z_stack:

0000000009800000 <.SID_EXCEP_02_EQZ_RS1_Z_stack>:
 9800000:	c0de                	.insn	2, 0xc0de
 9800002:	c001                	.insn	2, 0xc001
 9800004:	0000                	.insn	2, 0x0000
	...

Disassembly of section .SID_EXCEP_02_NEZ_RS1_Z_stack:

0000000000002000 <.SID_EXCEP_02_NEZ_RS1_Z_stack>:
    2000:	c0de                	.insn	2, 0xc0de
    2002:	c001                	.insn	2, 0xc001
    2004:	0000                	.insn	2, 0x0000
	...

Disassembly of section .SID_EXCEP_02_NEZ_RS1_NZ_stack:

00000012ea498000 <.SID_EXCEP_02_NEZ_RS1_NZ_stack>:
  12ea498000:	c0de                	.insn	2, 0xc0de
  12ea498002:	c001                	.insn	2, 0xc001
  12ea498004:	0000                	.insn	2, 0x0000
	...

Disassembly of section .SID_EXCEP_04_EQZ_PASSING_ADD_stack:

0000000000044000 <.SID_EXCEP_04_EQZ_PASSING_ADD_stack>:
   44000:	c0de                	.insn	2, 0xc0de
   44002:	c001                	.insn	2, 0xc001
   44004:	0000                	.insn	2, 0x0000
	...

Disassembly of section .SID_EXCEP_04_EQZ_FAILING_ADD_stack:

0000000084b1f000 <.SID_EXCEP_04_EQZ_FAILING_ADD_stack>:
    84b1f000:	c0de                	.insn	2, 0xc0de
    84b1f002:	c001                	.insn	2, 0xc001
    84b1f004:	0000                	.insn	2, 0x0000
	...

Disassembly of section .SID_EXCEP_04_NEZ_PASSING_SUB_stack:

000000006a318000 <.SID_EXCEP_04_NEZ_PASSING_SUB_stack>:
    6a318000:	c0de                	.insn	2, 0xc0de
    6a318002:	c001                	.insn	2, 0xc001
    6a318004:	0000                	.insn	2, 0x0000
	...

Disassembly of section .SID_EXCEP_04_NEZ_FAILING_SUB_stack:

0000000000041000 <.SID_EXCEP_04_NEZ_FAILING_SUB_stack>:
   41000:	c0de                	.insn	2, 0xc0de
   41002:	c001                	.insn	2, 0xc001
   41004:	0000                	.insn	2, 0x0000
	...

Disassembly of section .SID_EXCEP_04_EQZ_PASSING_SUB_stack:

000000002f794000 <.SID_EXCEP_04_EQZ_PASSING_SUB_stack>:
    2f794000:	c0de                	.insn	2, 0xc0de
    2f794002:	c001                	.insn	2, 0xc001
    2f794004:	0000                	.insn	2, 0x0000
	...

Disassembly of section .SID_EXCEP_04_EQZ_FAILING_SUB_stack:

000000000703b000 <.SID_EXCEP_04_EQZ_FAILING_SUB_stack>:
 703b000:	c0de                	.insn	2, 0xc0de
 703b002:	c001                	.insn	2, 0xc001
 703b004:	0000                	.insn	2, 0x0000
	...

Disassembly of section .SID_EXCEP_04_NEZ_PASSING_ADD_stack:

0000010c338a2000 <.SID_EXCEP_04_NEZ_PASSING_ADD_stack>:
 10c338a2000:	c0de                	.insn	2, 0xc0de
 10c338a2002:	c001                	.insn	2, 0xc001
 10c338a2004:	0000                	.insn	2, 0x0000
	...

Disassembly of section .SID_EXCEP_04_NEZ_FAILING_ADD_stack:

00000000bd552000 <.SID_EXCEP_04_NEZ_FAILING_ADD_stack>:
    bd552000:	c0de                	.insn	2, 0xc0de
    bd552002:	c001                	.insn	2, 0xc001
    bd552004:	0000                	.insn	2, 0x0000
	...

Disassembly of section .SID_EXCEP_04_EQZ_PASSING_AND_stack:

000001e1dde4d000 <.SID_EXCEP_04_EQZ_PASSING_AND_stack>:
 1e1dde4d000:	c0de                	.insn	2, 0xc0de
 1e1dde4d002:	c001                	.insn	2, 0xc001
 1e1dde4d004:	0000                	.insn	2, 0x0000
	...

Disassembly of section .SID_EXCEP_04_EQZ_FAILING_AND_stack:

00000003358ff000 <.SID_EXCEP_04_EQZ_FAILING_AND_stack>:
   3358ff000:	c0de                	.insn	2, 0xc0de
   3358ff002:	c001                	.insn	2, 0xc001
   3358ff004:	0000                	.insn	2, 0x0000
	...

Disassembly of section .SID_EXCEP_04_EQZ_PASSING_XOR_stack:

000002a9fab91000 <.SID_EXCEP_04_EQZ_PASSING_XOR_stack>:
 2a9fab91000:	c0de                	.insn	2, 0xc0de
 2a9fab91002:	c001                	.insn	2, 0xc001
 2a9fab91004:	0000                	.insn	2, 0x0000
	...

Disassembly of section .SID_EXCEP_04_EQZ_FAILING_XOR_stack:

00000273b7bcc000 <.SID_EXCEP_04_EQZ_FAILING_XOR_stack>:
 273b7bcc000:	c0de                	.insn	2, 0xc0de
 273b7bcc002:	c001                	.insn	2, 0xc001
 273b7bcc004:	0000                	.insn	2, 0x0000
	...

Disassembly of section .SID_EXCEP_04_NEZ_PASSING_AND_stack:

0000000000075000 <.SID_EXCEP_04_NEZ_PASSING_AND_stack>:
   75000:	c0de                	.insn	2, 0xc0de
   75002:	c001                	.insn	2, 0xc001
   75004:	0000                	.insn	2, 0x0000
	...

Disassembly of section .SID_EXCEP_04_NEZ_FAILING_AND_stack:

0000000000039000 <.SID_EXCEP_04_NEZ_FAILING_AND_stack>:
   39000:	c0de                	.insn	2, 0xc0de
   39002:	c001                	.insn	2, 0xc001
   39004:	0000                	.insn	2, 0x0000
	...

Disassembly of section .SID_EXCEP_04_NEZ_PASSING_XOR_stack:

00000273b7bce000 <.SID_EXCEP_04_NEZ_PASSING_XOR_stack>:
 273b7bce000:	c0de                	.insn	2, 0xc0de
 273b7bce002:	c001                	.insn	2, 0xc001
 273b7bce004:	0000                	.insn	2, 0x0000
	...

Disassembly of section .SID_EXCEP_04_NEZ_FAILING_XOR_stack:

0000000000005000 <.SID_EXCEP_04_NEZ_FAILING_XOR_stack>:
    5000:	c0de                	.insn	2, 0xc0de
    5002:	c001                	.insn	2, 0xc001
    5004:	0000                	.insn	2, 0x0000
	...

Disassembly of section .SID_EXCEP_04_2_1_MUX_SELECT_0_stack:

0000196232af5000 <.SID_EXCEP_04_2_1_MUX_SELECT_0_stack>:
    196232af5000:	c0de                	.insn	2, 0xc0de
    196232af5002:	c001                	.insn	2, 0xc001
    196232af5004:	0000                	.insn	2, 0x0000
	...

Disassembly of section .SID_EXCEP_04_2_1_MUX_SELECT_1_stack:

0000000000019000 <.SID_EXCEP_04_2_1_MUX_SELECT_1_stack>:
   19000:	c0de                	.insn	2, 0xc0de
   19002:	c001                	.insn	2, 0xc001
   19004:	0000                	.insn	2, 0x0000
	...

Disassembly of section .__pagetable_map_os_0x0000000044612000:

0000000044612000 <__pagetable_map_os_0x0000000044612000>:
    44612000:	2401                	.insn	2, 0x2401
    44612002:	1118                	.insn	2, 0x1118
    44612004:	0000                	.insn	2, 0x0000
    44612006:	0000                	.insn	2, 0x0000
    44612008:	7001                	.insn	2, 0x7001
    4461200a:	111a                	.insn	2, 0x111a
    4461200c:	0000                	.insn	2, 0x0000
    4461200e:	0000                	.insn	2, 0x0000
    44612010:	c001                	.insn	2, 0xc001
    44612012:	1140                	.insn	2, 0x1140
    44612014:	0000                	.insn	2, 0x0000
    44612016:	0000                	.insn	2, 0x0000
    44612018:	5001                	.insn	2, 0x5001
    4461201a:	00001127          	fsh	f0,2(x0) # 2 <CHECK_EXCP_MODE_HS>
    4461201e:	0000                	.insn	2, 0x0000
    44612020:	3c01                	.insn	2, 0x3c01
    44612022:	111a                	.insn	2, 0x111a
    44612024:	0000                	.insn	2, 0x0000
    44612026:	0000                	.insn	2, 0x0000
    44612028:	7c01                	.insn	2, 0x7c01
    4461202a:	1139                	.insn	2, 0x1139
	...
    44612190:	fc01                	.insn	2, 0xfc01
    44612192:	1140                	.insn	2, 0x1140
    44612194:	0000                	.insn	2, 0x0000
	...

Disassembly of section .__pagetable_map_os_0x0000000044609000:

0000000044609000 <__pagetable_map_os_0x0000000044609000>:
    44609000:	d401                	.insn	2, 0xd401
    44609002:	1119                	.insn	2, 0x1119
    44609004:	0000                	.insn	2, 0x0000
    44609006:	0000                	.insn	2, 0x0000
    44609008:	4401                	.insn	2, 0x4401
    4460900a:	0000112f          	.insn	4, 0x112f
    4460900e:	0000                	.insn	2, 0x0000
    44609010:	4401                	.insn	2, 0x4401
    44609012:	1118                	.insn	2, 0x1118
	...
    44609060:	9c01                	.insn	2, 0x9c01
    44609062:	00001137          	lui	x2,0x1
	...
    446091a6:	0000                	.insn	2, 0x0000
    446091a8:	5001                	.insn	2, 0x5001
    446091aa:	1140                	.insn	2, 0x1140
	...
    44609258:	4c01                	.insn	2, 0x4c01
    4460925a:	00001123          	sh	x0,2(x0) # 2 <CHECK_EXCP_MODE_HS>
	...

Disassembly of section .__pagetable_map_os_0x0000000044bd1000:

0000000044bd1000 <__pagetable_map_os_0x0000000044bd1000>:
	...
    44bd1040:	1401                	.insn	2, 0x1401
    44bd1042:	10ce                	.insn	2, 0x10ce
    44bd1044:	0000                	.insn	2, 0x0000
    44bd1046:	0000                	.insn	2, 0x0000
    44bd1048:	d801                	.insn	2, 0xd801
    44bd104a:	1124                	.insn	2, 0x1124
	...
    44bd1118:	8401                	.insn	2, 0x8401
    44bd111a:	0000113b          	sllw	x2,x0,x0
	...
    44bd1a86:	0000                	.insn	2, 0x0000
    44bd1a88:	0001                	.insn	2, 0x0001
    44bd1a8a:	1131                	.insn	2, 0x1131
    44bd1a8c:	0000                	.insn	2, 0x0000
	...

Disassembly of section .__pagetable_map_os_0x0000000043385000:

0000000043385000 <__pagetable_map_os_0x0000000043385000>:
	...
    43385080:	40df 1040 0000      	.insn	6, 0x104040df
    43385086:	0000                	.insn	2, 0x0000
    43385088:	104044cf          	fnmadd.s	f9,f0,f4,f2,rmm
    4338508c:	0000                	.insn	2, 0x0000
    4338508e:	0000                	.insn	2, 0x0000
    43385090:	104048cf          	fnmadd.s	f17,f0,f4,f2,rmm
    43385094:	0000                	.insn	2, 0x0000
    43385096:	0000                	.insn	2, 0x0000
    43385098:	10404ccf          	fnmadd.s	f25,f0,f4,f2,rmm
    4338509c:	0000                	.insn	2, 0x0000
    4338509e:	0000                	.insn	2, 0x0000
    433850a0:	104050cf          	fnmadd.s	f1,f0,f4,f2,unknown
    433850a4:	0000                	.insn	2, 0x0000
    433850a6:	0000                	.insn	2, 0x0000
    433850a8:	00df 1110 0000      	.insn	6, 0x111000df
    433850ae:	0000                	.insn	2, 0x0000
    433850b0:	04df 1110 0000      	.insn	6, 0x111004df
    433850b6:	0000                	.insn	2, 0x0000
    433850b8:	08df 1110 0000      	.insn	6, 0x111008df
    433850be:	0000                	.insn	2, 0x0000
    433850c0:	0cdf 1110 0000      	.insn	6, 0x11100cdf
    433850c6:	0000                	.insn	2, 0x0000
    433850c8:	10df 1110 0000      	.insn	6, 0x111010df
    433850ce:	0000                	.insn	2, 0x0000
    433850d0:	14df 1110 0000      	.insn	6, 0x111014df
    433850d6:	0000                	.insn	2, 0x0000
    433850d8:	18df 1110 0000      	.insn	6, 0x111018df
    433850de:	0000                	.insn	2, 0x0000
    433850e0:	1cdf 1110 0000      	.insn	6, 0x11101cdf
    433850e6:	0000                	.insn	2, 0x0000
    433850e8:	20df 1110 0000      	.insn	6, 0x111020df
    433850ee:	0000                	.insn	2, 0x0000
    433850f0:	24df 1110 0000      	.insn	6, 0x111024df
    433850f6:	0000                	.insn	2, 0x0000
    433850f8:	28df 1110 0000      	.insn	6, 0x111028df
    433850fe:	0000                	.insn	2, 0x0000
    43385100:	2cdf 1110 0000      	.insn	6, 0x11102cdf
    43385106:	0000                	.insn	2, 0x0000
    43385108:	30df 1110 0000      	.insn	6, 0x111030df
    4338510e:	0000                	.insn	2, 0x0000
    43385110:	34df 1110 0000      	.insn	6, 0x111034df
    43385116:	0000                	.insn	2, 0x0000
    43385118:	38df 1110 0000      	.insn	6, 0x111038df
    4338511e:	0000                	.insn	2, 0x0000
    43385120:	3cdf 1110 0000      	.insn	6, 0x11103cdf
    43385126:	0000                	.insn	2, 0x0000
    43385128:	40df 1110 0000      	.insn	6, 0x111040df
    4338512e:	0000                	.insn	2, 0x0000
    43385130:	44df 1110 0000      	.insn	6, 0x111044df
    43385136:	0000                	.insn	2, 0x0000
    43385138:	48df 1110 0000      	.insn	6, 0x111048df
    4338513e:	0000                	.insn	2, 0x0000
    43385140:	4cdf 1110 0000      	.insn	6, 0x11104cdf
    43385146:	0000                	.insn	2, 0x0000
    43385148:	50df 1110 0000      	.insn	6, 0x111050df
    4338514e:	0000                	.insn	2, 0x0000
    43385150:	54df 1110 0000      	.insn	6, 0x111054df
    43385156:	0000                	.insn	2, 0x0000
    43385158:	58df 1110 0000      	.insn	6, 0x111058df
    4338515e:	0000                	.insn	2, 0x0000
    43385160:	5cdf 1110 0000      	.insn	6, 0x11105cdf
    43385166:	0000                	.insn	2, 0x0000
    43385168:	60df 1110 0000      	.insn	6, 0x111060df
    4338516e:	0000                	.insn	2, 0x0000
    43385170:	64df 1110 0000      	.insn	6, 0x111064df
    43385176:	0000                	.insn	2, 0x0000
    43385178:	68df 1110 0000      	.insn	6, 0x111068df
    4338517e:	0000                	.insn	2, 0x0000
    43385180:	6cdf 1110 0000      	.insn	6, 0x11106cdf
    43385186:	0000                	.insn	2, 0x0000
    43385188:	70df 1110 0000      	.insn	6, 0x111070df
    4338518e:	0000                	.insn	2, 0x0000
    43385190:	74df 1110 0000      	.insn	6, 0x111074df
    43385196:	0000                	.insn	2, 0x0000
    43385198:	78df 1110 0000      	.insn	6, 0x111078df
    4338519e:	0000                	.insn	2, 0x0000
    433851a0:	7cdf 1110 0000      	.insn	6, 0x11107cdf
    433851a6:	0000                	.insn	2, 0x0000
    433851a8:	80df 1110 0000      	.insn	6, 0x111080df
    433851ae:	0000                	.insn	2, 0x0000
    433851b0:	84df 1110 0000      	.insn	6, 0x111084df
    433851b6:	0000                	.insn	2, 0x0000
    433851b8:	88df 1110 0000      	.insn	6, 0x111088df
    433851be:	0000                	.insn	2, 0x0000
    433851c0:	8cdf 1110 0000      	.insn	6, 0x11108cdf
    433851c6:	0000                	.insn	2, 0x0000
    433851c8:	90df 1110 0000      	.insn	6, 0x111090df
    433851ce:	0000                	.insn	2, 0x0000
    433851d0:	94df 1110 0000      	.insn	6, 0x111094df
    433851d6:	0000                	.insn	2, 0x0000
    433851d8:	98df 1110 0000      	.insn	6, 0x111098df
    433851de:	0000                	.insn	2, 0x0000
    433851e0:	9cdf 1110 0000      	.insn	6, 0x11109cdf
    433851e6:	0000                	.insn	2, 0x0000
    433851e8:	a0df 1110 0000      	.insn	6, 0x1110a0df
    433851ee:	0000                	.insn	2, 0x0000
    433851f0:	a4df 1110 0000      	.insn	6, 0x1110a4df
    433851f6:	0000                	.insn	2, 0x0000
    433851f8:	a8df 1110 0000      	.insn	6, 0x1110a8df
    433851fe:	0000                	.insn	2, 0x0000
    43385200:	00df 1041 0000      	.insn	6, 0x104100df
    43385206:	0000                	.insn	2, 0x0000
    43385208:	b0df 1110 0000      	.insn	6, 0x1110b0df
    4338520e:	0000                	.insn	2, 0x0000
    43385210:	b4df 1110 0000      	.insn	6, 0x1110b4df
    43385216:	0000                	.insn	2, 0x0000
    43385218:	b8df 1110 0000      	.insn	6, 0x1110b8df
    4338521e:	0000                	.insn	2, 0x0000
    43385220:	bcdf 1110 0000      	.insn	6, 0x1110bcdf
    43385226:	0000                	.insn	2, 0x0000
    43385228:	c0df 1110 0000      	.insn	6, 0x1110c0df
    4338522e:	0000                	.insn	2, 0x0000
    43385230:	c4df 1110 0000      	.insn	6, 0x1110c4df
    43385236:	0000                	.insn	2, 0x0000
    43385238:	c8df 1110 0000      	.insn	6, 0x1110c8df
    4338523e:	0000                	.insn	2, 0x0000
    43385240:	ccdf 1110 0000      	.insn	6, 0x1110ccdf
    43385246:	0000                	.insn	2, 0x0000
    43385248:	d0df 1110 0000      	.insn	6, 0x1110d0df
    4338524e:	0000                	.insn	2, 0x0000
    43385250:	d4df 1110 0000      	.insn	6, 0x1110d4df
    43385256:	0000                	.insn	2, 0x0000
    43385258:	d8df 1110 0000      	.insn	6, 0x1110d8df
    4338525e:	0000                	.insn	2, 0x0000
    43385260:	dcdf 1110 0000      	.insn	6, 0x1110dcdf
    43385266:	0000                	.insn	2, 0x0000
    43385268:	e0df 1110 0000      	.insn	6, 0x1110e0df
    4338526e:	0000                	.insn	2, 0x0000
    43385270:	e4df 1110 0000      	.insn	6, 0x1110e4df
    43385276:	0000                	.insn	2, 0x0000
    43385278:	e8df 1110 0000      	.insn	6, 0x1110e8df
    4338527e:	0000                	.insn	2, 0x0000
    43385280:	ecdf 1110 0000      	.insn	6, 0x1110ecdf
    43385286:	0000                	.insn	2, 0x0000
    43385288:	f0df 1110 0000      	.insn	6, 0x1110f0df
    4338528e:	0000                	.insn	2, 0x0000
    43385290:	f4df 1110 0000      	.insn	6, 0x1110f4df
    43385296:	0000                	.insn	2, 0x0000
    43385298:	f8df 1110 0000      	.insn	6, 0x1110f8df
    4338529e:	0000                	.insn	2, 0x0000
    433852a0:	fcdf 1110 0000      	.insn	6, 0x1110fcdf
    433852a6:	0000                	.insn	2, 0x0000
    433852a8:	00df 1111 0000      	.insn	6, 0x111100df
    433852ae:	0000                	.insn	2, 0x0000
    433852b0:	04df 1111 0000      	.insn	6, 0x111104df
    433852b6:	0000                	.insn	2, 0x0000
    433852b8:	08df 1111 0000      	.insn	6, 0x111108df
    433852be:	0000                	.insn	2, 0x0000
    433852c0:	0cdf 1111 0000      	.insn	6, 0x11110cdf
    433852c6:	0000                	.insn	2, 0x0000
    433852c8:	10df 1111 0000      	.insn	6, 0x111110df
    433852ce:	0000                	.insn	2, 0x0000
    433852d0:	14df 1111 0000      	.insn	6, 0x111114df
    433852d6:	0000                	.insn	2, 0x0000
    433852d8:	18df 1111 0000      	.insn	6, 0x111118df
    433852de:	0000                	.insn	2, 0x0000
    433852e0:	1cdf 1111 0000      	.insn	6, 0x11111cdf
    433852e6:	0000                	.insn	2, 0x0000
    433852e8:	20df 1111 0000      	.insn	6, 0x111120df
    433852ee:	0000                	.insn	2, 0x0000
    433852f0:	24df 1111 0000      	.insn	6, 0x111124df
    433852f6:	0000                	.insn	2, 0x0000
    433852f8:	28df 1111 0000      	.insn	6, 0x111128df
    433852fe:	0000                	.insn	2, 0x0000
    43385300:	2cdf 1111 0000      	.insn	6, 0x11112cdf
    43385306:	0000                	.insn	2, 0x0000
    43385308:	30df 1111 0000      	.insn	6, 0x111130df
    4338530e:	0000                	.insn	2, 0x0000
    43385310:	34df 1111 0000      	.insn	6, 0x111134df
    43385316:	0000                	.insn	2, 0x0000
    43385318:	38df 1111 0000      	.insn	6, 0x111138df
    4338531e:	0000                	.insn	2, 0x0000
    43385320:	3cdf 1111 0000      	.insn	6, 0x11113cdf
    43385326:	0000                	.insn	2, 0x0000
    43385328:	40df 1111 0000      	.insn	6, 0x111140df
    4338532e:	0000                	.insn	2, 0x0000
    43385330:	44df 1111 0000      	.insn	6, 0x111144df
    43385336:	0000                	.insn	2, 0x0000
    43385338:	48df 1111 0000      	.insn	6, 0x111148df
    4338533e:	0000                	.insn	2, 0x0000
    43385340:	4cdf 1111 0000      	.insn	6, 0x11114cdf
    43385346:	0000                	.insn	2, 0x0000
    43385348:	50df 1111 0000      	.insn	6, 0x111150df
    4338534e:	0000                	.insn	2, 0x0000
    43385350:	54df 1111 0000      	.insn	6, 0x111154df
    43385356:	0000                	.insn	2, 0x0000
    43385358:	58df 1111 0000      	.insn	6, 0x111158df
    4338535e:	0000                	.insn	2, 0x0000
    43385360:	5cdf 1111 0000      	.insn	6, 0x11115cdf
    43385366:	0000                	.insn	2, 0x0000
    43385368:	60df 1111 0000      	.insn	6, 0x111160df
    4338536e:	0000                	.insn	2, 0x0000
    43385370:	64df 1111 0000      	.insn	6, 0x111164df
    43385376:	0000                	.insn	2, 0x0000
    43385378:	68df 1111 0000      	.insn	6, 0x111168df
    4338537e:	0000                	.insn	2, 0x0000
    43385380:	6cdf 1111 0000      	.insn	6, 0x11116cdf
    43385386:	0000                	.insn	2, 0x0000
    43385388:	70df 1111 0000      	.insn	6, 0x111170df
    4338538e:	0000                	.insn	2, 0x0000
    43385390:	74df 1111 0000      	.insn	6, 0x111174df
    43385396:	0000                	.insn	2, 0x0000
    43385398:	78df 1111 0000      	.insn	6, 0x111178df
    4338539e:	0000                	.insn	2, 0x0000
    433853a0:	7cdf 1111 0000      	.insn	6, 0x11117cdf
    433853a6:	0000                	.insn	2, 0x0000
    433853a8:	80df 1111 0000      	.insn	6, 0x111180df
    433853ae:	0000                	.insn	2, 0x0000
    433853b0:	84df 1111 0000      	.insn	6, 0x111184df
    433853b6:	0000                	.insn	2, 0x0000
    433853b8:	88df 1111 0000      	.insn	6, 0x111188df
    433853be:	0000                	.insn	2, 0x0000
    433853c0:	8cdf 1111 0000      	.insn	6, 0x11118cdf
    433853c6:	0000                	.insn	2, 0x0000
    433853c8:	90df 1111 0000      	.insn	6, 0x111190df
    433853ce:	0000                	.insn	2, 0x0000
    433853d0:	94df 1111 0000      	.insn	6, 0x111194df
    433853d6:	0000                	.insn	2, 0x0000
    433853d8:	98df 1111 0000      	.insn	6, 0x111198df
    433853de:	0000                	.insn	2, 0x0000
    433853e0:	9cdf 1111 0000      	.insn	6, 0x11119cdf
    433853e6:	0000                	.insn	2, 0x0000
    433853e8:	a0df 1111 0000      	.insn	6, 0x1111a0df
    433853ee:	0000                	.insn	2, 0x0000
    433853f0:	a4df 1111 0000      	.insn	6, 0x1111a4df
    433853f6:	0000                	.insn	2, 0x0000
    433853f8:	a8df 1111 0000      	.insn	6, 0x1111a8df
    433853fe:	0000                	.insn	2, 0x0000
    43385400:	acdf 1111 0000      	.insn	6, 0x1111acdf
    43385406:	0000                	.insn	2, 0x0000
    43385408:	b0df 1111 0000      	.insn	6, 0x1111b0df
    4338540e:	0000                	.insn	2, 0x0000
    43385410:	b4df 1111 0000      	.insn	6, 0x1111b4df
    43385416:	0000                	.insn	2, 0x0000
    43385418:	b8df 1111 0000      	.insn	6, 0x1111b8df
    4338541e:	0000                	.insn	2, 0x0000
    43385420:	bcdf 1111 0000      	.insn	6, 0x1111bcdf
    43385426:	0000                	.insn	2, 0x0000
    43385428:	c0df 1111 0000      	.insn	6, 0x1111c0df
    4338542e:	0000                	.insn	2, 0x0000
    43385430:	c4df 1111 0000      	.insn	6, 0x1111c4df
    43385436:	0000                	.insn	2, 0x0000
    43385438:	c8df 1111 0000      	.insn	6, 0x1111c8df
    4338543e:	0000                	.insn	2, 0x0000
    43385440:	ccdf 1111 0000      	.insn	6, 0x1111ccdf
    43385446:	0000                	.insn	2, 0x0000
    43385448:	d0df 1111 0000      	.insn	6, 0x1111d0df
    4338544e:	0000                	.insn	2, 0x0000
    43385450:	d4df 1111 0000      	.insn	6, 0x1111d4df
    43385456:	0000                	.insn	2, 0x0000
    43385458:	d8df 1111 0000      	.insn	6, 0x1111d8df
    4338545e:	0000                	.insn	2, 0x0000
    43385460:	dcdf 1111 0000      	.insn	6, 0x1111dcdf
    43385466:	0000                	.insn	2, 0x0000
    43385468:	e0df 1111 0000      	.insn	6, 0x1111e0df
    4338546e:	0000                	.insn	2, 0x0000
    43385470:	e4df 1111 0000      	.insn	6, 0x1111e4df
    43385476:	0000                	.insn	2, 0x0000
    43385478:	e8df 1111 0000      	.insn	6, 0x1111e8df
    4338547e:	0000                	.insn	2, 0x0000
    43385480:	ecdf 1111 0000      	.insn	6, 0x1111ecdf
    43385486:	0000                	.insn	2, 0x0000
    43385488:	f0df 1111 0000      	.insn	6, 0x1111f0df
    4338548e:	0000                	.insn	2, 0x0000
    43385490:	f4df 1111 0000      	.insn	6, 0x1111f4df
    43385496:	0000                	.insn	2, 0x0000
    43385498:	f8df 1111 0000      	.insn	6, 0x1111f8df
    4338549e:	0000                	.insn	2, 0x0000
    433854a0:	fcdf 1111 0000      	.insn	6, 0x1111fcdf
    433854a6:	0000                	.insn	2, 0x0000
    433854a8:	111200cf          	fnmadd.s	f1,f4,f17,f2,rne
    433854ac:	0000                	.insn	2, 0x0000
    433854ae:	0000                	.insn	2, 0x0000
    433854b0:	111204cf          	fnmadd.s	f9,f4,f17,f2,rne
    433854b4:	0000                	.insn	2, 0x0000
    433854b6:	0000                	.insn	2, 0x0000
    433854b8:	111208cf          	fnmadd.s	f17,f4,f17,f2,rne
    433854bc:	0000                	.insn	2, 0x0000
    433854be:	0000                	.insn	2, 0x0000
    433854c0:	11120ccf          	fnmadd.s	f25,f4,f17,f2,rne
    433854c4:	0000                	.insn	2, 0x0000
    433854c6:	0000                	.insn	2, 0x0000
    433854c8:	111210cf          	fnmadd.s	f1,f4,f17,f2,rtz
    433854cc:	0000                	.insn	2, 0x0000
    433854ce:	0000                	.insn	2, 0x0000
    433854d0:	111214cf          	fnmadd.s	f9,f4,f17,f2,rtz
    433854d4:	0000                	.insn	2, 0x0000
    433854d6:	0000                	.insn	2, 0x0000
    433854d8:	111218cf          	fnmadd.s	f17,f4,f17,f2,rtz
    433854dc:	0000                	.insn	2, 0x0000
    433854de:	0000                	.insn	2, 0x0000
    433854e0:	11121ccf          	fnmadd.s	f25,f4,f17,f2,rtz
    433854e4:	0000                	.insn	2, 0x0000
    433854e6:	0000                	.insn	2, 0x0000
    433854e8:	111220cf          	fnmadd.s	f1,f4,f17,f2,rdn
    433854ec:	0000                	.insn	2, 0x0000
    433854ee:	0000                	.insn	2, 0x0000
    433854f0:	111224cf          	fnmadd.s	f9,f4,f17,f2,rdn
    433854f4:	0000                	.insn	2, 0x0000
    433854f6:	0000                	.insn	2, 0x0000
    433854f8:	111228cf          	fnmadd.s	f17,f4,f17,f2,rdn
    433854fc:	0000                	.insn	2, 0x0000
    433854fe:	0000                	.insn	2, 0x0000
    43385500:	11122ccf          	fnmadd.s	f25,f4,f17,f2,rdn
    43385504:	0000                	.insn	2, 0x0000
    43385506:	0000                	.insn	2, 0x0000
    43385508:	111230cf          	fnmadd.s	f1,f4,f17,f2,rup
    4338550c:	0000                	.insn	2, 0x0000
    4338550e:	0000                	.insn	2, 0x0000
    43385510:	111234cf          	fnmadd.s	f9,f4,f17,f2,rup
    43385514:	0000                	.insn	2, 0x0000
    43385516:	0000                	.insn	2, 0x0000
    43385518:	111238cf          	fnmadd.s	f17,f4,f17,f2,rup
    4338551c:	0000                	.insn	2, 0x0000
    4338551e:	0000                	.insn	2, 0x0000
    43385520:	11123ccf          	fnmadd.s	f25,f4,f17,f2,rup
    43385524:	0000                	.insn	2, 0x0000
    43385526:	0000                	.insn	2, 0x0000
    43385528:	111240cf          	fnmadd.s	f1,f4,f17,f2,rmm
    4338552c:	0000                	.insn	2, 0x0000
    4338552e:	0000                	.insn	2, 0x0000
    43385530:	111244cf          	fnmadd.s	f9,f4,f17,f2,rmm
    43385534:	0000                	.insn	2, 0x0000
    43385536:	0000                	.insn	2, 0x0000
    43385538:	111248cf          	fnmadd.s	f17,f4,f17,f2,rmm
    4338553c:	0000                	.insn	2, 0x0000
    4338553e:	0000                	.insn	2, 0x0000
    43385540:	11124ccf          	fnmadd.s	f25,f4,f17,f2,rmm
    43385544:	0000                	.insn	2, 0x0000
    43385546:	0000                	.insn	2, 0x0000
    43385548:	111250cf          	fnmadd.s	f1,f4,f17,f2,unknown
    4338554c:	0000                	.insn	2, 0x0000
    4338554e:	0000                	.insn	2, 0x0000
    43385550:	111254cf          	fnmadd.s	f9,f4,f17,f2,unknown
    43385554:	0000                	.insn	2, 0x0000
    43385556:	0000                	.insn	2, 0x0000
    43385558:	111258cf          	fnmadd.s	f17,f4,f17,f2,unknown
    4338555c:	0000                	.insn	2, 0x0000
    4338555e:	0000                	.insn	2, 0x0000
    43385560:	11125ccf          	fnmadd.s	f25,f4,f17,f2,unknown
    43385564:	0000                	.insn	2, 0x0000
    43385566:	0000                	.insn	2, 0x0000
    43385568:	111260cf          	fnmadd.s	f1,f4,f17,f2,unknown
    4338556c:	0000                	.insn	2, 0x0000
    4338556e:	0000                	.insn	2, 0x0000
    43385570:	111264cf          	fnmadd.s	f9,f4,f17,f2,unknown
    43385574:	0000                	.insn	2, 0x0000
    43385576:	0000                	.insn	2, 0x0000
    43385578:	111268cf          	fnmadd.s	f17,f4,f17,f2,unknown
    4338557c:	0000                	.insn	2, 0x0000
    4338557e:	0000                	.insn	2, 0x0000
    43385580:	11126ccf          	fnmadd.s	f25,f4,f17,f2,unknown
    43385584:	0000                	.insn	2, 0x0000
    43385586:	0000                	.insn	2, 0x0000
    43385588:	111270cf          	fnmadd.s	f1,f4,f17,f2
    4338558c:	0000                	.insn	2, 0x0000
    4338558e:	0000                	.insn	2, 0x0000
    43385590:	111274cf          	fnmadd.s	f9,f4,f17,f2
    43385594:	0000                	.insn	2, 0x0000
    43385596:	0000                	.insn	2, 0x0000
    43385598:	111278cf          	fnmadd.s	f17,f4,f17,f2
    4338559c:	0000                	.insn	2, 0x0000
    4338559e:	0000                	.insn	2, 0x0000
    433855a0:	11127ccf          	fnmadd.s	f25,f4,f17,f2
    433855a4:	0000                	.insn	2, 0x0000
    433855a6:	0000                	.insn	2, 0x0000
    433855a8:	111280cf          	fnmadd.s	f1,f5,f17,f2,rne
    433855ac:	0000                	.insn	2, 0x0000
    433855ae:	0000                	.insn	2, 0x0000
    433855b0:	111284cf          	fnmadd.s	f9,f5,f17,f2,rne
    433855b4:	0000                	.insn	2, 0x0000
    433855b6:	0000                	.insn	2, 0x0000
    433855b8:	111288cf          	fnmadd.s	f17,f5,f17,f2,rne
    433855bc:	0000                	.insn	2, 0x0000
    433855be:	0000                	.insn	2, 0x0000
    433855c0:	11128ccf          	fnmadd.s	f25,f5,f17,f2,rne
    433855c4:	0000                	.insn	2, 0x0000
    433855c6:	0000                	.insn	2, 0x0000
    433855c8:	111290cf          	fnmadd.s	f1,f5,f17,f2,rtz
    433855cc:	0000                	.insn	2, 0x0000
    433855ce:	0000                	.insn	2, 0x0000
    433855d0:	111294cf          	fnmadd.s	f9,f5,f17,f2,rtz
    433855d4:	0000                	.insn	2, 0x0000
    433855d6:	0000                	.insn	2, 0x0000
    433855d8:	111298cf          	fnmadd.s	f17,f5,f17,f2,rtz
    433855dc:	0000                	.insn	2, 0x0000
    433855de:	0000                	.insn	2, 0x0000
    433855e0:	11129ccf          	fnmadd.s	f25,f5,f17,f2,rtz
    433855e4:	0000                	.insn	2, 0x0000
    433855e6:	0000                	.insn	2, 0x0000
    433855e8:	1112a0cf          	fnmadd.s	f1,f5,f17,f2,rdn
    433855ec:	0000                	.insn	2, 0x0000
    433855ee:	0000                	.insn	2, 0x0000
    433855f0:	1112a4cf          	fnmadd.s	f9,f5,f17,f2,rdn
    433855f4:	0000                	.insn	2, 0x0000
    433855f6:	0000                	.insn	2, 0x0000
    433855f8:	1112a8cf          	fnmadd.s	f17,f5,f17,f2,rdn
    433855fc:	0000                	.insn	2, 0x0000
    433855fe:	0000                	.insn	2, 0x0000
    43385600:	1112accf          	fnmadd.s	f25,f5,f17,f2,rdn
    43385604:	0000                	.insn	2, 0x0000
    43385606:	0000                	.insn	2, 0x0000
    43385608:	1112b0cf          	fnmadd.s	f1,f5,f17,f2,rup
    4338560c:	0000                	.insn	2, 0x0000
    4338560e:	0000                	.insn	2, 0x0000
    43385610:	1112b4cf          	fnmadd.s	f9,f5,f17,f2,rup
    43385614:	0000                	.insn	2, 0x0000
    43385616:	0000                	.insn	2, 0x0000
    43385618:	1112b8cf          	fnmadd.s	f17,f5,f17,f2,rup
    4338561c:	0000                	.insn	2, 0x0000
    4338561e:	0000                	.insn	2, 0x0000
    43385620:	1112bccf          	fnmadd.s	f25,f5,f17,f2,rup
    43385624:	0000                	.insn	2, 0x0000
    43385626:	0000                	.insn	2, 0x0000
    43385628:	1112c0cf          	fnmadd.s	f1,f5,f17,f2,rmm
    4338562c:	0000                	.insn	2, 0x0000
    4338562e:	0000                	.insn	2, 0x0000
    43385630:	1112c4cf          	fnmadd.s	f9,f5,f17,f2,rmm
    43385634:	0000                	.insn	2, 0x0000
    43385636:	0000                	.insn	2, 0x0000
    43385638:	1112c8cf          	fnmadd.s	f17,f5,f17,f2,rmm
    4338563c:	0000                	.insn	2, 0x0000
    4338563e:	0000                	.insn	2, 0x0000
    43385640:	1112cccf          	fnmadd.s	f25,f5,f17,f2,rmm
    43385644:	0000                	.insn	2, 0x0000
    43385646:	0000                	.insn	2, 0x0000
    43385648:	1112d0cf          	fnmadd.s	f1,f5,f17,f2,unknown
    4338564c:	0000                	.insn	2, 0x0000
    4338564e:	0000                	.insn	2, 0x0000
    43385650:	1112d4cf          	fnmadd.s	f9,f5,f17,f2,unknown
    43385654:	0000                	.insn	2, 0x0000
    43385656:	0000                	.insn	2, 0x0000
    43385658:	1112d8cf          	fnmadd.s	f17,f5,f17,f2,unknown
    4338565c:	0000                	.insn	2, 0x0000
    4338565e:	0000                	.insn	2, 0x0000
    43385660:	1112dccf          	fnmadd.s	f25,f5,f17,f2,unknown
    43385664:	0000                	.insn	2, 0x0000
    43385666:	0000                	.insn	2, 0x0000
    43385668:	1112e0cf          	fnmadd.s	f1,f5,f17,f2,unknown
    4338566c:	0000                	.insn	2, 0x0000
    4338566e:	0000                	.insn	2, 0x0000
    43385670:	1112e4cf          	fnmadd.s	f9,f5,f17,f2,unknown
    43385674:	0000                	.insn	2, 0x0000
    43385676:	0000                	.insn	2, 0x0000
    43385678:	1112e8cf          	fnmadd.s	f17,f5,f17,f2,unknown
    4338567c:	0000                	.insn	2, 0x0000
    4338567e:	0000                	.insn	2, 0x0000
    43385680:	1112eccf          	fnmadd.s	f25,f5,f17,f2,unknown
    43385684:	0000                	.insn	2, 0x0000
    43385686:	0000                	.insn	2, 0x0000
    43385688:	1112f0cf          	fnmadd.s	f1,f5,f17,f2
    4338568c:	0000                	.insn	2, 0x0000
    4338568e:	0000                	.insn	2, 0x0000
    43385690:	1112f4cf          	fnmadd.s	f9,f5,f17,f2
    43385694:	0000                	.insn	2, 0x0000
    43385696:	0000                	.insn	2, 0x0000
    43385698:	1112f8cf          	fnmadd.s	f17,f5,f17,f2
    4338569c:	0000                	.insn	2, 0x0000
    4338569e:	0000                	.insn	2, 0x0000
    433856a0:	1112fccf          	fnmadd.s	f25,f5,f17,f2
    433856a4:	0000                	.insn	2, 0x0000
    433856a6:	0000                	.insn	2, 0x0000
    433856a8:	111300cf          	fnmadd.s	f1,f6,f17,f2,rne
    433856ac:	0000                	.insn	2, 0x0000
    433856ae:	0000                	.insn	2, 0x0000
    433856b0:	111304cf          	fnmadd.s	f9,f6,f17,f2,rne
    433856b4:	0000                	.insn	2, 0x0000
    433856b6:	0000                	.insn	2, 0x0000
    433856b8:	111308cf          	fnmadd.s	f17,f6,f17,f2,rne
    433856bc:	0000                	.insn	2, 0x0000
    433856be:	0000                	.insn	2, 0x0000
    433856c0:	11130ccf          	fnmadd.s	f25,f6,f17,f2,rne
    433856c4:	0000                	.insn	2, 0x0000
    433856c6:	0000                	.insn	2, 0x0000
    433856c8:	111310cf          	fnmadd.s	f1,f6,f17,f2,rtz
    433856cc:	0000                	.insn	2, 0x0000
    433856ce:	0000                	.insn	2, 0x0000
    433856d0:	111314cf          	fnmadd.s	f9,f6,f17,f2,rtz
    433856d4:	0000                	.insn	2, 0x0000
    433856d6:	0000                	.insn	2, 0x0000
    433856d8:	111318cf          	fnmadd.s	f17,f6,f17,f2,rtz
    433856dc:	0000                	.insn	2, 0x0000
    433856de:	0000                	.insn	2, 0x0000
    433856e0:	11131ccf          	fnmadd.s	f25,f6,f17,f2,rtz
    433856e4:	0000                	.insn	2, 0x0000
    433856e6:	0000                	.insn	2, 0x0000
    433856e8:	111320cf          	fnmadd.s	f1,f6,f17,f2,rdn
    433856ec:	0000                	.insn	2, 0x0000
    433856ee:	0000                	.insn	2, 0x0000
    433856f0:	111324cf          	fnmadd.s	f9,f6,f17,f2,rdn
    433856f4:	0000                	.insn	2, 0x0000
    433856f6:	0000                	.insn	2, 0x0000
    433856f8:	111328cf          	fnmadd.s	f17,f6,f17,f2,rdn
    433856fc:	0000                	.insn	2, 0x0000
    433856fe:	0000                	.insn	2, 0x0000
    43385700:	11132ccf          	fnmadd.s	f25,f6,f17,f2,rdn
    43385704:	0000                	.insn	2, 0x0000
    43385706:	0000                	.insn	2, 0x0000
    43385708:	111330cf          	fnmadd.s	f1,f6,f17,f2,rup
    4338570c:	0000                	.insn	2, 0x0000
    4338570e:	0000                	.insn	2, 0x0000
    43385710:	111334cf          	fnmadd.s	f9,f6,f17,f2,rup
    43385714:	0000                	.insn	2, 0x0000
    43385716:	0000                	.insn	2, 0x0000
    43385718:	111338cf          	fnmadd.s	f17,f6,f17,f2,rup
    4338571c:	0000                	.insn	2, 0x0000
    4338571e:	0000                	.insn	2, 0x0000
    43385720:	11133ccf          	fnmadd.s	f25,f6,f17,f2,rup
    43385724:	0000                	.insn	2, 0x0000
    43385726:	0000                	.insn	2, 0x0000
    43385728:	111340cf          	fnmadd.s	f1,f6,f17,f2,rmm
    4338572c:	0000                	.insn	2, 0x0000
    4338572e:	0000                	.insn	2, 0x0000
    43385730:	111344cf          	fnmadd.s	f9,f6,f17,f2,rmm
    43385734:	0000                	.insn	2, 0x0000
    43385736:	0000                	.insn	2, 0x0000
    43385738:	111348cf          	fnmadd.s	f17,f6,f17,f2,rmm
    4338573c:	0000                	.insn	2, 0x0000
    4338573e:	0000                	.insn	2, 0x0000
    43385740:	11134ccf          	fnmadd.s	f25,f6,f17,f2,rmm
    43385744:	0000                	.insn	2, 0x0000
    43385746:	0000                	.insn	2, 0x0000
    43385748:	111350cf          	fnmadd.s	f1,f6,f17,f2,unknown
    4338574c:	0000                	.insn	2, 0x0000
    4338574e:	0000                	.insn	2, 0x0000
    43385750:	111354cf          	fnmadd.s	f9,f6,f17,f2,unknown
    43385754:	0000                	.insn	2, 0x0000
    43385756:	0000                	.insn	2, 0x0000
    43385758:	111358cf          	fnmadd.s	f17,f6,f17,f2,unknown
    4338575c:	0000                	.insn	2, 0x0000
    4338575e:	0000                	.insn	2, 0x0000
    43385760:	11135ccf          	fnmadd.s	f25,f6,f17,f2,unknown
    43385764:	0000                	.insn	2, 0x0000
    43385766:	0000                	.insn	2, 0x0000
    43385768:	111360cf          	fnmadd.s	f1,f6,f17,f2,unknown
    4338576c:	0000                	.insn	2, 0x0000
    4338576e:	0000                	.insn	2, 0x0000
    43385770:	111364cf          	fnmadd.s	f9,f6,f17,f2,unknown
    43385774:	0000                	.insn	2, 0x0000
    43385776:	0000                	.insn	2, 0x0000
    43385778:	111368cf          	fnmadd.s	f17,f6,f17,f2,unknown
    4338577c:	0000                	.insn	2, 0x0000
    4338577e:	0000                	.insn	2, 0x0000
    43385780:	11136ccf          	fnmadd.s	f25,f6,f17,f2,unknown
    43385784:	0000                	.insn	2, 0x0000
    43385786:	0000                	.insn	2, 0x0000
    43385788:	111370cf          	fnmadd.s	f1,f6,f17,f2
    4338578c:	0000                	.insn	2, 0x0000
    4338578e:	0000                	.insn	2, 0x0000
    43385790:	111374cf          	fnmadd.s	f9,f6,f17,f2
    43385794:	0000                	.insn	2, 0x0000
    43385796:	0000                	.insn	2, 0x0000
    43385798:	111378cf          	fnmadd.s	f17,f6,f17,f2
    4338579c:	0000                	.insn	2, 0x0000
    4338579e:	0000                	.insn	2, 0x0000
    433857a0:	11137ccf          	fnmadd.s	f25,f6,f17,f2
    433857a4:	0000                	.insn	2, 0x0000
    433857a6:	0000                	.insn	2, 0x0000
    433857a8:	111380cf          	fnmadd.s	f1,f7,f17,f2,rne
    433857ac:	0000                	.insn	2, 0x0000
    433857ae:	0000                	.insn	2, 0x0000
    433857b0:	111384cf          	fnmadd.s	f9,f7,f17,f2,rne
    433857b4:	0000                	.insn	2, 0x0000
    433857b6:	0000                	.insn	2, 0x0000
    433857b8:	111388cf          	fnmadd.s	f17,f7,f17,f2,rne
    433857bc:	0000                	.insn	2, 0x0000
    433857be:	0000                	.insn	2, 0x0000
    433857c0:	11138ccf          	fnmadd.s	f25,f7,f17,f2,rne
    433857c4:	0000                	.insn	2, 0x0000
    433857c6:	0000                	.insn	2, 0x0000
    433857c8:	111390cf          	fnmadd.s	f1,f7,f17,f2,rtz
    433857cc:	0000                	.insn	2, 0x0000
    433857ce:	0000                	.insn	2, 0x0000
    433857d0:	111394cf          	fnmadd.s	f9,f7,f17,f2,rtz
    433857d4:	0000                	.insn	2, 0x0000
    433857d6:	0000                	.insn	2, 0x0000
    433857d8:	111398cf          	fnmadd.s	f17,f7,f17,f2,rtz
    433857dc:	0000                	.insn	2, 0x0000
    433857de:	0000                	.insn	2, 0x0000
    433857e0:	11139ccf          	fnmadd.s	f25,f7,f17,f2,rtz
    433857e4:	0000                	.insn	2, 0x0000
    433857e6:	0000                	.insn	2, 0x0000
    433857e8:	1113a0cf          	fnmadd.s	f1,f7,f17,f2,rdn
    433857ec:	0000                	.insn	2, 0x0000
    433857ee:	0000                	.insn	2, 0x0000
    433857f0:	1113a4cf          	fnmadd.s	f9,f7,f17,f2,rdn
    433857f4:	0000                	.insn	2, 0x0000
    433857f6:	0000                	.insn	2, 0x0000
    433857f8:	1113a8cf          	fnmadd.s	f17,f7,f17,f2,rdn
    433857fc:	0000                	.insn	2, 0x0000
    433857fe:	0000                	.insn	2, 0x0000
    43385800:	1113accf          	fnmadd.s	f25,f7,f17,f2,rdn
    43385804:	0000                	.insn	2, 0x0000
    43385806:	0000                	.insn	2, 0x0000
    43385808:	1113b0cf          	fnmadd.s	f1,f7,f17,f2,rup
    4338580c:	0000                	.insn	2, 0x0000
    4338580e:	0000                	.insn	2, 0x0000
    43385810:	1113b4cf          	fnmadd.s	f9,f7,f17,f2,rup
    43385814:	0000                	.insn	2, 0x0000
    43385816:	0000                	.insn	2, 0x0000
    43385818:	1113b8cf          	fnmadd.s	f17,f7,f17,f2,rup
    4338581c:	0000                	.insn	2, 0x0000
    4338581e:	0000                	.insn	2, 0x0000
    43385820:	1113bccf          	fnmadd.s	f25,f7,f17,f2,rup
    43385824:	0000                	.insn	2, 0x0000
    43385826:	0000                	.insn	2, 0x0000
    43385828:	1113c0cf          	fnmadd.s	f1,f7,f17,f2,rmm
    4338582c:	0000                	.insn	2, 0x0000
    4338582e:	0000                	.insn	2, 0x0000
    43385830:	1113c4cf          	fnmadd.s	f9,f7,f17,f2,rmm
    43385834:	0000                	.insn	2, 0x0000
    43385836:	0000                	.insn	2, 0x0000
    43385838:	1113c8cf          	fnmadd.s	f17,f7,f17,f2,rmm
    4338583c:	0000                	.insn	2, 0x0000
    4338583e:	0000                	.insn	2, 0x0000
    43385840:	1113cccf          	fnmadd.s	f25,f7,f17,f2,rmm
    43385844:	0000                	.insn	2, 0x0000
    43385846:	0000                	.insn	2, 0x0000
    43385848:	1113d0cf          	fnmadd.s	f1,f7,f17,f2,unknown
    4338584c:	0000                	.insn	2, 0x0000
    4338584e:	0000                	.insn	2, 0x0000
    43385850:	1113d4cf          	fnmadd.s	f9,f7,f17,f2,unknown
    43385854:	0000                	.insn	2, 0x0000
    43385856:	0000                	.insn	2, 0x0000
    43385858:	1113d8cf          	fnmadd.s	f17,f7,f17,f2,unknown
    4338585c:	0000                	.insn	2, 0x0000
    4338585e:	0000                	.insn	2, 0x0000
    43385860:	1113dccf          	fnmadd.s	f25,f7,f17,f2,unknown
    43385864:	0000                	.insn	2, 0x0000
    43385866:	0000                	.insn	2, 0x0000
    43385868:	1113e0cf          	fnmadd.s	f1,f7,f17,f2,unknown
    4338586c:	0000                	.insn	2, 0x0000
    4338586e:	0000                	.insn	2, 0x0000
    43385870:	1113e4cf          	fnmadd.s	f9,f7,f17,f2,unknown
    43385874:	0000                	.insn	2, 0x0000
    43385876:	0000                	.insn	2, 0x0000
    43385878:	1113e8cf          	fnmadd.s	f17,f7,f17,f2,unknown
    4338587c:	0000                	.insn	2, 0x0000
    4338587e:	0000                	.insn	2, 0x0000
    43385880:	1113eccf          	fnmadd.s	f25,f7,f17,f2,unknown
    43385884:	0000                	.insn	2, 0x0000
    43385886:	0000                	.insn	2, 0x0000
    43385888:	1113f0cf          	fnmadd.s	f1,f7,f17,f2
    4338588c:	0000                	.insn	2, 0x0000
    4338588e:	0000                	.insn	2, 0x0000
    43385890:	1113f4cf          	fnmadd.s	f9,f7,f17,f2
    43385894:	0000                	.insn	2, 0x0000
    43385896:	0000                	.insn	2, 0x0000
    43385898:	1113f8cf          	fnmadd.s	f17,f7,f17,f2
    4338589c:	0000                	.insn	2, 0x0000
    4338589e:	0000                	.insn	2, 0x0000
    433858a0:	1113fccf          	fnmadd.s	f25,f7,f17,f2
    433858a4:	0000                	.insn	2, 0x0000
    433858a6:	0000                	.insn	2, 0x0000
    433858a8:	00df 1114 0000      	.insn	6, 0x111400df
    433858ae:	0000                	.insn	2, 0x0000
    433858b0:	04df 1114 0000      	.insn	6, 0x111404df
    433858b6:	0000                	.insn	2, 0x0000
    433858b8:	08df 1114 0000      	.insn	6, 0x111408df
    433858be:	0000                	.insn	2, 0x0000
    433858c0:	0cdf 1114 0000      	.insn	6, 0x11140cdf
    433858c6:	0000                	.insn	2, 0x0000
    433858c8:	10df 1114 0000      	.insn	6, 0x111410df
    433858ce:	0000                	.insn	2, 0x0000
    433858d0:	14df 1114 0000      	.insn	6, 0x111414df
    433858d6:	0000                	.insn	2, 0x0000
    433858d8:	18df 1114 0000      	.insn	6, 0x111418df
    433858de:	0000                	.insn	2, 0x0000
    433858e0:	1cdf 1114 0000      	.insn	6, 0x11141cdf
    433858e6:	0000                	.insn	2, 0x0000
    433858e8:	20df 1114 0000      	.insn	6, 0x111420df
    433858ee:	0000                	.insn	2, 0x0000
    433858f0:	24df 1114 0000      	.insn	6, 0x111424df
    433858f6:	0000                	.insn	2, 0x0000
    433858f8:	28df 1114 0000      	.insn	6, 0x111428df
    433858fe:	0000                	.insn	2, 0x0000
    43385900:	2cdf 1114 0000      	.insn	6, 0x11142cdf
    43385906:	0000                	.insn	2, 0x0000
    43385908:	30df 1114 0000      	.insn	6, 0x111430df
    4338590e:	0000                	.insn	2, 0x0000
    43385910:	34df 1114 0000      	.insn	6, 0x111434df
    43385916:	0000                	.insn	2, 0x0000
    43385918:	38df 1114 0000      	.insn	6, 0x111438df
    4338591e:	0000                	.insn	2, 0x0000
    43385920:	3cdf 1114 0000      	.insn	6, 0x11143cdf
    43385926:	0000                	.insn	2, 0x0000
    43385928:	40df 1114 0000      	.insn	6, 0x111440df
    4338592e:	0000                	.insn	2, 0x0000
    43385930:	44df 1114 0000      	.insn	6, 0x111444df
    43385936:	0000                	.insn	2, 0x0000
    43385938:	48df 1114 0000      	.insn	6, 0x111448df
    4338593e:	0000                	.insn	2, 0x0000
    43385940:	4cdf 1114 0000      	.insn	6, 0x11144cdf
    43385946:	0000                	.insn	2, 0x0000
    43385948:	50df 1114 0000      	.insn	6, 0x111450df
    4338594e:	0000                	.insn	2, 0x0000
    43385950:	54df 1114 0000      	.insn	6, 0x111454df
    43385956:	0000                	.insn	2, 0x0000
    43385958:	58df 1114 0000      	.insn	6, 0x111458df
    4338595e:	0000                	.insn	2, 0x0000
    43385960:	5cdf 1114 0000      	.insn	6, 0x11145cdf
    43385966:	0000                	.insn	2, 0x0000
    43385968:	60df 1114 0000      	.insn	6, 0x111460df
    4338596e:	0000                	.insn	2, 0x0000
    43385970:	64df 1114 0000      	.insn	6, 0x111464df
    43385976:	0000                	.insn	2, 0x0000
    43385978:	68df 1114 0000      	.insn	6, 0x111468df
    4338597e:	0000                	.insn	2, 0x0000
    43385980:	6cdf 1114 0000      	.insn	6, 0x11146cdf
    43385986:	0000                	.insn	2, 0x0000
    43385988:	70df 1114 0000      	.insn	6, 0x111470df
    4338598e:	0000                	.insn	2, 0x0000
    43385990:	74df 1114 0000      	.insn	6, 0x111474df
    43385996:	0000                	.insn	2, 0x0000
    43385998:	78df 1114 0000      	.insn	6, 0x111478df
    4338599e:	0000                	.insn	2, 0x0000
    433859a0:	7cdf 1114 0000      	.insn	6, 0x11147cdf
    433859a6:	0000                	.insn	2, 0x0000
    433859a8:	80df 1114 0000      	.insn	6, 0x111480df
    433859ae:	0000                	.insn	2, 0x0000
    433859b0:	84df 1114 0000      	.insn	6, 0x111484df
    433859b6:	0000                	.insn	2, 0x0000
    433859b8:	88df 1114 0000      	.insn	6, 0x111488df
    433859be:	0000                	.insn	2, 0x0000
    433859c0:	8cdf 1114 0000      	.insn	6, 0x11148cdf
    433859c6:	0000                	.insn	2, 0x0000
    433859c8:	90df 1114 0000      	.insn	6, 0x111490df
    433859ce:	0000                	.insn	2, 0x0000
    433859d0:	94df 1114 0000      	.insn	6, 0x111494df
    433859d6:	0000                	.insn	2, 0x0000
    433859d8:	98df 1114 0000      	.insn	6, 0x111498df
    433859de:	0000                	.insn	2, 0x0000
    433859e0:	9cdf 1114 0000      	.insn	6, 0x11149cdf
    433859e6:	0000                	.insn	2, 0x0000
    433859e8:	a0df 1114 0000      	.insn	6, 0x1114a0df
    433859ee:	0000                	.insn	2, 0x0000
    433859f0:	a4df 1114 0000      	.insn	6, 0x1114a4df
    433859f6:	0000                	.insn	2, 0x0000
    433859f8:	a8df 1114 0000      	.insn	6, 0x1114a8df
    433859fe:	0000                	.insn	2, 0x0000
    43385a00:	acdf 1114 0000      	.insn	6, 0x1114acdf
    43385a06:	0000                	.insn	2, 0x0000
    43385a08:	b0df 1114 0000      	.insn	6, 0x1114b0df
    43385a0e:	0000                	.insn	2, 0x0000
    43385a10:	b4df 1114 0000      	.insn	6, 0x1114b4df
    43385a16:	0000                	.insn	2, 0x0000
    43385a18:	b8df 1114 0000      	.insn	6, 0x1114b8df
    43385a1e:	0000                	.insn	2, 0x0000
    43385a20:	bcdf 1114 0000      	.insn	6, 0x1114bcdf
    43385a26:	0000                	.insn	2, 0x0000
    43385a28:	c0df 1114 0000      	.insn	6, 0x1114c0df
    43385a2e:	0000                	.insn	2, 0x0000
    43385a30:	c4df 1114 0000      	.insn	6, 0x1114c4df
    43385a36:	0000                	.insn	2, 0x0000
    43385a38:	c8df 1114 0000      	.insn	6, 0x1114c8df
    43385a3e:	0000                	.insn	2, 0x0000
    43385a40:	ccdf 1114 0000      	.insn	6, 0x1114ccdf
    43385a46:	0000                	.insn	2, 0x0000
    43385a48:	d0df 1114 0000      	.insn	6, 0x1114d0df
    43385a4e:	0000                	.insn	2, 0x0000
    43385a50:	d4df 1114 0000      	.insn	6, 0x1114d4df
    43385a56:	0000                	.insn	2, 0x0000
    43385a58:	d8df 1114 0000      	.insn	6, 0x1114d8df
    43385a5e:	0000                	.insn	2, 0x0000
    43385a60:	dcdf 1114 0000      	.insn	6, 0x1114dcdf
    43385a66:	0000                	.insn	2, 0x0000
    43385a68:	e0df 1114 0000      	.insn	6, 0x1114e0df
    43385a6e:	0000                	.insn	2, 0x0000
    43385a70:	e4df 1114 0000      	.insn	6, 0x1114e4df
    43385a76:	0000                	.insn	2, 0x0000
    43385a78:	e8df 1114 0000      	.insn	6, 0x1114e8df
    43385a7e:	0000                	.insn	2, 0x0000
    43385a80:	ecdf 1114 0000      	.insn	6, 0x1114ecdf
    43385a86:	0000                	.insn	2, 0x0000
    43385a88:	f0df 1114 0000      	.insn	6, 0x1114f0df
    43385a8e:	0000                	.insn	2, 0x0000
    43385a90:	f4df 1114 0000      	.insn	6, 0x1114f4df
    43385a96:	0000                	.insn	2, 0x0000
    43385a98:	f8df 1114 0000      	.insn	6, 0x1114f8df
    43385a9e:	0000                	.insn	2, 0x0000
    43385aa0:	fcdf 1114 0000      	.insn	6, 0x1114fcdf
    43385aa6:	0000                	.insn	2, 0x0000
    43385aa8:	00df 1115 0000      	.insn	6, 0x111500df
    43385aae:	0000                	.insn	2, 0x0000
    43385ab0:	04df 1115 0000      	.insn	6, 0x111504df
    43385ab6:	0000                	.insn	2, 0x0000
    43385ab8:	08df 1115 0000      	.insn	6, 0x111508df
    43385abe:	0000                	.insn	2, 0x0000
    43385ac0:	0cdf 1115 0000      	.insn	6, 0x11150cdf
    43385ac6:	0000                	.insn	2, 0x0000
    43385ac8:	10df 1115 0000      	.insn	6, 0x111510df
    43385ace:	0000                	.insn	2, 0x0000
    43385ad0:	14df 1115 0000      	.insn	6, 0x111514df
    43385ad6:	0000                	.insn	2, 0x0000
    43385ad8:	18df 1115 0000      	.insn	6, 0x111518df
    43385ade:	0000                	.insn	2, 0x0000
    43385ae0:	1cdf 1115 0000      	.insn	6, 0x11151cdf
    43385ae6:	0000                	.insn	2, 0x0000
    43385ae8:	20df 1115 0000      	.insn	6, 0x111520df
    43385aee:	0000                	.insn	2, 0x0000
    43385af0:	24df 1115 0000      	.insn	6, 0x111524df
    43385af6:	0000                	.insn	2, 0x0000
    43385af8:	28df 1115 0000      	.insn	6, 0x111528df
    43385afe:	0000                	.insn	2, 0x0000
    43385b00:	2cdf 1115 0000      	.insn	6, 0x11152cdf
    43385b06:	0000                	.insn	2, 0x0000
    43385b08:	30df 1115 0000      	.insn	6, 0x111530df
    43385b0e:	0000                	.insn	2, 0x0000
    43385b10:	34df 1115 0000      	.insn	6, 0x111534df
    43385b16:	0000                	.insn	2, 0x0000
    43385b18:	38df 1115 0000      	.insn	6, 0x111538df
    43385b1e:	0000                	.insn	2, 0x0000
    43385b20:	3cdf 1115 0000      	.insn	6, 0x11153cdf
    43385b26:	0000                	.insn	2, 0x0000
    43385b28:	40df 1115 0000      	.insn	6, 0x111540df
    43385b2e:	0000                	.insn	2, 0x0000
    43385b30:	44df 1115 0000      	.insn	6, 0x111544df
    43385b36:	0000                	.insn	2, 0x0000
    43385b38:	48df 1115 0000      	.insn	6, 0x111548df
    43385b3e:	0000                	.insn	2, 0x0000
    43385b40:	4cdf 1115 0000      	.insn	6, 0x11154cdf
    43385b46:	0000                	.insn	2, 0x0000
    43385b48:	50df 1115 0000      	.insn	6, 0x111550df
    43385b4e:	0000                	.insn	2, 0x0000
    43385b50:	54df 1115 0000      	.insn	6, 0x111554df
    43385b56:	0000                	.insn	2, 0x0000
    43385b58:	58df 1115 0000      	.insn	6, 0x111558df
    43385b5e:	0000                	.insn	2, 0x0000
    43385b60:	5cdf 1115 0000      	.insn	6, 0x11155cdf
    43385b66:	0000                	.insn	2, 0x0000
    43385b68:	60df 1115 0000      	.insn	6, 0x111560df
    43385b6e:	0000                	.insn	2, 0x0000
    43385b70:	64df 1115 0000      	.insn	6, 0x111564df
    43385b76:	0000                	.insn	2, 0x0000
    43385b78:	68df 1115 0000      	.insn	6, 0x111568df
    43385b7e:	0000                	.insn	2, 0x0000
    43385b80:	6cdf 1115 0000      	.insn	6, 0x11156cdf
    43385b86:	0000                	.insn	2, 0x0000
    43385b88:	70df 1115 0000      	.insn	6, 0x111570df
    43385b8e:	0000                	.insn	2, 0x0000
    43385b90:	74df 1115 0000      	.insn	6, 0x111574df
    43385b96:	0000                	.insn	2, 0x0000
    43385b98:	78df 1115 0000      	.insn	6, 0x111578df
    43385b9e:	0000                	.insn	2, 0x0000
    43385ba0:	7cdf 1115 0000      	.insn	6, 0x11157cdf
    43385ba6:	0000                	.insn	2, 0x0000
    43385ba8:	80df 1115 0000      	.insn	6, 0x111580df
    43385bae:	0000                	.insn	2, 0x0000
    43385bb0:	84df 1115 0000      	.insn	6, 0x111584df
    43385bb6:	0000                	.insn	2, 0x0000
    43385bb8:	88df 1115 0000      	.insn	6, 0x111588df
    43385bbe:	0000                	.insn	2, 0x0000
    43385bc0:	8cdf 1115 0000      	.insn	6, 0x11158cdf
    43385bc6:	0000                	.insn	2, 0x0000
    43385bc8:	90df 1115 0000      	.insn	6, 0x111590df
    43385bce:	0000                	.insn	2, 0x0000
    43385bd0:	94df 1115 0000      	.insn	6, 0x111594df
    43385bd6:	0000                	.insn	2, 0x0000
    43385bd8:	98df 1115 0000      	.insn	6, 0x111598df
    43385bde:	0000                	.insn	2, 0x0000
    43385be0:	9cdf 1115 0000      	.insn	6, 0x11159cdf
    43385be6:	0000                	.insn	2, 0x0000
    43385be8:	a0df 1115 0000      	.insn	6, 0x1115a0df
    43385bee:	0000                	.insn	2, 0x0000
    43385bf0:	a4df 1115 0000      	.insn	6, 0x1115a4df
    43385bf6:	0000                	.insn	2, 0x0000
    43385bf8:	a8df 1115 0000      	.insn	6, 0x1115a8df
    43385bfe:	0000                	.insn	2, 0x0000
    43385c00:	acdf 1115 0000      	.insn	6, 0x1115acdf
    43385c06:	0000                	.insn	2, 0x0000
    43385c08:	b0df 1115 0000      	.insn	6, 0x1115b0df
    43385c0e:	0000                	.insn	2, 0x0000
    43385c10:	b4df 1115 0000      	.insn	6, 0x1115b4df
    43385c16:	0000                	.insn	2, 0x0000
    43385c18:	b8df 1115 0000      	.insn	6, 0x1115b8df
    43385c1e:	0000                	.insn	2, 0x0000
    43385c20:	bcdf 1115 0000      	.insn	6, 0x1115bcdf
    43385c26:	0000                	.insn	2, 0x0000
    43385c28:	c0df 1115 0000      	.insn	6, 0x1115c0df
    43385c2e:	0000                	.insn	2, 0x0000
    43385c30:	c4df 1115 0000      	.insn	6, 0x1115c4df
    43385c36:	0000                	.insn	2, 0x0000
    43385c38:	c8df 1115 0000      	.insn	6, 0x1115c8df
    43385c3e:	0000                	.insn	2, 0x0000
    43385c40:	ccdf 1115 0000      	.insn	6, 0x1115ccdf
    43385c46:	0000                	.insn	2, 0x0000
    43385c48:	d0df 1115 0000      	.insn	6, 0x1115d0df
    43385c4e:	0000                	.insn	2, 0x0000
    43385c50:	d4df 1115 0000      	.insn	6, 0x1115d4df
    43385c56:	0000                	.insn	2, 0x0000
    43385c58:	d8df 1115 0000      	.insn	6, 0x1115d8df
    43385c5e:	0000                	.insn	2, 0x0000
    43385c60:	dcdf 1115 0000      	.insn	6, 0x1115dcdf
    43385c66:	0000                	.insn	2, 0x0000
    43385c68:	e0df 1115 0000      	.insn	6, 0x1115e0df
    43385c6e:	0000                	.insn	2, 0x0000
    43385c70:	e4df 1115 0000      	.insn	6, 0x1115e4df
    43385c76:	0000                	.insn	2, 0x0000
    43385c78:	e8df 1115 0000      	.insn	6, 0x1115e8df
    43385c7e:	0000                	.insn	2, 0x0000
    43385c80:	ecdf 1115 0000      	.insn	6, 0x1115ecdf
    43385c86:	0000                	.insn	2, 0x0000
    43385c88:	f0df 1115 0000      	.insn	6, 0x1115f0df
    43385c8e:	0000                	.insn	2, 0x0000
    43385c90:	f4df 1115 0000      	.insn	6, 0x1115f4df
    43385c96:	0000                	.insn	2, 0x0000
    43385c98:	f8df 1115 0000      	.insn	6, 0x1115f8df
    43385c9e:	0000                	.insn	2, 0x0000
    43385ca0:	fcdf 1115 0000      	.insn	6, 0x1115fcdf
	...

Disassembly of section .__pagetable_map_os_0x0000000044936000:

0000000044936000 <__pagetable_map_os_0x0000000044936000>:
	...
    449360b0:	111804cf          	fnmadd.s	f9,f16,f17,f2,rne
    449360b4:	0000                	.insn	2, 0x0000
	...

Disassembly of section .__pagetable_map_os_0x0000000044ee1000:

0000000044ee1000 <__pagetable_map_os_0x0000000044ee1000>:
	...
    44ee1090:	48df 1118 0000      	.insn	6, 0x111848df
	...

Disassembly of section .__pagetable_map_os_0x0000000044c40000:

0000000044c40000 <__pagetable_map_os_0x0000000044c40000>:
	...
    44c408c0:	1140acd7          	vredminu.vs	v25,v20,v1,v0.t
    44c408c4:	0000                	.insn	2, 0x0000
	...

Disassembly of section .__pagetable_map_os_0x0000000044675000:

0000000044675000 <__pagetable_map_os_0x0000000044675000>:
    44675000:	f801                	.insn	2, 0xf801
    44675002:	00001123          	sh	x0,2(x0) # 2 <CHECK_EXCP_MODE_HS>
    44675006:	0000                	.insn	2, 0x0000
    44675008:	b801                	.insn	2, 0xb801
    4467500a:	10ea                	.insn	2, 0x10ea
	...
    44675040:	b001                	.insn	2, 0xb001
    44675042:	1140                	.insn	2, 0x1140
	...
    446751c0:	e801                	.insn	2, 0xe801
    446751c2:	00001123          	sh	x0,2(x0) # 2 <CHECK_EXCP_MODE_HS>
	...
    4467525e:	0000                	.insn	2, 0x0000
    44675260:	4401                	.insn	2, 0x4401
    44675262:	111c                	.insn	2, 0x111c
	...
    44675570:	b001                	.insn	2, 0xb001
    44675572:	1135                	.insn	2, 0x1135
	...
    44675bd8:	6401                	.insn	2, 0x6401
    44675bda:	00000000113f 	.6byte	0x00000000113f

Disassembly of section .__pagetable_map_os_0x000000004502c000:

000000004502c000 <__pagetable_map_os_0x000000004502c000>:
	...
    4502c330:	a8df 1128 0000      	.insn	6, 0x1128a8df
    4502c336:	0000                	.insn	2, 0x0000
    4502c338:	acdf 1128 0000      	.insn	6, 0x1128acdf
	...
    4502ce2e:	0000                	.insn	2, 0x0000
    4502ce30:	68df 111a 0000      	.insn	6, 0x111a68df
	...

Disassembly of section .__pagetable_map_os_0x00000000448fe000:

00000000448fe000 <__pagetable_map_os_0x00000000448fe000>:
	...
    448fe010:	1128a4d7          	vredminu.vs	v9,v18,v17,v0.t
	...
    448fe028:	11182cd7          	vredminu.vs	v25,v17,v16,v0.t
	...
    448fe040:	e8df 111b 0000      	.insn	6, 0x111be8df
	...
    448fe0c6:	0000                	.insn	2, 0x0000
    448fe0c8:	106e38d7          	.insn	4, 0x106e38d7
	...
    448fe0e8:	11195cd7          	vfmin.vf	v25,v17,f18,v0.t
	...
    448fe1c8:	112890d7          	vfmin.vv	v1,v18,v17,v0.t
	...
    448fe208:	1119d0d7          	vfmin.vf	v1,v17,f19,v0.t
	...
    448fe220:	111820d7          	vredminu.vs	v1,v17,v16,v0.t
	...
    448fe230:	b0df 10ea 0000      	.insn	6, 0x10eab0df
    448fe236:	0000                	.insn	2, 0x0000
    448fe238:	b4df 10ea 0000      	.insn	6, 0x10eab4df
	...
    448fe3a6:	0000                	.insn	2, 0x0000
    448fe3a8:	1140ccd7          	vminu.vx	v25,v20,x1,v0.t
    448fe3ac:	0000                	.insn	2, 0x0000
	...

Disassembly of section .__pagetable_map_os_0x0000000043aae000:

0000000043aae000 <__pagetable_map_os_0x0000000043aae000>:
	...
    43aaef20:	1119ccd7          	vminu.vx	v25,v17,x19,v0.t
    43aaef24:	0000                	.insn	2, 0x0000
	...

Disassembly of section .__pagetable_map_os_0x0000000044d6c000:

0000000044d6c000 <__pagetable_map_os_0x0000000044d6c000>:
	...
    44d6c6c8:	1119e0d7          	.insn	4, 0x1119e0d7
    44d6c6cc:	0000                	.insn	2, 0x0000
	...

Disassembly of section .__pagetable_map_os_0x0000000044711000:

0000000044711000 <__pagetable_map_os_0x0000000044711000>:
    44711000:	10e0f0d7          	vsetvli	x1,x1,270
    44711004:	0000                	.insn	2, 0x0000
	...

Disassembly of section .__pagetable_map_os_0x0000000044fd9000:

0000000044fd9000 <__pagetable_map_os_0x0000000044fd9000>:
	...
    44fd9ca0:	1140bcd7          	.insn	4, 0x1140bcd7
    44fd9ca4:	0000                	.insn	2, 0x0000
	...

Disassembly of section .__pagetable_map_os_0x00000000448fa000:

00000000448fa000 <__pagetable_map_os_0x00000000448fa000>:
	...
    448fa1d8:	111818d7          	vfmin.vv	v17,v17,v16,v0.t
    448fa1dc:	0000                	.insn	2, 0x0000
	...

Disassembly of section .__pagetable_map_os_0x0000000045014000:

0000000045014000 <__pagetable_map_os_0x0000000045014000>:
	...
    45014690:	dc01                	.insn	2, 0xdc01
    45014692:	113e                	.insn	2, 0x113e
    45014694:	0000                	.insn	2, 0x0000
	...

Disassembly of section .__pagetable_map_os_0x0000000044fb7000:

0000000044fb7000 <__pagetable_map_os_0x0000000044fb7000>:
	...
    44fb7560:	113f1cd7          	vfmin.vv	v25,v19,v30,v0.t
    44fb7564:	0000                	.insn	2, 0x0000
	...

Disassembly of section .__pagetable_map_os_0x0000000044611000:

0000000044611000 <__pagetable_map_os_0x0000000044611000>:
	...
    44611128:	3401                	.insn	2, 0x3401
    4461112a:	111c                	.insn	2, 0x111c
	...
    44611f50:	3801                	.insn	2, 0x3801
    44611f52:	1131                	.insn	2, 0x1131
	...
    44611ff0:	4401                	.insn	2, 0x4401
    44611ff2:	1140                	.insn	2, 0x1140
    44611ff4:	0000                	.insn	2, 0x0000
	...

Disassembly of section .__pagetable_map_os_0x0000000045011000:

0000000045011000 <__pagetable_map_os_0x0000000045011000>:
	...
    450113c0:	111fc4d7          	vminu.vx	v9,v17,x31,v0.t
    450113c4:	0000                	.insn	2, 0x0000
	...

Disassembly of section .__pagetable_map_os_0x000000004470d000:

000000004470d000 <__pagetable_map_os_0x000000004470d000>:
	...
    4470d8f8:	11400cd7          	vminu.vv	v25,v20,v0,v0.t
    4470d8fc:	0000                	.insn	2, 0x0000
	...

Disassembly of section .__pagetable_map_os_0x0000000044c4e000:

0000000044c4e000 <__pagetable_map_os_0x0000000044c4e000>:
	...
    44c4ea90:	111808d7          	vminu.vv	v17,v17,v16,v0.t
    44c4ea94:	0000                	.insn	2, 0x0000
	...

Disassembly of section .__pagetable_map_os_0x00000000448d3000:

00000000448d3000 <__pagetable_map_os_0x00000000448d3000>:
	...
    448d3a90:	c401                	.insn	2, 0xc401
    448d3a92:	1130                	.insn	2, 0x1130
    448d3a94:	0000                	.insn	2, 0x0000
	...

Disassembly of section .__pagetable_map_os_0x0000000044c31000:

0000000044c31000 <__pagetable_map_os_0x0000000044c31000>:
	...
    44c314c0:	1127e4d7          	.insn	4, 0x1127e4d7
    44c314c4:	0000                	.insn	2, 0x0000
	...

Disassembly of section .__pagetable_map_os_0x0000000044de7000:

0000000044de7000 <__pagetable_map_os_0x0000000044de7000>:
	...
    44de7d60:	9401                	.insn	2, 0x9401
    44de7d62:	00001127          	fsh	f0,2(x0) # 2 <CHECK_EXCP_MODE_HS>
	...

Disassembly of section .__pagetable_map_os_0x00000000449e5000:

00000000449e5000 <__pagetable_map_os_0x00000000449e5000>:
	...
    449e57f8:	1127e8d7          	.insn	4, 0x1127e8d7
    449e57fc:	0000                	.insn	2, 0x0000
	...

Disassembly of section .__pagetable_map_os_0x000000004469c000:

000000004469c000 <__pagetable_map_os_0x000000004469c000>:
	...
    4469cf50:	bc01                	.insn	2, 0xbc01
    4469cf52:	0000111b          	slliw	x2,x0,0x0
	...

Disassembly of section .__pagetable_map_os_0x00000000446ef000:

00000000446ef000 <__pagetable_map_os_0x00000000446ef000>:
	...
    446ef590:	2801                	.insn	2, 0x2801
    446ef592:	1118                	.insn	2, 0x1118
    446ef594:	0000                	.insn	2, 0x0000
	...

Disassembly of section .__pagetable_map_os_0x000000004460a000:

000000004460a000 <__pagetable_map_os_0x000000004460a000>:
	...
    4460a870:	112cdcd7          	vfmin.vf	v25,v18,f25,v0.t
    4460a874:	0000                	.insn	2, 0x0000
	...

Disassembly of section .__pagetable_map_os_0x0000000045030000:

0000000045030000 <__pagetable_map_os_0x0000000045030000>:
	...
    45030180:	3001                	.insn	2, 0x3001
    45030182:	1118                	.insn	2, 0x1118
    45030184:	0000                	.insn	2, 0x0000
	...

Disassembly of section .__pagetable_map_os_0x000000004460c000:

000000004460c000 <__pagetable_map_os_0x000000004460c000>:
	...
    4460cce0:	b801                	.insn	2, 0xb801
    4460cce2:	1140                	.insn	2, 0x1140
    4460cce4:	0000                	.insn	2, 0x0000
	...

Disassembly of section .__pagetable_map_os_0x000000004502e000:

000000004502e000 <__pagetable_map_os_0x000000004502e000>:
	...
    4502e510:	1119d8d7          	vfmin.vf	v17,v17,f19,v0.t
    4502e514:	0000                	.insn	2, 0x0000
	...

Disassembly of section .__pagetable_map_os_0x00000000449d4000:

00000000449d4000 <__pagetable_map_os_0x00000000449d4000>:
	...
    449d4c38:	1c01                	.insn	2, 0x1c01
    449d4c3a:	1118                	.insn	2, 0x1118
    449d4c3c:	0000                	.insn	2, 0x0000
	...

Disassembly of section .__pagetable_map_os_0x0000000044607000:

0000000044607000 <__pagetable_map_os_0x0000000044607000>:
	...
    44607778:	6c01                	.insn	2, 0x6c01
    4460777a:	113a                	.insn	2, 0x113a
    4460777c:	0000                	.insn	2, 0x0000
	...

Disassembly of section .__pagetable_map_os_0x0000000044e9b000:

0000000044e9b000 <__pagetable_map_os_0x0000000044e9b000>:
	...
    44e9b268:	113168d7          	.insn	4, 0x113168d7
    44e9b26c:	0000                	.insn	2, 0x0000
	...

Disassembly of section .__pagetable_map_os_0x0000000044e5f000:

0000000044e5f000 <__pagetable_map_os_0x0000000044e5f000>:
	...
    44e5f538:	d001                	.insn	2, 0xd001
    44e5f53a:	00000000113f 	.6byte	0x00000000113f

Disassembly of section .__pagetable_map_os_0x0000000044ff4000:

0000000044ff4000 <__pagetable_map_os_0x0000000044ff4000>:
	...
    44ff4ea8:	7001                	.insn	2, 0x7001
    44ff4eaa:	1129                	.insn	2, 0x1129
    44ff4eac:	0000                	.insn	2, 0x0000
	...

Disassembly of section .__pagetable_map_os_0x0000000044a5c000:

0000000044a5c000 <__pagetable_map_os_0x0000000044a5c000>:
	...
    44a5cc88:	113f18d7          	vfmin.vv	v17,v19,v30,v0.t
    44a5cc8c:	0000                	.insn	2, 0x0000
	...

Disassembly of section .__pagetable_map_os_0x000000004468f000:

000000004468f000 <__pagetable_map_os_0x000000004468f000>:
	...
    4468fe70:	5c01                	.insn	2, 0x5c01
    4468fe72:	00000000113f 	.6byte	0x00000000113f

Disassembly of section .__pagetable_map_os_0x0000000044fd7000:

0000000044fd7000 <__pagetable_map_os_0x0000000044fd7000>:
	...
    44fd7de8:	5401                	.insn	2, 0x5401
    44fd7dea:	111a                	.insn	2, 0x111a
    44fd7dec:	0000                	.insn	2, 0x0000
	...

Disassembly of section .__pagetable_map_os_0x0000000044695000:

0000000044695000 <__pagetable_map_os_0x0000000044695000>:
	...
    44695e60:	1140b4d7          	.insn	4, 0x1140b4d7
	...
    44695e70:	111c60d7          	.insn	4, 0x111c60d7
    44695e74:	0000                	.insn	2, 0x0000
	...

Disassembly of section .__pagetable_map_os_0x000000004503f000:

000000004503f000 <__pagetable_map_os_0x000000004503f000>:
	...
    4503fc40:	c801                	.insn	2, 0xc801
    4503fc42:	00001137          	lui	x2,0x1
	...

Disassembly of section .__pagetable_map_os_0x0000000044df2000:

0000000044df2000 <__pagetable_map_os_0x0000000044df2000>:
	...
    44df2ca8:	1801                	.insn	2, 0x1801
    44df2caa:	1140                	.insn	2, 0x1140
    44df2cac:	0000                	.insn	2, 0x0000
	...

Disassembly of section .__pagetable_map_os_0x0000000045006000:

0000000045006000 <__pagetable_map_os_0x0000000045006000>:
	...
    450067a8:	1140f8d7          	vsetvli	x17,x1,276
    450067ac:	0000                	.insn	2, 0x0000
	...
