
/home/abdullah/RiescueC/riescue/10x_R/hypervisor_exceptions/testsuite/hypervisor_exceptions/virtualized/user_sv39_gdisable/tp_hypervisor_exceptions_1:     file format elf64-littleriscv


Disassembly of section .runtime:

0000000041000000 <_start>:
    41000000:	00000093          	li	x1,0
    41000004:	00000113          	li	x2,0
    41000008:	00000193          	li	x3,0
    4100000c:	00000213          	li	x4,0
    41000010:	00000293          	li	x5,0
    41000014:	00000313          	li	x6,0
    41000018:	00000393          	li	x7,0
    4100001c:	00000413          	li	x8,0
    41000020:	00000493          	li	x9,0
    41000024:	00000513          	li	x10,0
    41000028:	00000593          	li	x11,0
    4100002c:	00000613          	li	x12,0
    41000030:	00000693          	li	x13,0
    41000034:	00000713          	li	x14,0
    41000038:	00000793          	li	x15,0
    4100003c:	00000813          	li	x16,0
    41000040:	00000893          	li	x17,0
    41000044:	00000913          	li	x18,0
    41000048:	00000993          	li	x19,0
    4100004c:	00000a13          	li	x20,0
    41000050:	00000a93          	li	x21,0
    41000054:	00000b13          	li	x22,0
    41000058:	00000b93          	li	x23,0
    4100005c:	00000c13          	li	x24,0
    41000060:	00000c93          	li	x25,0
    41000064:	00000d13          	li	x26,0
    41000068:	00000d93          	li	x27,0
    4100006c:	00000e13          	li	x28,0
    41000070:	00000e93          	li	x29,0
    41000074:	00000f13          	li	x30,0
    41000078:	00000f93          	li	x31,0

000000004100007c <loader__load_panic_address>:
    4100007c:	00001297          	auipc	x5,0x1
    41000080:	a8028293          	addi	x5,x5,-1408 # 41000afc <eot__failed>
    41000084:	30529073          	csrw	mtvec,x5

0000000041000088 <loader__initialize_runtime>:
    41000088:	00000293          	li	x5,0
    4100008c:	3012a2f3          	csrrs	x5,misa,x5

0000000041000090 <loader__set_mstatus>:
    41000090:	000402b7          	lui	x5,0x40
    41000094:	00a2829b          	addiw	x5,x5,10 # 4000a <pma_region_0_size+0xa>
    41000098:	3002a2f3          	csrrs	x5,mstatus,x5
    4100009c:	43c02237          	lui	x4,0x43c02
    410000a0:	34021073          	csrw	mscratch,x4
    410000a4:	00018237          	lui	x4,0x18
    410000a8:	24021073          	csrw	vsscratch,x4
    410000ac:	43c02237          	lui	x4,0x43c02

00000000410000b0 <loader__setup_menvcfg>:
    410000b0:	00000297          	auipc	x5,0x0
    410000b4:	53828293          	addi	x5,x5,1336 # 410005e8 <trap_handler_m__trap_entry>
    410000b8:	30529073          	csrw	mtvec,x5

00000000410000bc <setup_vmm>:
    410000bc:	00000013          	nop

00000000410000c0 <setup_hedeleg>:
    410000c0:	00f9d2b7          	lui	x5,0xf9d
    410000c4:	8592829b          	addiw	x5,x5,-1959 # f9c859 <SID_HEXCEP_16_fs0_both_stack+0x713859>
    410000c8:	00c29293          	slli	x5,x5,0xc
    410000cc:	04328293          	addi	x5,x5,67
    410000d0:	00e29293          	slli	x5,x5,0xe
    410000d4:	03928293          	addi	x5,x5,57
    410000d8:	00d29293          	slli	x5,x5,0xd
    410000dc:	08c28293          	addi	x5,x5,140
    410000e0:	60229073          	csrw	hedeleg,x5

00000000410000e4 <setup_hideleg>:
    410000e4:	fff00293          	li	x5,-1
    410000e8:	60329073          	csrw	hideleg,x5

00000000410000ec <setup_henvcfg>:
    410000ec:	00000293          	li	x5,0
    410000f0:	60a29073          	csrw	henvcfg,x5
    410000f4:	00011297          	auipc	x5,0x11
    410000f8:	32c28293          	addi	x5,x5,812 # 41011420 <trap_handler_hs__trap_handler>
    410000fc:	10529073          	csrw	stvec,x5
    41000100:	e070029b          	addiw	x5,x0,-505
    41000104:	02a29293          	slli	x5,x5,0x2a
    41000108:	04328293          	addi	x5,x5,67
    4100010c:	00c29293          	slli	x5,x5,0xc
    41000110:	99428293          	addi	x5,x5,-1644
    41000114:	28029073          	csrw	vsatp,x5
    41000118:	200022f3          	csrr	x5,vsstatus
    4100011c:	00042337          	lui	x6,0x42
    41000120:	2003031b          	addiw	x6,x6,512 # 42200 <pma_region_0_size+0x2200>
    41000124:	0062e2b3          	or	x5,x5,x6
    41000128:	20029073          	csrw	vsstatus,x5

000000004100012c <loader__enable_paging>:
    4100012c:	fffc00b7          	lui	x1,0xfffc0
    41000130:	02f0809b          	addiw	x1,x1,47 # fffffffffffc002f <SID_HEXCEP_16_sstatus_fs0_stack+0x1db2d8e02f>
    41000134:	02109093          	slli	x1,x1,0x21
    41000138:	04308093          	addi	x1,x1,67
    4100013c:	00c09093          	slli	x1,x1,0xc
    41000140:	99408093          	addi	x1,x1,-1644
    41000144:	18009073          	csrw	satp,x1

0000000041000148 <loader__done>:
    41000148:	1dd0006f          	j	41000b24 <scheduler__init>

000000004100014c <loader__panic>:
    4100014c:	1b10006f          	j	41000afc <eot__failed>

0000000041000150 <syscalls__syscall_check_schedule_next_test>:
    41000150:	00f0029b          	addiw	x5,x0,15
    41000154:	01c29293          	slli	x5,x5,0x1c
    41000158:	00128293          	addi	x5,x5,1
    4100015c:	01f29a63          	bne	x5,x31,41000170 <syscalls__syscall_check_fail_test>
    41000160:	00000317          	auipc	x6,0x0
    41000164:	48830313          	addi	x6,x6,1160 # 410005e8 <trap_handler_m__trap_entry>
    41000168:	30531073          	csrw	mtvec,x6
    4100016c:	6c00006f          	j	4100082c <enter_scheduler>

0000000041000170 <syscalls__syscall_check_fail_test>:
    41000170:	00f0029b          	addiw	x5,x0,15
    41000174:	01c29293          	slli	x5,x5,0x1c
    41000178:	00228293          	addi	x5,x5,2
    4100017c:	01f29a63          	bne	x5,x31,41000190 <syscalls__syscall_check_end_test_without_failure>
    41000180:	00000317          	auipc	x6,0x0
    41000184:	46830313          	addi	x6,x6,1128 # 410005e8 <trap_handler_m__trap_entry>
    41000188:	30531073          	csrw	mtvec,x6
    4100018c:	6d00006f          	j	4100085c <test_failed>

0000000041000190 <syscalls__syscall_check_end_test_without_failure>:
    41000190:	00f0029b          	addiw	x5,x0,15
    41000194:	01c29293          	slli	x5,x5,0x1c
    41000198:	00328293          	addi	x5,x5,3
    4100019c:	01f29a63          	bne	x5,x31,410001b0 <syscalls__syscall_check_switch_machine_mode>
    410001a0:	00000317          	auipc	x6,0x0
    410001a4:	44830313          	addi	x6,x6,1096 # 410005e8 <trap_handler_m__trap_entry>
    410001a8:	30531073          	csrw	mtvec,x6
    410001ac:	6bc0006f          	j	41000868 <os_end_test>

00000000410001b0 <syscalls__syscall_check_switch_machine_mode>:
    410001b0:	000f02b7          	lui	x5,0xf0
    410001b4:	0012829b          	addiw	x5,x5,1 # f0001 <SID_HEXCEP_17_vsstatus_vs0_stack+0x7b001>
    410001b8:	00c29293          	slli	x5,x5,0xc
    410001bc:	00128293          	addi	x5,x5,1
    410001c0:	0a5f8463          	beq	x31,x5,41000268 <syscalls__os_fn_f0001001>

00000000410001c4 <syscalls__syscall_check_switch_super_mode>:
    410001c4:	000f02b7          	lui	x5,0xf0
    410001c8:	0012829b          	addiw	x5,x5,1 # f0001 <SID_HEXCEP_17_vsstatus_vs0_stack+0x7b001>
    410001cc:	00c29293          	slli	x5,x5,0xc
    410001d0:	00228293          	addi	x5,x5,2
    410001d4:	0c5f8063          	beq	x31,x5,41000294 <syscalls__os_fn_f0001002>

00000000410001d8 <syscalls__syscall_check_switch_user_mode>:
    410001d8:	000f02b7          	lui	x5,0xf0
    410001dc:	0012829b          	addiw	x5,x5,1 # f0001 <SID_HEXCEP_17_vsstatus_vs0_stack+0x7b001>
    410001e0:	00c29293          	slli	x5,x5,0xc
    410001e4:	00328293          	addi	x5,x5,3
    410001e8:	0c5f8e63          	beq	x31,x5,410002c4 <syscalls__os_fn_f0001003>

00000000410001ec <syscalls__syscall_check_switch_test_mode>:
    410001ec:	000f02b7          	lui	x5,0xf0
    410001f0:	0012829b          	addiw	x5,x5,1 # f0001 <SID_HEXCEP_17_vsstatus_vs0_stack+0x7b001>
    410001f4:	00c29293          	slli	x5,x5,0xc
    410001f8:	00428293          	addi	x5,x5,4
    410001fc:	0e5f8863          	beq	x31,x5,410002ec <syscalls__os_fn_f0001004>

0000000041000200 <syscalls__syscall_machine_csr_rw>:
    41000200:	000f02b7          	lui	x5,0xf0
    41000204:	0012829b          	addiw	x5,x5,1 # f0001 <SID_HEXCEP_17_vsstatus_vs0_stack+0x7b001>
    41000208:	00c29293          	slli	x5,x5,0xc
    4100020c:	00528293          	addi	x5,x5,5
    41000210:	105f8263          	beq	x31,x5,41000314 <syscalls__os_fn_f0001005>

0000000041000214 <syscalls__syscall_supervisor_csr_rw>:
    41000214:	000f02b7          	lui	x5,0xf0
    41000218:	0012829b          	addiw	x5,x5,1 # f0001 <SID_HEXCEP_17_vsstatus_vs0_stack+0x7b001>
    4100021c:	00c29293          	slli	x5,x5,0xc
    41000220:	00628293          	addi	x5,x5,6
    41000224:	105f8e63          	beq	x31,x5,41000340 <syscalls__os_fn_f0001006>

0000000041000228 <syscalls__syscall_machine_pte_read>:
    41000228:	000f02b7          	lui	x5,0xf0
    4100022c:	0012829b          	addiw	x5,x5,1 # f0001 <SID_HEXCEP_17_vsstatus_vs0_stack+0x7b001>
    41000230:	00c29293          	slli	x5,x5,0xc
    41000234:	00728293          	addi	x5,x5,7
    41000238:	125f8c63          	beq	x31,x5,41000370 <syscalls__os_fn_f0001007>

000000004100023c <syscalls__syscall_machine_pte_write>:
    4100023c:	000f02b7          	lui	x5,0xf0
    41000240:	0012829b          	addiw	x5,x5,1 # f0001 <SID_HEXCEP_17_vsstatus_vs0_stack+0x7b001>
    41000244:	00c29293          	slli	x5,x5,0xc
    41000248:	00828293          	addi	x5,x5,8
    4100024c:	205f8863          	beq	x31,x5,4100045c <syscalls__os_fn_f0001008>

0000000041000250 <syscalls__syscall_check_get_hart_context>:
    41000250:	000782b7          	lui	x5,0x78
    41000254:	0012829b          	addiw	x5,x5,1 # 78001 <SID_HEXCEP_17_vsstatus_vs0_stack+0x3001>
    41000258:	00d29293          	slli	x5,x5,0xd
    4100025c:	00128293          	addi	x5,x5,1
    41000260:	2e5f8463          	beq	x31,x5,41000548 <syscalls__os_get_hart_context>
    41000264:	4e00006f          	j	41000744 <trap_handler_m__check_exception_label>

0000000041000268 <syscalls__os_fn_f0001001>:
    41000268:	000022b7          	lui	x5,0x2
    4100026c:	8002829b          	addiw	x5,x5,-2048 # 1800 <pma_region_1_size+0x800>
    41000270:	3002b073          	csrc	mstatus,x5
    41000274:	000022b7          	lui	x5,0x2
    41000278:	8002829b          	addiw	x5,x5,-2048 # 1800 <pma_region_1_size+0x800>
    4100027c:	3002a073          	csrs	mstatus,x5
    41000280:	0010029b          	addiw	x5,x0,1
    41000284:	02729293          	slli	x5,x5,0x27
    41000288:	3002b073          	csrc	mstatus,x5
    4100028c:	411952b7          	lui	x5,0x41195
    41000290:	2c80006f          	j	41000558 <syscalls__ret_from_os_fn>

0000000041000294 <syscalls__os_fn_f0001002>:
    41000294:	000022b7          	lui	x5,0x2
    41000298:	8002829b          	addiw	x5,x5,-2048 # 1800 <pma_region_1_size+0x800>
    4100029c:	3002b073          	csrc	mstatus,x5
    410002a0:	000012b7          	lui	x5,0x1
    410002a4:	8002829b          	addiw	x5,x5,-2048 # 800 <XLEN+0x7c0>
    410002a8:	3002a073          	csrs	mstatus,x5
    410002ac:	0010029b          	addiw	x5,x0,1
    410002b0:	02729293          	slli	x5,x5,0x27
    410002b4:	3002b073          	csrc	mstatus,x5
    410002b8:	12000073          	sfence.vma
    410002bc:	410952b7          	lui	x5,0x41095
    410002c0:	2980006f          	j	41000558 <syscalls__ret_from_os_fn>

00000000410002c4 <syscalls__os_fn_f0001003>:
    410002c4:	000022b7          	lui	x5,0x2
    410002c8:	8002829b          	addiw	x5,x5,-2048 # 1800 <pma_region_1_size+0x800>
    410002cc:	3002b073          	csrc	mstatus,x5
    410002d0:	00000293          	li	x5,0
    410002d4:	3002a073          	csrs	mstatus,x5
    410002d8:	0010029b          	addiw	x5,x0,1
    410002dc:	02729293          	slli	x5,x5,0x27
    410002e0:	3002b073          	csrc	mstatus,x5
    410002e4:	411152b7          	lui	x5,0x41115
    410002e8:	2700006f          	j	41000558 <syscalls__ret_from_os_fn>

00000000410002ec <syscalls__os_fn_f0001004>:
    410002ec:	000022b7          	lui	x5,0x2
    410002f0:	8002829b          	addiw	x5,x5,-2048 # 1800 <pma_region_1_size+0x800>
    410002f4:	3002b073          	csrc	mstatus,x5
    410002f8:	00000293          	li	x5,0
    410002fc:	3002a073          	csrs	mstatus,x5
    41000300:	0010029b          	addiw	x5,x0,1
    41000304:	02729293          	slli	x5,x5,0x27
    41000308:	3002a073          	csrs	mstatus,x5
    4100030c:	17823283          	ld	x5,376(x4) # 43c02178 <__section_hart_context+0x178>
    41000310:	2480006f          	j	41000558 <syscalls__ret_from_os_fn>

0000000041000314 <syscalls__os_fn_f0001005>:
    41000314:	000022b7          	lui	x5,0x2
    41000318:	8002829b          	addiw	x5,x5,-2048 # 1800 <pma_region_1_size+0x800>
    4100031c:	3002b073          	csrc	mstatus,x5
    41000320:	000022b7          	lui	x5,0x2
    41000324:	8002829b          	addiw	x5,x5,-2048 # 1800 <pma_region_1_size+0x800>
    41000328:	3002a073          	csrs	mstatus,x5
    4100032c:	0010029b          	addiw	x5,x0,1
    41000330:	02729293          	slli	x5,x5,0x27
    41000334:	3002b073          	csrc	mstatus,x5
    41000338:	412152b7          	lui	x5,0x41215
    4100033c:	21c0006f          	j	41000558 <syscalls__ret_from_os_fn>

0000000041000340 <syscalls__os_fn_f0001006>:
    41000340:	000022b7          	lui	x5,0x2
    41000344:	8002829b          	addiw	x5,x5,-2048 # 1800 <pma_region_1_size+0x800>
    41000348:	3002b073          	csrc	mstatus,x5
    4100034c:	000012b7          	lui	x5,0x1
    41000350:	8002829b          	addiw	x5,x5,-2048 # 800 <XLEN+0x7c0>
    41000354:	3002a073          	csrs	mstatus,x5
    41000358:	0010029b          	addiw	x5,x0,1
    4100035c:	02729293          	slli	x5,x5,0x27
    41000360:	3002b073          	csrc	mstatus,x5
    41000364:	12000073          	sfence.vma
    41000368:	412162b7          	lui	x5,0x41216
    4100036c:	1ec0006f          	j	41000558 <syscalls__ret_from_os_fn>

0000000041000370 <syscalls__os_fn_f0001007>:
    41000370:	418d0fb7          	lui	x31,0x418d0
    41000374:	0c0f8f9b          	addiw	x31,x31,192 # 418d00c0 <pte_access_flags_pa>
    41000378:	000fbf83          	ld	x31,0(x31)
    4100037c:	418d02b7          	lui	x5,0x418d0
    41000380:	0c82829b          	addiw	x5,x5,200 # 418d00c8 <pte_access_flags_pa+0x8>
    41000384:	0002b283          	ld	x5,0(x5)
    41000388:	418d0e37          	lui	x28,0x418d0
    4100038c:	0d0e0e1b          	addiw	x28,x28,208 # 418d00d0 <pte_access_flags_pa+0x10>
    41000390:	000e3e03          	ld	x28,0(x28)

0000000041000394 <syscalls__pte_walk_check_glevel_without_gstage_read>:
    41000394:	fff00f93          	li	x31,-1
    41000398:	0dfe1063          	bne	x28,x31,41000458 <syscalls__pte_walk_fail_read>
    4100039c:	18002373          	csrr	x6,satp
    410003a0:	03c35e93          	srli	x29,x6,0x3c
    410003a4:	01431313          	slli	x6,x6,0x14
    410003a8:	01435313          	srli	x6,x6,0x14
    410003ac:	00c31313          	slli	x6,x6,0xc
    410003b0:	ff8e8e93          	addi	x29,x29,-8
    410003b4:	003e9f13          	slli	x30,x29,0x3
    410003b8:	01df0eb3          	add	x29,x30,x29
    410003bc:	01ee8e93          	addi	x29,x29,30
    410003c0:	00000f13          	li	x30,0

00000000410003c4 <syscalls__pte_walk_loop_read>:
    410003c4:	418d0fb7          	lui	x31,0x418d0
    410003c8:	0c0f8f9b          	addiw	x31,x31,192 # 418d00c0 <pte_access_flags_pa>
    410003cc:	000fbf83          	ld	x31,0(x31)
    410003d0:	01dfdfb3          	srl	x31,x31,x29
    410003d4:	1fffff93          	andi	x31,x31,511
    410003d8:	003f9f93          	slli	x31,x31,0x3
    410003dc:	01f30333          	add	x6,x6,x31
    410003e0:	005f0e63          	beq	x30,x5,410003fc <syscalls__pte_walk_done_read>
    410003e4:	00033f83          	ld	x31,0(x6)
    410003e8:	00afdf93          	srli	x31,x31,0xa
    410003ec:	00cf9313          	slli	x6,x31,0xc
    410003f0:	001f0f13          	addi	x30,x30,1
    410003f4:	ff7e8e93          	addi	x29,x29,-9
    410003f8:	fcdff06f          	j	410003c4 <syscalls__pte_walk_loop_read>

00000000410003fc <syscalls__pte_walk_done_read>:
    410003fc:	fff00f93          	li	x31,-1
    41000400:	05fe0263          	beq	x28,x31,41000444 <syscalls__pte_walk_final_read>

0000000041000404 <syscalls__pte_walk_gstage_read>:
    41000404:	418d0fb7          	lui	x31,0x418d0
    41000408:	0c0f8f9b          	addiw	x31,x31,192 # 418d00c0 <pte_access_flags_pa>
    4100040c:	006fb023          	sd	x6,0(x31)
    41000410:	000e0293          	mv	x5,x28
    41000414:	fff00e13          	li	x28,-1
    41000418:	68002373          	csrr	x6,hgatp
    4100041c:	03c35e93          	srli	x29,x6,0x3c
    41000420:	01431313          	slli	x6,x6,0x14
    41000424:	01435313          	srli	x6,x6,0x14
    41000428:	00c31313          	slli	x6,x6,0xc
    4100042c:	ff8e8e93          	addi	x29,x29,-8
    41000430:	003e9f13          	slli	x30,x29,0x3
    41000434:	01df0eb3          	add	x29,x30,x29
    41000438:	01ee8e93          	addi	x29,x29,30
    4100043c:	00000f13          	li	x30,0
    41000440:	f85ff06f          	j	410003c4 <syscalls__pte_walk_loop_read>

0000000041000444 <syscalls__pte_walk_final_read>:
    41000444:	00033383          	ld	x7,0(x6)
    41000448:	341022f3          	csrr	x5,mepc
    4100044c:	00428293          	addi	x5,x5,4
    41000450:	16523c23          	sd	x5,376(x4) # 178 <XLEN+0x138>
    41000454:	e99ff06f          	j	410002ec <syscalls__os_fn_f0001004>

0000000041000458 <syscalls__pte_walk_fail_read>:
    41000458:	4040006f          	j	4100085c <test_failed>

000000004100045c <syscalls__os_fn_f0001008>:
    4100045c:	418d0fb7          	lui	x31,0x418d0
    41000460:	0c0f8f9b          	addiw	x31,x31,192 # 418d00c0 <pte_access_flags_pa>
    41000464:	000fbf83          	ld	x31,0(x31)
    41000468:	418d02b7          	lui	x5,0x418d0
    4100046c:	0c82829b          	addiw	x5,x5,200 # 418d00c8 <pte_access_flags_pa+0x8>
    41000470:	0002b283          	ld	x5,0(x5)
    41000474:	418d0e37          	lui	x28,0x418d0
    41000478:	0d0e0e1b          	addiw	x28,x28,208 # 418d00d0 <pte_access_flags_pa+0x10>
    4100047c:	000e3e03          	ld	x28,0(x28)

0000000041000480 <syscalls__pte_walk_check_glevel_without_gstage_write>:
    41000480:	fff00f93          	li	x31,-1
    41000484:	0dfe1063          	bne	x28,x31,41000544 <syscalls__pte_walk_fail_write>
    41000488:	18002373          	csrr	x6,satp
    4100048c:	03c35e93          	srli	x29,x6,0x3c
    41000490:	01431313          	slli	x6,x6,0x14
    41000494:	01435313          	srli	x6,x6,0x14
    41000498:	00c31313          	slli	x6,x6,0xc
    4100049c:	ff8e8e93          	addi	x29,x29,-8
    410004a0:	003e9f13          	slli	x30,x29,0x3
    410004a4:	01df0eb3          	add	x29,x30,x29
    410004a8:	01ee8e93          	addi	x29,x29,30
    410004ac:	00000f13          	li	x30,0

00000000410004b0 <syscalls__pte_walk_loop_write>:
    410004b0:	418d0fb7          	lui	x31,0x418d0
    410004b4:	0c0f8f9b          	addiw	x31,x31,192 # 418d00c0 <pte_access_flags_pa>
    410004b8:	000fbf83          	ld	x31,0(x31)
    410004bc:	01dfdfb3          	srl	x31,x31,x29
    410004c0:	1fffff93          	andi	x31,x31,511
    410004c4:	003f9f93          	slli	x31,x31,0x3
    410004c8:	01f30333          	add	x6,x6,x31
    410004cc:	005f0e63          	beq	x30,x5,410004e8 <syscalls__pte_walk_done_write>
    410004d0:	00033f83          	ld	x31,0(x6)
    410004d4:	00afdf93          	srli	x31,x31,0xa
    410004d8:	00cf9313          	slli	x6,x31,0xc
    410004dc:	001f0f13          	addi	x30,x30,1
    410004e0:	ff7e8e93          	addi	x29,x29,-9
    410004e4:	fcdff06f          	j	410004b0 <syscalls__pte_walk_loop_write>

00000000410004e8 <syscalls__pte_walk_done_write>:
    410004e8:	fff00f93          	li	x31,-1
    410004ec:	05fe0263          	beq	x28,x31,41000530 <syscalls__pte_walk_final_write>

00000000410004f0 <syscalls__pte_walk_gstage_write>:
    410004f0:	418d0fb7          	lui	x31,0x418d0
    410004f4:	0c0f8f9b          	addiw	x31,x31,192 # 418d00c0 <pte_access_flags_pa>
    410004f8:	006fb023          	sd	x6,0(x31)
    410004fc:	000e0293          	mv	x5,x28
    41000500:	fff00e13          	li	x28,-1
    41000504:	68002373          	csrr	x6,hgatp
    41000508:	03c35e93          	srli	x29,x6,0x3c
    4100050c:	01431313          	slli	x6,x6,0x14
    41000510:	01435313          	srli	x6,x6,0x14
    41000514:	00c31313          	slli	x6,x6,0xc
    41000518:	ff8e8e93          	addi	x29,x29,-8
    4100051c:	003e9f13          	slli	x30,x29,0x3
    41000520:	01df0eb3          	add	x29,x30,x29
    41000524:	01ee8e93          	addi	x29,x29,30
    41000528:	00000f13          	li	x30,0
    4100052c:	f85ff06f          	j	410004b0 <syscalls__pte_walk_loop_write>

0000000041000530 <syscalls__pte_walk_final_write>:
    41000530:	00733023          	sd	x7,0(x6)
    41000534:	341022f3          	csrr	x5,mepc
    41000538:	00428293          	addi	x5,x5,4
    4100053c:	16523c23          	sd	x5,376(x4) # 178 <XLEN+0x138>
    41000540:	dadff06f          	j	410002ec <syscalls__os_fn_f0001004>

0000000041000544 <syscalls__pte_walk_fail_write>:
    41000544:	3180006f          	j	4100085c <test_failed>

0000000041000548 <syscalls__os_get_hart_context>:
    41000548:	14002573          	csrr	x10,sscratch
    4100054c:	341022f3          	csrr	x5,mepc
    41000550:	00428293          	addi	x5,x5,4
    41000554:	0040006f          	j	41000558 <syscalls__ret_from_os_fn>

0000000041000558 <syscalls__ret_from_os_fn>:
    41000558:	34102373          	csrr	x6,mepc
    4100055c:	00430313          	addi	x6,x6,4
    41000560:	16623c23          	sd	x6,376(x4) # 178 <XLEN+0x138>
    41000564:	34129073          	csrw	mepc,x5
    41000568:	fff00f93          	li	x31,-1
    4100056c:	2a40006f          	j	41000810 <trap_handler_m__skip_xepc_write>

0000000041000570 <trap_handler_m__invalid_interrupt>:
    41000570:	2ec0006f          	j	4100085c <test_failed>

0000000041000574 <trap_handler_m__clear_all_interrupts>:
    41000574:	34401073          	csrw	mip,x0
    41000578:	30200073          	mret

000000004100057c <trap_handler_m___CLEAR_SSI>:
    4100057c:	00200293          	li	x5,2
    41000580:	3442b073          	csrc	mip,x5
    41000584:	30200073          	mret

0000000041000588 <trap_handler_m___CLEAR_MSI>:
    41000588:	00800293          	li	x5,8
    4100058c:	3442b073          	csrc	mip,x5
    41000590:	30200073          	mret

0000000041000594 <trap_handler_m___CLEAR_STI>:
    41000594:	02000293          	li	x5,32
    41000598:	3442b073          	csrc	mip,x5
    4100059c:	30200073          	mret

00000000410005a0 <trap_handler_m___CLEAR_MTI>:
    410005a0:	08000293          	li	x5,128
    410005a4:	3442b073          	csrc	mip,x5
    410005a8:	30200073          	mret

00000000410005ac <trap_handler_m___CLEAR_SEI>:
    410005ac:	20000293          	li	x5,512
    410005b0:	3442b073          	csrc	mip,x5
    410005b4:	30200073          	mret

00000000410005b8 <trap_handler_m___CLEAR_MEI>:
    410005b8:	000012b7          	lui	x5,0x1
    410005bc:	8002829b          	addiw	x5,x5,-2048 # 800 <XLEN+0x7c0>
    410005c0:	3442b073          	csrc	mip,x5
    410005c4:	30200073          	mret

00000000410005c8 <trap_handler_m___CLEAR_COI>:
    410005c8:	000022b7          	lui	x5,0x2
    410005cc:	3442b073          	csrc	mip,x5
    410005d0:	30200073          	mret

00000000410005d4 <trap_handler_m__clear_highest_priority_interrupt>:
    410005d4:	344022f3          	csrr	x5,mip
    410005d8:	40500333          	neg	x6,x5
    410005dc:	0062f2b3          	and	x5,x5,x6
    410005e0:	3442b073          	csrc	mip,x5
    410005e4:	30200073          	mret

00000000410005e8 <trap_handler_m__trap_entry>:
    410005e8:	0fc0006f          	j	410006e4 <trap_handler_m__trap_handler>

00000000410005ec <trap_handler_m__interrupt_vector_table>:
    410005ec:	f91ff06f          	j	4100057c <trap_handler_m___CLEAR_SSI>
    410005f0:	f81ff06f          	j	41000570 <trap_handler_m__invalid_interrupt>
    410005f4:	f95ff06f          	j	41000588 <trap_handler_m___CLEAR_MSI>
    410005f8:	f79ff06f          	j	41000570 <trap_handler_m__invalid_interrupt>
    410005fc:	f99ff06f          	j	41000594 <trap_handler_m___CLEAR_STI>
    41000600:	f71ff06f          	j	41000570 <trap_handler_m__invalid_interrupt>
    41000604:	f9dff06f          	j	410005a0 <trap_handler_m___CLEAR_MTI>
    41000608:	f69ff06f          	j	41000570 <trap_handler_m__invalid_interrupt>
    4100060c:	fa1ff06f          	j	410005ac <trap_handler_m___CLEAR_SEI>
    41000610:	f61ff06f          	j	41000570 <trap_handler_m__invalid_interrupt>
    41000614:	fa5ff06f          	j	410005b8 <trap_handler_m___CLEAR_MEI>
    41000618:	f59ff06f          	j	41000570 <trap_handler_m__invalid_interrupt>
    4100061c:	fadff06f          	j	410005c8 <trap_handler_m___CLEAR_COI>
    41000620:	f51ff06f          	j	41000570 <trap_handler_m__invalid_interrupt>
    41000624:	f4dff06f          	j	41000570 <trap_handler_m__invalid_interrupt>
    41000628:	fadff06f          	j	410005d4 <trap_handler_m__clear_highest_priority_interrupt>
    4100062c:	fa9ff06f          	j	410005d4 <trap_handler_m__clear_highest_priority_interrupt>
    41000630:	fa5ff06f          	j	410005d4 <trap_handler_m__clear_highest_priority_interrupt>
    41000634:	fa1ff06f          	j	410005d4 <trap_handler_m__clear_highest_priority_interrupt>
    41000638:	f9dff06f          	j	410005d4 <trap_handler_m__clear_highest_priority_interrupt>
    4100063c:	f99ff06f          	j	410005d4 <trap_handler_m__clear_highest_priority_interrupt>
    41000640:	f95ff06f          	j	410005d4 <trap_handler_m__clear_highest_priority_interrupt>
    41000644:	f91ff06f          	j	410005d4 <trap_handler_m__clear_highest_priority_interrupt>
    41000648:	f8dff06f          	j	410005d4 <trap_handler_m__clear_highest_priority_interrupt>
    4100064c:	f89ff06f          	j	410005d4 <trap_handler_m__clear_highest_priority_interrupt>
    41000650:	f85ff06f          	j	410005d4 <trap_handler_m__clear_highest_priority_interrupt>
    41000654:	f81ff06f          	j	410005d4 <trap_handler_m__clear_highest_priority_interrupt>
    41000658:	f7dff06f          	j	410005d4 <trap_handler_m__clear_highest_priority_interrupt>
    4100065c:	f79ff06f          	j	410005d4 <trap_handler_m__clear_highest_priority_interrupt>
    41000660:	f75ff06f          	j	410005d4 <trap_handler_m__clear_highest_priority_interrupt>
    41000664:	f71ff06f          	j	410005d4 <trap_handler_m__clear_highest_priority_interrupt>
    41000668:	f6dff06f          	j	410005d4 <trap_handler_m__clear_highest_priority_interrupt>
    4100066c:	f69ff06f          	j	410005d4 <trap_handler_m__clear_highest_priority_interrupt>
    41000670:	f65ff06f          	j	410005d4 <trap_handler_m__clear_highest_priority_interrupt>
    41000674:	f61ff06f          	j	410005d4 <trap_handler_m__clear_highest_priority_interrupt>
    41000678:	f5dff06f          	j	410005d4 <trap_handler_m__clear_highest_priority_interrupt>
    4100067c:	f59ff06f          	j	410005d4 <trap_handler_m__clear_highest_priority_interrupt>
    41000680:	f55ff06f          	j	410005d4 <trap_handler_m__clear_highest_priority_interrupt>
    41000684:	f51ff06f          	j	410005d4 <trap_handler_m__clear_highest_priority_interrupt>
    41000688:	f4dff06f          	j	410005d4 <trap_handler_m__clear_highest_priority_interrupt>
    4100068c:	f49ff06f          	j	410005d4 <trap_handler_m__clear_highest_priority_interrupt>
    41000690:	f45ff06f          	j	410005d4 <trap_handler_m__clear_highest_priority_interrupt>
    41000694:	f41ff06f          	j	410005d4 <trap_handler_m__clear_highest_priority_interrupt>
    41000698:	f3dff06f          	j	410005d4 <trap_handler_m__clear_highest_priority_interrupt>
    4100069c:	f39ff06f          	j	410005d4 <trap_handler_m__clear_highest_priority_interrupt>
    410006a0:	f35ff06f          	j	410005d4 <trap_handler_m__clear_highest_priority_interrupt>
    410006a4:	f31ff06f          	j	410005d4 <trap_handler_m__clear_highest_priority_interrupt>
    410006a8:	f2dff06f          	j	410005d4 <trap_handler_m__clear_highest_priority_interrupt>
    410006ac:	f29ff06f          	j	410005d4 <trap_handler_m__clear_highest_priority_interrupt>
    410006b0:	f25ff06f          	j	410005d4 <trap_handler_m__clear_highest_priority_interrupt>
    410006b4:	f21ff06f          	j	410005d4 <trap_handler_m__clear_highest_priority_interrupt>
    410006b8:	f1dff06f          	j	410005d4 <trap_handler_m__clear_highest_priority_interrupt>
    410006bc:	f19ff06f          	j	410005d4 <trap_handler_m__clear_highest_priority_interrupt>
    410006c0:	f15ff06f          	j	410005d4 <trap_handler_m__clear_highest_priority_interrupt>
    410006c4:	f11ff06f          	j	410005d4 <trap_handler_m__clear_highest_priority_interrupt>
    410006c8:	f0dff06f          	j	410005d4 <trap_handler_m__clear_highest_priority_interrupt>
    410006cc:	f09ff06f          	j	410005d4 <trap_handler_m__clear_highest_priority_interrupt>
    410006d0:	f05ff06f          	j	410005d4 <trap_handler_m__clear_highest_priority_interrupt>
    410006d4:	f01ff06f          	j	410005d4 <trap_handler_m__clear_highest_priority_interrupt>
    410006d8:	efdff06f          	j	410005d4 <trap_handler_m__clear_highest_priority_interrupt>
    410006dc:	ef9ff06f          	j	410005d4 <trap_handler_m__clear_highest_priority_interrupt>
    410006e0:	ef5ff06f          	j	410005d4 <trap_handler_m__clear_highest_priority_interrupt>

00000000410006e4 <trap_handler_m__trap_handler>:
    410006e4:	342022f3          	csrr	x5,mcause
    410006e8:	fff0031b          	addiw	x6,x0,-1
    410006ec:	03f31313          	slli	x6,x6,0x3f
    410006f0:	00537333          	and	x6,x6,x5
    410006f4:	02030263          	beqz	x6,41000718 <trap_handler_m__exception_path>

00000000410006f8 <trap_handler_m__interrupt_handler>:
    410006f8:	fff0031b          	addiw	x6,x0,-1
    410006fc:	03f31313          	slli	x6,x6,0x3f
    41000700:	0062c2b3          	xor	x5,x5,x6
    41000704:	00000317          	auipc	x6,0x0
    41000708:	ee430313          	addi	x6,x6,-284 # 410005e8 <trap_handler_m__trap_entry>
    4100070c:	00229293          	slli	x5,x5,0x2
    41000710:	005302b3          	add	x5,x6,x5
    41000714:	00028067          	jr	x5 # 2000 <mem0>

0000000041000718 <trap_handler_m__exception_path>:
    41000718:	34021273          	csrrw	x4,mscratch,x4
    4100071c:	00000297          	auipc	x5,0x0
    41000720:	10828293          	addi	x5,x5,264 # 41000824 <trap_handler_m__trap_panic>
    41000724:	30529073          	csrw	mtvec,x5
    41000728:	0040006f          	j	4100072c <trap_handler_m__excp_entry>

000000004100072c <trap_handler_m__excp_entry>:
    4100072c:	34202373          	csrr	x6,mcause
    41000730:	00800293          	li	x5,8
    41000734:	00534863          	blt	x6,x5,41000744 <trap_handler_m__check_exception_label>
    41000738:	00b00293          	li	x5,11
    4100073c:	0062c463          	blt	x5,x6,41000744 <trap_handler_m__check_exception_label>
    41000740:	a11ff06f          	j	41000150 <syscalls__syscall_check_schedule_next_test>

0000000041000744 <trap_handler_m__check_exception_label>:
    41000744:	04623c23          	sd	x6,88(x4) # 58 <XLEN+0x18>
    41000748:	341022f3          	csrr	x5,mepc
    4100074c:	02523423          	sd	x5,40(x4) # 28 <SECURE_ACCESS_PROBABILITY+0xa>
    41000750:	01820283          	lb	x5,24(x4) # 18 <STORE_GUEST_PAGE_FAULT+0x1>
    41000754:	00029863          	bnez	x5,41000764 <trap_handler_m__check_excp>
    41000758:	00128293          	addi	x5,x5,1
    4100075c:	00520c23          	sb	x5,24(x4) # 18 <STORE_GUEST_PAGE_FAULT+0x1>
    41000760:	0980006f          	j	410007f8 <trap_handler_m__ecall_from_machine>

0000000041000764 <trap_handler_m__check_excp>:
    41000764:	06823283          	ld	x5,104(x4) # 68 <XLEN+0x28>
    41000768:	06023423          	sd	x0,104(x4) # 68 <XLEN+0x28>
    4100076c:	00028663          	beqz	x5,41000778 <trap_handler_m__skip_mode_check>
    41000770:	00100393          	li	x7,1
    41000774:	0e729463          	bne	x5,x7,4100085c <test_failed>

0000000041000778 <trap_handler_m__skip_mode_check>:
    41000778:	05023283          	ld	x5,80(x4) # 50 <XLEN+0x10>
    4100077c:	04023823          	sd	x0,80(x4) # 50 <XLEN+0x10>
    41000780:	0c531e63          	bne	x6,x5,4100085c <test_failed>
    41000784:	03823283          	ld	x5,56(x4) # 38 <SECURE_ACCESS_PROBABILITY+0x1a>
    41000788:	02023c23          	sd	x0,56(x4) # 38 <SECURE_ACCESS_PROBABILITY+0x1a>
    4100078c:	06029463          	bnez	x5,410007f4 <trap_handler_m__skip_gva_check>
    41000790:	02023303          	ld	x6,32(x4) # 20 <SECURE_ACCESS_PROBABILITY+0x2>
    41000794:	02023023          	sd	x0,32(x4) # 20 <SECURE_ACCESS_PROBABILITY+0x2>
    41000798:	02823283          	ld	x5,40(x4) # 28 <SECURE_ACCESS_PROBABILITY+0xa>
    4100079c:	02023423          	sd	x0,40(x4) # 28 <SECURE_ACCESS_PROBABILITY+0xa>
    410007a0:	0a531e63          	bne	x6,x5,4100085c <test_failed>
    410007a4:	04023283          	ld	x5,64(x4) # 40 <XLEN>
    410007a8:	04023023          	sd	x0,64(x4) # 40 <XLEN>
    410007ac:	00028663          	beqz	x5,410007b8 <trap_handler_m__skip_nonzero_tval_check>

00000000410007b0 <trap_handler_m__nonzero_tval_check>:
    410007b0:	34302373          	csrr	x6,mtval
    410007b4:	0a531463          	bne	x6,x5,4100085c <test_failed>

00000000410007b8 <trap_handler_m__skip_nonzero_tval_check>:
    410007b8:	04823283          	ld	x5,72(x4) # 48 <XLEN+0x8>
    410007bc:	04023423          	sd	x0,72(x4) # 48 <XLEN+0x8>
    410007c0:	00028663          	beqz	x5,410007cc <trap_handler_m__skip_nonzero_htval_check>

00000000410007c4 <trap_handler_m__nonzero_htval_check>:
    410007c4:	34b02373          	csrr	x6,0x34b
    410007c8:	08531a63          	bne	x6,x5,4100085c <test_failed>

00000000410007cc <trap_handler_m__skip_nonzero_htval_check>:
    410007cc:	06023283          	ld	x5,96(x4) # 60 <XLEN+0x20>
    410007d0:	06023023          	sd	x0,96(x4) # 60 <XLEN+0x20>
    410007d4:	02028063          	beqz	x5,410007f4 <trap_handler_m__skip_gva_check>

00000000410007d8 <trap_handler_m__gva_check>:
    410007d8:	30002373          	csrr	x6,mstatus
    410007dc:	02635313          	srli	x6,x6,0x26
    410007e0:	00137313          	andi	x6,x6,1
    410007e4:	06030c63          	beqz	x6,4100085c <test_failed>
    410007e8:	0010031b          	addiw	x6,x0,1
    410007ec:	02631313          	slli	x6,x6,0x26
    410007f0:	30033073          	csrc	mstatus,x6

00000000410007f4 <trap_handler_m__skip_gva_check>:
    410007f4:	0040006f          	j	410007f8 <trap_handler_m__ecall_from_machine>

00000000410007f8 <trap_handler_m__ecall_from_machine>:
    410007f8:	03023283          	ld	x5,48(x4) # 30 <SECURE_ACCESS_PROBABILITY+0x12>
    410007fc:	02023823          	sd	x0,48(x4) # 30 <SECURE_ACCESS_PROBABILITY+0x12>
    41000800:	07023303          	ld	x6,112(x4) # 70 <XLEN+0x30>
    41000804:	06023823          	sd	x0,112(x4) # 70 <XLEN+0x30>
    41000808:	00031463          	bnez	x6,41000810 <trap_handler_m__skip_xepc_write>
    4100080c:	34129073          	csrw	mepc,x5

0000000041000810 <trap_handler_m__skip_xepc_write>:
    41000810:	00000317          	auipc	x6,0x0
    41000814:	dd830313          	addi	x6,x6,-552 # 410005e8 <trap_handler_m__trap_entry>
    41000818:	30531073          	csrw	mtvec,x6
    4100081c:	34021273          	csrrw	x4,mscratch,x4
    41000820:	30200073          	mret

0000000041000824 <trap_handler_m__trap_panic>:
    41000824:	00000193          	li	x3,0
    41000828:	2b00006f          	j	41000ad8 <eot__end_test>

000000004100082c <enter_scheduler>:
    4100082c:	0002f337          	lui	x6,0x2f
    41000830:	ab73031b          	addiw	x6,x6,-1353 # 2eab7 <SID_HEXCEP_06_stack+0xdab7>
    41000834:	00e31313          	slli	x6,x6,0xe
    41000838:	0de30313          	addi	x6,x6,222
    4100083c:	02628063          	beq	x5,x6,4100085c <test_failed>
    41000840:	00000513          	li	x10,0
    41000844:	030000ef          	jal	41000874 <rvcp_print_test_result>
    41000848:	3140006f          	j	41000b5c <scheduler__dispatch>

000000004100084c <test_passed>:
    4100084c:	34021273          	csrrw	x4,mscratch,x4
    41000850:	00000513          	li	x10,0
    41000854:	020000ef          	jal	41000874 <rvcp_print_test_result>
    41000858:	3040006f          	j	41000b5c <scheduler__dispatch>

000000004100085c <test_failed>:
    4100085c:	34021273          	csrrw	x4,mscratch,x4
    41000860:	00300193          	li	x3,3
    41000864:	2740006f          	j	41000ad8 <eot__end_test>

0000000041000868 <os_end_test>:
    41000868:	34021273          	csrrw	x4,mscratch,x4
    4100086c:	00100193          	li	x3,1
    41000870:	2680006f          	j	41000ad8 <eot__end_test>

0000000041000874 <rvcp_print_test_result>:
    41000874:	00050e13          	mv	x28,x10
    41000878:	18823283          	ld	x5,392(x4) # 188 <XLEN+0x148>
    4100087c:	0010031b          	addiw	x6,x0,1
    41000880:	02031313          	slli	x6,x6,0x20
    41000884:	ffe30313          	addi	x6,x6,-2
    41000888:	1c628063          	beq	x5,x6,41000a48 <rvcp_print_test_result+0x1d4>
    4100088c:	0010031b          	addiw	x6,x0,1
    41000890:	02031313          	slli	x6,x6,0x20
    41000894:	fff30313          	addi	x6,x6,-1
    41000898:	1a628863          	beq	x5,x6,41000a48 <rvcp_print_test_result+0x1d4>
    4100089c:	1a02c663          	bltz	x5,41000a48 <rvcp_print_test_result+0x1d4>
    410008a0:	00000317          	auipc	x6,0x0
    410008a4:	43c30313          	addi	x6,x6,1084 # 41000cdc <dtest_descriptor_table>
    410008a8:	00329393          	slli	x7,x5,0x3
    410008ac:	00730333          	add	x6,x6,x7
    410008b0:	00033e83          	ld	x29,0(x6)
    410008b4:	418d0f37          	lui	x30,0x418d0
    410008b8:	030f0f1b          	addiw	x30,x30,48 # 418d0030 <rvcp_prefix_str_pa>
    410008bc:	000f4283          	lbu	x5,0(x30)
    410008c0:	02028663          	beqz	x5,410008ec <rvcp_print_test_result+0x78>
    410008c4:	1010031b          	addiw	x6,x0,257
    410008c8:	03031313          	slli	x6,x6,0x30
    410008cc:	005362b3          	or	x5,x6,x5
    410008d0:	0003f317          	auipc	x6,0x3f
    410008d4:	73030313          	addi	x6,x6,1840 # 41040000 <tohost>
    410008d8:	00033383          	ld	x7,0(x6)
    410008dc:	fe039ee3          	bnez	x7,410008d8 <rvcp_print_test_result+0x64>
    410008e0:	00533023          	sd	x5,0(x6)
    410008e4:	001f0f13          	addi	x30,x30,1
    410008e8:	fd5ff06f          	j	410008bc <rvcp_print_test_result+0x48>
    410008ec:	418d0f37          	lui	x30,0x418d0
    410008f0:	041f0f1b          	addiw	x30,x30,65 # 418d0041 <rvcp_testname_str_pa>
    410008f4:	000f4283          	lbu	x5,0(x30)
    410008f8:	02028663          	beqz	x5,41000924 <rvcp_print_test_result+0xb0>
    410008fc:	1010031b          	addiw	x6,x0,257
    41000900:	03031313          	slli	x6,x6,0x30
    41000904:	005362b3          	or	x5,x6,x5
    41000908:	0003f317          	auipc	x6,0x3f
    4100090c:	6f830313          	addi	x6,x6,1784 # 41040000 <tohost>
    41000910:	00033383          	ld	x7,0(x6)
    41000914:	fe039ee3          	bnez	x7,41000910 <rvcp_print_test_result+0x9c>
    41000918:	00533023          	sd	x5,0(x6)
    4100091c:	001f0f13          	addi	x30,x30,1
    41000920:	fd5ff06f          	j	410008f4 <rvcp_print_test_result+0x80>
    41000924:	418d0f37          	lui	x30,0x418d0
    41000928:	06af0f1b          	addiw	x30,x30,106 # 418d006a <rvcp_space_str_pa>
    4100092c:	000f4283          	lbu	x5,0(x30)
    41000930:	02028663          	beqz	x5,4100095c <rvcp_print_test_result+0xe8>
    41000934:	1010031b          	addiw	x6,x0,257
    41000938:	03031313          	slli	x6,x6,0x30
    4100093c:	005362b3          	or	x5,x6,x5
    41000940:	0003f317          	auipc	x6,0x3f
    41000944:	6c030313          	addi	x6,x6,1728 # 41040000 <tohost>
    41000948:	00033383          	ld	x7,0(x6)
    4100094c:	fe039ee3          	bnez	x7,41000948 <rvcp_print_test_result+0xd4>
    41000950:	00533023          	sd	x5,0(x6)
    41000954:	001f0f13          	addi	x30,x30,1
    41000958:	fd5ff06f          	j	4100092c <rvcp_print_test_result+0xb8>
    4100095c:	000e8f13          	mv	x30,x29
    41000960:	000f4283          	lbu	x5,0(x30)
    41000964:	02028663          	beqz	x5,41000990 <rvcp_print_test_result+0x11c>
    41000968:	1010031b          	addiw	x6,x0,257
    4100096c:	03031313          	slli	x6,x6,0x30
    41000970:	005362b3          	or	x5,x6,x5
    41000974:	0003f317          	auipc	x6,0x3f
    41000978:	68c30313          	addi	x6,x6,1676 # 41040000 <tohost>
    4100097c:	00033383          	ld	x7,0(x6)
    41000980:	fe039ee3          	bnez	x7,4100097c <rvcp_print_test_result+0x108>
    41000984:	00533023          	sd	x5,0(x6)
    41000988:	001f0f13          	addi	x30,x30,1
    4100098c:	fd5ff06f          	j	41000960 <rvcp_print_test_result+0xec>
    41000990:	418d0f37          	lui	x30,0x418d0
    41000994:	06af0f1b          	addiw	x30,x30,106 # 418d006a <rvcp_space_str_pa>
    41000998:	000f4283          	lbu	x5,0(x30)
    4100099c:	02028663          	beqz	x5,410009c8 <rvcp_print_test_result+0x154>
    410009a0:	1010031b          	addiw	x6,x0,257
    410009a4:	03031313          	slli	x6,x6,0x30
    410009a8:	005362b3          	or	x5,x6,x5
    410009ac:	0003f317          	auipc	x6,0x3f
    410009b0:	65430313          	addi	x6,x6,1620 # 41040000 <tohost>
    410009b4:	00033383          	ld	x7,0(x6)
    410009b8:	fe039ee3          	bnez	x7,410009b4 <rvcp_print_test_result+0x140>
    410009bc:	00533023          	sd	x5,0(x6)
    410009c0:	001f0f13          	addi	x30,x30,1
    410009c4:	fd5ff06f          	j	41000998 <rvcp_print_test_result+0x124>
    410009c8:	000e1863          	bnez	x28,410009d8 <rvcp_print_test_result+0x164>
    410009cc:	418d0f37          	lui	x30,0x418d0
    410009d0:	05cf0f1b          	addiw	x30,x30,92 # 418d005c <rvcp_passed_str_pa>
    410009d4:	00c0006f          	j	410009e0 <rvcp_print_test_result+0x16c>
    410009d8:	418d0f37          	lui	x30,0x418d0
    410009dc:	063f0f1b          	addiw	x30,x30,99 # 418d0063 <rvcp_failed_str_pa>
    410009e0:	000f4283          	lbu	x5,0(x30)
    410009e4:	02028663          	beqz	x5,41000a10 <rvcp_print_test_result+0x19c>
    410009e8:	1010031b          	addiw	x6,x0,257
    410009ec:	03031313          	slli	x6,x6,0x30
    410009f0:	005362b3          	or	x5,x6,x5
    410009f4:	0003f317          	auipc	x6,0x3f
    410009f8:	60c30313          	addi	x6,x6,1548 # 41040000 <tohost>
    410009fc:	00033383          	ld	x7,0(x6)
    41000a00:	fe039ee3          	bnez	x7,410009fc <rvcp_print_test_result+0x188>
    41000a04:	00533023          	sd	x5,0(x6)
    41000a08:	001f0f13          	addi	x30,x30,1
    41000a0c:	fd5ff06f          	j	410009e0 <rvcp_print_test_result+0x16c>
    41000a10:	418d0f37          	lui	x30,0x418d0
    41000a14:	06cf0f1b          	addiw	x30,x30,108 # 418d006c <rvcp_newline_str_pa>
    41000a18:	000f4283          	lbu	x5,0(x30)
    41000a1c:	02028663          	beqz	x5,41000a48 <rvcp_print_test_result+0x1d4>
    41000a20:	1010031b          	addiw	x6,x0,257
    41000a24:	03031313          	slli	x6,x6,0x30
    41000a28:	005362b3          	or	x5,x6,x5
    41000a2c:	0003f317          	auipc	x6,0x3f
    41000a30:	5d430313          	addi	x6,x6,1492 # 41040000 <tohost>
    41000a34:	00033383          	ld	x7,0(x6)
    41000a38:	fe039ee3          	bnez	x7,41000a34 <rvcp_print_test_result+0x1c0>
    41000a3c:	00533023          	sd	x5,0(x6)
    41000a40:	001f0f13          	addi	x30,x30,1
    41000a44:	fd5ff06f          	j	41000a18 <rvcp_print_test_result+0x1a4>
    41000a48:	00008067          	ret

0000000041000a4c <os_rng_orig>:
    41000a4c:	f14023f3          	csrr	x7,mhartid
    41000a50:	00068313          	mv	x6,x13
    41000a54:	026383b3          	mul	x7,x7,x6
    41000a58:	00058313          	mv	x6,x11
    41000a5c:	00730333          	add	x6,x6,x7
    41000a60:	00033283          	ld	x5,0(x6)
    41000a64:	01529313          	slli	x6,x5,0x15
    41000a68:	0062c2b3          	xor	x5,x5,x6
    41000a6c:	0232d313          	srli	x6,x5,0x23
    41000a70:	0062c2b3          	xor	x5,x5,x6
    41000a74:	00429313          	slli	x6,x5,0x4
    41000a78:	0062c2b3          	xor	x5,x5,x6
    41000a7c:	00058313          	mv	x6,x11
    41000a80:	00730333          	add	x6,x6,x7
    41000a84:	00533023          	sd	x5,0(x6)
    41000a88:	00060313          	mv	x6,x12
    41000a8c:	0262f2b3          	remu	x5,x5,x6
    41000a90:	00028513          	mv	x10,x5
    41000a94:	00008067          	ret
    41000a98:	02a00513          	li	x10,42
    41000a9c:	001965b7          	lui	x11,0x196
    41000aa0:	60d5859b          	addiw	x11,x11,1549 # 19660d <SID_HEXCEP_09_hinval_gvma_vu_stack+0x8e60d>
    41000aa4:	3c6ef637          	lui	x12,0x3c6ef
    41000aa8:	35f6061b          	addiw	x12,x12,863 # 3c6ef35f <mem2+0x28ce235f>
    41000aac:	02200693          	li	x13,34
    41000ab0:	02b50533          	mul	x10,x10,x11
    41000ab4:	00c50533          	add	x10,x10,x12
    41000ab8:	02d56533          	rem	x10,x10,x13
    41000abc:	00b00593          	li	x11,11
    41000ac0:	02b56533          	rem	x10,x10,x11
    41000ac4:	00008067          	ret

0000000041000ac8 <tohost_mutex>:
	...

0000000041000ad0 <tohost_addr_mem>:
    41000ad0:	0000                	.insn	2, 0x0000
    41000ad2:	4104                	.insn	2, 0x4104
    41000ad4:	0000                	.insn	2, 0x0000
	...

0000000041000ad8 <eot__end_test>:
    41000ad8:	00100293          	li	x5,1
    41000adc:	00328463          	beq	x5,x3,41000ae4 <eot__passed>
    41000ae0:	01c0006f          	j	41000afc <eot__failed>

0000000041000ae4 <eot__passed>:
    41000ae4:	0ff0000f          	fence
    41000ae8:	00000297          	auipc	x5,0x0
    41000aec:	fe82b283          	ld	x5,-24(x5) # 41000ad0 <tohost_addr_mem>
    41000af0:	00100313          	li	x6,1
    41000af4:	0062a023          	sw	x6,0(x5)
    41000af8:	0240006f          	j	41000b1c <eot__halt>

0000000041000afc <eot__failed>:
    41000afc:	00100513          	li	x10,1
    41000b00:	d75ff0ef          	jal	41000874 <rvcp_print_test_result>
    41000b04:	0ff0000f          	fence
    41000b08:	00000297          	auipc	x5,0x0
    41000b0c:	fc82b283          	ld	x5,-56(x5) # 41000ad0 <tohost_addr_mem>
    41000b10:	00300313          	li	x6,3
    41000b14:	0062a023          	sw	x6,0(x5)
    41000b18:	0040006f          	j	41000b1c <eot__halt>

0000000041000b1c <eot__halt>:
    41000b1c:	10500073          	wfi
    41000b20:	ffdff06f          	j	41000b1c <eot__halt>

0000000041000b24 <scheduler__init>:
    41000b24:	00000297          	auipc	x5,0x0
    41000b28:	0cc28293          	addi	x5,x5,204 # 41000bf0 <scheduler__panic>
    41000b2c:	305292f3          	csrrw	x5,mtvec,x5
    41000b30:	18523023          	sd	x5,384(x4) # 180 <XLEN+0x140>
    41000b34:	01b00293          	li	x5,27
    41000b38:	18523823          	sd	x5,400(x4) # 190 <XLEN+0x150>
    41000b3c:	0010029b          	addiw	x5,x0,1
    41000b40:	02029293          	slli	x5,x5,0x20
    41000b44:	ffe28293          	addi	x5,x5,-2
    41000b48:	18523423          	sd	x5,392(x4) # 188 <XLEN+0x148>
    41000b4c:	00000317          	auipc	x6,0x0
    41000b50:	57830313          	addi	x6,x6,1400 # 410010c4 <scheduler__test_setup_ptr>
    41000b54:	00033303          	ld	x6,0(x6)
    41000b58:	0680006f          	j	41000bc0 <scheduler__execute_test>

0000000041000b5c <scheduler__dispatch>:
    41000b5c:	00000297          	auipc	x5,0x0
    41000b60:	09428293          	addi	x5,x5,148 # 41000bf0 <scheduler__panic>
    41000b64:	305292f3          	csrrw	x5,mtvec,x5
    41000b68:	18523023          	sd	x5,384(x4) # 180 <XLEN+0x140>

0000000041000b6c <scheduler__csr_read_randomization>:
    41000b6c:	f15022f3          	csrr	x5,0xf15
    41000b70:	141022f3          	csrr	x5,sepc
    41000b74:	f13022f3          	csrr	x5,mimpid
    41000b78:	304022f3          	csrr	x5,mie
    41000b7c:	303022f3          	csrr	x5,mideleg
    41000b80:	143022f3          	csrr	x5,stval

0000000041000b84 <scheduler__load_num_runs>:
    41000b84:	19023303          	ld	x6,400(x4) # 190 <XLEN+0x150>
    41000b88:	06030063          	beqz	x6,41000be8 <scheduler__finished>

0000000041000b8c <scheduler__decrement_num_runs>:
    41000b8c:	fff30393          	addi	x7,x6,-1
    41000b90:	18723823          	sd	x7,400(x4) # 190 <XLEN+0x150>
    41000b94:	00000e17          	auipc	x28,0x0
    41000b98:	4c0e0e13          	addi	x28,x28,1216 # 41001054 <dtest_index_map>
    41000b9c:	00239e93          	slli	x29,x7,0x2
    41000ba0:	01de0e33          	add	x28,x28,x29
    41000ba4:	000e2e03          	lw	x28,0(x28)
    41000ba8:	19c23423          	sd	x28,392(x4) # 188 <XLEN+0x148>

0000000041000bac <scheduler__calc_test_pointer>:
    41000bac:	00339293          	slli	x5,x7,0x3

0000000041000bb0 <scheduler__load_test_addr>:
    41000bb0:	00000317          	auipc	x6,0x0
    41000bb4:	05430313          	addi	x6,x6,84 # 41000c04 <os_test_sequence>
    41000bb8:	006282b3          	add	x5,x5,x6
    41000bbc:	0002b303          	ld	x6,0(x5)

0000000041000bc0 <scheduler__execute_test>:
    41000bc0:	18023283          	ld	x5,384(x4) # 180 <XLEN+0x140>
    41000bc4:	30529073          	csrw	mtvec,x5
    41000bc8:	34021273          	csrrw	x4,mscratch,x4
    41000bcc:	00000213          	li	x4,0
    41000bd0:	14131073          	csrw	sepc,x6
    41000bd4:	10000293          	li	x5,256
    41000bd8:	1002b073          	csrc	sstatus,x5
    41000bdc:	08000093          	li	x1,128
    41000be0:	6000a073          	csrs	hstatus,x1
    41000be4:	10200073          	sret

0000000041000be8 <scheduler__finished>:
    41000be8:	00100193          	li	x3,1
    41000bec:	eedff06f          	j	41000ad8 <eot__end_test>

0000000041000bf0 <scheduler__panic>:
    41000bf0:	00000193          	li	x3,0
    41000bf4:	ee5ff06f          	j	41000ad8 <eot__end_test>
    41000bf8:	0000                	.insn	2, 0x0000
	...

0000000041000bfc <num_runs>:
    41000bfc:	0000001b          	sext.w	x0,x0
    41000c00:	0000                	.insn	2, 0x0000
	...

0000000041000c04 <os_test_sequence>:
    41000c04:	c1a8                	.insn	2, 0xc1a8
    41000c06:	4101                	.insn	2, 0x4101
    41000c08:	0000                	.insn	2, 0x0000
    41000c0a:	0000                	.insn	2, 0x0000
    41000c0c:	bb2c                	.insn	2, 0xbb2c
    41000c0e:	4101                	.insn	2, 0x4101
    41000c10:	0000                	.insn	2, 0x0000
    41000c12:	0000                	.insn	2, 0x0000
    41000c14:	bd54                	.insn	2, 0xbd54
    41000c16:	4101                	.insn	2, 0x4101
    41000c18:	0000                	.insn	2, 0x0000
    41000c1a:	0000                	.insn	2, 0x0000
    41000c1c:	a810                	.insn	2, 0xa810
    41000c1e:	4101                	.insn	2, 0x4101
    41000c20:	0000                	.insn	2, 0x0000
    41000c22:	0000                	.insn	2, 0x0000
    41000c24:	a780                	.insn	2, 0xa780
    41000c26:	4101                	.insn	2, 0x4101
    41000c28:	0000                	.insn	2, 0x0000
    41000c2a:	0000                	.insn	2, 0x0000
    41000c2c:	b9a4                	.insn	2, 0xb9a4
    41000c2e:	4101                	.insn	2, 0x4101
    41000c30:	0000                	.insn	2, 0x0000
    41000c32:	0000                	.insn	2, 0x0000
    41000c34:	65ec                	.insn	2, 0x65ec
    41000c36:	4101                	.insn	2, 0x4101
    41000c38:	0000                	.insn	2, 0x0000
    41000c3a:	0000                	.insn	2, 0x0000
    41000c3c:	a218                	.insn	2, 0xa218
    41000c3e:	4101                	.insn	2, 0x4101
    41000c40:	0000                	.insn	2, 0x0000
    41000c42:	0000                	.insn	2, 0x0000
    41000c44:	bf80                	.insn	2, 0xbf80
    41000c46:	4101                	.insn	2, 0x4101
    41000c48:	0000                	.insn	2, 0x0000
    41000c4a:	0000                	.insn	2, 0x0000
    41000c4c:	b460                	.insn	2, 0xb460
    41000c4e:	4101                	.insn	2, 0x4101
    41000c50:	0000                	.insn	2, 0x0000
    41000c52:	0000                	.insn	2, 0x0000
    41000c54:	a93c                	.insn	2, 0xa93c
    41000c56:	4101                	.insn	2, 0x4101
    41000c58:	0000                	.insn	2, 0x0000
    41000c5a:	0000                	.insn	2, 0x0000
    41000c5c:	a6e8                	.insn	2, 0xa6e8
    41000c5e:	4101                	.insn	2, 0x4101
    41000c60:	0000                	.insn	2, 0x0000
    41000c62:	0000                	.insn	2, 0x0000
    41000c64:	b110                	.insn	2, 0xb110
    41000c66:	4101                	.insn	2, 0x4101
    41000c68:	0000                	.insn	2, 0x0000
    41000c6a:	0000                	.insn	2, 0x0000
    41000c6c:	af64                	.insn	2, 0xaf64
    41000c6e:	4101                	.insn	2, 0x4101
    41000c70:	0000                	.insn	2, 0x0000
    41000c72:	0000                	.insn	2, 0x0000
    41000c74:	5040                	.insn	2, 0x5040
    41000c76:	4101                	.insn	2, 0x4101
    41000c78:	0000                	.insn	2, 0x0000
    41000c7a:	0000                	.insn	2, 0x0000
    41000c7c:	a520                	.insn	2, 0xa520
    41000c7e:	4101                	.insn	2, 0x4101
    41000c80:	0000                	.insn	2, 0x0000
    41000c82:	0000                	.insn	2, 0x0000
    41000c84:	b814                	.insn	2, 0xb814
    41000c86:	4101                	.insn	2, 0x4101
    41000c88:	0000                	.insn	2, 0x0000
    41000c8a:	0000                	.insn	2, 0x0000
    41000c8c:	a490                	.insn	2, 0xa490
    41000c8e:	4101                	.insn	2, 0x4101
    41000c90:	0000                	.insn	2, 0x0000
    41000c92:	0000                	.insn	2, 0x0000
    41000c94:	a8a0                	.insn	2, 0xa8a0
    41000c96:	4101                	.insn	2, 0x4101
    41000c98:	0000                	.insn	2, 0x0000
    41000c9a:	0000                	.insn	2, 0x0000
    41000c9c:	b60c                	.insn	2, 0xb60c
    41000c9e:	4101                	.insn	2, 0x4101
    41000ca0:	0000                	.insn	2, 0x0000
    41000ca2:	0000                	.insn	2, 0x0000
    41000ca4:	ac14                	.insn	2, 0xac14
    41000ca6:	4101                	.insn	2, 0x4101
    41000ca8:	0000                	.insn	2, 0x0000
    41000caa:	0000                	.insn	2, 0x0000
    41000cac:	adb8                	.insn	2, 0xadb8
    41000cae:	4101                	.insn	2, 0x4101
    41000cb0:	0000                	.insn	2, 0x0000
    41000cb2:	0000                	.insn	2, 0x0000
    41000cb4:	8138                	.insn	2, 0x8138
    41000cb6:	4101                	.insn	2, 0x4101
    41000cb8:	0000                	.insn	2, 0x0000
    41000cba:	0000                	.insn	2, 0x0000
    41000cbc:	a650                	.insn	2, 0xa650
    41000cbe:	4101                	.insn	2, 0x4101
    41000cc0:	0000                	.insn	2, 0x0000
    41000cc2:	0000                	.insn	2, 0x0000
    41000cc4:	70c0                	.insn	2, 0x70c0
    41000cc6:	4101                	.insn	2, 0x4101
    41000cc8:	0000                	.insn	2, 0x0000
    41000cca:	0000                	.insn	2, 0x0000
    41000ccc:	b2bc                	.insn	2, 0xb2bc
    41000cce:	4101                	.insn	2, 0x4101
    41000cd0:	0000                	.insn	2, 0x0000
    41000cd2:	0000                	.insn	2, 0x0000
    41000cd4:	91a8                	.insn	2, 0x91a8
    41000cd6:	4101                	.insn	2, 0x4101
    41000cd8:	0000                	.insn	2, 0x0000
	...

0000000041000cdc <dtest_descriptor_table>:
    41000cdc:	0dac                	.insn	2, 0x0dac
    41000cde:	4100                	.insn	2, 0x4100
    41000ce0:	0000                	.insn	2, 0x0000
    41000ce2:	0000                	.insn	2, 0x0000
    41000ce4:	0dba                	.insn	2, 0x0dba
    41000ce6:	4100                	.insn	2, 0x4100
    41000ce8:	0000                	.insn	2, 0x0000
    41000cea:	0000                	.insn	2, 0x0000
    41000cec:	0dc8                	.insn	2, 0x0dc8
    41000cee:	4100                	.insn	2, 0x4100
    41000cf0:	0000                	.insn	2, 0x0000
    41000cf2:	0000                	.insn	2, 0x0000
    41000cf4:	0de4                	.insn	2, 0x0de4
    41000cf6:	4100                	.insn	2, 0x4100
    41000cf8:	0000                	.insn	2, 0x0000
    41000cfa:	0000                	.insn	2, 0x0000
    41000cfc:	0e00                	.insn	2, 0x0e00
    41000cfe:	4100                	.insn	2, 0x4100
    41000d00:	0000                	.insn	2, 0x0000
    41000d02:	0000                	.insn	2, 0x0000
    41000d04:	0e1c                	.insn	2, 0x0e1c
    41000d06:	4100                	.insn	2, 0x4100
    41000d08:	0000                	.insn	2, 0x0000
    41000d0a:	0000                	.insn	2, 0x0000
    41000d0c:	0e2a                	.insn	2, 0x0e2a
    41000d0e:	4100                	.insn	2, 0x4100
    41000d10:	0000                	.insn	2, 0x0000
    41000d12:	0000                	.insn	2, 0x0000
    41000d14:	0e46                	.insn	2, 0x0e46
    41000d16:	4100                	.insn	2, 0x4100
    41000d18:	0000                	.insn	2, 0x0000
    41000d1a:	0000                	.insn	2, 0x0000
    41000d1c:	41000e5b          	.insn	4, 0x41000e5b
    41000d20:	0000                	.insn	2, 0x0000
    41000d22:	0000                	.insn	2, 0x0000
    41000d24:	0e71                	.insn	2, 0x0e71
    41000d26:	4100                	.insn	2, 0x4100
    41000d28:	0000                	.insn	2, 0x0000
    41000d2a:	0000                	.insn	2, 0x0000
    41000d2c:	0e8d                	.insn	2, 0x0e8d
    41000d2e:	4100                	.insn	2, 0x4100
    41000d30:	0000                	.insn	2, 0x0000
    41000d32:	0000                	.insn	2, 0x0000
    41000d34:	0eaa                	.insn	2, 0x0eaa
    41000d36:	4100                	.insn	2, 0x4100
    41000d38:	0000                	.insn	2, 0x0000
    41000d3a:	0000                	.insn	2, 0x0000
    41000d3c:	41000ec7          	fmsub.s	f29,f0,f16,f8,rne
    41000d40:	0000                	.insn	2, 0x0000
    41000d42:	0000                	.insn	2, 0x0000
    41000d44:	41000ee3          	beq	x0,x16,41001960 <scheduler__test_cleanup_ptr+0x894>
    41000d48:	0000                	.insn	2, 0x0000
    41000d4a:	0000                	.insn	2, 0x0000
    41000d4c:	0ef1                	.insn	2, 0x0ef1
    41000d4e:	4100                	.insn	2, 0x4100
    41000d50:	0000                	.insn	2, 0x0000
    41000d52:	0000                	.insn	2, 0x0000
    41000d54:	0f08                	.insn	2, 0x0f08
    41000d56:	4100                	.insn	2, 0x4100
    41000d58:	0000                	.insn	2, 0x0000
    41000d5a:	0000                	.insn	2, 0x0000
    41000d5c:	41000f23          	sb	x16,1054(x0) # 41e <XLEN+0x3de>
    41000d60:	0000                	.insn	2, 0x0000
    41000d62:	0000                	.insn	2, 0x0000
    41000d64:	0f3d                	.insn	2, 0x0f3d
    41000d66:	4100                	.insn	2, 0x4100
    41000d68:	0000                	.insn	2, 0x0000
    41000d6a:	0000                	.insn	2, 0x0000
    41000d6c:	0f54                	.insn	2, 0x0f54
    41000d6e:	4100                	.insn	2, 0x4100
    41000d70:	0000                	.insn	2, 0x0000
    41000d72:	0000                	.insn	2, 0x0000
    41000d74:	41000f6f          	jal	x30,41001184 <scheduler__test_cleanup_ptr+0xb8>
    41000d78:	0000                	.insn	2, 0x0000
    41000d7a:	0000                	.insn	2, 0x0000
    41000d7c:	0f89                	.insn	2, 0x0f89
    41000d7e:	4100                	.insn	2, 0x4100
    41000d80:	0000                	.insn	2, 0x0000
    41000d82:	0000                	.insn	2, 0x0000
    41000d84:	0fa6                	.insn	2, 0x0fa6
    41000d86:	4100                	.insn	2, 0x4100
    41000d88:	0000                	.insn	2, 0x0000
    41000d8a:	0000                	.insn	2, 0x0000
    41000d8c:	0fc2                	.insn	2, 0x0fc2
    41000d8e:	4100                	.insn	2, 0x4100
    41000d90:	0000                	.insn	2, 0x0000
    41000d92:	0000                	.insn	2, 0x0000
    41000d94:	0fde                	.insn	2, 0x0fde
    41000d96:	4100                	.insn	2, 0x4100
    41000d98:	0000                	.insn	2, 0x0000
    41000d9a:	0000                	.insn	2, 0x0000
    41000d9c:	1005                	.insn	2, 0x1005
    41000d9e:	4100                	.insn	2, 0x4100
    41000da0:	0000                	.insn	2, 0x0000
    41000da2:	0000                	.insn	2, 0x0000
    41000da4:	4100102b          	.insn	4, 0x4100102b
    41000da8:	0000                	.insn	2, 0x0000
	...

0000000041000dac <dtest_name_0>:
    41000dac:	5f444953          	.insn	4, 0x5f444953
    41000db0:	4548                	.insn	2, 0x4548
    41000db2:	4358                	.insn	2, 0x4358
    41000db4:	5045                	.insn	2, 0x5045
    41000db6:	305f 0035       	.insn	6, 0x49530035305f

0000000041000dba <dtest_name_1>:
    41000dba:	5f444953          	.insn	4, 0x5f444953
    41000dbe:	4548                	.insn	2, 0x4548
    41000dc0:	4358                	.insn	2, 0x4358
    41000dc2:	5045                	.insn	2, 0x5045
    41000dc4:	305f 0036       	.insn	6, 0x49530036305f

0000000041000dc8 <dtest_name_2>:
    41000dc8:	5f444953          	.insn	4, 0x5f444953
    41000dcc:	4548                	.insn	2, 0x4548
    41000dce:	4358                	.insn	2, 0x4358
    41000dd0:	5045                	.insn	2, 0x5045
    41000dd2:	305f 5f37 7576      	.insn	6, 0x75765f37305f
    41000dd8:	6d5f 646f 5f65      	.insn	6, 0x5f65646f6d5f
    41000dde:	65736163          	bltu	x6,x23,41001420 <scheduler__test_cleanup_ptr+0x354>
    41000de2:	0031                	.insn	2, 0x0031

0000000041000de4 <dtest_name_3>:
    41000de4:	5f444953          	.insn	4, 0x5f444953
    41000de8:	4548                	.insn	2, 0x4548
    41000dea:	4358                	.insn	2, 0x4358
    41000dec:	5045                	.insn	2, 0x5045
    41000dee:	305f 5f37 7576      	.insn	6, 0x75765f37305f
    41000df4:	6d5f 646f 5f65      	.insn	6, 0x5f65646f6d5f
    41000dfa:	65736163          	bltu	x6,x23,4100143c <scheduler__test_cleanup_ptr+0x370>
    41000dfe:	0032                	.insn	2, 0x0032

0000000041000e00 <dtest_name_4>:
    41000e00:	5f444953          	.insn	4, 0x5f444953
    41000e04:	4548                	.insn	2, 0x4548
    41000e06:	4358                	.insn	2, 0x4358
    41000e08:	5045                	.insn	2, 0x5045
    41000e0a:	305f 5f37 7576      	.insn	6, 0x75765f37305f
    41000e10:	6d5f 646f 5f65      	.insn	6, 0x5f65646f6d5f
    41000e16:	65736163          	bltu	x6,x23,41001458 <scheduler__test_cleanup_ptr+0x38c>
    41000e1a:	          	.insn	4, 0x49530033

0000000041000e1c <dtest_name_5>:
    41000e1c:	5f444953          	.insn	4, 0x5f444953
    41000e20:	4548                	.insn	2, 0x4548
    41000e22:	4358                	.insn	2, 0x4358
    41000e24:	5045                	.insn	2, 0x5045
    41000e26:	305f 0038       	.insn	6, 0x49530038305f

0000000041000e2a <dtest_name_6>:
    41000e2a:	5f444953          	.insn	4, 0x5f444953
    41000e2e:	4548                	.insn	2, 0x4548
    41000e30:	4358                	.insn	2, 0x4358
    41000e32:	5045                	.insn	2, 0x5045
    41000e34:	305f 5f39 726d      	.insn	6, 0x726d5f39305f
    41000e3a:	7465                	.insn	2, 0x7465
    41000e3c:	695f 5f6e 7376      	.insn	6, 0x73765f6e695f
    41000e42:	765f 0075       	.insn	6, 0x49530075765f

0000000041000e46 <dtest_name_7>:
    41000e46:	5f444953          	.insn	4, 0x5f444953
    41000e4a:	4548                	.insn	2, 0x4548
    41000e4c:	4358                	.insn	2, 0x4358
    41000e4e:	5045                	.insn	2, 0x5045
    41000e50:	305f 5f39 6677      	.insn	6, 0x66775f39305f
    41000e56:	5f69                	.insn	2, 0x5f69
    41000e58:	7576                	.insn	2, 0x7576
	...

0000000041000e5b <dtest_name_8>:
    41000e5b:	5f444953          	.insn	4, 0x5f444953
    41000e5f:	4548                	.insn	2, 0x4548
    41000e61:	4358                	.insn	2, 0x4358
    41000e63:	5045                	.insn	2, 0x5045
    41000e65:	305f 5f39 7273      	.insn	6, 0x72735f39305f
    41000e6b:	7465                	.insn	2, 0x7465
    41000e6d:	765f 0075       	.insn	6, 0x49530075765f

0000000041000e71 <dtest_name_9>:
    41000e71:	5f444953          	.insn	4, 0x5f444953
    41000e75:	4548                	.insn	2, 0x4548
    41000e77:	4358                	.insn	2, 0x4358
    41000e79:	5045                	.insn	2, 0x5045
    41000e7b:	305f 5f39 6673      	.insn	6, 0x66735f39305f
    41000e81:	6e65                	.insn	2, 0x6e65
    41000e83:	765f6563          	bltu	x30,x5,410015ed <scheduler__test_cleanup_ptr+0x521>
    41000e87:	616d                	.insn	2, 0x616d
    41000e89:	765f 0075       	.insn	6, 0x49530075765f

0000000041000e8d <dtest_name_10>:
    41000e8d:	5f444953          	.insn	4, 0x5f444953
    41000e91:	4548                	.insn	2, 0x4548
    41000e93:	4358                	.insn	2, 0x4358
    41000e95:	5045                	.insn	2, 0x5045
    41000e97:	305f 5f39 6968      	.insn	6, 0x69685f39305f
    41000e9d:	766e                	.insn	2, 0x766e
    41000e9f:	6c61                	.insn	2, 0x6c61
    41000ea1:	765f 6d76 5f61      	.insn	6, 0x5f616d76765f
    41000ea7:	7576                	.insn	2, 0x7576
	...

0000000041000eaa <dtest_name_11>:
    41000eaa:	5f444953          	.insn	4, 0x5f444953
    41000eae:	4548                	.insn	2, 0x4548
    41000eb0:	4358                	.insn	2, 0x4358
    41000eb2:	5045                	.insn	2, 0x5045
    41000eb4:	305f 5f39 6968      	.insn	6, 0x69685f39305f
    41000eba:	766e                	.insn	2, 0x766e
    41000ebc:	6c61                	.insn	2, 0x6c61
    41000ebe:	675f 6d76 5f61      	.insn	6, 0x5f616d76675f
    41000ec4:	7576                	.insn	2, 0x7576
	...

0000000041000ec7 <dtest_name_12>:
    41000ec7:	5f444953          	.insn	4, 0x5f444953
    41000ecb:	4548                	.insn	2, 0x4548
    41000ecd:	4358                	.insn	2, 0x4358
    41000ecf:	5045                	.insn	2, 0x5045
    41000ed1:	305f 5f39 6973      	.insn	6, 0x69735f39305f
    41000ed7:	766e                	.insn	2, 0x766e
    41000ed9:	6c61                	.insn	2, 0x6c61
    41000edb:	765f 616d 765f      	.insn	6, 0x765f616d765f
    41000ee1:	0075                	.insn	2, 0x0075

0000000041000ee3 <dtest_name_13>:
    41000ee3:	5f444953          	.insn	4, 0x5f444953
    41000ee7:	4548                	.insn	2, 0x4548
    41000ee9:	4358                	.insn	2, 0x4358
    41000eeb:	5045                	.insn	2, 0x5045
    41000eed:	315f 0031       	.insn	6, 0x49530031315f

0000000041000ef1 <dtest_name_14>:
    41000ef1:	5f444953          	.insn	4, 0x5f444953
    41000ef5:	4548                	.insn	2, 0x4548
    41000ef7:	4358                	.insn	2, 0x4358
    41000ef9:	5045                	.insn	2, 0x5045
    41000efb:	315f 5f36 7366      	.insn	6, 0x73665f36315f
    41000f01:	5f30                	.insn	2, 0x5f30
    41000f03:	6f62                	.insn	2, 0x6f62
    41000f05:	6874                	.insn	2, 0x6874
	...

0000000041000f08 <dtest_name_15>:
    41000f08:	5f444953          	.insn	4, 0x5f444953
    41000f0c:	4548                	.insn	2, 0x4548
    41000f0e:	4358                	.insn	2, 0x4358
    41000f10:	5045                	.insn	2, 0x5045
    41000f12:	315f 5f36 7376      	.insn	6, 0x73765f36315f
    41000f18:	74617473          	csrrci	x8,0x746,2
    41000f1c:	7375                	.insn	2, 0x7375
    41000f1e:	665f 3073       	.insn	6, 0x53003073665f

0000000041000f23 <dtest_name_16>:
    41000f23:	5f444953          	.insn	4, 0x5f444953
    41000f27:	4548                	.insn	2, 0x4548
    41000f29:	4358                	.insn	2, 0x4358
    41000f2b:	5045                	.insn	2, 0x5045
    41000f2d:	315f 5f36 7373      	.insn	6, 0x73735f36315f
    41000f33:	6174                	.insn	2, 0x6174
    41000f35:	7574                	.insn	2, 0x7574
    41000f37:	73665f73          	csrrwi	x30,mhpmevent22h,12
    41000f3b:	0030                	.insn	2, 0x0030

0000000041000f3d <dtest_name_17>:
    41000f3d:	5f444953          	.insn	4, 0x5f444953
    41000f41:	4548                	.insn	2, 0x4548
    41000f43:	4358                	.insn	2, 0x4358
    41000f45:	5045                	.insn	2, 0x5045
    41000f47:	315f 5f37 7376      	.insn	6, 0x73765f37315f
    41000f4d:	5f30                	.insn	2, 0x5f30
    41000f4f:	6f62                	.insn	2, 0x6f62
    41000f51:	6874                	.insn	2, 0x6874
	...

0000000041000f54 <dtest_name_18>:
    41000f54:	5f444953          	.insn	4, 0x5f444953
    41000f58:	4548                	.insn	2, 0x4548
    41000f5a:	4358                	.insn	2, 0x4358
    41000f5c:	5045                	.insn	2, 0x5045
    41000f5e:	315f 5f37 7376      	.insn	6, 0x73765f37315f
    41000f64:	74617473          	csrrci	x8,0x746,2
    41000f68:	7375                	.insn	2, 0x7375
    41000f6a:	765f 3073       	.insn	6, 0x53003073765f

0000000041000f6f <dtest_name_19>:
    41000f6f:	5f444953          	.insn	4, 0x5f444953
    41000f73:	4548                	.insn	2, 0x4548
    41000f75:	4358                	.insn	2, 0x4358
    41000f77:	5045                	.insn	2, 0x5045
    41000f79:	315f 5f37 7373      	.insn	6, 0x73735f37315f
    41000f7f:	6174                	.insn	2, 0x6174
    41000f81:	7574                	.insn	2, 0x7574
    41000f83:	73765f73          	csrrwi	x30,mhpmevent23h,12
    41000f87:	0030                	.insn	2, 0x0030

0000000041000f89 <dtest_name_20>:
    41000f89:	5f444953          	.insn	4, 0x5f444953
    41000f8d:	4548                	.insn	2, 0x4548
    41000f8f:	4358                	.insn	2, 0x4358
    41000f91:	5045                	.insn	2, 0x5045
    41000f93:	315f 5f39 696d      	.insn	6, 0x696d5f39315f
    41000f99:	696c6173          	csrrsi	x2,0x696,24
    41000f9d:	64656e67          	.insn	4, 0x64656e67
    41000fa1:	615f 6f6d       	.insn	6, 0x53006f6d615f

0000000041000fa6 <dtest_name_21>:
    41000fa6:	5f444953          	.insn	4, 0x5f444953
    41000faa:	4548                	.insn	2, 0x4548
    41000fac:	4358                	.insn	2, 0x4358
    41000fae:	5045                	.insn	2, 0x5045
    41000fb0:	315f 5f39 696d      	.insn	6, 0x696d5f39315f
    41000fb6:	696c6173          	csrrsi	x2,0x696,24
    41000fba:	64656e67          	.insn	4, 0x64656e67
    41000fbe:	6c5f 0072       	.insn	6, 0x495300726c5f

0000000041000fc2 <dtest_name_22>:
    41000fc2:	5f444953          	.insn	4, 0x5f444953
    41000fc6:	4548                	.insn	2, 0x4548
    41000fc8:	4358                	.insn	2, 0x4358
    41000fca:	5045                	.insn	2, 0x5045
    41000fcc:	315f 5f39 696d      	.insn	6, 0x696d5f39315f
    41000fd2:	696c6173          	csrrsi	x2,0x696,24
    41000fd6:	64656e67          	.insn	4, 0x64656e67
    41000fda:	735f 0063       	.insn	6, 0x49530063735f

0000000041000fde <dtest_name_23>:
    41000fde:	5f444953          	.insn	4, 0x5f444953
    41000fe2:	4548                	.insn	2, 0x4548
    41000fe4:	4358                	.insn	2, 0x4358
    41000fe6:	5045                	.insn	2, 0x5045
    41000fe8:	315f 5f39 696d      	.insn	6, 0x696d5f39315f
    41000fee:	696c6173          	csrrsi	x2,0x696,24
    41000ff2:	64656e67          	.insn	4, 0x64656e67
    41000ff6:	615f 6f6d 645f      	.insn	6, 0x645f6f6d615f
    41000ffc:	6c65                	.insn	2, 0x6c65
    41000ffe:	6765                	.insn	2, 0x6765
    41001000:	7461                	.insn	2, 0x7461
    41001002:	6465                	.insn	2, 0x6465
	...

0000000041001005 <dtest_name_24>:
    41001005:	5f444953          	.insn	4, 0x5f444953
    41001009:	4548                	.insn	2, 0x4548
    4100100b:	4358                	.insn	2, 0x4358
    4100100d:	5045                	.insn	2, 0x5045
    4100100f:	315f 5f39 696d      	.insn	6, 0x696d5f39315f
    41001015:	696c6173          	csrrsi	x2,0x696,24
    41001019:	64656e67          	.insn	4, 0x64656e67
    4100101d:	6c5f 5f72 6564      	.insn	6, 0x65645f726c5f
    41001023:	656c                	.insn	2, 0x656c
    41001025:	65746167          	.insn	4, 0x65746167
    41001029:	0064                	.insn	2, 0x0064

000000004100102b <dtest_name_25>:
    4100102b:	5f444953          	.insn	4, 0x5f444953
    4100102f:	4548                	.insn	2, 0x4548
    41001031:	4358                	.insn	2, 0x4358
    41001033:	5045                	.insn	2, 0x5045
    41001035:	315f 5f39 696d      	.insn	6, 0x696d5f39315f
    4100103b:	696c6173          	csrrsi	x2,0x696,24
    4100103f:	64656e67          	.insn	4, 0x64656e67
    41001043:	735f 5f63 6564      	.insn	6, 0x65645f63735f
    41001049:	656c                	.insn	2, 0x656c
    4100104b:	65746167          	.insn	4, 0x65746167
    4100104f:	0064                	.insn	2, 0x0064
    41001051:	0000                	.insn	2, 0x0000
	...

0000000041001054 <dtest_index_map>:
    41001054:	ffff                	.insn	2, 0xffff
    41001056:	ffff                	.insn	2, 0xffff
    41001058:	00000017          	auipc	x0,0x0
    4100105c:	0018                	.insn	2, 0x0018
    4100105e:	0000                	.insn	2, 0x0000
    41001060:	0000000b          	.insn	4, 0x000b
    41001064:	000a                	.insn	2, 0x000a
    41001066:	0000                	.insn	2, 0x0000
    41001068:	0016                	.insn	2, 0x0016
    4100106a:	0000                	.insn	2, 0x0000
    4100106c:	0001                	.insn	2, 0x0001
    4100106e:	0000                	.insn	2, 0x0000
    41001070:	0005                	.insn	2, 0x0005
    41001072:	0000                	.insn	2, 0x0000
    41001074:	0019                	.insn	2, 0x0019
    41001076:	0000                	.insn	2, 0x0000
    41001078:	00000013          	nop
    4100107c:	000d                	.insn	2, 0x000d
    4100107e:	0000                	.insn	2, 0x0000
    41001080:	0009                	.insn	2, 0x0009
    41001082:	0000                	.insn	2, 0x0000
    41001084:	0011                	.insn	2, 0x0011
    41001086:	0000                	.insn	2, 0x0000
    41001088:	0010                	.insn	2, 0x0010
    4100108a:	0000                	.insn	2, 0x0000
    4100108c:	0000                	.insn	2, 0x0000
    4100108e:	0000                	.insn	2, 0x0000
    41001090:	00000007          	vle8.v	v0,(x0),v0.t
    41001094:	0015                	.insn	2, 0x0015
    41001096:	0000                	.insn	2, 0x0000
    41001098:	0006                	.insn	2, 0x0006
    4100109a:	0000                	.insn	2, 0x0000
    4100109c:	000c                	.insn	2, 0x000c
    4100109e:	0000                	.insn	2, 0x0000
    410010a0:	0014                	.insn	2, 0x0014
    410010a2:	0000                	.insn	2, 0x0000
    410010a4:	000e                	.insn	2, 0x000e
    410010a6:	0000                	.insn	2, 0x0000
    410010a8:	0000000f          	fence	unknown,unknown
    410010ac:	00000003          	lb	x0,0(x0) # 0 <ALL_4KB_PAGES>
    410010b0:	0008                	.insn	2, 0x0008
    410010b2:	0000                	.insn	2, 0x0000
    410010b4:	0002                	.insn	2, 0x0002
    410010b6:	0000                	.insn	2, 0x0000
    410010b8:	0012                	.insn	2, 0x0012
    410010ba:	0000                	.insn	2, 0x0000
    410010bc:	0004                	.insn	2, 0x0004
    410010be:	0000                	.insn	2, 0x0000
    410010c0:	0000                	.insn	2, 0x0000
	...

00000000410010c4 <scheduler__test_setup_ptr>:
    410010c4:	5030                	.insn	2, 0x5030
    410010c6:	4101                	.insn	2, 0x4101
    410010c8:	0000                	.insn	2, 0x0000
	...

00000000410010cc <scheduler__test_cleanup_ptr>:
    410010cc:	c1a8                	.insn	2, 0xc1a8
    410010ce:	4101                	.insn	2, 0x4101
    410010d0:	0000                	.insn	2, 0x0000
	...

Disassembly of section .runtime_s:

0000000041011000 <trap_handler_s__invalid_interrupt>:
    41011000:	1740006f          	j	41011174 <trap_handler_s__test_failed>

0000000041011004 <trap_handler_s__clear_all_interrupts>:
    41011004:	14401073          	csrw	sip,x0
    41011008:	10200073          	sret

000000004101100c <trap_handler_s___CLEAR_SSI>:
    4101100c:	00200293          	li	x5,2
    41011010:	1442b073          	csrc	sip,x5
    41011014:	10200073          	sret

0000000041011018 <trap_handler_s___CLEAR_MSI>:
    41011018:	00800293          	li	x5,8
    4101101c:	1442b073          	csrc	sip,x5
    41011020:	10200073          	sret

0000000041011024 <trap_handler_s___CLEAR_STI>:
    41011024:	02000293          	li	x5,32
    41011028:	1442b073          	csrc	sip,x5
    4101102c:	10200073          	sret

0000000041011030 <trap_handler_s___CLEAR_MTI>:
    41011030:	08000293          	li	x5,128
    41011034:	1442b073          	csrc	sip,x5
    41011038:	10200073          	sret

000000004101103c <trap_handler_s___CLEAR_SEI>:
    4101103c:	20000293          	li	x5,512
    41011040:	1442b073          	csrc	sip,x5
    41011044:	10200073          	sret

0000000041011048 <trap_handler_s___CLEAR_MEI>:
    41011048:	000012b7          	lui	x5,0x1
    4101104c:	8002829b          	addiw	x5,x5,-2048 # 800 <XLEN+0x7c0>
    41011050:	1442b073          	csrc	sip,x5
    41011054:	10200073          	sret

0000000041011058 <trap_handler_s___CLEAR_COI>:
    41011058:	000022b7          	lui	x5,0x2
    4101105c:	1442b073          	csrc	sip,x5
    41011060:	10200073          	sret

0000000041011064 <trap_handler_s__clear_highest_priority_interrupt>:
    41011064:	144022f3          	csrr	x5,sip
    41011068:	40500333          	neg	x6,x5
    4101106c:	0062f2b3          	and	x5,x5,x6
    41011070:	1442b073          	csrc	sip,x5
    41011074:	10200073          	sret

0000000041011078 <trap_handler_s__trap_entry>:
    41011078:	10c0006f          	j	41011184 <trap_handler_s__trap_handler>

000000004101107c <trap_handler_s__interrupt_vector_table>:
    4101107c:	f91ff06f          	j	4101100c <trap_handler_s___CLEAR_SSI>
    41011080:	f81ff06f          	j	41011000 <trap_handler_s__invalid_interrupt>
    41011084:	f95ff06f          	j	41011018 <trap_handler_s___CLEAR_MSI>
    41011088:	f79ff06f          	j	41011000 <trap_handler_s__invalid_interrupt>
    4101108c:	f99ff06f          	j	41011024 <trap_handler_s___CLEAR_STI>
    41011090:	f71ff06f          	j	41011000 <trap_handler_s__invalid_interrupt>
    41011094:	f9dff06f          	j	41011030 <trap_handler_s___CLEAR_MTI>
    41011098:	f69ff06f          	j	41011000 <trap_handler_s__invalid_interrupt>
    4101109c:	fa1ff06f          	j	4101103c <trap_handler_s___CLEAR_SEI>
    410110a0:	f61ff06f          	j	41011000 <trap_handler_s__invalid_interrupt>
    410110a4:	fa5ff06f          	j	41011048 <trap_handler_s___CLEAR_MEI>
    410110a8:	f59ff06f          	j	41011000 <trap_handler_s__invalid_interrupt>
    410110ac:	fadff06f          	j	41011058 <trap_handler_s___CLEAR_COI>
    410110b0:	f51ff06f          	j	41011000 <trap_handler_s__invalid_interrupt>
    410110b4:	f4dff06f          	j	41011000 <trap_handler_s__invalid_interrupt>
    410110b8:	fadff06f          	j	41011064 <trap_handler_s__clear_highest_priority_interrupt>
    410110bc:	fa9ff06f          	j	41011064 <trap_handler_s__clear_highest_priority_interrupt>
    410110c0:	fa5ff06f          	j	41011064 <trap_handler_s__clear_highest_priority_interrupt>
    410110c4:	fa1ff06f          	j	41011064 <trap_handler_s__clear_highest_priority_interrupt>
    410110c8:	f9dff06f          	j	41011064 <trap_handler_s__clear_highest_priority_interrupt>
    410110cc:	f99ff06f          	j	41011064 <trap_handler_s__clear_highest_priority_interrupt>
    410110d0:	f95ff06f          	j	41011064 <trap_handler_s__clear_highest_priority_interrupt>
    410110d4:	f91ff06f          	j	41011064 <trap_handler_s__clear_highest_priority_interrupt>
    410110d8:	f8dff06f          	j	41011064 <trap_handler_s__clear_highest_priority_interrupt>
    410110dc:	f89ff06f          	j	41011064 <trap_handler_s__clear_highest_priority_interrupt>
    410110e0:	f85ff06f          	j	41011064 <trap_handler_s__clear_highest_priority_interrupt>
    410110e4:	f81ff06f          	j	41011064 <trap_handler_s__clear_highest_priority_interrupt>
    410110e8:	f7dff06f          	j	41011064 <trap_handler_s__clear_highest_priority_interrupt>
    410110ec:	f79ff06f          	j	41011064 <trap_handler_s__clear_highest_priority_interrupt>
    410110f0:	f75ff06f          	j	41011064 <trap_handler_s__clear_highest_priority_interrupt>
    410110f4:	f71ff06f          	j	41011064 <trap_handler_s__clear_highest_priority_interrupt>
    410110f8:	f6dff06f          	j	41011064 <trap_handler_s__clear_highest_priority_interrupt>
    410110fc:	f69ff06f          	j	41011064 <trap_handler_s__clear_highest_priority_interrupt>
    41011100:	f65ff06f          	j	41011064 <trap_handler_s__clear_highest_priority_interrupt>
    41011104:	f61ff06f          	j	41011064 <trap_handler_s__clear_highest_priority_interrupt>
    41011108:	f5dff06f          	j	41011064 <trap_handler_s__clear_highest_priority_interrupt>
    4101110c:	f59ff06f          	j	41011064 <trap_handler_s__clear_highest_priority_interrupt>
    41011110:	f55ff06f          	j	41011064 <trap_handler_s__clear_highest_priority_interrupt>
    41011114:	f51ff06f          	j	41011064 <trap_handler_s__clear_highest_priority_interrupt>
    41011118:	f4dff06f          	j	41011064 <trap_handler_s__clear_highest_priority_interrupt>
    4101111c:	f49ff06f          	j	41011064 <trap_handler_s__clear_highest_priority_interrupt>
    41011120:	f45ff06f          	j	41011064 <trap_handler_s__clear_highest_priority_interrupt>
    41011124:	f41ff06f          	j	41011064 <trap_handler_s__clear_highest_priority_interrupt>
    41011128:	f3dff06f          	j	41011064 <trap_handler_s__clear_highest_priority_interrupt>
    4101112c:	f39ff06f          	j	41011064 <trap_handler_s__clear_highest_priority_interrupt>
    41011130:	f35ff06f          	j	41011064 <trap_handler_s__clear_highest_priority_interrupt>
    41011134:	f31ff06f          	j	41011064 <trap_handler_s__clear_highest_priority_interrupt>
    41011138:	f2dff06f          	j	41011064 <trap_handler_s__clear_highest_priority_interrupt>
    4101113c:	f29ff06f          	j	41011064 <trap_handler_s__clear_highest_priority_interrupt>
    41011140:	f25ff06f          	j	41011064 <trap_handler_s__clear_highest_priority_interrupt>
    41011144:	f21ff06f          	j	41011064 <trap_handler_s__clear_highest_priority_interrupt>
    41011148:	f1dff06f          	j	41011064 <trap_handler_s__clear_highest_priority_interrupt>
    4101114c:	f19ff06f          	j	41011064 <trap_handler_s__clear_highest_priority_interrupt>
    41011150:	f15ff06f          	j	41011064 <trap_handler_s__clear_highest_priority_interrupt>
    41011154:	f11ff06f          	j	41011064 <trap_handler_s__clear_highest_priority_interrupt>
    41011158:	f0dff06f          	j	41011064 <trap_handler_s__clear_highest_priority_interrupt>
    4101115c:	f09ff06f          	j	41011064 <trap_handler_s__clear_highest_priority_interrupt>
    41011160:	f05ff06f          	j	41011064 <trap_handler_s__clear_highest_priority_interrupt>
    41011164:	f01ff06f          	j	41011064 <trap_handler_s__clear_highest_priority_interrupt>
    41011168:	efdff06f          	j	41011064 <trap_handler_s__clear_highest_priority_interrupt>
    4101116c:	ef9ff06f          	j	41011064 <trap_handler_s__clear_highest_priority_interrupt>
    41011170:	ef5ff06f          	j	41011064 <trap_handler_s__clear_highest_priority_interrupt>

0000000041011174 <trap_handler_s__test_failed>:
    41011174:	00f00f9b          	addiw	x31,x0,15
    41011178:	01cf9f93          	slli	x31,x31,0x1c
    4101117c:	002f8f93          	addi	x31,x31,2
    41011180:	00000073          	ecall

0000000041011184 <trap_handler_s__trap_handler>:
    41011184:	142022f3          	csrr	x5,scause
    41011188:	fff0031b          	addiw	x6,x0,-1
    4101118c:	03f31313          	slli	x6,x6,0x3f
    41011190:	00537333          	and	x6,x6,x5
    41011194:	02030263          	beqz	x6,410111b8 <trap_handler_s__exception_path>

0000000041011198 <trap_handler_s__interrupt_handler>:
    41011198:	fff0031b          	addiw	x6,x0,-1
    4101119c:	03f31313          	slli	x6,x6,0x3f
    410111a0:	0062c2b3          	xor	x5,x5,x6
    410111a4:	00000317          	auipc	x6,0x0
    410111a8:	ed430313          	addi	x6,x6,-300 # 41011078 <trap_handler_s__trap_entry>
    410111ac:	00229293          	slli	x5,x5,0x2
    410111b0:	005302b3          	add	x5,x6,x5
    410111b4:	00028067          	jr	x5 # 2000 <mem0>

00000000410111b8 <trap_handler_s__exception_path>:
    410111b8:	14021273          	csrrw	x4,sscratch,x4
    410111bc:	00000297          	auipc	x5,0x0
    410111c0:	0cc28293          	addi	x5,x5,204 # 41011288 <trap_handler_s__trap_panic>
    410111c4:	10529073          	csrw	stvec,x5
    410111c8:	0040006f          	j	410111cc <trap_handler_s__excp_entry>

00000000410111cc <trap_handler_s__excp_entry>:
    410111cc:	14202373          	csrr	x6,scause
    410111d0:	00800293          	li	x5,8
    410111d4:	00534863          	blt	x6,x5,410111e4 <trap_handler_s__check_exception_label>
    410111d8:	00b00293          	li	x5,11
    410111dc:	0062c463          	blt	x5,x6,410111e4 <trap_handler_s__check_exception_label>
    410111e0:	0a80006f          	j	41011288 <trap_handler_s__trap_panic>

00000000410111e4 <trap_handler_s__check_exception_label>:
    410111e4:	04623c23          	sd	x6,88(x4) # 58 <XLEN+0x18>
    410111e8:	141022f3          	csrr	x5,sepc
    410111ec:	02523423          	sd	x5,40(x4) # 28 <SECURE_ACCESS_PROBABILITY+0xa>
    410111f0:	01820283          	lb	x5,24(x4) # 18 <STORE_GUEST_PAGE_FAULT+0x1>
    410111f4:	00029863          	bnez	x5,41011204 <trap_handler_s__check_excp>
    410111f8:	00128293          	addi	x5,x5,1
    410111fc:	00520c23          	sb	x5,24(x4) # 18 <STORE_GUEST_PAGE_FAULT+0x1>
    41011200:	05c0006f          	j	4101125c <trap_handler_s__ecall_from_machine>

0000000041011204 <trap_handler_s__check_excp>:
    41011204:	06823283          	ld	x5,104(x4) # 68 <XLEN+0x28>
    41011208:	06023423          	sd	x0,104(x4) # 68 <XLEN+0x28>
    4101120c:	00028663          	beqz	x5,41011218 <trap_handler_s__skip_mode_check>
    41011210:	00300393          	li	x7,3
    41011214:	f67290e3          	bne	x5,x7,41011174 <trap_handler_s__test_failed>

0000000041011218 <trap_handler_s__skip_mode_check>:
    41011218:	05023283          	ld	x5,80(x4) # 50 <XLEN+0x10>
    4101121c:	04023823          	sd	x0,80(x4) # 50 <XLEN+0x10>
    41011220:	f4531ae3          	bne	x6,x5,41011174 <trap_handler_s__test_failed>
    41011224:	03823283          	ld	x5,56(x4) # 38 <SECURE_ACCESS_PROBABILITY+0x1a>
    41011228:	02023c23          	sd	x0,56(x4) # 38 <SECURE_ACCESS_PROBABILITY+0x1a>
    4101122c:	02029663          	bnez	x5,41011258 <trap_handler_s__skip_nonzero_tval_check>
    41011230:	02023303          	ld	x6,32(x4) # 20 <SECURE_ACCESS_PROBABILITY+0x2>
    41011234:	02023023          	sd	x0,32(x4) # 20 <SECURE_ACCESS_PROBABILITY+0x2>
    41011238:	02823283          	ld	x5,40(x4) # 28 <SECURE_ACCESS_PROBABILITY+0xa>
    4101123c:	02023423          	sd	x0,40(x4) # 28 <SECURE_ACCESS_PROBABILITY+0xa>
    41011240:	f2531ae3          	bne	x6,x5,41011174 <trap_handler_s__test_failed>
    41011244:	04023283          	ld	x5,64(x4) # 40 <XLEN>
    41011248:	04023023          	sd	x0,64(x4) # 40 <XLEN>
    4101124c:	00028663          	beqz	x5,41011258 <trap_handler_s__skip_nonzero_tval_check>

0000000041011250 <trap_handler_s__nonzero_tval_check>:
    41011250:	14302373          	csrr	x6,stval
    41011254:	f25310e3          	bne	x6,x5,41011174 <trap_handler_s__test_failed>

0000000041011258 <trap_handler_s__skip_nonzero_tval_check>:
    41011258:	0040006f          	j	4101125c <trap_handler_s__ecall_from_machine>

000000004101125c <trap_handler_s__ecall_from_machine>:
    4101125c:	03023283          	ld	x5,48(x4) # 30 <SECURE_ACCESS_PROBABILITY+0x12>
    41011260:	02023823          	sd	x0,48(x4) # 30 <SECURE_ACCESS_PROBABILITY+0x12>
    41011264:	07023303          	ld	x6,112(x4) # 70 <XLEN+0x30>
    41011268:	06023823          	sd	x0,112(x4) # 70 <XLEN+0x30>
    4101126c:	00031463          	bnez	x6,41011274 <trap_handler_s__skip_xepc_write>
    41011270:	14129073          	csrw	sepc,x5

0000000041011274 <trap_handler_s__skip_xepc_write>:
    41011274:	00000317          	auipc	x6,0x0
    41011278:	e0430313          	addi	x6,x6,-508 # 41011078 <trap_handler_s__trap_entry>
    4101127c:	10531073          	csrw	stvec,x6
    41011280:	14021273          	csrrw	x4,sscratch,x4
    41011284:	10200073          	sret

0000000041011288 <trap_handler_s__trap_panic>:
    41011288:	00000193          	li	x3,0
    4101128c:	00f00f9b          	addiw	x31,x0,15
    41011290:	01cf9f93          	slli	x31,x31,0x1c
    41011294:	002f8f93          	addi	x31,x31,2
    41011298:	00000073          	ecall

000000004101129c <trap_handler_hs__invalid_interrupt>:
    4101129c:	1740006f          	j	41011410 <trap_handler_hs__test_failed>

00000000410112a0 <trap_handler_hs__clear_all_interrupts>:
    410112a0:	14401073          	csrw	sip,x0
    410112a4:	10200073          	sret

00000000410112a8 <trap_handler_hs___CLEAR_SSI>:
    410112a8:	00200293          	li	x5,2
    410112ac:	1442b073          	csrc	sip,x5
    410112b0:	10200073          	sret

00000000410112b4 <trap_handler_hs___CLEAR_MSI>:
    410112b4:	00800293          	li	x5,8
    410112b8:	1442b073          	csrc	sip,x5
    410112bc:	10200073          	sret

00000000410112c0 <trap_handler_hs___CLEAR_STI>:
    410112c0:	02000293          	li	x5,32
    410112c4:	1442b073          	csrc	sip,x5
    410112c8:	10200073          	sret

00000000410112cc <trap_handler_hs___CLEAR_MTI>:
    410112cc:	08000293          	li	x5,128
    410112d0:	1442b073          	csrc	sip,x5
    410112d4:	10200073          	sret

00000000410112d8 <trap_handler_hs___CLEAR_SEI>:
    410112d8:	20000293          	li	x5,512
    410112dc:	1442b073          	csrc	sip,x5
    410112e0:	10200073          	sret

00000000410112e4 <trap_handler_hs___CLEAR_MEI>:
    410112e4:	000012b7          	lui	x5,0x1
    410112e8:	8002829b          	addiw	x5,x5,-2048 # 800 <XLEN+0x7c0>
    410112ec:	1442b073          	csrc	sip,x5
    410112f0:	10200073          	sret

00000000410112f4 <trap_handler_hs___CLEAR_COI>:
    410112f4:	000022b7          	lui	x5,0x2
    410112f8:	1442b073          	csrc	sip,x5
    410112fc:	10200073          	sret

0000000041011300 <trap_handler_hs__clear_highest_priority_interrupt>:
    41011300:	144022f3          	csrr	x5,sip
    41011304:	40500333          	neg	x6,x5
    41011308:	0062f2b3          	and	x5,x5,x6
    4101130c:	1442b073          	csrc	sip,x5
    41011310:	10200073          	sret

0000000041011314 <trap_handler_hs__trap_entry>:
    41011314:	10c0006f          	j	41011420 <trap_handler_hs__trap_handler>

0000000041011318 <trap_handler_hs__interrupt_vector_table>:
    41011318:	f91ff06f          	j	410112a8 <trap_handler_hs___CLEAR_SSI>
    4101131c:	f81ff06f          	j	4101129c <trap_handler_hs__invalid_interrupt>
    41011320:	f95ff06f          	j	410112b4 <trap_handler_hs___CLEAR_MSI>
    41011324:	f79ff06f          	j	4101129c <trap_handler_hs__invalid_interrupt>
    41011328:	f99ff06f          	j	410112c0 <trap_handler_hs___CLEAR_STI>
    4101132c:	f71ff06f          	j	4101129c <trap_handler_hs__invalid_interrupt>
    41011330:	f9dff06f          	j	410112cc <trap_handler_hs___CLEAR_MTI>
    41011334:	f69ff06f          	j	4101129c <trap_handler_hs__invalid_interrupt>
    41011338:	fa1ff06f          	j	410112d8 <trap_handler_hs___CLEAR_SEI>
    4101133c:	f61ff06f          	j	4101129c <trap_handler_hs__invalid_interrupt>
    41011340:	fa5ff06f          	j	410112e4 <trap_handler_hs___CLEAR_MEI>
    41011344:	f59ff06f          	j	4101129c <trap_handler_hs__invalid_interrupt>
    41011348:	fadff06f          	j	410112f4 <trap_handler_hs___CLEAR_COI>
    4101134c:	f51ff06f          	j	4101129c <trap_handler_hs__invalid_interrupt>
    41011350:	f4dff06f          	j	4101129c <trap_handler_hs__invalid_interrupt>
    41011354:	fadff06f          	j	41011300 <trap_handler_hs__clear_highest_priority_interrupt>
    41011358:	fa9ff06f          	j	41011300 <trap_handler_hs__clear_highest_priority_interrupt>
    4101135c:	fa5ff06f          	j	41011300 <trap_handler_hs__clear_highest_priority_interrupt>
    41011360:	fa1ff06f          	j	41011300 <trap_handler_hs__clear_highest_priority_interrupt>
    41011364:	f9dff06f          	j	41011300 <trap_handler_hs__clear_highest_priority_interrupt>
    41011368:	f99ff06f          	j	41011300 <trap_handler_hs__clear_highest_priority_interrupt>
    4101136c:	f95ff06f          	j	41011300 <trap_handler_hs__clear_highest_priority_interrupt>
    41011370:	f91ff06f          	j	41011300 <trap_handler_hs__clear_highest_priority_interrupt>
    41011374:	f8dff06f          	j	41011300 <trap_handler_hs__clear_highest_priority_interrupt>
    41011378:	f89ff06f          	j	41011300 <trap_handler_hs__clear_highest_priority_interrupt>
    4101137c:	f85ff06f          	j	41011300 <trap_handler_hs__clear_highest_priority_interrupt>
    41011380:	f81ff06f          	j	41011300 <trap_handler_hs__clear_highest_priority_interrupt>
    41011384:	f7dff06f          	j	41011300 <trap_handler_hs__clear_highest_priority_interrupt>
    41011388:	f79ff06f          	j	41011300 <trap_handler_hs__clear_highest_priority_interrupt>
    4101138c:	f75ff06f          	j	41011300 <trap_handler_hs__clear_highest_priority_interrupt>
    41011390:	f71ff06f          	j	41011300 <trap_handler_hs__clear_highest_priority_interrupt>
    41011394:	f6dff06f          	j	41011300 <trap_handler_hs__clear_highest_priority_interrupt>
    41011398:	f69ff06f          	j	41011300 <trap_handler_hs__clear_highest_priority_interrupt>
    4101139c:	f65ff06f          	j	41011300 <trap_handler_hs__clear_highest_priority_interrupt>
    410113a0:	f61ff06f          	j	41011300 <trap_handler_hs__clear_highest_priority_interrupt>
    410113a4:	f5dff06f          	j	41011300 <trap_handler_hs__clear_highest_priority_interrupt>
    410113a8:	f59ff06f          	j	41011300 <trap_handler_hs__clear_highest_priority_interrupt>
    410113ac:	f55ff06f          	j	41011300 <trap_handler_hs__clear_highest_priority_interrupt>
    410113b0:	f51ff06f          	j	41011300 <trap_handler_hs__clear_highest_priority_interrupt>
    410113b4:	f4dff06f          	j	41011300 <trap_handler_hs__clear_highest_priority_interrupt>
    410113b8:	f49ff06f          	j	41011300 <trap_handler_hs__clear_highest_priority_interrupt>
    410113bc:	f45ff06f          	j	41011300 <trap_handler_hs__clear_highest_priority_interrupt>
    410113c0:	f41ff06f          	j	41011300 <trap_handler_hs__clear_highest_priority_interrupt>
    410113c4:	f3dff06f          	j	41011300 <trap_handler_hs__clear_highest_priority_interrupt>
    410113c8:	f39ff06f          	j	41011300 <trap_handler_hs__clear_highest_priority_interrupt>
    410113cc:	f35ff06f          	j	41011300 <trap_handler_hs__clear_highest_priority_interrupt>
    410113d0:	f31ff06f          	j	41011300 <trap_handler_hs__clear_highest_priority_interrupt>
    410113d4:	f2dff06f          	j	41011300 <trap_handler_hs__clear_highest_priority_interrupt>
    410113d8:	f29ff06f          	j	41011300 <trap_handler_hs__clear_highest_priority_interrupt>
    410113dc:	f25ff06f          	j	41011300 <trap_handler_hs__clear_highest_priority_interrupt>
    410113e0:	f21ff06f          	j	41011300 <trap_handler_hs__clear_highest_priority_interrupt>
    410113e4:	f1dff06f          	j	41011300 <trap_handler_hs__clear_highest_priority_interrupt>
    410113e8:	f19ff06f          	j	41011300 <trap_handler_hs__clear_highest_priority_interrupt>
    410113ec:	f15ff06f          	j	41011300 <trap_handler_hs__clear_highest_priority_interrupt>
    410113f0:	f11ff06f          	j	41011300 <trap_handler_hs__clear_highest_priority_interrupt>
    410113f4:	f0dff06f          	j	41011300 <trap_handler_hs__clear_highest_priority_interrupt>
    410113f8:	f09ff06f          	j	41011300 <trap_handler_hs__clear_highest_priority_interrupt>
    410113fc:	f05ff06f          	j	41011300 <trap_handler_hs__clear_highest_priority_interrupt>
    41011400:	f01ff06f          	j	41011300 <trap_handler_hs__clear_highest_priority_interrupt>
    41011404:	efdff06f          	j	41011300 <trap_handler_hs__clear_highest_priority_interrupt>
    41011408:	ef9ff06f          	j	41011300 <trap_handler_hs__clear_highest_priority_interrupt>
    4101140c:	ef5ff06f          	j	41011300 <trap_handler_hs__clear_highest_priority_interrupt>

0000000041011410 <trap_handler_hs__test_failed>:
    41011410:	00f00f9b          	addiw	x31,x0,15
    41011414:	01cf9f93          	slli	x31,x31,0x1c
    41011418:	002f8f93          	addi	x31,x31,2
    4101141c:	00000073          	ecall

0000000041011420 <trap_handler_hs__trap_handler>:
    41011420:	142022f3          	csrr	x5,scause
    41011424:	fff0031b          	addiw	x6,x0,-1
    41011428:	03f31313          	slli	x6,x6,0x3f
    4101142c:	00537333          	and	x6,x6,x5
    41011430:	02030263          	beqz	x6,41011454 <trap_handler_hs__exception_path>

0000000041011434 <trap_handler_hs__interrupt_handler>:
    41011434:	fff0031b          	addiw	x6,x0,-1
    41011438:	03f31313          	slli	x6,x6,0x3f
    4101143c:	0062c2b3          	xor	x5,x5,x6
    41011440:	00000317          	auipc	x6,0x0
    41011444:	ed430313          	addi	x6,x6,-300 # 41011314 <trap_handler_hs__trap_entry>
    41011448:	00229293          	slli	x5,x5,0x2
    4101144c:	005302b3          	add	x5,x6,x5
    41011450:	00028067          	jr	x5 # 2000 <mem0>

0000000041011454 <trap_handler_hs__exception_path>:
    41011454:	14021273          	csrrw	x4,sscratch,x4
    41011458:	00000297          	auipc	x5,0x0
    4101145c:	10428293          	addi	x5,x5,260 # 4101155c <trap_handler_hs__trap_panic>
    41011460:	10529073          	csrw	stvec,x5
    41011464:	0040006f          	j	41011468 <trap_handler_hs__excp_entry>

0000000041011468 <trap_handler_hs__excp_entry>:
    41011468:	14202373          	csrr	x6,scause
    4101146c:	00800293          	li	x5,8
    41011470:	00534863          	blt	x6,x5,41011480 <trap_handler_hs__check_exception_label>
    41011474:	00b00293          	li	x5,11
    41011478:	0062c463          	blt	x5,x6,41011480 <trap_handler_hs__check_exception_label>
    4101147c:	0e00006f          	j	4101155c <trap_handler_hs__trap_panic>

0000000041011480 <trap_handler_hs__check_exception_label>:
    41011480:	04623c23          	sd	x6,88(x4) # 58 <XLEN+0x18>
    41011484:	141022f3          	csrr	x5,sepc
    41011488:	02523423          	sd	x5,40(x4) # 28 <SECURE_ACCESS_PROBABILITY+0xa>
    4101148c:	01820283          	lb	x5,24(x4) # 18 <STORE_GUEST_PAGE_FAULT+0x1>
    41011490:	00029863          	bnez	x5,410114a0 <trap_handler_hs__check_excp>
    41011494:	00128293          	addi	x5,x5,1
    41011498:	00520c23          	sb	x5,24(x4) # 18 <STORE_GUEST_PAGE_FAULT+0x1>
    4101149c:	0940006f          	j	41011530 <trap_handler_hs__ecall_from_machine>

00000000410114a0 <trap_handler_hs__check_excp>:
    410114a0:	06823283          	ld	x5,104(x4) # 68 <XLEN+0x28>
    410114a4:	06023423          	sd	x0,104(x4) # 68 <XLEN+0x28>
    410114a8:	00028663          	beqz	x5,410114b4 <trap_handler_hs__skip_mode_check>
    410114ac:	00200393          	li	x7,2
    410114b0:	f67290e3          	bne	x5,x7,41011410 <trap_handler_hs__test_failed>

00000000410114b4 <trap_handler_hs__skip_mode_check>:
    410114b4:	05023283          	ld	x5,80(x4) # 50 <XLEN+0x10>
    410114b8:	04023823          	sd	x0,80(x4) # 50 <XLEN+0x10>
    410114bc:	f4531ae3          	bne	x6,x5,41011410 <trap_handler_hs__test_failed>
    410114c0:	03823283          	ld	x5,56(x4) # 38 <SECURE_ACCESS_PROBABILITY+0x1a>
    410114c4:	02023c23          	sd	x0,56(x4) # 38 <SECURE_ACCESS_PROBABILITY+0x1a>
    410114c8:	06029263          	bnez	x5,4101152c <trap_handler_hs__skip_gva_check>
    410114cc:	02023303          	ld	x6,32(x4) # 20 <SECURE_ACCESS_PROBABILITY+0x2>
    410114d0:	02023023          	sd	x0,32(x4) # 20 <SECURE_ACCESS_PROBABILITY+0x2>
    410114d4:	02823283          	ld	x5,40(x4) # 28 <SECURE_ACCESS_PROBABILITY+0xa>
    410114d8:	02023423          	sd	x0,40(x4) # 28 <SECURE_ACCESS_PROBABILITY+0xa>
    410114dc:	f2531ae3          	bne	x6,x5,41011410 <trap_handler_hs__test_failed>
    410114e0:	04023283          	ld	x5,64(x4) # 40 <XLEN>
    410114e4:	04023023          	sd	x0,64(x4) # 40 <XLEN>
    410114e8:	00028663          	beqz	x5,410114f4 <trap_handler_hs__skip_nonzero_tval_check>

00000000410114ec <trap_handler_hs__nonzero_tval_check>:
    410114ec:	14302373          	csrr	x6,stval
    410114f0:	f25310e3          	bne	x6,x5,41011410 <trap_handler_hs__test_failed>

00000000410114f4 <trap_handler_hs__skip_nonzero_tval_check>:
    410114f4:	04823283          	ld	x5,72(x4) # 48 <XLEN+0x8>
    410114f8:	04023423          	sd	x0,72(x4) # 48 <XLEN+0x8>
    410114fc:	00028663          	beqz	x5,41011508 <trap_handler_hs__skip_nonzero_htval_check>

0000000041011500 <trap_handler_hs__nonzero_htval_check>:
    41011500:	64302373          	csrr	x6,htval
    41011504:	f05316e3          	bne	x6,x5,41011410 <trap_handler_hs__test_failed>

0000000041011508 <trap_handler_hs__skip_nonzero_htval_check>:
    41011508:	06023283          	ld	x5,96(x4) # 60 <XLEN+0x20>
    4101150c:	06023023          	sd	x0,96(x4) # 60 <XLEN+0x20>
    41011510:	00028e63          	beqz	x5,4101152c <trap_handler_hs__skip_gva_check>

0000000041011514 <trap_handler_hs__gva_check>:
    41011514:	60002373          	csrr	x6,hstatus
    41011518:	00635313          	srli	x6,x6,0x6
    4101151c:	00137313          	andi	x6,x6,1
    41011520:	ee0308e3          	beqz	x6,41011410 <trap_handler_hs__test_failed>
    41011524:	04000313          	li	x6,64
    41011528:	60033073          	csrc	hstatus,x6

000000004101152c <trap_handler_hs__skip_gva_check>:
    4101152c:	0040006f          	j	41011530 <trap_handler_hs__ecall_from_machine>

0000000041011530 <trap_handler_hs__ecall_from_machine>:
    41011530:	03023283          	ld	x5,48(x4) # 30 <SECURE_ACCESS_PROBABILITY+0x12>
    41011534:	02023823          	sd	x0,48(x4) # 30 <SECURE_ACCESS_PROBABILITY+0x12>
    41011538:	07023303          	ld	x6,112(x4) # 70 <XLEN+0x30>
    4101153c:	06023823          	sd	x0,112(x4) # 70 <XLEN+0x30>
    41011540:	00031463          	bnez	x6,41011548 <trap_handler_hs__skip_xepc_write>
    41011544:	14129073          	csrw	sepc,x5

0000000041011548 <trap_handler_hs__skip_xepc_write>:
    41011548:	00000317          	auipc	x6,0x0
    4101154c:	dcc30313          	addi	x6,x6,-564 # 41011314 <trap_handler_hs__trap_entry>
    41011550:	10531073          	csrw	stvec,x6
    41011554:	14021273          	csrrw	x4,sscratch,x4
    41011558:	10200073          	sret

000000004101155c <trap_handler_hs__trap_panic>:
    4101155c:	00000193          	li	x3,0
    41011560:	00f00f9b          	addiw	x31,x0,15
    41011564:	01cf9f93          	slli	x31,x31,0x1c
    41011568:	002f8f93          	addi	x31,x31,2
    4101156c:	00000073          	ecall

Disassembly of section .code:

0000000041015000 <passed>:
    41015000:	00f00f9b          	addiw	x31,x0,15
    41015004:	01cf9f93          	slli	x31,x31,0x1c
    41015008:	001f8f93          	addi	x31,x31,1
    4101500c:	00000073          	ecall

0000000041015010 <failed>:
    41015010:	00f00f9b          	addiw	x31,x0,15
    41015014:	01cf9f93          	slli	x31,x31,0x1c
    41015018:	002f8f93          	addi	x31,x31,2
    4101501c:	00000073          	ecall

0000000041015020 <end_test>:
    41015020:	00f00f9b          	addiw	x31,x0,15
    41015024:	01cf9f93          	slli	x31,x31,0x1c
    41015028:	003f8f93          	addi	x31,x31,3
    4101502c:	00000073          	ecall

0000000041015030 <test_setup>:
    41015030:	00f00f9b          	addiw	x31,x0,15
    41015034:	01cf9f93          	slli	x31,x31,0x1c
    41015038:	001f8f93          	addi	x31,x31,1
    4101503c:	00000073          	ecall

0000000041015040 <SID_HEXCEP_05>:
    41015040:	0000d137          	lui	x2,0xd
    41015044:	0049cfb7          	lui	x31,0x49c
    41015048:	ed7f8f9b          	addiw	x31,x31,-297 # 49bed7 <SID_HEXCEP_09_hinval_gvma_vu_stack+0x393ed7>
    4101504c:	00df9f93          	slli	x31,x31,0xd
    41015050:	0b0f8f93          	addi	x31,x31,176
    41015054:	00100f13          	li	x30,1
    41015058:	01efb023          	sd	x30,0(x31)
    4101505c:	000f0fb7          	lui	x31,0xf0
    41015060:	001f8f9b          	addiw	x31,x31,1 # f0001 <SID_HEXCEP_17_vsstatus_vs0_stack+0x7b001>
    41015064:	00cf9f93          	slli	x31,x31,0xc
    41015068:	005f8f93          	addi	x31,x31,5
    4101506c:	00000073          	ecall
    41015070:	00713023          	sd	x7,0(x2) # d000 <tp_csr_storage>
    41015074:	40a84137          	lui	x2,0x40a84
    41015078:	000012b7          	lui	x5,0x1
    4101507c:	00510133          	add	x2,x2,x5
    41015080:	ff017113          	andi	x2,x2,-16
    41015084:	001003b7          	lui	x7,0x100
    41015088:	0049cfb7          	lui	x31,0x49c
    4101508c:	ed7f8f9b          	addiw	x31,x31,-297 # 49bed7 <SID_HEXCEP_09_hinval_gvma_vu_stack+0x393ed7>
    41015090:	00df9f93          	slli	x31,x31,0xd
    41015094:	0b0f8f93          	addi	x31,x31,176
    41015098:	00200f13          	li	x30,2
    4101509c:	01efb023          	sd	x30,0(x31)
    410150a0:	000f0fb7          	lui	x31,0xf0
    410150a4:	001f8f9b          	addiw	x31,x31,1 # f0001 <SID_HEXCEP_17_vsstatus_vs0_stack+0x7b001>
    410150a8:	00cf9f93          	slli	x31,x31,0xc
    410150ac:	005f8f93          	addi	x31,x31,5
    410150b0:	00000073          	ecall
    410150b4:	00000513          	li	x10,0
    410150b8:	00018237          	lui	x4,0x18
    410150bc:	01600e13          	li	x28,22
    410150c0:	05c23823          	sd	x28,80(x4) # 18050 <check_excp_expected_cause>
    410150c4:	00000e17          	auipc	x28,0x0
    410150c8:	04ce0e13          	addi	x28,x28,76 # 41015110 <fault_label_0>
    410150cc:	03c23023          	sd	x28,32(x4) # 20 <SECURE_ACCESS_PROBABILITY+0x2>
    410150d0:	00000e13          	li	x28,0
    410150d4:	05c23023          	sd	x28,64(x4) # 40 <XLEN>
    410150d8:	00000e13          	li	x28,0
    410150dc:	05c23423          	sd	x28,72(x4) # 48 <XLEN+0x8>
    410150e0:	00000e17          	auipc	x28,0x0
    410150e4:	04ce0e13          	addi	x28,x28,76 # 4101512c <excp_return_label_0>
    410150e8:	03c23823          	sd	x28,48(x4) # 30 <SECURE_ACCESS_PROBABILITY+0x12>
    410150ec:	00000e13          	li	x28,0
    410150f0:	03c23c23          	sd	x28,56(x4) # 38 <SECURE_ACCESS_PROBABILITY+0x1a>
    410150f4:	00000e13          	li	x28,0
    410150f8:	07c23023          	sd	x28,96(x4) # 60 <XLEN+0x20>
    410150fc:	00000e13          	li	x28,0
    41015100:	07c23423          	sd	x28,104(x4) # 68 <XLEN+0x28>
    41015104:	00000e13          	li	x28,0
    41015108:	07c23823          	sd	x28,112(x4) # 70 <XLEN+0x30>
    4101510c:	00000813          	li	x16,0

0000000041015110 <fault_label_0>:
    41015110:	200825f3          	csrrs	x11,vsstatus,x16
    41015114:	0049ccb7          	lui	x25,0x49c
    41015118:	ed7c8c9b          	addiw	x25,x25,-297 # 49bed7 <SID_HEXCEP_09_hinval_gvma_vu_stack+0x393ed7>
    4101511c:	00dc9c93          	slli	x25,x25,0xd
    41015120:	008c8c93          	addi	x25,x25,8
    41015124:	000cbc83          	ld	x25,0(x25)
    41015128:	000c8067          	jr	x25

000000004101512c <excp_return_label_0>:
    4101512c:	00018237          	lui	x4,0x18
    41015130:	01600e13          	li	x28,22
    41015134:	05c23823          	sd	x28,80(x4) # 18050 <check_excp_expected_cause>
    41015138:	00000e17          	auipc	x28,0x0
    4101513c:	048e0e13          	addi	x28,x28,72 # 41015180 <fault_label_1>
    41015140:	03c23023          	sd	x28,32(x4) # 20 <SECURE_ACCESS_PROBABILITY+0x2>
    41015144:	00000e13          	li	x28,0
    41015148:	05c23023          	sd	x28,64(x4) # 40 <XLEN>
    4101514c:	00000e13          	li	x28,0
    41015150:	05c23423          	sd	x28,72(x4) # 48 <XLEN+0x8>
    41015154:	00000e17          	auipc	x28,0x0
    41015158:	048e0e13          	addi	x28,x28,72 # 4101519c <excp_return_label_1>
    4101515c:	03c23823          	sd	x28,48(x4) # 30 <SECURE_ACCESS_PROBABILITY+0x12>
    41015160:	00000e13          	li	x28,0
    41015164:	03c23c23          	sd	x28,56(x4) # 38 <SECURE_ACCESS_PROBABILITY+0x1a>
    41015168:	00000e13          	li	x28,0
    4101516c:	07c23023          	sd	x28,96(x4) # 60 <XLEN+0x20>
    41015170:	00000e13          	li	x28,0
    41015174:	07c23423          	sd	x28,104(x4) # 68 <XLEN+0x28>
    41015178:	00000e13          	li	x28,0
    4101517c:	07c23823          	sd	x28,112(x4) # 70 <XLEN+0x30>

0000000041015180 <fault_label_1>:
    41015180:	20051c73          	csrrw	x24,vsstatus,x10
    41015184:	0049cdb7          	lui	x27,0x49c
    41015188:	ed7d8d9b          	addiw	x27,x27,-297 # 49bed7 <SID_HEXCEP_09_hinval_gvma_vu_stack+0x393ed7>
    4101518c:	00dd9d93          	slli	x27,x27,0xd
    41015190:	008d8d93          	addi	x27,x27,8
    41015194:	000db803          	ld	x16,0(x27)
    41015198:	00080067          	jr	x16

000000004101519c <excp_return_label_1>:
    4101519c:	00018237          	lui	x4,0x18
    410151a0:	01600e13          	li	x28,22
    410151a4:	05c23823          	sd	x28,80(x4) # 18050 <check_excp_expected_cause>
    410151a8:	00000e17          	auipc	x28,0x0
    410151ac:	04ce0e13          	addi	x28,x28,76 # 410151f4 <fault_label_2>
    410151b0:	03c23023          	sd	x28,32(x4) # 20 <SECURE_ACCESS_PROBABILITY+0x2>
    410151b4:	00000e13          	li	x28,0
    410151b8:	05c23023          	sd	x28,64(x4) # 40 <XLEN>
    410151bc:	00000e13          	li	x28,0
    410151c0:	05c23423          	sd	x28,72(x4) # 48 <XLEN+0x8>
    410151c4:	00000e17          	auipc	x28,0x0
    410151c8:	04ce0e13          	addi	x28,x28,76 # 41015210 <excp_return_label_2>
    410151cc:	03c23823          	sd	x28,48(x4) # 30 <SECURE_ACCESS_PROBABILITY+0x12>
    410151d0:	00000e13          	li	x28,0
    410151d4:	03c23c23          	sd	x28,56(x4) # 38 <SECURE_ACCESS_PROBABILITY+0x1a>
    410151d8:	00000e13          	li	x28,0
    410151dc:	07c23023          	sd	x28,96(x4) # 60 <XLEN+0x20>
    410151e0:	00000e13          	li	x28,0
    410151e4:	07c23423          	sd	x28,104(x4) # 68 <XLEN+0x28>
    410151e8:	00000e13          	li	x28,0
    410151ec:	07c23823          	sd	x28,112(x4) # 70 <XLEN+0x30>
    410151f0:	00000b13          	li	x22,0

00000000410151f4 <fault_label_2>:
    410151f4:	244b27f3          	csrrs	x15,vsip,x22
    410151f8:	0049c637          	lui	x12,0x49c
    410151fc:	ed76061b          	addiw	x12,x12,-297 # 49bed7 <SID_HEXCEP_09_hinval_gvma_vu_stack+0x393ed7>
    41015200:	00d61613          	slli	x12,x12,0xd
    41015204:	00860613          	addi	x12,x12,8
    41015208:	00063f83          	ld	x31,0(x12)
    4101520c:	000f8067          	jr	x31

0000000041015210 <excp_return_label_2>:
    41015210:	00018237          	lui	x4,0x18
    41015214:	01600e13          	li	x28,22
    41015218:	05c23823          	sd	x28,80(x4) # 18050 <check_excp_expected_cause>
    4101521c:	00000e17          	auipc	x28,0x0
    41015220:	048e0e13          	addi	x28,x28,72 # 41015264 <fault_label_3>
    41015224:	03c23023          	sd	x28,32(x4) # 20 <SECURE_ACCESS_PROBABILITY+0x2>
    41015228:	00000e13          	li	x28,0
    4101522c:	05c23023          	sd	x28,64(x4) # 40 <XLEN>
    41015230:	00000e13          	li	x28,0
    41015234:	05c23423          	sd	x28,72(x4) # 48 <XLEN+0x8>
    41015238:	00000e17          	auipc	x28,0x0
    4101523c:	048e0e13          	addi	x28,x28,72 # 41015280 <excp_return_label_3>
    41015240:	03c23823          	sd	x28,48(x4) # 30 <SECURE_ACCESS_PROBABILITY+0x12>
    41015244:	00000e13          	li	x28,0
    41015248:	03c23c23          	sd	x28,56(x4) # 38 <SECURE_ACCESS_PROBABILITY+0x1a>
    4101524c:	00000e13          	li	x28,0
    41015250:	07c23023          	sd	x28,96(x4) # 60 <XLEN+0x20>
    41015254:	00000e13          	li	x28,0
    41015258:	07c23423          	sd	x28,104(x4) # 68 <XLEN+0x28>
    4101525c:	00000e13          	li	x28,0
    41015260:	07c23823          	sd	x28,112(x4) # 70 <XLEN+0x30>

0000000041015264 <fault_label_3>:
    41015264:	24451373          	csrrw	x6,vsip,x10
    41015268:	0049ceb7          	lui	x29,0x49c
    4101526c:	ed7e8e9b          	addiw	x29,x29,-297 # 49bed7 <SID_HEXCEP_09_hinval_gvma_vu_stack+0x393ed7>
    41015270:	00de9e93          	slli	x29,x29,0xd
    41015274:	008e8e93          	addi	x29,x29,8
    41015278:	000eb383          	ld	x7,0(x29)
    4101527c:	00038067          	jr	x7 # 100000 <SID_HEXCEP_17_vsstatus_vs0_stack+0x8b000>

0000000041015280 <excp_return_label_3>:
    41015280:	00018237          	lui	x4,0x18
    41015284:	01600e13          	li	x28,22
    41015288:	05c23823          	sd	x28,80(x4) # 18050 <check_excp_expected_cause>
    4101528c:	00000e17          	auipc	x28,0x0
    41015290:	04ce0e13          	addi	x28,x28,76 # 410152d8 <fault_label_4>
    41015294:	03c23023          	sd	x28,32(x4) # 20 <SECURE_ACCESS_PROBABILITY+0x2>
    41015298:	00000e13          	li	x28,0
    4101529c:	05c23023          	sd	x28,64(x4) # 40 <XLEN>
    410152a0:	00000e13          	li	x28,0
    410152a4:	05c23423          	sd	x28,72(x4) # 48 <XLEN+0x8>
    410152a8:	00000e17          	auipc	x28,0x0
    410152ac:	04ce0e13          	addi	x28,x28,76 # 410152f4 <excp_return_label_4>
    410152b0:	03c23823          	sd	x28,48(x4) # 30 <SECURE_ACCESS_PROBABILITY+0x12>
    410152b4:	00000e13          	li	x28,0
    410152b8:	03c23c23          	sd	x28,56(x4) # 38 <SECURE_ACCESS_PROBABILITY+0x1a>
    410152bc:	00000e13          	li	x28,0
    410152c0:	07c23023          	sd	x28,96(x4) # 60 <XLEN+0x20>
    410152c4:	00000e13          	li	x28,0
    410152c8:	07c23423          	sd	x28,104(x4) # 68 <XLEN+0x28>
    410152cc:	00000e13          	li	x28,0
    410152d0:	07c23823          	sd	x28,112(x4) # 70 <XLEN+0x30>
    410152d4:	00000793          	li	x15,0

00000000410152d8 <fault_label_4>:
    410152d8:	2047a7f3          	csrrs	x15,vsie,x15
    410152dc:	0049c7b7          	lui	x15,0x49c
    410152e0:	ed77879b          	addiw	x15,x15,-297 # 49bed7 <SID_HEXCEP_09_hinval_gvma_vu_stack+0x393ed7>
    410152e4:	00d79793          	slli	x15,x15,0xd
    410152e8:	00878793          	addi	x15,x15,8
    410152ec:	0007b403          	ld	x8,0(x15)
    410152f0:	00040067          	jr	x8

00000000410152f4 <excp_return_label_4>:
    410152f4:	00018237          	lui	x4,0x18
    410152f8:	01600e13          	li	x28,22
    410152fc:	05c23823          	sd	x28,80(x4) # 18050 <check_excp_expected_cause>
    41015300:	00000e17          	auipc	x28,0x0
    41015304:	048e0e13          	addi	x28,x28,72 # 41015348 <fault_label_5>
    41015308:	03c23023          	sd	x28,32(x4) # 20 <SECURE_ACCESS_PROBABILITY+0x2>
    4101530c:	00000e13          	li	x28,0
    41015310:	05c23023          	sd	x28,64(x4) # 40 <XLEN>
    41015314:	00000e13          	li	x28,0
    41015318:	05c23423          	sd	x28,72(x4) # 48 <XLEN+0x8>
    4101531c:	00000e17          	auipc	x28,0x0
    41015320:	048e0e13          	addi	x28,x28,72 # 41015364 <excp_return_label_5>
    41015324:	03c23823          	sd	x28,48(x4) # 30 <SECURE_ACCESS_PROBABILITY+0x12>
    41015328:	00000e13          	li	x28,0
    4101532c:	03c23c23          	sd	x28,56(x4) # 38 <SECURE_ACCESS_PROBABILITY+0x1a>
    41015330:	00000e13          	li	x28,0
    41015334:	07c23023          	sd	x28,96(x4) # 60 <XLEN+0x20>
    41015338:	00000e13          	li	x28,0
    4101533c:	07c23423          	sd	x28,104(x4) # 68 <XLEN+0x28>
    41015340:	00000e13          	li	x28,0
    41015344:	07c23823          	sd	x28,112(x4) # 70 <XLEN+0x30>

0000000041015348 <fault_label_5>:
    41015348:	204513f3          	csrrw	x7,vsie,x10
    4101534c:	0049cc37          	lui	x24,0x49c
    41015350:	ed7c0c1b          	addiw	x24,x24,-297 # 49bed7 <SID_HEXCEP_09_hinval_gvma_vu_stack+0x393ed7>
    41015354:	00dc1c13          	slli	x24,x24,0xd
    41015358:	008c0c13          	addi	x24,x24,8
    4101535c:	000c3b83          	ld	x23,0(x24)
    41015360:	000b8067          	jr	x23

0000000041015364 <excp_return_label_5>:
    41015364:	00018237          	lui	x4,0x18
    41015368:	01600e13          	li	x28,22
    4101536c:	05c23823          	sd	x28,80(x4) # 18050 <check_excp_expected_cause>
    41015370:	00000e17          	auipc	x28,0x0
    41015374:	04ce0e13          	addi	x28,x28,76 # 410153bc <fault_label_6>
    41015378:	03c23023          	sd	x28,32(x4) # 20 <SECURE_ACCESS_PROBABILITY+0x2>
    4101537c:	00000e13          	li	x28,0
    41015380:	05c23023          	sd	x28,64(x4) # 40 <XLEN>
    41015384:	00000e13          	li	x28,0
    41015388:	05c23423          	sd	x28,72(x4) # 48 <XLEN+0x8>
    4101538c:	00000e17          	auipc	x28,0x0
    41015390:	04ce0e13          	addi	x28,x28,76 # 410153d8 <excp_return_label_6>
    41015394:	03c23823          	sd	x28,48(x4) # 30 <SECURE_ACCESS_PROBABILITY+0x12>
    41015398:	00000e13          	li	x28,0
    4101539c:	03c23c23          	sd	x28,56(x4) # 38 <SECURE_ACCESS_PROBABILITY+0x1a>
    410153a0:	00000e13          	li	x28,0
    410153a4:	07c23023          	sd	x28,96(x4) # 60 <XLEN+0x20>
    410153a8:	00000e13          	li	x28,0
    410153ac:	07c23423          	sd	x28,104(x4) # 68 <XLEN+0x28>
    410153b0:	00000e13          	li	x28,0
    410153b4:	07c23823          	sd	x28,112(x4) # 70 <XLEN+0x30>
    410153b8:	00000c13          	li	x24,0

00000000410153bc <fault_label_6>:
    410153bc:	205c2af3          	csrrs	x21,vstvec,x24
    410153c0:	0049ceb7          	lui	x29,0x49c
    410153c4:	ed7e8e9b          	addiw	x29,x29,-297 # 49bed7 <SID_HEXCEP_09_hinval_gvma_vu_stack+0x393ed7>
    410153c8:	00de9e93          	slli	x29,x29,0xd
    410153cc:	008e8e93          	addi	x29,x29,8
    410153d0:	000eb883          	ld	x17,0(x29)
    410153d4:	00088067          	jr	x17

00000000410153d8 <excp_return_label_6>:
    410153d8:	00018237          	lui	x4,0x18
    410153dc:	01600e13          	li	x28,22
    410153e0:	05c23823          	sd	x28,80(x4) # 18050 <check_excp_expected_cause>
    410153e4:	00000e17          	auipc	x28,0x0
    410153e8:	048e0e13          	addi	x28,x28,72 # 4101542c <fault_label_7>
    410153ec:	03c23023          	sd	x28,32(x4) # 20 <SECURE_ACCESS_PROBABILITY+0x2>
    410153f0:	00000e13          	li	x28,0
    410153f4:	05c23023          	sd	x28,64(x4) # 40 <XLEN>
    410153f8:	00000e13          	li	x28,0
    410153fc:	05c23423          	sd	x28,72(x4) # 48 <XLEN+0x8>
    41015400:	00000e17          	auipc	x28,0x0
    41015404:	048e0e13          	addi	x28,x28,72 # 41015448 <excp_return_label_7>
    41015408:	03c23823          	sd	x28,48(x4) # 30 <SECURE_ACCESS_PROBABILITY+0x12>
    4101540c:	00000e13          	li	x28,0
    41015410:	03c23c23          	sd	x28,56(x4) # 38 <SECURE_ACCESS_PROBABILITY+0x1a>
    41015414:	00000e13          	li	x28,0
    41015418:	07c23023          	sd	x28,96(x4) # 60 <XLEN+0x20>
    4101541c:	00000e13          	li	x28,0
    41015420:	07c23423          	sd	x28,104(x4) # 68 <XLEN+0x28>
    41015424:	00000e13          	li	x28,0
    41015428:	07c23823          	sd	x28,112(x4) # 70 <XLEN+0x30>

000000004101542c <fault_label_7>:
    4101542c:	20551cf3          	csrrw	x25,vstvec,x10
    41015430:	0049c4b7          	lui	x9,0x49c
    41015434:	ed74849b          	addiw	x9,x9,-297 # 49bed7 <SID_HEXCEP_09_hinval_gvma_vu_stack+0x393ed7>
    41015438:	00d49493          	slli	x9,x9,0xd
    4101543c:	00848493          	addi	x9,x9,8
    41015440:	0004b683          	ld	x13,0(x9)
    41015444:	00068067          	jr	x13

0000000041015448 <excp_return_label_7>:
    41015448:	00018237          	lui	x4,0x18
    4101544c:	01600e13          	li	x28,22
    41015450:	05c23823          	sd	x28,80(x4) # 18050 <check_excp_expected_cause>
    41015454:	00000e17          	auipc	x28,0x0
    41015458:	04ce0e13          	addi	x28,x28,76 # 410154a0 <fault_label_8>
    4101545c:	03c23023          	sd	x28,32(x4) # 20 <SECURE_ACCESS_PROBABILITY+0x2>
    41015460:	00000e13          	li	x28,0
    41015464:	05c23023          	sd	x28,64(x4) # 40 <XLEN>
    41015468:	00000e13          	li	x28,0
    4101546c:	05c23423          	sd	x28,72(x4) # 48 <XLEN+0x8>
    41015470:	00000e17          	auipc	x28,0x0
    41015474:	04ce0e13          	addi	x28,x28,76 # 410154bc <excp_return_label_8>
    41015478:	03c23823          	sd	x28,48(x4) # 30 <SECURE_ACCESS_PROBABILITY+0x12>
    4101547c:	00000e13          	li	x28,0
    41015480:	03c23c23          	sd	x28,56(x4) # 38 <SECURE_ACCESS_PROBABILITY+0x1a>
    41015484:	00000e13          	li	x28,0
    41015488:	07c23023          	sd	x28,96(x4) # 60 <XLEN+0x20>
    4101548c:	00000e13          	li	x28,0
    41015490:	07c23423          	sd	x28,104(x4) # 68 <XLEN+0x28>
    41015494:	00000e13          	li	x28,0
    41015498:	07c23823          	sd	x28,112(x4) # 70 <XLEN+0x30>
    4101549c:	00000713          	li	x14,0

00000000410154a0 <fault_label_8>:
    410154a0:	240728f3          	csrrs	x17,vsscratch,x14
    410154a4:	0049cc37          	lui	x24,0x49c
    410154a8:	ed7c0c1b          	addiw	x24,x24,-297 # 49bed7 <SID_HEXCEP_09_hinval_gvma_vu_stack+0x393ed7>
    410154ac:	00dc1c13          	slli	x24,x24,0xd
    410154b0:	008c0c13          	addi	x24,x24,8
    410154b4:	000c3903          	ld	x18,0(x24)
    410154b8:	00090067          	jr	x18

00000000410154bc <excp_return_label_8>:
    410154bc:	00018237          	lui	x4,0x18
    410154c0:	01600e13          	li	x28,22
    410154c4:	05c23823          	sd	x28,80(x4) # 18050 <check_excp_expected_cause>
    410154c8:	00000e17          	auipc	x28,0x0
    410154cc:	048e0e13          	addi	x28,x28,72 # 41015510 <fault_label_9>
    410154d0:	03c23023          	sd	x28,32(x4) # 20 <SECURE_ACCESS_PROBABILITY+0x2>
    410154d4:	00000e13          	li	x28,0
    410154d8:	05c23023          	sd	x28,64(x4) # 40 <XLEN>
    410154dc:	00000e13          	li	x28,0
    410154e0:	05c23423          	sd	x28,72(x4) # 48 <XLEN+0x8>
    410154e4:	00000e17          	auipc	x28,0x0
    410154e8:	048e0e13          	addi	x28,x28,72 # 4101552c <excp_return_label_9>
    410154ec:	03c23823          	sd	x28,48(x4) # 30 <SECURE_ACCESS_PROBABILITY+0x12>
    410154f0:	00000e13          	li	x28,0
    410154f4:	03c23c23          	sd	x28,56(x4) # 38 <SECURE_ACCESS_PROBABILITY+0x1a>
    410154f8:	00000e13          	li	x28,0
    410154fc:	07c23023          	sd	x28,96(x4) # 60 <XLEN+0x20>
    41015500:	00000e13          	li	x28,0
    41015504:	07c23423          	sd	x28,104(x4) # 68 <XLEN+0x28>
    41015508:	00000e13          	li	x28,0
    4101550c:	07c23823          	sd	x28,112(x4) # 70 <XLEN+0x30>

0000000041015510 <fault_label_9>:
    41015510:	240517f3          	csrrw	x15,vsscratch,x10
    41015514:	0049c8b7          	lui	x17,0x49c
    41015518:	ed78889b          	addiw	x17,x17,-297 # 49bed7 <SID_HEXCEP_09_hinval_gvma_vu_stack+0x393ed7>
    4101551c:	00d89893          	slli	x17,x17,0xd
    41015520:	00888893          	addi	x17,x17,8
    41015524:	0008bd83          	ld	x27,0(x17)
    41015528:	000d8067          	jr	x27

000000004101552c <excp_return_label_9>:
    4101552c:	00018237          	lui	x4,0x18
    41015530:	01600e13          	li	x28,22
    41015534:	05c23823          	sd	x28,80(x4) # 18050 <check_excp_expected_cause>
    41015538:	00000e17          	auipc	x28,0x0
    4101553c:	04ce0e13          	addi	x28,x28,76 # 41015584 <fault_label_10>
    41015540:	03c23023          	sd	x28,32(x4) # 20 <SECURE_ACCESS_PROBABILITY+0x2>
    41015544:	00000e13          	li	x28,0
    41015548:	05c23023          	sd	x28,64(x4) # 40 <XLEN>
    4101554c:	00000e13          	li	x28,0
    41015550:	05c23423          	sd	x28,72(x4) # 48 <XLEN+0x8>
    41015554:	00000e17          	auipc	x28,0x0
    41015558:	04ce0e13          	addi	x28,x28,76 # 410155a0 <excp_return_label_10>
    4101555c:	03c23823          	sd	x28,48(x4) # 30 <SECURE_ACCESS_PROBABILITY+0x12>
    41015560:	00000e13          	li	x28,0
    41015564:	03c23c23          	sd	x28,56(x4) # 38 <SECURE_ACCESS_PROBABILITY+0x1a>
    41015568:	00000e13          	li	x28,0
    4101556c:	07c23023          	sd	x28,96(x4) # 60 <XLEN+0x20>
    41015570:	00000e13          	li	x28,0
    41015574:	07c23423          	sd	x28,104(x4) # 68 <XLEN+0x28>
    41015578:	00000e13          	li	x28,0
    4101557c:	07c23823          	sd	x28,112(x4) # 70 <XLEN+0x30>
    41015580:	00000b93          	li	x23,0

0000000041015584 <fault_label_10>:
    41015584:	241badf3          	csrrs	x27,vsepc,x23
    41015588:	0049c9b7          	lui	x19,0x49c
    4101558c:	ed79899b          	addiw	x19,x19,-297 # 49bed7 <SID_HEXCEP_09_hinval_gvma_vu_stack+0x393ed7>
    41015590:	00d99993          	slli	x19,x19,0xd
    41015594:	00898993          	addi	x19,x19,8
    41015598:	0009b683          	ld	x13,0(x19)
    4101559c:	00068067          	jr	x13

00000000410155a0 <excp_return_label_10>:
    410155a0:	00018237          	lui	x4,0x18
    410155a4:	01600e13          	li	x28,22
    410155a8:	05c23823          	sd	x28,80(x4) # 18050 <check_excp_expected_cause>
    410155ac:	00000e17          	auipc	x28,0x0
    410155b0:	048e0e13          	addi	x28,x28,72 # 410155f4 <fault_label_11>
    410155b4:	03c23023          	sd	x28,32(x4) # 20 <SECURE_ACCESS_PROBABILITY+0x2>
    410155b8:	00000e13          	li	x28,0
    410155bc:	05c23023          	sd	x28,64(x4) # 40 <XLEN>
    410155c0:	00000e13          	li	x28,0
    410155c4:	05c23423          	sd	x28,72(x4) # 48 <XLEN+0x8>
    410155c8:	00000e17          	auipc	x28,0x0
    410155cc:	048e0e13          	addi	x28,x28,72 # 41015610 <excp_return_label_11>
    410155d0:	03c23823          	sd	x28,48(x4) # 30 <SECURE_ACCESS_PROBABILITY+0x12>
    410155d4:	00000e13          	li	x28,0
    410155d8:	03c23c23          	sd	x28,56(x4) # 38 <SECURE_ACCESS_PROBABILITY+0x1a>
    410155dc:	00000e13          	li	x28,0
    410155e0:	07c23023          	sd	x28,96(x4) # 60 <XLEN+0x20>
    410155e4:	00000e13          	li	x28,0
    410155e8:	07c23423          	sd	x28,104(x4) # 68 <XLEN+0x28>
    410155ec:	00000e13          	li	x28,0
    410155f0:	07c23823          	sd	x28,112(x4) # 70 <XLEN+0x30>

00000000410155f4 <fault_label_11>:
    410155f4:	24151673          	csrrw	x12,vsepc,x10
    410155f8:	0049c637          	lui	x12,0x49c
    410155fc:	ed76061b          	addiw	x12,x12,-297 # 49bed7 <SID_HEXCEP_09_hinval_gvma_vu_stack+0x393ed7>
    41015600:	00d61613          	slli	x12,x12,0xd
    41015604:	00860613          	addi	x12,x12,8
    41015608:	00063483          	ld	x9,0(x12)
    4101560c:	00048067          	jr	x9

0000000041015610 <excp_return_label_11>:
    41015610:	00018237          	lui	x4,0x18
    41015614:	01600e13          	li	x28,22
    41015618:	05c23823          	sd	x28,80(x4) # 18050 <check_excp_expected_cause>
    4101561c:	00000e17          	auipc	x28,0x0
    41015620:	04ce0e13          	addi	x28,x28,76 # 41015668 <fault_label_12>
    41015624:	03c23023          	sd	x28,32(x4) # 20 <SECURE_ACCESS_PROBABILITY+0x2>
    41015628:	00000e13          	li	x28,0
    4101562c:	05c23023          	sd	x28,64(x4) # 40 <XLEN>
    41015630:	00000e13          	li	x28,0
    41015634:	05c23423          	sd	x28,72(x4) # 48 <XLEN+0x8>
    41015638:	00000e17          	auipc	x28,0x0
    4101563c:	04ce0e13          	addi	x28,x28,76 # 41015684 <excp_return_label_12>
    41015640:	03c23823          	sd	x28,48(x4) # 30 <SECURE_ACCESS_PROBABILITY+0x12>
    41015644:	00000e13          	li	x28,0
    41015648:	03c23c23          	sd	x28,56(x4) # 38 <SECURE_ACCESS_PROBABILITY+0x1a>
    4101564c:	00000e13          	li	x28,0
    41015650:	07c23023          	sd	x28,96(x4) # 60 <XLEN+0x20>
    41015654:	00000e13          	li	x28,0
    41015658:	07c23423          	sd	x28,104(x4) # 68 <XLEN+0x28>
    4101565c:	00000e13          	li	x28,0
    41015660:	07c23823          	sd	x28,112(x4) # 70 <XLEN+0x30>
    41015664:	00000c13          	li	x24,0

0000000041015668 <fault_label_12>:
    41015668:	242c28f3          	csrrs	x17,vscause,x24
    4101566c:	0049cfb7          	lui	x31,0x49c
    41015670:	ed7f8f9b          	addiw	x31,x31,-297 # 49bed7 <SID_HEXCEP_09_hinval_gvma_vu_stack+0x393ed7>
    41015674:	00df9f93          	slli	x31,x31,0xd
    41015678:	008f8f93          	addi	x31,x31,8
    4101567c:	000fbe83          	ld	x29,0(x31)
    41015680:	000e8067          	jr	x29

0000000041015684 <excp_return_label_12>:
    41015684:	00018237          	lui	x4,0x18
    41015688:	01600e13          	li	x28,22
    4101568c:	05c23823          	sd	x28,80(x4) # 18050 <check_excp_expected_cause>
    41015690:	00000e17          	auipc	x28,0x0
    41015694:	048e0e13          	addi	x28,x28,72 # 410156d8 <fault_label_13>
    41015698:	03c23023          	sd	x28,32(x4) # 20 <SECURE_ACCESS_PROBABILITY+0x2>
    4101569c:	00000e13          	li	x28,0
    410156a0:	05c23023          	sd	x28,64(x4) # 40 <XLEN>
    410156a4:	00000e13          	li	x28,0
    410156a8:	05c23423          	sd	x28,72(x4) # 48 <XLEN+0x8>
    410156ac:	00000e17          	auipc	x28,0x0
    410156b0:	048e0e13          	addi	x28,x28,72 # 410156f4 <excp_return_label_13>
    410156b4:	03c23823          	sd	x28,48(x4) # 30 <SECURE_ACCESS_PROBABILITY+0x12>
    410156b8:	00000e13          	li	x28,0
    410156bc:	03c23c23          	sd	x28,56(x4) # 38 <SECURE_ACCESS_PROBABILITY+0x1a>
    410156c0:	00000e13          	li	x28,0
    410156c4:	07c23023          	sd	x28,96(x4) # 60 <XLEN+0x20>
    410156c8:	00000e13          	li	x28,0
    410156cc:	07c23423          	sd	x28,104(x4) # 68 <XLEN+0x28>
    410156d0:	00000e13          	li	x28,0
    410156d4:	07c23823          	sd	x28,112(x4) # 70 <XLEN+0x30>

00000000410156d8 <fault_label_13>:
    410156d8:	24251373          	csrrw	x6,vscause,x10
    410156dc:	0049c8b7          	lui	x17,0x49c
    410156e0:	ed78889b          	addiw	x17,x17,-297 # 49bed7 <SID_HEXCEP_09_hinval_gvma_vu_stack+0x393ed7>
    410156e4:	00d89893          	slli	x17,x17,0xd
    410156e8:	00888893          	addi	x17,x17,8
    410156ec:	0008b403          	ld	x8,0(x17)
    410156f0:	00040067          	jr	x8

00000000410156f4 <excp_return_label_13>:
    410156f4:	00018237          	lui	x4,0x18
    410156f8:	01600e13          	li	x28,22
    410156fc:	05c23823          	sd	x28,80(x4) # 18050 <check_excp_expected_cause>
    41015700:	00000e17          	auipc	x28,0x0
    41015704:	04ce0e13          	addi	x28,x28,76 # 4101574c <fault_label_14>
    41015708:	03c23023          	sd	x28,32(x4) # 20 <SECURE_ACCESS_PROBABILITY+0x2>
    4101570c:	00000e13          	li	x28,0
    41015710:	05c23023          	sd	x28,64(x4) # 40 <XLEN>
    41015714:	00000e13          	li	x28,0
    41015718:	05c23423          	sd	x28,72(x4) # 48 <XLEN+0x8>
    4101571c:	00000e17          	auipc	x28,0x0
    41015720:	04ce0e13          	addi	x28,x28,76 # 41015768 <excp_return_label_14>
    41015724:	03c23823          	sd	x28,48(x4) # 30 <SECURE_ACCESS_PROBABILITY+0x12>
    41015728:	00000e13          	li	x28,0
    4101572c:	03c23c23          	sd	x28,56(x4) # 38 <SECURE_ACCESS_PROBABILITY+0x1a>
    41015730:	00000e13          	li	x28,0
    41015734:	07c23023          	sd	x28,96(x4) # 60 <XLEN+0x20>
    41015738:	00000e13          	li	x28,0
    4101573c:	07c23423          	sd	x28,104(x4) # 68 <XLEN+0x28>
    41015740:	00000e13          	li	x28,0
    41015744:	07c23823          	sd	x28,112(x4) # 70 <XLEN+0x30>
    41015748:	00000413          	li	x8,0

000000004101574c <fault_label_14>:
    4101574c:	24342df3          	csrrs	x27,vstval,x8
    41015750:	0049ccb7          	lui	x25,0x49c
    41015754:	ed7c8c9b          	addiw	x25,x25,-297 # 49bed7 <SID_HEXCEP_09_hinval_gvma_vu_stack+0x393ed7>
    41015758:	00dc9c93          	slli	x25,x25,0xd
    4101575c:	008c8c93          	addi	x25,x25,8
    41015760:	000cba03          	ld	x20,0(x25)
    41015764:	000a0067          	jr	x20

0000000041015768 <excp_return_label_14>:
    41015768:	00018237          	lui	x4,0x18
    4101576c:	01600e13          	li	x28,22
    41015770:	05c23823          	sd	x28,80(x4) # 18050 <check_excp_expected_cause>
    41015774:	00000e17          	auipc	x28,0x0
    41015778:	048e0e13          	addi	x28,x28,72 # 410157bc <fault_label_15>
    4101577c:	03c23023          	sd	x28,32(x4) # 20 <SECURE_ACCESS_PROBABILITY+0x2>
    41015780:	00000e13          	li	x28,0
    41015784:	05c23023          	sd	x28,64(x4) # 40 <XLEN>
    41015788:	00000e13          	li	x28,0
    4101578c:	05c23423          	sd	x28,72(x4) # 48 <XLEN+0x8>
    41015790:	00000e17          	auipc	x28,0x0
    41015794:	048e0e13          	addi	x28,x28,72 # 410157d8 <excp_return_label_15>
    41015798:	03c23823          	sd	x28,48(x4) # 30 <SECURE_ACCESS_PROBABILITY+0x12>
    4101579c:	00000e13          	li	x28,0
    410157a0:	03c23c23          	sd	x28,56(x4) # 38 <SECURE_ACCESS_PROBABILITY+0x1a>
    410157a4:	00000e13          	li	x28,0
    410157a8:	07c23023          	sd	x28,96(x4) # 60 <XLEN+0x20>
    410157ac:	00000e13          	li	x28,0
    410157b0:	07c23423          	sd	x28,104(x4) # 68 <XLEN+0x28>
    410157b4:	00000e13          	li	x28,0
    410157b8:	07c23823          	sd	x28,112(x4) # 70 <XLEN+0x30>

00000000410157bc <fault_label_15>:
    410157bc:	243516f3          	csrrw	x13,vstval,x10
    410157c0:	0049ceb7          	lui	x29,0x49c
    410157c4:	ed7e8e9b          	addiw	x29,x29,-297 # 49bed7 <SID_HEXCEP_09_hinval_gvma_vu_stack+0x393ed7>
    410157c8:	00de9e93          	slli	x29,x29,0xd
    410157cc:	008e8e93          	addi	x29,x29,8
    410157d0:	000ebd83          	ld	x27,0(x29)
    410157d4:	000d8067          	jr	x27

00000000410157d8 <excp_return_label_15>:
    410157d8:	00018237          	lui	x4,0x18
    410157dc:	01600e13          	li	x28,22
    410157e0:	05c23823          	sd	x28,80(x4) # 18050 <check_excp_expected_cause>
    410157e4:	00000e17          	auipc	x28,0x0
    410157e8:	04ce0e13          	addi	x28,x28,76 # 41015830 <fault_label_16>
    410157ec:	03c23023          	sd	x28,32(x4) # 20 <SECURE_ACCESS_PROBABILITY+0x2>
    410157f0:	00000e13          	li	x28,0
    410157f4:	05c23023          	sd	x28,64(x4) # 40 <XLEN>
    410157f8:	00000e13          	li	x28,0
    410157fc:	05c23423          	sd	x28,72(x4) # 48 <XLEN+0x8>
    41015800:	00000e17          	auipc	x28,0x0
    41015804:	04ce0e13          	addi	x28,x28,76 # 4101584c <excp_return_label_16>
    41015808:	03c23823          	sd	x28,48(x4) # 30 <SECURE_ACCESS_PROBABILITY+0x12>
    4101580c:	00000e13          	li	x28,0
    41015810:	03c23c23          	sd	x28,56(x4) # 38 <SECURE_ACCESS_PROBABILITY+0x1a>
    41015814:	00000e13          	li	x28,0
    41015818:	07c23023          	sd	x28,96(x4) # 60 <XLEN+0x20>
    4101581c:	00000e13          	li	x28,0
    41015820:	07c23423          	sd	x28,104(x4) # 68 <XLEN+0x28>
    41015824:	00000e13          	li	x28,0
    41015828:	07c23823          	sd	x28,112(x4) # 70 <XLEN+0x30>
    4101582c:	00000593          	li	x11,0

0000000041015830 <fault_label_16>:
    41015830:	2805a3f3          	csrrs	x7,vsatp,x11
    41015834:	0049c6b7          	lui	x13,0x49c
    41015838:	ed76869b          	addiw	x13,x13,-297 # 49bed7 <SID_HEXCEP_09_hinval_gvma_vu_stack+0x393ed7>
    4101583c:	00d69693          	slli	x13,x13,0xd
    41015840:	00868693          	addi	x13,x13,8
    41015844:	0006b383          	ld	x7,0(x13)
    41015848:	00038067          	jr	x7

000000004101584c <excp_return_label_16>:
    4101584c:	00018237          	lui	x4,0x18
    41015850:	01600e13          	li	x28,22
    41015854:	05c23823          	sd	x28,80(x4) # 18050 <check_excp_expected_cause>
    41015858:	00000e17          	auipc	x28,0x0
    4101585c:	048e0e13          	addi	x28,x28,72 # 410158a0 <fault_label_17>
    41015860:	03c23023          	sd	x28,32(x4) # 20 <SECURE_ACCESS_PROBABILITY+0x2>
    41015864:	00000e13          	li	x28,0
    41015868:	05c23023          	sd	x28,64(x4) # 40 <XLEN>
    4101586c:	00000e13          	li	x28,0
    41015870:	05c23423          	sd	x28,72(x4) # 48 <XLEN+0x8>
    41015874:	00000e17          	auipc	x28,0x0
    41015878:	048e0e13          	addi	x28,x28,72 # 410158bc <excp_return_label_17>
    4101587c:	03c23823          	sd	x28,48(x4) # 30 <SECURE_ACCESS_PROBABILITY+0x12>
    41015880:	00000e13          	li	x28,0
    41015884:	03c23c23          	sd	x28,56(x4) # 38 <SECURE_ACCESS_PROBABILITY+0x1a>
    41015888:	00000e13          	li	x28,0
    4101588c:	07c23023          	sd	x28,96(x4) # 60 <XLEN+0x20>
    41015890:	00000e13          	li	x28,0
    41015894:	07c23423          	sd	x28,104(x4) # 68 <XLEN+0x28>
    41015898:	00000e13          	li	x28,0
    4101589c:	07c23823          	sd	x28,112(x4) # 70 <XLEN+0x30>

00000000410158a0 <fault_label_17>:
    410158a0:	28051bf3          	csrrw	x23,vsatp,x10
    410158a4:	0049c837          	lui	x16,0x49c
    410158a8:	ed78081b          	addiw	x16,x16,-297 # 49bed7 <SID_HEXCEP_09_hinval_gvma_vu_stack+0x393ed7>
    410158ac:	00d81813          	slli	x16,x16,0xd
    410158b0:	00880813          	addi	x16,x16,8
    410158b4:	00083b83          	ld	x23,0(x16)
    410158b8:	000b8067          	jr	x23

00000000410158bc <excp_return_label_17>:
    410158bc:	00018237          	lui	x4,0x18
    410158c0:	01600e13          	li	x28,22
    410158c4:	05c23823          	sd	x28,80(x4) # 18050 <check_excp_expected_cause>
    410158c8:	00000e17          	auipc	x28,0x0
    410158cc:	04ce0e13          	addi	x28,x28,76 # 41015914 <fault_label_18>
    410158d0:	03c23023          	sd	x28,32(x4) # 20 <SECURE_ACCESS_PROBABILITY+0x2>
    410158d4:	00000e13          	li	x28,0
    410158d8:	05c23023          	sd	x28,64(x4) # 40 <XLEN>
    410158dc:	00000e13          	li	x28,0
    410158e0:	05c23423          	sd	x28,72(x4) # 48 <XLEN+0x8>
    410158e4:	00000e17          	auipc	x28,0x0
    410158e8:	04ce0e13          	addi	x28,x28,76 # 41015930 <excp_return_label_18>
    410158ec:	03c23823          	sd	x28,48(x4) # 30 <SECURE_ACCESS_PROBABILITY+0x12>
    410158f0:	00000e13          	li	x28,0
    410158f4:	03c23c23          	sd	x28,56(x4) # 38 <SECURE_ACCESS_PROBABILITY+0x1a>
    410158f8:	00000e13          	li	x28,0
    410158fc:	07c23023          	sd	x28,96(x4) # 60 <XLEN+0x20>
    41015900:	00000e13          	li	x28,0
    41015904:	07c23423          	sd	x28,104(x4) # 68 <XLEN+0x28>
    41015908:	00000e13          	li	x28,0
    4101590c:	07c23823          	sd	x28,112(x4) # 70 <XLEN+0x30>
    41015910:	00000493          	li	x9,0

0000000041015914 <fault_label_18>:
    41015914:	6004abf3          	csrrs	x23,hstatus,x9
    41015918:	0049c837          	lui	x16,0x49c
    4101591c:	ed78081b          	addiw	x16,x16,-297 # 49bed7 <SID_HEXCEP_09_hinval_gvma_vu_stack+0x393ed7>
    41015920:	00d81813          	slli	x16,x16,0xd
    41015924:	00880813          	addi	x16,x16,8
    41015928:	00083a03          	ld	x20,0(x16)
    4101592c:	000a0067          	jr	x20

0000000041015930 <excp_return_label_18>:
    41015930:	00018237          	lui	x4,0x18
    41015934:	01600e13          	li	x28,22
    41015938:	05c23823          	sd	x28,80(x4) # 18050 <check_excp_expected_cause>
    4101593c:	00000e17          	auipc	x28,0x0
    41015940:	048e0e13          	addi	x28,x28,72 # 41015984 <fault_label_19>
    41015944:	03c23023          	sd	x28,32(x4) # 20 <SECURE_ACCESS_PROBABILITY+0x2>
    41015948:	00000e13          	li	x28,0
    4101594c:	05c23023          	sd	x28,64(x4) # 40 <XLEN>
    41015950:	00000e13          	li	x28,0
    41015954:	05c23423          	sd	x28,72(x4) # 48 <XLEN+0x8>
    41015958:	00000e17          	auipc	x28,0x0
    4101595c:	048e0e13          	addi	x28,x28,72 # 410159a0 <excp_return_label_19>
    41015960:	03c23823          	sd	x28,48(x4) # 30 <SECURE_ACCESS_PROBABILITY+0x12>
    41015964:	00000e13          	li	x28,0
    41015968:	03c23c23          	sd	x28,56(x4) # 38 <SECURE_ACCESS_PROBABILITY+0x1a>
    4101596c:	00000e13          	li	x28,0
    41015970:	07c23023          	sd	x28,96(x4) # 60 <XLEN+0x20>
    41015974:	00000e13          	li	x28,0
    41015978:	07c23423          	sd	x28,104(x4) # 68 <XLEN+0x28>
    4101597c:	00000e13          	li	x28,0
    41015980:	07c23823          	sd	x28,112(x4) # 70 <XLEN+0x30>

0000000041015984 <fault_label_19>:
    41015984:	600518f3          	csrrw	x17,hstatus,x10
    41015988:	0049cdb7          	lui	x27,0x49c
    4101598c:	ed7d8d9b          	addiw	x27,x27,-297 # 49bed7 <SID_HEXCEP_09_hinval_gvma_vu_stack+0x393ed7>
    41015990:	00dd9d93          	slli	x27,x27,0xd
    41015994:	008d8d93          	addi	x27,x27,8
    41015998:	000db803          	ld	x16,0(x27)
    4101599c:	00080067          	jr	x16

00000000410159a0 <excp_return_label_19>:
    410159a0:	00018237          	lui	x4,0x18
    410159a4:	01600e13          	li	x28,22
    410159a8:	05c23823          	sd	x28,80(x4) # 18050 <check_excp_expected_cause>
    410159ac:	00000e17          	auipc	x28,0x0
    410159b0:	04ce0e13          	addi	x28,x28,76 # 410159f8 <fault_label_20>
    410159b4:	03c23023          	sd	x28,32(x4) # 20 <SECURE_ACCESS_PROBABILITY+0x2>
    410159b8:	00000e13          	li	x28,0
    410159bc:	05c23023          	sd	x28,64(x4) # 40 <XLEN>
    410159c0:	00000e13          	li	x28,0
    410159c4:	05c23423          	sd	x28,72(x4) # 48 <XLEN+0x8>
    410159c8:	00000e17          	auipc	x28,0x0
    410159cc:	04ce0e13          	addi	x28,x28,76 # 41015a14 <excp_return_label_20>
    410159d0:	03c23823          	sd	x28,48(x4) # 30 <SECURE_ACCESS_PROBABILITY+0x12>
    410159d4:	00000e13          	li	x28,0
    410159d8:	03c23c23          	sd	x28,56(x4) # 38 <SECURE_ACCESS_PROBABILITY+0x1a>
    410159dc:	00000e13          	li	x28,0
    410159e0:	07c23023          	sd	x28,96(x4) # 60 <XLEN+0x20>
    410159e4:	00000e13          	li	x28,0
    410159e8:	07c23423          	sd	x28,104(x4) # 68 <XLEN+0x28>
    410159ec:	00000e13          	li	x28,0
    410159f0:	07c23823          	sd	x28,112(x4) # 70 <XLEN+0x30>
    410159f4:	00000913          	li	x18,0

00000000410159f8 <fault_label_20>:
    410159f8:	60292c73          	csrrs	x24,hedeleg,x18
    410159fc:	0049cfb7          	lui	x31,0x49c
    41015a00:	ed7f8f9b          	addiw	x31,x31,-297 # 49bed7 <SID_HEXCEP_09_hinval_gvma_vu_stack+0x393ed7>
    41015a04:	00df9f93          	slli	x31,x31,0xd
    41015a08:	008f8f93          	addi	x31,x31,8
    41015a0c:	000fba03          	ld	x20,0(x31)
    41015a10:	000a0067          	jr	x20

0000000041015a14 <excp_return_label_20>:
    41015a14:	00018237          	lui	x4,0x18
    41015a18:	01600e13          	li	x28,22
    41015a1c:	05c23823          	sd	x28,80(x4) # 18050 <check_excp_expected_cause>
    41015a20:	00000e17          	auipc	x28,0x0
    41015a24:	048e0e13          	addi	x28,x28,72 # 41015a68 <fault_label_21>
    41015a28:	03c23023          	sd	x28,32(x4) # 20 <SECURE_ACCESS_PROBABILITY+0x2>
    41015a2c:	00000e13          	li	x28,0
    41015a30:	05c23023          	sd	x28,64(x4) # 40 <XLEN>
    41015a34:	00000e13          	li	x28,0
    41015a38:	05c23423          	sd	x28,72(x4) # 48 <XLEN+0x8>
    41015a3c:	00000e17          	auipc	x28,0x0
    41015a40:	048e0e13          	addi	x28,x28,72 # 41015a84 <excp_return_label_21>
    41015a44:	03c23823          	sd	x28,48(x4) # 30 <SECURE_ACCESS_PROBABILITY+0x12>
    41015a48:	00000e13          	li	x28,0
    41015a4c:	03c23c23          	sd	x28,56(x4) # 38 <SECURE_ACCESS_PROBABILITY+0x1a>
    41015a50:	00000e13          	li	x28,0
    41015a54:	07c23023          	sd	x28,96(x4) # 60 <XLEN+0x20>
    41015a58:	00000e13          	li	x28,0
    41015a5c:	07c23423          	sd	x28,104(x4) # 68 <XLEN+0x28>
    41015a60:	00000e13          	li	x28,0
    41015a64:	07c23823          	sd	x28,112(x4) # 70 <XLEN+0x30>

0000000041015a68 <fault_label_21>:
    41015a68:	602513f3          	csrrw	x7,hedeleg,x10
    41015a6c:	0049cbb7          	lui	x23,0x49c
    41015a70:	ed7b8b9b          	addiw	x23,x23,-297 # 49bed7 <SID_HEXCEP_09_hinval_gvma_vu_stack+0x393ed7>
    41015a74:	00db9b93          	slli	x23,x23,0xd
    41015a78:	008b8b93          	addi	x23,x23,8
    41015a7c:	000bbe83          	ld	x29,0(x23)
    41015a80:	000e8067          	jr	x29

0000000041015a84 <excp_return_label_21>:
    41015a84:	00018237          	lui	x4,0x18
    41015a88:	01600e13          	li	x28,22
    41015a8c:	05c23823          	sd	x28,80(x4) # 18050 <check_excp_expected_cause>
    41015a90:	00000e17          	auipc	x28,0x0
    41015a94:	04ce0e13          	addi	x28,x28,76 # 41015adc <fault_label_22>
    41015a98:	03c23023          	sd	x28,32(x4) # 20 <SECURE_ACCESS_PROBABILITY+0x2>
    41015a9c:	00000e13          	li	x28,0
    41015aa0:	05c23023          	sd	x28,64(x4) # 40 <XLEN>
    41015aa4:	00000e13          	li	x28,0
    41015aa8:	05c23423          	sd	x28,72(x4) # 48 <XLEN+0x8>
    41015aac:	00000e17          	auipc	x28,0x0
    41015ab0:	04ce0e13          	addi	x28,x28,76 # 41015af8 <excp_return_label_22>
    41015ab4:	03c23823          	sd	x28,48(x4) # 30 <SECURE_ACCESS_PROBABILITY+0x12>
    41015ab8:	00000e13          	li	x28,0
    41015abc:	03c23c23          	sd	x28,56(x4) # 38 <SECURE_ACCESS_PROBABILITY+0x1a>
    41015ac0:	00000e13          	li	x28,0
    41015ac4:	07c23023          	sd	x28,96(x4) # 60 <XLEN+0x20>
    41015ac8:	00000e13          	li	x28,0
    41015acc:	07c23423          	sd	x28,104(x4) # 68 <XLEN+0x28>
    41015ad0:	00000e13          	li	x28,0
    41015ad4:	07c23823          	sd	x28,112(x4) # 70 <XLEN+0x30>
    41015ad8:	00000913          	li	x18,0

0000000041015adc <fault_label_22>:
    41015adc:	60392e73          	csrrs	x28,hideleg,x18
    41015ae0:	0049cdb7          	lui	x27,0x49c
    41015ae4:	ed7d8d9b          	addiw	x27,x27,-297 # 49bed7 <SID_HEXCEP_09_hinval_gvma_vu_stack+0x393ed7>
    41015ae8:	00dd9d93          	slli	x27,x27,0xd
    41015aec:	008d8d93          	addi	x27,x27,8
    41015af0:	000db603          	ld	x12,0(x27)
    41015af4:	00060067          	jr	x12

0000000041015af8 <excp_return_label_22>:
    41015af8:	00018237          	lui	x4,0x18
    41015afc:	01600e13          	li	x28,22
    41015b00:	05c23823          	sd	x28,80(x4) # 18050 <check_excp_expected_cause>
    41015b04:	00000e17          	auipc	x28,0x0
    41015b08:	048e0e13          	addi	x28,x28,72 # 41015b4c <fault_label_23>
    41015b0c:	03c23023          	sd	x28,32(x4) # 20 <SECURE_ACCESS_PROBABILITY+0x2>
    41015b10:	00000e13          	li	x28,0
    41015b14:	05c23023          	sd	x28,64(x4) # 40 <XLEN>
    41015b18:	00000e13          	li	x28,0
    41015b1c:	05c23423          	sd	x28,72(x4) # 48 <XLEN+0x8>
    41015b20:	00000e17          	auipc	x28,0x0
    41015b24:	048e0e13          	addi	x28,x28,72 # 41015b68 <excp_return_label_23>
    41015b28:	03c23823          	sd	x28,48(x4) # 30 <SECURE_ACCESS_PROBABILITY+0x12>
    41015b2c:	00000e13          	li	x28,0
    41015b30:	03c23c23          	sd	x28,56(x4) # 38 <SECURE_ACCESS_PROBABILITY+0x1a>
    41015b34:	00000e13          	li	x28,0
    41015b38:	07c23023          	sd	x28,96(x4) # 60 <XLEN+0x20>
    41015b3c:	00000e13          	li	x28,0
    41015b40:	07c23423          	sd	x28,104(x4) # 68 <XLEN+0x28>
    41015b44:	00000e13          	li	x28,0
    41015b48:	07c23823          	sd	x28,112(x4) # 70 <XLEN+0x30>

0000000041015b4c <fault_label_23>:
    41015b4c:	60351df3          	csrrw	x27,hideleg,x10
    41015b50:	0049c4b7          	lui	x9,0x49c
    41015b54:	ed74849b          	addiw	x9,x9,-297 # 49bed7 <SID_HEXCEP_09_hinval_gvma_vu_stack+0x393ed7>
    41015b58:	00d49493          	slli	x9,x9,0xd
    41015b5c:	00848493          	addi	x9,x9,8
    41015b60:	0004b803          	ld	x16,0(x9)
    41015b64:	00080067          	jr	x16

0000000041015b68 <excp_return_label_23>:
    41015b68:	00018237          	lui	x4,0x18
    41015b6c:	01600e13          	li	x28,22
    41015b70:	05c23823          	sd	x28,80(x4) # 18050 <check_excp_expected_cause>
    41015b74:	00000e17          	auipc	x28,0x0
    41015b78:	04ce0e13          	addi	x28,x28,76 # 41015bc0 <fault_label_24>
    41015b7c:	03c23023          	sd	x28,32(x4) # 20 <SECURE_ACCESS_PROBABILITY+0x2>
    41015b80:	00000e13          	li	x28,0
    41015b84:	05c23023          	sd	x28,64(x4) # 40 <XLEN>
    41015b88:	00000e13          	li	x28,0
    41015b8c:	05c23423          	sd	x28,72(x4) # 48 <XLEN+0x8>
    41015b90:	00000e17          	auipc	x28,0x0
    41015b94:	04ce0e13          	addi	x28,x28,76 # 41015bdc <excp_return_label_24>
    41015b98:	03c23823          	sd	x28,48(x4) # 30 <SECURE_ACCESS_PROBABILITY+0x12>
    41015b9c:	00000e13          	li	x28,0
    41015ba0:	03c23c23          	sd	x28,56(x4) # 38 <SECURE_ACCESS_PROBABILITY+0x1a>
    41015ba4:	00000e13          	li	x28,0
    41015ba8:	07c23023          	sd	x28,96(x4) # 60 <XLEN+0x20>
    41015bac:	00000e13          	li	x28,0
    41015bb0:	07c23423          	sd	x28,104(x4) # 68 <XLEN+0x28>
    41015bb4:	00000e13          	li	x28,0
    41015bb8:	07c23823          	sd	x28,112(x4) # 70 <XLEN+0x30>
    41015bbc:	00000613          	li	x12,0

0000000041015bc0 <fault_label_24>:
    41015bc0:	645627f3          	csrrs	x15,hvip,x12
    41015bc4:	0049c8b7          	lui	x17,0x49c
    41015bc8:	ed78889b          	addiw	x17,x17,-297 # 49bed7 <SID_HEXCEP_09_hinval_gvma_vu_stack+0x393ed7>
    41015bcc:	00d89893          	slli	x17,x17,0xd
    41015bd0:	00888893          	addi	x17,x17,8
    41015bd4:	0008b903          	ld	x18,0(x17)
    41015bd8:	00090067          	jr	x18

0000000041015bdc <excp_return_label_24>:
    41015bdc:	00018237          	lui	x4,0x18
    41015be0:	01600e13          	li	x28,22
    41015be4:	05c23823          	sd	x28,80(x4) # 18050 <check_excp_expected_cause>
    41015be8:	00000e17          	auipc	x28,0x0
    41015bec:	048e0e13          	addi	x28,x28,72 # 41015c30 <fault_label_25>
    41015bf0:	03c23023          	sd	x28,32(x4) # 20 <SECURE_ACCESS_PROBABILITY+0x2>
    41015bf4:	00000e13          	li	x28,0
    41015bf8:	05c23023          	sd	x28,64(x4) # 40 <XLEN>
    41015bfc:	00000e13          	li	x28,0
    41015c00:	05c23423          	sd	x28,72(x4) # 48 <XLEN+0x8>
    41015c04:	00000e17          	auipc	x28,0x0
    41015c08:	048e0e13          	addi	x28,x28,72 # 41015c4c <excp_return_label_25>
    41015c0c:	03c23823          	sd	x28,48(x4) # 30 <SECURE_ACCESS_PROBABILITY+0x12>
    41015c10:	00000e13          	li	x28,0
    41015c14:	03c23c23          	sd	x28,56(x4) # 38 <SECURE_ACCESS_PROBABILITY+0x1a>
    41015c18:	00000e13          	li	x28,0
    41015c1c:	07c23023          	sd	x28,96(x4) # 60 <XLEN+0x20>
    41015c20:	00000e13          	li	x28,0
    41015c24:	07c23423          	sd	x28,104(x4) # 68 <XLEN+0x28>
    41015c28:	00000e13          	li	x28,0
    41015c2c:	07c23823          	sd	x28,112(x4) # 70 <XLEN+0x30>

0000000041015c30 <fault_label_25>:
    41015c30:	645517f3          	csrrw	x15,hvip,x10
    41015c34:	0049c7b7          	lui	x15,0x49c
    41015c38:	ed77879b          	addiw	x15,x15,-297 # 49bed7 <SID_HEXCEP_09_hinval_gvma_vu_stack+0x393ed7>
    41015c3c:	00d79793          	slli	x15,x15,0xd
    41015c40:	00878793          	addi	x15,x15,8
    41015c44:	0007b603          	ld	x12,0(x15)
    41015c48:	00060067          	jr	x12

0000000041015c4c <excp_return_label_25>:
    41015c4c:	00018237          	lui	x4,0x18
    41015c50:	01600e13          	li	x28,22
    41015c54:	05c23823          	sd	x28,80(x4) # 18050 <check_excp_expected_cause>
    41015c58:	00000e17          	auipc	x28,0x0
    41015c5c:	04ce0e13          	addi	x28,x28,76 # 41015ca4 <fault_label_26>
    41015c60:	03c23023          	sd	x28,32(x4) # 20 <SECURE_ACCESS_PROBABILITY+0x2>
    41015c64:	00000e13          	li	x28,0
    41015c68:	05c23023          	sd	x28,64(x4) # 40 <XLEN>
    41015c6c:	00000e13          	li	x28,0
    41015c70:	05c23423          	sd	x28,72(x4) # 48 <XLEN+0x8>
    41015c74:	00000e17          	auipc	x28,0x0
    41015c78:	04ce0e13          	addi	x28,x28,76 # 41015cc0 <excp_return_label_26>
    41015c7c:	03c23823          	sd	x28,48(x4) # 30 <SECURE_ACCESS_PROBABILITY+0x12>
    41015c80:	00000e13          	li	x28,0
    41015c84:	03c23c23          	sd	x28,56(x4) # 38 <SECURE_ACCESS_PROBABILITY+0x1a>
    41015c88:	00000e13          	li	x28,0
    41015c8c:	07c23023          	sd	x28,96(x4) # 60 <XLEN+0x20>
    41015c90:	00000e13          	li	x28,0
    41015c94:	07c23423          	sd	x28,104(x4) # 68 <XLEN+0x28>
    41015c98:	00000e13          	li	x28,0
    41015c9c:	07c23823          	sd	x28,112(x4) # 70 <XLEN+0x30>
    41015ca0:	00000793          	li	x15,0

0000000041015ca4 <fault_label_26>:
    41015ca4:	6447ac73          	csrrs	x24,hip,x15
    41015ca8:	0049cb37          	lui	x22,0x49c
    41015cac:	ed7b0b1b          	addiw	x22,x22,-297 # 49bed7 <SID_HEXCEP_09_hinval_gvma_vu_stack+0x393ed7>
    41015cb0:	00db1b13          	slli	x22,x22,0xd
    41015cb4:	008b0b13          	addi	x22,x22,8
    41015cb8:	000b3e83          	ld	x29,0(x22)
    41015cbc:	000e8067          	jr	x29

0000000041015cc0 <excp_return_label_26>:
    41015cc0:	00018237          	lui	x4,0x18
    41015cc4:	01600e13          	li	x28,22
    41015cc8:	05c23823          	sd	x28,80(x4) # 18050 <check_excp_expected_cause>
    41015ccc:	00000e17          	auipc	x28,0x0
    41015cd0:	048e0e13          	addi	x28,x28,72 # 41015d14 <fault_label_27>
    41015cd4:	03c23023          	sd	x28,32(x4) # 20 <SECURE_ACCESS_PROBABILITY+0x2>
    41015cd8:	00000e13          	li	x28,0
    41015cdc:	05c23023          	sd	x28,64(x4) # 40 <XLEN>
    41015ce0:	00000e13          	li	x28,0
    41015ce4:	05c23423          	sd	x28,72(x4) # 48 <XLEN+0x8>
    41015ce8:	00000e17          	auipc	x28,0x0
    41015cec:	048e0e13          	addi	x28,x28,72 # 41015d30 <excp_return_label_27>
    41015cf0:	03c23823          	sd	x28,48(x4) # 30 <SECURE_ACCESS_PROBABILITY+0x12>
    41015cf4:	00000e13          	li	x28,0
    41015cf8:	03c23c23          	sd	x28,56(x4) # 38 <SECURE_ACCESS_PROBABILITY+0x1a>
    41015cfc:	00000e13          	li	x28,0
    41015d00:	07c23023          	sd	x28,96(x4) # 60 <XLEN+0x20>
    41015d04:	00000e13          	li	x28,0
    41015d08:	07c23423          	sd	x28,104(x4) # 68 <XLEN+0x28>
    41015d0c:	00000e13          	li	x28,0
    41015d10:	07c23823          	sd	x28,112(x4) # 70 <XLEN+0x30>

0000000041015d14 <fault_label_27>:
    41015d14:	644517f3          	csrrw	x15,hip,x10
    41015d18:	0049c4b7          	lui	x9,0x49c
    41015d1c:	ed74849b          	addiw	x9,x9,-297 # 49bed7 <SID_HEXCEP_09_hinval_gvma_vu_stack+0x393ed7>
    41015d20:	00d49493          	slli	x9,x9,0xd
    41015d24:	00848493          	addi	x9,x9,8
    41015d28:	0004b703          	ld	x14,0(x9)
    41015d2c:	00070067          	jr	x14

0000000041015d30 <excp_return_label_27>:
    41015d30:	00018237          	lui	x4,0x18
    41015d34:	01600e13          	li	x28,22
    41015d38:	05c23823          	sd	x28,80(x4) # 18050 <check_excp_expected_cause>
    41015d3c:	00000e17          	auipc	x28,0x0
    41015d40:	04ce0e13          	addi	x28,x28,76 # 41015d88 <fault_label_28>
    41015d44:	03c23023          	sd	x28,32(x4) # 20 <SECURE_ACCESS_PROBABILITY+0x2>
    41015d48:	00000e13          	li	x28,0
    41015d4c:	05c23023          	sd	x28,64(x4) # 40 <XLEN>
    41015d50:	00000e13          	li	x28,0
    41015d54:	05c23423          	sd	x28,72(x4) # 48 <XLEN+0x8>
    41015d58:	00000e17          	auipc	x28,0x0
    41015d5c:	04ce0e13          	addi	x28,x28,76 # 41015da4 <excp_return_label_28>
    41015d60:	03c23823          	sd	x28,48(x4) # 30 <SECURE_ACCESS_PROBABILITY+0x12>
    41015d64:	00000e13          	li	x28,0
    41015d68:	03c23c23          	sd	x28,56(x4) # 38 <SECURE_ACCESS_PROBABILITY+0x1a>
    41015d6c:	00000e13          	li	x28,0
    41015d70:	07c23023          	sd	x28,96(x4) # 60 <XLEN+0x20>
    41015d74:	00000e13          	li	x28,0
    41015d78:	07c23423          	sd	x28,104(x4) # 68 <XLEN+0x28>
    41015d7c:	00000e13          	li	x28,0
    41015d80:	07c23823          	sd	x28,112(x4) # 70 <XLEN+0x30>
    41015d84:	00000713          	li	x14,0

0000000041015d88 <fault_label_28>:
    41015d88:	60472473          	csrrs	x8,hie,x14
    41015d8c:	0049c937          	lui	x18,0x49c
    41015d90:	ed79091b          	addiw	x18,x18,-297 # 49bed7 <SID_HEXCEP_09_hinval_gvma_vu_stack+0x393ed7>
    41015d94:	00d91913          	slli	x18,x18,0xd
    41015d98:	00890913          	addi	x18,x18,8
    41015d9c:	00093e03          	ld	x28,0(x18)
    41015da0:	000e0067          	jr	x28

0000000041015da4 <excp_return_label_28>:
    41015da4:	00018237          	lui	x4,0x18
    41015da8:	01600e13          	li	x28,22
    41015dac:	05c23823          	sd	x28,80(x4) # 18050 <check_excp_expected_cause>
    41015db0:	00000e17          	auipc	x28,0x0
    41015db4:	048e0e13          	addi	x28,x28,72 # 41015df8 <fault_label_29>
    41015db8:	03c23023          	sd	x28,32(x4) # 20 <SECURE_ACCESS_PROBABILITY+0x2>
    41015dbc:	00000e13          	li	x28,0
    41015dc0:	05c23023          	sd	x28,64(x4) # 40 <XLEN>
    41015dc4:	00000e13          	li	x28,0
    41015dc8:	05c23423          	sd	x28,72(x4) # 48 <XLEN+0x8>
    41015dcc:	00000e17          	auipc	x28,0x0
    41015dd0:	048e0e13          	addi	x28,x28,72 # 41015e14 <excp_return_label_29>
    41015dd4:	03c23823          	sd	x28,48(x4) # 30 <SECURE_ACCESS_PROBABILITY+0x12>
    41015dd8:	00000e13          	li	x28,0
    41015ddc:	03c23c23          	sd	x28,56(x4) # 38 <SECURE_ACCESS_PROBABILITY+0x1a>
    41015de0:	00000e13          	li	x28,0
    41015de4:	07c23023          	sd	x28,96(x4) # 60 <XLEN+0x20>
    41015de8:	00000e13          	li	x28,0
    41015dec:	07c23423          	sd	x28,104(x4) # 68 <XLEN+0x28>
    41015df0:	00000e13          	li	x28,0
    41015df4:	07c23823          	sd	x28,112(x4) # 70 <XLEN+0x30>

0000000041015df8 <fault_label_29>:
    41015df8:	60451bf3          	csrrw	x23,hie,x10
    41015dfc:	0049cc37          	lui	x24,0x49c
    41015e00:	ed7c0c1b          	addiw	x24,x24,-297 # 49bed7 <SID_HEXCEP_09_hinval_gvma_vu_stack+0x393ed7>
    41015e04:	00dc1c13          	slli	x24,x24,0xd
    41015e08:	008c0c13          	addi	x24,x24,8
    41015e0c:	000c3b83          	ld	x23,0(x24)
    41015e10:	000b8067          	jr	x23

0000000041015e14 <excp_return_label_29>:
    41015e14:	00018237          	lui	x4,0x18
    41015e18:	01600e13          	li	x28,22
    41015e1c:	05c23823          	sd	x28,80(x4) # 18050 <check_excp_expected_cause>
    41015e20:	00000e17          	auipc	x28,0x0
    41015e24:	04ce0e13          	addi	x28,x28,76 # 41015e6c <fault_label_30>
    41015e28:	03c23023          	sd	x28,32(x4) # 20 <SECURE_ACCESS_PROBABILITY+0x2>
    41015e2c:	00000e13          	li	x28,0
    41015e30:	05c23023          	sd	x28,64(x4) # 40 <XLEN>
    41015e34:	00000e13          	li	x28,0
    41015e38:	05c23423          	sd	x28,72(x4) # 48 <XLEN+0x8>
    41015e3c:	00000e17          	auipc	x28,0x0
    41015e40:	04ce0e13          	addi	x28,x28,76 # 41015e88 <excp_return_label_30>
    41015e44:	03c23823          	sd	x28,48(x4) # 30 <SECURE_ACCESS_PROBABILITY+0x12>
    41015e48:	00000e13          	li	x28,0
    41015e4c:	03c23c23          	sd	x28,56(x4) # 38 <SECURE_ACCESS_PROBABILITY+0x1a>
    41015e50:	00000e13          	li	x28,0
    41015e54:	07c23023          	sd	x28,96(x4) # 60 <XLEN+0x20>
    41015e58:	00000e13          	li	x28,0
    41015e5c:	07c23423          	sd	x28,104(x4) # 68 <XLEN+0x28>
    41015e60:	00000e13          	li	x28,0
    41015e64:	07c23823          	sd	x28,112(x4) # 70 <XLEN+0x30>
    41015e68:	00000d13          	li	x26,0

0000000041015e6c <fault_label_30>:
    41015e6c:	607d2ef3          	csrrs	x29,hgeie,x26
    41015e70:	0049cab7          	lui	x21,0x49c
    41015e74:	ed7a8a9b          	addiw	x21,x21,-297 # 49bed7 <SID_HEXCEP_09_hinval_gvma_vu_stack+0x393ed7>
    41015e78:	00da9a93          	slli	x21,x21,0xd
    41015e7c:	008a8a93          	addi	x21,x21,8
    41015e80:	000abd83          	ld	x27,0(x21)
    41015e84:	000d8067          	jr	x27

0000000041015e88 <excp_return_label_30>:
    41015e88:	00018237          	lui	x4,0x18
    41015e8c:	01600e13          	li	x28,22
    41015e90:	05c23823          	sd	x28,80(x4) # 18050 <check_excp_expected_cause>
    41015e94:	00000e17          	auipc	x28,0x0
    41015e98:	048e0e13          	addi	x28,x28,72 # 41015edc <fault_label_31>
    41015e9c:	03c23023          	sd	x28,32(x4) # 20 <SECURE_ACCESS_PROBABILITY+0x2>
    41015ea0:	00000e13          	li	x28,0
    41015ea4:	05c23023          	sd	x28,64(x4) # 40 <XLEN>
    41015ea8:	00000e13          	li	x28,0
    41015eac:	05c23423          	sd	x28,72(x4) # 48 <XLEN+0x8>
    41015eb0:	00000e17          	auipc	x28,0x0
    41015eb4:	048e0e13          	addi	x28,x28,72 # 41015ef8 <excp_return_label_31>
    41015eb8:	03c23823          	sd	x28,48(x4) # 30 <SECURE_ACCESS_PROBABILITY+0x12>
    41015ebc:	00000e13          	li	x28,0
    41015ec0:	03c23c23          	sd	x28,56(x4) # 38 <SECURE_ACCESS_PROBABILITY+0x1a>
    41015ec4:	00000e13          	li	x28,0
    41015ec8:	07c23023          	sd	x28,96(x4) # 60 <XLEN+0x20>
    41015ecc:	00000e13          	li	x28,0
    41015ed0:	07c23423          	sd	x28,104(x4) # 68 <XLEN+0x28>
    41015ed4:	00000e13          	li	x28,0
    41015ed8:	07c23823          	sd	x28,112(x4) # 70 <XLEN+0x30>

0000000041015edc <fault_label_31>:
    41015edc:	60751ef3          	csrrw	x29,hgeie,x10
    41015ee0:	0049cc37          	lui	x24,0x49c
    41015ee4:	ed7c0c1b          	addiw	x24,x24,-297 # 49bed7 <SID_HEXCEP_09_hinval_gvma_vu_stack+0x393ed7>
    41015ee8:	00dc1c13          	slli	x24,x24,0xd
    41015eec:	008c0c13          	addi	x24,x24,8
    41015ef0:	000c3e03          	ld	x28,0(x24)
    41015ef4:	000e0067          	jr	x28

0000000041015ef8 <excp_return_label_31>:
    41015ef8:	00018237          	lui	x4,0x18
    41015efc:	01600e13          	li	x28,22
    41015f00:	05c23823          	sd	x28,80(x4) # 18050 <check_excp_expected_cause>
    41015f04:	00000e17          	auipc	x28,0x0
    41015f08:	04ce0e13          	addi	x28,x28,76 # 41015f50 <fault_label_32>
    41015f0c:	03c23023          	sd	x28,32(x4) # 20 <SECURE_ACCESS_PROBABILITY+0x2>
    41015f10:	00000e13          	li	x28,0
    41015f14:	05c23023          	sd	x28,64(x4) # 40 <XLEN>
    41015f18:	00000e13          	li	x28,0
    41015f1c:	05c23423          	sd	x28,72(x4) # 48 <XLEN+0x8>
    41015f20:	00000e17          	auipc	x28,0x0
    41015f24:	04ce0e13          	addi	x28,x28,76 # 41015f6c <excp_return_label_32>
    41015f28:	03c23823          	sd	x28,48(x4) # 30 <SECURE_ACCESS_PROBABILITY+0x12>
    41015f2c:	00000e13          	li	x28,0
    41015f30:	03c23c23          	sd	x28,56(x4) # 38 <SECURE_ACCESS_PROBABILITY+0x1a>
    41015f34:	00000e13          	li	x28,0
    41015f38:	07c23023          	sd	x28,96(x4) # 60 <XLEN+0x20>
    41015f3c:	00000e13          	li	x28,0
    41015f40:	07c23423          	sd	x28,104(x4) # 68 <XLEN+0x28>
    41015f44:	00000e13          	li	x28,0
    41015f48:	07c23823          	sd	x28,112(x4) # 70 <XLEN+0x30>
    41015f4c:	00000b93          	li	x23,0

0000000041015f50 <fault_label_32>:
    41015f50:	60abab73          	csrrs	x22,henvcfg,x23
    41015f54:	0049ceb7          	lui	x29,0x49c
    41015f58:	ed7e8e9b          	addiw	x29,x29,-297 # 49bed7 <SID_HEXCEP_09_hinval_gvma_vu_stack+0x393ed7>
    41015f5c:	00de9e93          	slli	x29,x29,0xd
    41015f60:	008e8e93          	addi	x29,x29,8
    41015f64:	000eb683          	ld	x13,0(x29)
    41015f68:	00068067          	jr	x13

0000000041015f6c <excp_return_label_32>:
    41015f6c:	00018237          	lui	x4,0x18
    41015f70:	01600e13          	li	x28,22
    41015f74:	05c23823          	sd	x28,80(x4) # 18050 <check_excp_expected_cause>
    41015f78:	00000e17          	auipc	x28,0x0
    41015f7c:	048e0e13          	addi	x28,x28,72 # 41015fc0 <fault_label_33>
    41015f80:	03c23023          	sd	x28,32(x4) # 20 <SECURE_ACCESS_PROBABILITY+0x2>
    41015f84:	00000e13          	li	x28,0
    41015f88:	05c23023          	sd	x28,64(x4) # 40 <XLEN>
    41015f8c:	00000e13          	li	x28,0
    41015f90:	05c23423          	sd	x28,72(x4) # 48 <XLEN+0x8>
    41015f94:	00000e17          	auipc	x28,0x0
    41015f98:	048e0e13          	addi	x28,x28,72 # 41015fdc <excp_return_label_33>
    41015f9c:	03c23823          	sd	x28,48(x4) # 30 <SECURE_ACCESS_PROBABILITY+0x12>
    41015fa0:	00000e13          	li	x28,0
    41015fa4:	03c23c23          	sd	x28,56(x4) # 38 <SECURE_ACCESS_PROBABILITY+0x1a>
    41015fa8:	00000e13          	li	x28,0
    41015fac:	07c23023          	sd	x28,96(x4) # 60 <XLEN+0x20>
    41015fb0:	00000e13          	li	x28,0
    41015fb4:	07c23423          	sd	x28,104(x4) # 68 <XLEN+0x28>
    41015fb8:	00000e13          	li	x28,0
    41015fbc:	07c23823          	sd	x28,112(x4) # 70 <XLEN+0x30>

0000000041015fc0 <fault_label_33>:
    41015fc0:	60a51ff3          	csrrw	x31,henvcfg,x10
    41015fc4:	0049cab7          	lui	x21,0x49c
    41015fc8:	ed7a8a9b          	addiw	x21,x21,-297 # 49bed7 <SID_HEXCEP_09_hinval_gvma_vu_stack+0x393ed7>
    41015fcc:	00da9a93          	slli	x21,x21,0xd
    41015fd0:	008a8a93          	addi	x21,x21,8
    41015fd4:	000ab803          	ld	x16,0(x21)
    41015fd8:	00080067          	jr	x16

0000000041015fdc <excp_return_label_33>:
    41015fdc:	00018237          	lui	x4,0x18
    41015fe0:	01600e13          	li	x28,22
    41015fe4:	05c23823          	sd	x28,80(x4) # 18050 <check_excp_expected_cause>
    41015fe8:	00000e17          	auipc	x28,0x0
    41015fec:	04ce0e13          	addi	x28,x28,76 # 41016034 <fault_label_34>
    41015ff0:	03c23023          	sd	x28,32(x4) # 20 <SECURE_ACCESS_PROBABILITY+0x2>
    41015ff4:	00000e13          	li	x28,0
    41015ff8:	05c23023          	sd	x28,64(x4) # 40 <XLEN>
    41015ffc:	00000e13          	li	x28,0
    41016000:	05c23423          	sd	x28,72(x4) # 48 <XLEN+0x8>
    41016004:	00000e17          	auipc	x28,0x0
    41016008:	04ce0e13          	addi	x28,x28,76 # 41016050 <excp_return_label_34>
    4101600c:	03c23823          	sd	x28,48(x4) # 30 <SECURE_ACCESS_PROBABILITY+0x12>
    41016010:	00000e13          	li	x28,0
    41016014:	03c23c23          	sd	x28,56(x4) # 38 <SECURE_ACCESS_PROBABILITY+0x1a>
    41016018:	00000e13          	li	x28,0
    4101601c:	07c23023          	sd	x28,96(x4) # 60 <XLEN+0x20>
    41016020:	00000e13          	li	x28,0
    41016024:	07c23423          	sd	x28,104(x4) # 68 <XLEN+0x28>
    41016028:	00000e13          	li	x28,0
    4101602c:	07c23823          	sd	x28,112(x4) # 70 <XLEN+0x30>
    41016030:	00000f13          	li	x30,0

0000000041016034 <fault_label_34>:
    41016034:	606f2f73          	csrrs	x30,hcounteren,x30
    41016038:	0049c8b7          	lui	x17,0x49c
    4101603c:	ed78889b          	addiw	x17,x17,-297 # 49bed7 <SID_HEXCEP_09_hinval_gvma_vu_stack+0x393ed7>
    41016040:	00d89893          	slli	x17,x17,0xd
    41016044:	00888893          	addi	x17,x17,8
    41016048:	0008bb03          	ld	x22,0(x17)
    4101604c:	000b0067          	jr	x22

0000000041016050 <excp_return_label_34>:
    41016050:	00018237          	lui	x4,0x18
    41016054:	01600e13          	li	x28,22
    41016058:	05c23823          	sd	x28,80(x4) # 18050 <check_excp_expected_cause>
    4101605c:	00000e17          	auipc	x28,0x0
    41016060:	048e0e13          	addi	x28,x28,72 # 410160a4 <fault_label_35>
    41016064:	03c23023          	sd	x28,32(x4) # 20 <SECURE_ACCESS_PROBABILITY+0x2>
    41016068:	00000e13          	li	x28,0
    4101606c:	05c23023          	sd	x28,64(x4) # 40 <XLEN>
    41016070:	00000e13          	li	x28,0
    41016074:	05c23423          	sd	x28,72(x4) # 48 <XLEN+0x8>
    41016078:	00000e17          	auipc	x28,0x0
    4101607c:	048e0e13          	addi	x28,x28,72 # 410160c0 <excp_return_label_35>
    41016080:	03c23823          	sd	x28,48(x4) # 30 <SECURE_ACCESS_PROBABILITY+0x12>
    41016084:	00000e13          	li	x28,0
    41016088:	03c23c23          	sd	x28,56(x4) # 38 <SECURE_ACCESS_PROBABILITY+0x1a>
    4101608c:	00000e13          	li	x28,0
    41016090:	07c23023          	sd	x28,96(x4) # 60 <XLEN+0x20>
    41016094:	00000e13          	li	x28,0
    41016098:	07c23423          	sd	x28,104(x4) # 68 <XLEN+0x28>
    4101609c:	00000e13          	li	x28,0
    410160a0:	07c23823          	sd	x28,112(x4) # 70 <XLEN+0x30>

00000000410160a4 <fault_label_35>:
    410160a4:	60651ef3          	csrrw	x29,hcounteren,x10
    410160a8:	0049c7b7          	lui	x15,0x49c
    410160ac:	ed77879b          	addiw	x15,x15,-297 # 49bed7 <SID_HEXCEP_09_hinval_gvma_vu_stack+0x393ed7>
    410160b0:	00d79793          	slli	x15,x15,0xd
    410160b4:	00878793          	addi	x15,x15,8
    410160b8:	0007bd83          	ld	x27,0(x15)
    410160bc:	000d8067          	jr	x27

00000000410160c0 <excp_return_label_35>:
    410160c0:	00018237          	lui	x4,0x18
    410160c4:	01600e13          	li	x28,22
    410160c8:	05c23823          	sd	x28,80(x4) # 18050 <check_excp_expected_cause>
    410160cc:	00000e17          	auipc	x28,0x0
    410160d0:	04ce0e13          	addi	x28,x28,76 # 41016118 <fault_label_36>
    410160d4:	03c23023          	sd	x28,32(x4) # 20 <SECURE_ACCESS_PROBABILITY+0x2>
    410160d8:	00000e13          	li	x28,0
    410160dc:	05c23023          	sd	x28,64(x4) # 40 <XLEN>
    410160e0:	00000e13          	li	x28,0
    410160e4:	05c23423          	sd	x28,72(x4) # 48 <XLEN+0x8>
    410160e8:	00000e17          	auipc	x28,0x0
    410160ec:	04ce0e13          	addi	x28,x28,76 # 41016134 <excp_return_label_36>
    410160f0:	03c23823          	sd	x28,48(x4) # 30 <SECURE_ACCESS_PROBABILITY+0x12>
    410160f4:	00000e13          	li	x28,0
    410160f8:	03c23c23          	sd	x28,56(x4) # 38 <SECURE_ACCESS_PROBABILITY+0x1a>
    410160fc:	00000e13          	li	x28,0
    41016100:	07c23023          	sd	x28,96(x4) # 60 <XLEN+0x20>
    41016104:	00000e13          	li	x28,0
    41016108:	07c23423          	sd	x28,104(x4) # 68 <XLEN+0x28>
    4101610c:	00000e13          	li	x28,0
    41016110:	07c23823          	sd	x28,112(x4) # 70 <XLEN+0x30>
    41016114:	00000f93          	li	x31,0

0000000041016118 <fault_label_36>:
    41016118:	605fad73          	csrrs	x26,htimedelta,x31
    4101611c:	0049c8b7          	lui	x17,0x49c
    41016120:	ed78889b          	addiw	x17,x17,-297 # 49bed7 <SID_HEXCEP_09_hinval_gvma_vu_stack+0x393ed7>
    41016124:	00d89893          	slli	x17,x17,0xd
    41016128:	00888893          	addi	x17,x17,8
    4101612c:	0008bc03          	ld	x24,0(x17)
    41016130:	000c0067          	jr	x24

0000000041016134 <excp_return_label_36>:
    41016134:	00018237          	lui	x4,0x18
    41016138:	01600e13          	li	x28,22
    4101613c:	05c23823          	sd	x28,80(x4) # 18050 <check_excp_expected_cause>
    41016140:	00000e17          	auipc	x28,0x0
    41016144:	048e0e13          	addi	x28,x28,72 # 41016188 <fault_label_37>
    41016148:	03c23023          	sd	x28,32(x4) # 20 <SECURE_ACCESS_PROBABILITY+0x2>
    4101614c:	00000e13          	li	x28,0
    41016150:	05c23023          	sd	x28,64(x4) # 40 <XLEN>
    41016154:	00000e13          	li	x28,0
    41016158:	05c23423          	sd	x28,72(x4) # 48 <XLEN+0x8>
    4101615c:	00000e17          	auipc	x28,0x0
    41016160:	048e0e13          	addi	x28,x28,72 # 410161a4 <excp_return_label_37>
    41016164:	03c23823          	sd	x28,48(x4) # 30 <SECURE_ACCESS_PROBABILITY+0x12>
    41016168:	00000e13          	li	x28,0
    4101616c:	03c23c23          	sd	x28,56(x4) # 38 <SECURE_ACCESS_PROBABILITY+0x1a>
    41016170:	00000e13          	li	x28,0
    41016174:	07c23023          	sd	x28,96(x4) # 60 <XLEN+0x20>
    41016178:	00000e13          	li	x28,0
    4101617c:	07c23423          	sd	x28,104(x4) # 68 <XLEN+0x28>
    41016180:	00000e13          	li	x28,0
    41016184:	07c23823          	sd	x28,112(x4) # 70 <XLEN+0x30>

0000000041016188 <fault_label_37>:
    41016188:	60551af3          	csrrw	x21,htimedelta,x10
    4101618c:	0049c737          	lui	x14,0x49c
    41016190:	ed77071b          	addiw	x14,x14,-297 # 49bed7 <SID_HEXCEP_09_hinval_gvma_vu_stack+0x393ed7>
    41016194:	00d71713          	slli	x14,x14,0xd
    41016198:	00870713          	addi	x14,x14,8
    4101619c:	00073883          	ld	x17,0(x14)
    410161a0:	00088067          	jr	x17

00000000410161a4 <excp_return_label_37>:
    410161a4:	00018237          	lui	x4,0x18
    410161a8:	01600e13          	li	x28,22
    410161ac:	05c23823          	sd	x28,80(x4) # 18050 <check_excp_expected_cause>
    410161b0:	00000e17          	auipc	x28,0x0
    410161b4:	04ce0e13          	addi	x28,x28,76 # 410161fc <fault_label_38>
    410161b8:	03c23023          	sd	x28,32(x4) # 20 <SECURE_ACCESS_PROBABILITY+0x2>
    410161bc:	00000e13          	li	x28,0
    410161c0:	05c23023          	sd	x28,64(x4) # 40 <XLEN>
    410161c4:	00000e13          	li	x28,0
    410161c8:	05c23423          	sd	x28,72(x4) # 48 <XLEN+0x8>
    410161cc:	00000e17          	auipc	x28,0x0
    410161d0:	04ce0e13          	addi	x28,x28,76 # 41016218 <excp_return_label_38>
    410161d4:	03c23823          	sd	x28,48(x4) # 30 <SECURE_ACCESS_PROBABILITY+0x12>
    410161d8:	00000e13          	li	x28,0
    410161dc:	03c23c23          	sd	x28,56(x4) # 38 <SECURE_ACCESS_PROBABILITY+0x1a>
    410161e0:	00000e13          	li	x28,0
    410161e4:	07c23023          	sd	x28,96(x4) # 60 <XLEN+0x20>
    410161e8:	00000e13          	li	x28,0
    410161ec:	07c23423          	sd	x28,104(x4) # 68 <XLEN+0x28>
    410161f0:	00000e13          	li	x28,0
    410161f4:	07c23823          	sd	x28,112(x4) # 70 <XLEN+0x30>
    410161f8:	00000793          	li	x15,0

00000000410161fc <fault_label_38>:
    410161fc:	6437ad73          	csrrs	x26,htval,x15
    41016200:	0049c7b7          	lui	x15,0x49c
    41016204:	ed77879b          	addiw	x15,x15,-297 # 49bed7 <SID_HEXCEP_09_hinval_gvma_vu_stack+0x393ed7>
    41016208:	00d79793          	slli	x15,x15,0xd
    4101620c:	00878793          	addi	x15,x15,8
    41016210:	0007b983          	ld	x19,0(x15)
    41016214:	00098067          	jr	x19

0000000041016218 <excp_return_label_38>:
    41016218:	00018237          	lui	x4,0x18
    4101621c:	01600e13          	li	x28,22
    41016220:	05c23823          	sd	x28,80(x4) # 18050 <check_excp_expected_cause>
    41016224:	00000e17          	auipc	x28,0x0
    41016228:	048e0e13          	addi	x28,x28,72 # 4101626c <fault_label_39>
    4101622c:	03c23023          	sd	x28,32(x4) # 20 <SECURE_ACCESS_PROBABILITY+0x2>
    41016230:	00000e13          	li	x28,0
    41016234:	05c23023          	sd	x28,64(x4) # 40 <XLEN>
    41016238:	00000e13          	li	x28,0
    4101623c:	05c23423          	sd	x28,72(x4) # 48 <XLEN+0x8>
    41016240:	00000e17          	auipc	x28,0x0
    41016244:	048e0e13          	addi	x28,x28,72 # 41016288 <excp_return_label_39>
    41016248:	03c23823          	sd	x28,48(x4) # 30 <SECURE_ACCESS_PROBABILITY+0x12>
    4101624c:	00000e13          	li	x28,0
    41016250:	03c23c23          	sd	x28,56(x4) # 38 <SECURE_ACCESS_PROBABILITY+0x1a>
    41016254:	00000e13          	li	x28,0
    41016258:	07c23023          	sd	x28,96(x4) # 60 <XLEN+0x20>
    4101625c:	00000e13          	li	x28,0
    41016260:	07c23423          	sd	x28,104(x4) # 68 <XLEN+0x28>
    41016264:	00000e13          	li	x28,0
    41016268:	07c23823          	sd	x28,112(x4) # 70 <XLEN+0x30>

000000004101626c <fault_label_39>:
    4101626c:	64351873          	csrrw	x16,htval,x10
    41016270:	0049c9b7          	lui	x19,0x49c
    41016274:	ed79899b          	addiw	x19,x19,-297 # 49bed7 <SID_HEXCEP_09_hinval_gvma_vu_stack+0x393ed7>
    41016278:	00d99993          	slli	x19,x19,0xd
    4101627c:	00898993          	addi	x19,x19,8
    41016280:	0009bf83          	ld	x31,0(x19)
    41016284:	000f8067          	jr	x31

0000000041016288 <excp_return_label_39>:
    41016288:	00018237          	lui	x4,0x18
    4101628c:	01600e13          	li	x28,22
    41016290:	05c23823          	sd	x28,80(x4) # 18050 <check_excp_expected_cause>
    41016294:	00000e17          	auipc	x28,0x0
    41016298:	04ce0e13          	addi	x28,x28,76 # 410162e0 <fault_label_40>
    4101629c:	03c23023          	sd	x28,32(x4) # 20 <SECURE_ACCESS_PROBABILITY+0x2>
    410162a0:	00000e13          	li	x28,0
    410162a4:	05c23023          	sd	x28,64(x4) # 40 <XLEN>
    410162a8:	00000e13          	li	x28,0
    410162ac:	05c23423          	sd	x28,72(x4) # 48 <XLEN+0x8>
    410162b0:	00000e17          	auipc	x28,0x0
    410162b4:	04ce0e13          	addi	x28,x28,76 # 410162fc <excp_return_label_40>
    410162b8:	03c23823          	sd	x28,48(x4) # 30 <SECURE_ACCESS_PROBABILITY+0x12>
    410162bc:	00000e13          	li	x28,0
    410162c0:	03c23c23          	sd	x28,56(x4) # 38 <SECURE_ACCESS_PROBABILITY+0x1a>
    410162c4:	00000e13          	li	x28,0
    410162c8:	07c23023          	sd	x28,96(x4) # 60 <XLEN+0x20>
    410162cc:	00000e13          	li	x28,0
    410162d0:	07c23423          	sd	x28,104(x4) # 68 <XLEN+0x28>
    410162d4:	00000e13          	li	x28,0
    410162d8:	07c23823          	sd	x28,112(x4) # 70 <XLEN+0x30>
    410162dc:	00000393          	li	x7,0

00000000410162e0 <fault_label_40>:
    410162e0:	64a3aaf3          	csrrs	x21,htinst,x7
    410162e4:	0049cab7          	lui	x21,0x49c
    410162e8:	ed7a8a9b          	addiw	x21,x21,-297 # 49bed7 <SID_HEXCEP_09_hinval_gvma_vu_stack+0x393ed7>
    410162ec:	00da9a93          	slli	x21,x21,0xd
    410162f0:	008a8a93          	addi	x21,x21,8
    410162f4:	000ab883          	ld	x17,0(x21)
    410162f8:	00088067          	jr	x17

00000000410162fc <excp_return_label_40>:
    410162fc:	00018237          	lui	x4,0x18
    41016300:	01600e13          	li	x28,22
    41016304:	05c23823          	sd	x28,80(x4) # 18050 <check_excp_expected_cause>
    41016308:	00000e17          	auipc	x28,0x0
    4101630c:	048e0e13          	addi	x28,x28,72 # 41016350 <fault_label_41>
    41016310:	03c23023          	sd	x28,32(x4) # 20 <SECURE_ACCESS_PROBABILITY+0x2>
    41016314:	00000e13          	li	x28,0
    41016318:	05c23023          	sd	x28,64(x4) # 40 <XLEN>
    4101631c:	00000e13          	li	x28,0
    41016320:	05c23423          	sd	x28,72(x4) # 48 <XLEN+0x8>
    41016324:	00000e17          	auipc	x28,0x0
    41016328:	048e0e13          	addi	x28,x28,72 # 4101636c <excp_return_label_41>
    4101632c:	03c23823          	sd	x28,48(x4) # 30 <SECURE_ACCESS_PROBABILITY+0x12>
    41016330:	00000e13          	li	x28,0
    41016334:	03c23c23          	sd	x28,56(x4) # 38 <SECURE_ACCESS_PROBABILITY+0x1a>
    41016338:	00000e13          	li	x28,0
    4101633c:	07c23023          	sd	x28,96(x4) # 60 <XLEN+0x20>
    41016340:	00000e13          	li	x28,0
    41016344:	07c23423          	sd	x28,104(x4) # 68 <XLEN+0x28>
    41016348:	00000e13          	li	x28,0
    4101634c:	07c23823          	sd	x28,112(x4) # 70 <XLEN+0x30>

0000000041016350 <fault_label_41>:
    41016350:	64a51473          	csrrw	x8,htinst,x10
    41016354:	0049cdb7          	lui	x27,0x49c
    41016358:	ed7d8d9b          	addiw	x27,x27,-297 # 49bed7 <SID_HEXCEP_09_hinval_gvma_vu_stack+0x393ed7>
    4101635c:	00dd9d93          	slli	x27,x27,0xd
    41016360:	008d8d93          	addi	x27,x27,8
    41016364:	000dbc83          	ld	x25,0(x27)
    41016368:	000c8067          	jr	x25

000000004101636c <excp_return_label_41>:
    4101636c:	00018237          	lui	x4,0x18
    41016370:	01600e13          	li	x28,22
    41016374:	05c23823          	sd	x28,80(x4) # 18050 <check_excp_expected_cause>
    41016378:	00000e17          	auipc	x28,0x0
    4101637c:	04ce0e13          	addi	x28,x28,76 # 410163c4 <fault_label_42>
    41016380:	03c23023          	sd	x28,32(x4) # 20 <SECURE_ACCESS_PROBABILITY+0x2>
    41016384:	00000e13          	li	x28,0
    41016388:	05c23023          	sd	x28,64(x4) # 40 <XLEN>
    4101638c:	00000e13          	li	x28,0
    41016390:	05c23423          	sd	x28,72(x4) # 48 <XLEN+0x8>
    41016394:	00000e17          	auipc	x28,0x0
    41016398:	04ce0e13          	addi	x28,x28,76 # 410163e0 <excp_return_label_42>
    4101639c:	03c23823          	sd	x28,48(x4) # 30 <SECURE_ACCESS_PROBABILITY+0x12>
    410163a0:	00000e13          	li	x28,0
    410163a4:	03c23c23          	sd	x28,56(x4) # 38 <SECURE_ACCESS_PROBABILITY+0x1a>
    410163a8:	00000e13          	li	x28,0
    410163ac:	07c23023          	sd	x28,96(x4) # 60 <XLEN+0x20>
    410163b0:	00000e13          	li	x28,0
    410163b4:	07c23423          	sd	x28,104(x4) # 68 <XLEN+0x28>
    410163b8:	00000e13          	li	x28,0
    410163bc:	07c23823          	sd	x28,112(x4) # 70 <XLEN+0x30>
    410163c0:	00000793          	li	x15,0

00000000410163c4 <fault_label_42>:
    410163c4:	6807aef3          	csrrs	x29,hgatp,x15
    410163c8:	0049cab7          	lui	x21,0x49c
    410163cc:	ed7a8a9b          	addiw	x21,x21,-297 # 49bed7 <SID_HEXCEP_09_hinval_gvma_vu_stack+0x393ed7>
    410163d0:	00da9a93          	slli	x21,x21,0xd
    410163d4:	008a8a93          	addi	x21,x21,8
    410163d8:	000ab383          	ld	x7,0(x21)
    410163dc:	00038067          	jr	x7

00000000410163e0 <excp_return_label_42>:
    410163e0:	00018237          	lui	x4,0x18
    410163e4:	01600e13          	li	x28,22
    410163e8:	05c23823          	sd	x28,80(x4) # 18050 <check_excp_expected_cause>
    410163ec:	00000e17          	auipc	x28,0x0
    410163f0:	048e0e13          	addi	x28,x28,72 # 41016434 <fault_label_43>
    410163f4:	03c23023          	sd	x28,32(x4) # 20 <SECURE_ACCESS_PROBABILITY+0x2>
    410163f8:	00000e13          	li	x28,0
    410163fc:	05c23023          	sd	x28,64(x4) # 40 <XLEN>
    41016400:	00000e13          	li	x28,0
    41016404:	05c23423          	sd	x28,72(x4) # 48 <XLEN+0x8>
    41016408:	00000e17          	auipc	x28,0x0
    4101640c:	048e0e13          	addi	x28,x28,72 # 41016450 <excp_return_label_43>
    41016410:	03c23823          	sd	x28,48(x4) # 30 <SECURE_ACCESS_PROBABILITY+0x12>
    41016414:	00000e13          	li	x28,0
    41016418:	03c23c23          	sd	x28,56(x4) # 38 <SECURE_ACCESS_PROBABILITY+0x1a>
    4101641c:	00000e13          	li	x28,0
    41016420:	07c23023          	sd	x28,96(x4) # 60 <XLEN+0x20>
    41016424:	00000e13          	li	x28,0
    41016428:	07c23423          	sd	x28,104(x4) # 68 <XLEN+0x28>
    4101642c:	00000e13          	li	x28,0
    41016430:	07c23823          	sd	x28,112(x4) # 70 <XLEN+0x30>

0000000041016434 <fault_label_43>:
    41016434:	68051e73          	csrrw	x28,hgatp,x10
    41016438:	0049c8b7          	lui	x17,0x49c
    4101643c:	ed78889b          	addiw	x17,x17,-297 # 49bed7 <SID_HEXCEP_09_hinval_gvma_vu_stack+0x393ed7>
    41016440:	00d89893          	slli	x17,x17,0xd
    41016444:	00888893          	addi	x17,x17,8
    41016448:	0008b803          	ld	x16,0(x17)
    4101644c:	00080067          	jr	x16

0000000041016450 <excp_return_label_43>:
    41016450:	00018237          	lui	x4,0x18
    41016454:	01600e13          	li	x28,22
    41016458:	05c23823          	sd	x28,80(x4) # 18050 <check_excp_expected_cause>
    4101645c:	00000e17          	auipc	x28,0x0
    41016460:	04ce0e13          	addi	x28,x28,76 # 410164a8 <fault_label_44>
    41016464:	03c23023          	sd	x28,32(x4) # 20 <SECURE_ACCESS_PROBABILITY+0x2>
    41016468:	00000e13          	li	x28,0
    4101646c:	05c23023          	sd	x28,64(x4) # 40 <XLEN>
    41016470:	00000e13          	li	x28,0
    41016474:	05c23423          	sd	x28,72(x4) # 48 <XLEN+0x8>
    41016478:	00000e17          	auipc	x28,0x0
    4101647c:	04ce0e13          	addi	x28,x28,76 # 410164c4 <excp_return_label_44>
    41016480:	03c23823          	sd	x28,48(x4) # 30 <SECURE_ACCESS_PROBABILITY+0x12>
    41016484:	00000e13          	li	x28,0
    41016488:	03c23c23          	sd	x28,56(x4) # 38 <SECURE_ACCESS_PROBABILITY+0x1a>
    4101648c:	00000e13          	li	x28,0
    41016490:	07c23023          	sd	x28,96(x4) # 60 <XLEN+0x20>
    41016494:	00000e13          	li	x28,0
    41016498:	07c23423          	sd	x28,104(x4) # 68 <XLEN+0x28>
    4101649c:	00000e13          	li	x28,0
    410164a0:	07c23823          	sd	x28,112(x4) # 70 <XLEN+0x30>
    410164a4:	00000413          	li	x8,0

00000000410164a8 <fault_label_44>:
    410164a8:	6a842773          	csrrs	x14,hcontext,x8
    410164ac:	0049cfb7          	lui	x31,0x49c
    410164b0:	ed7f8f9b          	addiw	x31,x31,-297 # 49bed7 <SID_HEXCEP_09_hinval_gvma_vu_stack+0x393ed7>
    410164b4:	00df9f93          	slli	x31,x31,0xd
    410164b8:	008f8f93          	addi	x31,x31,8
    410164bc:	000fbd03          	ld	x26,0(x31)
    410164c0:	000d0067          	jr	x26

00000000410164c4 <excp_return_label_44>:
    410164c4:	00018237          	lui	x4,0x18
    410164c8:	01600e13          	li	x28,22
    410164cc:	05c23823          	sd	x28,80(x4) # 18050 <check_excp_expected_cause>
    410164d0:	00000e17          	auipc	x28,0x0
    410164d4:	048e0e13          	addi	x28,x28,72 # 41016518 <fault_label_45>
    410164d8:	03c23023          	sd	x28,32(x4) # 20 <SECURE_ACCESS_PROBABILITY+0x2>
    410164dc:	00000e13          	li	x28,0
    410164e0:	05c23023          	sd	x28,64(x4) # 40 <XLEN>
    410164e4:	00000e13          	li	x28,0
    410164e8:	05c23423          	sd	x28,72(x4) # 48 <XLEN+0x8>
    410164ec:	00000e17          	auipc	x28,0x0
    410164f0:	048e0e13          	addi	x28,x28,72 # 41016534 <excp_return_label_45>
    410164f4:	03c23823          	sd	x28,48(x4) # 30 <SECURE_ACCESS_PROBABILITY+0x12>
    410164f8:	00000e13          	li	x28,0
    410164fc:	03c23c23          	sd	x28,56(x4) # 38 <SECURE_ACCESS_PROBABILITY+0x1a>
    41016500:	00000e13          	li	x28,0
    41016504:	07c23023          	sd	x28,96(x4) # 60 <XLEN+0x20>
    41016508:	00000e13          	li	x28,0
    4101650c:	07c23423          	sd	x28,104(x4) # 68 <XLEN+0x28>
    41016510:	00000e13          	li	x28,0
    41016514:	07c23823          	sd	x28,112(x4) # 70 <XLEN+0x30>

0000000041016518 <fault_label_45>:
    41016518:	6a851373          	csrrw	x6,hcontext,x10
    4101651c:	0049ce37          	lui	x28,0x49c
    41016520:	ed7e0e1b          	addiw	x28,x28,-297 # 49bed7 <SID_HEXCEP_09_hinval_gvma_vu_stack+0x393ed7>
    41016524:	00de1e13          	slli	x28,x28,0xd
    41016528:	008e0e13          	addi	x28,x28,8
    4101652c:	000e3883          	ld	x17,0(x28)
    41016530:	00088067          	jr	x17

0000000041016534 <excp_return_label_45>:
    41016534:	00018237          	lui	x4,0x18
    41016538:	01600e13          	li	x28,22
    4101653c:	05c23823          	sd	x28,80(x4) # 18050 <check_excp_expected_cause>
    41016540:	00000e17          	auipc	x28,0x0
    41016544:	048e0e13          	addi	x28,x28,72 # 41016588 <fault_label_46>
    41016548:	03c23023          	sd	x28,32(x4) # 20 <SECURE_ACCESS_PROBABILITY+0x2>
    4101654c:	00000e13          	li	x28,0
    41016550:	05c23023          	sd	x28,64(x4) # 40 <XLEN>
    41016554:	00000e13          	li	x28,0
    41016558:	05c23423          	sd	x28,72(x4) # 48 <XLEN+0x8>
    4101655c:	00000e17          	auipc	x28,0x0
    41016560:	04ce0e13          	addi	x28,x28,76 # 410165a8 <excp_return_label_46>
    41016564:	03c23823          	sd	x28,48(x4) # 30 <SECURE_ACCESS_PROBABILITY+0x12>
    41016568:	00000e13          	li	x28,0
    4101656c:	03c23c23          	sd	x28,56(x4) # 38 <SECURE_ACCESS_PROBABILITY+0x1a>
    41016570:	00000e13          	li	x28,0
    41016574:	07c23023          	sd	x28,96(x4) # 60 <XLEN+0x20>
    41016578:	00000e13          	li	x28,0
    4101657c:	07c23423          	sd	x28,104(x4) # 68 <XLEN+0x28>
    41016580:	00000e13          	li	x28,0
    41016584:	07c23823          	sd	x28,112(x4) # 70 <XLEN+0x30>

0000000041016588 <fault_label_46>:
    41016588:	e12023f3          	csrr	x7,hgeip
    4101658c:	00038f93          	mv	x31,x7
    41016590:	0049cfb7          	lui	x31,0x49c
    41016594:	ed7f8f9b          	addiw	x31,x31,-297 # 49bed7 <SID_HEXCEP_09_hinval_gvma_vu_stack+0x393ed7>
    41016598:	00df9f93          	slli	x31,x31,0xd
    4101659c:	008f8f93          	addi	x31,x31,8
    410165a0:	000fbd03          	ld	x26,0(x31)
    410165a4:	000d0067          	jr	x26

00000000410165a8 <excp_return_label_46>:
    410165a8:	0000d137          	lui	x2,0xd
    410165ac:	00013383          	ld	x7,0(x2) # d000 <tp_csr_storage>
    410165b0:	0049cfb7          	lui	x31,0x49c
    410165b4:	ed7f8f9b          	addiw	x31,x31,-297 # 49bed7 <SID_HEXCEP_09_hinval_gvma_vu_stack+0x393ed7>
    410165b8:	00df9f93          	slli	x31,x31,0xd
    410165bc:	0b0f8f93          	addi	x31,x31,176
    410165c0:	00400f13          	li	x30,4
    410165c4:	01efb023          	sd	x30,0(x31)
    410165c8:	000f0fb7          	lui	x31,0xf0
    410165cc:	001f8f9b          	addiw	x31,x31,1 # f0001 <SID_HEXCEP_17_vsstatus_vs0_stack+0x7b001>
    410165d0:	00cf9f93          	slli	x31,x31,0xc
    410165d4:	005f8f93          	addi	x31,x31,5
    410165d8:	00000073          	ecall

00000000410165dc <SID_HEXCEP_05_passed>:
    410165dc:	00f00f9b          	addiw	x31,x0,15
    410165e0:	01cf9f93          	slli	x31,x31,0x1c
    410165e4:	001f8f93          	addi	x31,x31,1
    410165e8:	00000073          	ecall

00000000410165ec <SID_HEXCEP_06>:
    410165ec:	00021137          	lui	x2,0x21
    410165f0:	000012b7          	lui	x5,0x1
    410165f4:	00510133          	add	x2,x2,x5
    410165f8:	ff017113          	andi	x2,x2,-16
    410165fc:	00000913          	li	x18,0
    41016600:	00018237          	lui	x4,0x18
    41016604:	01600e13          	li	x28,22
    41016608:	05c23823          	sd	x28,80(x4) # 18050 <check_excp_expected_cause>
    4101660c:	00000e17          	auipc	x28,0x0
    41016610:	04ce0e13          	addi	x28,x28,76 # 41016658 <fault_label_47>
    41016614:	03c23023          	sd	x28,32(x4) # 20 <SECURE_ACCESS_PROBABILITY+0x2>
    41016618:	00000e13          	li	x28,0
    4101661c:	05c23023          	sd	x28,64(x4) # 40 <XLEN>
    41016620:	00000e13          	li	x28,0
    41016624:	05c23423          	sd	x28,72(x4) # 48 <XLEN+0x8>
    41016628:	00000e17          	auipc	x28,0x0
    4101662c:	04ce0e13          	addi	x28,x28,76 # 41016674 <excp_return_label_47>
    41016630:	03c23823          	sd	x28,48(x4) # 30 <SECURE_ACCESS_PROBABILITY+0x12>
    41016634:	00000e13          	li	x28,0
    41016638:	03c23c23          	sd	x28,56(x4) # 38 <SECURE_ACCESS_PROBABILITY+0x1a>
    4101663c:	00000e13          	li	x28,0
    41016640:	07c23023          	sd	x28,96(x4) # 60 <XLEN+0x20>
    41016644:	00000e13          	li	x28,0
    41016648:	07c23423          	sd	x28,104(x4) # 68 <XLEN+0x28>
    4101664c:	00000e13          	li	x28,0
    41016650:	07c23823          	sd	x28,112(x4) # 70 <XLEN+0x30>
    41016654:	00000a93          	li	x21,0

0000000041016658 <fault_label_47>:
    41016658:	100aadf3          	csrrs	x27,sstatus,x21
    4101665c:	0049c337          	lui	x6,0x49c
    41016660:	ed73031b          	addiw	x6,x6,-297 # 49bed7 <SID_HEXCEP_09_hinval_gvma_vu_stack+0x393ed7>
    41016664:	00d31313          	slli	x6,x6,0xd
    41016668:	00830313          	addi	x6,x6,8
    4101666c:	00033703          	ld	x14,0(x6)
    41016670:	00070067          	jr	x14

0000000041016674 <excp_return_label_47>:
    41016674:	00018237          	lui	x4,0x18
    41016678:	01600e13          	li	x28,22
    4101667c:	05c23823          	sd	x28,80(x4) # 18050 <check_excp_expected_cause>
    41016680:	00000e17          	auipc	x28,0x0
    41016684:	048e0e13          	addi	x28,x28,72 # 410166c8 <fault_label_48>
    41016688:	03c23023          	sd	x28,32(x4) # 20 <SECURE_ACCESS_PROBABILITY+0x2>
    4101668c:	00000e13          	li	x28,0
    41016690:	05c23023          	sd	x28,64(x4) # 40 <XLEN>
    41016694:	00000e13          	li	x28,0
    41016698:	05c23423          	sd	x28,72(x4) # 48 <XLEN+0x8>
    4101669c:	00000e17          	auipc	x28,0x0
    410166a0:	048e0e13          	addi	x28,x28,72 # 410166e4 <excp_return_label_48>
    410166a4:	03c23823          	sd	x28,48(x4) # 30 <SECURE_ACCESS_PROBABILITY+0x12>
    410166a8:	00000e13          	li	x28,0
    410166ac:	03c23c23          	sd	x28,56(x4) # 38 <SECURE_ACCESS_PROBABILITY+0x1a>
    410166b0:	00000e13          	li	x28,0
    410166b4:	07c23023          	sd	x28,96(x4) # 60 <XLEN+0x20>
    410166b8:	00000e13          	li	x28,0
    410166bc:	07c23423          	sd	x28,104(x4) # 68 <XLEN+0x28>
    410166c0:	00000e13          	li	x28,0
    410166c4:	07c23823          	sd	x28,112(x4) # 70 <XLEN+0x30>

00000000410166c8 <fault_label_48>:
    410166c8:	10091ff3          	csrrw	x31,sstatus,x18
    410166cc:	0049c637          	lui	x12,0x49c
    410166d0:	ed76061b          	addiw	x12,x12,-297 # 49bed7 <SID_HEXCEP_09_hinval_gvma_vu_stack+0x393ed7>
    410166d4:	00d61613          	slli	x12,x12,0xd
    410166d8:	00860613          	addi	x12,x12,8
    410166dc:	00063e83          	ld	x29,0(x12)
    410166e0:	000e8067          	jr	x29

00000000410166e4 <excp_return_label_48>:
    410166e4:	00018237          	lui	x4,0x18
    410166e8:	01600e13          	li	x28,22
    410166ec:	05c23823          	sd	x28,80(x4) # 18050 <check_excp_expected_cause>
    410166f0:	00000e17          	auipc	x28,0x0
    410166f4:	04ce0e13          	addi	x28,x28,76 # 4101673c <fault_label_49>
    410166f8:	03c23023          	sd	x28,32(x4) # 20 <SECURE_ACCESS_PROBABILITY+0x2>
    410166fc:	00000e13          	li	x28,0
    41016700:	05c23023          	sd	x28,64(x4) # 40 <XLEN>
    41016704:	00000e13          	li	x28,0
    41016708:	05c23423          	sd	x28,72(x4) # 48 <XLEN+0x8>
    4101670c:	00000e17          	auipc	x28,0x0
    41016710:	04ce0e13          	addi	x28,x28,76 # 41016758 <excp_return_label_49>
    41016714:	03c23823          	sd	x28,48(x4) # 30 <SECURE_ACCESS_PROBABILITY+0x12>
    41016718:	00000e13          	li	x28,0
    4101671c:	03c23c23          	sd	x28,56(x4) # 38 <SECURE_ACCESS_PROBABILITY+0x1a>
    41016720:	00000e13          	li	x28,0
    41016724:	07c23023          	sd	x28,96(x4) # 60 <XLEN+0x20>
    41016728:	00000e13          	li	x28,0
    4101672c:	07c23423          	sd	x28,104(x4) # 68 <XLEN+0x28>
    41016730:	00000e13          	li	x28,0
    41016734:	07c23823          	sd	x28,112(x4) # 70 <XLEN+0x30>
    41016738:	00000a93          	li	x21,0

000000004101673c <fault_label_49>:
    4101673c:	144aa6f3          	csrrs	x13,sip,x21
    41016740:	0049c4b7          	lui	x9,0x49c
    41016744:	ed74849b          	addiw	x9,x9,-297 # 49bed7 <SID_HEXCEP_09_hinval_gvma_vu_stack+0x393ed7>
    41016748:	00d49493          	slli	x9,x9,0xd
    4101674c:	00848493          	addi	x9,x9,8
    41016750:	0004b303          	ld	x6,0(x9)
    41016754:	00030067          	jr	x6

0000000041016758 <excp_return_label_49>:
    41016758:	00018237          	lui	x4,0x18
    4101675c:	01600e13          	li	x28,22
    41016760:	05c23823          	sd	x28,80(x4) # 18050 <check_excp_expected_cause>
    41016764:	00000e17          	auipc	x28,0x0
    41016768:	048e0e13          	addi	x28,x28,72 # 410167ac <fault_label_50>
    4101676c:	03c23023          	sd	x28,32(x4) # 20 <SECURE_ACCESS_PROBABILITY+0x2>
    41016770:	00000e13          	li	x28,0
    41016774:	05c23023          	sd	x28,64(x4) # 40 <XLEN>
    41016778:	00000e13          	li	x28,0
    4101677c:	05c23423          	sd	x28,72(x4) # 48 <XLEN+0x8>
    41016780:	00000e17          	auipc	x28,0x0
    41016784:	048e0e13          	addi	x28,x28,72 # 410167c8 <excp_return_label_50>
    41016788:	03c23823          	sd	x28,48(x4) # 30 <SECURE_ACCESS_PROBABILITY+0x12>
    4101678c:	00000e13          	li	x28,0
    41016790:	03c23c23          	sd	x28,56(x4) # 38 <SECURE_ACCESS_PROBABILITY+0x1a>
    41016794:	00000e13          	li	x28,0
    41016798:	07c23023          	sd	x28,96(x4) # 60 <XLEN+0x20>
    4101679c:	00000e13          	li	x28,0
    410167a0:	07c23423          	sd	x28,104(x4) # 68 <XLEN+0x28>
    410167a4:	00000e13          	li	x28,0
    410167a8:	07c23823          	sd	x28,112(x4) # 70 <XLEN+0x30>

00000000410167ac <fault_label_50>:
    410167ac:	14491a73          	csrrw	x20,sip,x18
    410167b0:	0049c437          	lui	x8,0x49c
    410167b4:	ed74041b          	addiw	x8,x8,-297 # 49bed7 <SID_HEXCEP_09_hinval_gvma_vu_stack+0x393ed7>
    410167b8:	00d41413          	slli	x8,x8,0xd
    410167bc:	00840413          	addi	x8,x8,8
    410167c0:	00043483          	ld	x9,0(x8)
    410167c4:	00048067          	jr	x9

00000000410167c8 <excp_return_label_50>:
    410167c8:	00018237          	lui	x4,0x18
    410167cc:	01600e13          	li	x28,22
    410167d0:	05c23823          	sd	x28,80(x4) # 18050 <check_excp_expected_cause>
    410167d4:	00000e17          	auipc	x28,0x0
    410167d8:	04ce0e13          	addi	x28,x28,76 # 41016820 <fault_label_51>
    410167dc:	03c23023          	sd	x28,32(x4) # 20 <SECURE_ACCESS_PROBABILITY+0x2>
    410167e0:	00000e13          	li	x28,0
    410167e4:	05c23023          	sd	x28,64(x4) # 40 <XLEN>
    410167e8:	00000e13          	li	x28,0
    410167ec:	05c23423          	sd	x28,72(x4) # 48 <XLEN+0x8>
    410167f0:	00000e17          	auipc	x28,0x0
    410167f4:	04ce0e13          	addi	x28,x28,76 # 4101683c <excp_return_label_51>
    410167f8:	03c23823          	sd	x28,48(x4) # 30 <SECURE_ACCESS_PROBABILITY+0x12>
    410167fc:	00000e13          	li	x28,0
    41016800:	03c23c23          	sd	x28,56(x4) # 38 <SECURE_ACCESS_PROBABILITY+0x1a>
    41016804:	00000e13          	li	x28,0
    41016808:	07c23023          	sd	x28,96(x4) # 60 <XLEN+0x20>
    4101680c:	00000e13          	li	x28,0
    41016810:	07c23423          	sd	x28,104(x4) # 68 <XLEN+0x28>
    41016814:	00000e13          	li	x28,0
    41016818:	07c23823          	sd	x28,112(x4) # 70 <XLEN+0x30>
    4101681c:	00000593          	li	x11,0

0000000041016820 <fault_label_51>:
    41016820:	1045a7f3          	csrrs	x15,sie,x11
    41016824:	0049c3b7          	lui	x7,0x49c
    41016828:	ed73839b          	addiw	x7,x7,-297 # 49bed7 <SID_HEXCEP_09_hinval_gvma_vu_stack+0x393ed7>
    4101682c:	00d39393          	slli	x7,x7,0xd
    41016830:	00838393          	addi	x7,x7,8
    41016834:	0003b603          	ld	x12,0(x7)
    41016838:	00060067          	jr	x12

000000004101683c <excp_return_label_51>:
    4101683c:	00018237          	lui	x4,0x18
    41016840:	01600e13          	li	x28,22
    41016844:	05c23823          	sd	x28,80(x4) # 18050 <check_excp_expected_cause>
    41016848:	00000e17          	auipc	x28,0x0
    4101684c:	048e0e13          	addi	x28,x28,72 # 41016890 <fault_label_52>
    41016850:	03c23023          	sd	x28,32(x4) # 20 <SECURE_ACCESS_PROBABILITY+0x2>
    41016854:	00000e13          	li	x28,0
    41016858:	05c23023          	sd	x28,64(x4) # 40 <XLEN>
    4101685c:	00000e13          	li	x28,0
    41016860:	05c23423          	sd	x28,72(x4) # 48 <XLEN+0x8>
    41016864:	00000e17          	auipc	x28,0x0
    41016868:	048e0e13          	addi	x28,x28,72 # 410168ac <excp_return_label_52>
    4101686c:	03c23823          	sd	x28,48(x4) # 30 <SECURE_ACCESS_PROBABILITY+0x12>
    41016870:	00000e13          	li	x28,0
    41016874:	03c23c23          	sd	x28,56(x4) # 38 <SECURE_ACCESS_PROBABILITY+0x1a>
    41016878:	00000e13          	li	x28,0
    4101687c:	07c23023          	sd	x28,96(x4) # 60 <XLEN+0x20>
    41016880:	00000e13          	li	x28,0
    41016884:	07c23423          	sd	x28,104(x4) # 68 <XLEN+0x28>
    41016888:	00000e13          	li	x28,0
    4101688c:	07c23823          	sd	x28,112(x4) # 70 <XLEN+0x30>

0000000041016890 <fault_label_52>:
    41016890:	10491573          	csrrw	x10,sie,x18
    41016894:	0049c537          	lui	x10,0x49c
    41016898:	ed75051b          	addiw	x10,x10,-297 # 49bed7 <SID_HEXCEP_09_hinval_gvma_vu_stack+0x393ed7>
    4101689c:	00d51513          	slli	x10,x10,0xd
    410168a0:	00850513          	addi	x10,x10,8
    410168a4:	00053503          	ld	x10,0(x10)
    410168a8:	00050067          	jr	x10

00000000410168ac <excp_return_label_52>:
    410168ac:	00018237          	lui	x4,0x18
    410168b0:	01600e13          	li	x28,22
    410168b4:	05c23823          	sd	x28,80(x4) # 18050 <check_excp_expected_cause>
    410168b8:	00000e17          	auipc	x28,0x0
    410168bc:	04ce0e13          	addi	x28,x28,76 # 41016904 <fault_label_53>
    410168c0:	03c23023          	sd	x28,32(x4) # 20 <SECURE_ACCESS_PROBABILITY+0x2>
    410168c4:	00000e13          	li	x28,0
    410168c8:	05c23023          	sd	x28,64(x4) # 40 <XLEN>
    410168cc:	00000e13          	li	x28,0
    410168d0:	05c23423          	sd	x28,72(x4) # 48 <XLEN+0x8>
    410168d4:	00000e17          	auipc	x28,0x0
    410168d8:	04ce0e13          	addi	x28,x28,76 # 41016920 <excp_return_label_53>
    410168dc:	03c23823          	sd	x28,48(x4) # 30 <SECURE_ACCESS_PROBABILITY+0x12>
    410168e0:	00000e13          	li	x28,0
    410168e4:	03c23c23          	sd	x28,56(x4) # 38 <SECURE_ACCESS_PROBABILITY+0x1a>
    410168e8:	00000e13          	li	x28,0
    410168ec:	07c23023          	sd	x28,96(x4) # 60 <XLEN+0x20>
    410168f0:	00000e13          	li	x28,0
    410168f4:	07c23423          	sd	x28,104(x4) # 68 <XLEN+0x28>
    410168f8:	00000e13          	li	x28,0
    410168fc:	07c23823          	sd	x28,112(x4) # 70 <XLEN+0x30>
    41016900:	00000e13          	li	x28,0

0000000041016904 <fault_label_53>:
    41016904:	105e2d73          	csrrs	x26,stvec,x28
    41016908:	0049cdb7          	lui	x27,0x49c
    4101690c:	ed7d8d9b          	addiw	x27,x27,-297 # 49bed7 <SID_HEXCEP_09_hinval_gvma_vu_stack+0x393ed7>
    41016910:	00dd9d93          	slli	x27,x27,0xd
    41016914:	008d8d93          	addi	x27,x27,8
    41016918:	000dbb03          	ld	x22,0(x27)
    4101691c:	000b0067          	jr	x22

0000000041016920 <excp_return_label_53>:
    41016920:	00018237          	lui	x4,0x18
    41016924:	01600e13          	li	x28,22
    41016928:	05c23823          	sd	x28,80(x4) # 18050 <check_excp_expected_cause>
    4101692c:	00000e17          	auipc	x28,0x0
    41016930:	048e0e13          	addi	x28,x28,72 # 41016974 <fault_label_54>
    41016934:	03c23023          	sd	x28,32(x4) # 20 <SECURE_ACCESS_PROBABILITY+0x2>
    41016938:	00000e13          	li	x28,0
    4101693c:	05c23023          	sd	x28,64(x4) # 40 <XLEN>
    41016940:	00000e13          	li	x28,0
    41016944:	05c23423          	sd	x28,72(x4) # 48 <XLEN+0x8>
    41016948:	00000e17          	auipc	x28,0x0
    4101694c:	048e0e13          	addi	x28,x28,72 # 41016990 <excp_return_label_54>
    41016950:	03c23823          	sd	x28,48(x4) # 30 <SECURE_ACCESS_PROBABILITY+0x12>
    41016954:	00000e13          	li	x28,0
    41016958:	03c23c23          	sd	x28,56(x4) # 38 <SECURE_ACCESS_PROBABILITY+0x1a>
    4101695c:	00000e13          	li	x28,0
    41016960:	07c23023          	sd	x28,96(x4) # 60 <XLEN+0x20>
    41016964:	00000e13          	li	x28,0
    41016968:	07c23423          	sd	x28,104(x4) # 68 <XLEN+0x28>
    4101696c:	00000e13          	li	x28,0
    41016970:	07c23823          	sd	x28,112(x4) # 70 <XLEN+0x30>

0000000041016974 <fault_label_54>:
    41016974:	10591673          	csrrw	x12,stvec,x18
    41016978:	0049ccb7          	lui	x25,0x49c
    4101697c:	ed7c8c9b          	addiw	x25,x25,-297 # 49bed7 <SID_HEXCEP_09_hinval_gvma_vu_stack+0x393ed7>
    41016980:	00dc9c93          	slli	x25,x25,0xd
    41016984:	008c8c93          	addi	x25,x25,8
    41016988:	000cb303          	ld	x6,0(x25)
    4101698c:	00030067          	jr	x6

0000000041016990 <excp_return_label_54>:
    41016990:	00018237          	lui	x4,0x18
    41016994:	01600e13          	li	x28,22
    41016998:	05c23823          	sd	x28,80(x4) # 18050 <check_excp_expected_cause>
    4101699c:	00000e17          	auipc	x28,0x0
    410169a0:	04ce0e13          	addi	x28,x28,76 # 410169e8 <fault_label_55>
    410169a4:	03c23023          	sd	x28,32(x4) # 20 <SECURE_ACCESS_PROBABILITY+0x2>
    410169a8:	00000e13          	li	x28,0
    410169ac:	05c23023          	sd	x28,64(x4) # 40 <XLEN>
    410169b0:	00000e13          	li	x28,0
    410169b4:	05c23423          	sd	x28,72(x4) # 48 <XLEN+0x8>
    410169b8:	00000e17          	auipc	x28,0x0
    410169bc:	04ce0e13          	addi	x28,x28,76 # 41016a04 <excp_return_label_55>
    410169c0:	03c23823          	sd	x28,48(x4) # 30 <SECURE_ACCESS_PROBABILITY+0x12>
    410169c4:	00000e13          	li	x28,0
    410169c8:	03c23c23          	sd	x28,56(x4) # 38 <SECURE_ACCESS_PROBABILITY+0x1a>
    410169cc:	00000e13          	li	x28,0
    410169d0:	07c23023          	sd	x28,96(x4) # 60 <XLEN+0x20>
    410169d4:	00000e13          	li	x28,0
    410169d8:	07c23423          	sd	x28,104(x4) # 68 <XLEN+0x28>
    410169dc:	00000e13          	li	x28,0
    410169e0:	07c23823          	sd	x28,112(x4) # 70 <XLEN+0x30>
    410169e4:	00000a93          	li	x21,0

00000000410169e8 <fault_label_55>:
    410169e8:	140aa9f3          	csrrs	x19,sscratch,x21
    410169ec:	0049c737          	lui	x14,0x49c
    410169f0:	ed77071b          	addiw	x14,x14,-297 # 49bed7 <SID_HEXCEP_09_hinval_gvma_vu_stack+0x393ed7>
    410169f4:	00d71713          	slli	x14,x14,0xd
    410169f8:	00870713          	addi	x14,x14,8
    410169fc:	00073f83          	ld	x31,0(x14)
    41016a00:	000f8067          	jr	x31

0000000041016a04 <excp_return_label_55>:
    41016a04:	00018237          	lui	x4,0x18
    41016a08:	01600e13          	li	x28,22
    41016a0c:	05c23823          	sd	x28,80(x4) # 18050 <check_excp_expected_cause>
    41016a10:	00000e17          	auipc	x28,0x0
    41016a14:	048e0e13          	addi	x28,x28,72 # 41016a58 <fault_label_56>
    41016a18:	03c23023          	sd	x28,32(x4) # 20 <SECURE_ACCESS_PROBABILITY+0x2>
    41016a1c:	00000e13          	li	x28,0
    41016a20:	05c23023          	sd	x28,64(x4) # 40 <XLEN>
    41016a24:	00000e13          	li	x28,0
    41016a28:	05c23423          	sd	x28,72(x4) # 48 <XLEN+0x8>
    41016a2c:	00000e17          	auipc	x28,0x0
    41016a30:	048e0e13          	addi	x28,x28,72 # 41016a74 <excp_return_label_56>
    41016a34:	03c23823          	sd	x28,48(x4) # 30 <SECURE_ACCESS_PROBABILITY+0x12>
    41016a38:	00000e13          	li	x28,0
    41016a3c:	03c23c23          	sd	x28,56(x4) # 38 <SECURE_ACCESS_PROBABILITY+0x1a>
    41016a40:	00000e13          	li	x28,0
    41016a44:	07c23023          	sd	x28,96(x4) # 60 <XLEN+0x20>
    41016a48:	00000e13          	li	x28,0
    41016a4c:	07c23423          	sd	x28,104(x4) # 68 <XLEN+0x28>
    41016a50:	00000e13          	li	x28,0
    41016a54:	07c23823          	sd	x28,112(x4) # 70 <XLEN+0x30>

0000000041016a58 <fault_label_56>:
    41016a58:	14091473          	csrrw	x8,sscratch,x18
    41016a5c:	0049cb37          	lui	x22,0x49c
    41016a60:	ed7b0b1b          	addiw	x22,x22,-297 # 49bed7 <SID_HEXCEP_09_hinval_gvma_vu_stack+0x393ed7>
    41016a64:	00db1b13          	slli	x22,x22,0xd
    41016a68:	008b0b13          	addi	x22,x22,8
    41016a6c:	000b3e83          	ld	x29,0(x22)
    41016a70:	000e8067          	jr	x29

0000000041016a74 <excp_return_label_56>:
    41016a74:	00018237          	lui	x4,0x18
    41016a78:	01600e13          	li	x28,22
    41016a7c:	05c23823          	sd	x28,80(x4) # 18050 <check_excp_expected_cause>
    41016a80:	00000e17          	auipc	x28,0x0
    41016a84:	04ce0e13          	addi	x28,x28,76 # 41016acc <fault_label_57>
    41016a88:	03c23023          	sd	x28,32(x4) # 20 <SECURE_ACCESS_PROBABILITY+0x2>
    41016a8c:	00000e13          	li	x28,0
    41016a90:	05c23023          	sd	x28,64(x4) # 40 <XLEN>
    41016a94:	00000e13          	li	x28,0
    41016a98:	05c23423          	sd	x28,72(x4) # 48 <XLEN+0x8>
    41016a9c:	00000e17          	auipc	x28,0x0
    41016aa0:	04ce0e13          	addi	x28,x28,76 # 41016ae8 <excp_return_label_57>
    41016aa4:	03c23823          	sd	x28,48(x4) # 30 <SECURE_ACCESS_PROBABILITY+0x12>
    41016aa8:	00000e13          	li	x28,0
    41016aac:	03c23c23          	sd	x28,56(x4) # 38 <SECURE_ACCESS_PROBABILITY+0x1a>
    41016ab0:	00000e13          	li	x28,0
    41016ab4:	07c23023          	sd	x28,96(x4) # 60 <XLEN+0x20>
    41016ab8:	00000e13          	li	x28,0
    41016abc:	07c23423          	sd	x28,104(x4) # 68 <XLEN+0x28>
    41016ac0:	00000e13          	li	x28,0
    41016ac4:	07c23823          	sd	x28,112(x4) # 70 <XLEN+0x30>
    41016ac8:	00000f93          	li	x31,0

0000000041016acc <fault_label_57>:
    41016acc:	141fa5f3          	csrrs	x11,sepc,x31
    41016ad0:	0049c437          	lui	x8,0x49c
    41016ad4:	ed74041b          	addiw	x8,x8,-297 # 49bed7 <SID_HEXCEP_09_hinval_gvma_vu_stack+0x393ed7>
    41016ad8:	00d41413          	slli	x8,x8,0xd
    41016adc:	00840413          	addi	x8,x8,8
    41016ae0:	00043f83          	ld	x31,0(x8)
    41016ae4:	000f8067          	jr	x31

0000000041016ae8 <excp_return_label_57>:
    41016ae8:	00018237          	lui	x4,0x18
    41016aec:	01600e13          	li	x28,22
    41016af0:	05c23823          	sd	x28,80(x4) # 18050 <check_excp_expected_cause>
    41016af4:	00000e17          	auipc	x28,0x0
    41016af8:	048e0e13          	addi	x28,x28,72 # 41016b3c <fault_label_58>
    41016afc:	03c23023          	sd	x28,32(x4) # 20 <SECURE_ACCESS_PROBABILITY+0x2>
    41016b00:	00000e13          	li	x28,0
    41016b04:	05c23023          	sd	x28,64(x4) # 40 <XLEN>
    41016b08:	00000e13          	li	x28,0
    41016b0c:	05c23423          	sd	x28,72(x4) # 48 <XLEN+0x8>
    41016b10:	00000e17          	auipc	x28,0x0
    41016b14:	048e0e13          	addi	x28,x28,72 # 41016b58 <excp_return_label_58>
    41016b18:	03c23823          	sd	x28,48(x4) # 30 <SECURE_ACCESS_PROBABILITY+0x12>
    41016b1c:	00000e13          	li	x28,0
    41016b20:	03c23c23          	sd	x28,56(x4) # 38 <SECURE_ACCESS_PROBABILITY+0x1a>
    41016b24:	00000e13          	li	x28,0
    41016b28:	07c23023          	sd	x28,96(x4) # 60 <XLEN+0x20>
    41016b2c:	00000e13          	li	x28,0
    41016b30:	07c23423          	sd	x28,104(x4) # 68 <XLEN+0x28>
    41016b34:	00000e13          	li	x28,0
    41016b38:	07c23823          	sd	x28,112(x4) # 70 <XLEN+0x30>

0000000041016b3c <fault_label_58>:
    41016b3c:	141913f3          	csrrw	x7,sepc,x18
    41016b40:	0049ccb7          	lui	x25,0x49c
    41016b44:	ed7c8c9b          	addiw	x25,x25,-297 # 49bed7 <SID_HEXCEP_09_hinval_gvma_vu_stack+0x393ed7>
    41016b48:	00dc9c93          	slli	x25,x25,0xd
    41016b4c:	008c8c93          	addi	x25,x25,8
    41016b50:	000cbf83          	ld	x31,0(x25)
    41016b54:	000f8067          	jr	x31

0000000041016b58 <excp_return_label_58>:
    41016b58:	00018237          	lui	x4,0x18
    41016b5c:	01600e13          	li	x28,22
    41016b60:	05c23823          	sd	x28,80(x4) # 18050 <check_excp_expected_cause>
    41016b64:	00000e17          	auipc	x28,0x0
    41016b68:	04ce0e13          	addi	x28,x28,76 # 41016bb0 <fault_label_59>
    41016b6c:	03c23023          	sd	x28,32(x4) # 20 <SECURE_ACCESS_PROBABILITY+0x2>
    41016b70:	00000e13          	li	x28,0
    41016b74:	05c23023          	sd	x28,64(x4) # 40 <XLEN>
    41016b78:	00000e13          	li	x28,0
    41016b7c:	05c23423          	sd	x28,72(x4) # 48 <XLEN+0x8>
    41016b80:	00000e17          	auipc	x28,0x0
    41016b84:	04ce0e13          	addi	x28,x28,76 # 41016bcc <excp_return_label_59>
    41016b88:	03c23823          	sd	x28,48(x4) # 30 <SECURE_ACCESS_PROBABILITY+0x12>
    41016b8c:	00000e13          	li	x28,0
    41016b90:	03c23c23          	sd	x28,56(x4) # 38 <SECURE_ACCESS_PROBABILITY+0x1a>
    41016b94:	00000e13          	li	x28,0
    41016b98:	07c23023          	sd	x28,96(x4) # 60 <XLEN+0x20>
    41016b9c:	00000e13          	li	x28,0
    41016ba0:	07c23423          	sd	x28,104(x4) # 68 <XLEN+0x28>
    41016ba4:	00000e13          	li	x28,0
    41016ba8:	07c23823          	sd	x28,112(x4) # 70 <XLEN+0x30>
    41016bac:	00000e13          	li	x28,0

0000000041016bb0 <fault_label_59>:
    41016bb0:	142e29f3          	csrrs	x19,scause,x28
    41016bb4:	0049c737          	lui	x14,0x49c
    41016bb8:	ed77071b          	addiw	x14,x14,-297 # 49bed7 <SID_HEXCEP_09_hinval_gvma_vu_stack+0x393ed7>
    41016bbc:	00d71713          	slli	x14,x14,0xd
    41016bc0:	00870713          	addi	x14,x14,8
    41016bc4:	00073c03          	ld	x24,0(x14)
    41016bc8:	000c0067          	jr	x24

0000000041016bcc <excp_return_label_59>:
    41016bcc:	00018237          	lui	x4,0x18
    41016bd0:	01600e13          	li	x28,22
    41016bd4:	05c23823          	sd	x28,80(x4) # 18050 <check_excp_expected_cause>
    41016bd8:	00000e17          	auipc	x28,0x0
    41016bdc:	048e0e13          	addi	x28,x28,72 # 41016c20 <fault_label_60>
    41016be0:	03c23023          	sd	x28,32(x4) # 20 <SECURE_ACCESS_PROBABILITY+0x2>
    41016be4:	00000e13          	li	x28,0
    41016be8:	05c23023          	sd	x28,64(x4) # 40 <XLEN>
    41016bec:	00000e13          	li	x28,0
    41016bf0:	05c23423          	sd	x28,72(x4) # 48 <XLEN+0x8>
    41016bf4:	00000e17          	auipc	x28,0x0
    41016bf8:	048e0e13          	addi	x28,x28,72 # 41016c3c <excp_return_label_60>
    41016bfc:	03c23823          	sd	x28,48(x4) # 30 <SECURE_ACCESS_PROBABILITY+0x12>
    41016c00:	00000e13          	li	x28,0
    41016c04:	03c23c23          	sd	x28,56(x4) # 38 <SECURE_ACCESS_PROBABILITY+0x1a>
    41016c08:	00000e13          	li	x28,0
    41016c0c:	07c23023          	sd	x28,96(x4) # 60 <XLEN+0x20>
    41016c10:	00000e13          	li	x28,0
    41016c14:	07c23423          	sd	x28,104(x4) # 68 <XLEN+0x28>
    41016c18:	00000e13          	li	x28,0
    41016c1c:	07c23823          	sd	x28,112(x4) # 70 <XLEN+0x30>

0000000041016c20 <fault_label_60>:
    41016c20:	14291873          	csrrw	x16,scause,x18
    41016c24:	0049cdb7          	lui	x27,0x49c
    41016c28:	ed7d8d9b          	addiw	x27,x27,-297 # 49bed7 <SID_HEXCEP_09_hinval_gvma_vu_stack+0x393ed7>
    41016c2c:	00dd9d93          	slli	x27,x27,0xd
    41016c30:	008d8d93          	addi	x27,x27,8
    41016c34:	000dbb03          	ld	x22,0(x27)
    41016c38:	000b0067          	jr	x22

0000000041016c3c <excp_return_label_60>:
    41016c3c:	00018237          	lui	x4,0x18
    41016c40:	01600e13          	li	x28,22
    41016c44:	05c23823          	sd	x28,80(x4) # 18050 <check_excp_expected_cause>
    41016c48:	00000e17          	auipc	x28,0x0
    41016c4c:	04ce0e13          	addi	x28,x28,76 # 41016c94 <fault_label_61>
    41016c50:	03c23023          	sd	x28,32(x4) # 20 <SECURE_ACCESS_PROBABILITY+0x2>
    41016c54:	00000e13          	li	x28,0
    41016c58:	05c23023          	sd	x28,64(x4) # 40 <XLEN>
    41016c5c:	00000e13          	li	x28,0
    41016c60:	05c23423          	sd	x28,72(x4) # 48 <XLEN+0x8>
    41016c64:	00000e17          	auipc	x28,0x0
    41016c68:	04ce0e13          	addi	x28,x28,76 # 41016cb0 <excp_return_label_61>
    41016c6c:	03c23823          	sd	x28,48(x4) # 30 <SECURE_ACCESS_PROBABILITY+0x12>
    41016c70:	00000e13          	li	x28,0
    41016c74:	03c23c23          	sd	x28,56(x4) # 38 <SECURE_ACCESS_PROBABILITY+0x1a>
    41016c78:	00000e13          	li	x28,0
    41016c7c:	07c23023          	sd	x28,96(x4) # 60 <XLEN+0x20>
    41016c80:	00000e13          	li	x28,0
    41016c84:	07c23423          	sd	x28,104(x4) # 68 <XLEN+0x28>
    41016c88:	00000e13          	li	x28,0
    41016c8c:	07c23823          	sd	x28,112(x4) # 70 <XLEN+0x30>
    41016c90:	00000313          	li	x6,0

0000000041016c94 <fault_label_61>:
    41016c94:	14332473          	csrrs	x8,stval,x6
    41016c98:	0049c7b7          	lui	x15,0x49c
    41016c9c:	ed77879b          	addiw	x15,x15,-297 # 49bed7 <SID_HEXCEP_09_hinval_gvma_vu_stack+0x393ed7>
    41016ca0:	00d79793          	slli	x15,x15,0xd
    41016ca4:	00878793          	addi	x15,x15,8
    41016ca8:	0007b603          	ld	x12,0(x15)
    41016cac:	00060067          	jr	x12

0000000041016cb0 <excp_return_label_61>:
    41016cb0:	00018237          	lui	x4,0x18
    41016cb4:	01600e13          	li	x28,22
    41016cb8:	05c23823          	sd	x28,80(x4) # 18050 <check_excp_expected_cause>
    41016cbc:	00000e17          	auipc	x28,0x0
    41016cc0:	048e0e13          	addi	x28,x28,72 # 41016d04 <fault_label_62>
    41016cc4:	03c23023          	sd	x28,32(x4) # 20 <SECURE_ACCESS_PROBABILITY+0x2>
    41016cc8:	00000e13          	li	x28,0
    41016ccc:	05c23023          	sd	x28,64(x4) # 40 <XLEN>
    41016cd0:	00000e13          	li	x28,0
    41016cd4:	05c23423          	sd	x28,72(x4) # 48 <XLEN+0x8>
    41016cd8:	00000e17          	auipc	x28,0x0
    41016cdc:	048e0e13          	addi	x28,x28,72 # 41016d20 <excp_return_label_62>
    41016ce0:	03c23823          	sd	x28,48(x4) # 30 <SECURE_ACCESS_PROBABILITY+0x12>
    41016ce4:	00000e13          	li	x28,0
    41016ce8:	03c23c23          	sd	x28,56(x4) # 38 <SECURE_ACCESS_PROBABILITY+0x1a>
    41016cec:	00000e13          	li	x28,0
    41016cf0:	07c23023          	sd	x28,96(x4) # 60 <XLEN+0x20>
    41016cf4:	00000e13          	li	x28,0
    41016cf8:	07c23423          	sd	x28,104(x4) # 68 <XLEN+0x28>
    41016cfc:	00000e13          	li	x28,0
    41016d00:	07c23823          	sd	x28,112(x4) # 70 <XLEN+0x30>

0000000041016d04 <fault_label_62>:
    41016d04:	143916f3          	csrrw	x13,stval,x18
    41016d08:	0049ceb7          	lui	x29,0x49c
    41016d0c:	ed7e8e9b          	addiw	x29,x29,-297 # 49bed7 <SID_HEXCEP_09_hinval_gvma_vu_stack+0x393ed7>
    41016d10:	00de9e93          	slli	x29,x29,0xd
    41016d14:	008e8e93          	addi	x29,x29,8
    41016d18:	000eb683          	ld	x13,0(x29)
    41016d1c:	00068067          	jr	x13

0000000041016d20 <excp_return_label_62>:
    41016d20:	00018237          	lui	x4,0x18
    41016d24:	01600e13          	li	x28,22
    41016d28:	05c23823          	sd	x28,80(x4) # 18050 <check_excp_expected_cause>
    41016d2c:	00000e17          	auipc	x28,0x0
    41016d30:	04ce0e13          	addi	x28,x28,76 # 41016d78 <fault_label_63>
    41016d34:	03c23023          	sd	x28,32(x4) # 20 <SECURE_ACCESS_PROBABILITY+0x2>
    41016d38:	00000e13          	li	x28,0
    41016d3c:	05c23023          	sd	x28,64(x4) # 40 <XLEN>
    41016d40:	00000e13          	li	x28,0
    41016d44:	05c23423          	sd	x28,72(x4) # 48 <XLEN+0x8>
    41016d48:	00000e17          	auipc	x28,0x0
    41016d4c:	04ce0e13          	addi	x28,x28,76 # 41016d94 <excp_return_label_63>
    41016d50:	03c23823          	sd	x28,48(x4) # 30 <SECURE_ACCESS_PROBABILITY+0x12>
    41016d54:	00000e13          	li	x28,0
    41016d58:	03c23c23          	sd	x28,56(x4) # 38 <SECURE_ACCESS_PROBABILITY+0x1a>
    41016d5c:	00000e13          	li	x28,0
    41016d60:	07c23023          	sd	x28,96(x4) # 60 <XLEN+0x20>
    41016d64:	00000e13          	li	x28,0
    41016d68:	07c23423          	sd	x28,104(x4) # 68 <XLEN+0x28>
    41016d6c:	00000e13          	li	x28,0
    41016d70:	07c23823          	sd	x28,112(x4) # 70 <XLEN+0x30>
    41016d74:	00000813          	li	x16,0

0000000041016d78 <fault_label_63>:
    41016d78:	18082d73          	csrrs	x26,satp,x16
    41016d7c:	0049c7b7          	lui	x15,0x49c
    41016d80:	ed77879b          	addiw	x15,x15,-297 # 49bed7 <SID_HEXCEP_09_hinval_gvma_vu_stack+0x393ed7>
    41016d84:	00d79793          	slli	x15,x15,0xd
    41016d88:	00878793          	addi	x15,x15,8
    41016d8c:	0007b703          	ld	x14,0(x15)
    41016d90:	00070067          	jr	x14

0000000041016d94 <excp_return_label_63>:
    41016d94:	00018237          	lui	x4,0x18
    41016d98:	01600e13          	li	x28,22
    41016d9c:	05c23823          	sd	x28,80(x4) # 18050 <check_excp_expected_cause>
    41016da0:	00000e17          	auipc	x28,0x0
    41016da4:	048e0e13          	addi	x28,x28,72 # 41016de8 <fault_label_64>
    41016da8:	03c23023          	sd	x28,32(x4) # 20 <SECURE_ACCESS_PROBABILITY+0x2>
    41016dac:	00000e13          	li	x28,0
    41016db0:	05c23023          	sd	x28,64(x4) # 40 <XLEN>
    41016db4:	00000e13          	li	x28,0
    41016db8:	05c23423          	sd	x28,72(x4) # 48 <XLEN+0x8>
    41016dbc:	00000e17          	auipc	x28,0x0
    41016dc0:	048e0e13          	addi	x28,x28,72 # 41016e04 <excp_return_label_64>
    41016dc4:	03c23823          	sd	x28,48(x4) # 30 <SECURE_ACCESS_PROBABILITY+0x12>
    41016dc8:	00000e13          	li	x28,0
    41016dcc:	03c23c23          	sd	x28,56(x4) # 38 <SECURE_ACCESS_PROBABILITY+0x1a>
    41016dd0:	00000e13          	li	x28,0
    41016dd4:	07c23023          	sd	x28,96(x4) # 60 <XLEN+0x20>
    41016dd8:	00000e13          	li	x28,0
    41016ddc:	07c23423          	sd	x28,104(x4) # 68 <XLEN+0x28>
    41016de0:	00000e13          	li	x28,0
    41016de4:	07c23823          	sd	x28,112(x4) # 70 <XLEN+0x30>

0000000041016de8 <fault_label_64>:
    41016de8:	180918f3          	csrrw	x17,satp,x18
    41016dec:	0049c3b7          	lui	x7,0x49c
    41016df0:	ed73839b          	addiw	x7,x7,-297 # 49bed7 <SID_HEXCEP_09_hinval_gvma_vu_stack+0x393ed7>
    41016df4:	00d39393          	slli	x7,x7,0xd
    41016df8:	00838393          	addi	x7,x7,8
    41016dfc:	0003bb83          	ld	x23,0(x7)
    41016e00:	000b8067          	jr	x23

0000000041016e04 <excp_return_label_64>:
    41016e04:	00018237          	lui	x4,0x18
    41016e08:	01600e13          	li	x28,22
    41016e0c:	05c23823          	sd	x28,80(x4) # 18050 <check_excp_expected_cause>
    41016e10:	00000e17          	auipc	x28,0x0
    41016e14:	04ce0e13          	addi	x28,x28,76 # 41016e5c <fault_label_65>
    41016e18:	03c23023          	sd	x28,32(x4) # 20 <SECURE_ACCESS_PROBABILITY+0x2>
    41016e1c:	00000e13          	li	x28,0
    41016e20:	05c23023          	sd	x28,64(x4) # 40 <XLEN>
    41016e24:	00000e13          	li	x28,0
    41016e28:	05c23423          	sd	x28,72(x4) # 48 <XLEN+0x8>
    41016e2c:	00000e17          	auipc	x28,0x0
    41016e30:	04ce0e13          	addi	x28,x28,76 # 41016e78 <excp_return_label_65>
    41016e34:	03c23823          	sd	x28,48(x4) # 30 <SECURE_ACCESS_PROBABILITY+0x12>
    41016e38:	00000e13          	li	x28,0
    41016e3c:	03c23c23          	sd	x28,56(x4) # 38 <SECURE_ACCESS_PROBABILITY+0x1a>
    41016e40:	00000e13          	li	x28,0
    41016e44:	07c23023          	sd	x28,96(x4) # 60 <XLEN+0x20>
    41016e48:	00000e13          	li	x28,0
    41016e4c:	07c23423          	sd	x28,104(x4) # 68 <XLEN+0x28>
    41016e50:	00000e13          	li	x28,0
    41016e54:	07c23823          	sd	x28,112(x4) # 70 <XLEN+0x30>
    41016e58:	00000b13          	li	x22,0

0000000041016e5c <fault_label_65>:
    41016e5c:	106b2af3          	csrrs	x21,scounteren,x22
    41016e60:	0049ca37          	lui	x20,0x49c
    41016e64:	ed7a0a1b          	addiw	x20,x20,-297 # 49bed7 <SID_HEXCEP_09_hinval_gvma_vu_stack+0x393ed7>
    41016e68:	00da1a13          	slli	x20,x20,0xd
    41016e6c:	008a0a13          	addi	x20,x20,8
    41016e70:	000a3a83          	ld	x21,0(x20)
    41016e74:	000a8067          	jr	x21

0000000041016e78 <excp_return_label_65>:
    41016e78:	00018237          	lui	x4,0x18
    41016e7c:	01600e13          	li	x28,22
    41016e80:	05c23823          	sd	x28,80(x4) # 18050 <check_excp_expected_cause>
    41016e84:	00000e17          	auipc	x28,0x0
    41016e88:	048e0e13          	addi	x28,x28,72 # 41016ecc <fault_label_66>
    41016e8c:	03c23023          	sd	x28,32(x4) # 20 <SECURE_ACCESS_PROBABILITY+0x2>
    41016e90:	00000e13          	li	x28,0
    41016e94:	05c23023          	sd	x28,64(x4) # 40 <XLEN>
    41016e98:	00000e13          	li	x28,0
    41016e9c:	05c23423          	sd	x28,72(x4) # 48 <XLEN+0x8>
    41016ea0:	00000e17          	auipc	x28,0x0
    41016ea4:	048e0e13          	addi	x28,x28,72 # 41016ee8 <excp_return_label_66>
    41016ea8:	03c23823          	sd	x28,48(x4) # 30 <SECURE_ACCESS_PROBABILITY+0x12>
    41016eac:	00000e13          	li	x28,0
    41016eb0:	03c23c23          	sd	x28,56(x4) # 38 <SECURE_ACCESS_PROBABILITY+0x1a>
    41016eb4:	00000e13          	li	x28,0
    41016eb8:	07c23023          	sd	x28,96(x4) # 60 <XLEN+0x20>
    41016ebc:	00000e13          	li	x28,0
    41016ec0:	07c23423          	sd	x28,104(x4) # 68 <XLEN+0x28>
    41016ec4:	00000e13          	li	x28,0
    41016ec8:	07c23823          	sd	x28,112(x4) # 70 <XLEN+0x30>

0000000041016ecc <fault_label_66>:
    41016ecc:	10691ff3          	csrrw	x31,scounteren,x18
    41016ed0:	0049c837          	lui	x16,0x49c
    41016ed4:	ed78081b          	addiw	x16,x16,-297 # 49bed7 <SID_HEXCEP_09_hinval_gvma_vu_stack+0x393ed7>
    41016ed8:	00d81813          	slli	x16,x16,0xd
    41016edc:	00880813          	addi	x16,x16,8
    41016ee0:	00083a83          	ld	x21,0(x16)
    41016ee4:	000a8067          	jr	x21

0000000041016ee8 <excp_return_label_66>:
    41016ee8:	00018237          	lui	x4,0x18
    41016eec:	01600e13          	li	x28,22
    41016ef0:	05c23823          	sd	x28,80(x4) # 18050 <check_excp_expected_cause>
    41016ef4:	00000e17          	auipc	x28,0x0
    41016ef8:	04ce0e13          	addi	x28,x28,76 # 41016f40 <fault_label_67>
    41016efc:	03c23023          	sd	x28,32(x4) # 20 <SECURE_ACCESS_PROBABILITY+0x2>
    41016f00:	00000e13          	li	x28,0
    41016f04:	05c23023          	sd	x28,64(x4) # 40 <XLEN>
    41016f08:	00000e13          	li	x28,0
    41016f0c:	05c23423          	sd	x28,72(x4) # 48 <XLEN+0x8>
    41016f10:	00000e17          	auipc	x28,0x0
    41016f14:	04ce0e13          	addi	x28,x28,76 # 41016f5c <excp_return_label_67>
    41016f18:	03c23823          	sd	x28,48(x4) # 30 <SECURE_ACCESS_PROBABILITY+0x12>
    41016f1c:	00000e13          	li	x28,0
    41016f20:	03c23c23          	sd	x28,56(x4) # 38 <SECURE_ACCESS_PROBABILITY+0x1a>
    41016f24:	00000e13          	li	x28,0
    41016f28:	07c23023          	sd	x28,96(x4) # 60 <XLEN+0x20>
    41016f2c:	00000e13          	li	x28,0
    41016f30:	07c23423          	sd	x28,104(x4) # 68 <XLEN+0x28>
    41016f34:	00000e13          	li	x28,0
    41016f38:	07c23823          	sd	x28,112(x4) # 70 <XLEN+0x30>
    41016f3c:	00000713          	li	x14,0

0000000041016f40 <fault_label_67>:
    41016f40:	10a72ff3          	csrrs	x31,0x10a,x14
    41016f44:	0049c6b7          	lui	x13,0x49c
    41016f48:	ed76869b          	addiw	x13,x13,-297 # 49bed7 <SID_HEXCEP_09_hinval_gvma_vu_stack+0x393ed7>
    41016f4c:	00d69693          	slli	x13,x13,0xd
    41016f50:	00868693          	addi	x13,x13,8
    41016f54:	0006bb83          	ld	x23,0(x13)
    41016f58:	000b8067          	jr	x23

0000000041016f5c <excp_return_label_67>:
    41016f5c:	00018237          	lui	x4,0x18
    41016f60:	01600e13          	li	x28,22
    41016f64:	05c23823          	sd	x28,80(x4) # 18050 <check_excp_expected_cause>
    41016f68:	00000e17          	auipc	x28,0x0
    41016f6c:	048e0e13          	addi	x28,x28,72 # 41016fb0 <fault_label_68>
    41016f70:	03c23023          	sd	x28,32(x4) # 20 <SECURE_ACCESS_PROBABILITY+0x2>
    41016f74:	00000e13          	li	x28,0
    41016f78:	05c23023          	sd	x28,64(x4) # 40 <XLEN>
    41016f7c:	00000e13          	li	x28,0
    41016f80:	05c23423          	sd	x28,72(x4) # 48 <XLEN+0x8>
    41016f84:	00000e17          	auipc	x28,0x0
    41016f88:	048e0e13          	addi	x28,x28,72 # 41016fcc <excp_return_label_68>
    41016f8c:	03c23823          	sd	x28,48(x4) # 30 <SECURE_ACCESS_PROBABILITY+0x12>
    41016f90:	00000e13          	li	x28,0
    41016f94:	03c23c23          	sd	x28,56(x4) # 38 <SECURE_ACCESS_PROBABILITY+0x1a>
    41016f98:	00000e13          	li	x28,0
    41016f9c:	07c23023          	sd	x28,96(x4) # 60 <XLEN+0x20>
    41016fa0:	00000e13          	li	x28,0
    41016fa4:	07c23423          	sd	x28,104(x4) # 68 <XLEN+0x28>
    41016fa8:	00000e13          	li	x28,0
    41016fac:	07c23823          	sd	x28,112(x4) # 70 <XLEN+0x30>

0000000041016fb0 <fault_label_68>:
    41016fb0:	10a91c73          	csrrw	x24,0x10a,x18
    41016fb4:	0049c737          	lui	x14,0x49c
    41016fb8:	ed77071b          	addiw	x14,x14,-297 # 49bed7 <SID_HEXCEP_09_hinval_gvma_vu_stack+0x393ed7>
    41016fbc:	00d71713          	slli	x14,x14,0xd
    41016fc0:	00870713          	addi	x14,x14,8
    41016fc4:	00073b83          	ld	x23,0(x14)
    41016fc8:	000b8067          	jr	x23

0000000041016fcc <excp_return_label_68>:
    41016fcc:	00018237          	lui	x4,0x18
    41016fd0:	01600e13          	li	x28,22
    41016fd4:	05c23823          	sd	x28,80(x4) # 18050 <check_excp_expected_cause>
    41016fd8:	00000e17          	auipc	x28,0x0
    41016fdc:	04ce0e13          	addi	x28,x28,76 # 41017024 <fault_label_69>
    41016fe0:	03c23023          	sd	x28,32(x4) # 20 <SECURE_ACCESS_PROBABILITY+0x2>
    41016fe4:	00000e13          	li	x28,0
    41016fe8:	05c23023          	sd	x28,64(x4) # 40 <XLEN>
    41016fec:	00000e13          	li	x28,0
    41016ff0:	05c23423          	sd	x28,72(x4) # 48 <XLEN+0x8>
    41016ff4:	00000e17          	auipc	x28,0x0
    41016ff8:	04ce0e13          	addi	x28,x28,76 # 41017040 <excp_return_label_69>
    41016ffc:	03c23823          	sd	x28,48(x4) # 30 <SECURE_ACCESS_PROBABILITY+0x12>
    41017000:	00000e13          	li	x28,0
    41017004:	03c23c23          	sd	x28,56(x4) # 38 <SECURE_ACCESS_PROBABILITY+0x1a>
    41017008:	00000e13          	li	x28,0
    4101700c:	07c23023          	sd	x28,96(x4) # 60 <XLEN+0x20>
    41017010:	00000e13          	li	x28,0
    41017014:	07c23423          	sd	x28,104(x4) # 68 <XLEN+0x28>
    41017018:	00000e13          	li	x28,0
    4101701c:	07c23823          	sd	x28,112(x4) # 70 <XLEN+0x30>
    41017020:	00000b13          	li	x22,0

0000000041017024 <fault_label_69>:
    41017024:	5a8b28f3          	csrrs	x17,scontext,x22
    41017028:	0049cdb7          	lui	x27,0x49c
    4101702c:	ed7d8d9b          	addiw	x27,x27,-297 # 49bed7 <SID_HEXCEP_09_hinval_gvma_vu_stack+0x393ed7>
    41017030:	00dd9d93          	slli	x27,x27,0xd
    41017034:	008d8d93          	addi	x27,x27,8
    41017038:	000dba83          	ld	x21,0(x27)
    4101703c:	000a8067          	jr	x21

0000000041017040 <excp_return_label_69>:
    41017040:	00018237          	lui	x4,0x18
    41017044:	01600e13          	li	x28,22
    41017048:	05c23823          	sd	x28,80(x4) # 18050 <check_excp_expected_cause>
    4101704c:	00000e17          	auipc	x28,0x0
    41017050:	048e0e13          	addi	x28,x28,72 # 41017094 <fault_label_70>
    41017054:	03c23023          	sd	x28,32(x4) # 20 <SECURE_ACCESS_PROBABILITY+0x2>
    41017058:	00000e13          	li	x28,0
    4101705c:	05c23023          	sd	x28,64(x4) # 40 <XLEN>
    41017060:	00000e13          	li	x28,0
    41017064:	05c23423          	sd	x28,72(x4) # 48 <XLEN+0x8>
    41017068:	00000e17          	auipc	x28,0x0
    4101706c:	048e0e13          	addi	x28,x28,72 # 410170b0 <SID_HEXCEP_06_passed>
    41017070:	03c23823          	sd	x28,48(x4) # 30 <SECURE_ACCESS_PROBABILITY+0x12>
    41017074:	00000e13          	li	x28,0
    41017078:	03c23c23          	sd	x28,56(x4) # 38 <SECURE_ACCESS_PROBABILITY+0x1a>
    4101707c:	00000e13          	li	x28,0
    41017080:	07c23023          	sd	x28,96(x4) # 60 <XLEN+0x20>
    41017084:	00000e13          	li	x28,0
    41017088:	07c23423          	sd	x28,104(x4) # 68 <XLEN+0x28>
    4101708c:	00000e13          	li	x28,0
    41017090:	07c23823          	sd	x28,112(x4) # 70 <XLEN+0x30>

0000000041017094 <fault_label_70>:
    41017094:	5a891bf3          	csrrw	x23,scontext,x18
    41017098:	0049cf37          	lui	x30,0x49c
    4101709c:	ed7f0f1b          	addiw	x30,x30,-297 # 49bed7 <SID_HEXCEP_09_hinval_gvma_vu_stack+0x393ed7>
    410170a0:	00df1f13          	slli	x30,x30,0xd
    410170a4:	008f0f13          	addi	x30,x30,8
    410170a8:	000f3383          	ld	x7,0(x30)
    410170ac:	00038067          	jr	x7

00000000410170b0 <SID_HEXCEP_06_passed>:
    410170b0:	00f00f9b          	addiw	x31,x0,15
    410170b4:	01cf9f93          	slli	x31,x31,0x1c
    410170b8:	001f8f93          	addi	x31,x31,1
    410170bc:	00000073          	ecall

00000000410170c0 <SID_HEXCEP_07_vu_mode_case1>:
    410170c0:	0000d137          	lui	x2,0xd
    410170c4:	0049cfb7          	lui	x31,0x49c
    410170c8:	ed7f8f9b          	addiw	x31,x31,-297 # 49bed7 <SID_HEXCEP_09_hinval_gvma_vu_stack+0x393ed7>
    410170cc:	00df9f93          	slli	x31,x31,0xd
    410170d0:	0b8f8f93          	addi	x31,x31,184
    410170d4:	00500f13          	li	x30,5
    410170d8:	01efb023          	sd	x30,0(x31)
    410170dc:	000f0fb7          	lui	x31,0xf0
    410170e0:	001f8f9b          	addiw	x31,x31,1 # f0001 <SID_HEXCEP_17_vsstatus_vs0_stack+0x7b001>
    410170e4:	00cf9f93          	slli	x31,x31,0xc
    410170e8:	006f8f93          	addi	x31,x31,6
    410170ec:	00000073          	ecall
    410170f0:	00713023          	sd	x7,0(x2) # d000 <tp_csr_storage>
    410170f4:	0049cfb7          	lui	x31,0x49c
    410170f8:	ed7f8f9b          	addiw	x31,x31,-297 # 49bed7 <SID_HEXCEP_09_hinval_gvma_vu_stack+0x393ed7>
    410170fc:	00df9f93          	slli	x31,x31,0xd
    41017100:	0b0f8f93          	addi	x31,x31,176
    41017104:	00600f13          	li	x30,6
    41017108:	01efb023          	sd	x30,0(x31)
    4101710c:	000f0fb7          	lui	x31,0xf0
    41017110:	001f8f9b          	addiw	x31,x31,1 # f0001 <SID_HEXCEP_17_vsstatus_vs0_stack+0x7b001>
    41017114:	00cf9f93          	slli	x31,x31,0xc
    41017118:	005f8f93          	addi	x31,x31,5
    4101711c:	00000073          	ecall
    41017120:	00713423          	sd	x7,8(x2)
    41017124:	0049cfb7          	lui	x31,0x49c
    41017128:	ed7f8f9b          	addiw	x31,x31,-297 # 49bed7 <SID_HEXCEP_09_hinval_gvma_vu_stack+0x393ed7>
    4101712c:	00df9f93          	slli	x31,x31,0xd
    41017130:	0b8f8f93          	addi	x31,x31,184
    41017134:	00700f13          	li	x30,7
    41017138:	01efb023          	sd	x30,0(x31)
    4101713c:	000f0fb7          	lui	x31,0xf0
    41017140:	001f8f9b          	addiw	x31,x31,1 # f0001 <SID_HEXCEP_17_vsstatus_vs0_stack+0x7b001>
    41017144:	00cf9f93          	slli	x31,x31,0xc
    41017148:	006f8f93          	addi	x31,x31,6
    4101714c:	00000073          	ecall
    41017150:	00713823          	sd	x7,16(x2)
    41017154:	0203d137          	lui	x2,0x203d
    41017158:	e891011b          	addiw	x2,x2,-375 # 203ce89 <SID_HEXCEP_19_misaligned_lr_delegated_stack+0xc90e89>
    4101715c:	00c11113          	slli	x2,x2,0xc
    41017160:	000012b7          	lui	x5,0x1
    41017164:	00510133          	add	x2,x2,x5
    41017168:	ff017113          	andi	x2,x2,-16
    4101716c:	0010039b          	addiw	x7,x0,1
    41017170:	02039393          	slli	x7,x7,0x20
    41017174:	fff38393          	addi	x7,x7,-1
    41017178:	0049cfb7          	lui	x31,0x49c
    4101717c:	ed7f8f9b          	addiw	x31,x31,-297 # 49bed7 <SID_HEXCEP_09_hinval_gvma_vu_stack+0x393ed7>
    41017180:	00df9f93          	slli	x31,x31,0xd
    41017184:	0b0f8f93          	addi	x31,x31,176
    41017188:	00800f13          	li	x30,8
    4101718c:	01efb023          	sd	x30,0(x31)
    41017190:	000f0fb7          	lui	x31,0xf0
    41017194:	001f8f9b          	addiw	x31,x31,1 # f0001 <SID_HEXCEP_17_vsstatus_vs0_stack+0x7b001>
    41017198:	00cf9f93          	slli	x31,x31,0xc
    4101719c:	005f8f93          	addi	x31,x31,5
    410171a0:	00000073          	ecall
    410171a4:	0010039b          	addiw	x7,x0,1
    410171a8:	02039393          	slli	x7,x7,0x20
    410171ac:	fff38393          	addi	x7,x7,-1
    410171b0:	0049cfb7          	lui	x31,0x49c
    410171b4:	ed7f8f9b          	addiw	x31,x31,-297 # 49bed7 <SID_HEXCEP_09_hinval_gvma_vu_stack+0x393ed7>
    410171b8:	00df9f93          	slli	x31,x31,0xd
    410171bc:	0b8f8f93          	addi	x31,x31,184
    410171c0:	00900f13          	li	x30,9
    410171c4:	01efb023          	sd	x30,0(x31)
    410171c8:	000f0fb7          	lui	x31,0xf0
    410171cc:	001f8f9b          	addiw	x31,x31,1 # f0001 <SID_HEXCEP_17_vsstatus_vs0_stack+0x7b001>
    410171d0:	00cf9f93          	slli	x31,x31,0xc
    410171d4:	006f8f93          	addi	x31,x31,6
    410171d8:	00000073          	ecall
    410171dc:	0010039b          	addiw	x7,x0,1
    410171e0:	02039393          	slli	x7,x7,0x20
    410171e4:	fff38393          	addi	x7,x7,-1
    410171e8:	0049cfb7          	lui	x31,0x49c
    410171ec:	ed7f8f9b          	addiw	x31,x31,-297 # 49bed7 <SID_HEXCEP_09_hinval_gvma_vu_stack+0x393ed7>
    410171f0:	00df9f93          	slli	x31,x31,0xd
    410171f4:	0b8f8f93          	addi	x31,x31,184
    410171f8:	00a00f13          	li	x30,10
    410171fc:	01efb023          	sd	x30,0(x31)
    41017200:	000f0fb7          	lui	x31,0xf0
    41017204:	001f8f9b          	addiw	x31,x31,1 # f0001 <SID_HEXCEP_17_vsstatus_vs0_stack+0x7b001>
    41017208:	00cf9f93          	slli	x31,x31,0xc
    4101720c:	006f8f93          	addi	x31,x31,6
    41017210:	00000073          	ecall
    41017214:	00018237          	lui	x4,0x18
    41017218:	01600e13          	li	x28,22
    4101721c:	05c23823          	sd	x28,80(x4) # 18050 <check_excp_expected_cause>
    41017220:	00000e17          	auipc	x28,0x0
    41017224:	048e0e13          	addi	x28,x28,72 # 41017268 <fault_label_71>
    41017228:	03c23023          	sd	x28,32(x4) # 20 <SECURE_ACCESS_PROBABILITY+0x2>
    4101722c:	00000e13          	li	x28,0
    41017230:	05c23023          	sd	x28,64(x4) # 40 <XLEN>
    41017234:	00000e13          	li	x28,0
    41017238:	05c23423          	sd	x28,72(x4) # 48 <XLEN+0x8>
    4101723c:	00000e17          	auipc	x28,0x0
    41017240:	04ce0e13          	addi	x28,x28,76 # 41017288 <excp_return_label_71>
    41017244:	03c23823          	sd	x28,48(x4) # 30 <SECURE_ACCESS_PROBABILITY+0x12>
    41017248:	00000e13          	li	x28,0
    4101724c:	03c23c23          	sd	x28,56(x4) # 38 <SECURE_ACCESS_PROBABILITY+0x1a>
    41017250:	00000e13          	li	x28,0
    41017254:	07c23023          	sd	x28,96(x4) # 60 <XLEN+0x20>
    41017258:	00000e13          	li	x28,0
    4101725c:	07c23423          	sd	x28,104(x4) # 68 <XLEN+0x28>
    41017260:	00000e13          	li	x28,0
    41017264:	07c23823          	sd	x28,112(x4) # 70 <XLEN+0x30>

0000000041017268 <fault_label_71>:
    41017268:	c00023f3          	rdcycle	x7
    4101726c:	00038e13          	mv	x28,x7
    41017270:	0049ccb7          	lui	x25,0x49c
    41017274:	ed7c8c9b          	addiw	x25,x25,-297 # 49bed7 <SID_HEXCEP_09_hinval_gvma_vu_stack+0x393ed7>
    41017278:	00dc9c93          	slli	x25,x25,0xd
    4101727c:	008c8c93          	addi	x25,x25,8
    41017280:	000cbc83          	ld	x25,0(x25)
    41017284:	000c8067          	jr	x25

0000000041017288 <excp_return_label_71>:
    41017288:	00018237          	lui	x4,0x18
    4101728c:	01600e13          	li	x28,22
    41017290:	05c23823          	sd	x28,80(x4) # 18050 <check_excp_expected_cause>
    41017294:	00000e17          	auipc	x28,0x0
    41017298:	048e0e13          	addi	x28,x28,72 # 410172dc <fault_label_72>
    4101729c:	03c23023          	sd	x28,32(x4) # 20 <SECURE_ACCESS_PROBABILITY+0x2>
    410172a0:	00000e13          	li	x28,0
    410172a4:	05c23023          	sd	x28,64(x4) # 40 <XLEN>
    410172a8:	00000e13          	li	x28,0
    410172ac:	05c23423          	sd	x28,72(x4) # 48 <XLEN+0x8>
    410172b0:	00000e17          	auipc	x28,0x0
    410172b4:	04ce0e13          	addi	x28,x28,76 # 410172fc <excp_return_label_72>
    410172b8:	03c23823          	sd	x28,48(x4) # 30 <SECURE_ACCESS_PROBABILITY+0x12>
    410172bc:	00000e13          	li	x28,0
    410172c0:	03c23c23          	sd	x28,56(x4) # 38 <SECURE_ACCESS_PROBABILITY+0x1a>
    410172c4:	00000e13          	li	x28,0
    410172c8:	07c23023          	sd	x28,96(x4) # 60 <XLEN+0x20>
    410172cc:	00000e13          	li	x28,0
    410172d0:	07c23423          	sd	x28,104(x4) # 68 <XLEN+0x28>
    410172d4:	00000e13          	li	x28,0
    410172d8:	07c23823          	sd	x28,112(x4) # 70 <XLEN+0x30>

00000000410172dc <fault_label_72>:
    410172dc:	c01023f3          	rdtime	x7
    410172e0:	00038893          	mv	x17,x7
    410172e4:	0049cfb7          	lui	x31,0x49c
    410172e8:	ed7f8f9b          	addiw	x31,x31,-297 # 49bed7 <SID_HEXCEP_09_hinval_gvma_vu_stack+0x393ed7>
    410172ec:	00df9f93          	slli	x31,x31,0xd
    410172f0:	008f8f93          	addi	x31,x31,8
    410172f4:	000fbf03          	ld	x30,0(x31)
    410172f8:	000f0067          	jr	x30

00000000410172fc <excp_return_label_72>:
    410172fc:	00018237          	lui	x4,0x18
    41017300:	01600e13          	li	x28,22
    41017304:	05c23823          	sd	x28,80(x4) # 18050 <check_excp_expected_cause>
    41017308:	00000e17          	auipc	x28,0x0
    4101730c:	048e0e13          	addi	x28,x28,72 # 41017350 <fault_label_73>
    41017310:	03c23023          	sd	x28,32(x4) # 20 <SECURE_ACCESS_PROBABILITY+0x2>
    41017314:	00000e13          	li	x28,0
    41017318:	05c23023          	sd	x28,64(x4) # 40 <XLEN>
    4101731c:	00000e13          	li	x28,0
    41017320:	05c23423          	sd	x28,72(x4) # 48 <XLEN+0x8>
    41017324:	00000e17          	auipc	x28,0x0
    41017328:	04ce0e13          	addi	x28,x28,76 # 41017370 <excp_return_label_73>
    4101732c:	03c23823          	sd	x28,48(x4) # 30 <SECURE_ACCESS_PROBABILITY+0x12>
    41017330:	00000e13          	li	x28,0
    41017334:	03c23c23          	sd	x28,56(x4) # 38 <SECURE_ACCESS_PROBABILITY+0x1a>
    41017338:	00000e13          	li	x28,0
    4101733c:	07c23023          	sd	x28,96(x4) # 60 <XLEN+0x20>
    41017340:	00000e13          	li	x28,0
    41017344:	07c23423          	sd	x28,104(x4) # 68 <XLEN+0x28>
    41017348:	00000e13          	li	x28,0
    4101734c:	07c23823          	sd	x28,112(x4) # 70 <XLEN+0x30>

0000000041017350 <fault_label_73>:
    41017350:	c02023f3          	rdinstret	x7
    41017354:	00038a93          	mv	x21,x7
    41017358:	0049c437          	lui	x8,0x49c
    4101735c:	ed74041b          	addiw	x8,x8,-297 # 49bed7 <SID_HEXCEP_09_hinval_gvma_vu_stack+0x393ed7>
    41017360:	00d41413          	slli	x8,x8,0xd
    41017364:	00840413          	addi	x8,x8,8
    41017368:	00043383          	ld	x7,0(x8)
    4101736c:	00038067          	jr	x7

0000000041017370 <excp_return_label_73>:
    41017370:	00018237          	lui	x4,0x18
    41017374:	01600e13          	li	x28,22
    41017378:	05c23823          	sd	x28,80(x4) # 18050 <check_excp_expected_cause>
    4101737c:	00000e17          	auipc	x28,0x0
    41017380:	048e0e13          	addi	x28,x28,72 # 410173c4 <fault_label_74>
    41017384:	03c23023          	sd	x28,32(x4) # 20 <SECURE_ACCESS_PROBABILITY+0x2>
    41017388:	00000e13          	li	x28,0
    4101738c:	05c23023          	sd	x28,64(x4) # 40 <XLEN>
    41017390:	00000e13          	li	x28,0
    41017394:	05c23423          	sd	x28,72(x4) # 48 <XLEN+0x8>
    41017398:	00000e17          	auipc	x28,0x0
    4101739c:	04ce0e13          	addi	x28,x28,76 # 410173e4 <excp_return_label_74>
    410173a0:	03c23823          	sd	x28,48(x4) # 30 <SECURE_ACCESS_PROBABILITY+0x12>
    410173a4:	00000e13          	li	x28,0
    410173a8:	03c23c23          	sd	x28,56(x4) # 38 <SECURE_ACCESS_PROBABILITY+0x1a>
    410173ac:	00000e13          	li	x28,0
    410173b0:	07c23023          	sd	x28,96(x4) # 60 <XLEN+0x20>
    410173b4:	00000e13          	li	x28,0
    410173b8:	07c23423          	sd	x28,104(x4) # 68 <XLEN+0x28>
    410173bc:	00000e13          	li	x28,0
    410173c0:	07c23823          	sd	x28,112(x4) # 70 <XLEN+0x30>

00000000410173c4 <fault_label_74>:
    410173c4:	c03023f3          	csrr	x7,hpmcounter3
    410173c8:	00038913          	mv	x18,x7
    410173cc:	0049c637          	lui	x12,0x49c
    410173d0:	ed76061b          	addiw	x12,x12,-297 # 49bed7 <SID_HEXCEP_09_hinval_gvma_vu_stack+0x393ed7>
    410173d4:	00d61613          	slli	x12,x12,0xd
    410173d8:	00860613          	addi	x12,x12,8
    410173dc:	00063783          	ld	x15,0(x12)
    410173e0:	00078067          	jr	x15

00000000410173e4 <excp_return_label_74>:
    410173e4:	00018237          	lui	x4,0x18
    410173e8:	01600e13          	li	x28,22
    410173ec:	05c23823          	sd	x28,80(x4) # 18050 <check_excp_expected_cause>
    410173f0:	00000e17          	auipc	x28,0x0
    410173f4:	048e0e13          	addi	x28,x28,72 # 41017438 <fault_label_75>
    410173f8:	03c23023          	sd	x28,32(x4) # 20 <SECURE_ACCESS_PROBABILITY+0x2>
    410173fc:	00000e13          	li	x28,0
    41017400:	05c23023          	sd	x28,64(x4) # 40 <XLEN>
    41017404:	00000e13          	li	x28,0
    41017408:	05c23423          	sd	x28,72(x4) # 48 <XLEN+0x8>
    4101740c:	00000e17          	auipc	x28,0x0
    41017410:	04ce0e13          	addi	x28,x28,76 # 41017458 <excp_return_label_75>
    41017414:	03c23823          	sd	x28,48(x4) # 30 <SECURE_ACCESS_PROBABILITY+0x12>
    41017418:	00000e13          	li	x28,0
    4101741c:	03c23c23          	sd	x28,56(x4) # 38 <SECURE_ACCESS_PROBABILITY+0x1a>
    41017420:	00000e13          	li	x28,0
    41017424:	07c23023          	sd	x28,96(x4) # 60 <XLEN+0x20>
    41017428:	00000e13          	li	x28,0
    4101742c:	07c23423          	sd	x28,104(x4) # 68 <XLEN+0x28>
    41017430:	00000e13          	li	x28,0
    41017434:	07c23823          	sd	x28,112(x4) # 70 <XLEN+0x30>

0000000041017438 <fault_label_75>:
    41017438:	c04023f3          	csrr	x7,hpmcounter4
    4101743c:	00038493          	mv	x9,x7
    41017440:	0049cbb7          	lui	x23,0x49c
    41017444:	ed7b8b9b          	addiw	x23,x23,-297 # 49bed7 <SID_HEXCEP_09_hinval_gvma_vu_stack+0x393ed7>
    41017448:	00db9b93          	slli	x23,x23,0xd
    4101744c:	008b8b93          	addi	x23,x23,8
    41017450:	000bb583          	ld	x11,0(x23)
    41017454:	00058067          	jr	x11

0000000041017458 <excp_return_label_75>:
    41017458:	00018237          	lui	x4,0x18
    4101745c:	01600e13          	li	x28,22
    41017460:	05c23823          	sd	x28,80(x4) # 18050 <check_excp_expected_cause>
    41017464:	00000e17          	auipc	x28,0x0
    41017468:	048e0e13          	addi	x28,x28,72 # 410174ac <fault_label_76>
    4101746c:	03c23023          	sd	x28,32(x4) # 20 <SECURE_ACCESS_PROBABILITY+0x2>
    41017470:	00000e13          	li	x28,0
    41017474:	05c23023          	sd	x28,64(x4) # 40 <XLEN>
    41017478:	00000e13          	li	x28,0
    4101747c:	05c23423          	sd	x28,72(x4) # 48 <XLEN+0x8>
    41017480:	00000e17          	auipc	x28,0x0
    41017484:	04ce0e13          	addi	x28,x28,76 # 410174cc <excp_return_label_76>
    41017488:	03c23823          	sd	x28,48(x4) # 30 <SECURE_ACCESS_PROBABILITY+0x12>
    4101748c:	00000e13          	li	x28,0
    41017490:	03c23c23          	sd	x28,56(x4) # 38 <SECURE_ACCESS_PROBABILITY+0x1a>
    41017494:	00000e13          	li	x28,0
    41017498:	07c23023          	sd	x28,96(x4) # 60 <XLEN+0x20>
    4101749c:	00000e13          	li	x28,0
    410174a0:	07c23423          	sd	x28,104(x4) # 68 <XLEN+0x28>
    410174a4:	00000e13          	li	x28,0
    410174a8:	07c23823          	sd	x28,112(x4) # 70 <XLEN+0x30>

00000000410174ac <fault_label_76>:
    410174ac:	c05023f3          	csrr	x7,hpmcounter5
    410174b0:	00038693          	mv	x13,x7
    410174b4:	0049cdb7          	lui	x27,0x49c
    410174b8:	ed7d8d9b          	addiw	x27,x27,-297 # 49bed7 <SID_HEXCEP_09_hinval_gvma_vu_stack+0x393ed7>
    410174bc:	00dd9d93          	slli	x27,x27,0xd
    410174c0:	008d8d93          	addi	x27,x27,8
    410174c4:	000dbe83          	ld	x29,0(x27)
    410174c8:	000e8067          	jr	x29

00000000410174cc <excp_return_label_76>:
    410174cc:	00018237          	lui	x4,0x18
    410174d0:	01600e13          	li	x28,22
    410174d4:	05c23823          	sd	x28,80(x4) # 18050 <check_excp_expected_cause>
    410174d8:	00000e17          	auipc	x28,0x0
    410174dc:	048e0e13          	addi	x28,x28,72 # 41017520 <fault_label_77>
    410174e0:	03c23023          	sd	x28,32(x4) # 20 <SECURE_ACCESS_PROBABILITY+0x2>
    410174e4:	00000e13          	li	x28,0
    410174e8:	05c23023          	sd	x28,64(x4) # 40 <XLEN>
    410174ec:	00000e13          	li	x28,0
    410174f0:	05c23423          	sd	x28,72(x4) # 48 <XLEN+0x8>
    410174f4:	00000e17          	auipc	x28,0x0
    410174f8:	04ce0e13          	addi	x28,x28,76 # 41017540 <excp_return_label_77>
    410174fc:	03c23823          	sd	x28,48(x4) # 30 <SECURE_ACCESS_PROBABILITY+0x12>
    41017500:	00000e13          	li	x28,0
    41017504:	03c23c23          	sd	x28,56(x4) # 38 <SECURE_ACCESS_PROBABILITY+0x1a>
    41017508:	00000e13          	li	x28,0
    4101750c:	07c23023          	sd	x28,96(x4) # 60 <XLEN+0x20>
    41017510:	00000e13          	li	x28,0
    41017514:	07c23423          	sd	x28,104(x4) # 68 <XLEN+0x28>
    41017518:	00000e13          	li	x28,0
    4101751c:	07c23823          	sd	x28,112(x4) # 70 <XLEN+0x30>

0000000041017520 <fault_label_77>:
    41017520:	c06023f3          	csrr	x7,hpmcounter6
    41017524:	00038d93          	mv	x27,x7
    41017528:	0049ca37          	lui	x20,0x49c
    4101752c:	ed7a0a1b          	addiw	x20,x20,-297 # 49bed7 <SID_HEXCEP_09_hinval_gvma_vu_stack+0x393ed7>
    41017530:	00da1a13          	slli	x20,x20,0xd
    41017534:	008a0a13          	addi	x20,x20,8
    41017538:	000a3a83          	ld	x21,0(x20)
    4101753c:	000a8067          	jr	x21

0000000041017540 <excp_return_label_77>:
    41017540:	00018237          	lui	x4,0x18
    41017544:	01600e13          	li	x28,22
    41017548:	05c23823          	sd	x28,80(x4) # 18050 <check_excp_expected_cause>
    4101754c:	00000e17          	auipc	x28,0x0
    41017550:	048e0e13          	addi	x28,x28,72 # 41017594 <fault_label_78>
    41017554:	03c23023          	sd	x28,32(x4) # 20 <SECURE_ACCESS_PROBABILITY+0x2>
    41017558:	00000e13          	li	x28,0
    4101755c:	05c23023          	sd	x28,64(x4) # 40 <XLEN>
    41017560:	00000e13          	li	x28,0
    41017564:	05c23423          	sd	x28,72(x4) # 48 <XLEN+0x8>
    41017568:	00000e17          	auipc	x28,0x0
    4101756c:	04ce0e13          	addi	x28,x28,76 # 410175b4 <excp_return_label_78>
    41017570:	03c23823          	sd	x28,48(x4) # 30 <SECURE_ACCESS_PROBABILITY+0x12>
    41017574:	00000e13          	li	x28,0
    41017578:	03c23c23          	sd	x28,56(x4) # 38 <SECURE_ACCESS_PROBABILITY+0x1a>
    4101757c:	00000e13          	li	x28,0
    41017580:	07c23023          	sd	x28,96(x4) # 60 <XLEN+0x20>
    41017584:	00000e13          	li	x28,0
    41017588:	07c23423          	sd	x28,104(x4) # 68 <XLEN+0x28>
    4101758c:	00000e13          	li	x28,0
    41017590:	07c23823          	sd	x28,112(x4) # 70 <XLEN+0x30>

0000000041017594 <fault_label_78>:
    41017594:	c07023f3          	csrr	x7,hpmcounter7
    41017598:	00038b93          	mv	x23,x7
    4101759c:	0049ce37          	lui	x28,0x49c
    410175a0:	ed7e0e1b          	addiw	x28,x28,-297 # 49bed7 <SID_HEXCEP_09_hinval_gvma_vu_stack+0x393ed7>
    410175a4:	00de1e13          	slli	x28,x28,0xd
    410175a8:	008e0e13          	addi	x28,x28,8
    410175ac:	000e3983          	ld	x19,0(x28)
    410175b0:	00098067          	jr	x19

00000000410175b4 <excp_return_label_78>:
    410175b4:	00018237          	lui	x4,0x18
    410175b8:	01600e13          	li	x28,22
    410175bc:	05c23823          	sd	x28,80(x4) # 18050 <check_excp_expected_cause>
    410175c0:	00000e17          	auipc	x28,0x0
    410175c4:	048e0e13          	addi	x28,x28,72 # 41017608 <fault_label_79>
    410175c8:	03c23023          	sd	x28,32(x4) # 20 <SECURE_ACCESS_PROBABILITY+0x2>
    410175cc:	00000e13          	li	x28,0
    410175d0:	05c23023          	sd	x28,64(x4) # 40 <XLEN>
    410175d4:	00000e13          	li	x28,0
    410175d8:	05c23423          	sd	x28,72(x4) # 48 <XLEN+0x8>
    410175dc:	00000e17          	auipc	x28,0x0
    410175e0:	04ce0e13          	addi	x28,x28,76 # 41017628 <excp_return_label_79>
    410175e4:	03c23823          	sd	x28,48(x4) # 30 <SECURE_ACCESS_PROBABILITY+0x12>
    410175e8:	00000e13          	li	x28,0
    410175ec:	03c23c23          	sd	x28,56(x4) # 38 <SECURE_ACCESS_PROBABILITY+0x1a>
