
/home/abdullah/RiescueC/riescue/10x_R/zicbom_zicboz_zicbop_zic64b/testsuite/zicbom_zicboz_zicbop_zic64b/user_sv57/tp_zicbom_zicboz_zicbop_zic64b_2:     file format elf64-littleriscv


Disassembly of section .runtime:

0000000041000000 <_start>:
    41000000:	00000093          	li	x1,0
    41000004:	00000113          	li	x2,0
    41000008:	00000193          	li	x3,0
    4100000c:	00000213          	li	x4,0
    41000010:	00000293          	li	x5,0
    41000014:	00000313          	li	x6,0
    41000018:	00000393          	li	x7,0
    4100001c:	00000413          	li	x8,0
    41000020:	00000493          	li	x9,0
    41000024:	00000513          	li	x10,0
    41000028:	00000593          	li	x11,0
    4100002c:	00000613          	li	x12,0
    41000030:	00000693          	li	x13,0
    41000034:	00000713          	li	x14,0
    41000038:	00000793          	li	x15,0
    4100003c:	00000813          	li	x16,0
    41000040:	00000893          	li	x17,0
    41000044:	00000913          	li	x18,0
    41000048:	00000993          	li	x19,0
    4100004c:	00000a13          	li	x20,0
    41000050:	00000a93          	li	x21,0
    41000054:	00000b13          	li	x22,0
    41000058:	00000b93          	li	x23,0
    4100005c:	00000c13          	li	x24,0
    41000060:	00000c93          	li	x25,0
    41000064:	00000d13          	li	x26,0
    41000068:	00000d93          	li	x27,0
    4100006c:	00000e13          	li	x28,0
    41000070:	00000e93          	li	x29,0
    41000074:	00000f13          	li	x30,0
    41000078:	00000f93          	li	x31,0

000000004100007c <loader__load_panic_address>:
    4100007c:	00001297          	auipc	x5,0x1
    41000080:	9e828293          	addi	x5,x5,-1560 # 41000a64 <eot__failed>
    41000084:	30529073          	csrw	mtvec,x5

0000000041000088 <loader__initialize_runtime>:
    41000088:	00000293          	li	x5,0
    4100008c:	3012a2f3          	csrrs	x5,misa,x5

0000000041000090 <loader__set_mstatus>:
    41000090:	000402b7          	lui	x5,0x40
    41000094:	00a2829b          	addiw	x5,x5,10 # 4000a <SID_ZICBO_020_stack+0xa>
    41000098:	3002a2f3          	csrrs	x5,mstatus,x5
    4100009c:	42539237          	lui	x4,0x42539
    410000a0:	34021073          	csrw	mscratch,x4

00000000410000a4 <loader__setup_menvcfg>:
    410000a4:	00000297          	auipc	x5,0x0
    410000a8:	4a828293          	addi	x5,x5,1192 # 4100054c <trap_handler_m__trap_entry>
    410000ac:	30529073          	csrw	mtvec,x5

00000000410000b0 <loader__enable_paging>:
    410000b0:	fffa00b7          	lui	x1,0xfffa0
    410000b4:	0810809b          	addiw	x1,x1,129 # fffffffffffa0081 <__section_os_data_1+0xff1992cd55fe9081>
    410000b8:	02009093          	slli	x1,x1,0x20
    410000bc:	04308093          	addi	x1,x1,67
    410000c0:	00c09093          	slli	x1,x1,0xc
    410000c4:	e5208093          	addi	x1,x1,-430
    410000c8:	18009073          	csrw	satp,x1

00000000410000cc <loader__done>:
    410000cc:	1c10006f          	j	41000a8c <scheduler__init>

00000000410000d0 <loader__panic>:
    410000d0:	1950006f          	j	41000a64 <eot__failed>

00000000410000d4 <syscalls__syscall_check_schedule_next_test>:
    410000d4:	00f0029b          	addiw	x5,x0,15
    410000d8:	01c29293          	slli	x5,x5,0x1c
    410000dc:	00128293          	addi	x5,x5,1
    410000e0:	01f29a63          	bne	x5,x31,410000f4 <syscalls__syscall_check_fail_test>
    410000e4:	00000317          	auipc	x6,0x0
    410000e8:	46830313          	addi	x6,x6,1128 # 4100054c <trap_handler_m__trap_entry>
    410000ec:	30531073          	csrw	mtvec,x6
    410000f0:	6a00006f          	j	41000790 <enter_scheduler>

00000000410000f4 <syscalls__syscall_check_fail_test>:
    410000f4:	00f0029b          	addiw	x5,x0,15
    410000f8:	01c29293          	slli	x5,x5,0x1c
    410000fc:	00228293          	addi	x5,x5,2
    41000100:	01f29a63          	bne	x5,x31,41000114 <syscalls__syscall_check_end_test_without_failure>
    41000104:	00000317          	auipc	x6,0x0
    41000108:	44830313          	addi	x6,x6,1096 # 4100054c <trap_handler_m__trap_entry>
    4100010c:	30531073          	csrw	mtvec,x6
    41000110:	6b00006f          	j	410007c0 <test_failed>

0000000041000114 <syscalls__syscall_check_end_test_without_failure>:
    41000114:	00f0029b          	addiw	x5,x0,15
    41000118:	01c29293          	slli	x5,x5,0x1c
    4100011c:	00328293          	addi	x5,x5,3
    41000120:	01f29a63          	bne	x5,x31,41000134 <syscalls__syscall_check_switch_machine_mode>
    41000124:	00000317          	auipc	x6,0x0
    41000128:	42830313          	addi	x6,x6,1064 # 4100054c <trap_handler_m__trap_entry>
    4100012c:	30531073          	csrw	mtvec,x6
    41000130:	69c0006f          	j	410007cc <os_end_test>

0000000041000134 <syscalls__syscall_check_switch_machine_mode>:
    41000134:	000f02b7          	lui	x5,0xf0
    41000138:	0012829b          	addiw	x5,x5,1 # f0001 <SID_ZICBO_006_stack+0x3d001>
    4100013c:	00c29293          	slli	x5,x5,0xc
    41000140:	00128293          	addi	x5,x5,1
    41000144:	0a5f8463          	beq	x31,x5,410001ec <syscalls__os_fn_f0001001>

0000000041000148 <syscalls__syscall_check_switch_super_mode>:
    41000148:	000f02b7          	lui	x5,0xf0
    4100014c:	0012829b          	addiw	x5,x5,1 # f0001 <SID_ZICBO_006_stack+0x3d001>
    41000150:	00c29293          	slli	x5,x5,0xc
    41000154:	00228293          	addi	x5,x5,2
    41000158:	0c5f8063          	beq	x31,x5,41000218 <syscalls__os_fn_f0001002>

000000004100015c <syscalls__syscall_check_switch_user_mode>:
    4100015c:	000f02b7          	lui	x5,0xf0
    41000160:	0012829b          	addiw	x5,x5,1 # f0001 <SID_ZICBO_006_stack+0x3d001>
    41000164:	00c29293          	slli	x5,x5,0xc
    41000168:	00328293          	addi	x5,x5,3
    4100016c:	0c5f8e63          	beq	x31,x5,41000248 <syscalls__os_fn_f0001003>

0000000041000170 <syscalls__syscall_check_switch_test_mode>:
    41000170:	000f02b7          	lui	x5,0xf0
    41000174:	0012829b          	addiw	x5,x5,1 # f0001 <SID_ZICBO_006_stack+0x3d001>
    41000178:	00c29293          	slli	x5,x5,0xc
    4100017c:	00428293          	addi	x5,x5,4
    41000180:	0c5f8863          	beq	x31,x5,41000250 <syscalls__os_fn_f0001004>

0000000041000184 <syscalls__syscall_machine_csr_rw>:
    41000184:	000f02b7          	lui	x5,0xf0
    41000188:	0012829b          	addiw	x5,x5,1 # f0001 <SID_ZICBO_006_stack+0x3d001>
    4100018c:	00c29293          	slli	x5,x5,0xc
    41000190:	00528293          	addi	x5,x5,5
    41000194:	0e5f8263          	beq	x31,x5,41000278 <syscalls__os_fn_f0001005>

0000000041000198 <syscalls__syscall_supervisor_csr_rw>:
    41000198:	000f02b7          	lui	x5,0xf0
    4100019c:	0012829b          	addiw	x5,x5,1 # f0001 <SID_ZICBO_006_stack+0x3d001>
    410001a0:	00c29293          	slli	x5,x5,0xc
    410001a4:	00628293          	addi	x5,x5,6
    410001a8:	0e5f8e63          	beq	x31,x5,410002a4 <syscalls__os_fn_f0001006>

00000000410001ac <syscalls__syscall_machine_pte_read>:
    410001ac:	000f02b7          	lui	x5,0xf0
    410001b0:	0012829b          	addiw	x5,x5,1 # f0001 <SID_ZICBO_006_stack+0x3d001>
    410001b4:	00c29293          	slli	x5,x5,0xc
    410001b8:	00728293          	addi	x5,x5,7
    410001bc:	105f8c63          	beq	x31,x5,410002d4 <syscalls__os_fn_f0001007>

00000000410001c0 <syscalls__syscall_machine_pte_write>:
    410001c0:	000f02b7          	lui	x5,0xf0
    410001c4:	0012829b          	addiw	x5,x5,1 # f0001 <SID_ZICBO_006_stack+0x3d001>
    410001c8:	00c29293          	slli	x5,x5,0xc
    410001cc:	00828293          	addi	x5,x5,8
    410001d0:	1e5f8863          	beq	x31,x5,410003c0 <syscalls__os_fn_f0001008>

00000000410001d4 <syscalls__syscall_check_get_hart_context>:
    410001d4:	000782b7          	lui	x5,0x78
    410001d8:	0012829b          	addiw	x5,x5,1 # 78001 <mem11+0x36001>
    410001dc:	00d29293          	slli	x5,x5,0xd
    410001e0:	00128293          	addi	x5,x5,1
    410001e4:	2c5f8463          	beq	x31,x5,410004ac <syscalls__os_get_hart_context>
    410001e8:	4c00006f          	j	410006a8 <trap_handler_m__check_exception_label>

00000000410001ec <syscalls__os_fn_f0001001>:
    410001ec:	000022b7          	lui	x5,0x2
    410001f0:	8002829b          	addiw	x5,x5,-2048 # 1800 <pma_region_1_size+0x800>
    410001f4:	3002b073          	csrc	mstatus,x5
    410001f8:	000022b7          	lui	x5,0x2
    410001fc:	8002829b          	addiw	x5,x5,-2048 # 1800 <pma_region_1_size+0x800>
    41000200:	3002a073          	csrs	mstatus,x5
    41000204:	0010029b          	addiw	x5,x0,1
    41000208:	02729293          	slli	x5,x5,0x27
    4100020c:	3002b073          	csrc	mstatus,x5
    41000210:	411952b7          	lui	x5,0x41195
    41000214:	2a80006f          	j	410004bc <syscalls__ret_from_os_fn>

0000000041000218 <syscalls__os_fn_f0001002>:
    41000218:	000022b7          	lui	x5,0x2
    4100021c:	8002829b          	addiw	x5,x5,-2048 # 1800 <pma_region_1_size+0x800>
    41000220:	3002b073          	csrc	mstatus,x5
    41000224:	000012b7          	lui	x5,0x1
    41000228:	8002829b          	addiw	x5,x5,-2048 # 800 <XLEN+0x7c0>
    4100022c:	3002a073          	csrs	mstatus,x5
    41000230:	0010029b          	addiw	x5,x0,1
    41000234:	02729293          	slli	x5,x5,0x27
    41000238:	3002b073          	csrc	mstatus,x5
    4100023c:	12000073          	sfence.vma
    41000240:	410952b7          	lui	x5,0x41095
    41000244:	2780006f          	j	410004bc <syscalls__ret_from_os_fn>

0000000041000248 <syscalls__os_fn_f0001003>:
    41000248:	411152b7          	lui	x5,0x41115
    4100024c:	2700006f          	j	410004bc <syscalls__ret_from_os_fn>

0000000041000250 <syscalls__os_fn_f0001004>:
    41000250:	000022b7          	lui	x5,0x2
    41000254:	8002829b          	addiw	x5,x5,-2048 # 1800 <pma_region_1_size+0x800>
    41000258:	3002b073          	csrc	mstatus,x5
    4100025c:	00000293          	li	x5,0
    41000260:	3002a073          	csrs	mstatus,x5
    41000264:	0010029b          	addiw	x5,x0,1
    41000268:	02729293          	slli	x5,x5,0x27
    4100026c:	3002b073          	csrc	mstatus,x5
    41000270:	17823283          	ld	x5,376(x4) # 42539178 <__section_hart_context+0x178>
    41000274:	2480006f          	j	410004bc <syscalls__ret_from_os_fn>

0000000041000278 <syscalls__os_fn_f0001005>:
    41000278:	000022b7          	lui	x5,0x2
    4100027c:	8002829b          	addiw	x5,x5,-2048 # 1800 <pma_region_1_size+0x800>
    41000280:	3002b073          	csrc	mstatus,x5
    41000284:	000022b7          	lui	x5,0x2
    41000288:	8002829b          	addiw	x5,x5,-2048 # 1800 <pma_region_1_size+0x800>
    4100028c:	3002a073          	csrs	mstatus,x5
    41000290:	0010029b          	addiw	x5,x0,1
    41000294:	02729293          	slli	x5,x5,0x27
    41000298:	3002b073          	csrc	mstatus,x5
    4100029c:	412152b7          	lui	x5,0x41215
    410002a0:	21c0006f          	j	410004bc <syscalls__ret_from_os_fn>

00000000410002a4 <syscalls__os_fn_f0001006>:
    410002a4:	000022b7          	lui	x5,0x2
    410002a8:	8002829b          	addiw	x5,x5,-2048 # 1800 <pma_region_1_size+0x800>
    410002ac:	3002b073          	csrc	mstatus,x5
    410002b0:	000012b7          	lui	x5,0x1
    410002b4:	8002829b          	addiw	x5,x5,-2048 # 800 <XLEN+0x7c0>
    410002b8:	3002a073          	csrs	mstatus,x5
    410002bc:	0010029b          	addiw	x5,x0,1
    410002c0:	02729293          	slli	x5,x5,0x27
    410002c4:	3002b073          	csrc	mstatus,x5
    410002c8:	12000073          	sfence.vma
    410002cc:	412162b7          	lui	x5,0x41216
    410002d0:	1ec0006f          	j	410004bc <syscalls__ret_from_os_fn>

00000000410002d4 <syscalls__os_fn_f0001007>:
    410002d4:	44b38fb7          	lui	x31,0x44b38
    410002d8:	0c8f8f9b          	addiw	x31,x31,200 # 44b380c8 <pte_access_flags_pa>
    410002dc:	000fbf83          	ld	x31,0(x31)
    410002e0:	44b382b7          	lui	x5,0x44b38
    410002e4:	0d02829b          	addiw	x5,x5,208 # 44b380d0 <pte_access_flags_pa+0x8>
    410002e8:	0002b283          	ld	x5,0(x5)
    410002ec:	44b38e37          	lui	x28,0x44b38
    410002f0:	0d8e0e1b          	addiw	x28,x28,216 # 44b380d8 <pte_access_flags_pa+0x10>
    410002f4:	000e3e03          	ld	x28,0(x28)

00000000410002f8 <syscalls__pte_walk_check_glevel_without_gstage_read>:
    410002f8:	fff00f93          	li	x31,-1
    410002fc:	0dfe1063          	bne	x28,x31,410003bc <syscalls__pte_walk_fail_read>
    41000300:	18002373          	csrr	x6,satp
    41000304:	03c35e93          	srli	x29,x6,0x3c
    41000308:	01431313          	slli	x6,x6,0x14
    4100030c:	01435313          	srli	x6,x6,0x14
    41000310:	00c31313          	slli	x6,x6,0xc
    41000314:	ff8e8e93          	addi	x29,x29,-8
    41000318:	003e9f13          	slli	x30,x29,0x3
    4100031c:	01df0eb3          	add	x29,x30,x29
    41000320:	01ee8e93          	addi	x29,x29,30
    41000324:	00000f13          	li	x30,0

0000000041000328 <syscalls__pte_walk_loop_read>:
    41000328:	44b38fb7          	lui	x31,0x44b38
    4100032c:	0c8f8f9b          	addiw	x31,x31,200 # 44b380c8 <pte_access_flags_pa>
    41000330:	000fbf83          	ld	x31,0(x31)
    41000334:	01dfdfb3          	srl	x31,x31,x29
    41000338:	1fffff93          	andi	x31,x31,511
    4100033c:	003f9f93          	slli	x31,x31,0x3
    41000340:	01f30333          	add	x6,x6,x31
    41000344:	005f0e63          	beq	x30,x5,41000360 <syscalls__pte_walk_done_read>
    41000348:	00033f83          	ld	x31,0(x6)
    4100034c:	00afdf93          	srli	x31,x31,0xa
    41000350:	00cf9313          	slli	x6,x31,0xc
    41000354:	001f0f13          	addi	x30,x30,1
    41000358:	ff7e8e93          	addi	x29,x29,-9
    4100035c:	fcdff06f          	j	41000328 <syscalls__pte_walk_loop_read>

0000000041000360 <syscalls__pte_walk_done_read>:
    41000360:	fff00f93          	li	x31,-1
    41000364:	05fe0263          	beq	x28,x31,410003a8 <syscalls__pte_walk_final_read>

0000000041000368 <syscalls__pte_walk_gstage_read>:
    41000368:	44b38fb7          	lui	x31,0x44b38
    4100036c:	0c8f8f9b          	addiw	x31,x31,200 # 44b380c8 <pte_access_flags_pa>
    41000370:	006fb023          	sd	x6,0(x31)
    41000374:	000e0293          	mv	x5,x28
    41000378:	fff00e13          	li	x28,-1
    4100037c:	68002373          	csrr	x6,hgatp
    41000380:	03c35e93          	srli	x29,x6,0x3c
    41000384:	01431313          	slli	x6,x6,0x14
    41000388:	01435313          	srli	x6,x6,0x14
    4100038c:	00c31313          	slli	x6,x6,0xc
    41000390:	ff8e8e93          	addi	x29,x29,-8
    41000394:	003e9f13          	slli	x30,x29,0x3
    41000398:	01df0eb3          	add	x29,x30,x29
    4100039c:	01ee8e93          	addi	x29,x29,30
    410003a0:	00000f13          	li	x30,0
    410003a4:	f85ff06f          	j	41000328 <syscalls__pte_walk_loop_read>

00000000410003a8 <syscalls__pte_walk_final_read>:
    410003a8:	00033383          	ld	x7,0(x6)
    410003ac:	341022f3          	csrr	x5,mepc
    410003b0:	00428293          	addi	x5,x5,4
    410003b4:	16523c23          	sd	x5,376(x4) # 178 <XLEN+0x138>
    410003b8:	e99ff06f          	j	41000250 <syscalls__os_fn_f0001004>

00000000410003bc <syscalls__pte_walk_fail_read>:
    410003bc:	4040006f          	j	410007c0 <test_failed>

00000000410003c0 <syscalls__os_fn_f0001008>:
    410003c0:	44b38fb7          	lui	x31,0x44b38
    410003c4:	0c8f8f9b          	addiw	x31,x31,200 # 44b380c8 <pte_access_flags_pa>
    410003c8:	000fbf83          	ld	x31,0(x31)
    410003cc:	44b382b7          	lui	x5,0x44b38
    410003d0:	0d02829b          	addiw	x5,x5,208 # 44b380d0 <pte_access_flags_pa+0x8>
    410003d4:	0002b283          	ld	x5,0(x5)
    410003d8:	44b38e37          	lui	x28,0x44b38
    410003dc:	0d8e0e1b          	addiw	x28,x28,216 # 44b380d8 <pte_access_flags_pa+0x10>
    410003e0:	000e3e03          	ld	x28,0(x28)

00000000410003e4 <syscalls__pte_walk_check_glevel_without_gstage_write>:
    410003e4:	fff00f93          	li	x31,-1
    410003e8:	0dfe1063          	bne	x28,x31,410004a8 <syscalls__pte_walk_fail_write>
    410003ec:	18002373          	csrr	x6,satp
    410003f0:	03c35e93          	srli	x29,x6,0x3c
    410003f4:	01431313          	slli	x6,x6,0x14
    410003f8:	01435313          	srli	x6,x6,0x14
    410003fc:	00c31313          	slli	x6,x6,0xc
    41000400:	ff8e8e93          	addi	x29,x29,-8
    41000404:	003e9f13          	slli	x30,x29,0x3
    41000408:	01df0eb3          	add	x29,x30,x29
    4100040c:	01ee8e93          	addi	x29,x29,30
    41000410:	00000f13          	li	x30,0

0000000041000414 <syscalls__pte_walk_loop_write>:
    41000414:	44b38fb7          	lui	x31,0x44b38
    41000418:	0c8f8f9b          	addiw	x31,x31,200 # 44b380c8 <pte_access_flags_pa>
    4100041c:	000fbf83          	ld	x31,0(x31)
    41000420:	01dfdfb3          	srl	x31,x31,x29
    41000424:	1fffff93          	andi	x31,x31,511
    41000428:	003f9f93          	slli	x31,x31,0x3
    4100042c:	01f30333          	add	x6,x6,x31
    41000430:	005f0e63          	beq	x30,x5,4100044c <syscalls__pte_walk_done_write>
    41000434:	00033f83          	ld	x31,0(x6)
    41000438:	00afdf93          	srli	x31,x31,0xa
    4100043c:	00cf9313          	slli	x6,x31,0xc
    41000440:	001f0f13          	addi	x30,x30,1
    41000444:	ff7e8e93          	addi	x29,x29,-9
    41000448:	fcdff06f          	j	41000414 <syscalls__pte_walk_loop_write>

000000004100044c <syscalls__pte_walk_done_write>:
    4100044c:	fff00f93          	li	x31,-1
    41000450:	05fe0263          	beq	x28,x31,41000494 <syscalls__pte_walk_final_write>

0000000041000454 <syscalls__pte_walk_gstage_write>:
    41000454:	44b38fb7          	lui	x31,0x44b38
    41000458:	0c8f8f9b          	addiw	x31,x31,200 # 44b380c8 <pte_access_flags_pa>
    4100045c:	006fb023          	sd	x6,0(x31)
    41000460:	000e0293          	mv	x5,x28
    41000464:	fff00e13          	li	x28,-1
    41000468:	68002373          	csrr	x6,hgatp
    4100046c:	03c35e93          	srli	x29,x6,0x3c
    41000470:	01431313          	slli	x6,x6,0x14
    41000474:	01435313          	srli	x6,x6,0x14
    41000478:	00c31313          	slli	x6,x6,0xc
    4100047c:	ff8e8e93          	addi	x29,x29,-8
    41000480:	003e9f13          	slli	x30,x29,0x3
    41000484:	01df0eb3          	add	x29,x30,x29
    41000488:	01ee8e93          	addi	x29,x29,30
    4100048c:	00000f13          	li	x30,0
    41000490:	f85ff06f          	j	41000414 <syscalls__pte_walk_loop_write>

0000000041000494 <syscalls__pte_walk_final_write>:
    41000494:	00733023          	sd	x7,0(x6)
    41000498:	341022f3          	csrr	x5,mepc
    4100049c:	00428293          	addi	x5,x5,4
    410004a0:	16523c23          	sd	x5,376(x4) # 178 <XLEN+0x138>
    410004a4:	dadff06f          	j	41000250 <syscalls__os_fn_f0001004>

00000000410004a8 <syscalls__pte_walk_fail_write>:
    410004a8:	3180006f          	j	410007c0 <test_failed>

00000000410004ac <syscalls__os_get_hart_context>:
    410004ac:	14002573          	csrr	x10,sscratch
    410004b0:	341022f3          	csrr	x5,mepc
    410004b4:	00428293          	addi	x5,x5,4
    410004b8:	0040006f          	j	410004bc <syscalls__ret_from_os_fn>

00000000410004bc <syscalls__ret_from_os_fn>:
    410004bc:	34102373          	csrr	x6,mepc
    410004c0:	00430313          	addi	x6,x6,4
    410004c4:	16623c23          	sd	x6,376(x4) # 178 <XLEN+0x138>
    410004c8:	34129073          	csrw	mepc,x5
    410004cc:	fff00f93          	li	x31,-1
    410004d0:	2a40006f          	j	41000774 <trap_handler_m__skip_xepc_write>

00000000410004d4 <trap_handler_m__invalid_interrupt>:
    410004d4:	2ec0006f          	j	410007c0 <test_failed>

00000000410004d8 <trap_handler_m__clear_all_interrupts>:
    410004d8:	34401073          	csrw	mip,x0
    410004dc:	30200073          	mret

00000000410004e0 <trap_handler_m___CLEAR_SSI>:
    410004e0:	00200293          	li	x5,2
    410004e4:	3442b073          	csrc	mip,x5
    410004e8:	30200073          	mret

00000000410004ec <trap_handler_m___CLEAR_MSI>:
    410004ec:	00800293          	li	x5,8
    410004f0:	3442b073          	csrc	mip,x5
    410004f4:	30200073          	mret

00000000410004f8 <trap_handler_m___CLEAR_STI>:
    410004f8:	02000293          	li	x5,32
    410004fc:	3442b073          	csrc	mip,x5
    41000500:	30200073          	mret

0000000041000504 <trap_handler_m___CLEAR_MTI>:
    41000504:	08000293          	li	x5,128
    41000508:	3442b073          	csrc	mip,x5
    4100050c:	30200073          	mret

0000000041000510 <trap_handler_m___CLEAR_SEI>:
    41000510:	20000293          	li	x5,512
    41000514:	3442b073          	csrc	mip,x5
    41000518:	30200073          	mret

000000004100051c <trap_handler_m___CLEAR_MEI>:
    4100051c:	000012b7          	lui	x5,0x1
    41000520:	8002829b          	addiw	x5,x5,-2048 # 800 <XLEN+0x7c0>
    41000524:	3442b073          	csrc	mip,x5
    41000528:	30200073          	mret

000000004100052c <trap_handler_m___CLEAR_COI>:
    4100052c:	000022b7          	lui	x5,0x2
    41000530:	3442b073          	csrc	mip,x5
    41000534:	30200073          	mret

0000000041000538 <trap_handler_m__clear_highest_priority_interrupt>:
    41000538:	344022f3          	csrr	x5,mip
    4100053c:	40500333          	neg	x6,x5
    41000540:	0062f2b3          	and	x5,x5,x6
    41000544:	3442b073          	csrc	mip,x5
    41000548:	30200073          	mret

000000004100054c <trap_handler_m__trap_entry>:
    4100054c:	0fc0006f          	j	41000648 <trap_handler_m__trap_handler>

0000000041000550 <trap_handler_m__interrupt_vector_table>:
    41000550:	f91ff06f          	j	410004e0 <trap_handler_m___CLEAR_SSI>
    41000554:	f81ff06f          	j	410004d4 <trap_handler_m__invalid_interrupt>
    41000558:	f95ff06f          	j	410004ec <trap_handler_m___CLEAR_MSI>
    4100055c:	f79ff06f          	j	410004d4 <trap_handler_m__invalid_interrupt>
    41000560:	f99ff06f          	j	410004f8 <trap_handler_m___CLEAR_STI>
    41000564:	f71ff06f          	j	410004d4 <trap_handler_m__invalid_interrupt>
    41000568:	f9dff06f          	j	41000504 <trap_handler_m___CLEAR_MTI>
    4100056c:	f69ff06f          	j	410004d4 <trap_handler_m__invalid_interrupt>
    41000570:	fa1ff06f          	j	41000510 <trap_handler_m___CLEAR_SEI>
    41000574:	f61ff06f          	j	410004d4 <trap_handler_m__invalid_interrupt>
    41000578:	fa5ff06f          	j	4100051c <trap_handler_m___CLEAR_MEI>
    4100057c:	f59ff06f          	j	410004d4 <trap_handler_m__invalid_interrupt>
    41000580:	fadff06f          	j	4100052c <trap_handler_m___CLEAR_COI>
    41000584:	f51ff06f          	j	410004d4 <trap_handler_m__invalid_interrupt>
    41000588:	f4dff06f          	j	410004d4 <trap_handler_m__invalid_interrupt>
    4100058c:	fadff06f          	j	41000538 <trap_handler_m__clear_highest_priority_interrupt>
    41000590:	fa9ff06f          	j	41000538 <trap_handler_m__clear_highest_priority_interrupt>
    41000594:	fa5ff06f          	j	41000538 <trap_handler_m__clear_highest_priority_interrupt>
    41000598:	fa1ff06f          	j	41000538 <trap_handler_m__clear_highest_priority_interrupt>
    4100059c:	f9dff06f          	j	41000538 <trap_handler_m__clear_highest_priority_interrupt>
    410005a0:	f99ff06f          	j	41000538 <trap_handler_m__clear_highest_priority_interrupt>
    410005a4:	f95ff06f          	j	41000538 <trap_handler_m__clear_highest_priority_interrupt>
    410005a8:	f91ff06f          	j	41000538 <trap_handler_m__clear_highest_priority_interrupt>
    410005ac:	f8dff06f          	j	41000538 <trap_handler_m__clear_highest_priority_interrupt>
    410005b0:	f89ff06f          	j	41000538 <trap_handler_m__clear_highest_priority_interrupt>
    410005b4:	f85ff06f          	j	41000538 <trap_handler_m__clear_highest_priority_interrupt>
    410005b8:	f81ff06f          	j	41000538 <trap_handler_m__clear_highest_priority_interrupt>
    410005bc:	f7dff06f          	j	41000538 <trap_handler_m__clear_highest_priority_interrupt>
    410005c0:	f79ff06f          	j	41000538 <trap_handler_m__clear_highest_priority_interrupt>
    410005c4:	f75ff06f          	j	41000538 <trap_handler_m__clear_highest_priority_interrupt>
    410005c8:	f71ff06f          	j	41000538 <trap_handler_m__clear_highest_priority_interrupt>
    410005cc:	f6dff06f          	j	41000538 <trap_handler_m__clear_highest_priority_interrupt>
    410005d0:	f69ff06f          	j	41000538 <trap_handler_m__clear_highest_priority_interrupt>
    410005d4:	f65ff06f          	j	41000538 <trap_handler_m__clear_highest_priority_interrupt>
    410005d8:	f61ff06f          	j	41000538 <trap_handler_m__clear_highest_priority_interrupt>
    410005dc:	f5dff06f          	j	41000538 <trap_handler_m__clear_highest_priority_interrupt>
    410005e0:	f59ff06f          	j	41000538 <trap_handler_m__clear_highest_priority_interrupt>
    410005e4:	f55ff06f          	j	41000538 <trap_handler_m__clear_highest_priority_interrupt>
    410005e8:	f51ff06f          	j	41000538 <trap_handler_m__clear_highest_priority_interrupt>
    410005ec:	f4dff06f          	j	41000538 <trap_handler_m__clear_highest_priority_interrupt>
    410005f0:	f49ff06f          	j	41000538 <trap_handler_m__clear_highest_priority_interrupt>
    410005f4:	f45ff06f          	j	41000538 <trap_handler_m__clear_highest_priority_interrupt>
    410005f8:	f41ff06f          	j	41000538 <trap_handler_m__clear_highest_priority_interrupt>
    410005fc:	f3dff06f          	j	41000538 <trap_handler_m__clear_highest_priority_interrupt>
    41000600:	f39ff06f          	j	41000538 <trap_handler_m__clear_highest_priority_interrupt>
    41000604:	f35ff06f          	j	41000538 <trap_handler_m__clear_highest_priority_interrupt>
    41000608:	f31ff06f          	j	41000538 <trap_handler_m__clear_highest_priority_interrupt>
    4100060c:	f2dff06f          	j	41000538 <trap_handler_m__clear_highest_priority_interrupt>
    41000610:	f29ff06f          	j	41000538 <trap_handler_m__clear_highest_priority_interrupt>
    41000614:	f25ff06f          	j	41000538 <trap_handler_m__clear_highest_priority_interrupt>
    41000618:	f21ff06f          	j	41000538 <trap_handler_m__clear_highest_priority_interrupt>
    4100061c:	f1dff06f          	j	41000538 <trap_handler_m__clear_highest_priority_interrupt>
    41000620:	f19ff06f          	j	41000538 <trap_handler_m__clear_highest_priority_interrupt>
    41000624:	f15ff06f          	j	41000538 <trap_handler_m__clear_highest_priority_interrupt>
    41000628:	f11ff06f          	j	41000538 <trap_handler_m__clear_highest_priority_interrupt>
    4100062c:	f0dff06f          	j	41000538 <trap_handler_m__clear_highest_priority_interrupt>
    41000630:	f09ff06f          	j	41000538 <trap_handler_m__clear_highest_priority_interrupt>
    41000634:	f05ff06f          	j	41000538 <trap_handler_m__clear_highest_priority_interrupt>
    41000638:	f01ff06f          	j	41000538 <trap_handler_m__clear_highest_priority_interrupt>
    4100063c:	efdff06f          	j	41000538 <trap_handler_m__clear_highest_priority_interrupt>
    41000640:	ef9ff06f          	j	41000538 <trap_handler_m__clear_highest_priority_interrupt>
    41000644:	ef5ff06f          	j	41000538 <trap_handler_m__clear_highest_priority_interrupt>

0000000041000648 <trap_handler_m__trap_handler>:
    41000648:	342022f3          	csrr	x5,mcause
    4100064c:	fff0031b          	addiw	x6,x0,-1
    41000650:	03f31313          	slli	x6,x6,0x3f
    41000654:	00537333          	and	x6,x6,x5
    41000658:	02030263          	beqz	x6,4100067c <trap_handler_m__exception_path>

000000004100065c <trap_handler_m__interrupt_handler>:
    4100065c:	fff0031b          	addiw	x6,x0,-1
    41000660:	03f31313          	slli	x6,x6,0x3f
    41000664:	0062c2b3          	xor	x5,x5,x6
    41000668:	00000317          	auipc	x6,0x0
    4100066c:	ee430313          	addi	x6,x6,-284 # 4100054c <trap_handler_m__trap_entry>
    41000670:	00229293          	slli	x5,x5,0x2
    41000674:	005302b3          	add	x5,x6,x5
    41000678:	00028067          	jr	x5 # 2000 <mem2>

000000004100067c <trap_handler_m__exception_path>:
    4100067c:	34021273          	csrrw	x4,mscratch,x4
    41000680:	00000297          	auipc	x5,0x0
    41000684:	10828293          	addi	x5,x5,264 # 41000788 <trap_handler_m__trap_panic>
    41000688:	30529073          	csrw	mtvec,x5
    4100068c:	0040006f          	j	41000690 <trap_handler_m__excp_entry>

0000000041000690 <trap_handler_m__excp_entry>:
    41000690:	34202373          	csrr	x6,mcause
    41000694:	00800293          	li	x5,8
    41000698:	00534863          	blt	x6,x5,410006a8 <trap_handler_m__check_exception_label>
    4100069c:	00b00293          	li	x5,11
    410006a0:	0062c463          	blt	x5,x6,410006a8 <trap_handler_m__check_exception_label>
    410006a4:	a31ff06f          	j	410000d4 <syscalls__syscall_check_schedule_next_test>

00000000410006a8 <trap_handler_m__check_exception_label>:
    410006a8:	04623c23          	sd	x6,88(x4) # 58 <XLEN+0x18>
    410006ac:	341022f3          	csrr	x5,mepc
    410006b0:	02523423          	sd	x5,40(x4) # 28 <SECURE_ACCESS_PROBABILITY+0xa>
    410006b4:	01820283          	lb	x5,24(x4) # 18 <STORE_GUEST_PAGE_FAULT+0x1>
    410006b8:	00029863          	bnez	x5,410006c8 <trap_handler_m__check_excp>
    410006bc:	00128293          	addi	x5,x5,1
    410006c0:	00520c23          	sb	x5,24(x4) # 18 <STORE_GUEST_PAGE_FAULT+0x1>
    410006c4:	0980006f          	j	4100075c <trap_handler_m__ecall_from_machine>

00000000410006c8 <trap_handler_m__check_excp>:
    410006c8:	06823283          	ld	x5,104(x4) # 68 <XLEN+0x28>
    410006cc:	06023423          	sd	x0,104(x4) # 68 <XLEN+0x28>
    410006d0:	00028663          	beqz	x5,410006dc <trap_handler_m__skip_mode_check>
    410006d4:	00100393          	li	x7,1
    410006d8:	0e729463          	bne	x5,x7,410007c0 <test_failed>

00000000410006dc <trap_handler_m__skip_mode_check>:
    410006dc:	05023283          	ld	x5,80(x4) # 50 <XLEN+0x10>
    410006e0:	04023823          	sd	x0,80(x4) # 50 <XLEN+0x10>
    410006e4:	0c531e63          	bne	x6,x5,410007c0 <test_failed>
    410006e8:	03823283          	ld	x5,56(x4) # 38 <SECURE_ACCESS_PROBABILITY+0x1a>
    410006ec:	02023c23          	sd	x0,56(x4) # 38 <SECURE_ACCESS_PROBABILITY+0x1a>
    410006f0:	06029463          	bnez	x5,41000758 <trap_handler_m__skip_gva_check>
    410006f4:	02023303          	ld	x6,32(x4) # 20 <SECURE_ACCESS_PROBABILITY+0x2>
    410006f8:	02023023          	sd	x0,32(x4) # 20 <SECURE_ACCESS_PROBABILITY+0x2>
    410006fc:	02823283          	ld	x5,40(x4) # 28 <SECURE_ACCESS_PROBABILITY+0xa>
    41000700:	02023423          	sd	x0,40(x4) # 28 <SECURE_ACCESS_PROBABILITY+0xa>
    41000704:	0a531e63          	bne	x6,x5,410007c0 <test_failed>
    41000708:	04023283          	ld	x5,64(x4) # 40 <XLEN>
    4100070c:	04023023          	sd	x0,64(x4) # 40 <XLEN>
    41000710:	00028663          	beqz	x5,4100071c <trap_handler_m__skip_nonzero_tval_check>

0000000041000714 <trap_handler_m__nonzero_tval_check>:
    41000714:	34302373          	csrr	x6,mtval
    41000718:	0a531463          	bne	x6,x5,410007c0 <test_failed>

000000004100071c <trap_handler_m__skip_nonzero_tval_check>:
    4100071c:	04823283          	ld	x5,72(x4) # 48 <XLEN+0x8>
    41000720:	04023423          	sd	x0,72(x4) # 48 <XLEN+0x8>
    41000724:	00028663          	beqz	x5,41000730 <trap_handler_m__skip_nonzero_htval_check>

0000000041000728 <trap_handler_m__nonzero_htval_check>:
    41000728:	34b02373          	csrr	x6,0x34b
    4100072c:	08531a63          	bne	x6,x5,410007c0 <test_failed>

0000000041000730 <trap_handler_m__skip_nonzero_htval_check>:
    41000730:	06023283          	ld	x5,96(x4) # 60 <XLEN+0x20>
    41000734:	06023023          	sd	x0,96(x4) # 60 <XLEN+0x20>
    41000738:	02028063          	beqz	x5,41000758 <trap_handler_m__skip_gva_check>

000000004100073c <trap_handler_m__gva_check>:
    4100073c:	30002373          	csrr	x6,mstatus
    41000740:	02635313          	srli	x6,x6,0x26
    41000744:	00137313          	andi	x6,x6,1
    41000748:	06030c63          	beqz	x6,410007c0 <test_failed>
    4100074c:	0010031b          	addiw	x6,x0,1
    41000750:	02631313          	slli	x6,x6,0x26
    41000754:	30033073          	csrc	mstatus,x6

0000000041000758 <trap_handler_m__skip_gva_check>:
    41000758:	0040006f          	j	4100075c <trap_handler_m__ecall_from_machine>

000000004100075c <trap_handler_m__ecall_from_machine>:
    4100075c:	03023283          	ld	x5,48(x4) # 30 <SECURE_ACCESS_PROBABILITY+0x12>
    41000760:	02023823          	sd	x0,48(x4) # 30 <SECURE_ACCESS_PROBABILITY+0x12>
    41000764:	07023303          	ld	x6,112(x4) # 70 <XLEN+0x30>
    41000768:	06023823          	sd	x0,112(x4) # 70 <XLEN+0x30>
    4100076c:	00031463          	bnez	x6,41000774 <trap_handler_m__skip_xepc_write>
    41000770:	34129073          	csrw	mepc,x5

0000000041000774 <trap_handler_m__skip_xepc_write>:
    41000774:	00000317          	auipc	x6,0x0
    41000778:	dd830313          	addi	x6,x6,-552 # 4100054c <trap_handler_m__trap_entry>
    4100077c:	30531073          	csrw	mtvec,x6
    41000780:	34021273          	csrrw	x4,mscratch,x4
    41000784:	30200073          	mret

0000000041000788 <trap_handler_m__trap_panic>:
    41000788:	00000193          	li	x3,0
    4100078c:	2b40006f          	j	41000a40 <eot__end_test>

0000000041000790 <enter_scheduler>:
    41000790:	0002f337          	lui	x6,0x2f
    41000794:	ab73031b          	addiw	x6,x6,-1353 # 2eab7 <mem7+0x15ab7>
    41000798:	00e31313          	slli	x6,x6,0xe
    4100079c:	0de30313          	addi	x6,x6,222
    410007a0:	02628063          	beq	x5,x6,410007c0 <test_failed>
    410007a4:	00000513          	li	x10,0
    410007a8:	030000ef          	jal	410007d8 <rvcp_print_test_result>
    410007ac:	3180006f          	j	41000ac4 <scheduler__dispatch>

00000000410007b0 <test_passed>:
    410007b0:	34021273          	csrrw	x4,mscratch,x4
    410007b4:	00000513          	li	x10,0
    410007b8:	020000ef          	jal	410007d8 <rvcp_print_test_result>
    410007bc:	3080006f          	j	41000ac4 <scheduler__dispatch>

00000000410007c0 <test_failed>:
    410007c0:	34021273          	csrrw	x4,mscratch,x4
    410007c4:	00300193          	li	x3,3
    410007c8:	2780006f          	j	41000a40 <eot__end_test>

00000000410007cc <os_end_test>:
    410007cc:	34021273          	csrrw	x4,mscratch,x4
    410007d0:	00100193          	li	x3,1
    410007d4:	26c0006f          	j	41000a40 <eot__end_test>

00000000410007d8 <rvcp_print_test_result>:
    410007d8:	00050e13          	mv	x28,x10
    410007dc:	18823283          	ld	x5,392(x4) # 188 <XLEN+0x148>
    410007e0:	0010031b          	addiw	x6,x0,1
    410007e4:	02031313          	slli	x6,x6,0x20
    410007e8:	ffe30313          	addi	x6,x6,-2
    410007ec:	1c628063          	beq	x5,x6,410009ac <rvcp_print_test_result+0x1d4>
    410007f0:	0010031b          	addiw	x6,x0,1
    410007f4:	02031313          	slli	x6,x6,0x20
    410007f8:	fff30313          	addi	x6,x6,-1
    410007fc:	1a628863          	beq	x5,x6,410009ac <rvcp_print_test_result+0x1d4>
    41000800:	1a02c663          	bltz	x5,410009ac <rvcp_print_test_result+0x1d4>
    41000804:	00000317          	auipc	x6,0x0
    41000808:	4d830313          	addi	x6,x6,1240 # 41000cdc <dtest_descriptor_table>
    4100080c:	00329393          	slli	x7,x5,0x3
    41000810:	00730333          	add	x6,x6,x7
    41000814:	00033e83          	ld	x29,0(x6)
    41000818:	44b38f37          	lui	x30,0x44b38
    4100081c:	030f0f1b          	addiw	x30,x30,48 # 44b38030 <rvcp_prefix_str_pa>
    41000820:	000f4283          	lbu	x5,0(x30)
    41000824:	02028663          	beqz	x5,41000850 <rvcp_print_test_result+0x78>
    41000828:	1010031b          	addiw	x6,x0,257
    4100082c:	03031313          	slli	x6,x6,0x30
    41000830:	005362b3          	or	x5,x6,x5
    41000834:	0003f317          	auipc	x6,0x3f
    41000838:	7cc30313          	addi	x6,x6,1996 # 41040000 <tohost>
    4100083c:	00033383          	ld	x7,0(x6)
    41000840:	fe039ee3          	bnez	x7,4100083c <rvcp_print_test_result+0x64>
    41000844:	00533023          	sd	x5,0(x6)
    41000848:	001f0f13          	addi	x30,x30,1
    4100084c:	fd5ff06f          	j	41000820 <rvcp_print_test_result+0x48>
    41000850:	44b38f37          	lui	x30,0x44b38
    41000854:	041f0f1b          	addiw	x30,x30,65 # 44b38041 <rvcp_testname_str_pa>
    41000858:	000f4283          	lbu	x5,0(x30)
    4100085c:	02028663          	beqz	x5,41000888 <rvcp_print_test_result+0xb0>
    41000860:	1010031b          	addiw	x6,x0,257
    41000864:	03031313          	slli	x6,x6,0x30
    41000868:	005362b3          	or	x5,x6,x5
    4100086c:	0003f317          	auipc	x6,0x3f
    41000870:	79430313          	addi	x6,x6,1940 # 41040000 <tohost>
    41000874:	00033383          	ld	x7,0(x6)
    41000878:	fe039ee3          	bnez	x7,41000874 <rvcp_print_test_result+0x9c>
    4100087c:	00533023          	sd	x5,0(x6)
    41000880:	001f0f13          	addi	x30,x30,1
    41000884:	fd5ff06f          	j	41000858 <rvcp_print_test_result+0x80>
    41000888:	44b38f37          	lui	x30,0x44b38
    4100088c:	070f0f1b          	addiw	x30,x30,112 # 44b38070 <rvcp_space_str_pa>
    41000890:	000f4283          	lbu	x5,0(x30)
    41000894:	02028663          	beqz	x5,410008c0 <rvcp_print_test_result+0xe8>
    41000898:	1010031b          	addiw	x6,x0,257
    4100089c:	03031313          	slli	x6,x6,0x30
    410008a0:	005362b3          	or	x5,x6,x5
    410008a4:	0003f317          	auipc	x6,0x3f
    410008a8:	75c30313          	addi	x6,x6,1884 # 41040000 <tohost>
    410008ac:	00033383          	ld	x7,0(x6)
    410008b0:	fe039ee3          	bnez	x7,410008ac <rvcp_print_test_result+0xd4>
    410008b4:	00533023          	sd	x5,0(x6)
    410008b8:	001f0f13          	addi	x30,x30,1
    410008bc:	fd5ff06f          	j	41000890 <rvcp_print_test_result+0xb8>
    410008c0:	000e8f13          	mv	x30,x29
    410008c4:	000f4283          	lbu	x5,0(x30)
    410008c8:	02028663          	beqz	x5,410008f4 <rvcp_print_test_result+0x11c>
    410008cc:	1010031b          	addiw	x6,x0,257
    410008d0:	03031313          	slli	x6,x6,0x30
    410008d4:	005362b3          	or	x5,x6,x5
    410008d8:	0003f317          	auipc	x6,0x3f
    410008dc:	72830313          	addi	x6,x6,1832 # 41040000 <tohost>
    410008e0:	00033383          	ld	x7,0(x6)
    410008e4:	fe039ee3          	bnez	x7,410008e0 <rvcp_print_test_result+0x108>
    410008e8:	00533023          	sd	x5,0(x6)
    410008ec:	001f0f13          	addi	x30,x30,1
    410008f0:	fd5ff06f          	j	410008c4 <rvcp_print_test_result+0xec>
    410008f4:	44b38f37          	lui	x30,0x44b38
    410008f8:	070f0f1b          	addiw	x30,x30,112 # 44b38070 <rvcp_space_str_pa>
    410008fc:	000f4283          	lbu	x5,0(x30)
    41000900:	02028663          	beqz	x5,4100092c <rvcp_print_test_result+0x154>
    41000904:	1010031b          	addiw	x6,x0,257
    41000908:	03031313          	slli	x6,x6,0x30
    4100090c:	005362b3          	or	x5,x6,x5
    41000910:	0003f317          	auipc	x6,0x3f
    41000914:	6f030313          	addi	x6,x6,1776 # 41040000 <tohost>
    41000918:	00033383          	ld	x7,0(x6)
    4100091c:	fe039ee3          	bnez	x7,41000918 <rvcp_print_test_result+0x140>
    41000920:	00533023          	sd	x5,0(x6)
    41000924:	001f0f13          	addi	x30,x30,1
    41000928:	fd5ff06f          	j	410008fc <rvcp_print_test_result+0x124>
    4100092c:	000e1863          	bnez	x28,4100093c <rvcp_print_test_result+0x164>
    41000930:	44b38f37          	lui	x30,0x44b38
    41000934:	062f0f1b          	addiw	x30,x30,98 # 44b38062 <rvcp_passed_str_pa>
    41000938:	00c0006f          	j	41000944 <rvcp_print_test_result+0x16c>
    4100093c:	44b38f37          	lui	x30,0x44b38
    41000940:	069f0f1b          	addiw	x30,x30,105 # 44b38069 <rvcp_failed_str_pa>
    41000944:	000f4283          	lbu	x5,0(x30)
    41000948:	02028663          	beqz	x5,41000974 <rvcp_print_test_result+0x19c>
    4100094c:	1010031b          	addiw	x6,x0,257
    41000950:	03031313          	slli	x6,x6,0x30
    41000954:	005362b3          	or	x5,x6,x5
    41000958:	0003f317          	auipc	x6,0x3f
    4100095c:	6a830313          	addi	x6,x6,1704 # 41040000 <tohost>
    41000960:	00033383          	ld	x7,0(x6)
    41000964:	fe039ee3          	bnez	x7,41000960 <rvcp_print_test_result+0x188>
    41000968:	00533023          	sd	x5,0(x6)
    4100096c:	001f0f13          	addi	x30,x30,1
    41000970:	fd5ff06f          	j	41000944 <rvcp_print_test_result+0x16c>
    41000974:	44b38f37          	lui	x30,0x44b38
    41000978:	072f0f1b          	addiw	x30,x30,114 # 44b38072 <rvcp_newline_str_pa>
    4100097c:	000f4283          	lbu	x5,0(x30)
    41000980:	02028663          	beqz	x5,410009ac <rvcp_print_test_result+0x1d4>
    41000984:	1010031b          	addiw	x6,x0,257
    41000988:	03031313          	slli	x6,x6,0x30
    4100098c:	005362b3          	or	x5,x6,x5
    41000990:	0003f317          	auipc	x6,0x3f
    41000994:	67030313          	addi	x6,x6,1648 # 41040000 <tohost>
    41000998:	00033383          	ld	x7,0(x6)
    4100099c:	fe039ee3          	bnez	x7,41000998 <rvcp_print_test_result+0x1c0>
    410009a0:	00533023          	sd	x5,0(x6)
    410009a4:	001f0f13          	addi	x30,x30,1
    410009a8:	fd5ff06f          	j	4100097c <rvcp_print_test_result+0x1a4>
    410009ac:	00008067          	ret

00000000410009b0 <os_rng_orig>:
    410009b0:	f14023f3          	csrr	x7,mhartid
    410009b4:	00068313          	mv	x6,x13
    410009b8:	026383b3          	mul	x7,x7,x6
    410009bc:	00058313          	mv	x6,x11
    410009c0:	00730333          	add	x6,x6,x7
    410009c4:	00033283          	ld	x5,0(x6)
    410009c8:	01529313          	slli	x6,x5,0x15
    410009cc:	0062c2b3          	xor	x5,x5,x6
    410009d0:	0232d313          	srli	x6,x5,0x23
    410009d4:	0062c2b3          	xor	x5,x5,x6
    410009d8:	00429313          	slli	x6,x5,0x4
    410009dc:	0062c2b3          	xor	x5,x5,x6
    410009e0:	00058313          	mv	x6,x11
    410009e4:	00730333          	add	x6,x6,x7
    410009e8:	00533023          	sd	x5,0(x6)
    410009ec:	00060313          	mv	x6,x12
    410009f0:	0262f2b3          	remu	x5,x5,x6
    410009f4:	00028513          	mv	x10,x5
    410009f8:	00008067          	ret
    410009fc:	02a00513          	li	x10,42
    41000a00:	001965b7          	lui	x11,0x196
    41000a04:	60d5859b          	addiw	x11,x11,1549 # 19660d <SID_ZICBO_006_stack+0xe360d>
    41000a08:	3c6ef637          	lui	x12,0x3c6ef
    41000a0c:	35f6061b          	addiw	x12,x12,863 # 3c6ef35f <mem8+0x1bbc335f>
    41000a10:	02200693          	li	x13,34
    41000a14:	02b50533          	mul	x10,x10,x11
    41000a18:	00c50533          	add	x10,x10,x12
    41000a1c:	02d56533          	rem	x10,x10,x13
    41000a20:	00b00593          	li	x11,11
    41000a24:	02b56533          	rem	x10,x10,x11
    41000a28:	00008067          	ret
    41000a2c:	0000                	.insn	2, 0x0000
	...

0000000041000a30 <tohost_mutex>:
	...

0000000041000a38 <tohost_addr_mem>:
    41000a38:	0000                	.insn	2, 0x0000
    41000a3a:	4104                	.insn	2, 0x4104
    41000a3c:	0000                	.insn	2, 0x0000
	...

0000000041000a40 <eot__end_test>:
    41000a40:	00100293          	li	x5,1
    41000a44:	00328463          	beq	x5,x3,41000a4c <eot__passed>
    41000a48:	01c0006f          	j	41000a64 <eot__failed>

0000000041000a4c <eot__passed>:
    41000a4c:	0ff0000f          	fence
    41000a50:	00000297          	auipc	x5,0x0
    41000a54:	fe82b283          	ld	x5,-24(x5) # 41000a38 <tohost_addr_mem>
    41000a58:	00100313          	li	x6,1
    41000a5c:	0062a023          	sw	x6,0(x5)
    41000a60:	0240006f          	j	41000a84 <eot__halt>

0000000041000a64 <eot__failed>:
    41000a64:	00100513          	li	x10,1
    41000a68:	d71ff0ef          	jal	410007d8 <rvcp_print_test_result>
    41000a6c:	0ff0000f          	fence
    41000a70:	00000297          	auipc	x5,0x0
    41000a74:	fc82b283          	ld	x5,-56(x5) # 41000a38 <tohost_addr_mem>
    41000a78:	00300313          	li	x6,3
    41000a7c:	0062a023          	sw	x6,0(x5)
    41000a80:	0040006f          	j	41000a84 <eot__halt>

0000000041000a84 <eot__halt>:
    41000a84:	10500073          	wfi
    41000a88:	ffdff06f          	j	41000a84 <eot__halt>

0000000041000a8c <scheduler__init>:
    41000a8c:	00000297          	auipc	x5,0x0
    41000a90:	0b828293          	addi	x5,x5,184 # 41000b44 <scheduler__panic>
    41000a94:	305292f3          	csrrw	x5,mtvec,x5
    41000a98:	18523023          	sd	x5,384(x4) # 180 <XLEN+0x140>
    41000a9c:	03100293          	li	x5,49
    41000aa0:	18523823          	sd	x5,400(x4) # 190 <XLEN+0x150>
    41000aa4:	0010029b          	addiw	x5,x0,1
    41000aa8:	02029293          	slli	x5,x5,0x20
    41000aac:	ffe28293          	addi	x5,x5,-2
    41000ab0:	18523423          	sd	x5,392(x4) # 188 <XLEN+0x148>
    41000ab4:	00000317          	auipc	x6,0x0
    41000ab8:	45830313          	addi	x6,x6,1112 # 41000f0c <scheduler__test_setup_ptr>
    41000abc:	00033303          	ld	x6,0(x6)
    41000ac0:	05c0006f          	j	41000b1c <scheduler__execute_test>

0000000041000ac4 <scheduler__dispatch>:
    41000ac4:	00000297          	auipc	x5,0x0
    41000ac8:	08028293          	addi	x5,x5,128 # 41000b44 <scheduler__panic>
    41000acc:	305292f3          	csrrw	x5,mtvec,x5
    41000ad0:	18523023          	sd	x5,384(x4) # 180 <XLEN+0x140>

0000000041000ad4 <scheduler__csr_read_randomization>:
    41000ad4:	141022f3          	csrr	x5,sepc
    41000ad8:	140022f3          	csrr	x5,sscratch
    41000adc:	30a022f3          	csrr	x5,0x30a

0000000041000ae0 <scheduler__load_num_runs>:
    41000ae0:	19023303          	ld	x6,400(x4) # 190 <XLEN+0x150>
    41000ae4:	04030c63          	beqz	x6,41000b3c <scheduler__finished>

0000000041000ae8 <scheduler__decrement_num_runs>:
    41000ae8:	fff30393          	addi	x7,x6,-1
    41000aec:	18723823          	sd	x7,400(x4) # 190 <XLEN+0x150>
    41000af0:	00000e17          	auipc	x28,0x0
    41000af4:	358e0e13          	addi	x28,x28,856 # 41000e48 <dtest_index_map>
    41000af8:	00239e93          	slli	x29,x7,0x2
    41000afc:	01de0e33          	add	x28,x28,x29
    41000b00:	000e2e03          	lw	x28,0(x28)
    41000b04:	19c23423          	sd	x28,392(x4) # 188 <XLEN+0x148>

0000000041000b08 <scheduler__calc_test_pointer>:
    41000b08:	00339293          	slli	x5,x7,0x3

0000000041000b0c <scheduler__load_test_addr>:
    41000b0c:	00000317          	auipc	x6,0x0
    41000b10:	04830313          	addi	x6,x6,72 # 41000b54 <os_test_sequence>
    41000b14:	006282b3          	add	x5,x5,x6
    41000b18:	0002b303          	ld	x6,0(x5)

0000000041000b1c <scheduler__execute_test>:
    41000b1c:	18023283          	ld	x5,384(x4) # 180 <XLEN+0x140>
    41000b20:	30529073          	csrw	mtvec,x5
    41000b24:	34021273          	csrrw	x4,mscratch,x4
    41000b28:	00000213          	li	x4,0
    41000b2c:	14131073          	csrw	sepc,x6
    41000b30:	10000293          	li	x5,256
    41000b34:	1002b073          	csrc	sstatus,x5
    41000b38:	10200073          	sret

0000000041000b3c <scheduler__finished>:
    41000b3c:	00100193          	li	x3,1
    41000b40:	f01ff06f          	j	41000a40 <eot__end_test>

0000000041000b44 <scheduler__panic>:
    41000b44:	00000193          	li	x3,0
    41000b48:	ef9ff06f          	j	41000a40 <eot__end_test>

0000000041000b4c <num_runs>:
    41000b4c:	0031                	.insn	2, 0x0031
    41000b4e:	0000                	.insn	2, 0x0000
    41000b50:	0000                	.insn	2, 0x0000
	...

0000000041000b54 <os_test_sequence>:
    41000b54:	6f34                	.insn	2, 0x6f34
    41000b56:	4101                	.insn	2, 0x4101
    41000b58:	0000                	.insn	2, 0x0000
    41000b5a:	0000                	.insn	2, 0x0000
    41000b5c:	5b60                	.insn	2, 0x5b60
    41000b5e:	4101                	.insn	2, 0x4101
    41000b60:	0000                	.insn	2, 0x0000
    41000b62:	0000                	.insn	2, 0x0000
    41000b64:	6080                	.insn	2, 0x6080
    41000b66:	4101                	.insn	2, 0x4101
    41000b68:	0000                	.insn	2, 0x0000
    41000b6a:	0000                	.insn	2, 0x0000
    41000b6c:	6b78                	.insn	2, 0x6b78
    41000b6e:	4101                	.insn	2, 0x4101
    41000b70:	0000                	.insn	2, 0x0000
    41000b72:	0000                	.insn	2, 0x0000
    41000b74:	6080                	.insn	2, 0x6080
    41000b76:	4101                	.insn	2, 0x4101
    41000b78:	0000                	.insn	2, 0x0000
    41000b7a:	0000                	.insn	2, 0x0000
    41000b7c:	53f8                	.insn	2, 0x53f8
    41000b7e:	4101                	.insn	2, 0x4101
    41000b80:	0000                	.insn	2, 0x0000
    41000b82:	0000                	.insn	2, 0x0000
    41000b84:	5974                	.insn	2, 0x5974
    41000b86:	4101                	.insn	2, 0x4101
    41000b88:	0000                	.insn	2, 0x0000
    41000b8a:	0000                	.insn	2, 0x0000
    41000b8c:	5294                	.insn	2, 0x5294
    41000b8e:	4101                	.insn	2, 0x4101
    41000b90:	0000                	.insn	2, 0x0000
    41000b92:	0000                	.insn	2, 0x0000
    41000b94:	5b30                	.insn	2, 0x5b30
    41000b96:	4101                	.insn	2, 0x4101
    41000b98:	0000                	.insn	2, 0x0000
    41000b9a:	0000                	.insn	2, 0x0000
    41000b9c:	55f0                	.insn	2, 0x55f0
    41000b9e:	4101                	.insn	2, 0x4101
    41000ba0:	0000                	.insn	2, 0x0000
    41000ba2:	0000                	.insn	2, 0x0000
    41000ba4:	5bd0                	.insn	2, 0x5bd0
    41000ba6:	4101                	.insn	2, 0x4101
    41000ba8:	0000                	.insn	2, 0x0000
    41000baa:	0000                	.insn	2, 0x0000
    41000bac:	6080                	.insn	2, 0x6080
    41000bae:	4101                	.insn	2, 0x4101
    41000bb0:	0000                	.insn	2, 0x0000
    41000bb2:	0000                	.insn	2, 0x0000
    41000bb4:	5b30                	.insn	2, 0x5b30
    41000bb6:	4101                	.insn	2, 0x4101
    41000bb8:	0000                	.insn	2, 0x0000
    41000bba:	0000                	.insn	2, 0x0000
    41000bbc:	5ae0                	.insn	2, 0x5ae0
    41000bbe:	4101                	.insn	2, 0x4101
    41000bc0:	0000                	.insn	2, 0x0000
    41000bc2:	0000                	.insn	2, 0x0000
    41000bc4:	6320                	.insn	2, 0x6320
    41000bc6:	4101                	.insn	2, 0x4101
    41000bc8:	0000                	.insn	2, 0x0000
    41000bca:	0000                	.insn	2, 0x0000
    41000bcc:	5b60                	.insn	2, 0x5b60
    41000bce:	4101                	.insn	2, 0x4101
    41000bd0:	0000                	.insn	2, 0x0000
    41000bd2:	0000                	.insn	2, 0x0000
    41000bd4:	5ae0                	.insn	2, 0x5ae0
    41000bd6:	4101                	.insn	2, 0x4101
    41000bd8:	0000                	.insn	2, 0x0000
    41000bda:	0000                	.insn	2, 0x0000
    41000bdc:	53f8                	.insn	2, 0x53f8
    41000bde:	4101                	.insn	2, 0x4101
    41000be0:	0000                	.insn	2, 0x0000
    41000be2:	0000                	.insn	2, 0x0000
    41000be4:	65e8                	.insn	2, 0x65e8
    41000be6:	4101                	.insn	2, 0x4101
    41000be8:	0000                	.insn	2, 0x0000
    41000bea:	0000                	.insn	2, 0x0000
    41000bec:	5974                	.insn	2, 0x5974
    41000bee:	4101                	.insn	2, 0x4101
    41000bf0:	0000                	.insn	2, 0x0000
    41000bf2:	0000                	.insn	2, 0x0000
    41000bf4:	6b78                	.insn	2, 0x6b78
    41000bf6:	4101                	.insn	2, 0x4101
    41000bf8:	0000                	.insn	2, 0x0000
    41000bfa:	0000                	.insn	2, 0x0000
    41000bfc:	5e00                	.insn	2, 0x5e00
    41000bfe:	4101                	.insn	2, 0x4101
    41000c00:	0000                	.insn	2, 0x0000
    41000c02:	0000                	.insn	2, 0x0000
    41000c04:	65e8                	.insn	2, 0x65e8
    41000c06:	4101                	.insn	2, 0x4101
    41000c08:	0000                	.insn	2, 0x0000
    41000c0a:	0000                	.insn	2, 0x0000
    41000c0c:	57f8                	.insn	2, 0x57f8
    41000c0e:	4101                	.insn	2, 0x4101
    41000c10:	0000                	.insn	2, 0x0000
    41000c12:	0000                	.insn	2, 0x0000
    41000c14:	6320                	.insn	2, 0x6320
    41000c16:	4101                	.insn	2, 0x4101
    41000c18:	0000                	.insn	2, 0x0000
    41000c1a:	0000                	.insn	2, 0x0000
    41000c1c:	57f8                	.insn	2, 0x57f8
    41000c1e:	4101                	.insn	2, 0x4101
    41000c20:	0000                	.insn	2, 0x0000
    41000c22:	0000                	.insn	2, 0x0000
    41000c24:	55f0                	.insn	2, 0x55f0
    41000c26:	4101                	.insn	2, 0x4101
    41000c28:	0000                	.insn	2, 0x0000
    41000c2a:	0000                	.insn	2, 0x0000
    41000c2c:	5120                	.insn	2, 0x5120
    41000c2e:	4101                	.insn	2, 0x4101
    41000c30:	0000                	.insn	2, 0x0000
    41000c32:	0000                	.insn	2, 0x0000
    41000c34:	5120                	.insn	2, 0x5120
    41000c36:	4101                	.insn	2, 0x4101
    41000c38:	0000                	.insn	2, 0x0000
    41000c3a:	0000                	.insn	2, 0x0000
    41000c3c:	5e00                	.insn	2, 0x5e00
    41000c3e:	4101                	.insn	2, 0x4101
    41000c40:	0000                	.insn	2, 0x0000
    41000c42:	0000                	.insn	2, 0x0000
    41000c44:	53f8                	.insn	2, 0x53f8
    41000c46:	4101                	.insn	2, 0x4101
    41000c48:	0000                	.insn	2, 0x0000
    41000c4a:	0000                	.insn	2, 0x0000
    41000c4c:	65e8                	.insn	2, 0x65e8
    41000c4e:	4101                	.insn	2, 0x4101
    41000c50:	0000                	.insn	2, 0x0000
    41000c52:	0000                	.insn	2, 0x0000
    41000c54:	5bd0                	.insn	2, 0x5bd0
    41000c56:	4101                	.insn	2, 0x4101
    41000c58:	0000                	.insn	2, 0x0000
    41000c5a:	0000                	.insn	2, 0x0000
    41000c5c:	68d8                	.insn	2, 0x68d8
    41000c5e:	4101                	.insn	2, 0x4101
    41000c60:	0000                	.insn	2, 0x0000
    41000c62:	0000                	.insn	2, 0x0000
    41000c64:	5e00                	.insn	2, 0x5e00
    41000c66:	4101                	.insn	2, 0x4101
    41000c68:	0000                	.insn	2, 0x0000
    41000c6a:	0000                	.insn	2, 0x0000
    41000c6c:	5b60                	.insn	2, 0x5b60
    41000c6e:	4101                	.insn	2, 0x4101
    41000c70:	0000                	.insn	2, 0x0000
    41000c72:	0000                	.insn	2, 0x0000
    41000c74:	5bd0                	.insn	2, 0x5bd0
    41000c76:	4101                	.insn	2, 0x4101
    41000c78:	0000                	.insn	2, 0x0000
    41000c7a:	0000                	.insn	2, 0x0000
    41000c7c:	68d8                	.insn	2, 0x68d8
    41000c7e:	4101                	.insn	2, 0x4101
    41000c80:	0000                	.insn	2, 0x0000
    41000c82:	0000                	.insn	2, 0x0000
    41000c84:	5120                	.insn	2, 0x5120
    41000c86:	4101                	.insn	2, 0x4101
    41000c88:	0000                	.insn	2, 0x0000
    41000c8a:	0000                	.insn	2, 0x0000
    41000c8c:	57f8                	.insn	2, 0x57f8
    41000c8e:	4101                	.insn	2, 0x4101
    41000c90:	0000                	.insn	2, 0x0000
    41000c92:	0000                	.insn	2, 0x0000
    41000c94:	6320                	.insn	2, 0x6320
    41000c96:	4101                	.insn	2, 0x4101
    41000c98:	0000                	.insn	2, 0x0000
    41000c9a:	0000                	.insn	2, 0x0000
    41000c9c:	5974                	.insn	2, 0x5974
    41000c9e:	4101                	.insn	2, 0x4101
    41000ca0:	0000                	.insn	2, 0x0000
    41000ca2:	0000                	.insn	2, 0x0000
    41000ca4:	5ae0                	.insn	2, 0x5ae0
    41000ca6:	4101                	.insn	2, 0x4101
    41000ca8:	0000                	.insn	2, 0x0000
    41000caa:	0000                	.insn	2, 0x0000
    41000cac:	68d8                	.insn	2, 0x68d8
    41000cae:	4101                	.insn	2, 0x4101
    41000cb0:	0000                	.insn	2, 0x0000
    41000cb2:	0000                	.insn	2, 0x0000
    41000cb4:	55f0                	.insn	2, 0x55f0
    41000cb6:	4101                	.insn	2, 0x4101
    41000cb8:	0000                	.insn	2, 0x0000
    41000cba:	0000                	.insn	2, 0x0000
    41000cbc:	5b30                	.insn	2, 0x5b30
    41000cbe:	4101                	.insn	2, 0x4101
    41000cc0:	0000                	.insn	2, 0x0000
    41000cc2:	0000                	.insn	2, 0x0000
    41000cc4:	6b78                	.insn	2, 0x6b78
    41000cc6:	4101                	.insn	2, 0x4101
    41000cc8:	0000                	.insn	2, 0x0000
    41000cca:	0000                	.insn	2, 0x0000
    41000ccc:	5294                	.insn	2, 0x5294
    41000cce:	4101                	.insn	2, 0x4101
    41000cd0:	0000                	.insn	2, 0x0000
    41000cd2:	0000                	.insn	2, 0x0000
    41000cd4:	5294                	.insn	2, 0x5294
    41000cd6:	4101                	.insn	2, 0x4101
    41000cd8:	0000                	.insn	2, 0x0000
	...

0000000041000cdc <dtest_descriptor_table>:
    41000cdc:	0d5c                	.insn	2, 0x0d5c
    41000cde:	4100                	.insn	2, 0x4100
    41000ce0:	0000                	.insn	2, 0x0000
    41000ce2:	0000                	.insn	2, 0x0000
    41000ce4:	0d6a                	.insn	2, 0x0d6a
    41000ce6:	4100                	.insn	2, 0x4100
    41000ce8:	0000                	.insn	2, 0x0000
    41000cea:	0000                	.insn	2, 0x0000
    41000cec:	0d78                	.insn	2, 0x0d78
    41000cee:	4100                	.insn	2, 0x4100
    41000cf0:	0000                	.insn	2, 0x0000
    41000cf2:	0000                	.insn	2, 0x0000
    41000cf4:	0d86                	.insn	2, 0x0d86
    41000cf6:	4100                	.insn	2, 0x4100
    41000cf8:	0000                	.insn	2, 0x0000
    41000cfa:	0000                	.insn	2, 0x0000
    41000cfc:	0d94                	.insn	2, 0x0d94
    41000cfe:	4100                	.insn	2, 0x4100
    41000d00:	0000                	.insn	2, 0x0000
    41000d02:	0000                	.insn	2, 0x0000
    41000d04:	0da2                	.insn	2, 0x0da2
    41000d06:	4100                	.insn	2, 0x4100
    41000d08:	0000                	.insn	2, 0x0000
    41000d0a:	0000                	.insn	2, 0x0000
    41000d0c:	0db0                	.insn	2, 0x0db0
    41000d0e:	4100                	.insn	2, 0x4100
    41000d10:	0000                	.insn	2, 0x0000
    41000d12:	0000                	.insn	2, 0x0000
    41000d14:	0dbe                	.insn	2, 0x0dbe
    41000d16:	4100                	.insn	2, 0x4100
    41000d18:	0000                	.insn	2, 0x0000
    41000d1a:	0000                	.insn	2, 0x0000
    41000d1c:	0dcc                	.insn	2, 0x0dcc
    41000d1e:	4100                	.insn	2, 0x4100
    41000d20:	0000                	.insn	2, 0x0000
    41000d22:	0000                	.insn	2, 0x0000
    41000d24:	0dda                	.insn	2, 0x0dda
    41000d26:	4100                	.insn	2, 0x4100
    41000d28:	0000                	.insn	2, 0x0000
    41000d2a:	0000                	.insn	2, 0x0000
    41000d2c:	0de8                	.insn	2, 0x0de8
    41000d2e:	4100                	.insn	2, 0x4100
    41000d30:	0000                	.insn	2, 0x0000
    41000d32:	0000                	.insn	2, 0x0000
    41000d34:	0df6                	.insn	2, 0x0df6
    41000d36:	4100                	.insn	2, 0x4100
    41000d38:	0000                	.insn	2, 0x0000
    41000d3a:	0000                	.insn	2, 0x0000
    41000d3c:	0e04                	.insn	2, 0x0e04
    41000d3e:	4100                	.insn	2, 0x4100
    41000d40:	0000                	.insn	2, 0x0000
    41000d42:	0000                	.insn	2, 0x0000
    41000d44:	0e12                	.insn	2, 0x0e12
    41000d46:	4100                	.insn	2, 0x4100
    41000d48:	0000                	.insn	2, 0x0000
    41000d4a:	0000                	.insn	2, 0x0000
    41000d4c:	0e20                	.insn	2, 0x0e20
    41000d4e:	4100                	.insn	2, 0x4100
    41000d50:	0000                	.insn	2, 0x0000
    41000d52:	0000                	.insn	2, 0x0000
    41000d54:	0e2e                	.insn	2, 0x0e2e
    41000d56:	4100                	.insn	2, 0x4100
    41000d58:	0000                	.insn	2, 0x0000
	...

0000000041000d5c <dtest_name_0>:
    41000d5c:	5f444953          	.insn	4, 0x5f444953
    41000d60:	495a                	.insn	2, 0x495a
    41000d62:	5f4f4243          	.insn	4, 0x5f4f4243
    41000d66:	3030                	.insn	2, 0x3030
    41000d68:	0031                	.insn	2, 0x0031

0000000041000d6a <dtest_name_1>:
    41000d6a:	5f444953          	.insn	4, 0x5f444953
    41000d6e:	495a                	.insn	2, 0x495a
    41000d70:	5f4f4243          	.insn	4, 0x5f4f4243
    41000d74:	3030                	.insn	2, 0x3030
    41000d76:	0032                	.insn	2, 0x0032

0000000041000d78 <dtest_name_2>:
    41000d78:	5f444953          	.insn	4, 0x5f444953
    41000d7c:	495a                	.insn	2, 0x495a
    41000d7e:	5f4f4243          	.insn	4, 0x5f4f4243
    41000d82:	3030                	.insn	2, 0x3030
    41000d84:	          	.insn	4, 0x49530033

0000000041000d86 <dtest_name_3>:
    41000d86:	5f444953          	.insn	4, 0x5f444953
    41000d8a:	495a                	.insn	2, 0x495a
    41000d8c:	5f4f4243          	.insn	4, 0x5f4f4243
    41000d90:	3030                	.insn	2, 0x3030
    41000d92:	0034                	.insn	2, 0x0034

0000000041000d94 <dtest_name_4>:
    41000d94:	5f444953          	.insn	4, 0x5f444953
    41000d98:	495a                	.insn	2, 0x495a
    41000d9a:	5f4f4243          	.insn	4, 0x5f4f4243
    41000d9e:	3030                	.insn	2, 0x3030
    41000da0:	0035                	.insn	2, 0x0035

0000000041000da2 <dtest_name_5>:
    41000da2:	5f444953          	.insn	4, 0x5f444953
    41000da6:	495a                	.insn	2, 0x495a
    41000da8:	5f4f4243          	.insn	4, 0x5f4f4243
    41000dac:	3030                	.insn	2, 0x3030
    41000dae:	0036                	.insn	2, 0x0036

0000000041000db0 <dtest_name_6>:
    41000db0:	5f444953          	.insn	4, 0x5f444953
    41000db4:	495a                	.insn	2, 0x495a
    41000db6:	5f4f4243          	.insn	4, 0x5f4f4243
    41000dba:	3130                	.insn	2, 0x3130
    41000dbc:	          	.insn	4, 0x49530033

0000000041000dbe <dtest_name_7>:
    41000dbe:	5f444953          	.insn	4, 0x5f444953
    41000dc2:	495a                	.insn	2, 0x495a
    41000dc4:	5f4f4243          	.insn	4, 0x5f4f4243
    41000dc8:	3130                	.insn	2, 0x3130
    41000dca:	0035                	.insn	2, 0x0035

0000000041000dcc <dtest_name_8>:
    41000dcc:	5f444953          	.insn	4, 0x5f444953
    41000dd0:	495a                	.insn	2, 0x495a
    41000dd2:	5f4f4243          	.insn	4, 0x5f4f4243
    41000dd6:	3130                	.insn	2, 0x3130
    41000dd8:	0036                	.insn	2, 0x0036

0000000041000dda <dtest_name_9>:
    41000dda:	5f444953          	.insn	4, 0x5f444953
    41000dde:	495a                	.insn	2, 0x495a
    41000de0:	5f4f4243          	.insn	4, 0x5f4f4243
    41000de4:	3130                	.insn	2, 0x3130
    41000de6:	          	lui	x0,0x49530

0000000041000de8 <dtest_name_10>:
    41000de8:	5f444953          	.insn	4, 0x5f444953
    41000dec:	495a                	.insn	2, 0x495a
    41000dee:	5f4f4243          	.insn	4, 0x5f4f4243
    41000df2:	3130                	.insn	2, 0x3130
    41000df4:	0038                	.insn	2, 0x0038

0000000041000df6 <dtest_name_11>:
    41000df6:	5f444953          	.insn	4, 0x5f444953
    41000dfa:	495a                	.insn	2, 0x495a
    41000dfc:	5f4f4243          	.insn	4, 0x5f4f4243
    41000e00:	3130                	.insn	2, 0x3130
    41000e02:	0039                	.insn	2, 0x0039

0000000041000e04 <dtest_name_12>:
    41000e04:	5f444953          	.insn	4, 0x5f444953
    41000e08:	495a                	.insn	2, 0x495a
    41000e0a:	5f4f4243          	.insn	4, 0x5f4f4243
    41000e0e:	3230                	.insn	2, 0x3230
    41000e10:	0030                	.insn	2, 0x0030

0000000041000e12 <dtest_name_13>:
    41000e12:	5f444953          	.insn	4, 0x5f444953
    41000e16:	495a                	.insn	2, 0x495a
    41000e18:	5f4f4243          	.insn	4, 0x5f4f4243
    41000e1c:	3430                	.insn	2, 0x3430
    41000e1e:	          	lui	x0,0x49530

0000000041000e20 <dtest_name_14>:
    41000e20:	5f444953          	.insn	4, 0x5f444953
    41000e24:	495a                	.insn	2, 0x495a
    41000e26:	5f4f4243          	.insn	4, 0x5f4f4243
    41000e2a:	3430                	.insn	2, 0x3430
    41000e2c:	0039                	.insn	2, 0x0039

0000000041000e2e <dtest_name_15>:
    41000e2e:	5f444953          	.insn	4, 0x5f444953
    41000e32:	495a                	.insn	2, 0x495a
    41000e34:	5f4f4243          	.insn	4, 0x5f4f4243
    41000e38:	3035                	.insn	2, 0x3035
    41000e3a:	5a5f 4349 3436      	.insn	6, 0x343643495a5f
    41000e40:	5f42                	.insn	2, 0x5f42
    41000e42:	3130                	.insn	2, 0x3130
    41000e44:	0000                	.insn	2, 0x0000
	...

0000000041000e48 <dtest_index_map>:
    41000e48:	ffff                	.insn	2, 0xffff
    41000e4a:	ffff                	.insn	2, 0xffff
    41000e4c:	0008                	.insn	2, 0x0008
    41000e4e:	0000                	.insn	2, 0x0000
    41000e50:	0000000b          	.insn	4, 0x000b
    41000e54:	0000000f          	fence	unknown,unknown
    41000e58:	0000000b          	.insn	4, 0x000b
    41000e5c:	0002                	.insn	2, 0x0002
    41000e5e:	0000                	.insn	2, 0x0000
    41000e60:	0005                	.insn	2, 0x0005
    41000e62:	0000                	.insn	2, 0x0000
    41000e64:	0001                	.insn	2, 0x0001
    41000e66:	0000                	.insn	2, 0x0000
    41000e68:	00000007          	vle8.v	v0,(x0),v0.t
    41000e6c:	00000003          	lb	x0,0(x0) # 0 <ALL_4KB_PAGES>
    41000e70:	0009                	.insn	2, 0x0009
    41000e72:	0000                	.insn	2, 0x0000
    41000e74:	0000000b          	.insn	4, 0x000b
    41000e78:	00000007          	vle8.v	v0,(x0),v0.t
    41000e7c:	0006                	.insn	2, 0x0006
    41000e7e:	0000                	.insn	2, 0x0000
    41000e80:	000c                	.insn	2, 0x000c
    41000e82:	0000                	.insn	2, 0x0000
    41000e84:	0008                	.insn	2, 0x0008
    41000e86:	0000                	.insn	2, 0x0000
    41000e88:	0006                	.insn	2, 0x0006
    41000e8a:	0000                	.insn	2, 0x0000
    41000e8c:	0002                	.insn	2, 0x0002
    41000e8e:	0000                	.insn	2, 0x0000
    41000e90:	000d                	.insn	2, 0x000d
    41000e92:	0000                	.insn	2, 0x0000
    41000e94:	0005                	.insn	2, 0x0005
    41000e96:	0000                	.insn	2, 0x0000
    41000e98:	0000000f          	fence	unknown,unknown
    41000e9c:	000a                	.insn	2, 0x000a
    41000e9e:	0000                	.insn	2, 0x0000
    41000ea0:	000d                	.insn	2, 0x000d
    41000ea2:	0000                	.insn	2, 0x0000
    41000ea4:	0004                	.insn	2, 0x0004
    41000ea6:	0000                	.insn	2, 0x0000
    41000ea8:	000c                	.insn	2, 0x000c
    41000eaa:	0000                	.insn	2, 0x0000
    41000eac:	0004                	.insn	2, 0x0004
    41000eae:	0000                	.insn	2, 0x0000
    41000eb0:	00000003          	lb	x0,0(x0) # 0 <ALL_4KB_PAGES>
	...
    41000ebc:	000a                	.insn	2, 0x000a
    41000ebe:	0000                	.insn	2, 0x0000
    41000ec0:	0002                	.insn	2, 0x0002
    41000ec2:	0000                	.insn	2, 0x0000
    41000ec4:	000d                	.insn	2, 0x000d
    41000ec6:	0000                	.insn	2, 0x0000
    41000ec8:	0009                	.insn	2, 0x0009
    41000eca:	0000                	.insn	2, 0x0000
    41000ecc:	000e                	.insn	2, 0x000e
    41000ece:	0000                	.insn	2, 0x0000
    41000ed0:	000a                	.insn	2, 0x000a
    41000ed2:	0000                	.insn	2, 0x0000
    41000ed4:	0008                	.insn	2, 0x0008
    41000ed6:	0000                	.insn	2, 0x0000
    41000ed8:	0009                	.insn	2, 0x0009
    41000eda:	0000                	.insn	2, 0x0000
    41000edc:	000e                	.insn	2, 0x000e
    41000ede:	0000                	.insn	2, 0x0000
    41000ee0:	0000                	.insn	2, 0x0000
    41000ee2:	0000                	.insn	2, 0x0000
    41000ee4:	0004                	.insn	2, 0x0004
    41000ee6:	0000                	.insn	2, 0x0000
    41000ee8:	000c                	.insn	2, 0x000c
    41000eea:	0000                	.insn	2, 0x0000
    41000eec:	0005                	.insn	2, 0x0005
    41000eee:	0000                	.insn	2, 0x0000
    41000ef0:	0006                	.insn	2, 0x0006
    41000ef2:	0000                	.insn	2, 0x0000
    41000ef4:	000e                	.insn	2, 0x000e
    41000ef6:	0000                	.insn	2, 0x0000
    41000ef8:	00000003          	lb	x0,0(x0) # 0 <ALL_4KB_PAGES>
    41000efc:	00000007          	vle8.v	v0,(x0),v0.t
    41000f00:	0000000f          	fence	unknown,unknown
    41000f04:	0001                	.insn	2, 0x0001
    41000f06:	0000                	.insn	2, 0x0000
    41000f08:	0001                	.insn	2, 0x0001
	...

0000000041000f0c <scheduler__test_setup_ptr>:
    41000f0c:	5110                	.insn	2, 0x5110
    41000f0e:	4101                	.insn	2, 0x4101
    41000f10:	0000                	.insn	2, 0x0000
	...

0000000041000f14 <scheduler__test_cleanup_ptr>:
    41000f14:	6f34                	.insn	2, 0x6f34
    41000f16:	4101                	.insn	2, 0x4101
    41000f18:	0000                	.insn	2, 0x0000
	...

Disassembly of section .runtime_s:

0000000041011000 <trap_handler_s__invalid_interrupt>:
    41011000:	1740006f          	j	41011174 <trap_handler_s__test_failed>

0000000041011004 <trap_handler_s__clear_all_interrupts>:
    41011004:	14401073          	csrw	sip,x0
    41011008:	10200073          	sret

000000004101100c <trap_handler_s___CLEAR_SSI>:
    4101100c:	00200293          	li	x5,2
    41011010:	1442b073          	csrc	sip,x5
    41011014:	10200073          	sret

0000000041011018 <trap_handler_s___CLEAR_MSI>:
    41011018:	00800293          	li	x5,8
    4101101c:	1442b073          	csrc	sip,x5
    41011020:	10200073          	sret

0000000041011024 <trap_handler_s___CLEAR_STI>:
    41011024:	02000293          	li	x5,32
    41011028:	1442b073          	csrc	sip,x5
    4101102c:	10200073          	sret

0000000041011030 <trap_handler_s___CLEAR_MTI>:
    41011030:	08000293          	li	x5,128
    41011034:	1442b073          	csrc	sip,x5
    41011038:	10200073          	sret

000000004101103c <trap_handler_s___CLEAR_SEI>:
    4101103c:	20000293          	li	x5,512
    41011040:	1442b073          	csrc	sip,x5
    41011044:	10200073          	sret

0000000041011048 <trap_handler_s___CLEAR_MEI>:
    41011048:	000012b7          	lui	x5,0x1
    4101104c:	8002829b          	addiw	x5,x5,-2048 # 800 <XLEN+0x7c0>
    41011050:	1442b073          	csrc	sip,x5
    41011054:	10200073          	sret

0000000041011058 <trap_handler_s___CLEAR_COI>:
    41011058:	000022b7          	lui	x5,0x2
    4101105c:	1442b073          	csrc	sip,x5
    41011060:	10200073          	sret

0000000041011064 <trap_handler_s__clear_highest_priority_interrupt>:
    41011064:	144022f3          	csrr	x5,sip
    41011068:	40500333          	neg	x6,x5
    4101106c:	0062f2b3          	and	x5,x5,x6
    41011070:	1442b073          	csrc	sip,x5
    41011074:	10200073          	sret

0000000041011078 <trap_handler_s__trap_entry>:
    41011078:	10c0006f          	j	41011184 <trap_handler_s__trap_handler>

000000004101107c <trap_handler_s__interrupt_vector_table>:
    4101107c:	f91ff06f          	j	4101100c <trap_handler_s___CLEAR_SSI>
    41011080:	f81ff06f          	j	41011000 <trap_handler_s__invalid_interrupt>
    41011084:	f95ff06f          	j	41011018 <trap_handler_s___CLEAR_MSI>
    41011088:	f79ff06f          	j	41011000 <trap_handler_s__invalid_interrupt>
    4101108c:	f99ff06f          	j	41011024 <trap_handler_s___CLEAR_STI>
    41011090:	f71ff06f          	j	41011000 <trap_handler_s__invalid_interrupt>
    41011094:	f9dff06f          	j	41011030 <trap_handler_s___CLEAR_MTI>
    41011098:	f69ff06f          	j	41011000 <trap_handler_s__invalid_interrupt>
    4101109c:	fa1ff06f          	j	4101103c <trap_handler_s___CLEAR_SEI>
    410110a0:	f61ff06f          	j	41011000 <trap_handler_s__invalid_interrupt>
    410110a4:	fa5ff06f          	j	41011048 <trap_handler_s___CLEAR_MEI>
    410110a8:	f59ff06f          	j	41011000 <trap_handler_s__invalid_interrupt>
    410110ac:	fadff06f          	j	41011058 <trap_handler_s___CLEAR_COI>
    410110b0:	f51ff06f          	j	41011000 <trap_handler_s__invalid_interrupt>
    410110b4:	f4dff06f          	j	41011000 <trap_handler_s__invalid_interrupt>
    410110b8:	fadff06f          	j	41011064 <trap_handler_s__clear_highest_priority_interrupt>
    410110bc:	fa9ff06f          	j	41011064 <trap_handler_s__clear_highest_priority_interrupt>
    410110c0:	fa5ff06f          	j	41011064 <trap_handler_s__clear_highest_priority_interrupt>
    410110c4:	fa1ff06f          	j	41011064 <trap_handler_s__clear_highest_priority_interrupt>
    410110c8:	f9dff06f          	j	41011064 <trap_handler_s__clear_highest_priority_interrupt>
    410110cc:	f99ff06f          	j	41011064 <trap_handler_s__clear_highest_priority_interrupt>
    410110d0:	f95ff06f          	j	41011064 <trap_handler_s__clear_highest_priority_interrupt>
    410110d4:	f91ff06f          	j	41011064 <trap_handler_s__clear_highest_priority_interrupt>
    410110d8:	f8dff06f          	j	41011064 <trap_handler_s__clear_highest_priority_interrupt>
    410110dc:	f89ff06f          	j	41011064 <trap_handler_s__clear_highest_priority_interrupt>
    410110e0:	f85ff06f          	j	41011064 <trap_handler_s__clear_highest_priority_interrupt>
    410110e4:	f81ff06f          	j	41011064 <trap_handler_s__clear_highest_priority_interrupt>
    410110e8:	f7dff06f          	j	41011064 <trap_handler_s__clear_highest_priority_interrupt>
    410110ec:	f79ff06f          	j	41011064 <trap_handler_s__clear_highest_priority_interrupt>
    410110f0:	f75ff06f          	j	41011064 <trap_handler_s__clear_highest_priority_interrupt>
    410110f4:	f71ff06f          	j	41011064 <trap_handler_s__clear_highest_priority_interrupt>
    410110f8:	f6dff06f          	j	41011064 <trap_handler_s__clear_highest_priority_interrupt>
    410110fc:	f69ff06f          	j	41011064 <trap_handler_s__clear_highest_priority_interrupt>
    41011100:	f65ff06f          	j	41011064 <trap_handler_s__clear_highest_priority_interrupt>
    41011104:	f61ff06f          	j	41011064 <trap_handler_s__clear_highest_priority_interrupt>
    41011108:	f5dff06f          	j	41011064 <trap_handler_s__clear_highest_priority_interrupt>
    4101110c:	f59ff06f          	j	41011064 <trap_handler_s__clear_highest_priority_interrupt>
    41011110:	f55ff06f          	j	41011064 <trap_handler_s__clear_highest_priority_interrupt>
    41011114:	f51ff06f          	j	41011064 <trap_handler_s__clear_highest_priority_interrupt>
    41011118:	f4dff06f          	j	41011064 <trap_handler_s__clear_highest_priority_interrupt>
    4101111c:	f49ff06f          	j	41011064 <trap_handler_s__clear_highest_priority_interrupt>
    41011120:	f45ff06f          	j	41011064 <trap_handler_s__clear_highest_priority_interrupt>
    41011124:	f41ff06f          	j	41011064 <trap_handler_s__clear_highest_priority_interrupt>
    41011128:	f3dff06f          	j	41011064 <trap_handler_s__clear_highest_priority_interrupt>
    4101112c:	f39ff06f          	j	41011064 <trap_handler_s__clear_highest_priority_interrupt>
    41011130:	f35ff06f          	j	41011064 <trap_handler_s__clear_highest_priority_interrupt>
    41011134:	f31ff06f          	j	41011064 <trap_handler_s__clear_highest_priority_interrupt>
    41011138:	f2dff06f          	j	41011064 <trap_handler_s__clear_highest_priority_interrupt>
    4101113c:	f29ff06f          	j	41011064 <trap_handler_s__clear_highest_priority_interrupt>
    41011140:	f25ff06f          	j	41011064 <trap_handler_s__clear_highest_priority_interrupt>
    41011144:	f21ff06f          	j	41011064 <trap_handler_s__clear_highest_priority_interrupt>
    41011148:	f1dff06f          	j	41011064 <trap_handler_s__clear_highest_priority_interrupt>
    4101114c:	f19ff06f          	j	41011064 <trap_handler_s__clear_highest_priority_interrupt>
    41011150:	f15ff06f          	j	41011064 <trap_handler_s__clear_highest_priority_interrupt>
    41011154:	f11ff06f          	j	41011064 <trap_handler_s__clear_highest_priority_interrupt>
    41011158:	f0dff06f          	j	41011064 <trap_handler_s__clear_highest_priority_interrupt>
    4101115c:	f09ff06f          	j	41011064 <trap_handler_s__clear_highest_priority_interrupt>
    41011160:	f05ff06f          	j	41011064 <trap_handler_s__clear_highest_priority_interrupt>
    41011164:	f01ff06f          	j	41011064 <trap_handler_s__clear_highest_priority_interrupt>
    41011168:	efdff06f          	j	41011064 <trap_handler_s__clear_highest_priority_interrupt>
    4101116c:	ef9ff06f          	j	41011064 <trap_handler_s__clear_highest_priority_interrupt>
    41011170:	ef5ff06f          	j	41011064 <trap_handler_s__clear_highest_priority_interrupt>

0000000041011174 <trap_handler_s__test_failed>:
    41011174:	00f00f9b          	addiw	x31,x0,15
    41011178:	01cf9f93          	slli	x31,x31,0x1c
    4101117c:	002f8f93          	addi	x31,x31,2
    41011180:	00000073          	ecall

0000000041011184 <trap_handler_s__trap_handler>:
    41011184:	142022f3          	csrr	x5,scause
    41011188:	fff0031b          	addiw	x6,x0,-1
    4101118c:	03f31313          	slli	x6,x6,0x3f
    41011190:	00537333          	and	x6,x6,x5
    41011194:	02030263          	beqz	x6,410111b8 <trap_handler_s__exception_path>

0000000041011198 <trap_handler_s__interrupt_handler>:
    41011198:	fff0031b          	addiw	x6,x0,-1
    4101119c:	03f31313          	slli	x6,x6,0x3f
    410111a0:	0062c2b3          	xor	x5,x5,x6
    410111a4:	00000317          	auipc	x6,0x0
    410111a8:	ed430313          	addi	x6,x6,-300 # 41011078 <trap_handler_s__trap_entry>
    410111ac:	00229293          	slli	x5,x5,0x2
    410111b0:	005302b3          	add	x5,x6,x5
    410111b4:	00028067          	jr	x5 # 2000 <mem2>

00000000410111b8 <trap_handler_s__exception_path>:
    410111b8:	14021273          	csrrw	x4,sscratch,x4
    410111bc:	00000297          	auipc	x5,0x0
    410111c0:	0cc28293          	addi	x5,x5,204 # 41011288 <trap_handler_s__trap_panic>
    410111c4:	10529073          	csrw	stvec,x5
    410111c8:	0040006f          	j	410111cc <trap_handler_s__excp_entry>

00000000410111cc <trap_handler_s__excp_entry>:
    410111cc:	14202373          	csrr	x6,scause
    410111d0:	00800293          	li	x5,8
    410111d4:	00534863          	blt	x6,x5,410111e4 <trap_handler_s__check_exception_label>
    410111d8:	00b00293          	li	x5,11
    410111dc:	0062c463          	blt	x5,x6,410111e4 <trap_handler_s__check_exception_label>
    410111e0:	0a80006f          	j	41011288 <trap_handler_s__trap_panic>

00000000410111e4 <trap_handler_s__check_exception_label>:
    410111e4:	04623c23          	sd	x6,88(x4) # 58 <XLEN+0x18>
    410111e8:	141022f3          	csrr	x5,sepc
    410111ec:	02523423          	sd	x5,40(x4) # 28 <SECURE_ACCESS_PROBABILITY+0xa>
    410111f0:	01820283          	lb	x5,24(x4) # 18 <STORE_GUEST_PAGE_FAULT+0x1>
    410111f4:	00029863          	bnez	x5,41011204 <trap_handler_s__check_excp>
    410111f8:	00128293          	addi	x5,x5,1
    410111fc:	00520c23          	sb	x5,24(x4) # 18 <STORE_GUEST_PAGE_FAULT+0x1>
    41011200:	05c0006f          	j	4101125c <trap_handler_s__ecall_from_machine>

0000000041011204 <trap_handler_s__check_excp>:
    41011204:	06823283          	ld	x5,104(x4) # 68 <XLEN+0x28>
    41011208:	06023423          	sd	x0,104(x4) # 68 <XLEN+0x28>
    4101120c:	00028663          	beqz	x5,41011218 <trap_handler_s__skip_mode_check>
    41011210:	00300393          	li	x7,3
    41011214:	f67290e3          	bne	x5,x7,41011174 <trap_handler_s__test_failed>

0000000041011218 <trap_handler_s__skip_mode_check>:
    41011218:	05023283          	ld	x5,80(x4) # 50 <XLEN+0x10>
    4101121c:	04023823          	sd	x0,80(x4) # 50 <XLEN+0x10>
    41011220:	f4531ae3          	bne	x6,x5,41011174 <trap_handler_s__test_failed>
    41011224:	03823283          	ld	x5,56(x4) # 38 <SECURE_ACCESS_PROBABILITY+0x1a>
    41011228:	02023c23          	sd	x0,56(x4) # 38 <SECURE_ACCESS_PROBABILITY+0x1a>
    4101122c:	02029663          	bnez	x5,41011258 <trap_handler_s__skip_nonzero_tval_check>
    41011230:	02023303          	ld	x6,32(x4) # 20 <SECURE_ACCESS_PROBABILITY+0x2>
    41011234:	02023023          	sd	x0,32(x4) # 20 <SECURE_ACCESS_PROBABILITY+0x2>
    41011238:	02823283          	ld	x5,40(x4) # 28 <SECURE_ACCESS_PROBABILITY+0xa>
    4101123c:	02023423          	sd	x0,40(x4) # 28 <SECURE_ACCESS_PROBABILITY+0xa>
    41011240:	f2531ae3          	bne	x6,x5,41011174 <trap_handler_s__test_failed>
    41011244:	04023283          	ld	x5,64(x4) # 40 <XLEN>
    41011248:	04023023          	sd	x0,64(x4) # 40 <XLEN>
    4101124c:	00028663          	beqz	x5,41011258 <trap_handler_s__skip_nonzero_tval_check>

0000000041011250 <trap_handler_s__nonzero_tval_check>:
    41011250:	14302373          	csrr	x6,stval
    41011254:	f25310e3          	bne	x6,x5,41011174 <trap_handler_s__test_failed>

0000000041011258 <trap_handler_s__skip_nonzero_tval_check>:
    41011258:	0040006f          	j	4101125c <trap_handler_s__ecall_from_machine>

000000004101125c <trap_handler_s__ecall_from_machine>:
    4101125c:	03023283          	ld	x5,48(x4) # 30 <SECURE_ACCESS_PROBABILITY+0x12>
    41011260:	02023823          	sd	x0,48(x4) # 30 <SECURE_ACCESS_PROBABILITY+0x12>
    41011264:	07023303          	ld	x6,112(x4) # 70 <XLEN+0x30>
    41011268:	06023823          	sd	x0,112(x4) # 70 <XLEN+0x30>
    4101126c:	00031463          	bnez	x6,41011274 <trap_handler_s__skip_xepc_write>
    41011270:	14129073          	csrw	sepc,x5

0000000041011274 <trap_handler_s__skip_xepc_write>:
    41011274:	00000317          	auipc	x6,0x0
    41011278:	e0430313          	addi	x6,x6,-508 # 41011078 <trap_handler_s__trap_entry>
    4101127c:	10531073          	csrw	stvec,x6
    41011280:	14021273          	csrrw	x4,sscratch,x4
    41011284:	10200073          	sret

0000000041011288 <trap_handler_s__trap_panic>:
    41011288:	00000193          	li	x3,0
    4101128c:	00f00f9b          	addiw	x31,x0,15
    41011290:	01cf9f93          	slli	x31,x31,0x1c
    41011294:	002f8f93          	addi	x31,x31,2
    41011298:	00000073          	ecall

Disassembly of section .code:

00000000410150e0 <passed>:
    410150e0:	00f00f9b          	addiw	x31,x0,15
    410150e4:	01cf9f93          	slli	x31,x31,0x1c
    410150e8:	001f8f93          	addi	x31,x31,1
    410150ec:	00000073          	ecall

00000000410150f0 <failed>:
    410150f0:	00f00f9b          	addiw	x31,x0,15
    410150f4:	01cf9f93          	slli	x31,x31,0x1c
    410150f8:	002f8f93          	addi	x31,x31,2
    410150fc:	00000073          	ecall

0000000041015100 <end_test>:
    41015100:	00f00f9b          	addiw	x31,x0,15
    41015104:	01cf9f93          	slli	x31,x31,0x1c
    41015108:	003f8f93          	addi	x31,x31,3
    4101510c:	00000073          	ecall

0000000041015110 <test_setup>:
    41015110:	00f00f9b          	addiw	x31,x0,15
    41015114:	01cf9f93          	slli	x31,x31,0x1c
    41015118:	001f8f93          	addi	x31,x31,1
    4101511c:	00000073          	ecall

0000000041015120 <SID_ZICBO_001>:
    41015120:	0003d137          	lui	x2,0x3d
    41015124:	7336afb7          	lui	x31,0x7336a
    41015128:	955f8f9b          	addiw	x31,x31,-1707 # 73369955 <mem10+0x20adf955>
    4101512c:	00cf9f93          	slli	x31,x31,0xc
    41015130:	fdbf8f93          	addi	x31,x31,-37
    41015134:	00df9f93          	slli	x31,x31,0xd
    41015138:	0b8f8f93          	addi	x31,x31,184
    4101513c:	00100f13          	li	x30,1
    41015140:	01efb023          	sd	x30,0(x31)
    41015144:	000f0fb7          	lui	x31,0xf0
    41015148:	001f8f9b          	addiw	x31,x31,1 # f0001 <SID_ZICBO_006_stack+0x3d001>
    4101514c:	00cf9f93          	slli	x31,x31,0xc
    41015150:	005f8f93          	addi	x31,x31,5
    41015154:	00000073          	ecall
    41015158:	00713023          	sd	x7,0(x2) # 3d000 <tp_csr_storage>
    4101515c:	03115137          	lui	x2,0x3115
    41015160:	9091011b          	addiw	x2,x2,-1783 # 3114909 <SID_ZICBO_002_stack+0x16b7909>
    41015164:	00d11113          	slli	x2,x2,0xd
    41015168:	f7b10113          	addi	x2,x2,-133
    4101516c:	00c11113          	slli	x2,x2,0xc
    41015170:	000012b7          	lui	x5,0x1
    41015174:	00510133          	add	x2,x2,x5
    41015178:	ff017113          	andi	x2,x2,-16
    4101517c:	03000393          	li	x7,48
    41015180:	7336afb7          	lui	x31,0x7336a
    41015184:	955f8f9b          	addiw	x31,x31,-1707 # 73369955 <mem10+0x20adf955>
    41015188:	00cf9f93          	slli	x31,x31,0xc
    4101518c:	fdbf8f93          	addi	x31,x31,-37
    41015190:	00df9f93          	slli	x31,x31,0xd
    41015194:	0b8f8f93          	addi	x31,x31,184
    41015198:	00200f13          	li	x30,2
    4101519c:	01efb023          	sd	x30,0(x31)
    410151a0:	000f0fb7          	lui	x31,0xf0
    410151a4:	001f8f9b          	addiw	x31,x31,1 # f0001 <SID_ZICBO_006_stack+0x3d001>
    410151a8:	00cf9f93          	slli	x31,x31,0xc
    410151ac:	005f8f93          	addi	x31,x31,5
    410151b0:	00000073          	ecall
    410151b4:	03f79237          	lui	x4,0x3f79
    410151b8:	0132021b          	addiw	x4,x4,19 # 3f79013 <SID_ZICBO_002_stack+0x251c013>
    410151bc:	00f21213          	slli	x4,x4,0xf
    410151c0:	dd520213          	addi	x4,x4,-555 # fffffffffffffdd5 <__section_os_data_1+0xff1992cd56048dd5>
    410151c4:	00c21213          	slli	x4,x4,0xc
    410151c8:	00200e13          	li	x28,2
    410151cc:	05c23823          	sd	x28,80(x4) # 50 <XLEN+0x10>
    410151d0:	00000e17          	auipc	x28,0x0
    410151d4:	054e0e13          	addi	x28,x28,84 # 41015224 <fault_label_0>
    410151d8:	03c23023          	sd	x28,32(x4) # 20 <SECURE_ACCESS_PROBABILITY+0x2>
    410151dc:	00000e13          	li	x28,0
    410151e0:	05c23023          	sd	x28,64(x4) # 40 <XLEN>
    410151e4:	00000e13          	li	x28,0
    410151e8:	05c23423          	sd	x28,72(x4) # 48 <XLEN+0x8>
    410151ec:	00000e17          	auipc	x28,0x0
    410151f0:	05ce0e13          	addi	x28,x28,92 # 41015248 <excp_return_label_0>
    410151f4:	03c23823          	sd	x28,48(x4) # 30 <SECURE_ACCESS_PROBABILITY+0x12>
    410151f8:	00000e13          	li	x28,0
    410151fc:	03c23c23          	sd	x28,56(x4) # 38 <SECURE_ACCESS_PROBABILITY+0x1a>
    41015200:	00000e13          	li	x28,0
    41015204:	07c23023          	sd	x28,96(x4) # 60 <XLEN+0x20>
    41015208:	00000e13          	li	x28,0
    4101520c:	07c23423          	sd	x28,104(x4) # 68 <XLEN+0x28>
    41015210:	00000e13          	li	x28,0
    41015214:	07c23823          	sd	x28,112(x4) # 70 <XLEN+0x30>
    41015218:	0408a437          	lui	x8,0x408a
    4101521c:	00000513          	li	x10,0
    41015220:	00a405b3          	add	x11,x8,x10

0000000041015224 <fault_label_0>:
    41015224:	0005a00f          	cbo.inval	(x11)
    41015228:	7336aab7          	lui	x21,0x7336a
    4101522c:	955a8a9b          	addiw	x21,x21,-1707 # 73369955 <mem10+0x20adf955>
    41015230:	00ca9a93          	slli	x21,x21,0xc
    41015234:	fdba8a93          	addi	x21,x21,-37
    41015238:	00da9a93          	slli	x21,x21,0xd
    4101523c:	008a8a93          	addi	x21,x21,8
    41015240:	000ab783          	ld	x15,0(x21)
    41015244:	00078067          	jr	x15

0000000041015248 <excp_return_label_0>:
    41015248:	0003d137          	lui	x2,0x3d
    4101524c:	00013383          	ld	x7,0(x2) # 3d000 <tp_csr_storage>
    41015250:	7336afb7          	lui	x31,0x7336a
    41015254:	955f8f9b          	addiw	x31,x31,-1707 # 73369955 <mem10+0x20adf955>
    41015258:	00cf9f93          	slli	x31,x31,0xc
    4101525c:	fdbf8f93          	addi	x31,x31,-37
    41015260:	00df9f93          	slli	x31,x31,0xd
    41015264:	0b8f8f93          	addi	x31,x31,184
    41015268:	00300f13          	li	x30,3
    4101526c:	01efb023          	sd	x30,0(x31)
    41015270:	000f0fb7          	lui	x31,0xf0
    41015274:	001f8f9b          	addiw	x31,x31,1 # f0001 <SID_ZICBO_006_stack+0x3d001>
    41015278:	00cf9f93          	slli	x31,x31,0xc
    4101527c:	005f8f93          	addi	x31,x31,5
    41015280:	00000073          	ecall

0000000041015284 <SID_ZICBO_001_passed>:
    41015284:	00f00f9b          	addiw	x31,x0,15
    41015288:	01cf9f93          	slli	x31,x31,0x1c
    4101528c:	001f8f93          	addi	x31,x31,1
    41015290:	00000073          	ecall

0000000041015294 <SID_ZICBO_002>:
    41015294:	0003d137          	lui	x2,0x3d
    41015298:	7336afb7          	lui	x31,0x7336a
    4101529c:	955f8f9b          	addiw	x31,x31,-1707 # 73369955 <mem10+0x20adf955>
    410152a0:	00cf9f93          	slli	x31,x31,0xc
    410152a4:	fdbf8f93          	addi	x31,x31,-37
    410152a8:	00df9f93          	slli	x31,x31,0xd
    410152ac:	0b8f8f93          	addi	x31,x31,184
    410152b0:	00400f13          	li	x30,4
    410152b4:	01efb023          	sd	x30,0(x31)
    410152b8:	000f0fb7          	lui	x31,0xf0
    410152bc:	001f8f9b          	addiw	x31,x31,1 # f0001 <SID_ZICBO_006_stack+0x3d001>
    410152c0:	00cf9f93          	slli	x31,x31,0xc
    410152c4:	005f8f93          	addi	x31,x31,5
    410152c8:	00000073          	ecall
    410152cc:	00713023          	sd	x7,0(x2) # 3d000 <tp_csr_storage>
    410152d0:	01a5d137          	lui	x2,0x1a5d
    410152d4:	000012b7          	lui	x5,0x1
    410152d8:	00510133          	add	x2,x2,x5
    410152dc:	ff017113          	andi	x2,x2,-16
    410152e0:	03000393          	li	x7,48
    410152e4:	7336afb7          	lui	x31,0x7336a
    410152e8:	955f8f9b          	addiw	x31,x31,-1707 # 73369955 <mem10+0x20adf955>
    410152ec:	00cf9f93          	slli	x31,x31,0xc
    410152f0:	fdbf8f93          	addi	x31,x31,-37
    410152f4:	00df9f93          	slli	x31,x31,0xd
    410152f8:	0c0f8f93          	addi	x31,x31,192
    410152fc:	00500f13          	li	x30,5
    41015300:	01efb023          	sd	x30,0(x31)
    41015304:	000f0fb7          	lui	x31,0xf0
    41015308:	001f8f9b          	addiw	x31,x31,1 # f0001 <SID_ZICBO_006_stack+0x3d001>
    4101530c:	00cf9f93          	slli	x31,x31,0xc
    41015310:	006f8f93          	addi	x31,x31,6
    41015314:	00000073          	ecall
    41015318:	03f79237          	lui	x4,0x3f79
    4101531c:	0132021b          	addiw	x4,x4,19 # 3f79013 <SID_ZICBO_002_stack+0x251c013>
    41015320:	00f21213          	slli	x4,x4,0xf
    41015324:	dd520213          	addi	x4,x4,-555 # fffffffffffffdd5 <__section_os_data_1+0xff1992cd56048dd5>
    41015328:	00c21213          	slli	x4,x4,0xc
    4101532c:	00200e13          	li	x28,2
    41015330:	05c23823          	sd	x28,80(x4) # 50 <XLEN+0x10>
    41015334:	00000e17          	auipc	x28,0x0
    41015338:	054e0e13          	addi	x28,x28,84 # 41015388 <fault_label_1>
    4101533c:	03c23023          	sd	x28,32(x4) # 20 <SECURE_ACCESS_PROBABILITY+0x2>
    41015340:	00000e13          	li	x28,0
    41015344:	05c23023          	sd	x28,64(x4) # 40 <XLEN>
    41015348:	00000e13          	li	x28,0
    4101534c:	05c23423          	sd	x28,72(x4) # 48 <XLEN+0x8>
    41015350:	00000e17          	auipc	x28,0x0
    41015354:	05ce0e13          	addi	x28,x28,92 # 410153ac <excp_return_label_1>
    41015358:	03c23823          	sd	x28,48(x4) # 30 <SECURE_ACCESS_PROBABILITY+0x12>
    4101535c:	00000e13          	li	x28,0
    41015360:	03c23c23          	sd	x28,56(x4) # 38 <SECURE_ACCESS_PROBABILITY+0x1a>
    41015364:	00000e13          	li	x28,0
    41015368:	07c23023          	sd	x28,96(x4) # 60 <XLEN+0x20>
    4101536c:	00000e13          	li	x28,0
    41015370:	07c23423          	sd	x28,104(x4) # 68 <XLEN+0x28>
    41015374:	00000e13          	li	x28,0
    41015378:	07c23823          	sd	x28,112(x4) # 70 <XLEN+0x30>
    4101537c:	00644f37          	lui	x30,0x644
    41015380:	00000e13          	li	x28,0
    41015384:	01cf0833          	add	x16,x30,x28

0000000041015388 <fault_label_1>:
    41015388:	0008200f          	cbo.inval	(x16)
    4101538c:	7336a7b7          	lui	x15,0x7336a
    41015390:	9557879b          	addiw	x15,x15,-1707 # 73369955 <mem10+0x20adf955>
    41015394:	00c79793          	slli	x15,x15,0xc
    41015398:	fdb78793          	addi	x15,x15,-37
    4101539c:	00d79793          	slli	x15,x15,0xd
    410153a0:	00878793          	addi	x15,x15,8
    410153a4:	0007be83          	ld	x29,0(x15)
    410153a8:	000e8067          	jr	x29

00000000410153ac <excp_return_label_1>:
    410153ac:	0003d137          	lui	x2,0x3d
    410153b0:	00013383          	ld	x7,0(x2) # 3d000 <tp_csr_storage>
    410153b4:	7336afb7          	lui	x31,0x7336a
    410153b8:	955f8f9b          	addiw	x31,x31,-1707 # 73369955 <mem10+0x20adf955>
    410153bc:	00cf9f93          	slli	x31,x31,0xc
    410153c0:	fdbf8f93          	addi	x31,x31,-37
    410153c4:	00df9f93          	slli	x31,x31,0xd
    410153c8:	0b8f8f93          	addi	x31,x31,184
    410153cc:	00600f13          	li	x30,6
    410153d0:	01efb023          	sd	x30,0(x31)
    410153d4:	000f0fb7          	lui	x31,0xf0
    410153d8:	001f8f9b          	addiw	x31,x31,1 # f0001 <SID_ZICBO_006_stack+0x3d001>
    410153dc:	00cf9f93          	slli	x31,x31,0xc
    410153e0:	005f8f93          	addi	x31,x31,5
    410153e4:	00000073          	ecall

00000000410153e8 <SID_ZICBO_002_passed>:
    410153e8:	00f00f9b          	addiw	x31,x0,15
    410153ec:	01cf9f93          	slli	x31,x31,0x1c
    410153f0:	001f8f93          	addi	x31,x31,1
    410153f4:	00000073          	ecall

00000000410153f8 <SID_ZICBO_003>:
    410153f8:	0003d137          	lui	x2,0x3d
    410153fc:	7336afb7          	lui	x31,0x7336a
    41015400:	955f8f9b          	addiw	x31,x31,-1707 # 73369955 <mem10+0x20adf955>
    41015404:	00cf9f93          	slli	x31,x31,0xc
    41015408:	fdbf8f93          	addi	x31,x31,-37
    4101540c:	00df9f93          	slli	x31,x31,0xd
    41015410:	0b8f8f93          	addi	x31,x31,184
    41015414:	00100f13          	li	x30,1
    41015418:	01efb023          	sd	x30,0(x31)
    4101541c:	000f0fb7          	lui	x31,0xf0
    41015420:	001f8f9b          	addiw	x31,x31,1 # f0001 <SID_ZICBO_006_stack+0x3d001>
    41015424:	00cf9f93          	slli	x31,x31,0xc
    41015428:	005f8f93          	addi	x31,x31,5
    4101542c:	00000073          	ecall
    41015430:	00713023          	sd	x7,0(x2) # 3d000 <tp_csr_storage>
    41015434:	01587137          	lui	x2,0x1587
    41015438:	000012b7          	lui	x5,0x1
    4101543c:	00510133          	add	x2,x2,x5
    41015440:	ff017113          	andi	x2,x2,-16
    41015444:	04000393          	li	x7,64
    41015448:	7336afb7          	lui	x31,0x7336a
    4101544c:	955f8f9b          	addiw	x31,x31,-1707 # 73369955 <mem10+0x20adf955>
    41015450:	00cf9f93          	slli	x31,x31,0xc
    41015454:	fdbf8f93          	addi	x31,x31,-37
    41015458:	00df9f93          	slli	x31,x31,0xd
    4101545c:	0b8f8f93          	addi	x31,x31,184
    41015460:	00200f13          	li	x30,2
    41015464:	01efb023          	sd	x30,0(x31)
    41015468:	000f0fb7          	lui	x31,0xf0
    4101546c:	001f8f9b          	addiw	x31,x31,1 # f0001 <SID_ZICBO_006_stack+0x3d001>
    41015470:	00cf9f93          	slli	x31,x31,0xc
    41015474:	005f8f93          	addi	x31,x31,5
    41015478:	00000073          	ecall
    4101547c:	03f79237          	lui	x4,0x3f79
    41015480:	0132021b          	addiw	x4,x4,19 # 3f79013 <SID_ZICBO_002_stack+0x251c013>
    41015484:	00f21213          	slli	x4,x4,0xf
    41015488:	dd520213          	addi	x4,x4,-555 # fffffffffffffdd5 <__section_os_data_1+0xff1992cd56048dd5>
    4101548c:	00c21213          	slli	x4,x4,0xc
    41015490:	00200e13          	li	x28,2
    41015494:	05c23823          	sd	x28,80(x4) # 50 <XLEN+0x10>
    41015498:	00000e17          	auipc	x28,0x0
    4101549c:	054e0e13          	addi	x28,x28,84 # 410154ec <fault_label_2>
    410154a0:	03c23023          	sd	x28,32(x4) # 20 <SECURE_ACCESS_PROBABILITY+0x2>
    410154a4:	00000e13          	li	x28,0
    410154a8:	05c23023          	sd	x28,64(x4) # 40 <XLEN>
    410154ac:	00000e13          	li	x28,0
    410154b0:	05c23423          	sd	x28,72(x4) # 48 <XLEN+0x8>
    410154b4:	00000e17          	auipc	x28,0x0
    410154b8:	05ce0e13          	addi	x28,x28,92 # 41015510 <excp_return_label_2>
    410154bc:	03c23823          	sd	x28,48(x4) # 30 <SECURE_ACCESS_PROBABILITY+0x12>
    410154c0:	00000e13          	li	x28,0
    410154c4:	03c23c23          	sd	x28,56(x4) # 38 <SECURE_ACCESS_PROBABILITY+0x1a>
    410154c8:	00000e13          	li	x28,0
    410154cc:	07c23023          	sd	x28,96(x4) # 60 <XLEN+0x20>
    410154d0:	00000e13          	li	x28,0
    410154d4:	07c23423          	sd	x28,104(x4) # 68 <XLEN+0x28>
    410154d8:	00000e13          	li	x28,0
    410154dc:	07c23823          	sd	x28,112(x4) # 70 <XLEN+0x30>
    410154e0:	000026b7          	lui	x13,0x2
    410154e4:	00000d93          	li	x27,0
    410154e8:	01b68433          	add	x8,x13,x27

00000000410154ec <fault_label_2>:
    410154ec:	0014200f          	cbo.clean	(x8)
    410154f0:	7336ae37          	lui	x28,0x7336a
    410154f4:	955e0e1b          	addiw	x28,x28,-1707 # 73369955 <mem10+0x20adf955>
    410154f8:	00ce1e13          	slli	x28,x28,0xc
    410154fc:	fdbe0e13          	addi	x28,x28,-37
    41015500:	00de1e13          	slli	x28,x28,0xd
    41015504:	008e0e13          	addi	x28,x28,8
    41015508:	000e3383          	ld	x7,0(x28)
    4101550c:	00038067          	jr	x7

0000000041015510 <excp_return_label_2>:
    41015510:	03f79237          	lui	x4,0x3f79
    41015514:	0132021b          	addiw	x4,x4,19 # 3f79013 <SID_ZICBO_002_stack+0x251c013>
    41015518:	00f21213          	slli	x4,x4,0xf
    4101551c:	dd520213          	addi	x4,x4,-555 # fffffffffffffdd5 <__section_os_data_1+0xff1992cd56048dd5>
    41015520:	00c21213          	slli	x4,x4,0xc
    41015524:	00200e13          	li	x28,2
    41015528:	05c23823          	sd	x28,80(x4) # 50 <XLEN+0x10>
    4101552c:	00000e17          	auipc	x28,0x0
    41015530:	054e0e13          	addi	x28,x28,84 # 41015580 <fault_label_3>
    41015534:	03c23023          	sd	x28,32(x4) # 20 <SECURE_ACCESS_PROBABILITY+0x2>
    41015538:	00000e13          	li	x28,0
    4101553c:	05c23023          	sd	x28,64(x4) # 40 <XLEN>
    41015540:	00000e13          	li	x28,0
    41015544:	05c23423          	sd	x28,72(x4) # 48 <XLEN+0x8>
    41015548:	00000e17          	auipc	x28,0x0
    4101554c:	05ce0e13          	addi	x28,x28,92 # 410155a4 <excp_return_label_3>
    41015550:	03c23823          	sd	x28,48(x4) # 30 <SECURE_ACCESS_PROBABILITY+0x12>
    41015554:	00000e13          	li	x28,0
    41015558:	03c23c23          	sd	x28,56(x4) # 38 <SECURE_ACCESS_PROBABILITY+0x1a>
    4101555c:	00000e13          	li	x28,0
    41015560:	07c23023          	sd	x28,96(x4) # 60 <XLEN+0x20>
    41015564:	00000e13          	li	x28,0
    41015568:	07c23423          	sd	x28,104(x4) # 68 <XLEN+0x28>
    4101556c:	00000e13          	li	x28,0
    41015570:	07c23823          	sd	x28,112(x4) # 70 <XLEN+0x30>
    41015574:	00002737          	lui	x14,0x2
    41015578:	00000b93          	li	x23,0
    4101557c:	01770db3          	add	x27,x14,x23

0000000041015580 <fault_label_3>:
    41015580:	002da00f          	cbo.flush	(x27)
    41015584:	7336ab37          	lui	x22,0x7336a
    41015588:	955b0b1b          	addiw	x22,x22,-1707 # 73369955 <mem10+0x20adf955>
    4101558c:	00cb1b13          	slli	x22,x22,0xc
    41015590:	fdbb0b13          	addi	x22,x22,-37
    41015594:	00db1b13          	slli	x22,x22,0xd
    41015598:	008b0b13          	addi	x22,x22,8
    4101559c:	000b3b03          	ld	x22,0(x22)
    410155a0:	000b0067          	jr	x22

00000000410155a4 <excp_return_label_3>:
    410155a4:	0003d137          	lui	x2,0x3d
    410155a8:	00013383          	ld	x7,0(x2) # 3d000 <tp_csr_storage>
    410155ac:	7336afb7          	lui	x31,0x7336a
    410155b0:	955f8f9b          	addiw	x31,x31,-1707 # 73369955 <mem10+0x20adf955>
    410155b4:	00cf9f93          	slli	x31,x31,0xc
    410155b8:	fdbf8f93          	addi	x31,x31,-37
    410155bc:	00df9f93          	slli	x31,x31,0xd
    410155c0:	0b8f8f93          	addi	x31,x31,184
    410155c4:	00300f13          	li	x30,3
    410155c8:	01efb023          	sd	x30,0(x31)
    410155cc:	000f0fb7          	lui	x31,0xf0
    410155d0:	001f8f9b          	addiw	x31,x31,1 # f0001 <SID_ZICBO_006_stack+0x3d001>
    410155d4:	00cf9f93          	slli	x31,x31,0xc
    410155d8:	005f8f93          	addi	x31,x31,5
    410155dc:	00000073          	ecall

00000000410155e0 <SID_ZICBO_003_passed>:
    410155e0:	00f00f9b          	addiw	x31,x0,15
    410155e4:	01cf9f93          	slli	x31,x31,0x1c
    410155e8:	001f8f93          	addi	x31,x31,1
    410155ec:	00000073          	ecall

00000000410155f0 <SID_ZICBO_004>:
    410155f0:	0003d137          	lui	x2,0x3d
    410155f4:	7336afb7          	lui	x31,0x7336a
    410155f8:	955f8f9b          	addiw	x31,x31,-1707 # 73369955 <mem10+0x20adf955>
    410155fc:	00cf9f93          	slli	x31,x31,0xc
    41015600:	fdbf8f93          	addi	x31,x31,-37
    41015604:	00df9f93          	slli	x31,x31,0xd
    41015608:	0b8f8f93          	addi	x31,x31,184
    4101560c:	00400f13          	li	x30,4
    41015610:	01efb023          	sd	x30,0(x31)
    41015614:	000f0fb7          	lui	x31,0xf0
    41015618:	001f8f9b          	addiw	x31,x31,1 # f0001 <SID_ZICBO_006_stack+0x3d001>
    4101561c:	00cf9f93          	slli	x31,x31,0xc
    41015620:	005f8f93          	addi	x31,x31,5
    41015624:	00000073          	ecall
    41015628:	00713023          	sd	x7,0(x2) # 3d000 <tp_csr_storage>
    4101562c:	6dd57137          	lui	x2,0x6dd57
    41015630:	86d1011b          	addiw	x2,x2,-1939 # 6dd5686d <mem10+0x1b4cc86d>
    41015634:	00c11113          	slli	x2,x2,0xc
    41015638:	8cd10113          	addi	x2,x2,-1843
    4101563c:	00d11113          	slli	x2,x2,0xd
    41015640:	000012b7          	lui	x5,0x1
    41015644:	00510133          	add	x2,x2,x5
    41015648:	ff017113          	andi	x2,x2,-16
    4101564c:	04000393          	li	x7,64
    41015650:	7336afb7          	lui	x31,0x7336a
    41015654:	955f8f9b          	addiw	x31,x31,-1707 # 73369955 <mem10+0x20adf955>
    41015658:	00cf9f93          	slli	x31,x31,0xc
    4101565c:	fdbf8f93          	addi	x31,x31,-37
    41015660:	00df9f93          	slli	x31,x31,0xd
    41015664:	0c0f8f93          	addi	x31,x31,192
    41015668:	00500f13          	li	x30,5
    4101566c:	01efb023          	sd	x30,0(x31)
    41015670:	000f0fb7          	lui	x31,0xf0
    41015674:	001f8f9b          	addiw	x31,x31,1 # f0001 <SID_ZICBO_006_stack+0x3d001>
    41015678:	00cf9f93          	slli	x31,x31,0xc
    4101567c:	006f8f93          	addi	x31,x31,6
    41015680:	00000073          	ecall
    41015684:	03f79237          	lui	x4,0x3f79
    41015688:	0132021b          	addiw	x4,x4,19 # 3f79013 <SID_ZICBO_002_stack+0x251c013>
    4101568c:	00f21213          	slli	x4,x4,0xf
    41015690:	dd520213          	addi	x4,x4,-555 # fffffffffffffdd5 <__section_os_data_1+0xff1992cd56048dd5>
    41015694:	00c21213          	slli	x4,x4,0xc
    41015698:	00200e13          	li	x28,2
    4101569c:	05c23823          	sd	x28,80(x4) # 50 <XLEN+0x10>
    410156a0:	00000e17          	auipc	x28,0x0
    410156a4:	054e0e13          	addi	x28,x28,84 # 410156f4 <fault_label_4>
    410156a8:	03c23023          	sd	x28,32(x4) # 20 <SECURE_ACCESS_PROBABILITY+0x2>
    410156ac:	00000e13          	li	x28,0
    410156b0:	05c23023          	sd	x28,64(x4) # 40 <XLEN>
    410156b4:	00000e13          	li	x28,0
    410156b8:	05c23423          	sd	x28,72(x4) # 48 <XLEN+0x8>
    410156bc:	00000e17          	auipc	x28,0x0
    410156c0:	05ce0e13          	addi	x28,x28,92 # 41015718 <excp_return_label_4>
    410156c4:	03c23823          	sd	x28,48(x4) # 30 <SECURE_ACCESS_PROBABILITY+0x12>
    410156c8:	00000e13          	li	x28,0
    410156cc:	03c23c23          	sd	x28,56(x4) # 38 <SECURE_ACCESS_PROBABILITY+0x1a>
    410156d0:	00000e13          	li	x28,0
    410156d4:	07c23023          	sd	x28,96(x4) # 60 <XLEN+0x20>
    410156d8:	00000e13          	li	x28,0
    410156dc:	07c23423          	sd	x28,104(x4) # 68 <XLEN+0x28>
    410156e0:	00000e13          	li	x28,0
    410156e4:	07c23823          	sd	x28,112(x4) # 70 <XLEN+0x30>
    410156e8:	002fef37          	lui	x30,0x2fe
    410156ec:	00000b93          	li	x23,0
    410156f0:	017f0933          	add	x18,x30,x23

00000000410156f4 <fault_label_4>:
    410156f4:	0019200f          	cbo.clean	(x18)
    410156f8:	7336ad37          	lui	x26,0x7336a
    410156fc:	955d0d1b          	addiw	x26,x26,-1707 # 73369955 <mem10+0x20adf955>
    41015700:	00cd1d13          	slli	x26,x26,0xc
    41015704:	fdbd0d13          	addi	x26,x26,-37
    41015708:	00dd1d13          	slli	x26,x26,0xd
    4101570c:	008d0d13          	addi	x26,x26,8
    41015710:	000d3b03          	ld	x22,0(x26)
    41015714:	000b0067          	jr	x22

0000000041015718 <excp_return_label_4>:
    41015718:	03f79237          	lui	x4,0x3f79
    4101571c:	0132021b          	addiw	x4,x4,19 # 3f79013 <SID_ZICBO_002_stack+0x251c013>
    41015720:	00f21213          	slli	x4,x4,0xf
    41015724:	dd520213          	addi	x4,x4,-555 # fffffffffffffdd5 <__section_os_data_1+0xff1992cd56048dd5>
    41015728:	00c21213          	slli	x4,x4,0xc
    4101572c:	00200e13          	li	x28,2
    41015730:	05c23823          	sd	x28,80(x4) # 50 <XLEN+0x10>
    41015734:	00000e17          	auipc	x28,0x0
    41015738:	054e0e13          	addi	x28,x28,84 # 41015788 <fault_label_5>
    4101573c:	03c23023          	sd	x28,32(x4) # 20 <SECURE_ACCESS_PROBABILITY+0x2>
    41015740:	00000e13          	li	x28,0
    41015744:	05c23023          	sd	x28,64(x4) # 40 <XLEN>
    41015748:	00000e13          	li	x28,0
    4101574c:	05c23423          	sd	x28,72(x4) # 48 <XLEN+0x8>
    41015750:	00000e17          	auipc	x28,0x0
    41015754:	05ce0e13          	addi	x28,x28,92 # 410157ac <excp_return_label_5>
    41015758:	03c23823          	sd	x28,48(x4) # 30 <SECURE_ACCESS_PROBABILITY+0x12>
    4101575c:	00000e13          	li	x28,0
    41015760:	03c23c23          	sd	x28,56(x4) # 38 <SECURE_ACCESS_PROBABILITY+0x1a>
    41015764:	00000e13          	li	x28,0
    41015768:	07c23023          	sd	x28,96(x4) # 60 <XLEN+0x20>
    4101576c:	00000e13          	li	x28,0
    41015770:	07c23423          	sd	x28,104(x4) # 68 <XLEN+0x28>
    41015774:	00000e13          	li	x28,0
    41015778:	07c23823          	sd	x28,112(x4) # 70 <XLEN+0x30>
    4101577c:	002fedb7          	lui	x27,0x2fe
    41015780:	00000793          	li	x15,0
    41015784:	00fd8433          	add	x8,x27,x15

0000000041015788 <fault_label_5>:
    41015788:	0024200f          	cbo.flush	(x8)
    4101578c:	7336a337          	lui	x6,0x7336a
    41015790:	9553031b          	addiw	x6,x6,-1707 # 73369955 <mem10+0x20adf955>
    41015794:	00c31313          	slli	x6,x6,0xc
    41015798:	fdb30313          	addi	x6,x6,-37
    4101579c:	00d31313          	slli	x6,x6,0xd
    410157a0:	00830313          	addi	x6,x6,8
    410157a4:	00033c03          	ld	x24,0(x6)
    410157a8:	000c0067          	jr	x24

00000000410157ac <excp_return_label_5>:
    410157ac:	0003d137          	lui	x2,0x3d
    410157b0:	00013383          	ld	x7,0(x2) # 3d000 <tp_csr_storage>
    410157b4:	7336afb7          	lui	x31,0x7336a
    410157b8:	955f8f9b          	addiw	x31,x31,-1707 # 73369955 <mem10+0x20adf955>
    410157bc:	00cf9f93          	slli	x31,x31,0xc
    410157c0:	fdbf8f93          	addi	x31,x31,-37
    410157c4:	00df9f93          	slli	x31,x31,0xd
    410157c8:	0b8f8f93          	addi	x31,x31,184
    410157cc:	00600f13          	li	x30,6
    410157d0:	01efb023          	sd	x30,0(x31)
    410157d4:	000f0fb7          	lui	x31,0xf0
    410157d8:	001f8f9b          	addiw	x31,x31,1 # f0001 <SID_ZICBO_006_stack+0x3d001>
    410157dc:	00cf9f93          	slli	x31,x31,0xc
    410157e0:	005f8f93          	addi	x31,x31,5
    410157e4:	00000073          	ecall

00000000410157e8 <SID_ZICBO_004_passed>:
    410157e8:	00f00f9b          	addiw	x31,x0,15
    410157ec:	01cf9f93          	slli	x31,x31,0x1c
    410157f0:	001f8f93          	addi	x31,x31,1
    410157f4:	00000073          	ecall

00000000410157f8 <SID_ZICBO_005>:
    410157f8:	0003d137          	lui	x2,0x3d
    410157fc:	7336afb7          	lui	x31,0x7336a
    41015800:	955f8f9b          	addiw	x31,x31,-1707 # 73369955 <mem10+0x20adf955>
    41015804:	00cf9f93          	slli	x31,x31,0xc
    41015808:	fdbf8f93          	addi	x31,x31,-37
    4101580c:	00df9f93          	slli	x31,x31,0xd
    41015810:	0b8f8f93          	addi	x31,x31,184
    41015814:	00100f13          	li	x30,1
    41015818:	01efb023          	sd	x30,0(x31)
    4101581c:	000f0fb7          	lui	x31,0xf0
    41015820:	001f8f9b          	addiw	x31,x31,1 # f0001 <SID_ZICBO_006_stack+0x3d001>
    41015824:	00cf9f93          	slli	x31,x31,0xc
    41015828:	005f8f93          	addi	x31,x31,5
    4101582c:	00000073          	ecall
    41015830:	00713023          	sd	x7,0(x2) # 3d000 <tp_csr_storage>
    41015834:	00038137          	lui	x2,0x38
    41015838:	d111011b          	addiw	x2,x2,-751 # 37d11 <SID_ZICBO_017_stack+0x1d11>
    4101583c:	01011113          	slli	x2,x2,0x10
    41015840:	000012b7          	lui	x5,0x1
    41015844:	00510133          	add	x2,x2,x5
    41015848:	ff017113          	andi	x2,x2,-16
    4101584c:	08000393          	li	x7,128
    41015850:	7336afb7          	lui	x31,0x7336a
    41015854:	955f8f9b          	addiw	x31,x31,-1707 # 73369955 <mem10+0x20adf955>
    41015858:	00cf9f93          	slli	x31,x31,0xc
    4101585c:	fdbf8f93          	addi	x31,x31,-37
    41015860:	00df9f93          	slli	x31,x31,0xd
    41015864:	0b8f8f93          	addi	x31,x31,184
    41015868:	00200f13          	li	x30,2
    4101586c:	01efb023          	sd	x30,0(x31)
    41015870:	000f0fb7          	lui	x31,0xf0
    41015874:	001f8f9b          	addiw	x31,x31,1 # f0001 <SID_ZICBO_006_stack+0x3d001>
    41015878:	00cf9f93          	slli	x31,x31,0xc
    4101587c:	005f8f93          	addi	x31,x31,5
    41015880:	00000073          	ecall
    41015884:	03f79237          	lui	x4,0x3f79
    41015888:	0132021b          	addiw	x4,x4,19 # 3f79013 <SID_ZICBO_002_stack+0x251c013>
    4101588c:	00f21213          	slli	x4,x4,0xf
    41015890:	dd520213          	addi	x4,x4,-555 # fffffffffffffdd5 <__section_os_data_1+0xff1992cd56048dd5>
    41015894:	00c21213          	slli	x4,x4,0xc
    41015898:	00200e13          	li	x28,2
    4101589c:	05c23823          	sd	x28,80(x4) # 50 <XLEN+0x10>
    410158a0:	00000e17          	auipc	x28,0x0
    410158a4:	064e0e13          	addi	x28,x28,100 # 41015904 <fault_label_6>
    410158a8:	03c23023          	sd	x28,32(x4) # 20 <SECURE_ACCESS_PROBABILITY+0x2>
    410158ac:	00000e13          	li	x28,0
    410158b0:	05c23023          	sd	x28,64(x4) # 40 <XLEN>
    410158b4:	00000e13          	li	x28,0
    410158b8:	05c23423          	sd	x28,72(x4) # 48 <XLEN+0x8>
    410158bc:	00000e17          	auipc	x28,0x0
    410158c0:	06ce0e13          	addi	x28,x28,108 # 41015928 <excp_return_label_6>
    410158c4:	03c23823          	sd	x28,48(x4) # 30 <SECURE_ACCESS_PROBABILITY+0x12>
    410158c8:	00000e13          	li	x28,0
    410158cc:	03c23c23          	sd	x28,56(x4) # 38 <SECURE_ACCESS_PROBABILITY+0x1a>
    410158d0:	00000e13          	li	x28,0
    410158d4:	07c23023          	sd	x28,96(x4) # 60 <XLEN+0x20>
    410158d8:	00000e13          	li	x28,0
    410158dc:	07c23423          	sd	x28,104(x4) # 68 <XLEN+0x28>
    410158e0:	00000e13          	li	x28,0
    410158e4:	07c23823          	sd	x28,112(x4) # 70 <XLEN+0x30>
    410158e8:	07f75ab7          	lui	x21,0x7f75
    410158ec:	299a8a9b          	addiw	x21,x21,665 # 7f75299 <mem0+0x3eeb299>
    410158f0:	00ea9a93          	slli	x21,x21,0xe
    410158f4:	cfda8a93          	addi	x21,x21,-771
    410158f8:	00ca9a93          	slli	x21,x21,0xc
    410158fc:	00000893          	li	x17,0
    41015900:	011a8a33          	add	x20,x21,x17

0000000041015904 <fault_label_6>:
    41015904:	004a200f          	cbo.zero	(x20)
    41015908:	7336abb7          	lui	x23,0x7336a
    4101590c:	955b8b9b          	addiw	x23,x23,-1707 # 73369955 <mem10+0x20adf955>
    41015910:	00cb9b93          	slli	x23,x23,0xc
    41015914:	fdbb8b93          	addi	x23,x23,-37
    41015918:	00db9b93          	slli	x23,x23,0xd
    4101591c:	008b8b93          	addi	x23,x23,8
    41015920:	000bbd83          	ld	x27,0(x23)
    41015924:	000d8067          	jr	x27 # 2fe000 <mem3>

0000000041015928 <excp_return_label_6>:
    41015928:	0003d137          	lui	x2,0x3d
    4101592c:	00013383          	ld	x7,0(x2) # 3d000 <tp_csr_storage>
    41015930:	7336afb7          	lui	x31,0x7336a
    41015934:	955f8f9b          	addiw	x31,x31,-1707 # 73369955 <mem10+0x20adf955>
    41015938:	00cf9f93          	slli	x31,x31,0xc
    4101593c:	fdbf8f93          	addi	x31,x31,-37
    41015940:	00df9f93          	slli	x31,x31,0xd
    41015944:	0b8f8f93          	addi	x31,x31,184
    41015948:	00300f13          	li	x30,3
    4101594c:	01efb023          	sd	x30,0(x31)
    41015950:	000f0fb7          	lui	x31,0xf0
    41015954:	001f8f9b          	addiw	x31,x31,1 # f0001 <SID_ZICBO_006_stack+0x3d001>
    41015958:	00cf9f93          	slli	x31,x31,0xc
    4101595c:	005f8f93          	addi	x31,x31,5
    41015960:	00000073          	ecall

0000000041015964 <SID_ZICBO_005_passed>:
    41015964:	00f00f9b          	addiw	x31,x0,15
    41015968:	01cf9f93          	slli	x31,x31,0x1c
    4101596c:	001f8f93          	addi	x31,x31,1
    41015970:	00000073          	ecall

0000000041015974 <SID_ZICBO_006>:
    41015974:	0003d137          	lui	x2,0x3d
    41015978:	7336afb7          	lui	x31,0x7336a
    4101597c:	955f8f9b          	addiw	x31,x31,-1707 # 73369955 <mem10+0x20adf955>
    41015980:	00cf9f93          	slli	x31,x31,0xc
    41015984:	fdbf8f93          	addi	x31,x31,-37
    41015988:	00df9f93          	slli	x31,x31,0xd
    4101598c:	0b8f8f93          	addi	x31,x31,184
    41015990:	00400f13          	li	x30,4
    41015994:	01efb023          	sd	x30,0(x31)
    41015998:	000f0fb7          	lui	x31,0xf0
    4101599c:	001f8f9b          	addiw	x31,x31,1 # f0001 <SID_ZICBO_006_stack+0x3d001>
    410159a0:	00cf9f93          	slli	x31,x31,0xc
    410159a4:	005f8f93          	addi	x31,x31,5
    410159a8:	00000073          	ecall
    410159ac:	00713023          	sd	x7,0(x2) # 3d000 <tp_csr_storage>
    410159b0:	000b3137          	lui	x2,0xb3
    410159b4:	000012b7          	lui	x5,0x1
    410159b8:	00510133          	add	x2,x2,x5
    410159bc:	ff017113          	andi	x2,x2,-16
    410159c0:	08000393          	li	x7,128
    410159c4:	7336afb7          	lui	x31,0x7336a
    410159c8:	955f8f9b          	addiw	x31,x31,-1707 # 73369955 <mem10+0x20adf955>
    410159cc:	00cf9f93          	slli	x31,x31,0xc
    410159d0:	fdbf8f93          	addi	x31,x31,-37
    410159d4:	00df9f93          	slli	x31,x31,0xd
    410159d8:	0c0f8f93          	addi	x31,x31,192
    410159dc:	00500f13          	li	x30,5
    410159e0:	01efb023          	sd	x30,0(x31)
    410159e4:	000f0fb7          	lui	x31,0xf0
    410159e8:	001f8f9b          	addiw	x31,x31,1 # f0001 <SID_ZICBO_006_stack+0x3d001>
    410159ec:	00cf9f93          	slli	x31,x31,0xc
    410159f0:	006f8f93          	addi	x31,x31,6
    410159f4:	00000073          	ecall
    410159f8:	03f79237          	lui	x4,0x3f79
    410159fc:	0132021b          	addiw	x4,x4,19 # 3f79013 <SID_ZICBO_002_stack+0x251c013>
    41015a00:	00f21213          	slli	x4,x4,0xf
    41015a04:	dd520213          	addi	x4,x4,-555 # fffffffffffffdd5 <__section_os_data_1+0xff1992cd56048dd5>
    41015a08:	00c21213          	slli	x4,x4,0xc
    41015a0c:	00200e13          	li	x28,2
    41015a10:	05c23823          	sd	x28,80(x4) # 50 <XLEN+0x10>
    41015a14:	00000e17          	auipc	x28,0x0
    41015a18:	05ce0e13          	addi	x28,x28,92 # 41015a70 <fault_label_7>
    41015a1c:	03c23023          	sd	x28,32(x4) # 20 <SECURE_ACCESS_PROBABILITY+0x2>
    41015a20:	00000e13          	li	x28,0
    41015a24:	05c23023          	sd	x28,64(x4) # 40 <XLEN>
    41015a28:	00000e13          	li	x28,0
    41015a2c:	05c23423          	sd	x28,72(x4) # 48 <XLEN+0x8>
    41015a30:	00000e17          	auipc	x28,0x0
    41015a34:	064e0e13          	addi	x28,x28,100 # 41015a94 <excp_return_label_7>
    41015a38:	03c23823          	sd	x28,48(x4) # 30 <SECURE_ACCESS_PROBABILITY+0x12>
    41015a3c:	00000e13          	li	x28,0
    41015a40:	03c23c23          	sd	x28,56(x4) # 38 <SECURE_ACCESS_PROBABILITY+0x1a>
    41015a44:	00000e13          	li	x28,0
    41015a48:	07c23023          	sd	x28,96(x4) # 60 <XLEN+0x20>
    41015a4c:	00000e13          	li	x28,0
    41015a50:	07c23423          	sd	x28,104(x4) # 68 <XLEN+0x28>
    41015a54:	00000e13          	li	x28,0
    41015a58:	07c23823          	sd	x28,112(x4) # 70 <XLEN+0x30>
    41015a5c:	00192637          	lui	x12,0x192
    41015a60:	2ed6061b          	addiw	x12,x12,749 # 1922ed <SID_ZICBO_006_stack+0xdf2ed>
    41015a64:	00c61613          	slli	x12,x12,0xc
    41015a68:	00000c93          	li	x25,0
    41015a6c:	019606b3          	add	x13,x12,x25

0000000041015a70 <fault_label_7>:
    41015a70:	0046a00f          	cbo.zero	(x13)
    41015a74:	7336a837          	lui	x16,0x7336a
    41015a78:	9558081b          	addiw	x16,x16,-1707 # 73369955 <mem10+0x20adf955>
    41015a7c:	00c81813          	slli	x16,x16,0xc
    41015a80:	fdb80813          	addi	x16,x16,-37
    41015a84:	00d81813          	slli	x16,x16,0xd
    41015a88:	00880813          	addi	x16,x16,8
    41015a8c:	00083883          	ld	x17,0(x16)
    41015a90:	00088067          	jr	x17

0000000041015a94 <excp_return_label_7>:
    41015a94:	0003d137          	lui	x2,0x3d
    41015a98:	00013383          	ld	x7,0(x2) # 3d000 <tp_csr_storage>
    41015a9c:	7336afb7          	lui	x31,0x7336a
    41015aa0:	955f8f9b          	addiw	x31,x31,-1707 # 73369955 <mem10+0x20adf955>
    41015aa4:	00cf9f93          	slli	x31,x31,0xc
    41015aa8:	fdbf8f93          	addi	x31,x31,-37
    41015aac:	00df9f93          	slli	x31,x31,0xd
    41015ab0:	0b8f8f93          	addi	x31,x31,184
    41015ab4:	00600f13          	li	x30,6
    41015ab8:	01efb023          	sd	x30,0(x31)
    41015abc:	000f0fb7          	lui	x31,0xf0
    41015ac0:	001f8f9b          	addiw	x31,x31,1 # f0001 <SID_ZICBO_006_stack+0x3d001>
    41015ac4:	00cf9f93          	slli	x31,x31,0xc
    41015ac8:	005f8f93          	addi	x31,x31,5
    41015acc:	00000073          	ecall

0000000041015ad0 <SID_ZICBO_006_passed>:
    41015ad0:	00f00f9b          	addiw	x31,x0,15
    41015ad4:	01cf9f93          	slli	x31,x31,0x1c
    41015ad8:	001f8f93          	addi	x31,x31,1
    41015adc:	00000073          	ecall

0000000041015ae0 <SID_ZICBO_013>:
    41015ae0:	3f9bd137          	lui	x2,0x3f9bd
    41015ae4:	000012b7          	lui	x5,0x1
    41015ae8:	00510133          	add	x2,x2,x5
    41015aec:	ff017113          	andi	x2,x2,-16
    41015af0:	003ea337          	lui	x6,0x3ea
    41015af4:	00000613          	li	x12,0
    41015af8:	00c30933          	add	x18,x6,x12
    41015afc:	00096013          	prefetch.i	0(x18)
    41015b00:	003ea6b7          	lui	x13,0x3ea
    41015b04:	00000593          	li	x11,0
    41015b08:	00b68db3          	add	x27,x13,x11
    41015b0c:	001de013          	prefetch.r	0(x27)
    41015b10:	003eae37          	lui	x28,0x3ea
    41015b14:	00000b13          	li	x22,0
    41015b18:	016e0f33          	add	x30,x28,x22
    41015b1c:	003f6013          	prefetch.w	0(x30)

0000000041015b20 <SID_ZICBO_013_passed>:
    41015b20:	00f00f9b          	addiw	x31,x0,15
    41015b24:	01cf9f93          	slli	x31,x31,0x1c
    41015b28:	001f8f93          	addi	x31,x31,1
    41015b2c:	00000073          	ecall

0000000041015b30 <SID_ZICBO_015>:
    41015b30:	0061d137          	lui	x2,0x61d
    41015b34:	000012b7          	lui	x5,0x1
    41015b38:	00510133          	add	x2,x2,x5
    41015b3c:	ff017113          	andi	x2,x2,-16
    41015b40:	00019db7          	lui	x27,0x19
    41015b44:	7e000b93          	li	x23,2016
    41015b48:	017d85b3          	add	x11,x27,x23
    41015b4c:	0005e013          	prefetch.i	0(x11)

0000000041015b50 <SID_ZICBO_015_passed>:
    41015b50:	00f00f9b          	addiw	x31,x0,15
    41015b54:	01cf9f93          	slli	x31,x31,0x1c
    41015b58:	001f8f93          	addi	x31,x31,1
    41015b5c:	00000073          	ecall

0000000041015b60 <SID_ZICBO_016>:
    41015b60:	00165137          	lui	x2,0x165
    41015b64:	a911011b          	addiw	x2,x2,-1391 # 164a91 <SID_ZICBO_006_stack+0xb1a91>
    41015b68:	00c11113          	slli	x2,x2,0xc
    41015b6c:	f6510113          	addi	x2,x2,-155
    41015b70:	00c11113          	slli	x2,x2,0xc
    41015b74:	000012b7          	lui	x5,0x1
    41015b78:	00510133          	add	x2,x2,x5
    41015b7c:	ff017113          	andi	x2,x2,-16
    41015b80:	20b2ca37          	lui	x20,0x20b2c
    41015b84:	00000993          	li	x19,0
    41015b88:	013a0fb3          	add	x31,x20,x19
    41015b8c:	001fe013          	prefetch.r	0(x31)
    41015b90:	20b2cc37          	lui	x24,0x20b2c
    41015b94:	7e000f93          	li	x31,2016
    41015b98:	01fc08b3          	add	x17,x24,x31
    41015b9c:	0018e013          	prefetch.r	0(x17)
    41015ba0:	20b2c8b7          	lui	x17,0x20b2c
    41015ba4:	00000e13          	li	x28,0
    41015ba8:	01c88933          	add	x18,x17,x28
    41015bac:	00396013          	prefetch.w	0(x18)
    41015bb0:	20b2cab7          	lui	x21,0x20b2c
    41015bb4:	7e000d13          	li	x26,2016
    41015bb8:	01aa85b3          	add	x11,x21,x26
    41015bbc:	0035e013          	prefetch.w	0(x11)

0000000041015bc0 <SID_ZICBO_016_passed>:
    41015bc0:	00f00f9b          	addiw	x31,x0,15
    41015bc4:	01cf9f93          	slli	x31,x31,0x1c
    41015bc8:	001f8f93          	addi	x31,x31,1
    41015bcc:	00000073          	ecall

0000000041015bd0 <SID_ZICBO_017>:
    41015bd0:	0003d137          	lui	x2,0x3d
    41015bd4:	7336afb7          	lui	x31,0x7336a
    41015bd8:	955f8f9b          	addiw	x31,x31,-1707 # 73369955 <mem10+0x20adf955>
    41015bdc:	00cf9f93          	slli	x31,x31,0xc
    41015be0:	fdbf8f93          	addi	x31,x31,-37
    41015be4:	00df9f93          	slli	x31,x31,0xd
    41015be8:	0b8f8f93          	addi	x31,x31,184
    41015bec:	01300f13          	li	x30,19
    41015bf0:	01efb023          	sd	x30,0(x31)
    41015bf4:	000f0fb7          	lui	x31,0xf0
    41015bf8:	001f8f9b          	addiw	x31,x31,1 # f0001 <SID_ZICBO_006_stack+0x3d001>
    41015bfc:	00cf9f93          	slli	x31,x31,0xc
    41015c00:	005f8f93          	addi	x31,x31,5
    41015c04:	00000073          	ecall
    41015c08:	00713023          	sd	x7,0(x2) # 3d000 <tp_csr_storage>
    41015c0c:	7336afb7          	lui	x31,0x7336a
    41015c10:	955f8f9b          	addiw	x31,x31,-1707 # 73369955 <mem10+0x20adf955>
    41015c14:	00cf9f93          	slli	x31,x31,0xc
    41015c18:	fdbf8f93          	addi	x31,x31,-37
    41015c1c:	00df9f93          	slli	x31,x31,0xd
    41015c20:	0b8f8f93          	addi	x31,x31,184
    41015c24:	00100f13          	li	x30,1
    41015c28:	01efb023          	sd	x30,0(x31)
    41015c2c:	000f0fb7          	lui	x31,0xf0
    41015c30:	001f8f9b          	addiw	x31,x31,1 # f0001 <SID_ZICBO_006_stack+0x3d001>
    41015c34:	00cf9f93          	slli	x31,x31,0xc
    41015c38:	005f8f93          	addi	x31,x31,5
    41015c3c:	00000073          	ecall
    41015c40:	00713423          	sd	x7,8(x2)
    41015c44:	7336afb7          	lui	x31,0x7336a
    41015c48:	955f8f9b          	addiw	x31,x31,-1707 # 73369955 <mem10+0x20adf955>
    41015c4c:	00cf9f93          	slli	x31,x31,0xc
    41015c50:	fdbf8f93          	addi	x31,x31,-37
    41015c54:	00df9f93          	slli	x31,x31,0xd
    41015c58:	0b8f8f93          	addi	x31,x31,184
    41015c5c:	00400f13          	li	x30,4
    41015c60:	01efb023          	sd	x30,0(x31)
    41015c64:	000f0fb7          	lui	x31,0xf0
    41015c68:	001f8f9b          	addiw	x31,x31,1 # f0001 <SID_ZICBO_006_stack+0x3d001>
    41015c6c:	00cf9f93          	slli	x31,x31,0xc
    41015c70:	005f8f93          	addi	x31,x31,5
    41015c74:	00000073          	ecall
    41015c78:	00713823          	sd	x7,16(x2)
    41015c7c:	00036137          	lui	x2,0x36
    41015c80:	000012b7          	lui	x5,0x1
    41015c84:	00510133          	add	x2,x2,x5
    41015c88:	ff017113          	andi	x2,x2,-16
    41015c8c:	08000393          	li	x7,128
    41015c90:	7336afb7          	lui	x31,0x7336a
    41015c94:	955f8f9b          	addiw	x31,x31,-1707 # 73369955 <mem10+0x20adf955>
    41015c98:	00cf9f93          	slli	x31,x31,0xc
    41015c9c:	fdbf8f93          	addi	x31,x31,-37
    41015ca0:	00df9f93          	slli	x31,x31,0xd
    41015ca4:	0b8f8f93          	addi	x31,x31,184
    41015ca8:	01600f13          	li	x30,22
    41015cac:	01efb023          	sd	x30,0(x31)
    41015cb0:	000f0fb7          	lui	x31,0xf0
    41015cb4:	001f8f9b          	addiw	x31,x31,1 # f0001 <SID_ZICBO_006_stack+0x3d001>
    41015cb8:	00cf9f93          	slli	x31,x31,0xc
    41015cbc:	005f8f93          	addi	x31,x31,5
    41015cc0:	00000073          	ecall
    41015cc4:	08000393          	li	x7,128
    41015cc8:	7336afb7          	lui	x31,0x7336a
    41015ccc:	955f8f9b          	addiw	x31,x31,-1707 # 73369955 <mem10+0x20adf955>
    41015cd0:	00cf9f93          	slli	x31,x31,0xc
    41015cd4:	fdbf8f93          	addi	x31,x31,-37
    41015cd8:	00df9f93          	slli	x31,x31,0xd
    41015cdc:	0c0f8f93          	addi	x31,x31,192
    41015ce0:	01700f13          	li	x30,23
    41015ce4:	01efb023          	sd	x30,0(x31)
    41015ce8:	000f0fb7          	lui	x31,0xf0
    41015cec:	001f8f9b          	addiw	x31,x31,1 # f0001 <SID_ZICBO_006_stack+0x3d001>
    41015cf0:	00cf9f93          	slli	x31,x31,0xc
    41015cf4:	006f8f93          	addi	x31,x31,6
    41015cf8:	00000073          	ecall
    41015cfc:	08000393          	li	x7,128
    41015d00:	7336afb7          	lui	x31,0x7336a
    41015d04:	955f8f9b          	addiw	x31,x31,-1707 # 73369955 <mem10+0x20adf955>
    41015d08:	00cf9f93          	slli	x31,x31,0xc
    41015d0c:	fdbf8f93          	addi	x31,x31,-37
    41015d10:	00df9f93          	slli	x31,x31,0xd
    41015d14:	0c0f8f93          	addi	x31,x31,192
    41015d18:	01800f13          	li	x30,24
    41015d1c:	01efb023          	sd	x30,0(x31)
    41015d20:	000f0fb7          	lui	x31,0xf0
    41015d24:	001f8f9b          	addiw	x31,x31,1 # f0001 <SID_ZICBO_006_stack+0x3d001>
    41015d28:	00cf9f93          	slli	x31,x31,0xc
    41015d2c:	006f8f93          	addi	x31,x31,6
    41015d30:	00000073          	ecall
    41015d34:	01320fb7          	lui	x31,0x1320
    41015d38:	00000993          	li	x19,0
    41015d3c:	013f8f33          	add	x30,x31,x19
    41015d40:	004f200f          	cbo.zero	(x30)
    41015d44:	0003d137          	lui	x2,0x3d
    41015d48:	00013383          	ld	x7,0(x2) # 3d000 <tp_csr_storage>
    41015d4c:	7336afb7          	lui	x31,0x7336a
    41015d50:	955f8f9b          	addiw	x31,x31,-1707 # 73369955 <mem10+0x20adf955>
    41015d54:	00cf9f93          	slli	x31,x31,0xc
    41015d58:	fdbf8f93          	addi	x31,x31,-37
    41015d5c:	00df9f93          	slli	x31,x31,0xd
    41015d60:	0b8f8f93          	addi	x31,x31,184
    41015d64:	01900f13          	li	x30,25
    41015d68:	01efb023          	sd	x30,0(x31)
    41015d6c:	000f0fb7          	lui	x31,0xf0
    41015d70:	001f8f9b          	addiw	x31,x31,1 # f0001 <SID_ZICBO_006_stack+0x3d001>
    41015d74:	00cf9f93          	slli	x31,x31,0xc
    41015d78:	005f8f93          	addi	x31,x31,5
    41015d7c:	00000073          	ecall
    41015d80:	00813383          	ld	x7,8(x2)
    41015d84:	7336afb7          	lui	x31,0x7336a
    41015d88:	955f8f9b          	addiw	x31,x31,-1707 # 73369955 <mem10+0x20adf955>
    41015d8c:	00cf9f93          	slli	x31,x31,0xc
    41015d90:	fdbf8f93          	addi	x31,x31,-37
    41015d94:	00df9f93          	slli	x31,x31,0xd
    41015d98:	0b8f8f93          	addi	x31,x31,184
    41015d9c:	00300f13          	li	x30,3
    41015da0:	01efb023          	sd	x30,0(x31)
    41015da4:	000f0fb7          	lui	x31,0xf0
    41015da8:	001f8f9b          	addiw	x31,x31,1 # f0001 <SID_ZICBO_006_stack+0x3d001>
    41015dac:	00cf9f93          	slli	x31,x31,0xc
    41015db0:	005f8f93          	addi	x31,x31,5
    41015db4:	00000073          	ecall
    41015db8:	01013383          	ld	x7,16(x2)
    41015dbc:	7336afb7          	lui	x31,0x7336a
    41015dc0:	955f8f9b          	addiw	x31,x31,-1707 # 73369955 <mem10+0x20adf955>
    41015dc4:	00cf9f93          	slli	x31,x31,0xc
    41015dc8:	fdbf8f93          	addi	x31,x31,-37
    41015dcc:	00df9f93          	slli	x31,x31,0xd
    41015dd0:	0b8f8f93          	addi	x31,x31,184
    41015dd4:	00600f13          	li	x30,6
    41015dd8:	01efb023          	sd	x30,0(x31)
    41015ddc:	000f0fb7          	lui	x31,0xf0
    41015de0:	001f8f9b          	addiw	x31,x31,1 # f0001 <SID_ZICBO_006_stack+0x3d001>
    41015de4:	00cf9f93          	slli	x31,x31,0xc
    41015de8:	005f8f93          	addi	x31,x31,5
    41015dec:	00000073          	ecall

0000000041015df0 <SID_ZICBO_017_passed>:
    41015df0:	00f00f9b          	addiw	x31,x0,15
    41015df4:	01cf9f93          	slli	x31,x31,0x1c
    41015df8:	001f8f93          	addi	x31,x31,1
    41015dfc:	00000073          	ecall

0000000041015e00 <SID_ZICBO_018>:
    41015e00:	0003d137          	lui	x2,0x3d
    41015e04:	7336afb7          	lui	x31,0x7336a
    41015e08:	955f8f9b          	addiw	x31,x31,-1707 # 73369955 <mem10+0x20adf955>
    41015e0c:	00cf9f93          	slli	x31,x31,0xc
    41015e10:	fdbf8f93          	addi	x31,x31,-37
    41015e14:	00df9f93          	slli	x31,x31,0xd
    41015e18:	0b8f8f93          	addi	x31,x31,184
    41015e1c:	01300f13          	li	x30,19
    41015e20:	01efb023          	sd	x30,0(x31)
    41015e24:	000f0fb7          	lui	x31,0xf0
    41015e28:	001f8f9b          	addiw	x31,x31,1 # f0001 <SID_ZICBO_006_stack+0x3d001>
    41015e2c:	00cf9f93          	slli	x31,x31,0xc
    41015e30:	005f8f93          	addi	x31,x31,5
    41015e34:	00000073          	ecall
    41015e38:	00713023          	sd	x7,0(x2) # 3d000 <tp_csr_storage>
    41015e3c:	7336afb7          	lui	x31,0x7336a
    41015e40:	955f8f9b          	addiw	x31,x31,-1707 # 73369955 <mem10+0x20adf955>
    41015e44:	00cf9f93          	slli	x31,x31,0xc
    41015e48:	fdbf8f93          	addi	x31,x31,-37
    41015e4c:	00df9f93          	slli	x31,x31,0xd
    41015e50:	0b8f8f93          	addi	x31,x31,184
    41015e54:	00100f13          	li	x30,1
    41015e58:	01efb023          	sd	x30,0(x31)
    41015e5c:	000f0fb7          	lui	x31,0xf0
    41015e60:	001f8f9b          	addiw	x31,x31,1 # f0001 <SID_ZICBO_006_stack+0x3d001>
    41015e64:	00cf9f93          	slli	x31,x31,0xc
    41015e68:	005f8f93          	addi	x31,x31,5
    41015e6c:	00000073          	ecall
    41015e70:	00713423          	sd	x7,8(x2)
    41015e74:	7336afb7          	lui	x31,0x7336a
    41015e78:	955f8f9b          	addiw	x31,x31,-1707 # 73369955 <mem10+0x20adf955>
    41015e7c:	00cf9f93          	slli	x31,x31,0xc
    41015e80:	fdbf8f93          	addi	x31,x31,-37
    41015e84:	00df9f93          	slli	x31,x31,0xd
    41015e88:	0b8f8f93          	addi	x31,x31,184
    41015e8c:	00400f13          	li	x30,4
    41015e90:	01efb023          	sd	x30,0(x31)
    41015e94:	000f0fb7          	lui	x31,0xf0
    41015e98:	001f8f9b          	addiw	x31,x31,1 # f0001 <SID_ZICBO_006_stack+0x3d001>
    41015e9c:	00cf9f93          	slli	x31,x31,0xc
    41015ea0:	005f8f93          	addi	x31,x31,5
    41015ea4:	00000073          	ecall
    41015ea8:	00713823          	sd	x7,16(x2)
    41015eac:	05773137          	lui	x2,0x5773
    41015eb0:	d5f1011b          	addiw	x2,x2,-673 # 5772d5f <mem0+0x16e8d5f>
    41015eb4:	00f11113          	slli	x2,x2,0xf
    41015eb8:	09f10113          	addi	x2,x2,159
    41015ebc:	00c11113          	slli	x2,x2,0xc
    41015ec0:	000012b7          	lui	x5,0x1
    41015ec4:	00510133          	add	x2,x2,x5
    41015ec8:	ff017113          	andi	x2,x2,-16
    41015ecc:	0f000393          	li	x7,240
    41015ed0:	7336afb7          	lui	x31,0x7336a
    41015ed4:	955f8f9b          	addiw	x31,x31,-1707 # 73369955 <mem10+0x20adf955>
    41015ed8:	00cf9f93          	slli	x31,x31,0xc
    41015edc:	fdbf8f93          	addi	x31,x31,-37
    41015ee0:	00df9f93          	slli	x31,x31,0xd
    41015ee4:	0b8f8f93          	addi	x31,x31,184
    41015ee8:	01600f13          	li	x30,22
    41015eec:	01efb023          	sd	x30,0(x31)
    41015ef0:	000f0fb7          	lui	x31,0xf0
    41015ef4:	001f8f9b          	addiw	x31,x31,1 # f0001 <SID_ZICBO_006_stack+0x3d001>
    41015ef8:	00cf9f93          	slli	x31,x31,0xc
    41015efc:	005f8f93          	addi	x31,x31,5
    41015f00:	00000073          	ecall
    41015f04:	0f000393          	li	x7,240
    41015f08:	7336afb7          	lui	x31,0x7336a
    41015f0c:	955f8f9b          	addiw	x31,x31,-1707 # 73369955 <mem10+0x20adf955>
    41015f10:	00cf9f93          	slli	x31,x31,0xc
    41015f14:	fdbf8f93          	addi	x31,x31,-37
    41015f18:	00df9f93          	slli	x31,x31,0xd
    41015f1c:	0c0f8f93          	addi	x31,x31,192
    41015f20:	01700f13          	li	x30,23
    41015f24:	01efb023          	sd	x30,0(x31)
    41015f28:	000f0fb7          	lui	x31,0xf0
    41015f2c:	001f8f9b          	addiw	x31,x31,1 # f0001 <SID_ZICBO_006_stack+0x3d001>
    41015f30:	00cf9f93          	slli	x31,x31,0xc
    41015f34:	006f8f93          	addi	x31,x31,6
    41015f38:	00000073          	ecall
    41015f3c:	0f000393          	li	x7,240
    41015f40:	7336afb7          	lui	x31,0x7336a
    41015f44:	955f8f9b          	addiw	x31,x31,-1707 # 73369955 <mem10+0x20adf955>
    41015f48:	00cf9f93          	slli	x31,x31,0xc
    41015f4c:	fdbf8f93          	addi	x31,x31,-37
    41015f50:	00df9f93          	slli	x31,x31,0xd
    41015f54:	0c0f8f93          	addi	x31,x31,192
    41015f58:	01800f13          	li	x30,24
    41015f5c:	01efb023          	sd	x30,0(x31)
    41015f60:	000f0fb7          	lui	x31,0xf0
    41015f64:	001f8f9b          	addiw	x31,x31,1 # f0001 <SID_ZICBO_006_stack+0x3d001>
    41015f68:	00cf9f93          	slli	x31,x31,0xc
    41015f6c:	006f8f93          	addi	x31,x31,6
    41015f70:	00000073          	ecall
    41015f74:	5288ab37          	lui	x22,0x5288a
    41015f78:	761ec7b7          	lui	x15,0x761ec
    41015f7c:	fd57879b          	addiw	x15,x15,-43 # 761ebfd5 <mem10+0x23961fd5>
    41015f80:	d2178f53          	fcvt.d.wu	f30,x15
    41015f84:	01eb2027          	fsw	f30,0(x22) # 5288a000 <mem10>
    41015f88:	5288ac37          	lui	x24,0x5288a
    41015f8c:	00000d13          	li	x26,0
    41015f90:	01ac0db3          	add	x27,x24,x26
    41015f94:	004da00f          	cbo.zero	(x27)
    41015f98:	5288adb7          	lui	x27,0x5288a
    41015f9c:	000da983          	lw	x19,0(x27) # 5288a000 <mem10>
    41015fa0:	03398263          	beq	x19,x19,41015fc4 <pass_label_0>
    41015fa4:	7336ab37          	lui	x22,0x7336a
    41015fa8:	955b0b1b          	addiw	x22,x22,-1707 # 73369955 <mem10+0x20adf955>
    41015fac:	00cb1b13          	slli	x22,x22,0xc
    41015fb0:	fdbb0b13          	addi	x22,x22,-37
    41015fb4:	00db1b13          	slli	x22,x22,0xd
    41015fb8:	008b0b13          	addi	x22,x22,8
    41015fbc:	000b3c83          	ld	x25,0(x22)
    41015fc0:	000c8067          	jr	x25

0000000041015fc4 <pass_label_0>:
    41015fc4:	0003d137          	lui	x2,0x3d
    41015fc8:	00013383          	ld	x7,0(x2) # 3d000 <tp_csr_storage>
    41015fcc:	7336afb7          	lui	x31,0x7336a
    41015fd0:	955f8f9b          	addiw	x31,x31,-1707 # 73369955 <mem10+0x20adf955>
    41015fd4:	00cf9f93          	slli	x31,x31,0xc
    41015fd8:	fdbf8f93          	addi	x31,x31,-37
    41015fdc:	00df9f93          	slli	x31,x31,0xd
    41015fe0:	0b8f8f93          	addi	x31,x31,184
    41015fe4:	01900f13          	li	x30,25
    41015fe8:	01efb023          	sd	x30,0(x31)
    41015fec:	000f0fb7          	lui	x31,0xf0
    41015ff0:	001f8f9b          	addiw	x31,x31,1 # f0001 <SID_ZICBO_006_stack+0x3d001>
    41015ff4:	00cf9f93          	slli	x31,x31,0xc
    41015ff8:	005f8f93          	addi	x31,x31,5
    41015ffc:	00000073          	ecall
    41016000:	00813383          	ld	x7,8(x2)
    41016004:	7336afb7          	lui	x31,0x7336a
    41016008:	955f8f9b          	addiw	x31,x31,-1707 # 73369955 <mem10+0x20adf955>
    4101600c:	00cf9f93          	slli	x31,x31,0xc
    41016010:	fdbf8f93          	addi	x31,x31,-37
    41016014:	00df9f93          	slli	x31,x31,0xd
    41016018:	0b8f8f93          	addi	x31,x31,184
    4101601c:	00300f13          	li	x30,3
    41016020:	01efb023          	sd	x30,0(x31)
    41016024:	000f0fb7          	lui	x31,0xf0
    41016028:	001f8f9b          	addiw	x31,x31,1 # f0001 <SID_ZICBO_006_stack+0x3d001>
    4101602c:	00cf9f93          	slli	x31,x31,0xc
    41016030:	005f8f93          	addi	x31,x31,5
    41016034:	00000073          	ecall
    41016038:	01013383          	ld	x7,16(x2)
    4101603c:	7336afb7          	lui	x31,0x7336a
    41016040:	955f8f9b          	addiw	x31,x31,-1707 # 73369955 <mem10+0x20adf955>
    41016044:	00cf9f93          	slli	x31,x31,0xc
    41016048:	fdbf8f93          	addi	x31,x31,-37
    4101604c:	00df9f93          	slli	x31,x31,0xd
    41016050:	0b8f8f93          	addi	x31,x31,184
    41016054:	00600f13          	li	x30,6
    41016058:	01efb023          	sd	x30,0(x31)
    4101605c:	000f0fb7          	lui	x31,0xf0
    41016060:	001f8f9b          	addiw	x31,x31,1 # f0001 <SID_ZICBO_006_stack+0x3d001>
    41016064:	00cf9f93          	slli	x31,x31,0xc
    41016068:	005f8f93          	addi	x31,x31,5
    4101606c:	00000073          	ecall

0000000041016070 <SID_ZICBO_018_passed>:
    41016070:	00f00f9b          	addiw	x31,x0,15
    41016074:	01cf9f93          	slli	x31,x31,0x1c
    41016078:	001f8f93          	addi	x31,x31,1
    4101607c:	00000073          	ecall

0000000041016080 <SID_ZICBO_019>:
    41016080:	0003d137          	lui	x2,0x3d
    41016084:	7336afb7          	lui	x31,0x7336a
    41016088:	955f8f9b          	addiw	x31,x31,-1707 # 73369955 <mem10+0x20adf955>
    4101608c:	00cf9f93          	slli	x31,x31,0xc
    41016090:	fdbf8f93          	addi	x31,x31,-37
    41016094:	00df9f93          	slli	x31,x31,0xd
    41016098:	0b8f8f93          	addi	x31,x31,184
    4101609c:	01300f13          	li	x30,19
    410160a0:	01efb023          	sd	x30,0(x31)
    410160a4:	000f0fb7          	lui	x31,0xf0
    410160a8:	001f8f9b          	addiw	x31,x31,1 # f0001 <SID_ZICBO_006_stack+0x3d001>
    410160ac:	00cf9f93          	slli	x31,x31,0xc
    410160b0:	005f8f93          	addi	x31,x31,5
    410160b4:	00000073          	ecall
    410160b8:	00713023          	sd	x7,0(x2) # 3d000 <tp_csr_storage>
    410160bc:	7336afb7          	lui	x31,0x7336a
    410160c0:	955f8f9b          	addiw	x31,x31,-1707 # 73369955 <mem10+0x20adf955>
    410160c4:	00cf9f93          	slli	x31,x31,0xc
    410160c8:	fdbf8f93          	addi	x31,x31,-37
    410160cc:	00df9f93          	slli	x31,x31,0xd
    410160d0:	0b8f8f93          	addi	x31,x31,184
    410160d4:	00100f13          	li	x30,1
    410160d8:	01efb023          	sd	x30,0(x31)
    410160dc:	000f0fb7          	lui	x31,0xf0
    410160e0:	001f8f9b          	addiw	x31,x31,1 # f0001 <SID_ZICBO_006_stack+0x3d001>
    410160e4:	00cf9f93          	slli	x31,x31,0xc
    410160e8:	005f8f93          	addi	x31,x31,5
    410160ec:	00000073          	ecall
    410160f0:	00713423          	sd	x7,8(x2)
    410160f4:	7336afb7          	lui	x31,0x7336a
    410160f8:	955f8f9b          	addiw	x31,x31,-1707 # 73369955 <mem10+0x20adf955>
    410160fc:	00cf9f93          	slli	x31,x31,0xc
    41016100:	fdbf8f93          	addi	x31,x31,-37
    41016104:	00df9f93          	slli	x31,x31,0xd
    41016108:	0b8f8f93          	addi	x31,x31,184
    4101610c:	00400f13          	li	x30,4
    41016110:	01efb023          	sd	x30,0(x31)
    41016114:	000f0fb7          	lui	x31,0xf0
    41016118:	001f8f9b          	addiw	x31,x31,1 # f0001 <SID_ZICBO_006_stack+0x3d001>
    4101611c:	00cf9f93          	slli	x31,x31,0xc
    41016120:	005f8f93          	addi	x31,x31,5
    41016124:	00000073          	ecall
    41016128:	00713823          	sd	x7,16(x2)
    4101612c:	0019f137          	lui	x2,0x19f
    41016130:	000012b7          	lui	x5,0x1
    41016134:	00510133          	add	x2,x2,x5
    41016138:	ff017113          	andi	x2,x2,-16
    4101613c:	0f000393          	li	x7,240
    41016140:	7336afb7          	lui	x31,0x7336a
    41016144:	955f8f9b          	addiw	x31,x31,-1707 # 73369955 <mem10+0x20adf955>
    41016148:	00cf9f93          	slli	x31,x31,0xc
    4101614c:	fdbf8f93          	addi	x31,x31,-37
    41016150:	00df9f93          	slli	x31,x31,0xd
    41016154:	0b8f8f93          	addi	x31,x31,184
    41016158:	01600f13          	li	x30,22
    4101615c:	01efb023          	sd	x30,0(x31)
    41016160:	000f0fb7          	lui	x31,0xf0
    41016164:	001f8f9b          	addiw	x31,x31,1 # f0001 <SID_ZICBO_006_stack+0x3d001>
    41016168:	00cf9f93          	slli	x31,x31,0xc
    4101616c:	005f8f93          	addi	x31,x31,5
    41016170:	00000073          	ecall
    41016174:	0f000393          	li	x7,240
    41016178:	7336afb7          	lui	x31,0x7336a
    4101617c:	955f8f9b          	addiw	x31,x31,-1707 # 73369955 <mem10+0x20adf955>
    41016180:	00cf9f93          	slli	x31,x31,0xc
    41016184:	fdbf8f93          	addi	x31,x31,-37
    41016188:	00df9f93          	slli	x31,x31,0xd
    4101618c:	0c0f8f93          	addi	x31,x31,192
    41016190:	01700f13          	li	x30,23
    41016194:	01efb023          	sd	x30,0(x31)
    41016198:	000f0fb7          	lui	x31,0xf0
    4101619c:	001f8f9b          	addiw	x31,x31,1 # f0001 <SID_ZICBO_006_stack+0x3d001>
    410161a0:	00cf9f93          	slli	x31,x31,0xc
    410161a4:	006f8f93          	addi	x31,x31,6
    410161a8:	00000073          	ecall
    410161ac:	0f000393          	li	x7,240
    410161b0:	7336afb7          	lui	x31,0x7336a
    410161b4:	955f8f9b          	addiw	x31,x31,-1707 # 73369955 <mem10+0x20adf955>
    410161b8:	00cf9f93          	slli	x31,x31,0xc
    410161bc:	fdbf8f93          	addi	x31,x31,-37
    410161c0:	00df9f93          	slli	x31,x31,0xd
    410161c4:	0c0f8f93          	addi	x31,x31,192
    410161c8:	01800f13          	li	x30,24
    410161cc:	01efb023          	sd	x30,0(x31)
    410161d0:	000f0fb7          	lui	x31,0xf0
    410161d4:	001f8f9b          	addiw	x31,x31,1 # f0001 <SID_ZICBO_006_stack+0x3d001>
    410161d8:	00cf9f93          	slli	x31,x31,0xc
    410161dc:	006f8f93          	addi	x31,x31,6
    410161e0:	00000073          	ecall
    410161e4:	00042cb7          	lui	x25,0x42
    410161e8:	59cc6fb7          	lui	x31,0x59cc6
    410161ec:	0b4f8f9b          	addiw	x31,x31,180 # 59cc60b4 <mem10+0x743c0b4>
    410161f0:	01fca023          	sw	x31,0(x25) # 42000 <mem11>
    410161f4:	00042c37          	lui	x24,0x42
    410161f8:	00000c93          	li	x25,0
    410161fc:	019c0ab3          	add	x21,x24,x25
    41016200:	004aa00f          	cbo.zero	(x21)
    41016204:	00042bb7          	lui	x23,0x42
    41016208:	000baf83          	lw	x31,0(x23) # 42000 <mem11>
    4101620c:	02324737          	lui	x14,0x2324
    41016210:	55b7071b          	addiw	x14,x14,1371 # 232455b <SID_ZICBO_002_stack+0x8c755b>
    41016214:	00c71713          	slli	x14,x14,0xc
    41016218:	00072903          	lw	x18,0(x14)
    4101621c:	03ff8263          	beq	x31,x31,41016240 <pass_label_1>
    41016220:	7336abb7          	lui	x23,0x7336a
    41016224:	955b8b9b          	addiw	x23,x23,-1707 # 73369955 <mem10+0x20adf955>
    41016228:	00cb9b93          	slli	x23,x23,0xc
    4101622c:	fdbb8b93          	addi	x23,x23,-37
    41016230:	00db9b93          	slli	x23,x23,0xd
    41016234:	008b8b93          	addi	x23,x23,8
    41016238:	000bb603          	ld	x12,0(x23)
    4101623c:	00060067          	jr	x12

0000000041016240 <pass_label_1>:
    41016240:	03290263          	beq	x18,x18,41016264 <pass_label_2>
    41016244:	7336acb7          	lui	x25,0x7336a
    41016248:	955c8c9b          	addiw	x25,x25,-1707 # 73369955 <mem10+0x20adf955>
    4101624c:	00cc9c93          	slli	x25,x25,0xc
    41016250:	fdbc8c93          	addi	x25,x25,-37
    41016254:	00dc9c93          	slli	x25,x25,0xd
    41016258:	008c8c93          	addi	x25,x25,8
    4101625c:	000cb883          	ld	x17,0(x25)
    41016260:	00088067          	jr	x17 # 20b2c000 <mem8>

0000000041016264 <pass_label_2>:
    41016264:	0003d137          	lui	x2,0x3d
    41016268:	00013383          	ld	x7,0(x2) # 3d000 <tp_csr_storage>
    4101626c:	7336afb7          	lui	x31,0x7336a
    41016270:	955f8f9b          	addiw	x31,x31,-1707 # 73369955 <mem10+0x20adf955>
    41016274:	00cf9f93          	slli	x31,x31,0xc
    41016278:	fdbf8f93          	addi	x31,x31,-37
    4101627c:	00df9f93          	slli	x31,x31,0xd
    41016280:	0b8f8f93          	addi	x31,x31,184
    41016284:	01900f13          	li	x30,25
    41016288:	01efb023          	sd	x30,0(x31)
    4101628c:	000f0fb7          	lui	x31,0xf0
    41016290:	001f8f9b          	addiw	x31,x31,1 # f0001 <SID_ZICBO_006_stack+0x3d001>
    41016294:	00cf9f93          	slli	x31,x31,0xc
    41016298:	005f8f93          	addi	x31,x31,5
    4101629c:	00000073          	ecall
    410162a0:	00813383          	ld	x7,8(x2)
    410162a4:	7336afb7          	lui	x31,0x7336a
    410162a8:	955f8f9b          	addiw	x31,x31,-1707 # 73369955 <mem10+0x20adf955>
    410162ac:	00cf9f93          	slli	x31,x31,0xc
    410162b0:	fdbf8f93          	addi	x31,x31,-37
    410162b4:	00df9f93          	slli	x31,x31,0xd
    410162b8:	0b8f8f93          	addi	x31,x31,184
    410162bc:	00300f13          	li	x30,3
    410162c0:	01efb023          	sd	x30,0(x31)
    410162c4:	000f0fb7          	lui	x31,0xf0
    410162c8:	001f8f9b          	addiw	x31,x31,1 # f0001 <SID_ZICBO_006_stack+0x3d001>
    410162cc:	00cf9f93          	slli	x31,x31,0xc
    410162d0:	005f8f93          	addi	x31,x31,5
    410162d4:	00000073          	ecall
    410162d8:	01013383          	ld	x7,16(x2)
    410162dc:	7336afb7          	lui	x31,0x7336a
    410162e0:	955f8f9b          	addiw	x31,x31,-1707 # 73369955 <mem10+0x20adf955>
    410162e4:	00cf9f93          	slli	x31,x31,0xc
    410162e8:	fdbf8f93          	addi	x31,x31,-37
    410162ec:	00df9f93          	slli	x31,x31,0xd
    410162f0:	0b8f8f93          	addi	x31,x31,184
    410162f4:	00600f13          	li	x30,6
    410162f8:	01efb023          	sd	x30,0(x31)
    410162fc:	000f0fb7          	lui	x31,0xf0
    41016300:	001f8f9b          	addiw	x31,x31,1 # f0001 <SID_ZICBO_006_stack+0x3d001>
    41016304:	00cf9f93          	slli	x31,x31,0xc
    41016308:	005f8f93          	addi	x31,x31,5
    4101630c:	00000073          	ecall

0000000041016310 <SID_ZICBO_019_passed>:
    41016310:	00f00f9b          	addiw	x31,x0,15
    41016314:	01cf9f93          	slli	x31,x31,0x1c
    41016318:	001f8f93          	addi	x31,x31,1
    4101631c:	00000073          	ecall

0000000041016320 <SID_ZICBO_020>:
    41016320:	0003d137          	lui	x2,0x3d
    41016324:	7336afb7          	lui	x31,0x7336a
    41016328:	955f8f9b          	addiw	x31,x31,-1707 # 73369955 <mem10+0x20adf955>
    4101632c:	00cf9f93          	slli	x31,x31,0xc
    41016330:	fdbf8f93          	addi	x31,x31,-37
    41016334:	00df9f93          	slli	x31,x31,0xd
    41016338:	0b8f8f93          	addi	x31,x31,184
    4101633c:	01300f13          	li	x30,19
    41016340:	01efb023          	sd	x30,0(x31)
    41016344:	000f0fb7          	lui	x31,0xf0
    41016348:	001f8f9b          	addiw	x31,x31,1 # f0001 <SID_ZICBO_006_stack+0x3d001>
    4101634c:	00cf9f93          	slli	x31,x31,0xc
    41016350:	005f8f93          	addi	x31,x31,5
    41016354:	00000073          	ecall
    41016358:	00713023          	sd	x7,0(x2) # 3d000 <tp_csr_storage>
    4101635c:	7336afb7          	lui	x31,0x7336a
    41016360:	955f8f9b          	addiw	x31,x31,-1707 # 73369955 <mem10+0x20adf955>
    41016364:	00cf9f93          	slli	x31,x31,0xc
    41016368:	fdbf8f93          	addi	x31,x31,-37
    4101636c:	00df9f93          	slli	x31,x31,0xd
    41016370:	0b8f8f93          	addi	x31,x31,184
    41016374:	00100f13          	li	x30,1
    41016378:	01efb023          	sd	x30,0(x31)
    4101637c:	000f0fb7          	lui	x31,0xf0
    41016380:	001f8f9b          	addiw	x31,x31,1 # f0001 <SID_ZICBO_006_stack+0x3d001>
    41016384:	00cf9f93          	slli	x31,x31,0xc
    41016388:	005f8f93          	addi	x31,x31,5
    4101638c:	00000073          	ecall
    41016390:	00713423          	sd	x7,8(x2)
    41016394:	7336afb7          	lui	x31,0x7336a
    41016398:	955f8f9b          	addiw	x31,x31,-1707 # 73369955 <mem10+0x20adf955>
    4101639c:	00cf9f93          	slli	x31,x31,0xc
    410163a0:	fdbf8f93          	addi	x31,x31,-37
    410163a4:	00df9f93          	slli	x31,x31,0xd
    410163a8:	0b8f8f93          	addi	x31,x31,184
    410163ac:	00400f13          	li	x30,4
    410163b0:	01efb023          	sd	x30,0(x31)
    410163b4:	000f0fb7          	lui	x31,0xf0
    410163b8:	001f8f9b          	addiw	x31,x31,1 # f0001 <SID_ZICBO_006_stack+0x3d001>
    410163bc:	00cf9f93          	slli	x31,x31,0xc
    410163c0:	005f8f93          	addi	x31,x31,5
    410163c4:	00000073          	ecall
    410163c8:	00713823          	sd	x7,16(x2)
    410163cc:	00040137          	lui	x2,0x40
    410163d0:	000012b7          	lui	x5,0x1
    410163d4:	00510133          	add	x2,x2,x5
    410163d8:	ff017113          	andi	x2,x2,-16
    410163dc:	0f000393          	li	x7,240
    410163e0:	7336afb7          	lui	x31,0x7336a
    410163e4:	955f8f9b          	addiw	x31,x31,-1707 # 73369955 <mem10+0x20adf955>
    410163e8:	00cf9f93          	slli	x31,x31,0xc
    410163ec:	fdbf8f93          	addi	x31,x31,-37
    410163f0:	00df9f93          	slli	x31,x31,0xd
    410163f4:	0b8f8f93          	addi	x31,x31,184
    410163f8:	01600f13          	li	x30,22
    410163fc:	01efb023          	sd	x30,0(x31)
    41016400:	000f0fb7          	lui	x31,0xf0
    41016404:	001f8f9b          	addiw	x31,x31,1 # f0001 <SID_ZICBO_006_stack+0x3d001>
    41016408:	00cf9f93          	slli	x31,x31,0xc
    4101640c:	005f8f93          	addi	x31,x31,5
    41016410:	00000073          	ecall
    41016414:	0f000393          	li	x7,240
    41016418:	7336afb7          	lui	x31,0x7336a
    4101641c:	955f8f9b          	addiw	x31,x31,-1707 # 73369955 <mem10+0x20adf955>
    41016420:	00cf9f93          	slli	x31,x31,0xc
    41016424:	fdbf8f93          	addi	x31,x31,-37
    41016428:	00df9f93          	slli	x31,x31,0xd
    4101642c:	0c0f8f93          	addi	x31,x31,192
    41016430:	01700f13          	li	x30,23
    41016434:	01efb023          	sd	x30,0(x31)
    41016438:	000f0fb7          	lui	x31,0xf0
    4101643c:	001f8f9b          	addiw	x31,x31,1 # f0001 <SID_ZICBO_006_stack+0x3d001>
    41016440:	00cf9f93          	slli	x31,x31,0xc
    41016444:	006f8f93          	addi	x31,x31,6
    41016448:	00000073          	ecall
    4101644c:	0f000393          	li	x7,240
    41016450:	7336afb7          	lui	x31,0x7336a
    41016454:	955f8f9b          	addiw	x31,x31,-1707 # 73369955 <mem10+0x20adf955>
    41016458:	00cf9f93          	slli	x31,x31,0xc
    4101645c:	fdbf8f93          	addi	x31,x31,-37
    41016460:	00df9f93          	slli	x31,x31,0xd
    41016464:	0c0f8f93          	addi	x31,x31,192
    41016468:	01800f13          	li	x30,24
    4101646c:	01efb023          	sd	x30,0(x31)
    41016470:	000f0fb7          	lui	x31,0xf0
    41016474:	001f8f9b          	addiw	x31,x31,1 # f0001 <SID_ZICBO_006_stack+0x3d001>
    41016478:	00cf9f93          	slli	x31,x31,0xc
    4101647c:	006f8f93          	addi	x31,x31,6
    41016480:	00000073          	ecall
    41016484:	23fb1837          	lui	x16,0x23fb1
    41016488:	72b8081b          	addiw	x16,x16,1835 # 23fb172b <mem8+0x348572b>
    4101648c:	00c81813          	slli	x16,x16,0xc
    41016490:	51f80813          	addi	x16,x16,1311
    41016494:	00d81813          	slli	x16,x16,0xd
    41016498:	4f3f8f37          	lui	x30,0x4f3f8
    4101649c:	77af0f1b          	addiw	x30,x30,1914 # 4f3f877a <pma_region_2_end+0xa3b777a>
    410164a0:	01e820a3          	sw	x30,1(x16)
    410164a4:	23fb1c37          	lui	x24,0x23fb1
    410164a8:	72bc0c1b          	addiw	x24,x24,1835 # 23fb172b <mem8+0x348572b>
    410164ac:	00cc1c13          	slli	x24,x24,0xc
    410164b0:	51fc0c13          	addi	x24,x24,1311
    410164b4:	00dc1c13          	slli	x24,x24,0xd
    410164b8:	00000d13          	li	x26,0
    410164bc:	01ac0cb3          	add	x25,x24,x26
    410164c0:	004ca00f          	cbo.zero	(x25)
    410164c4:	23fb1db7          	lui	x27,0x23fb1
    410164c8:	72bd8d9b          	addiw	x27,x27,1835 # 23fb172b <mem8+0x348572b>
    410164cc:	00cd9d93          	slli	x27,x27,0xc
    410164d0:	51fd8d93          	addi	x27,x27,1311
    410164d4:	00dd9d93          	slli	x27,x27,0xd
    410164d8:	000da803          	lw	x16,0(x27)
    410164dc:	2056d3b7          	lui	x7,0x2056d
    410164e0:	0003af83          	lw	x31,0(x7) # 2056d000 <mem14>
    410164e4:	03080263          	beq	x16,x16,41016508 <pass_label_3>
    410164e8:	7336aab7          	lui	x21,0x7336a
    410164ec:	955a8a9b          	addiw	x21,x21,-1707 # 73369955 <mem10+0x20adf955>
    410164f0:	00ca9a93          	slli	x21,x21,0xc
    410164f4:	fdba8a93          	addi	x21,x21,-37
    410164f8:	00da9a93          	slli	x21,x21,0xd
    410164fc:	008a8a93          	addi	x21,x21,8
    41016500:	000ab883          	ld	x17,0(x21)
    41016504:	00088067          	jr	x17

0000000041016508 <pass_label_3>:
    41016508:	03ff8263          	beq	x31,x31,4101652c <pass_label_4>
    4101650c:	7336aab7          	lui	x21,0x7336a
    41016510:	955a8a9b          	addiw	x21,x21,-1707 # 73369955 <mem10+0x20adf955>
    41016514:	00ca9a93          	slli	x21,x21,0xc
    41016518:	fdba8a93          	addi	x21,x21,-37
    4101651c:	00da9a93          	slli	x21,x21,0xd
    41016520:	008a8a93          	addi	x21,x21,8
    41016524:	000ab683          	ld	x13,0(x21)
    41016528:	00068067          	jr	x13 # 3ea000 <mem6>

000000004101652c <pass_label_4>:
    4101652c:	0003d137          	lui	x2,0x3d
    41016530:	00013383          	ld	x7,0(x2) # 3d000 <tp_csr_storage>
    41016534:	7336afb7          	lui	x31,0x7336a
    41016538:	955f8f9b          	addiw	x31,x31,-1707 # 73369955 <mem10+0x20adf955>
    4101653c:	00cf9f93          	slli	x31,x31,0xc
    41016540:	fdbf8f93          	addi	x31,x31,-37
    41016544:	00df9f93          	slli	x31,x31,0xd
    41016548:	0b8f8f93          	addi	x31,x31,184
    4101654c:	01900f13          	li	x30,25
    41016550:	01efb023          	sd	x30,0(x31)
    41016554:	000f0fb7          	lui	x31,0xf0
    41016558:	001f8f9b          	addiw	x31,x31,1 # f0001 <SID_ZICBO_006_stack+0x3d001>
    4101655c:	00cf9f93          	slli	x31,x31,0xc
    41016560:	005f8f93          	addi	x31,x31,5
    41016564:	00000073          	ecall
    41016568:	00813383          	ld	x7,8(x2)
    4101656c:	7336afb7          	lui	x31,0x7336a
    41016570:	955f8f9b          	addiw	x31,x31,-1707 # 73369955 <mem10+0x20adf955>
    41016574:	00cf9f93          	slli	x31,x31,0xc
    41016578:	fdbf8f93          	addi	x31,x31,-37
    4101657c:	00df9f93          	slli	x31,x31,0xd
    41016580:	0b8f8f93          	addi	x31,x31,184
    41016584:	00300f13          	li	x30,3
    41016588:	01efb023          	sd	x30,0(x31)
    4101658c:	000f0fb7          	lui	x31,0xf0
    41016590:	001f8f9b          	addiw	x31,x31,1 # f0001 <SID_ZICBO_006_stack+0x3d001>
    41016594:	00cf9f93          	slli	x31,x31,0xc
    41016598:	005f8f93          	addi	x31,x31,5
    4101659c:	00000073          	ecall
    410165a0:	01013383          	ld	x7,16(x2)
    410165a4:	7336afb7          	lui	x31,0x7336a
    410165a8:	955f8f9b          	addiw	x31,x31,-1707 # 73369955 <mem10+0x20adf955>
    410165ac:	00cf9f93          	slli	x31,x31,0xc
    410165b0:	fdbf8f93          	addi	x31,x31,-37
    410165b4:	00df9f93          	slli	x31,x31,0xd
    410165b8:	0b8f8f93          	addi	x31,x31,184
    410165bc:	00600f13          	li	x30,6
    410165c0:	01efb023          	sd	x30,0(x31)
    410165c4:	000f0fb7          	lui	x31,0xf0
    410165c8:	001f8f9b          	addiw	x31,x31,1 # f0001 <SID_ZICBO_006_stack+0x3d001>
    410165cc:	00cf9f93          	slli	x31,x31,0xc
    410165d0:	005f8f93          	addi	x31,x31,5
    410165d4:	00000073          	ecall

00000000410165d8 <SID_ZICBO_020_passed>:
    410165d8:	00f00f9b          	addiw	x31,x0,15
    410165dc:	01cf9f93          	slli	x31,x31,0x1c
    410165e0:	001f8f93          	addi	x31,x31,1
    410165e4:	00000073          	ecall

00000000410165e8 <SID_ZICBO_047>:
    410165e8:	0003d137          	lui	x2,0x3d
    410165ec:	7336afb7          	lui	x31,0x7336a
    410165f0:	955f8f9b          	addiw	x31,x31,-1707 # 73369955 <mem10+0x20adf955>
    410165f4:	00cf9f93          	slli	x31,x31,0xc
    410165f8:	fdbf8f93          	addi	x31,x31,-37
    410165fc:	00df9f93          	slli	x31,x31,0xd
    41016600:	0b8f8f93          	addi	x31,x31,184
    41016604:	01300f13          	li	x30,19
    41016608:	01efb023          	sd	x30,0(x31)
    4101660c:	000f0fb7          	lui	x31,0xf0
    41016610:	001f8f9b          	addiw	x31,x31,1 # f0001 <SID_ZICBO_006_stack+0x3d001>
    41016614:	00cf9f93          	slli	x31,x31,0xc
    41016618:	005f8f93          	addi	x31,x31,5
    4101661c:	00000073          	ecall
    41016620:	00713023          	sd	x7,0(x2) # 3d000 <tp_csr_storage>
    41016624:	7336afb7          	lui	x31,0x7336a
    41016628:	955f8f9b          	addiw	x31,x31,-1707 # 73369955 <mem10+0x20adf955>
    4101662c:	00cf9f93          	slli	x31,x31,0xc
    41016630:	fdbf8f93          	addi	x31,x31,-37
    41016634:	00df9f93          	slli	x31,x31,0xd
    41016638:	0b8f8f93          	addi	x31,x31,184
    4101663c:	00100f13          	li	x30,1
    41016640:	01efb023          	sd	x30,0(x31)
    41016644:	000f0fb7          	lui	x31,0xf0
    41016648:	001f8f9b          	addiw	x31,x31,1 # f0001 <SID_ZICBO_006_stack+0x3d001>
    4101664c:	00cf9f93          	slli	x31,x31,0xc
    41016650:	005f8f93          	addi	x31,x31,5
    41016654:	00000073          	ecall
    41016658:	00713423          	sd	x7,8(x2)
    4101665c:	7336afb7          	lui	x31,0x7336a
    41016660:	955f8f9b          	addiw	x31,x31,-1707 # 73369955 <mem10+0x20adf955>
    41016664:	00cf9f93          	slli	x31,x31,0xc
    41016668:	fdbf8f93          	addi	x31,x31,-37
    4101666c:	00df9f93          	slli	x31,x31,0xd
    41016670:	0b8f8f93          	addi	x31,x31,184
    41016674:	00400f13          	li	x30,4
    41016678:	01efb023          	sd	x30,0(x31)
    4101667c:	000f0fb7          	lui	x31,0xf0
    41016680:	001f8f9b          	addiw	x31,x31,1 # f0001 <SID_ZICBO_006_stack+0x3d001>
    41016684:	00cf9f93          	slli	x31,x31,0xc
    41016688:	005f8f93          	addi	x31,x31,5
    4101668c:	00000073          	ecall
    41016690:	00713823          	sd	x7,16(x2)
    41016694:	0008a137          	lui	x2,0x8a
    41016698:	32b1011b          	addiw	x2,x2,811 # 8a32b <mem11+0x4832b>
    4101669c:	01211113          	slli	x2,x2,0x12
    410166a0:	6d510113          	addi	x2,x2,1749
    410166a4:	00e11113          	slli	x2,x2,0xe
    410166a8:	000012b7          	lui	x5,0x1
    410166ac:	00510133          	add	x2,x2,x5
    410166b0:	ff017113          	andi	x2,x2,-16
    410166b4:	0f000393          	li	x7,240
    410166b8:	7336afb7          	lui	x31,0x7336a
    410166bc:	955f8f9b          	addiw	x31,x31,-1707 # 73369955 <mem10+0x20adf955>
    410166c0:	00cf9f93          	slli	x31,x31,0xc
    410166c4:	fdbf8f93          	addi	x31,x31,-37
    410166c8:	00df9f93          	slli	x31,x31,0xd
    410166cc:	0b8f8f93          	addi	x31,x31,184
    410166d0:	01600f13          	li	x30,22
    410166d4:	01efb023          	sd	x30,0(x31)
    410166d8:	000f0fb7          	lui	x31,0xf0
    410166dc:	001f8f9b          	addiw	x31,x31,1 # f0001 <SID_ZICBO_006_stack+0x3d001>
    410166e0:	00cf9f93          	slli	x31,x31,0xc
    410166e4:	005f8f93          	addi	x31,x31,5
    410166e8:	00000073          	ecall
    410166ec:	0f000393          	li	x7,240
    410166f0:	7336afb7          	lui	x31,0x7336a
    410166f4:	955f8f9b          	addiw	x31,x31,-1707 # 73369955 <mem10+0x20adf955>
    410166f8:	00cf9f93          	slli	x31,x31,0xc
    410166fc:	fdbf8f93          	addi	x31,x31,-37
    41016700:	00df9f93          	slli	x31,x31,0xd
    41016704:	0c0f8f93          	addi	x31,x31,192
    41016708:	01700f13          	li	x30,23
    4101670c:	01efb023          	sd	x30,0(x31)
    41016710:	000f0fb7          	lui	x31,0xf0
    41016714:	001f8f9b          	addiw	x31,x31,1 # f0001 <SID_ZICBO_006_stack+0x3d001>
    41016718:	00cf9f93          	slli	x31,x31,0xc
    4101671c:	006f8f93          	addi	x31,x31,6
    41016720:	00000073          	ecall
    41016724:	0f000393          	li	x7,240
    41016728:	7336afb7          	lui	x31,0x7336a
    4101672c:	955f8f9b          	addiw	x31,x31,-1707 # 73369955 <mem10+0x20adf955>
    41016730:	00cf9f93          	slli	x31,x31,0xc
    41016734:	fdbf8f93          	addi	x31,x31,-37
    41016738:	00df9f93          	slli	x31,x31,0xd
    4101673c:	0c0f8f93          	addi	x31,x31,192
    41016740:	01800f13          	li	x30,24
    41016744:	01efb023          	sd	x30,0(x31)
    41016748:	000f0fb7          	lui	x31,0xf0
    4101674c:	001f8f9b          	addiw	x31,x31,1 # f0001 <SID_ZICBO_006_stack+0x3d001>
    41016750:	00cf9f93          	slli	x31,x31,0xc
    41016754:	006f8f93          	addi	x31,x31,6
    41016758:	00000073          	ecall
    4101675c:	001794b7          	lui	x9,0x179
    41016760:	0bd4849b          	addiw	x9,x9,189 # 1790bd <SID_ZICBO_006_stack+0xc60bd>
    41016764:	00e49493          	slli	x9,x9,0xe
    41016768:	00000913          	li	x18,0
    4101676c:	012483b3          	add	x7,x9,x18
    41016770:	0023a00f          	cbo.flush	(x7)
    41016774:	00179337          	lui	x6,0x179
    41016778:	0bd3031b          	addiw	x6,x6,189 # 1790bd <SID_ZICBO_006_stack+0xc60bd>
    4101677c:	00e31313          	slli	x6,x6,0xe
    41016780:	00000793          	li	x15,0
    41016784:	00f303b3          	add	x7,x6,x15
    41016788:	0003c637          	lui	x12,0x3c
    4101678c:	c936061b          	addiw	x12,x12,-877 # 3bc93 <SID_ZICBO_049_stack+0x3c93>
    41016790:	00e61613          	slli	x12,x12,0xe
    41016794:	d6560613          	addi	x12,x12,-667
    41016798:	18c3b52f          	sc.d	x10,x12,(x7)
    4101679c:	00179fb7          	lui	x31,0x179
    410167a0:	0bdf8f9b          	addiw	x31,x31,189 # 1790bd <SID_ZICBO_006_stack+0xc60bd>
    410167a4:	00ef9f93          	slli	x31,x31,0xe
    410167a8:	00000313          	li	x6,0
    410167ac:	006f85b3          	add	x11,x31,x6
    410167b0:	0015a00f          	cbo.clean	(x11)
    410167b4:	00179b37          	lui	x22,0x179
    410167b8:	0bdb0b1b          	addiw	x22,x22,189 # 1790bd <SID_ZICBO_006_stack+0xc60bd>
    410167bc:	00eb1b13          	slli	x22,x22,0xe
    410167c0:	00000793          	li	x15,0
    410167c4:	00fb0ab3          	add	x21,x22,x15
    410167c8:	000af337          	lui	x6,0xaf
    410167cc:	29d3031b          	addiw	x6,x6,669 # af29d <mem11+0x6d29d>
    410167d0:	00c31313          	slli	x6,x6,0xc
    410167d4:	11830313          	addi	x6,x6,280
    410167d8:	186aa82f          	sc.w	x16,x6,(x21)
    410167dc:	00179337          	lui	x6,0x179
    410167e0:	0bd3031b          	addiw	x6,x6,189 # 1790bd <SID_ZICBO_006_stack+0xc60bd>
    410167e4:	00e31313          	slli	x6,x6,0xe
    410167e8:	00000393          	li	x7,0
    410167ec:	007309b3          	add	x19,x6,x7
    410167f0:	0009a00f          	cbo.inval	(x19)
    410167f4:	00179d37          	lui	x26,0x179
    410167f8:	0bdd0d1b          	addiw	x26,x26,189 # 1790bd <SID_ZICBO_006_stack+0xc60bd>
    410167fc:	00ed1d13          	slli	x26,x26,0xe
    41016800:	00000c93          	li	x25,0
    41016804:	019d0c33          	add	x24,x26,x25
    41016808:	000a06b7          	lui	x13,0xa0
    4101680c:	8e56869b          	addiw	x13,x13,-1819 # 9f8e5 <mem11+0x5d8e5>
    41016810:	00c69693          	slli	x13,x13,0xc
    41016814:	ce368693          	addi	x13,x13,-797
    41016818:	00dc3faf          	amoadd.d	x31,x13,(x24)
    4101681c:	0003d137          	lui	x2,0x3d
    41016820:	00013383          	ld	x7,0(x2) # 3d000 <tp_csr_storage>
    41016824:	7336afb7          	lui	x31,0x7336a
    41016828:	955f8f9b          	addiw	x31,x31,-1707 # 73369955 <mem10+0x20adf955>
    4101682c:	00cf9f93          	slli	x31,x31,0xc
    41016830:	fdbf8f93          	addi	x31,x31,-37
    41016834:	00df9f93          	slli	x31,x31,0xd
    41016838:	0b8f8f93          	addi	x31,x31,184
    4101683c:	01900f13          	li	x30,25
    41016840:	01efb023          	sd	x30,0(x31)
    41016844:	000f0fb7          	lui	x31,0xf0
    41016848:	001f8f9b          	addiw	x31,x31,1 # f0001 <SID_ZICBO_006_stack+0x3d001>
    4101684c:	00cf9f93          	slli	x31,x31,0xc
    41016850:	005f8f93          	addi	x31,x31,5
    41016854:	00000073          	ecall
    41016858:	00813383          	ld	x7,8(x2)
    4101685c:	7336afb7          	lui	x31,0x7336a
    41016860:	955f8f9b          	addiw	x31,x31,-1707 # 73369955 <mem10+0x20adf955>
    41016864:	00cf9f93          	slli	x31,x31,0xc
    41016868:	fdbf8f93          	addi	x31,x31,-37
    4101686c:	00df9f93          	slli	x31,x31,0xd
    41016870:	0b8f8f93          	addi	x31,x31,184
    41016874:	00300f13          	li	x30,3
    41016878:	01efb023          	sd	x30,0(x31)
    4101687c:	000f0fb7          	lui	x31,0xf0
    41016880:	001f8f9b          	addiw	x31,x31,1 # f0001 <SID_ZICBO_006_stack+0x3d001>
    41016884:	00cf9f93          	slli	x31,x31,0xc
    41016888:	005f8f93          	addi	x31,x31,5
    4101688c:	00000073          	ecall
    41016890:	01013383          	ld	x7,16(x2)
    41016894:	7336afb7          	lui	x31,0x7336a
    41016898:	955f8f9b          	addiw	x31,x31,-1707 # 73369955 <mem10+0x20adf955>
    4101689c:	00cf9f93          	slli	x31,x31,0xc
    410168a0:	fdbf8f93          	addi	x31,x31,-37
    410168a4:	00df9f93          	slli	x31,x31,0xd
    410168a8:	0b8f8f93          	addi	x31,x31,184
    410168ac:	00600f13          	li	x30,6
    410168b0:	01efb023          	sd	x30,0(x31)
    410168b4:	000f0fb7          	lui	x31,0xf0
    410168b8:	001f8f9b          	addiw	x31,x31,1 # f0001 <SID_ZICBO_006_stack+0x3d001>
    410168bc:	00cf9f93          	slli	x31,x31,0xc
    410168c0:	005f8f93          	addi	x31,x31,5
    410168c4:	00000073          	ecall

00000000410168c8 <SID_ZICBO_047_passed>:
    410168c8:	00f00f9b          	addiw	x31,x0,15
    410168cc:	01cf9f93          	slli	x31,x31,0x1c
    410168d0:	001f8f93          	addi	x31,x31,1
    410168d4:	00000073          	ecall

00000000410168d8 <SID_ZICBO_049>:
    410168d8:	0003d137          	lui	x2,0x3d
    410168dc:	7336afb7          	lui	x31,0x7336a
    410168e0:	955f8f9b          	addiw	x31,x31,-1707 # 73369955 <mem10+0x20adf955>
    410168e4:	00cf9f93          	slli	x31,x31,0xc
    410168e8:	fdbf8f93          	addi	x31,x31,-37
    410168ec:	00df9f93          	slli	x31,x31,0xd
    410168f0:	0b8f8f93          	addi	x31,x31,184
    410168f4:	01300f13          	li	x30,19
    410168f8:	01efb023          	sd	x30,0(x31)
    410168fc:	000f0fb7          	lui	x31,0xf0
    41016900:	001f8f9b          	addiw	x31,x31,1 # f0001 <SID_ZICBO_006_stack+0x3d001>
    41016904:	00cf9f93          	slli	x31,x31,0xc
    41016908:	005f8f93          	addi	x31,x31,5
    4101690c:	00000073          	ecall
    41016910:	00713023          	sd	x7,0(x2) # 3d000 <tp_csr_storage>
    41016914:	7336afb7          	lui	x31,0x7336a
    41016918:	955f8f9b          	addiw	x31,x31,-1707 # 73369955 <mem10+0x20adf955>
    4101691c:	00cf9f93          	slli	x31,x31,0xc
    41016920:	fdbf8f93          	addi	x31,x31,-37
    41016924:	00df9f93          	slli	x31,x31,0xd
    41016928:	0b8f8f93          	addi	x31,x31,184
    4101692c:	00100f13          	li	x30,1
    41016930:	01efb023          	sd	x30,0(x31)
    41016934:	000f0fb7          	lui	x31,0xf0
    41016938:	001f8f9b          	addiw	x31,x31,1 # f0001 <SID_ZICBO_006_stack+0x3d001>
    4101693c:	00cf9f93          	slli	x31,x31,0xc
    41016940:	005f8f93          	addi	x31,x31,5
    41016944:	00000073          	ecall
    41016948:	00713423          	sd	x7,8(x2)
    4101694c:	7336afb7          	lui	x31,0x7336a
    41016950:	955f8f9b          	addiw	x31,x31,-1707 # 73369955 <mem10+0x20adf955>
    41016954:	00cf9f93          	slli	x31,x31,0xc
    41016958:	fdbf8f93          	addi	x31,x31,-37
    4101695c:	00df9f93          	slli	x31,x31,0xd
    41016960:	0b8f8f93          	addi	x31,x31,184
    41016964:	00400f13          	li	x30,4
    41016968:	01efb023          	sd	x30,0(x31)
    4101696c:	000f0fb7          	lui	x31,0xf0
    41016970:	001f8f9b          	addiw	x31,x31,1 # f0001 <SID_ZICBO_006_stack+0x3d001>
    41016974:	00cf9f93          	slli	x31,x31,0xc
    41016978:	005f8f93          	addi	x31,x31,5
    4101697c:	00000073          	ecall
    41016980:	00713823          	sd	x7,16(x2)
    41016984:	00038137          	lui	x2,0x38
    41016988:	000012b7          	lui	x5,0x1
    4101698c:	00510133          	add	x2,x2,x5
    41016990:	ff017113          	andi	x2,x2,-16
    41016994:	0f000393          	li	x7,240
    41016998:	7336afb7          	lui	x31,0x7336a
    4101699c:	955f8f9b          	addiw	x31,x31,-1707 # 73369955 <mem10+0x20adf955>
    410169a0:	00cf9f93          	slli	x31,x31,0xc
    410169a4:	fdbf8f93          	addi	x31,x31,-37
    410169a8:	00df9f93          	slli	x31,x31,0xd
    410169ac:	0b8f8f93          	addi	x31,x31,184
    410169b0:	01600f13          	li	x30,22
    410169b4:	01efb023          	sd	x30,0(x31)
    410169b8:	000f0fb7          	lui	x31,0xf0
    410169bc:	001f8f9b          	addiw	x31,x31,1 # f0001 <SID_ZICBO_006_stack+0x3d001>
    410169c0:	00cf9f93          	slli	x31,x31,0xc
    410169c4:	005f8f93          	addi	x31,x31,5
    410169c8:	00000073          	ecall
    410169cc:	0f000393          	li	x7,240
    410169d0:	7336afb7          	lui	x31,0x7336a
    410169d4:	955f8f9b          	addiw	x31,x31,-1707 # 73369955 <mem10+0x20adf955>
    410169d8:	00cf9f93          	slli	x31,x31,0xc
    410169dc:	fdbf8f93          	addi	x31,x31,-37
    410169e0:	00df9f93          	slli	x31,x31,0xd
    410169e4:	0c0f8f93          	addi	x31,x31,192
    410169e8:	01700f13          	li	x30,23
    410169ec:	01efb023          	sd	x30,0(x31)
    410169f0:	000f0fb7          	lui	x31,0xf0
    410169f4:	001f8f9b          	addiw	x31,x31,1 # f0001 <SID_ZICBO_006_stack+0x3d001>
    410169f8:	00cf9f93          	slli	x31,x31,0xc
    410169fc:	006f8f93          	addi	x31,x31,6
    41016a00:	00000073          	ecall
    41016a04:	0f000393          	li	x7,240
    41016a08:	7336afb7          	lui	x31,0x7336a
    41016a0c:	955f8f9b          	addiw	x31,x31,-1707 # 73369955 <mem10+0x20adf955>
    41016a10:	00cf9f93          	slli	x31,x31,0xc
    41016a14:	fdbf8f93          	addi	x31,x31,-37
    41016a18:	00df9f93          	slli	x31,x31,0xd
    41016a1c:	0c0f8f93          	addi	x31,x31,192
    41016a20:	01800f13          	li	x30,24
    41016a24:	01efb023          	sd	x30,0(x31)
    41016a28:	000f0fb7          	lui	x31,0xf0
    41016a2c:	001f8f9b          	addiw	x31,x31,1 # f0001 <SID_ZICBO_006_stack+0x3d001>
    41016a30:	00cf9f93          	slli	x31,x31,0xc
    41016a34:	006f8f93          	addi	x31,x31,6
    41016a38:	00000073          	ecall
    41016a3c:	00172937          	lui	x18,0x172
    41016a40:	d0b9091b          	addiw	x18,x18,-757 # 171d0b <SID_ZICBO_006_stack+0xbed0b>
    41016a44:	00d91913          	slli	x18,x18,0xd
    41016a48:	46590913          	addi	x18,x18,1125
    41016a4c:	00e91913          	slli	x18,x18,0xe
    41016a50:	00000993          	li	x19,0
    41016a54:	01390633          	add	x12,x18,x19
    41016a58:	100627af          	lr.w	x15,(x12)
    41016a5c:	001723b7          	lui	x7,0x172
    41016a60:	d0b3839b          	addiw	x7,x7,-757 # 171d0b <SID_ZICBO_006_stack+0xbed0b>
    41016a64:	00d39393          	slli	x7,x7,0xd
    41016a68:	46538393          	addi	x7,x7,1125
    41016a6c:	00e39393          	slli	x7,x7,0xe
    41016a70:	00000313          	li	x6,0
    41016a74:	00638533          	add	x10,x7,x6
    41016a78:	0025200f          	cbo.flush	(x10)
    41016a7c:	001726b7          	lui	x13,0x172
    41016a80:	d0b6869b          	addiw	x13,x13,-757 # 171d0b <SID_ZICBO_006_stack+0xbed0b>
    41016a84:	00d69693          	slli	x13,x13,0xd
    41016a88:	46568693          	addi	x13,x13,1125
    41016a8c:	00e69693          	slli	x13,x13,0xe
    41016a90:	00000593          	li	x11,0
    41016a94:	00b68433          	add	x8,x13,x11
    41016a98:	0e8a3737          	lui	x14,0xe8a3
    41016a9c:	5b47071b          	addiw	x14,x14,1460 # e8a35b4 <__section_data_1+0x69a5b4>
    41016aa0:	18e425af          	sc.w	x11,x14,(x8)
    41016aa4:	001724b7          	lui	x9,0x172
    41016aa8:	d0b4849b          	addiw	x9,x9,-757 # 171d0b <SID_ZICBO_006_stack+0xbed0b>
    41016aac:	00d49493          	slli	x9,x9,0xd
    41016ab0:	46548493          	addi	x9,x9,1125
    41016ab4:	00e49493          	slli	x9,x9,0xe
    41016ab8:	00048e83          	lb	x29,0(x9)
    41016abc:	0003d137          	lui	x2,0x3d
    41016ac0:	00013383          	ld	x7,0(x2) # 3d000 <tp_csr_storage>
    41016ac4:	7336afb7          	lui	x31,0x7336a
    41016ac8:	955f8f9b          	addiw	x31,x31,-1707 # 73369955 <mem10+0x20adf955>
    41016acc:	00cf9f93          	slli	x31,x31,0xc
    41016ad0:	fdbf8f93          	addi	x31,x31,-37
    41016ad4:	00df9f93          	slli	x31,x31,0xd
    41016ad8:	0b8f8f93          	addi	x31,x31,184
    41016adc:	01900f13          	li	x30,25
    41016ae0:	01efb023          	sd	x30,0(x31)
    41016ae4:	000f0fb7          	lui	x31,0xf0
    41016ae8:	001f8f9b          	addiw	x31,x31,1 # f0001 <SID_ZICBO_006_stack+0x3d001>
    41016aec:	00cf9f93          	slli	x31,x31,0xc
    41016af0:	005f8f93          	addi	x31,x31,5
    41016af4:	00000073          	ecall
    41016af8:	00813383          	ld	x7,8(x2)
    41016afc:	7336afb7          	lui	x31,0x7336a
    41016b00:	955f8f9b          	addiw	x31,x31,-1707 # 73369955 <mem10+0x20adf955>
    41016b04:	00cf9f93          	slli	x31,x31,0xc
    41016b08:	fdbf8f93          	addi	x31,x31,-37
    41016b0c:	00df9f93          	slli	x31,x31,0xd
    41016b10:	0b8f8f93          	addi	x31,x31,184
    41016b14:	00300f13          	li	x30,3
    41016b18:	01efb023          	sd	x30,0(x31)
    41016b1c:	000f0fb7          	lui	x31,0xf0
    41016b20:	001f8f9b          	addiw	x31,x31,1 # f0001 <SID_ZICBO_006_stack+0x3d001>
    41016b24:	00cf9f93          	slli	x31,x31,0xc
    41016b28:	005f8f93          	addi	x31,x31,5
    41016b2c:	00000073          	ecall
    41016b30:	01013383          	ld	x7,16(x2)
    41016b34:	7336afb7          	lui	x31,0x7336a
    41016b38:	955f8f9b          	addiw	x31,x31,-1707 # 73369955 <mem10+0x20adf955>
    41016b3c:	00cf9f93          	slli	x31,x31,0xc
    41016b40:	fdbf8f93          	addi	x31,x31,-37
    41016b44:	00df9f93          	slli	x31,x31,0xd
    41016b48:	0b8f8f93          	addi	x31,x31,184
    41016b4c:	00600f13          	li	x30,6
    41016b50:	01efb023          	sd	x30,0(x31)
    41016b54:	000f0fb7          	lui	x31,0xf0
    41016b58:	001f8f9b          	addiw	x31,x31,1 # f0001 <SID_ZICBO_006_stack+0x3d001>
    41016b5c:	00cf9f93          	slli	x31,x31,0xc
    41016b60:	005f8f93          	addi	x31,x31,5
    41016b64:	00000073          	ecall

0000000041016b68 <SID_ZICBO_049_passed>:
    41016b68:	00f00f9b          	addiw	x31,x0,15
    41016b6c:	01cf9f93          	slli	x31,x31,0x1c
    41016b70:	001f8f93          	addi	x31,x31,1
    41016b74:	00000073          	ecall

0000000041016b78 <SID_ZICBO_50_ZIC64B_01>:
    41016b78:	0003d137          	lui	x2,0x3d
    41016b7c:	7336afb7          	lui	x31,0x7336a
    41016b80:	955f8f9b          	addiw	x31,x31,-1707 # 73369955 <mem10+0x20adf955>
    41016b84:	00cf9f93          	slli	x31,x31,0xc
    41016b88:	fdbf8f93          	addi	x31,x31,-37
    41016b8c:	00df9f93          	slli	x31,x31,0xd
    41016b90:	0b8f8f93          	addi	x31,x31,184
    41016b94:	01300f13          	li	x30,19
    41016b98:	01efb023          	sd	x30,0(x31)
    41016b9c:	000f0fb7          	lui	x31,0xf0
    41016ba0:	001f8f9b          	addiw	x31,x31,1 # f0001 <SID_ZICBO_006_stack+0x3d001>
    41016ba4:	00cf9f93          	slli	x31,x31,0xc
    41016ba8:	005f8f93          	addi	x31,x31,5
    41016bac:	00000073          	ecall
    41016bb0:	00713023          	sd	x7,0(x2) # 3d000 <tp_csr_storage>
    41016bb4:	7336afb7          	lui	x31,0x7336a
    41016bb8:	955f8f9b          	addiw	x31,x31,-1707 # 73369955 <mem10+0x20adf955>
    41016bbc:	00cf9f93          	slli	x31,x31,0xc
    41016bc0:	fdbf8f93          	addi	x31,x31,-37
    41016bc4:	00df9f93          	slli	x31,x31,0xd
    41016bc8:	0b8f8f93          	addi	x31,x31,184
    41016bcc:	00100f13          	li	x30,1
    41016bd0:	01efb023          	sd	x30,0(x31)
    41016bd4:	000f0fb7          	lui	x31,0xf0
    41016bd8:	001f8f9b          	addiw	x31,x31,1 # f0001 <SID_ZICBO_006_stack+0x3d001>
    41016bdc:	00cf9f93          	slli	x31,x31,0xc
    41016be0:	005f8f93          	addi	x31,x31,5
    41016be4:	00000073          	ecall
    41016be8:	00713423          	sd	x7,8(x2)
    41016bec:	7336afb7          	lui	x31,0x7336a
    41016bf0:	955f8f9b          	addiw	x31,x31,-1707 # 73369955 <mem10+0x20adf955>
    41016bf4:	00cf9f93          	slli	x31,x31,0xc
    41016bf8:	fdbf8f93          	addi	x31,x31,-37
    41016bfc:	00df9f93          	slli	x31,x31,0xd
    41016c00:	0b8f8f93          	addi	x31,x31,184
    41016c04:	00400f13          	li	x30,4
    41016c08:	01efb023          	sd	x30,0(x31)
    41016c0c:	000f0fb7          	lui	x31,0xf0
    41016c10:	001f8f9b          	addiw	x31,x31,1 # f0001 <SID_ZICBO_006_stack+0x3d001>
    41016c14:	00cf9f93          	slli	x31,x31,0xc
    41016c18:	005f8f93          	addi	x31,x31,5
    41016c1c:	00000073          	ecall
    41016c20:	00713823          	sd	x7,16(x2)
    41016c24:	003ec137          	lui	x2,0x3ec
    41016c28:	000012b7          	lui	x5,0x1
    41016c2c:	00510133          	add	x2,x2,x5
    41016c30:	ff017113          	andi	x2,x2,-16
    41016c34:	0f000393          	li	x7,240
    41016c38:	7336afb7          	lui	x31,0x7336a
    41016c3c:	955f8f9b          	addiw	x31,x31,-1707 # 73369955 <mem10+0x20adf955>
    41016c40:	00cf9f93          	slli	x31,x31,0xc
    41016c44:	fdbf8f93          	addi	x31,x31,-37
    41016c48:	00df9f93          	slli	x31,x31,0xd
    41016c4c:	0b8f8f93          	addi	x31,x31,184
    41016c50:	01600f13          	li	x30,22
    41016c54:	01efb023          	sd	x30,0(x31)
    41016c58:	000f0fb7          	lui	x31,0xf0
    41016c5c:	001f8f9b          	addiw	x31,x31,1 # f0001 <SID_ZICBO_006_stack+0x3d001>
    41016c60:	00cf9f93          	slli	x31,x31,0xc
    41016c64:	005f8f93          	addi	x31,x31,5
    41016c68:	00000073          	ecall
    41016c6c:	0f000393          	li	x7,240
    41016c70:	7336afb7          	lui	x31,0x7336a
    41016c74:	955f8f9b          	addiw	x31,x31,-1707 # 73369955 <mem10+0x20adf955>
    41016c78:	00cf9f93          	slli	x31,x31,0xc
    41016c7c:	fdbf8f93          	addi	x31,x31,-37
    41016c80:	00df9f93          	slli	x31,x31,0xd
    41016c84:	0c0f8f93          	addi	x31,x31,192
    41016c88:	01700f13          	li	x30,23
    41016c8c:	01efb023          	sd	x30,0(x31)
    41016c90:	000f0fb7          	lui	x31,0xf0
    41016c94:	001f8f9b          	addiw	x31,x31,1 # f0001 <SID_ZICBO_006_stack+0x3d001>
    41016c98:	00cf9f93          	slli	x31,x31,0xc
    41016c9c:	006f8f93          	addi	x31,x31,6
    41016ca0:	00000073          	ecall
    41016ca4:	0f000393          	li	x7,240
    41016ca8:	7336afb7          	lui	x31,0x7336a
    41016cac:	955f8f9b          	addiw	x31,x31,-1707 # 73369955 <mem10+0x20adf955>
    41016cb0:	00cf9f93          	slli	x31,x31,0xc
    41016cb4:	fdbf8f93          	addi	x31,x31,-37
    41016cb8:	00df9f93          	slli	x31,x31,0xd
    41016cbc:	0c0f8f93          	addi	x31,x31,192
    41016cc0:	01800f13          	li	x30,24
    41016cc4:	01efb023          	sd	x30,0(x31)
    41016cc8:	000f0fb7          	lui	x31,0xf0
    41016ccc:	001f8f9b          	addiw	x31,x31,1 # f0001 <SID_ZICBO_006_stack+0x3d001>
    41016cd0:	00cf9f93          	slli	x31,x31,0xc
    41016cd4:	006f8f93          	addi	x31,x31,6
    41016cd8:	00000073          	ecall
    41016cdc:	0103d437          	lui	x8,0x103d
    41016ce0:	00059337          	lui	x6,0x59
    41016ce4:	82f3031b          	addiw	x6,x6,-2001 # 5882f <mem11+0x1682f>
    41016ce8:	00d31313          	slli	x6,x6,0xd
    41016cec:	84130313          	addi	x6,x6,-1983
    41016cf0:	00641023          	sh	x6,0(x8) # 103d000 <mem17>
    41016cf4:	0103da37          	lui	x20,0x103d
    41016cf8:	007eeeb7          	lui	x29,0x7ee
    41016cfc:	4fde8e9b          	addiw	x29,x29,1277 # 7ee4fd <mem1+0x1aa4fd>
    41016d00:	03da3023          	sd	x29,32(x20) # 103d020 <mem17+0x20>
    41016d04:	0103dfb7          	lui	x31,0x103d
    41016d08:	62b47a37          	lui	x20,0x62b47
    41016d0c:	207a0a1b          	addiw	x20,x20,519 # 62b47207 <mem10+0x102bd207>
    41016d10:	034fbc23          	sd	x20,56(x31) # 103d038 <mem17+0x38>
    41016d14:	0103deb7          	lui	x29,0x103d
    41016d18:	00026637          	lui	x12,0x26
    41016d1c:	b9b6061b          	addiw	x12,x12,-1125 # 25b9b <mem7+0xcb9b>
    41016d20:	00e61613          	slli	x12,x12,0xe
    41016d24:	c5060613          	addi	x12,x12,-944
    41016d28:	d2160553          	fcvt.d.wu	f10,x12
    41016d2c:	04aea027          	fsw	f10,64(x29) # 103d040 <mem17+0x40>
    41016d30:	0103dab7          	lui	x21,0x103d
    41016d34:	0b0cadb7          	lui	x27,0xb0ca
    41016d38:	961d8d9b          	addiw	x27,x27,-1695 # b0c9961 <mem0+0x703f961>
    41016d3c:	07bab023          	sd	x27,96(x21) # 103d060 <mem17+0x60>
    41016d40:	0103d4b7          	lui	x9,0x103d
    41016d44:	000cbb37          	lui	x22,0xcb
    41016d48:	4dfb0b1b          	addiw	x22,x22,1247 # cb4df <SID_ZICBO_006_stack+0x184df>
    41016d4c:	00cb1b13          	slli	x22,x22,0xc
    41016d50:	eefb0b13          	addi	x22,x22,-273
    41016d54:	d20b0853          	fcvt.d.w	f16,x22
    41016d58:	0704bc27          	fsd	f16,120(x9) # 103d078 <mem17+0x78>
    41016d5c:	0103d337          	lui	x6,0x103d
    41016d60:	00000493          	li	x9,0
    41016d64:	00930633          	add	x12,x6,x9
    41016d68:	0046200f          	cbo.zero	(x12)
    41016d6c:	00000313          	li	x6,0
    41016d70:	0103d5b7          	lui	x11,0x103d
    41016d74:	0005bb83          	ld	x23,0(x11) # 103d000 <mem17>
    41016d78:	026b8263          	beq	x23,x6,41016d9c <pass_label_5>
    41016d7c:	7336abb7          	lui	x23,0x7336a
    41016d80:	955b8b9b          	addiw	x23,x23,-1707 # 73369955 <mem10+0x20adf955>
    41016d84:	00cb9b93          	slli	x23,x23,0xc
    41016d88:	fdbb8b93          	addi	x23,x23,-37
    41016d8c:	00db9b93          	slli	x23,x23,0xd
    41016d90:	008b8b93          	addi	x23,x23,8
    41016d94:	000bbf03          	ld	x30,0(x23)
    41016d98:	000f0067          	jr	x30

0000000041016d9c <pass_label_5>:
    41016d9c:	0103db37          	lui	x22,0x103d
    41016da0:	020b3b83          	ld	x23,32(x22) # 103d020 <mem17+0x20>
    41016da4:	026b8263          	beq	x23,x6,41016dc8 <pass_label_6>
    41016da8:	7336a837          	lui	x16,0x7336a
    41016dac:	9558081b          	addiw	x16,x16,-1707 # 73369955 <mem10+0x20adf955>
    41016db0:	00c81813          	slli	x16,x16,0xc
    41016db4:	fdb80813          	addi	x16,x16,-37
    41016db8:	00d81813          	slli	x16,x16,0xd
    41016dbc:	00880813          	addi	x16,x16,8
    41016dc0:	00083e83          	ld	x29,0(x16)
    41016dc4:	000e8067          	jr	x29

0000000041016dc8 <pass_label_6>:
    41016dc8:	0103dc37          	lui	x24,0x103d
    41016dcc:	038c3703          	ld	x14,56(x24) # 103d038 <mem17+0x38>
    41016dd0:	02670263          	beq	x14,x6,41016df4 <pass_label_7>
    41016dd4:	7336a837          	lui	x16,0x7336a
    41016dd8:	9558081b          	addiw	x16,x16,-1707 # 73369955 <mem10+0x20adf955>
    41016ddc:	00c81813          	slli	x16,x16,0xc
    41016de0:	fdb80813          	addi	x16,x16,-37
    41016de4:	00d81813          	slli	x16,x16,0xd
    41016de8:	00880813          	addi	x16,x16,8
    41016dec:	00083e83          	ld	x29,0(x16)
    41016df0:	000e8067          	jr	x29

0000000041016df4 <pass_label_7>:
    41016df4:	0103d437          	lui	x8,0x103d
    41016df8:	04043883          	ld	x17,64(x8) # 103d040 <mem17+0x40>
    41016dfc:	02689263          	bne	x17,x6,41016e20 <pass_label_8>
    41016e00:	7336a537          	lui	x10,0x7336a
    41016e04:	9555051b          	addiw	x10,x10,-1707 # 73369955 <mem10+0x20adf955>
    41016e08:	00c51513          	slli	x10,x10,0xc
    41016e0c:	fdb50513          	addi	x10,x10,-37
    41016e10:	00d51513          	slli	x10,x10,0xd
    41016e14:	00850513          	addi	x10,x10,8
    41016e18:	00053583          	ld	x11,0(x10)
    41016e1c:	00058067          	jr	x11

0000000041016e20 <pass_label_8>:
    41016e20:	0103dcb7          	lui	x25,0x103d
    41016e24:	060cbc03          	ld	x24,96(x25) # 103d060 <mem17+0x60>
    41016e28:	026c1263          	bne	x24,x6,41016e4c <pass_label_9>
    41016e2c:	7336aeb7          	lui	x29,0x7336a
    41016e30:	955e8e9b          	addiw	x29,x29,-1707 # 73369955 <mem10+0x20adf955>
    41016e34:	00ce9e93          	slli	x29,x29,0xc
    41016e38:	fdbe8e93          	addi	x29,x29,-37
    41016e3c:	00de9e93          	slli	x29,x29,0xd
    41016e40:	008e8e93          	addi	x29,x29,8
    41016e44:	000ebe83          	ld	x29,0(x29)
    41016e48:	000e8067          	jr	x29

0000000041016e4c <pass_label_9>:
    41016e4c:	0103d637          	lui	x12,0x103d
    41016e50:	07863703          	ld	x14,120(x12) # 103d078 <mem17+0x78>
    41016e54:	02671263          	bne	x14,x6,41016e78 <pass_label_10>
    41016e58:	7336a437          	lui	x8,0x7336a
    41016e5c:	9554041b          	addiw	x8,x8,-1707 # 73369955 <mem10+0x20adf955>
    41016e60:	00c41413          	slli	x8,x8,0xc
    41016e64:	fdb40413          	addi	x8,x8,-37
    41016e68:	00d41413          	slli	x8,x8,0xd
    41016e6c:	00840413          	addi	x8,x8,8
    41016e70:	00043d83          	ld	x27,0(x8)
    41016e74:	000d8067          	jr	x27

0000000041016e78 <pass_label_10>:
    41016e78:	0003d137          	lui	x2,0x3d
    41016e7c:	00013383          	ld	x7,0(x2) # 3d000 <tp_csr_storage>
    41016e80:	7336afb7          	lui	x31,0x7336a
    41016e84:	955f8f9b          	addiw	x31,x31,-1707 # 73369955 <mem10+0x20adf955>
    41016e88:	00cf9f93          	slli	x31,x31,0xc
    41016e8c:	fdbf8f93          	addi	x31,x31,-37
    41016e90:	00df9f93          	slli	x31,x31,0xd
    41016e94:	0b8f8f93          	addi	x31,x31,184
    41016e98:	01900f13          	li	x30,25
    41016e9c:	01efb023          	sd	x30,0(x31)
    41016ea0:	000f0fb7          	lui	x31,0xf0
    41016ea4:	001f8f9b          	addiw	x31,x31,1 # f0001 <SID_ZICBO_006_stack+0x3d001>
    41016ea8:	00cf9f93          	slli	x31,x31,0xc
    41016eac:	005f8f93          	addi	x31,x31,5
    41016eb0:	00000073          	ecall
    41016eb4:	00813383          	ld	x7,8(x2)
    41016eb8:	7336afb7          	lui	x31,0x7336a
    41016ebc:	955f8f9b          	addiw	x31,x31,-1707 # 73369955 <mem10+0x20adf955>
    41016ec0:	00cf9f93          	slli	x31,x31,0xc
    41016ec4:	fdbf8f93          	addi	x31,x31,-37
    41016ec8:	00df9f93          	slli	x31,x31,0xd
    41016ecc:	0b8f8f93          	addi	x31,x31,184
    41016ed0:	00300f13          	li	x30,3
    41016ed4:	01efb023          	sd	x30,0(x31)
    41016ed8:	000f0fb7          	lui	x31,0xf0
    41016edc:	001f8f9b          	addiw	x31,x31,1 # f0001 <SID_ZICBO_006_stack+0x3d001>
    41016ee0:	00cf9f93          	slli	x31,x31,0xc
    41016ee4:	005f8f93          	addi	x31,x31,5
    41016ee8:	00000073          	ecall
    41016eec:	01013383          	ld	x7,16(x2)
    41016ef0:	7336afb7          	lui	x31,0x7336a
    41016ef4:	955f8f9b          	addiw	x31,x31,-1707 # 73369955 <mem10+0x20adf955>
    41016ef8:	00cf9f93          	slli	x31,x31,0xc
    41016efc:	fdbf8f93          	addi	x31,x31,-37
    41016f00:	00df9f93          	slli	x31,x31,0xd
    41016f04:	0b8f8f93          	addi	x31,x31,184
    41016f08:	00600f13          	li	x30,6
    41016f0c:	01efb023          	sd	x30,0(x31)
    41016f10:	000f0fb7          	lui	x31,0xf0
    41016f14:	001f8f9b          	addiw	x31,x31,1 # f0001 <SID_ZICBO_006_stack+0x3d001>
    41016f18:	00cf9f93          	slli	x31,x31,0xc
    41016f1c:	005f8f93          	addi	x31,x31,5
    41016f20:	00000073          	ecall

0000000041016f24 <SID_ZICBO_50_ZIC64B_01_passed>:
    41016f24:	00f00f9b          	addiw	x31,x0,15
    41016f28:	01cf9f93          	slli	x31,x31,0x1c
    41016f2c:	001f8f93          	addi	x31,x31,1
    41016f30:	00000073          	ecall

0000000041016f34 <test_cleanup>:
    41016f34:	00f00f9b          	addiw	x31,x0,15
    41016f38:	01cf9f93          	slli	x31,x31,0x1c
    41016f3c:	001f8f93          	addi	x31,x31,1
    41016f40:	00000073          	ecall

0000000041016f44 <local_test_failed>:
    41016f44:	00f00f9b          	addiw	x31,x0,15
    41016f48:	01cf9f93          	slli	x31,x31,0x1c
    41016f4c:	002f8f93          	addi	x31,x31,2
    41016f50:	00000073          	ecall

Disassembly of section .csr_machine_0:

0000000041215000 <csr_access_menvcfg_machine_key_3_write-0x70>:
    41215000:	44b38fb7          	lui	x31,0x44b38
    41215004:	0b8f8f9b          	addiw	x31,x31,184 # 44b380b8 <machine_csr_jump_table_flags_pa>
    41215008:	000fbf83          	ld	x31,0(x31)
    4121500c:	00300293          	li	x5,3
    41215010:	065f8063          	beq	x31,x5,41215070 <csr_access_menvcfg_machine_key_3_write>
    41215014:	00100293          	li	x5,1
    41215018:	065f8063          	beq	x31,x5,41215078 <csr_access_menvcfg_machine_key_1_read>
    4121501c:	01600293          	li	x5,22
    41215020:	065f8063          	beq	x31,x5,41215080 <csr_access_menvcfg_machine_key_22_set>
    41215024:	00200293          	li	x5,2
    41215028:	065f8063          	beq	x31,x5,41215088 <csr_access_menvcfg_machine_key_2_clear>
    4121502c:	00600293          	li	x5,6
    41215030:	065f8063          	beq	x31,x5,41215090 <csr_access_senvcfg_supervisor_key_6_write>
    41215034:	00400293          	li	x5,4
    41215038:	065f8063          	beq	x31,x5,41215098 <csr_access_senvcfg_supervisor_key_4_read>
    4121503c:	01900293          	li	x5,25
    41215040:	065f8063          	beq	x31,x5,412150a0 <csr_access_henvcfg_supervisor_key_25_write>
    41215044:	01300293          	li	x5,19
    41215048:	065f8063          	beq	x31,x5,412150a8 <csr_access_henvcfg_supervisor_key_19_read>
    4121504c:	01c00293          	li	x5,28
    41215050:	065f8063          	beq	x31,x5,412150b0 <csr_access_mstatus_machine_key_28_set>
    41215054:	01a00293          	li	x5,26
    41215058:	065f8063          	beq	x31,x5,412150b8 <csr_access_mstatus_machine_key_26_clear>
    4121505c:	01f00293          	li	x5,31
    41215060:	065f8063          	beq	x31,x5,412150c0 <csr_access_mtvec_machine_key_31_set>
    41215064:	01e00293          	li	x5,30
    41215068:	065f8063          	beq	x31,x5,412150c8 <csr_access_mtvec_machine_key_30_clear>
    4121506c:	0640006f          	j	412150d0 <end_machine_label>

0000000041215070 <csr_access_menvcfg_machine_key_3_write>:
    41215070:	30a39073          	csrw	0x30a,x7
    41215074:	05c0006f          	j	412150d0 <end_machine_label>

0000000041215078 <csr_access_menvcfg_machine_key_1_read>:
    41215078:	30a023f3          	csrr	x7,0x30a
    4121507c:	0540006f          	j	412150d0 <end_machine_label>

0000000041215080 <csr_access_menvcfg_machine_key_22_set>:
    41215080:	30a3a073          	csrs	0x30a,x7
    41215084:	04c0006f          	j	412150d0 <end_machine_label>

0000000041215088 <csr_access_menvcfg_machine_key_2_clear>:
    41215088:	30a3b073          	csrc	0x30a,x7
    4121508c:	0440006f          	j	412150d0 <end_machine_label>

0000000041215090 <csr_access_senvcfg_supervisor_key_6_write>:
    41215090:	10a39073          	csrw	0x10a,x7
    41215094:	03c0006f          	j	412150d0 <end_machine_label>

0000000041215098 <csr_access_senvcfg_supervisor_key_4_read>:
    41215098:	10a023f3          	csrr	x7,0x10a
    4121509c:	0340006f          	j	412150d0 <end_machine_label>

00000000412150a0 <csr_access_henvcfg_supervisor_key_25_write>:
    412150a0:	60a39073          	csrw	henvcfg,x7
    412150a4:	02c0006f          	j	412150d0 <end_machine_label>

00000000412150a8 <csr_access_henvcfg_supervisor_key_19_read>:
    412150a8:	60a023f3          	csrr	x7,henvcfg
    412150ac:	0240006f          	j	412150d0 <end_machine_label>

00000000412150b0 <csr_access_mstatus_machine_key_28_set>:
    412150b0:	3003a073          	csrs	mstatus,x7
    412150b4:	01c0006f          	j	412150d0 <end_machine_label>

00000000412150b8 <csr_access_mstatus_machine_key_26_clear>:
    412150b8:	3003b073          	csrc	mstatus,x7
    412150bc:	0140006f          	j	412150d0 <end_machine_label>

00000000412150c0 <csr_access_mtvec_machine_key_31_set>:
    412150c0:	3053a073          	csrs	mtvec,x7
    412150c4:	00c0006f          	j	412150d0 <end_machine_label>

00000000412150c8 <csr_access_mtvec_machine_key_30_clear>:
    412150c8:	3053b073          	csrc	mtvec,x7
    412150cc:	0040006f          	j	412150d0 <end_machine_label>

00000000412150d0 <end_machine_label>:
    412150d0:	000f0fb7          	lui	x31,0xf0
    412150d4:	001f8f9b          	addiw	x31,x31,1 # f0001 <SID_ZICBO_006_stack+0x3d001>
    412150d8:	00cf9f93          	slli	x31,x31,0xc
    412150dc:	004f8f93          	addi	x31,x31,4
    412150e0:	00000073          	ecall

Disassembly of section .csr_super_0:

0000000041216000 <csr_access_senvcfg_supervisor_key_23_set-0x58>:
    41216000:	7336afb7          	lui	x31,0x7336a
    41216004:	955f8f9b          	addiw	x31,x31,-1707 # 73369955 <mem10+0x20adf955>
    41216008:	00cf9f93          	slli	x31,x31,0xc
    4121600c:	fdbf8f93          	addi	x31,x31,-37
    41216010:	00df9f93          	slli	x31,x31,0xd
    41216014:	0c0f8f93          	addi	x31,x31,192
    41216018:	000fbf83          	ld	x31,0(x31)
    4121601c:	01700293          	li	x5,23
    41216020:	025f8c63          	beq	x31,x5,41216058 <csr_access_senvcfg_supervisor_key_23_set>
    41216024:	00500293          	li	x5,5
    41216028:	025f8c63          	beq	x31,x5,41216060 <csr_access_senvcfg_supervisor_key_5_clear>
    4121602c:	01800293          	li	x5,24
    41216030:	025f8c63          	beq	x31,x5,41216068 <csr_access_henvcfg_supervisor_key_24_set>
    41216034:	01d00293          	li	x5,29
    41216038:	025f8c63          	beq	x31,x5,41216070 <csr_access_sstatus_supervisor_key_29_set>
    4121603c:	01b00293          	li	x5,27
    41216040:	025f8c63          	beq	x31,x5,41216078 <csr_access_sstatus_supervisor_key_27_clear>
    41216044:	02100293          	li	x5,33
    41216048:	025f8c63          	beq	x31,x5,41216080 <csr_access_stvec_supervisor_key_33_set>
    4121604c:	02000293          	li	x5,32
    41216050:	025f8c63          	beq	x31,x5,41216088 <csr_access_stvec_supervisor_key_32_clear>
    41216054:	03c0006f          	j	41216090 <end_super_label>

0000000041216058 <csr_access_senvcfg_supervisor_key_23_set>:
    41216058:	10a3a073          	csrs	0x10a,x7
    4121605c:	0340006f          	j	41216090 <end_super_label>

0000000041216060 <csr_access_senvcfg_supervisor_key_5_clear>:
    41216060:	10a3b073          	csrc	0x10a,x7
    41216064:	02c0006f          	j	41216090 <end_super_label>

0000000041216068 <csr_access_henvcfg_supervisor_key_24_set>:
    41216068:	60a3a073          	csrs	henvcfg,x7
    4121606c:	0240006f          	j	41216090 <end_super_label>

0000000041216070 <csr_access_sstatus_supervisor_key_29_set>:
    41216070:	1003a073          	csrs	sstatus,x7
    41216074:	01c0006f          	j	41216090 <end_super_label>

0000000041216078 <csr_access_sstatus_supervisor_key_27_clear>:
    41216078:	1003b073          	csrc	sstatus,x7
    4121607c:	0140006f          	j	41216090 <end_super_label>

0000000041216080 <csr_access_stvec_supervisor_key_33_set>:
    41216080:	1053a073          	csrs	stvec,x7
    41216084:	00c0006f          	j	41216090 <end_super_label>

0000000041216088 <csr_access_stvec_supervisor_key_32_clear>:
    41216088:	1053b073          	csrc	stvec,x7
    4121608c:	0040006f          	j	41216090 <end_super_label>

0000000041216090 <end_super_label>:
    41216090:	000f0fb7          	lui	x31,0xf0
    41216094:	001f8f9b          	addiw	x31,x31,1 # f0001 <SID_ZICBO_006_stack+0x3d001>
    41216098:	00cf9f93          	slli	x31,x31,0xc
    4121609c:	004f8f93          	addi	x31,x31,4
    412160a0:	00000073          	ecall

Disassembly of section .os_data:

00e66d32a9fb6000 <passed_addr_ptr>:
  e66d32a9fb6000:	50e0                	.insn	2, 0x50e0
  e66d32a9fb6002:	4101                	.insn	2, 0x4101
  e66d32a9fb6004:	0000                	.insn	2, 0x0000
	...

00e66d32a9fb6008 <failed_addr_ptr>:
  e66d32a9fb6008:	50f0                	.insn	2, 0x50f0
  e66d32a9fb600a:	4101                	.insn	2, 0x4101
  e66d32a9fb600c:	0000                	.insn	2, 0x0000
	...

00e66d32a9fb6010 <end_test_addr_ptr>:
  e66d32a9fb6010:	5100                	.insn	2, 0x5100
  e66d32a9fb6012:	4101                	.insn	2, 0x4101
  e66d32a9fb6014:	0000                	.insn	2, 0x0000
	...

00e66d32a9fb6018 <os_passed_addr_ptr>:
  e66d32a9fb6018:	07b0                	.insn	2, 0x07b0
  e66d32a9fb601a:	4100                	.insn	2, 0x4100
  e66d32a9fb601c:	0000                	.insn	2, 0x0000
	...

00e66d32a9fb6020 <os_failed_addr_ptr>:
  e66d32a9fb6020:	07c0                	.insn	2, 0x07c0
  e66d32a9fb6022:	4100                	.insn	2, 0x4100
  e66d32a9fb6024:	0000                	.insn	2, 0x0000
	...

00e66d32a9fb6028 <os_end_test_addr_ptr>:
  e66d32a9fb6028:	07cc                	.insn	2, 0x07cc
  e66d32a9fb602a:	4100                	.insn	2, 0x4100
  e66d32a9fb602c:	0000                	.insn	2, 0x0000
	...

00e66d32a9fb6030 <rvcp_prefix_str_data>:
  e66d32a9fb6030:	5652                	.insn	2, 0x5652
  e66d32a9fb6032:	203a5043          	fmadd.s	f0,f20,f3,f4,unknown
  e66d32a9fb6036:	6554                	.insn	2, 0x6554
  e66d32a9fb6038:	46207473          	csrrci	x8,0x462,0
  e66d32a9fb603c:	6c69                	.insn	2, 0x6c69
  e66d32a9fb603e:	2065                	.insn	2, 0x2065
	...

00e66d32a9fb6041 <rvcp_testname_str_data>:
  e66d32a9fb6041:	7074                	.insn	2, 0x7074
  e66d32a9fb6043:	7a5f 6369 6f62      	.insn	6, 0x6f6263697a5f
  e66d32a9fb6049:	5f6d                	.insn	2, 0x5f6d
  e66d32a9fb604b:	697a                	.insn	2, 0x697a
  e66d32a9fb604d:	7a6f6263          	bltu	x30,x6,e66d32a9fb67f1 <num_hard_fails_mem+0x709>
  e66d32a9fb6051:	7a5f 6369 6f62      	.insn	6, 0x6f6263697a5f
  e66d32a9fb6057:	5f70                	.insn	2, 0x5f70
  e66d32a9fb6059:	697a                	.insn	2, 0x697a
  e66d32a9fb605b:	62343663          	.insn	4, 0x62343663
  e66d32a9fb605f:	325f        	.insn	6, 0x53415000325f

00e66d32a9fb6062 <rvcp_passed_str_data>:
  e66d32a9fb6062:	4150                	.insn	2, 0x4150
  e66d32a9fb6064:	44455353          	fround.h	f6,f10,unknown
	...

00e66d32a9fb6069 <rvcp_failed_str_data>:
  e66d32a9fb6069:	4146                	.insn	2, 0x4146
  e66d32a9fb606b:	4c49                	.insn	2, 0x4c49
  e66d32a9fb606d:	4445                	.insn	2, 0x4445
	...

00e66d32a9fb6070 <rvcp_space_str_data>:
  e66d32a9fb6070:	0020                	.insn	2, 0x0020

00e66d32a9fb6072 <rvcp_newline_str_data>:
  e66d32a9fb6072:	000a                	.insn	2, 0x000a
  e66d32a9fb6074:	0000                	.insn	2, 0x0000
	...

00e66d32a9fb6078 <excp_ignored_count_mem>:
	...

00e66d32a9fb6080 <machine_flags_mem>:
	...

00e66d32a9fb6088 <user_flags_mem>:
	...

00e66d32a9fb6090 <super_flags_mem>:
	...

00e66d32a9fb6098 <machine_area_mem>:
	...

00e66d32a9fb60a0 <user_area_mem>:
	...

00e66d32a9fb60a8 <super_area_mem>:
	...

00e66d32a9fb60b0 <zero_data_mem>:
	...

00e66d32a9fb60b8 <machine_csr_jump_table_flags_mem>:
	...

00e66d32a9fb60c0 <super_csr_jump_table_flags_mem>:
	...

00e66d32a9fb60c8 <pte_access_flags_mem>:
	...

00e66d32a9fb60e0 <num_harts_ended_mem>:
	...

00e66d32a9fb60e8 <num_hard_fails_mem>:
	...

Disassembly of section .hart_context:

001fbc8097dd5000 <hart_context_0>:
  1fbc8097dd5000:	d000                	.insn	2, 0xd000
  1fbc8097dd5002:	0dc97663          	bgeu	x18,x28,1fbc8097dd50ce <gpr_save_area+0x56>
  1fbc8097dd5006:	0049                	.insn	2, 0x0049
	...
  1fbc8097dd5018:	0001                	.insn	2, 0x0001
  1fbc8097dd501a:	0000                	.insn	2, 0x0000
  1fbc8097dd501c:	0000                	.insn	2, 0x0000
  1fbc8097dd501e:	0000                	.insn	2, 0x0000
  1fbc8097dd5020:	ffff                	.insn	2, 0xffff
  1fbc8097dd5022:	ffff                	.insn	2, 0xffff
  1fbc8097dd5024:	ffff                	.insn	2, 0xffff
  1fbc8097dd5026:	ffff                	.insn	2, 0xffff
  1fbc8097dd5028:	ffff                	.insn	2, 0xffff
  1fbc8097dd502a:	ffff                	.insn	2, 0xffff
  1fbc8097dd502c:	ffff                	.insn	2, 0xffff
  1fbc8097dd502e:	ffff                	.insn	2, 0xffff
  1fbc8097dd5030:	ffff                	.insn	2, 0xffff
  1fbc8097dd5032:	ffff                	.insn	2, 0xffff
  1fbc8097dd5034:	ffff                	.insn	2, 0xffff
  1fbc8097dd5036:	ffff                	.insn	2, 0xffff
	...
  1fbc8097dd5050:	00ff 0000 0000 0000 	.insn	10, 0x00ff00000000000000ff
  1fbc8097dd5058:	00ff 
	...
  1fbc8097dd5176:	0000                	.insn	2, 0x0000
  1fbc8097dd5178:	ffff                	.insn	2, 0xffff
  1fbc8097dd517a:	ffff                	.insn	2, 0xffff
  1fbc8097dd517c:	ffff                	.insn	2, 0xffff
  1fbc8097dd517e:	ffff                	.insn	2, 0xffff
	...
  1fbc8097dd5188:	ffff                	.insn	2, 0xffff
  1fbc8097dd518a:	ffff                	.insn	2, 0xffff
	...

Disassembly of section .hart_stack_0:

00490dc97663c000 <hart_stack_0>:
	...

Disassembly of section .io_htif:

0000000041040000 <tohost>:
	...

0000000041040040 <fromhost>:
	...

Disassembly of section .mem0:

000000000408a000 <.mem0>:
 408a000:	c0de                	.insn	2, 0xc0de
 408a002:	c001                	.insn	2, 0xc001
 408a004:	0000                	.insn	2, 0x0000
	...

Disassembly of section .mem1:

0000000000644000 <.mem1>:
  644000:	c0de                	.insn	2, 0xc0de
  644002:	c001                	.insn	2, 0xc001
  644004:	0000                	.insn	2, 0x0000
	...

Disassembly of section .mem2:

0000000000002000 <.mem2>:
    2000:	c0de                	.insn	2, 0xc0de
    2002:	c001                	.insn	2, 0xc001
    2004:	0000                	.insn	2, 0x0000
	...

Disassembly of section .mem3:

00000000002fe000 <.mem3>:
  2fe000:	c0de                	.insn	2, 0xc0de
  2fe002:	c001                	.insn	2, 0xc001
  2fe004:	0000                	.insn	2, 0x0000
	...

Disassembly of section .mem4:

001fdd4a63cfd000 <.mem4>:
  1fdd4a63cfd000:	c0de                	.insn	2, 0xc0de
  1fdd4a63cfd002:	c001                	.insn	2, 0xc001
  1fdd4a63cfd004:	0000                	.insn	2, 0x0000
	...

Disassembly of section .mem5:

00000001922ed000 <.mem5>:
   1922ed000:	c0de                	.insn	2, 0xc0de
   1922ed002:	c001                	.insn	2, 0xc001
   1922ed004:	0000                	.insn	2, 0x0000
	...

Disassembly of section .mem6:

00000000003ea000 <.mem6>:
  3ea000:	c0de                	.insn	2, 0xc0de
  3ea002:	c001                	.insn	2, 0xc001
  3ea004:	0000                	.insn	2, 0x0000
	...

Disassembly of section .mem7:

0000000000019000 <.mem7>:
   19000:	c0de                	.insn	2, 0xc0de
   19002:	c001                	.insn	2, 0xc001
   19004:	0000                	.insn	2, 0x0000
	...

Disassembly of section .mem8:

0000000020b2c000 <.mem8>:
    20b2c000:	c0de                	.insn	2, 0xc0de
    20b2c002:	c001                	.insn	2, 0xc001
    20b2c004:	0000                	.insn	2, 0x0000
	...

Disassembly of section .mem9:

0000000001320000 <.mem9>:
 1320000:	c0de                	.insn	2, 0xc0de
 1320002:	c001                	.insn	2, 0xc001
 1320004:	0000                	.insn	2, 0x0000
	...

Disassembly of section .mem10:

000000005288a000 <.mem10>:
    5288a000:	c0de                	.insn	2, 0xc0de
    5288a002:	c001                	.insn	2, 0xc001
    5288a004:	0000                	.insn	2, 0x0000
	...

Disassembly of section .mem11:

0000000000042000 <.mem11>:
   42000:	c0de                	.insn	2, 0xc0de
   42002:	c001                	.insn	2, 0xc001
   42004:	0000                	.insn	2, 0x0000
	...

Disassembly of section .mem12:

000000232455b000 <.mem12>:
  232455b000:	c0de                	.insn	2, 0xc0de
  232455b002:	c001                	.insn	2, 0xc001
  232455b004:	0000                	.insn	2, 0x0000
	...

Disassembly of section .mem13:

0047f62e56a3e000 <.mem13>:
  47f62e56a3e000:	c0de                	.insn	2, 0xc0de
  47f62e56a3e002:	c001                	.insn	2, 0xc001
  47f62e56a3e004:	0000                	.insn	2, 0x0000
	...

Disassembly of section .mem14:

000000002056d000 <.mem14>:
    2056d000:	c0de                	.insn	2, 0xc0de
    2056d002:	c001                	.insn	2, 0xc001
    2056d004:	0000                	.insn	2, 0x0000
	...

Disassembly of section .mem15:

00000005e42f4000 <.mem15>:
   5e42f4000:	c0de                	.insn	2, 0xc0de
   5e42f4002:	c001                	.insn	2, 0xc001
   5e42f4004:	0000                	.insn	2, 0x0000
	...

Disassembly of section .mem16:

0000b8e859194000 <.mem16>:
    b8e859194000:	c0de                	.insn	2, 0xc0de
    b8e859194002:	c001                	.insn	2, 0xc001
    b8e859194004:	0000                	.insn	2, 0x0000
	...

Disassembly of section .mem17:

000000000103d000 <.mem17>:
 103d000:	c0de                	.insn	2, 0xc0de
 103d002:	c001                	.insn	2, 0xc001
 103d004:	0000                	.insn	2, 0x0000
	...

Disassembly of section .tp_csr_storage:

000000000003d000 <.tp_csr_storage>:
   3d000:	c0de                	.insn	2, 0xc0de
   3d002:	c001                	.insn	2, 0xc001
   3d004:	0000                	.insn	2, 0x0000
	...

Disassembly of section .SID_ZICBO_001_stack:

0006229211f7b000 <.SID_ZICBO_001_stack>:
   6229211f7b000:	c0de                	.insn	2, 0xc0de
   6229211f7b002:	c001                	.insn	2, 0xc001
   6229211f7b004:	0000                	.insn	2, 0x0000
	...

Disassembly of section .SID_ZICBO_002_stack:

0000000001a5d000 <.SID_ZICBO_002_stack>:
 1a5d000:	c0de                	.insn	2, 0xc0de
 1a5d002:	c001                	.insn	2, 0xc001
 1a5d004:	0000                	.insn	2, 0x0000
	...

Disassembly of section .SID_ZICBO_003_stack:

0000000001587000 <.SID_ZICBO_003_stack>:
 1587000:	c0de                	.insn	2, 0xc0de
 1587002:	c001                	.insn	2, 0xc001
 1587004:	0000                	.insn	2, 0x0000
	...

Disassembly of section .SID_ZICBO_004_stack:

00dbaad0d919a000 <.SID_ZICBO_004_stack>:
  dbaad0d919a000:	c0de                	.insn	2, 0xc0de
  dbaad0d919a002:	c001                	.insn	2, 0xc001
  dbaad0d919a004:	0000                	.insn	2, 0x0000
	...

Disassembly of section .SID_ZICBO_005_stack:

000000037d110000 <.SID_ZICBO_005_stack>:
   37d110000:	c0de                	.insn	2, 0xc0de
   37d110002:	c001                	.insn	2, 0xc001
   37d110004:	0000                	.insn	2, 0x0000
	...

Disassembly of section .SID_ZICBO_006_stack:

00000000000b3000 <.SID_ZICBO_006_stack>:
   b3000:	c0de                	.insn	2, 0xc0de
   b3002:	c001                	.insn	2, 0xc001
   b3004:	0000                	.insn	2, 0x0000
	...

Disassembly of section .SID_ZICBO_013_stack:

000000003f9bd000 <.SID_ZICBO_013_stack>:
    3f9bd000:	c0de                	.insn	2, 0xc0de
    3f9bd002:	c001                	.insn	2, 0xc001
    3f9bd004:	0000                	.insn	2, 0x0000
	...

Disassembly of section .SID_ZICBO_015_stack:

000000000061d000 <.SID_ZICBO_015_stack>:
  61d000:	c0de                	.insn	2, 0xc0de
  61d002:	c001                	.insn	2, 0xc001
  61d004:	0000                	.insn	2, 0x0000
	...

Disassembly of section .SID_ZICBO_016_stack:

0000164a90f65000 <.SID_ZICBO_016_stack>:
    164a90f65000:	c0de                	.insn	2, 0xc0de
    164a90f65002:	c001                	.insn	2, 0xc001
    164a90f65004:	0000                	.insn	2, 0x0000
	...

Disassembly of section .SID_ZICBO_017_stack:

0000000000036000 <.SID_ZICBO_017_stack>:
   36000:	c0de                	.insn	2, 0xc0de
   36002:	c001                	.insn	2, 0xc001
   36004:	0000                	.insn	2, 0x0000
	...

Disassembly of section .SID_ZICBO_018_stack:

002bb96af809f000 <.SID_ZICBO_018_stack>:
  2bb96af809f000:	c0de                	.insn	2, 0xc0de
  2bb96af809f002:	c001                	.insn	2, 0xc001
  2bb96af809f004:	0000                	.insn	2, 0x0000
	...

Disassembly of section .SID_ZICBO_019_stack:

000000000019f000 <.SID_ZICBO_019_stack>:
  19f000:	c0de                	.insn	2, 0xc0de
  19f002:	c001                	.insn	2, 0xc001
  19f004:	0000                	.insn	2, 0x0000
	...

Disassembly of section .SID_ZICBO_020_stack:

0000000000040000 <.SID_ZICBO_020_stack>:
   40000:	c0de                	.insn	2, 0xc0de
   40002:	c001                	.insn	2, 0xc001
   40004:	0000                	.insn	2, 0x0000
	...

Disassembly of section .SID_ZICBO_047_stack:

0008a32b01b54000 <.SID_ZICBO_047_stack>:
   8a32b01b54000:	c0de                	.insn	2, 0xc0de
   8a32b01b54002:	c001                	.insn	2, 0xc001
   8a32b01b54004:	0000                	.insn	2, 0x0000
	...

Disassembly of section .SID_ZICBO_049_stack:

0000000000038000 <.SID_ZICBO_049_stack>:
   38000:	c0de                	.insn	2, 0xc0de
   38002:	c001                	.insn	2, 0xc001
   38004:	0000                	.insn	2, 0x0000
	...

Disassembly of section .SID_ZICBO_50_ZIC64B_01_stack:

00000000003ec000 <.SID_ZICBO_50_ZIC64B_01_stack>:
  3ec000:	c0de                	.insn	2, 0xc0de
  3ec002:	c001                	.insn	2, 0xc001
  3ec004:	0000                	.insn	2, 0x0000
	...

Disassembly of section .__pagetable_map_os_0x0000000042e52000:

0000000042e52000 <__pagetable_map_os_0x0000000042e52000>:
    42e52000:	3001                	.insn	2, 0x3001
    42e52002:	10ba                	.insn	2, 0x10ba
	...
    42e52030:	5801                	.insn	2, 0x5801
    42e52032:	109c                	.insn	2, 0x109c
	...
    42e52040:	9c01                	.insn	2, 0x9c01
    42e52042:	10b0                	.insn	2, 0x10b0
	...
    42e520f8:	e801                	.insn	2, 0xe801
    42e520fa:	000010ab          	.insn	4, 0x10ab
	...
    42e52156:	0000                	.insn	2, 0x0000
    42e52158:	1801                	.insn	2, 0x1801
    42e5215a:	109a                	.insn	2, 0x109a
	...
    42e52238:	2401                	.insn	2, 0x2401
    42e5223a:	109a                	.insn	2, 0x109a
	...
    42e52248:	5801                	.insn	2, 0x5801
    42e5224a:	00001087          	flh	f1,0(x0) # 0 <ALL_4KB_PAGES>
	...
    42e526d6:	0000                	.insn	2, 0x0000
    42e526d8:	c801                	.insn	2, 0xc801
    42e526da:	10ba                	.insn	2, 0x10ba
	...
    42e52730:	7001                	.insn	2, 0x7001
    42e52732:	0000109b          	slliw	x1,x0,0x0
	...

Disassembly of section .__pagetable_map_os_0x0000000042e8c000:

0000000042e8c000 <__pagetable_map_os_0x0000000042e8c000>:
    42e8c000:	6001                	.insn	2, 0x6001
    42e8c002:	10b2                	.insn	2, 0x10b2
	...
    42e8c160:	6401                	.insn	2, 0x6401
    42e8c162:	112d                	.insn	2, 0x112d
	...
    42e8cb88:	9401                	.insn	2, 0x9401
    42e8cb8a:	10b0                	.insn	2, 0x10b0
    42e8cb8c:	0000                	.insn	2, 0x0000
	...

Disassembly of section .__pagetable_map_os_0x0000000042c98000:

0000000042c98000 <__pagetable_map_os_0x0000000042c98000>:
    42c98000:	fc01                	.insn	2, 0xfc01
    42c98002:	1079                	.insn	2, 0x1079
    42c98004:	0000                	.insn	2, 0x0000
    42c98006:	0000                	.insn	2, 0x0000
    42c98008:	0c01                	.insn	2, 0x0c01
    42c9800a:	1130                	.insn	2, 0x1130
	...
    42c98030:	4c01                	.insn	2, 0x4c01
    42c98032:	1079                	.insn	2, 0x1079
	...
    42c98068:	1801                	.insn	2, 0x1801
    42c9806a:	10ac                	.insn	2, 0x10ac
	...
    42c980b8:	9c01                	.insn	2, 0x9c01
    42c980ba:	000010b3          	sll	x1,x0,x0
	...
    42c9845e:	0000                	.insn	2, 0x0000
    42c98460:	5c01                	.insn	2, 0x5c01
    42c98462:	000010b3          	sll	x1,x0,x0
	...

Disassembly of section .__pagetable_map_os_0x0000000044c03000:

0000000044c03000 <__pagetable_map_os_0x0000000044c03000>:
	...
    44c03040:	8c01                	.insn	2, 0x8c01
    44c03042:	1080                	.insn	2, 0x1080
    44c03044:	0000                	.insn	2, 0x0000
    44c03046:	0000                	.insn	2, 0x0000
    44c03048:	f001                	.insn	2, 0xf001
    44c0304a:	000010ab          	.insn	4, 0x10ab
	...
    44c030b6:	0000                	.insn	2, 0x0000
    44c030b8:	7c01                	.insn	2, 0x7c01
    44c030ba:	1079                	.insn	2, 0x1079
	...
    44c034a0:	d401                	.insn	2, 0xd401
    44c034a2:	107a                	.insn	2, 0x107a
    44c034a4:	0000                	.insn	2, 0x0000
	...

Disassembly of section .__pagetable_map_os_0x0000000042023000:

0000000042023000 <__pagetable_map_os_0x0000000042023000>:
	...
    42023080:	40df 1040 0000      	.insn	6, 0x104040df
    42023086:	0000                	.insn	2, 0x0000
    42023088:	104044cf          	fnmadd.s	f9,f0,f4,f2,rmm
    4202308c:	0000                	.insn	2, 0x0000
    4202308e:	0000                	.insn	2, 0x0000
    42023090:	104048cf          	fnmadd.s	f17,f0,f4,f2,rmm
    42023094:	0000                	.insn	2, 0x0000
    42023096:	0000                	.insn	2, 0x0000
    42023098:	10404ccf          	fnmadd.s	f25,f0,f4,f2,rmm
    4202309c:	0000                	.insn	2, 0x0000
    4202309e:	0000                	.insn	2, 0x0000
    420230a0:	104050cf          	fnmadd.s	f1,f0,f4,f2,unknown
    420230a4:	0000                	.insn	2, 0x0000
    420230a6:	0000                	.insn	2, 0x0000
    420230a8:	00df 1070 0000      	.insn	6, 0x107000df
    420230ae:	0000                	.insn	2, 0x0000
    420230b0:	04df 1070 0000      	.insn	6, 0x107004df
    420230b6:	0000                	.insn	2, 0x0000
    420230b8:	08df 1070 0000      	.insn	6, 0x107008df
    420230be:	0000                	.insn	2, 0x0000
    420230c0:	0cdf 1070 0000      	.insn	6, 0x10700cdf
    420230c6:	0000                	.insn	2, 0x0000
    420230c8:	10df 1070 0000      	.insn	6, 0x107010df
    420230ce:	0000                	.insn	2, 0x0000
    420230d0:	14df 1070 0000      	.insn	6, 0x107014df
    420230d6:	0000                	.insn	2, 0x0000
    420230d8:	18df 1070 0000      	.insn	6, 0x107018df
    420230de:	0000                	.insn	2, 0x0000
    420230e0:	1cdf 1070 0000      	.insn	6, 0x10701cdf
    420230e6:	0000                	.insn	2, 0x0000
    420230e8:	20df 1070 0000      	.insn	6, 0x107020df
    420230ee:	0000                	.insn	2, 0x0000
    420230f0:	24df 1070 0000      	.insn	6, 0x107024df
    420230f6:	0000                	.insn	2, 0x0000
    420230f8:	28df 1070 0000      	.insn	6, 0x107028df
    420230fe:	0000                	.insn	2, 0x0000
    42023100:	2cdf 1070 0000      	.insn	6, 0x10702cdf
    42023106:	0000                	.insn	2, 0x0000
    42023108:	30df 1070 0000      	.insn	6, 0x107030df
    4202310e:	0000                	.insn	2, 0x0000
    42023110:	34df 1070 0000      	.insn	6, 0x107034df
    42023116:	0000                	.insn	2, 0x0000
    42023118:	38df 1070 0000      	.insn	6, 0x107038df
    4202311e:	0000                	.insn	2, 0x0000
    42023120:	3cdf 1070 0000      	.insn	6, 0x10703cdf
    42023126:	0000                	.insn	2, 0x0000
    42023128:	40df 1070 0000      	.insn	6, 0x107040df
    4202312e:	0000                	.insn	2, 0x0000
    42023130:	44df 1070 0000      	.insn	6, 0x107044df
    42023136:	0000                	.insn	2, 0x0000
    42023138:	48df 1070 0000      	.insn	6, 0x107048df
    4202313e:	0000                	.insn	2, 0x0000
    42023140:	4cdf 1070 0000      	.insn	6, 0x10704cdf
    42023146:	0000                	.insn	2, 0x0000
    42023148:	50df 1070 0000      	.insn	6, 0x107050df
    4202314e:	0000                	.insn	2, 0x0000
    42023150:	54df 1070 0000      	.insn	6, 0x107054df
    42023156:	0000                	.insn	2, 0x0000
    42023158:	58df 1070 0000      	.insn	6, 0x107058df
    4202315e:	0000                	.insn	2, 0x0000
    42023160:	5cdf 1070 0000      	.insn	6, 0x10705cdf
    42023166:	0000                	.insn	2, 0x0000
    42023168:	60df 1070 0000      	.insn	6, 0x107060df
    4202316e:	0000                	.insn	2, 0x0000
    42023170:	64df 1070 0000      	.insn	6, 0x107064df
    42023176:	0000                	.insn	2, 0x0000
    42023178:	68df 1070 0000      	.insn	6, 0x107068df
    4202317e:	0000                	.insn	2, 0x0000
    42023180:	6cdf 1070 0000      	.insn	6, 0x10706cdf
    42023186:	0000                	.insn	2, 0x0000
    42023188:	70df 1070 0000      	.insn	6, 0x107070df
    4202318e:	0000                	.insn	2, 0x0000
    42023190:	74df 1070 0000      	.insn	6, 0x107074df
    42023196:	0000                	.insn	2, 0x0000
    42023198:	78df 1070 0000      	.insn	6, 0x107078df
    4202319e:	0000                	.insn	2, 0x0000
    420231a0:	7cdf 1070 0000      	.insn	6, 0x10707cdf
    420231a6:	0000                	.insn	2, 0x0000
    420231a8:	80df 1070 0000      	.insn	6, 0x107080df
    420231ae:	0000                	.insn	2, 0x0000
    420231b0:	84df 1070 0000      	.insn	6, 0x107084df
    420231b6:	0000                	.insn	2, 0x0000
    420231b8:	88df 1070 0000      	.insn	6, 0x107088df
    420231be:	0000                	.insn	2, 0x0000
    420231c0:	8cdf 1070 0000      	.insn	6, 0x10708cdf
    420231c6:	0000                	.insn	2, 0x0000
    420231c8:	90df 1070 0000      	.insn	6, 0x107090df
    420231ce:	0000                	.insn	2, 0x0000
    420231d0:	94df 1070 0000      	.insn	6, 0x107094df
    420231d6:	0000                	.insn	2, 0x0000
    420231d8:	98df 1070 0000      	.insn	6, 0x107098df
    420231de:	0000                	.insn	2, 0x0000
    420231e0:	9cdf 1070 0000      	.insn	6, 0x10709cdf
    420231e6:	0000                	.insn	2, 0x0000
    420231e8:	a0df 1070 0000      	.insn	6, 0x1070a0df
    420231ee:	0000                	.insn	2, 0x0000
    420231f0:	a4df 1070 0000      	.insn	6, 0x1070a4df
    420231f6:	0000                	.insn	2, 0x0000
    420231f8:	a8df 1070 0000      	.insn	6, 0x1070a8df
    420231fe:	0000                	.insn	2, 0x0000
    42023200:	00df 1041 0000      	.insn	6, 0x104100df
    42023206:	0000                	.insn	2, 0x0000
    42023208:	b0df 1070 0000      	.insn	6, 0x1070b0df
    4202320e:	0000                	.insn	2, 0x0000
    42023210:	b4df 1070 0000      	.insn	6, 0x1070b4df
    42023216:	0000                	.insn	2, 0x0000
    42023218:	b8df 1070 0000      	.insn	6, 0x1070b8df
    4202321e:	0000                	.insn	2, 0x0000
    42023220:	bcdf 1070 0000      	.insn	6, 0x1070bcdf
    42023226:	0000                	.insn	2, 0x0000
    42023228:	c0df 1070 0000      	.insn	6, 0x1070c0df
    4202322e:	0000                	.insn	2, 0x0000
    42023230:	c4df 1070 0000      	.insn	6, 0x1070c4df
    42023236:	0000                	.insn	2, 0x0000
    42023238:	c8df 1070 0000      	.insn	6, 0x1070c8df
    4202323e:	0000                	.insn	2, 0x0000
    42023240:	ccdf 1070 0000      	.insn	6, 0x1070ccdf
    42023246:	0000                	.insn	2, 0x0000
    42023248:	d0df 1070 0000      	.insn	6, 0x1070d0df
    4202324e:	0000                	.insn	2, 0x0000
    42023250:	d4df 1070 0000      	.insn	6, 0x1070d4df
    42023256:	0000                	.insn	2, 0x0000
    42023258:	d8df 1070 0000      	.insn	6, 0x1070d8df
    4202325e:	0000                	.insn	2, 0x0000
    42023260:	dcdf 1070 0000      	.insn	6, 0x1070dcdf
    42023266:	0000                	.insn	2, 0x0000
    42023268:	e0df 1070 0000      	.insn	6, 0x1070e0df
    4202326e:	0000                	.insn	2, 0x0000
    42023270:	e4df 1070 0000      	.insn	6, 0x1070e4df
    42023276:	0000                	.insn	2, 0x0000
    42023278:	e8df 1070 0000      	.insn	6, 0x1070e8df
    4202327e:	0000                	.insn	2, 0x0000
    42023280:	ecdf 1070 0000      	.insn	6, 0x1070ecdf
    42023286:	0000                	.insn	2, 0x0000
    42023288:	f0df 1070 0000      	.insn	6, 0x1070f0df
    4202328e:	0000                	.insn	2, 0x0000
    42023290:	f4df 1070 0000      	.insn	6, 0x1070f4df
    42023296:	0000                	.insn	2, 0x0000
    42023298:	f8df 1070 0000      	.insn	6, 0x1070f8df
    4202329e:	0000                	.insn	2, 0x0000
    420232a0:	fcdf 1070 0000      	.insn	6, 0x1070fcdf
    420232a6:	0000                	.insn	2, 0x0000
    420232a8:	00df 1071 0000      	.insn	6, 0x107100df
    420232ae:	0000                	.insn	2, 0x0000
    420232b0:	04df 1071 0000      	.insn	6, 0x107104df
    420232b6:	0000                	.insn	2, 0x0000
    420232b8:	08df 1071 0000      	.insn	6, 0x107108df
    420232be:	0000                	.insn	2, 0x0000
    420232c0:	0cdf 1071 0000      	.insn	6, 0x10710cdf
    420232c6:	0000                	.insn	2, 0x0000
    420232c8:	10df 1071 0000      	.insn	6, 0x107110df
    420232ce:	0000                	.insn	2, 0x0000
    420232d0:	14df 1071 0000      	.insn	6, 0x107114df
    420232d6:	0000                	.insn	2, 0x0000
    420232d8:	18df 1071 0000      	.insn	6, 0x107118df
    420232de:	0000                	.insn	2, 0x0000
    420232e0:	1cdf 1071 0000      	.insn	6, 0x10711cdf
    420232e6:	0000                	.insn	2, 0x0000
    420232e8:	20df 1071 0000      	.insn	6, 0x107120df
    420232ee:	0000                	.insn	2, 0x0000
    420232f0:	24df 1071 0000      	.insn	6, 0x107124df
    420232f6:	0000                	.insn	2, 0x0000
    420232f8:	28df 1071 0000      	.insn	6, 0x107128df
    420232fe:	0000                	.insn	2, 0x0000
    42023300:	2cdf 1071 0000      	.insn	6, 0x10712cdf
    42023306:	0000                	.insn	2, 0x0000
    42023308:	30df 1071 0000      	.insn	6, 0x107130df
    4202330e:	0000                	.insn	2, 0x0000
    42023310:	34df 1071 0000      	.insn	6, 0x107134df
    42023316:	0000                	.insn	2, 0x0000
    42023318:	38df 1071 0000      	.insn	6, 0x107138df
    4202331e:	0000                	.insn	2, 0x0000
    42023320:	3cdf 1071 0000      	.insn	6, 0x10713cdf
    42023326:	0000                	.insn	2, 0x0000
    42023328:	40df 1071 0000      	.insn	6, 0x107140df
    4202332e:	0000                	.insn	2, 0x0000
    42023330:	44df 1071 0000      	.insn	6, 0x107144df
    42023336:	0000                	.insn	2, 0x0000
    42023338:	48df 1071 0000      	.insn	6, 0x107148df
    4202333e:	0000                	.insn	2, 0x0000
    42023340:	4cdf 1071 0000      	.insn	6, 0x10714cdf
    42023346:	0000                	.insn	2, 0x0000
    42023348:	50df 1071 0000      	.insn	6, 0x107150df
    4202334e:	0000                	.insn	2, 0x0000
    42023350:	54df 1071 0000      	.insn	6, 0x107154df
    42023356:	0000                	.insn	2, 0x0000
    42023358:	58df 1071 0000      	.insn	6, 0x107158df
    4202335e:	0000                	.insn	2, 0x0000
    42023360:	5cdf 1071 0000      	.insn	6, 0x10715cdf
    42023366:	0000                	.insn	2, 0x0000
    42023368:	60df 1071 0000      	.insn	6, 0x107160df
    4202336e:	0000                	.insn	2, 0x0000
    42023370:	64df 1071 0000      	.insn	6, 0x107164df
    42023376:	0000                	.insn	2, 0x0000
    42023378:	68df 1071 0000      	.insn	6, 0x107168df
    4202337e:	0000                	.insn	2, 0x0000
    42023380:	6cdf 1071 0000      	.insn	6, 0x10716cdf
    42023386:	0000                	.insn	2, 0x0000
    42023388:	70df 1071 0000      	.insn	6, 0x107170df
    4202338e:	0000                	.insn	2, 0x0000
    42023390:	74df 1071 0000      	.insn	6, 0x107174df
    42023396:	0000                	.insn	2, 0x0000
    42023398:	78df 1071 0000      	.insn	6, 0x107178df
    4202339e:	0000                	.insn	2, 0x0000
    420233a0:	7cdf 1071 0000      	.insn	6, 0x10717cdf
    420233a6:	0000                	.insn	2, 0x0000
    420233a8:	80df 1071 0000      	.insn	6, 0x107180df
    420233ae:	0000                	.insn	2, 0x0000
    420233b0:	84df 1071 0000      	.insn	6, 0x107184df
    420233b6:	0000                	.insn	2, 0x0000
    420233b8:	88df 1071 0000      	.insn	6, 0x107188df
    420233be:	0000                	.insn	2, 0x0000
    420233c0:	8cdf 1071 0000      	.insn	6, 0x10718cdf
    420233c6:	0000                	.insn	2, 0x0000
    420233c8:	90df 1071 0000      	.insn	6, 0x107190df
    420233ce:	0000                	.insn	2, 0x0000
    420233d0:	94df 1071 0000      	.insn	6, 0x107194df
    420233d6:	0000                	.insn	2, 0x0000
    420233d8:	98df 1071 0000      	.insn	6, 0x107198df
    420233de:	0000                	.insn	2, 0x0000
    420233e0:	9cdf 1071 0000      	.insn	6, 0x10719cdf
    420233e6:	0000                	.insn	2, 0x0000
    420233e8:	a0df 1071 0000      	.insn	6, 0x1071a0df
    420233ee:	0000                	.insn	2, 0x0000
    420233f0:	a4df 1071 0000      	.insn	6, 0x1071a4df
    420233f6:	0000                	.insn	2, 0x0000
    420233f8:	a8df 1071 0000      	.insn	6, 0x1071a8df
    420233fe:	0000                	.insn	2, 0x0000
    42023400:	acdf 1071 0000      	.insn	6, 0x1071acdf
    42023406:	0000                	.insn	2, 0x0000
    42023408:	b0df 1071 0000      	.insn	6, 0x1071b0df
    4202340e:	0000                	.insn	2, 0x0000
    42023410:	b4df 1071 0000      	.insn	6, 0x1071b4df
    42023416:	0000                	.insn	2, 0x0000
    42023418:	b8df 1071 0000      	.insn	6, 0x1071b8df
    4202341e:	0000                	.insn	2, 0x0000
    42023420:	bcdf 1071 0000      	.insn	6, 0x1071bcdf
    42023426:	0000                	.insn	2, 0x0000
    42023428:	c0df 1071 0000      	.insn	6, 0x1071c0df
    4202342e:	0000                	.insn	2, 0x0000
    42023430:	c4df 1071 0000      	.insn	6, 0x1071c4df
    42023436:	0000                	.insn	2, 0x0000
    42023438:	c8df 1071 0000      	.insn	6, 0x1071c8df
    4202343e:	0000                	.insn	2, 0x0000
    42023440:	ccdf 1071 0000      	.insn	6, 0x1071ccdf
    42023446:	0000                	.insn	2, 0x0000
    42023448:	d0df 1071 0000      	.insn	6, 0x1071d0df
    4202344e:	0000                	.insn	2, 0x0000
    42023450:	d4df 1071 0000      	.insn	6, 0x1071d4df
    42023456:	0000                	.insn	2, 0x0000
    42023458:	d8df 1071 0000      	.insn	6, 0x1071d8df
    4202345e:	0000                	.insn	2, 0x0000
    42023460:	dcdf 1071 0000      	.insn	6, 0x1071dcdf
    42023466:	0000                	.insn	2, 0x0000
    42023468:	e0df 1071 0000      	.insn	6, 0x1071e0df
    4202346e:	0000                	.insn	2, 0x0000
    42023470:	e4df 1071 0000      	.insn	6, 0x1071e4df
    42023476:	0000                	.insn	2, 0x0000
    42023478:	e8df 1071 0000      	.insn	6, 0x1071e8df
    4202347e:	0000                	.insn	2, 0x0000
    42023480:	ecdf 1071 0000      	.insn	6, 0x1071ecdf
    42023486:	0000                	.insn	2, 0x0000
    42023488:	f0df 1071 0000      	.insn	6, 0x1071f0df
    4202348e:	0000                	.insn	2, 0x0000
    42023490:	f4df 1071 0000      	.insn	6, 0x1071f4df
    42023496:	0000                	.insn	2, 0x0000
    42023498:	f8df 1071 0000      	.insn	6, 0x1071f8df
    4202349e:	0000                	.insn	2, 0x0000
    420234a0:	fcdf 1071 0000      	.insn	6, 0x1071fcdf
    420234a6:	0000                	.insn	2, 0x0000
    420234a8:	107200cf          	fnmadd.s	f1,f4,f7,f2,rne
    420234ac:	0000                	.insn	2, 0x0000
    420234ae:	0000                	.insn	2, 0x0000
    420234b0:	107204cf          	fnmadd.s	f9,f4,f7,f2,rne
    420234b4:	0000                	.insn	2, 0x0000
    420234b6:	0000                	.insn	2, 0x0000
    420234b8:	107208cf          	fnmadd.s	f17,f4,f7,f2,rne
    420234bc:	0000                	.insn	2, 0x0000
    420234be:	0000                	.insn	2, 0x0000
    420234c0:	10720ccf          	fnmadd.s	f25,f4,f7,f2,rne
    420234c4:	0000                	.insn	2, 0x0000
    420234c6:	0000                	.insn	2, 0x0000
    420234c8:	107210cf          	fnmadd.s	f1,f4,f7,f2,rtz
    420234cc:	0000                	.insn	2, 0x0000
    420234ce:	0000                	.insn	2, 0x0000
    420234d0:	107214cf          	fnmadd.s	f9,f4,f7,f2,rtz
    420234d4:	0000                	.insn	2, 0x0000
    420234d6:	0000                	.insn	2, 0x0000
    420234d8:	107218cf          	fnmadd.s	f17,f4,f7,f2,rtz
    420234dc:	0000                	.insn	2, 0x0000
    420234de:	0000                	.insn	2, 0x0000
    420234e0:	10721ccf          	fnmadd.s	f25,f4,f7,f2,rtz
    420234e4:	0000                	.insn	2, 0x0000
    420234e6:	0000                	.insn	2, 0x0000
    420234e8:	107220cf          	fnmadd.s	f1,f4,f7,f2,rdn
    420234ec:	0000                	.insn	2, 0x0000
    420234ee:	0000                	.insn	2, 0x0000
    420234f0:	107224cf          	fnmadd.s	f9,f4,f7,f2,rdn
    420234f4:	0000                	.insn	2, 0x0000
    420234f6:	0000                	.insn	2, 0x0000
    420234f8:	107228cf          	fnmadd.s	f17,f4,f7,f2,rdn
    420234fc:	0000                	.insn	2, 0x0000
    420234fe:	0000                	.insn	2, 0x0000
    42023500:	10722ccf          	fnmadd.s	f25,f4,f7,f2,rdn
    42023504:	0000                	.insn	2, 0x0000
    42023506:	0000                	.insn	2, 0x0000
    42023508:	107230cf          	fnmadd.s	f1,f4,f7,f2,rup
    4202350c:	0000                	.insn	2, 0x0000
    4202350e:	0000                	.insn	2, 0x0000
    42023510:	107234cf          	fnmadd.s	f9,f4,f7,f2,rup
    42023514:	0000                	.insn	2, 0x0000
    42023516:	0000                	.insn	2, 0x0000
    42023518:	107238cf          	fnmadd.s	f17,f4,f7,f2,rup
    4202351c:	0000                	.insn	2, 0x0000
    4202351e:	0000                	.insn	2, 0x0000
    42023520:	10723ccf          	fnmadd.s	f25,f4,f7,f2,rup
    42023524:	0000                	.insn	2, 0x0000
    42023526:	0000                	.insn	2, 0x0000
    42023528:	107240cf          	fnmadd.s	f1,f4,f7,f2,rmm
    4202352c:	0000                	.insn	2, 0x0000
    4202352e:	0000                	.insn	2, 0x0000
    42023530:	107244cf          	fnmadd.s	f9,f4,f7,f2,rmm
    42023534:	0000                	.insn	2, 0x0000
    42023536:	0000                	.insn	2, 0x0000
    42023538:	107248cf          	fnmadd.s	f17,f4,f7,f2,rmm
    4202353c:	0000                	.insn	2, 0x0000
    4202353e:	0000                	.insn	2, 0x0000
    42023540:	10724ccf          	fnmadd.s	f25,f4,f7,f2,rmm
    42023544:	0000                	.insn	2, 0x0000
    42023546:	0000                	.insn	2, 0x0000
    42023548:	107250cf          	fnmadd.s	f1,f4,f7,f2,unknown
    4202354c:	0000                	.insn	2, 0x0000
    4202354e:	0000                	.insn	2, 0x0000
    42023550:	107254cf          	fnmadd.s	f9,f4,f7,f2,unknown
    42023554:	0000                	.insn	2, 0x0000
    42023556:	0000                	.insn	2, 0x0000
    42023558:	107258cf          	fnmadd.s	f17,f4,f7,f2,unknown
    4202355c:	0000                	.insn	2, 0x0000
    4202355e:	0000                	.insn	2, 0x0000
    42023560:	10725ccf          	fnmadd.s	f25,f4,f7,f2,unknown
    42023564:	0000                	.insn	2, 0x0000
    42023566:	0000                	.insn	2, 0x0000
    42023568:	107260cf          	fnmadd.s	f1,f4,f7,f2,unknown
    4202356c:	0000                	.insn	2, 0x0000
    4202356e:	0000                	.insn	2, 0x0000
    42023570:	107264cf          	fnmadd.s	f9,f4,f7,f2,unknown
    42023574:	0000                	.insn	2, 0x0000
    42023576:	0000                	.insn	2, 0x0000
    42023578:	107268cf          	fnmadd.s	f17,f4,f7,f2,unknown
    4202357c:	0000                	.insn	2, 0x0000
    4202357e:	0000                	.insn	2, 0x0000
    42023580:	10726ccf          	fnmadd.s	f25,f4,f7,f2,unknown
    42023584:	0000                	.insn	2, 0x0000
    42023586:	0000                	.insn	2, 0x0000
    42023588:	107270cf          	fnmadd.s	f1,f4,f7,f2
    4202358c:	0000                	.insn	2, 0x0000
    4202358e:	0000                	.insn	2, 0x0000
    42023590:	107274cf          	fnmadd.s	f9,f4,f7,f2
    42023594:	0000                	.insn	2, 0x0000
    42023596:	0000                	.insn	2, 0x0000
    42023598:	107278cf          	fnmadd.s	f17,f4,f7,f2
    4202359c:	0000                	.insn	2, 0x0000
    4202359e:	0000                	.insn	2, 0x0000
    420235a0:	10727ccf          	fnmadd.s	f25,f4,f7,f2
    420235a4:	0000                	.insn	2, 0x0000
    420235a6:	0000                	.insn	2, 0x0000
    420235a8:	107280cf          	fnmadd.s	f1,f5,f7,f2,rne
    420235ac:	0000                	.insn	2, 0x0000
    420235ae:	0000                	.insn	2, 0x0000
    420235b0:	107284cf          	fnmadd.s	f9,f5,f7,f2,rne
    420235b4:	0000                	.insn	2, 0x0000
    420235b6:	0000                	.insn	2, 0x0000
    420235b8:	107288cf          	fnmadd.s	f17,f5,f7,f2,rne
    420235bc:	0000                	.insn	2, 0x0000
    420235be:	0000                	.insn	2, 0x0000
    420235c0:	10728ccf          	fnmadd.s	f25,f5,f7,f2,rne
    420235c4:	0000                	.insn	2, 0x0000
    420235c6:	0000                	.insn	2, 0x0000
    420235c8:	107290cf          	fnmadd.s	f1,f5,f7,f2,rtz
    420235cc:	0000                	.insn	2, 0x0000
    420235ce:	0000                	.insn	2, 0x0000
    420235d0:	107294cf          	fnmadd.s	f9,f5,f7,f2,rtz
    420235d4:	0000                	.insn	2, 0x0000
    420235d6:	0000                	.insn	2, 0x0000
    420235d8:	107298cf          	fnmadd.s	f17,f5,f7,f2,rtz
    420235dc:	0000                	.insn	2, 0x0000
    420235de:	0000                	.insn	2, 0x0000
    420235e0:	10729ccf          	fnmadd.s	f25,f5,f7,f2,rtz
    420235e4:	0000                	.insn	2, 0x0000
    420235e6:	0000                	.insn	2, 0x0000
    420235e8:	1072a0cf          	fnmadd.s	f1,f5,f7,f2,rdn
    420235ec:	0000                	.insn	2, 0x0000
    420235ee:	0000                	.insn	2, 0x0000
    420235f0:	1072a4cf          	fnmadd.s	f9,f5,f7,f2,rdn
    420235f4:	0000                	.insn	2, 0x0000
    420235f6:	0000                	.insn	2, 0x0000
    420235f8:	1072a8cf          	fnmadd.s	f17,f5,f7,f2,rdn
    420235fc:	0000                	.insn	2, 0x0000
    420235fe:	0000                	.insn	2, 0x0000
    42023600:	1072accf          	fnmadd.s	f25,f5,f7,f2,rdn
    42023604:	0000                	.insn	2, 0x0000
    42023606:	0000                	.insn	2, 0x0000
    42023608:	1072b0cf          	fnmadd.s	f1,f5,f7,f2,rup
    4202360c:	0000                	.insn	2, 0x0000
    4202360e:	0000                	.insn	2, 0x0000
    42023610:	1072b4cf          	fnmadd.s	f9,f5,f7,f2,rup
    42023614:	0000                	.insn	2, 0x0000
    42023616:	0000                	.insn	2, 0x0000
    42023618:	1072b8cf          	fnmadd.s	f17,f5,f7,f2,rup
    4202361c:	0000                	.insn	2, 0x0000
    4202361e:	0000                	.insn	2, 0x0000
    42023620:	1072bccf          	fnmadd.s	f25,f5,f7,f2,rup
    42023624:	0000                	.insn	2, 0x0000
    42023626:	0000                	.insn	2, 0x0000
    42023628:	1072c0cf          	fnmadd.s	f1,f5,f7,f2,rmm
    4202362c:	0000                	.insn	2, 0x0000
    4202362e:	0000                	.insn	2, 0x0000
    42023630:	1072c4cf          	fnmadd.s	f9,f5,f7,f2,rmm
    42023634:	0000                	.insn	2, 0x0000
    42023636:	0000                	.insn	2, 0x0000
    42023638:	1072c8cf          	fnmadd.s	f17,f5,f7,f2,rmm
    4202363c:	0000                	.insn	2, 0x0000
    4202363e:	0000                	.insn	2, 0x0000
    42023640:	1072cccf          	fnmadd.s	f25,f5,f7,f2,rmm
    42023644:	0000                	.insn	2, 0x0000
    42023646:	0000                	.insn	2, 0x0000
    42023648:	1072d0cf          	fnmadd.s	f1,f5,f7,f2,unknown
    4202364c:	0000                	.insn	2, 0x0000
    4202364e:	0000                	.insn	2, 0x0000
    42023650:	1072d4cf          	fnmadd.s	f9,f5,f7,f2,unknown
    42023654:	0000                	.insn	2, 0x0000
    42023656:	0000                	.insn	2, 0x0000
    42023658:	1072d8cf          	fnmadd.s	f17,f5,f7,f2,unknown
    4202365c:	0000                	.insn	2, 0x0000
    4202365e:	0000                	.insn	2, 0x0000
    42023660:	1072dccf          	fnmadd.s	f25,f5,f7,f2,unknown
    42023664:	0000                	.insn	2, 0x0000
    42023666:	0000                	.insn	2, 0x0000
    42023668:	1072e0cf          	fnmadd.s	f1,f5,f7,f2,unknown
    4202366c:	0000                	.insn	2, 0x0000
    4202366e:	0000                	.insn	2, 0x0000
    42023670:	1072e4cf          	fnmadd.s	f9,f5,f7,f2,unknown
    42023674:	0000                	.insn	2, 0x0000
    42023676:	0000                	.insn	2, 0x0000
    42023678:	1072e8cf          	fnmadd.s	f17,f5,f7,f2,unknown
    4202367c:	0000                	.insn	2, 0x0000
    4202367e:	0000                	.insn	2, 0x0000
    42023680:	1072eccf          	fnmadd.s	f25,f5,f7,f2,unknown
    42023684:	0000                	.insn	2, 0x0000
    42023686:	0000                	.insn	2, 0x0000
    42023688:	1072f0cf          	fnmadd.s	f1,f5,f7,f2
    4202368c:	0000                	.insn	2, 0x0000
    4202368e:	0000                	.insn	2, 0x0000
    42023690:	1072f4cf          	fnmadd.s	f9,f5,f7,f2
    42023694:	0000                	.insn	2, 0x0000
    42023696:	0000                	.insn	2, 0x0000
    42023698:	1072f8cf          	fnmadd.s	f17,f5,f7,f2
    4202369c:	0000                	.insn	2, 0x0000
    4202369e:	0000                	.insn	2, 0x0000
    420236a0:	1072fccf          	fnmadd.s	f25,f5,f7,f2
    420236a4:	0000                	.insn	2, 0x0000
    420236a6:	0000                	.insn	2, 0x0000
    420236a8:	107300cf          	fnmadd.s	f1,f6,f7,f2,rne
    420236ac:	0000                	.insn	2, 0x0000
    420236ae:	0000                	.insn	2, 0x0000
    420236b0:	107304cf          	fnmadd.s	f9,f6,f7,f2,rne
    420236b4:	0000                	.insn	2, 0x0000
    420236b6:	0000                	.insn	2, 0x0000
    420236b8:	107308cf          	fnmadd.s	f17,f6,f7,f2,rne
    420236bc:	0000                	.insn	2, 0x0000
    420236be:	0000                	.insn	2, 0x0000
    420236c0:	10730ccf          	fnmadd.s	f25,f6,f7,f2,rne
    420236c4:	0000                	.insn	2, 0x0000
    420236c6:	0000                	.insn	2, 0x0000
    420236c8:	107310cf          	fnmadd.s	f1,f6,f7,f2,rtz
    420236cc:	0000                	.insn	2, 0x0000
    420236ce:	0000                	.insn	2, 0x0000
    420236d0:	107314cf          	fnmadd.s	f9,f6,f7,f2,rtz
    420236d4:	0000                	.insn	2, 0x0000
    420236d6:	0000                	.insn	2, 0x0000
    420236d8:	107318cf          	fnmadd.s	f17,f6,f7,f2,rtz
    420236dc:	0000                	.insn	2, 0x0000
    420236de:	0000                	.insn	2, 0x0000
    420236e0:	10731ccf          	fnmadd.s	f25,f6,f7,f2,rtz
    420236e4:	0000                	.insn	2, 0x0000
    420236e6:	0000                	.insn	2, 0x0000
    420236e8:	107320cf          	fnmadd.s	f1,f6,f7,f2,rdn
    420236ec:	0000                	.insn	2, 0x0000
    420236ee:	0000                	.insn	2, 0x0000
    420236f0:	107324cf          	fnmadd.s	f9,f6,f7,f2,rdn
    420236f4:	0000                	.insn	2, 0x0000
    420236f6:	0000                	.insn	2, 0x0000
    420236f8:	107328cf          	fnmadd.s	f17,f6,f7,f2,rdn
    420236fc:	0000                	.insn	2, 0x0000
    420236fe:	0000                	.insn	2, 0x0000
    42023700:	10732ccf          	fnmadd.s	f25,f6,f7,f2,rdn
    42023704:	0000                	.insn	2, 0x0000
    42023706:	0000                	.insn	2, 0x0000
    42023708:	107330cf          	fnmadd.s	f1,f6,f7,f2,rup
    4202370c:	0000                	.insn	2, 0x0000
    4202370e:	0000                	.insn	2, 0x0000
    42023710:	107334cf          	fnmadd.s	f9,f6,f7,f2,rup
    42023714:	0000                	.insn	2, 0x0000
    42023716:	0000                	.insn	2, 0x0000
    42023718:	107338cf          	fnmadd.s	f17,f6,f7,f2,rup
    4202371c:	0000                	.insn	2, 0x0000
    4202371e:	0000                	.insn	2, 0x0000
    42023720:	10733ccf          	fnmadd.s	f25,f6,f7,f2,rup
    42023724:	0000                	.insn	2, 0x0000
    42023726:	0000                	.insn	2, 0x0000
    42023728:	107340cf          	fnmadd.s	f1,f6,f7,f2,rmm
    4202372c:	0000                	.insn	2, 0x0000
    4202372e:	0000                	.insn	2, 0x0000
    42023730:	107344cf          	fnmadd.s	f9,f6,f7,f2,rmm
    42023734:	0000                	.insn	2, 0x0000
    42023736:	0000                	.insn	2, 0x0000
    42023738:	107348cf          	fnmadd.s	f17,f6,f7,f2,rmm
    4202373c:	0000                	.insn	2, 0x0000
    4202373e:	0000                	.insn	2, 0x0000
    42023740:	10734ccf          	fnmadd.s	f25,f6,f7,f2,rmm
    42023744:	0000                	.insn	2, 0x0000
    42023746:	0000                	.insn	2, 0x0000
    42023748:	107350cf          	fnmadd.s	f1,f6,f7,f2,unknown
    4202374c:	0000                	.insn	2, 0x0000
    4202374e:	0000                	.insn	2, 0x0000
    42023750:	107354cf          	fnmadd.s	f9,f6,f7,f2,unknown
    42023754:	0000                	.insn	2, 0x0000
    42023756:	0000                	.insn	2, 0x0000
    42023758:	107358cf          	fnmadd.s	f17,f6,f7,f2,unknown
    4202375c:	0000                	.insn	2, 0x0000
    4202375e:	0000                	.insn	2, 0x0000
    42023760:	10735ccf          	fnmadd.s	f25,f6,f7,f2,unknown
    42023764:	0000                	.insn	2, 0x0000
    42023766:	0000                	.insn	2, 0x0000
    42023768:	107360cf          	fnmadd.s	f1,f6,f7,f2,unknown
    4202376c:	0000                	.insn	2, 0x0000
    4202376e:	0000                	.insn	2, 0x0000
    42023770:	107364cf          	fnmadd.s	f9,f6,f7,f2,unknown
    42023774:	0000                	.insn	2, 0x0000
    42023776:	0000                	.insn	2, 0x0000
    42023778:	107368cf          	fnmadd.s	f17,f6,f7,f2,unknown
    4202377c:	0000                	.insn	2, 0x0000
    4202377e:	0000                	.insn	2, 0x0000
    42023780:	10736ccf          	fnmadd.s	f25,f6,f7,f2,unknown
    42023784:	0000                	.insn	2, 0x0000
    42023786:	0000                	.insn	2, 0x0000
    42023788:	107370cf          	fnmadd.s	f1,f6,f7,f2
    4202378c:	0000                	.insn	2, 0x0000
    4202378e:	0000                	.insn	2, 0x0000
    42023790:	107374cf          	fnmadd.s	f9,f6,f7,f2
    42023794:	0000                	.insn	2, 0x0000
    42023796:	0000                	.insn	2, 0x0000
    42023798:	107378cf          	fnmadd.s	f17,f6,f7,f2
    4202379c:	0000                	.insn	2, 0x0000
    4202379e:	0000                	.insn	2, 0x0000
    420237a0:	10737ccf          	fnmadd.s	f25,f6,f7,f2
    420237a4:	0000                	.insn	2, 0x0000
    420237a6:	0000                	.insn	2, 0x0000
    420237a8:	107380cf          	fnmadd.s	f1,f7,f7,f2,rne
    420237ac:	0000                	.insn	2, 0x0000
    420237ae:	0000                	.insn	2, 0x0000
    420237b0:	107384cf          	fnmadd.s	f9,f7,f7,f2,rne
    420237b4:	0000                	.insn	2, 0x0000
    420237b6:	0000                	.insn	2, 0x0000
    420237b8:	107388cf          	fnmadd.s	f17,f7,f7,f2,rne
    420237bc:	0000                	.insn	2, 0x0000
    420237be:	0000                	.insn	2, 0x0000
    420237c0:	10738ccf          	fnmadd.s	f25,f7,f7,f2,rne
    420237c4:	0000                	.insn	2, 0x0000
    420237c6:	0000                	.insn	2, 0x0000
    420237c8:	107390cf          	fnmadd.s	f1,f7,f7,f2,rtz
    420237cc:	0000                	.insn	2, 0x0000
    420237ce:	0000                	.insn	2, 0x0000
    420237d0:	107394cf          	fnmadd.s	f9,f7,f7,f2,rtz
    420237d4:	0000                	.insn	2, 0x0000
    420237d6:	0000                	.insn	2, 0x0000
    420237d8:	107398cf          	fnmadd.s	f17,f7,f7,f2,rtz
    420237dc:	0000                	.insn	2, 0x0000
    420237de:	0000                	.insn	2, 0x0000
    420237e0:	10739ccf          	fnmadd.s	f25,f7,f7,f2,rtz
    420237e4:	0000                	.insn	2, 0x0000
    420237e6:	0000                	.insn	2, 0x0000
    420237e8:	1073a0cf          	fnmadd.s	f1,f7,f7,f2,rdn
    420237ec:	0000                	.insn	2, 0x0000
    420237ee:	0000                	.insn	2, 0x0000
    420237f0:	1073a4cf          	fnmadd.s	f9,f7,f7,f2,rdn
    420237f4:	0000                	.insn	2, 0x0000
    420237f6:	0000                	.insn	2, 0x0000
    420237f8:	1073a8cf          	fnmadd.s	f17,f7,f7,f2,rdn
    420237fc:	0000                	.insn	2, 0x0000
    420237fe:	0000                	.insn	2, 0x0000
    42023800:	1073accf          	fnmadd.s	f25,f7,f7,f2,rdn
    42023804:	0000                	.insn	2, 0x0000
    42023806:	0000                	.insn	2, 0x0000
    42023808:	1073b0cf          	fnmadd.s	f1,f7,f7,f2,rup
    4202380c:	0000                	.insn	2, 0x0000
    4202380e:	0000                	.insn	2, 0x0000
    42023810:	1073b4cf          	fnmadd.s	f9,f7,f7,f2,rup
    42023814:	0000                	.insn	2, 0x0000
    42023816:	0000                	.insn	2, 0x0000
    42023818:	1073b8cf          	fnmadd.s	f17,f7,f7,f2,rup
    4202381c:	0000                	.insn	2, 0x0000
    4202381e:	0000                	.insn	2, 0x0000
    42023820:	1073bccf          	fnmadd.s	f25,f7,f7,f2,rup
    42023824:	0000                	.insn	2, 0x0000
    42023826:	0000                	.insn	2, 0x0000
    42023828:	1073c0cf          	fnmadd.s	f1,f7,f7,f2,rmm
    4202382c:	0000                	.insn	2, 0x0000
    4202382e:	0000                	.insn	2, 0x0000
    42023830:	1073c4cf          	fnmadd.s	f9,f7,f7,f2,rmm
    42023834:	0000                	.insn	2, 0x0000
    42023836:	0000                	.insn	2, 0x0000
    42023838:	1073c8cf          	fnmadd.s	f17,f7,f7,f2,rmm
    4202383c:	0000                	.insn	2, 0x0000
    4202383e:	0000                	.insn	2, 0x0000
    42023840:	1073cccf          	fnmadd.s	f25,f7,f7,f2,rmm
    42023844:	0000                	.insn	2, 0x0000
    42023846:	0000                	.insn	2, 0x0000
    42023848:	1073d0cf          	fnmadd.s	f1,f7,f7,f2,unknown
    4202384c:	0000                	.insn	2, 0x0000
    4202384e:	0000                	.insn	2, 0x0000
    42023850:	1073d4cf          	fnmadd.s	f9,f7,f7,f2,unknown
    42023854:	0000                	.insn	2, 0x0000
    42023856:	0000                	.insn	2, 0x0000
    42023858:	1073d8cf          	fnmadd.s	f17,f7,f7,f2,unknown
    4202385c:	0000                	.insn	2, 0x0000
    4202385e:	0000                	.insn	2, 0x0000
    42023860:	1073dccf          	fnmadd.s	f25,f7,f7,f2,unknown
    42023864:	0000                	.insn	2, 0x0000
    42023866:	0000                	.insn	2, 0x0000
    42023868:	1073e0cf          	fnmadd.s	f1,f7,f7,f2,unknown
    4202386c:	0000                	.insn	2, 0x0000
    4202386e:	0000                	.insn	2, 0x0000
    42023870:	1073e4cf          	fnmadd.s	f9,f7,f7,f2,unknown
    42023874:	0000                	.insn	2, 0x0000
    42023876:	0000                	.insn	2, 0x0000
    42023878:	1073e8cf          	fnmadd.s	f17,f7,f7,f2,unknown
    4202387c:	0000                	.insn	2, 0x0000
    4202387e:	0000                	.insn	2, 0x0000
    42023880:	1073eccf          	fnmadd.s	f25,f7,f7,f2,unknown
    42023884:	0000                	.insn	2, 0x0000
    42023886:	0000                	.insn	2, 0x0000
    42023888:	1073f0cf          	fnmadd.s	f1,f7,f7,f2
    4202388c:	0000                	.insn	2, 0x0000
    4202388e:	0000                	.insn	2, 0x0000
    42023890:	1073f4cf          	fnmadd.s	f9,f7,f7,f2
    42023894:	0000                	.insn	2, 0x0000
    42023896:	0000                	.insn	2, 0x0000
    42023898:	1073f8cf          	fnmadd.s	f17,f7,f7,f2
    4202389c:	0000                	.insn	2, 0x0000
    4202389e:	0000                	.insn	2, 0x0000
    420238a0:	1073fccf          	fnmadd.s	f25,f7,f7,f2
    420238a4:	0000                	.insn	2, 0x0000
    420238a6:	0000                	.insn	2, 0x0000
    420238a8:	00df 1074 0000      	.insn	6, 0x107400df
    420238ae:	0000                	.insn	2, 0x0000
    420238b0:	04df 1074 0000      	.insn	6, 0x107404df
    420238b6:	0000                	.insn	2, 0x0000
    420238b8:	08df 1074 0000      	.insn	6, 0x107408df
    420238be:	0000                	.insn	2, 0x0000
    420238c0:	0cdf 1074 0000      	.insn	6, 0x10740cdf
    420238c6:	0000                	.insn	2, 0x0000
    420238c8:	10df 1074 0000      	.insn	6, 0x107410df
    420238ce:	0000                	.insn	2, 0x0000
    420238d0:	14df 1074 0000      	.insn	6, 0x107414df
    420238d6:	0000                	.insn	2, 0x0000
    420238d8:	18df 1074 0000      	.insn	6, 0x107418df
    420238de:	0000                	.insn	2, 0x0000
    420238e0:	1cdf 1074 0000      	.insn	6, 0x10741cdf
    420238e6:	0000                	.insn	2, 0x0000
    420238e8:	20df 1074 0000      	.insn	6, 0x107420df
    420238ee:	0000                	.insn	2, 0x0000
    420238f0:	24df 1074 0000      	.insn	6, 0x107424df
    420238f6:	0000                	.insn	2, 0x0000
    420238f8:	28df 1074 0000      	.insn	6, 0x107428df
    420238fe:	0000                	.insn	2, 0x0000
    42023900:	2cdf 1074 0000      	.insn	6, 0x10742cdf
    42023906:	0000                	.insn	2, 0x0000
