
/home/abdullah/RiescueC/riescue/10x_R/svnapot/testsuite/svnapot/super_sv57/tp_svnapot_1:     file format elf64-littleriscv


Disassembly of section .runtime:

0000000041000000 <_start>:
    41000000:	00000093          	li	x1,0
    41000004:	00000113          	li	x2,0
    41000008:	00000193          	li	x3,0
    4100000c:	00000213          	li	x4,0
    41000010:	00000293          	li	x5,0
    41000014:	00000313          	li	x6,0
    41000018:	00000393          	li	x7,0
    4100001c:	00000413          	li	x8,0
    41000020:	00000493          	li	x9,0
    41000024:	00000513          	li	x10,0
    41000028:	00000593          	li	x11,0
    4100002c:	00000613          	li	x12,0
    41000030:	00000693          	li	x13,0
    41000034:	00000713          	li	x14,0
    41000038:	00000793          	li	x15,0
    4100003c:	00000813          	li	x16,0
    41000040:	00000893          	li	x17,0
    41000044:	00000913          	li	x18,0
    41000048:	00000993          	li	x19,0
    4100004c:	00000a13          	li	x20,0
    41000050:	00000a93          	li	x21,0
    41000054:	00000b13          	li	x22,0
    41000058:	00000b93          	li	x23,0
    4100005c:	00000c13          	li	x24,0
    41000060:	00000c93          	li	x25,0
    41000064:	00000d13          	li	x26,0
    41000068:	00000d93          	li	x27,0
    4100006c:	00000e13          	li	x28,0
    41000070:	00000e93          	li	x29,0
    41000074:	00000f13          	li	x30,0
    41000078:	00000f93          	li	x31,0

000000004100007c <loader__load_panic_address>:
    4100007c:	00001297          	auipc	x5,0x1
    41000080:	9b828293          	addi	x5,x5,-1608 # 41000a34 <eot__failed>
    41000084:	30529073          	csrw	mtvec,x5

0000000041000088 <loader__initialize_runtime>:
    41000088:	00000293          	li	x5,0
    4100008c:	3012a2f3          	csrrs	x5,misa,x5

0000000041000090 <loader__set_mstatus>:
    41000090:	000402b7          	lui	x5,0x40
    41000094:	00a2829b          	addiw	x5,x5,10 # 4000a <pma_region_0_size+0xa>
    41000098:	3002a2f3          	csrrs	x5,mstatus,x5
    4100009c:	44616237          	lui	x4,0x44616
    410000a0:	34021073          	csrw	mscratch,x4

00000000410000a4 <loader__setup_menvcfg>:
    410000a4:	00000297          	auipc	x5,0x0
    410000a8:	47c28293          	addi	x5,x5,1148 # 41000520 <trap_handler_m__trap_entry>
    410000ac:	30529073          	csrw	mtvec,x5

00000000410000b0 <loader__enable_paging>:
    410000b0:	fffd00b7          	lui	x1,0xfffd0
    410000b4:	0c30809b          	addiw	x1,x1,195 # fffffffffffd00c3 <mem11+0x93fffffffd00c3>
    410000b8:	02009093          	slli	x1,x1,0x20
    410000bc:	02108093          	addi	x1,x1,33
    410000c0:	00d09093          	slli	x1,x1,0xd
    410000c4:	17e08093          	addi	x1,x1,382
    410000c8:	18009073          	csrw	satp,x1

00000000410000cc <loader__done>:
    410000cc:	1910006f          	j	41000a5c <scheduler__init>

00000000410000d0 <loader__panic>:
    410000d0:	1650006f          	j	41000a34 <eot__failed>

00000000410000d4 <syscalls__syscall_check_schedule_next_test>:
    410000d4:	00f0029b          	addiw	x5,x0,15
    410000d8:	01c29293          	slli	x5,x5,0x1c
    410000dc:	00128293          	addi	x5,x5,1
    410000e0:	01f29a63          	bne	x5,x31,410000f4 <syscalls__syscall_check_fail_test>
    410000e4:	00000317          	auipc	x6,0x0
    410000e8:	43c30313          	addi	x6,x6,1084 # 41000520 <trap_handler_m__trap_entry>
    410000ec:	30531073          	csrw	mtvec,x6
    410000f0:	6740006f          	j	41000764 <enter_scheduler>

00000000410000f4 <syscalls__syscall_check_fail_test>:
    410000f4:	00f0029b          	addiw	x5,x0,15
    410000f8:	01c29293          	slli	x5,x5,0x1c
    410000fc:	00228293          	addi	x5,x5,2
    41000100:	01f29a63          	bne	x5,x31,41000114 <syscalls__syscall_check_end_test_without_failure>
    41000104:	00000317          	auipc	x6,0x0
    41000108:	41c30313          	addi	x6,x6,1052 # 41000520 <trap_handler_m__trap_entry>
    4100010c:	30531073          	csrw	mtvec,x6
    41000110:	6840006f          	j	41000794 <test_failed>

0000000041000114 <syscalls__syscall_check_end_test_without_failure>:
    41000114:	00f0029b          	addiw	x5,x0,15
    41000118:	01c29293          	slli	x5,x5,0x1c
    4100011c:	00328293          	addi	x5,x5,3
    41000120:	01f29a63          	bne	x5,x31,41000134 <syscalls__syscall_check_switch_machine_mode>
    41000124:	00000317          	auipc	x6,0x0
    41000128:	3fc30313          	addi	x6,x6,1020 # 41000520 <trap_handler_m__trap_entry>
    4100012c:	30531073          	csrw	mtvec,x6
    41000130:	6700006f          	j	410007a0 <os_end_test>

0000000041000134 <syscalls__syscall_check_switch_machine_mode>:
    41000134:	000f02b7          	lui	x5,0xf0
    41000138:	0012829b          	addiw	x5,x5,1 # f0001 <mem7__pt_level3+0x5001>
    4100013c:	00c29293          	slli	x5,x5,0xc
    41000140:	00128293          	addi	x5,x5,1
    41000144:	0a5f8463          	beq	x31,x5,410001ec <syscalls__os_fn_f0001001>

0000000041000148 <syscalls__syscall_check_switch_super_mode>:
    41000148:	000f02b7          	lui	x5,0xf0
    4100014c:	0012829b          	addiw	x5,x5,1 # f0001 <mem7__pt_level3+0x5001>
    41000150:	00c29293          	slli	x5,x5,0xc
    41000154:	00228293          	addi	x5,x5,2
    41000158:	0c5f8063          	beq	x31,x5,41000218 <syscalls__os_fn_f0001002>

000000004100015c <syscalls__syscall_check_switch_user_mode>:
    4100015c:	000f02b7          	lui	x5,0xf0
    41000160:	0012829b          	addiw	x5,x5,1 # f0001 <mem7__pt_level3+0x5001>
    41000164:	00c29293          	slli	x5,x5,0xc
    41000168:	00328293          	addi	x5,x5,3
    4100016c:	0a5f8a63          	beq	x31,x5,41000220 <syscalls__os_fn_f0001003>

0000000041000170 <syscalls__syscall_check_switch_test_mode>:
    41000170:	000f02b7          	lui	x5,0xf0
    41000174:	0012829b          	addiw	x5,x5,1 # f0001 <mem7__pt_level3+0x5001>
    41000178:	00c29293          	slli	x5,x5,0xc
    4100017c:	00428293          	addi	x5,x5,4
    41000180:	0c5f8463          	beq	x31,x5,41000248 <syscalls__os_fn_f0001004>

0000000041000184 <syscalls__syscall_machine_csr_rw>:
    41000184:	000f02b7          	lui	x5,0xf0
    41000188:	0012829b          	addiw	x5,x5,1 # f0001 <mem7__pt_level3+0x5001>
    4100018c:	00c29293          	slli	x5,x5,0xc
    41000190:	00528293          	addi	x5,x5,5
    41000194:	0e5f8063          	beq	x31,x5,41000274 <syscalls__os_fn_f0001005>

0000000041000198 <syscalls__syscall_supervisor_csr_rw>:
    41000198:	000f02b7          	lui	x5,0xf0
    4100019c:	0012829b          	addiw	x5,x5,1 # f0001 <mem7__pt_level3+0x5001>
    410001a0:	00c29293          	slli	x5,x5,0xc
    410001a4:	00628293          	addi	x5,x5,6
    410001a8:	0e5f8c63          	beq	x31,x5,410002a0 <syscalls__os_fn_f0001006>

00000000410001ac <syscalls__syscall_machine_pte_read>:
    410001ac:	000f02b7          	lui	x5,0xf0
    410001b0:	0012829b          	addiw	x5,x5,1 # f0001 <mem7__pt_level3+0x5001>
    410001b4:	00c29293          	slli	x5,x5,0xc
    410001b8:	00728293          	addi	x5,x5,7
    410001bc:	0e5f8663          	beq	x31,x5,410002a8 <syscalls__os_fn_f0001007>

00000000410001c0 <syscalls__syscall_machine_pte_write>:
    410001c0:	000f02b7          	lui	x5,0xf0
    410001c4:	0012829b          	addiw	x5,x5,1 # f0001 <mem7__pt_level3+0x5001>
    410001c8:	00c29293          	slli	x5,x5,0xc
    410001cc:	00828293          	addi	x5,x5,8
    410001d0:	1c5f8263          	beq	x31,x5,41000394 <syscalls__os_fn_f0001008>

00000000410001d4 <syscalls__syscall_check_get_hart_context>:
    410001d4:	000782b7          	lui	x5,0x78
    410001d8:	0012829b          	addiw	x5,x5,1 # 78001 <SID_SVNAPOT_02_STORE_stack+0x17001>
    410001dc:	00d29293          	slli	x5,x5,0xd
    410001e0:	00128293          	addi	x5,x5,1
    410001e4:	285f8e63          	beq	x31,x5,41000480 <syscalls__os_get_hart_context>
    410001e8:	4940006f          	j	4100067c <trap_handler_m__check_exception_label>

00000000410001ec <syscalls__os_fn_f0001001>:
    410001ec:	000022b7          	lui	x5,0x2
    410001f0:	8002829b          	addiw	x5,x5,-2048 # 1800 <mem1__pt_level1+0x800>
    410001f4:	3002b073          	csrc	mstatus,x5
    410001f8:	000022b7          	lui	x5,0x2
    410001fc:	8002829b          	addiw	x5,x5,-2048 # 1800 <mem1__pt_level1+0x800>
    41000200:	3002a073          	csrs	mstatus,x5
    41000204:	0010029b          	addiw	x5,x0,1
    41000208:	02729293          	slli	x5,x5,0x27
    4100020c:	3002b073          	csrc	mstatus,x5
    41000210:	411942b7          	lui	x5,0x41194
    41000214:	27c0006f          	j	41000490 <syscalls__ret_from_os_fn>

0000000041000218 <syscalls__os_fn_f0001002>:
    41000218:	410942b7          	lui	x5,0x41094
    4100021c:	2740006f          	j	41000490 <syscalls__ret_from_os_fn>

0000000041000220 <syscalls__os_fn_f0001003>:
    41000220:	000022b7          	lui	x5,0x2
    41000224:	8002829b          	addiw	x5,x5,-2048 # 1800 <mem1__pt_level1+0x800>
    41000228:	3002b073          	csrc	mstatus,x5
    4100022c:	00000293          	li	x5,0
    41000230:	3002a073          	csrs	mstatus,x5
    41000234:	0010029b          	addiw	x5,x0,1
    41000238:	02729293          	slli	x5,x5,0x27
    4100023c:	3002b073          	csrc	mstatus,x5
    41000240:	411142b7          	lui	x5,0x41114
    41000244:	24c0006f          	j	41000490 <syscalls__ret_from_os_fn>

0000000041000248 <syscalls__os_fn_f0001004>:
    41000248:	000022b7          	lui	x5,0x2
    4100024c:	8002829b          	addiw	x5,x5,-2048 # 1800 <mem1__pt_level1+0x800>
    41000250:	3002b073          	csrc	mstatus,x5
    41000254:	000012b7          	lui	x5,0x1
    41000258:	8002829b          	addiw	x5,x5,-2048 # 800 <XLEN+0x7c0>
    4100025c:	3002a073          	csrs	mstatus,x5
    41000260:	0010029b          	addiw	x5,x0,1
    41000264:	02729293          	slli	x5,x5,0x27
    41000268:	3002b073          	csrc	mstatus,x5
    4100026c:	17823283          	ld	x5,376(x4) # 44616178 <__section_hart_context+0x178>
    41000270:	2200006f          	j	41000490 <syscalls__ret_from_os_fn>

0000000041000274 <syscalls__os_fn_f0001005>:
    41000274:	000022b7          	lui	x5,0x2
    41000278:	8002829b          	addiw	x5,x5,-2048 # 1800 <mem1__pt_level1+0x800>
    4100027c:	3002b073          	csrc	mstatus,x5
    41000280:	000022b7          	lui	x5,0x2
    41000284:	8002829b          	addiw	x5,x5,-2048 # 1800 <mem1__pt_level1+0x800>
    41000288:	3002a073          	csrs	mstatus,x5
    4100028c:	0010029b          	addiw	x5,x0,1
    41000290:	02729293          	slli	x5,x5,0x27
    41000294:	3002b073          	csrc	mstatus,x5
    41000298:	412142b7          	lui	x5,0x41214
    4100029c:	1f40006f          	j	41000490 <syscalls__ret_from_os_fn>

00000000410002a0 <syscalls__os_fn_f0001006>:
    410002a0:	412152b7          	lui	x5,0x41215
    410002a4:	1ec0006f          	j	41000490 <syscalls__ret_from_os_fn>

00000000410002a8 <syscalls__os_fn_f0001007>:
    410002a8:	42b46fb7          	lui	x31,0x42b46
    410002ac:	0b0f8f9b          	addiw	x31,x31,176 # 42b460b0 <pte_access_flags_pa>
    410002b0:	000fbf83          	ld	x31,0(x31)
    410002b4:	42b462b7          	lui	x5,0x42b46
    410002b8:	0b82829b          	addiw	x5,x5,184 # 42b460b8 <pte_access_flags_pa+0x8>
    410002bc:	0002b283          	ld	x5,0(x5)
    410002c0:	42b46e37          	lui	x28,0x42b46
    410002c4:	0c0e0e1b          	addiw	x28,x28,192 # 42b460c0 <pte_access_flags_pa+0x10>
    410002c8:	000e3e03          	ld	x28,0(x28)

00000000410002cc <syscalls__pte_walk_check_glevel_without_gstage_read>:
    410002cc:	fff00f93          	li	x31,-1
    410002d0:	0dfe1063          	bne	x28,x31,41000390 <syscalls__pte_walk_fail_read>
    410002d4:	18002373          	csrr	x6,satp
    410002d8:	03c35e93          	srli	x29,x6,0x3c
    410002dc:	01431313          	slli	x6,x6,0x14
    410002e0:	01435313          	srli	x6,x6,0x14
    410002e4:	00c31313          	slli	x6,x6,0xc
    410002e8:	ff8e8e93          	addi	x29,x29,-8
    410002ec:	003e9f13          	slli	x30,x29,0x3
    410002f0:	01df0eb3          	add	x29,x30,x29
    410002f4:	01ee8e93          	addi	x29,x29,30
    410002f8:	00000f13          	li	x30,0

00000000410002fc <syscalls__pte_walk_loop_read>:
    410002fc:	42b46fb7          	lui	x31,0x42b46
    41000300:	0b0f8f9b          	addiw	x31,x31,176 # 42b460b0 <pte_access_flags_pa>
    41000304:	000fbf83          	ld	x31,0(x31)
    41000308:	01dfdfb3          	srl	x31,x31,x29
    4100030c:	1fffff93          	andi	x31,x31,511
    41000310:	003f9f93          	slli	x31,x31,0x3
    41000314:	01f30333          	add	x6,x6,x31
    41000318:	005f0e63          	beq	x30,x5,41000334 <syscalls__pte_walk_done_read>
    4100031c:	00033f83          	ld	x31,0(x6)
    41000320:	00afdf93          	srli	x31,x31,0xa
    41000324:	00cf9313          	slli	x6,x31,0xc
    41000328:	001f0f13          	addi	x30,x30,1
    4100032c:	ff7e8e93          	addi	x29,x29,-9
    41000330:	fcdff06f          	j	410002fc <syscalls__pte_walk_loop_read>

0000000041000334 <syscalls__pte_walk_done_read>:
    41000334:	fff00f93          	li	x31,-1
    41000338:	05fe0263          	beq	x28,x31,4100037c <syscalls__pte_walk_final_read>

000000004100033c <syscalls__pte_walk_gstage_read>:
    4100033c:	42b46fb7          	lui	x31,0x42b46
    41000340:	0b0f8f9b          	addiw	x31,x31,176 # 42b460b0 <pte_access_flags_pa>
    41000344:	006fb023          	sd	x6,0(x31)
    41000348:	000e0293          	mv	x5,x28
    4100034c:	fff00e13          	li	x28,-1
    41000350:	68002373          	csrr	x6,hgatp
    41000354:	03c35e93          	srli	x29,x6,0x3c
    41000358:	01431313          	slli	x6,x6,0x14
    4100035c:	01435313          	srli	x6,x6,0x14
    41000360:	00c31313          	slli	x6,x6,0xc
    41000364:	ff8e8e93          	addi	x29,x29,-8
    41000368:	003e9f13          	slli	x30,x29,0x3
    4100036c:	01df0eb3          	add	x29,x30,x29
    41000370:	01ee8e93          	addi	x29,x29,30
    41000374:	00000f13          	li	x30,0
    41000378:	f85ff06f          	j	410002fc <syscalls__pte_walk_loop_read>

000000004100037c <syscalls__pte_walk_final_read>:
    4100037c:	00033383          	ld	x7,0(x6)
    41000380:	341022f3          	csrr	x5,mepc
    41000384:	00428293          	addi	x5,x5,4
    41000388:	16523c23          	sd	x5,376(x4) # 178 <XLEN+0x138>
    4100038c:	ebdff06f          	j	41000248 <syscalls__os_fn_f0001004>

0000000041000390 <syscalls__pte_walk_fail_read>:
    41000390:	4040006f          	j	41000794 <test_failed>

0000000041000394 <syscalls__os_fn_f0001008>:
    41000394:	42b46fb7          	lui	x31,0x42b46
    41000398:	0b0f8f9b          	addiw	x31,x31,176 # 42b460b0 <pte_access_flags_pa>
    4100039c:	000fbf83          	ld	x31,0(x31)
    410003a0:	42b462b7          	lui	x5,0x42b46
    410003a4:	0b82829b          	addiw	x5,x5,184 # 42b460b8 <pte_access_flags_pa+0x8>
    410003a8:	0002b283          	ld	x5,0(x5)
    410003ac:	42b46e37          	lui	x28,0x42b46
    410003b0:	0c0e0e1b          	addiw	x28,x28,192 # 42b460c0 <pte_access_flags_pa+0x10>
    410003b4:	000e3e03          	ld	x28,0(x28)

00000000410003b8 <syscalls__pte_walk_check_glevel_without_gstage_write>:
    410003b8:	fff00f93          	li	x31,-1
    410003bc:	0dfe1063          	bne	x28,x31,4100047c <syscalls__pte_walk_fail_write>
    410003c0:	18002373          	csrr	x6,satp
    410003c4:	03c35e93          	srli	x29,x6,0x3c
    410003c8:	01431313          	slli	x6,x6,0x14
    410003cc:	01435313          	srli	x6,x6,0x14
    410003d0:	00c31313          	slli	x6,x6,0xc
    410003d4:	ff8e8e93          	addi	x29,x29,-8
    410003d8:	003e9f13          	slli	x30,x29,0x3
    410003dc:	01df0eb3          	add	x29,x30,x29
    410003e0:	01ee8e93          	addi	x29,x29,30
    410003e4:	00000f13          	li	x30,0

00000000410003e8 <syscalls__pte_walk_loop_write>:
    410003e8:	42b46fb7          	lui	x31,0x42b46
    410003ec:	0b0f8f9b          	addiw	x31,x31,176 # 42b460b0 <pte_access_flags_pa>
    410003f0:	000fbf83          	ld	x31,0(x31)
    410003f4:	01dfdfb3          	srl	x31,x31,x29
    410003f8:	1fffff93          	andi	x31,x31,511
    410003fc:	003f9f93          	slli	x31,x31,0x3
    41000400:	01f30333          	add	x6,x6,x31
    41000404:	005f0e63          	beq	x30,x5,41000420 <syscalls__pte_walk_done_write>
    41000408:	00033f83          	ld	x31,0(x6)
    4100040c:	00afdf93          	srli	x31,x31,0xa
    41000410:	00cf9313          	slli	x6,x31,0xc
    41000414:	001f0f13          	addi	x30,x30,1
    41000418:	ff7e8e93          	addi	x29,x29,-9
    4100041c:	fcdff06f          	j	410003e8 <syscalls__pte_walk_loop_write>

0000000041000420 <syscalls__pte_walk_done_write>:
    41000420:	fff00f93          	li	x31,-1
    41000424:	05fe0263          	beq	x28,x31,41000468 <syscalls__pte_walk_final_write>

0000000041000428 <syscalls__pte_walk_gstage_write>:
    41000428:	42b46fb7          	lui	x31,0x42b46
    4100042c:	0b0f8f9b          	addiw	x31,x31,176 # 42b460b0 <pte_access_flags_pa>
    41000430:	006fb023          	sd	x6,0(x31)
    41000434:	000e0293          	mv	x5,x28
    41000438:	fff00e13          	li	x28,-1
    4100043c:	68002373          	csrr	x6,hgatp
    41000440:	03c35e93          	srli	x29,x6,0x3c
    41000444:	01431313          	slli	x6,x6,0x14
    41000448:	01435313          	srli	x6,x6,0x14
    4100044c:	00c31313          	slli	x6,x6,0xc
    41000450:	ff8e8e93          	addi	x29,x29,-8
    41000454:	003e9f13          	slli	x30,x29,0x3
    41000458:	01df0eb3          	add	x29,x30,x29
    4100045c:	01ee8e93          	addi	x29,x29,30
    41000460:	00000f13          	li	x30,0
    41000464:	f85ff06f          	j	410003e8 <syscalls__pte_walk_loop_write>

0000000041000468 <syscalls__pte_walk_final_write>:
    41000468:	00733023          	sd	x7,0(x6)
    4100046c:	341022f3          	csrr	x5,mepc
    41000470:	00428293          	addi	x5,x5,4
    41000474:	16523c23          	sd	x5,376(x4) # 178 <XLEN+0x138>
    41000478:	dd1ff06f          	j	41000248 <syscalls__os_fn_f0001004>

000000004100047c <syscalls__pte_walk_fail_write>:
    4100047c:	3180006f          	j	41000794 <test_failed>

0000000041000480 <syscalls__os_get_hart_context>:
    41000480:	14002573          	csrr	x10,sscratch
    41000484:	341022f3          	csrr	x5,mepc
    41000488:	00428293          	addi	x5,x5,4
    4100048c:	0040006f          	j	41000490 <syscalls__ret_from_os_fn>

0000000041000490 <syscalls__ret_from_os_fn>:
    41000490:	34102373          	csrr	x6,mepc
    41000494:	00430313          	addi	x6,x6,4
    41000498:	16623c23          	sd	x6,376(x4) # 178 <XLEN+0x138>
    4100049c:	34129073          	csrw	mepc,x5
    410004a0:	fff00f93          	li	x31,-1
    410004a4:	2a40006f          	j	41000748 <trap_handler_m__skip_xepc_write>

00000000410004a8 <trap_handler_m__invalid_interrupt>:
    410004a8:	2ec0006f          	j	41000794 <test_failed>

00000000410004ac <trap_handler_m__clear_all_interrupts>:
    410004ac:	34401073          	csrw	mip,x0
    410004b0:	30200073          	mret

00000000410004b4 <trap_handler_m___CLEAR_SSI>:
    410004b4:	00200293          	li	x5,2
    410004b8:	3442b073          	csrc	mip,x5
    410004bc:	30200073          	mret

00000000410004c0 <trap_handler_m___CLEAR_MSI>:
    410004c0:	00800293          	li	x5,8
    410004c4:	3442b073          	csrc	mip,x5
    410004c8:	30200073          	mret

00000000410004cc <trap_handler_m___CLEAR_STI>:
    410004cc:	02000293          	li	x5,32
    410004d0:	3442b073          	csrc	mip,x5
    410004d4:	30200073          	mret

00000000410004d8 <trap_handler_m___CLEAR_MTI>:
    410004d8:	08000293          	li	x5,128
    410004dc:	3442b073          	csrc	mip,x5
    410004e0:	30200073          	mret

00000000410004e4 <trap_handler_m___CLEAR_SEI>:
    410004e4:	20000293          	li	x5,512
    410004e8:	3442b073          	csrc	mip,x5
    410004ec:	30200073          	mret

00000000410004f0 <trap_handler_m___CLEAR_MEI>:
    410004f0:	000012b7          	lui	x5,0x1
    410004f4:	8002829b          	addiw	x5,x5,-2048 # 800 <XLEN+0x7c0>
    410004f8:	3442b073          	csrc	mip,x5
    410004fc:	30200073          	mret

0000000041000500 <trap_handler_m___CLEAR_COI>:
    41000500:	000022b7          	lui	x5,0x2
    41000504:	3442b073          	csrc	mip,x5
    41000508:	30200073          	mret

000000004100050c <trap_handler_m__clear_highest_priority_interrupt>:
    4100050c:	344022f3          	csrr	x5,mip
    41000510:	40500333          	neg	x6,x5
    41000514:	0062f2b3          	and	x5,x5,x6
    41000518:	3442b073          	csrc	mip,x5
    4100051c:	30200073          	mret

0000000041000520 <trap_handler_m__trap_entry>:
    41000520:	0fc0006f          	j	4100061c <trap_handler_m__trap_handler>

0000000041000524 <trap_handler_m__interrupt_vector_table>:
    41000524:	f91ff06f          	j	410004b4 <trap_handler_m___CLEAR_SSI>
    41000528:	f81ff06f          	j	410004a8 <trap_handler_m__invalid_interrupt>
    4100052c:	f95ff06f          	j	410004c0 <trap_handler_m___CLEAR_MSI>
    41000530:	f79ff06f          	j	410004a8 <trap_handler_m__invalid_interrupt>
    41000534:	f99ff06f          	j	410004cc <trap_handler_m___CLEAR_STI>
    41000538:	f71ff06f          	j	410004a8 <trap_handler_m__invalid_interrupt>
    4100053c:	f9dff06f          	j	410004d8 <trap_handler_m___CLEAR_MTI>
    41000540:	f69ff06f          	j	410004a8 <trap_handler_m__invalid_interrupt>
    41000544:	fa1ff06f          	j	410004e4 <trap_handler_m___CLEAR_SEI>
    41000548:	f61ff06f          	j	410004a8 <trap_handler_m__invalid_interrupt>
    4100054c:	fa5ff06f          	j	410004f0 <trap_handler_m___CLEAR_MEI>
    41000550:	f59ff06f          	j	410004a8 <trap_handler_m__invalid_interrupt>
    41000554:	fadff06f          	j	41000500 <trap_handler_m___CLEAR_COI>
    41000558:	f51ff06f          	j	410004a8 <trap_handler_m__invalid_interrupt>
    4100055c:	f4dff06f          	j	410004a8 <trap_handler_m__invalid_interrupt>
    41000560:	fadff06f          	j	4100050c <trap_handler_m__clear_highest_priority_interrupt>
    41000564:	fa9ff06f          	j	4100050c <trap_handler_m__clear_highest_priority_interrupt>
    41000568:	fa5ff06f          	j	4100050c <trap_handler_m__clear_highest_priority_interrupt>
    4100056c:	fa1ff06f          	j	4100050c <trap_handler_m__clear_highest_priority_interrupt>
    41000570:	f9dff06f          	j	4100050c <trap_handler_m__clear_highest_priority_interrupt>
    41000574:	f99ff06f          	j	4100050c <trap_handler_m__clear_highest_priority_interrupt>
    41000578:	f95ff06f          	j	4100050c <trap_handler_m__clear_highest_priority_interrupt>
    4100057c:	f91ff06f          	j	4100050c <trap_handler_m__clear_highest_priority_interrupt>
    41000580:	f8dff06f          	j	4100050c <trap_handler_m__clear_highest_priority_interrupt>
    41000584:	f89ff06f          	j	4100050c <trap_handler_m__clear_highest_priority_interrupt>
    41000588:	f85ff06f          	j	4100050c <trap_handler_m__clear_highest_priority_interrupt>
    4100058c:	f81ff06f          	j	4100050c <trap_handler_m__clear_highest_priority_interrupt>
    41000590:	f7dff06f          	j	4100050c <trap_handler_m__clear_highest_priority_interrupt>
    41000594:	f79ff06f          	j	4100050c <trap_handler_m__clear_highest_priority_interrupt>
    41000598:	f75ff06f          	j	4100050c <trap_handler_m__clear_highest_priority_interrupt>
    4100059c:	f71ff06f          	j	4100050c <trap_handler_m__clear_highest_priority_interrupt>
    410005a0:	f6dff06f          	j	4100050c <trap_handler_m__clear_highest_priority_interrupt>
    410005a4:	f69ff06f          	j	4100050c <trap_handler_m__clear_highest_priority_interrupt>
    410005a8:	f65ff06f          	j	4100050c <trap_handler_m__clear_highest_priority_interrupt>
    410005ac:	f61ff06f          	j	4100050c <trap_handler_m__clear_highest_priority_interrupt>
    410005b0:	f5dff06f          	j	4100050c <trap_handler_m__clear_highest_priority_interrupt>
    410005b4:	f59ff06f          	j	4100050c <trap_handler_m__clear_highest_priority_interrupt>
    410005b8:	f55ff06f          	j	4100050c <trap_handler_m__clear_highest_priority_interrupt>
    410005bc:	f51ff06f          	j	4100050c <trap_handler_m__clear_highest_priority_interrupt>
    410005c0:	f4dff06f          	j	4100050c <trap_handler_m__clear_highest_priority_interrupt>
    410005c4:	f49ff06f          	j	4100050c <trap_handler_m__clear_highest_priority_interrupt>
    410005c8:	f45ff06f          	j	4100050c <trap_handler_m__clear_highest_priority_interrupt>
    410005cc:	f41ff06f          	j	4100050c <trap_handler_m__clear_highest_priority_interrupt>
    410005d0:	f3dff06f          	j	4100050c <trap_handler_m__clear_highest_priority_interrupt>
    410005d4:	f39ff06f          	j	4100050c <trap_handler_m__clear_highest_priority_interrupt>
    410005d8:	f35ff06f          	j	4100050c <trap_handler_m__clear_highest_priority_interrupt>
    410005dc:	f31ff06f          	j	4100050c <trap_handler_m__clear_highest_priority_interrupt>
    410005e0:	f2dff06f          	j	4100050c <trap_handler_m__clear_highest_priority_interrupt>
    410005e4:	f29ff06f          	j	4100050c <trap_handler_m__clear_highest_priority_interrupt>
    410005e8:	f25ff06f          	j	4100050c <trap_handler_m__clear_highest_priority_interrupt>
    410005ec:	f21ff06f          	j	4100050c <trap_handler_m__clear_highest_priority_interrupt>
    410005f0:	f1dff06f          	j	4100050c <trap_handler_m__clear_highest_priority_interrupt>
    410005f4:	f19ff06f          	j	4100050c <trap_handler_m__clear_highest_priority_interrupt>
    410005f8:	f15ff06f          	j	4100050c <trap_handler_m__clear_highest_priority_interrupt>
    410005fc:	f11ff06f          	j	4100050c <trap_handler_m__clear_highest_priority_interrupt>
    41000600:	f0dff06f          	j	4100050c <trap_handler_m__clear_highest_priority_interrupt>
    41000604:	f09ff06f          	j	4100050c <trap_handler_m__clear_highest_priority_interrupt>
    41000608:	f05ff06f          	j	4100050c <trap_handler_m__clear_highest_priority_interrupt>
    4100060c:	f01ff06f          	j	4100050c <trap_handler_m__clear_highest_priority_interrupt>
    41000610:	efdff06f          	j	4100050c <trap_handler_m__clear_highest_priority_interrupt>
    41000614:	ef9ff06f          	j	4100050c <trap_handler_m__clear_highest_priority_interrupt>
    41000618:	ef5ff06f          	j	4100050c <trap_handler_m__clear_highest_priority_interrupt>

000000004100061c <trap_handler_m__trap_handler>:
    4100061c:	342022f3          	csrr	x5,mcause
    41000620:	fff0031b          	addiw	x6,x0,-1
    41000624:	03f31313          	slli	x6,x6,0x3f
    41000628:	00537333          	and	x6,x6,x5
    4100062c:	02030263          	beqz	x6,41000650 <trap_handler_m__exception_path>

0000000041000630 <trap_handler_m__interrupt_handler>:
    41000630:	fff0031b          	addiw	x6,x0,-1
    41000634:	03f31313          	slli	x6,x6,0x3f
    41000638:	0062c2b3          	xor	x5,x5,x6
    4100063c:	00000317          	auipc	x6,0x0
    41000640:	ee430313          	addi	x6,x6,-284 # 41000520 <trap_handler_m__trap_entry>
    41000644:	00229293          	slli	x5,x5,0x2
    41000648:	005302b3          	add	x5,x6,x5
    4100064c:	00028067          	jr	x5 # 2000 <mem6__pt_level1>

0000000041000650 <trap_handler_m__exception_path>:
    41000650:	34021273          	csrrw	x4,mscratch,x4
    41000654:	00000297          	auipc	x5,0x0
    41000658:	10828293          	addi	x5,x5,264 # 4100075c <trap_handler_m__trap_panic>
    4100065c:	30529073          	csrw	mtvec,x5
    41000660:	0040006f          	j	41000664 <trap_handler_m__excp_entry>

0000000041000664 <trap_handler_m__excp_entry>:
    41000664:	34202373          	csrr	x6,mcause
    41000668:	00800293          	li	x5,8
    4100066c:	00534863          	blt	x6,x5,4100067c <trap_handler_m__check_exception_label>
    41000670:	00b00293          	li	x5,11
    41000674:	0062c463          	blt	x5,x6,4100067c <trap_handler_m__check_exception_label>
    41000678:	a5dff06f          	j	410000d4 <syscalls__syscall_check_schedule_next_test>

000000004100067c <trap_handler_m__check_exception_label>:
    4100067c:	04623c23          	sd	x6,88(x4) # 58 <XLEN+0x18>
    41000680:	341022f3          	csrr	x5,mepc
    41000684:	02523423          	sd	x5,40(x4) # 28 <SECURE_ACCESS_PROBABILITY+0xa>
    41000688:	01820283          	lb	x5,24(x4) # 18 <STORE_GUEST_PAGE_FAULT+0x1>
    4100068c:	00029863          	bnez	x5,4100069c <trap_handler_m__check_excp>
    41000690:	00128293          	addi	x5,x5,1
    41000694:	00520c23          	sb	x5,24(x4) # 18 <STORE_GUEST_PAGE_FAULT+0x1>
    41000698:	0980006f          	j	41000730 <trap_handler_m__ecall_from_machine>

000000004100069c <trap_handler_m__check_excp>:
    4100069c:	06823283          	ld	x5,104(x4) # 68 <XLEN+0x28>
    410006a0:	06023423          	sd	x0,104(x4) # 68 <XLEN+0x28>
    410006a4:	00028663          	beqz	x5,410006b0 <trap_handler_m__skip_mode_check>
    410006a8:	00100393          	li	x7,1
    410006ac:	0e729463          	bne	x5,x7,41000794 <test_failed>

00000000410006b0 <trap_handler_m__skip_mode_check>:
    410006b0:	05023283          	ld	x5,80(x4) # 50 <XLEN+0x10>
    410006b4:	04023823          	sd	x0,80(x4) # 50 <XLEN+0x10>
    410006b8:	0c531e63          	bne	x6,x5,41000794 <test_failed>
    410006bc:	03823283          	ld	x5,56(x4) # 38 <SECURE_ACCESS_PROBABILITY+0x1a>
    410006c0:	02023c23          	sd	x0,56(x4) # 38 <SECURE_ACCESS_PROBABILITY+0x1a>
    410006c4:	06029463          	bnez	x5,4100072c <trap_handler_m__skip_gva_check>
    410006c8:	02023303          	ld	x6,32(x4) # 20 <SECURE_ACCESS_PROBABILITY+0x2>
    410006cc:	02023023          	sd	x0,32(x4) # 20 <SECURE_ACCESS_PROBABILITY+0x2>
    410006d0:	02823283          	ld	x5,40(x4) # 28 <SECURE_ACCESS_PROBABILITY+0xa>
    410006d4:	02023423          	sd	x0,40(x4) # 28 <SECURE_ACCESS_PROBABILITY+0xa>
    410006d8:	0a531e63          	bne	x6,x5,41000794 <test_failed>
    410006dc:	04023283          	ld	x5,64(x4) # 40 <XLEN>
    410006e0:	04023023          	sd	x0,64(x4) # 40 <XLEN>
    410006e4:	00028663          	beqz	x5,410006f0 <trap_handler_m__skip_nonzero_tval_check>

00000000410006e8 <trap_handler_m__nonzero_tval_check>:
    410006e8:	34302373          	csrr	x6,mtval
    410006ec:	0a531463          	bne	x6,x5,41000794 <test_failed>

00000000410006f0 <trap_handler_m__skip_nonzero_tval_check>:
    410006f0:	04823283          	ld	x5,72(x4) # 48 <XLEN+0x8>
    410006f4:	04023423          	sd	x0,72(x4) # 48 <XLEN+0x8>
    410006f8:	00028663          	beqz	x5,41000704 <trap_handler_m__skip_nonzero_htval_check>

00000000410006fc <trap_handler_m__nonzero_htval_check>:
    410006fc:	34b02373          	csrr	x6,0x34b
    41000700:	08531a63          	bne	x6,x5,41000794 <test_failed>

0000000041000704 <trap_handler_m__skip_nonzero_htval_check>:
    41000704:	06023283          	ld	x5,96(x4) # 60 <XLEN+0x20>
    41000708:	06023023          	sd	x0,96(x4) # 60 <XLEN+0x20>
    4100070c:	02028063          	beqz	x5,4100072c <trap_handler_m__skip_gva_check>

0000000041000710 <trap_handler_m__gva_check>:
    41000710:	30002373          	csrr	x6,mstatus
    41000714:	02635313          	srli	x6,x6,0x26
    41000718:	00137313          	andi	x6,x6,1
    4100071c:	06030c63          	beqz	x6,41000794 <test_failed>
    41000720:	0010031b          	addiw	x6,x0,1
    41000724:	02631313          	slli	x6,x6,0x26
    41000728:	30033073          	csrc	mstatus,x6

000000004100072c <trap_handler_m__skip_gva_check>:
    4100072c:	0040006f          	j	41000730 <trap_handler_m__ecall_from_machine>

0000000041000730 <trap_handler_m__ecall_from_machine>:
    41000730:	03023283          	ld	x5,48(x4) # 30 <SECURE_ACCESS_PROBABILITY+0x12>
    41000734:	02023823          	sd	x0,48(x4) # 30 <SECURE_ACCESS_PROBABILITY+0x12>
    41000738:	07023303          	ld	x6,112(x4) # 70 <XLEN+0x30>
    4100073c:	06023823          	sd	x0,112(x4) # 70 <XLEN+0x30>
    41000740:	00031463          	bnez	x6,41000748 <trap_handler_m__skip_xepc_write>
    41000744:	34129073          	csrw	mepc,x5

0000000041000748 <trap_handler_m__skip_xepc_write>:
    41000748:	00000317          	auipc	x6,0x0
    4100074c:	dd830313          	addi	x6,x6,-552 # 41000520 <trap_handler_m__trap_entry>
    41000750:	30531073          	csrw	mtvec,x6
    41000754:	34021273          	csrrw	x4,mscratch,x4
    41000758:	30200073          	mret

000000004100075c <trap_handler_m__trap_panic>:
    4100075c:	00000193          	li	x3,0
    41000760:	2b00006f          	j	41000a10 <eot__end_test>

0000000041000764 <enter_scheduler>:
    41000764:	0002f337          	lui	x6,0x2f
    41000768:	ab73031b          	addiw	x6,x6,-1353 # 2eab7 <mem2__pt_level2+0x8ab7>
    4100076c:	00e31313          	slli	x6,x6,0xe
    41000770:	0de30313          	addi	x6,x6,222
    41000774:	02628063          	beq	x5,x6,41000794 <test_failed>
    41000778:	00000513          	li	x10,0
    4100077c:	030000ef          	jal	410007ac <rvcp_print_test_result>
    41000780:	3140006f          	j	41000a94 <scheduler__dispatch>

0000000041000784 <test_passed>:
    41000784:	34021273          	csrrw	x4,mscratch,x4
    41000788:	00000513          	li	x10,0
    4100078c:	020000ef          	jal	410007ac <rvcp_print_test_result>
    41000790:	3040006f          	j	41000a94 <scheduler__dispatch>

0000000041000794 <test_failed>:
    41000794:	34021273          	csrrw	x4,mscratch,x4
    41000798:	00300193          	li	x3,3
    4100079c:	2740006f          	j	41000a10 <eot__end_test>

00000000410007a0 <os_end_test>:
    410007a0:	34021273          	csrrw	x4,mscratch,x4
    410007a4:	00100193          	li	x3,1
    410007a8:	2680006f          	j	41000a10 <eot__end_test>

00000000410007ac <rvcp_print_test_result>:
    410007ac:	00050e13          	mv	x28,x10
    410007b0:	18823283          	ld	x5,392(x4) # 188 <XLEN+0x148>
    410007b4:	0010031b          	addiw	x6,x0,1
    410007b8:	02031313          	slli	x6,x6,0x20
    410007bc:	ffe30313          	addi	x6,x6,-2
    410007c0:	1c628063          	beq	x5,x6,41000980 <rvcp_print_test_result+0x1d4>
    410007c4:	0010031b          	addiw	x6,x0,1
    410007c8:	02031313          	slli	x6,x6,0x20
    410007cc:	fff30313          	addi	x6,x6,-1
    410007d0:	1a628863          	beq	x5,x6,41000980 <rvcp_print_test_result+0x1d4>
    410007d4:	1a02c663          	bltz	x5,41000980 <rvcp_print_test_result+0x1d4>
    410007d8:	00000317          	auipc	x6,0x0
    410007dc:	3dc30313          	addi	x6,x6,988 # 41000bb4 <dtest_descriptor_table>
    410007e0:	00329393          	slli	x7,x5,0x3
    410007e4:	00730333          	add	x6,x6,x7
    410007e8:	00033e83          	ld	x29,0(x6)
    410007ec:	42b46f37          	lui	x30,0x42b46
    410007f0:	030f0f1b          	addiw	x30,x30,48 # 42b46030 <rvcp_prefix_str_pa>
    410007f4:	000f4283          	lbu	x5,0(x30)
    410007f8:	02028663          	beqz	x5,41000824 <rvcp_print_test_result+0x78>
    410007fc:	1010031b          	addiw	x6,x0,257
    41000800:	03031313          	slli	x6,x6,0x30
    41000804:	005362b3          	or	x5,x6,x5
    41000808:	0003f317          	auipc	x6,0x3f
    4100080c:	7f830313          	addi	x6,x6,2040 # 41040000 <tohost>
    41000810:	00033383          	ld	x7,0(x6)
    41000814:	fe039ee3          	bnez	x7,41000810 <rvcp_print_test_result+0x64>
    41000818:	00533023          	sd	x5,0(x6)
    4100081c:	001f0f13          	addi	x30,x30,1
    41000820:	fd5ff06f          	j	410007f4 <rvcp_print_test_result+0x48>
    41000824:	42b46f37          	lui	x30,0x42b46
    41000828:	041f0f1b          	addiw	x30,x30,65 # 42b46041 <rvcp_testname_str_pa>
    4100082c:	000f4283          	lbu	x5,0(x30)
    41000830:	02028663          	beqz	x5,4100085c <rvcp_print_test_result+0xb0>
    41000834:	1010031b          	addiw	x6,x0,257
    41000838:	03031313          	slli	x6,x6,0x30
    4100083c:	005362b3          	or	x5,x6,x5
    41000840:	0003f317          	auipc	x6,0x3f
    41000844:	7c030313          	addi	x6,x6,1984 # 41040000 <tohost>
    41000848:	00033383          	ld	x7,0(x6)
    4100084c:	fe039ee3          	bnez	x7,41000848 <rvcp_print_test_result+0x9c>
    41000850:	00533023          	sd	x5,0(x6)
    41000854:	001f0f13          	addi	x30,x30,1
    41000858:	fd5ff06f          	j	4100082c <rvcp_print_test_result+0x80>
    4100085c:	42b46f37          	lui	x30,0x42b46
    41000860:	05cf0f1b          	addiw	x30,x30,92 # 42b4605c <rvcp_space_str_pa>
    41000864:	000f4283          	lbu	x5,0(x30)
    41000868:	02028663          	beqz	x5,41000894 <rvcp_print_test_result+0xe8>
    4100086c:	1010031b          	addiw	x6,x0,257
    41000870:	03031313          	slli	x6,x6,0x30
    41000874:	005362b3          	or	x5,x6,x5
    41000878:	0003f317          	auipc	x6,0x3f
    4100087c:	78830313          	addi	x6,x6,1928 # 41040000 <tohost>
    41000880:	00033383          	ld	x7,0(x6)
    41000884:	fe039ee3          	bnez	x7,41000880 <rvcp_print_test_result+0xd4>
    41000888:	00533023          	sd	x5,0(x6)
    4100088c:	001f0f13          	addi	x30,x30,1
    41000890:	fd5ff06f          	j	41000864 <rvcp_print_test_result+0xb8>
    41000894:	000e8f13          	mv	x30,x29
    41000898:	000f4283          	lbu	x5,0(x30)
    4100089c:	02028663          	beqz	x5,410008c8 <rvcp_print_test_result+0x11c>
    410008a0:	1010031b          	addiw	x6,x0,257
    410008a4:	03031313          	slli	x6,x6,0x30
    410008a8:	005362b3          	or	x5,x6,x5
    410008ac:	0003f317          	auipc	x6,0x3f
    410008b0:	75430313          	addi	x6,x6,1876 # 41040000 <tohost>
    410008b4:	00033383          	ld	x7,0(x6)
    410008b8:	fe039ee3          	bnez	x7,410008b4 <rvcp_print_test_result+0x108>
    410008bc:	00533023          	sd	x5,0(x6)
    410008c0:	001f0f13          	addi	x30,x30,1
    410008c4:	fd5ff06f          	j	41000898 <rvcp_print_test_result+0xec>
    410008c8:	42b46f37          	lui	x30,0x42b46
    410008cc:	05cf0f1b          	addiw	x30,x30,92 # 42b4605c <rvcp_space_str_pa>
    410008d0:	000f4283          	lbu	x5,0(x30)
    410008d4:	02028663          	beqz	x5,41000900 <rvcp_print_test_result+0x154>
    410008d8:	1010031b          	addiw	x6,x0,257
    410008dc:	03031313          	slli	x6,x6,0x30
    410008e0:	005362b3          	or	x5,x6,x5
    410008e4:	0003f317          	auipc	x6,0x3f
    410008e8:	71c30313          	addi	x6,x6,1820 # 41040000 <tohost>
    410008ec:	00033383          	ld	x7,0(x6)
    410008f0:	fe039ee3          	bnez	x7,410008ec <rvcp_print_test_result+0x140>
    410008f4:	00533023          	sd	x5,0(x6)
    410008f8:	001f0f13          	addi	x30,x30,1
    410008fc:	fd5ff06f          	j	410008d0 <rvcp_print_test_result+0x124>
    41000900:	000e1863          	bnez	x28,41000910 <rvcp_print_test_result+0x164>
    41000904:	42b46f37          	lui	x30,0x42b46
    41000908:	04ef0f1b          	addiw	x30,x30,78 # 42b4604e <rvcp_passed_str_pa>
    4100090c:	00c0006f          	j	41000918 <rvcp_print_test_result+0x16c>
    41000910:	42b46f37          	lui	x30,0x42b46
    41000914:	055f0f1b          	addiw	x30,x30,85 # 42b46055 <rvcp_failed_str_pa>
    41000918:	000f4283          	lbu	x5,0(x30)
    4100091c:	02028663          	beqz	x5,41000948 <rvcp_print_test_result+0x19c>
    41000920:	1010031b          	addiw	x6,x0,257
    41000924:	03031313          	slli	x6,x6,0x30
    41000928:	005362b3          	or	x5,x6,x5
    4100092c:	0003f317          	auipc	x6,0x3f
    41000930:	6d430313          	addi	x6,x6,1748 # 41040000 <tohost>
    41000934:	00033383          	ld	x7,0(x6)
    41000938:	fe039ee3          	bnez	x7,41000934 <rvcp_print_test_result+0x188>
    4100093c:	00533023          	sd	x5,0(x6)
    41000940:	001f0f13          	addi	x30,x30,1
    41000944:	fd5ff06f          	j	41000918 <rvcp_print_test_result+0x16c>
    41000948:	42b46f37          	lui	x30,0x42b46
    4100094c:	05ef0f1b          	addiw	x30,x30,94 # 42b4605e <rvcp_newline_str_pa>
    41000950:	000f4283          	lbu	x5,0(x30)
    41000954:	02028663          	beqz	x5,41000980 <rvcp_print_test_result+0x1d4>
    41000958:	1010031b          	addiw	x6,x0,257
    4100095c:	03031313          	slli	x6,x6,0x30
    41000960:	005362b3          	or	x5,x6,x5
    41000964:	0003f317          	auipc	x6,0x3f
    41000968:	69c30313          	addi	x6,x6,1692 # 41040000 <tohost>
    4100096c:	00033383          	ld	x7,0(x6)
    41000970:	fe039ee3          	bnez	x7,4100096c <rvcp_print_test_result+0x1c0>
    41000974:	00533023          	sd	x5,0(x6)
    41000978:	001f0f13          	addi	x30,x30,1
    4100097c:	fd5ff06f          	j	41000950 <rvcp_print_test_result+0x1a4>
    41000980:	00008067          	ret

0000000041000984 <os_rng_orig>:
    41000984:	f14023f3          	csrr	x7,mhartid
    41000988:	00068313          	mv	x6,x13
    4100098c:	026383b3          	mul	x7,x7,x6
    41000990:	00058313          	mv	x6,x11
    41000994:	00730333          	add	x6,x6,x7
    41000998:	00033283          	ld	x5,0(x6)
    4100099c:	01529313          	slli	x6,x5,0x15
    410009a0:	0062c2b3          	xor	x5,x5,x6
    410009a4:	0232d313          	srli	x6,x5,0x23
    410009a8:	0062c2b3          	xor	x5,x5,x6
    410009ac:	00429313          	slli	x6,x5,0x4
    410009b0:	0062c2b3          	xor	x5,x5,x6
    410009b4:	00058313          	mv	x6,x11
    410009b8:	00730333          	add	x6,x6,x7
    410009bc:	00533023          	sd	x5,0(x6)
    410009c0:	00060313          	mv	x6,x12
    410009c4:	0262f2b3          	remu	x5,x5,x6
    410009c8:	00028513          	mv	x10,x5
    410009cc:	00008067          	ret
    410009d0:	02a00513          	li	x10,42
    410009d4:	001965b7          	lui	x11,0x196
    410009d8:	60d5859b          	addiw	x11,x11,1549 # 19660d <hart_stack_0_end+0x6a60d>
    410009dc:	3c6ef637          	lui	x12,0x3c6ef
    410009e0:	35f6061b          	addiw	x12,x12,863 # 3c6ef35f <mem11__pt_level4+0x56bc7ff>
    410009e4:	02200693          	li	x13,34
    410009e8:	02b50533          	mul	x10,x10,x11
    410009ec:	00c50533          	add	x10,x10,x12
    410009f0:	02d56533          	rem	x10,x10,x13
    410009f4:	00b00593          	li	x11,11
    410009f8:	02b56533          	rem	x10,x10,x11
    410009fc:	00008067          	ret

0000000041000a00 <tohost_mutex>:
	...

0000000041000a08 <tohost_addr_mem>:
    41000a08:	0000                	.insn	2, 0x0000
    41000a0a:	4104                	.insn	2, 0x4104
    41000a0c:	0000                	.insn	2, 0x0000
	...

0000000041000a10 <eot__end_test>:
    41000a10:	00100293          	li	x5,1
    41000a14:	00328463          	beq	x5,x3,41000a1c <eot__passed>
    41000a18:	01c0006f          	j	41000a34 <eot__failed>

0000000041000a1c <eot__passed>:
    41000a1c:	0ff0000f          	fence
    41000a20:	00000297          	auipc	x5,0x0
    41000a24:	fe82b283          	ld	x5,-24(x5) # 41000a08 <tohost_addr_mem>
    41000a28:	00100313          	li	x6,1
    41000a2c:	0062a023          	sw	x6,0(x5)
    41000a30:	0240006f          	j	41000a54 <eot__halt>

0000000041000a34 <eot__failed>:
    41000a34:	00100513          	li	x10,1
    41000a38:	d75ff0ef          	jal	410007ac <rvcp_print_test_result>
    41000a3c:	0ff0000f          	fence
    41000a40:	00000297          	auipc	x5,0x0
    41000a44:	fc82b283          	ld	x5,-56(x5) # 41000a08 <tohost_addr_mem>
    41000a48:	00300313          	li	x6,3
    41000a4c:	0062a023          	sw	x6,0(x5)
    41000a50:	0040006f          	j	41000a54 <eot__halt>

0000000041000a54 <eot__halt>:
    41000a54:	10500073          	wfi
    41000a58:	ffdff06f          	j	41000a54 <eot__halt>

0000000041000a5c <scheduler__init>:
    41000a5c:	00000297          	auipc	x5,0x0
    41000a60:	0e028293          	addi	x5,x5,224 # 41000b3c <scheduler__panic>
    41000a64:	305292f3          	csrrw	x5,mtvec,x5
    41000a68:	18523023          	sd	x5,384(x4) # 180 <XLEN+0x140>
    41000a6c:	00d00293          	li	x5,13
    41000a70:	18523823          	sd	x5,400(x4) # 190 <XLEN+0x150>
    41000a74:	0010029b          	addiw	x5,x0,1
    41000a78:	02029293          	slli	x5,x5,0x20
    41000a7c:	ffe28293          	addi	x5,x5,-2
    41000a80:	18523423          	sd	x5,392(x4) # 188 <XLEN+0x148>
    41000a84:	00000317          	auipc	x6,0x0
    41000a88:	2b830313          	addi	x6,x6,696 # 41000d3c <scheduler__test_setup_ptr>
    41000a8c:	00033303          	ld	x6,0(x6)
    41000a90:	0840006f          	j	41000b14 <scheduler__execute_test>

0000000041000a94 <scheduler__dispatch>:
    41000a94:	00000297          	auipc	x5,0x0
    41000a98:	0a828293          	addi	x5,x5,168 # 41000b3c <scheduler__panic>
    41000a9c:	305292f3          	csrrw	x5,mtvec,x5
    41000aa0:	18523023          	sd	x5,384(x4) # 180 <XLEN+0x140>

0000000041000aa4 <scheduler__csr_read_randomization>:
    41000aa4:	f14022f3          	csrr	x5,mhartid
    41000aa8:	343022f3          	csrr	x5,mtval
    41000aac:	143022f3          	csrr	x5,stval
    41000ab0:	343022f3          	csrr	x5,mtval
    41000ab4:	10a022f3          	csrr	x5,0x10a
    41000ab8:	304022f3          	csrr	x5,mie
    41000abc:	344022f3          	csrr	x5,mip
    41000ac0:	144022f3          	csrr	x5,sip
    41000ac4:	10a022f3          	csrr	x5,0x10a
    41000ac8:	f11022f3          	csrr	x5,mvendorid
    41000acc:	30a022f3          	csrr	x5,0x30a
    41000ad0:	302022f3          	csrr	x5,medeleg
    41000ad4:	b02022f3          	csrr	x5,minstret

0000000041000ad8 <scheduler__load_num_runs>:
    41000ad8:	19023303          	ld	x6,400(x4) # 190 <XLEN+0x150>
    41000adc:	04030c63          	beqz	x6,41000b34 <scheduler__finished>

0000000041000ae0 <scheduler__decrement_num_runs>:
    41000ae0:	fff30393          	addi	x7,x6,-1
    41000ae4:	18723823          	sd	x7,400(x4) # 190 <XLEN+0x150>
    41000ae8:	00000e17          	auipc	x28,0x0
    41000aec:	21ce0e13          	addi	x28,x28,540 # 41000d04 <dtest_index_map>
    41000af0:	00239e93          	slli	x29,x7,0x2
    41000af4:	01de0e33          	add	x28,x28,x29
    41000af8:	000e2e03          	lw	x28,0(x28)
    41000afc:	19c23423          	sd	x28,392(x4) # 188 <XLEN+0x148>

0000000041000b00 <scheduler__calc_test_pointer>:
    41000b00:	00339293          	slli	x5,x7,0x3

0000000041000b04 <scheduler__load_test_addr>:
    41000b04:	00000317          	auipc	x6,0x0
    41000b08:	04830313          	addi	x6,x6,72 # 41000b4c <os_test_sequence>
    41000b0c:	006282b3          	add	x5,x5,x6
    41000b10:	0002b303          	ld	x6,0(x5)

0000000041000b14 <scheduler__execute_test>:
    41000b14:	18023283          	ld	x5,384(x4) # 180 <XLEN+0x140>
    41000b18:	30529073          	csrw	mtvec,x5
    41000b1c:	34021273          	csrrw	x4,mscratch,x4
    41000b20:	00000213          	li	x4,0
    41000b24:	14131073          	csrw	sepc,x6
    41000b28:	10000293          	li	x5,256
    41000b2c:	1002a073          	csrs	sstatus,x5
    41000b30:	10200073          	sret

0000000041000b34 <scheduler__finished>:
    41000b34:	00100193          	li	x3,1
    41000b38:	ed9ff06f          	j	41000a10 <eot__end_test>

0000000041000b3c <scheduler__panic>:
    41000b3c:	00000193          	li	x3,0
    41000b40:	ed1ff06f          	j	41000a10 <eot__end_test>

0000000041000b44 <num_runs>:
    41000b44:	000d                	.insn	2, 0x000d
    41000b46:	0000                	.insn	2, 0x0000
    41000b48:	0000                	.insn	2, 0x0000
	...

0000000041000b4c <os_test_sequence>:
    41000b4c:	506c                	.insn	2, 0x506c
    41000b4e:	4101                	.insn	2, 0x4101
    41000b50:	0000                	.insn	2, 0x0000
    41000b52:	0000                	.insn	2, 0x0000
    41000b54:	49c4                	.insn	2, 0x49c4
    41000b56:	4101                	.insn	2, 0x4101
    41000b58:	0000                	.insn	2, 0x0000
    41000b5a:	0000                	.insn	2, 0x0000
    41000b5c:	4f2c                	.insn	2, 0x4f2c
    41000b5e:	4101                	.insn	2, 0x4101
    41000b60:	0000                	.insn	2, 0x0000
    41000b62:	0000                	.insn	2, 0x0000
    41000b64:	40d0                	.insn	2, 0x40d0
    41000b66:	4101                	.insn	2, 0x4101
    41000b68:	0000                	.insn	2, 0x0000
    41000b6a:	0000                	.insn	2, 0x0000
    41000b6c:	4bcc                	.insn	2, 0x4bcc
    41000b6e:	4101                	.insn	2, 0x4101
    41000b70:	0000                	.insn	2, 0x0000
    41000b72:	0000                	.insn	2, 0x0000
    41000b74:	46bc                	.insn	2, 0x46bc
    41000b76:	4101                	.insn	2, 0x4101
    41000b78:	0000                	.insn	2, 0x0000
    41000b7a:	0000                	.insn	2, 0x0000
    41000b7c:	4844                	.insn	2, 0x4844
    41000b7e:	4101                	.insn	2, 0x4101
    41000b80:	0000                	.insn	2, 0x0000
    41000b82:	0000                	.insn	2, 0x0000
    41000b84:	4410                	.insn	2, 0x4410
    41000b86:	4101                	.insn	2, 0x4101
    41000b88:	0000                	.insn	2, 0x0000
    41000b8a:	0000                	.insn	2, 0x0000
    41000b8c:	4e10                	.insn	2, 0x4e10
    41000b8e:	4101                	.insn	2, 0x4101
    41000b90:	0000                	.insn	2, 0x0000
    41000b92:	0000                	.insn	2, 0x0000
    41000b94:	453c                	.insn	2, 0x453c
    41000b96:	4101                	.insn	2, 0x4101
    41000b98:	0000                	.insn	2, 0x0000
    41000b9a:	0000                	.insn	2, 0x0000
    41000b9c:	41e8                	.insn	2, 0x41e8
    41000b9e:	4101                	.insn	2, 0x4101
    41000ba0:	0000                	.insn	2, 0x0000
    41000ba2:	0000                	.insn	2, 0x0000
    41000ba4:	4ce8                	.insn	2, 0x4ce8
    41000ba6:	4101                	.insn	2, 0x4101
    41000ba8:	0000                	.insn	2, 0x0000
    41000baa:	0000                	.insn	2, 0x0000
    41000bac:	42f8                	.insn	2, 0x42f8
    41000bae:	4101                	.insn	2, 0x4101
    41000bb0:	0000                	.insn	2, 0x0000
	...

0000000041000bb4 <dtest_descriptor_table>:
    41000bb4:	0c14                	.insn	2, 0x0c14
    41000bb6:	4100                	.insn	2, 0x4100
    41000bb8:	0000                	.insn	2, 0x0000
    41000bba:	0000                	.insn	2, 0x0000
    41000bbc:	0c28                	.insn	2, 0x0c28
    41000bbe:	4100                	.insn	2, 0x4100
    41000bc0:	0000                	.insn	2, 0x0000
    41000bc2:	0000                	.insn	2, 0x0000
    41000bc4:	0c3d                	.insn	2, 0x0c3d
    41000bc6:	4100                	.insn	2, 0x4100
    41000bc8:	0000                	.insn	2, 0x0000
    41000bca:	0000                	.insn	2, 0x0000
    41000bcc:	0c50                	.insn	2, 0x0c50
    41000bce:	4100                	.insn	2, 0x4100
    41000bd0:	0000                	.insn	2, 0x0000
    41000bd2:	0000                	.insn	2, 0x0000
    41000bd4:	0c64                	.insn	2, 0x0c64
    41000bd6:	4100                	.insn	2, 0x4100
    41000bd8:	0000                	.insn	2, 0x0000
    41000bda:	0000                	.insn	2, 0x0000
    41000bdc:	0c78                	.insn	2, 0x0c78
    41000bde:	4100                	.insn	2, 0x4100
    41000be0:	0000                	.insn	2, 0x0000
    41000be2:	0000                	.insn	2, 0x0000
    41000be4:	0c8d                	.insn	2, 0x0c8d
    41000be6:	4100                	.insn	2, 0x4100
    41000be8:	0000                	.insn	2, 0x0000
    41000bea:	0000                	.insn	2, 0x0000
    41000bec:	0ca0                	.insn	2, 0x0ca0
    41000bee:	4100                	.insn	2, 0x4100
    41000bf0:	0000                	.insn	2, 0x0000
    41000bf2:	0000                	.insn	2, 0x0000
    41000bf4:	0cb4                	.insn	2, 0x0cb4
    41000bf6:	4100                	.insn	2, 0x4100
    41000bf8:	0000                	.insn	2, 0x0000
    41000bfa:	0000                	.insn	2, 0x0000
    41000bfc:	0cc8                	.insn	2, 0x0cc8
    41000bfe:	4100                	.insn	2, 0x4100
    41000c00:	0000                	.insn	2, 0x0000
    41000c02:	0000                	.insn	2, 0x0000
    41000c04:	0cdd                	.insn	2, 0x0cdd
    41000c06:	4100                	.insn	2, 0x4100
    41000c08:	0000                	.insn	2, 0x0000
    41000c0a:	0000                	.insn	2, 0x0000
    41000c0c:	0cf0                	.insn	2, 0x0cf0
    41000c0e:	4100                	.insn	2, 0x4100
    41000c10:	0000                	.insn	2, 0x0000
	...

0000000041000c14 <dtest_name_0>:
    41000c14:	5f444953          	.insn	4, 0x5f444953
    41000c18:	414e5653          	.insn	4, 0x414e5653
    41000c1c:	4f50                	.insn	2, 0x4f50
    41000c1e:	5f54                	.insn	2, 0x5f54
    41000c20:	3030                	.insn	2, 0x3030
    41000c22:	4c5f 414f 0044      	.insn	6, 0x0044414f4c5f

0000000041000c28 <dtest_name_1>:
    41000c28:	5f444953          	.insn	4, 0x5f444953
    41000c2c:	414e5653          	.insn	4, 0x414e5653
    41000c30:	4f50                	.insn	2, 0x4f50
    41000c32:	5f54                	.insn	2, 0x5f54
    41000c34:	3030                	.insn	2, 0x3030
    41000c36:	535f 4f54 4552      	.insn	6, 0x45524f54535f
	...

0000000041000c3d <dtest_name_2>:
    41000c3d:	5f444953          	.insn	4, 0x5f444953
    41000c41:	414e5653          	.insn	4, 0x414e5653
    41000c45:	4f50                	.insn	2, 0x4f50
    41000c47:	5f54                	.insn	2, 0x5f54
    41000c49:	3030                	.insn	2, 0x3030
    41000c4b:	415f 4f4d       	.insn	6, 0x53004f4d415f

0000000041000c50 <dtest_name_3>:
    41000c50:	5f444953          	.insn	4, 0x5f444953
    41000c54:	414e5653          	.insn	4, 0x414e5653
    41000c58:	4f50                	.insn	2, 0x4f50
    41000c5a:	5f54                	.insn	2, 0x5f54
    41000c5c:	3030                	.insn	2, 0x3030
    41000c5e:	4c5f 5352 0043      	.insn	6, 0x004353524c5f

0000000041000c64 <dtest_name_4>:
    41000c64:	5f444953          	.insn	4, 0x5f444953
    41000c68:	414e5653          	.insn	4, 0x414e5653
    41000c6c:	4f50                	.insn	2, 0x4f50
    41000c6e:	5f54                	.insn	2, 0x5f54
    41000c70:	3130                	.insn	2, 0x3130
    41000c72:	4c5f 414f 0044      	.insn	6, 0x0044414f4c5f

0000000041000c78 <dtest_name_5>:
    41000c78:	5f444953          	.insn	4, 0x5f444953
    41000c7c:	414e5653          	.insn	4, 0x414e5653
    41000c80:	4f50                	.insn	2, 0x4f50
    41000c82:	5f54                	.insn	2, 0x5f54
    41000c84:	3130                	.insn	2, 0x3130
    41000c86:	535f 4f54 4552      	.insn	6, 0x45524f54535f
	...

0000000041000c8d <dtest_name_6>:
    41000c8d:	5f444953          	.insn	4, 0x5f444953
    41000c91:	414e5653          	.insn	4, 0x414e5653
    41000c95:	4f50                	.insn	2, 0x4f50
    41000c97:	5f54                	.insn	2, 0x5f54
    41000c99:	3130                	.insn	2, 0x3130
    41000c9b:	415f 4f4d       	.insn	6, 0x53004f4d415f

0000000041000ca0 <dtest_name_7>:
    41000ca0:	5f444953          	.insn	4, 0x5f444953
    41000ca4:	414e5653          	.insn	4, 0x414e5653
    41000ca8:	4f50                	.insn	2, 0x4f50
    41000caa:	5f54                	.insn	2, 0x5f54
    41000cac:	3130                	.insn	2, 0x3130
    41000cae:	4c5f 5352 0043      	.insn	6, 0x004353524c5f

0000000041000cb4 <dtest_name_8>:
    41000cb4:	5f444953          	.insn	4, 0x5f444953
    41000cb8:	414e5653          	.insn	4, 0x414e5653
    41000cbc:	4f50                	.insn	2, 0x4f50
    41000cbe:	5f54                	.insn	2, 0x5f54
    41000cc0:	3230                	.insn	2, 0x3230
    41000cc2:	4c5f 414f 0044      	.insn	6, 0x0044414f4c5f

0000000041000cc8 <dtest_name_9>:
    41000cc8:	5f444953          	.insn	4, 0x5f444953
    41000ccc:	414e5653          	.insn	4, 0x414e5653
    41000cd0:	4f50                	.insn	2, 0x4f50
    41000cd2:	5f54                	.insn	2, 0x5f54
    41000cd4:	3230                	.insn	2, 0x3230
    41000cd6:	535f 4f54 4552      	.insn	6, 0x45524f54535f
	...

0000000041000cdd <dtest_name_10>:
    41000cdd:	5f444953          	.insn	4, 0x5f444953
    41000ce1:	414e5653          	.insn	4, 0x414e5653
    41000ce5:	4f50                	.insn	2, 0x4f50
    41000ce7:	5f54                	.insn	2, 0x5f54
    41000ce9:	3230                	.insn	2, 0x3230
    41000ceb:	415f 4f4d       	.insn	6, 0x53004f4d415f

0000000041000cf0 <dtest_name_11>:
    41000cf0:	5f444953          	.insn	4, 0x5f444953
    41000cf4:	414e5653          	.insn	4, 0x414e5653
    41000cf8:	4f50                	.insn	2, 0x4f50
    41000cfa:	5f54                	.insn	2, 0x5f54
    41000cfc:	3230                	.insn	2, 0x3230
    41000cfe:	4c5f 5352 0043      	.insn	6, 0x004353524c5f

0000000041000d04 <dtest_index_map>:
    41000d04:	ffff                	.insn	2, 0xffff
    41000d06:	ffff                	.insn	2, 0xffff
    41000d08:	00000007          	vle8.v	v0,(x0),v0.t
    41000d0c:	0000000b          	.insn	4, 0x000b
    41000d10:	0000                	.insn	2, 0x0000
    41000d12:	0000                	.insn	2, 0x0000
    41000d14:	0008                	.insn	2, 0x0008
    41000d16:	0000                	.insn	2, 0x0000
    41000d18:	0005                	.insn	2, 0x0005
    41000d1a:	0000                	.insn	2, 0x0000
    41000d1c:	0006                	.insn	2, 0x0006
    41000d1e:	0000                	.insn	2, 0x0000
    41000d20:	00000003          	lb	x0,0(x0) # 0 <ALL_4KB_PAGES>
    41000d24:	000a                	.insn	2, 0x000a
    41000d26:	0000                	.insn	2, 0x0000
    41000d28:	0004                	.insn	2, 0x0004
    41000d2a:	0000                	.insn	2, 0x0000
    41000d2c:	0001                	.insn	2, 0x0001
    41000d2e:	0000                	.insn	2, 0x0000
    41000d30:	0009                	.insn	2, 0x0009
    41000d32:	0000                	.insn	2, 0x0000
    41000d34:	0002                	.insn	2, 0x0002
    41000d36:	0000                	.insn	2, 0x0000
    41000d38:	0000                	.insn	2, 0x0000
	...

0000000041000d3c <scheduler__test_setup_ptr>:
    41000d3c:	40c0                	.insn	2, 0x40c0
    41000d3e:	4101                	.insn	2, 0x4101
    41000d40:	0000                	.insn	2, 0x0000
	...

0000000041000d44 <scheduler__test_cleanup_ptr>:
    41000d44:	506c                	.insn	2, 0x506c
    41000d46:	4101                	.insn	2, 0x4101
    41000d48:	0000                	.insn	2, 0x0000
	...

Disassembly of section .runtime_s:

0000000041010000 <trap_handler_s__invalid_interrupt>:
    41010000:	1740006f          	j	41010174 <trap_handler_s__test_failed>

0000000041010004 <trap_handler_s__clear_all_interrupts>:
    41010004:	14401073          	csrw	sip,x0
    41010008:	10200073          	sret

000000004101000c <trap_handler_s___CLEAR_SSI>:
    4101000c:	00200293          	li	x5,2
    41010010:	1442b073          	csrc	sip,x5
    41010014:	10200073          	sret

0000000041010018 <trap_handler_s___CLEAR_MSI>:
    41010018:	00800293          	li	x5,8
    4101001c:	1442b073          	csrc	sip,x5
    41010020:	10200073          	sret

0000000041010024 <trap_handler_s___CLEAR_STI>:
    41010024:	02000293          	li	x5,32
    41010028:	1442b073          	csrc	sip,x5
    4101002c:	10200073          	sret

0000000041010030 <trap_handler_s___CLEAR_MTI>:
    41010030:	08000293          	li	x5,128
    41010034:	1442b073          	csrc	sip,x5
    41010038:	10200073          	sret

000000004101003c <trap_handler_s___CLEAR_SEI>:
    4101003c:	20000293          	li	x5,512
    41010040:	1442b073          	csrc	sip,x5
    41010044:	10200073          	sret

0000000041010048 <trap_handler_s___CLEAR_MEI>:
    41010048:	000012b7          	lui	x5,0x1
    4101004c:	8002829b          	addiw	x5,x5,-2048 # 800 <XLEN+0x7c0>
    41010050:	1442b073          	csrc	sip,x5
    41010054:	10200073          	sret

0000000041010058 <trap_handler_s___CLEAR_COI>:
    41010058:	000022b7          	lui	x5,0x2
    4101005c:	1442b073          	csrc	sip,x5
    41010060:	10200073          	sret

0000000041010064 <trap_handler_s__clear_highest_priority_interrupt>:
    41010064:	144022f3          	csrr	x5,sip
    41010068:	40500333          	neg	x6,x5
    4101006c:	0062f2b3          	and	x5,x5,x6
    41010070:	1442b073          	csrc	sip,x5
    41010074:	10200073          	sret

0000000041010078 <trap_handler_s__trap_entry>:
    41010078:	10c0006f          	j	41010184 <trap_handler_s__trap_handler>

000000004101007c <trap_handler_s__interrupt_vector_table>:
    4101007c:	f91ff06f          	j	4101000c <trap_handler_s___CLEAR_SSI>
    41010080:	f81ff06f          	j	41010000 <trap_handler_s__invalid_interrupt>
    41010084:	f95ff06f          	j	41010018 <trap_handler_s___CLEAR_MSI>
    41010088:	f79ff06f          	j	41010000 <trap_handler_s__invalid_interrupt>
    4101008c:	f99ff06f          	j	41010024 <trap_handler_s___CLEAR_STI>
    41010090:	f71ff06f          	j	41010000 <trap_handler_s__invalid_interrupt>
    41010094:	f9dff06f          	j	41010030 <trap_handler_s___CLEAR_MTI>
    41010098:	f69ff06f          	j	41010000 <trap_handler_s__invalid_interrupt>
    4101009c:	fa1ff06f          	j	4101003c <trap_handler_s___CLEAR_SEI>
    410100a0:	f61ff06f          	j	41010000 <trap_handler_s__invalid_interrupt>
    410100a4:	fa5ff06f          	j	41010048 <trap_handler_s___CLEAR_MEI>
    410100a8:	f59ff06f          	j	41010000 <trap_handler_s__invalid_interrupt>
    410100ac:	fadff06f          	j	41010058 <trap_handler_s___CLEAR_COI>
    410100b0:	f51ff06f          	j	41010000 <trap_handler_s__invalid_interrupt>
    410100b4:	f4dff06f          	j	41010000 <trap_handler_s__invalid_interrupt>
    410100b8:	fadff06f          	j	41010064 <trap_handler_s__clear_highest_priority_interrupt>
    410100bc:	fa9ff06f          	j	41010064 <trap_handler_s__clear_highest_priority_interrupt>
    410100c0:	fa5ff06f          	j	41010064 <trap_handler_s__clear_highest_priority_interrupt>
    410100c4:	fa1ff06f          	j	41010064 <trap_handler_s__clear_highest_priority_interrupt>
    410100c8:	f9dff06f          	j	41010064 <trap_handler_s__clear_highest_priority_interrupt>
    410100cc:	f99ff06f          	j	41010064 <trap_handler_s__clear_highest_priority_interrupt>
    410100d0:	f95ff06f          	j	41010064 <trap_handler_s__clear_highest_priority_interrupt>
    410100d4:	f91ff06f          	j	41010064 <trap_handler_s__clear_highest_priority_interrupt>
    410100d8:	f8dff06f          	j	41010064 <trap_handler_s__clear_highest_priority_interrupt>
    410100dc:	f89ff06f          	j	41010064 <trap_handler_s__clear_highest_priority_interrupt>
    410100e0:	f85ff06f          	j	41010064 <trap_handler_s__clear_highest_priority_interrupt>
    410100e4:	f81ff06f          	j	41010064 <trap_handler_s__clear_highest_priority_interrupt>
    410100e8:	f7dff06f          	j	41010064 <trap_handler_s__clear_highest_priority_interrupt>
    410100ec:	f79ff06f          	j	41010064 <trap_handler_s__clear_highest_priority_interrupt>
    410100f0:	f75ff06f          	j	41010064 <trap_handler_s__clear_highest_priority_interrupt>
    410100f4:	f71ff06f          	j	41010064 <trap_handler_s__clear_highest_priority_interrupt>
    410100f8:	f6dff06f          	j	41010064 <trap_handler_s__clear_highest_priority_interrupt>
    410100fc:	f69ff06f          	j	41010064 <trap_handler_s__clear_highest_priority_interrupt>
    41010100:	f65ff06f          	j	41010064 <trap_handler_s__clear_highest_priority_interrupt>
    41010104:	f61ff06f          	j	41010064 <trap_handler_s__clear_highest_priority_interrupt>
    41010108:	f5dff06f          	j	41010064 <trap_handler_s__clear_highest_priority_interrupt>
    4101010c:	f59ff06f          	j	41010064 <trap_handler_s__clear_highest_priority_interrupt>
    41010110:	f55ff06f          	j	41010064 <trap_handler_s__clear_highest_priority_interrupt>
    41010114:	f51ff06f          	j	41010064 <trap_handler_s__clear_highest_priority_interrupt>
    41010118:	f4dff06f          	j	41010064 <trap_handler_s__clear_highest_priority_interrupt>
    4101011c:	f49ff06f          	j	41010064 <trap_handler_s__clear_highest_priority_interrupt>
    41010120:	f45ff06f          	j	41010064 <trap_handler_s__clear_highest_priority_interrupt>
    41010124:	f41ff06f          	j	41010064 <trap_handler_s__clear_highest_priority_interrupt>
    41010128:	f3dff06f          	j	41010064 <trap_handler_s__clear_highest_priority_interrupt>
    4101012c:	f39ff06f          	j	41010064 <trap_handler_s__clear_highest_priority_interrupt>
    41010130:	f35ff06f          	j	41010064 <trap_handler_s__clear_highest_priority_interrupt>
    41010134:	f31ff06f          	j	41010064 <trap_handler_s__clear_highest_priority_interrupt>
    41010138:	f2dff06f          	j	41010064 <trap_handler_s__clear_highest_priority_interrupt>
    4101013c:	f29ff06f          	j	41010064 <trap_handler_s__clear_highest_priority_interrupt>
    41010140:	f25ff06f          	j	41010064 <trap_handler_s__clear_highest_priority_interrupt>
    41010144:	f21ff06f          	j	41010064 <trap_handler_s__clear_highest_priority_interrupt>
    41010148:	f1dff06f          	j	41010064 <trap_handler_s__clear_highest_priority_interrupt>
    4101014c:	f19ff06f          	j	41010064 <trap_handler_s__clear_highest_priority_interrupt>
    41010150:	f15ff06f          	j	41010064 <trap_handler_s__clear_highest_priority_interrupt>
    41010154:	f11ff06f          	j	41010064 <trap_handler_s__clear_highest_priority_interrupt>
    41010158:	f0dff06f          	j	41010064 <trap_handler_s__clear_highest_priority_interrupt>
    4101015c:	f09ff06f          	j	41010064 <trap_handler_s__clear_highest_priority_interrupt>
    41010160:	f05ff06f          	j	41010064 <trap_handler_s__clear_highest_priority_interrupt>
    41010164:	f01ff06f          	j	41010064 <trap_handler_s__clear_highest_priority_interrupt>
    41010168:	efdff06f          	j	41010064 <trap_handler_s__clear_highest_priority_interrupt>
    4101016c:	ef9ff06f          	j	41010064 <trap_handler_s__clear_highest_priority_interrupt>
    41010170:	ef5ff06f          	j	41010064 <trap_handler_s__clear_highest_priority_interrupt>

0000000041010174 <trap_handler_s__test_failed>:
    41010174:	00f00f9b          	addiw	x31,x0,15
    41010178:	01cf9f93          	slli	x31,x31,0x1c
    4101017c:	002f8f93          	addi	x31,x31,2
    41010180:	00000073          	ecall

0000000041010184 <trap_handler_s__trap_handler>:
    41010184:	142022f3          	csrr	x5,scause
    41010188:	fff0031b          	addiw	x6,x0,-1
    4101018c:	03f31313          	slli	x6,x6,0x3f
    41010190:	00537333          	and	x6,x6,x5
    41010194:	02030263          	beqz	x6,410101b8 <trap_handler_s__exception_path>

0000000041010198 <trap_handler_s__interrupt_handler>:
    41010198:	fff0031b          	addiw	x6,x0,-1
    4101019c:	03f31313          	slli	x6,x6,0x3f
    410101a0:	0062c2b3          	xor	x5,x5,x6
    410101a4:	00000317          	auipc	x6,0x0
    410101a8:	ed430313          	addi	x6,x6,-300 # 41010078 <trap_handler_s__trap_entry>
    410101ac:	00229293          	slli	x5,x5,0x2
    410101b0:	005302b3          	add	x5,x6,x5
    410101b4:	00028067          	jr	x5 # 2000 <mem6__pt_level1>

00000000410101b8 <trap_handler_s__exception_path>:
    410101b8:	14021273          	csrrw	x4,sscratch,x4
    410101bc:	00000297          	auipc	x5,0x0
    410101c0:	0cc28293          	addi	x5,x5,204 # 41010288 <trap_handler_s__trap_panic>
    410101c4:	10529073          	csrw	stvec,x5
    410101c8:	0040006f          	j	410101cc <trap_handler_s__excp_entry>

00000000410101cc <trap_handler_s__excp_entry>:
    410101cc:	14202373          	csrr	x6,scause
    410101d0:	00800293          	li	x5,8
    410101d4:	00534863          	blt	x6,x5,410101e4 <trap_handler_s__check_exception_label>
    410101d8:	00b00293          	li	x5,11
    410101dc:	0062c463          	blt	x5,x6,410101e4 <trap_handler_s__check_exception_label>
    410101e0:	0a80006f          	j	41010288 <trap_handler_s__trap_panic>

00000000410101e4 <trap_handler_s__check_exception_label>:
    410101e4:	04623c23          	sd	x6,88(x4) # 58 <XLEN+0x18>
    410101e8:	141022f3          	csrr	x5,sepc
    410101ec:	02523423          	sd	x5,40(x4) # 28 <SECURE_ACCESS_PROBABILITY+0xa>
    410101f0:	01820283          	lb	x5,24(x4) # 18 <STORE_GUEST_PAGE_FAULT+0x1>
    410101f4:	00029863          	bnez	x5,41010204 <trap_handler_s__check_excp>
    410101f8:	00128293          	addi	x5,x5,1
    410101fc:	00520c23          	sb	x5,24(x4) # 18 <STORE_GUEST_PAGE_FAULT+0x1>
    41010200:	05c0006f          	j	4101025c <trap_handler_s__ecall_from_machine>

0000000041010204 <trap_handler_s__check_excp>:
    41010204:	06823283          	ld	x5,104(x4) # 68 <XLEN+0x28>
    41010208:	06023423          	sd	x0,104(x4) # 68 <XLEN+0x28>
    4101020c:	00028663          	beqz	x5,41010218 <trap_handler_s__skip_mode_check>
    41010210:	00300393          	li	x7,3
    41010214:	f67290e3          	bne	x5,x7,41010174 <trap_handler_s__test_failed>

0000000041010218 <trap_handler_s__skip_mode_check>:
    41010218:	05023283          	ld	x5,80(x4) # 50 <XLEN+0x10>
    4101021c:	04023823          	sd	x0,80(x4) # 50 <XLEN+0x10>
    41010220:	f4531ae3          	bne	x6,x5,41010174 <trap_handler_s__test_failed>
    41010224:	03823283          	ld	x5,56(x4) # 38 <SECURE_ACCESS_PROBABILITY+0x1a>
    41010228:	02023c23          	sd	x0,56(x4) # 38 <SECURE_ACCESS_PROBABILITY+0x1a>
    4101022c:	02029663          	bnez	x5,41010258 <trap_handler_s__skip_nonzero_tval_check>
    41010230:	02023303          	ld	x6,32(x4) # 20 <SECURE_ACCESS_PROBABILITY+0x2>
    41010234:	02023023          	sd	x0,32(x4) # 20 <SECURE_ACCESS_PROBABILITY+0x2>
    41010238:	02823283          	ld	x5,40(x4) # 28 <SECURE_ACCESS_PROBABILITY+0xa>
    4101023c:	02023423          	sd	x0,40(x4) # 28 <SECURE_ACCESS_PROBABILITY+0xa>
    41010240:	f2531ae3          	bne	x6,x5,41010174 <trap_handler_s__test_failed>
    41010244:	04023283          	ld	x5,64(x4) # 40 <XLEN>
    41010248:	04023023          	sd	x0,64(x4) # 40 <XLEN>
    4101024c:	00028663          	beqz	x5,41010258 <trap_handler_s__skip_nonzero_tval_check>

0000000041010250 <trap_handler_s__nonzero_tval_check>:
    41010250:	14302373          	csrr	x6,stval
    41010254:	f25310e3          	bne	x6,x5,41010174 <trap_handler_s__test_failed>

0000000041010258 <trap_handler_s__skip_nonzero_tval_check>:
    41010258:	0040006f          	j	4101025c <trap_handler_s__ecall_from_machine>

000000004101025c <trap_handler_s__ecall_from_machine>:
    4101025c:	03023283          	ld	x5,48(x4) # 30 <SECURE_ACCESS_PROBABILITY+0x12>
    41010260:	02023823          	sd	x0,48(x4) # 30 <SECURE_ACCESS_PROBABILITY+0x12>
    41010264:	07023303          	ld	x6,112(x4) # 70 <XLEN+0x30>
    41010268:	06023823          	sd	x0,112(x4) # 70 <XLEN+0x30>
    4101026c:	00031463          	bnez	x6,41010274 <trap_handler_s__skip_xepc_write>
    41010270:	14129073          	csrw	sepc,x5

0000000041010274 <trap_handler_s__skip_xepc_write>:
    41010274:	00000317          	auipc	x6,0x0
    41010278:	e0430313          	addi	x6,x6,-508 # 41010078 <trap_handler_s__trap_entry>
    4101027c:	10531073          	csrw	stvec,x6
    41010280:	14021273          	csrrw	x4,sscratch,x4
    41010284:	10200073          	sret

0000000041010288 <trap_handler_s__trap_panic>:
    41010288:	00000193          	li	x3,0
    4101028c:	00f00f9b          	addiw	x31,x0,15
    41010290:	01cf9f93          	slli	x31,x31,0x1c
    41010294:	002f8f93          	addi	x31,x31,2
    41010298:	00000073          	ecall

Disassembly of section .code:

0000000041014090 <passed>:
    41014090:	00f00f9b          	addiw	x31,x0,15
    41014094:	01cf9f93          	slli	x31,x31,0x1c
    41014098:	001f8f93          	addi	x31,x31,1
    4101409c:	00000073          	ecall

00000000410140a0 <failed>:
    410140a0:	00f00f9b          	addiw	x31,x0,15
    410140a4:	01cf9f93          	slli	x31,x31,0x1c
    410140a8:	002f8f93          	addi	x31,x31,2
    410140ac:	00000073          	ecall

00000000410140b0 <end_test>:
    410140b0:	00f00f9b          	addiw	x31,x0,15
    410140b4:	01cf9f93          	slli	x31,x31,0x1c
    410140b8:	003f8f93          	addi	x31,x31,3
    410140bc:	00000073          	ecall

00000000410140c0 <test_setup>:
    410140c0:	00f00f9b          	addiw	x31,x0,15
    410140c4:	01cf9f93          	slli	x31,x31,0x1c
    410140c8:	001f8f93          	addi	x31,x31,1
    410140cc:	00000073          	ecall

00000000410140d0 <SID_SVNAPOT_00_LOAD>:
    410140d0:	0ef53137          	lui	x2,0xef53
    410140d4:	5771011b          	addiw	x2,x2,1399 # ef53577 <mem6__pt_level2+0x1b0a577>
    410140d8:	00c11113          	slli	x2,x2,0xc
    410140dc:	02d10113          	addi	x2,x2,45
    410140e0:	00c11113          	slli	x2,x2,0xc
    410140e4:	000012b7          	lui	x5,0x1
    410140e8:	00510133          	add	x2,x2,x5
    410140ec:	ff017113          	andi	x2,x2,-16
    410140f0:	0ef5afb7          	lui	x31,0xef5a
    410140f4:	0b0f8f9b          	addiw	x31,x31,176 # ef5a0b0 <pte_access_flags>
    410140f8:	0150029b          	addiw	x5,x0,21
    410140fc:	03029293          	slli	x5,x5,0x30
    41014100:	005fb023          	sd	x5,0(x31)
    41014104:	00400293          	li	x5,4
    41014108:	005fb423          	sd	x5,8(x31)
    4101410c:	fff00293          	li	x5,-1
    41014110:	005fb823          	sd	x5,16(x31)
    41014114:	000f0fb7          	lui	x31,0xf0
    41014118:	001f8f9b          	addiw	x31,x31,1 # f0001 <mem7__pt_level3+0x5001>
    4101411c:	00cf9f93          	slli	x31,x31,0xc
    41014120:	007f8f93          	addi	x31,x31,7
    41014124:	00000073          	ecall
    41014128:	00038813          	mv	x16,x7
    4101412c:	0010051b          	addiw	x10,x0,1
    41014130:	03151513          	slli	x10,x10,0x31
    41014134:	fff50513          	addi	x10,x10,-1
    41014138:	00e51513          	slli	x10,x10,0xe
    4101413c:	3ff50513          	addi	x10,x10,1023
    41014140:	00a87c33          	and	x24,x16,x10
    41014144:	00002bb7          	lui	x23,0x2
    41014148:	017c6d33          	or	x26,x24,x23
    4101414c:	000d0393          	mv	x7,x26
    41014150:	0ef5afb7          	lui	x31,0xef5a
    41014154:	0b0f8f9b          	addiw	x31,x31,176 # ef5a0b0 <pte_access_flags>
    41014158:	0150029b          	addiw	x5,x0,21
    4101415c:	03029293          	slli	x5,x5,0x30
    41014160:	005fb023          	sd	x5,0(x31)
    41014164:	00400293          	li	x5,4
    41014168:	005fb423          	sd	x5,8(x31)
    4101416c:	fff00293          	li	x5,-1
    41014170:	005fb823          	sd	x5,16(x31)
    41014174:	000f0fb7          	lui	x31,0xf0
    41014178:	001f8f9b          	addiw	x31,x31,1 # f0001 <mem7__pt_level3+0x5001>
    4101417c:	00cf9f93          	slli	x31,x31,0xc
    41014180:	008f8f93          	addi	x31,x31,8
    41014184:	00000073          	ecall
    41014188:	12000073          	sfence.vma
    4101418c:	0150051b          	addiw	x10,x0,21
    41014190:	03051513          	slli	x10,x10,0x30
    41014194:	00054a83          	lbu	x21,0(x10)
    41014198:	00080393          	mv	x7,x16
    4101419c:	0ef5afb7          	lui	x31,0xef5a
    410141a0:	0b0f8f9b          	addiw	x31,x31,176 # ef5a0b0 <pte_access_flags>
    410141a4:	0150029b          	addiw	x5,x0,21
    410141a8:	03029293          	slli	x5,x5,0x30
    410141ac:	005fb023          	sd	x5,0(x31)
    410141b0:	00400293          	li	x5,4
    410141b4:	005fb423          	sd	x5,8(x31)
    410141b8:	fff00293          	li	x5,-1
    410141bc:	005fb823          	sd	x5,16(x31)
    410141c0:	000f0fb7          	lui	x31,0xf0
    410141c4:	001f8f9b          	addiw	x31,x31,1 # f0001 <mem7__pt_level3+0x5001>
    410141c8:	00cf9f93          	slli	x31,x31,0xc
    410141cc:	008f8f93          	addi	x31,x31,8
    410141d0:	00000073          	ecall
    410141d4:	12000073          	sfence.vma

00000000410141d8 <SID_SVNAPOT_00_LOAD_passed>:
    410141d8:	00f00f9b          	addiw	x31,x0,15
    410141dc:	01cf9f93          	slli	x31,x31,0x1c
    410141e0:	001f8f93          	addi	x31,x31,1
    410141e4:	00000073          	ecall

00000000410141e8 <SID_SVNAPOT_00_STORE>:
    410141e8:	16d13137          	lui	x2,0x16d13
    410141ec:	000012b7          	lui	x5,0x1
    410141f0:	00510133          	add	x2,x2,x5
    410141f4:	ff017113          	andi	x2,x2,-16
    410141f8:	0ef5afb7          	lui	x31,0xef5a
    410141fc:	0b0f8f9b          	addiw	x31,x31,176 # ef5a0b0 <pte_access_flags>
    41014200:	0010029b          	addiw	x5,x0,1
    41014204:	03229293          	slli	x5,x5,0x32
    41014208:	005fb023          	sd	x5,0(x31)
    4101420c:	00400293          	li	x5,4
    41014210:	005fb423          	sd	x5,8(x31)
    41014214:	fff00293          	li	x5,-1
    41014218:	005fb823          	sd	x5,16(x31)
    4101421c:	000f0fb7          	lui	x31,0xf0
    41014220:	001f8f9b          	addiw	x31,x31,1 # f0001 <mem7__pt_level3+0x5001>
    41014224:	00cf9f93          	slli	x31,x31,0xc
    41014228:	007f8f93          	addi	x31,x31,7
    4101422c:	00000073          	ecall
    41014230:	00038b93          	mv	x23,x7
    41014234:	0010031b          	addiw	x6,x0,1
    41014238:	03131313          	slli	x6,x6,0x31
    4101423c:	fff30313          	addi	x6,x6,-1
    41014240:	00e31313          	slli	x6,x6,0xe
    41014244:	3ff30313          	addi	x6,x6,1023
    41014248:	006bfa33          	and	x20,x23,x6
    4101424c:	00002b37          	lui	x22,0x2
    41014250:	016a6f33          	or	x30,x20,x22
    41014254:	000f0393          	mv	x7,x30
    41014258:	0ef5afb7          	lui	x31,0xef5a
    4101425c:	0b0f8f9b          	addiw	x31,x31,176 # ef5a0b0 <pte_access_flags>
    41014260:	0010029b          	addiw	x5,x0,1
    41014264:	03229293          	slli	x5,x5,0x32
    41014268:	005fb023          	sd	x5,0(x31)
    4101426c:	00400293          	li	x5,4
    41014270:	005fb423          	sd	x5,8(x31)
    41014274:	fff00293          	li	x5,-1
    41014278:	005fb823          	sd	x5,16(x31)
    4101427c:	000f0fb7          	lui	x31,0xf0
    41014280:	001f8f9b          	addiw	x31,x31,1 # f0001 <mem7__pt_level3+0x5001>
    41014284:	00cf9f93          	slli	x31,x31,0xc
    41014288:	008f8f93          	addi	x31,x31,8
    4101428c:	00000073          	ecall
    41014290:	12000073          	sfence.vma
    41014294:	0010039b          	addiw	x7,x0,1
    41014298:	03239393          	slli	x7,x7,0x32
    4101429c:	18073437          	lui	x8,0x18073
    410142a0:	e8f4041b          	addiw	x8,x8,-369 # 18072e8f <SID_SVNAPOT_00_STORE_stack+0x135fe8f>
    410142a4:	0083b023          	sd	x8,0(x7)
    410142a8:	000b8393          	mv	x7,x23
    410142ac:	0ef5afb7          	lui	x31,0xef5a
    410142b0:	0b0f8f9b          	addiw	x31,x31,176 # ef5a0b0 <pte_access_flags>
    410142b4:	0010029b          	addiw	x5,x0,1
    410142b8:	03229293          	slli	x5,x5,0x32
    410142bc:	005fb023          	sd	x5,0(x31)
    410142c0:	00400293          	li	x5,4
    410142c4:	005fb423          	sd	x5,8(x31)
    410142c8:	fff00293          	li	x5,-1
    410142cc:	005fb823          	sd	x5,16(x31)
    410142d0:	000f0fb7          	lui	x31,0xf0
    410142d4:	001f8f9b          	addiw	x31,x31,1 # f0001 <mem7__pt_level3+0x5001>
    410142d8:	00cf9f93          	slli	x31,x31,0xc
    410142dc:	008f8f93          	addi	x31,x31,8
    410142e0:	00000073          	ecall
    410142e4:	12000073          	sfence.vma

00000000410142e8 <SID_SVNAPOT_00_STORE_passed>:
    410142e8:	00f00f9b          	addiw	x31,x0,15
    410142ec:	01cf9f93          	slli	x31,x31,0x1c
    410142f0:	001f8f93          	addi	x31,x31,1
    410142f4:	00000073          	ecall

00000000410142f8 <SID_SVNAPOT_00_AMO>:
    410142f8:	06333137          	lui	x2,0x6333
    410142fc:	a591011b          	addiw	x2,x2,-1447 # 6332a59 <mem9__pt_level2+0xb3aa59>
    41014300:	00c11113          	slli	x2,x2,0xc
    41014304:	000012b7          	lui	x5,0x1
    41014308:	00510133          	add	x2,x2,x5
    4101430c:	ff017113          	andi	x2,x2,-16
    41014310:	0ef5afb7          	lui	x31,0xef5a
    41014314:	0b0f8f9b          	addiw	x31,x31,176 # ef5a0b0 <pte_access_flags>
    41014318:	0290029b          	addiw	x5,x0,41
    4101431c:	03229293          	slli	x5,x5,0x32
    41014320:	005fb023          	sd	x5,0(x31)
    41014324:	00400293          	li	x5,4
    41014328:	005fb423          	sd	x5,8(x31)
    4101432c:	fff00293          	li	x5,-1
    41014330:	005fb823          	sd	x5,16(x31)
    41014334:	000f0fb7          	lui	x31,0xf0
    41014338:	001f8f9b          	addiw	x31,x31,1 # f0001 <mem7__pt_level3+0x5001>
    4101433c:	00cf9f93          	slli	x31,x31,0xc
    41014340:	007f8f93          	addi	x31,x31,7
    41014344:	00000073          	ecall
    41014348:	00038b13          	mv	x22,x7
    4101434c:	0010079b          	addiw	x15,x0,1
    41014350:	03179793          	slli	x15,x15,0x31
    41014354:	fff78793          	addi	x15,x15,-1
    41014358:	00e79793          	slli	x15,x15,0xe
    4101435c:	3ff78793          	addi	x15,x15,1023
    41014360:	00fb73b3          	and	x7,x22,x15
    41014364:	00002737          	lui	x14,0x2
    41014368:	00e3ee33          	or	x28,x7,x14
    4101436c:	000e0393          	mv	x7,x28
    41014370:	0ef5afb7          	lui	x31,0xef5a
    41014374:	0b0f8f9b          	addiw	x31,x31,176 # ef5a0b0 <pte_access_flags>
    41014378:	0290029b          	addiw	x5,x0,41
    4101437c:	03229293          	slli	x5,x5,0x32
    41014380:	005fb023          	sd	x5,0(x31)
    41014384:	00400293          	li	x5,4
    41014388:	005fb423          	sd	x5,8(x31)
    4101438c:	fff00293          	li	x5,-1
    41014390:	005fb823          	sd	x5,16(x31)
    41014394:	000f0fb7          	lui	x31,0xf0
    41014398:	001f8f9b          	addiw	x31,x31,1 # f0001 <mem7__pt_level3+0x5001>
    4101439c:	00cf9f93          	slli	x31,x31,0xc
    410143a0:	008f8f93          	addi	x31,x31,8
    410143a4:	00000073          	ecall
    410143a8:	12000073          	sfence.vma
    410143ac:	0290051b          	addiw	x10,x0,41
    410143b0:	03251513          	slli	x10,x10,0x32
    410143b4:	00000a13          	li	x20,0
    410143b8:	01450333          	add	x6,x10,x20
    410143bc:	0803242f          	amoswap.w	x8,x0,(x6)
    410143c0:	000b0393          	mv	x7,x22
    410143c4:	0ef5afb7          	lui	x31,0xef5a
    410143c8:	0b0f8f9b          	addiw	x31,x31,176 # ef5a0b0 <pte_access_flags>
    410143cc:	0290029b          	addiw	x5,x0,41
    410143d0:	03229293          	slli	x5,x5,0x32
    410143d4:	005fb023          	sd	x5,0(x31)
    410143d8:	00400293          	li	x5,4
    410143dc:	005fb423          	sd	x5,8(x31)
    410143e0:	fff00293          	li	x5,-1
    410143e4:	005fb823          	sd	x5,16(x31)
    410143e8:	000f0fb7          	lui	x31,0xf0
    410143ec:	001f8f9b          	addiw	x31,x31,1 # f0001 <mem7__pt_level3+0x5001>
    410143f0:	00cf9f93          	slli	x31,x31,0xc
    410143f4:	008f8f93          	addi	x31,x31,8
    410143f8:	00000073          	ecall
    410143fc:	12000073          	sfence.vma

0000000041014400 <SID_SVNAPOT_00_AMO_passed>:
    41014400:	00f00f9b          	addiw	x31,x0,15
    41014404:	01cf9f93          	slli	x31,x31,0x1c
    41014408:	001f8f93          	addi	x31,x31,1
    4101440c:	00000073          	ecall

0000000041014410 <SID_SVNAPOT_00_LRSC>:
    41014410:	00054137          	lui	x2,0x54
    41014414:	eeb1011b          	addiw	x2,x2,-277 # 53eeb <pma_region_0_size+0x13eeb>
    41014418:	01011113          	slli	x2,x2,0x10
    4101441c:	000012b7          	lui	x5,0x1
    41014420:	00510133          	add	x2,x2,x5
    41014424:	ff017113          	andi	x2,x2,-16
    41014428:	0ef5afb7          	lui	x31,0xef5a
    4101442c:	0b0f8f9b          	addiw	x31,x31,176 # ef5a0b0 <pte_access_flags>
    41014430:	0690029b          	addiw	x5,x0,105
    41014434:	03029293          	slli	x5,x5,0x30
    41014438:	005fb023          	sd	x5,0(x31)
    4101443c:	00400293          	li	x5,4
    41014440:	005fb423          	sd	x5,8(x31)
    41014444:	fff00293          	li	x5,-1
    41014448:	005fb823          	sd	x5,16(x31)
    4101444c:	000f0fb7          	lui	x31,0xf0
    41014450:	001f8f9b          	addiw	x31,x31,1 # f0001 <mem7__pt_level3+0x5001>
    41014454:	00cf9f93          	slli	x31,x31,0xc
    41014458:	007f8f93          	addi	x31,x31,7
    4101445c:	00000073          	ecall
    41014460:	00038413          	mv	x8,x7
    41014464:	00100e1b          	addiw	x28,x0,1
    41014468:	031e1e13          	slli	x28,x28,0x31
    4101446c:	fffe0e13          	addi	x28,x28,-1
    41014470:	00ee1e13          	slli	x28,x28,0xe
    41014474:	3ffe0e13          	addi	x28,x28,1023
    41014478:	01c47cb3          	and	x25,x8,x28
    4101447c:	00002337          	lui	x6,0x2
    41014480:	006ceab3          	or	x21,x25,x6
    41014484:	000a8393          	mv	x7,x21
    41014488:	0ef5afb7          	lui	x31,0xef5a
    4101448c:	0b0f8f9b          	addiw	x31,x31,176 # ef5a0b0 <pte_access_flags>
    41014490:	0690029b          	addiw	x5,x0,105
    41014494:	03029293          	slli	x5,x5,0x30
    41014498:	005fb023          	sd	x5,0(x31)
    4101449c:	00400293          	li	x5,4
    410144a0:	005fb423          	sd	x5,8(x31)
    410144a4:	fff00293          	li	x5,-1
    410144a8:	005fb823          	sd	x5,16(x31)
    410144ac:	000f0fb7          	lui	x31,0xf0
    410144b0:	001f8f9b          	addiw	x31,x31,1 # f0001 <mem7__pt_level3+0x5001>
    410144b4:	00cf9f93          	slli	x31,x31,0xc
    410144b8:	008f8f93          	addi	x31,x31,8
    410144bc:	00000073          	ecall
    410144c0:	12000073          	sfence.vma
    410144c4:	06900c9b          	addiw	x25,x0,105
    410144c8:	030c9c93          	slli	x25,x25,0x30
    410144cc:	00000793          	li	x15,0
    410144d0:	00fc8c33          	add	x24,x25,x15
    410144d4:	100c27af          	lr.w	x15,(x24)
    410144d8:	0690049b          	addiw	x9,x0,105
    410144dc:	03049493          	slli	x9,x9,0x30
    410144e0:	00000f93          	li	x31,0
    410144e4:	01f48933          	add	x18,x9,x31
    410144e8:	1809292f          	sc.w	x18,x0,(x18)
    410144ec:	00040393          	mv	x7,x8
    410144f0:	0ef5afb7          	lui	x31,0xef5a
    410144f4:	0b0f8f9b          	addiw	x31,x31,176 # ef5a0b0 <pte_access_flags>
    410144f8:	0690029b          	addiw	x5,x0,105
    410144fc:	03029293          	slli	x5,x5,0x30
    41014500:	005fb023          	sd	x5,0(x31)
    41014504:	00400293          	li	x5,4
    41014508:	005fb423          	sd	x5,8(x31)
    4101450c:	fff00293          	li	x5,-1
    41014510:	005fb823          	sd	x5,16(x31)
    41014514:	000f0fb7          	lui	x31,0xf0
    41014518:	001f8f9b          	addiw	x31,x31,1 # f0001 <mem7__pt_level3+0x5001>
    4101451c:	00cf9f93          	slli	x31,x31,0xc
    41014520:	008f8f93          	addi	x31,x31,8
    41014524:	00000073          	ecall
    41014528:	12000073          	sfence.vma

000000004101452c <SID_SVNAPOT_00_LRSC_passed>:
    4101452c:	00f00f9b          	addiw	x31,x0,15
    41014530:	01cf9f93          	slli	x31,x31,0x1c
    41014534:	001f8f93          	addi	x31,x31,1
    41014538:	00000073          	ecall

000000004101453c <SID_SVNAPOT_01_LOAD>:
    4101453c:	038cd137          	lui	x2,0x38cd
    41014540:	80f1011b          	addiw	x2,x2,-2033 # 38cc80f <mem4__pt_level4+0x100f7df>
    41014544:	00d11113          	slli	x2,x2,0xd
    41014548:	000012b7          	lui	x5,0x1
    4101454c:	00510133          	add	x2,x2,x5
    41014550:	ff017113          	andi	x2,x2,-16
    41014554:	0ef5afb7          	lui	x31,0xef5a
    41014558:	0b0f8f9b          	addiw	x31,x31,176 # ef5a0b0 <pte_access_flags>
    4101455c:	0030029b          	addiw	x5,x0,3
    41014560:	03129293          	slli	x5,x5,0x31
    41014564:	005fb023          	sd	x5,0(x31)
    41014568:	00400293          	li	x5,4
    4101456c:	005fb423          	sd	x5,8(x31)
    41014570:	fff00293          	li	x5,-1
    41014574:	005fb823          	sd	x5,16(x31)
    41014578:	000f0fb7          	lui	x31,0xf0
    4101457c:	001f8f9b          	addiw	x31,x31,1 # f0001 <mem7__pt_level3+0x5001>
    41014580:	00cf9f93          	slli	x31,x31,0xc
    41014584:	007f8f93          	addi	x31,x31,7
    41014588:	00000073          	ecall
    4101458c:	00038b93          	mv	x23,x7
    41014590:	00100c9b          	addiw	x25,x0,1
    41014594:	031c9c93          	slli	x25,x25,0x31
    41014598:	fffc8c93          	addi	x25,x25,-1
    4101459c:	00ec9c93          	slli	x25,x25,0xe
    410145a0:	3ffc8c93          	addi	x25,x25,1023
    410145a4:	019bf733          	and	x14,x23,x25
    410145a8:	fff0099b          	addiw	x19,x0,-1
    410145ac:	03f99993          	slli	x19,x19,0x3f
    410145b0:	013767b3          	or	x15,x14,x19
    410145b4:	00078393          	mv	x7,x15
    410145b8:	0ef5afb7          	lui	x31,0xef5a
    410145bc:	0b0f8f9b          	addiw	x31,x31,176 # ef5a0b0 <pte_access_flags>
    410145c0:	0030029b          	addiw	x5,x0,3
    410145c4:	03129293          	slli	x5,x5,0x31
    410145c8:	005fb023          	sd	x5,0(x31)
    410145cc:	00400293          	li	x5,4
    410145d0:	005fb423          	sd	x5,8(x31)
    410145d4:	fff00293          	li	x5,-1
    410145d8:	005fb823          	sd	x5,16(x31)
    410145dc:	000f0fb7          	lui	x31,0xf0
    410145e0:	001f8f9b          	addiw	x31,x31,1 # f0001 <mem7__pt_level3+0x5001>
    410145e4:	00cf9f93          	slli	x31,x31,0xc
    410145e8:	008f8f93          	addi	x31,x31,8
    410145ec:	00000073          	ecall
    410145f0:	12000073          	sfence.vma
    410145f4:	0e5ea237          	lui	x4,0xe5ea
    410145f8:	faf2021b          	addiw	x4,x4,-81 # e5e9faf <mem6__pt_level2+0x11a0faf>
    410145fc:	00f21213          	slli	x4,x4,0xf
    41014600:	00d00e13          	li	x28,13
    41014604:	05c23823          	sd	x28,80(x4) # 50 <XLEN+0x10>
    41014608:	00000e17          	auipc	x28,0x0
    4101460c:	050e0e13          	addi	x28,x28,80 # 41014658 <fault_label_0>
    41014610:	03c23023          	sd	x28,32(x4) # 20 <SECURE_ACCESS_PROBABILITY+0x2>
    41014614:	00000e13          	li	x28,0
    41014618:	05c23023          	sd	x28,64(x4) # 40 <XLEN>
    4101461c:	00000e13          	li	x28,0
    41014620:	05c23423          	sd	x28,72(x4) # 48 <XLEN+0x8>
    41014624:	00000e17          	auipc	x28,0x0
    41014628:	048e0e13          	addi	x28,x28,72 # 4101466c <excp_return_label_0>
    4101462c:	03c23823          	sd	x28,48(x4) # 30 <SECURE_ACCESS_PROBABILITY+0x12>
    41014630:	00000e13          	li	x28,0
    41014634:	03c23c23          	sd	x28,56(x4) # 38 <SECURE_ACCESS_PROBABILITY+0x1a>
    41014638:	00000e13          	li	x28,0
    4101463c:	07c23023          	sd	x28,96(x4) # 60 <XLEN+0x20>
    41014640:	00000e13          	li	x28,0
    41014644:	07c23423          	sd	x28,104(x4) # 68 <XLEN+0x28>
    41014648:	00000e13          	li	x28,0
    4101464c:	07c23823          	sd	x28,112(x4) # 70 <XLEN+0x30>
    41014650:	0030071b          	addiw	x14,x0,3
    41014654:	03171713          	slli	x14,x14,0x31

0000000041014658 <fault_label_0>:
    41014658:	00073407          	fld	f8,0(x14) # 2000 <mem6__pt_level1>
    4101465c:	0ef5a737          	lui	x14,0xef5a
    41014660:	0087071b          	addiw	x14,x14,8 # ef5a008 <failed_addr>
    41014664:	00073d03          	ld	x26,0(x14)
    41014668:	000d0067          	jr	x26

000000004101466c <excp_return_label_0>:
    4101466c:	000b8393          	mv	x7,x23
    41014670:	0ef5afb7          	lui	x31,0xef5a
    41014674:	0b0f8f9b          	addiw	x31,x31,176 # ef5a0b0 <pte_access_flags>
    41014678:	0030029b          	addiw	x5,x0,3
    4101467c:	03129293          	slli	x5,x5,0x31
    41014680:	005fb023          	sd	x5,0(x31)
    41014684:	00400293          	li	x5,4
    41014688:	005fb423          	sd	x5,8(x31)
    4101468c:	fff00293          	li	x5,-1
    41014690:	005fb823          	sd	x5,16(x31)
    41014694:	000f0fb7          	lui	x31,0xf0
    41014698:	001f8f9b          	addiw	x31,x31,1 # f0001 <mem7__pt_level3+0x5001>
    4101469c:	00cf9f93          	slli	x31,x31,0xc
    410146a0:	008f8f93          	addi	x31,x31,8
    410146a4:	00000073          	ecall
    410146a8:	12000073          	sfence.vma

00000000410146ac <SID_SVNAPOT_01_LOAD_passed>:
    410146ac:	00f00f9b          	addiw	x31,x0,15
    410146b0:	01cf9f93          	slli	x31,x31,0x1c
    410146b4:	001f8f93          	addi	x31,x31,1
    410146b8:	00000073          	ecall

00000000410146bc <SID_SVNAPOT_01_STORE>:
    410146bc:	01528137          	lui	x2,0x1528
    410146c0:	000012b7          	lui	x5,0x1
    410146c4:	00510133          	add	x2,x2,x5
    410146c8:	ff017113          	andi	x2,x2,-16
    410146cc:	0ef5afb7          	lui	x31,0xef5a
    410146d0:	0b0f8f9b          	addiw	x31,x31,176 # ef5a0b0 <pte_access_flags>
    410146d4:	0030029b          	addiw	x5,x0,3
    410146d8:	03429293          	slli	x5,x5,0x34
    410146dc:	005fb023          	sd	x5,0(x31)
    410146e0:	00400293          	li	x5,4
    410146e4:	005fb423          	sd	x5,8(x31)
    410146e8:	fff00293          	li	x5,-1
    410146ec:	005fb823          	sd	x5,16(x31)
    410146f0:	000f0fb7          	lui	x31,0xf0
    410146f4:	001f8f9b          	addiw	x31,x31,1 # f0001 <mem7__pt_level3+0x5001>
    410146f8:	00cf9f93          	slli	x31,x31,0xc
    410146fc:	007f8f93          	addi	x31,x31,7
    41014700:	00000073          	ecall
    41014704:	00038413          	mv	x8,x7
    41014708:	00100a9b          	addiw	x21,x0,1
    4101470c:	031a9a93          	slli	x21,x21,0x31
    41014710:	fffa8a93          	addi	x21,x21,-1
    41014714:	00ea9a93          	slli	x21,x21,0xe
    41014718:	3ffa8a93          	addi	x21,x21,1023
    4101471c:	01547d33          	and	x26,x8,x21
    41014720:	fff00f1b          	addiw	x30,x0,-1
    41014724:	03ff1f13          	slli	x30,x30,0x3f
    41014728:	01ed65b3          	or	x11,x26,x30
    4101472c:	00058393          	mv	x7,x11
    41014730:	0ef5afb7          	lui	x31,0xef5a
    41014734:	0b0f8f9b          	addiw	x31,x31,176 # ef5a0b0 <pte_access_flags>
    41014738:	0030029b          	addiw	x5,x0,3
    4101473c:	03429293          	slli	x5,x5,0x34
    41014740:	005fb023          	sd	x5,0(x31)
    41014744:	00400293          	li	x5,4
    41014748:	005fb423          	sd	x5,8(x31)
    4101474c:	fff00293          	li	x5,-1
    41014750:	005fb823          	sd	x5,16(x31)
    41014754:	000f0fb7          	lui	x31,0xf0
    41014758:	001f8f9b          	addiw	x31,x31,1 # f0001 <mem7__pt_level3+0x5001>
    4101475c:	00cf9f93          	slli	x31,x31,0xc
    41014760:	008f8f93          	addi	x31,x31,8
    41014764:	00000073          	ecall
    41014768:	12000073          	sfence.vma
    4101476c:	0e5ea237          	lui	x4,0xe5ea
    41014770:	faf2021b          	addiw	x4,x4,-81 # e5e9faf <mem6__pt_level2+0x11a0faf>
    41014774:	00f21213          	slli	x4,x4,0xf
    41014778:	00f00e13          	li	x28,15
    4101477c:	05c23823          	sd	x28,80(x4) # 50 <XLEN+0x10>
    41014780:	00000e17          	auipc	x28,0x0
    41014784:	060e0e13          	addi	x28,x28,96 # 410147e0 <fault_label_1>
    41014788:	03c23023          	sd	x28,32(x4) # 20 <SECURE_ACCESS_PROBABILITY+0x2>
    4101478c:	00000e13          	li	x28,0
    41014790:	05c23023          	sd	x28,64(x4) # 40 <XLEN>
    41014794:	00000e13          	li	x28,0
    41014798:	05c23423          	sd	x28,72(x4) # 48 <XLEN+0x8>
    4101479c:	00000e17          	auipc	x28,0x0
    410147a0:	058e0e13          	addi	x28,x28,88 # 410147f4 <excp_return_label_1>
    410147a4:	03c23823          	sd	x28,48(x4) # 30 <SECURE_ACCESS_PROBABILITY+0x12>
    410147a8:	00000e13          	li	x28,0
    410147ac:	03c23c23          	sd	x28,56(x4) # 38 <SECURE_ACCESS_PROBABILITY+0x1a>
    410147b0:	00000e13          	li	x28,0
    410147b4:	07c23023          	sd	x28,96(x4) # 60 <XLEN+0x20>
    410147b8:	00000e13          	li	x28,0
    410147bc:	07c23423          	sd	x28,104(x4) # 68 <XLEN+0x28>
    410147c0:	00000e13          	li	x28,0
    410147c4:	07c23823          	sd	x28,112(x4) # 70 <XLEN+0x30>
    410147c8:	0030071b          	addiw	x14,x0,3
    410147cc:	03471713          	slli	x14,x14,0x34
    410147d0:	000edd37          	lui	x26,0xed
    410147d4:	2f9d0d1b          	addiw	x26,x26,761 # ed2f9 <mem7__pt_level3+0x22f9>
    410147d8:	00cd1d13          	slli	x26,x26,0xc
    410147dc:	9dcd0d13          	addi	x26,x26,-1572

00000000410147e0 <fault_label_1>:
    410147e0:	01a71023          	sh	x26,0(x14)
    410147e4:	0ef5a737          	lui	x14,0xef5a
    410147e8:	0087071b          	addiw	x14,x14,8 # ef5a008 <failed_addr>
    410147ec:	00073983          	ld	x19,0(x14)
    410147f0:	00098067          	jr	x19

00000000410147f4 <excp_return_label_1>:
    410147f4:	00040393          	mv	x7,x8
    410147f8:	0ef5afb7          	lui	x31,0xef5a
    410147fc:	0b0f8f9b          	addiw	x31,x31,176 # ef5a0b0 <pte_access_flags>
    41014800:	0030029b          	addiw	x5,x0,3
    41014804:	03429293          	slli	x5,x5,0x34
    41014808:	005fb023          	sd	x5,0(x31)
    4101480c:	00400293          	li	x5,4
    41014810:	005fb423          	sd	x5,8(x31)
    41014814:	fff00293          	li	x5,-1
    41014818:	005fb823          	sd	x5,16(x31)
    4101481c:	000f0fb7          	lui	x31,0xf0
    41014820:	001f8f9b          	addiw	x31,x31,1 # f0001 <mem7__pt_level3+0x5001>
    41014824:	00cf9f93          	slli	x31,x31,0xc
    41014828:	008f8f93          	addi	x31,x31,8
    4101482c:	00000073          	ecall
    41014830:	12000073          	sfence.vma

0000000041014834 <SID_SVNAPOT_01_STORE_passed>:
    41014834:	00f00f9b          	addiw	x31,x0,15
    41014838:	01cf9f93          	slli	x31,x31,0x1c
    4101483c:	001f8f93          	addi	x31,x31,1
    41014840:	00000073          	ecall

0000000041014844 <SID_SVNAPOT_01_AMO>:
    41014844:	00252137          	lui	x2,0x252
    41014848:	000012b7          	lui	x5,0x1
    4101484c:	00510133          	add	x2,x2,x5
    41014850:	ff017113          	andi	x2,x2,-16
    41014854:	0ef5afb7          	lui	x31,0xef5a
    41014858:	0b0f8f9b          	addiw	x31,x31,176 # ef5a0b0 <pte_access_flags>
    4101485c:	01b0029b          	addiw	x5,x0,27
    41014860:	03129293          	slli	x5,x5,0x31
    41014864:	005fb023          	sd	x5,0(x31)
    41014868:	00400293          	li	x5,4
    4101486c:	005fb423          	sd	x5,8(x31)
    41014870:	fff00293          	li	x5,-1
    41014874:	005fb823          	sd	x5,16(x31)
    41014878:	000f0fb7          	lui	x31,0xf0
    4101487c:	001f8f9b          	addiw	x31,x31,1 # f0001 <mem7__pt_level3+0x5001>
    41014880:	00cf9f93          	slli	x31,x31,0xc
    41014884:	007f8f93          	addi	x31,x31,7
    41014888:	00000073          	ecall
    4101488c:	00038593          	mv	x11,x7
    41014890:	00100f9b          	addiw	x31,x0,1
    41014894:	031f9f93          	slli	x31,x31,0x31
    41014898:	ffff8f93          	addi	x31,x31,-1
    4101489c:	00ef9f93          	slli	x31,x31,0xe
    410148a0:	3fff8f93          	addi	x31,x31,1023
    410148a4:	01f5f933          	and	x18,x11,x31
    410148a8:	fff00f9b          	addiw	x31,x0,-1
    410148ac:	03ff9f93          	slli	x31,x31,0x3f
    410148b0:	01f963b3          	or	x7,x18,x31
    410148b4:	00038393          	mv	x7,x7
    410148b8:	0ef5afb7          	lui	x31,0xef5a
    410148bc:	0b0f8f9b          	addiw	x31,x31,176 # ef5a0b0 <pte_access_flags>
    410148c0:	01b0029b          	addiw	x5,x0,27
    410148c4:	03129293          	slli	x5,x5,0x31
    410148c8:	005fb023          	sd	x5,0(x31)
    410148cc:	00400293          	li	x5,4
    410148d0:	005fb423          	sd	x5,8(x31)
    410148d4:	fff00293          	li	x5,-1
    410148d8:	005fb823          	sd	x5,16(x31)
    410148dc:	000f0fb7          	lui	x31,0xf0
    410148e0:	001f8f9b          	addiw	x31,x31,1 # f0001 <mem7__pt_level3+0x5001>
    410148e4:	00cf9f93          	slli	x31,x31,0xc
    410148e8:	008f8f93          	addi	x31,x31,8
    410148ec:	00000073          	ecall
    410148f0:	12000073          	sfence.vma
    410148f4:	0e5ea237          	lui	x4,0xe5ea
    410148f8:	faf2021b          	addiw	x4,x4,-81 # e5e9faf <mem6__pt_level2+0x11a0faf>
    410148fc:	00f21213          	slli	x4,x4,0xf
    41014900:	00f00e13          	li	x28,15
    41014904:	05c23823          	sd	x28,80(x4) # 50 <XLEN+0x10>
    41014908:	00000e17          	auipc	x28,0x0
    4101490c:	058e0e13          	addi	x28,x28,88 # 41014960 <fault_label_2>
    41014910:	03c23023          	sd	x28,32(x4) # 20 <SECURE_ACCESS_PROBABILITY+0x2>
    41014914:	00000e13          	li	x28,0
    41014918:	05c23023          	sd	x28,64(x4) # 40 <XLEN>
    4101491c:	00000e13          	li	x28,0
    41014920:	05c23423          	sd	x28,72(x4) # 48 <XLEN+0x8>
    41014924:	00000e17          	auipc	x28,0x0
    41014928:	050e0e13          	addi	x28,x28,80 # 41014974 <excp_return_label_2>
    4101492c:	03c23823          	sd	x28,48(x4) # 30 <SECURE_ACCESS_PROBABILITY+0x12>
    41014930:	00000e13          	li	x28,0
    41014934:	03c23c23          	sd	x28,56(x4) # 38 <SECURE_ACCESS_PROBABILITY+0x1a>
    41014938:	00000e13          	li	x28,0
    4101493c:	07c23023          	sd	x28,96(x4) # 60 <XLEN+0x20>
    41014940:	00000e13          	li	x28,0
    41014944:	07c23423          	sd	x28,104(x4) # 68 <XLEN+0x28>
    41014948:	00000e13          	li	x28,0
    4101494c:	07c23823          	sd	x28,112(x4) # 70 <XLEN+0x30>
    41014950:	01b00c9b          	addiw	x25,x0,27
    41014954:	031c9c93          	slli	x25,x25,0x31
    41014958:	00000b13          	li	x22,0
    4101495c:	016c8db3          	add	x27,x25,x22

0000000041014960 <fault_label_2>:
    41014960:	080da3af          	amoswap.w	x7,x0,(x27)
    41014964:	0ef5a737          	lui	x14,0xef5a
    41014968:	0087071b          	addiw	x14,x14,8 # ef5a008 <failed_addr>
    4101496c:	00073983          	ld	x19,0(x14)
    41014970:	00098067          	jr	x19

0000000041014974 <excp_return_label_2>:
    41014974:	00058393          	mv	x7,x11
    41014978:	0ef5afb7          	lui	x31,0xef5a
    4101497c:	0b0f8f9b          	addiw	x31,x31,176 # ef5a0b0 <pte_access_flags>
    41014980:	01b0029b          	addiw	x5,x0,27
    41014984:	03129293          	slli	x5,x5,0x31
    41014988:	005fb023          	sd	x5,0(x31)
    4101498c:	00400293          	li	x5,4
    41014990:	005fb423          	sd	x5,8(x31)
    41014994:	fff00293          	li	x5,-1
    41014998:	005fb823          	sd	x5,16(x31)
    4101499c:	000f0fb7          	lui	x31,0xf0
    410149a0:	001f8f9b          	addiw	x31,x31,1 # f0001 <mem7__pt_level3+0x5001>
    410149a4:	00cf9f93          	slli	x31,x31,0xc
    410149a8:	008f8f93          	addi	x31,x31,8
    410149ac:	00000073          	ecall
    410149b0:	12000073          	sfence.vma

00000000410149b4 <SID_SVNAPOT_01_AMO_passed>:
    410149b4:	00f00f9b          	addiw	x31,x0,15
    410149b8:	01cf9f93          	slli	x31,x31,0x1c
    410149bc:	001f8f93          	addi	x31,x31,1
    410149c0:	00000073          	ecall

00000000410149c4 <SID_SVNAPOT_01_LRSC>:
    410149c4:	5b3a7137          	lui	x2,0x5b3a7
    410149c8:	c0b1011b          	addiw	x2,x2,-1013 # 5b3a6c0b <pma_region_2_end+0x16365c0b>
    410149cc:	01111113          	slli	x2,x2,0x11
    410149d0:	000012b7          	lui	x5,0x1
    410149d4:	00510133          	add	x2,x2,x5
    410149d8:	ff017113          	andi	x2,x2,-16
    410149dc:	0ef5afb7          	lui	x31,0xef5a
    410149e0:	0b0f8f9b          	addiw	x31,x31,176 # ef5a0b0 <pte_access_flags>
    410149e4:	00d0029b          	addiw	x5,x0,13
    410149e8:	03029293          	slli	x5,x5,0x30
    410149ec:	005fb023          	sd	x5,0(x31)
    410149f0:	00400293          	li	x5,4
    410149f4:	005fb423          	sd	x5,8(x31)
    410149f8:	fff00293          	li	x5,-1
    410149fc:	005fb823          	sd	x5,16(x31)
    41014a00:	000f0fb7          	lui	x31,0xf0
    41014a04:	001f8f9b          	addiw	x31,x31,1 # f0001 <mem7__pt_level3+0x5001>
    41014a08:	00cf9f93          	slli	x31,x31,0xc
    41014a0c:	007f8f93          	addi	x31,x31,7
    41014a10:	00000073          	ecall
    41014a14:	00038893          	mv	x17,x7
    41014a18:	00100d1b          	addiw	x26,x0,1
    41014a1c:	031d1d13          	slli	x26,x26,0x31
    41014a20:	fffd0d13          	addi	x26,x26,-1
    41014a24:	00ed1d13          	slli	x26,x26,0xe
    41014a28:	3ffd0d13          	addi	x26,x26,1023
    41014a2c:	01a8fbb3          	and	x23,x17,x26
    41014a30:	fff00c9b          	addiw	x25,x0,-1
    41014a34:	03fc9c93          	slli	x25,x25,0x3f
    41014a38:	019bea33          	or	x20,x23,x25
    41014a3c:	000a0393          	mv	x7,x20
    41014a40:	0ef5afb7          	lui	x31,0xef5a
    41014a44:	0b0f8f9b          	addiw	x31,x31,176 # ef5a0b0 <pte_access_flags>
    41014a48:	00d0029b          	addiw	x5,x0,13
    41014a4c:	03029293          	slli	x5,x5,0x30
    41014a50:	005fb023          	sd	x5,0(x31)
    41014a54:	00400293          	li	x5,4
    41014a58:	005fb423          	sd	x5,8(x31)
    41014a5c:	fff00293          	li	x5,-1
    41014a60:	005fb823          	sd	x5,16(x31)
    41014a64:	000f0fb7          	lui	x31,0xf0
    41014a68:	001f8f9b          	addiw	x31,x31,1 # f0001 <mem7__pt_level3+0x5001>
    41014a6c:	00cf9f93          	slli	x31,x31,0xc
    41014a70:	008f8f93          	addi	x31,x31,8
    41014a74:	00000073          	ecall
    41014a78:	12000073          	sfence.vma
    41014a7c:	0e5ea237          	lui	x4,0xe5ea
    41014a80:	faf2021b          	addiw	x4,x4,-81 # e5e9faf <mem6__pt_level2+0x11a0faf>
    41014a84:	00f21213          	slli	x4,x4,0xf
    41014a88:	00d00e13          	li	x28,13
    41014a8c:	05c23823          	sd	x28,80(x4) # 50 <XLEN+0x10>
    41014a90:	00000e17          	auipc	x28,0x0
    41014a94:	058e0e13          	addi	x28,x28,88 # 41014ae8 <fault_label_3>
    41014a98:	03c23023          	sd	x28,32(x4) # 20 <SECURE_ACCESS_PROBABILITY+0x2>
    41014a9c:	00000e13          	li	x28,0
    41014aa0:	05c23023          	sd	x28,64(x4) # 40 <XLEN>
    41014aa4:	00000e13          	li	x28,0
    41014aa8:	05c23423          	sd	x28,72(x4) # 48 <XLEN+0x8>
    41014aac:	00000e17          	auipc	x28,0x0
    41014ab0:	050e0e13          	addi	x28,x28,80 # 41014afc <excp_return_label_3>
    41014ab4:	03c23823          	sd	x28,48(x4) # 30 <SECURE_ACCESS_PROBABILITY+0x12>
    41014ab8:	00000e13          	li	x28,0
    41014abc:	03c23c23          	sd	x28,56(x4) # 38 <SECURE_ACCESS_PROBABILITY+0x1a>
    41014ac0:	00000e13          	li	x28,0
    41014ac4:	07c23023          	sd	x28,96(x4) # 60 <XLEN+0x20>
    41014ac8:	00000e13          	li	x28,0
    41014acc:	07c23423          	sd	x28,104(x4) # 68 <XLEN+0x28>
    41014ad0:	00000e13          	li	x28,0
    41014ad4:	07c23823          	sd	x28,112(x4) # 70 <XLEN+0x30>
    41014ad8:	00d00f1b          	addiw	x30,x0,13
    41014adc:	030f1f13          	slli	x30,x30,0x30
    41014ae0:	00000413          	li	x8,0
    41014ae4:	008f0e33          	add	x28,x30,x8

0000000041014ae8 <fault_label_3>:
    41014ae8:	100e27af          	lr.w	x15,(x28)
    41014aec:	0ef5ae37          	lui	x28,0xef5a
    41014af0:	008e0e1b          	addiw	x28,x28,8 # ef5a008 <failed_addr>
    41014af4:	000e3c03          	ld	x24,0(x28)
    41014af8:	000c0067          	jr	x24

0000000041014afc <excp_return_label_3>:
    41014afc:	0e5ea237          	lui	x4,0xe5ea
    41014b00:	faf2021b          	addiw	x4,x4,-81 # e5e9faf <mem6__pt_level2+0x11a0faf>
    41014b04:	00f21213          	slli	x4,x4,0xf
    41014b08:	00f00e13          	li	x28,15
    41014b0c:	05c23823          	sd	x28,80(x4) # 50 <XLEN+0x10>
    41014b10:	00000e17          	auipc	x28,0x0
    41014b14:	058e0e13          	addi	x28,x28,88 # 41014b68 <fault_label_4>
    41014b18:	03c23023          	sd	x28,32(x4) # 20 <SECURE_ACCESS_PROBABILITY+0x2>
    41014b1c:	00000e13          	li	x28,0
    41014b20:	05c23023          	sd	x28,64(x4) # 40 <XLEN>
    41014b24:	00000e13          	li	x28,0
    41014b28:	05c23423          	sd	x28,72(x4) # 48 <XLEN+0x8>
    41014b2c:	00000e17          	auipc	x28,0x0
    41014b30:	050e0e13          	addi	x28,x28,80 # 41014b7c <excp_return_label_4>
    41014b34:	03c23823          	sd	x28,48(x4) # 30 <SECURE_ACCESS_PROBABILITY+0x12>
    41014b38:	00000e13          	li	x28,0
    41014b3c:	03c23c23          	sd	x28,56(x4) # 38 <SECURE_ACCESS_PROBABILITY+0x1a>
    41014b40:	00000e13          	li	x28,0
    41014b44:	07c23023          	sd	x28,96(x4) # 60 <XLEN+0x20>
    41014b48:	00000e13          	li	x28,0
    41014b4c:	07c23423          	sd	x28,104(x4) # 68 <XLEN+0x28>
    41014b50:	00000e13          	li	x28,0
    41014b54:	07c23823          	sd	x28,112(x4) # 70 <XLEN+0x30>
    41014b58:	00d00e9b          	addiw	x29,x0,13
    41014b5c:	030e9e93          	slli	x29,x29,0x30
    41014b60:	00000793          	li	x15,0
    41014b64:	00fe86b3          	add	x13,x29,x15

0000000041014b68 <fault_label_4>:
    41014b68:	1806adaf          	sc.w	x27,x0,(x13)
    41014b6c:	0ef5af37          	lui	x30,0xef5a
    41014b70:	008f0f1b          	addiw	x30,x30,8 # ef5a008 <failed_addr>
    41014b74:	000f3683          	ld	x13,0(x30)
    41014b78:	00068067          	jr	x13

0000000041014b7c <excp_return_label_4>:
    41014b7c:	00088393          	mv	x7,x17
    41014b80:	0ef5afb7          	lui	x31,0xef5a
    41014b84:	0b0f8f9b          	addiw	x31,x31,176 # ef5a0b0 <pte_access_flags>
    41014b88:	00d0029b          	addiw	x5,x0,13
    41014b8c:	03029293          	slli	x5,x5,0x30
    41014b90:	005fb023          	sd	x5,0(x31)
    41014b94:	00400293          	li	x5,4
    41014b98:	005fb423          	sd	x5,8(x31)
    41014b9c:	fff00293          	li	x5,-1
    41014ba0:	005fb823          	sd	x5,16(x31)
    41014ba4:	000f0fb7          	lui	x31,0xf0
    41014ba8:	001f8f9b          	addiw	x31,x31,1 # f0001 <mem7__pt_level3+0x5001>
    41014bac:	00cf9f93          	slli	x31,x31,0xc
    41014bb0:	008f8f93          	addi	x31,x31,8
    41014bb4:	00000073          	ecall
    41014bb8:	12000073          	sfence.vma

0000000041014bbc <SID_SVNAPOT_01_LRSC_passed>:
    41014bbc:	00f00f9b          	addiw	x31,x0,15
    41014bc0:	01cf9f93          	slli	x31,x31,0x1c
    41014bc4:	001f8f93          	addi	x31,x31,1
    41014bc8:	00000073          	ecall

0000000041014bcc <SID_SVNAPOT_02_LOAD>:
    41014bcc:	00087137          	lui	x2,0x87
    41014bd0:	e2b1011b          	addiw	x2,x2,-469 # 86e2b <SID_SVNAPOT_02_STORE_stack+0x25e2b>
    41014bd4:	00e11113          	slli	x2,x2,0xe
    41014bd8:	000012b7          	lui	x5,0x1
    41014bdc:	00510133          	add	x2,x2,x5
    41014be0:	ff017113          	andi	x2,x2,-16
    41014be4:	0ef5afb7          	lui	x31,0xef5a
    41014be8:	0b0f8f9b          	addiw	x31,x31,176 # ef5a0b0 <pte_access_flags>
    41014bec:	0070029b          	addiw	x5,x0,7
    41014bf0:	03329293          	slli	x5,x5,0x33
    41014bf4:	005fb023          	sd	x5,0(x31)
    41014bf8:	00400293          	li	x5,4
    41014bfc:	005fb423          	sd	x5,8(x31)
    41014c00:	fff00293          	li	x5,-1
    41014c04:	005fb823          	sd	x5,16(x31)
    41014c08:	000f0fb7          	lui	x31,0xf0
    41014c0c:	001f8f9b          	addiw	x31,x31,1 # f0001 <mem7__pt_level3+0x5001>
    41014c10:	00cf9f93          	slli	x31,x31,0xc
    41014c14:	007f8f93          	addi	x31,x31,7
    41014c18:	00000073          	ecall
    41014c1c:	00038513          	mv	x10,x7
    41014c20:	00100b1b          	addiw	x22,x0,1
    41014c24:	031b1b13          	slli	x22,x22,0x31
    41014c28:	fffb0b13          	addi	x22,x22,-1 # 1fff <mem1__pt_level1+0xfff>
    41014c2c:	00eb1b13          	slli	x22,x22,0xe
    41014c30:	3ffb0b13          	addi	x22,x22,1023
    41014c34:	01657f33          	and	x30,x10,x22
    41014c38:	fff00c9b          	addiw	x25,x0,-1
    41014c3c:	032c9c93          	slli	x25,x25,0x32
    41014c40:	001c8c93          	addi	x25,x25,1
    41014c44:	00dc9c93          	slli	x25,x25,0xd
    41014c48:	019f65b3          	or	x11,x30,x25
    41014c4c:	00058393          	mv	x7,x11
    41014c50:	0ef5afb7          	lui	x31,0xef5a
    41014c54:	0b0f8f9b          	addiw	x31,x31,176 # ef5a0b0 <pte_access_flags>
    41014c58:	0070029b          	addiw	x5,x0,7
    41014c5c:	03329293          	slli	x5,x5,0x33
    41014c60:	005fb023          	sd	x5,0(x31)
    41014c64:	00400293          	li	x5,4
    41014c68:	005fb423          	sd	x5,8(x31)
    41014c6c:	fff00293          	li	x5,-1
    41014c70:	005fb823          	sd	x5,16(x31)
    41014c74:	000f0fb7          	lui	x31,0xf0
    41014c78:	001f8f9b          	addiw	x31,x31,1 # f0001 <mem7__pt_level3+0x5001>
    41014c7c:	00cf9f93          	slli	x31,x31,0xc
    41014c80:	008f8f93          	addi	x31,x31,8
    41014c84:	00000073          	ecall
    41014c88:	12000073          	sfence.vma
    41014c8c:	0070039b          	addiw	x7,x0,7
    41014c90:	03339393          	slli	x7,x7,0x33
    41014c94:	0003a703          	lw	x14,0(x7)
    41014c98:	00050393          	mv	x7,x10
    41014c9c:	0ef5afb7          	lui	x31,0xef5a
    41014ca0:	0b0f8f9b          	addiw	x31,x31,176 # ef5a0b0 <pte_access_flags>
    41014ca4:	0070029b          	addiw	x5,x0,7
    41014ca8:	03329293          	slli	x5,x5,0x33
    41014cac:	005fb023          	sd	x5,0(x31)
    41014cb0:	00400293          	li	x5,4
    41014cb4:	005fb423          	sd	x5,8(x31)
    41014cb8:	fff00293          	li	x5,-1
    41014cbc:	005fb823          	sd	x5,16(x31)
    41014cc0:	000f0fb7          	lui	x31,0xf0
    41014cc4:	001f8f9b          	addiw	x31,x31,1 # f0001 <mem7__pt_level3+0x5001>
    41014cc8:	00cf9f93          	slli	x31,x31,0xc
    41014ccc:	008f8f93          	addi	x31,x31,8
    41014cd0:	00000073          	ecall
    41014cd4:	12000073          	sfence.vma

0000000041014cd8 <SID_SVNAPOT_02_LOAD_passed>:
    41014cd8:	00f00f9b          	addiw	x31,x0,15
    41014cdc:	01cf9f93          	slli	x31,x31,0x1c
    41014ce0:	001f8f93          	addi	x31,x31,1
    41014ce4:	00000073          	ecall

0000000041014ce8 <SID_SVNAPOT_02_STORE>:
    41014ce8:	00061137          	lui	x2,0x61
    41014cec:	000012b7          	lui	x5,0x1
    41014cf0:	00510133          	add	x2,x2,x5
    41014cf4:	ff017113          	andi	x2,x2,-16
    41014cf8:	0ef5afb7          	lui	x31,0xef5a
    41014cfc:	0b0f8f9b          	addiw	x31,x31,176 # ef5a0b0 <pte_access_flags>
    41014d00:	0010029b          	addiw	x5,x0,1
    41014d04:	03129293          	slli	x5,x5,0x31
    41014d08:	005fb023          	sd	x5,0(x31)
    41014d0c:	00400293          	li	x5,4
    41014d10:	005fb423          	sd	x5,8(x31)
    41014d14:	fff00293          	li	x5,-1
    41014d18:	005fb823          	sd	x5,16(x31)
    41014d1c:	000f0fb7          	lui	x31,0xf0
    41014d20:	001f8f9b          	addiw	x31,x31,1 # f0001 <mem7__pt_level3+0x5001>
    41014d24:	00cf9f93          	slli	x31,x31,0xc
    41014d28:	007f8f93          	addi	x31,x31,7
    41014d2c:	00000073          	ecall
    41014d30:	00038993          	mv	x19,x7
    41014d34:	00100b9b          	addiw	x23,x0,1
    41014d38:	031b9b93          	slli	x23,x23,0x31
    41014d3c:	fffb8b93          	addi	x23,x23,-1 # 1fff <mem1__pt_level1+0xfff>
    41014d40:	00eb9b93          	slli	x23,x23,0xe
    41014d44:	3ffb8b93          	addi	x23,x23,1023
    41014d48:	0179f3b3          	and	x7,x19,x23
    41014d4c:	fff0031b          	addiw	x6,x0,-1
    41014d50:	03231313          	slli	x6,x6,0x32
    41014d54:	00130313          	addi	x6,x6,1 # 2001 <mem6__pt_level1+0x1>
    41014d58:	00d31313          	slli	x6,x6,0xd
    41014d5c:	0063ecb3          	or	x25,x7,x6
    41014d60:	000c8393          	mv	x7,x25
    41014d64:	0ef5afb7          	lui	x31,0xef5a
    41014d68:	0b0f8f9b          	addiw	x31,x31,176 # ef5a0b0 <pte_access_flags>
    41014d6c:	0010029b          	addiw	x5,x0,1
    41014d70:	03129293          	slli	x5,x5,0x31
    41014d74:	005fb023          	sd	x5,0(x31)
    41014d78:	00400293          	li	x5,4
    41014d7c:	005fb423          	sd	x5,8(x31)
    41014d80:	fff00293          	li	x5,-1
    41014d84:	005fb823          	sd	x5,16(x31)
    41014d88:	000f0fb7          	lui	x31,0xf0
    41014d8c:	001f8f9b          	addiw	x31,x31,1 # f0001 <mem7__pt_level3+0x5001>
    41014d90:	00cf9f93          	slli	x31,x31,0xc
    41014d94:	008f8f93          	addi	x31,x31,8
    41014d98:	00000073          	ecall
    41014d9c:	12000073          	sfence.vma
    41014da0:	0010049b          	addiw	x9,x0,1
    41014da4:	03149493          	slli	x9,x9,0x31
    41014da8:	000d7937          	lui	x18,0xd7
    41014dac:	0719091b          	addiw	x18,x18,113 # d7071 <SID_SVNAPOT_02_STORE_stack+0x76071>
    41014db0:	00c91913          	slli	x18,x18,0xc
    41014db4:	08190913          	addi	x18,x18,129
    41014db8:	d0097bd3          	fcvt.s.w	f23,x18
    41014dbc:	0174b027          	fsd	f23,0(x9)
    41014dc0:	00098393          	mv	x7,x19
    41014dc4:	0ef5afb7          	lui	x31,0xef5a
    41014dc8:	0b0f8f9b          	addiw	x31,x31,176 # ef5a0b0 <pte_access_flags>
    41014dcc:	0010029b          	addiw	x5,x0,1
    41014dd0:	03129293          	slli	x5,x5,0x31
    41014dd4:	005fb023          	sd	x5,0(x31)
    41014dd8:	00400293          	li	x5,4
    41014ddc:	005fb423          	sd	x5,8(x31)
    41014de0:	fff00293          	li	x5,-1
    41014de4:	005fb823          	sd	x5,16(x31)
    41014de8:	000f0fb7          	lui	x31,0xf0
    41014dec:	001f8f9b          	addiw	x31,x31,1 # f0001 <mem7__pt_level3+0x5001>
    41014df0:	00cf9f93          	slli	x31,x31,0xc
    41014df4:	008f8f93          	addi	x31,x31,8
    41014df8:	00000073          	ecall
    41014dfc:	12000073          	sfence.vma

0000000041014e00 <SID_SVNAPOT_02_STORE_passed>:
    41014e00:	00f00f9b          	addiw	x31,x0,15
    41014e04:	01cf9f93          	slli	x31,x31,0x1c
    41014e08:	001f8f93          	addi	x31,x31,1
    41014e0c:	00000073          	ecall

0000000041014e10 <SID_SVNAPOT_02_AMO>:
    41014e10:	0000a137          	lui	x2,0xa
    41014e14:	000012b7          	lui	x5,0x1
    41014e18:	00510133          	add	x2,x2,x5
    41014e1c:	ff017113          	andi	x2,x2,-16
    41014e20:	0ef5afb7          	lui	x31,0xef5a
    41014e24:	0b0f8f9b          	addiw	x31,x31,176 # ef5a0b0 <pte_access_flags>
    41014e28:	0030029b          	addiw	x5,x0,3
    41014e2c:	03029293          	slli	x5,x5,0x30
    41014e30:	005fb023          	sd	x5,0(x31)
    41014e34:	00400293          	li	x5,4
    41014e38:	005fb423          	sd	x5,8(x31)
    41014e3c:	fff00293          	li	x5,-1
    41014e40:	005fb823          	sd	x5,16(x31)
    41014e44:	000f0fb7          	lui	x31,0xf0
    41014e48:	001f8f9b          	addiw	x31,x31,1 # f0001 <mem7__pt_level3+0x5001>
    41014e4c:	00cf9f93          	slli	x31,x31,0xc
    41014e50:	007f8f93          	addi	x31,x31,7
    41014e54:	00000073          	ecall
    41014e58:	00038d93          	mv	x27,x7
    41014e5c:	00100c9b          	addiw	x25,x0,1
    41014e60:	031c9c93          	slli	x25,x25,0x31
    41014e64:	fffc8c93          	addi	x25,x25,-1
    41014e68:	00ec9c93          	slli	x25,x25,0xe
    41014e6c:	3ffc8c93          	addi	x25,x25,1023
    41014e70:	019dfd33          	and	x26,x27,x25
    41014e74:	fff0099b          	addiw	x19,x0,-1
    41014e78:	03299993          	slli	x19,x19,0x32
    41014e7c:	00198993          	addi	x19,x19,1
    41014e80:	00d99993          	slli	x19,x19,0xd
    41014e84:	013d6fb3          	or	x31,x26,x19
    41014e88:	000f8393          	mv	x7,x31
    41014e8c:	0ef5afb7          	lui	x31,0xef5a
    41014e90:	0b0f8f9b          	addiw	x31,x31,176 # ef5a0b0 <pte_access_flags>
    41014e94:	0030029b          	addiw	x5,x0,3
    41014e98:	03029293          	slli	x5,x5,0x30
    41014e9c:	005fb023          	sd	x5,0(x31)
    41014ea0:	00400293          	li	x5,4
    41014ea4:	005fb423          	sd	x5,8(x31)
    41014ea8:	fff00293          	li	x5,-1
    41014eac:	005fb823          	sd	x5,16(x31)
    41014eb0:	000f0fb7          	lui	x31,0xf0
    41014eb4:	001f8f9b          	addiw	x31,x31,1 # f0001 <mem7__pt_level3+0x5001>
    41014eb8:	00cf9f93          	slli	x31,x31,0xc
    41014ebc:	008f8f93          	addi	x31,x31,8
    41014ec0:	00000073          	ecall
    41014ec4:	12000073          	sfence.vma
    41014ec8:	0030061b          	addiw	x12,x0,3
    41014ecc:	03061613          	slli	x12,x12,0x30
    41014ed0:	00000693          	li	x13,0
    41014ed4:	00d60eb3          	add	x29,x12,x13
    41014ed8:	080ea82f          	amoswap.w	x16,x0,(x29)
    41014edc:	000d8393          	mv	x7,x27
    41014ee0:	0ef5afb7          	lui	x31,0xef5a
    41014ee4:	0b0f8f9b          	addiw	x31,x31,176 # ef5a0b0 <pte_access_flags>
    41014ee8:	0030029b          	addiw	x5,x0,3
    41014eec:	03029293          	slli	x5,x5,0x30
    41014ef0:	005fb023          	sd	x5,0(x31)
    41014ef4:	00400293          	li	x5,4
    41014ef8:	005fb423          	sd	x5,8(x31)
    41014efc:	fff00293          	li	x5,-1
    41014f00:	005fb823          	sd	x5,16(x31)
    41014f04:	000f0fb7          	lui	x31,0xf0
    41014f08:	001f8f9b          	addiw	x31,x31,1 # f0001 <mem7__pt_level3+0x5001>
    41014f0c:	00cf9f93          	slli	x31,x31,0xc
    41014f10:	008f8f93          	addi	x31,x31,8
    41014f14:	00000073          	ecall
    41014f18:	12000073          	sfence.vma

0000000041014f1c <SID_SVNAPOT_02_AMO_passed>:
    41014f1c:	00f00f9b          	addiw	x31,x0,15
    41014f20:	01cf9f93          	slli	x31,x31,0x1c
    41014f24:	001f8f93          	addi	x31,x31,1
    41014f28:	00000073          	ecall

0000000041014f2c <SID_SVNAPOT_02_LRSC>:
    41014f2c:	016ee137          	lui	x2,0x16ee
    41014f30:	2b71011b          	addiw	x2,x2,695 # 16ee2b7 <SID_SVNAPOT_01_STORE_stack+0x1c62b7>
    41014f34:	00e11113          	slli	x2,x2,0xe
    41014f38:	67b10113          	addi	x2,x2,1659
    41014f3c:	00d11113          	slli	x2,x2,0xd
    41014f40:	000012b7          	lui	x5,0x1
    41014f44:	00510133          	add	x2,x2,x5
    41014f48:	ff017113          	andi	x2,x2,-16
    41014f4c:	0ef5afb7          	lui	x31,0xef5a
    41014f50:	0b0f8f9b          	addiw	x31,x31,176 # ef5a0b0 <pte_access_flags>
    41014f54:	fdb0029b          	addiw	x5,x0,-37
    41014f58:	03229293          	slli	x5,x5,0x32
    41014f5c:	005fb023          	sd	x5,0(x31)
    41014f60:	00400293          	li	x5,4
    41014f64:	005fb423          	sd	x5,8(x31)
    41014f68:	fff00293          	li	x5,-1
    41014f6c:	005fb823          	sd	x5,16(x31)
    41014f70:	000f0fb7          	lui	x31,0xf0
    41014f74:	001f8f9b          	addiw	x31,x31,1 # f0001 <mem7__pt_level3+0x5001>
    41014f78:	00cf9f93          	slli	x31,x31,0xc
    41014f7c:	007f8f93          	addi	x31,x31,7
    41014f80:	00000073          	ecall
    41014f84:	00038413          	mv	x8,x7
    41014f88:	0010039b          	addiw	x7,x0,1
    41014f8c:	03139393          	slli	x7,x7,0x31
    41014f90:	fff38393          	addi	x7,x7,-1
    41014f94:	00e39393          	slli	x7,x7,0xe
    41014f98:	3ff38393          	addi	x7,x7,1023
    41014f9c:	00747733          	and	x14,x8,x7
    41014fa0:	fff00d1b          	addiw	x26,x0,-1
    41014fa4:	032d1d13          	slli	x26,x26,0x32
    41014fa8:	001d0d13          	addi	x26,x26,1
    41014fac:	00dd1d13          	slli	x26,x26,0xd
    41014fb0:	01a76db3          	or	x27,x14,x26
    41014fb4:	000d8393          	mv	x7,x27
    41014fb8:	0ef5afb7          	lui	x31,0xef5a
    41014fbc:	0b0f8f9b          	addiw	x31,x31,176 # ef5a0b0 <pte_access_flags>
    41014fc0:	fdb0029b          	addiw	x5,x0,-37
    41014fc4:	03229293          	slli	x5,x5,0x32
    41014fc8:	005fb023          	sd	x5,0(x31)
    41014fcc:	00400293          	li	x5,4
    41014fd0:	005fb423          	sd	x5,8(x31)
    41014fd4:	fff00293          	li	x5,-1
    41014fd8:	005fb823          	sd	x5,16(x31)
    41014fdc:	000f0fb7          	lui	x31,0xf0
    41014fe0:	001f8f9b          	addiw	x31,x31,1 # f0001 <mem7__pt_level3+0x5001>
    41014fe4:	00cf9f93          	slli	x31,x31,0xc
    41014fe8:	008f8f93          	addi	x31,x31,8
    41014fec:	00000073          	ecall
    41014ff0:	12000073          	sfence.vma
    41014ff4:	fdb0081b          	addiw	x16,x0,-37
    41014ff8:	03281813          	slli	x16,x16,0x32
    41014ffc:	00000b13          	li	x22,0
    41015000:	01680eb3          	add	x29,x16,x22
    41015004:	100eaaaf          	lr.w	x21,(x29)
    41015008:	fdb00d1b          	addiw	x26,x0,-37
    4101500c:	032d1d13          	slli	x26,x26,0x32
    41015010:	00000b93          	li	x23,0
    41015014:	017d0f33          	add	x30,x26,x23
    41015018:	180f292f          	sc.w	x18,x0,(x30)
    4101501c:	00040393          	mv	x7,x8
    41015020:	0ef5afb7          	lui	x31,0xef5a
    41015024:	0b0f8f9b          	addiw	x31,x31,176 # ef5a0b0 <pte_access_flags>
    41015028:	fdb0029b          	addiw	x5,x0,-37
    4101502c:	03229293          	slli	x5,x5,0x32
    41015030:	005fb023          	sd	x5,0(x31)
    41015034:	00400293          	li	x5,4
    41015038:	005fb423          	sd	x5,8(x31)
    4101503c:	fff00293          	li	x5,-1
    41015040:	005fb823          	sd	x5,16(x31)
    41015044:	000f0fb7          	lui	x31,0xf0
    41015048:	001f8f9b          	addiw	x31,x31,1 # f0001 <mem7__pt_level3+0x5001>
    4101504c:	00cf9f93          	slli	x31,x31,0xc
    41015050:	008f8f93          	addi	x31,x31,8
    41015054:	00000073          	ecall
    41015058:	12000073          	sfence.vma

000000004101505c <SID_SVNAPOT_02_LRSC_passed>:
    4101505c:	00f00f9b          	addiw	x31,x0,15
    41015060:	01cf9f93          	slli	x31,x31,0x1c
    41015064:	001f8f93          	addi	x31,x31,1
    41015068:	00000073          	ecall

000000004101506c <test_cleanup>:
    4101506c:	00f00f9b          	addiw	x31,x0,15
    41015070:	01cf9f93          	slli	x31,x31,0x1c
    41015074:	001f8f93          	addi	x31,x31,1
    41015078:	00000073          	ecall

000000004101507c <local_test_failed>:
    4101507c:	00f00f9b          	addiw	x31,x0,15
    41015080:	01cf9f93          	slli	x31,x31,0x1c
    41015084:	002f8f93          	addi	x31,x31,2
    41015088:	00000073          	ecall

Disassembly of section .csr_machine_0:

0000000041214000 <csr_access_mstatus_machine_key_2_set-0x30>:
    41214000:	42b46fb7          	lui	x31,0x42b46
    41214004:	0a0f8f9b          	addiw	x31,x31,160 # 42b460a0 <machine_csr_jump_table_flags_pa>
    41214008:	000fbf83          	ld	x31,0(x31)
    4121400c:	00200293          	li	x5,2
    41214010:	025f8063          	beq	x31,x5,41214030 <csr_access_mstatus_machine_key_2_set>
    41214014:	00100293          	li	x5,1
    41214018:	025f8063          	beq	x31,x5,41214038 <csr_access_mstatus_machine_key_1_clear>
    4121401c:	00400293          	li	x5,4
    41214020:	025f8063          	beq	x31,x5,41214040 <csr_access_mtvec_machine_key_4_set>
    41214024:	00300293          	li	x5,3
    41214028:	025f8063          	beq	x31,x5,41214048 <csr_access_mtvec_machine_key_3_clear>
    4121402c:	0240006f          	j	41214050 <end_machine_label>

0000000041214030 <csr_access_mstatus_machine_key_2_set>:
    41214030:	3003a073          	csrs	mstatus,x7
    41214034:	01c0006f          	j	41214050 <end_machine_label>

0000000041214038 <csr_access_mstatus_machine_key_1_clear>:
    41214038:	3003b073          	csrc	mstatus,x7
    4121403c:	0140006f          	j	41214050 <end_machine_label>

0000000041214040 <csr_access_mtvec_machine_key_4_set>:
    41214040:	3053a073          	csrs	mtvec,x7
    41214044:	00c0006f          	j	41214050 <end_machine_label>

0000000041214048 <csr_access_mtvec_machine_key_3_clear>:
    41214048:	3053b073          	csrc	mtvec,x7
    4121404c:	0040006f          	j	41214050 <end_machine_label>

0000000041214050 <end_machine_label>:
    41214050:	000f0fb7          	lui	x31,0xf0
    41214054:	001f8f9b          	addiw	x31,x31,1 # f0001 <mem7__pt_level3+0x5001>
    41214058:	00cf9f93          	slli	x31,x31,0xc
    4121405c:	004f8f93          	addi	x31,x31,4
    41214060:	00000073          	ecall

Disassembly of section .csr_super_0:

0000000041215000 <end_super_label-0x10>:
    41215000:	0ef5afb7          	lui	x31,0xef5a
    41215004:	0a8f8f9b          	addiw	x31,x31,168 # ef5a0a8 <super_csr_jump_table_flags>
    41215008:	000fbf83          	ld	x31,0(x31)
    4121500c:	0040006f          	j	41215010 <end_super_label>

0000000041215010 <end_super_label>:
    41215010:	000f0fb7          	lui	x31,0xf0
    41215014:	001f8f9b          	addiw	x31,x31,1 # f0001 <mem7__pt_level3+0x5001>
    41215018:	00cf9f93          	slli	x31,x31,0xc
    4121501c:	004f8f93          	addi	x31,x31,4
    41215020:	00000073          	ecall

Disassembly of section .os_data:

000000000ef5a000 <passed_addr_ptr>:
 ef5a000:	4090                	.insn	2, 0x4090
 ef5a002:	4101                	.insn	2, 0x4101
 ef5a004:	0000                	.insn	2, 0x0000
	...

000000000ef5a008 <failed_addr_ptr>:
 ef5a008:	40a0                	.insn	2, 0x40a0
 ef5a00a:	4101                	.insn	2, 0x4101
 ef5a00c:	0000                	.insn	2, 0x0000
	...

000000000ef5a010 <end_test_addr_ptr>:
 ef5a010:	40b0                	.insn	2, 0x40b0
 ef5a012:	4101                	.insn	2, 0x4101
 ef5a014:	0000                	.insn	2, 0x0000
	...

000000000ef5a018 <os_passed_addr_ptr>:
 ef5a018:	0784                	.insn	2, 0x0784
 ef5a01a:	4100                	.insn	2, 0x4100
 ef5a01c:	0000                	.insn	2, 0x0000
	...

000000000ef5a020 <os_failed_addr_ptr>:
 ef5a020:	0794                	.insn	2, 0x0794
 ef5a022:	4100                	.insn	2, 0x4100
 ef5a024:	0000                	.insn	2, 0x0000
	...

000000000ef5a028 <os_end_test_addr_ptr>:
 ef5a028:	07a0                	.insn	2, 0x07a0
 ef5a02a:	4100                	.insn	2, 0x4100
 ef5a02c:	0000                	.insn	2, 0x0000
	...

000000000ef5a030 <rvcp_prefix_str_data>:
 ef5a030:	5652                	.insn	2, 0x5652
 ef5a032:	203a5043          	fmadd.s	f0,f20,f3,f4,unknown
 ef5a036:	6554                	.insn	2, 0x6554
 ef5a038:	46207473          	csrrci	x8,0x462,0
 ef5a03c:	6c69                	.insn	2, 0x6c69
 ef5a03e:	2065                	.insn	2, 0x2065
	...

000000000ef5a041 <rvcp_testname_str_data>:
 ef5a041:	7074                	.insn	2, 0x7074
 ef5a043:	735f 6e76 7061      	.insn	6, 0x70616e76735f
 ef5a049:	315f746f          	jal	x8,f051b5d <__section_os_data_1+0xf6b5d>
	...

000000000ef5a04e <rvcp_passed_str_data>:
 ef5a04e:	4150                	.insn	2, 0x4150
 ef5a050:	44455353          	fround.h	f6,f10,unknown
	...

000000000ef5a055 <rvcp_failed_str_data>:
 ef5a055:	4146                	.insn	2, 0x4146
 ef5a057:	4c49                	.insn	2, 0x4c49
 ef5a059:	4445                	.insn	2, 0x4445
	...

000000000ef5a05c <rvcp_space_str_data>:
 ef5a05c:	0020                	.insn	2, 0x0020

000000000ef5a05e <rvcp_newline_str_data>:
 ef5a05e:	000a                	.insn	2, 0x000a

000000000ef5a060 <excp_ignored_count_mem>:
	...

000000000ef5a068 <machine_flags_mem>:
	...

000000000ef5a070 <user_flags_mem>:
	...

000000000ef5a078 <super_flags_mem>:
	...

000000000ef5a080 <machine_area_mem>:
	...

000000000ef5a088 <user_area_mem>:
	...

000000000ef5a090 <super_area_mem>:
	...

000000000ef5a098 <zero_data_mem>:
	...

000000000ef5a0a0 <machine_csr_jump_table_flags_mem>:
	...

000000000ef5a0a8 <super_csr_jump_table_flags_mem>:
	...

000000000ef5a0b0 <pte_access_flags_mem>:
	...

000000000ef5a0c8 <num_harts_ended_mem>:
	...

000000000ef5a0d0 <num_hard_fails_mem>:
	...

Disassembly of section .hart_context:

0000072f4fd78000 <hart_context_0>:
 72f4fd78000:	c000                	.insn	2, 0xc000
 72f4fd78002:	0012                	.insn	2, 0x0012
	...
 72f4fd78018:	0001                	.insn	2, 0x0001
 72f4fd7801a:	0000                	.insn	2, 0x0000
 72f4fd7801c:	0000                	.insn	2, 0x0000
 72f4fd7801e:	0000                	.insn	2, 0x0000
 72f4fd78020:	ffff                	.insn	2, 0xffff
 72f4fd78022:	ffff                	.insn	2, 0xffff
 72f4fd78024:	ffff                	.insn	2, 0xffff
 72f4fd78026:	ffff                	.insn	2, 0xffff
 72f4fd78028:	ffff                	.insn	2, 0xffff
 72f4fd7802a:	ffff                	.insn	2, 0xffff
 72f4fd7802c:	ffff                	.insn	2, 0xffff
 72f4fd7802e:	ffff                	.insn	2, 0xffff
 72f4fd78030:	ffff                	.insn	2, 0xffff
 72f4fd78032:	ffff                	.insn	2, 0xffff
 72f4fd78034:	ffff                	.insn	2, 0xffff
 72f4fd78036:	ffff                	.insn	2, 0xffff
	...
 72f4fd78050:	00ff 0000 0000 0000 	.insn	10, 0x00ff00000000000000ff
 72f4fd78058:	00ff 
	...
 72f4fd78176:	0000                	.insn	2, 0x0000
 72f4fd78178:	ffff                	.insn	2, 0xffff
 72f4fd7817a:	ffff                	.insn	2, 0xffff
 72f4fd7817c:	ffff                	.insn	2, 0xffff
 72f4fd7817e:	ffff                	.insn	2, 0xffff
	...
 72f4fd78188:	ffff                	.insn	2, 0xffff
 72f4fd7818a:	ffff                	.insn	2, 0xffff
	...

Disassembly of section .hart_stack_0:

000000000012b000 <hart_stack_0>:
	...

Disassembly of section .io_htif:

0000000041040000 <tohost>:
	...

0000000041040040 <fromhost>:
	...

Disassembly of section .mem0:

0015000000000000 <.mem0>:
  15000000000000:	c0de                	.insn	2, 0xc0de
  15000000000002:	c001                	.insn	2, 0xc001
  15000000000004:	0000                	.insn	2, 0x0000
	...

Disassembly of section .mem1:

0004000000000000 <.mem1>:
   4000000000000:	c0de                	.insn	2, 0xc0de
   4000000000002:	c001                	.insn	2, 0xc001
   4000000000004:	0000                	.insn	2, 0x0000
	...

Disassembly of section .mem2:

00a4000000000000 <.mem2>:
  a4000000000000:	c0de                	.insn	2, 0xc0de
  a4000000000002:	c001                	.insn	2, 0xc001
  a4000000000004:	0000                	.insn	2, 0x0000
	...

Disassembly of section .mem3:

0069000000000000 <.mem3>:
  69000000000000:	c0de                	.insn	2, 0xc0de
  69000000000002:	c001                	.insn	2, 0xc001
  69000000000004:	0000                	.insn	2, 0x0000
	...

Disassembly of section .mem4:

0006000000000000 <.mem4>:
   6000000000000:	c0de                	.insn	2, 0xc0de
   6000000000002:	c001                	.insn	2, 0xc001
   6000000000004:	0000                	.insn	2, 0x0000
	...

Disassembly of section .mem5:

0030000000000000 <.mem5>:
  30000000000000:	c0de                	.insn	2, 0xc0de
  30000000000002:	c001                	.insn	2, 0xc001
  30000000000004:	0000                	.insn	2, 0x0000
	...

Disassembly of section .mem6:

0036000000000000 <.mem6>:
  36000000000000:	c0de                	.insn	2, 0xc0de
  36000000000002:	c001                	.insn	2, 0xc001
  36000000000004:	0000                	.insn	2, 0x0000
	...

Disassembly of section .mem7:

000d000000000000 <.mem7>:
   d000000000000:	c0de                	.insn	2, 0xc0de
   d000000000002:	c001                	.insn	2, 0xc001
   d000000000004:	0000                	.insn	2, 0x0000
	...

Disassembly of section .mem8:

0038000000000000 <.mem8>:
  38000000000000:	c0de                	.insn	2, 0xc0de
  38000000000002:	c001                	.insn	2, 0xc001
  38000000000004:	0000                	.insn	2, 0x0000
	...

Disassembly of section .mem9:

0002000000000000 <.mem9>:
   2000000000000:	c0de                	.insn	2, 0xc0de
   2000000000002:	c001                	.insn	2, 0xc001
   2000000000004:	0000                	.insn	2, 0x0000
	...

Disassembly of section .mem10:

0003000000000000 <.mem10>:
   3000000000000:	c0de                	.insn	2, 0xc0de
   3000000000002:	c001                	.insn	2, 0xc001
   3000000000004:	0000                	.insn	2, 0x0000
	...

Disassembly of section .mem11:

ff6c000000000000 <.mem11>:
ff6c000000000000:	c0de                	.insn	2, 0xc0de
ff6c000000000002:	c001                	.insn	2, 0xc001
ff6c000000000004:	0000                	.insn	2, 0x0000
	...

Disassembly of section .tp_csr_storage:

0000000003bfe000 <.tp_csr_storage>:
 3bfe000:	c0de                	.insn	2, 0xc0de
 3bfe002:	c001                	.insn	2, 0xc001
 3bfe004:	0000                	.insn	2, 0x0000
	...

Disassembly of section .SID_SVNAPOT_00_LOAD_stack:

000ef5357702d000 <.SID_SVNAPOT_00_LOAD_stack>:
   ef5357702d000:	c0de                	.insn	2, 0xc0de
   ef5357702d002:	c001                	.insn	2, 0xc001
   ef5357702d004:	0000                	.insn	2, 0x0000
	...

Disassembly of section .SID_SVNAPOT_00_STORE_stack:

0000000016d13000 <.SID_SVNAPOT_00_STORE_stack>:
    16d13000:	c0de                	.insn	2, 0xc0de
    16d13002:	c001                	.insn	2, 0xc001
    16d13004:	0000                	.insn	2, 0x0000
	...

Disassembly of section .SID_SVNAPOT_00_AMO_stack:

0000006332a59000 <.SID_SVNAPOT_00_AMO_stack>:
  6332a59000:	c0de                	.insn	2, 0xc0de
  6332a59002:	c001                	.insn	2, 0xc001
  6332a59004:	0000                	.insn	2, 0x0000
	...

Disassembly of section .SID_SVNAPOT_00_LRSC_stack:

000000053eeb0000 <.SID_SVNAPOT_00_LRSC_stack>:
   53eeb0000:	c0de                	.insn	2, 0xc0de
   53eeb0002:	c001                	.insn	2, 0xc001
   53eeb0004:	0000                	.insn	2, 0x0000
	...

Disassembly of section .SID_SVNAPOT_01_LOAD_stack:

000000719901e000 <.SID_SVNAPOT_01_LOAD_stack>:
  719901e000:	c0de                	.insn	2, 0xc0de
  719901e002:	c001                	.insn	2, 0xc001
  719901e004:	0000                	.insn	2, 0x0000
	...

Disassembly of section .SID_SVNAPOT_01_STORE_stack:

0000000001528000 <.SID_SVNAPOT_01_STORE_stack>:
 1528000:	c0de                	.insn	2, 0xc0de
 1528002:	c001                	.insn	2, 0xc001
 1528004:	0000                	.insn	2, 0x0000
	...

Disassembly of section .SID_SVNAPOT_01_AMO_stack:

0000000000252000 <.SID_SVNAPOT_01_AMO_stack>:
  252000:	c0de                	.insn	2, 0xc0de
  252002:	c001                	.insn	2, 0xc001
  252004:	0000                	.insn	2, 0x0000
	...

Disassembly of section .SID_SVNAPOT_01_LRSC_stack:

0000b674d8160000 <.SID_SVNAPOT_01_LRSC_stack>:
    b674d8160000:	c0de                	.insn	2, 0xc0de
    b674d8160002:	c001                	.insn	2, 0xc001
    b674d8160004:	0000                	.insn	2, 0x0000
	...

Disassembly of section .SID_SVNAPOT_02_LOAD_stack:

000000021b8ac000 <.SID_SVNAPOT_02_LOAD_stack>:
   21b8ac000:	c0de                	.insn	2, 0xc0de
   21b8ac002:	c001                	.insn	2, 0xc001
   21b8ac004:	0000                	.insn	2, 0x0000
	...

Disassembly of section .SID_SVNAPOT_02_STORE_stack:

0000000000061000 <.SID_SVNAPOT_02_STORE_stack>:
   61000:	c0de                	.insn	2, 0xc0de
   61002:	c001                	.insn	2, 0xc001
   61004:	0000                	.insn	2, 0x0000
	...

Disassembly of section .SID_SVNAPOT_02_AMO_stack:

000000000000a000 <.SID_SVNAPOT_02_AMO_stack>:
    a000:	c0de                	.insn	2, 0xc0de
    a002:	c001                	.insn	2, 0xc001
    a004:	0000                	.insn	2, 0x0000
	...

Disassembly of section .SID_SVNAPOT_02_LRSC_stack:

000b7715b8cf6000 <.SID_SVNAPOT_02_LRSC_stack>:
   b7715b8cf6000:	c0de                	.insn	2, 0xc0de
   b7715b8cf6002:	c001                	.insn	2, 0xc001
   b7715b8cf6004:	0000                	.insn	2, 0x0000
	...

Disassembly of section .__pagetable_map_os_0x000000004217e000:

000000004217e000 <__pagetable_map_os_0x000000004217e000>:
    4217e000:	c401                	.insn	2, 0xc401
    4217e002:	000010b3          	sll	x1,x0,x0
    4217e006:	0000                	.insn	2, 0x0000
    4217e008:	3001                	.insn	2, 0x3001
    4217e00a:	00001117          	auipc	x2,0x1
    4217e00e:	0000                	.insn	2, 0x0000
    4217e010:	4801                	.insn	2, 0x4801
    4217e012:	10ac                	.insn	2, 0x10ac
    4217e014:	0000                	.insn	2, 0x0000
    4217e016:	0000                	.insn	2, 0x0000
    4217e018:	6401                	.insn	2, 0x6401
    4217e01a:	1086                	.insn	2, 0x1086
    4217e01c:	0000                	.insn	2, 0x0000
    4217e01e:	0000                	.insn	2, 0x0000
    4217e020:	8401                	.insn	2, 0x8401
    4217e022:	00001113          	slli	x2,x0,0x0
	...
    4217e02e:	0000                	.insn	2, 0x0000
    4217e030:	0c01                	.insn	2, 0x0c01
    4217e032:	1086                	.insn	2, 0x1086
	...
    4217e058:	7801                	.insn	2, 0x7801
    4217e05a:	1108                	.insn	2, 0x1108
	...
    4217e068:	a801                	.insn	2, 0xa801
    4217e06a:	1086                	.insn	2, 0x1086
    4217e06c:	0000                	.insn	2, 0x0000
    4217e06e:	0000                	.insn	2, 0x0000
    4217e070:	f401                	.insn	2, 0xf401
    4217e072:	0000112b          	.insn	4, 0x112b
	...
    4217e0a6:	0000                	.insn	2, 0x0000
    4217e0a8:	f801                	.insn	2, 0xf801
    4217e0aa:	000010ff 00000000 	.insn	12, 0x10ff
    4217e0b2:	00000000 
	...
    4217e17e:	0000                	.insn	2, 0x0000
    4217e180:	9801                	.insn	2, 0x9801
    4217e182:	1112                	.insn	2, 0x1112
	...
    4217e1b0:	f401                	.insn	2, 0xf401
    4217e1b2:	10aa                	.insn	2, 0x10aa
	...
    4217e1c0:	4801                	.insn	2, 0x4801
    4217e1c2:	10e5                	.insn	2, 0x10e5
	...
    4217e348:	8801                	.insn	2, 0x8801
    4217e34a:	10ce                	.insn	2, 0x10ce
	...
    4217e520:	d801                	.insn	2, 0xd801
    4217e522:	1114                	.insn	2, 0x1114
	...
    4217e9f0:	9001                	.insn	2, 0x9001
    4217e9f2:	112c                	.insn	2, 0x112c
	...
    4217eb60:	8c01                	.insn	2, 0x8c01
    4217eb62:	108a                	.insn	2, 0x108a
    4217eb64:	0000                	.insn	2, 0x0000
	...

Disassembly of section .__pagetable_map_os_0x0000000042cf1000:

0000000042cf1000 <__pagetable_map_os_0x0000000042cf1000>:
    42cf1000:	d801                	.insn	2, 0xd801
    42cf1002:	0000113b          	sllw	x2,x0,x0
	...
    42cf1036:	0000                	.insn	2, 0x0000
    42cf1038:	4c01                	.insn	2, 0x4c01
    42cf103a:	1129                	.insn	2, 0x1129
	...
    42cf1070:	3c01                	.insn	2, 0x3c01
    42cf1072:	1086                	.insn	2, 0x1086
	...
    42cf1b60:	5c01                	.insn	2, 0x5c01
    42cf1b62:	1124                	.insn	2, 0x1124
    42cf1b64:	0000                	.insn	2, 0x0000
	...

Disassembly of section .__pagetable_map_os_0x0000000044ef6000:

0000000044ef6000 <__pagetable_map_os_0x0000000044ef6000>:
    44ef6000:	2801                	.insn	2, 0x2801
    44ef6002:	112c                	.insn	2, 0x112c
    44ef6004:	0000                	.insn	2, 0x0000
    44ef6006:	0000                	.insn	2, 0x0000
    44ef6008:	b801                	.insn	2, 0xb801
    44ef600a:	10ae                	.insn	2, 0x10ae
    44ef600c:	0000                	.insn	2, 0x0000
    44ef600e:	0000                	.insn	2, 0x0000
    44ef6010:	8001                	.insn	2, 0x8001
    44ef6012:	10b6                	.insn	2, 0x10b6
    44ef6014:	0000                	.insn	2, 0x0000
    44ef6016:	0000                	.insn	2, 0x0000
    44ef6018:	8001                	.insn	2, 0x8001
    44ef601a:	112c                	.insn	2, 0x112c
	...
    44ef6038:	c001                	.insn	2, 0xc001
    44ef603a:	1108                	.insn	2, 0x1108
    44ef603c:	0000                	.insn	2, 0x0000
    44ef603e:	0000                	.insn	2, 0x0000
    44ef6040:	8c01                	.insn	2, 0x8c01
    44ef6042:	10fe                	.insn	2, 0x10fe
	...
    44ef60a0:	5c01                	.insn	2, 0x5c01
    44ef60a2:	1115                	.insn	2, 0x1115
	...
    44ef60e0:	e401                	.insn	2, 0xe401
    44ef60e2:	112c                	.insn	2, 0x112c
	...
    44ef60f8:	7801                	.insn	2, 0x7801
    44ef60fa:	00001117          	auipc	x2,0x1
	...
    44ef6196:	0000                	.insn	2, 0x0000
    44ef6198:	3401                	.insn	2, 0x3401
    44ef619a:	00001117          	auipc	x2,0x1
	...
    44ef6206:	0000                	.insn	2, 0x0000
    44ef6208:	1c01                	.insn	2, 0x1c01
    44ef620a:	1070                	.insn	2, 0x1070
	...
    44ef62a8:	c401                	.insn	2, 0xc401
    44ef62aa:	1119                	.insn	2, 0x1119
	...
    44ef63b8:	7401                	.insn	2, 0x7401
    44ef63ba:	10fe                	.insn	2, 0x10fe
	...
    44ef6600:	fc01                	.insn	2, 0xfc01
    44ef6602:	1086                	.insn	2, 0x1086
	...
    44ef6670:	6c01                	.insn	2, 0x6c01
    44ef6672:	1124                	.insn	2, 0x1124
	...
    44ef6c60:	0801                	.insn	2, 0x0801
    44ef6c62:	000010af          	.insn	4, 0x10af
	...
    44ef6e2e:	0000                	.insn	2, 0x0000
    44ef6e30:	8001                	.insn	2, 0x8001
    44ef6e32:	1111                	.insn	2, 0x1111
    44ef6e34:	0000                	.insn	2, 0x0000
	...

Disassembly of section .__pagetable_map_os_0x0000000042bae000:

0000000042bae000 <__pagetable_map_os_0x0000000042bae000>:
	...
    42bae028:	6801                	.insn	2, 0x6801
    42bae02a:	10ac                	.insn	2, 0x10ac
	...
    42bae038:	1c01                	.insn	2, 0x1c01
    42bae03a:	1111                	.insn	2, 0x1111
    42bae03c:	0000                	.insn	2, 0x0000
    42bae03e:	0000                	.insn	2, 0x0000
    42bae040:	5401                	.insn	2, 0x5401
    42bae042:	112a                	.insn	2, 0x112a
    42bae044:	0000                	.insn	2, 0x0000
    42bae046:	0000                	.insn	2, 0x0000
    42bae048:	4001                	.insn	2, 0x4001
    42bae04a:	1086                	.insn	2, 0x1086
	...
    42bae080:	d401                	.insn	2, 0xd401
    42bae082:	1115                	.insn	2, 0x1115
	...
    42baee20:	8401                	.insn	2, 0x8401
    42baee22:	1114                	.insn	2, 0x1114
    42baee24:	0000                	.insn	2, 0x0000
	...

Disassembly of section .__pagetable_map_os_0x0000000044a95000:

0000000044a95000 <__pagetable_map_os_0x0000000044a95000>:
	...
    44a95080:	104040cf          	fnmadd.s	f1,f0,f4,f2,rmm
    44a95084:	0000                	.insn	2, 0x0000
    44a95086:	0000                	.insn	2, 0x0000
    44a95088:	104044cf          	fnmadd.s	f9,f0,f4,f2,rmm
    44a9508c:	0000                	.insn	2, 0x0000
    44a9508e:	0000                	.insn	2, 0x0000
    44a95090:	104048cf          	fnmadd.s	f17,f0,f4,f2,rmm
    44a95094:	0000                	.insn	2, 0x0000
    44a95096:	0000                	.insn	2, 0x0000
    44a95098:	10404ccf          	fnmadd.s	f25,f0,f4,f2,rmm
    44a9509c:	0000                	.insn	2, 0x0000
    44a9509e:	0000                	.insn	2, 0x0000
    44a950a0:	110000cf          	fnmadd.s	f1,f0,f16,f2,rne
    44a950a4:	0000                	.insn	2, 0x0000
    44a950a6:	0000                	.insn	2, 0x0000
    44a950a8:	110004cf          	fnmadd.s	f9,f0,f16,f2,rne
    44a950ac:	0000                	.insn	2, 0x0000
    44a950ae:	0000                	.insn	2, 0x0000
    44a950b0:	110008cf          	fnmadd.s	f17,f0,f16,f2,rne
    44a950b4:	0000                	.insn	2, 0x0000
    44a950b6:	0000                	.insn	2, 0x0000
    44a950b8:	11000ccf          	fnmadd.s	f25,f0,f16,f2,rne
    44a950bc:	0000                	.insn	2, 0x0000
    44a950be:	0000                	.insn	2, 0x0000
    44a950c0:	110010cf          	fnmadd.s	f1,f0,f16,f2,rtz
    44a950c4:	0000                	.insn	2, 0x0000
    44a950c6:	0000                	.insn	2, 0x0000
    44a950c8:	110014cf          	fnmadd.s	f9,f0,f16,f2,rtz
    44a950cc:	0000                	.insn	2, 0x0000
    44a950ce:	0000                	.insn	2, 0x0000
    44a950d0:	110018cf          	fnmadd.s	f17,f0,f16,f2,rtz
    44a950d4:	0000                	.insn	2, 0x0000
    44a950d6:	0000                	.insn	2, 0x0000
    44a950d8:	11001ccf          	fnmadd.s	f25,f0,f16,f2,rtz
    44a950dc:	0000                	.insn	2, 0x0000
    44a950de:	0000                	.insn	2, 0x0000
    44a950e0:	110020cf          	fnmadd.s	f1,f0,f16,f2,rdn
    44a950e4:	0000                	.insn	2, 0x0000
    44a950e6:	0000                	.insn	2, 0x0000
    44a950e8:	110024cf          	fnmadd.s	f9,f0,f16,f2,rdn
    44a950ec:	0000                	.insn	2, 0x0000
    44a950ee:	0000                	.insn	2, 0x0000
    44a950f0:	110028cf          	fnmadd.s	f17,f0,f16,f2,rdn
    44a950f4:	0000                	.insn	2, 0x0000
    44a950f6:	0000                	.insn	2, 0x0000
    44a950f8:	11002ccf          	fnmadd.s	f25,f0,f16,f2,rdn
    44a950fc:	0000                	.insn	2, 0x0000
    44a950fe:	0000                	.insn	2, 0x0000
    44a95100:	110030cf          	fnmadd.s	f1,f0,f16,f2,rup
    44a95104:	0000                	.insn	2, 0x0000
    44a95106:	0000                	.insn	2, 0x0000
    44a95108:	110034cf          	fnmadd.s	f9,f0,f16,f2,rup
    44a9510c:	0000                	.insn	2, 0x0000
    44a9510e:	0000                	.insn	2, 0x0000
    44a95110:	110038cf          	fnmadd.s	f17,f0,f16,f2,rup
    44a95114:	0000                	.insn	2, 0x0000
    44a95116:	0000                	.insn	2, 0x0000
    44a95118:	11003ccf          	fnmadd.s	f25,f0,f16,f2,rup
    44a9511c:	0000                	.insn	2, 0x0000
    44a9511e:	0000                	.insn	2, 0x0000
    44a95120:	110040cf          	fnmadd.s	f1,f0,f16,f2,rmm
    44a95124:	0000                	.insn	2, 0x0000
    44a95126:	0000                	.insn	2, 0x0000
    44a95128:	110044cf          	fnmadd.s	f9,f0,f16,f2,rmm
    44a9512c:	0000                	.insn	2, 0x0000
    44a9512e:	0000                	.insn	2, 0x0000
    44a95130:	110048cf          	fnmadd.s	f17,f0,f16,f2,rmm
    44a95134:	0000                	.insn	2, 0x0000
    44a95136:	0000                	.insn	2, 0x0000
    44a95138:	11004ccf          	fnmadd.s	f25,f0,f16,f2,rmm
    44a9513c:	0000                	.insn	2, 0x0000
    44a9513e:	0000                	.insn	2, 0x0000
    44a95140:	110050cf          	fnmadd.s	f1,f0,f16,f2,unknown
    44a95144:	0000                	.insn	2, 0x0000
    44a95146:	0000                	.insn	2, 0x0000
    44a95148:	110054cf          	fnmadd.s	f9,f0,f16,f2,unknown
    44a9514c:	0000                	.insn	2, 0x0000
    44a9514e:	0000                	.insn	2, 0x0000
    44a95150:	110058cf          	fnmadd.s	f17,f0,f16,f2,unknown
    44a95154:	0000                	.insn	2, 0x0000
    44a95156:	0000                	.insn	2, 0x0000
    44a95158:	11005ccf          	fnmadd.s	f25,f0,f16,f2,unknown
    44a9515c:	0000                	.insn	2, 0x0000
    44a9515e:	0000                	.insn	2, 0x0000
    44a95160:	110060cf          	fnmadd.s	f1,f0,f16,f2,unknown
    44a95164:	0000                	.insn	2, 0x0000
    44a95166:	0000                	.insn	2, 0x0000
    44a95168:	110064cf          	fnmadd.s	f9,f0,f16,f2,unknown
    44a9516c:	0000                	.insn	2, 0x0000
    44a9516e:	0000                	.insn	2, 0x0000
    44a95170:	110068cf          	fnmadd.s	f17,f0,f16,f2,unknown
    44a95174:	0000                	.insn	2, 0x0000
    44a95176:	0000                	.insn	2, 0x0000
    44a95178:	11006ccf          	fnmadd.s	f25,f0,f16,f2,unknown
    44a9517c:	0000                	.insn	2, 0x0000
    44a9517e:	0000                	.insn	2, 0x0000
    44a95180:	110070cf          	fnmadd.s	f1,f0,f16,f2
    44a95184:	0000                	.insn	2, 0x0000
    44a95186:	0000                	.insn	2, 0x0000
    44a95188:	110074cf          	fnmadd.s	f9,f0,f16,f2
    44a9518c:	0000                	.insn	2, 0x0000
    44a9518e:	0000                	.insn	2, 0x0000
    44a95190:	110078cf          	fnmadd.s	f17,f0,f16,f2
    44a95194:	0000                	.insn	2, 0x0000
    44a95196:	0000                	.insn	2, 0x0000
    44a95198:	11007ccf          	fnmadd.s	f25,f0,f16,f2
    44a9519c:	0000                	.insn	2, 0x0000
    44a9519e:	0000                	.insn	2, 0x0000
    44a951a0:	110080cf          	fnmadd.s	f1,f1,f16,f2,rne
    44a951a4:	0000                	.insn	2, 0x0000
    44a951a6:	0000                	.insn	2, 0x0000
    44a951a8:	110084cf          	fnmadd.s	f9,f1,f16,f2,rne
    44a951ac:	0000                	.insn	2, 0x0000
    44a951ae:	0000                	.insn	2, 0x0000
    44a951b0:	110088cf          	fnmadd.s	f17,f1,f16,f2,rne
    44a951b4:	0000                	.insn	2, 0x0000
    44a951b6:	0000                	.insn	2, 0x0000
    44a951b8:	11008ccf          	fnmadd.s	f25,f1,f16,f2,rne
    44a951bc:	0000                	.insn	2, 0x0000
    44a951be:	0000                	.insn	2, 0x0000
    44a951c0:	110090cf          	fnmadd.s	f1,f1,f16,f2,rtz
    44a951c4:	0000                	.insn	2, 0x0000
    44a951c6:	0000                	.insn	2, 0x0000
    44a951c8:	110094cf          	fnmadd.s	f9,f1,f16,f2,rtz
    44a951cc:	0000                	.insn	2, 0x0000
    44a951ce:	0000                	.insn	2, 0x0000
    44a951d0:	110098cf          	fnmadd.s	f17,f1,f16,f2,rtz
    44a951d4:	0000                	.insn	2, 0x0000
    44a951d6:	0000                	.insn	2, 0x0000
    44a951d8:	11009ccf          	fnmadd.s	f25,f1,f16,f2,rtz
    44a951dc:	0000                	.insn	2, 0x0000
    44a951de:	0000                	.insn	2, 0x0000
    44a951e0:	1100a0cf          	fnmadd.s	f1,f1,f16,f2,rdn
    44a951e4:	0000                	.insn	2, 0x0000
    44a951e6:	0000                	.insn	2, 0x0000
    44a951e8:	1100a4cf          	fnmadd.s	f9,f1,f16,f2,rdn
    44a951ec:	0000                	.insn	2, 0x0000
    44a951ee:	0000                	.insn	2, 0x0000
    44a951f0:	1100a8cf          	fnmadd.s	f17,f1,f16,f2,rdn
    44a951f4:	0000                	.insn	2, 0x0000
    44a951f6:	0000                	.insn	2, 0x0000
    44a951f8:	1100accf          	fnmadd.s	f25,f1,f16,f2,rdn
    44a951fc:	0000                	.insn	2, 0x0000
    44a951fe:	0000                	.insn	2, 0x0000
    44a95200:	104100cf          	fnmadd.s	f1,f2,f4,f2,rne
    44a95204:	0000                	.insn	2, 0x0000
    44a95206:	0000                	.insn	2, 0x0000
    44a95208:	1100b4cf          	fnmadd.s	f9,f1,f16,f2,rup
    44a9520c:	0000                	.insn	2, 0x0000
    44a9520e:	0000                	.insn	2, 0x0000
    44a95210:	1100b8cf          	fnmadd.s	f17,f1,f16,f2,rup
    44a95214:	0000                	.insn	2, 0x0000
    44a95216:	0000                	.insn	2, 0x0000
    44a95218:	1100bccf          	fnmadd.s	f25,f1,f16,f2,rup
    44a9521c:	0000                	.insn	2, 0x0000
    44a9521e:	0000                	.insn	2, 0x0000
    44a95220:	1100c0cf          	fnmadd.s	f1,f1,f16,f2,rmm
    44a95224:	0000                	.insn	2, 0x0000
    44a95226:	0000                	.insn	2, 0x0000
    44a95228:	1100c4cf          	fnmadd.s	f9,f1,f16,f2,rmm
    44a9522c:	0000                	.insn	2, 0x0000
    44a9522e:	0000                	.insn	2, 0x0000
    44a95230:	1100c8cf          	fnmadd.s	f17,f1,f16,f2,rmm
    44a95234:	0000                	.insn	2, 0x0000
    44a95236:	0000                	.insn	2, 0x0000
    44a95238:	1100cccf          	fnmadd.s	f25,f1,f16,f2,rmm
    44a9523c:	0000                	.insn	2, 0x0000
    44a9523e:	0000                	.insn	2, 0x0000
    44a95240:	1100d0cf          	fnmadd.s	f1,f1,f16,f2,unknown
    44a95244:	0000                	.insn	2, 0x0000
    44a95246:	0000                	.insn	2, 0x0000
    44a95248:	1100d4cf          	fnmadd.s	f9,f1,f16,f2,unknown
    44a9524c:	0000                	.insn	2, 0x0000
    44a9524e:	0000                	.insn	2, 0x0000
    44a95250:	1100d8cf          	fnmadd.s	f17,f1,f16,f2,unknown
    44a95254:	0000                	.insn	2, 0x0000
    44a95256:	0000                	.insn	2, 0x0000
    44a95258:	1100dccf          	fnmadd.s	f25,f1,f16,f2,unknown
    44a9525c:	0000                	.insn	2, 0x0000
    44a9525e:	0000                	.insn	2, 0x0000
    44a95260:	1100e0cf          	fnmadd.s	f1,f1,f16,f2,unknown
    44a95264:	0000                	.insn	2, 0x0000
    44a95266:	0000                	.insn	2, 0x0000
    44a95268:	1100e4cf          	fnmadd.s	f9,f1,f16,f2,unknown
    44a9526c:	0000                	.insn	2, 0x0000
    44a9526e:	0000                	.insn	2, 0x0000
    44a95270:	1100e8cf          	fnmadd.s	f17,f1,f16,f2,unknown
    44a95274:	0000                	.insn	2, 0x0000
    44a95276:	0000                	.insn	2, 0x0000
    44a95278:	1100eccf          	fnmadd.s	f25,f1,f16,f2,unknown
    44a9527c:	0000                	.insn	2, 0x0000
    44a9527e:	0000                	.insn	2, 0x0000
    44a95280:	1100f0cf          	fnmadd.s	f1,f1,f16,f2
    44a95284:	0000                	.insn	2, 0x0000
    44a95286:	0000                	.insn	2, 0x0000
    44a95288:	1100f4cf          	fnmadd.s	f9,f1,f16,f2
    44a9528c:	0000                	.insn	2, 0x0000
    44a9528e:	0000                	.insn	2, 0x0000
    44a95290:	1100f8cf          	fnmadd.s	f17,f1,f16,f2
    44a95294:	0000                	.insn	2, 0x0000
    44a95296:	0000                	.insn	2, 0x0000
    44a95298:	1100fccf          	fnmadd.s	f25,f1,f16,f2
    44a9529c:	0000                	.insn	2, 0x0000
    44a9529e:	0000                	.insn	2, 0x0000
    44a952a0:	110100cf          	fnmadd.s	f1,f2,f16,f2,rne
    44a952a4:	0000                	.insn	2, 0x0000
    44a952a6:	0000                	.insn	2, 0x0000
    44a952a8:	110104cf          	fnmadd.s	f9,f2,f16,f2,rne
    44a952ac:	0000                	.insn	2, 0x0000
    44a952ae:	0000                	.insn	2, 0x0000
    44a952b0:	110108cf          	fnmadd.s	f17,f2,f16,f2,rne
    44a952b4:	0000                	.insn	2, 0x0000
    44a952b6:	0000                	.insn	2, 0x0000
    44a952b8:	11010ccf          	fnmadd.s	f25,f2,f16,f2,rne
    44a952bc:	0000                	.insn	2, 0x0000
    44a952be:	0000                	.insn	2, 0x0000
    44a952c0:	110110cf          	fnmadd.s	f1,f2,f16,f2,rtz
    44a952c4:	0000                	.insn	2, 0x0000
    44a952c6:	0000                	.insn	2, 0x0000
    44a952c8:	110114cf          	fnmadd.s	f9,f2,f16,f2,rtz
    44a952cc:	0000                	.insn	2, 0x0000
    44a952ce:	0000                	.insn	2, 0x0000
    44a952d0:	110118cf          	fnmadd.s	f17,f2,f16,f2,rtz
    44a952d4:	0000                	.insn	2, 0x0000
    44a952d6:	0000                	.insn	2, 0x0000
    44a952d8:	11011ccf          	fnmadd.s	f25,f2,f16,f2,rtz
    44a952dc:	0000                	.insn	2, 0x0000
    44a952de:	0000                	.insn	2, 0x0000
    44a952e0:	110120cf          	fnmadd.s	f1,f2,f16,f2,rdn
    44a952e4:	0000                	.insn	2, 0x0000
    44a952e6:	0000                	.insn	2, 0x0000
    44a952e8:	110124cf          	fnmadd.s	f9,f2,f16,f2,rdn
    44a952ec:	0000                	.insn	2, 0x0000
    44a952ee:	0000                	.insn	2, 0x0000
    44a952f0:	110128cf          	fnmadd.s	f17,f2,f16,f2,rdn
    44a952f4:	0000                	.insn	2, 0x0000
    44a952f6:	0000                	.insn	2, 0x0000
    44a952f8:	11012ccf          	fnmadd.s	f25,f2,f16,f2,rdn
    44a952fc:	0000                	.insn	2, 0x0000
    44a952fe:	0000                	.insn	2, 0x0000
    44a95300:	110130cf          	fnmadd.s	f1,f2,f16,f2,rup
    44a95304:	0000                	.insn	2, 0x0000
    44a95306:	0000                	.insn	2, 0x0000
    44a95308:	110134cf          	fnmadd.s	f9,f2,f16,f2,rup
    44a9530c:	0000                	.insn	2, 0x0000
    44a9530e:	0000                	.insn	2, 0x0000
    44a95310:	110138cf          	fnmadd.s	f17,f2,f16,f2,rup
    44a95314:	0000                	.insn	2, 0x0000
    44a95316:	0000                	.insn	2, 0x0000
    44a95318:	11013ccf          	fnmadd.s	f25,f2,f16,f2,rup
    44a9531c:	0000                	.insn	2, 0x0000
    44a9531e:	0000                	.insn	2, 0x0000
    44a95320:	110140cf          	fnmadd.s	f1,f2,f16,f2,rmm
    44a95324:	0000                	.insn	2, 0x0000
    44a95326:	0000                	.insn	2, 0x0000
    44a95328:	110144cf          	fnmadd.s	f9,f2,f16,f2,rmm
    44a9532c:	0000                	.insn	2, 0x0000
    44a9532e:	0000                	.insn	2, 0x0000
    44a95330:	110148cf          	fnmadd.s	f17,f2,f16,f2,rmm
    44a95334:	0000                	.insn	2, 0x0000
    44a95336:	0000                	.insn	2, 0x0000
    44a95338:	11014ccf          	fnmadd.s	f25,f2,f16,f2,rmm
    44a9533c:	0000                	.insn	2, 0x0000
    44a9533e:	0000                	.insn	2, 0x0000
    44a95340:	110150cf          	fnmadd.s	f1,f2,f16,f2,unknown
    44a95344:	0000                	.insn	2, 0x0000
    44a95346:	0000                	.insn	2, 0x0000
    44a95348:	110154cf          	fnmadd.s	f9,f2,f16,f2,unknown
    44a9534c:	0000                	.insn	2, 0x0000
    44a9534e:	0000                	.insn	2, 0x0000
    44a95350:	110158cf          	fnmadd.s	f17,f2,f16,f2,unknown
    44a95354:	0000                	.insn	2, 0x0000
    44a95356:	0000                	.insn	2, 0x0000
    44a95358:	11015ccf          	fnmadd.s	f25,f2,f16,f2,unknown
    44a9535c:	0000                	.insn	2, 0x0000
    44a9535e:	0000                	.insn	2, 0x0000
    44a95360:	110160cf          	fnmadd.s	f1,f2,f16,f2,unknown
    44a95364:	0000                	.insn	2, 0x0000
    44a95366:	0000                	.insn	2, 0x0000
    44a95368:	110164cf          	fnmadd.s	f9,f2,f16,f2,unknown
    44a9536c:	0000                	.insn	2, 0x0000
    44a9536e:	0000                	.insn	2, 0x0000
    44a95370:	110168cf          	fnmadd.s	f17,f2,f16,f2,unknown
    44a95374:	0000                	.insn	2, 0x0000
    44a95376:	0000                	.insn	2, 0x0000
    44a95378:	11016ccf          	fnmadd.s	f25,f2,f16,f2,unknown
    44a9537c:	0000                	.insn	2, 0x0000
    44a9537e:	0000                	.insn	2, 0x0000
    44a95380:	110170cf          	fnmadd.s	f1,f2,f16,f2
    44a95384:	0000                	.insn	2, 0x0000
    44a95386:	0000                	.insn	2, 0x0000
    44a95388:	110174cf          	fnmadd.s	f9,f2,f16,f2
    44a9538c:	0000                	.insn	2, 0x0000
    44a9538e:	0000                	.insn	2, 0x0000
    44a95390:	110178cf          	fnmadd.s	f17,f2,f16,f2
    44a95394:	0000                	.insn	2, 0x0000
    44a95396:	0000                	.insn	2, 0x0000
    44a95398:	11017ccf          	fnmadd.s	f25,f2,f16,f2
    44a9539c:	0000                	.insn	2, 0x0000
    44a9539e:	0000                	.insn	2, 0x0000
    44a953a0:	110180cf          	fnmadd.s	f1,f3,f16,f2,rne
    44a953a4:	0000                	.insn	2, 0x0000
    44a953a6:	0000                	.insn	2, 0x0000
    44a953a8:	110184cf          	fnmadd.s	f9,f3,f16,f2,rne
    44a953ac:	0000                	.insn	2, 0x0000
    44a953ae:	0000                	.insn	2, 0x0000
    44a953b0:	110188cf          	fnmadd.s	f17,f3,f16,f2,rne
    44a953b4:	0000                	.insn	2, 0x0000
    44a953b6:	0000                	.insn	2, 0x0000
    44a953b8:	11018ccf          	fnmadd.s	f25,f3,f16,f2,rne
    44a953bc:	0000                	.insn	2, 0x0000
    44a953be:	0000                	.insn	2, 0x0000
    44a953c0:	110190cf          	fnmadd.s	f1,f3,f16,f2,rtz
    44a953c4:	0000                	.insn	2, 0x0000
    44a953c6:	0000                	.insn	2, 0x0000
    44a953c8:	110194cf          	fnmadd.s	f9,f3,f16,f2,rtz
    44a953cc:	0000                	.insn	2, 0x0000
    44a953ce:	0000                	.insn	2, 0x0000
    44a953d0:	110198cf          	fnmadd.s	f17,f3,f16,f2,rtz
    44a953d4:	0000                	.insn	2, 0x0000
    44a953d6:	0000                	.insn	2, 0x0000
    44a953d8:	11019ccf          	fnmadd.s	f25,f3,f16,f2,rtz
    44a953dc:	0000                	.insn	2, 0x0000
    44a953de:	0000                	.insn	2, 0x0000
    44a953e0:	1101a0cf          	fnmadd.s	f1,f3,f16,f2,rdn
    44a953e4:	0000                	.insn	2, 0x0000
    44a953e6:	0000                	.insn	2, 0x0000
    44a953e8:	1101a4cf          	fnmadd.s	f9,f3,f16,f2,rdn
    44a953ec:	0000                	.insn	2, 0x0000
    44a953ee:	0000                	.insn	2, 0x0000
    44a953f0:	1101a8cf          	fnmadd.s	f17,f3,f16,f2,rdn
    44a953f4:	0000                	.insn	2, 0x0000
    44a953f6:	0000                	.insn	2, 0x0000
    44a953f8:	1101accf          	fnmadd.s	f25,f3,f16,f2,rdn
    44a953fc:	0000                	.insn	2, 0x0000
    44a953fe:	0000                	.insn	2, 0x0000
    44a95400:	1101b0cf          	fnmadd.s	f1,f3,f16,f2,rup
    44a95404:	0000                	.insn	2, 0x0000
    44a95406:	0000                	.insn	2, 0x0000
    44a95408:	1101b4cf          	fnmadd.s	f9,f3,f16,f2,rup
    44a9540c:	0000                	.insn	2, 0x0000
    44a9540e:	0000                	.insn	2, 0x0000
    44a95410:	1101b8cf          	fnmadd.s	f17,f3,f16,f2,rup
    44a95414:	0000                	.insn	2, 0x0000
    44a95416:	0000                	.insn	2, 0x0000
    44a95418:	1101bccf          	fnmadd.s	f25,f3,f16,f2,rup
    44a9541c:	0000                	.insn	2, 0x0000
    44a9541e:	0000                	.insn	2, 0x0000
    44a95420:	1101c0cf          	fnmadd.s	f1,f3,f16,f2,rmm
    44a95424:	0000                	.insn	2, 0x0000
    44a95426:	0000                	.insn	2, 0x0000
    44a95428:	1101c4cf          	fnmadd.s	f9,f3,f16,f2,rmm
    44a9542c:	0000                	.insn	2, 0x0000
    44a9542e:	0000                	.insn	2, 0x0000
    44a95430:	1101c8cf          	fnmadd.s	f17,f3,f16,f2,rmm
    44a95434:	0000                	.insn	2, 0x0000
    44a95436:	0000                	.insn	2, 0x0000
    44a95438:	1101cccf          	fnmadd.s	f25,f3,f16,f2,rmm
    44a9543c:	0000                	.insn	2, 0x0000
    44a9543e:	0000                	.insn	2, 0x0000
    44a95440:	1101d0cf          	fnmadd.s	f1,f3,f16,f2,unknown
    44a95444:	0000                	.insn	2, 0x0000
    44a95446:	0000                	.insn	2, 0x0000
    44a95448:	1101d4cf          	fnmadd.s	f9,f3,f16,f2,unknown
    44a9544c:	0000                	.insn	2, 0x0000
    44a9544e:	0000                	.insn	2, 0x0000
    44a95450:	1101d8cf          	fnmadd.s	f17,f3,f16,f2,unknown
    44a95454:	0000                	.insn	2, 0x0000
    44a95456:	0000                	.insn	2, 0x0000
    44a95458:	1101dccf          	fnmadd.s	f25,f3,f16,f2,unknown
    44a9545c:	0000                	.insn	2, 0x0000
    44a9545e:	0000                	.insn	2, 0x0000
    44a95460:	1101e0cf          	fnmadd.s	f1,f3,f16,f2,unknown
    44a95464:	0000                	.insn	2, 0x0000
    44a95466:	0000                	.insn	2, 0x0000
    44a95468:	1101e4cf          	fnmadd.s	f9,f3,f16,f2,unknown
    44a9546c:	0000                	.insn	2, 0x0000
    44a9546e:	0000                	.insn	2, 0x0000
    44a95470:	1101e8cf          	fnmadd.s	f17,f3,f16,f2,unknown
    44a95474:	0000                	.insn	2, 0x0000
    44a95476:	0000                	.insn	2, 0x0000
    44a95478:	1101eccf          	fnmadd.s	f25,f3,f16,f2,unknown
    44a9547c:	0000                	.insn	2, 0x0000
    44a9547e:	0000                	.insn	2, 0x0000
    44a95480:	1101f0cf          	fnmadd.s	f1,f3,f16,f2
    44a95484:	0000                	.insn	2, 0x0000
    44a95486:	0000                	.insn	2, 0x0000
    44a95488:	1101f4cf          	fnmadd.s	f9,f3,f16,f2
    44a9548c:	0000                	.insn	2, 0x0000
    44a9548e:	0000                	.insn	2, 0x0000
    44a95490:	1101f8cf          	fnmadd.s	f17,f3,f16,f2
    44a95494:	0000                	.insn	2, 0x0000
    44a95496:	0000                	.insn	2, 0x0000
    44a95498:	1101fccf          	fnmadd.s	f25,f3,f16,f2
    44a9549c:	0000                	.insn	2, 0x0000
    44a9549e:	0000                	.insn	2, 0x0000
    44a954a0:	110200cf          	fnmadd.s	f1,f4,f16,f2,rne
    44a954a4:	0000                	.insn	2, 0x0000
    44a954a6:	0000                	.insn	2, 0x0000
    44a954a8:	110204cf          	fnmadd.s	f9,f4,f16,f2,rne
    44a954ac:	0000                	.insn	2, 0x0000
    44a954ae:	0000                	.insn	2, 0x0000
    44a954b0:	110208cf          	fnmadd.s	f17,f4,f16,f2,rne
    44a954b4:	0000                	.insn	2, 0x0000
    44a954b6:	0000                	.insn	2, 0x0000
    44a954b8:	11020ccf          	fnmadd.s	f25,f4,f16,f2,rne
    44a954bc:	0000                	.insn	2, 0x0000
    44a954be:	0000                	.insn	2, 0x0000
    44a954c0:	110210cf          	fnmadd.s	f1,f4,f16,f2,rtz
    44a954c4:	0000                	.insn	2, 0x0000
    44a954c6:	0000                	.insn	2, 0x0000
    44a954c8:	110214cf          	fnmadd.s	f9,f4,f16,f2,rtz
    44a954cc:	0000                	.insn	2, 0x0000
    44a954ce:	0000                	.insn	2, 0x0000
    44a954d0:	110218cf          	fnmadd.s	f17,f4,f16,f2,rtz
    44a954d4:	0000                	.insn	2, 0x0000
    44a954d6:	0000                	.insn	2, 0x0000
    44a954d8:	11021ccf          	fnmadd.s	f25,f4,f16,f2,rtz
    44a954dc:	0000                	.insn	2, 0x0000
    44a954de:	0000                	.insn	2, 0x0000
    44a954e0:	110220cf          	fnmadd.s	f1,f4,f16,f2,rdn
    44a954e4:	0000                	.insn	2, 0x0000
    44a954e6:	0000                	.insn	2, 0x0000
    44a954e8:	110224cf          	fnmadd.s	f9,f4,f16,f2,rdn
    44a954ec:	0000                	.insn	2, 0x0000
    44a954ee:	0000                	.insn	2, 0x0000
    44a954f0:	110228cf          	fnmadd.s	f17,f4,f16,f2,rdn
    44a954f4:	0000                	.insn	2, 0x0000
    44a954f6:	0000                	.insn	2, 0x0000
    44a954f8:	11022ccf          	fnmadd.s	f25,f4,f16,f2,rdn
    44a954fc:	0000                	.insn	2, 0x0000
    44a954fe:	0000                	.insn	2, 0x0000
    44a95500:	110230cf          	fnmadd.s	f1,f4,f16,f2,rup
    44a95504:	0000                	.insn	2, 0x0000
    44a95506:	0000                	.insn	2, 0x0000
    44a95508:	110234cf          	fnmadd.s	f9,f4,f16,f2,rup
    44a9550c:	0000                	.insn	2, 0x0000
    44a9550e:	0000                	.insn	2, 0x0000
    44a95510:	110238cf          	fnmadd.s	f17,f4,f16,f2,rup
    44a95514:	0000                	.insn	2, 0x0000
    44a95516:	0000                	.insn	2, 0x0000
    44a95518:	11023ccf          	fnmadd.s	f25,f4,f16,f2,rup
    44a9551c:	0000                	.insn	2, 0x0000
    44a9551e:	0000                	.insn	2, 0x0000
    44a95520:	110240cf          	fnmadd.s	f1,f4,f16,f2,rmm
    44a95524:	0000                	.insn	2, 0x0000
    44a95526:	0000                	.insn	2, 0x0000
    44a95528:	110244cf          	fnmadd.s	f9,f4,f16,f2,rmm
    44a9552c:	0000                	.insn	2, 0x0000
    44a9552e:	0000                	.insn	2, 0x0000
    44a95530:	110248cf          	fnmadd.s	f17,f4,f16,f2,rmm
    44a95534:	0000                	.insn	2, 0x0000
    44a95536:	0000                	.insn	2, 0x0000
    44a95538:	11024ccf          	fnmadd.s	f25,f4,f16,f2,rmm
    44a9553c:	0000                	.insn	2, 0x0000
    44a9553e:	0000                	.insn	2, 0x0000
    44a95540:	110250cf          	fnmadd.s	f1,f4,f16,f2,unknown
    44a95544:	0000                	.insn	2, 0x0000
    44a95546:	0000                	.insn	2, 0x0000
    44a95548:	110254cf          	fnmadd.s	f9,f4,f16,f2,unknown
    44a9554c:	0000                	.insn	2, 0x0000
    44a9554e:	0000                	.insn	2, 0x0000
    44a95550:	110258cf          	fnmadd.s	f17,f4,f16,f2,unknown
    44a95554:	0000                	.insn	2, 0x0000
    44a95556:	0000                	.insn	2, 0x0000
    44a95558:	11025ccf          	fnmadd.s	f25,f4,f16,f2,unknown
    44a9555c:	0000                	.insn	2, 0x0000
    44a9555e:	0000                	.insn	2, 0x0000
    44a95560:	110260cf          	fnmadd.s	f1,f4,f16,f2,unknown
    44a95564:	0000                	.insn	2, 0x0000
    44a95566:	0000                	.insn	2, 0x0000
    44a95568:	110264cf          	fnmadd.s	f9,f4,f16,f2,unknown
    44a9556c:	0000                	.insn	2, 0x0000
    44a9556e:	0000                	.insn	2, 0x0000
    44a95570:	110268cf          	fnmadd.s	f17,f4,f16,f2,unknown
    44a95574:	0000                	.insn	2, 0x0000
    44a95576:	0000                	.insn	2, 0x0000
    44a95578:	11026ccf          	fnmadd.s	f25,f4,f16,f2,unknown
    44a9557c:	0000                	.insn	2, 0x0000
    44a9557e:	0000                	.insn	2, 0x0000
    44a95580:	110270cf          	fnmadd.s	f1,f4,f16,f2
    44a95584:	0000                	.insn	2, 0x0000
    44a95586:	0000                	.insn	2, 0x0000
    44a95588:	110274cf          	fnmadd.s	f9,f4,f16,f2
    44a9558c:	0000                	.insn	2, 0x0000
    44a9558e:	0000                	.insn	2, 0x0000
    44a95590:	110278cf          	fnmadd.s	f17,f4,f16,f2
    44a95594:	0000                	.insn	2, 0x0000
    44a95596:	0000                	.insn	2, 0x0000
    44a95598:	11027ccf          	fnmadd.s	f25,f4,f16,f2
    44a9559c:	0000                	.insn	2, 0x0000
    44a9559e:	0000                	.insn	2, 0x0000
    44a955a0:	110280cf          	fnmadd.s	f1,f5,f16,f2,rne
    44a955a4:	0000                	.insn	2, 0x0000
    44a955a6:	0000                	.insn	2, 0x0000
    44a955a8:	110284cf          	fnmadd.s	f9,f5,f16,f2,rne
    44a955ac:	0000                	.insn	2, 0x0000
    44a955ae:	0000                	.insn	2, 0x0000
    44a955b0:	110288cf          	fnmadd.s	f17,f5,f16,f2,rne
    44a955b4:	0000                	.insn	2, 0x0000
    44a955b6:	0000                	.insn	2, 0x0000
    44a955b8:	11028ccf          	fnmadd.s	f25,f5,f16,f2,rne
    44a955bc:	0000                	.insn	2, 0x0000
    44a955be:	0000                	.insn	2, 0x0000
    44a955c0:	110290cf          	fnmadd.s	f1,f5,f16,f2,rtz
    44a955c4:	0000                	.insn	2, 0x0000
    44a955c6:	0000                	.insn	2, 0x0000
    44a955c8:	110294cf          	fnmadd.s	f9,f5,f16,f2,rtz
    44a955cc:	0000                	.insn	2, 0x0000
    44a955ce:	0000                	.insn	2, 0x0000
    44a955d0:	110298cf          	fnmadd.s	f17,f5,f16,f2,rtz
    44a955d4:	0000                	.insn	2, 0x0000
    44a955d6:	0000                	.insn	2, 0x0000
    44a955d8:	11029ccf          	fnmadd.s	f25,f5,f16,f2,rtz
    44a955dc:	0000                	.insn	2, 0x0000
    44a955de:	0000                	.insn	2, 0x0000
    44a955e0:	1102a0cf          	fnmadd.s	f1,f5,f16,f2,rdn
    44a955e4:	0000                	.insn	2, 0x0000
    44a955e6:	0000                	.insn	2, 0x0000
    44a955e8:	1102a4cf          	fnmadd.s	f9,f5,f16,f2,rdn
    44a955ec:	0000                	.insn	2, 0x0000
    44a955ee:	0000                	.insn	2, 0x0000
    44a955f0:	1102a8cf          	fnmadd.s	f17,f5,f16,f2,rdn
    44a955f4:	0000                	.insn	2, 0x0000
    44a955f6:	0000                	.insn	2, 0x0000
    44a955f8:	1102accf          	fnmadd.s	f25,f5,f16,f2,rdn
    44a955fc:	0000                	.insn	2, 0x0000
    44a955fe:	0000                	.insn	2, 0x0000
    44a95600:	1102b0cf          	fnmadd.s	f1,f5,f16,f2,rup
    44a95604:	0000                	.insn	2, 0x0000
    44a95606:	0000                	.insn	2, 0x0000
    44a95608:	1102b4cf          	fnmadd.s	f9,f5,f16,f2,rup
    44a9560c:	0000                	.insn	2, 0x0000
    44a9560e:	0000                	.insn	2, 0x0000
    44a95610:	1102b8cf          	fnmadd.s	f17,f5,f16,f2,rup
    44a95614:	0000                	.insn	2, 0x0000
    44a95616:	0000                	.insn	2, 0x0000
    44a95618:	1102bccf          	fnmadd.s	f25,f5,f16,f2,rup
    44a9561c:	0000                	.insn	2, 0x0000
    44a9561e:	0000                	.insn	2, 0x0000
    44a95620:	1102c0cf          	fnmadd.s	f1,f5,f16,f2,rmm
    44a95624:	0000                	.insn	2, 0x0000
    44a95626:	0000                	.insn	2, 0x0000
    44a95628:	1102c4cf          	fnmadd.s	f9,f5,f16,f2,rmm
    44a9562c:	0000                	.insn	2, 0x0000
    44a9562e:	0000                	.insn	2, 0x0000
    44a95630:	1102c8cf          	fnmadd.s	f17,f5,f16,f2,rmm
    44a95634:	0000                	.insn	2, 0x0000
    44a95636:	0000                	.insn	2, 0x0000
    44a95638:	1102cccf          	fnmadd.s	f25,f5,f16,f2,rmm
    44a9563c:	0000                	.insn	2, 0x0000
    44a9563e:	0000                	.insn	2, 0x0000
    44a95640:	1102d0cf          	fnmadd.s	f1,f5,f16,f2,unknown
    44a95644:	0000                	.insn	2, 0x0000
    44a95646:	0000                	.insn	2, 0x0000
    44a95648:	1102d4cf          	fnmadd.s	f9,f5,f16,f2,unknown
    44a9564c:	0000                	.insn	2, 0x0000
    44a9564e:	0000                	.insn	2, 0x0000
    44a95650:	1102d8cf          	fnmadd.s	f17,f5,f16,f2,unknown
    44a95654:	0000                	.insn	2, 0x0000
    44a95656:	0000                	.insn	2, 0x0000
    44a95658:	1102dccf          	fnmadd.s	f25,f5,f16,f2,unknown
    44a9565c:	0000                	.insn	2, 0x0000
    44a9565e:	0000                	.insn	2, 0x0000
    44a95660:	1102e0cf          	fnmadd.s	f1,f5,f16,f2,unknown
    44a95664:	0000                	.insn	2, 0x0000
    44a95666:	0000                	.insn	2, 0x0000
    44a95668:	1102e4cf          	fnmadd.s	f9,f5,f16,f2,unknown
    44a9566c:	0000                	.insn	2, 0x0000
    44a9566e:	0000                	.insn	2, 0x0000
    44a95670:	1102e8cf          	fnmadd.s	f17,f5,f16,f2,unknown
    44a95674:	0000                	.insn	2, 0x0000
    44a95676:	0000                	.insn	2, 0x0000
    44a95678:	1102eccf          	fnmadd.s	f25,f5,f16,f2,unknown
    44a9567c:	0000                	.insn	2, 0x0000
    44a9567e:	0000                	.insn	2, 0x0000
    44a95680:	1102f0cf          	fnmadd.s	f1,f5,f16,f2
    44a95684:	0000                	.insn	2, 0x0000
    44a95686:	0000                	.insn	2, 0x0000
    44a95688:	1102f4cf          	fnmadd.s	f9,f5,f16,f2
    44a9568c:	0000                	.insn	2, 0x0000
    44a9568e:	0000                	.insn	2, 0x0000
    44a95690:	1102f8cf          	fnmadd.s	f17,f5,f16,f2
    44a95694:	0000                	.insn	2, 0x0000
    44a95696:	0000                	.insn	2, 0x0000
    44a95698:	1102fccf          	fnmadd.s	f25,f5,f16,f2
    44a9569c:	0000                	.insn	2, 0x0000
    44a9569e:	0000                	.insn	2, 0x0000
    44a956a0:	110300cf          	fnmadd.s	f1,f6,f16,f2,rne
    44a956a4:	0000                	.insn	2, 0x0000
    44a956a6:	0000                	.insn	2, 0x0000
    44a956a8:	110304cf          	fnmadd.s	f9,f6,f16,f2,rne
    44a956ac:	0000                	.insn	2, 0x0000
    44a956ae:	0000                	.insn	2, 0x0000
    44a956b0:	110308cf          	fnmadd.s	f17,f6,f16,f2,rne
    44a956b4:	0000                	.insn	2, 0x0000
    44a956b6:	0000                	.insn	2, 0x0000
    44a956b8:	11030ccf          	fnmadd.s	f25,f6,f16,f2,rne
    44a956bc:	0000                	.insn	2, 0x0000
    44a956be:	0000                	.insn	2, 0x0000
    44a956c0:	110310cf          	fnmadd.s	f1,f6,f16,f2,rtz
    44a956c4:	0000                	.insn	2, 0x0000
    44a956c6:	0000                	.insn	2, 0x0000
    44a956c8:	110314cf          	fnmadd.s	f9,f6,f16,f2,rtz
    44a956cc:	0000                	.insn	2, 0x0000
    44a956ce:	0000                	.insn	2, 0x0000
    44a956d0:	110318cf          	fnmadd.s	f17,f6,f16,f2,rtz
    44a956d4:	0000                	.insn	2, 0x0000
    44a956d6:	0000                	.insn	2, 0x0000
    44a956d8:	11031ccf          	fnmadd.s	f25,f6,f16,f2,rtz
    44a956dc:	0000                	.insn	2, 0x0000
    44a956de:	0000                	.insn	2, 0x0000
    44a956e0:	110320cf          	fnmadd.s	f1,f6,f16,f2,rdn
    44a956e4:	0000                	.insn	2, 0x0000
    44a956e6:	0000                	.insn	2, 0x0000
    44a956e8:	110324cf          	fnmadd.s	f9,f6,f16,f2,rdn
    44a956ec:	0000                	.insn	2, 0x0000
    44a956ee:	0000                	.insn	2, 0x0000
    44a956f0:	110328cf          	fnmadd.s	f17,f6,f16,f2,rdn
    44a956f4:	0000                	.insn	2, 0x0000
    44a956f6:	0000                	.insn	2, 0x0000
    44a956f8:	11032ccf          	fnmadd.s	f25,f6,f16,f2,rdn
    44a956fc:	0000                	.insn	2, 0x0000
    44a956fe:	0000                	.insn	2, 0x0000
    44a95700:	110330cf          	fnmadd.s	f1,f6,f16,f2,rup
    44a95704:	0000                	.insn	2, 0x0000
    44a95706:	0000                	.insn	2, 0x0000
    44a95708:	110334cf          	fnmadd.s	f9,f6,f16,f2,rup
    44a9570c:	0000                	.insn	2, 0x0000
    44a9570e:	0000                	.insn	2, 0x0000
    44a95710:	110338cf          	fnmadd.s	f17,f6,f16,f2,rup
    44a95714:	0000                	.insn	2, 0x0000
    44a95716:	0000                	.insn	2, 0x0000
    44a95718:	11033ccf          	fnmadd.s	f25,f6,f16,f2,rup
    44a9571c:	0000                	.insn	2, 0x0000
    44a9571e:	0000                	.insn	2, 0x0000
    44a95720:	110340cf          	fnmadd.s	f1,f6,f16,f2,rmm
    44a95724:	0000                	.insn	2, 0x0000
    44a95726:	0000                	.insn	2, 0x0000
    44a95728:	110344cf          	fnmadd.s	f9,f6,f16,f2,rmm
    44a9572c:	0000                	.insn	2, 0x0000
    44a9572e:	0000                	.insn	2, 0x0000
    44a95730:	110348cf          	fnmadd.s	f17,f6,f16,f2,rmm
    44a95734:	0000                	.insn	2, 0x0000
    44a95736:	0000                	.insn	2, 0x0000
    44a95738:	11034ccf          	fnmadd.s	f25,f6,f16,f2,rmm
    44a9573c:	0000                	.insn	2, 0x0000
    44a9573e:	0000                	.insn	2, 0x0000
    44a95740:	110350cf          	fnmadd.s	f1,f6,f16,f2,unknown
    44a95744:	0000                	.insn	2, 0x0000
    44a95746:	0000                	.insn	2, 0x0000
    44a95748:	110354cf          	fnmadd.s	f9,f6,f16,f2,unknown
    44a9574c:	0000                	.insn	2, 0x0000
    44a9574e:	0000                	.insn	2, 0x0000
    44a95750:	110358cf          	fnmadd.s	f17,f6,f16,f2,unknown
    44a95754:	0000                	.insn	2, 0x0000
    44a95756:	0000                	.insn	2, 0x0000
    44a95758:	11035ccf          	fnmadd.s	f25,f6,f16,f2,unknown
    44a9575c:	0000                	.insn	2, 0x0000
    44a9575e:	0000                	.insn	2, 0x0000
    44a95760:	110360cf          	fnmadd.s	f1,f6,f16,f2,unknown
    44a95764:	0000                	.insn	2, 0x0000
    44a95766:	0000                	.insn	2, 0x0000
    44a95768:	110364cf          	fnmadd.s	f9,f6,f16,f2,unknown
    44a9576c:	0000                	.insn	2, 0x0000
    44a9576e:	0000                	.insn	2, 0x0000
    44a95770:	110368cf          	fnmadd.s	f17,f6,f16,f2,unknown
    44a95774:	0000                	.insn	2, 0x0000
    44a95776:	0000                	.insn	2, 0x0000
    44a95778:	11036ccf          	fnmadd.s	f25,f6,f16,f2,unknown
    44a9577c:	0000                	.insn	2, 0x0000
    44a9577e:	0000                	.insn	2, 0x0000
    44a95780:	110370cf          	fnmadd.s	f1,f6,f16,f2
    44a95784:	0000                	.insn	2, 0x0000
    44a95786:	0000                	.insn	2, 0x0000
    44a95788:	110374cf          	fnmadd.s	f9,f6,f16,f2
    44a9578c:	0000                	.insn	2, 0x0000
    44a9578e:	0000                	.insn	2, 0x0000
    44a95790:	110378cf          	fnmadd.s	f17,f6,f16,f2
    44a95794:	0000                	.insn	2, 0x0000
    44a95796:	0000                	.insn	2, 0x0000
    44a95798:	11037ccf          	fnmadd.s	f25,f6,f16,f2
    44a9579c:	0000                	.insn	2, 0x0000
    44a9579e:	0000                	.insn	2, 0x0000
    44a957a0:	110380cf          	fnmadd.s	f1,f7,f16,f2,rne
    44a957a4:	0000                	.insn	2, 0x0000
    44a957a6:	0000                	.insn	2, 0x0000
    44a957a8:	110384cf          	fnmadd.s	f9,f7,f16,f2,rne
    44a957ac:	0000                	.insn	2, 0x0000
    44a957ae:	0000                	.insn	2, 0x0000
    44a957b0:	110388cf          	fnmadd.s	f17,f7,f16,f2,rne
    44a957b4:	0000                	.insn	2, 0x0000
    44a957b6:	0000                	.insn	2, 0x0000
    44a957b8:	11038ccf          	fnmadd.s	f25,f7,f16,f2,rne
    44a957bc:	0000                	.insn	2, 0x0000
    44a957be:	0000                	.insn	2, 0x0000
    44a957c0:	110390cf          	fnmadd.s	f1,f7,f16,f2,rtz
    44a957c4:	0000                	.insn	2, 0x0000
    44a957c6:	0000                	.insn	2, 0x0000
    44a957c8:	110394cf          	fnmadd.s	f9,f7,f16,f2,rtz
    44a957cc:	0000                	.insn	2, 0x0000
    44a957ce:	0000                	.insn	2, 0x0000
    44a957d0:	110398cf          	fnmadd.s	f17,f7,f16,f2,rtz
    44a957d4:	0000                	.insn	2, 0x0000
    44a957d6:	0000                	.insn	2, 0x0000
    44a957d8:	11039ccf          	fnmadd.s	f25,f7,f16,f2,rtz
    44a957dc:	0000                	.insn	2, 0x0000
    44a957de:	0000                	.insn	2, 0x0000
    44a957e0:	1103a0cf          	fnmadd.s	f1,f7,f16,f2,rdn
    44a957e4:	0000                	.insn	2, 0x0000
    44a957e6:	0000                	.insn	2, 0x0000
    44a957e8:	1103a4cf          	fnmadd.s	f9,f7,f16,f2,rdn
    44a957ec:	0000                	.insn	2, 0x0000
    44a957ee:	0000                	.insn	2, 0x0000
    44a957f0:	1103a8cf          	fnmadd.s	f17,f7,f16,f2,rdn
    44a957f4:	0000                	.insn	2, 0x0000
    44a957f6:	0000                	.insn	2, 0x0000
    44a957f8:	1103accf          	fnmadd.s	f25,f7,f16,f2,rdn
    44a957fc:	0000                	.insn	2, 0x0000
    44a957fe:	0000                	.insn	2, 0x0000
    44a95800:	1103b0cf          	fnmadd.s	f1,f7,f16,f2,rup
    44a95804:	0000                	.insn	2, 0x0000
    44a95806:	0000                	.insn	2, 0x0000
    44a95808:	1103b4cf          	fnmadd.s	f9,f7,f16,f2,rup
    44a9580c:	0000                	.insn	2, 0x0000
    44a9580e:	0000                	.insn	2, 0x0000
    44a95810:	1103b8cf          	fnmadd.s	f17,f7,f16,f2,rup
    44a95814:	0000                	.insn	2, 0x0000
    44a95816:	0000                	.insn	2, 0x0000
    44a95818:	1103bccf          	fnmadd.s	f25,f7,f16,f2,rup
    44a9581c:	0000                	.insn	2, 0x0000
    44a9581e:	0000                	.insn	2, 0x0000
    44a95820:	1103c0cf          	fnmadd.s	f1,f7,f16,f2,rmm
    44a95824:	0000                	.insn	2, 0x0000
    44a95826:	0000                	.insn	2, 0x0000
    44a95828:	1103c4cf          	fnmadd.s	f9,f7,f16,f2,rmm
    44a9582c:	0000                	.insn	2, 0x0000
    44a9582e:	0000                	.insn	2, 0x0000
    44a95830:	1103c8cf          	fnmadd.s	f17,f7,f16,f2,rmm
    44a95834:	0000                	.insn	2, 0x0000
    44a95836:	0000                	.insn	2, 0x0000
    44a95838:	1103cccf          	fnmadd.s	f25,f7,f16,f2,rmm
    44a9583c:	0000                	.insn	2, 0x0000
    44a9583e:	0000                	.insn	2, 0x0000
    44a95840:	1103d0cf          	fnmadd.s	f1,f7,f16,f2,unknown
    44a95844:	0000                	.insn	2, 0x0000
    44a95846:	0000                	.insn	2, 0x0000
    44a95848:	1103d4cf          	fnmadd.s	f9,f7,f16,f2,unknown
    44a9584c:	0000                	.insn	2, 0x0000
    44a9584e:	0000                	.insn	2, 0x0000
    44a95850:	1103d8cf          	fnmadd.s	f17,f7,f16,f2,unknown
    44a95854:	0000                	.insn	2, 0x0000
    44a95856:	0000                	.insn	2, 0x0000
    44a95858:	1103dccf          	fnmadd.s	f25,f7,f16,f2,unknown
    44a9585c:	0000                	.insn	2, 0x0000
    44a9585e:	0000                	.insn	2, 0x0000
    44a95860:	1103e0cf          	fnmadd.s	f1,f7,f16,f2,unknown
    44a95864:	0000                	.insn	2, 0x0000
    44a95866:	0000                	.insn	2, 0x0000
    44a95868:	1103e4cf          	fnmadd.s	f9,f7,f16,f2,unknown
    44a9586c:	0000                	.insn	2, 0x0000
    44a9586e:	0000                	.insn	2, 0x0000
    44a95870:	1103e8cf          	fnmadd.s	f17,f7,f16,f2,unknown
    44a95874:	0000                	.insn	2, 0x0000
    44a95876:	0000                	.insn	2, 0x0000
    44a95878:	1103eccf          	fnmadd.s	f25,f7,f16,f2,unknown
    44a9587c:	0000                	.insn	2, 0x0000
    44a9587e:	0000                	.insn	2, 0x0000
    44a95880:	1103f0cf          	fnmadd.s	f1,f7,f16,f2
    44a95884:	0000                	.insn	2, 0x0000
    44a95886:	0000                	.insn	2, 0x0000
    44a95888:	1103f4cf          	fnmadd.s	f9,f7,f16,f2
    44a9588c:	0000                	.insn	2, 0x0000
    44a9588e:	0000                	.insn	2, 0x0000
    44a95890:	1103f8cf          	fnmadd.s	f17,f7,f16,f2
    44a95894:	0000                	.insn	2, 0x0000
    44a95896:	0000                	.insn	2, 0x0000
    44a95898:	1103fccf          	fnmadd.s	f25,f7,f16,f2
    44a9589c:	0000                	.insn	2, 0x0000
    44a9589e:	0000                	.insn	2, 0x0000
    44a958a0:	00df 1104 0000      	.insn	6, 0x110400df
    44a958a6:	0000                	.insn	2, 0x0000
    44a958a8:	04df 1104 0000      	.insn	6, 0x110404df
    44a958ae:	0000                	.insn	2, 0x0000
    44a958b0:	08df 1104 0000      	.insn	6, 0x110408df
    44a958b6:	0000                	.insn	2, 0x0000
    44a958b8:	0cdf 1104 0000      	.insn	6, 0x11040cdf
    44a958be:	0000                	.insn	2, 0x0000
    44a958c0:	10df 1104 0000      	.insn	6, 0x110410df
    44a958c6:	0000                	.insn	2, 0x0000
    44a958c8:	14df 1104 0000      	.insn	6, 0x110414df
    44a958ce:	0000                	.insn	2, 0x0000
    44a958d0:	18df 1104 0000      	.insn	6, 0x110418df
    44a958d6:	0000                	.insn	2, 0x0000
    44a958d8:	1cdf 1104 0000      	.insn	6, 0x11041cdf
    44a958de:	0000                	.insn	2, 0x0000
    44a958e0:	20df 1104 0000      	.insn	6, 0x110420df
    44a958e6:	0000                	.insn	2, 0x0000
    44a958e8:	24df 1104 0000      	.insn	6, 0x110424df
    44a958ee:	0000                	.insn	2, 0x0000
    44a958f0:	28df 1104 0000      	.insn	6, 0x110428df
    44a958f6:	0000                	.insn	2, 0x0000
    44a958f8:	2cdf 1104 0000      	.insn	6, 0x11042cdf
    44a958fe:	0000                	.insn	2, 0x0000
    44a95900:	30df 1104 0000      	.insn	6, 0x110430df
    44a95906:	0000                	.insn	2, 0x0000
    44a95908:	34df 1104 0000      	.insn	6, 0x110434df
    44a9590e:	0000                	.insn	2, 0x0000
    44a95910:	38df 1104 0000      	.insn	6, 0x110438df
    44a95916:	0000                	.insn	2, 0x0000
    44a95918:	3cdf 1104 0000      	.insn	6, 0x11043cdf
    44a9591e:	0000                	.insn	2, 0x0000
    44a95920:	40df 1104 0000      	.insn	6, 0x110440df
    44a95926:	0000                	.insn	2, 0x0000
    44a95928:	44df 1104 0000      	.insn	6, 0x110444df
    44a9592e:	0000                	.insn	2, 0x0000
    44a95930:	48df 1104 0000      	.insn	6, 0x110448df
    44a95936:	0000                	.insn	2, 0x0000
    44a95938:	4cdf 1104 0000      	.insn	6, 0x11044cdf
    44a9593e:	0000                	.insn	2, 0x0000
    44a95940:	50df 1104 0000      	.insn	6, 0x110450df
    44a95946:	0000                	.insn	2, 0x0000
    44a95948:	54df 1104 0000      	.insn	6, 0x110454df
    44a9594e:	0000                	.insn	2, 0x0000
    44a95950:	58df 1104 0000      	.insn	6, 0x110458df
    44a95956:	0000                	.insn	2, 0x0000
    44a95958:	5cdf 1104 0000      	.insn	6, 0x11045cdf
    44a9595e:	0000                	.insn	2, 0x0000
    44a95960:	60df 1104 0000      	.insn	6, 0x110460df
    44a95966:	0000                	.insn	2, 0x0000
    44a95968:	64df 1104 0000      	.insn	6, 0x110464df
    44a9596e:	0000                	.insn	2, 0x0000
    44a95970:	68df 1104 0000      	.insn	6, 0x110468df
    44a95976:	0000                	.insn	2, 0x0000
    44a95978:	6cdf 1104 0000      	.insn	6, 0x11046cdf
    44a9597e:	0000                	.insn	2, 0x0000
    44a95980:	70df 1104 0000      	.insn	6, 0x110470df
    44a95986:	0000                	.insn	2, 0x0000
    44a95988:	74df 1104 0000      	.insn	6, 0x110474df
    44a9598e:	0000                	.insn	2, 0x0000
    44a95990:	78df 1104 0000      	.insn	6, 0x110478df
    44a95996:	0000                	.insn	2, 0x0000
    44a95998:	7cdf 1104 0000      	.insn	6, 0x11047cdf
    44a9599e:	0000                	.insn	2, 0x0000
    44a959a0:	80df 1104 0000      	.insn	6, 0x110480df
    44a959a6:	0000                	.insn	2, 0x0000
    44a959a8:	84df 1104 0000      	.insn	6, 0x110484df
    44a959ae:	0000                	.insn	2, 0x0000
    44a959b0:	88df 1104 0000      	.insn	6, 0x110488df
    44a959b6:	0000                	.insn	2, 0x0000
    44a959b8:	8cdf 1104 0000      	.insn	6, 0x11048cdf
    44a959be:	0000                	.insn	2, 0x0000
    44a959c0:	90df 1104 0000      	.insn	6, 0x110490df
    44a959c6:	0000                	.insn	2, 0x0000
    44a959c8:	94df 1104 0000      	.insn	6, 0x110494df
    44a959ce:	0000                	.insn	2, 0x0000
    44a959d0:	98df 1104 0000      	.insn	6, 0x110498df
    44a959d6:	0000                	.insn	2, 0x0000
    44a959d8:	9cdf 1104 0000      	.insn	6, 0x11049cdf
    44a959de:	0000                	.insn	2, 0x0000
    44a959e0:	a0df 1104 0000      	.insn	6, 0x1104a0df
    44a959e6:	0000                	.insn	2, 0x0000
    44a959e8:	a4df 1104 0000      	.insn	6, 0x1104a4df
    44a959ee:	0000                	.insn	2, 0x0000
    44a959f0:	a8df 1104 0000      	.insn	6, 0x1104a8df
    44a959f6:	0000                	.insn	2, 0x0000
    44a959f8:	acdf 1104 0000      	.insn	6, 0x1104acdf
    44a959fe:	0000                	.insn	2, 0x0000
    44a95a00:	b0df 1104 0000      	.insn	6, 0x1104b0df
    44a95a06:	0000                	.insn	2, 0x0000
    44a95a08:	b4df 1104 0000      	.insn	6, 0x1104b4df
    44a95a0e:	0000                	.insn	2, 0x0000
    44a95a10:	b8df 1104 0000      	.insn	6, 0x1104b8df
    44a95a16:	0000                	.insn	2, 0x0000
    44a95a18:	bcdf 1104 0000      	.insn	6, 0x1104bcdf
    44a95a1e:	0000                	.insn	2, 0x0000
    44a95a20:	c0df 1104 0000      	.insn	6, 0x1104c0df
    44a95a26:	0000                	.insn	2, 0x0000
    44a95a28:	c4df 1104 0000      	.insn	6, 0x1104c4df
    44a95a2e:	0000                	.insn	2, 0x0000
    44a95a30:	c8df 1104 0000      	.insn	6, 0x1104c8df
    44a95a36:	0000                	.insn	2, 0x0000
    44a95a38:	ccdf 1104 0000      	.insn	6, 0x1104ccdf
    44a95a3e:	0000                	.insn	2, 0x0000
    44a95a40:	d0df 1104 0000      	.insn	6, 0x1104d0df
    44a95a46:	0000                	.insn	2, 0x0000
    44a95a48:	d4df 1104 0000      	.insn	6, 0x1104d4df
    44a95a4e:	0000                	.insn	2, 0x0000
    44a95a50:	d8df 1104 0000      	.insn	6, 0x1104d8df
    44a95a56:	0000                	.insn	2, 0x0000
    44a95a58:	dcdf 1104 0000      	.insn	6, 0x1104dcdf
    44a95a5e:	0000                	.insn	2, 0x0000
    44a95a60:	e0df 1104 0000      	.insn	6, 0x1104e0df
    44a95a66:	0000                	.insn	2, 0x0000
    44a95a68:	e4df 1104 0000      	.insn	6, 0x1104e4df
    44a95a6e:	0000                	.insn	2, 0x0000
    44a95a70:	e8df 1104 0000      	.insn	6, 0x1104e8df
    44a95a76:	0000                	.insn	2, 0x0000
    44a95a78:	ecdf 1104 0000      	.insn	6, 0x1104ecdf
    44a95a7e:	0000                	.insn	2, 0x0000
    44a95a80:	f0df 1104 0000      	.insn	6, 0x1104f0df
    44a95a86:	0000                	.insn	2, 0x0000
    44a95a88:	f4df 1104 0000      	.insn	6, 0x1104f4df
    44a95a8e:	0000                	.insn	2, 0x0000
    44a95a90:	f8df 1104 0000      	.insn	6, 0x1104f8df
    44a95a96:	0000                	.insn	2, 0x0000
    44a95a98:	fcdf 1104 0000      	.insn	6, 0x1104fcdf
    44a95a9e:	0000                	.insn	2, 0x0000
    44a95aa0:	00df 1105 0000      	.insn	6, 0x110500df
    44a95aa6:	0000                	.insn	2, 0x0000
    44a95aa8:	04df 1105 0000      	.insn	6, 0x110504df
    44a95aae:	0000                	.insn	2, 0x0000
    44a95ab0:	08df 1105 0000      	.insn	6, 0x110508df
    44a95ab6:	0000                	.insn	2, 0x0000
    44a95ab8:	0cdf 1105 0000      	.insn	6, 0x11050cdf
    44a95abe:	0000                	.insn	2, 0x0000
    44a95ac0:	10df 1105 0000      	.insn	6, 0x110510df
    44a95ac6:	0000                	.insn	2, 0x0000
    44a95ac8:	14df 1105 0000      	.insn	6, 0x110514df
    44a95ace:	0000                	.insn	2, 0x0000
    44a95ad0:	18df 1105 0000      	.insn	6, 0x110518df
    44a95ad6:	0000                	.insn	2, 0x0000
    44a95ad8:	1cdf 1105 0000      	.insn	6, 0x11051cdf
    44a95ade:	0000                	.insn	2, 0x0000
    44a95ae0:	20df 1105 0000      	.insn	6, 0x110520df
    44a95ae6:	0000                	.insn	2, 0x0000
    44a95ae8:	24df 1105 0000      	.insn	6, 0x110524df
    44a95aee:	0000                	.insn	2, 0x0000
    44a95af0:	28df 1105 0000      	.insn	6, 0x110528df
    44a95af6:	0000                	.insn	2, 0x0000
    44a95af8:	2cdf 1105 0000      	.insn	6, 0x11052cdf
    44a95afe:	0000                	.insn	2, 0x0000
    44a95b00:	30df 1105 0000      	.insn	6, 0x110530df
    44a95b06:	0000                	.insn	2, 0x0000
    44a95b08:	34df 1105 0000      	.insn	6, 0x110534df
    44a95b0e:	0000                	.insn	2, 0x0000
    44a95b10:	38df 1105 0000      	.insn	6, 0x110538df
    44a95b16:	0000                	.insn	2, 0x0000
    44a95b18:	3cdf 1105 0000      	.insn	6, 0x11053cdf
    44a95b1e:	0000                	.insn	2, 0x0000
    44a95b20:	40df 1105 0000      	.insn	6, 0x110540df
    44a95b26:	0000                	.insn	2, 0x0000
    44a95b28:	44df 1105 0000      	.insn	6, 0x110544df
    44a95b2e:	0000                	.insn	2, 0x0000
    44a95b30:	48df 1105 0000      	.insn	6, 0x110548df
    44a95b36:	0000                	.insn	2, 0x0000
    44a95b38:	4cdf 1105 0000      	.insn	6, 0x11054cdf
    44a95b3e:	0000                	.insn	2, 0x0000
    44a95b40:	50df 1105 0000      	.insn	6, 0x110550df
    44a95b46:	0000                	.insn	2, 0x0000
    44a95b48:	54df 1105 0000      	.insn	6, 0x110554df
    44a95b4e:	0000                	.insn	2, 0x0000
    44a95b50:	58df 1105 0000      	.insn	6, 0x110558df
    44a95b56:	0000                	.insn	2, 0x0000
    44a95b58:	5cdf 1105 0000      	.insn	6, 0x11055cdf
    44a95b5e:	0000                	.insn	2, 0x0000
    44a95b60:	60df 1105 0000      	.insn	6, 0x110560df
    44a95b66:	0000                	.insn	2, 0x0000
    44a95b68:	64df 1105 0000      	.insn	6, 0x110564df
    44a95b6e:	0000                	.insn	2, 0x0000
    44a95b70:	68df 1105 0000      	.insn	6, 0x110568df
    44a95b76:	0000                	.insn	2, 0x0000
    44a95b78:	6cdf 1105 0000      	.insn	6, 0x11056cdf
    44a95b7e:	0000                	.insn	2, 0x0000
    44a95b80:	70df 1105 0000      	.insn	6, 0x110570df
    44a95b86:	0000                	.insn	2, 0x0000
    44a95b88:	74df 1105 0000      	.insn	6, 0x110574df
    44a95b8e:	0000                	.insn	2, 0x0000
    44a95b90:	78df 1105 0000      	.insn	6, 0x110578df
    44a95b96:	0000                	.insn	2, 0x0000
    44a95b98:	7cdf 1105 0000      	.insn	6, 0x11057cdf
    44a95b9e:	0000                	.insn	2, 0x0000
    44a95ba0:	80df 1105 0000      	.insn	6, 0x110580df
    44a95ba6:	0000                	.insn	2, 0x0000
    44a95ba8:	84df 1105 0000      	.insn	6, 0x110584df
    44a95bae:	0000                	.insn	2, 0x0000
    44a95bb0:	88df 1105 0000      	.insn	6, 0x110588df
    44a95bb6:	0000                	.insn	2, 0x0000
    44a95bb8:	8cdf 1105 0000      	.insn	6, 0x11058cdf
    44a95bbe:	0000                	.insn	2, 0x0000
    44a95bc0:	90df 1105 0000      	.insn	6, 0x110590df
    44a95bc6:	0000                	.insn	2, 0x0000
    44a95bc8:	94df 1105 0000      	.insn	6, 0x110594df
    44a95bce:	0000                	.insn	2, 0x0000
    44a95bd0:	98df 1105 0000      	.insn	6, 0x110598df
    44a95bd6:	0000                	.insn	2, 0x0000
    44a95bd8:	9cdf 1105 0000      	.insn	6, 0x11059cdf
    44a95bde:	0000                	.insn	2, 0x0000
    44a95be0:	a0df 1105 0000      	.insn	6, 0x1105a0df
    44a95be6:	0000                	.insn	2, 0x0000
    44a95be8:	a4df 1105 0000      	.insn	6, 0x1105a4df
    44a95bee:	0000                	.insn	2, 0x0000
    44a95bf0:	a8df 1105 0000      	.insn	6, 0x1105a8df
    44a95bf6:	0000                	.insn	2, 0x0000
    44a95bf8:	acdf 1105 0000      	.insn	6, 0x1105acdf
    44a95bfe:	0000                	.insn	2, 0x0000
    44a95c00:	b0df 1105 0000      	.insn	6, 0x1105b0df
    44a95c06:	0000                	.insn	2, 0x0000
    44a95c08:	b4df 1105 0000      	.insn	6, 0x1105b4df
    44a95c0e:	0000                	.insn	2, 0x0000
    44a95c10:	b8df 1105 0000      	.insn	6, 0x1105b8df
    44a95c16:	0000                	.insn	2, 0x0000
    44a95c18:	bcdf 1105 0000      	.insn	6, 0x1105bcdf
    44a95c1e:	0000                	.insn	2, 0x0000
    44a95c20:	c0df 1105 0000      	.insn	6, 0x1105c0df
    44a95c26:	0000                	.insn	2, 0x0000
    44a95c28:	c4df 1105 0000      	.insn	6, 0x1105c4df
    44a95c2e:	0000                	.insn	2, 0x0000
    44a95c30:	c8df 1105 0000      	.insn	6, 0x1105c8df
    44a95c36:	0000                	.insn	2, 0x0000
    44a95c38:	ccdf 1105 0000      	.insn	6, 0x1105ccdf
    44a95c3e:	0000                	.insn	2, 0x0000
    44a95c40:	d0df 1105 0000      	.insn	6, 0x1105d0df
    44a95c46:	0000                	.insn	2, 0x0000
    44a95c48:	d4df 1105 0000      	.insn	6, 0x1105d4df
    44a95c4e:	0000                	.insn	2, 0x0000
    44a95c50:	d8df 1105 0000      	.insn	6, 0x1105d8df
    44a95c56:	0000                	.insn	2, 0x0000
    44a95c58:	dcdf 1105 0000      	.insn	6, 0x1105dcdf
    44a95c5e:	0000                	.insn	2, 0x0000
    44a95c60:	e0df 1105 0000      	.insn	6, 0x1105e0df
    44a95c66:	0000                	.insn	2, 0x0000
    44a95c68:	e4df 1105 0000      	.insn	6, 0x1105e4df
    44a95c6e:	0000                	.insn	2, 0x0000
    44a95c70:	e8df 1105 0000      	.insn	6, 0x1105e8df
    44a95c76:	0000                	.insn	2, 0x0000
    44a95c78:	ecdf 1105 0000      	.insn	6, 0x1105ecdf
    44a95c7e:	0000                	.insn	2, 0x0000
    44a95c80:	f0df 1105 0000      	.insn	6, 0x1105f0df
    44a95c86:	0000                	.insn	2, 0x0000
    44a95c88:	f4df 1105 0000      	.insn	6, 0x1105f4df
    44a95c8e:	0000                	.insn	2, 0x0000
    44a95c90:	f8df 1105 0000      	.insn	6, 0x1105f8df
    44a95c96:	0000                	.insn	2, 0x0000
    44a95c98:	fcdf 1105 0000      	.insn	6, 0x1105fcdf
	...

Disassembly of section .__pagetable_map_os_0x0000000042190000:

0000000042190000 <__pagetable_map_os_0x0000000042190000>:
	...
    421900a8:	110804cf          	fnmadd.s	f9,f16,f16,f2,rne
    421900ac:	0000                	.insn	2, 0x0000
	...

Disassembly of section .__pagetable_map_os_0x0000000044575000:

0000000044575000 <__pagetable_map_os_0x0000000044575000>:
	...
    44575bf0:	1085f8cf          	fnmadd.s	f17,f11,f8,f2
    44575bf4:	0000                	.insn	2, 0x0000
	...

Disassembly of section .__pagetable_map_os_0x0000000044521000:

0000000044521000 <__pagetable_map_os_0x0000000044521000>:
	...
    445219f0:	112c00cf          	fnmadd.s	f1,f24,f18,f2,rne
    445219f4:	0000                	.insn	2, 0x0000
	...

Disassembly of section .__pagetable_map_os_0x0000000044447000:

0000000044447000 <__pagetable_map_os_0x0000000044447000>:
	...
    44447908:	1085f8cf          	fnmadd.s	f17,f11,f8,f2
    4444790c:	0000                	.insn	2, 0x0000
	...

Disassembly of section .__pagetable_map_os_0x0000000042b1a000:

0000000042b1a000 <__pagetable_map_os_0x0000000042b1a000>:
	...
    42b1a910:	10e548cf          	fnmadd.s	f17,f10,f14,f2,rmm
    42b1a914:	0000                	.insn	2, 0x0000
	...

Disassembly of section .__pagetable_map_os_0x0000000044b0a000:

0000000044b0a000 <__pagetable_map_os_0x0000000044b0a000>:
    44b0a000:	6801                	.insn	2, 0x6801
    44b0a002:	1124                	.insn	2, 0x1124
    44b0a004:	0000                	.insn	2, 0x0000
    44b0a006:	0000                	.insn	2, 0x0000
    44b0a008:	1401                	.insn	2, 0x1401
    44b0a00a:	1086                	.insn	2, 0x1086
	...
    44b0a018:	d801                	.insn	2, 0xd801
    44b0a01a:	0000112b          	.insn	4, 0x112b
    44b0a01e:	0000                	.insn	2, 0x0000
    44b0a020:	0801                	.insn	2, 0x0801
    44b0a022:	112c                	.insn	2, 0x112c
    44b0a024:	0000                	.insn	2, 0x0000
    44b0a026:	0000                	.insn	2, 0x0000
    44b0a028:	7801                	.insn	2, 0x7801
    44b0a02a:	10fe                	.insn	2, 0x10fe
    44b0a02c:	0000                	.insn	2, 0x0000
    44b0a02e:	0000                	.insn	2, 0x0000
    44b0a030:	d801                	.insn	2, 0xd801
    44b0a032:	1115                	.insn	2, 0x1115
    44b0a034:	0000                	.insn	2, 0x0000
    44b0a036:	0000                	.insn	2, 0x0000
    44b0a038:	0001                	.insn	2, 0x0001
    44b0a03a:	000010af          	.insn	4, 0x10af
	...
    44b0a046:	0000                	.insn	2, 0x0000
    44b0a048:	ec01                	.insn	2, 0xec01
    44b0a04a:	113c                	.insn	2, 0x113c
    44b0a04c:	0000                	.insn	2, 0x0000
    44b0a04e:	0000                	.insn	2, 0x0000
    44b0a050:	dc01                	.insn	2, 0xdc01
    44b0a052:	10b5                	.insn	2, 0x10b5
	...
    44b0a0a0:	ec01                	.insn	2, 0xec01
    44b0a0a2:	1108                	.insn	2, 0x1108
	...
    44b0a0e8:	4401                	.insn	2, 0x4401
    44b0a0ea:	1119                	.insn	2, 0x1119
	...
    44b0a158:	b801                	.insn	2, 0xb801
    44b0a15a:	1114                	.insn	2, 0x1114
	...
    44b0a350:	3001                	.insn	2, 0x3001
    44b0a352:	00001133          	sll	x2,x0,x0
	...
    44b0a3b6:	0000                	.insn	2, 0x0000
    44b0a3b8:	8c01                	.insn	2, 0x8c01
    44b0a3ba:	1114                	.insn	2, 0x1114
	...
    44b0a3e0:	dc01                	.insn	2, 0xdc01
    44b0a3e2:	1116                	.insn	2, 0x1116
    44b0a3e4:	0000                	.insn	2, 0x0000
    44b0a3e6:	0000                	.insn	2, 0x0000
    44b0a3e8:	7801                	.insn	2, 0x7801
    44b0a3ea:	1086                	.insn	2, 0x1086
	...
    44b0a440:	3001                	.insn	2, 0x3001
    44b0a442:	1126                	.insn	2, 0x1126
	...
    44b0a578:	3001                	.insn	2, 0x3001
    44b0a57a:	1115                	.insn	2, 0x1115
	...
    44b0a5b0:	7801                	.insn	2, 0x7801
    44b0a5b2:	1124                	.insn	2, 0x1124
	...
    44b0a7c8:	7001                	.insn	2, 0x7001
    44b0a7ca:	10fe                	.insn	2, 0x10fe
	...
    44b0a7e8:	7401                	.insn	2, 0x7401
    44b0a7ea:	1124                	.insn	2, 0x1124
	...
    44b0ac18:	8401                	.insn	2, 0x8401
    44b0ac1a:	112c                	.insn	2, 0x112c
	...
    44b0adc0:	a001                	.insn	2, 0xa001
    44b0adc2:	106d                	.insn	2, 0x106d
    44b0adc4:	0000                	.insn	2, 0x0000
	...

Disassembly of section .__pagetable_map_os_0x0000000044523000:

0000000044523000 <__pagetable_map_os_0x0000000044523000>:
	...
    44523ad0:	10ad18cf          	fnmadd.s	f17,f26,f10,f2,rtz
    44523ad4:	0000                	.insn	2, 0x0000
    44523ad6:	0000                	.insn	2, 0x0000
    44523ad8:	10ad1ccf          	fnmadd.s	f25,f26,f10,f2,rtz
    44523adc:	0000                	.insn	2, 0x0000
	...

Disassembly of section .__pagetable_map_os_0x000000004491a000:

000000004491a000 <__pagetable_map_os_0x000000004491a000>:
	...
    4491a008:	10aafccf          	fnmadd.s	f25,f21,f10,f2
    4491a00c:	0000                	.insn	2, 0x0000
    4491a00e:	0000                	.insn	2, 0x0000
    4491a010:	1114d4cf          	fnmadd.s	f9,f9,f17,f2,unknown
	...
    4491a020:	111384cf          	fnmadd.s	f9,f7,f17,f2,rne
	...
    4491a040:	112be8cf          	fnmadd.s	f17,f23,f18,f2,unknown
    4491a044:	0000                	.insn	2, 0x0000
    4491a046:	0000                	.insn	2, 0x0000
    4491a048:	1114d0cf          	fnmadd.s	f1,f9,f17,f2,unknown
    4491a04c:	0000                	.insn	2, 0x0000
    4491a04e:	0000                	.insn	2, 0x0000
    4491a050:	112db0c7          	fmsub.s	f1,f27,f18,f2,rup
	...
    4491a060:	11152ccf          	fnmadd.s	f25,f10,f17,f2,rdn
    4491a064:	0000                	.insn	2, 0x0000
    4491a066:	0000                	.insn	2, 0x0000
    4491a068:	10aaf4cf          	fnmadd.s	f9,f21,f10,f2
	...
    4491a088:	112970cf          	fnmadd.s	f1,f18,f18,f2
	...
    4491a130:	111168cf          	fnmadd.s	f17,f2,f17,f2,unknown
	...
    4491a1c8:	1085f8cf          	fnmadd.s	f17,f11,f8,f2
	...
    4491a300:	110900cf          	fnmadd.s	f1,f18,f16,f2,rne
    4491a304:	0000                	.insn	2, 0x0000
    4491a306:	0000                	.insn	2, 0x0000
    4491a308:	112be4c7          	fmsub.s	f9,f23,f18,f2,unknown
	...
    4491a758:	1086a8cf          	fnmadd.s	f17,f13,f8,f2,rdn
	...
    4491a958:	112944cf          	fnmadd.s	f9,f18,f18,f2,rmm
	...
    4491ae18:	10c7accf          	fnmadd.s	f25,f15,f12,f2,rdn
	...
    4491aec8:	11171ccf          	fnmadd.s	f25,f14,f17,f2,rtz
	...
    4491af18:	1085f8cf          	fnmadd.s	f17,f11,f8,f2
    4491af1c:	0000                	.insn	2, 0x0000
	...

Disassembly of section .__pagetable_map_os_0x0000000044651000:

0000000044651000 <__pagetable_map_os_0x0000000044651000>:
	...
    44651ff0:	112c04c7          	fmsub.s	f9,f24,f18,f2,rne
    44651ff4:	0000                	.insn	2, 0x0000
	...

Disassembly of section .__pagetable_map_os_0x000000004491e000:

000000004491e000 <__pagetable_map_os_0x000000004491e000>:
	...
    4491e890:	108a8ccf          	fnmadd.s	f25,f21,f8,f2,rne
    4491e894:	0000                	.insn	2, 0x0000
    4491e896:	0000                	.insn	2, 0x0000
    4491e898:	112bc8c7          	fmsub.s	f17,f23,f18,f2,rmm
    4491e89c:	0000                	.insn	2, 0x0000
	...

Disassembly of section .__pagetable_map_os_0x0000000042d77000:

0000000042d77000 <__pagetable_map_os_0x0000000042d77000>:
	...
    42d77938:	1114d8cf          	fnmadd.s	f17,f9,f17,f2,unknown
    42d7793c:	0000                	.insn	2, 0x0000
    42d7793e:	0000                	.insn	2, 0x0000
    42d77940:	111520c7          	fmsub.s	f1,f10,f17,f2,rdn
    42d77944:	0000                	.insn	2, 0x0000
	...

Disassembly of section .__pagetable_map_os_0x0000000042185000:

0000000042185000 <__pagetable_map_os_0x0000000042185000>:
	...
    42185290:	11332cc7          	fmsub.s	f25,f6,f19,f2,rdn
	...
    42185520:	112460cf          	fnmadd.s	f1,f8,f18,f2,unknown
    42185524:	0000                	.insn	2, 0x0000
	...

Disassembly of section .__pagetable_map_os_0x0000000044b02000:

0000000044b02000 <__pagetable_map_os_0x0000000044b02000>:
	...
    44b02840:	1085f8cf          	fnmadd.s	f17,f11,f8,f2
    44b02844:	0000                	.insn	2, 0x0000
	...

Disassembly of section .__pagetable_map_os_0x0000000044af6000:

0000000044af6000 <__pagetable_map_os_0x0000000044af6000>:
	...
    44af6a50:	1085f8cf          	fnmadd.s	f17,f11,f8,f2
    44af6a54:	0000                	.insn	2, 0x0000
	...

Disassembly of section .__pagetable_map_os_0x000000004219e000:

000000004219e000 <__pagetable_map_os_0x000000004219e000>:
	...
    4219e080:	10ae7ccf          	fnmadd.s	f25,f28,f10,f2
    4219e084:	0000                	.insn	2, 0x0000
	...

Disassembly of section .__pagetable_map_os_0x0000000044f3b000:

0000000044f3b000 <__pagetable_map_os_0x0000000044f3b000>:
	...
    44f3b520:	1085f8cf          	fnmadd.s	f17,f11,f8,f2
    44f3b524:	0000                	.insn	2, 0x0000
	...

Disassembly of section .__pagetable_map_os_0x0000000042bc0000:

0000000042bc0000 <__pagetable_map_os_0x0000000042bc0000>:
	...
    42bc03f0:	1114dccf          	fnmadd.s	f25,f9,f17,f2,unknown
	...
    42bc0538:	112bf0cf          	fnmadd.s	f1,f23,f18,f2
    42bc053c:	0000                	.insn	2, 0x0000
    42bc053e:	0000                	.insn	2, 0x0000
    42bc0540:	112bd4cf          	fnmadd.s	f9,f23,f18,f2,unknown
    42bc0544:	0000                	.insn	2, 0x0000
	...

Disassembly of section .__pagetable_map_os_0x0000000043f9c000:

0000000043f9c000 <__pagetable_map_os_0x0000000043f9c000>:
	...
    43f9cad8:	112c88cf          	fnmadd.s	f17,f25,f18,f2,rne
    43f9cadc:	0000                	.insn	2, 0x0000
	...

Disassembly of section .__pagetable_map_os_0x000000004423b000:

000000004423b000 <__pagetable_map_os_0x000000004423b000>:
	...
    4423b5e8:	1085f8cf          	fnmadd.s	f17,f11,f8,f2
    4423b5ec:	0000                	.insn	2, 0x0000
	...

Disassembly of section .__pagetable_map_os_0x0000000044576000:

0000000044576000 <__pagetable_map_os_0x0000000044576000>:
	...
    445765e0:	10860ccf          	fnmadd.s	f25,f12,f8,f2,rne
	...
    44576c38:	1085f8cf          	fnmadd.s	f17,f11,f8,f2
    44576c3c:	0000                	.insn	2, 0x0000
	...

Disassembly of section .__pagetable_map_os_0x0000000043f9e000:

0000000043f9e000 <__pagetable_map_os_0x0000000043f9e000>:
	...
    43f9e8c0:	11087ccf          	fnmadd.s	f25,f16,f16,f2
    43f9e8c4:	0000                	.insn	2, 0x0000
	...

Disassembly of section .__pagetable_map_os_0x0000000044ccc000:

0000000044ccc000 <__pagetable_map_os_0x0000000044ccc000>:
	...
    44ccc248:	112bcccf          	fnmadd.s	f25,f23,f18,f2,rmm
    44ccc24c:	0000                	.insn	2, 0x0000
	...

Disassembly of section .__pagetable_map_os_0x0000000044b21000:

0000000044b21000 <__pagetable_map_os_0x0000000044b21000>:
	...
    44b21688:	112c8ccf          	fnmadd.s	f25,f25,f18,f2,rne
    44b2168c:	0000                	.insn	2, 0x0000
	...

Disassembly of section .__pagetable_map_os_0x000000004452e000:

000000004452e000 <__pagetable_map_os_0x000000004452e000>:
	...
    4452efc0:	112c70cf          	fnmadd.s	f1,f24,f18,f2
    4452efc4:	0000                	.insn	2, 0x0000
	...

Disassembly of section .__pagetable_map_os_0x000000004498c000:

000000004498c000 <__pagetable_map_os_0x000000004498c000>:
	...
    4498cd70:	10aaf8cf          	fnmadd.s	f17,f21,f10,f2
    4498cd74:	0000                	.insn	2, 0x0000
	...

Disassembly of section .__pagetable_map_os_0x000000004491d000:

000000004491d000 <__pagetable_map_os_0x000000004491d000>:
	...
    4491d880:	108664cf          	fnmadd.s	f9,f12,f8,f2,unknown
    4491d884:	0000                	.insn	2, 0x0000
	...

Disassembly of section .__pagetable_map_os_0x000000004454c000:

000000004454c000 <__pagetable_map_os_0x000000004454c000>:
	...
    4454cb60:	112464cf          	fnmadd.s	f9,f8,f18,f2,unknown
    4454cb64:	0000                	.insn	2, 0x0000
	...

Disassembly of section .__pagetable_map_os_0x0000000041b68000:

0000000041b68000 <__pagetable_map_os_0x0000000041b68000>:
	...
    41b68190:	1085f8cf          	fnmadd.s	f17,f11,f8,f2
    41b68194:	0000                	.insn	2, 0x0000
	...

Disassembly of section .__pagetable_map_os_0x00000000445b7000:

00000000445b7000 <__pagetable_map_os_0x00000000445b7000>:
	...
    445b7d20:	111e40cf          	fnmadd.s	f1,f28,f17,f2,rmm
    445b7d24:	0000                	.insn	2, 0x0000
	...

Disassembly of section .__pagetable_map_os_0x0000000042bc2000:

0000000042bc2000 <__pagetable_map_os_0x0000000042bc2000>:
	...
    42bc2ca8:	5401                	.insn	2, 0x5401
    42bc2caa:	1129                	.insn	2, 0x1129
    42bc2cac:	0000                	.insn	2, 0x0000
	...

Disassembly of section .__pagetable_map_os_0x0000000044a55000:

0000000044a55000 <__pagetable_map_os_0x0000000044a55000>:
	...
    44a552c8:	112becc7          	fmsub.s	f25,f23,f18,f2,unknown
    44a552cc:	0000                	.insn	2, 0x0000
	...

Disassembly of section .__pagetable_map_os_0x0000000044557000:

0000000044557000 <__pagetable_map_os_0x0000000044557000>:
	...
    44557fb8:	2001                	.insn	2, 0x2001
    44557fba:	10ad                	.insn	2, 0x10ad
    44557fbc:	0000                	.insn	2, 0x0000
	...

Disassembly of section .__pagetable_map_os_0x0000000042b48000:

0000000042b48000 <__pagetable_map_os_0x0000000042b48000>:
	...
    42b48580:	111594c7          	fmsub.s	f9,f11,f17,f2,rtz
    42b48584:	0000                	.insn	2, 0x0000
	...

Disassembly of section .__pagetable_map_os_0x0000000044460000:

0000000044460000 <__pagetable_map_os_0x0000000044460000>:
	...
    44460640:	8c01                	.insn	2, 0x8c01
    44460642:	00001113          	slli	x2,x0,0x0
	...

Disassembly of section .__pagetable_map_os_0x00000000444e3000:

00000000444e3000 <__pagetable_map_os_0x00000000444e3000>:
	...
    444e30f0:	111490c7          	fmsub.s	f1,f9,f17,f2,rtz
    444e30f4:	0000                	.insn	2, 0x0000
	...

Disassembly of section .__pagetable_map_os_0x0000000043fa3000:

0000000043fa3000 <__pagetable_map_os_0x0000000043fa3000>:
	...
    43fa3018:	bc01                	.insn	2, 0xbc01
    43fa301a:	109e                	.insn	2, 0x109e
	...
    43fa3318:	cc01                	.insn	2, 0xcc01
    43fa331a:	10b1                	.insn	2, 0x10b1
	...
    43fa34d0:	8801                	.insn	2, 0x8801
    43fa34d2:	1114                	.insn	2, 0x1114
	...
    43fa3558:	e401                	.insn	2, 0xe401
    43fa355a:	10b5                	.insn	2, 0x10b5
	...
    43fa36e0:	f001                	.insn	2, 0xf001
    43fa36e2:	10ae                	.insn	2, 0x10ae
	...
    43fa39d0:	7001                	.insn	2, 0x7001
    43fa39d2:	1055                	.insn	2, 0x1055
    43fa39d4:	0000                	.insn	2, 0x0000
	...

Disassembly of section .__pagetable_map_os_0x0000000042bbc000:

0000000042bbc000 <__pagetable_map_os_0x0000000042bbc000>:
	...
    42bbc560:	111394c7          	fmsub.s	f9,f7,f17,f2,rtz
    42bbc564:	0000                	.insn	2, 0x0000
	...

Disassembly of section .__pagetable_map_os_0x000000004155c000:

000000004155c000 <__pagetable_map_os_0x000000004155c000>:
	...
    4155cec0:	1085f8cf          	fnmadd.s	f17,f11,f8,f2
    4155cec4:	0000                	.insn	2, 0x0000
	...

Disassembly of section .__pagetable_map_os_0x0000000042d79000:

0000000042d79000 <__pagetable_map_os_0x0000000042d79000>:
	...
    42d79ae8:	10aae8cf          	fnmadd.s	f17,f21,f10,f2,unknown
    42d79aec:	0000                	.insn	2, 0x0000
	...

Disassembly of section .__pagetable_map_os_0x0000000044522000:

0000000044522000 <__pagetable_map_os_0x0000000044522000>:
	...
    44522638:	1085f8cf          	fnmadd.s	f17,f11,f8,f2
    4452263c:	0000                	.insn	2, 0x0000
	...

Disassembly of section .__pagetable_map_os_0x00000000427af000:

00000000427af000 <__pagetable_map_os_0x00000000427af000>:
	...
    427afcf0:	111388cf          	fnmadd.s	f17,f7,f17,f2,rne
    427afcf4:	0000                	.insn	2, 0x0000
	...

Disassembly of section .__pagetable_map_os_0x0000000042c73000:

0000000042c73000 <__pagetable_map_os_0x0000000042c73000>:
	...
    42c73b60:	10ac48cf          	fnmadd.s	f17,f24,f10,f2,rmm
    42c73b64:	0000                	.insn	2, 0x0000
	...

Disassembly of section .__pagetable_map_os_0x0000000044230000:

0000000044230000 <__pagetable_map_os_0x0000000044230000>:
	...
    442303a0:	3401                	.insn	2, 0x3401
    442303a2:	0000106b          	.insn	4, 0x106b
	...

Disassembly of section .__pagetable_map_os_0x0000000041acd000:

0000000041acd000 <__pagetable_map_os_0x0000000041acd000>:
	...
    41acd8a8:	10fff8cf          	fnmadd.s	f17,f31,f15,f2
    41acd8ac:	0000                	.insn	2, 0x0000
	...

Disassembly of section .__pagetable_map_os_0x00000000445cd000:

00000000445cd000 <__pagetable_map_os_0x00000000445cd000>:
	...
    445cd7b8:	ec01                	.insn	2, 0xec01
    445cd7ba:	10aa                	.insn	2, 0x10aa
    445cd7bc:	0000                	.insn	2, 0x0000
	...

Disassembly of section .__pagetable_map_os_0x0000000042abb000:

0000000042abb000 <__pagetable_map_os_0x0000000042abb000>:
	...
    42abb140:	10f8e4cf          	fnmadd.s	f9,f17,f15,f2,unknown
    42abb144:	0000                	.insn	2, 0x0000
	...

Disassembly of section .__pagetable_map_os_0x0000000042da0000:

0000000042da0000 <__pagetable_map_os_0x0000000042da0000>:
	...
    42da0f88:	6001                	.insn	2, 0x6001
    42da0f8a:	00001113          	slli	x2,x0,0x0
	...

Disassembly of section .__pagetable_map_os_0x00000000444d8000:

00000000444d8000 <__pagetable_map_os_0x00000000444d8000>:
	...
    444d8be0:	1114a8cf          	fnmadd.s	f17,f9,f17,f2,rdn
    444d8be4:	0000                	.insn	2, 0x0000
	...

Disassembly of section .__pagetable_map_os_0x0000000044b39000:

0000000044b39000 <__pagetable_map_os_0x0000000044b39000>:
	...
    44b399c8:	4401                	.insn	2, 0x4401
    44b399ca:	1116                	.insn	2, 0x1116
    44b399cc:	0000                	.insn	2, 0x0000
	...

Disassembly of section .__pagetable_map_os_0x0000000044591000:

0000000044591000 <__pagetable_map_os_0x0000000044591000>:
	...
    445910a0:	10ce88cf          	fnmadd.s	f17,f29,f12,f2,rne
    445910a4:	0000                	.insn	2, 0x0000
	...

Disassembly of section .__pagetable_map_os_0x00000000421bf000:

00000000421bf000 <__pagetable_map_os_0x00000000421bf000>:
	...
    421bf3d8:	0401                	.insn	2, 0x0401
    421bf3da:	1110                	.insn	2, 0x1110
    421bf3dc:	0000                	.insn	2, 0x0000
	...

Disassembly of section .__pagetable_map_os_0x0000000044401000:

0000000044401000 <__pagetable_map_os_0x0000000044401000>:
	...
    44401b30:	111480cf          	fnmadd.s	f1,f9,f17,f2,rne
    44401b34:	0000                	.insn	2, 0x0000
	...

Disassembly of section .__pagetable_map_os_0x0000000043f9d000:

0000000043f9d000 <__pagetable_map_os_0x0000000043f9d000>:
	...
    43f9d788:	2401                	.insn	2, 0x2401
    43f9d78a:	00001117          	auipc	x2,0x1
	...

Disassembly of section .__pagetable_map_os_0x00000000445c9000:

00000000445c9000 <__pagetable_map_os_0x00000000445c9000>:
	...
    445c96f8:	111298cf          	fnmadd.s	f17,f5,f17,f2,rtz
    445c96fc:	0000                	.insn	2, 0x0000
	...

Disassembly of section .__pagetable_map_os_0x0000000044671000:

0000000044671000 <__pagetable_map_os_0x0000000044671000>:
	...
    44671bf0:	8c01                	.insn	2, 0x8c01
    44671bf2:	110e                	.insn	2, 0x110e
    44671bf4:	0000                	.insn	2, 0x0000
	...

Disassembly of section .__pagetable_map_os_0x00000000443a3000:

00000000443a3000 <__pagetable_map_os_0x00000000443a3000>:
	...
    443a3450:	10d23ccf          	fnmadd.s	f25,f4,f13,f2,rup
    443a3454:	0000                	.insn	2, 0x0000
	...

Disassembly of section .__pagetable_map_os_0x000000004491b000:

000000004491b000 <__pagetable_map_os_0x000000004491b000>:
	...
    4491b2b8:	6001                	.insn	2, 0x6001
    4491b2ba:	1115                	.insn	2, 0x1115
    4491b2bc:	0000                	.insn	2, 0x0000
	...

Disassembly of section .__pagetable_map_os_0x0000000044558000:

0000000044558000 <__pagetable_map_os_0x0000000044558000>:
	...
    44558a18:	1085f8cf          	fnmadd.s	f17,f11,f8,f2
    44558a1c:	0000                	.insn	2, 0x0000
	...

Disassembly of section .__pagetable_map_os_0x0000000044b20000:

0000000044b20000 <__pagetable_map_os_0x0000000044b20000>:
	...
    44b20ad8:	ec01                	.insn	2, 0xec01
    44b20ada:	1086                	.insn	2, 0x1086
    44b20adc:	0000                	.insn	2, 0x0000
	...

Disassembly of section .__pagetable_map_os_0x00000000421bb000:

00000000421bb000 <__pagetable_map_os_0x00000000421bb000>:
	...
    421bb030:	111524cf          	fnmadd.s	f9,f10,f17,f2,rdn
    421bb034:	0000                	.insn	2, 0x0000
	...

Disassembly of section .__pagetable_map_os_0x0000000041c07000:

0000000041c07000 <__pagetable_map_os_0x0000000041c07000>:
	...
    41c07538:	4801                	.insn	2, 0x4801
    41c0753a:	1129                	.insn	2, 0x1129
    41c0753c:	0000                	.insn	2, 0x0000
	...

Disassembly of section .__pagetable_map_os_0x0000000044a52000:

0000000044a52000 <__pagetable_map_os_0x0000000044a52000>:
	...
    44a522d0:	111188cf          	fnmadd.s	f17,f3,f17,f2,rne
    44a522d4:	0000                	.insn	2, 0x0000
	...

Disassembly of section .__pagetable_map_os_0x00000000445de000:

00000000445de000 <__pagetable_map_os_0x00000000445de000>:
	...
    445deeb0:	7801                	.insn	2, 0x7801
    445deeb2:	1129                	.insn	2, 0x1129
    445deeb4:	0000                	.insn	2, 0x0000
	...

Disassembly of section .__pagetable_map_os_0x0000000044a5e000:

0000000044a5e000 <__pagetable_map_os_0x0000000044a5e000>:
	...
    44a5e040:	10b5e0cf          	fnmadd.s	f1,f11,f11,f2,unknown
    44a5e044:	0000                	.insn	2, 0x0000
	...

Disassembly of section .__pagetable_map_os_0x000000004218f000:

000000004218f000 <__pagetable_map_os_0x000000004218f000>:
	...
    4218f5e8:	fc01                	.insn	2, 0xfc01
    4218f5ea:	0000112b          	.insn	4, 0x112b
	...

Disassembly of section .__pagetable_map_os_0x0000000044aff000:

0000000044aff000 <__pagetable_map_os_0x0000000044aff000>:
	...
    44aff3f0:	6801                	.insn	2, 0x6801
    44aff3f2:	0000112b          	.insn	4, 0x112b
	...

Disassembly of section .__pagetable_map_os_0x0000000044ada000:

0000000044ada000 <__pagetable_map_os_0x0000000044ada000>:
	...
    44adabc0:	111858cf          	fnmadd.s	f17,f16,f17,f2,unknown
    44adabc4:	0000                	.insn	2, 0x0000
	...

Disassembly of section .__pagetable_map_os_0x0000000044917000:

0000000044917000 <__pagetable_map_os_0x0000000044917000>:
	...
    44917e98:	8801                	.insn	2, 0x8801
    44917e9a:	1108                	.insn	2, 0x1108
    44917e9c:	0000                	.insn	2, 0x0000
	...

Disassembly of section .__pagetable_map_os_0x0000000044222000:

0000000044222000 <__pagetable_map_os_0x0000000044222000>:
	...
    44222600:	b401                	.insn	2, 0xb401
    44222602:	1114                	.insn	2, 0x1114
    44222604:	0000                	.insn	2, 0x0000
	...

Disassembly of section .__pagetable_map_os_0x000000004452d000:

000000004452d000 <__pagetable_map_os_0x000000004452d000>:
	...
    4452db00:	10ac28c7          	fmsub.s	f17,f24,f10,f2,rdn
    4452db04:	0000                	.insn	2, 0x0000
	...

Disassembly of section .__pagetable_map_os_0x0000000044a53000:

0000000044a53000 <__pagetable_map_os_0x0000000044a53000>:
	...
    44a53e28:	6401                	.insn	2, 0x6401
    44a53e2a:	1115                	.insn	2, 0x1115
    44a53e2c:	0000                	.insn	2, 0x0000
	...

Disassembly of section .__pagetable_map_os_0x0000000044559000:

0000000044559000 <__pagetable_map_os_0x0000000044559000>:
	...
    445598c0:	0801                	.insn	2, 0x0801
    445598c2:	1086                	.insn	2, 0x1086
    445598c4:	0000                	.insn	2, 0x0000
	...

Disassembly of section .__pagetable_map_os_0x0000000042182000:

0000000042182000 <__pagetable_map_os_0x0000000042182000>:
	...
    421824c0:	111534cf          	fnmadd.s	f9,f10,f17,f2,rup
    421824c4:	0000                	.insn	2, 0x0000
	...

Disassembly of section .__pagetable_map_os_0x0000000044b24000:

0000000044b24000 <__pagetable_map_os_0x0000000044b24000>:
	...
    44b24240:	5801                	.insn	2, 0x5801
    44b24242:	1124                	.insn	2, 0x1124
    44b24244:	0000                	.insn	2, 0x0000
	...

Disassembly of section .__pagetable_map_os_0x0000000044916000:

0000000044916000 <__pagetable_map_os_0x0000000044916000>:
	...
    44916698:	3401                	.insn	2, 0x3401
    4491669a:	1114                	.insn	2, 0x1114
    4491669c:	0000                	.insn	2, 0x0000
	...

Disassembly of section .__pagetable_map_os_0x000000004450d000:

000000004450d000 <__pagetable_map_os_0x000000004450d000>:
	...
    4450ddf0:	ac01                	.insn	2, 0xac01
    4450ddf2:	112d                	.insn	2, 0x112d
    4450ddf4:	0000                	.insn	2, 0x0000
	...

Disassembly of section .__pagetable_map_os_0x0000000044b6b000:

0000000044b6b000 <__pagetable_map_os_0x0000000044b6b000>:
	...
    44b6b640:	1129b0cf          	fnmadd.s	f1,f19,f18,f2,rup
    44b6b644:	0000                	.insn	2, 0x0000
    44b6b646:	0000                	.insn	2, 0x0000
    44b6b648:	1129b4cf          	fnmadd.s	f9,f19,f18,f2,rup
    44b6b64c:	0000                	.insn	2, 0x0000
	...

Disassembly of section .__pagetable_map_os_0x0000000043ffe000:

0000000043ffe000 <__pagetable_map_os_0x0000000043ffe000>:
    43ffe000:	ac01                	.insn	2, 0xac01
    43ffe002:	000010c7          	fmsub.s	f1,f0,f0,f0,rtz
	...

Disassembly of section .__pagetable_map_os_0x00000000431eb000:

00000000431eb000 <__pagetable_map_os_0x00000000431eb000>:
    431eb000:	e801                	.insn	2, 0xe801
    431eb002:	10aa                	.insn	2, 0x10aa
    431eb004:	0000                	.insn	2, 0x0000
	...

Disassembly of section .__pagetable_map_os_0x0000000042aba000:

0000000042aba000 <__pagetable_map_os_0x0000000042aba000>:
    42aba000:	0001                	.insn	2, 0x0001
    42aba002:	112c                	.insn	2, 0x112c
    42aba004:	0000                	.insn	2, 0x0000
	...

Disassembly of section .__pagetable_map_os_0x0000000044b00000:

0000000044b00000 <__pagetable_map_os_0x0000000044b00000>:
    44b00000:	10ad14c7          	fmsub.s	f9,f26,f10,f2,rtz
    44b00004:	0000                	.insn	2, 0x0000
	...

Disassembly of section .__pagetable_map_os_0x00000000444e1000:

00000000444e1000 <__pagetable_map_os_0x00000000444e1000>:
    444e1000:	e401                	.insn	2, 0xe401
    444e1002:	10f8                	.insn	2, 0x10f8
    444e1004:	0000                	.insn	2, 0x0000
	...

Disassembly of section .__pagetable_map_os_0x0000000043e39000:

0000000043e39000 <__pagetable_map_os_0x0000000043e39000>:
    43e39000:	fc01                	.insn	2, 0xfc01
    43e39002:	10aa                	.insn	2, 0x10aa
    43e39004:	0000                	.insn	2, 0x0000
	...

Disassembly of section .__pagetable_map_os_0x0000000042abf000:

0000000042abf000 <__pagetable_map_os_0x0000000042abf000>:
    42abf000:	7401                	.insn	2, 0x7401
    42abf002:	1115                	.insn	2, 0x1115
    42abf004:	0000                	.insn	2, 0x0000
	...

Disassembly of section .__pagetable_map_os_0x000000004455d000:

000000004455d000 <__pagetable_map_os_0x000000004455d000>:
    4455d000:	110c38c7          	fmsub.s	f17,f24,f16,f2,rup
    4455d004:	0000                	.insn	2, 0x0000
	...

Disassembly of section .__pagetable_map_os_0x0000000044536000:

0000000044536000 <__pagetable_map_os_0x0000000044536000>:
    44536000:	6801                	.insn	2, 0x6801
    44536002:	1111                	.insn	2, 0x1111
    44536004:	0000                	.insn	2, 0x0000
	...

Disassembly of section .__pagetable_map_os_0x000000004445a000:

000000004445a000 <__pagetable_map_os_0x000000004445a000>:
    4445a000:	7c01                	.insn	2, 0x7c01
    4445a002:	10ae                	.insn	2, 0x10ae
    4445a004:	0000                	.insn	2, 0x0000
	...

Disassembly of section .__pagetable_map_os_0x0000000042b9f000:

0000000042b9f000 <__pagetable_map_os_0x0000000042b9f000>:
    42b9f000:	a801                	.insn	2, 0xa801
    42b9f002:	1114                	.insn	2, 0x1114
    42b9f004:	0000                	.insn	2, 0x0000
	...

Disassembly of section .__pagetable_map_os_0x000000004452a000:

000000004452a000 <__pagetable_map_os_0x000000004452a000>:
    4452a000:	112988c7          	fmsub.s	f17,f19,f18,f2,rne
    4452a004:	0000                	.insn	2, 0x0000
	...

Disassembly of section .__pagetable_map_os_0x00000000433a2000:

00000000433a2000 <__pagetable_map_os_0x00000000433a2000>:
    433a2000:	d401                	.insn	2, 0xd401
    433a2002:	0000112b          	.insn	4, 0x112b
	...

Disassembly of section .__pagetable_map_os_0x0000000044af5000:

0000000044af5000 <__pagetable_map_os_0x0000000044af5000>:
    44af5000:	8801                	.insn	2, 0x8801
    44af5002:	112c                	.insn	2, 0x112c
    44af5004:	0000                	.insn	2, 0x0000
	...

Disassembly of section .__pagetable_map_os_0x0000000044b22000:

0000000044b22000 <__pagetable_map_os_0x0000000044b22000>:
    44b22000:	8001                	.insn	2, 0x8001
    44b22002:	1114                	.insn	2, 0x1114
    44b22004:	0000                	.insn	2, 0x0000
	...

Disassembly of section .__pagetable_map_os_0x0000000044520000:

0000000044520000 <__pagetable_map_os_0x0000000044520000>:
    44520000:	111294c7          	fmsub.s	f9,f5,f17,f2,rtz
    44520004:	0000                	.insn	2, 0x0000
	...

Disassembly of section .__pagetable_map_os_0x0000000042183000:

0000000042183000 <__pagetable_map_os_0x0000000042183000>:
    42183000:	e801                	.insn	2, 0xe801
    42183002:	0000112b          	.insn	4, 0x112b
	...

Disassembly of section .__pagetable_map_os_0x0000000044afa000:

0000000044afa000 <__pagetable_map_os_0x0000000044afa000>:
    44afa000:	7c01                	.insn	2, 0x7c01
    44afa002:	1108                	.insn	2, 0x1108
    44afa004:	0000                	.insn	2, 0x0000
	...

Disassembly of section .__pagetable_map_os_0x000000004421f000:

000000004421f000 <__pagetable_map_os_0x000000004421f000>:
    4421f000:	0001                	.insn	2, 0x0001
    4421f002:	1109                	.insn	2, 0x1109
    4421f004:	0000                	.insn	2, 0x0000
	...

Disassembly of section .__pagetable_map_os_0x0000000044240000:

0000000044240000 <__pagetable_map_os_0x0000000044240000>:
    44240000:	1138a4c7          	fmsub.s	f9,f17,f19,f2,rdn
    44240004:	0000                	.insn	2, 0x0000
	...

Disassembly of section .__pagetable_map_os_0x00000000444a6000:

00000000444a6000 <__pagetable_map_os_0x00000000444a6000>:
    444a6000:	6001                	.insn	2, 0x6001
    444a6002:	1124                	.insn	2, 0x1124
    444a6004:	0000                	.insn	2, 0x0000
	...

Disassembly of section .__pagetable_map_os_0x0000000044918000:

0000000044918000 <__pagetable_map_os_0x0000000044918000>:
    44918000:	d001                	.insn	2, 0xd001
    44918002:	1114                	.insn	2, 0x1114
    44918004:	0000                	.insn	2, 0x0000
	...

Disassembly of section .__pagetable_map_os_0x0000000044534000:

0000000044534000 <__pagetable_map_os_0x0000000044534000>:
    44534000:	8801                	.insn	2, 0x8801
    44534002:	00001113          	slli	x2,x0,0x0
	...

Disassembly of section .__pagetable_map_os_0x00000000444e2000:

00000000444e2000 <__pagetable_map_os_0x00000000444e2000>:
    444e2000:	111290c7          	fmsub.s	f1,f5,f17,f2,rtz
    444e2004:	0000                	.insn	2, 0x0000
	...

Disassembly of section .__pagetable_map_os_0x0000000042abd000:

0000000042abd000 <__pagetable_map_os_0x0000000042abd000>:
    42abd000:	cc01                	.insn	2, 0xcc01
    42abd002:	0000112b          	.insn	4, 0x112b
	...

Disassembly of section .__pagetable_map_os_0x0000000044af3000:

0000000044af3000 <__pagetable_map_os_0x0000000044af3000>:
    44af3000:	d401                	.insn	2, 0xd401
    44af3002:	1114                	.insn	2, 0x1114
    44af3004:	0000                	.insn	2, 0x0000
	...

Disassembly of section .__pagetable_map_os_0x0000000044535000:

0000000044535000 <__pagetable_map_os_0x0000000044535000>:
    44535000:	3401                	.insn	2, 0x3401
    44535002:	1115                	.insn	2, 0x1115
    44535004:	0000                	.insn	2, 0x0000
	...

Disassembly of section .__pagetable_map_os_0x000000004454d000:

000000004454d000 <__pagetable_map_os_0x000000004454d000>:
    4454d000:	1115ecc7          	fmsub.s	f25,f11,f17,f2,unknown
    4454d004:	0000                	.insn	2, 0x0000
	...

Disassembly of section .__pagetable_map_os_0x00000000421aa000:

00000000421aa000 <__pagetable_map_os_0x00000000421aa000>:
    421aa000:	3c01                	.insn	2, 0x3c01
    421aa002:	10d2                	.insn	2, 0x10d2
    421aa004:	0000                	.insn	2, 0x0000
	...

Disassembly of section .__pagetable_map_os_0x000000004348f000:

000000004348f000 <__pagetable_map_os_0x000000004348f000>:
    4348f000:	2c01                	.insn	2, 0x2c01
    4348f002:	1115                	.insn	2, 0x1115
    4348f004:	0000                	.insn	2, 0x0000
	...

Disassembly of section .__pagetable_map_os_0x000000004454b000:

000000004454b000 <__pagetable_map_os_0x000000004454b000>:
    4454b000:	7001                	.insn	2, 0x7001
    4454b002:	1129                	.insn	2, 0x1129
    4454b004:	0000                	.insn	2, 0x0000
	...

Disassembly of section .__pagetable_map_os_0x0000000044a5c000:

0000000044a5c000 <__pagetable_map_os_0x0000000044a5c000>:
    44a5c000:	10a510c7          	fmsub.s	f1,f10,f10,f2,rtz
    44a5c004:	0000                	.insn	2, 0x0000
	...

Disassembly of section .__pagetable_map_os_0x0000000043952000:

0000000043952000 <__pagetable_map_os_0x0000000043952000>:
    43952000:	2401                	.insn	2, 0x2401
    43952002:	1115                	.insn	2, 0x1115
    43952004:	0000                	.insn	2, 0x0000
	...

Disassembly of section .__pagetable_map_os_0x0000000044549000:

0000000044549000 <__pagetable_map_os_0x0000000044549000>:
    44549000:	f001                	.insn	2, 0xf001
    44549002:	0000112b          	.insn	4, 0x112b
	...

Disassembly of section .__pagetable_map_os_0x0000000044afc000:

0000000044afc000 <__pagetable_map_os_0x0000000044afc000>:
    44afc000:	8c01                	.insn	2, 0x8c01
    44afc002:	112c                	.insn	2, 0x112c
    44afc004:	0000                	.insn	2, 0x0000
	...

Disassembly of section .__pagetable_map_os_0x0000000044b23000:

0000000044b23000 <__pagetable_map_os_0x0000000044b23000>:
    44b23000:	1086f8c7          	fmsub.s	f17,f13,f8,f2
    44b23004:	0000                	.insn	2, 0x0000
	...

Disassembly of section .__pagetable_map_os_0x0000000042b12000:

0000000042b12000 <__pagetable_map_os_0x0000000042b12000>:
    42b12000:	7001                	.insn	2, 0x7001
    42b12002:	112c                	.insn	2, 0x112c
    42b12004:	0000                	.insn	2, 0x0000
	...

Disassembly of section .__pagetable_map_os_0x0000000044b1c000:

0000000044b1c000 <__pagetable_map_os_0x0000000044b1c000>:
    44b1c000:	f801                	.insn	2, 0xf801
    44b1c002:	10aa                	.insn	2, 0x10aa
    44b1c004:	0000                	.insn	2, 0x0000
	...

Disassembly of section .__pagetable_map_os_0x0000000042abe000:

0000000042abe000 <__pagetable_map_os_0x0000000042abe000>:
    42abe000:	e401                	.insn	2, 0xe401
    42abe002:	1111                	.insn	2, 0x1111
    42abe004:	0000                	.insn	2, 0x0000
	...

Disassembly of section .__pagetable_map_os_0x0000000044479000:

0000000044479000 <__pagetable_map_os_0x0000000044479000>:
    44479000:	108628c7          	fmsub.s	f17,f12,f8,f2,rdn
    44479004:	0000                	.insn	2, 0x0000
	...

Disassembly of section .__pagetable_map_os_0x0000000042199000:

0000000042199000 <__pagetable_map_os_0x0000000042199000>:
    42199000:	8801                	.insn	2, 0x8801
    42199002:	1111                	.insn	2, 0x1111
    42199004:	0000                	.insn	2, 0x0000
	...

Disassembly of section .__pagetable_map_os_0x0000000044462000:

0000000044462000 <__pagetable_map_os_0x0000000044462000>:
    44462000:	6401                	.insn	2, 0x6401
    44462002:	1124                	.insn	2, 0x1124
    44462004:	0000                	.insn	2, 0x0000
	...

Disassembly of section .__pagetable_map_os_0x0000000044919000:

0000000044919000 <__pagetable_map_os_0x0000000044919000>:
    44919000:	dc01                	.insn	2, 0xdc01
    44919002:	1114                	.insn	2, 0x1114
    44919004:	0000                	.insn	2, 0x0000
	...

Disassembly of section .__pagetable_map_os_0x0000000044537000:

0000000044537000 <__pagetable_map_os_0x0000000044537000>:
    44537000:	110b10c7          	fmsub.s	f1,f22,f16,f2,rtz
    44537004:	0000                	.insn	2, 0x0000
	...

Disassembly of section .__pagetable_map_os_0x00000000422a3000:

00000000422a3000 <__pagetable_map_os_0x00000000422a3000>:
    422a3000:	4001                	.insn	2, 0x4001
    422a3002:	111e                	.insn	2, 0x111e
    422a3004:	0000                	.insn	2, 0x0000
	...

Disassembly of section .__pagetable_map_os_0x0000000044790000:

0000000044790000 <__pagetable_map_os_0x0000000044790000>:
    44790000:	e001                	.insn	2, 0xe001
    44790002:	10b5                	.insn	2, 0x10b5
    44790004:	0000                	.insn	2, 0x0000
	...

Disassembly of section .__pagetable_map_os_0x0000000042d78000:

0000000042d78000 <__pagetable_map_os_0x0000000042d78000>:
    42d78000:	1c01                	.insn	2, 0x1c01
    42d78002:	00001117          	auipc	x2,0x1
	...

Disassembly of section .__pagetable_map_os_0x00000000445c7000:

00000000445c7000 <__pagetable_map_os_0x00000000445c7000>:
    445c7000:	10b684c7          	fmsub.s	f9,f13,f11,f2,rne
    445c7004:	0000                	.insn	2, 0x0000
	...

Disassembly of section .__pagetable_map_os_0x0000000044afd000:

0000000044afd000 <__pagetable_map_os_0x0000000044afd000>:
	...
    44afdf50:	c001                	.insn	2, 0xc001
    44afdf52:	1114                	.insn	2, 0x1114
    44afdf54:	0000                	.insn	2, 0x0000
	...

Disassembly of section .__pagetable_map_os_0x0000000044530000:

0000000044530000 <__pagetable_map_os_0x0000000044530000>:
	...
    445306a8:	3801                	.insn	2, 0x3801
    445306aa:	1134                	.insn	2, 0x1134
    445306ac:	0000                	.insn	2, 0x0000
	...

Disassembly of section .__pagetable_map_os_0x0000000044d0e000:

0000000044d0e000 <__pagetable_map_os_0x0000000044d0e000>:
	...
    44d0edc0:	3801                	.insn	2, 0x3801
    44d0edc2:	00001133          	sll	x2,x0,x0
	...

Disassembly of section .__pagetable_map_os_0x0000000044cce000:

0000000044cce000 <__pagetable_map_os_0x0000000044cce000>:
	...
    44cce168:	10fffcc7          	fmsub.s	f25,f31,f15,f2
    44cce16c:	0000                	.insn	2, 0x0000
	...

Disassembly of section .__pagetable_map_os_0x000000004421e000:

000000004421e000 <__pagetable_map_os_0x000000004421e000>:
	...
    4421e770:	a001                	.insn	2, 0xa001
    4421e772:	1086                	.insn	2, 0x1086
    4421e774:	0000                	.insn	2, 0x0000
	...

Disassembly of section .__pagetable_map_os_0x00000000421a8000:

00000000421a8000 <__pagetable_map_os_0x00000000421a8000>:
	...
    421a82b0:	9801                	.insn	2, 0x9801
    421a82b2:	1115                	.insn	2, 0x1115
    421a82b4:	0000                	.insn	2, 0x0000
	...

Disassembly of section .__pagetable_map_os_0x0000000044566000:

0000000044566000 <__pagetable_map_os_0x0000000044566000>:
	...
    44566e30:	d001                	.insn	2, 0xd001
    44566e32:	10ae                	.insn	2, 0x10ae
    44566e34:	0000                	.insn	2, 0x0000
	...

Disassembly of section .__pagetable_map_os_0x0000000042bb4000:

0000000042bb4000 <__pagetable_map_os_0x0000000042bb4000>:
	...
    42bb47b0:	112950c7          	fmsub.s	f1,f18,f18,f2,unknown
    42bb47b4:	0000                	.insn	2, 0x0000
	...

Disassembly of section .__pagetable_map_os_0x00000000445cc000:

00000000445cc000 <__pagetable_map_os_0x00000000445cc000>:
	...
    445cc1c0:	3401                	.insn	2, 0x3401
    445cc1c2:	112a                	.insn	2, 0x112a
	...
    445cc8e8:	0c01                	.insn	2, 0x0c01
    445cc8ea:	112c                	.insn	2, 0x112c
    445cc8ec:	0000                	.insn	2, 0x0000
	...

Disassembly of section .__pagetable_map_os_0x0000000044a8d000:

0000000044a8d000 <__pagetable_map_os_0x0000000044a8d000>:
	...
    44a8dc28:	f001                	.insn	2, 0xf001
    44a8dc2a:	10aa                	.insn	2, 0x10aa
    44a8dc2c:	0000                	.insn	2, 0x0000
	...

Disassembly of section .__pagetable_map_os_0x0000000042abc000:

0000000042abc000 <__pagetable_map_os_0x0000000042abc000>:
	...
    42abcdc8:	1401                	.insn	2, 0x1401
    42abcdca:	112a                	.insn	2, 0x112a
    42abcdcc:	0000                	.insn	2, 0x0000
	...

Disassembly of section .__pagetable_map_os_0x0000000044a85000:

0000000044a85000 <__pagetable_map_os_0x0000000044a85000>:
	...
    44a85c88:	111574cf          	fnmadd.s	f9,f10,f17,f2
    44a85c8c:	0000                	.insn	2, 0x0000
	...

Disassembly of section .__pagetable_map_os_0x0000000044b03000:

0000000044b03000 <__pagetable_map_os_0x0000000044b03000>:
	...
    44b03ed8:	7001                	.insn	2, 0x7001
    44b03eda:	1124                	.insn	2, 0x1124
    44b03edc:	0000                	.insn	2, 0x0000
	...

Disassembly of section .__pagetable_map_os_0x000000004491c000:

000000004491c000 <__pagetable_map_os_0x000000004491c000>:
	...
    4491c4a0:	2001                	.insn	2, 0x2001
    4491c4a2:	112c                	.insn	2, 0x112c
    4491c4a4:	0000                	.insn	2, 0x0000
	...

Disassembly of section .__pagetable_map_os_0x0000000044b08000:

0000000044b08000 <__pagetable_map_os_0x0000000044b08000>:
	...
    44b080f8:	1111e4cf          	fnmadd.s	f9,f3,f17,f2,unknown
    44b080fc:	0000                	.insn	2, 0x0000
	...
