
/home/abdullah/RiescueC/riescue/10x_R/zicsr/testsuite/zicsr/super_sv57/tp_zicsr_2:     file format elf64-littleriscv


Disassembly of section .runtime:

0000000041000000 <_start>:
    41000000:	00000093          	li	x1,0
    41000004:	00000113          	li	x2,0
    41000008:	00000193          	li	x3,0
    4100000c:	00000213          	li	x4,0
    41000010:	00000293          	li	x5,0
    41000014:	00000313          	li	x6,0
    41000018:	00000393          	li	x7,0
    4100001c:	00000413          	li	x8,0
    41000020:	00000493          	li	x9,0
    41000024:	00000513          	li	x10,0
    41000028:	00000593          	li	x11,0
    4100002c:	00000613          	li	x12,0
    41000030:	00000693          	li	x13,0
    41000034:	00000713          	li	x14,0
    41000038:	00000793          	li	x15,0
    4100003c:	00000813          	li	x16,0
    41000040:	00000893          	li	x17,0
    41000044:	00000913          	li	x18,0
    41000048:	00000993          	li	x19,0
    4100004c:	00000a13          	li	x20,0
    41000050:	00000a93          	li	x21,0
    41000054:	00000b13          	li	x22,0
    41000058:	00000b93          	li	x23,0
    4100005c:	00000c13          	li	x24,0
    41000060:	00000c93          	li	x25,0
    41000064:	00000d13          	li	x26,0
    41000068:	00000d93          	li	x27,0
    4100006c:	00000e13          	li	x28,0
    41000070:	00000e93          	li	x29,0
    41000074:	00000f13          	li	x30,0
    41000078:	00000f93          	li	x31,0

000000004100007c <loader__load_panic_address>:
    4100007c:	00001297          	auipc	x5,0x1
    41000080:	9b828293          	addi	x5,x5,-1608 # 41000a34 <eot__failed>
    41000084:	30529073          	csrw	mtvec,x5

0000000041000088 <loader__initialize_runtime>:
    41000088:	00000293          	li	x5,0
    4100008c:	3012a2f3          	csrrs	x5,misa,x5

0000000041000090 <loader__set_mstatus>:
    41000090:	000402b7          	lui	x5,0x40
    41000094:	00a2829b          	addiw	x5,x5,10 # 4000a <pma_region_0_size+0xa>
    41000098:	3002a2f3          	csrrs	x5,mstatus,x5
    4100009c:	4167e237          	lui	x4,0x4167e
    410000a0:	34021073          	csrw	mscratch,x4

00000000410000a4 <loader__setup_menvcfg>:
    410000a4:	00000297          	auipc	x5,0x0
    410000a8:	47c28293          	addi	x5,x5,1148 # 41000520 <trap_handler_m__trap_entry>
    410000ac:	30529073          	csrw	mtvec,x5

00000000410000b0 <loader__enable_paging>:
    410000b0:	fffa00b7          	lui	x1,0xfffa0
    410000b4:	07f0809b          	addiw	x1,x1,127 # fffffffffffa007f <__section_os_data_1+0xff119b607608107f>
    410000b8:	01f09093          	slli	x1,x1,0x1f
    410000bc:	02108093          	addi	x1,x1,33
    410000c0:	00d09093          	slli	x1,x1,0xd
    410000c4:	8fc08093          	addi	x1,x1,-1796
    410000c8:	18009073          	csrw	satp,x1

00000000410000cc <loader__done>:
    410000cc:	1910006f          	j	41000a5c <scheduler__init>

00000000410000d0 <loader__panic>:
    410000d0:	1650006f          	j	41000a34 <eot__failed>

00000000410000d4 <syscalls__syscall_check_schedule_next_test>:
    410000d4:	00f0029b          	addiw	x5,x0,15
    410000d8:	01c29293          	slli	x5,x5,0x1c
    410000dc:	00128293          	addi	x5,x5,1
    410000e0:	01f29a63          	bne	x5,x31,410000f4 <syscalls__syscall_check_fail_test>
    410000e4:	00000317          	auipc	x6,0x0
    410000e8:	43c30313          	addi	x6,x6,1084 # 41000520 <trap_handler_m__trap_entry>
    410000ec:	30531073          	csrw	mtvec,x6
    410000f0:	6740006f          	j	41000764 <enter_scheduler>

00000000410000f4 <syscalls__syscall_check_fail_test>:
    410000f4:	00f0029b          	addiw	x5,x0,15
    410000f8:	01c29293          	slli	x5,x5,0x1c
    410000fc:	00228293          	addi	x5,x5,2
    41000100:	01f29a63          	bne	x5,x31,41000114 <syscalls__syscall_check_end_test_without_failure>
    41000104:	00000317          	auipc	x6,0x0
    41000108:	41c30313          	addi	x6,x6,1052 # 41000520 <trap_handler_m__trap_entry>
    4100010c:	30531073          	csrw	mtvec,x6
    41000110:	6840006f          	j	41000794 <test_failed>

0000000041000114 <syscalls__syscall_check_end_test_without_failure>:
    41000114:	00f0029b          	addiw	x5,x0,15
    41000118:	01c29293          	slli	x5,x5,0x1c
    4100011c:	00328293          	addi	x5,x5,3
    41000120:	01f29a63          	bne	x5,x31,41000134 <syscalls__syscall_check_switch_machine_mode>
    41000124:	00000317          	auipc	x6,0x0
    41000128:	3fc30313          	addi	x6,x6,1020 # 41000520 <trap_handler_m__trap_entry>
    4100012c:	30531073          	csrw	mtvec,x6
    41000130:	6700006f          	j	410007a0 <os_end_test>

0000000041000134 <syscalls__syscall_check_switch_machine_mode>:
    41000134:	000f02b7          	lui	x5,0xf0
    41000138:	0012829b          	addiw	x5,x5,1 # f0001 <pma_region_0_size+0xb0001>
    4100013c:	00c29293          	slli	x5,x5,0xc
    41000140:	00128293          	addi	x5,x5,1
    41000144:	0a5f8463          	beq	x31,x5,410001ec <syscalls__os_fn_f0001001>

0000000041000148 <syscalls__syscall_check_switch_super_mode>:
    41000148:	000f02b7          	lui	x5,0xf0
    4100014c:	0012829b          	addiw	x5,x5,1 # f0001 <pma_region_0_size+0xb0001>
    41000150:	00c29293          	slli	x5,x5,0xc
    41000154:	00228293          	addi	x5,x5,2
    41000158:	0c5f8063          	beq	x31,x5,41000218 <syscalls__os_fn_f0001002>

000000004100015c <syscalls__syscall_check_switch_user_mode>:
    4100015c:	000f02b7          	lui	x5,0xf0
    41000160:	0012829b          	addiw	x5,x5,1 # f0001 <pma_region_0_size+0xb0001>
    41000164:	00c29293          	slli	x5,x5,0xc
    41000168:	00328293          	addi	x5,x5,3
    4100016c:	0a5f8a63          	beq	x31,x5,41000220 <syscalls__os_fn_f0001003>

0000000041000170 <syscalls__syscall_check_switch_test_mode>:
    41000170:	000f02b7          	lui	x5,0xf0
    41000174:	0012829b          	addiw	x5,x5,1 # f0001 <pma_region_0_size+0xb0001>
    41000178:	00c29293          	slli	x5,x5,0xc
    4100017c:	00428293          	addi	x5,x5,4
    41000180:	0c5f8463          	beq	x31,x5,41000248 <syscalls__os_fn_f0001004>

0000000041000184 <syscalls__syscall_machine_csr_rw>:
    41000184:	000f02b7          	lui	x5,0xf0
    41000188:	0012829b          	addiw	x5,x5,1 # f0001 <pma_region_0_size+0xb0001>
    4100018c:	00c29293          	slli	x5,x5,0xc
    41000190:	00528293          	addi	x5,x5,5
    41000194:	0e5f8063          	beq	x31,x5,41000274 <syscalls__os_fn_f0001005>

0000000041000198 <syscalls__syscall_supervisor_csr_rw>:
    41000198:	000f02b7          	lui	x5,0xf0
    4100019c:	0012829b          	addiw	x5,x5,1 # f0001 <pma_region_0_size+0xb0001>
    410001a0:	00c29293          	slli	x5,x5,0xc
    410001a4:	00628293          	addi	x5,x5,6
    410001a8:	0e5f8c63          	beq	x31,x5,410002a0 <syscalls__os_fn_f0001006>

00000000410001ac <syscalls__syscall_machine_pte_read>:
    410001ac:	000f02b7          	lui	x5,0xf0
    410001b0:	0012829b          	addiw	x5,x5,1 # f0001 <pma_region_0_size+0xb0001>
    410001b4:	00c29293          	slli	x5,x5,0xc
    410001b8:	00728293          	addi	x5,x5,7
    410001bc:	0e5f8663          	beq	x31,x5,410002a8 <syscalls__os_fn_f0001007>

00000000410001c0 <syscalls__syscall_machine_pte_write>:
    410001c0:	000f02b7          	lui	x5,0xf0
    410001c4:	0012829b          	addiw	x5,x5,1 # f0001 <pma_region_0_size+0xb0001>
    410001c8:	00c29293          	slli	x5,x5,0xc
    410001cc:	00828293          	addi	x5,x5,8
    410001d0:	1c5f8263          	beq	x31,x5,41000394 <syscalls__os_fn_f0001008>

00000000410001d4 <syscalls__syscall_check_get_hart_context>:
    410001d4:	000782b7          	lui	x5,0x78
    410001d8:	0012829b          	addiw	x5,x5,1 # 78001 <pma_region_0_size+0x38001>
    410001dc:	00d29293          	slli	x5,x5,0xd
    410001e0:	00128293          	addi	x5,x5,1
    410001e4:	285f8e63          	beq	x31,x5,41000480 <syscalls__os_get_hart_context>
    410001e8:	4940006f          	j	4100067c <trap_handler_m__check_exception_label>

00000000410001ec <syscalls__os_fn_f0001001>:
    410001ec:	000022b7          	lui	x5,0x2
    410001f0:	8002829b          	addiw	x5,x5,-2048 # 1800 <pma_region_1_size+0x800>
    410001f4:	3002b073          	csrc	mstatus,x5
    410001f8:	000022b7          	lui	x5,0x2
    410001fc:	8002829b          	addiw	x5,x5,-2048 # 1800 <pma_region_1_size+0x800>
    41000200:	3002a073          	csrs	mstatus,x5
    41000204:	0010029b          	addiw	x5,x0,1
    41000208:	02729293          	slli	x5,x5,0x27
    4100020c:	3002b073          	csrc	mstatus,x5
    41000210:	411942b7          	lui	x5,0x41194
    41000214:	27c0006f          	j	41000490 <syscalls__ret_from_os_fn>

0000000041000218 <syscalls__os_fn_f0001002>:
    41000218:	410942b7          	lui	x5,0x41094
    4100021c:	2740006f          	j	41000490 <syscalls__ret_from_os_fn>

0000000041000220 <syscalls__os_fn_f0001003>:
    41000220:	000022b7          	lui	x5,0x2
    41000224:	8002829b          	addiw	x5,x5,-2048 # 1800 <pma_region_1_size+0x800>
    41000228:	3002b073          	csrc	mstatus,x5
    4100022c:	00000293          	li	x5,0
    41000230:	3002a073          	csrs	mstatus,x5
    41000234:	0010029b          	addiw	x5,x0,1
    41000238:	02729293          	slli	x5,x5,0x27
    4100023c:	3002b073          	csrc	mstatus,x5
    41000240:	411142b7          	lui	x5,0x41114
    41000244:	24c0006f          	j	41000490 <syscalls__ret_from_os_fn>

0000000041000248 <syscalls__os_fn_f0001004>:
    41000248:	000022b7          	lui	x5,0x2
    4100024c:	8002829b          	addiw	x5,x5,-2048 # 1800 <pma_region_1_size+0x800>
    41000250:	3002b073          	csrc	mstatus,x5
    41000254:	000012b7          	lui	x5,0x1
    41000258:	8002829b          	addiw	x5,x5,-2048 # 800 <XLEN+0x7c0>
    4100025c:	3002a073          	csrs	mstatus,x5
    41000260:	0010029b          	addiw	x5,x0,1
    41000264:	02729293          	slli	x5,x5,0x27
    41000268:	3002b073          	csrc	mstatus,x5
    4100026c:	17823283          	ld	x5,376(x4) # 4167e178 <__section_hart_context+0x178>
    41000270:	2200006f          	j	41000490 <syscalls__ret_from_os_fn>

0000000041000274 <syscalls__os_fn_f0001005>:
    41000274:	000022b7          	lui	x5,0x2
    41000278:	8002829b          	addiw	x5,x5,-2048 # 1800 <pma_region_1_size+0x800>
    4100027c:	3002b073          	csrc	mstatus,x5
    41000280:	000022b7          	lui	x5,0x2
    41000284:	8002829b          	addiw	x5,x5,-2048 # 1800 <pma_region_1_size+0x800>
    41000288:	3002a073          	csrs	mstatus,x5
    4100028c:	0010029b          	addiw	x5,x0,1
    41000290:	02729293          	slli	x5,x5,0x27
    41000294:	3002b073          	csrc	mstatus,x5
    41000298:	412142b7          	lui	x5,0x41214
    4100029c:	1f40006f          	j	41000490 <syscalls__ret_from_os_fn>

00000000410002a0 <syscalls__os_fn_f0001006>:
    410002a0:	412152b7          	lui	x5,0x41215
    410002a4:	1ec0006f          	j	41000490 <syscalls__ret_from_os_fn>

00000000410002a8 <syscalls__os_fn_f0001007>:
    410002a8:	434e0fb7          	lui	x31,0x434e0
    410002ac:	0b0f8f9b          	addiw	x31,x31,176 # 434e00b0 <pte_access_flags_pa>
    410002b0:	000fbf83          	ld	x31,0(x31)
    410002b4:	434e02b7          	lui	x5,0x434e0
    410002b8:	0b82829b          	addiw	x5,x5,184 # 434e00b8 <pte_access_flags_pa+0x8>
    410002bc:	0002b283          	ld	x5,0(x5)
    410002c0:	434e0e37          	lui	x28,0x434e0
    410002c4:	0c0e0e1b          	addiw	x28,x28,192 # 434e00c0 <pte_access_flags_pa+0x10>
    410002c8:	000e3e03          	ld	x28,0(x28)

00000000410002cc <syscalls__pte_walk_check_glevel_without_gstage_read>:
    410002cc:	fff00f93          	li	x31,-1
    410002d0:	0dfe1063          	bne	x28,x31,41000390 <syscalls__pte_walk_fail_read>
    410002d4:	18002373          	csrr	x6,satp
    410002d8:	03c35e93          	srli	x29,x6,0x3c
    410002dc:	01431313          	slli	x6,x6,0x14
    410002e0:	01435313          	srli	x6,x6,0x14
    410002e4:	00c31313          	slli	x6,x6,0xc
    410002e8:	ff8e8e93          	addi	x29,x29,-8
    410002ec:	003e9f13          	slli	x30,x29,0x3
    410002f0:	01df0eb3          	add	x29,x30,x29
    410002f4:	01ee8e93          	addi	x29,x29,30
    410002f8:	00000f13          	li	x30,0

00000000410002fc <syscalls__pte_walk_loop_read>:
    410002fc:	434e0fb7          	lui	x31,0x434e0
    41000300:	0b0f8f9b          	addiw	x31,x31,176 # 434e00b0 <pte_access_flags_pa>
    41000304:	000fbf83          	ld	x31,0(x31)
    41000308:	01dfdfb3          	srl	x31,x31,x29
    4100030c:	1fffff93          	andi	x31,x31,511
    41000310:	003f9f93          	slli	x31,x31,0x3
    41000314:	01f30333          	add	x6,x6,x31
    41000318:	005f0e63          	beq	x30,x5,41000334 <syscalls__pte_walk_done_read>
    4100031c:	00033f83          	ld	x31,0(x6)
    41000320:	00afdf93          	srli	x31,x31,0xa
    41000324:	00cf9313          	slli	x6,x31,0xc
    41000328:	001f0f13          	addi	x30,x30,1
    4100032c:	ff7e8e93          	addi	x29,x29,-9
    41000330:	fcdff06f          	j	410002fc <syscalls__pte_walk_loop_read>

0000000041000334 <syscalls__pte_walk_done_read>:
    41000334:	fff00f93          	li	x31,-1
    41000338:	05fe0263          	beq	x28,x31,4100037c <syscalls__pte_walk_final_read>

000000004100033c <syscalls__pte_walk_gstage_read>:
    4100033c:	434e0fb7          	lui	x31,0x434e0
    41000340:	0b0f8f9b          	addiw	x31,x31,176 # 434e00b0 <pte_access_flags_pa>
    41000344:	006fb023          	sd	x6,0(x31)
    41000348:	000e0293          	mv	x5,x28
    4100034c:	fff00e13          	li	x28,-1
    41000350:	68002373          	csrr	x6,hgatp
    41000354:	03c35e93          	srli	x29,x6,0x3c
    41000358:	01431313          	slli	x6,x6,0x14
    4100035c:	01435313          	srli	x6,x6,0x14
    41000360:	00c31313          	slli	x6,x6,0xc
    41000364:	ff8e8e93          	addi	x29,x29,-8
    41000368:	003e9f13          	slli	x30,x29,0x3
    4100036c:	01df0eb3          	add	x29,x30,x29
    41000370:	01ee8e93          	addi	x29,x29,30
    41000374:	00000f13          	li	x30,0
    41000378:	f85ff06f          	j	410002fc <syscalls__pte_walk_loop_read>

000000004100037c <syscalls__pte_walk_final_read>:
    4100037c:	00033383          	ld	x7,0(x6)
    41000380:	341022f3          	csrr	x5,mepc
    41000384:	00428293          	addi	x5,x5,4
    41000388:	16523c23          	sd	x5,376(x4) # 178 <XLEN+0x138>
    4100038c:	ebdff06f          	j	41000248 <syscalls__os_fn_f0001004>

0000000041000390 <syscalls__pte_walk_fail_read>:
    41000390:	4040006f          	j	41000794 <test_failed>

0000000041000394 <syscalls__os_fn_f0001008>:
    41000394:	434e0fb7          	lui	x31,0x434e0
    41000398:	0b0f8f9b          	addiw	x31,x31,176 # 434e00b0 <pte_access_flags_pa>
    4100039c:	000fbf83          	ld	x31,0(x31)
    410003a0:	434e02b7          	lui	x5,0x434e0
    410003a4:	0b82829b          	addiw	x5,x5,184 # 434e00b8 <pte_access_flags_pa+0x8>
    410003a8:	0002b283          	ld	x5,0(x5)
    410003ac:	434e0e37          	lui	x28,0x434e0
    410003b0:	0c0e0e1b          	addiw	x28,x28,192 # 434e00c0 <pte_access_flags_pa+0x10>
    410003b4:	000e3e03          	ld	x28,0(x28)

00000000410003b8 <syscalls__pte_walk_check_glevel_without_gstage_write>:
    410003b8:	fff00f93          	li	x31,-1
    410003bc:	0dfe1063          	bne	x28,x31,4100047c <syscalls__pte_walk_fail_write>
    410003c0:	18002373          	csrr	x6,satp
    410003c4:	03c35e93          	srli	x29,x6,0x3c
    410003c8:	01431313          	slli	x6,x6,0x14
    410003cc:	01435313          	srli	x6,x6,0x14
    410003d0:	00c31313          	slli	x6,x6,0xc
    410003d4:	ff8e8e93          	addi	x29,x29,-8
    410003d8:	003e9f13          	slli	x30,x29,0x3
    410003dc:	01df0eb3          	add	x29,x30,x29
    410003e0:	01ee8e93          	addi	x29,x29,30
    410003e4:	00000f13          	li	x30,0

00000000410003e8 <syscalls__pte_walk_loop_write>:
    410003e8:	434e0fb7          	lui	x31,0x434e0
    410003ec:	0b0f8f9b          	addiw	x31,x31,176 # 434e00b0 <pte_access_flags_pa>
    410003f0:	000fbf83          	ld	x31,0(x31)
    410003f4:	01dfdfb3          	srl	x31,x31,x29
    410003f8:	1fffff93          	andi	x31,x31,511
    410003fc:	003f9f93          	slli	x31,x31,0x3
    41000400:	01f30333          	add	x6,x6,x31
    41000404:	005f0e63          	beq	x30,x5,41000420 <syscalls__pte_walk_done_write>
    41000408:	00033f83          	ld	x31,0(x6)
    4100040c:	00afdf93          	srli	x31,x31,0xa
    41000410:	00cf9313          	slli	x6,x31,0xc
    41000414:	001f0f13          	addi	x30,x30,1
    41000418:	ff7e8e93          	addi	x29,x29,-9
    4100041c:	fcdff06f          	j	410003e8 <syscalls__pte_walk_loop_write>

0000000041000420 <syscalls__pte_walk_done_write>:
    41000420:	fff00f93          	li	x31,-1
    41000424:	05fe0263          	beq	x28,x31,41000468 <syscalls__pte_walk_final_write>

0000000041000428 <syscalls__pte_walk_gstage_write>:
    41000428:	434e0fb7          	lui	x31,0x434e0
    4100042c:	0b0f8f9b          	addiw	x31,x31,176 # 434e00b0 <pte_access_flags_pa>
    41000430:	006fb023          	sd	x6,0(x31)
    41000434:	000e0293          	mv	x5,x28
    41000438:	fff00e13          	li	x28,-1
    4100043c:	68002373          	csrr	x6,hgatp
    41000440:	03c35e93          	srli	x29,x6,0x3c
    41000444:	01431313          	slli	x6,x6,0x14
    41000448:	01435313          	srli	x6,x6,0x14
    4100044c:	00c31313          	slli	x6,x6,0xc
    41000450:	ff8e8e93          	addi	x29,x29,-8
    41000454:	003e9f13          	slli	x30,x29,0x3
    41000458:	01df0eb3          	add	x29,x30,x29
    4100045c:	01ee8e93          	addi	x29,x29,30
    41000460:	00000f13          	li	x30,0
    41000464:	f85ff06f          	j	410003e8 <syscalls__pte_walk_loop_write>

0000000041000468 <syscalls__pte_walk_final_write>:
    41000468:	00733023          	sd	x7,0(x6)
    4100046c:	341022f3          	csrr	x5,mepc
    41000470:	00428293          	addi	x5,x5,4
    41000474:	16523c23          	sd	x5,376(x4) # 178 <XLEN+0x138>
    41000478:	dd1ff06f          	j	41000248 <syscalls__os_fn_f0001004>

000000004100047c <syscalls__pte_walk_fail_write>:
    4100047c:	3180006f          	j	41000794 <test_failed>

0000000041000480 <syscalls__os_get_hart_context>:
    41000480:	14002573          	csrr	x10,sscratch
    41000484:	341022f3          	csrr	x5,mepc
    41000488:	00428293          	addi	x5,x5,4
    4100048c:	0040006f          	j	41000490 <syscalls__ret_from_os_fn>

0000000041000490 <syscalls__ret_from_os_fn>:
    41000490:	34102373          	csrr	x6,mepc
    41000494:	00430313          	addi	x6,x6,4
    41000498:	16623c23          	sd	x6,376(x4) # 178 <XLEN+0x138>
    4100049c:	34129073          	csrw	mepc,x5
    410004a0:	fff00f93          	li	x31,-1
    410004a4:	2a40006f          	j	41000748 <trap_handler_m__skip_xepc_write>

00000000410004a8 <trap_handler_m__invalid_interrupt>:
    410004a8:	2ec0006f          	j	41000794 <test_failed>

00000000410004ac <trap_handler_m__clear_all_interrupts>:
    410004ac:	34401073          	csrw	mip,x0
    410004b0:	30200073          	mret

00000000410004b4 <trap_handler_m___CLEAR_SSI>:
    410004b4:	00200293          	li	x5,2
    410004b8:	3442b073          	csrc	mip,x5
    410004bc:	30200073          	mret

00000000410004c0 <trap_handler_m___CLEAR_MSI>:
    410004c0:	00800293          	li	x5,8
    410004c4:	3442b073          	csrc	mip,x5
    410004c8:	30200073          	mret

00000000410004cc <trap_handler_m___CLEAR_STI>:
    410004cc:	02000293          	li	x5,32
    410004d0:	3442b073          	csrc	mip,x5
    410004d4:	30200073          	mret

00000000410004d8 <trap_handler_m___CLEAR_MTI>:
    410004d8:	08000293          	li	x5,128
    410004dc:	3442b073          	csrc	mip,x5
    410004e0:	30200073          	mret

00000000410004e4 <trap_handler_m___CLEAR_SEI>:
    410004e4:	20000293          	li	x5,512
    410004e8:	3442b073          	csrc	mip,x5
    410004ec:	30200073          	mret

00000000410004f0 <trap_handler_m___CLEAR_MEI>:
    410004f0:	000012b7          	lui	x5,0x1
    410004f4:	8002829b          	addiw	x5,x5,-2048 # 800 <XLEN+0x7c0>
    410004f8:	3442b073          	csrc	mip,x5
    410004fc:	30200073          	mret

0000000041000500 <trap_handler_m___CLEAR_COI>:
    41000500:	000022b7          	lui	x5,0x2
    41000504:	3442b073          	csrc	mip,x5
    41000508:	30200073          	mret

000000004100050c <trap_handler_m__clear_highest_priority_interrupt>:
    4100050c:	344022f3          	csrr	x5,mip
    41000510:	40500333          	neg	x6,x5
    41000514:	0062f2b3          	and	x5,x5,x6
    41000518:	3442b073          	csrc	mip,x5
    4100051c:	30200073          	mret

0000000041000520 <trap_handler_m__trap_entry>:
    41000520:	0fc0006f          	j	4100061c <trap_handler_m__trap_handler>

0000000041000524 <trap_handler_m__interrupt_vector_table>:
    41000524:	f91ff06f          	j	410004b4 <trap_handler_m___CLEAR_SSI>
    41000528:	f81ff06f          	j	410004a8 <trap_handler_m__invalid_interrupt>
    4100052c:	f95ff06f          	j	410004c0 <trap_handler_m___CLEAR_MSI>
    41000530:	f79ff06f          	j	410004a8 <trap_handler_m__invalid_interrupt>
    41000534:	f99ff06f          	j	410004cc <trap_handler_m___CLEAR_STI>
    41000538:	f71ff06f          	j	410004a8 <trap_handler_m__invalid_interrupt>
    4100053c:	f9dff06f          	j	410004d8 <trap_handler_m___CLEAR_MTI>
    41000540:	f69ff06f          	j	410004a8 <trap_handler_m__invalid_interrupt>
    41000544:	fa1ff06f          	j	410004e4 <trap_handler_m___CLEAR_SEI>
    41000548:	f61ff06f          	j	410004a8 <trap_handler_m__invalid_interrupt>
    4100054c:	fa5ff06f          	j	410004f0 <trap_handler_m___CLEAR_MEI>
    41000550:	f59ff06f          	j	410004a8 <trap_handler_m__invalid_interrupt>
    41000554:	fadff06f          	j	41000500 <trap_handler_m___CLEAR_COI>
    41000558:	f51ff06f          	j	410004a8 <trap_handler_m__invalid_interrupt>
    4100055c:	f4dff06f          	j	410004a8 <trap_handler_m__invalid_interrupt>
    41000560:	fadff06f          	j	4100050c <trap_handler_m__clear_highest_priority_interrupt>
    41000564:	fa9ff06f          	j	4100050c <trap_handler_m__clear_highest_priority_interrupt>
    41000568:	fa5ff06f          	j	4100050c <trap_handler_m__clear_highest_priority_interrupt>
    4100056c:	fa1ff06f          	j	4100050c <trap_handler_m__clear_highest_priority_interrupt>
    41000570:	f9dff06f          	j	4100050c <trap_handler_m__clear_highest_priority_interrupt>
    41000574:	f99ff06f          	j	4100050c <trap_handler_m__clear_highest_priority_interrupt>
    41000578:	f95ff06f          	j	4100050c <trap_handler_m__clear_highest_priority_interrupt>
    4100057c:	f91ff06f          	j	4100050c <trap_handler_m__clear_highest_priority_interrupt>
    41000580:	f8dff06f          	j	4100050c <trap_handler_m__clear_highest_priority_interrupt>
    41000584:	f89ff06f          	j	4100050c <trap_handler_m__clear_highest_priority_interrupt>
    41000588:	f85ff06f          	j	4100050c <trap_handler_m__clear_highest_priority_interrupt>
    4100058c:	f81ff06f          	j	4100050c <trap_handler_m__clear_highest_priority_interrupt>
    41000590:	f7dff06f          	j	4100050c <trap_handler_m__clear_highest_priority_interrupt>
    41000594:	f79ff06f          	j	4100050c <trap_handler_m__clear_highest_priority_interrupt>
    41000598:	f75ff06f          	j	4100050c <trap_handler_m__clear_highest_priority_interrupt>
    4100059c:	f71ff06f          	j	4100050c <trap_handler_m__clear_highest_priority_interrupt>
    410005a0:	f6dff06f          	j	4100050c <trap_handler_m__clear_highest_priority_interrupt>
    410005a4:	f69ff06f          	j	4100050c <trap_handler_m__clear_highest_priority_interrupt>
    410005a8:	f65ff06f          	j	4100050c <trap_handler_m__clear_highest_priority_interrupt>
    410005ac:	f61ff06f          	j	4100050c <trap_handler_m__clear_highest_priority_interrupt>
    410005b0:	f5dff06f          	j	4100050c <trap_handler_m__clear_highest_priority_interrupt>
    410005b4:	f59ff06f          	j	4100050c <trap_handler_m__clear_highest_priority_interrupt>
    410005b8:	f55ff06f          	j	4100050c <trap_handler_m__clear_highest_priority_interrupt>
    410005bc:	f51ff06f          	j	4100050c <trap_handler_m__clear_highest_priority_interrupt>
    410005c0:	f4dff06f          	j	4100050c <trap_handler_m__clear_highest_priority_interrupt>
    410005c4:	f49ff06f          	j	4100050c <trap_handler_m__clear_highest_priority_interrupt>
    410005c8:	f45ff06f          	j	4100050c <trap_handler_m__clear_highest_priority_interrupt>
    410005cc:	f41ff06f          	j	4100050c <trap_handler_m__clear_highest_priority_interrupt>
    410005d0:	f3dff06f          	j	4100050c <trap_handler_m__clear_highest_priority_interrupt>
    410005d4:	f39ff06f          	j	4100050c <trap_handler_m__clear_highest_priority_interrupt>
    410005d8:	f35ff06f          	j	4100050c <trap_handler_m__clear_highest_priority_interrupt>
    410005dc:	f31ff06f          	j	4100050c <trap_handler_m__clear_highest_priority_interrupt>
    410005e0:	f2dff06f          	j	4100050c <trap_handler_m__clear_highest_priority_interrupt>
    410005e4:	f29ff06f          	j	4100050c <trap_handler_m__clear_highest_priority_interrupt>
    410005e8:	f25ff06f          	j	4100050c <trap_handler_m__clear_highest_priority_interrupt>
    410005ec:	f21ff06f          	j	4100050c <trap_handler_m__clear_highest_priority_interrupt>
    410005f0:	f1dff06f          	j	4100050c <trap_handler_m__clear_highest_priority_interrupt>
    410005f4:	f19ff06f          	j	4100050c <trap_handler_m__clear_highest_priority_interrupt>
    410005f8:	f15ff06f          	j	4100050c <trap_handler_m__clear_highest_priority_interrupt>
    410005fc:	f11ff06f          	j	4100050c <trap_handler_m__clear_highest_priority_interrupt>
    41000600:	f0dff06f          	j	4100050c <trap_handler_m__clear_highest_priority_interrupt>
    41000604:	f09ff06f          	j	4100050c <trap_handler_m__clear_highest_priority_interrupt>
    41000608:	f05ff06f          	j	4100050c <trap_handler_m__clear_highest_priority_interrupt>
    4100060c:	f01ff06f          	j	4100050c <trap_handler_m__clear_highest_priority_interrupt>
    41000610:	efdff06f          	j	4100050c <trap_handler_m__clear_highest_priority_interrupt>
    41000614:	ef9ff06f          	j	4100050c <trap_handler_m__clear_highest_priority_interrupt>
    41000618:	ef5ff06f          	j	4100050c <trap_handler_m__clear_highest_priority_interrupt>

000000004100061c <trap_handler_m__trap_handler>:
    4100061c:	342022f3          	csrr	x5,mcause
    41000620:	fff0031b          	addiw	x6,x0,-1
    41000624:	03f31313          	slli	x6,x6,0x3f
    41000628:	00537333          	and	x6,x6,x5
    4100062c:	02030263          	beqz	x6,41000650 <trap_handler_m__exception_path>

0000000041000630 <trap_handler_m__interrupt_handler>:
    41000630:	fff0031b          	addiw	x6,x0,-1
    41000634:	03f31313          	slli	x6,x6,0x3f
    41000638:	0062c2b3          	xor	x5,x5,x6
    4100063c:	00000317          	auipc	x6,0x0
    41000640:	ee430313          	addi	x6,x6,-284 # 41000520 <trap_handler_m__trap_entry>
    41000644:	00229293          	slli	x5,x5,0x2
    41000648:	005302b3          	add	x5,x6,x5
    4100064c:	00028067          	jr	x5 # 2000 <SID_ZICSR_04_stack>

0000000041000650 <trap_handler_m__exception_path>:
    41000650:	34021273          	csrrw	x4,mscratch,x4
    41000654:	00000297          	auipc	x5,0x0
    41000658:	10828293          	addi	x5,x5,264 # 4100075c <trap_handler_m__trap_panic>
    4100065c:	30529073          	csrw	mtvec,x5
    41000660:	0040006f          	j	41000664 <trap_handler_m__excp_entry>

0000000041000664 <trap_handler_m__excp_entry>:
    41000664:	34202373          	csrr	x6,mcause
    41000668:	00800293          	li	x5,8
    4100066c:	00534863          	blt	x6,x5,4100067c <trap_handler_m__check_exception_label>
    41000670:	00b00293          	li	x5,11
    41000674:	0062c463          	blt	x5,x6,4100067c <trap_handler_m__check_exception_label>
    41000678:	a5dff06f          	j	410000d4 <syscalls__syscall_check_schedule_next_test>

000000004100067c <trap_handler_m__check_exception_label>:
    4100067c:	04623c23          	sd	x6,88(x4) # 58 <XLEN+0x18>
    41000680:	341022f3          	csrr	x5,mepc
    41000684:	02523423          	sd	x5,40(x4) # 28 <SECURE_ACCESS_PROBABILITY+0xa>
    41000688:	01820283          	lb	x5,24(x4) # 18 <STORE_GUEST_PAGE_FAULT+0x1>
    4100068c:	00029863          	bnez	x5,4100069c <trap_handler_m__check_excp>
    41000690:	00128293          	addi	x5,x5,1
    41000694:	00520c23          	sb	x5,24(x4) # 18 <STORE_GUEST_PAGE_FAULT+0x1>
    41000698:	0980006f          	j	41000730 <trap_handler_m__ecall_from_machine>

000000004100069c <trap_handler_m__check_excp>:
    4100069c:	06823283          	ld	x5,104(x4) # 68 <XLEN+0x28>
    410006a0:	06023423          	sd	x0,104(x4) # 68 <XLEN+0x28>
    410006a4:	00028663          	beqz	x5,410006b0 <trap_handler_m__skip_mode_check>
    410006a8:	00100393          	li	x7,1
    410006ac:	0e729463          	bne	x5,x7,41000794 <test_failed>

00000000410006b0 <trap_handler_m__skip_mode_check>:
    410006b0:	05023283          	ld	x5,80(x4) # 50 <XLEN+0x10>
    410006b4:	04023823          	sd	x0,80(x4) # 50 <XLEN+0x10>
    410006b8:	0c531e63          	bne	x6,x5,41000794 <test_failed>
    410006bc:	03823283          	ld	x5,56(x4) # 38 <SECURE_ACCESS_PROBABILITY+0x1a>
    410006c0:	02023c23          	sd	x0,56(x4) # 38 <SECURE_ACCESS_PROBABILITY+0x1a>
    410006c4:	06029463          	bnez	x5,4100072c <trap_handler_m__skip_gva_check>
    410006c8:	02023303          	ld	x6,32(x4) # 20 <SECURE_ACCESS_PROBABILITY+0x2>
    410006cc:	02023023          	sd	x0,32(x4) # 20 <SECURE_ACCESS_PROBABILITY+0x2>
    410006d0:	02823283          	ld	x5,40(x4) # 28 <SECURE_ACCESS_PROBABILITY+0xa>
    410006d4:	02023423          	sd	x0,40(x4) # 28 <SECURE_ACCESS_PROBABILITY+0xa>
    410006d8:	0a531e63          	bne	x6,x5,41000794 <test_failed>
    410006dc:	04023283          	ld	x5,64(x4) # 40 <XLEN>
    410006e0:	04023023          	sd	x0,64(x4) # 40 <XLEN>
    410006e4:	00028663          	beqz	x5,410006f0 <trap_handler_m__skip_nonzero_tval_check>

00000000410006e8 <trap_handler_m__nonzero_tval_check>:
    410006e8:	34302373          	csrr	x6,mtval
    410006ec:	0a531463          	bne	x6,x5,41000794 <test_failed>

00000000410006f0 <trap_handler_m__skip_nonzero_tval_check>:
    410006f0:	04823283          	ld	x5,72(x4) # 48 <XLEN+0x8>
    410006f4:	04023423          	sd	x0,72(x4) # 48 <XLEN+0x8>
    410006f8:	00028663          	beqz	x5,41000704 <trap_handler_m__skip_nonzero_htval_check>

00000000410006fc <trap_handler_m__nonzero_htval_check>:
    410006fc:	34b02373          	csrr	x6,0x34b
    41000700:	08531a63          	bne	x6,x5,41000794 <test_failed>

0000000041000704 <trap_handler_m__skip_nonzero_htval_check>:
    41000704:	06023283          	ld	x5,96(x4) # 60 <XLEN+0x20>
    41000708:	06023023          	sd	x0,96(x4) # 60 <XLEN+0x20>
    4100070c:	02028063          	beqz	x5,4100072c <trap_handler_m__skip_gva_check>

0000000041000710 <trap_handler_m__gva_check>:
    41000710:	30002373          	csrr	x6,mstatus
    41000714:	02635313          	srli	x6,x6,0x26
    41000718:	00137313          	andi	x6,x6,1
    4100071c:	06030c63          	beqz	x6,41000794 <test_failed>
    41000720:	0010031b          	addiw	x6,x0,1
    41000724:	02631313          	slli	x6,x6,0x26
    41000728:	30033073          	csrc	mstatus,x6

000000004100072c <trap_handler_m__skip_gva_check>:
    4100072c:	0040006f          	j	41000730 <trap_handler_m__ecall_from_machine>

0000000041000730 <trap_handler_m__ecall_from_machine>:
    41000730:	03023283          	ld	x5,48(x4) # 30 <SECURE_ACCESS_PROBABILITY+0x12>
    41000734:	02023823          	sd	x0,48(x4) # 30 <SECURE_ACCESS_PROBABILITY+0x12>
    41000738:	07023303          	ld	x6,112(x4) # 70 <XLEN+0x30>
    4100073c:	06023823          	sd	x0,112(x4) # 70 <XLEN+0x30>
    41000740:	00031463          	bnez	x6,41000748 <trap_handler_m__skip_xepc_write>
    41000744:	34129073          	csrw	mepc,x5

0000000041000748 <trap_handler_m__skip_xepc_write>:
    41000748:	00000317          	auipc	x6,0x0
    4100074c:	dd830313          	addi	x6,x6,-552 # 41000520 <trap_handler_m__trap_entry>
    41000750:	30531073          	csrw	mtvec,x6
    41000754:	34021273          	csrrw	x4,mscratch,x4
    41000758:	30200073          	mret

000000004100075c <trap_handler_m__trap_panic>:
    4100075c:	00000193          	li	x3,0
    41000760:	2b00006f          	j	41000a10 <eot__end_test>

0000000041000764 <enter_scheduler>:
    41000764:	0002f337          	lui	x6,0x2f
    41000768:	ab73031b          	addiw	x6,x6,-1353 # 2eab7 <SID_ZICSR_06_stack+0x18ab7>
    4100076c:	00e31313          	slli	x6,x6,0xe
    41000770:	0de30313          	addi	x6,x6,222
    41000774:	02628063          	beq	x5,x6,41000794 <test_failed>
    41000778:	00000513          	li	x10,0
    4100077c:	030000ef          	jal	410007ac <rvcp_print_test_result>
    41000780:	3140006f          	j	41000a94 <scheduler__dispatch>

0000000041000784 <test_passed>:
    41000784:	34021273          	csrrw	x4,mscratch,x4
    41000788:	00000513          	li	x10,0
    4100078c:	020000ef          	jal	410007ac <rvcp_print_test_result>
    41000790:	3040006f          	j	41000a94 <scheduler__dispatch>

0000000041000794 <test_failed>:
    41000794:	34021273          	csrrw	x4,mscratch,x4
    41000798:	00300193          	li	x3,3
    4100079c:	2740006f          	j	41000a10 <eot__end_test>

00000000410007a0 <os_end_test>:
    410007a0:	34021273          	csrrw	x4,mscratch,x4
    410007a4:	00100193          	li	x3,1
    410007a8:	2680006f          	j	41000a10 <eot__end_test>

00000000410007ac <rvcp_print_test_result>:
    410007ac:	00050e13          	mv	x28,x10
    410007b0:	18823283          	ld	x5,392(x4) # 188 <XLEN+0x148>
    410007b4:	0010031b          	addiw	x6,x0,1
    410007b8:	02031313          	slli	x6,x6,0x20
    410007bc:	ffe30313          	addi	x6,x6,-2
    410007c0:	1c628063          	beq	x5,x6,41000980 <rvcp_print_test_result+0x1d4>
    410007c4:	0010031b          	addiw	x6,x0,1
    410007c8:	02031313          	slli	x6,x6,0x20
    410007cc:	fff30313          	addi	x6,x6,-1
    410007d0:	1a628863          	beq	x5,x6,41000980 <rvcp_print_test_result+0x1d4>
    410007d4:	1a02c663          	bltz	x5,41000980 <rvcp_print_test_result+0x1d4>
    410007d8:	00000317          	auipc	x6,0x0
    410007dc:	52430313          	addi	x6,x6,1316 # 41000cfc <dtest_descriptor_table>
    410007e0:	00329393          	slli	x7,x5,0x3
    410007e4:	00730333          	add	x6,x6,x7
    410007e8:	00033e83          	ld	x29,0(x6)
    410007ec:	434e0f37          	lui	x30,0x434e0
    410007f0:	030f0f1b          	addiw	x30,x30,48 # 434e0030 <rvcp_prefix_str_pa>
    410007f4:	000f4283          	lbu	x5,0(x30)
    410007f8:	02028663          	beqz	x5,41000824 <rvcp_print_test_result+0x78>
    410007fc:	1010031b          	addiw	x6,x0,257
    41000800:	03031313          	slli	x6,x6,0x30
    41000804:	005362b3          	or	x5,x6,x5
    41000808:	0003f317          	auipc	x6,0x3f
    4100080c:	7f830313          	addi	x6,x6,2040 # 41040000 <tohost>
    41000810:	00033383          	ld	x7,0(x6)
    41000814:	fe039ee3          	bnez	x7,41000810 <rvcp_print_test_result+0x64>
    41000818:	00533023          	sd	x5,0(x6)
    4100081c:	001f0f13          	addi	x30,x30,1
    41000820:	fd5ff06f          	j	410007f4 <rvcp_print_test_result+0x48>
    41000824:	434e0f37          	lui	x30,0x434e0
    41000828:	041f0f1b          	addiw	x30,x30,65 # 434e0041 <rvcp_testname_str_pa>
    4100082c:	000f4283          	lbu	x5,0(x30)
    41000830:	02028663          	beqz	x5,4100085c <rvcp_print_test_result+0xb0>
    41000834:	1010031b          	addiw	x6,x0,257
    41000838:	03031313          	slli	x6,x6,0x30
    4100083c:	005362b3          	or	x5,x6,x5
    41000840:	0003f317          	auipc	x6,0x3f
    41000844:	7c030313          	addi	x6,x6,1984 # 41040000 <tohost>
    41000848:	00033383          	ld	x7,0(x6)
    4100084c:	fe039ee3          	bnez	x7,41000848 <rvcp_print_test_result+0x9c>
    41000850:	00533023          	sd	x5,0(x6)
    41000854:	001f0f13          	addi	x30,x30,1
    41000858:	fd5ff06f          	j	4100082c <rvcp_print_test_result+0x80>
    4100085c:	434e0f37          	lui	x30,0x434e0
    41000860:	05af0f1b          	addiw	x30,x30,90 # 434e005a <rvcp_space_str_pa>
    41000864:	000f4283          	lbu	x5,0(x30)
    41000868:	02028663          	beqz	x5,41000894 <rvcp_print_test_result+0xe8>
    4100086c:	1010031b          	addiw	x6,x0,257
    41000870:	03031313          	slli	x6,x6,0x30
    41000874:	005362b3          	or	x5,x6,x5
    41000878:	0003f317          	auipc	x6,0x3f
    4100087c:	78830313          	addi	x6,x6,1928 # 41040000 <tohost>
    41000880:	00033383          	ld	x7,0(x6)
    41000884:	fe039ee3          	bnez	x7,41000880 <rvcp_print_test_result+0xd4>
    41000888:	00533023          	sd	x5,0(x6)
    4100088c:	001f0f13          	addi	x30,x30,1
    41000890:	fd5ff06f          	j	41000864 <rvcp_print_test_result+0xb8>
    41000894:	000e8f13          	mv	x30,x29
    41000898:	000f4283          	lbu	x5,0(x30)
    4100089c:	02028663          	beqz	x5,410008c8 <rvcp_print_test_result+0x11c>
    410008a0:	1010031b          	addiw	x6,x0,257
    410008a4:	03031313          	slli	x6,x6,0x30
    410008a8:	005362b3          	or	x5,x6,x5
    410008ac:	0003f317          	auipc	x6,0x3f
    410008b0:	75430313          	addi	x6,x6,1876 # 41040000 <tohost>
    410008b4:	00033383          	ld	x7,0(x6)
    410008b8:	fe039ee3          	bnez	x7,410008b4 <rvcp_print_test_result+0x108>
    410008bc:	00533023          	sd	x5,0(x6)
    410008c0:	001f0f13          	addi	x30,x30,1
    410008c4:	fd5ff06f          	j	41000898 <rvcp_print_test_result+0xec>
    410008c8:	434e0f37          	lui	x30,0x434e0
    410008cc:	05af0f1b          	addiw	x30,x30,90 # 434e005a <rvcp_space_str_pa>
    410008d0:	000f4283          	lbu	x5,0(x30)
    410008d4:	02028663          	beqz	x5,41000900 <rvcp_print_test_result+0x154>
    410008d8:	1010031b          	addiw	x6,x0,257
    410008dc:	03031313          	slli	x6,x6,0x30
    410008e0:	005362b3          	or	x5,x6,x5
    410008e4:	0003f317          	auipc	x6,0x3f
    410008e8:	71c30313          	addi	x6,x6,1820 # 41040000 <tohost>
    410008ec:	00033383          	ld	x7,0(x6)
    410008f0:	fe039ee3          	bnez	x7,410008ec <rvcp_print_test_result+0x140>
    410008f4:	00533023          	sd	x5,0(x6)
    410008f8:	001f0f13          	addi	x30,x30,1
    410008fc:	fd5ff06f          	j	410008d0 <rvcp_print_test_result+0x124>
    41000900:	000e1863          	bnez	x28,41000910 <rvcp_print_test_result+0x164>
    41000904:	434e0f37          	lui	x30,0x434e0
    41000908:	04cf0f1b          	addiw	x30,x30,76 # 434e004c <rvcp_passed_str_pa>
    4100090c:	00c0006f          	j	41000918 <rvcp_print_test_result+0x16c>
    41000910:	434e0f37          	lui	x30,0x434e0
    41000914:	053f0f1b          	addiw	x30,x30,83 # 434e0053 <rvcp_failed_str_pa>
    41000918:	000f4283          	lbu	x5,0(x30)
    4100091c:	02028663          	beqz	x5,41000948 <rvcp_print_test_result+0x19c>
    41000920:	1010031b          	addiw	x6,x0,257
    41000924:	03031313          	slli	x6,x6,0x30
    41000928:	005362b3          	or	x5,x6,x5
    4100092c:	0003f317          	auipc	x6,0x3f
    41000930:	6d430313          	addi	x6,x6,1748 # 41040000 <tohost>
    41000934:	00033383          	ld	x7,0(x6)
    41000938:	fe039ee3          	bnez	x7,41000934 <rvcp_print_test_result+0x188>
    4100093c:	00533023          	sd	x5,0(x6)
    41000940:	001f0f13          	addi	x30,x30,1
    41000944:	fd5ff06f          	j	41000918 <rvcp_print_test_result+0x16c>
    41000948:	434e0f37          	lui	x30,0x434e0
    4100094c:	05cf0f1b          	addiw	x30,x30,92 # 434e005c <rvcp_newline_str_pa>
    41000950:	000f4283          	lbu	x5,0(x30)
    41000954:	02028663          	beqz	x5,41000980 <rvcp_print_test_result+0x1d4>
    41000958:	1010031b          	addiw	x6,x0,257
    4100095c:	03031313          	slli	x6,x6,0x30
    41000960:	005362b3          	or	x5,x6,x5
    41000964:	0003f317          	auipc	x6,0x3f
    41000968:	69c30313          	addi	x6,x6,1692 # 41040000 <tohost>
    4100096c:	00033383          	ld	x7,0(x6)
    41000970:	fe039ee3          	bnez	x7,4100096c <rvcp_print_test_result+0x1c0>
    41000974:	00533023          	sd	x5,0(x6)
    41000978:	001f0f13          	addi	x30,x30,1
    4100097c:	fd5ff06f          	j	41000950 <rvcp_print_test_result+0x1a4>
    41000980:	00008067          	ret

0000000041000984 <os_rng_orig>:
    41000984:	f14023f3          	csrr	x7,mhartid
    41000988:	00068313          	mv	x6,x13
    4100098c:	026383b3          	mul	x7,x7,x6
    41000990:	00058313          	mv	x6,x11
    41000994:	00730333          	add	x6,x6,x7
    41000998:	00033283          	ld	x5,0(x6)
    4100099c:	01529313          	slli	x6,x5,0x15
    410009a0:	0062c2b3          	xor	x5,x5,x6
    410009a4:	0232d313          	srli	x6,x5,0x23
    410009a8:	0062c2b3          	xor	x5,x5,x6
    410009ac:	00429313          	slli	x6,x5,0x4
    410009b0:	0062c2b3          	xor	x5,x5,x6
    410009b4:	00058313          	mv	x6,x11
    410009b8:	00730333          	add	x6,x6,x7
    410009bc:	00533023          	sd	x5,0(x6)
    410009c0:	00060313          	mv	x6,x12
    410009c4:	0262f2b3          	remu	x5,x5,x6
    410009c8:	00028513          	mv	x10,x5
    410009cc:	00008067          	ret
    410009d0:	02a00513          	li	x10,42
    410009d4:	001965b7          	lui	x11,0x196
    410009d8:	60d5859b          	addiw	x11,x11,1549 # 19660d <SID_ZICSR_02_stack+0x2060d>
    410009dc:	3c6ef637          	lui	x12,0x3c6ef
    410009e0:	35f6061b          	addiw	x12,x12,863 # 3c6ef35f <SID_ZICSR_19_stack+0x1629535f>
    410009e4:	02200693          	li	x13,34
    410009e8:	02b50533          	mul	x10,x10,x11
    410009ec:	00c50533          	add	x10,x10,x12
    410009f0:	02d56533          	rem	x10,x10,x13
    410009f4:	00b00593          	li	x11,11
    410009f8:	02b56533          	rem	x10,x10,x11
    410009fc:	00008067          	ret

0000000041000a00 <tohost_mutex>:
	...

0000000041000a08 <tohost_addr_mem>:
    41000a08:	0000                	.insn	2, 0x0000
    41000a0a:	4104                	.insn	2, 0x4104
    41000a0c:	0000                	.insn	2, 0x0000
	...

0000000041000a10 <eot__end_test>:
    41000a10:	00100293          	li	x5,1
    41000a14:	00328463          	beq	x5,x3,41000a1c <eot__passed>
    41000a18:	01c0006f          	j	41000a34 <eot__failed>

0000000041000a1c <eot__passed>:
    41000a1c:	0ff0000f          	fence
    41000a20:	00000297          	auipc	x5,0x0
    41000a24:	fe82b283          	ld	x5,-24(x5) # 41000a08 <tohost_addr_mem>
    41000a28:	00100313          	li	x6,1
    41000a2c:	0062a023          	sw	x6,0(x5)
    41000a30:	0240006f          	j	41000a54 <eot__halt>

0000000041000a34 <eot__failed>:
    41000a34:	00100513          	li	x10,1
    41000a38:	d75ff0ef          	jal	410007ac <rvcp_print_test_result>
    41000a3c:	0ff0000f          	fence
    41000a40:	00000297          	auipc	x5,0x0
    41000a44:	fc82b283          	ld	x5,-56(x5) # 41000a08 <tohost_addr_mem>
    41000a48:	00300313          	li	x6,3
    41000a4c:	0062a023          	sw	x6,0(x5)
    41000a50:	0040006f          	j	41000a54 <eot__halt>

0000000041000a54 <eot__halt>:
    41000a54:	10500073          	wfi
    41000a58:	ffdff06f          	j	41000a54 <eot__halt>

0000000041000a5c <scheduler__init>:
    41000a5c:	00000297          	auipc	x5,0x0
    41000a60:	0bc28293          	addi	x5,x5,188 # 41000b18 <scheduler__panic>
    41000a64:	305292f3          	csrrw	x5,mtvec,x5
    41000a68:	18523023          	sd	x5,384(x4) # 180 <XLEN+0x140>
    41000a6c:	03a00293          	li	x5,58
    41000a70:	18523823          	sd	x5,400(x4) # 190 <XLEN+0x150>
    41000a74:	0010029b          	addiw	x5,x0,1
    41000a78:	02029293          	slli	x5,x5,0x20
    41000a7c:	ffe28293          	addi	x5,x5,-2
    41000a80:	18523423          	sd	x5,392(x4) # 188 <XLEN+0x148>
    41000a84:	00000317          	auipc	x6,0x0
    41000a88:	4f030313          	addi	x6,x6,1264 # 41000f74 <scheduler__test_setup_ptr>
    41000a8c:	00033303          	ld	x6,0(x6)
    41000a90:	0600006f          	j	41000af0 <scheduler__execute_test>

0000000041000a94 <scheduler__dispatch>:
    41000a94:	00000297          	auipc	x5,0x0
    41000a98:	08428293          	addi	x5,x5,132 # 41000b18 <scheduler__panic>
    41000a9c:	305292f3          	csrrw	x5,mtvec,x5
    41000aa0:	18523023          	sd	x5,384(x4) # 180 <XLEN+0x140>

0000000041000aa4 <scheduler__csr_read_randomization>:
    41000aa4:	140022f3          	csrr	x5,sscratch
    41000aa8:	f14022f3          	csrr	x5,mhartid
    41000aac:	104022f3          	csrr	x5,sie
    41000ab0:	f14022f3          	csrr	x5,mhartid

0000000041000ab4 <scheduler__load_num_runs>:
    41000ab4:	19023303          	ld	x6,400(x4) # 190 <XLEN+0x150>
    41000ab8:	04030c63          	beqz	x6,41000b10 <scheduler__finished>

0000000041000abc <scheduler__decrement_num_runs>:
    41000abc:	fff30393          	addi	x7,x6,-1
    41000ac0:	18723823          	sd	x7,400(x4) # 190 <XLEN+0x150>
    41000ac4:	00000e17          	auipc	x28,0x0
    41000ac8:	3c8e0e13          	addi	x28,x28,968 # 41000e8c <dtest_index_map>
    41000acc:	00239e93          	slli	x29,x7,0x2
    41000ad0:	01de0e33          	add	x28,x28,x29
    41000ad4:	000e2e03          	lw	x28,0(x28)
    41000ad8:	19c23423          	sd	x28,392(x4) # 188 <XLEN+0x148>

0000000041000adc <scheduler__calc_test_pointer>:
    41000adc:	00339293          	slli	x5,x7,0x3

0000000041000ae0 <scheduler__load_test_addr>:
    41000ae0:	00000317          	auipc	x6,0x0
    41000ae4:	04c30313          	addi	x6,x6,76 # 41000b2c <os_test_sequence>
    41000ae8:	006282b3          	add	x5,x5,x6
    41000aec:	0002b303          	ld	x6,0(x5)

0000000041000af0 <scheduler__execute_test>:
    41000af0:	18023283          	ld	x5,384(x4) # 180 <XLEN+0x140>
    41000af4:	30529073          	csrw	mtvec,x5
    41000af8:	34021273          	csrrw	x4,mscratch,x4
    41000afc:	00000213          	li	x4,0
    41000b00:	14131073          	csrw	sepc,x6
    41000b04:	10000293          	li	x5,256
    41000b08:	1002a073          	csrs	sstatus,x5
    41000b0c:	10200073          	sret

0000000041000b10 <scheduler__finished>:
    41000b10:	00100193          	li	x3,1
    41000b14:	efdff06f          	j	41000a10 <eot__end_test>

0000000041000b18 <scheduler__panic>:
    41000b18:	00000193          	li	x3,0
    41000b1c:	ef5ff06f          	j	41000a10 <eot__end_test>
    41000b20:	0000                	.insn	2, 0x0000
	...

0000000041000b24 <num_runs>:
    41000b24:	003a                	.insn	2, 0x003a
    41000b26:	0000                	.insn	2, 0x0000
    41000b28:	0000                	.insn	2, 0x0000
	...

0000000041000b2c <os_test_sequence>:
    41000b2c:	5090                	.insn	2, 0x5090
    41000b2e:	4101                	.insn	2, 0x4101
    41000b30:	0000                	.insn	2, 0x0000
    41000b32:	0000                	.insn	2, 0x0000
    41000b34:	45f0                	.insn	2, 0x45f0
    41000b36:	4101                	.insn	2, 0x4101
    41000b38:	0000                	.insn	2, 0x0000
    41000b3a:	0000                	.insn	2, 0x0000
    41000b3c:	40b0                	.insn	2, 0x40b0
    41000b3e:	4101                	.insn	2, 0x4101
    41000b40:	0000                	.insn	2, 0x0000
    41000b42:	0000                	.insn	2, 0x0000
    41000b44:	4470                	.insn	2, 0x4470
    41000b46:	4101                	.insn	2, 0x4101
    41000b48:	0000                	.insn	2, 0x0000
    41000b4a:	0000                	.insn	2, 0x0000
    41000b4c:	4530                	.insn	2, 0x4530
    41000b4e:	4101                	.insn	2, 0x4101
    41000b50:	0000                	.insn	2, 0x0000
    41000b52:	0000                	.insn	2, 0x0000
    41000b54:	4170                	.insn	2, 0x4170
    41000b56:	4101                	.insn	2, 0x4101
    41000b58:	0000                	.insn	2, 0x0000
    41000b5a:	0000                	.insn	2, 0x0000
    41000b5c:	4230                	.insn	2, 0x4230
    41000b5e:	4101                	.insn	2, 0x4101
    41000b60:	0000                	.insn	2, 0x0000
    41000b62:	0000                	.insn	2, 0x0000
    41000b64:	4e44                	.insn	2, 0x4e44
    41000b66:	4101                	.insn	2, 0x4101
    41000b68:	0000                	.insn	2, 0x0000
    41000b6a:	0000                	.insn	2, 0x0000
    41000b6c:	46b4                	.insn	2, 0x46b4
    41000b6e:	4101                	.insn	2, 0x4101
    41000b70:	0000                	.insn	2, 0x0000
    41000b72:	0000                	.insn	2, 0x0000
    41000b74:	42f0                	.insn	2, 0x42f0
    41000b76:	4101                	.insn	2, 0x4101
    41000b78:	0000                	.insn	2, 0x0000
    41000b7a:	0000                	.insn	2, 0x0000
    41000b7c:	47d8                	.insn	2, 0x47d8
    41000b7e:	4101                	.insn	2, 0x4101
    41000b80:	0000                	.insn	2, 0x0000
    41000b82:	0000                	.insn	2, 0x0000
    41000b84:	48a4                	.insn	2, 0x48a4
    41000b86:	4101                	.insn	2, 0x4101
    41000b88:	0000                	.insn	2, 0x0000
    41000b8a:	0000                	.insn	2, 0x0000
    41000b8c:	498c                	.insn	2, 0x498c
    41000b8e:	4101                	.insn	2, 0x4101
    41000b90:	0000                	.insn	2, 0x0000
    41000b92:	0000                	.insn	2, 0x0000
    41000b94:	4230                	.insn	2, 0x4230
    41000b96:	4101                	.insn	2, 0x4101
    41000b98:	0000                	.insn	2, 0x0000
    41000b9a:	0000                	.insn	2, 0x0000
    41000b9c:	47a4                	.insn	2, 0x47a4
    41000b9e:	4101                	.insn	2, 0x4101
    41000ba0:	0000                	.insn	2, 0x0000
    41000ba2:	0000                	.insn	2, 0x0000
    41000ba4:	47a4                	.insn	2, 0x47a4
    41000ba6:	4101                	.insn	2, 0x4101
    41000ba8:	0000                	.insn	2, 0x0000
    41000baa:	0000                	.insn	2, 0x0000
    41000bac:	46b4                	.insn	2, 0x46b4
    41000bae:	4101                	.insn	2, 0x4101
    41000bb0:	0000                	.insn	2, 0x0000
    41000bb2:	0000                	.insn	2, 0x0000
    41000bb4:	4530                	.insn	2, 0x4530
    41000bb6:	4101                	.insn	2, 0x4101
    41000bb8:	0000                	.insn	2, 0x0000
    41000bba:	0000                	.insn	2, 0x0000
    41000bbc:	4780                	.insn	2, 0x4780
    41000bbe:	4101                	.insn	2, 0x4101
    41000bc0:	0000                	.insn	2, 0x0000
    41000bc2:	0000                	.insn	2, 0x0000
    41000bc4:	4adc                	.insn	2, 0x4adc
    41000bc6:	4101                	.insn	2, 0x4101
    41000bc8:	0000                	.insn	2, 0x0000
    41000bca:	0000                	.insn	2, 0x0000
    41000bcc:	4230                	.insn	2, 0x4230
    41000bce:	4101                	.insn	2, 0x4101
    41000bd0:	0000                	.insn	2, 0x0000
    41000bd2:	0000                	.insn	2, 0x0000
    41000bd4:	45f0                	.insn	2, 0x45f0
    41000bd6:	4101                	.insn	2, 0x4101
    41000bd8:	0000                	.insn	2, 0x0000
    41000bda:	0000                	.insn	2, 0x0000
    41000bdc:	47d8                	.insn	2, 0x47d8
    41000bde:	4101                	.insn	2, 0x4101
    41000be0:	0000                	.insn	2, 0x0000
    41000be2:	0000                	.insn	2, 0x0000
    41000be4:	4c1c                	.insn	2, 0x4c1c
    41000be6:	4101                	.insn	2, 0x4101
    41000be8:	0000                	.insn	2, 0x0000
    41000bea:	0000                	.insn	2, 0x0000
    41000bec:	49b8                	.insn	2, 0x49b8
    41000bee:	4101                	.insn	2, 0x4101
    41000bf0:	0000                	.insn	2, 0x0000
    41000bf2:	0000                	.insn	2, 0x0000
    41000bf4:	498c                	.insn	2, 0x498c
    41000bf6:	4101                	.insn	2, 0x4101
    41000bf8:	0000                	.insn	2, 0x0000
    41000bfa:	0000                	.insn	2, 0x0000
    41000bfc:	43b0                	.insn	2, 0x43b0
    41000bfe:	4101                	.insn	2, 0x4101
    41000c00:	0000                	.insn	2, 0x0000
    41000c02:	0000                	.insn	2, 0x0000
    41000c04:	48c8                	.insn	2, 0x48c8
    41000c06:	4101                	.insn	2, 0x4101
    41000c08:	0000                	.insn	2, 0x0000
    41000c0a:	0000                	.insn	2, 0x0000
    41000c0c:	43b0                	.insn	2, 0x43b0
    41000c0e:	4101                	.insn	2, 0x4101
    41000c10:	0000                	.insn	2, 0x0000
    41000c12:	0000                	.insn	2, 0x0000
    41000c14:	42f0                	.insn	2, 0x42f0
    41000c16:	4101                	.insn	2, 0x4101
    41000c18:	0000                	.insn	2, 0x0000
    41000c1a:	0000                	.insn	2, 0x0000
    41000c1c:	40b0                	.insn	2, 0x40b0
    41000c1e:	4101                	.insn	2, 0x4101
    41000c20:	0000                	.insn	2, 0x0000
    41000c22:	0000                	.insn	2, 0x0000
    41000c24:	48c8                	.insn	2, 0x48c8
    41000c26:	4101                	.insn	2, 0x4101
    41000c28:	0000                	.insn	2, 0x0000
    41000c2a:	0000                	.insn	2, 0x0000
    41000c2c:	4adc                	.insn	2, 0x4adc
    41000c2e:	4101                	.insn	2, 0x4101
    41000c30:	0000                	.insn	2, 0x0000
    41000c32:	0000                	.insn	2, 0x0000
    41000c34:	4470                	.insn	2, 0x4470
    41000c36:	4101                	.insn	2, 0x4101
    41000c38:	0000                	.insn	2, 0x0000
    41000c3a:	0000                	.insn	2, 0x0000
    41000c3c:	48c8                	.insn	2, 0x48c8
    41000c3e:	4101                	.insn	2, 0x4101
    41000c40:	0000                	.insn	2, 0x0000
    41000c42:	0000                	.insn	2, 0x0000
    41000c44:	4780                	.insn	2, 0x4780
    41000c46:	4101                	.insn	2, 0x4101
    41000c48:	0000                	.insn	2, 0x0000
    41000c4a:	0000                	.insn	2, 0x0000
    41000c4c:	47d8                	.insn	2, 0x47d8
    41000c4e:	4101                	.insn	2, 0x4101
    41000c50:	0000                	.insn	2, 0x0000
    41000c52:	0000                	.insn	2, 0x0000
    41000c54:	4c1c                	.insn	2, 0x4c1c
    41000c56:	4101                	.insn	2, 0x4101
    41000c58:	0000                	.insn	2, 0x0000
    41000c5a:	0000                	.insn	2, 0x0000
    41000c5c:	47a4                	.insn	2, 0x47a4
    41000c5e:	4101                	.insn	2, 0x4101
    41000c60:	0000                	.insn	2, 0x0000
    41000c62:	0000                	.insn	2, 0x0000
    41000c64:	46b4                	.insn	2, 0x46b4
    41000c66:	4101                	.insn	2, 0x4101
    41000c68:	0000                	.insn	2, 0x0000
    41000c6a:	0000                	.insn	2, 0x0000
    41000c6c:	4780                	.insn	2, 0x4780
    41000c6e:	4101                	.insn	2, 0x4101
    41000c70:	0000                	.insn	2, 0x0000
    41000c72:	0000                	.insn	2, 0x0000
    41000c74:	4adc                	.insn	2, 0x4adc
    41000c76:	4101                	.insn	2, 0x4101
    41000c78:	0000                	.insn	2, 0x0000
    41000c7a:	0000                	.insn	2, 0x0000
    41000c7c:	48a4                	.insn	2, 0x48a4
    41000c7e:	4101                	.insn	2, 0x4101
    41000c80:	0000                	.insn	2, 0x0000
    41000c82:	0000                	.insn	2, 0x0000
    41000c84:	40b0                	.insn	2, 0x40b0
    41000c86:	4101                	.insn	2, 0x4101
    41000c88:	0000                	.insn	2, 0x0000
    41000c8a:	0000                	.insn	2, 0x0000
    41000c8c:	49b8                	.insn	2, 0x49b8
    41000c8e:	4101                	.insn	2, 0x4101
    41000c90:	0000                	.insn	2, 0x0000
    41000c92:	0000                	.insn	2, 0x0000
    41000c94:	43b0                	.insn	2, 0x43b0
    41000c96:	4101                	.insn	2, 0x4101
    41000c98:	0000                	.insn	2, 0x0000
    41000c9a:	0000                	.insn	2, 0x0000
    41000c9c:	48a4                	.insn	2, 0x48a4
    41000c9e:	4101                	.insn	2, 0x4101
    41000ca0:	0000                	.insn	2, 0x0000
    41000ca2:	0000                	.insn	2, 0x0000
    41000ca4:	4470                	.insn	2, 0x4470
    41000ca6:	4101                	.insn	2, 0x4101
    41000ca8:	0000                	.insn	2, 0x0000
    41000caa:	0000                	.insn	2, 0x0000
    41000cac:	4530                	.insn	2, 0x4530
    41000cae:	4101                	.insn	2, 0x4101
    41000cb0:	0000                	.insn	2, 0x0000
    41000cb2:	0000                	.insn	2, 0x0000
    41000cb4:	498c                	.insn	2, 0x498c
    41000cb6:	4101                	.insn	2, 0x4101
    41000cb8:	0000                	.insn	2, 0x0000
    41000cba:	0000                	.insn	2, 0x0000
    41000cbc:	49b8                	.insn	2, 0x49b8
    41000cbe:	4101                	.insn	2, 0x4101
    41000cc0:	0000                	.insn	2, 0x0000
    41000cc2:	0000                	.insn	2, 0x0000
    41000cc4:	42f0                	.insn	2, 0x42f0
    41000cc6:	4101                	.insn	2, 0x4101
    41000cc8:	0000                	.insn	2, 0x0000
    41000cca:	0000                	.insn	2, 0x0000
    41000ccc:	45f0                	.insn	2, 0x45f0
    41000cce:	4101                	.insn	2, 0x4101
    41000cd0:	0000                	.insn	2, 0x0000
    41000cd2:	0000                	.insn	2, 0x0000
    41000cd4:	4c1c                	.insn	2, 0x4c1c
    41000cd6:	4101                	.insn	2, 0x4101
    41000cd8:	0000                	.insn	2, 0x0000
    41000cda:	0000                	.insn	2, 0x0000
    41000cdc:	4170                	.insn	2, 0x4170
    41000cde:	4101                	.insn	2, 0x4101
    41000ce0:	0000                	.insn	2, 0x0000
    41000ce2:	0000                	.insn	2, 0x0000
    41000ce4:	4170                	.insn	2, 0x4170
    41000ce6:	4101                	.insn	2, 0x4101
    41000ce8:	0000                	.insn	2, 0x0000
    41000cea:	0000                	.insn	2, 0x0000
    41000cec:	4e44                	.insn	2, 0x4e44
    41000cee:	4101                	.insn	2, 0x4101
    41000cf0:	0000                	.insn	2, 0x0000
    41000cf2:	0000                	.insn	2, 0x0000
    41000cf4:	4e44                	.insn	2, 0x4e44
    41000cf6:	4101                	.insn	2, 0x4101
    41000cf8:	0000                	.insn	2, 0x0000
	...

0000000041000cfc <dtest_descriptor_table>:
    41000cfc:	0d94                	.insn	2, 0x0d94
    41000cfe:	4100                	.insn	2, 0x4100
    41000d00:	0000                	.insn	2, 0x0000
    41000d02:	0000                	.insn	2, 0x0000
    41000d04:	0da1                	.insn	2, 0x0da1
    41000d06:	4100                	.insn	2, 0x4100
    41000d08:	0000                	.insn	2, 0x0000
    41000d0a:	0000                	.insn	2, 0x0000
    41000d0c:	0dae                	.insn	2, 0x0dae
    41000d0e:	4100                	.insn	2, 0x4100
    41000d10:	0000                	.insn	2, 0x0000
    41000d12:	0000                	.insn	2, 0x0000
    41000d14:	41000dbb          	negw	x27,x16
    41000d18:	0000                	.insn	2, 0x0000
    41000d1a:	0000                	.insn	2, 0x0000
    41000d1c:	0dc8                	.insn	2, 0x0dc8
    41000d1e:	4100                	.insn	2, 0x4100
    41000d20:	0000                	.insn	2, 0x0000
    41000d22:	0000                	.insn	2, 0x0000
    41000d24:	0dd5                	.insn	2, 0x0dd5
    41000d26:	4100                	.insn	2, 0x4100
    41000d28:	0000                	.insn	2, 0x0000
    41000d2a:	0000                	.insn	2, 0x0000
    41000d2c:	0de2                	.insn	2, 0x0de2
    41000d2e:	4100                	.insn	2, 0x4100
    41000d30:	0000                	.insn	2, 0x0000
    41000d32:	0000                	.insn	2, 0x0000
    41000d34:	41000def          	jal	x27,41001144 <__section__runtime_1+0x144>
    41000d38:	0000                	.insn	2, 0x0000
    41000d3a:	0000                	.insn	2, 0x0000
    41000d3c:	0dfc                	.insn	2, 0x0dfc
    41000d3e:	4100                	.insn	2, 0x4100
    41000d40:	0000                	.insn	2, 0x0000
    41000d42:	0000                	.insn	2, 0x0000
    41000d44:	0e09                	.insn	2, 0x0e09
    41000d46:	4100                	.insn	2, 0x4100
    41000d48:	0000                	.insn	2, 0x0000
    41000d4a:	0000                	.insn	2, 0x0000
    41000d4c:	0e16                	.insn	2, 0x0e16
    41000d4e:	4100                	.insn	2, 0x4100
    41000d50:	0000                	.insn	2, 0x0000
    41000d52:	0000                	.insn	2, 0x0000
    41000d54:	41000e23          	sb	x16,1052(x0) # 41c <XLEN+0x3dc>
    41000d58:	0000                	.insn	2, 0x0000
    41000d5a:	0000                	.insn	2, 0x0000
    41000d5c:	0e30                	.insn	2, 0x0e30
    41000d5e:	4100                	.insn	2, 0x4100
    41000d60:	0000                	.insn	2, 0x0000
    41000d62:	0000                	.insn	2, 0x0000
    41000d64:	0e3d                	.insn	2, 0x0e3d
    41000d66:	4100                	.insn	2, 0x4100
    41000d68:	0000                	.insn	2, 0x0000
    41000d6a:	0000                	.insn	2, 0x0000
    41000d6c:	0e4a                	.insn	2, 0x0e4a
    41000d6e:	4100                	.insn	2, 0x4100
    41000d70:	0000                	.insn	2, 0x0000
    41000d72:	0000                	.insn	2, 0x0000
    41000d74:	41000e57          	vadc.vvm	v28,v16,v0,v0
    41000d78:	0000                	.insn	2, 0x0000
    41000d7a:	0000                	.insn	2, 0x0000
    41000d7c:	0e64                	.insn	2, 0x0e64
    41000d7e:	4100                	.insn	2, 0x4100
    41000d80:	0000                	.insn	2, 0x0000
    41000d82:	0000                	.insn	2, 0x0000
    41000d84:	0e71                	.insn	2, 0x0e71
    41000d86:	4100                	.insn	2, 0x4100
    41000d88:	0000                	.insn	2, 0x0000
    41000d8a:	0000                	.insn	2, 0x0000
    41000d8c:	0e7e                	.insn	2, 0x0e7e
    41000d8e:	4100                	.insn	2, 0x4100
    41000d90:	0000                	.insn	2, 0x0000
	...

0000000041000d94 <dtest_name_0>:
    41000d94:	5f444953          	.insn	4, 0x5f444953
    41000d98:	495a                	.insn	2, 0x495a
    41000d9a:	5f525343          	.insn	4, 0x5f525343
    41000d9e:	3130                	.insn	2, 0x3130
	...

0000000041000da1 <dtest_name_1>:
    41000da1:	5f444953          	.insn	4, 0x5f444953
    41000da5:	495a                	.insn	2, 0x495a
    41000da7:	5f525343          	.insn	4, 0x5f525343
    41000dab:	3230                	.insn	2, 0x3230
	...

0000000041000dae <dtest_name_2>:
    41000dae:	5f444953          	.insn	4, 0x5f444953
    41000db2:	495a                	.insn	2, 0x495a
    41000db4:	5f525343          	.insn	4, 0x5f525343
    41000db8:	3330                	.insn	2, 0x3330
	...

0000000041000dbb <dtest_name_3>:
    41000dbb:	5f444953          	.insn	4, 0x5f444953
    41000dbf:	495a                	.insn	2, 0x495a
    41000dc1:	5f525343          	.insn	4, 0x5f525343
    41000dc5:	3430                	.insn	2, 0x3430
	...

0000000041000dc8 <dtest_name_4>:
    41000dc8:	5f444953          	.insn	4, 0x5f444953
    41000dcc:	495a                	.insn	2, 0x495a
    41000dce:	5f525343          	.insn	4, 0x5f525343
    41000dd2:	3530                	.insn	2, 0x3530
	...

0000000041000dd5 <dtest_name_5>:
    41000dd5:	5f444953          	.insn	4, 0x5f444953
    41000dd9:	495a                	.insn	2, 0x495a
    41000ddb:	5f525343          	.insn	4, 0x5f525343
    41000ddf:	3630                	.insn	2, 0x3630
	...

0000000041000de2 <dtest_name_6>:
    41000de2:	5f444953          	.insn	4, 0x5f444953
    41000de6:	495a                	.insn	2, 0x495a
    41000de8:	5f525343          	.insn	4, 0x5f525343
    41000dec:	3730                	.insn	2, 0x3730
	...

0000000041000def <dtest_name_7>:
    41000def:	5f444953          	.insn	4, 0x5f444953
    41000df3:	495a                	.insn	2, 0x495a
    41000df5:	5f525343          	.insn	4, 0x5f525343
    41000df9:	3830                	.insn	2, 0x3830
	...

0000000041000dfc <dtest_name_8>:
    41000dfc:	5f444953          	.insn	4, 0x5f444953
    41000e00:	495a                	.insn	2, 0x495a
    41000e02:	5f525343          	.insn	4, 0x5f525343
    41000e06:	3930                	.insn	2, 0x3930
	...

0000000041000e09 <dtest_name_9>:
    41000e09:	5f444953          	.insn	4, 0x5f444953
    41000e0d:	495a                	.insn	2, 0x495a
    41000e0f:	5f525343          	.insn	4, 0x5f525343
    41000e13:	3031                	.insn	2, 0x3031
	...

0000000041000e16 <dtest_name_10>:
    41000e16:	5f444953          	.insn	4, 0x5f444953
    41000e1a:	495a                	.insn	2, 0x495a
    41000e1c:	5f525343          	.insn	4, 0x5f525343
    41000e20:	3131                	.insn	2, 0x3131
	...

0000000041000e23 <dtest_name_11>:
    41000e23:	5f444953          	.insn	4, 0x5f444953
    41000e27:	495a                	.insn	2, 0x495a
    41000e29:	5f525343          	.insn	4, 0x5f525343
    41000e2d:	3231                	.insn	2, 0x3231
	...

0000000041000e30 <dtest_name_12>:
    41000e30:	5f444953          	.insn	4, 0x5f444953
    41000e34:	495a                	.insn	2, 0x495a
    41000e36:	5f525343          	.insn	4, 0x5f525343
    41000e3a:	3331                	.insn	2, 0x3331
	...

0000000041000e3d <dtest_name_13>:
    41000e3d:	5f444953          	.insn	4, 0x5f444953
    41000e41:	495a                	.insn	2, 0x495a
    41000e43:	5f525343          	.insn	4, 0x5f525343
    41000e47:	3431                	.insn	2, 0x3431
	...

0000000041000e4a <dtest_name_14>:
    41000e4a:	5f444953          	.insn	4, 0x5f444953
    41000e4e:	495a                	.insn	2, 0x495a
    41000e50:	5f525343          	.insn	4, 0x5f525343
    41000e54:	3531                	.insn	2, 0x3531
	...

0000000041000e57 <dtest_name_15>:
    41000e57:	5f444953          	.insn	4, 0x5f444953
    41000e5b:	495a                	.insn	2, 0x495a
    41000e5d:	5f525343          	.insn	4, 0x5f525343
    41000e61:	3631                	.insn	2, 0x3631
	...

0000000041000e64 <dtest_name_16>:
    41000e64:	5f444953          	.insn	4, 0x5f444953
    41000e68:	495a                	.insn	2, 0x495a
    41000e6a:	5f525343          	.insn	4, 0x5f525343
    41000e6e:	3731                	.insn	2, 0x3731
	...

0000000041000e71 <dtest_name_17>:
    41000e71:	5f444953          	.insn	4, 0x5f444953
    41000e75:	495a                	.insn	2, 0x495a
    41000e77:	5f525343          	.insn	4, 0x5f525343
    41000e7b:	3931                	.insn	2, 0x3931
	...

0000000041000e7e <dtest_name_18>:
    41000e7e:	5f444953          	.insn	4, 0x5f444953
    41000e82:	495a                	.insn	2, 0x495a
    41000e84:	5f525343          	.insn	4, 0x5f525343
    41000e88:	3032                	.insn	2, 0x3032
	...

0000000041000e8c <dtest_index_map>:
    41000e8c:	ffff                	.insn	2, 0xffff
    41000e8e:	ffff                	.insn	2, 0xffff
    41000e90:	00000007          	vle8.v	v0,(x0),v0.t
    41000e94:	0000                	.insn	2, 0x0000
    41000e96:	0000                	.insn	2, 0x0000
    41000e98:	0005                	.insn	2, 0x0005
    41000e9a:	0000                	.insn	2, 0x0000
    41000e9c:	0006                	.insn	2, 0x0006
    41000e9e:	0000                	.insn	2, 0x0000
    41000ea0:	0001                	.insn	2, 0x0001
    41000ea2:	0000                	.insn	2, 0x0000
    41000ea4:	0002                	.insn	2, 0x0002
    41000ea6:	0000                	.insn	2, 0x0000
    41000ea8:	0012                	.insn	2, 0x0012
    41000eaa:	0000                	.insn	2, 0x0000
    41000eac:	0008                	.insn	2, 0x0008
    41000eae:	0000                	.insn	2, 0x0000
    41000eb0:	00000003          	lb	x0,0(x0) # 0 <ALL_4KB_PAGES>
    41000eb4:	0000000b          	.insn	4, 0x000b
    41000eb8:	000c                	.insn	2, 0x000c
    41000eba:	0000                	.insn	2, 0x0000
    41000ebc:	000e                	.insn	2, 0x000e
    41000ebe:	0000                	.insn	2, 0x0000
    41000ec0:	0002                	.insn	2, 0x0002
    41000ec2:	0000                	.insn	2, 0x0000
    41000ec4:	000a                	.insn	2, 0x000a
    41000ec6:	0000                	.insn	2, 0x0000
    41000ec8:	000a                	.insn	2, 0x000a
    41000eca:	0000                	.insn	2, 0x0000
    41000ecc:	0008                	.insn	2, 0x0008
    41000ece:	0000                	.insn	2, 0x0000
    41000ed0:	0006                	.insn	2, 0x0006
    41000ed2:	0000                	.insn	2, 0x0000
    41000ed4:	0009                	.insn	2, 0x0009
    41000ed6:	0000                	.insn	2, 0x0000
    41000ed8:	0010                	.insn	2, 0x0010
    41000eda:	0000                	.insn	2, 0x0000
    41000edc:	0002                	.insn	2, 0x0002
    41000ede:	0000                	.insn	2, 0x0000
    41000ee0:	00000007          	vle8.v	v0,(x0),v0.t
    41000ee4:	0000000b          	.insn	4, 0x000b
    41000ee8:	0011                	.insn	2, 0x0011
    41000eea:	0000                	.insn	2, 0x0000
    41000eec:	0000000f          	fence	unknown,unknown
    41000ef0:	000e                	.insn	2, 0x000e
    41000ef2:	0000                	.insn	2, 0x0000
    41000ef4:	0004                	.insn	2, 0x0004
    41000ef6:	0000                	.insn	2, 0x0000
    41000ef8:	000d                	.insn	2, 0x000d
    41000efa:	0000                	.insn	2, 0x0000
    41000efc:	0004                	.insn	2, 0x0004
    41000efe:	0000                	.insn	2, 0x0000
    41000f00:	00000003          	lb	x0,0(x0) # 0 <ALL_4KB_PAGES>
    41000f04:	0000                	.insn	2, 0x0000
    41000f06:	0000                	.insn	2, 0x0000
    41000f08:	000d                	.insn	2, 0x000d
    41000f0a:	0000                	.insn	2, 0x0000
    41000f0c:	0010                	.insn	2, 0x0010
    41000f0e:	0000                	.insn	2, 0x0000
    41000f10:	0005                	.insn	2, 0x0005
    41000f12:	0000                	.insn	2, 0x0000
    41000f14:	000d                	.insn	2, 0x000d
    41000f16:	0000                	.insn	2, 0x0000
    41000f18:	0009                	.insn	2, 0x0009
    41000f1a:	0000                	.insn	2, 0x0000
    41000f1c:	0000000b          	.insn	4, 0x000b
    41000f20:	0011                	.insn	2, 0x0011
    41000f22:	0000                	.insn	2, 0x0000
    41000f24:	000a                	.insn	2, 0x000a
    41000f26:	0000                	.insn	2, 0x0000
    41000f28:	0008                	.insn	2, 0x0008
    41000f2a:	0000                	.insn	2, 0x0000
    41000f2c:	0009                	.insn	2, 0x0009
    41000f2e:	0000                	.insn	2, 0x0000
    41000f30:	0010                	.insn	2, 0x0010
    41000f32:	0000                	.insn	2, 0x0000
    41000f34:	000c                	.insn	2, 0x000c
    41000f36:	0000                	.insn	2, 0x0000
    41000f38:	0000                	.insn	2, 0x0000
    41000f3a:	0000                	.insn	2, 0x0000
    41000f3c:	0000000f          	fence	unknown,unknown
    41000f40:	0004                	.insn	2, 0x0004
    41000f42:	0000                	.insn	2, 0x0000
    41000f44:	000c                	.insn	2, 0x000c
    41000f46:	0000                	.insn	2, 0x0000
    41000f48:	0005                	.insn	2, 0x0005
    41000f4a:	0000                	.insn	2, 0x0000
    41000f4c:	0006                	.insn	2, 0x0006
    41000f4e:	0000                	.insn	2, 0x0000
    41000f50:	000e                	.insn	2, 0x000e
    41000f52:	0000                	.insn	2, 0x0000
    41000f54:	0000000f          	fence	unknown,unknown
    41000f58:	00000003          	lb	x0,0(x0) # 0 <ALL_4KB_PAGES>
    41000f5c:	00000007          	vle8.v	v0,(x0),v0.t
    41000f60:	0011                	.insn	2, 0x0011
    41000f62:	0000                	.insn	2, 0x0000
    41000f64:	0001                	.insn	2, 0x0001
    41000f66:	0000                	.insn	2, 0x0000
    41000f68:	0001                	.insn	2, 0x0001
    41000f6a:	0000                	.insn	2, 0x0000
    41000f6c:	0012                	.insn	2, 0x0012
    41000f6e:	0000                	.insn	2, 0x0000
    41000f70:	0012                	.insn	2, 0x0012
	...

0000000041000f74 <scheduler__test_setup_ptr>:
    41000f74:	40a0                	.insn	2, 0x40a0
    41000f76:	4101                	.insn	2, 0x4101
    41000f78:	0000                	.insn	2, 0x0000
	...

0000000041000f7c <scheduler__test_cleanup_ptr>:
    41000f7c:	5090                	.insn	2, 0x5090
    41000f7e:	4101                	.insn	2, 0x4101
    41000f80:	0000                	.insn	2, 0x0000
	...

Disassembly of section .runtime_s:

0000000041010000 <trap_handler_s__invalid_interrupt>:
    41010000:	1740006f          	j	41010174 <trap_handler_s__test_failed>

0000000041010004 <trap_handler_s__clear_all_interrupts>:
    41010004:	14401073          	csrw	sip,x0
    41010008:	10200073          	sret

000000004101000c <trap_handler_s___CLEAR_SSI>:
    4101000c:	00200293          	li	x5,2
    41010010:	1442b073          	csrc	sip,x5
    41010014:	10200073          	sret

0000000041010018 <trap_handler_s___CLEAR_MSI>:
    41010018:	00800293          	li	x5,8
    4101001c:	1442b073          	csrc	sip,x5
    41010020:	10200073          	sret

0000000041010024 <trap_handler_s___CLEAR_STI>:
    41010024:	02000293          	li	x5,32
    41010028:	1442b073          	csrc	sip,x5
    4101002c:	10200073          	sret

0000000041010030 <trap_handler_s___CLEAR_MTI>:
    41010030:	08000293          	li	x5,128
    41010034:	1442b073          	csrc	sip,x5
    41010038:	10200073          	sret

000000004101003c <trap_handler_s___CLEAR_SEI>:
    4101003c:	20000293          	li	x5,512
    41010040:	1442b073          	csrc	sip,x5
    41010044:	10200073          	sret

0000000041010048 <trap_handler_s___CLEAR_MEI>:
    41010048:	000012b7          	lui	x5,0x1
    4101004c:	8002829b          	addiw	x5,x5,-2048 # 800 <XLEN+0x7c0>
    41010050:	1442b073          	csrc	sip,x5
    41010054:	10200073          	sret

0000000041010058 <trap_handler_s___CLEAR_COI>:
    41010058:	000022b7          	lui	x5,0x2
    4101005c:	1442b073          	csrc	sip,x5
    41010060:	10200073          	sret

0000000041010064 <trap_handler_s__clear_highest_priority_interrupt>:
    41010064:	144022f3          	csrr	x5,sip
    41010068:	40500333          	neg	x6,x5
    4101006c:	0062f2b3          	and	x5,x5,x6
    41010070:	1442b073          	csrc	sip,x5
    41010074:	10200073          	sret

0000000041010078 <trap_handler_s__trap_entry>:
    41010078:	10c0006f          	j	41010184 <trap_handler_s__trap_handler>

000000004101007c <trap_handler_s__interrupt_vector_table>:
    4101007c:	f91ff06f          	j	4101000c <trap_handler_s___CLEAR_SSI>
    41010080:	f81ff06f          	j	41010000 <trap_handler_s__invalid_interrupt>
    41010084:	f95ff06f          	j	41010018 <trap_handler_s___CLEAR_MSI>
    41010088:	f79ff06f          	j	41010000 <trap_handler_s__invalid_interrupt>
    4101008c:	f99ff06f          	j	41010024 <trap_handler_s___CLEAR_STI>
    41010090:	f71ff06f          	j	41010000 <trap_handler_s__invalid_interrupt>
    41010094:	f9dff06f          	j	41010030 <trap_handler_s___CLEAR_MTI>
    41010098:	f69ff06f          	j	41010000 <trap_handler_s__invalid_interrupt>
    4101009c:	fa1ff06f          	j	4101003c <trap_handler_s___CLEAR_SEI>
    410100a0:	f61ff06f          	j	41010000 <trap_handler_s__invalid_interrupt>
    410100a4:	fa5ff06f          	j	41010048 <trap_handler_s___CLEAR_MEI>
    410100a8:	f59ff06f          	j	41010000 <trap_handler_s__invalid_interrupt>
    410100ac:	fadff06f          	j	41010058 <trap_handler_s___CLEAR_COI>
    410100b0:	f51ff06f          	j	41010000 <trap_handler_s__invalid_interrupt>
    410100b4:	f4dff06f          	j	41010000 <trap_handler_s__invalid_interrupt>
    410100b8:	fadff06f          	j	41010064 <trap_handler_s__clear_highest_priority_interrupt>
    410100bc:	fa9ff06f          	j	41010064 <trap_handler_s__clear_highest_priority_interrupt>
    410100c0:	fa5ff06f          	j	41010064 <trap_handler_s__clear_highest_priority_interrupt>
    410100c4:	fa1ff06f          	j	41010064 <trap_handler_s__clear_highest_priority_interrupt>
    410100c8:	f9dff06f          	j	41010064 <trap_handler_s__clear_highest_priority_interrupt>
    410100cc:	f99ff06f          	j	41010064 <trap_handler_s__clear_highest_priority_interrupt>
    410100d0:	f95ff06f          	j	41010064 <trap_handler_s__clear_highest_priority_interrupt>
    410100d4:	f91ff06f          	j	41010064 <trap_handler_s__clear_highest_priority_interrupt>
    410100d8:	f8dff06f          	j	41010064 <trap_handler_s__clear_highest_priority_interrupt>
    410100dc:	f89ff06f          	j	41010064 <trap_handler_s__clear_highest_priority_interrupt>
    410100e0:	f85ff06f          	j	41010064 <trap_handler_s__clear_highest_priority_interrupt>
    410100e4:	f81ff06f          	j	41010064 <trap_handler_s__clear_highest_priority_interrupt>
    410100e8:	f7dff06f          	j	41010064 <trap_handler_s__clear_highest_priority_interrupt>
    410100ec:	f79ff06f          	j	41010064 <trap_handler_s__clear_highest_priority_interrupt>
    410100f0:	f75ff06f          	j	41010064 <trap_handler_s__clear_highest_priority_interrupt>
    410100f4:	f71ff06f          	j	41010064 <trap_handler_s__clear_highest_priority_interrupt>
    410100f8:	f6dff06f          	j	41010064 <trap_handler_s__clear_highest_priority_interrupt>
    410100fc:	f69ff06f          	j	41010064 <trap_handler_s__clear_highest_priority_interrupt>
    41010100:	f65ff06f          	j	41010064 <trap_handler_s__clear_highest_priority_interrupt>
    41010104:	f61ff06f          	j	41010064 <trap_handler_s__clear_highest_priority_interrupt>
    41010108:	f5dff06f          	j	41010064 <trap_handler_s__clear_highest_priority_interrupt>
    4101010c:	f59ff06f          	j	41010064 <trap_handler_s__clear_highest_priority_interrupt>
    41010110:	f55ff06f          	j	41010064 <trap_handler_s__clear_highest_priority_interrupt>
    41010114:	f51ff06f          	j	41010064 <trap_handler_s__clear_highest_priority_interrupt>
    41010118:	f4dff06f          	j	41010064 <trap_handler_s__clear_highest_priority_interrupt>
    4101011c:	f49ff06f          	j	41010064 <trap_handler_s__clear_highest_priority_interrupt>
    41010120:	f45ff06f          	j	41010064 <trap_handler_s__clear_highest_priority_interrupt>
    41010124:	f41ff06f          	j	41010064 <trap_handler_s__clear_highest_priority_interrupt>
    41010128:	f3dff06f          	j	41010064 <trap_handler_s__clear_highest_priority_interrupt>
    4101012c:	f39ff06f          	j	41010064 <trap_handler_s__clear_highest_priority_interrupt>
    41010130:	f35ff06f          	j	41010064 <trap_handler_s__clear_highest_priority_interrupt>
    41010134:	f31ff06f          	j	41010064 <trap_handler_s__clear_highest_priority_interrupt>
    41010138:	f2dff06f          	j	41010064 <trap_handler_s__clear_highest_priority_interrupt>
    4101013c:	f29ff06f          	j	41010064 <trap_handler_s__clear_highest_priority_interrupt>
    41010140:	f25ff06f          	j	41010064 <trap_handler_s__clear_highest_priority_interrupt>
    41010144:	f21ff06f          	j	41010064 <trap_handler_s__clear_highest_priority_interrupt>
    41010148:	f1dff06f          	j	41010064 <trap_handler_s__clear_highest_priority_interrupt>
    4101014c:	f19ff06f          	j	41010064 <trap_handler_s__clear_highest_priority_interrupt>
    41010150:	f15ff06f          	j	41010064 <trap_handler_s__clear_highest_priority_interrupt>
    41010154:	f11ff06f          	j	41010064 <trap_handler_s__clear_highest_priority_interrupt>
    41010158:	f0dff06f          	j	41010064 <trap_handler_s__clear_highest_priority_interrupt>
    4101015c:	f09ff06f          	j	41010064 <trap_handler_s__clear_highest_priority_interrupt>
    41010160:	f05ff06f          	j	41010064 <trap_handler_s__clear_highest_priority_interrupt>
    41010164:	f01ff06f          	j	41010064 <trap_handler_s__clear_highest_priority_interrupt>
    41010168:	efdff06f          	j	41010064 <trap_handler_s__clear_highest_priority_interrupt>
    4101016c:	ef9ff06f          	j	41010064 <trap_handler_s__clear_highest_priority_interrupt>
    41010170:	ef5ff06f          	j	41010064 <trap_handler_s__clear_highest_priority_interrupt>

0000000041010174 <trap_handler_s__test_failed>:
    41010174:	00f00f9b          	addiw	x31,x0,15
    41010178:	01cf9f93          	slli	x31,x31,0x1c
    4101017c:	002f8f93          	addi	x31,x31,2
    41010180:	00000073          	ecall

0000000041010184 <trap_handler_s__trap_handler>:
    41010184:	142022f3          	csrr	x5,scause
    41010188:	fff0031b          	addiw	x6,x0,-1
    4101018c:	03f31313          	slli	x6,x6,0x3f
    41010190:	00537333          	and	x6,x6,x5
    41010194:	02030263          	beqz	x6,410101b8 <trap_handler_s__exception_path>

0000000041010198 <trap_handler_s__interrupt_handler>:
    41010198:	fff0031b          	addiw	x6,x0,-1
    4101019c:	03f31313          	slli	x6,x6,0x3f
    410101a0:	0062c2b3          	xor	x5,x5,x6
    410101a4:	00000317          	auipc	x6,0x0
    410101a8:	ed430313          	addi	x6,x6,-300 # 41010078 <trap_handler_s__trap_entry>
    410101ac:	00229293          	slli	x5,x5,0x2
    410101b0:	005302b3          	add	x5,x6,x5
    410101b4:	00028067          	jr	x5 # 2000 <SID_ZICSR_04_stack>

00000000410101b8 <trap_handler_s__exception_path>:
    410101b8:	14021273          	csrrw	x4,sscratch,x4
    410101bc:	00000297          	auipc	x5,0x0
    410101c0:	0cc28293          	addi	x5,x5,204 # 41010288 <trap_handler_s__trap_panic>
    410101c4:	10529073          	csrw	stvec,x5
    410101c8:	0040006f          	j	410101cc <trap_handler_s__excp_entry>

00000000410101cc <trap_handler_s__excp_entry>:
    410101cc:	14202373          	csrr	x6,scause
    410101d0:	00800293          	li	x5,8
    410101d4:	00534863          	blt	x6,x5,410101e4 <trap_handler_s__check_exception_label>
    410101d8:	00b00293          	li	x5,11
    410101dc:	0062c463          	blt	x5,x6,410101e4 <trap_handler_s__check_exception_label>
    410101e0:	0a80006f          	j	41010288 <trap_handler_s__trap_panic>

00000000410101e4 <trap_handler_s__check_exception_label>:
    410101e4:	04623c23          	sd	x6,88(x4) # 58 <XLEN+0x18>
    410101e8:	141022f3          	csrr	x5,sepc
    410101ec:	02523423          	sd	x5,40(x4) # 28 <SECURE_ACCESS_PROBABILITY+0xa>
    410101f0:	01820283          	lb	x5,24(x4) # 18 <STORE_GUEST_PAGE_FAULT+0x1>
    410101f4:	00029863          	bnez	x5,41010204 <trap_handler_s__check_excp>
    410101f8:	00128293          	addi	x5,x5,1
    410101fc:	00520c23          	sb	x5,24(x4) # 18 <STORE_GUEST_PAGE_FAULT+0x1>
    41010200:	05c0006f          	j	4101025c <trap_handler_s__ecall_from_machine>

0000000041010204 <trap_handler_s__check_excp>:
    41010204:	06823283          	ld	x5,104(x4) # 68 <XLEN+0x28>
    41010208:	06023423          	sd	x0,104(x4) # 68 <XLEN+0x28>
    4101020c:	00028663          	beqz	x5,41010218 <trap_handler_s__skip_mode_check>
    41010210:	00300393          	li	x7,3
    41010214:	f67290e3          	bne	x5,x7,41010174 <trap_handler_s__test_failed>

0000000041010218 <trap_handler_s__skip_mode_check>:
    41010218:	05023283          	ld	x5,80(x4) # 50 <XLEN+0x10>
    4101021c:	04023823          	sd	x0,80(x4) # 50 <XLEN+0x10>
    41010220:	f4531ae3          	bne	x6,x5,41010174 <trap_handler_s__test_failed>
    41010224:	03823283          	ld	x5,56(x4) # 38 <SECURE_ACCESS_PROBABILITY+0x1a>
    41010228:	02023c23          	sd	x0,56(x4) # 38 <SECURE_ACCESS_PROBABILITY+0x1a>
    4101022c:	02029663          	bnez	x5,41010258 <trap_handler_s__skip_nonzero_tval_check>
    41010230:	02023303          	ld	x6,32(x4) # 20 <SECURE_ACCESS_PROBABILITY+0x2>
    41010234:	02023023          	sd	x0,32(x4) # 20 <SECURE_ACCESS_PROBABILITY+0x2>
    41010238:	02823283          	ld	x5,40(x4) # 28 <SECURE_ACCESS_PROBABILITY+0xa>
    4101023c:	02023423          	sd	x0,40(x4) # 28 <SECURE_ACCESS_PROBABILITY+0xa>
    41010240:	f2531ae3          	bne	x6,x5,41010174 <trap_handler_s__test_failed>
    41010244:	04023283          	ld	x5,64(x4) # 40 <XLEN>
    41010248:	04023023          	sd	x0,64(x4) # 40 <XLEN>
    4101024c:	00028663          	beqz	x5,41010258 <trap_handler_s__skip_nonzero_tval_check>

0000000041010250 <trap_handler_s__nonzero_tval_check>:
    41010250:	14302373          	csrr	x6,stval
    41010254:	f25310e3          	bne	x6,x5,41010174 <trap_handler_s__test_failed>

0000000041010258 <trap_handler_s__skip_nonzero_tval_check>:
    41010258:	0040006f          	j	4101025c <trap_handler_s__ecall_from_machine>

000000004101025c <trap_handler_s__ecall_from_machine>:
    4101025c:	03023283          	ld	x5,48(x4) # 30 <SECURE_ACCESS_PROBABILITY+0x12>
    41010260:	02023823          	sd	x0,48(x4) # 30 <SECURE_ACCESS_PROBABILITY+0x12>
    41010264:	07023303          	ld	x6,112(x4) # 70 <XLEN+0x30>
    41010268:	06023823          	sd	x0,112(x4) # 70 <XLEN+0x30>
    4101026c:	00031463          	bnez	x6,41010274 <trap_handler_s__skip_xepc_write>
    41010270:	14129073          	csrw	sepc,x5

0000000041010274 <trap_handler_s__skip_xepc_write>:
    41010274:	00000317          	auipc	x6,0x0
    41010278:	e0430313          	addi	x6,x6,-508 # 41010078 <trap_handler_s__trap_entry>
    4101027c:	10531073          	csrw	stvec,x6
    41010280:	14021273          	csrrw	x4,sscratch,x4
    41010284:	10200073          	sret

0000000041010288 <trap_handler_s__trap_panic>:
    41010288:	00000193          	li	x3,0
    4101028c:	00f00f9b          	addiw	x31,x0,15
    41010290:	01cf9f93          	slli	x31,x31,0x1c
    41010294:	002f8f93          	addi	x31,x31,2
    41010298:	00000073          	ecall

Disassembly of section .code:

0000000041014070 <passed>:
    41014070:	00f00f9b          	addiw	x31,x0,15
    41014074:	01cf9f93          	slli	x31,x31,0x1c
    41014078:	001f8f93          	addi	x31,x31,1
    4101407c:	00000073          	ecall

0000000041014080 <failed>:
    41014080:	00f00f9b          	addiw	x31,x0,15
    41014084:	01cf9f93          	slli	x31,x31,0x1c
    41014088:	002f8f93          	addi	x31,x31,2
    4101408c:	00000073          	ecall

0000000041014090 <end_test>:
    41014090:	00f00f9b          	addiw	x31,x0,15
    41014094:	01cf9f93          	slli	x31,x31,0x1c
    41014098:	003f8f93          	addi	x31,x31,3
    4101409c:	00000073          	ecall

00000000410140a0 <test_setup>:
    410140a0:	00f00f9b          	addiw	x31,x0,15
    410140a4:	01cf9f93          	slli	x31,x31,0x1c
    410140a8:	001f8f93          	addi	x31,x31,1
    410140ac:	00000073          	ecall

00000000410140b0 <SID_ZICSR_01>:
    410140b0:	00f94137          	lui	x2,0xf94
    410140b4:	3f11011b          	addiw	x2,x2,1009 # f943f1 <SID_ZICSR_07_stack+0x4293f1>
    410140b8:	00f11113          	slli	x2,x2,0xf
    410140bc:	d9f10113          	addi	x2,x2,-609
    410140c0:	00d11113          	slli	x2,x2,0xd
    410140c4:	77325fb7          	lui	x31,0x77325
    410140c8:	fc5f8f9b          	addiw	x31,x31,-59 # 77324fc5 <pma_region_2_end+0x322e3fc5>
    410140cc:	00cf9f93          	slli	x31,x31,0xc
    410140d0:	f8ff8f93          	addi	x31,x31,-113
    410140d4:	00df9f93          	slli	x31,x31,0xd
    410140d8:	0a0f8f93          	addi	x31,x31,160
    410140dc:	00100f13          	li	x30,1
    410140e0:	01efb023          	sd	x30,0(x31)
    410140e4:	000f0fb7          	lui	x31,0xf0
    410140e8:	001f8f9b          	addiw	x31,x31,1 # f0001 <pma_region_0_size+0xb0001>
    410140ec:	00cf9f93          	slli	x31,x31,0xc
    410140f0:	005f8f93          	addi	x31,x31,5
    410140f4:	00000073          	ecall
    410140f8:	00713023          	sd	x7,0(x2)
    410140fc:	00665137          	lui	x2,0x665
    41014100:	000012b7          	lui	x5,0x1
    41014104:	00510133          	add	x2,x2,x5
    41014108:	ff017113          	andi	x2,x2,-16
    4101410c:	fff00393          	li	x7,-1
    41014110:	10a394f3          	csrrw	x9,0x10a,x7
    41014114:	00f94137          	lui	x2,0xf94
    41014118:	3f11011b          	addiw	x2,x2,1009 # f943f1 <SID_ZICSR_07_stack+0x4293f1>
    4101411c:	00f11113          	slli	x2,x2,0xf
    41014120:	d9f10113          	addi	x2,x2,-609
    41014124:	00d11113          	slli	x2,x2,0xd
    41014128:	00013383          	ld	x7,0(x2)
    4101412c:	77325fb7          	lui	x31,0x77325
    41014130:	fc5f8f9b          	addiw	x31,x31,-59 # 77324fc5 <pma_region_2_end+0x322e3fc5>
    41014134:	00cf9f93          	slli	x31,x31,0xc
    41014138:	f8ff8f93          	addi	x31,x31,-113
    4101413c:	00df9f93          	slli	x31,x31,0xd
    41014140:	0a0f8f93          	addi	x31,x31,160
    41014144:	00200f13          	li	x30,2
    41014148:	01efb023          	sd	x30,0(x31)
    4101414c:	000f0fb7          	lui	x31,0xf0
    41014150:	001f8f9b          	addiw	x31,x31,1 # f0001 <pma_region_0_size+0xb0001>
    41014154:	00cf9f93          	slli	x31,x31,0xc
    41014158:	005f8f93          	addi	x31,x31,5
    4101415c:	00000073          	ecall

0000000041014160 <SID_ZICSR_01_passed>:
    41014160:	00f00f9b          	addiw	x31,x0,15
    41014164:	01cf9f93          	slli	x31,x31,0x1c
    41014168:	001f8f93          	addi	x31,x31,1
    4101416c:	00000073          	ecall

0000000041014170 <SID_ZICSR_02>:
    41014170:	00f94137          	lui	x2,0xf94
    41014174:	3f11011b          	addiw	x2,x2,1009 # f943f1 <SID_ZICSR_07_stack+0x4293f1>
    41014178:	00f11113          	slli	x2,x2,0xf
    4101417c:	d9f10113          	addi	x2,x2,-609
    41014180:	00d11113          	slli	x2,x2,0xd
    41014184:	77325fb7          	lui	x31,0x77325
    41014188:	fc5f8f9b          	addiw	x31,x31,-59 # 77324fc5 <pma_region_2_end+0x322e3fc5>
    4101418c:	00cf9f93          	slli	x31,x31,0xc
    41014190:	f8ff8f93          	addi	x31,x31,-113
    41014194:	00df9f93          	slli	x31,x31,0xd
    41014198:	0a0f8f93          	addi	x31,x31,160
    4101419c:	00300f13          	li	x30,3
    410141a0:	01efb023          	sd	x30,0(x31)
    410141a4:	000f0fb7          	lui	x31,0xf0
    410141a8:	001f8f9b          	addiw	x31,x31,1 # f0001 <pma_region_0_size+0xb0001>
    410141ac:	00cf9f93          	slli	x31,x31,0xc
    410141b0:	005f8f93          	addi	x31,x31,5
    410141b4:	00000073          	ecall
    410141b8:	00713023          	sd	x7,0(x2)
    410141bc:	00176137          	lui	x2,0x176
    410141c0:	000012b7          	lui	x5,0x1
    410141c4:	00510133          	add	x2,x2,x5
    410141c8:	ff017113          	andi	x2,x2,-16
    410141cc:	fff00893          	li	x17,-1
    410141d0:	105895f3          	csrrw	x11,stvec,x17
    410141d4:	00f94137          	lui	x2,0xf94
    410141d8:	3f11011b          	addiw	x2,x2,1009 # f943f1 <SID_ZICSR_07_stack+0x4293f1>
    410141dc:	00f11113          	slli	x2,x2,0xf
    410141e0:	d9f10113          	addi	x2,x2,-609
    410141e4:	00d11113          	slli	x2,x2,0xd
    410141e8:	00013383          	ld	x7,0(x2)
    410141ec:	77325fb7          	lui	x31,0x77325
    410141f0:	fc5f8f9b          	addiw	x31,x31,-59 # 77324fc5 <pma_region_2_end+0x322e3fc5>
    410141f4:	00cf9f93          	slli	x31,x31,0xc
    410141f8:	f8ff8f93          	addi	x31,x31,-113
    410141fc:	00df9f93          	slli	x31,x31,0xd
    41014200:	0a0f8f93          	addi	x31,x31,160
    41014204:	00400f13          	li	x30,4
    41014208:	01efb023          	sd	x30,0(x31)
    4101420c:	000f0fb7          	lui	x31,0xf0
    41014210:	001f8f9b          	addiw	x31,x31,1 # f0001 <pma_region_0_size+0xb0001>
    41014214:	00cf9f93          	slli	x31,x31,0xc
    41014218:	005f8f93          	addi	x31,x31,5
    4101421c:	00000073          	ecall

0000000041014220 <SID_ZICSR_02_passed>:
    41014220:	00f00f9b          	addiw	x31,x0,15
    41014224:	01cf9f93          	slli	x31,x31,0x1c
    41014228:	001f8f93          	addi	x31,x31,1
    4101422c:	00000073          	ecall

0000000041014230 <SID_ZICSR_03>:
    41014230:	00f94137          	lui	x2,0xf94
    41014234:	3f11011b          	addiw	x2,x2,1009 # f943f1 <SID_ZICSR_07_stack+0x4293f1>
    41014238:	00f11113          	slli	x2,x2,0xf
    4101423c:	d9f10113          	addi	x2,x2,-609
    41014240:	00d11113          	slli	x2,x2,0xd
    41014244:	77325fb7          	lui	x31,0x77325
    41014248:	fc5f8f9b          	addiw	x31,x31,-59 # 77324fc5 <pma_region_2_end+0x322e3fc5>
    4101424c:	00cf9f93          	slli	x31,x31,0xc
    41014250:	f8ff8f93          	addi	x31,x31,-113
    41014254:	00df9f93          	slli	x31,x31,0xd
    41014258:	0a0f8f93          	addi	x31,x31,160
    4101425c:	00500f13          	li	x30,5
    41014260:	01efb023          	sd	x30,0(x31)
    41014264:	000f0fb7          	lui	x31,0xf0
    41014268:	001f8f9b          	addiw	x31,x31,1 # f0001 <pma_region_0_size+0xb0001>
    4101426c:	00cf9f93          	slli	x31,x31,0xc
    41014270:	005f8f93          	addi	x31,x31,5
    41014274:	00000073          	ecall
    41014278:	00713023          	sd	x7,0(x2)
    4101427c:	15cd9137          	lui	x2,0x15cd9
    41014280:	000012b7          	lui	x5,0x1
    41014284:	00510133          	add	x2,x2,x5
    41014288:	ff017113          	andi	x2,x2,-16
    4101428c:	00000f93          	li	x31,0
    41014290:	143f9df3          	csrrw	x27,stval,x31
    41014294:	00f94137          	lui	x2,0xf94
    41014298:	3f11011b          	addiw	x2,x2,1009 # f943f1 <SID_ZICSR_07_stack+0x4293f1>
    4101429c:	00f11113          	slli	x2,x2,0xf
    410142a0:	d9f10113          	addi	x2,x2,-609
    410142a4:	00d11113          	slli	x2,x2,0xd
    410142a8:	00013383          	ld	x7,0(x2)
    410142ac:	77325fb7          	lui	x31,0x77325
    410142b0:	fc5f8f9b          	addiw	x31,x31,-59 # 77324fc5 <pma_region_2_end+0x322e3fc5>
    410142b4:	00cf9f93          	slli	x31,x31,0xc
    410142b8:	f8ff8f93          	addi	x31,x31,-113
    410142bc:	00df9f93          	slli	x31,x31,0xd
    410142c0:	0a0f8f93          	addi	x31,x31,160
    410142c4:	00600f13          	li	x30,6
    410142c8:	01efb023          	sd	x30,0(x31)
    410142cc:	000f0fb7          	lui	x31,0xf0
    410142d0:	001f8f9b          	addiw	x31,x31,1 # f0001 <pma_region_0_size+0xb0001>
    410142d4:	00cf9f93          	slli	x31,x31,0xc
    410142d8:	005f8f93          	addi	x31,x31,5
    410142dc:	00000073          	ecall

00000000410142e0 <SID_ZICSR_03_passed>:
    410142e0:	00f00f9b          	addiw	x31,x0,15
    410142e4:	01cf9f93          	slli	x31,x31,0x1c
    410142e8:	001f8f93          	addi	x31,x31,1
    410142ec:	00000073          	ecall

00000000410142f0 <SID_ZICSR_04>:
    410142f0:	00f94137          	lui	x2,0xf94
    410142f4:	3f11011b          	addiw	x2,x2,1009 # f943f1 <SID_ZICSR_07_stack+0x4293f1>
    410142f8:	00f11113          	slli	x2,x2,0xf
    410142fc:	d9f10113          	addi	x2,x2,-609
    41014300:	00d11113          	slli	x2,x2,0xd
    41014304:	77325fb7          	lui	x31,0x77325
    41014308:	fc5f8f9b          	addiw	x31,x31,-59 # 77324fc5 <pma_region_2_end+0x322e3fc5>
    4101430c:	00cf9f93          	slli	x31,x31,0xc
    41014310:	f8ff8f93          	addi	x31,x31,-113
    41014314:	00df9f93          	slli	x31,x31,0xd
    41014318:	0a0f8f93          	addi	x31,x31,160
    4101431c:	00100f13          	li	x30,1
    41014320:	01efb023          	sd	x30,0(x31)
    41014324:	000f0fb7          	lui	x31,0xf0
    41014328:	001f8f9b          	addiw	x31,x31,1 # f0001 <pma_region_0_size+0xb0001>
    4101432c:	00cf9f93          	slli	x31,x31,0xc
    41014330:	005f8f93          	addi	x31,x31,5
    41014334:	00000073          	ecall
    41014338:	00713023          	sd	x7,0(x2)
    4101433c:	00002137          	lui	x2,0x2
    41014340:	000012b7          	lui	x5,0x1
    41014344:	00510133          	add	x2,x2,x5
    41014348:	ff017113          	andi	x2,x2,-16
    4101434c:	fff00793          	li	x15,-1
    41014350:	10a7a773          	csrrs	x14,0x10a,x15
    41014354:	00f94137          	lui	x2,0xf94
    41014358:	3f11011b          	addiw	x2,x2,1009 # f943f1 <SID_ZICSR_07_stack+0x4293f1>
    4101435c:	00f11113          	slli	x2,x2,0xf
    41014360:	d9f10113          	addi	x2,x2,-609
    41014364:	00d11113          	slli	x2,x2,0xd
    41014368:	00013383          	ld	x7,0(x2)
    4101436c:	77325fb7          	lui	x31,0x77325
    41014370:	fc5f8f9b          	addiw	x31,x31,-59 # 77324fc5 <pma_region_2_end+0x322e3fc5>
    41014374:	00cf9f93          	slli	x31,x31,0xc
    41014378:	f8ff8f93          	addi	x31,x31,-113
    4101437c:	00df9f93          	slli	x31,x31,0xd
    41014380:	0a0f8f93          	addi	x31,x31,160
    41014384:	00200f13          	li	x30,2
    41014388:	01efb023          	sd	x30,0(x31)
    4101438c:	000f0fb7          	lui	x31,0xf0
    41014390:	001f8f9b          	addiw	x31,x31,1 # f0001 <pma_region_0_size+0xb0001>
    41014394:	00cf9f93          	slli	x31,x31,0xc
    41014398:	005f8f93          	addi	x31,x31,5
    4101439c:	00000073          	ecall

00000000410143a0 <SID_ZICSR_04_passed>:
    410143a0:	00f00f9b          	addiw	x31,x0,15
    410143a4:	01cf9f93          	slli	x31,x31,0x1c
    410143a8:	001f8f93          	addi	x31,x31,1
    410143ac:	00000073          	ecall

00000000410143b0 <SID_ZICSR_05>:
    410143b0:	00f94137          	lui	x2,0xf94
    410143b4:	3f11011b          	addiw	x2,x2,1009 # f943f1 <SID_ZICSR_07_stack+0x4293f1>
    410143b8:	00f11113          	slli	x2,x2,0xf
    410143bc:	d9f10113          	addi	x2,x2,-609
    410143c0:	00d11113          	slli	x2,x2,0xd
    410143c4:	77325fb7          	lui	x31,0x77325
    410143c8:	fc5f8f9b          	addiw	x31,x31,-59 # 77324fc5 <pma_region_2_end+0x322e3fc5>
    410143cc:	00cf9f93          	slli	x31,x31,0xc
    410143d0:	f8ff8f93          	addi	x31,x31,-113
    410143d4:	00df9f93          	slli	x31,x31,0xd
    410143d8:	0a0f8f93          	addi	x31,x31,160
    410143dc:	00900f13          	li	x30,9
    410143e0:	01efb023          	sd	x30,0(x31)
    410143e4:	000f0fb7          	lui	x31,0xf0
    410143e8:	001f8f9b          	addiw	x31,x31,1 # f0001 <pma_region_0_size+0xb0001>
    410143ec:	00cf9f93          	slli	x31,x31,0xc
    410143f0:	005f8f93          	addi	x31,x31,5
    410143f4:	00000073          	ecall
    410143f8:	00713023          	sd	x7,0(x2)
    410143fc:	0487f137          	lui	x2,0x487f
    41014400:	000012b7          	lui	x5,0x1
    41014404:	00510133          	add	x2,x2,x5
    41014408:	ff017113          	andi	x2,x2,-16
    4101440c:	00000613          	li	x12,0
    41014410:	14062d73          	csrrs	x26,sscratch,x12
    41014414:	00f94137          	lui	x2,0xf94
    41014418:	3f11011b          	addiw	x2,x2,1009 # f943f1 <SID_ZICSR_07_stack+0x4293f1>
    4101441c:	00f11113          	slli	x2,x2,0xf
    41014420:	d9f10113          	addi	x2,x2,-609
    41014424:	00d11113          	slli	x2,x2,0xd
    41014428:	00013383          	ld	x7,0(x2)
    4101442c:	77325fb7          	lui	x31,0x77325
    41014430:	fc5f8f9b          	addiw	x31,x31,-59 # 77324fc5 <pma_region_2_end+0x322e3fc5>
    41014434:	00cf9f93          	slli	x31,x31,0xc
    41014438:	f8ff8f93          	addi	x31,x31,-113
    4101443c:	00df9f93          	slli	x31,x31,0xd
    41014440:	0a0f8f93          	addi	x31,x31,160
    41014444:	00a00f13          	li	x30,10
    41014448:	01efb023          	sd	x30,0(x31)
    4101444c:	000f0fb7          	lui	x31,0xf0
    41014450:	001f8f9b          	addiw	x31,x31,1 # f0001 <pma_region_0_size+0xb0001>
    41014454:	00cf9f93          	slli	x31,x31,0xc
    41014458:	005f8f93          	addi	x31,x31,5
    4101445c:	00000073          	ecall

0000000041014460 <SID_ZICSR_05_passed>:
    41014460:	00f00f9b          	addiw	x31,x0,15
    41014464:	01cf9f93          	slli	x31,x31,0x1c
    41014468:	001f8f93          	addi	x31,x31,1
    4101446c:	00000073          	ecall

0000000041014470 <SID_ZICSR_06>:
    41014470:	00f94137          	lui	x2,0xf94
    41014474:	3f11011b          	addiw	x2,x2,1009 # f943f1 <SID_ZICSR_07_stack+0x4293f1>
    41014478:	00f11113          	slli	x2,x2,0xf
    4101447c:	d9f10113          	addi	x2,x2,-609
    41014480:	00d11113          	slli	x2,x2,0xd
    41014484:	77325fb7          	lui	x31,0x77325
    41014488:	fc5f8f9b          	addiw	x31,x31,-59 # 77324fc5 <pma_region_2_end+0x322e3fc5>
    4101448c:	00cf9f93          	slli	x31,x31,0xc
    41014490:	f8ff8f93          	addi	x31,x31,-113
    41014494:	00df9f93          	slli	x31,x31,0xd
    41014498:	0a0f8f93          	addi	x31,x31,160
    4101449c:	00300f13          	li	x30,3
    410144a0:	01efb023          	sd	x30,0(x31)
    410144a4:	000f0fb7          	lui	x31,0xf0
    410144a8:	001f8f9b          	addiw	x31,x31,1 # f0001 <pma_region_0_size+0xb0001>
    410144ac:	00cf9f93          	slli	x31,x31,0xc
    410144b0:	005f8f93          	addi	x31,x31,5
    410144b4:	00000073          	ecall
    410144b8:	00713023          	sd	x7,0(x2)
    410144bc:	00016137          	lui	x2,0x16
    410144c0:	000012b7          	lui	x5,0x1
    410144c4:	00510133          	add	x2,x2,x5
    410144c8:	ff017113          	andi	x2,x2,-16
    410144cc:	fff00c13          	li	x24,-1
    410144d0:	105c3e73          	csrrc	x28,stvec,x24
    410144d4:	00f94137          	lui	x2,0xf94
    410144d8:	3f11011b          	addiw	x2,x2,1009 # f943f1 <SID_ZICSR_07_stack+0x4293f1>
    410144dc:	00f11113          	slli	x2,x2,0xf
    410144e0:	d9f10113          	addi	x2,x2,-609
    410144e4:	00d11113          	slli	x2,x2,0xd
    410144e8:	00013383          	ld	x7,0(x2)
    410144ec:	77325fb7          	lui	x31,0x77325
    410144f0:	fc5f8f9b          	addiw	x31,x31,-59 # 77324fc5 <pma_region_2_end+0x322e3fc5>
    410144f4:	00cf9f93          	slli	x31,x31,0xc
    410144f8:	f8ff8f93          	addi	x31,x31,-113
    410144fc:	00df9f93          	slli	x31,x31,0xd
    41014500:	0a0f8f93          	addi	x31,x31,160
    41014504:	00400f13          	li	x30,4
    41014508:	01efb023          	sd	x30,0(x31)
    4101450c:	000f0fb7          	lui	x31,0xf0
    41014510:	001f8f9b          	addiw	x31,x31,1 # f0001 <pma_region_0_size+0xb0001>
    41014514:	00cf9f93          	slli	x31,x31,0xc
    41014518:	005f8f93          	addi	x31,x31,5
    4101451c:	00000073          	ecall

0000000041014520 <SID_ZICSR_06_passed>:
    41014520:	00f00f9b          	addiw	x31,x0,15
    41014524:	01cf9f93          	slli	x31,x31,0x1c
    41014528:	001f8f93          	addi	x31,x31,1
    4101452c:	00000073          	ecall

0000000041014530 <SID_ZICSR_07>:
    41014530:	00f94137          	lui	x2,0xf94
    41014534:	3f11011b          	addiw	x2,x2,1009 # f943f1 <SID_ZICSR_07_stack+0x4293f1>
    41014538:	00f11113          	slli	x2,x2,0xf
    4101453c:	d9f10113          	addi	x2,x2,-609
    41014540:	00d11113          	slli	x2,x2,0xd
    41014544:	77325fb7          	lui	x31,0x77325
    41014548:	fc5f8f9b          	addiw	x31,x31,-59 # 77324fc5 <pma_region_2_end+0x322e3fc5>
    4101454c:	00cf9f93          	slli	x31,x31,0xc
    41014550:	f8ff8f93          	addi	x31,x31,-113
    41014554:	00df9f93          	slli	x31,x31,0xd
    41014558:	0a0f8f93          	addi	x31,x31,160
    4101455c:	00900f13          	li	x30,9
    41014560:	01efb023          	sd	x30,0(x31)
    41014564:	000f0fb7          	lui	x31,0xf0
    41014568:	001f8f9b          	addiw	x31,x31,1 # f0001 <pma_region_0_size+0xb0001>
    4101456c:	00cf9f93          	slli	x31,x31,0xc
    41014570:	005f8f93          	addi	x31,x31,5
    41014574:	00000073          	ecall
    41014578:	00713023          	sd	x7,0(x2)
    4101457c:	00b6b137          	lui	x2,0xb6b
    41014580:	000012b7          	lui	x5,0x1
    41014584:	00510133          	add	x2,x2,x5
    41014588:	ff017113          	andi	x2,x2,-16
    4101458c:	00000993          	li	x19,0
    41014590:	1409bdf3          	csrrc	x27,sscratch,x19
    41014594:	00f94137          	lui	x2,0xf94
    41014598:	3f11011b          	addiw	x2,x2,1009 # f943f1 <SID_ZICSR_07_stack+0x4293f1>
    4101459c:	00f11113          	slli	x2,x2,0xf
    410145a0:	d9f10113          	addi	x2,x2,-609
    410145a4:	00d11113          	slli	x2,x2,0xd
    410145a8:	00013383          	ld	x7,0(x2)
    410145ac:	77325fb7          	lui	x31,0x77325
    410145b0:	fc5f8f9b          	addiw	x31,x31,-59 # 77324fc5 <pma_region_2_end+0x322e3fc5>
    410145b4:	00cf9f93          	slli	x31,x31,0xc
    410145b8:	f8ff8f93          	addi	x31,x31,-113
    410145bc:	00df9f93          	slli	x31,x31,0xd
    410145c0:	0a0f8f93          	addi	x31,x31,160
    410145c4:	00a00f13          	li	x30,10
    410145c8:	01efb023          	sd	x30,0(x31)
    410145cc:	000f0fb7          	lui	x31,0xf0
    410145d0:	001f8f9b          	addiw	x31,x31,1 # f0001 <pma_region_0_size+0xb0001>
    410145d4:	00cf9f93          	slli	x31,x31,0xc
    410145d8:	005f8f93          	addi	x31,x31,5
    410145dc:	00000073          	ecall

00000000410145e0 <SID_ZICSR_07_passed>:
    410145e0:	00f00f9b          	addiw	x31,x0,15
    410145e4:	01cf9f93          	slli	x31,x31,0x1c
    410145e8:	001f8f93          	addi	x31,x31,1
    410145ec:	00000073          	ecall

00000000410145f0 <SID_ZICSR_08>:
    410145f0:	00f94137          	lui	x2,0xf94
    410145f4:	3f11011b          	addiw	x2,x2,1009 # f943f1 <SID_ZICSR_07_stack+0x4293f1>
    410145f8:	00f11113          	slli	x2,x2,0xf
    410145fc:	d9f10113          	addi	x2,x2,-609
    41014600:	00d11113          	slli	x2,x2,0xd
    41014604:	77325fb7          	lui	x31,0x77325
    41014608:	fc5f8f9b          	addiw	x31,x31,-59 # 77324fc5 <pma_region_2_end+0x322e3fc5>
    4101460c:	00cf9f93          	slli	x31,x31,0xc
    41014610:	f8ff8f93          	addi	x31,x31,-113
    41014614:	00df9f93          	slli	x31,x31,0xd
    41014618:	0a0f8f93          	addi	x31,x31,160
    4101461c:	00f00f13          	li	x30,15
    41014620:	01efb023          	sd	x30,0(x31)
    41014624:	000f0fb7          	lui	x31,0xf0
    41014628:	001f8f9b          	addiw	x31,x31,1 # f0001 <pma_region_0_size+0xb0001>
    4101462c:	00cf9f93          	slli	x31,x31,0xc
    41014630:	005f8f93          	addi	x31,x31,5
    41014634:	00000073          	ecall
    41014638:	00713023          	sd	x7,0(x2)
    4101463c:	03ce1137          	lui	x2,0x3ce1
    41014640:	ef91011b          	addiw	x2,x2,-263 # 3ce0ef9 <SID_ZICSR_13_stack+0x2ad5ef9>
    41014644:	00d11113          	slli	x2,x2,0xd
    41014648:	000012b7          	lui	x5,0x1
    4101464c:	00510133          	add	x2,x2,x5
    41014650:	ff017113          	andi	x2,x2,-16
    41014654:	141fdff3          	csrrwi	x31,sepc,31
    41014658:	00f94137          	lui	x2,0xf94
    4101465c:	3f11011b          	addiw	x2,x2,1009 # f943f1 <SID_ZICSR_07_stack+0x4293f1>
    41014660:	00f11113          	slli	x2,x2,0xf
    41014664:	d9f10113          	addi	x2,x2,-609
    41014668:	00d11113          	slli	x2,x2,0xd
    4101466c:	00013383          	ld	x7,0(x2)
    41014670:	77325fb7          	lui	x31,0x77325
    41014674:	fc5f8f9b          	addiw	x31,x31,-59 # 77324fc5 <pma_region_2_end+0x322e3fc5>
    41014678:	00cf9f93          	slli	x31,x31,0xc
    4101467c:	f8ff8f93          	addi	x31,x31,-113
    41014680:	00df9f93          	slli	x31,x31,0xd
    41014684:	0a0f8f93          	addi	x31,x31,160
    41014688:	01000f13          	li	x30,16
    4101468c:	01efb023          	sd	x30,0(x31)
    41014690:	000f0fb7          	lui	x31,0xf0
    41014694:	001f8f9b          	addiw	x31,x31,1 # f0001 <pma_region_0_size+0xb0001>
    41014698:	00cf9f93          	slli	x31,x31,0xc
    4101469c:	005f8f93          	addi	x31,x31,5
    410146a0:	00000073          	ecall

00000000410146a4 <SID_ZICSR_08_passed>:
    410146a4:	00f00f9b          	addiw	x31,x0,15
    410146a8:	01cf9f93          	slli	x31,x31,0x1c
    410146ac:	001f8f93          	addi	x31,x31,1
    410146b0:	00000073          	ecall

00000000410146b4 <SID_ZICSR_09>:
    410146b4:	00f94137          	lui	x2,0xf94
    410146b8:	3f11011b          	addiw	x2,x2,1009 # f943f1 <SID_ZICSR_07_stack+0x4293f1>
    410146bc:	00f11113          	slli	x2,x2,0xf
    410146c0:	d9f10113          	addi	x2,x2,-609
    410146c4:	00d11113          	slli	x2,x2,0xd
    410146c8:	77325fb7          	lui	x31,0x77325
    410146cc:	fc5f8f9b          	addiw	x31,x31,-59 # 77324fc5 <pma_region_2_end+0x322e3fc5>
    410146d0:	00cf9f93          	slli	x31,x31,0xc
    410146d4:	f8ff8f93          	addi	x31,x31,-113
    410146d8:	00df9f93          	slli	x31,x31,0xd
    410146dc:	0a0f8f93          	addi	x31,x31,160
    410146e0:	00500f13          	li	x30,5
    410146e4:	01efb023          	sd	x30,0(x31)
    410146e8:	000f0fb7          	lui	x31,0xf0
    410146ec:	001f8f9b          	addiw	x31,x31,1 # f0001 <pma_region_0_size+0xb0001>
    410146f0:	00cf9f93          	slli	x31,x31,0xc
    410146f4:	005f8f93          	addi	x31,x31,5
    410146f8:	00000073          	ecall
    410146fc:	00713023          	sd	x7,0(x2)
    41014700:	13512137          	lui	x2,0x13512
    41014704:	03f1011b          	addiw	x2,x2,63 # 1351203f <SID_ZICSR_05_stack+0xec9303f>
    41014708:	00d11113          	slli	x2,x2,0xd
    4101470c:	24110113          	addi	x2,x2,577
    41014710:	00c11113          	slli	x2,x2,0xc
    41014714:	000012b7          	lui	x5,0x1
    41014718:	00510133          	add	x2,x2,x5
    4101471c:	ff017113          	andi	x2,x2,-16
    41014720:	143fdb73          	csrrwi	x22,stval,31
    41014724:	00f94137          	lui	x2,0xf94
    41014728:	3f11011b          	addiw	x2,x2,1009 # f943f1 <SID_ZICSR_07_stack+0x4293f1>
    4101472c:	00f11113          	slli	x2,x2,0xf
    41014730:	d9f10113          	addi	x2,x2,-609
    41014734:	00d11113          	slli	x2,x2,0xd
    41014738:	00013383          	ld	x7,0(x2)
    4101473c:	77325fb7          	lui	x31,0x77325
    41014740:	fc5f8f9b          	addiw	x31,x31,-59 # 77324fc5 <pma_region_2_end+0x322e3fc5>
    41014744:	00cf9f93          	slli	x31,x31,0xc
    41014748:	f8ff8f93          	addi	x31,x31,-113
    4101474c:	00df9f93          	slli	x31,x31,0xd
    41014750:	0a0f8f93          	addi	x31,x31,160
    41014754:	00600f13          	li	x30,6
    41014758:	01efb023          	sd	x30,0(x31)
    4101475c:	000f0fb7          	lui	x31,0xf0
    41014760:	001f8f9b          	addiw	x31,x31,1 # f0001 <pma_region_0_size+0xb0001>
    41014764:	00cf9f93          	slli	x31,x31,0xc
    41014768:	005f8f93          	addi	x31,x31,5
    4101476c:	00000073          	ecall

0000000041014770 <SID_ZICSR_09_passed>:
    41014770:	00f00f9b          	addiw	x31,x0,15
    41014774:	01cf9f93          	slli	x31,x31,0x1c
    41014778:	001f8f93          	addi	x31,x31,1
    4101477c:	00000073          	ecall

0000000041014780 <SID_ZICSR_10>:
    41014780:	00004137          	lui	x2,0x4
    41014784:	000012b7          	lui	x5,0x1
    41014788:	00510133          	add	x2,x2,x5
    4101478c:	ff017113          	andi	x2,x2,-16
    41014790:	14005bf3          	csrrwi	x23,sscratch,0

0000000041014794 <SID_ZICSR_10_passed>:
    41014794:	00f00f9b          	addiw	x31,x0,15
    41014798:	01cf9f93          	slli	x31,x31,0x1c
    4101479c:	001f8f93          	addi	x31,x31,1
    410147a0:	00000073          	ecall

00000000410147a4 <SID_ZICSR_11>:
    410147a4:	00ffa137          	lui	x2,0xffa
    410147a8:	d1f1011b          	addiw	x2,x2,-737 # ff9d1f <SID_ZICSR_07_stack+0x48ed1f>
    410147ac:	00f11113          	slli	x2,x2,0xf
    410147b0:	a7b10113          	addi	x2,x2,-1413
    410147b4:	00d11113          	slli	x2,x2,0xd
    410147b8:	000012b7          	lui	x5,0x1
    410147bc:	00510133          	add	x2,x2,x5
    410147c0:	ff017113          	andi	x2,x2,-16
    410147c4:	14105b73          	csrrwi	x22,sepc,0

00000000410147c8 <SID_ZICSR_11_passed>:
    410147c8:	00f00f9b          	addiw	x31,x0,15
    410147cc:	01cf9f93          	slli	x31,x31,0x1c
    410147d0:	001f8f93          	addi	x31,x31,1
    410147d4:	00000073          	ecall

00000000410147d8 <SID_ZICSR_12>:
    410147d8:	00f94137          	lui	x2,0xf94
    410147dc:	3f11011b          	addiw	x2,x2,1009 # f943f1 <SID_ZICSR_07_stack+0x4293f1>
    410147e0:	00f11113          	slli	x2,x2,0xf
    410147e4:	d9f10113          	addi	x2,x2,-609
    410147e8:	00d11113          	slli	x2,x2,0xd
    410147ec:	77325fb7          	lui	x31,0x77325
    410147f0:	fc5f8f9b          	addiw	x31,x31,-59 # 77324fc5 <pma_region_2_end+0x322e3fc5>
    410147f4:	00cf9f93          	slli	x31,x31,0xc
    410147f8:	f8ff8f93          	addi	x31,x31,-113
    410147fc:	00df9f93          	slli	x31,x31,0xd
    41014800:	0a0f8f93          	addi	x31,x31,160
    41014804:	00900f13          	li	x30,9
    41014808:	01efb023          	sd	x30,0(x31)
    4101480c:	000f0fb7          	lui	x31,0xf0
    41014810:	001f8f9b          	addiw	x31,x31,1 # f0001 <pma_region_0_size+0xb0001>
    41014814:	00cf9f93          	slli	x31,x31,0xc
    41014818:	005f8f93          	addi	x31,x31,5
    4101481c:	00000073          	ecall
    41014820:	00713023          	sd	x7,0(x2)
    41014824:	0033a137          	lui	x2,0x33a
    41014828:	3891011b          	addiw	x2,x2,905 # 33a389 <SID_ZICSR_02_stack+0x1c4389>
    4101482c:	00d11113          	slli	x2,x2,0xd
    41014830:	30510113          	addi	x2,x2,773
    41014834:	00d11113          	slli	x2,x2,0xd
    41014838:	000012b7          	lui	x5,0x1
    4101483c:	00510133          	add	x2,x2,x5
    41014840:	ff017113          	andi	x2,x2,-16
    41014844:	140fe3f3          	csrrsi	x7,sscratch,31
    41014848:	00f94137          	lui	x2,0xf94
    4101484c:	3f11011b          	addiw	x2,x2,1009 # f943f1 <SID_ZICSR_07_stack+0x4293f1>
    41014850:	00f11113          	slli	x2,x2,0xf
    41014854:	d9f10113          	addi	x2,x2,-609
    41014858:	00d11113          	slli	x2,x2,0xd
    4101485c:	00013383          	ld	x7,0(x2)
    41014860:	77325fb7          	lui	x31,0x77325
    41014864:	fc5f8f9b          	addiw	x31,x31,-59 # 77324fc5 <pma_region_2_end+0x322e3fc5>
    41014868:	00cf9f93          	slli	x31,x31,0xc
    4101486c:	f8ff8f93          	addi	x31,x31,-113
    41014870:	00df9f93          	slli	x31,x31,0xd
    41014874:	0a0f8f93          	addi	x31,x31,160
    41014878:	00a00f13          	li	x30,10
    4101487c:	01efb023          	sd	x30,0(x31)
    41014880:	000f0fb7          	lui	x31,0xf0
    41014884:	001f8f9b          	addiw	x31,x31,1 # f0001 <pma_region_0_size+0xb0001>
    41014888:	00cf9f93          	slli	x31,x31,0xc
    4101488c:	005f8f93          	addi	x31,x31,5
    41014890:	00000073          	ecall

0000000041014894 <SID_ZICSR_12_passed>:
    41014894:	00f00f9b          	addiw	x31,x0,15
    41014898:	01cf9f93          	slli	x31,x31,0x1c
    4101489c:	001f8f93          	addi	x31,x31,1
    410148a0:	00000073          	ecall

00000000410148a4 <SID_ZICSR_13>:
    410148a4:	0120b137          	lui	x2,0x120b
    410148a8:	000012b7          	lui	x5,0x1
    410148ac:	00510133          	add	x2,x2,x5
    410148b0:	ff017113          	andi	x2,x2,-16
    410148b4:	10a06373          	csrrsi	x6,0x10a,0

00000000410148b8 <SID_ZICSR_13_passed>:
    410148b8:	00f00f9b          	addiw	x31,x0,15
    410148bc:	01cf9f93          	slli	x31,x31,0x1c
    410148c0:	001f8f93          	addi	x31,x31,1
    410148c4:	00000073          	ecall

00000000410148c8 <SID_ZICSR_14>:
    410148c8:	00f94137          	lui	x2,0xf94
    410148cc:	3f11011b          	addiw	x2,x2,1009 # f943f1 <SID_ZICSR_07_stack+0x4293f1>
    410148d0:	00f11113          	slli	x2,x2,0xf
    410148d4:	d9f10113          	addi	x2,x2,-609
    410148d8:	00d11113          	slli	x2,x2,0xd
    410148dc:	77325fb7          	lui	x31,0x77325
    410148e0:	fc5f8f9b          	addiw	x31,x31,-59 # 77324fc5 <pma_region_2_end+0x322e3fc5>
    410148e4:	00cf9f93          	slli	x31,x31,0xc
    410148e8:	f8ff8f93          	addi	x31,x31,-113
    410148ec:	00df9f93          	slli	x31,x31,0xd
    410148f0:	0a0f8f93          	addi	x31,x31,160
    410148f4:	00900f13          	li	x30,9
    410148f8:	01efb023          	sd	x30,0(x31)
    410148fc:	000f0fb7          	lui	x31,0xf0
    41014900:	001f8f9b          	addiw	x31,x31,1 # f0001 <pma_region_0_size+0xb0001>
    41014904:	00cf9f93          	slli	x31,x31,0xc
    41014908:	005f8f93          	addi	x31,x31,5
    4101490c:	00000073          	ecall
    41014910:	00713023          	sd	x7,0(x2)
    41014914:	00797137          	lui	x2,0x797
    41014918:	64f1011b          	addiw	x2,x2,1615 # 79764f <SID_ZICSR_01_stack+0x13264f>
    4101491c:	00d11113          	slli	x2,x2,0xd
    41014920:	000012b7          	lui	x5,0x1
    41014924:	00510133          	add	x2,x2,x5
    41014928:	ff017113          	andi	x2,x2,-16
    4101492c:	140ffa73          	csrrci	x20,sscratch,31
    41014930:	00f94137          	lui	x2,0xf94
    41014934:	3f11011b          	addiw	x2,x2,1009 # f943f1 <SID_ZICSR_07_stack+0x4293f1>
    41014938:	00f11113          	slli	x2,x2,0xf
    4101493c:	d9f10113          	addi	x2,x2,-609
    41014940:	00d11113          	slli	x2,x2,0xd
    41014944:	00013383          	ld	x7,0(x2)
    41014948:	77325fb7          	lui	x31,0x77325
    4101494c:	fc5f8f9b          	addiw	x31,x31,-59 # 77324fc5 <pma_region_2_end+0x322e3fc5>
    41014950:	00cf9f93          	slli	x31,x31,0xc
    41014954:	f8ff8f93          	addi	x31,x31,-113
    41014958:	00df9f93          	slli	x31,x31,0xd
    4101495c:	0a0f8f93          	addi	x31,x31,160
    41014960:	00a00f13          	li	x30,10
    41014964:	01efb023          	sd	x30,0(x31)
    41014968:	000f0fb7          	lui	x31,0xf0
    4101496c:	001f8f9b          	addiw	x31,x31,1 # f0001 <pma_region_0_size+0xb0001>
    41014970:	00cf9f93          	slli	x31,x31,0xc
    41014974:	005f8f93          	addi	x31,x31,5
    41014978:	00000073          	ecall

000000004101497c <SID_ZICSR_14_passed>:
    4101497c:	00f00f9b          	addiw	x31,x0,15
    41014980:	01cf9f93          	slli	x31,x31,0x1c
    41014984:	001f8f93          	addi	x31,x31,1
    41014988:	00000073          	ecall

000000004101498c <SID_ZICSR_15>:
    4101498c:	00097137          	lui	x2,0x97
    41014990:	dd51011b          	addiw	x2,x2,-555 # 96dd5 <pma_region_0_size+0x56dd5>
    41014994:	00c11113          	slli	x2,x2,0xc
    41014998:	000012b7          	lui	x5,0x1
    4101499c:	00510133          	add	x2,x2,x5
    410149a0:	ff017113          	andi	x2,x2,-16
    410149a4:	14307973          	csrrci	x18,stval,0

00000000410149a8 <SID_ZICSR_15_passed>:
    410149a8:	00f00f9b          	addiw	x31,x0,15
    410149ac:	01cf9f93          	slli	x31,x31,0x1c
    410149b0:	001f8f93          	addi	x31,x31,1
    410149b4:	00000073          	ecall

00000000410149b8 <SID_ZICSR_16>:
    410149b8:	0012e137          	lui	x2,0x12e
    410149bc:	6391011b          	addiw	x2,x2,1593 # 12e639 <pma_region_0_size+0xee639>
    410149c0:	00d11113          	slli	x2,x2,0xd
    410149c4:	0b910113          	addi	x2,x2,185
    410149c8:	00d11113          	slli	x2,x2,0xd
    410149cc:	000012b7          	lui	x5,0x1
    410149d0:	00510133          	add	x2,x2,x5
    410149d4:	ff017113          	andi	x2,x2,-16
    410149d8:	5c14c5b7          	lui	x11,0x5c14c
    410149dc:	c4d5859b          	addiw	x11,x11,-947 # 5c14bc4d <pma_region_2_end+0x1710ac4d>
    410149e0:	00040fb7          	lui	x31,0x40
    410149e4:	ea7f8f9b          	addiw	x31,x31,-345 # 3fea7 <SID_ZICSR_06_stack+0x29ea7>
    410149e8:	00ef9f93          	slli	x31,x31,0xe
    410149ec:	9f4f8f93          	addi	x31,x31,-1548
    410149f0:	03f5a9b3          	mulhsu	x19,x11,x31
    410149f4:	14101f73          	csrrw	x30,sepc,x0
    410149f8:	00084fb7          	lui	x31,0x84
    410149fc:	845f8f9b          	addiw	x31,x31,-1979 # 83845 <pma_region_0_size+0x43845>
    41014a00:	00cf9f93          	slli	x31,x31,0xc
    41014a04:	b43f8f93          	addi	x31,x31,-1213
    41014a08:	16cf8b13          	addi	x22,x31,364
    41014a0c:	10602ef3          	csrr	x29,scounteren
    41014a10:	000adcb7          	lui	x25,0xad
    41014a14:	aabc8c9b          	addiw	x25,x25,-1365 # acaab <pma_region_0_size+0x6caab>
    41014a18:	00cc9c93          	slli	x25,x25,0xc
    41014a1c:	3a1c8c93          	addi	x25,x25,929
    41014a20:	00009737          	lui	x14,0x9
    41014a24:	f557071b          	addiw	x14,x14,-171 # 8f55 <hart_stack_0+0xf55>
    41014a28:	01071713          	slli	x14,x14,0x10
    41014a2c:	8d170713          	addi	x14,x14,-1839
    41014a30:	02eced3b          	remw	x26,x25,x14
    41014a34:	14003873          	csrrc	x16,sscratch,x0
    41014a38:	2e8d5e37          	lui	x28,0x2e8d5
    41014a3c:	b8de0e1b          	addiw	x28,x28,-1139 # 2e8d4b8d <SID_ZICSR_19_stack+0x847ab8d>
    41014a40:	000ff9b7          	lui	x19,0xff
    41014a44:	c3f9899b          	addiw	x19,x19,-961 # fec3f <pma_region_0_size+0xbec3f>
    41014a48:	00c99993          	slli	x19,x19,0xc
    41014a4c:	6b698993          	addi	x19,x19,1718
    41014a50:	033e4f3b          	divw	x30,x28,x19
    41014a54:	14205f73          	csrrwi	x30,scause,0
    41014a58:	00072ab7          	lui	x21,0x72
    41014a5c:	609a8a9b          	addiw	x21,x21,1545 # 72609 <pma_region_0_size+0x32609>
    41014a60:	00da9a93          	slli	x21,x21,0xd
    41014a64:	ab5a8a93          	addi	x21,x21,-1355
    41014a68:	72155837          	lui	x16,0x72155
    41014a6c:	e798081b          	addiw	x16,x16,-391 # 72154e79 <pma_region_2_end+0x2d113e79>
    41014a70:	030ac5b3          	div	x11,x21,x16
    41014a74:	14006ff3          	csrrsi	x31,sscratch,0
    41014a78:	000ccbb7          	lui	x23,0xcc
    41014a7c:	f87b8b9b          	addiw	x23,x23,-121 # cbf87 <pma_region_0_size+0x8bf87>
    41014a80:	00cb9b93          	slli	x23,x23,0xc
    41014a84:	547b8b93          	addi	x23,x23,1351
    41014a88:	6a27ee37          	lui	x28,0x6a27e
    41014a8c:	0e2e0e1b          	addiw	x28,x28,226 # 6a27e0e2 <pma_region_2_end+0x2523d0e2>
    41014a90:	d03bfc53          	fcvt.s.lu	f24,x23
    41014a94:	d03e7fd3          	fcvt.s.lu	f31,x28
    41014a98:	19fc7953          	fdiv.s	f18,f24,f31
    41014a9c:	14107ff3          	csrrci	x31,sepc,0
    41014aa0:	0002feb7          	lui	x29,0x2f
    41014aa4:	007e8e9b          	addiw	x29,x29,7 # 2f007 <SID_ZICSR_06_stack+0x19007>
    41014aa8:	00ee9e93          	slli	x29,x29,0xe
    41014aac:	fd1e8e93          	addi	x29,x29,-47
    41014ab0:	00043737          	lui	x14,0x43
    41014ab4:	3f37071b          	addiw	x14,x14,1011 # 433f3 <pma_region_0_size+0x33f3>
    41014ab8:	00d71713          	slli	x14,x14,0xd
    41014abc:	e1870713          	addi	x14,x14,-488
    41014ac0:	d03efbd3          	fcvt.s.lu	f23,x29
    41014ac4:	d0177453          	fcvt.s.wu	f8,x14
    41014ac8:	188bf453          	fdiv.s	f8,f23,f8

0000000041014acc <SID_ZICSR_16_passed>:
    41014acc:	00f00f9b          	addiw	x31,x0,15
    41014ad0:	01cf9f93          	slli	x31,x31,0x1c
    41014ad4:	001f8f93          	addi	x31,x31,1
    41014ad8:	00000073          	ecall

0000000041014adc <SID_ZICSR_17>:
    41014adc:	046d5137          	lui	x2,0x46d5
    41014ae0:	000012b7          	lui	x5,0x1
    41014ae4:	00510133          	add	x2,x2,x5
    41014ae8:	ff017113          	andi	x2,x2,-16
    41014aec:	14001373          	csrrw	x6,sscratch,x0
    41014af0:	10a01473          	csrrw	x8,0x10a,x0
    41014af4:	14301ff3          	csrrw	x31,stval,x0
    41014af8:	10a023f3          	csrr	x7,0x10a
    41014afc:	10601a73          	csrrw	x20,scounteren,x0
    41014b00:	140038f3          	csrrc	x17,sscratch,x0
    41014b04:	140016f3          	csrrw	x13,sscratch,x0
    41014b08:	10a057f3          	csrrwi	x15,0x10a,0
    41014b0c:	141018f3          	csrrw	x17,sepc,x0
    41014b10:	14206873          	csrrsi	x16,scause,0
    41014b14:	14001f73          	csrrw	x30,sscratch,x0
    41014b18:	143077f3          	csrrci	x15,stval,0
    41014b1c:	142024f3          	csrr	x9,scause
    41014b20:	10a01df3          	csrrw	x27,0x10a,x0
    41014b24:	10602a73          	csrr	x20,scounteren
    41014b28:	106025f3          	csrr	x11,scounteren
    41014b2c:	106025f3          	csrr	x11,scounteren
    41014b30:	10603bf3          	csrrc	x23,scounteren,x0
    41014b34:	141029f3          	csrr	x19,sepc
    41014b38:	14205673          	csrrwi	x12,scause,0
    41014b3c:	14002573          	csrr	x10,sscratch
    41014b40:	10a06ff3          	csrrsi	x31,0x10a,0
    41014b44:	14202a73          	csrr	x20,scause
    41014b48:	14207bf3          	csrrci	x23,scause,0
    41014b4c:	14103ff3          	csrrc	x31,sepc,x0
    41014b50:	14101a73          	csrrw	x20,sepc,x0
    41014b54:	10603b73          	csrrc	x22,scounteren,x0
    41014b58:	14302473          	csrr	x8,stval
    41014b5c:	141036f3          	csrrc	x13,sepc,x0
    41014b60:	14003df3          	csrrc	x27,sscratch,x0
    41014b64:	10603773          	csrrc	x14,scounteren,x0
    41014b68:	10a058f3          	csrrwi	x17,0x10a,0
    41014b6c:	10a039f3          	csrrc	x19,0x10a,x0
    41014b70:	14306ff3          	csrrsi	x31,stval,0
    41014b74:	142039f3          	csrrc	x19,scause,x0
    41014b78:	10507473          	csrrci	x8,stvec,0
    41014b7c:	10a05ff3          	csrrwi	x31,0x10a,0
    41014b80:	10601af3          	csrrw	x21,scounteren,x0
    41014b84:	14305873          	csrrwi	x16,stval,0
    41014b88:	10602af3          	csrr	x21,scounteren
    41014b8c:	10505673          	csrrwi	x12,stvec,0
    41014b90:	140038f3          	csrrc	x17,sscratch,x0
    41014b94:	14305873          	csrrwi	x16,stval,0
    41014b98:	10505e73          	csrrwi	x28,stvec,0
    41014b9c:	140056f3          	csrrwi	x13,sscratch,0
    41014ba0:	14006f73          	csrrsi	x30,sscratch,0
    41014ba4:	10605cf3          	csrrwi	x25,scounteren,0
    41014ba8:	14107873          	csrrci	x16,sepc,0
    41014bac:	10606e73          	csrrsi	x28,scounteren,0
    41014bb0:	10a01bf3          	csrrw	x23,0x10a,x0
    41014bb4:	10606ef3          	csrrsi	x29,scounteren,0
    41014bb8:	14002973          	csrr	x18,sscratch
    41014bbc:	10a06ff3          	csrrsi	x31,0x10a,0
    41014bc0:	14203ff3          	csrrc	x31,scause,x0
    41014bc4:	141067f3          	csrrsi	x15,sepc,0
    41014bc8:	10a056f3          	csrrwi	x13,0x10a,0
    41014bcc:	14106873          	csrrsi	x16,sepc,0
    41014bd0:	105066f3          	csrrsi	x13,stvec,0
    41014bd4:	10a06473          	csrrsi	x8,0x10a,0
    41014bd8:	14207f73          	csrrci	x30,scause,0
    41014bdc:	14307e73          	csrrci	x28,stval,0
    41014be0:	10501773          	csrrw	x14,stvec,x0
    41014be4:	105074f3          	csrrci	x9,stvec,0
    41014be8:	14302af3          	csrr	x21,stval
    41014bec:	14307df3          	csrrci	x27,stval,0
    41014bf0:	140039f3          	csrrc	x19,sscratch,x0
    41014bf4:	14107f73          	csrrci	x30,sepc,0
    41014bf8:	14305973          	csrrwi	x18,stval,0
    41014bfc:	105074f3          	csrrci	x9,stvec,0
    41014c00:	10606c73          	csrrsi	x24,scounteren,0
    41014c04:	10607f73          	csrrci	x30,scounteren,0
    41014c08:	10607e73          	csrrci	x28,scounteren,0

0000000041014c0c <SID_ZICSR_17_passed>:
    41014c0c:	00f00f9b          	addiw	x31,x0,15
    41014c10:	01cf9f93          	slli	x31,x31,0x1c
    41014c14:	001f8f93          	addi	x31,x31,1
    41014c18:	00000073          	ecall

0000000041014c1c <SID_ZICSR_19>:
    41014c1c:	00f94137          	lui	x2,0xf94
    41014c20:	3f11011b          	addiw	x2,x2,1009 # f943f1 <SID_ZICSR_07_stack+0x4293f1>
    41014c24:	00f11113          	slli	x2,x2,0xf
    41014c28:	d9f10113          	addi	x2,x2,-609
    41014c2c:	00d11113          	slli	x2,x2,0xd
    41014c30:	77325fb7          	lui	x31,0x77325
    41014c34:	fc5f8f9b          	addiw	x31,x31,-59 # 77324fc5 <pma_region_2_end+0x322e3fc5>
    41014c38:	00cf9f93          	slli	x31,x31,0xc
    41014c3c:	f8ff8f93          	addi	x31,x31,-113
    41014c40:	00df9f93          	slli	x31,x31,0xd
    41014c44:	0a0f8f93          	addi	x31,x31,160
    41014c48:	00900f13          	li	x30,9
    41014c4c:	01efb023          	sd	x30,0(x31)
    41014c50:	000f0fb7          	lui	x31,0xf0
    41014c54:	001f8f9b          	addiw	x31,x31,1 # f0001 <pma_region_0_size+0xb0001>
    41014c58:	00cf9f93          	slli	x31,x31,0xc
    41014c5c:	005f8f93          	addi	x31,x31,5
    41014c60:	00000073          	ecall
    41014c64:	00713023          	sd	x7,0(x2)
    41014c68:	2645a137          	lui	x2,0x2645a
    41014c6c:	000012b7          	lui	x5,0x1
    41014c70:	00510133          	add	x2,x2,x5
    41014c74:	ff017113          	andi	x2,x2,-16
    41014c78:	fff00513          	li	x10,-1
    41014c7c:	00000e13          	li	x28,0
    41014c80:	01f00393          	li	x7,31
    41014c84:	14051873          	csrrw	x16,sscratch,x10
    41014c88:	14002473          	csrr	x8,sscratch
    41014c8c:	02a40263          	beq	x8,x10,41014cb0 <pass_label_0>
    41014c90:	773256b7          	lui	x13,0x77325
    41014c94:	fc56869b          	addiw	x13,x13,-59 # 77324fc5 <pma_region_2_end+0x322e3fc5>
    41014c98:	00c69693          	slli	x13,x13,0xc
    41014c9c:	f8f68693          	addi	x13,x13,-113
    41014ca0:	00d69693          	slli	x13,x13,0xd
    41014ca4:	00868693          	addi	x13,x13,8
    41014ca8:	0006b783          	ld	x15,0(x13)
    41014cac:	00078067          	jr	x15

0000000041014cb0 <pass_label_0>:
    41014cb0:	00000893          	li	x17,0
    41014cb4:	14089673          	csrrw	x12,sscratch,x17
    41014cb8:	14002ef3          	csrr	x29,sscratch
    41014cbc:	03ce8263          	beq	x29,x28,41014ce0 <pass_label_1>
    41014cc0:	773258b7          	lui	x17,0x77325
    41014cc4:	fc58889b          	addiw	x17,x17,-59 # 77324fc5 <pma_region_2_end+0x322e3fc5>
    41014cc8:	00c89893          	slli	x17,x17,0xc
    41014ccc:	f8f88893          	addi	x17,x17,-113
    41014cd0:	00d89893          	slli	x17,x17,0xd
    41014cd4:	00888893          	addi	x17,x17,8
    41014cd8:	0008ba83          	ld	x21,0(x17)
    41014cdc:	000a8067          	jr	x21

0000000041014ce0 <pass_label_1>:
    41014ce0:	14052473          	csrrs	x8,sscratch,x10
    41014ce4:	14002473          	csrr	x8,sscratch
    41014ce8:	02a40263          	beq	x8,x10,41014d0c <pass_label_2>
    41014cec:	773254b7          	lui	x9,0x77325
    41014cf0:	fc54849b          	addiw	x9,x9,-59 # 77324fc5 <pma_region_2_end+0x322e3fc5>
    41014cf4:	00c49493          	slli	x9,x9,0xc
    41014cf8:	f8f48493          	addi	x9,x9,-113
    41014cfc:	00d49493          	slli	x9,x9,0xd
    41014d00:	00848493          	addi	x9,x9,8
    41014d04:	0004bb83          	ld	x23,0(x9)
    41014d08:	000b8067          	jr	x23

0000000041014d0c <pass_label_2>:
    41014d0c:	14053c73          	csrrc	x24,sscratch,x10
    41014d10:	14002573          	csrr	x10,sscratch
    41014d14:	03c50263          	beq	x10,x28,41014d38 <pass_label_3>
    41014d18:	773257b7          	lui	x15,0x77325
    41014d1c:	fc57879b          	addiw	x15,x15,-59 # 77324fc5 <pma_region_2_end+0x322e3fc5>
    41014d20:	00c79793          	slli	x15,x15,0xc
    41014d24:	f8f78793          	addi	x15,x15,-113
    41014d28:	00d79793          	slli	x15,x15,0xd
    41014d2c:	00878793          	addi	x15,x15,8
    41014d30:	0007b703          	ld	x14,0(x15)
    41014d34:	00070067          	jr	x14

0000000041014d38 <pass_label_3>:
    41014d38:	140fddf3          	csrrwi	x27,sscratch,31
    41014d3c:	14002973          	csrr	x18,sscratch
    41014d40:	02790263          	beq	x18,x7,41014d64 <pass_label_4>
    41014d44:	77325c37          	lui	x24,0x77325
    41014d48:	fc5c0c1b          	addiw	x24,x24,-59 # 77324fc5 <pma_region_2_end+0x322e3fc5>
    41014d4c:	00cc1c13          	slli	x24,x24,0xc
    41014d50:	f8fc0c13          	addi	x24,x24,-113
    41014d54:	00dc1c13          	slli	x24,x24,0xd
    41014d58:	008c0c13          	addi	x24,x24,8
    41014d5c:	000c3f03          	ld	x30,0(x24)
    41014d60:	000f0067          	jr	x30

0000000041014d64 <pass_label_4>:
    41014d64:	14005773          	csrrwi	x14,sscratch,0
    41014d68:	14002df3          	csrr	x27,sscratch
    41014d6c:	03cd8263          	beq	x27,x28,41014d90 <pass_label_5>
    41014d70:	77325737          	lui	x14,0x77325
    41014d74:	fc57071b          	addiw	x14,x14,-59 # 77324fc5 <pma_region_2_end+0x322e3fc5>
    41014d78:	00c71713          	slli	x14,x14,0xc
    41014d7c:	f8f70713          	addi	x14,x14,-113
    41014d80:	00d71713          	slli	x14,x14,0xd
    41014d84:	00870713          	addi	x14,x14,8
    41014d88:	00073e83          	ld	x29,0(x14)
    41014d8c:	000e8067          	jr	x29

0000000041014d90 <pass_label_5>:
    41014d90:	140fe873          	csrrsi	x16,sscratch,31
    41014d94:	14002773          	csrr	x14,sscratch
    41014d98:	02770263          	beq	x14,x7,41014dbc <pass_label_6>
    41014d9c:	773254b7          	lui	x9,0x77325
    41014da0:	fc54849b          	addiw	x9,x9,-59 # 77324fc5 <pma_region_2_end+0x322e3fc5>
    41014da4:	00c49493          	slli	x9,x9,0xc
    41014da8:	f8f48493          	addi	x9,x9,-113
    41014dac:	00d49493          	slli	x9,x9,0xd
    41014db0:	00848493          	addi	x9,x9,8
    41014db4:	0004b683          	ld	x13,0(x9)
    41014db8:	00068067          	jr	x13

0000000041014dbc <pass_label_6>:
    41014dbc:	140ffc73          	csrrci	x24,sscratch,31
    41014dc0:	14002c73          	csrr	x24,sscratch
    41014dc4:	03cc0263          	beq	x24,x28,41014de8 <pass_label_7>
    41014dc8:	77325337          	lui	x6,0x77325
    41014dcc:	fc53031b          	addiw	x6,x6,-59 # 77324fc5 <pma_region_2_end+0x322e3fc5>
    41014dd0:	00c31313          	slli	x6,x6,0xc
    41014dd4:	f8f30313          	addi	x6,x6,-113
    41014dd8:	00d31313          	slli	x6,x6,0xd
    41014ddc:	00830313          	addi	x6,x6,8
    41014de0:	00033c83          	ld	x25,0(x6)
    41014de4:	000c8067          	jr	x25

0000000041014de8 <pass_label_7>:
    41014de8:	00f94137          	lui	x2,0xf94
    41014dec:	3f11011b          	addiw	x2,x2,1009 # f943f1 <SID_ZICSR_07_stack+0x4293f1>
    41014df0:	00f11113          	slli	x2,x2,0xf
    41014df4:	d9f10113          	addi	x2,x2,-609
    41014df8:	00d11113          	slli	x2,x2,0xd
    41014dfc:	00013383          	ld	x7,0(x2)
    41014e00:	77325fb7          	lui	x31,0x77325
    41014e04:	fc5f8f9b          	addiw	x31,x31,-59 # 77324fc5 <pma_region_2_end+0x322e3fc5>
    41014e08:	00cf9f93          	slli	x31,x31,0xc
    41014e0c:	f8ff8f93          	addi	x31,x31,-113
    41014e10:	00df9f93          	slli	x31,x31,0xd
    41014e14:	0a0f8f93          	addi	x31,x31,160
    41014e18:	00a00f13          	li	x30,10
    41014e1c:	01efb023          	sd	x30,0(x31)
    41014e20:	000f0fb7          	lui	x31,0xf0
    41014e24:	001f8f9b          	addiw	x31,x31,1 # f0001 <pma_region_0_size+0xb0001>
    41014e28:	00cf9f93          	slli	x31,x31,0xc
    41014e2c:	005f8f93          	addi	x31,x31,5
    41014e30:	00000073          	ecall

0000000041014e34 <SID_ZICSR_19_passed>:
    41014e34:	00f00f9b          	addiw	x31,x0,15
    41014e38:	01cf9f93          	slli	x31,x31,0x1c
    41014e3c:	001f8f93          	addi	x31,x31,1
    41014e40:	00000073          	ecall

0000000041014e44 <SID_ZICSR_20>:
    41014e44:	00f94137          	lui	x2,0xf94
    41014e48:	3f11011b          	addiw	x2,x2,1009 # f943f1 <SID_ZICSR_07_stack+0x4293f1>
    41014e4c:	00f11113          	slli	x2,x2,0xf
    41014e50:	d9f10113          	addi	x2,x2,-609
    41014e54:	00d11113          	slli	x2,x2,0xd
    41014e58:	77325fb7          	lui	x31,0x77325
    41014e5c:	fc5f8f9b          	addiw	x31,x31,-59 # 77324fc5 <pma_region_2_end+0x322e3fc5>
    41014e60:	00cf9f93          	slli	x31,x31,0xc
    41014e64:	f8ff8f93          	addi	x31,x31,-113
    41014e68:	00df9f93          	slli	x31,x31,0xd
    41014e6c:	0a0f8f93          	addi	x31,x31,160
    41014e70:	01900f13          	li	x30,25
    41014e74:	01efb023          	sd	x30,0(x31)
    41014e78:	000f0fb7          	lui	x31,0xf0
    41014e7c:	001f8f9b          	addiw	x31,x31,1 # f0001 <pma_region_0_size+0xb0001>
    41014e80:	00cf9f93          	slli	x31,x31,0xc
    41014e84:	005f8f93          	addi	x31,x31,5
    41014e88:	00000073          	ecall
    41014e8c:	00713023          	sd	x7,0(x2)
    41014e90:	19a83137          	lui	x2,0x19a83
    41014e94:	000012b7          	lui	x5,0x1
    41014e98:	00510133          	add	x2,x2,x5
    41014e9c:	ff017113          	andi	x2,x2,-16
    41014ea0:	0ff00393          	li	x7,255
    41014ea4:	00000993          	li	x19,0
    41014ea8:	01f00a93          	li	x21,31
    41014eac:	0ff00613          	li	x12,255
    41014eb0:	00339573          	fscsr	x10,x7
    41014eb4:	00302df3          	frcsr	x27
    41014eb8:	00cdf4b3          	and	x9,x27,x12
    41014ebc:	02748263          	beq	x9,x7,41014ee0 <pass_label_8>
    41014ec0:	773258b7          	lui	x17,0x77325
    41014ec4:	fc58889b          	addiw	x17,x17,-59 # 77324fc5 <pma_region_2_end+0x322e3fc5>
    41014ec8:	00c89893          	slli	x17,x17,0xc
    41014ecc:	f8f88893          	addi	x17,x17,-113
    41014ed0:	00d89893          	slli	x17,x17,0xd
    41014ed4:	00888893          	addi	x17,x17,8
    41014ed8:	0008b683          	ld	x13,0(x17)
    41014edc:	00068067          	jr	x13

0000000041014ee0 <pass_label_8>:
    41014ee0:	00000713          	li	x14,0
    41014ee4:	00371373          	fscsr	x6,x14
    41014ee8:	00302a73          	frcsr	x20
    41014eec:	00ca7c33          	and	x24,x20,x12
    41014ef0:	033c0263          	beq	x24,x19,41014f14 <pass_label_9>
    41014ef4:	77325837          	lui	x16,0x77325
    41014ef8:	fc58081b          	addiw	x16,x16,-59 # 77324fc5 <pma_region_2_end+0x322e3fc5>
    41014efc:	00c81813          	slli	x16,x16,0xc
    41014f00:	f8f80813          	addi	x16,x16,-113
    41014f04:	00d81813          	slli	x16,x16,0xd
    41014f08:	00880813          	addi	x16,x16,8
    41014f0c:	00083c83          	ld	x25,0(x16)
    41014f10:	000c8067          	jr	x25

0000000041014f14 <pass_label_9>:
    41014f14:	0033a473          	csrrs	x8,fcsr,x7
    41014f18:	00302373          	frcsr	x6
    41014f1c:	00c37333          	and	x6,x6,x12
    41014f20:	02730263          	beq	x6,x7,41014f44 <pass_label_10>
    41014f24:	773256b7          	lui	x13,0x77325
    41014f28:	fc56869b          	addiw	x13,x13,-59 # 77324fc5 <pma_region_2_end+0x322e3fc5>
    41014f2c:	00c69693          	slli	x13,x13,0xc
    41014f30:	f8f68693          	addi	x13,x13,-113
    41014f34:	00d69693          	slli	x13,x13,0xd
    41014f38:	00868693          	addi	x13,x13,8
    41014f3c:	0006b703          	ld	x14,0(x13)
    41014f40:	00070067          	jr	x14

0000000041014f44 <pass_label_10>:
    41014f44:	0033bff3          	csrrc	x31,fcsr,x7
    41014f48:	00302473          	frcsr	x8
    41014f4c:	00c473b3          	and	x7,x8,x12
    41014f50:	03338263          	beq	x7,x19,41014f74 <pass_label_11>
    41014f54:	773258b7          	lui	x17,0x77325
    41014f58:	fc58889b          	addiw	x17,x17,-59 # 77324fc5 <pma_region_2_end+0x322e3fc5>
    41014f5c:	00c89893          	slli	x17,x17,0xc
    41014f60:	f8f88893          	addi	x17,x17,-113
    41014f64:	00d89893          	slli	x17,x17,0xd
    41014f68:	00888893          	addi	x17,x17,8
    41014f6c:	0008be03          	ld	x28,0(x17)
    41014f70:	000e0067          	jr	x28

0000000041014f74 <pass_label_11>:
    41014f74:	003fd8f3          	csrrwi	x17,fcsr,31
    41014f78:	00302ef3          	frcsr	x29
    41014f7c:	00cefcb3          	and	x25,x29,x12
    41014f80:	035c8263          	beq	x25,x21,41014fa4 <pass_label_12>
    41014f84:	77325337          	lui	x6,0x77325
    41014f88:	fc53031b          	addiw	x6,x6,-59 # 77324fc5 <pma_region_2_end+0x322e3fc5>
    41014f8c:	00c31313          	slli	x6,x6,0xc
    41014f90:	f8f30313          	addi	x6,x6,-113
    41014f94:	00d31313          	slli	x6,x6,0xd
    41014f98:	00830313          	addi	x6,x6,8
    41014f9c:	00033403          	ld	x8,0(x6)
    41014fa0:	00040067          	jr	x8

0000000041014fa4 <pass_label_12>:
    41014fa4:	003055f3          	csrrwi	x11,fcsr,0
    41014fa8:	00302ef3          	frcsr	x29
    41014fac:	00cefcb3          	and	x25,x29,x12
    41014fb0:	033c8263          	beq	x25,x19,41014fd4 <pass_label_13>
    41014fb4:	77325937          	lui	x18,0x77325
    41014fb8:	fc59091b          	addiw	x18,x18,-59 # 77324fc5 <pma_region_2_end+0x322e3fc5>
    41014fbc:	00c91913          	slli	x18,x18,0xc
    41014fc0:	f8f90913          	addi	x18,x18,-113
    41014fc4:	00d91913          	slli	x18,x18,0xd
    41014fc8:	00890913          	addi	x18,x18,8
    41014fcc:	00093f83          	ld	x31,0(x18)
    41014fd0:	000f8067          	jr	x31

0000000041014fd4 <pass_label_13>:
    41014fd4:	003fe373          	csrrsi	x6,fcsr,31
    41014fd8:	00302ef3          	frcsr	x29
    41014fdc:	00cef533          	and	x10,x29,x12
    41014fe0:	03550263          	beq	x10,x21,41015004 <pass_label_14>
    41014fe4:	77325d37          	lui	x26,0x77325
    41014fe8:	fc5d0d1b          	addiw	x26,x26,-59 # 77324fc5 <pma_region_2_end+0x322e3fc5>
    41014fec:	00cd1d13          	slli	x26,x26,0xc
    41014ff0:	f8fd0d13          	addi	x26,x26,-113
    41014ff4:	00dd1d13          	slli	x26,x26,0xd
    41014ff8:	008d0d13          	addi	x26,x26,8
    41014ffc:	000d3a83          	ld	x21,0(x26)
    41015000:	000a8067          	jr	x21

0000000041015004 <pass_label_14>:
    41015004:	003ff5f3          	csrrci	x11,fcsr,31
    41015008:	003023f3          	frcsr	x7
    4101500c:	00c3f7b3          	and	x15,x7,x12
    41015010:	03378263          	beq	x15,x19,41015034 <pass_label_15>
    41015014:	77325337          	lui	x6,0x77325
    41015018:	fc53031b          	addiw	x6,x6,-59 # 77324fc5 <pma_region_2_end+0x322e3fc5>
    4101501c:	00c31313          	slli	x6,x6,0xc
    41015020:	f8f30313          	addi	x6,x6,-113
    41015024:	00d31313          	slli	x6,x6,0xd
    41015028:	00830313          	addi	x6,x6,8
    4101502c:	00033d83          	ld	x27,0(x6)
    41015030:	000d8067          	jr	x27

0000000041015034 <pass_label_15>:
    41015034:	00f94137          	lui	x2,0xf94
    41015038:	3f11011b          	addiw	x2,x2,1009 # f943f1 <SID_ZICSR_07_stack+0x4293f1>
    4101503c:	00f11113          	slli	x2,x2,0xf
    41015040:	d9f10113          	addi	x2,x2,-609
    41015044:	00d11113          	slli	x2,x2,0xd
    41015048:	00013383          	ld	x7,0(x2)
    4101504c:	77325fb7          	lui	x31,0x77325
    41015050:	fc5f8f9b          	addiw	x31,x31,-59 # 77324fc5 <pma_region_2_end+0x322e3fc5>
    41015054:	00cf9f93          	slli	x31,x31,0xc
    41015058:	f8ff8f93          	addi	x31,x31,-113
    4101505c:	00df9f93          	slli	x31,x31,0xd
    41015060:	0a0f8f93          	addi	x31,x31,160
    41015064:	01a00f13          	li	x30,26
    41015068:	01efb023          	sd	x30,0(x31)
    4101506c:	000f0fb7          	lui	x31,0xf0
    41015070:	001f8f9b          	addiw	x31,x31,1 # f0001 <pma_region_0_size+0xb0001>
    41015074:	00cf9f93          	slli	x31,x31,0xc
    41015078:	005f8f93          	addi	x31,x31,5
    4101507c:	00000073          	ecall

0000000041015080 <SID_ZICSR_20_passed>:
    41015080:	00f00f9b          	addiw	x31,x0,15
    41015084:	01cf9f93          	slli	x31,x31,0x1c
    41015088:	001f8f93          	addi	x31,x31,1
    4101508c:	00000073          	ecall

0000000041015090 <test_cleanup>:
    41015090:	00f00f9b          	addiw	x31,x0,15
    41015094:	01cf9f93          	slli	x31,x31,0x1c
    41015098:	001f8f93          	addi	x31,x31,1
    4101509c:	00000073          	ecall

00000000410150a0 <local_test_failed>:
    410150a0:	00f00f9b          	addiw	x31,x0,15
    410150a4:	01cf9f93          	slli	x31,x31,0x1c
    410150a8:	002f8f93          	addi	x31,x31,2
    410150ac:	00000073          	ecall

Disassembly of section .csr_machine_0:

0000000041214000 <csr_access_senvcfg_supervisor_key_2_write-0x90>:
    41214000:	434e0fb7          	lui	x31,0x434e0
    41214004:	0a0f8f9b          	addiw	x31,x31,160 # 434e00a0 <machine_csr_jump_table_flags_pa>
    41214008:	000fbf83          	ld	x31,0(x31)
    4121400c:	00200293          	li	x5,2
    41214010:	085f8063          	beq	x31,x5,41214090 <csr_access_senvcfg_supervisor_key_2_write>
    41214014:	00100293          	li	x5,1
    41214018:	085f8063          	beq	x31,x5,41214098 <csr_access_senvcfg_supervisor_key_1_read>
    4121401c:	00400293          	li	x5,4
    41214020:	085f8063          	beq	x31,x5,412140a0 <csr_access_stvec_supervisor_key_4_write>
    41214024:	00300293          	li	x5,3
    41214028:	085f8063          	beq	x31,x5,412140a8 <csr_access_stvec_supervisor_key_3_read>
    4121402c:	00600293          	li	x5,6
    41214030:	085f8063          	beq	x31,x5,412140b0 <csr_access_stval_supervisor_key_6_write>
    41214034:	00500293          	li	x5,5
    41214038:	085f8063          	beq	x31,x5,412140b8 <csr_access_stval_supervisor_key_5_read>
    4121403c:	00a00293          	li	x5,10
    41214040:	085f8063          	beq	x31,x5,412140c0 <csr_access_sscratch_supervisor_key_10_write>
    41214044:	00900293          	li	x5,9
    41214048:	085f8063          	beq	x31,x5,412140c8 <csr_access_sscratch_supervisor_key_9_read>
    4121404c:	01000293          	li	x5,16
    41214050:	085f8063          	beq	x31,x5,412140d0 <csr_access_sepc_supervisor_key_16_write>
    41214054:	00f00293          	li	x5,15
    41214058:	085f8063          	beq	x31,x5,412140d8 <csr_access_sepc_supervisor_key_15_read>
    4121405c:	01a00293          	li	x5,26
    41214060:	085f8063          	beq	x31,x5,412140e0 <csr_access_fcsr_user_key_26_write>
    41214064:	01900293          	li	x5,25
    41214068:	085f8063          	beq	x31,x5,412140e8 <csr_access_fcsr_user_key_25_read>
    4121406c:	01c00293          	li	x5,28
    41214070:	085f8063          	beq	x31,x5,412140f0 <csr_access_mstatus_machine_key_28_set>
    41214074:	01b00293          	li	x5,27
    41214078:	085f8063          	beq	x31,x5,412140f8 <csr_access_mstatus_machine_key_27_clear>
    4121407c:	01e00293          	li	x5,30
    41214080:	085f8063          	beq	x31,x5,41214100 <csr_access_mtvec_machine_key_30_set>
    41214084:	01d00293          	li	x5,29
    41214088:	085f8063          	beq	x31,x5,41214108 <csr_access_mtvec_machine_key_29_clear>
    4121408c:	0840006f          	j	41214110 <end_machine_label>

0000000041214090 <csr_access_senvcfg_supervisor_key_2_write>:
    41214090:	10a39073          	csrw	0x10a,x7
    41214094:	07c0006f          	j	41214110 <end_machine_label>

0000000041214098 <csr_access_senvcfg_supervisor_key_1_read>:
    41214098:	10a023f3          	csrr	x7,0x10a
    4121409c:	0740006f          	j	41214110 <end_machine_label>

00000000412140a0 <csr_access_stvec_supervisor_key_4_write>:
    412140a0:	10539073          	csrw	stvec,x7
    412140a4:	06c0006f          	j	41214110 <end_machine_label>

00000000412140a8 <csr_access_stvec_supervisor_key_3_read>:
    412140a8:	105023f3          	csrr	x7,stvec
    412140ac:	0640006f          	j	41214110 <end_machine_label>

00000000412140b0 <csr_access_stval_supervisor_key_6_write>:
    412140b0:	14339073          	csrw	stval,x7
    412140b4:	05c0006f          	j	41214110 <end_machine_label>

00000000412140b8 <csr_access_stval_supervisor_key_5_read>:
    412140b8:	143023f3          	csrr	x7,stval
    412140bc:	0540006f          	j	41214110 <end_machine_label>

00000000412140c0 <csr_access_sscratch_supervisor_key_10_write>:
    412140c0:	14039073          	csrw	sscratch,x7
    412140c4:	04c0006f          	j	41214110 <end_machine_label>

00000000412140c8 <csr_access_sscratch_supervisor_key_9_read>:
    412140c8:	140023f3          	csrr	x7,sscratch
    412140cc:	0440006f          	j	41214110 <end_machine_label>

00000000412140d0 <csr_access_sepc_supervisor_key_16_write>:
    412140d0:	14139073          	csrw	sepc,x7
    412140d4:	03c0006f          	j	41214110 <end_machine_label>

00000000412140d8 <csr_access_sepc_supervisor_key_15_read>:
    412140d8:	141023f3          	csrr	x7,sepc
    412140dc:	0340006f          	j	41214110 <end_machine_label>

00000000412140e0 <csr_access_fcsr_user_key_26_write>:
    412140e0:	00339073          	fscsr	x7
    412140e4:	02c0006f          	j	41214110 <end_machine_label>

00000000412140e8 <csr_access_fcsr_user_key_25_read>:
    412140e8:	003023f3          	frcsr	x7
    412140ec:	0240006f          	j	41214110 <end_machine_label>

00000000412140f0 <csr_access_mstatus_machine_key_28_set>:
    412140f0:	3003a073          	csrs	mstatus,x7
    412140f4:	01c0006f          	j	41214110 <end_machine_label>

00000000412140f8 <csr_access_mstatus_machine_key_27_clear>:
    412140f8:	3003b073          	csrc	mstatus,x7
    412140fc:	0140006f          	j	41214110 <end_machine_label>

0000000041214100 <csr_access_mtvec_machine_key_30_set>:
    41214100:	3053a073          	csrs	mtvec,x7
    41214104:	00c0006f          	j	41214110 <end_machine_label>

0000000041214108 <csr_access_mtvec_machine_key_29_clear>:
    41214108:	3053b073          	csrc	mtvec,x7
    4121410c:	0040006f          	j	41214110 <end_machine_label>

0000000041214110 <end_machine_label>:
    41214110:	000f0fb7          	lui	x31,0xf0
    41214114:	001f8f9b          	addiw	x31,x31,1 # f0001 <pma_region_0_size+0xb0001>
    41214118:	00cf9f93          	slli	x31,x31,0xc
    4121411c:	004f8f93          	addi	x31,x31,4
    41214120:	00000073          	ecall

Disassembly of section .csr_super_0:

0000000041215000 <end_super_label-0x20>:
    41215000:	77325fb7          	lui	x31,0x77325
    41215004:	fc5f8f9b          	addiw	x31,x31,-59 # 77324fc5 <pma_region_2_end+0x322e3fc5>
    41215008:	00cf9f93          	slli	x31,x31,0xc
    4121500c:	f8ff8f93          	addi	x31,x31,-113
    41215010:	00df9f93          	slli	x31,x31,0xd
    41215014:	0a8f8f93          	addi	x31,x31,168
    41215018:	000fbf83          	ld	x31,0(x31)
    4121501c:	0040006f          	j	41215020 <end_super_label>

0000000041215020 <end_super_label>:
    41215020:	000f0fb7          	lui	x31,0xf0
    41215024:	001f8f9b          	addiw	x31,x31,1 # f0001 <pma_region_0_size+0xb0001>
    41215028:	00cf9f93          	slli	x31,x31,0xc
    4121502c:	004f8f93          	addi	x31,x31,4
    41215030:	00000073          	ecall

Disassembly of section .os_data:

00ee649f89f1e000 <passed_addr_ptr>:
  ee649f89f1e000:	4070                	.insn	2, 0x4070
  ee649f89f1e002:	4101                	.insn	2, 0x4101
  ee649f89f1e004:	0000                	.insn	2, 0x0000
	...

00ee649f89f1e008 <failed_addr_ptr>:
  ee649f89f1e008:	4080                	.insn	2, 0x4080
  ee649f89f1e00a:	4101                	.insn	2, 0x4101
  ee649f89f1e00c:	0000                	.insn	2, 0x0000
	...

00ee649f89f1e010 <end_test_addr_ptr>:
  ee649f89f1e010:	4090                	.insn	2, 0x4090
  ee649f89f1e012:	4101                	.insn	2, 0x4101
  ee649f89f1e014:	0000                	.insn	2, 0x0000
	...

00ee649f89f1e018 <os_passed_addr_ptr>:
  ee649f89f1e018:	0784                	.insn	2, 0x0784
  ee649f89f1e01a:	4100                	.insn	2, 0x4100
  ee649f89f1e01c:	0000                	.insn	2, 0x0000
	...

00ee649f89f1e020 <os_failed_addr_ptr>:
  ee649f89f1e020:	0794                	.insn	2, 0x0794
  ee649f89f1e022:	4100                	.insn	2, 0x4100
  ee649f89f1e024:	0000                	.insn	2, 0x0000
	...

00ee649f89f1e028 <os_end_test_addr_ptr>:
  ee649f89f1e028:	07a0                	.insn	2, 0x07a0
  ee649f89f1e02a:	4100                	.insn	2, 0x4100
  ee649f89f1e02c:	0000                	.insn	2, 0x0000
	...

00ee649f89f1e030 <rvcp_prefix_str_data>:
  ee649f89f1e030:	5652                	.insn	2, 0x5652
  ee649f89f1e032:	203a5043          	fmadd.s	f0,f20,f3,f4,unknown
  ee649f89f1e036:	6554                	.insn	2, 0x6554
  ee649f89f1e038:	46207473          	csrrci	x8,0x462,0
  ee649f89f1e03c:	6c69                	.insn	2, 0x6c69
  ee649f89f1e03e:	2065                	.insn	2, 0x2065
	...

00ee649f89f1e041 <rvcp_testname_str_data>:
  ee649f89f1e041:	7074                	.insn	2, 0x7074
  ee649f89f1e043:	7a5f 6369 7273      	.insn	6, 0x727363697a5f
  ee649f89f1e049:	325f        	.insn	6, 0x53415000325f

00ee649f89f1e04c <rvcp_passed_str_data>:
  ee649f89f1e04c:	4150                	.insn	2, 0x4150
  ee649f89f1e04e:	44455353          	fround.h	f6,f10,unknown
	...

00ee649f89f1e053 <rvcp_failed_str_data>:
  ee649f89f1e053:	4146                	.insn	2, 0x4146
  ee649f89f1e055:	4c49                	.insn	2, 0x4c49
  ee649f89f1e057:	4445                	.insn	2, 0x4445
	...

00ee649f89f1e05a <rvcp_space_str_data>:
  ee649f89f1e05a:	0020                	.insn	2, 0x0020

00ee649f89f1e05c <rvcp_newline_str_data>:
  ee649f89f1e05c:	000a                	.insn	2, 0x000a
	...

00ee649f89f1e060 <excp_ignored_count_mem>:
	...

00ee649f89f1e068 <machine_flags_mem>:
	...

00ee649f89f1e070 <user_flags_mem>:
	...

00ee649f89f1e078 <super_flags_mem>:
	...

00ee649f89f1e080 <machine_area_mem>:
	...

00ee649f89f1e088 <user_area_mem>:
	...

00ee649f89f1e090 <super_area_mem>:
	...

00ee649f89f1e098 <zero_data_mem>:
	...

00ee649f89f1e0a0 <machine_csr_jump_table_flags_mem>:
	...

00ee649f89f1e0a8 <super_csr_jump_table_flags_mem>:
	...

00ee649f89f1e0b0 <pte_access_flags_mem>:
	...

00ee649f89f1e0c8 <num_harts_ended_mem>:
	...

00ee649f89f1e0d0 <num_hard_fails_mem>:
	...

Disassembly of section .hart_context:

0000061ad1895000 <hart_context_0>:
 61ad1895000:	9000                	.insn	2, 0x9000
	...
 61ad1895016:	0000                	.insn	2, 0x0000
 61ad1895018:	0001                	.insn	2, 0x0001
 61ad189501a:	0000                	.insn	2, 0x0000
 61ad189501c:	0000                	.insn	2, 0x0000
 61ad189501e:	0000                	.insn	2, 0x0000
 61ad1895020:	ffff                	.insn	2, 0xffff
 61ad1895022:	ffff                	.insn	2, 0xffff
 61ad1895024:	ffff                	.insn	2, 0xffff
 61ad1895026:	ffff                	.insn	2, 0xffff
 61ad1895028:	ffff                	.insn	2, 0xffff
 61ad189502a:	ffff                	.insn	2, 0xffff
 61ad189502c:	ffff                	.insn	2, 0xffff
 61ad189502e:	ffff                	.insn	2, 0xffff
 61ad1895030:	ffff                	.insn	2, 0xffff
 61ad1895032:	ffff                	.insn	2, 0xffff
 61ad1895034:	ffff                	.insn	2, 0xffff
 61ad1895036:	ffff                	.insn	2, 0xffff
	...
 61ad1895050:	00ff 0000 0000 0000 	.insn	10, 0x00ff00000000000000ff
 61ad1895058:	00ff 
	...
 61ad1895176:	0000                	.insn	2, 0x0000
 61ad1895178:	ffff                	.insn	2, 0xffff
 61ad189517a:	ffff                	.insn	2, 0xffff
 61ad189517c:	ffff                	.insn	2, 0xffff
 61ad189517e:	ffff                	.insn	2, 0xffff
	...
 61ad1895188:	ffff                	.insn	2, 0xffff
 61ad189518a:	ffff                	.insn	2, 0xffff
	...

Disassembly of section .hart_stack_0:

0000000000008000 <hart_stack_0>:
	...

Disassembly of section .io_htif:

0000000041040000 <tohost>:
	...

0000000041040040 <fromhost>:
	...

Disassembly of section .tp_csr_storage:

000f943f0fb3e000 <.tp_csr_storage>:
   f943f0fb3e000:	c0de                	.insn	2, 0xc0de
   f943f0fb3e002:	c001                	.insn	2, 0xc001
   f943f0fb3e004:	0000                	.insn	2, 0x0000
	...

Disassembly of section .SID_ZICSR_01_stack:

0000000000665000 <.SID_ZICSR_01_stack>:
  665000:	c0de                	.insn	2, 0xc0de
  665002:	c001                	.insn	2, 0xc001
  665004:	0000                	.insn	2, 0x0000
	...

Disassembly of section .SID_ZICSR_02_stack:

0000000000176000 <.SID_ZICSR_02_stack>:
  176000:	c0de                	.insn	2, 0xc0de
  176002:	c001                	.insn	2, 0xc001
  176004:	0000                	.insn	2, 0x0000
	...

Disassembly of section .SID_ZICSR_03_stack:

0000000015cd9000 <.SID_ZICSR_03_stack>:
    15cd9000:	c0de                	.insn	2, 0xc0de
    15cd9002:	c001                	.insn	2, 0xc001
    15cd9004:	0000                	.insn	2, 0x0000
	...

Disassembly of section .SID_ZICSR_04_stack:

0000000000002000 <.SID_ZICSR_04_stack>:
    2000:	c0de                	.insn	2, 0xc0de
    2002:	c001                	.insn	2, 0xc001
    2004:	0000                	.insn	2, 0x0000
	...

Disassembly of section .SID_ZICSR_05_stack:

000000000487f000 <.SID_ZICSR_05_stack>:
 487f000:	c0de                	.insn	2, 0xc0de
 487f002:	c001                	.insn	2, 0xc001
 487f004:	0000                	.insn	2, 0x0000
	...

Disassembly of section .SID_ZICSR_06_stack:

0000000000016000 <.SID_ZICSR_06_stack>:
   16000:	c0de                	.insn	2, 0xc0de
   16002:	c001                	.insn	2, 0xc001
   16004:	0000                	.insn	2, 0x0000
	...

Disassembly of section .SID_ZICSR_07_stack:

0000000000b6b000 <.SID_ZICSR_07_stack>:
  b6b000:	c0de                	.insn	2, 0xc0de
  b6b002:	c001                	.insn	2, 0xc001
  b6b004:	0000                	.insn	2, 0x0000
	...

Disassembly of section .SID_ZICSR_08_stack:

00000079c1df2000 <.SID_ZICSR_08_stack>:
  79c1df2000:	c0de                	.insn	2, 0xc0de
  79c1df2002:	c001                	.insn	2, 0xc001
  79c1df2004:	0000                	.insn	2, 0x0000
	...

Disassembly of section .SID_ZICSR_09_stack:

0026a2407e241000 <.SID_ZICSR_09_stack>:
  26a2407e241000:	c0de                	.insn	2, 0xc0de
  26a2407e241002:	c001                	.insn	2, 0xc001
  26a2407e241004:	0000                	.insn	2, 0x0000
	...

Disassembly of section .SID_ZICSR_10_stack:

0000000000004000 <.SID_ZICSR_10_stack>:
    4000:	c0de                	.insn	2, 0xc0de
    4002:	c001                	.insn	2, 0xc001
    4004:	0000                	.insn	2, 0x0000
	...

Disassembly of section .SID_ZICSR_11_stack:

000ff9d1ef4f6000 <.SID_ZICSR_11_stack>:
   ff9d1ef4f6000:	c0de                	.insn	2, 0xc0de
   ff9d1ef4f6002:	c001                	.insn	2, 0xc001
   ff9d1ef4f6004:	0000                	.insn	2, 0x0000
	...

Disassembly of section .SID_ZICSR_12_stack:

0000ce8e2460a000 <.SID_ZICSR_12_stack>:
    ce8e2460a000:	c0de                	.insn	2, 0xc0de
    ce8e2460a002:	c001                	.insn	2, 0xc001
    ce8e2460a004:	0000                	.insn	2, 0x0000
	...

Disassembly of section .SID_ZICSR_13_stack:

000000000120b000 <.SID_ZICSR_13_stack>:
 120b000:	c0de                	.insn	2, 0xc0de
 120b002:	c001                	.insn	2, 0xc001
 120b004:	0000                	.insn	2, 0x0000
	...

Disassembly of section .SID_ZICSR_14_stack:

0000000f2ec9e000 <.SID_ZICSR_14_stack>:
   f2ec9e000:	c0de                	.insn	2, 0xc0de
   f2ec9e002:	c001                	.insn	2, 0xc001
   f2ec9e004:	0000                	.insn	2, 0x0000
	...

Disassembly of section .SID_ZICSR_15_stack:

0000000096dd5000 <.SID_ZICSR_15_stack>:
    96dd5000:	c0de                	.insn	2, 0xc0de
    96dd5002:	c001                	.insn	2, 0xc001
    96dd5004:	0000                	.insn	2, 0x0000
	...

Disassembly of section .SID_ZICSR_16_stack:

00004b98e4172000 <.SID_ZICSR_16_stack>:
    4b98e4172000:	c0de                	.insn	2, 0xc0de
    4b98e4172002:	c001                	.insn	2, 0xc001
    4b98e4172004:	0000                	.insn	2, 0x0000
	...

Disassembly of section .SID_ZICSR_17_stack:

00000000046d5000 <.SID_ZICSR_17_stack>:
 46d5000:	c0de                	.insn	2, 0xc0de
 46d5002:	c001                	.insn	2, 0xc001
 46d5004:	0000                	.insn	2, 0x0000
	...

Disassembly of section .SID_ZICSR_19_stack:

000000002645a000 <.SID_ZICSR_19_stack>:
    2645a000:	c0de                	.insn	2, 0xc0de
    2645a002:	c001                	.insn	2, 0xc001
    2645a004:	0000                	.insn	2, 0x0000
	...

Disassembly of section .SID_ZICSR_20_stack:

0000000019a83000 <.SID_ZICSR_20_stack>:
    19a83000:	c0de                	.insn	2, 0xc0de
    19a83002:	c001                	.insn	2, 0xc001
    19a83004:	0000                	.insn	2, 0x0000
	...

Disassembly of section .__pagetable_map_os_0x00000000418fc000:

00000000418fc000 <__pagetable_map_os_0x00000000418fc000>:
    418fc000:	8c01                	.insn	2, 0x8c01
    418fc002:	104a                	.insn	2, 0x104a
	...
    418fc078:	f401                	.insn	2, 0xf401
    418fc07a:	1050                	.insn	2, 0x1050
	...
    418fc130:	6401                	.insn	2, 0x6401
    418fc132:	0000104f          	fnmadd.s	f0,f0,f0,f0,rtz
	...
    418fc76e:	0000                	.insn	2, 0x0000
    418fc770:	e401                	.insn	2, 0xe401
    418fc772:	1048                	.insn	2, 0x1048
    418fc774:	0000                	.insn	2, 0x0000
	...

Disassembly of section .__pagetable_map_os_0x00000000412a3000:

00000000412a3000 <__pagetable_map_os_0x00000000412a3000>:
    412a3000:	fc01                	.insn	2, 0xfc01
    412a3002:	1068                	.insn	2, 0x1068
	...
    412a3060:	7801                	.insn	2, 0x7801
    412a3062:	105a                	.insn	2, 0x105a
	...
    412a30f0:	bc01                	.insn	2, 0xbc01
    412a30f2:	00001063          	bnez	x0,412a30f2 <__pagetable_map_os_0x00000000412a3000+0xf2>
	...
    412a34b6:	0000                	.insn	2, 0x0000
    412a34b8:	ec01                	.insn	2, 0xec01
    412a34ba:	000010cf          	fnmadd.s	f1,f0,f0,f0,rtz
	...
    412a3ce6:	0000                	.insn	2, 0x0000
    412a3ce8:	ac01                	.insn	2, 0xac01
    412a3cea:	00001063          	bnez	x0,412a3cea <__pagetable_map_os_0x00000000412a3000+0xcea>
	...

Disassembly of section .__pagetable_map_os_0x0000000041a3f000:

0000000041a3f000 <__pagetable_map_os_0x0000000041a3f000>:
    41a3f000:	8801                	.insn	2, 0x8801
    41a3f002:	105a                	.insn	2, 0x105a
    41a3f004:	0000                	.insn	2, 0x0000
    41a3f006:	0000                	.insn	2, 0x0000
    41a3f008:	3801                	.insn	2, 0x3801
    41a3f00a:	105e                	.insn	2, 0x105e
    41a3f00c:	0000                	.insn	2, 0x0000
    41a3f00e:	0000                	.insn	2, 0x0000
    41a3f010:	fc01                	.insn	2, 0xfc01
    41a3f012:	10ce                	.insn	2, 0x10ce
	...
    41a3f1e0:	ac01                	.insn	2, 0xac01
    41a3f1e2:	106a                	.insn	2, 0x106a
	...
    41a3ff38:	0c01                	.insn	2, 0x0c01
    41a3ff3a:	105a                	.insn	2, 0x105a
    41a3ff3c:	0000                	.insn	2, 0x0000
	...

Disassembly of section .__pagetable_map_os_0x000000004178e000:

000000004178e000 <__pagetable_map_os_0x000000004178e000>:
	...
    4178e040:	1c01                	.insn	2, 0x1c01
    4178e042:	00001063          	bnez	x0,4178e042 <__pagetable_map_os_0x000000004178e000+0x42>
    4178e046:	0000                	.insn	2, 0x0000
    4178e048:	1401                	.insn	2, 0x1401
    4178e04a:	00001063          	bnez	x0,4178e04a <__pagetable_map_os_0x000000004178e000+0x4a>
	...
    4178e05e:	0000                	.insn	2, 0x0000
    4178e060:	5001                	.insn	2, 0x5001
    4178e062:	00001063          	bnez	x0,4178e062 <__pagetable_map_os_0x000000004178e000+0x62>
	...

Disassembly of section .__pagetable_map_os_0x00000000418c7000:

00000000418c7000 <__pagetable_map_os_0x00000000418c7000>:
	...
    418c7080:	104040cf          	fnmadd.s	f1,f0,f4,f2,rmm
    418c7084:	0000                	.insn	2, 0x0000
    418c7086:	0000                	.insn	2, 0x0000
    418c7088:	104044cf          	fnmadd.s	f9,f0,f4,f2,rmm
    418c708c:	0000                	.insn	2, 0x0000
    418c708e:	0000                	.insn	2, 0x0000
    418c7090:	104048cf          	fnmadd.s	f17,f0,f4,f2,rmm
    418c7094:	0000                	.insn	2, 0x0000
    418c7096:	0000                	.insn	2, 0x0000
    418c7098:	10404ccf          	fnmadd.s	f25,f0,f4,f2,rmm
    418c709c:	0000                	.insn	2, 0x0000
    418c709e:	0000                	.insn	2, 0x0000
    418c70a0:	10a800cf          	fnmadd.s	f1,f16,f10,f2,rne
    418c70a4:	0000                	.insn	2, 0x0000
    418c70a6:	0000                	.insn	2, 0x0000
    418c70a8:	10a804cf          	fnmadd.s	f9,f16,f10,f2,rne
    418c70ac:	0000                	.insn	2, 0x0000
    418c70ae:	0000                	.insn	2, 0x0000
    418c70b0:	10a808cf          	fnmadd.s	f17,f16,f10,f2,rne
    418c70b4:	0000                	.insn	2, 0x0000
    418c70b6:	0000                	.insn	2, 0x0000
    418c70b8:	10a80ccf          	fnmadd.s	f25,f16,f10,f2,rne
    418c70bc:	0000                	.insn	2, 0x0000
    418c70be:	0000                	.insn	2, 0x0000
    418c70c0:	10a810cf          	fnmadd.s	f1,f16,f10,f2,rtz
    418c70c4:	0000                	.insn	2, 0x0000
    418c70c6:	0000                	.insn	2, 0x0000
    418c70c8:	10a814cf          	fnmadd.s	f9,f16,f10,f2,rtz
    418c70cc:	0000                	.insn	2, 0x0000
    418c70ce:	0000                	.insn	2, 0x0000
    418c70d0:	10a818cf          	fnmadd.s	f17,f16,f10,f2,rtz
    418c70d4:	0000                	.insn	2, 0x0000
    418c70d6:	0000                	.insn	2, 0x0000
    418c70d8:	10a81ccf          	fnmadd.s	f25,f16,f10,f2,rtz
    418c70dc:	0000                	.insn	2, 0x0000
    418c70de:	0000                	.insn	2, 0x0000
    418c70e0:	10a820cf          	fnmadd.s	f1,f16,f10,f2,rdn
    418c70e4:	0000                	.insn	2, 0x0000
    418c70e6:	0000                	.insn	2, 0x0000
    418c70e8:	10a824cf          	fnmadd.s	f9,f16,f10,f2,rdn
    418c70ec:	0000                	.insn	2, 0x0000
    418c70ee:	0000                	.insn	2, 0x0000
    418c70f0:	10a828cf          	fnmadd.s	f17,f16,f10,f2,rdn
    418c70f4:	0000                	.insn	2, 0x0000
    418c70f6:	0000                	.insn	2, 0x0000
    418c70f8:	10a82ccf          	fnmadd.s	f25,f16,f10,f2,rdn
    418c70fc:	0000                	.insn	2, 0x0000
    418c70fe:	0000                	.insn	2, 0x0000
    418c7100:	10a830cf          	fnmadd.s	f1,f16,f10,f2,rup
    418c7104:	0000                	.insn	2, 0x0000
    418c7106:	0000                	.insn	2, 0x0000
    418c7108:	10a834cf          	fnmadd.s	f9,f16,f10,f2,rup
    418c710c:	0000                	.insn	2, 0x0000
    418c710e:	0000                	.insn	2, 0x0000
    418c7110:	10a838cf          	fnmadd.s	f17,f16,f10,f2,rup
    418c7114:	0000                	.insn	2, 0x0000
    418c7116:	0000                	.insn	2, 0x0000
    418c7118:	10a83ccf          	fnmadd.s	f25,f16,f10,f2,rup
    418c711c:	0000                	.insn	2, 0x0000
    418c711e:	0000                	.insn	2, 0x0000
    418c7120:	10a840cf          	fnmadd.s	f1,f16,f10,f2,rmm
    418c7124:	0000                	.insn	2, 0x0000
    418c7126:	0000                	.insn	2, 0x0000
    418c7128:	10a844cf          	fnmadd.s	f9,f16,f10,f2,rmm
    418c712c:	0000                	.insn	2, 0x0000
    418c712e:	0000                	.insn	2, 0x0000
    418c7130:	10a848cf          	fnmadd.s	f17,f16,f10,f2,rmm
    418c7134:	0000                	.insn	2, 0x0000
    418c7136:	0000                	.insn	2, 0x0000
    418c7138:	10a84ccf          	fnmadd.s	f25,f16,f10,f2,rmm
    418c713c:	0000                	.insn	2, 0x0000
    418c713e:	0000                	.insn	2, 0x0000
    418c7140:	10a850cf          	fnmadd.s	f1,f16,f10,f2,unknown
    418c7144:	0000                	.insn	2, 0x0000
    418c7146:	0000                	.insn	2, 0x0000
    418c7148:	10a854cf          	fnmadd.s	f9,f16,f10,f2,unknown
    418c714c:	0000                	.insn	2, 0x0000
    418c714e:	0000                	.insn	2, 0x0000
    418c7150:	10a858cf          	fnmadd.s	f17,f16,f10,f2,unknown
    418c7154:	0000                	.insn	2, 0x0000
    418c7156:	0000                	.insn	2, 0x0000
    418c7158:	10a85ccf          	fnmadd.s	f25,f16,f10,f2,unknown
    418c715c:	0000                	.insn	2, 0x0000
    418c715e:	0000                	.insn	2, 0x0000
    418c7160:	10a860cf          	fnmadd.s	f1,f16,f10,f2,unknown
    418c7164:	0000                	.insn	2, 0x0000
    418c7166:	0000                	.insn	2, 0x0000
    418c7168:	10a864cf          	fnmadd.s	f9,f16,f10,f2,unknown
    418c716c:	0000                	.insn	2, 0x0000
    418c716e:	0000                	.insn	2, 0x0000
    418c7170:	10a868cf          	fnmadd.s	f17,f16,f10,f2,unknown
    418c7174:	0000                	.insn	2, 0x0000
    418c7176:	0000                	.insn	2, 0x0000
    418c7178:	10a86ccf          	fnmadd.s	f25,f16,f10,f2,unknown
    418c717c:	0000                	.insn	2, 0x0000
    418c717e:	0000                	.insn	2, 0x0000
    418c7180:	10a870cf          	fnmadd.s	f1,f16,f10,f2
    418c7184:	0000                	.insn	2, 0x0000
    418c7186:	0000                	.insn	2, 0x0000
    418c7188:	10a874cf          	fnmadd.s	f9,f16,f10,f2
    418c718c:	0000                	.insn	2, 0x0000
    418c718e:	0000                	.insn	2, 0x0000
    418c7190:	10a878cf          	fnmadd.s	f17,f16,f10,f2
    418c7194:	0000                	.insn	2, 0x0000
    418c7196:	0000                	.insn	2, 0x0000
    418c7198:	10a87ccf          	fnmadd.s	f25,f16,f10,f2
    418c719c:	0000                	.insn	2, 0x0000
    418c719e:	0000                	.insn	2, 0x0000
    418c71a0:	10a880cf          	fnmadd.s	f1,f17,f10,f2,rne
    418c71a4:	0000                	.insn	2, 0x0000
    418c71a6:	0000                	.insn	2, 0x0000
    418c71a8:	10a884cf          	fnmadd.s	f9,f17,f10,f2,rne
    418c71ac:	0000                	.insn	2, 0x0000
    418c71ae:	0000                	.insn	2, 0x0000
    418c71b0:	10a888cf          	fnmadd.s	f17,f17,f10,f2,rne
    418c71b4:	0000                	.insn	2, 0x0000
    418c71b6:	0000                	.insn	2, 0x0000
    418c71b8:	10a88ccf          	fnmadd.s	f25,f17,f10,f2,rne
    418c71bc:	0000                	.insn	2, 0x0000
    418c71be:	0000                	.insn	2, 0x0000
    418c71c0:	10a890cf          	fnmadd.s	f1,f17,f10,f2,rtz
    418c71c4:	0000                	.insn	2, 0x0000
    418c71c6:	0000                	.insn	2, 0x0000
    418c71c8:	10a894cf          	fnmadd.s	f9,f17,f10,f2,rtz
    418c71cc:	0000                	.insn	2, 0x0000
    418c71ce:	0000                	.insn	2, 0x0000
    418c71d0:	10a898cf          	fnmadd.s	f17,f17,f10,f2,rtz
    418c71d4:	0000                	.insn	2, 0x0000
    418c71d6:	0000                	.insn	2, 0x0000
    418c71d8:	10a89ccf          	fnmadd.s	f25,f17,f10,f2,rtz
    418c71dc:	0000                	.insn	2, 0x0000
    418c71de:	0000                	.insn	2, 0x0000
    418c71e0:	10a8a0cf          	fnmadd.s	f1,f17,f10,f2,rdn
    418c71e4:	0000                	.insn	2, 0x0000
    418c71e6:	0000                	.insn	2, 0x0000
    418c71e8:	10a8a4cf          	fnmadd.s	f9,f17,f10,f2,rdn
    418c71ec:	0000                	.insn	2, 0x0000
    418c71ee:	0000                	.insn	2, 0x0000
    418c71f0:	10a8a8cf          	fnmadd.s	f17,f17,f10,f2,rdn
    418c71f4:	0000                	.insn	2, 0x0000
    418c71f6:	0000                	.insn	2, 0x0000
    418c71f8:	10a8accf          	fnmadd.s	f25,f17,f10,f2,rdn
    418c71fc:	0000                	.insn	2, 0x0000
    418c71fe:	0000                	.insn	2, 0x0000
    418c7200:	104100cf          	fnmadd.s	f1,f2,f4,f2,rne
    418c7204:	0000                	.insn	2, 0x0000
    418c7206:	0000                	.insn	2, 0x0000
    418c7208:	10a8b4cf          	fnmadd.s	f9,f17,f10,f2,rup
    418c720c:	0000                	.insn	2, 0x0000
    418c720e:	0000                	.insn	2, 0x0000
    418c7210:	10a8b8cf          	fnmadd.s	f17,f17,f10,f2,rup
    418c7214:	0000                	.insn	2, 0x0000
    418c7216:	0000                	.insn	2, 0x0000
    418c7218:	10a8bccf          	fnmadd.s	f25,f17,f10,f2,rup
    418c721c:	0000                	.insn	2, 0x0000
    418c721e:	0000                	.insn	2, 0x0000
    418c7220:	10a8c0cf          	fnmadd.s	f1,f17,f10,f2,rmm
    418c7224:	0000                	.insn	2, 0x0000
    418c7226:	0000                	.insn	2, 0x0000
    418c7228:	10a8c4cf          	fnmadd.s	f9,f17,f10,f2,rmm
    418c722c:	0000                	.insn	2, 0x0000
    418c722e:	0000                	.insn	2, 0x0000
    418c7230:	10a8c8cf          	fnmadd.s	f17,f17,f10,f2,rmm
    418c7234:	0000                	.insn	2, 0x0000
    418c7236:	0000                	.insn	2, 0x0000
    418c7238:	10a8cccf          	fnmadd.s	f25,f17,f10,f2,rmm
    418c723c:	0000                	.insn	2, 0x0000
    418c723e:	0000                	.insn	2, 0x0000
    418c7240:	10a8d0cf          	fnmadd.s	f1,f17,f10,f2,unknown
    418c7244:	0000                	.insn	2, 0x0000
    418c7246:	0000                	.insn	2, 0x0000
    418c7248:	10a8d4cf          	fnmadd.s	f9,f17,f10,f2,unknown
    418c724c:	0000                	.insn	2, 0x0000
    418c724e:	0000                	.insn	2, 0x0000
    418c7250:	10a8d8cf          	fnmadd.s	f17,f17,f10,f2,unknown
    418c7254:	0000                	.insn	2, 0x0000
    418c7256:	0000                	.insn	2, 0x0000
    418c7258:	10a8dccf          	fnmadd.s	f25,f17,f10,f2,unknown
    418c725c:	0000                	.insn	2, 0x0000
    418c725e:	0000                	.insn	2, 0x0000
    418c7260:	10a8e0cf          	fnmadd.s	f1,f17,f10,f2,unknown
    418c7264:	0000                	.insn	2, 0x0000
    418c7266:	0000                	.insn	2, 0x0000
    418c7268:	10a8e4cf          	fnmadd.s	f9,f17,f10,f2,unknown
    418c726c:	0000                	.insn	2, 0x0000
    418c726e:	0000                	.insn	2, 0x0000
    418c7270:	10a8e8cf          	fnmadd.s	f17,f17,f10,f2,unknown
    418c7274:	0000                	.insn	2, 0x0000
    418c7276:	0000                	.insn	2, 0x0000
    418c7278:	10a8eccf          	fnmadd.s	f25,f17,f10,f2,unknown
    418c727c:	0000                	.insn	2, 0x0000
    418c727e:	0000                	.insn	2, 0x0000
    418c7280:	10a8f0cf          	fnmadd.s	f1,f17,f10,f2
    418c7284:	0000                	.insn	2, 0x0000
    418c7286:	0000                	.insn	2, 0x0000
    418c7288:	10a8f4cf          	fnmadd.s	f9,f17,f10,f2
    418c728c:	0000                	.insn	2, 0x0000
    418c728e:	0000                	.insn	2, 0x0000
    418c7290:	10a8f8cf          	fnmadd.s	f17,f17,f10,f2
    418c7294:	0000                	.insn	2, 0x0000
    418c7296:	0000                	.insn	2, 0x0000
    418c7298:	10a8fccf          	fnmadd.s	f25,f17,f10,f2
    418c729c:	0000                	.insn	2, 0x0000
    418c729e:	0000                	.insn	2, 0x0000
    418c72a0:	10a900cf          	fnmadd.s	f1,f18,f10,f2,rne
    418c72a4:	0000                	.insn	2, 0x0000
    418c72a6:	0000                	.insn	2, 0x0000
    418c72a8:	10a904cf          	fnmadd.s	f9,f18,f10,f2,rne
    418c72ac:	0000                	.insn	2, 0x0000
    418c72ae:	0000                	.insn	2, 0x0000
    418c72b0:	10a908cf          	fnmadd.s	f17,f18,f10,f2,rne
    418c72b4:	0000                	.insn	2, 0x0000
    418c72b6:	0000                	.insn	2, 0x0000
    418c72b8:	10a90ccf          	fnmadd.s	f25,f18,f10,f2,rne
    418c72bc:	0000                	.insn	2, 0x0000
    418c72be:	0000                	.insn	2, 0x0000
    418c72c0:	10a910cf          	fnmadd.s	f1,f18,f10,f2,rtz
    418c72c4:	0000                	.insn	2, 0x0000
    418c72c6:	0000                	.insn	2, 0x0000
    418c72c8:	10a914cf          	fnmadd.s	f9,f18,f10,f2,rtz
    418c72cc:	0000                	.insn	2, 0x0000
    418c72ce:	0000                	.insn	2, 0x0000
    418c72d0:	10a918cf          	fnmadd.s	f17,f18,f10,f2,rtz
    418c72d4:	0000                	.insn	2, 0x0000
    418c72d6:	0000                	.insn	2, 0x0000
    418c72d8:	10a91ccf          	fnmadd.s	f25,f18,f10,f2,rtz
    418c72dc:	0000                	.insn	2, 0x0000
    418c72de:	0000                	.insn	2, 0x0000
    418c72e0:	10a920cf          	fnmadd.s	f1,f18,f10,f2,rdn
    418c72e4:	0000                	.insn	2, 0x0000
    418c72e6:	0000                	.insn	2, 0x0000
    418c72e8:	10a924cf          	fnmadd.s	f9,f18,f10,f2,rdn
    418c72ec:	0000                	.insn	2, 0x0000
    418c72ee:	0000                	.insn	2, 0x0000
    418c72f0:	10a928cf          	fnmadd.s	f17,f18,f10,f2,rdn
    418c72f4:	0000                	.insn	2, 0x0000
    418c72f6:	0000                	.insn	2, 0x0000
    418c72f8:	10a92ccf          	fnmadd.s	f25,f18,f10,f2,rdn
    418c72fc:	0000                	.insn	2, 0x0000
    418c72fe:	0000                	.insn	2, 0x0000
    418c7300:	10a930cf          	fnmadd.s	f1,f18,f10,f2,rup
    418c7304:	0000                	.insn	2, 0x0000
    418c7306:	0000                	.insn	2, 0x0000
    418c7308:	10a934cf          	fnmadd.s	f9,f18,f10,f2,rup
    418c730c:	0000                	.insn	2, 0x0000
    418c730e:	0000                	.insn	2, 0x0000
    418c7310:	10a938cf          	fnmadd.s	f17,f18,f10,f2,rup
    418c7314:	0000                	.insn	2, 0x0000
    418c7316:	0000                	.insn	2, 0x0000
    418c7318:	10a93ccf          	fnmadd.s	f25,f18,f10,f2,rup
    418c731c:	0000                	.insn	2, 0x0000
    418c731e:	0000                	.insn	2, 0x0000
    418c7320:	10a940cf          	fnmadd.s	f1,f18,f10,f2,rmm
    418c7324:	0000                	.insn	2, 0x0000
    418c7326:	0000                	.insn	2, 0x0000
    418c7328:	10a944cf          	fnmadd.s	f9,f18,f10,f2,rmm
    418c732c:	0000                	.insn	2, 0x0000
    418c732e:	0000                	.insn	2, 0x0000
    418c7330:	10a948cf          	fnmadd.s	f17,f18,f10,f2,rmm
    418c7334:	0000                	.insn	2, 0x0000
    418c7336:	0000                	.insn	2, 0x0000
    418c7338:	10a94ccf          	fnmadd.s	f25,f18,f10,f2,rmm
    418c733c:	0000                	.insn	2, 0x0000
    418c733e:	0000                	.insn	2, 0x0000
    418c7340:	10a950cf          	fnmadd.s	f1,f18,f10,f2,unknown
    418c7344:	0000                	.insn	2, 0x0000
    418c7346:	0000                	.insn	2, 0x0000
    418c7348:	10a954cf          	fnmadd.s	f9,f18,f10,f2,unknown
    418c734c:	0000                	.insn	2, 0x0000
    418c734e:	0000                	.insn	2, 0x0000
    418c7350:	10a958cf          	fnmadd.s	f17,f18,f10,f2,unknown
    418c7354:	0000                	.insn	2, 0x0000
    418c7356:	0000                	.insn	2, 0x0000
    418c7358:	10a95ccf          	fnmadd.s	f25,f18,f10,f2,unknown
    418c735c:	0000                	.insn	2, 0x0000
    418c735e:	0000                	.insn	2, 0x0000
    418c7360:	10a960cf          	fnmadd.s	f1,f18,f10,f2,unknown
    418c7364:	0000                	.insn	2, 0x0000
    418c7366:	0000                	.insn	2, 0x0000
    418c7368:	10a964cf          	fnmadd.s	f9,f18,f10,f2,unknown
    418c736c:	0000                	.insn	2, 0x0000
    418c736e:	0000                	.insn	2, 0x0000
    418c7370:	10a968cf          	fnmadd.s	f17,f18,f10,f2,unknown
    418c7374:	0000                	.insn	2, 0x0000
    418c7376:	0000                	.insn	2, 0x0000
    418c7378:	10a96ccf          	fnmadd.s	f25,f18,f10,f2,unknown
    418c737c:	0000                	.insn	2, 0x0000
    418c737e:	0000                	.insn	2, 0x0000
    418c7380:	10a970cf          	fnmadd.s	f1,f18,f10,f2
    418c7384:	0000                	.insn	2, 0x0000
    418c7386:	0000                	.insn	2, 0x0000
    418c7388:	10a974cf          	fnmadd.s	f9,f18,f10,f2
    418c738c:	0000                	.insn	2, 0x0000
    418c738e:	0000                	.insn	2, 0x0000
    418c7390:	10a978cf          	fnmadd.s	f17,f18,f10,f2
    418c7394:	0000                	.insn	2, 0x0000
    418c7396:	0000                	.insn	2, 0x0000
    418c7398:	10a97ccf          	fnmadd.s	f25,f18,f10,f2
    418c739c:	0000                	.insn	2, 0x0000
    418c739e:	0000                	.insn	2, 0x0000
    418c73a0:	10a980cf          	fnmadd.s	f1,f19,f10,f2,rne
    418c73a4:	0000                	.insn	2, 0x0000
    418c73a6:	0000                	.insn	2, 0x0000
    418c73a8:	10a984cf          	fnmadd.s	f9,f19,f10,f2,rne
    418c73ac:	0000                	.insn	2, 0x0000
    418c73ae:	0000                	.insn	2, 0x0000
    418c73b0:	10a988cf          	fnmadd.s	f17,f19,f10,f2,rne
    418c73b4:	0000                	.insn	2, 0x0000
    418c73b6:	0000                	.insn	2, 0x0000
    418c73b8:	10a98ccf          	fnmadd.s	f25,f19,f10,f2,rne
    418c73bc:	0000                	.insn	2, 0x0000
    418c73be:	0000                	.insn	2, 0x0000
    418c73c0:	10a990cf          	fnmadd.s	f1,f19,f10,f2,rtz
    418c73c4:	0000                	.insn	2, 0x0000
    418c73c6:	0000                	.insn	2, 0x0000
    418c73c8:	10a994cf          	fnmadd.s	f9,f19,f10,f2,rtz
    418c73cc:	0000                	.insn	2, 0x0000
    418c73ce:	0000                	.insn	2, 0x0000
    418c73d0:	10a998cf          	fnmadd.s	f17,f19,f10,f2,rtz
    418c73d4:	0000                	.insn	2, 0x0000
    418c73d6:	0000                	.insn	2, 0x0000
    418c73d8:	10a99ccf          	fnmadd.s	f25,f19,f10,f2,rtz
    418c73dc:	0000                	.insn	2, 0x0000
    418c73de:	0000                	.insn	2, 0x0000
    418c73e0:	10a9a0cf          	fnmadd.s	f1,f19,f10,f2,rdn
    418c73e4:	0000                	.insn	2, 0x0000
    418c73e6:	0000                	.insn	2, 0x0000
    418c73e8:	10a9a4cf          	fnmadd.s	f9,f19,f10,f2,rdn
    418c73ec:	0000                	.insn	2, 0x0000
    418c73ee:	0000                	.insn	2, 0x0000
    418c73f0:	10a9a8cf          	fnmadd.s	f17,f19,f10,f2,rdn
    418c73f4:	0000                	.insn	2, 0x0000
    418c73f6:	0000                	.insn	2, 0x0000
    418c73f8:	10a9accf          	fnmadd.s	f25,f19,f10,f2,rdn
    418c73fc:	0000                	.insn	2, 0x0000
    418c73fe:	0000                	.insn	2, 0x0000
    418c7400:	10a9b0cf          	fnmadd.s	f1,f19,f10,f2,rup
    418c7404:	0000                	.insn	2, 0x0000
    418c7406:	0000                	.insn	2, 0x0000
    418c7408:	10a9b4cf          	fnmadd.s	f9,f19,f10,f2,rup
    418c740c:	0000                	.insn	2, 0x0000
    418c740e:	0000                	.insn	2, 0x0000
    418c7410:	10a9b8cf          	fnmadd.s	f17,f19,f10,f2,rup
    418c7414:	0000                	.insn	2, 0x0000
    418c7416:	0000                	.insn	2, 0x0000
    418c7418:	10a9bccf          	fnmadd.s	f25,f19,f10,f2,rup
    418c741c:	0000                	.insn	2, 0x0000
    418c741e:	0000                	.insn	2, 0x0000
    418c7420:	10a9c0cf          	fnmadd.s	f1,f19,f10,f2,rmm
    418c7424:	0000                	.insn	2, 0x0000
    418c7426:	0000                	.insn	2, 0x0000
    418c7428:	10a9c4cf          	fnmadd.s	f9,f19,f10,f2,rmm
    418c742c:	0000                	.insn	2, 0x0000
    418c742e:	0000                	.insn	2, 0x0000
    418c7430:	10a9c8cf          	fnmadd.s	f17,f19,f10,f2,rmm
    418c7434:	0000                	.insn	2, 0x0000
    418c7436:	0000                	.insn	2, 0x0000
    418c7438:	10a9cccf          	fnmadd.s	f25,f19,f10,f2,rmm
    418c743c:	0000                	.insn	2, 0x0000
    418c743e:	0000                	.insn	2, 0x0000
    418c7440:	10a9d0cf          	fnmadd.s	f1,f19,f10,f2,unknown
    418c7444:	0000                	.insn	2, 0x0000
    418c7446:	0000                	.insn	2, 0x0000
    418c7448:	10a9d4cf          	fnmadd.s	f9,f19,f10,f2,unknown
    418c744c:	0000                	.insn	2, 0x0000
    418c744e:	0000                	.insn	2, 0x0000
    418c7450:	10a9d8cf          	fnmadd.s	f17,f19,f10,f2,unknown
    418c7454:	0000                	.insn	2, 0x0000
    418c7456:	0000                	.insn	2, 0x0000
    418c7458:	10a9dccf          	fnmadd.s	f25,f19,f10,f2,unknown
    418c745c:	0000                	.insn	2, 0x0000
    418c745e:	0000                	.insn	2, 0x0000
    418c7460:	10a9e0cf          	fnmadd.s	f1,f19,f10,f2,unknown
    418c7464:	0000                	.insn	2, 0x0000
    418c7466:	0000                	.insn	2, 0x0000
    418c7468:	10a9e4cf          	fnmadd.s	f9,f19,f10,f2,unknown
    418c746c:	0000                	.insn	2, 0x0000
    418c746e:	0000                	.insn	2, 0x0000
    418c7470:	10a9e8cf          	fnmadd.s	f17,f19,f10,f2,unknown
    418c7474:	0000                	.insn	2, 0x0000
    418c7476:	0000                	.insn	2, 0x0000
    418c7478:	10a9eccf          	fnmadd.s	f25,f19,f10,f2,unknown
    418c747c:	0000                	.insn	2, 0x0000
    418c747e:	0000                	.insn	2, 0x0000
    418c7480:	10a9f0cf          	fnmadd.s	f1,f19,f10,f2
    418c7484:	0000                	.insn	2, 0x0000
    418c7486:	0000                	.insn	2, 0x0000
    418c7488:	10a9f4cf          	fnmadd.s	f9,f19,f10,f2
    418c748c:	0000                	.insn	2, 0x0000
    418c748e:	0000                	.insn	2, 0x0000
    418c7490:	10a9f8cf          	fnmadd.s	f17,f19,f10,f2
    418c7494:	0000                	.insn	2, 0x0000
    418c7496:	0000                	.insn	2, 0x0000
    418c7498:	10a9fccf          	fnmadd.s	f25,f19,f10,f2
    418c749c:	0000                	.insn	2, 0x0000
    418c749e:	0000                	.insn	2, 0x0000
    418c74a0:	10aa00cf          	fnmadd.s	f1,f20,f10,f2,rne
    418c74a4:	0000                	.insn	2, 0x0000
    418c74a6:	0000                	.insn	2, 0x0000
    418c74a8:	10aa04cf          	fnmadd.s	f9,f20,f10,f2,rne
    418c74ac:	0000                	.insn	2, 0x0000
    418c74ae:	0000                	.insn	2, 0x0000
    418c74b0:	10aa08cf          	fnmadd.s	f17,f20,f10,f2,rne
    418c74b4:	0000                	.insn	2, 0x0000
    418c74b6:	0000                	.insn	2, 0x0000
    418c74b8:	10aa0ccf          	fnmadd.s	f25,f20,f10,f2,rne
    418c74bc:	0000                	.insn	2, 0x0000
    418c74be:	0000                	.insn	2, 0x0000
    418c74c0:	10aa10cf          	fnmadd.s	f1,f20,f10,f2,rtz
    418c74c4:	0000                	.insn	2, 0x0000
    418c74c6:	0000                	.insn	2, 0x0000
    418c74c8:	10aa14cf          	fnmadd.s	f9,f20,f10,f2,rtz
    418c74cc:	0000                	.insn	2, 0x0000
    418c74ce:	0000                	.insn	2, 0x0000
    418c74d0:	10aa18cf          	fnmadd.s	f17,f20,f10,f2,rtz
    418c74d4:	0000                	.insn	2, 0x0000
    418c74d6:	0000                	.insn	2, 0x0000
    418c74d8:	10aa1ccf          	fnmadd.s	f25,f20,f10,f2,rtz
    418c74dc:	0000                	.insn	2, 0x0000
    418c74de:	0000                	.insn	2, 0x0000
    418c74e0:	10aa20cf          	fnmadd.s	f1,f20,f10,f2,rdn
    418c74e4:	0000                	.insn	2, 0x0000
    418c74e6:	0000                	.insn	2, 0x0000
    418c74e8:	10aa24cf          	fnmadd.s	f9,f20,f10,f2,rdn
    418c74ec:	0000                	.insn	2, 0x0000
    418c74ee:	0000                	.insn	2, 0x0000
    418c74f0:	10aa28cf          	fnmadd.s	f17,f20,f10,f2,rdn
    418c74f4:	0000                	.insn	2, 0x0000
    418c74f6:	0000                	.insn	2, 0x0000
    418c74f8:	10aa2ccf          	fnmadd.s	f25,f20,f10,f2,rdn
    418c74fc:	0000                	.insn	2, 0x0000
    418c74fe:	0000                	.insn	2, 0x0000
    418c7500:	10aa30cf          	fnmadd.s	f1,f20,f10,f2,rup
    418c7504:	0000                	.insn	2, 0x0000
    418c7506:	0000                	.insn	2, 0x0000
    418c7508:	10aa34cf          	fnmadd.s	f9,f20,f10,f2,rup
    418c750c:	0000                	.insn	2, 0x0000
    418c750e:	0000                	.insn	2, 0x0000
    418c7510:	10aa38cf          	fnmadd.s	f17,f20,f10,f2,rup
    418c7514:	0000                	.insn	2, 0x0000
    418c7516:	0000                	.insn	2, 0x0000
    418c7518:	10aa3ccf          	fnmadd.s	f25,f20,f10,f2,rup
    418c751c:	0000                	.insn	2, 0x0000
    418c751e:	0000                	.insn	2, 0x0000
    418c7520:	10aa40cf          	fnmadd.s	f1,f20,f10,f2,rmm
    418c7524:	0000                	.insn	2, 0x0000
    418c7526:	0000                	.insn	2, 0x0000
    418c7528:	10aa44cf          	fnmadd.s	f9,f20,f10,f2,rmm
    418c752c:	0000                	.insn	2, 0x0000
    418c752e:	0000                	.insn	2, 0x0000
    418c7530:	10aa48cf          	fnmadd.s	f17,f20,f10,f2,rmm
    418c7534:	0000                	.insn	2, 0x0000
    418c7536:	0000                	.insn	2, 0x0000
    418c7538:	10aa4ccf          	fnmadd.s	f25,f20,f10,f2,rmm
    418c753c:	0000                	.insn	2, 0x0000
    418c753e:	0000                	.insn	2, 0x0000
    418c7540:	10aa50cf          	fnmadd.s	f1,f20,f10,f2,unknown
    418c7544:	0000                	.insn	2, 0x0000
    418c7546:	0000                	.insn	2, 0x0000
    418c7548:	10aa54cf          	fnmadd.s	f9,f20,f10,f2,unknown
    418c754c:	0000                	.insn	2, 0x0000
    418c754e:	0000                	.insn	2, 0x0000
    418c7550:	10aa58cf          	fnmadd.s	f17,f20,f10,f2,unknown
    418c7554:	0000                	.insn	2, 0x0000
    418c7556:	0000                	.insn	2, 0x0000
    418c7558:	10aa5ccf          	fnmadd.s	f25,f20,f10,f2,unknown
    418c755c:	0000                	.insn	2, 0x0000
    418c755e:	0000                	.insn	2, 0x0000
    418c7560:	10aa60cf          	fnmadd.s	f1,f20,f10,f2,unknown
    418c7564:	0000                	.insn	2, 0x0000
    418c7566:	0000                	.insn	2, 0x0000
    418c7568:	10aa64cf          	fnmadd.s	f9,f20,f10,f2,unknown
    418c756c:	0000                	.insn	2, 0x0000
    418c756e:	0000                	.insn	2, 0x0000
    418c7570:	10aa68cf          	fnmadd.s	f17,f20,f10,f2,unknown
    418c7574:	0000                	.insn	2, 0x0000
    418c7576:	0000                	.insn	2, 0x0000
    418c7578:	10aa6ccf          	fnmadd.s	f25,f20,f10,f2,unknown
    418c757c:	0000                	.insn	2, 0x0000
    418c757e:	0000                	.insn	2, 0x0000
    418c7580:	10aa70cf          	fnmadd.s	f1,f20,f10,f2
    418c7584:	0000                	.insn	2, 0x0000
    418c7586:	0000                	.insn	2, 0x0000
    418c7588:	10aa74cf          	fnmadd.s	f9,f20,f10,f2
    418c758c:	0000                	.insn	2, 0x0000
    418c758e:	0000                	.insn	2, 0x0000
    418c7590:	10aa78cf          	fnmadd.s	f17,f20,f10,f2
    418c7594:	0000                	.insn	2, 0x0000
    418c7596:	0000                	.insn	2, 0x0000
    418c7598:	10aa7ccf          	fnmadd.s	f25,f20,f10,f2
    418c759c:	0000                	.insn	2, 0x0000
    418c759e:	0000                	.insn	2, 0x0000
    418c75a0:	10aa80cf          	fnmadd.s	f1,f21,f10,f2,rne
    418c75a4:	0000                	.insn	2, 0x0000
    418c75a6:	0000                	.insn	2, 0x0000
    418c75a8:	10aa84cf          	fnmadd.s	f9,f21,f10,f2,rne
    418c75ac:	0000                	.insn	2, 0x0000
    418c75ae:	0000                	.insn	2, 0x0000
    418c75b0:	10aa88cf          	fnmadd.s	f17,f21,f10,f2,rne
    418c75b4:	0000                	.insn	2, 0x0000
    418c75b6:	0000                	.insn	2, 0x0000
    418c75b8:	10aa8ccf          	fnmadd.s	f25,f21,f10,f2,rne
    418c75bc:	0000                	.insn	2, 0x0000
    418c75be:	0000                	.insn	2, 0x0000
    418c75c0:	10aa90cf          	fnmadd.s	f1,f21,f10,f2,rtz
    418c75c4:	0000                	.insn	2, 0x0000
    418c75c6:	0000                	.insn	2, 0x0000
    418c75c8:	10aa94cf          	fnmadd.s	f9,f21,f10,f2,rtz
    418c75cc:	0000                	.insn	2, 0x0000
    418c75ce:	0000                	.insn	2, 0x0000
    418c75d0:	10aa98cf          	fnmadd.s	f17,f21,f10,f2,rtz
    418c75d4:	0000                	.insn	2, 0x0000
    418c75d6:	0000                	.insn	2, 0x0000
    418c75d8:	10aa9ccf          	fnmadd.s	f25,f21,f10,f2,rtz
    418c75dc:	0000                	.insn	2, 0x0000
    418c75de:	0000                	.insn	2, 0x0000
    418c75e0:	10aaa0cf          	fnmadd.s	f1,f21,f10,f2,rdn
    418c75e4:	0000                	.insn	2, 0x0000
    418c75e6:	0000                	.insn	2, 0x0000
    418c75e8:	10aaa4cf          	fnmadd.s	f9,f21,f10,f2,rdn
    418c75ec:	0000                	.insn	2, 0x0000
    418c75ee:	0000                	.insn	2, 0x0000
    418c75f0:	10aaa8cf          	fnmadd.s	f17,f21,f10,f2,rdn
    418c75f4:	0000                	.insn	2, 0x0000
    418c75f6:	0000                	.insn	2, 0x0000
    418c75f8:	10aaaccf          	fnmadd.s	f25,f21,f10,f2,rdn
    418c75fc:	0000                	.insn	2, 0x0000
    418c75fe:	0000                	.insn	2, 0x0000
    418c7600:	10aab0cf          	fnmadd.s	f1,f21,f10,f2,rup
    418c7604:	0000                	.insn	2, 0x0000
    418c7606:	0000                	.insn	2, 0x0000
    418c7608:	10aab4cf          	fnmadd.s	f9,f21,f10,f2,rup
    418c760c:	0000                	.insn	2, 0x0000
    418c760e:	0000                	.insn	2, 0x0000
    418c7610:	10aab8cf          	fnmadd.s	f17,f21,f10,f2,rup
    418c7614:	0000                	.insn	2, 0x0000
    418c7616:	0000                	.insn	2, 0x0000
    418c7618:	10aabccf          	fnmadd.s	f25,f21,f10,f2,rup
    418c761c:	0000                	.insn	2, 0x0000
    418c761e:	0000                	.insn	2, 0x0000
    418c7620:	10aac0cf          	fnmadd.s	f1,f21,f10,f2,rmm
    418c7624:	0000                	.insn	2, 0x0000
    418c7626:	0000                	.insn	2, 0x0000
    418c7628:	10aac4cf          	fnmadd.s	f9,f21,f10,f2,rmm
    418c762c:	0000                	.insn	2, 0x0000
    418c762e:	0000                	.insn	2, 0x0000
    418c7630:	10aac8cf          	fnmadd.s	f17,f21,f10,f2,rmm
    418c7634:	0000                	.insn	2, 0x0000
    418c7636:	0000                	.insn	2, 0x0000
    418c7638:	10aacccf          	fnmadd.s	f25,f21,f10,f2,rmm
    418c763c:	0000                	.insn	2, 0x0000
    418c763e:	0000                	.insn	2, 0x0000
    418c7640:	10aad0cf          	fnmadd.s	f1,f21,f10,f2,unknown
    418c7644:	0000                	.insn	2, 0x0000
    418c7646:	0000                	.insn	2, 0x0000
    418c7648:	10aad4cf          	fnmadd.s	f9,f21,f10,f2,unknown
    418c764c:	0000                	.insn	2, 0x0000
    418c764e:	0000                	.insn	2, 0x0000
    418c7650:	10aad8cf          	fnmadd.s	f17,f21,f10,f2,unknown
    418c7654:	0000                	.insn	2, 0x0000
    418c7656:	0000                	.insn	2, 0x0000
    418c7658:	10aadccf          	fnmadd.s	f25,f21,f10,f2,unknown
    418c765c:	0000                	.insn	2, 0x0000
    418c765e:	0000                	.insn	2, 0x0000
    418c7660:	10aae0cf          	fnmadd.s	f1,f21,f10,f2,unknown
    418c7664:	0000                	.insn	2, 0x0000
    418c7666:	0000                	.insn	2, 0x0000
    418c7668:	10aae4cf          	fnmadd.s	f9,f21,f10,f2,unknown
    418c766c:	0000                	.insn	2, 0x0000
    418c766e:	0000                	.insn	2, 0x0000
    418c7670:	10aae8cf          	fnmadd.s	f17,f21,f10,f2,unknown
    418c7674:	0000                	.insn	2, 0x0000
    418c7676:	0000                	.insn	2, 0x0000
    418c7678:	10aaeccf          	fnmadd.s	f25,f21,f10,f2,unknown
    418c767c:	0000                	.insn	2, 0x0000
    418c767e:	0000                	.insn	2, 0x0000
    418c7680:	10aaf0cf          	fnmadd.s	f1,f21,f10,f2
    418c7684:	0000                	.insn	2, 0x0000
    418c7686:	0000                	.insn	2, 0x0000
    418c7688:	10aaf4cf          	fnmadd.s	f9,f21,f10,f2
    418c768c:	0000                	.insn	2, 0x0000
    418c768e:	0000                	.insn	2, 0x0000
    418c7690:	10aaf8cf          	fnmadd.s	f17,f21,f10,f2
    418c7694:	0000                	.insn	2, 0x0000
    418c7696:	0000                	.insn	2, 0x0000
    418c7698:	10aafccf          	fnmadd.s	f25,f21,f10,f2
    418c769c:	0000                	.insn	2, 0x0000
    418c769e:	0000                	.insn	2, 0x0000
    418c76a0:	10ab00cf          	fnmadd.s	f1,f22,f10,f2,rne
    418c76a4:	0000                	.insn	2, 0x0000
    418c76a6:	0000                	.insn	2, 0x0000
    418c76a8:	10ab04cf          	fnmadd.s	f9,f22,f10,f2,rne
    418c76ac:	0000                	.insn	2, 0x0000
    418c76ae:	0000                	.insn	2, 0x0000
    418c76b0:	10ab08cf          	fnmadd.s	f17,f22,f10,f2,rne
    418c76b4:	0000                	.insn	2, 0x0000
    418c76b6:	0000                	.insn	2, 0x0000
    418c76b8:	10ab0ccf          	fnmadd.s	f25,f22,f10,f2,rne
    418c76bc:	0000                	.insn	2, 0x0000
    418c76be:	0000                	.insn	2, 0x0000
    418c76c0:	10ab10cf          	fnmadd.s	f1,f22,f10,f2,rtz
    418c76c4:	0000                	.insn	2, 0x0000
    418c76c6:	0000                	.insn	2, 0x0000
    418c76c8:	10ab14cf          	fnmadd.s	f9,f22,f10,f2,rtz
    418c76cc:	0000                	.insn	2, 0x0000
    418c76ce:	0000                	.insn	2, 0x0000
    418c76d0:	10ab18cf          	fnmadd.s	f17,f22,f10,f2,rtz
    418c76d4:	0000                	.insn	2, 0x0000
    418c76d6:	0000                	.insn	2, 0x0000
    418c76d8:	10ab1ccf          	fnmadd.s	f25,f22,f10,f2,rtz
    418c76dc:	0000                	.insn	2, 0x0000
    418c76de:	0000                	.insn	2, 0x0000
    418c76e0:	10ab20cf          	fnmadd.s	f1,f22,f10,f2,rdn
    418c76e4:	0000                	.insn	2, 0x0000
    418c76e6:	0000                	.insn	2, 0x0000
    418c76e8:	10ab24cf          	fnmadd.s	f9,f22,f10,f2,rdn
    418c76ec:	0000                	.insn	2, 0x0000
    418c76ee:	0000                	.insn	2, 0x0000
    418c76f0:	10ab28cf          	fnmadd.s	f17,f22,f10,f2,rdn
    418c76f4:	0000                	.insn	2, 0x0000
    418c76f6:	0000                	.insn	2, 0x0000
    418c76f8:	10ab2ccf          	fnmadd.s	f25,f22,f10,f2,rdn
    418c76fc:	0000                	.insn	2, 0x0000
    418c76fe:	0000                	.insn	2, 0x0000
    418c7700:	10ab30cf          	fnmadd.s	f1,f22,f10,f2,rup
    418c7704:	0000                	.insn	2, 0x0000
    418c7706:	0000                	.insn	2, 0x0000
    418c7708:	10ab34cf          	fnmadd.s	f9,f22,f10,f2,rup
    418c770c:	0000                	.insn	2, 0x0000
    418c770e:	0000                	.insn	2, 0x0000
    418c7710:	10ab38cf          	fnmadd.s	f17,f22,f10,f2,rup
    418c7714:	0000                	.insn	2, 0x0000
    418c7716:	0000                	.insn	2, 0x0000
    418c7718:	10ab3ccf          	fnmadd.s	f25,f22,f10,f2,rup
    418c771c:	0000                	.insn	2, 0x0000
    418c771e:	0000                	.insn	2, 0x0000
    418c7720:	10ab40cf          	fnmadd.s	f1,f22,f10,f2,rmm
    418c7724:	0000                	.insn	2, 0x0000
    418c7726:	0000                	.insn	2, 0x0000
    418c7728:	10ab44cf          	fnmadd.s	f9,f22,f10,f2,rmm
    418c772c:	0000                	.insn	2, 0x0000
    418c772e:	0000                	.insn	2, 0x0000
    418c7730:	10ab48cf          	fnmadd.s	f17,f22,f10,f2,rmm
    418c7734:	0000                	.insn	2, 0x0000
    418c7736:	0000                	.insn	2, 0x0000
    418c7738:	10ab4ccf          	fnmadd.s	f25,f22,f10,f2,rmm
    418c773c:	0000                	.insn	2, 0x0000
    418c773e:	0000                	.insn	2, 0x0000
    418c7740:	10ab50cf          	fnmadd.s	f1,f22,f10,f2,unknown
    418c7744:	0000                	.insn	2, 0x0000
    418c7746:	0000                	.insn	2, 0x0000
    418c7748:	10ab54cf          	fnmadd.s	f9,f22,f10,f2,unknown
    418c774c:	0000                	.insn	2, 0x0000
    418c774e:	0000                	.insn	2, 0x0000
    418c7750:	10ab58cf          	fnmadd.s	f17,f22,f10,f2,unknown
    418c7754:	0000                	.insn	2, 0x0000
    418c7756:	0000                	.insn	2, 0x0000
    418c7758:	10ab5ccf          	fnmadd.s	f25,f22,f10,f2,unknown
    418c775c:	0000                	.insn	2, 0x0000
    418c775e:	0000                	.insn	2, 0x0000
    418c7760:	10ab60cf          	fnmadd.s	f1,f22,f10,f2,unknown
    418c7764:	0000                	.insn	2, 0x0000
    418c7766:	0000                	.insn	2, 0x0000
    418c7768:	10ab64cf          	fnmadd.s	f9,f22,f10,f2,unknown
    418c776c:	0000                	.insn	2, 0x0000
    418c776e:	0000                	.insn	2, 0x0000
    418c7770:	10ab68cf          	fnmadd.s	f17,f22,f10,f2,unknown
    418c7774:	0000                	.insn	2, 0x0000
    418c7776:	0000                	.insn	2, 0x0000
    418c7778:	10ab6ccf          	fnmadd.s	f25,f22,f10,f2,unknown
    418c777c:	0000                	.insn	2, 0x0000
    418c777e:	0000                	.insn	2, 0x0000
    418c7780:	10ab70cf          	fnmadd.s	f1,f22,f10,f2
    418c7784:	0000                	.insn	2, 0x0000
    418c7786:	0000                	.insn	2, 0x0000
    418c7788:	10ab74cf          	fnmadd.s	f9,f22,f10,f2
    418c778c:	0000                	.insn	2, 0x0000
    418c778e:	0000                	.insn	2, 0x0000
    418c7790:	10ab78cf          	fnmadd.s	f17,f22,f10,f2
    418c7794:	0000                	.insn	2, 0x0000
    418c7796:	0000                	.insn	2, 0x0000
    418c7798:	10ab7ccf          	fnmadd.s	f25,f22,f10,f2
    418c779c:	0000                	.insn	2, 0x0000
    418c779e:	0000                	.insn	2, 0x0000
    418c77a0:	10ab80cf          	fnmadd.s	f1,f23,f10,f2,rne
    418c77a4:	0000                	.insn	2, 0x0000
    418c77a6:	0000                	.insn	2, 0x0000
    418c77a8:	10ab84cf          	fnmadd.s	f9,f23,f10,f2,rne
    418c77ac:	0000                	.insn	2, 0x0000
    418c77ae:	0000                	.insn	2, 0x0000
    418c77b0:	10ab88cf          	fnmadd.s	f17,f23,f10,f2,rne
    418c77b4:	0000                	.insn	2, 0x0000
    418c77b6:	0000                	.insn	2, 0x0000
    418c77b8:	10ab8ccf          	fnmadd.s	f25,f23,f10,f2,rne
    418c77bc:	0000                	.insn	2, 0x0000
    418c77be:	0000                	.insn	2, 0x0000
    418c77c0:	10ab90cf          	fnmadd.s	f1,f23,f10,f2,rtz
    418c77c4:	0000                	.insn	2, 0x0000
    418c77c6:	0000                	.insn	2, 0x0000
    418c77c8:	10ab94cf          	fnmadd.s	f9,f23,f10,f2,rtz
    418c77cc:	0000                	.insn	2, 0x0000
    418c77ce:	0000                	.insn	2, 0x0000
    418c77d0:	10ab98cf          	fnmadd.s	f17,f23,f10,f2,rtz
    418c77d4:	0000                	.insn	2, 0x0000
    418c77d6:	0000                	.insn	2, 0x0000
    418c77d8:	10ab9ccf          	fnmadd.s	f25,f23,f10,f2,rtz
    418c77dc:	0000                	.insn	2, 0x0000
    418c77de:	0000                	.insn	2, 0x0000
    418c77e0:	10aba0cf          	fnmadd.s	f1,f23,f10,f2,rdn
    418c77e4:	0000                	.insn	2, 0x0000
    418c77e6:	0000                	.insn	2, 0x0000
    418c77e8:	10aba4cf          	fnmadd.s	f9,f23,f10,f2,rdn
    418c77ec:	0000                	.insn	2, 0x0000
    418c77ee:	0000                	.insn	2, 0x0000
    418c77f0:	10aba8cf          	fnmadd.s	f17,f23,f10,f2,rdn
    418c77f4:	0000                	.insn	2, 0x0000
    418c77f6:	0000                	.insn	2, 0x0000
    418c77f8:	10abaccf          	fnmadd.s	f25,f23,f10,f2,rdn
    418c77fc:	0000                	.insn	2, 0x0000
    418c77fe:	0000                	.insn	2, 0x0000
    418c7800:	10abb0cf          	fnmadd.s	f1,f23,f10,f2,rup
    418c7804:	0000                	.insn	2, 0x0000
    418c7806:	0000                	.insn	2, 0x0000
    418c7808:	10abb4cf          	fnmadd.s	f9,f23,f10,f2,rup
    418c780c:	0000                	.insn	2, 0x0000
    418c780e:	0000                	.insn	2, 0x0000
    418c7810:	10abb8cf          	fnmadd.s	f17,f23,f10,f2,rup
    418c7814:	0000                	.insn	2, 0x0000
    418c7816:	0000                	.insn	2, 0x0000
    418c7818:	10abbccf          	fnmadd.s	f25,f23,f10,f2,rup
    418c781c:	0000                	.insn	2, 0x0000
    418c781e:	0000                	.insn	2, 0x0000
    418c7820:	10abc0cf          	fnmadd.s	f1,f23,f10,f2,rmm
    418c7824:	0000                	.insn	2, 0x0000
    418c7826:	0000                	.insn	2, 0x0000
    418c7828:	10abc4cf          	fnmadd.s	f9,f23,f10,f2,rmm
    418c782c:	0000                	.insn	2, 0x0000
    418c782e:	0000                	.insn	2, 0x0000
    418c7830:	10abc8cf          	fnmadd.s	f17,f23,f10,f2,rmm
    418c7834:	0000                	.insn	2, 0x0000
    418c7836:	0000                	.insn	2, 0x0000
    418c7838:	10abcccf          	fnmadd.s	f25,f23,f10,f2,rmm
    418c783c:	0000                	.insn	2, 0x0000
    418c783e:	0000                	.insn	2, 0x0000
    418c7840:	10abd0cf          	fnmadd.s	f1,f23,f10,f2,unknown
    418c7844:	0000                	.insn	2, 0x0000
    418c7846:	0000                	.insn	2, 0x0000
    418c7848:	10abd4cf          	fnmadd.s	f9,f23,f10,f2,unknown
    418c784c:	0000                	.insn	2, 0x0000
    418c784e:	0000                	.insn	2, 0x0000
    418c7850:	10abd8cf          	fnmadd.s	f17,f23,f10,f2,unknown
    418c7854:	0000                	.insn	2, 0x0000
    418c7856:	0000                	.insn	2, 0x0000
    418c7858:	10abdccf          	fnmadd.s	f25,f23,f10,f2,unknown
    418c785c:	0000                	.insn	2, 0x0000
    418c785e:	0000                	.insn	2, 0x0000
    418c7860:	10abe0cf          	fnmadd.s	f1,f23,f10,f2,unknown
    418c7864:	0000                	.insn	2, 0x0000
    418c7866:	0000                	.insn	2, 0x0000
    418c7868:	10abe4cf          	fnmadd.s	f9,f23,f10,f2,unknown
    418c786c:	0000                	.insn	2, 0x0000
    418c786e:	0000                	.insn	2, 0x0000
    418c7870:	10abe8cf          	fnmadd.s	f17,f23,f10,f2,unknown
    418c7874:	0000                	.insn	2, 0x0000
    418c7876:	0000                	.insn	2, 0x0000
    418c7878:	10abeccf          	fnmadd.s	f25,f23,f10,f2,unknown
    418c787c:	0000                	.insn	2, 0x0000
    418c787e:	0000                	.insn	2, 0x0000
    418c7880:	10abf0cf          	fnmadd.s	f1,f23,f10,f2
    418c7884:	0000                	.insn	2, 0x0000
    418c7886:	0000                	.insn	2, 0x0000
    418c7888:	10abf4cf          	fnmadd.s	f9,f23,f10,f2
    418c788c:	0000                	.insn	2, 0x0000
    418c788e:	0000                	.insn	2, 0x0000
    418c7890:	10abf8cf          	fnmadd.s	f17,f23,f10,f2
    418c7894:	0000                	.insn	2, 0x0000
    418c7896:	0000                	.insn	2, 0x0000
    418c7898:	10abfccf          	fnmadd.s	f25,f23,f10,f2
    418c789c:	0000                	.insn	2, 0x0000
    418c789e:	0000                	.insn	2, 0x0000
    418c78a0:	00df 10ac 0000      	.insn	6, 0x10ac00df
    418c78a6:	0000                	.insn	2, 0x0000
    418c78a8:	04df 10ac 0000      	.insn	6, 0x10ac04df
    418c78ae:	0000                	.insn	2, 0x0000
    418c78b0:	08df 10ac 0000      	.insn	6, 0x10ac08df
    418c78b6:	0000                	.insn	2, 0x0000
    418c78b8:	0cdf 10ac 0000      	.insn	6, 0x10ac0cdf
    418c78be:	0000                	.insn	2, 0x0000
    418c78c0:	10df 10ac 0000      	.insn	6, 0x10ac10df
    418c78c6:	0000                	.insn	2, 0x0000
    418c78c8:	14df 10ac 0000      	.insn	6, 0x10ac14df
    418c78ce:	0000                	.insn	2, 0x0000
    418c78d0:	18df 10ac 0000      	.insn	6, 0x10ac18df
    418c78d6:	0000                	.insn	2, 0x0000
    418c78d8:	1cdf 10ac 0000      	.insn	6, 0x10ac1cdf
    418c78de:	0000                	.insn	2, 0x0000
    418c78e0:	20df 10ac 0000      	.insn	6, 0x10ac20df
    418c78e6:	0000                	.insn	2, 0x0000
    418c78e8:	24df 10ac 0000      	.insn	6, 0x10ac24df
    418c78ee:	0000                	.insn	2, 0x0000
    418c78f0:	28df 10ac 0000      	.insn	6, 0x10ac28df
    418c78f6:	0000                	.insn	2, 0x0000
    418c78f8:	2cdf 10ac 0000      	.insn	6, 0x10ac2cdf
    418c78fe:	0000                	.insn	2, 0x0000
    418c7900:	30df 10ac 0000      	.insn	6, 0x10ac30df
    418c7906:	0000                	.insn	2, 0x0000
    418c7908:	34df 10ac 0000      	.insn	6, 0x10ac34df
    418c790e:	0000                	.insn	2, 0x0000
    418c7910:	38df 10ac 0000      	.insn	6, 0x10ac38df
    418c7916:	0000                	.insn	2, 0x0000
    418c7918:	3cdf 10ac 0000      	.insn	6, 0x10ac3cdf
    418c791e:	0000                	.insn	2, 0x0000
    418c7920:	40df 10ac 0000      	.insn	6, 0x10ac40df
    418c7926:	0000                	.insn	2, 0x0000
    418c7928:	44df 10ac 0000      	.insn	6, 0x10ac44df
    418c792e:	0000                	.insn	2, 0x0000
    418c7930:	48df 10ac 0000      	.insn	6, 0x10ac48df
    418c7936:	0000                	.insn	2, 0x0000
    418c7938:	4cdf 10ac 0000      	.insn	6, 0x10ac4cdf
    418c793e:	0000                	.insn	2, 0x0000
    418c7940:	50df 10ac 0000      	.insn	6, 0x10ac50df
    418c7946:	0000                	.insn	2, 0x0000
    418c7948:	54df 10ac 0000      	.insn	6, 0x10ac54df
    418c794e:	0000                	.insn	2, 0x0000
    418c7950:	58df 10ac 0000      	.insn	6, 0x10ac58df
    418c7956:	0000                	.insn	2, 0x0000
    418c7958:	5cdf 10ac 0000      	.insn	6, 0x10ac5cdf
    418c795e:	0000                	.insn	2, 0x0000
    418c7960:	60df 10ac 0000      	.insn	6, 0x10ac60df
    418c7966:	0000                	.insn	2, 0x0000
    418c7968:	64df 10ac 0000      	.insn	6, 0x10ac64df
    418c796e:	0000                	.insn	2, 0x0000
    418c7970:	68df 10ac 0000      	.insn	6, 0x10ac68df
    418c7976:	0000                	.insn	2, 0x0000
    418c7978:	6cdf 10ac 0000      	.insn	6, 0x10ac6cdf
    418c797e:	0000                	.insn	2, 0x0000
    418c7980:	70df 10ac 0000      	.insn	6, 0x10ac70df
    418c7986:	0000                	.insn	2, 0x0000
    418c7988:	74df 10ac 0000      	.insn	6, 0x10ac74df
    418c798e:	0000                	.insn	2, 0x0000
    418c7990:	78df 10ac 0000      	.insn	6, 0x10ac78df
    418c7996:	0000                	.insn	2, 0x0000
    418c7998:	7cdf 10ac 0000      	.insn	6, 0x10ac7cdf
    418c799e:	0000                	.insn	2, 0x0000
    418c79a0:	80df 10ac 0000      	.insn	6, 0x10ac80df
    418c79a6:	0000                	.insn	2, 0x0000
    418c79a8:	84df 10ac 0000      	.insn	6, 0x10ac84df
    418c79ae:	0000                	.insn	2, 0x0000
    418c79b0:	88df 10ac 0000      	.insn	6, 0x10ac88df
    418c79b6:	0000                	.insn	2, 0x0000
    418c79b8:	8cdf 10ac 0000      	.insn	6, 0x10ac8cdf
    418c79be:	0000                	.insn	2, 0x0000
    418c79c0:	90df 10ac 0000      	.insn	6, 0x10ac90df
    418c79c6:	0000                	.insn	2, 0x0000
    418c79c8:	94df 10ac 0000      	.insn	6, 0x10ac94df
    418c79ce:	0000                	.insn	2, 0x0000
    418c79d0:	98df 10ac 0000      	.insn	6, 0x10ac98df
    418c79d6:	0000                	.insn	2, 0x0000
    418c79d8:	9cdf 10ac 0000      	.insn	6, 0x10ac9cdf
    418c79de:	0000                	.insn	2, 0x0000
    418c79e0:	a0df 10ac 0000      	.insn	6, 0x10aca0df
    418c79e6:	0000                	.insn	2, 0x0000
    418c79e8:	a4df 10ac 0000      	.insn	6, 0x10aca4df
    418c79ee:	0000                	.insn	2, 0x0000
    418c79f0:	a8df 10ac 0000      	.insn	6, 0x10aca8df
    418c79f6:	0000                	.insn	2, 0x0000
    418c79f8:	acdf 10ac 0000      	.insn	6, 0x10acacdf
    418c79fe:	0000                	.insn	2, 0x0000
    418c7a00:	b0df 10ac 0000      	.insn	6, 0x10acb0df
    418c7a06:	0000                	.insn	2, 0x0000
    418c7a08:	b4df 10ac 0000      	.insn	6, 0x10acb4df
    418c7a0e:	0000                	.insn	2, 0x0000
    418c7a10:	b8df 10ac 0000      	.insn	6, 0x10acb8df
    418c7a16:	0000                	.insn	2, 0x0000
    418c7a18:	bcdf 10ac 0000      	.insn	6, 0x10acbcdf
    418c7a1e:	0000                	.insn	2, 0x0000
    418c7a20:	c0df 10ac 0000      	.insn	6, 0x10acc0df
    418c7a26:	0000                	.insn	2, 0x0000
    418c7a28:	c4df 10ac 0000      	.insn	6, 0x10acc4df
    418c7a2e:	0000                	.insn	2, 0x0000
    418c7a30:	c8df 10ac 0000      	.insn	6, 0x10acc8df
    418c7a36:	0000                	.insn	2, 0x0000
    418c7a38:	ccdf 10ac 0000      	.insn	6, 0x10acccdf
    418c7a3e:	0000                	.insn	2, 0x0000
    418c7a40:	d0df 10ac 0000      	.insn	6, 0x10acd0df
    418c7a46:	0000                	.insn	2, 0x0000
    418c7a48:	d4df 10ac 0000      	.insn	6, 0x10acd4df
    418c7a4e:	0000                	.insn	2, 0x0000
    418c7a50:	d8df 10ac 0000      	.insn	6, 0x10acd8df
    418c7a56:	0000                	.insn	2, 0x0000
    418c7a58:	dcdf 10ac 0000      	.insn	6, 0x10acdcdf
    418c7a5e:	0000                	.insn	2, 0x0000
    418c7a60:	e0df 10ac 0000      	.insn	6, 0x10ace0df
    418c7a66:	0000                	.insn	2, 0x0000
    418c7a68:	e4df 10ac 0000      	.insn	6, 0x10ace4df
    418c7a6e:	0000                	.insn	2, 0x0000
    418c7a70:	e8df 10ac 0000      	.insn	6, 0x10ace8df
    418c7a76:	0000                	.insn	2, 0x0000
    418c7a78:	ecdf 10ac 0000      	.insn	6, 0x10acecdf
    418c7a7e:	0000                	.insn	2, 0x0000
    418c7a80:	f0df 10ac 0000      	.insn	6, 0x10acf0df
    418c7a86:	0000                	.insn	2, 0x0000
    418c7a88:	f4df 10ac 0000      	.insn	6, 0x10acf4df
    418c7a8e:	0000                	.insn	2, 0x0000
    418c7a90:	f8df 10ac 0000      	.insn	6, 0x10acf8df
    418c7a96:	0000                	.insn	2, 0x0000
    418c7a98:	fcdf 10ac 0000      	.insn	6, 0x10acfcdf
    418c7a9e:	0000                	.insn	2, 0x0000
    418c7aa0:	00df 10ad 0000      	.insn	6, 0x10ad00df
    418c7aa6:	0000                	.insn	2, 0x0000
    418c7aa8:	04df 10ad 0000      	.insn	6, 0x10ad04df
    418c7aae:	0000                	.insn	2, 0x0000
    418c7ab0:	08df 10ad 0000      	.insn	6, 0x10ad08df
    418c7ab6:	0000                	.insn	2, 0x0000
    418c7ab8:	0cdf 10ad 0000      	.insn	6, 0x10ad0cdf
    418c7abe:	0000                	.insn	2, 0x0000
    418c7ac0:	10df 10ad 0000      	.insn	6, 0x10ad10df
    418c7ac6:	0000                	.insn	2, 0x0000
    418c7ac8:	14df 10ad 0000      	.insn	6, 0x10ad14df
    418c7ace:	0000                	.insn	2, 0x0000
    418c7ad0:	18df 10ad 0000      	.insn	6, 0x10ad18df
    418c7ad6:	0000                	.insn	2, 0x0000
    418c7ad8:	1cdf 10ad 0000      	.insn	6, 0x10ad1cdf
    418c7ade:	0000                	.insn	2, 0x0000
    418c7ae0:	20df 10ad 0000      	.insn	6, 0x10ad20df
    418c7ae6:	0000                	.insn	2, 0x0000
    418c7ae8:	24df 10ad 0000      	.insn	6, 0x10ad24df
    418c7aee:	0000                	.insn	2, 0x0000
    418c7af0:	28df 10ad 0000      	.insn	6, 0x10ad28df
    418c7af6:	0000                	.insn	2, 0x0000
    418c7af8:	2cdf 10ad 0000      	.insn	6, 0x10ad2cdf
    418c7afe:	0000                	.insn	2, 0x0000
    418c7b00:	30df 10ad 0000      	.insn	6, 0x10ad30df
    418c7b06:	0000                	.insn	2, 0x0000
    418c7b08:	34df 10ad 0000      	.insn	6, 0x10ad34df
    418c7b0e:	0000                	.insn	2, 0x0000
    418c7b10:	38df 10ad 0000      	.insn	6, 0x10ad38df
    418c7b16:	0000                	.insn	2, 0x0000
    418c7b18:	3cdf 10ad 0000      	.insn	6, 0x10ad3cdf
    418c7b1e:	0000                	.insn	2, 0x0000
    418c7b20:	40df 10ad 0000      	.insn	6, 0x10ad40df
    418c7b26:	0000                	.insn	2, 0x0000
    418c7b28:	44df 10ad 0000      	.insn	6, 0x10ad44df
    418c7b2e:	0000                	.insn	2, 0x0000
    418c7b30:	48df 10ad 0000      	.insn	6, 0x10ad48df
    418c7b36:	0000                	.insn	2, 0x0000
    418c7b38:	4cdf 10ad 0000      	.insn	6, 0x10ad4cdf
    418c7b3e:	0000                	.insn	2, 0x0000
    418c7b40:	50df 10ad 0000      	.insn	6, 0x10ad50df
    418c7b46:	0000                	.insn	2, 0x0000
    418c7b48:	54df 10ad 0000      	.insn	6, 0x10ad54df
    418c7b4e:	0000                	.insn	2, 0x0000
    418c7b50:	58df 10ad 0000      	.insn	6, 0x10ad58df
    418c7b56:	0000                	.insn	2, 0x0000
    418c7b58:	5cdf 10ad 0000      	.insn	6, 0x10ad5cdf
    418c7b5e:	0000                	.insn	2, 0x0000
    418c7b60:	60df 10ad 0000      	.insn	6, 0x10ad60df
    418c7b66:	0000                	.insn	2, 0x0000
    418c7b68:	64df 10ad 0000      	.insn	6, 0x10ad64df
    418c7b6e:	0000                	.insn	2, 0x0000
    418c7b70:	68df 10ad 0000      	.insn	6, 0x10ad68df
    418c7b76:	0000                	.insn	2, 0x0000
    418c7b78:	6cdf 10ad 0000      	.insn	6, 0x10ad6cdf
    418c7b7e:	0000                	.insn	2, 0x0000
    418c7b80:	70df 10ad 0000      	.insn	6, 0x10ad70df
    418c7b86:	0000                	.insn	2, 0x0000
    418c7b88:	74df 10ad 0000      	.insn	6, 0x10ad74df
    418c7b8e:	0000                	.insn	2, 0x0000
    418c7b90:	78df 10ad 0000      	.insn	6, 0x10ad78df
    418c7b96:	0000                	.insn	2, 0x0000
    418c7b98:	7cdf 10ad 0000      	.insn	6, 0x10ad7cdf
    418c7b9e:	0000                	.insn	2, 0x0000
    418c7ba0:	80df 10ad 0000      	.insn	6, 0x10ad80df
    418c7ba6:	0000                	.insn	2, 0x0000
    418c7ba8:	84df 10ad 0000      	.insn	6, 0x10ad84df
    418c7bae:	0000                	.insn	2, 0x0000
    418c7bb0:	88df 10ad 0000      	.insn	6, 0x10ad88df
    418c7bb6:	0000                	.insn	2, 0x0000
    418c7bb8:	8cdf 10ad 0000      	.insn	6, 0x10ad8cdf
    418c7bbe:	0000                	.insn	2, 0x0000
    418c7bc0:	90df 10ad 0000      	.insn	6, 0x10ad90df
    418c7bc6:	0000                	.insn	2, 0x0000
    418c7bc8:	94df 10ad 0000      	.insn	6, 0x10ad94df
    418c7bce:	0000                	.insn	2, 0x0000
    418c7bd0:	98df 10ad 0000      	.insn	6, 0x10ad98df
    418c7bd6:	0000                	.insn	2, 0x0000
    418c7bd8:	9cdf 10ad 0000      	.insn	6, 0x10ad9cdf
    418c7bde:	0000                	.insn	2, 0x0000
    418c7be0:	a0df 10ad 0000      	.insn	6, 0x10ada0df
    418c7be6:	0000                	.insn	2, 0x0000
    418c7be8:	a4df 10ad 0000      	.insn	6, 0x10ada4df
    418c7bee:	0000                	.insn	2, 0x0000
    418c7bf0:	a8df 10ad 0000      	.insn	6, 0x10ada8df
    418c7bf6:	0000                	.insn	2, 0x0000
    418c7bf8:	acdf 10ad 0000      	.insn	6, 0x10adacdf
    418c7bfe:	0000                	.insn	2, 0x0000
    418c7c00:	b0df 10ad 0000      	.insn	6, 0x10adb0df
    418c7c06:	0000                	.insn	2, 0x0000
    418c7c08:	b4df 10ad 0000      	.insn	6, 0x10adb4df
    418c7c0e:	0000                	.insn	2, 0x0000
    418c7c10:	b8df 10ad 0000      	.insn	6, 0x10adb8df
    418c7c16:	0000                	.insn	2, 0x0000
    418c7c18:	bcdf 10ad 0000      	.insn	6, 0x10adbcdf
    418c7c1e:	0000                	.insn	2, 0x0000
    418c7c20:	c0df 10ad 0000      	.insn	6, 0x10adc0df
    418c7c26:	0000                	.insn	2, 0x0000
    418c7c28:	c4df 10ad 0000      	.insn	6, 0x10adc4df
    418c7c2e:	0000                	.insn	2, 0x0000
    418c7c30:	c8df 10ad 0000      	.insn	6, 0x10adc8df
    418c7c36:	0000                	.insn	2, 0x0000
    418c7c38:	ccdf 10ad 0000      	.insn	6, 0x10adccdf
    418c7c3e:	0000                	.insn	2, 0x0000
    418c7c40:	d0df 10ad 0000      	.insn	6, 0x10add0df
    418c7c46:	0000                	.insn	2, 0x0000
    418c7c48:	d4df 10ad 0000      	.insn	6, 0x10add4df
    418c7c4e:	0000                	.insn	2, 0x0000
    418c7c50:	d8df 10ad 0000      	.insn	6, 0x10add8df
    418c7c56:	0000                	.insn	2, 0x0000
    418c7c58:	dcdf 10ad 0000      	.insn	6, 0x10addcdf
    418c7c5e:	0000                	.insn	2, 0x0000
    418c7c60:	e0df 10ad 0000      	.insn	6, 0x10ade0df
    418c7c66:	0000                	.insn	2, 0x0000
    418c7c68:	e4df 10ad 0000      	.insn	6, 0x10ade4df
    418c7c6e:	0000                	.insn	2, 0x0000
    418c7c70:	e8df 10ad 0000      	.insn	6, 0x10ade8df
    418c7c76:	0000                	.insn	2, 0x0000
    418c7c78:	ecdf 10ad 0000      	.insn	6, 0x10adecdf
    418c7c7e:	0000                	.insn	2, 0x0000
    418c7c80:	f0df 10ad 0000      	.insn	6, 0x10adf0df
    418c7c86:	0000                	.insn	2, 0x0000
    418c7c88:	f4df 10ad 0000      	.insn	6, 0x10adf4df
    418c7c8e:	0000                	.insn	2, 0x0000
    418c7c90:	f8df 10ad 0000      	.insn	6, 0x10adf8df
    418c7c96:	0000                	.insn	2, 0x0000
    418c7c98:	fcdf 10ad 0000      	.insn	6, 0x10adfcdf
	...

Disassembly of section .__pagetable_map_os_0x00000000418c5000:

00000000418c5000 <__pagetable_map_os_0x00000000418c5000>:
	...
    418c50a8:	10b004cf          	fnmadd.s	f9,f0,f11,f2,rne
    418c50ac:	0000                	.insn	2, 0x0000
	...

Disassembly of section .__pagetable_map_os_0x00000000418d4000:

00000000418d4000 <__pagetable_map_os_0x00000000418d4000>:
	...
    418d47e0:	1063f0cf          	fnmadd.s	f1,f7,f6,f2
    418d47e4:	0000                	.insn	2, 0x0000
	...

Disassembly of section .__pagetable_map_os_0x00000000416a2000:

00000000416a2000 <__pagetable_map_os_0x00000000416a2000>:
    416a2000:	2401                	.insn	2, 0x2401
    416a2002:	000010cb          	fnmsub.s	f1,f0,f0,f0,rtz
	...
    416a2016:	0000                	.insn	2, 0x0000
    416a2018:	7c01                	.insn	2, 0x7c01
    416a201a:	1050                	.insn	2, 0x1050
	...
    416a2028:	b001                	.insn	2, 0xb001
    416a202a:	00001063          	bnez	x0,416a202a <__pagetable_map_os_0x00000000416a2000+0x2a>
	...
    416a2046:	0000                	.insn	2, 0x0000
    416a2048:	7001                	.insn	2, 0x7001
    416a204a:	1048                	.insn	2, 0x1048
	...
    416a2118:	6801                	.insn	2, 0x6801
    416a211a:	1048                	.insn	2, 0x1048
    416a211c:	0000                	.insn	2, 0x0000
    416a211e:	0000                	.insn	2, 0x0000
    416a2120:	a801                	.insn	2, 0xa801
    416a2122:	106a                	.insn	2, 0x106a
	...
    416a2570:	5001                	.insn	2, 0x5001
    416a2572:	10d0                	.insn	2, 0x10d0
	...
    416a2668:	b401                	.insn	2, 0xb401
    416a266a:	104a                	.insn	2, 0x104a
	...
    416a2990:	0401                	.insn	2, 0x0401
    416a2992:	105a                	.insn	2, 0x105a
    416a2994:	0000                	.insn	2, 0x0000
	...

Disassembly of section .__pagetable_map_os_0x00000000432c9000:

00000000432c9000 <__pagetable_map_os_0x00000000432c9000>:
	...
    432c9010:	105b30c7          	fmsub.s	f1,f22,f5,f2,rup
	...
    432c9020:	1063d0c7          	fmsub.s	f1,f7,f6,f2,unknown
	...
    432c9040:	106ab8cf          	fnmadd.s	f17,f21,f6,f2,rup
	...
    432c90b0:	104accc7          	fmsub.s	f25,f21,f4,f2,rmm
	...
    432c9bb0:	10c408c7          	fmsub.s	f17,f8,f12,f2,rne
    432c9bb4:	0000                	.insn	2, 0x0000
	...

Disassembly of section .__pagetable_map_os_0x000000004141f000:

000000004141f000 <__pagetable_map_os_0x000000004141f000>:
	...
    4141f328:	10613cc7          	fmsub.s	f25,f2,f6,f2,rup
    4141f32c:	0000                	.insn	2, 0x0000
	...

Disassembly of section .__pagetable_map_os_0x0000000043414000:

0000000043414000 <__pagetable_map_os_0x0000000043414000>:
	...
    434146c8:	1063c0c7          	fmsub.s	f1,f7,f6,f2,rmm
    434146cc:	0000                	.insn	2, 0x0000
	...

Disassembly of section .__pagetable_map_os_0x0000000041aaa000:

0000000041aaa000 <__pagetable_map_os_0x0000000041aaa000>:
	...
    41aaa3f8:	10638cc7          	fmsub.s	f25,f7,f6,f2,rne
    41aaa3fc:	0000                	.insn	2, 0x0000
	...

Disassembly of section .__pagetable_map_os_0x00000000418ec000:

00000000418ec000 <__pagetable_map_os_0x00000000418ec000>:
	...
    418ecb58:	10bb44c7          	fmsub.s	f9,f22,f11,f2,rmm
    418ecb5c:	0000                	.insn	2, 0x0000
	...

Disassembly of section .__pagetable_map_os_0x000000004121c000:

000000004121c000 <__pagetable_map_os_0x000000004121c000>:
	...
    4121c058:	106a98c7          	fmsub.s	f17,f21,f6,f2,rtz
    4121c05c:	0000                	.insn	2, 0x0000
	...

Disassembly of section .__pagetable_map_os_0x000000004121a000:

000000004121a000 <__pagetable_map_os_0x000000004121a000>:
	...
    4121a6a8:	10e66cc7          	fmsub.s	f25,f12,f14,f2,unknown
    4121a6ac:	0000                	.insn	2, 0x0000
	...

Disassembly of section .__pagetable_map_os_0x0000000041681000:

0000000041681000 <__pagetable_map_os_0x0000000041681000>:
	...
    416812d0:	1049acc7          	fmsub.s	f25,f19,f4,f2,rdn
    416812d4:	0000                	.insn	2, 0x0000
	...

Disassembly of section .__pagetable_map_os_0x00000000412ad000:

00000000412ad000 <__pagetable_map_os_0x00000000412ad000>:
	...
    412ad418:	104edcc7          	fmsub.s	f25,f29,f4,f2,unknown
    412ad41c:	0000                	.insn	2, 0x0000
	...

Disassembly of section .__pagetable_map_os_0x0000000041683000:

0000000041683000 <__pagetable_map_os_0x0000000041683000>:
	...
    41683070:	f001                	.insn	2, 0xf001
    41683072:	1060                	.insn	2, 0x1060
    41683074:	0000                	.insn	2, 0x0000
	...

Disassembly of section .__pagetable_map_os_0x000000004183c000:

000000004183c000 <__pagetable_map_os_0x000000004183c000>:
	...
    4183cf90:	1063a8c7          	fmsub.s	f17,f7,f6,f2,rdn
    4183cf94:	0000                	.insn	2, 0x0000
	...

Disassembly of section .__pagetable_map_os_0x0000000041aab000:

0000000041aab000 <__pagetable_map_os_0x0000000041aab000>:
	...
    41aabbb0:	2801                	.insn	2, 0x2801
    41aabbb2:	1051                	.insn	2, 0x1051
    41aabbb4:	0000                	.insn	2, 0x0000
	...

Disassembly of section .__pagetable_map_os_0x000000004144a000:

000000004144a000 <__pagetable_map_os_0x000000004144a000>:
	...
    4144a4f0:	10e058c7          	fmsub.s	f17,f0,f14,f2,unknown
    4144a4f4:	0000                	.insn	2, 0x0000
	...

Disassembly of section .__pagetable_map_os_0x00000000433bf000:

00000000433bf000 <__pagetable_map_os_0x00000000433bf000>:
	...
    433bf5b0:	f401                	.insn	2, 0xf401
    433bf5b2:	1064                	.insn	2, 0x1064
    433bf5b4:	0000                	.insn	2, 0x0000
	...

Disassembly of section .__pagetable_map_os_0x000000004193d000:

000000004193d000 <__pagetable_map_os_0x000000004193d000>:
	...
    4193dea8:	104a94c7          	fmsub.s	f9,f21,f4,f2,rtz
    4193deac:	0000                	.insn	2, 0x0000
	...

Disassembly of section .__pagetable_map_os_0x00000000418ef000:

00000000418ef000 <__pagetable_map_os_0x00000000418ef000>:
	...
    418ef020:	fc01                	.insn	2, 0xfc01
    418ef022:	10e5                	.insn	2, 0x10e5
    418ef024:	0000                	.insn	2, 0x0000
	...

Disassembly of section .__pagetable_map_os_0x000000004397f000:

000000004397f000 <__pagetable_map_os_0x000000004397f000>:
	...
    4397f060:	9801                	.insn	2, 0x9801
    4397f062:	104a                	.insn	2, 0x104a
    4397f064:	0000                	.insn	2, 0x0000
	...

Disassembly of section .__pagetable_map_os_0x00000000412a6000:

00000000412a6000 <__pagetable_map_os_0x00000000412a6000>:
	...
    412a61e0:	106308cf          	fnmadd.s	f17,f6,f6,f2,rne
    412a61e4:	0000                	.insn	2, 0x0000
    412a61e6:	0000                	.insn	2, 0x0000
    412a61e8:	10630ccf          	fnmadd.s	f25,f6,f6,f2,rne
    412a61ec:	0000                	.insn	2, 0x0000
	...

Disassembly of section .__pagetable_map_os_0x000000004169e000:

000000004169e000 <__pagetable_map_os_0x000000004169e000>:
	...
    4169e358:	b001                	.insn	2, 0xb001
    4169e35a:	106a                	.insn	2, 0x106a
    4169e35c:	0000                	.insn	2, 0x0000
	...

Disassembly of section .__pagetable_map_os_0x0000000041aac000:

0000000041aac000 <__pagetable_map_os_0x0000000041aac000>:
	...
    41aac460:	4001                	.insn	2, 0x4001
    41aac462:	105a                	.insn	2, 0x105a
    41aac464:	0000                	.insn	2, 0x0000
	...

Disassembly of section .__pagetable_map_os_0x0000000041690000:

0000000041690000 <__pagetable_map_os_0x0000000041690000>:
	...
    416904a8:	1059f8cf          	fnmadd.s	f17,f19,f5,f2
    416904ac:	0000                	.insn	2, 0x0000
	...

Disassembly of section .__pagetable_map_os_0x00000000418eb000:

00000000418eb000 <__pagetable_map_os_0x00000000418eb000>:
	...
    418eb1c0:	e801                	.insn	2, 0xe801
    418eb1c2:	00001063          	bnez	x0,418eb1c2 <__pagetable_map_os_0x00000000418eb000+0x1c2>
	...

Disassembly of section .__pagetable_map_os_0x00000000418fa000:

00000000418fa000 <__pagetable_map_os_0x00000000418fa000>:
	...
    418fa918:	d401                	.insn	2, 0xd401
    418fa91a:	10ce                	.insn	2, 0x10ce
    418fa91c:	0000                	.insn	2, 0x0000
	...

Disassembly of section .__pagetable_map_os_0x00000000433b5000:

00000000433b5000 <__pagetable_map_os_0x00000000433b5000>:
	...
    433b5050:	10665cc7          	fmsub.s	f25,f12,f6,f2,unknown
    433b5054:	0000                	.insn	2, 0x0000
	...

Disassembly of section .__pagetable_map_os_0x00000000433fb000:

00000000433fb000 <__pagetable_map_os_0x00000000433fb000>:
	...
    433fb318:	fc01                	.insn	2, 0xfc01
    433fb31a:	1059                	.insn	2, 0x1059
    433fb31c:	0000                	.insn	2, 0x0000
	...

Disassembly of section .__pagetable_map_os_0x000000004167f000:

000000004167f000 <__pagetable_map_os_0x000000004167f000>:
	...
    4167f900:	e001                	.insn	2, 0xe001
    4167f902:	1066                	.insn	2, 0x1066
    4167f904:	0000                	.insn	2, 0x0000
	...

Disassembly of section .__pagetable_map_os_0x00000000419b8000:

00000000419b8000 <__pagetable_map_os_0x00000000419b8000>:
	...
    419b8b90:	106aa0c7          	fmsub.s	f1,f21,f6,f2,rdn
    419b8b94:	0000                	.insn	2, 0x0000
	...

Disassembly of section .__pagetable_map_os_0x0000000041239000:

0000000041239000 <__pagetable_map_os_0x0000000041239000>:
	...
    41239648:	b001                	.insn	2, 0xb001
    4123964a:	104a                	.insn	2, 0x104a
    4123964c:	0000                	.insn	2, 0x0000
	...

Disassembly of section .__pagetable_map_os_0x00000000412ac000:

00000000412ac000 <__pagetable_map_os_0x00000000412ac000>:
	...
    412ac3f0:	a801                	.insn	2, 0xa801
    412ac3f2:	0000105b          	.insn	4, 0x105b
	...

Disassembly of section .__pagetable_map_os_0x00000000416ea000:

00000000416ea000 <__pagetable_map_os_0x00000000416ea000>:
	...
    416ea278:	7401                	.insn	2, 0x7401
    416ea27a:	1051                	.insn	2, 0x1051
    416ea27c:	0000                	.insn	2, 0x0000
	...

Disassembly of section .__pagetable_map_os_0x000000004145d000:

000000004145d000 <__pagetable_map_os_0x000000004145d000>:
	...
    4145d8f0:	10d380cf          	fnmadd.s	f1,f7,f13,f2,rne
    4145d8f4:	0000                	.insn	2, 0x0000
    4145d8f6:	0000                	.insn	2, 0x0000
    4145d8f8:	10d384cf          	fnmadd.s	f9,f7,f13,f2,rne
    4145d8fc:	0000                	.insn	2, 0x0000
	...

Disassembly of section .__pagetable_map_os_0x000000004143d000:

000000004143d000 <__pagetable_map_os_0x000000004143d000>:
	...
    4143d940:	f401                	.insn	2, 0xf401
    4143d942:	1062                	.insn	2, 0x1062
	...
    4143df98:	2401                	.insn	2, 0x2401
    4143df9a:	1051                	.insn	2, 0x1051
    4143df9c:	0000                	.insn	2, 0x0000
	...

Disassembly of section .__pagetable_map_os_0x00000000418bd000:

00000000418bd000 <__pagetable_map_os_0x00000000418bd000>:
	...
    418bd7e0:	8001                	.insn	2, 0x8001
    418bd7e2:	10cc                	.insn	2, 0x10cc
    418bd7e4:	0000                	.insn	2, 0x0000
	...

Disassembly of section .__pagetable_map_os_0x0000000043320000:

0000000043320000 <__pagetable_map_os_0x0000000043320000>:
	...
    433203e8:	bc01                	.insn	2, 0xbc01
    433203ea:	104a                	.insn	2, 0x104a
    433203ec:	0000                	.insn	2, 0x0000
	...

Disassembly of section .__pagetable_map_os_0x00000000412af000:

00000000412af000 <__pagetable_map_os_0x00000000412af000>:
	...
    412af9f0:	1063b8c7          	fmsub.s	f17,f7,f6,f2,rup
    412af9f4:	0000                	.insn	2, 0x0000
	...

Disassembly of section .__pagetable_map_os_0x0000000041449000:

0000000041449000 <__pagetable_map_os_0x0000000041449000>:
	...
    41449a38:	2401                	.insn	2, 0x2401
    41449a3a:	00001067          	.insn	4, 0x1067
	...

Disassembly of section .__pagetable_map_os_0x00000000419c9000:

00000000419c9000 <__pagetable_map_os_0x00000000419c9000>:
	...
    419c9bd0:	b401                	.insn	2, 0xb401
    419c9bd2:	106a                	.insn	2, 0x106a
    419c9bd4:	0000                	.insn	2, 0x0000
	...

Disassembly of section .__pagetable_map_os_0x0000000041aad000:

0000000041aad000 <__pagetable_map_os_0x0000000041aad000>:
	...
    41aad7b0:	104aacc7          	fmsub.s	f25,f21,f4,f2,rdn
    41aad7b4:	0000                	.insn	2, 0x0000
	...

Disassembly of section .__pagetable_map_os_0x00000000413d9000:

00000000413d9000 <__pagetable_map_os_0x00000000413d9000>:
	...
    413d9a20:	dc01                	.insn	2, 0xdc01
    413d9a22:	00001063          	bnez	x0,413d9a22 <__pagetable_map_os_0x00000000413d9000+0xa22>
	...

Disassembly of section .__pagetable_map_os_0x00000000418f7000:

00000000418f7000 <__pagetable_map_os_0x00000000418f7000>:
	...
    418f7808:	a001                	.insn	2, 0xa001
    418f780a:	0000105b          	.insn	4, 0x105b
	...

Disassembly of section .__pagetable_map_os_0x00000000416e8000:

00000000416e8000 <__pagetable_map_os_0x00000000416e8000>:
	...
    416e8f88:	3801                	.insn	2, 0x3801
    416e8f8a:	000010cb          	fnmsub.s	f1,f0,f0,f0,rtz
	...

Disassembly of section .__pagetable_map_os_0x00000000432ce000:

00000000432ce000 <__pagetable_map_os_0x00000000432ce000>:
	...
    432ce208:	104a74c7          	fmsub.s	f9,f20,f4,f2
    432ce20c:	0000                	.insn	2, 0x0000
	...
