
/home/abdullah/RiescueC/riescue/10x_R/zjpm/testsuite/zjpm/machine/tp_zjpm_2:     file format elf64-littleriscv


Disassembly of section .runtime:

0000000080000000 <_start>:
    80000000:	00000093          	li	x1,0
    80000004:	00000113          	li	x2,0
    80000008:	00000193          	li	x3,0
    8000000c:	00000213          	li	x4,0
    80000010:	00000293          	li	x5,0
    80000014:	00000313          	li	x6,0
    80000018:	00000393          	li	x7,0
    8000001c:	00000413          	li	x8,0
    80000020:	00000493          	li	x9,0
    80000024:	00000513          	li	x10,0
    80000028:	00000593          	li	x11,0
    8000002c:	00000613          	li	x12,0
    80000030:	00000693          	li	x13,0
    80000034:	00000713          	li	x14,0
    80000038:	00000793          	li	x15,0
    8000003c:	00000813          	li	x16,0
    80000040:	00000893          	li	x17,0
    80000044:	00000913          	li	x18,0
    80000048:	00000993          	li	x19,0
    8000004c:	00000a13          	li	x20,0
    80000050:	00000a93          	li	x21,0
    80000054:	00000b13          	li	x22,0
    80000058:	00000b93          	li	x23,0
    8000005c:	00000c13          	li	x24,0
    80000060:	00000c93          	li	x25,0
    80000064:	00000d13          	li	x26,0
    80000068:	00000d93          	li	x27,0
    8000006c:	00000e13          	li	x28,0
    80000070:	00000e93          	li	x29,0
    80000074:	00000f13          	li	x30,0
    80000078:	00000f93          	li	x31,0

000000008000007c <loader__load_panic_address>:
    8000007c:	00001297          	auipc	x5,0x1
    80000080:	c2828293          	addi	x5,x5,-984 # 80000ca4 <eot__failed>
    80000084:	30529073          	csrw	mtvec,x5

0000000080000088 <loader__initialize_runtime>:
    80000088:	0010029b          	addiw	x5,x0,1
    8000008c:	03229293          	slli	x5,x5,0x32
    80000090:	20128293          	addi	x5,x5,513
    80000094:	00c29293          	slli	x5,x5,0xc
    80000098:	1ad28293          	addi	x5,x5,429
    8000009c:	3012a2f3          	csrrs	x5,misa,x5

00000000800000a0 <loader__set_mstatus>:
    800000a0:	000422b7          	lui	x5,0x42
    800000a4:	20a2829b          	addiw	x5,x5,522 # 4220a <_all_interrupts+0x3f760>
    800000a8:	3002a2f3          	csrrs	x5,mstatus,x5

00000000800000ac <loader__init_fp_registers>:
    800000ac:	000382b7          	lui	x5,0x38
    800000b0:	6992829b          	addiw	x5,x5,1689 # 38699 <_all_interrupts+0x35bef>
    800000b4:	00e29293          	slli	x5,x5,0xe
    800000b8:	b4528293          	addi	x5,x5,-1211
    800000bc:	00d29293          	slli	x5,x5,0xd
    800000c0:	09828293          	addi	x5,x5,152
    800000c4:	0002b007          	fld	f0,0(x5)
    800000c8:	0002b087          	fld	f1,0(x5)
    800000cc:	0002b107          	fld	f2,0(x5)
    800000d0:	0002b187          	fld	f3,0(x5)
    800000d4:	0002b207          	fld	f4,0(x5)
    800000d8:	0002b287          	fld	f5,0(x5)
    800000dc:	0002b307          	fld	f6,0(x5)
    800000e0:	0002b387          	fld	f7,0(x5)
    800000e4:	0002b407          	fld	f8,0(x5)
    800000e8:	0002b487          	fld	f9,0(x5)
    800000ec:	0002b507          	fld	f10,0(x5)
    800000f0:	0002b587          	fld	f11,0(x5)
    800000f4:	0002b607          	fld	f12,0(x5)
    800000f8:	0002b687          	fld	f13,0(x5)
    800000fc:	0002b707          	fld	f14,0(x5)
    80000100:	0002b787          	fld	f15,0(x5)
    80000104:	0002b807          	fld	f16,0(x5)
    80000108:	0002b887          	fld	f17,0(x5)
    8000010c:	0002b907          	fld	f18,0(x5)
    80000110:	0002b987          	fld	f19,0(x5)
    80000114:	0002ba07          	fld	f20,0(x5)
    80000118:	0002ba87          	fld	f21,0(x5)
    8000011c:	0002bb07          	fld	f22,0(x5)
    80000120:	0002bb87          	fld	f23,0(x5)
    80000124:	0002bc07          	fld	f24,0(x5)
    80000128:	0002bc87          	fld	f25,0(x5)
    8000012c:	0002bd07          	fld	f26,0(x5)
    80000130:	0002bd87          	fld	f27,0(x5)
    80000134:	0002be07          	fld	f28,0(x5)
    80000138:	0002be87          	fld	f29,0(x5)
    8000013c:	0002bf07          	fld	f30,0(x5)
    80000140:	0002bf87          	fld	f31,0(x5)

0000000080000144 <loader__init_vector_registers>:
    80000144:	00000213          	li	x4,0
    80000148:	00400293          	li	x5,4
    8000014c:	0d800313          	li	x6,216
    80000150:	8062f257          	vsetvl	x4,x5,x6
    80000154:	5e004057          	vmv.v.x	v0,x0
    80000158:	5e0040d7          	vmv.v.x	v1,x0
    8000015c:	5e004157          	vmv.v.x	v2,x0
    80000160:	5e0041d7          	vmv.v.x	v3,x0
    80000164:	5e004257          	vmv.v.x	v4,x0
    80000168:	5e0042d7          	vmv.v.x	v5,x0
    8000016c:	5e004357          	vmv.v.x	v6,x0
    80000170:	5e0043d7          	vmv.v.x	v7,x0
    80000174:	5e004457          	vmv.v.x	v8,x0
    80000178:	5e0044d7          	vmv.v.x	v9,x0
    8000017c:	5e004557          	vmv.v.x	v10,x0
    80000180:	5e0045d7          	vmv.v.x	v11,x0
    80000184:	5e004657          	vmv.v.x	v12,x0
    80000188:	5e0046d7          	vmv.v.x	v13,x0
    8000018c:	5e004757          	vmv.v.x	v14,x0
    80000190:	5e0047d7          	vmv.v.x	v15,x0
    80000194:	5e004857          	vmv.v.x	v16,x0
    80000198:	5e0048d7          	vmv.v.x	v17,x0
    8000019c:	5e004957          	vmv.v.x	v18,x0
    800001a0:	5e0049d7          	vmv.v.x	v19,x0
    800001a4:	5e004a57          	vmv.v.x	v20,x0
    800001a8:	5e004ad7          	vmv.v.x	v21,x0
    800001ac:	5e004b57          	vmv.v.x	v22,x0
    800001b0:	5e004bd7          	vmv.v.x	v23,x0
    800001b4:	5e004c57          	vmv.v.x	v24,x0
    800001b8:	5e004cd7          	vmv.v.x	v25,x0
    800001bc:	5e004d57          	vmv.v.x	v26,x0
    800001c0:	5e004dd7          	vmv.v.x	v27,x0
    800001c4:	5e004e57          	vmv.v.x	v28,x0
    800001c8:	5e004ed7          	vmv.v.x	v29,x0
    800001cc:	5e004f57          	vmv.v.x	v30,x0
    800001d0:	5e004fd7          	vmv.v.x	v31,x0
    800001d4:	000f6237          	lui	x4,0xf6
    800001d8:	cff2021b          	addiw	x4,x4,-769 # f5cff <_all_interrupts+0xf3255>
    800001dc:	00c21213          	slli	x4,x4,0xc
    800001e0:	34021073          	csrw	mscratch,x4
    800001e4:	000f6237          	lui	x4,0xf6
    800001e8:	cff2021b          	addiw	x4,x4,-769 # f5cff <_all_interrupts+0xf3255>
    800001ec:	00c21213          	slli	x4,x4,0xc
    800001f0:	14021073          	csrw	sscratch,x4
    800001f4:	000f6237          	lui	x4,0xf6
    800001f8:	cff2021b          	addiw	x4,x4,-769 # f5cff <_all_interrupts+0xf3255>
    800001fc:	00c21213          	slli	x4,x4,0xc

0000000080000200 <loader__setup_medeleg>:
    80000200:	009262b7          	lui	x5,0x926
    80000204:	e472829b          	addiw	x5,x5,-441 # 925e47 <_all_interrupts+0x92339d>
    80000208:	00c29293          	slli	x5,x5,0xc
    8000020c:	49b28293          	addi	x5,x5,1179
    80000210:	00c29293          	slli	x5,x5,0xc
    80000214:	57528293          	addi	x5,x5,1397
    80000218:	00c29293          	slli	x5,x5,0xc
    8000021c:	0d128293          	addi	x5,x5,209
    80000220:	30229073          	csrw	medeleg,x5

0000000080000224 <loader__setup_mideleg>:
    80000224:	28000293          	li	x5,640
    80000228:	30329073          	csrw	mideleg,x5

000000008000022c <loader__setup_tvec>:
    8000022c:	00000297          	auipc	x5,0x0
    80000230:	4f428293          	addi	x5,x5,1268 # 80000720 <trap_handler_m__trap_entry>
    80000234:	30529073          	csrw	mtvec,x5
    80000238:	00010297          	auipc	x5,0x10
    8000023c:	e4028293          	addi	x5,x5,-448 # 80010078 <trap_handler_s__trap_entry>
    80000240:	10529073          	csrw	stvec,x5

0000000080000244 <loader__done>:
    80000244:	2890006f          	j	80000ccc <scheduler__init>

0000000080000248 <loader__panic>:
    80000248:	25d0006f          	j	80000ca4 <eot__failed>

000000008000024c <syscalls__syscall_check_schedule_next_test>:
    8000024c:	00f0029b          	addiw	x5,x0,15
    80000250:	01c29293          	slli	x5,x5,0x1c
    80000254:	00128293          	addi	x5,x5,1
    80000258:	01f29a63          	bne	x5,x31,8000026c <syscalls__syscall_check_fail_test>
    8000025c:	00000317          	auipc	x6,0x0
    80000260:	4c430313          	addi	x6,x6,1220 # 80000720 <trap_handler_m__trap_entry>
    80000264:	30531073          	csrw	mtvec,x6
    80000268:	6fc0006f          	j	80000964 <enter_scheduler>

000000008000026c <syscalls__syscall_check_fail_test>:
    8000026c:	00f0029b          	addiw	x5,x0,15
    80000270:	01c29293          	slli	x5,x5,0x1c
    80000274:	00228293          	addi	x5,x5,2
    80000278:	01f29a63          	bne	x5,x31,8000028c <syscalls__syscall_check_end_test_without_failure>
    8000027c:	00000317          	auipc	x6,0x0
    80000280:	4a430313          	addi	x6,x6,1188 # 80000720 <trap_handler_m__trap_entry>
    80000284:	30531073          	csrw	mtvec,x6
    80000288:	70c0006f          	j	80000994 <test_failed>

000000008000028c <syscalls__syscall_check_end_test_without_failure>:
    8000028c:	00f0029b          	addiw	x5,x0,15
    80000290:	01c29293          	slli	x5,x5,0x1c
    80000294:	00328293          	addi	x5,x5,3
    80000298:	01f29a63          	bne	x5,x31,800002ac <syscalls__syscall_check_switch_machine_mode>
    8000029c:	00000317          	auipc	x6,0x0
    800002a0:	48430313          	addi	x6,x6,1156 # 80000720 <trap_handler_m__trap_entry>
    800002a4:	30531073          	csrw	mtvec,x6
    800002a8:	6f80006f          	j	800009a0 <os_end_test>

00000000800002ac <syscalls__syscall_check_switch_machine_mode>:
    800002ac:	000f02b7          	lui	x5,0xf0
    800002b0:	0012829b          	addiw	x5,x5,1 # f0001 <_all_interrupts+0xed557>
    800002b4:	00c29293          	slli	x5,x5,0xc
    800002b8:	00128293          	addi	x5,x5,1
    800002bc:	0a5f8463          	beq	x31,x5,80000364 <syscalls__os_fn_f0001001>

00000000800002c0 <syscalls__syscall_check_switch_super_mode>:
    800002c0:	000f02b7          	lui	x5,0xf0
    800002c4:	0012829b          	addiw	x5,x5,1 # f0001 <_all_interrupts+0xed557>
    800002c8:	00c29293          	slli	x5,x5,0xc
    800002cc:	00228293          	addi	x5,x5,2
    800002d0:	0a5f8263          	beq	x31,x5,80000374 <syscalls__os_fn_f0001002>

00000000800002d4 <syscalls__syscall_check_switch_user_mode>:
    800002d4:	000f02b7          	lui	x5,0xf0
    800002d8:	0012829b          	addiw	x5,x5,1 # f0001 <_all_interrupts+0xed557>
    800002dc:	00c29293          	slli	x5,x5,0xc
    800002e0:	00328293          	addi	x5,x5,3
    800002e4:	0c5f8463          	beq	x31,x5,800003ac <syscalls__os_fn_f0001003>

00000000800002e8 <syscalls__syscall_check_switch_test_mode>:
    800002e8:	000f02b7          	lui	x5,0xf0
    800002ec:	0012829b          	addiw	x5,x5,1 # f0001 <_all_interrupts+0xed557>
    800002f0:	00c29293          	slli	x5,x5,0xc
    800002f4:	00428293          	addi	x5,x5,4
    800002f8:	0e5f8263          	beq	x31,x5,800003dc <syscalls__os_fn_f0001004>

00000000800002fc <syscalls__syscall_machine_csr_rw>:
    800002fc:	000f02b7          	lui	x5,0xf0
    80000300:	0012829b          	addiw	x5,x5,1 # f0001 <_all_interrupts+0xed557>
    80000304:	00c29293          	slli	x5,x5,0xc
    80000308:	00528293          	addi	x5,x5,5
    8000030c:	0e5f8e63          	beq	x31,x5,80000408 <syscalls__os_fn_f0001005>

0000000080000310 <syscalls__syscall_supervisor_csr_rw>:
    80000310:	000f02b7          	lui	x5,0xf0
    80000314:	0012829b          	addiw	x5,x5,1 # f0001 <_all_interrupts+0xed557>
    80000318:	00c29293          	slli	x5,x5,0xc
    8000031c:	00628293          	addi	x5,x5,6
    80000320:	0e5f8c63          	beq	x31,x5,80000418 <syscalls__os_fn_f0001006>

0000000080000324 <syscalls__syscall_machine_pte_read>:
    80000324:	000f02b7          	lui	x5,0xf0
    80000328:	0012829b          	addiw	x5,x5,1 # f0001 <_all_interrupts+0xed557>
    8000032c:	00c29293          	slli	x5,x5,0xc
    80000330:	00728293          	addi	x5,x5,7
    80000334:	105f8e63          	beq	x31,x5,80000450 <syscalls__os_fn_f0001007>

0000000080000338 <syscalls__syscall_machine_pte_write>:
    80000338:	000f02b7          	lui	x5,0xf0
    8000033c:	0012829b          	addiw	x5,x5,1 # f0001 <_all_interrupts+0xed557>
    80000340:	00c29293          	slli	x5,x5,0xc
    80000344:	00828293          	addi	x5,x5,8
    80000348:	225f8063          	beq	x31,x5,80000568 <syscalls__os_fn_f0001008>

000000008000034c <syscalls__syscall_check_get_hart_context>:
    8000034c:	000782b7          	lui	x5,0x78
    80000350:	0012829b          	addiw	x5,x5,1 # 78001 <_all_interrupts+0x75557>
    80000354:	00d29293          	slli	x5,x5,0xd
    80000358:	00128293          	addi	x5,x5,1
    8000035c:	325f8263          	beq	x31,x5,80000680 <syscalls__os_get_hart_context>
    80000360:	51c0006f          	j	8000087c <trap_handler_m__check_exception_label>

0000000080000364 <syscalls__os_fn_f0001001>:
    80000364:	000202b7          	lui	x5,0x20
    80000368:	0652829b          	addiw	x5,x5,101 # 20065 <_all_interrupts+0x1d5bb>
    8000036c:	00e29293          	slli	x5,x5,0xe
    80000370:	3200006f          	j	80000690 <syscalls__ret_from_os_fn>

0000000080000374 <syscalls__os_fn_f0001002>:
    80000374:	000022b7          	lui	x5,0x2
    80000378:	8002829b          	addiw	x5,x5,-2048 # 1800 <FS_RANDOMIZATION+0x179c>
    8000037c:	3002b073          	csrc	mstatus,x5
    80000380:	000012b7          	lui	x5,0x1
    80000384:	8002829b          	addiw	x5,x5,-2048 # 800 <FS_RANDOMIZATION+0x79c>
    80000388:	3002a073          	csrs	mstatus,x5
    8000038c:	0010029b          	addiw	x5,x0,1
    80000390:	02729293          	slli	x5,x5,0x27
    80000394:	3002b073          	csrc	mstatus,x5
    80000398:	12000073          	sfence.vma
    8000039c:	000202b7          	lui	x5,0x20
    800003a0:	0252829b          	addiw	x5,x5,37 # 20025 <_all_interrupts+0x1d57b>
    800003a4:	00e29293          	slli	x5,x5,0xe
    800003a8:	2e80006f          	j	80000690 <syscalls__ret_from_os_fn>

00000000800003ac <syscalls__os_fn_f0001003>:
    800003ac:	000022b7          	lui	x5,0x2
    800003b0:	8002829b          	addiw	x5,x5,-2048 # 1800 <FS_RANDOMIZATION+0x179c>
    800003b4:	3002b073          	csrc	mstatus,x5
    800003b8:	00000293          	li	x5,0
    800003bc:	3002a073          	csrs	mstatus,x5
    800003c0:	0010029b          	addiw	x5,x0,1
    800003c4:	02729293          	slli	x5,x5,0x27
    800003c8:	3002b073          	csrc	mstatus,x5
    800003cc:	000202b7          	lui	x5,0x20
    800003d0:	0452829b          	addiw	x5,x5,69 # 20045 <_all_interrupts+0x1d59b>
    800003d4:	00e29293          	slli	x5,x5,0xe
    800003d8:	2b80006f          	j	80000690 <syscalls__ret_from_os_fn>

00000000800003dc <syscalls__os_fn_f0001004>:
    800003dc:	000022b7          	lui	x5,0x2
    800003e0:	8002829b          	addiw	x5,x5,-2048 # 1800 <FS_RANDOMIZATION+0x179c>
    800003e4:	3002b073          	csrc	mstatus,x5
    800003e8:	000022b7          	lui	x5,0x2
    800003ec:	8002829b          	addiw	x5,x5,-2048 # 1800 <FS_RANDOMIZATION+0x179c>
    800003f0:	3002a073          	csrs	mstatus,x5
    800003f4:	0010029b          	addiw	x5,x0,1
    800003f8:	02729293          	slli	x5,x5,0x27
    800003fc:	3002b073          	csrc	mstatus,x5
    80000400:	17823283          	ld	x5,376(x4) # 178 <FS_RANDOMIZATION+0x114>
    80000404:	28c0006f          	j	80000690 <syscalls__ret_from_os_fn>

0000000080000408 <syscalls__os_fn_f0001005>:
    80000408:	000202b7          	lui	x5,0x20
    8000040c:	0852829b          	addiw	x5,x5,133 # 20085 <_all_interrupts+0x1d5db>
    80000410:	00e29293          	slli	x5,x5,0xe
    80000414:	27c0006f          	j	80000690 <syscalls__ret_from_os_fn>

0000000080000418 <syscalls__os_fn_f0001006>:
    80000418:	000022b7          	lui	x5,0x2
    8000041c:	8002829b          	addiw	x5,x5,-2048 # 1800 <FS_RANDOMIZATION+0x179c>
    80000420:	3002b073          	csrc	mstatus,x5
    80000424:	000012b7          	lui	x5,0x1
    80000428:	8002829b          	addiw	x5,x5,-2048 # 800 <FS_RANDOMIZATION+0x79c>
    8000042c:	3002a073          	csrs	mstatus,x5
    80000430:	0010029b          	addiw	x5,x0,1
    80000434:	02729293          	slli	x5,x5,0x27
    80000438:	3002b073          	csrc	mstatus,x5
    8000043c:	12000073          	sfence.vma
    80000440:	000802b7          	lui	x5,0x80
    80000444:	2152829b          	addiw	x5,x5,533 # 80215 <_all_interrupts+0x7d76b>
    80000448:	00c29293          	slli	x5,x5,0xc
    8000044c:	2440006f          	j	80000690 <syscalls__ret_from_os_fn>

0000000080000450 <syscalls__os_fn_f0001007>:
    80000450:	00038fb7          	lui	x31,0x38
    80000454:	699f8f9b          	addiw	x31,x31,1689 # 38699 <_all_interrupts+0x35bef>
    80000458:	00ef9f93          	slli	x31,x31,0xe
    8000045c:	b45f8f93          	addi	x31,x31,-1211
    80000460:	00df9f93          	slli	x31,x31,0xd
    80000464:	0b0f8f93          	addi	x31,x31,176
    80000468:	000fbf83          	ld	x31,0(x31)
    8000046c:	000382b7          	lui	x5,0x38
    80000470:	6992829b          	addiw	x5,x5,1689 # 38699 <_all_interrupts+0x35bef>
    80000474:	00e29293          	slli	x5,x5,0xe
    80000478:	b4528293          	addi	x5,x5,-1211
    8000047c:	00d29293          	slli	x5,x5,0xd
    80000480:	0b828293          	addi	x5,x5,184
    80000484:	0002b283          	ld	x5,0(x5)
    80000488:	00038e37          	lui	x28,0x38
    8000048c:	699e0e1b          	addiw	x28,x28,1689 # 38699 <_all_interrupts+0x35bef>
    80000490:	00ee1e13          	slli	x28,x28,0xe
    80000494:	b45e0e13          	addi	x28,x28,-1211
    80000498:	00de1e13          	slli	x28,x28,0xd
    8000049c:	0c0e0e13          	addi	x28,x28,192
    800004a0:	000e3e03          	ld	x28,0(x28)

00000000800004a4 <syscalls__pte_walk_check_paging_disabled_nonvirt_target_level_read>:
    800004a4:	0c029063          	bnez	x5,80000564 <syscalls__pte_walk_fail_read>

00000000800004a8 <syscalls__pte_walk_check_glevel_without_gstage_read>:
    800004a8:	fff00f93          	li	x31,-1
    800004ac:	0bfe1c63          	bne	x28,x31,80000564 <syscalls__pte_walk_fail_read>

00000000800004b0 <syscalls__pte_walk_loop_read>:
    800004b0:	00038fb7          	lui	x31,0x38
    800004b4:	699f8f9b          	addiw	x31,x31,1689 # 38699 <_all_interrupts+0x35bef>
    800004b8:	00ef9f93          	slli	x31,x31,0xe
    800004bc:	b45f8f93          	addi	x31,x31,-1211
    800004c0:	00df9f93          	slli	x31,x31,0xd
    800004c4:	0b0f8f93          	addi	x31,x31,176
    800004c8:	000fbf83          	ld	x31,0(x31)
    800004cc:	01dfdfb3          	srl	x31,x31,x29
    800004d0:	1fffff93          	andi	x31,x31,511
    800004d4:	003f9f93          	slli	x31,x31,0x3
    800004d8:	01f30333          	add	x6,x6,x31
    800004dc:	005f0e63          	beq	x30,x5,800004f8 <syscalls__pte_walk_done_read>
    800004e0:	00033f83          	ld	x31,0(x6)
    800004e4:	00afdf93          	srli	x31,x31,0xa
    800004e8:	00cf9313          	slli	x6,x31,0xc
    800004ec:	001f0f13          	addi	x30,x30,1
    800004f0:	ff7e8e93          	addi	x29,x29,-9
    800004f4:	fbdff06f          	j	800004b0 <syscalls__pte_walk_loop_read>

00000000800004f8 <syscalls__pte_walk_done_read>:
    800004f8:	fff00f93          	li	x31,-1
    800004fc:	05fe0a63          	beq	x28,x31,80000550 <syscalls__pte_walk_final_read>

0000000080000500 <syscalls__pte_walk_gstage_read>:
    80000500:	00038fb7          	lui	x31,0x38
    80000504:	699f8f9b          	addiw	x31,x31,1689 # 38699 <_all_interrupts+0x35bef>
    80000508:	00ef9f93          	slli	x31,x31,0xe
    8000050c:	b45f8f93          	addi	x31,x31,-1211
    80000510:	00df9f93          	slli	x31,x31,0xd
    80000514:	0b0f8f93          	addi	x31,x31,176
    80000518:	006fb023          	sd	x6,0(x31)
    8000051c:	000e0293          	mv	x5,x28
    80000520:	fff00e13          	li	x28,-1
    80000524:	68002373          	csrr	x6,hgatp
    80000528:	03c35e93          	srli	x29,x6,0x3c
    8000052c:	01431313          	slli	x6,x6,0x14
    80000530:	01435313          	srli	x6,x6,0x14
    80000534:	00c31313          	slli	x6,x6,0xc
    80000538:	ff8e8e93          	addi	x29,x29,-8
    8000053c:	003e9f13          	slli	x30,x29,0x3
    80000540:	01df0eb3          	add	x29,x30,x29
    80000544:	01ee8e93          	addi	x29,x29,30
    80000548:	00000f13          	li	x30,0
    8000054c:	f65ff06f          	j	800004b0 <syscalls__pte_walk_loop_read>

0000000080000550 <syscalls__pte_walk_final_read>:
    80000550:	00033383          	ld	x7,0(x6)
    80000554:	341022f3          	csrr	x5,mepc
    80000558:	00428293          	addi	x5,x5,4
    8000055c:	16523c23          	sd	x5,376(x4) # 178 <FS_RANDOMIZATION+0x114>
    80000560:	e7dff06f          	j	800003dc <syscalls__os_fn_f0001004>

0000000080000564 <syscalls__pte_walk_fail_read>:
    80000564:	4300006f          	j	80000994 <test_failed>

0000000080000568 <syscalls__os_fn_f0001008>:
    80000568:	00038fb7          	lui	x31,0x38
    8000056c:	699f8f9b          	addiw	x31,x31,1689 # 38699 <_all_interrupts+0x35bef>
    80000570:	00ef9f93          	slli	x31,x31,0xe
    80000574:	b45f8f93          	addi	x31,x31,-1211
    80000578:	00df9f93          	slli	x31,x31,0xd
    8000057c:	0b0f8f93          	addi	x31,x31,176
    80000580:	000fbf83          	ld	x31,0(x31)
    80000584:	000382b7          	lui	x5,0x38
    80000588:	6992829b          	addiw	x5,x5,1689 # 38699 <_all_interrupts+0x35bef>
    8000058c:	00e29293          	slli	x5,x5,0xe
    80000590:	b4528293          	addi	x5,x5,-1211
    80000594:	00d29293          	slli	x5,x5,0xd
    80000598:	0b828293          	addi	x5,x5,184
    8000059c:	0002b283          	ld	x5,0(x5)
    800005a0:	00038e37          	lui	x28,0x38
    800005a4:	699e0e1b          	addiw	x28,x28,1689 # 38699 <_all_interrupts+0x35bef>
    800005a8:	00ee1e13          	slli	x28,x28,0xe
    800005ac:	b45e0e13          	addi	x28,x28,-1211
    800005b0:	00de1e13          	slli	x28,x28,0xd
    800005b4:	0c0e0e13          	addi	x28,x28,192
    800005b8:	000e3e03          	ld	x28,0(x28)

00000000800005bc <syscalls__pte_walk_check_paging_disabled_nonvirt_target_level_write>:
    800005bc:	0c029063          	bnez	x5,8000067c <syscalls__pte_walk_fail_write>

00000000800005c0 <syscalls__pte_walk_check_glevel_without_gstage_write>:
    800005c0:	fff00f93          	li	x31,-1
    800005c4:	0bfe1c63          	bne	x28,x31,8000067c <syscalls__pte_walk_fail_write>

00000000800005c8 <syscalls__pte_walk_loop_write>:
    800005c8:	00038fb7          	lui	x31,0x38
    800005cc:	699f8f9b          	addiw	x31,x31,1689 # 38699 <_all_interrupts+0x35bef>
    800005d0:	00ef9f93          	slli	x31,x31,0xe
    800005d4:	b45f8f93          	addi	x31,x31,-1211
    800005d8:	00df9f93          	slli	x31,x31,0xd
    800005dc:	0b0f8f93          	addi	x31,x31,176
    800005e0:	000fbf83          	ld	x31,0(x31)
    800005e4:	01dfdfb3          	srl	x31,x31,x29
    800005e8:	1fffff93          	andi	x31,x31,511
    800005ec:	003f9f93          	slli	x31,x31,0x3
    800005f0:	01f30333          	add	x6,x6,x31
    800005f4:	005f0e63          	beq	x30,x5,80000610 <syscalls__pte_walk_done_write>
    800005f8:	00033f83          	ld	x31,0(x6)
    800005fc:	00afdf93          	srli	x31,x31,0xa
    80000600:	00cf9313          	slli	x6,x31,0xc
    80000604:	001f0f13          	addi	x30,x30,1
    80000608:	ff7e8e93          	addi	x29,x29,-9
    8000060c:	fbdff06f          	j	800005c8 <syscalls__pte_walk_loop_write>

0000000080000610 <syscalls__pte_walk_done_write>:
    80000610:	fff00f93          	li	x31,-1
    80000614:	05fe0a63          	beq	x28,x31,80000668 <syscalls__pte_walk_final_write>

0000000080000618 <syscalls__pte_walk_gstage_write>:
    80000618:	00038fb7          	lui	x31,0x38
    8000061c:	699f8f9b          	addiw	x31,x31,1689 # 38699 <_all_interrupts+0x35bef>
    80000620:	00ef9f93          	slli	x31,x31,0xe
    80000624:	b45f8f93          	addi	x31,x31,-1211
    80000628:	00df9f93          	slli	x31,x31,0xd
    8000062c:	0b0f8f93          	addi	x31,x31,176
    80000630:	006fb023          	sd	x6,0(x31)
    80000634:	000e0293          	mv	x5,x28
    80000638:	fff00e13          	li	x28,-1
    8000063c:	68002373          	csrr	x6,hgatp
    80000640:	03c35e93          	srli	x29,x6,0x3c
    80000644:	01431313          	slli	x6,x6,0x14
    80000648:	01435313          	srli	x6,x6,0x14
    8000064c:	00c31313          	slli	x6,x6,0xc
    80000650:	ff8e8e93          	addi	x29,x29,-8
    80000654:	003e9f13          	slli	x30,x29,0x3
    80000658:	01df0eb3          	add	x29,x30,x29
    8000065c:	01ee8e93          	addi	x29,x29,30
    80000660:	00000f13          	li	x30,0
    80000664:	f65ff06f          	j	800005c8 <syscalls__pte_walk_loop_write>

0000000080000668 <syscalls__pte_walk_final_write>:
    80000668:	00733023          	sd	x7,0(x6)
    8000066c:	341022f3          	csrr	x5,mepc
    80000670:	00428293          	addi	x5,x5,4
    80000674:	16523c23          	sd	x5,376(x4) # 178 <FS_RANDOMIZATION+0x114>
    80000678:	d65ff06f          	j	800003dc <syscalls__os_fn_f0001004>

000000008000067c <syscalls__pte_walk_fail_write>:
    8000067c:	3180006f          	j	80000994 <test_failed>

0000000080000680 <syscalls__os_get_hart_context>:
    80000680:	00020513          	mv	x10,x4
    80000684:	341022f3          	csrr	x5,mepc
    80000688:	00428293          	addi	x5,x5,4
    8000068c:	0040006f          	j	80000690 <syscalls__ret_from_os_fn>

0000000080000690 <syscalls__ret_from_os_fn>:
    80000690:	34102373          	csrr	x6,mepc
    80000694:	00430313          	addi	x6,x6,4
    80000698:	16623c23          	sd	x6,376(x4) # 178 <FS_RANDOMIZATION+0x114>
    8000069c:	34129073          	csrw	mepc,x5
    800006a0:	fff00f93          	li	x31,-1
    800006a4:	2a40006f          	j	80000948 <trap_handler_m__skip_xepc_write>

00000000800006a8 <trap_handler_m__invalid_interrupt>:
    800006a8:	2ec0006f          	j	80000994 <test_failed>

00000000800006ac <trap_handler_m__clear_all_interrupts>:
    800006ac:	34401073          	csrw	mip,x0
    800006b0:	30200073          	mret

00000000800006b4 <trap_handler_m___CLEAR_SSI>:
    800006b4:	00200293          	li	x5,2
    800006b8:	3442b073          	csrc	mip,x5
    800006bc:	30200073          	mret

00000000800006c0 <trap_handler_m___CLEAR_MSI>:
    800006c0:	00800293          	li	x5,8
    800006c4:	3442b073          	csrc	mip,x5
    800006c8:	30200073          	mret

00000000800006cc <trap_handler_m___CLEAR_STI>:
    800006cc:	02000293          	li	x5,32
    800006d0:	3442b073          	csrc	mip,x5
    800006d4:	30200073          	mret

00000000800006d8 <trap_handler_m___CLEAR_MTI>:
    800006d8:	08000293          	li	x5,128
    800006dc:	3442b073          	csrc	mip,x5
    800006e0:	30200073          	mret

00000000800006e4 <trap_handler_m___CLEAR_SEI>:
    800006e4:	20000293          	li	x5,512
    800006e8:	3442b073          	csrc	mip,x5
    800006ec:	30200073          	mret

00000000800006f0 <trap_handler_m___CLEAR_MEI>:
    800006f0:	000012b7          	lui	x5,0x1
    800006f4:	8002829b          	addiw	x5,x5,-2048 # 800 <FS_RANDOMIZATION+0x79c>
    800006f8:	3442b073          	csrc	mip,x5
    800006fc:	30200073          	mret

0000000080000700 <trap_handler_m___CLEAR_COI>:
    80000700:	000022b7          	lui	x5,0x2
    80000704:	3442b073          	csrc	mip,x5
    80000708:	30200073          	mret

000000008000070c <trap_handler_m__clear_highest_priority_interrupt>:
    8000070c:	344022f3          	csrr	x5,mip
    80000710:	40500333          	neg	x6,x5
    80000714:	0062f2b3          	and	x5,x5,x6
    80000718:	3442b073          	csrc	mip,x5
    8000071c:	30200073          	mret

0000000080000720 <trap_handler_m__trap_entry>:
    80000720:	0fc0006f          	j	8000081c <trap_handler_m__trap_handler>

0000000080000724 <trap_handler_m__interrupt_vector_table>:
    80000724:	f91ff06f          	j	800006b4 <trap_handler_m___CLEAR_SSI>
    80000728:	f81ff06f          	j	800006a8 <trap_handler_m__invalid_interrupt>
    8000072c:	f95ff06f          	j	800006c0 <trap_handler_m___CLEAR_MSI>
    80000730:	f79ff06f          	j	800006a8 <trap_handler_m__invalid_interrupt>
    80000734:	f99ff06f          	j	800006cc <trap_handler_m___CLEAR_STI>
    80000738:	f71ff06f          	j	800006a8 <trap_handler_m__invalid_interrupt>
    8000073c:	f9dff06f          	j	800006d8 <trap_handler_m___CLEAR_MTI>
    80000740:	f69ff06f          	j	800006a8 <trap_handler_m__invalid_interrupt>
    80000744:	fa1ff06f          	j	800006e4 <trap_handler_m___CLEAR_SEI>
    80000748:	f61ff06f          	j	800006a8 <trap_handler_m__invalid_interrupt>
    8000074c:	fa5ff06f          	j	800006f0 <trap_handler_m___CLEAR_MEI>
    80000750:	f59ff06f          	j	800006a8 <trap_handler_m__invalid_interrupt>
    80000754:	fadff06f          	j	80000700 <trap_handler_m___CLEAR_COI>
    80000758:	f51ff06f          	j	800006a8 <trap_handler_m__invalid_interrupt>
    8000075c:	f4dff06f          	j	800006a8 <trap_handler_m__invalid_interrupt>
    80000760:	fadff06f          	j	8000070c <trap_handler_m__clear_highest_priority_interrupt>
    80000764:	fa9ff06f          	j	8000070c <trap_handler_m__clear_highest_priority_interrupt>
    80000768:	fa5ff06f          	j	8000070c <trap_handler_m__clear_highest_priority_interrupt>
    8000076c:	fa1ff06f          	j	8000070c <trap_handler_m__clear_highest_priority_interrupt>
    80000770:	f9dff06f          	j	8000070c <trap_handler_m__clear_highest_priority_interrupt>
    80000774:	f99ff06f          	j	8000070c <trap_handler_m__clear_highest_priority_interrupt>
    80000778:	f95ff06f          	j	8000070c <trap_handler_m__clear_highest_priority_interrupt>
    8000077c:	f91ff06f          	j	8000070c <trap_handler_m__clear_highest_priority_interrupt>
    80000780:	f8dff06f          	j	8000070c <trap_handler_m__clear_highest_priority_interrupt>
    80000784:	f89ff06f          	j	8000070c <trap_handler_m__clear_highest_priority_interrupt>
    80000788:	f85ff06f          	j	8000070c <trap_handler_m__clear_highest_priority_interrupt>
    8000078c:	f81ff06f          	j	8000070c <trap_handler_m__clear_highest_priority_interrupt>
    80000790:	f7dff06f          	j	8000070c <trap_handler_m__clear_highest_priority_interrupt>
    80000794:	f79ff06f          	j	8000070c <trap_handler_m__clear_highest_priority_interrupt>
    80000798:	f75ff06f          	j	8000070c <trap_handler_m__clear_highest_priority_interrupt>
    8000079c:	f71ff06f          	j	8000070c <trap_handler_m__clear_highest_priority_interrupt>
    800007a0:	f6dff06f          	j	8000070c <trap_handler_m__clear_highest_priority_interrupt>
    800007a4:	f69ff06f          	j	8000070c <trap_handler_m__clear_highest_priority_interrupt>
    800007a8:	f65ff06f          	j	8000070c <trap_handler_m__clear_highest_priority_interrupt>
    800007ac:	f61ff06f          	j	8000070c <trap_handler_m__clear_highest_priority_interrupt>
    800007b0:	f5dff06f          	j	8000070c <trap_handler_m__clear_highest_priority_interrupt>
    800007b4:	f59ff06f          	j	8000070c <trap_handler_m__clear_highest_priority_interrupt>
    800007b8:	f55ff06f          	j	8000070c <trap_handler_m__clear_highest_priority_interrupt>
    800007bc:	f51ff06f          	j	8000070c <trap_handler_m__clear_highest_priority_interrupt>
    800007c0:	f4dff06f          	j	8000070c <trap_handler_m__clear_highest_priority_interrupt>
    800007c4:	f49ff06f          	j	8000070c <trap_handler_m__clear_highest_priority_interrupt>
    800007c8:	f45ff06f          	j	8000070c <trap_handler_m__clear_highest_priority_interrupt>
    800007cc:	f41ff06f          	j	8000070c <trap_handler_m__clear_highest_priority_interrupt>
    800007d0:	f3dff06f          	j	8000070c <trap_handler_m__clear_highest_priority_interrupt>
    800007d4:	f39ff06f          	j	8000070c <trap_handler_m__clear_highest_priority_interrupt>
    800007d8:	f35ff06f          	j	8000070c <trap_handler_m__clear_highest_priority_interrupt>
    800007dc:	f31ff06f          	j	8000070c <trap_handler_m__clear_highest_priority_interrupt>
    800007e0:	f2dff06f          	j	8000070c <trap_handler_m__clear_highest_priority_interrupt>
    800007e4:	f29ff06f          	j	8000070c <trap_handler_m__clear_highest_priority_interrupt>
    800007e8:	f25ff06f          	j	8000070c <trap_handler_m__clear_highest_priority_interrupt>
    800007ec:	f21ff06f          	j	8000070c <trap_handler_m__clear_highest_priority_interrupt>
    800007f0:	f1dff06f          	j	8000070c <trap_handler_m__clear_highest_priority_interrupt>
    800007f4:	f19ff06f          	j	8000070c <trap_handler_m__clear_highest_priority_interrupt>
    800007f8:	f15ff06f          	j	8000070c <trap_handler_m__clear_highest_priority_interrupt>
    800007fc:	f11ff06f          	j	8000070c <trap_handler_m__clear_highest_priority_interrupt>
    80000800:	f0dff06f          	j	8000070c <trap_handler_m__clear_highest_priority_interrupt>
    80000804:	f09ff06f          	j	8000070c <trap_handler_m__clear_highest_priority_interrupt>
    80000808:	f05ff06f          	j	8000070c <trap_handler_m__clear_highest_priority_interrupt>
    8000080c:	f01ff06f          	j	8000070c <trap_handler_m__clear_highest_priority_interrupt>
    80000810:	efdff06f          	j	8000070c <trap_handler_m__clear_highest_priority_interrupt>
    80000814:	ef9ff06f          	j	8000070c <trap_handler_m__clear_highest_priority_interrupt>
    80000818:	ef5ff06f          	j	8000070c <trap_handler_m__clear_highest_priority_interrupt>

000000008000081c <trap_handler_m__trap_handler>:
    8000081c:	342022f3          	csrr	x5,mcause
    80000820:	fff0031b          	addiw	x6,x0,-1
    80000824:	03f31313          	slli	x6,x6,0x3f
    80000828:	00537333          	and	x6,x6,x5
    8000082c:	02030263          	beqz	x6,80000850 <trap_handler_m__exception_path>

0000000080000830 <trap_handler_m__interrupt_handler>:
    80000830:	fff0031b          	addiw	x6,x0,-1
    80000834:	03f31313          	slli	x6,x6,0x3f
    80000838:	0062c2b3          	xor	x5,x5,x6
    8000083c:	00000317          	auipc	x6,0x0
    80000840:	ee430313          	addi	x6,x6,-284 # 80000720 <trap_handler_m__trap_entry>
    80000844:	00229293          	slli	x5,x5,0x2
    80000848:	005302b3          	add	x5,x6,x5
    8000084c:	00028067          	jr	x5 # 2000 <FS_RANDOMIZATION+0x1f9c>

0000000080000850 <trap_handler_m__exception_path>:
    80000850:	34021273          	csrrw	x4,mscratch,x4
    80000854:	00000297          	auipc	x5,0x0
    80000858:	10828293          	addi	x5,x5,264 # 8000095c <trap_handler_m__trap_panic>
    8000085c:	30529073          	csrw	mtvec,x5
    80000860:	0040006f          	j	80000864 <trap_handler_m__excp_entry>

0000000080000864 <trap_handler_m__excp_entry>:
    80000864:	34202373          	csrr	x6,mcause
    80000868:	00800293          	li	x5,8
    8000086c:	00534863          	blt	x6,x5,8000087c <trap_handler_m__check_exception_label>
    80000870:	00b00293          	li	x5,11
    80000874:	0062c463          	blt	x5,x6,8000087c <trap_handler_m__check_exception_label>
    80000878:	9d5ff06f          	j	8000024c <syscalls__syscall_check_schedule_next_test>

000000008000087c <trap_handler_m__check_exception_label>:
    8000087c:	04623c23          	sd	x6,88(x4) # 58 <XLEN+0x18>
    80000880:	341022f3          	csrr	x5,mepc
    80000884:	02523423          	sd	x5,40(x4) # 28 <SECURE_ACCESS_PROBABILITY+0xa>
    80000888:	01820283          	lb	x5,24(x4) # 18 <STORE_GUEST_PAGE_FAULT+0x1>
    8000088c:	00029863          	bnez	x5,8000089c <trap_handler_m__check_excp>
    80000890:	00128293          	addi	x5,x5,1
    80000894:	00520c23          	sb	x5,24(x4) # 18 <STORE_GUEST_PAGE_FAULT+0x1>
    80000898:	0980006f          	j	80000930 <trap_handler_m__ecall_from_machine>

000000008000089c <trap_handler_m__check_excp>:
    8000089c:	06820293          	addi	x5,x4,104 # 68 <FS_RANDOMIZATION+0x4>
    800008a0:	0802b2af          	amoswap.d	x5,x0,(x5)
    800008a4:	00028663          	beqz	x5,800008b0 <trap_handler_m__skip_mode_check>
    800008a8:	00100393          	li	x7,1
    800008ac:	0e729463          	bne	x5,x7,80000994 <test_failed>

00000000800008b0 <trap_handler_m__skip_mode_check>:
    800008b0:	05020293          	addi	x5,x4,80 # 50 <XLEN+0x10>
    800008b4:	0802b2af          	amoswap.d	x5,x0,(x5)
    800008b8:	0c531e63          	bne	x6,x5,80000994 <test_failed>
    800008bc:	03820293          	addi	x5,x4,56 # 38 <SECURE_ACCESS_PROBABILITY+0x1a>
    800008c0:	0802b2af          	amoswap.d	x5,x0,(x5)
    800008c4:	06029463          	bnez	x5,8000092c <trap_handler_m__skip_gva_check>
    800008c8:	02020313          	addi	x6,x4,32 # 20 <SECURE_ACCESS_PROBABILITY+0x2>
    800008cc:	0803332f          	amoswap.d	x6,x0,(x6)
    800008d0:	02820293          	addi	x5,x4,40 # 28 <SECURE_ACCESS_PROBABILITY+0xa>
    800008d4:	0802b2af          	amoswap.d	x5,x0,(x5)
    800008d8:	0a531e63          	bne	x6,x5,80000994 <test_failed>
    800008dc:	04020293          	addi	x5,x4,64 # 40 <XLEN>
    800008e0:	0802b2af          	amoswap.d	x5,x0,(x5)
    800008e4:	00028663          	beqz	x5,800008f0 <trap_handler_m__skip_nonzero_tval_check>

00000000800008e8 <trap_handler_m__nonzero_tval_check>:
    800008e8:	34302373          	csrr	x6,mtval
    800008ec:	0a531463          	bne	x6,x5,80000994 <test_failed>

00000000800008f0 <trap_handler_m__skip_nonzero_tval_check>:
    800008f0:	04820293          	addi	x5,x4,72 # 48 <XLEN+0x8>
    800008f4:	0802b2af          	amoswap.d	x5,x0,(x5)
    800008f8:	00028663          	beqz	x5,80000904 <trap_handler_m__skip_nonzero_htval_check>

00000000800008fc <trap_handler_m__nonzero_htval_check>:
    800008fc:	34b02373          	csrr	x6,0x34b
    80000900:	08531a63          	bne	x6,x5,80000994 <test_failed>

0000000080000904 <trap_handler_m__skip_nonzero_htval_check>:
    80000904:	06020293          	addi	x5,x4,96 # 60 <XLEN+0x20>
    80000908:	0802b2af          	amoswap.d	x5,x0,(x5)
    8000090c:	02028063          	beqz	x5,8000092c <trap_handler_m__skip_gva_check>

0000000080000910 <trap_handler_m__gva_check>:
    80000910:	30002373          	csrr	x6,mstatus
    80000914:	02635313          	srli	x6,x6,0x26
    80000918:	00137313          	andi	x6,x6,1
    8000091c:	06030c63          	beqz	x6,80000994 <test_failed>
    80000920:	0010031b          	addiw	x6,x0,1
    80000924:	02631313          	slli	x6,x6,0x26
    80000928:	30033073          	csrc	mstatus,x6

000000008000092c <trap_handler_m__skip_gva_check>:
    8000092c:	0040006f          	j	80000930 <trap_handler_m__ecall_from_machine>

0000000080000930 <trap_handler_m__ecall_from_machine>:
    80000930:	03020293          	addi	x5,x4,48 # 30 <SECURE_ACCESS_PROBABILITY+0x12>
    80000934:	0802b2af          	amoswap.d	x5,x0,(x5)
    80000938:	07020313          	addi	x6,x4,112 # 70 <FS_RANDOMIZATION+0xc>
    8000093c:	0803332f          	amoswap.d	x6,x0,(x6)
    80000940:	00031463          	bnez	x6,80000948 <trap_handler_m__skip_xepc_write>
    80000944:	34129073          	csrw	mepc,x5

0000000080000948 <trap_handler_m__skip_xepc_write>:
    80000948:	00000317          	auipc	x6,0x0
    8000094c:	dd830313          	addi	x6,x6,-552 # 80000720 <trap_handler_m__trap_entry>
    80000950:	30531073          	csrw	mtvec,x6
    80000954:	34021273          	csrrw	x4,mscratch,x4
    80000958:	30200073          	mret

000000008000095c <trap_handler_m__trap_panic>:
    8000095c:	00000193          	li	x3,0
    80000960:	3200006f          	j	80000c80 <eot__end_test>

0000000080000964 <enter_scheduler>:
    80000964:	0002f337          	lui	x6,0x2f
    80000968:	ab73031b          	addiw	x6,x6,-1353 # 2eab7 <_all_interrupts+0x2c00d>
    8000096c:	00e31313          	slli	x6,x6,0xe
    80000970:	0de30313          	addi	x6,x6,222
    80000974:	02628063          	beq	x5,x6,80000994 <test_failed>
    80000978:	00000513          	li	x10,0
    8000097c:	030000ef          	jal	800009ac <rvcp_print_test_result>
    80000980:	3840006f          	j	80000d04 <scheduler__dispatch>

0000000080000984 <test_passed>:
    80000984:	34021273          	csrrw	x4,mscratch,x4
    80000988:	00000513          	li	x10,0
    8000098c:	020000ef          	jal	800009ac <rvcp_print_test_result>
    80000990:	3740006f          	j	80000d04 <scheduler__dispatch>

0000000080000994 <test_failed>:
    80000994:	34021273          	csrrw	x4,mscratch,x4
    80000998:	00300193          	li	x3,3
    8000099c:	2e40006f          	j	80000c80 <eot__end_test>

00000000800009a0 <os_end_test>:
    800009a0:	34021273          	csrrw	x4,mscratch,x4
    800009a4:	00100193          	li	x3,1
    800009a8:	2d80006f          	j	80000c80 <eot__end_test>

00000000800009ac <rvcp_print_test_result>:
    800009ac:	00050e13          	mv	x28,x10
    800009b0:	19823283          	ld	x5,408(x4) # 198 <FS_RANDOMIZATION+0x134>
    800009b4:	0010031b          	addiw	x6,x0,1
    800009b8:	02031313          	slli	x6,x6,0x20
    800009bc:	ffe30313          	addi	x6,x6,-2
    800009c0:	22628863          	beq	x5,x6,80000bf0 <rvcp_print_test_result+0x244>
    800009c4:	0010031b          	addiw	x6,x0,1
    800009c8:	02031313          	slli	x6,x6,0x20
    800009cc:	fff30313          	addi	x6,x6,-1
    800009d0:	22628063          	beq	x5,x6,80000bf0 <rvcp_print_test_result+0x244>
    800009d4:	2002ce63          	bltz	x5,80000bf0 <rvcp_print_test_result+0x244>
    800009d8:	00000317          	auipc	x6,0x0
    800009dc:	4cc30313          	addi	x6,x6,1228 # 80000ea4 <dtest_descriptor_table>
    800009e0:	00329393          	slli	x7,x5,0x3
    800009e4:	00730333          	add	x6,x6,x7
    800009e8:	00033e83          	ld	x29,0(x6)
    800009ec:	00038f37          	lui	x30,0x38
    800009f0:	699f0f1b          	addiw	x30,x30,1689 # 38699 <_all_interrupts+0x35bef>
    800009f4:	00ef1f13          	slli	x30,x30,0xe
    800009f8:	b45f0f13          	addi	x30,x30,-1211
    800009fc:	00df1f13          	slli	x30,x30,0xd
    80000a00:	030f0f13          	addi	x30,x30,48
    80000a04:	000f4283          	lbu	x5,0(x30)
    80000a08:	02028663          	beqz	x5,80000a34 <rvcp_print_test_result+0x88>
    80000a0c:	1010031b          	addiw	x6,x0,257
    80000a10:	03031313          	slli	x6,x6,0x30
    80000a14:	005362b3          	or	x5,x6,x5
    80000a18:	effff317          	auipc	x6,0xeffff
    80000a1c:	5e830313          	addi	x6,x6,1512 # 70000000 <tohost>
    80000a20:	00033383          	ld	x7,0(x6)
    80000a24:	fe039ee3          	bnez	x7,80000a20 <rvcp_print_test_result+0x74>
    80000a28:	00533023          	sd	x5,0(x6)
    80000a2c:	001f0f13          	addi	x30,x30,1
    80000a30:	fd5ff06f          	j	80000a04 <rvcp_print_test_result+0x58>
    80000a34:	00038f37          	lui	x30,0x38
    80000a38:	699f0f1b          	addiw	x30,x30,1689 # 38699 <_all_interrupts+0x35bef>
    80000a3c:	00ef1f13          	slli	x30,x30,0xe
    80000a40:	b45f0f13          	addi	x30,x30,-1211
    80000a44:	00df1f13          	slli	x30,x30,0xd
    80000a48:	041f0f13          	addi	x30,x30,65
    80000a4c:	000f4283          	lbu	x5,0(x30)
    80000a50:	02028663          	beqz	x5,80000a7c <rvcp_print_test_result+0xd0>
    80000a54:	1010031b          	addiw	x6,x0,257
    80000a58:	03031313          	slli	x6,x6,0x30
    80000a5c:	005362b3          	or	x5,x6,x5
    80000a60:	effff317          	auipc	x6,0xeffff
    80000a64:	5a030313          	addi	x6,x6,1440 # 70000000 <tohost>
    80000a68:	00033383          	ld	x7,0(x6)
    80000a6c:	fe039ee3          	bnez	x7,80000a68 <rvcp_print_test_result+0xbc>
    80000a70:	00533023          	sd	x5,0(x6)
    80000a74:	001f0f13          	addi	x30,x30,1
    80000a78:	fd5ff06f          	j	80000a4c <rvcp_print_test_result+0xa0>
    80000a7c:	00038f37          	lui	x30,0x38
    80000a80:	699f0f1b          	addiw	x30,x30,1689 # 38699 <_all_interrupts+0x35bef>
    80000a84:	00ef1f13          	slli	x30,x30,0xe
    80000a88:	b45f0f13          	addi	x30,x30,-1211
    80000a8c:	00df1f13          	slli	x30,x30,0xd
    80000a90:	059f0f13          	addi	x30,x30,89
    80000a94:	000f4283          	lbu	x5,0(x30)
    80000a98:	02028663          	beqz	x5,80000ac4 <rvcp_print_test_result+0x118>
    80000a9c:	1010031b          	addiw	x6,x0,257
    80000aa0:	03031313          	slli	x6,x6,0x30
    80000aa4:	005362b3          	or	x5,x6,x5
    80000aa8:	effff317          	auipc	x6,0xeffff
    80000aac:	55830313          	addi	x6,x6,1368 # 70000000 <tohost>
    80000ab0:	00033383          	ld	x7,0(x6)
    80000ab4:	fe039ee3          	bnez	x7,80000ab0 <rvcp_print_test_result+0x104>
    80000ab8:	00533023          	sd	x5,0(x6)
    80000abc:	001f0f13          	addi	x30,x30,1
    80000ac0:	fd5ff06f          	j	80000a94 <rvcp_print_test_result+0xe8>
    80000ac4:	000e8f13          	mv	x30,x29
    80000ac8:	000f4283          	lbu	x5,0(x30)
    80000acc:	02028663          	beqz	x5,80000af8 <rvcp_print_test_result+0x14c>
    80000ad0:	1010031b          	addiw	x6,x0,257
    80000ad4:	03031313          	slli	x6,x6,0x30
    80000ad8:	005362b3          	or	x5,x6,x5
    80000adc:	effff317          	auipc	x6,0xeffff
    80000ae0:	52430313          	addi	x6,x6,1316 # 70000000 <tohost>
    80000ae4:	00033383          	ld	x7,0(x6)
    80000ae8:	fe039ee3          	bnez	x7,80000ae4 <rvcp_print_test_result+0x138>
    80000aec:	00533023          	sd	x5,0(x6)
    80000af0:	001f0f13          	addi	x30,x30,1
    80000af4:	fd5ff06f          	j	80000ac8 <rvcp_print_test_result+0x11c>
    80000af8:	00038f37          	lui	x30,0x38
    80000afc:	699f0f1b          	addiw	x30,x30,1689 # 38699 <_all_interrupts+0x35bef>
    80000b00:	00ef1f13          	slli	x30,x30,0xe
    80000b04:	b45f0f13          	addi	x30,x30,-1211
    80000b08:	00df1f13          	slli	x30,x30,0xd
    80000b0c:	059f0f13          	addi	x30,x30,89
    80000b10:	000f4283          	lbu	x5,0(x30)
    80000b14:	02028663          	beqz	x5,80000b40 <rvcp_print_test_result+0x194>
    80000b18:	1010031b          	addiw	x6,x0,257
    80000b1c:	03031313          	slli	x6,x6,0x30
    80000b20:	005362b3          	or	x5,x6,x5
    80000b24:	effff317          	auipc	x6,0xeffff
    80000b28:	4dc30313          	addi	x6,x6,1244 # 70000000 <tohost>
    80000b2c:	00033383          	ld	x7,0(x6)
    80000b30:	fe039ee3          	bnez	x7,80000b2c <rvcp_print_test_result+0x180>
    80000b34:	00533023          	sd	x5,0(x6)
    80000b38:	001f0f13          	addi	x30,x30,1
    80000b3c:	fd5ff06f          	j	80000b10 <rvcp_print_test_result+0x164>
    80000b40:	020e1063          	bnez	x28,80000b60 <rvcp_print_test_result+0x1b4>
    80000b44:	00038f37          	lui	x30,0x38
    80000b48:	699f0f1b          	addiw	x30,x30,1689 # 38699 <_all_interrupts+0x35bef>
    80000b4c:	00ef1f13          	slli	x30,x30,0xe
    80000b50:	b45f0f13          	addi	x30,x30,-1211
    80000b54:	00df1f13          	slli	x30,x30,0xd
    80000b58:	04bf0f13          	addi	x30,x30,75
    80000b5c:	01c0006f          	j	80000b78 <rvcp_print_test_result+0x1cc>
    80000b60:	00038f37          	lui	x30,0x38
    80000b64:	699f0f1b          	addiw	x30,x30,1689 # 38699 <_all_interrupts+0x35bef>
    80000b68:	00ef1f13          	slli	x30,x30,0xe
    80000b6c:	b45f0f13          	addi	x30,x30,-1211
    80000b70:	00df1f13          	slli	x30,x30,0xd
    80000b74:	052f0f13          	addi	x30,x30,82
    80000b78:	000f4283          	lbu	x5,0(x30)
    80000b7c:	02028663          	beqz	x5,80000ba8 <rvcp_print_test_result+0x1fc>
    80000b80:	1010031b          	addiw	x6,x0,257
    80000b84:	03031313          	slli	x6,x6,0x30
    80000b88:	005362b3          	or	x5,x6,x5
    80000b8c:	effff317          	auipc	x6,0xeffff
    80000b90:	47430313          	addi	x6,x6,1140 # 70000000 <tohost>
    80000b94:	00033383          	ld	x7,0(x6)
    80000b98:	fe039ee3          	bnez	x7,80000b94 <rvcp_print_test_result+0x1e8>
    80000b9c:	00533023          	sd	x5,0(x6)
    80000ba0:	001f0f13          	addi	x30,x30,1
    80000ba4:	fd5ff06f          	j	80000b78 <rvcp_print_test_result+0x1cc>
    80000ba8:	00038f37          	lui	x30,0x38
    80000bac:	699f0f1b          	addiw	x30,x30,1689 # 38699 <_all_interrupts+0x35bef>
    80000bb0:	00ef1f13          	slli	x30,x30,0xe
    80000bb4:	b45f0f13          	addi	x30,x30,-1211
    80000bb8:	00df1f13          	slli	x30,x30,0xd
    80000bbc:	05bf0f13          	addi	x30,x30,91
    80000bc0:	000f4283          	lbu	x5,0(x30)
    80000bc4:	02028663          	beqz	x5,80000bf0 <rvcp_print_test_result+0x244>
    80000bc8:	1010031b          	addiw	x6,x0,257
    80000bcc:	03031313          	slli	x6,x6,0x30
    80000bd0:	005362b3          	or	x5,x6,x5
    80000bd4:	effff317          	auipc	x6,0xeffff
    80000bd8:	42c30313          	addi	x6,x6,1068 # 70000000 <tohost>
    80000bdc:	00033383          	ld	x7,0(x6)
    80000be0:	fe039ee3          	bnez	x7,80000bdc <rvcp_print_test_result+0x230>
    80000be4:	00533023          	sd	x5,0(x6)
    80000be8:	001f0f13          	addi	x30,x30,1
    80000bec:	fd5ff06f          	j	80000bc0 <rvcp_print_test_result+0x214>
    80000bf0:	00008067          	ret

0000000080000bf4 <os_rng_orig>:
    80000bf4:	f14023f3          	csrr	x7,mhartid
    80000bf8:	00068313          	mv	x6,x13
    80000bfc:	026383b3          	mul	x7,x7,x6
    80000c00:	00058313          	mv	x6,x11
    80000c04:	00730333          	add	x6,x6,x7
    80000c08:	00033283          	ld	x5,0(x6)
    80000c0c:	01529313          	slli	x6,x5,0x15
    80000c10:	0062c2b3          	xor	x5,x5,x6
    80000c14:	0232d313          	srli	x6,x5,0x23
    80000c18:	0062c2b3          	xor	x5,x5,x6
    80000c1c:	00429313          	slli	x6,x5,0x4
    80000c20:	0062c2b3          	xor	x5,x5,x6
    80000c24:	00058313          	mv	x6,x11
    80000c28:	00730333          	add	x6,x6,x7
    80000c2c:	00533023          	sd	x5,0(x6)
    80000c30:	00060313          	mv	x6,x12
    80000c34:	0262f2b3          	remu	x5,x5,x6
    80000c38:	00028513          	mv	x10,x5
    80000c3c:	00008067          	ret
    80000c40:	02a00513          	li	x10,42
    80000c44:	001965b7          	lui	x11,0x196
    80000c48:	60d5859b          	addiw	x11,x11,1549 # 19660d <_all_interrupts+0x193b63>
    80000c4c:	3c6ef637          	lui	x12,0x3c6ef
    80000c50:	35f6061b          	addiw	x12,x12,863 # 3c6ef35f <saplic_255+0x1bdf035f>
    80000c54:	02200693          	li	x13,34
    80000c58:	02b50533          	mul	x10,x10,x11
    80000c5c:	00c50533          	add	x10,x10,x12
    80000c60:	02d56533          	rem	x10,x10,x13
    80000c64:	00b00593          	li	x11,11
    80000c68:	02b56533          	rem	x10,x10,x11
    80000c6c:	00008067          	ret

0000000080000c70 <tohost_mutex>:
	...

0000000080000c78 <tohost_addr_mem>:
    80000c78:	0000                	.insn	2, 0x0000
    80000c7a:	7000                	.insn	2, 0x7000
    80000c7c:	0000                	.insn	2, 0x0000
	...

0000000080000c80 <eot__end_test>:
    80000c80:	00100293          	li	x5,1
    80000c84:	00328463          	beq	x5,x3,80000c8c <eot__passed>
    80000c88:	01c0006f          	j	80000ca4 <eot__failed>

0000000080000c8c <eot__passed>:
    80000c8c:	0ff0000f          	fence
    80000c90:	00000297          	auipc	x5,0x0
    80000c94:	fe82b283          	ld	x5,-24(x5) # 80000c78 <tohost_addr_mem>
    80000c98:	00100313          	li	x6,1
    80000c9c:	0062a023          	sw	x6,0(x5)
    80000ca0:	0240006f          	j	80000cc4 <eot__halt>

0000000080000ca4 <eot__failed>:
    80000ca4:	00100513          	li	x10,1
    80000ca8:	d05ff0ef          	jal	800009ac <rvcp_print_test_result>
    80000cac:	0ff0000f          	fence
    80000cb0:	00000297          	auipc	x5,0x0
    80000cb4:	fc82b283          	ld	x5,-56(x5) # 80000c78 <tohost_addr_mem>
    80000cb8:	00300313          	li	x6,3
    80000cbc:	0062a023          	sw	x6,0(x5)
    80000cc0:	0040006f          	j	80000cc4 <eot__halt>

0000000080000cc4 <eot__halt>:
    80000cc4:	10500073          	wfi
    80000cc8:	ffdff06f          	j	80000cc4 <eot__halt>

0000000080000ccc <scheduler__init>:
    80000ccc:	00000297          	auipc	x5,0x0
    80000cd0:	17428293          	addi	x5,x5,372 # 80000e40 <scheduler__panic>
    80000cd4:	305292f3          	csrrw	x5,mtvec,x5
    80000cd8:	18523023          	sd	x5,384(x4) # 180 <FS_RANDOMIZATION+0x11c>
    80000cdc:	00700293          	li	x5,7
    80000ce0:	1a523023          	sd	x5,416(x4) # 1a0 <FS_RANDOMIZATION+0x13c>
    80000ce4:	0010029b          	addiw	x5,x0,1
    80000ce8:	02029293          	slli	x5,x5,0x20
    80000cec:	ffe28293          	addi	x5,x5,-2
    80000cf0:	18523c23          	sd	x5,408(x4) # 198 <FS_RANDOMIZATION+0x134>
    80000cf4:	00000317          	auipc	x6,0x0
    80000cf8:	21030313          	addi	x6,x6,528 # 80000f04 <scheduler__test_setup_ptr>
    80000cfc:	00033303          	ld	x6,0(x6)
    80000d00:	1140006f          	j	80000e14 <scheduler__execute_test>

0000000080000d04 <scheduler__dispatch>:
    80000d04:	300472f3          	csrrci	x5,mstatus,8
    80000d08:	0082f293          	andi	x5,x5,8
    80000d0c:	00429293          	slli	x5,x5,0x4
    80000d10:	3002a073          	csrs	mstatus,x5
    80000d14:	00000297          	auipc	x5,0x0
    80000d18:	12c28293          	addi	x5,x5,300 # 80000e40 <scheduler__panic>
    80000d1c:	305292f3          	csrrw	x5,mtvec,x5
    80000d20:	18523023          	sd	x5,384(x4) # 180 <FS_RANDOMIZATION+0x11c>

0000000080000d24 <scheduler__csr_read_randomization>:
    80000d24:	00000e17          	auipc	x28,0x0
    80000d28:	168e0e13          	addi	x28,x28,360 # 80000e8c <fs_rr_table>
    80000d2c:	18823e83          	ld	x29,392(x4) # 188 <FS_RANDOMIZATION+0x124>
    80000d30:	002e9f13          	slli	x30,x29,0x2
    80000d34:	01ee0f33          	add	x30,x28,x30
    80000d38:	000f2f03          	lw	x30,0(x30)
    80000d3c:	00df1f13          	slli	x30,x30,0xd
    80000d40:	00006e37          	lui	x28,0x6
    80000d44:	300e3073          	csrc	mstatus,x28
    80000d48:	300f2073          	csrs	mstatus,x30
    80000d4c:	001e8e93          	addi	x29,x29,1
    80000d50:	00300e13          	li	x28,3
    80000d54:	01cec463          	blt	x29,x28,80000d5c <scheduler__csr_read_randomization+0x38>
    80000d58:	00000e93          	li	x29,0
    80000d5c:	19d23423          	sd	x29,392(x4) # 188 <FS_RANDOMIZATION+0x124>
    80000d60:	00000e17          	auipc	x28,0x0
    80000d64:	138e0e13          	addi	x28,x28,312 # 80000e98 <vs_rr_table>
    80000d68:	19023e83          	ld	x29,400(x4) # 190 <FS_RANDOMIZATION+0x12c>
    80000d6c:	002e9f13          	slli	x30,x29,0x2
    80000d70:	01ee0f33          	add	x30,x28,x30
    80000d74:	000f2f03          	lw	x30,0(x30)
    80000d78:	009f1f13          	slli	x30,x30,0x9
    80000d7c:	60000e13          	li	x28,1536
    80000d80:	300e3073          	csrc	mstatus,x28
    80000d84:	300f2073          	csrs	mstatus,x30
    80000d88:	001e8e93          	addi	x29,x29,1
    80000d8c:	00300e13          	li	x28,3
    80000d90:	01cec463          	blt	x29,x28,80000d98 <scheduler__csr_read_randomization+0x74>
    80000d94:	00000e93          	li	x29,0
    80000d98:	19d23823          	sd	x29,400(x4) # 190 <FS_RANDOMIZATION+0x12c>
    80000d9c:	104022f3          	csrr	x5,sie
    80000da0:	304022f3          	csrr	x5,mie
    80000da4:	f12022f3          	csrr	x5,marchid
    80000da8:	f13022f3          	csrr	x5,mimpid
    80000dac:	140022f3          	csrr	x5,sscratch
    80000db0:	f15022f3          	csrr	x5,0xf15
    80000db4:	140022f3          	csrr	x5,sscratch
    80000db8:	f13022f3          	csrr	x5,mimpid
    80000dbc:	f15022f3          	csrr	x5,0xf15
    80000dc0:	141022f3          	csrr	x5,sepc
    80000dc4:	f15022f3          	csrr	x5,0xf15
    80000dc8:	f15022f3          	csrr	x5,0xf15
    80000dcc:	f11022f3          	csrr	x5,mvendorid
    80000dd0:	305022f3          	csrr	x5,mtvec
    80000dd4:	142022f3          	csrr	x5,scause

0000000080000dd8 <scheduler__load_num_runs>:
    80000dd8:	1a023303          	ld	x6,416(x4) # 1a0 <FS_RANDOMIZATION+0x13c>
    80000ddc:	04030e63          	beqz	x6,80000e38 <scheduler__finished>

0000000080000de0 <scheduler__decrement_num_runs>:
    80000de0:	fff30393          	addi	x7,x6,-1
    80000de4:	1a723023          	sd	x7,416(x4) # 1a0 <FS_RANDOMIZATION+0x13c>
    80000de8:	00000e17          	auipc	x28,0x0
    80000dec:	0fce0e13          	addi	x28,x28,252 # 80000ee4 <dtest_index_map>
    80000df0:	00239e93          	slli	x29,x7,0x2
    80000df4:	01de0e33          	add	x28,x28,x29
    80000df8:	000e2e03          	lw	x28,0(x28)
    80000dfc:	19c23c23          	sd	x28,408(x4) # 198 <FS_RANDOMIZATION+0x134>

0000000080000e00 <scheduler__calc_test_pointer>:
    80000e00:	00339293          	slli	x5,x7,0x3

0000000080000e04 <scheduler__load_test_addr>:
    80000e04:	00000317          	auipc	x6,0x0
    80000e08:	05030313          	addi	x6,x6,80 # 80000e54 <os_test_sequence>
    80000e0c:	006282b3          	add	x5,x5,x6
    80000e10:	0002b303          	ld	x6,0(x5)

0000000080000e14 <scheduler__execute_test>:
    80000e14:	18023283          	ld	x5,384(x4) # 180 <FS_RANDOMIZATION+0x11c>
    80000e18:	30529073          	csrw	mtvec,x5
    80000e1c:	34021273          	csrrw	x4,mscratch,x4
    80000e20:	00000213          	li	x4,0
    80000e24:	300022f3          	csrr	x5,mstatus
    80000e28:	0802f293          	andi	x5,x5,128
    80000e2c:	0042d293          	srli	x5,x5,0x4
    80000e30:	3002a073          	csrs	mstatus,x5
    80000e34:	00030067          	jr	x6

0000000080000e38 <scheduler__finished>:
    80000e38:	00100193          	li	x3,1
    80000e3c:	e45ff06f          	j	80000c80 <eot__end_test>

0000000080000e40 <scheduler__panic>:
    80000e40:	00000193          	li	x3,0
    80000e44:	e3dff06f          	j	80000c80 <eot__end_test>
    80000e48:	0000                	.insn	2, 0x0000
	...

0000000080000e4c <num_runs>:
    80000e4c:	00000007          	vle8.v	v0,(x0),v0.t
    80000e50:	0000                	.insn	2, 0x0000
	...

0000000080000e54 <os_test_sequence>:
    80000e54:	42b8                	.insn	2, 0x42b8
    80000e56:	8001                	.insn	2, 0x8001
    80000e58:	0000                	.insn	2, 0x0000
    80000e5a:	0000                	.insn	2, 0x0000
    80000e5c:	4160                	.insn	2, 0x4160
    80000e5e:	8001                	.insn	2, 0x8001
    80000e60:	0000                	.insn	2, 0x0000
    80000e62:	0000                	.insn	2, 0x0000
    80000e64:	420c                	.insn	2, 0x420c
    80000e66:	8001                	.insn	2, 0x8001
    80000e68:	0000                	.insn	2, 0x0000
    80000e6a:	0000                	.insn	2, 0x0000
    80000e6c:	4160                	.insn	2, 0x4160
    80000e6e:	8001                	.insn	2, 0x8001
    80000e70:	0000                	.insn	2, 0x0000
    80000e72:	0000                	.insn	2, 0x0000
    80000e74:	420c                	.insn	2, 0x420c
    80000e76:	8001                	.insn	2, 0x8001
    80000e78:	0000                	.insn	2, 0x0000
    80000e7a:	0000                	.insn	2, 0x0000
    80000e7c:	420c                	.insn	2, 0x420c
    80000e7e:	8001                	.insn	2, 0x8001
    80000e80:	0000                	.insn	2, 0x0000
    80000e82:	0000                	.insn	2, 0x0000
    80000e84:	4160                	.insn	2, 0x4160
    80000e86:	8001                	.insn	2, 0x8001
    80000e88:	0000                	.insn	2, 0x0000
	...

0000000080000e8c <fs_rr_table>:
    80000e8c:	0001                	.insn	2, 0x0001
    80000e8e:	0000                	.insn	2, 0x0000
    80000e90:	0002                	.insn	2, 0x0002
    80000e92:	0000                	.insn	2, 0x0000
    80000e94:	00000003          	lb	x0,0(x0) # 0 <ALL_4KB_PAGES>

0000000080000e98 <vs_rr_table>:
    80000e98:	0001                	.insn	2, 0x0001
    80000e9a:	0000                	.insn	2, 0x0000
    80000e9c:	0002                	.insn	2, 0x0002
    80000e9e:	0000                	.insn	2, 0x0000
    80000ea0:	00000003          	lb	x0,0(x0) # 0 <ALL_4KB_PAGES>

0000000080000ea4 <dtest_descriptor_table>:
    80000ea4:	0eb4                	.insn	2, 0x0eb4
    80000ea6:	8000                	.insn	2, 0x8000
    80000ea8:	0000                	.insn	2, 0x0000
    80000eaa:	0000                	.insn	2, 0x0000
    80000eac:	0ecc                	.insn	2, 0x0ecc
    80000eae:	8000                	.insn	2, 0x8000
    80000eb0:	0000                	.insn	2, 0x0000
	...

0000000080000eb4 <dtest_name_0>:
    80000eb4:	5f444953          	.insn	4, 0x5f444953
    80000eb8:	3330                	.insn	2, 0x3330
    80000eba:	6d5f 6e65 6376      	.insn	6, 0x63766e656d5f
    80000ec0:	6766                	.insn	2, 0x6766
    80000ec2:	705f 6d6d 775f      	.insn	6, 0x775f6d6d705f
    80000ec8:	7261                	.insn	2, 0x7261
    80000eca:	006c                	.insn	2, 0x006c

0000000080000ecc <dtest_name_1>:
    80000ecc:	5f444953          	.insn	4, 0x5f444953
    80000ed0:	3430                	.insn	2, 0x3430
    80000ed2:	6d5f 6573 6363      	.insn	6, 0x636365736d5f
    80000ed8:	6766                	.insn	2, 0x6766
    80000eda:	705f 6d6d 775f      	.insn	6, 0x775f6d6d705f
    80000ee0:	7261                	.insn	2, 0x7261
    80000ee2:	006c                	.insn	2, 0x006c

0000000080000ee4 <dtest_index_map>:
    80000ee4:	ffff                	.insn	2, 0xffff
    80000ee6:	ffff                	.insn	2, 0xffff
    80000ee8:	0000                	.insn	2, 0x0000
    80000eea:	0000                	.insn	2, 0x0000
    80000eec:	0001                	.insn	2, 0x0001
    80000eee:	0000                	.insn	2, 0x0000
    80000ef0:	0000                	.insn	2, 0x0000
    80000ef2:	0000                	.insn	2, 0x0000
    80000ef4:	0001                	.insn	2, 0x0001
    80000ef6:	0000                	.insn	2, 0x0000
    80000ef8:	0001                	.insn	2, 0x0001
	...

0000000080000f04 <scheduler__test_setup_ptr>:
    80000f04:	4140                	.insn	2, 0x4140
    80000f06:	8001                	.insn	2, 0x8001
    80000f08:	0000                	.insn	2, 0x0000
	...

0000000080000f0c <scheduler__test_cleanup_ptr>:
    80000f0c:	42b8                	.insn	2, 0x42b8
    80000f0e:	8001                	.insn	2, 0x8001
    80000f10:	0000                	.insn	2, 0x0000
	...

Disassembly of section .runtime_s:

0000000080010000 <trap_handler_s__invalid_interrupt>:
    80010000:	1740006f          	j	80010174 <trap_handler_s__test_failed>

0000000080010004 <trap_handler_s__clear_all_interrupts>:
    80010004:	14401073          	csrw	sip,x0
    80010008:	10200073          	sret

000000008001000c <trap_handler_s___CLEAR_SSI>:
    8001000c:	00200293          	li	x5,2
    80010010:	1442b073          	csrc	sip,x5
    80010014:	10200073          	sret

0000000080010018 <trap_handler_s___CLEAR_MSI>:
    80010018:	00800293          	li	x5,8
    8001001c:	1442b073          	csrc	sip,x5
    80010020:	10200073          	sret

0000000080010024 <trap_handler_s___CLEAR_STI>:
    80010024:	02000293          	li	x5,32
    80010028:	1442b073          	csrc	sip,x5
    8001002c:	10200073          	sret

0000000080010030 <trap_handler_s___CLEAR_MTI>:
    80010030:	08000293          	li	x5,128
    80010034:	1442b073          	csrc	sip,x5
    80010038:	10200073          	sret

000000008001003c <trap_handler_s___CLEAR_SEI>:
    8001003c:	20000293          	li	x5,512
    80010040:	1442b073          	csrc	sip,x5
    80010044:	10200073          	sret

0000000080010048 <trap_handler_s___CLEAR_MEI>:
    80010048:	000012b7          	lui	x5,0x1
    8001004c:	8002829b          	addiw	x5,x5,-2048 # 800 <FS_RANDOMIZATION+0x79c>
    80010050:	1442b073          	csrc	sip,x5
    80010054:	10200073          	sret

0000000080010058 <trap_handler_s___CLEAR_COI>:
    80010058:	000022b7          	lui	x5,0x2
    8001005c:	1442b073          	csrc	sip,x5
    80010060:	10200073          	sret

0000000080010064 <trap_handler_s__clear_highest_priority_interrupt>:
    80010064:	144022f3          	csrr	x5,sip
    80010068:	40500333          	neg	x6,x5
    8001006c:	0062f2b3          	and	x5,x5,x6
    80010070:	1442b073          	csrc	sip,x5
    80010074:	10200073          	sret

0000000080010078 <trap_handler_s__trap_entry>:
    80010078:	10c0006f          	j	80010184 <trap_handler_s__trap_handler>

000000008001007c <trap_handler_s__interrupt_vector_table>:
    8001007c:	f91ff06f          	j	8001000c <trap_handler_s___CLEAR_SSI>
    80010080:	f81ff06f          	j	80010000 <trap_handler_s__invalid_interrupt>
    80010084:	f95ff06f          	j	80010018 <trap_handler_s___CLEAR_MSI>
    80010088:	f79ff06f          	j	80010000 <trap_handler_s__invalid_interrupt>
    8001008c:	f99ff06f          	j	80010024 <trap_handler_s___CLEAR_STI>
    80010090:	f71ff06f          	j	80010000 <trap_handler_s__invalid_interrupt>
    80010094:	f9dff06f          	j	80010030 <trap_handler_s___CLEAR_MTI>
    80010098:	f69ff06f          	j	80010000 <trap_handler_s__invalid_interrupt>
    8001009c:	fa1ff06f          	j	8001003c <trap_handler_s___CLEAR_SEI>
    800100a0:	f61ff06f          	j	80010000 <trap_handler_s__invalid_interrupt>
    800100a4:	fa5ff06f          	j	80010048 <trap_handler_s___CLEAR_MEI>
    800100a8:	f59ff06f          	j	80010000 <trap_handler_s__invalid_interrupt>
    800100ac:	fadff06f          	j	80010058 <trap_handler_s___CLEAR_COI>
    800100b0:	f51ff06f          	j	80010000 <trap_handler_s__invalid_interrupt>
    800100b4:	f4dff06f          	j	80010000 <trap_handler_s__invalid_interrupt>
    800100b8:	fadff06f          	j	80010064 <trap_handler_s__clear_highest_priority_interrupt>
    800100bc:	fa9ff06f          	j	80010064 <trap_handler_s__clear_highest_priority_interrupt>
    800100c0:	fa5ff06f          	j	80010064 <trap_handler_s__clear_highest_priority_interrupt>
    800100c4:	fa1ff06f          	j	80010064 <trap_handler_s__clear_highest_priority_interrupt>
    800100c8:	f9dff06f          	j	80010064 <trap_handler_s__clear_highest_priority_interrupt>
    800100cc:	f99ff06f          	j	80010064 <trap_handler_s__clear_highest_priority_interrupt>
    800100d0:	f95ff06f          	j	80010064 <trap_handler_s__clear_highest_priority_interrupt>
    800100d4:	f91ff06f          	j	80010064 <trap_handler_s__clear_highest_priority_interrupt>
    800100d8:	f8dff06f          	j	80010064 <trap_handler_s__clear_highest_priority_interrupt>
    800100dc:	f89ff06f          	j	80010064 <trap_handler_s__clear_highest_priority_interrupt>
    800100e0:	f85ff06f          	j	80010064 <trap_handler_s__clear_highest_priority_interrupt>
    800100e4:	f81ff06f          	j	80010064 <trap_handler_s__clear_highest_priority_interrupt>
    800100e8:	f7dff06f          	j	80010064 <trap_handler_s__clear_highest_priority_interrupt>
    800100ec:	f79ff06f          	j	80010064 <trap_handler_s__clear_highest_priority_interrupt>
    800100f0:	f75ff06f          	j	80010064 <trap_handler_s__clear_highest_priority_interrupt>
    800100f4:	f71ff06f          	j	80010064 <trap_handler_s__clear_highest_priority_interrupt>
    800100f8:	f6dff06f          	j	80010064 <trap_handler_s__clear_highest_priority_interrupt>
    800100fc:	f69ff06f          	j	80010064 <trap_handler_s__clear_highest_priority_interrupt>
    80010100:	f65ff06f          	j	80010064 <trap_handler_s__clear_highest_priority_interrupt>
    80010104:	f61ff06f          	j	80010064 <trap_handler_s__clear_highest_priority_interrupt>
    80010108:	f5dff06f          	j	80010064 <trap_handler_s__clear_highest_priority_interrupt>
    8001010c:	f59ff06f          	j	80010064 <trap_handler_s__clear_highest_priority_interrupt>
    80010110:	f55ff06f          	j	80010064 <trap_handler_s__clear_highest_priority_interrupt>
    80010114:	f51ff06f          	j	80010064 <trap_handler_s__clear_highest_priority_interrupt>
    80010118:	f4dff06f          	j	80010064 <trap_handler_s__clear_highest_priority_interrupt>
    8001011c:	f49ff06f          	j	80010064 <trap_handler_s__clear_highest_priority_interrupt>
    80010120:	f45ff06f          	j	80010064 <trap_handler_s__clear_highest_priority_interrupt>
    80010124:	f41ff06f          	j	80010064 <trap_handler_s__clear_highest_priority_interrupt>
    80010128:	f3dff06f          	j	80010064 <trap_handler_s__clear_highest_priority_interrupt>
    8001012c:	f39ff06f          	j	80010064 <trap_handler_s__clear_highest_priority_interrupt>
    80010130:	f35ff06f          	j	80010064 <trap_handler_s__clear_highest_priority_interrupt>
    80010134:	f31ff06f          	j	80010064 <trap_handler_s__clear_highest_priority_interrupt>
    80010138:	f2dff06f          	j	80010064 <trap_handler_s__clear_highest_priority_interrupt>
    8001013c:	f29ff06f          	j	80010064 <trap_handler_s__clear_highest_priority_interrupt>
    80010140:	f25ff06f          	j	80010064 <trap_handler_s__clear_highest_priority_interrupt>
    80010144:	f21ff06f          	j	80010064 <trap_handler_s__clear_highest_priority_interrupt>
    80010148:	f1dff06f          	j	80010064 <trap_handler_s__clear_highest_priority_interrupt>
    8001014c:	f19ff06f          	j	80010064 <trap_handler_s__clear_highest_priority_interrupt>
    80010150:	f15ff06f          	j	80010064 <trap_handler_s__clear_highest_priority_interrupt>
    80010154:	f11ff06f          	j	80010064 <trap_handler_s__clear_highest_priority_interrupt>
    80010158:	f0dff06f          	j	80010064 <trap_handler_s__clear_highest_priority_interrupt>
    8001015c:	f09ff06f          	j	80010064 <trap_handler_s__clear_highest_priority_interrupt>
    80010160:	f05ff06f          	j	80010064 <trap_handler_s__clear_highest_priority_interrupt>
    80010164:	f01ff06f          	j	80010064 <trap_handler_s__clear_highest_priority_interrupt>
    80010168:	efdff06f          	j	80010064 <trap_handler_s__clear_highest_priority_interrupt>
    8001016c:	ef9ff06f          	j	80010064 <trap_handler_s__clear_highest_priority_interrupt>
    80010170:	ef5ff06f          	j	80010064 <trap_handler_s__clear_highest_priority_interrupt>

0000000080010174 <trap_handler_s__test_failed>:
    80010174:	00f00f9b          	addiw	x31,x0,15
    80010178:	01cf9f93          	slli	x31,x31,0x1c
    8001017c:	002f8f93          	addi	x31,x31,2
    80010180:	00000073          	ecall

0000000080010184 <trap_handler_s__trap_handler>:
    80010184:	142022f3          	csrr	x5,scause
    80010188:	fff0031b          	addiw	x6,x0,-1
    8001018c:	03f31313          	slli	x6,x6,0x3f
    80010190:	00537333          	and	x6,x6,x5
    80010194:	02030263          	beqz	x6,800101b8 <trap_handler_s__exception_path>

0000000080010198 <trap_handler_s__interrupt_handler>:
    80010198:	fff0031b          	addiw	x6,x0,-1
    8001019c:	03f31313          	slli	x6,x6,0x3f
    800101a0:	0062c2b3          	xor	x5,x5,x6
    800101a4:	00000317          	auipc	x6,0x0
    800101a8:	ed430313          	addi	x6,x6,-300 # 80010078 <trap_handler_s__trap_entry>
    800101ac:	00229293          	slli	x5,x5,0x2
    800101b0:	005302b3          	add	x5,x6,x5
    800101b4:	00028067          	jr	x5 # 2000 <FS_RANDOMIZATION+0x1f9c>

00000000800101b8 <trap_handler_s__exception_path>:
    800101b8:	14021273          	csrrw	x4,sscratch,x4
    800101bc:	00000297          	auipc	x5,0x0
    800101c0:	0cc28293          	addi	x5,x5,204 # 80010288 <trap_handler_s__trap_panic>
    800101c4:	10529073          	csrw	stvec,x5
    800101c8:	0040006f          	j	800101cc <trap_handler_s__excp_entry>

00000000800101cc <trap_handler_s__excp_entry>:
    800101cc:	14202373          	csrr	x6,scause
    800101d0:	00800293          	li	x5,8
    800101d4:	00534863          	blt	x6,x5,800101e4 <trap_handler_s__check_exception_label>
    800101d8:	00b00293          	li	x5,11
    800101dc:	0062c463          	blt	x5,x6,800101e4 <trap_handler_s__check_exception_label>
    800101e0:	0a80006f          	j	80010288 <trap_handler_s__trap_panic>

00000000800101e4 <trap_handler_s__check_exception_label>:
    800101e4:	04623c23          	sd	x6,88(x4) # 58 <XLEN+0x18>
    800101e8:	141022f3          	csrr	x5,sepc
    800101ec:	02523423          	sd	x5,40(x4) # 28 <SECURE_ACCESS_PROBABILITY+0xa>
    800101f0:	01820283          	lb	x5,24(x4) # 18 <STORE_GUEST_PAGE_FAULT+0x1>
    800101f4:	00029863          	bnez	x5,80010204 <trap_handler_s__check_excp>
    800101f8:	00128293          	addi	x5,x5,1
    800101fc:	00520c23          	sb	x5,24(x4) # 18 <STORE_GUEST_PAGE_FAULT+0x1>
    80010200:	05c0006f          	j	8001025c <trap_handler_s__ecall_from_machine>

0000000080010204 <trap_handler_s__check_excp>:
    80010204:	06820293          	addi	x5,x4,104 # 68 <FS_RANDOMIZATION+0x4>
    80010208:	0802b2af          	amoswap.d	x5,x0,(x5)
    8001020c:	00028663          	beqz	x5,80010218 <trap_handler_s__skip_mode_check>
    80010210:	00300393          	li	x7,3
    80010214:	f67290e3          	bne	x5,x7,80010174 <trap_handler_s__test_failed>

0000000080010218 <trap_handler_s__skip_mode_check>:
    80010218:	05020293          	addi	x5,x4,80 # 50 <XLEN+0x10>
    8001021c:	0802b2af          	amoswap.d	x5,x0,(x5)
    80010220:	f4531ae3          	bne	x6,x5,80010174 <trap_handler_s__test_failed>
    80010224:	03820293          	addi	x5,x4,56 # 38 <SECURE_ACCESS_PROBABILITY+0x1a>
    80010228:	0802b2af          	amoswap.d	x5,x0,(x5)
    8001022c:	02029663          	bnez	x5,80010258 <trap_handler_s__skip_nonzero_tval_check>
    80010230:	02020313          	addi	x6,x4,32 # 20 <SECURE_ACCESS_PROBABILITY+0x2>
    80010234:	0803332f          	amoswap.d	x6,x0,(x6)
    80010238:	02820293          	addi	x5,x4,40 # 28 <SECURE_ACCESS_PROBABILITY+0xa>
    8001023c:	0802b2af          	amoswap.d	x5,x0,(x5)
    80010240:	f2531ae3          	bne	x6,x5,80010174 <trap_handler_s__test_failed>
    80010244:	04020293          	addi	x5,x4,64 # 40 <XLEN>
    80010248:	0802b2af          	amoswap.d	x5,x0,(x5)
    8001024c:	00028663          	beqz	x5,80010258 <trap_handler_s__skip_nonzero_tval_check>

0000000080010250 <trap_handler_s__nonzero_tval_check>:
    80010250:	14302373          	csrr	x6,stval
    80010254:	f25310e3          	bne	x6,x5,80010174 <trap_handler_s__test_failed>

0000000080010258 <trap_handler_s__skip_nonzero_tval_check>:
    80010258:	0040006f          	j	8001025c <trap_handler_s__ecall_from_machine>

000000008001025c <trap_handler_s__ecall_from_machine>:
    8001025c:	03020293          	addi	x5,x4,48 # 30 <SECURE_ACCESS_PROBABILITY+0x12>
    80010260:	0802b2af          	amoswap.d	x5,x0,(x5)
    80010264:	07020313          	addi	x6,x4,112 # 70 <FS_RANDOMIZATION+0xc>
    80010268:	0803332f          	amoswap.d	x6,x0,(x6)
    8001026c:	00031463          	bnez	x6,80010274 <trap_handler_s__skip_xepc_write>
    80010270:	14129073          	csrw	sepc,x5

0000000080010274 <trap_handler_s__skip_xepc_write>:
    80010274:	00000317          	auipc	x6,0x0
    80010278:	e0430313          	addi	x6,x6,-508 # 80010078 <trap_handler_s__trap_entry>
    8001027c:	10531073          	csrw	stvec,x6
    80010280:	14021273          	csrrw	x4,sscratch,x4
    80010284:	10200073          	sret

0000000080010288 <trap_handler_s__trap_panic>:
    80010288:	00000193          	li	x3,0
    8001028c:	00f00f9b          	addiw	x31,x0,15
    80010290:	01cf9f93          	slli	x31,x31,0x1c
    80010294:	002f8f93          	addi	x31,x31,2
    80010298:	00000073          	ecall

Disassembly of section .code:

00000000800140e0 <passed>:
    800140e0:	000382b7          	lui	x5,0x38
    800140e4:	6992829b          	addiw	x5,x5,1689 # 38699 <_all_interrupts+0x35bef>
    800140e8:	00e29293          	slli	x5,x5,0xe
    800140ec:	b4528293          	addi	x5,x5,-1211
    800140f0:	00d29293          	slli	x5,x5,0xd
    800140f4:	01828293          	addi	x5,x5,24
    800140f8:	0002b303          	ld	x6,0(x5)
    800140fc:	00030067          	jr	x6

0000000080014100 <failed>:
    80014100:	000382b7          	lui	x5,0x38
    80014104:	6992829b          	addiw	x5,x5,1689 # 38699 <_all_interrupts+0x35bef>
    80014108:	00e29293          	slli	x5,x5,0xe
    8001410c:	b4528293          	addi	x5,x5,-1211
    80014110:	00d29293          	slli	x5,x5,0xd
    80014114:	02028293          	addi	x5,x5,32
    80014118:	0002b303          	ld	x6,0(x5)
    8001411c:	00030067          	jr	x6

0000000080014120 <end_test>:
    80014120:	000382b7          	lui	x5,0x38
    80014124:	6992829b          	addiw	x5,x5,1689 # 38699 <_all_interrupts+0x35bef>
    80014128:	00e29293          	slli	x5,x5,0xe
    8001412c:	b4528293          	addi	x5,x5,-1211
    80014130:	00d29293          	slli	x5,x5,0xd
    80014134:	02828293          	addi	x5,x5,40
    80014138:	0002b303          	ld	x6,0(x5)
    8001413c:	00030067          	jr	x6

0000000080014140 <test_setup>:
    80014140:	000382b7          	lui	x5,0x38
    80014144:	6992829b          	addiw	x5,x5,1689 # 38699 <_all_interrupts+0x35bef>
    80014148:	00e29293          	slli	x5,x5,0xe
    8001414c:	b4528293          	addi	x5,x5,-1211
    80014150:	00d29293          	slli	x5,x5,0xd
    80014154:	01828293          	addi	x5,x5,24
    80014158:	0002b303          	ld	x6,0(x5)
    8001415c:	00030067          	jr	x6

0000000080014160 <SID_03_menvcfg_pmm_warl>:
    80014160:	00020137          	lui	x2,0x20
    80014164:	b971011b          	addiw	x2,x2,-1129 # 1fb97 <_all_interrupts+0x1d0ed>
    80014168:	00f11113          	slli	x2,x2,0xf
    8001416c:	30a023f3          	csrr	x7,0x30a
    80014170:	00713023          	sd	x7,0(x2)
    80014174:	001ce137          	lui	x2,0x1ce
    80014178:	4c51011b          	addiw	x2,x2,1221 # 1ce4c5 <_all_interrupts+0x1cba1b>
    8001417c:	00c11113          	slli	x2,x2,0xc
    80014180:	4e710113          	addi	x2,x2,1255
    80014184:	00c11113          	slli	x2,x2,0xc
    80014188:	000012b7          	lui	x5,0x1
    8001418c:	00510133          	add	x2,x2,x5
    80014190:	ff017113          	andi	x2,x2,-16
    80014194:	30a023f3          	csrr	x7,0x30a
    80014198:	0010049b          	addiw	x9,x0,1
    8001419c:	02049493          	slli	x9,x9,0x20
    800141a0:	30a49573          	csrrw	x10,0x30a,x9
    800141a4:	30a02a73          	csrr	x20,0x30a
    800141a8:	020a5713          	srli	x14,x20,0x20
    800141ac:	00377513          	andi	x10,x14,3
    800141b0:	00100393          	li	x7,1
    800141b4:	02751263          	bne	x10,x7,800141d8 <pass_label_0>
    800141b8:	000389b7          	lui	x19,0x38
    800141bc:	6999899b          	addiw	x19,x19,1689 # 38699 <_all_interrupts+0x35bef>
    800141c0:	00e99993          	slli	x19,x19,0xe
    800141c4:	b4598993          	addi	x19,x19,-1211
    800141c8:	00d99993          	slli	x19,x19,0xd
    800141cc:	00898993          	addi	x19,x19,8
    800141d0:	0009b903          	ld	x18,0(x19)
    800141d4:	00090067          	jr	x18

00000000800141d8 <pass_label_0>:
    800141d8:	00020137          	lui	x2,0x20
    800141dc:	b971011b          	addiw	x2,x2,-1129 # 1fb97 <_all_interrupts+0x1d0ed>
    800141e0:	00f11113          	slli	x2,x2,0xf
    800141e4:	00013383          	ld	x7,0(x2)
    800141e8:	30a393f3          	csrrw	x7,0x30a,x7

00000000800141ec <SID_03_menvcfg_pmm_warl_passed>:
    800141ec:	000382b7          	lui	x5,0x38
    800141f0:	6992829b          	addiw	x5,x5,1689 # 38699 <_all_interrupts+0x35bef>
    800141f4:	00e29293          	slli	x5,x5,0xe
    800141f8:	b4528293          	addi	x5,x5,-1211
    800141fc:	00d29293          	slli	x5,x5,0xd
    80014200:	01828293          	addi	x5,x5,24
    80014204:	0002b303          	ld	x6,0(x5)
    80014208:	00030067          	jr	x6

000000008001420c <SID_04_mseccfg_pmm_warl>:
    8001420c:	00020137          	lui	x2,0x20
    80014210:	b971011b          	addiw	x2,x2,-1129 # 1fb97 <_all_interrupts+0x1d0ed>
    80014214:	00f11113          	slli	x2,x2,0xf
    80014218:	747023f3          	csrr	x7,0x747
    8001421c:	00713023          	sd	x7,0(x2)
    80014220:	000c5137          	lui	x2,0xc5
    80014224:	d4f1011b          	addiw	x2,x2,-689 # c4d4f <_all_interrupts+0xc22a5>
    80014228:	00c11113          	slli	x2,x2,0xc
    8001422c:	75110113          	addi	x2,x2,1873
    80014230:	00e11113          	slli	x2,x2,0xe
    80014234:	000012b7          	lui	x5,0x1
    80014238:	00510133          	add	x2,x2,x5
    8001423c:	ff017113          	andi	x2,x2,-16
    80014240:	74702cf3          	csrr	x25,0x747
    80014244:	0010061b          	addiw	x12,x0,1
    80014248:	02061613          	slli	x12,x12,0x20
    8001424c:	74761df3          	csrrw	x27,0x747,x12
    80014250:	747023f3          	csrr	x7,0x747
    80014254:	0203de13          	srli	x28,x7,0x20
    80014258:	003e7c93          	andi	x25,x28,3
    8001425c:	00100693          	li	x13,1
    80014260:	02dc9263          	bne	x25,x13,80014284 <pass_label_1>
    80014264:	00038b37          	lui	x22,0x38
    80014268:	699b0b1b          	addiw	x22,x22,1689 # 38699 <_all_interrupts+0x35bef>
    8001426c:	00eb1b13          	slli	x22,x22,0xe
    80014270:	b45b0b13          	addi	x22,x22,-1211
    80014274:	00db1b13          	slli	x22,x22,0xd
    80014278:	008b0b13          	addi	x22,x22,8
    8001427c:	000b3d83          	ld	x27,0(x22)
    80014280:	000d8067          	jr	x27

0000000080014284 <pass_label_1>:
    80014284:	00020137          	lui	x2,0x20
    80014288:	b971011b          	addiw	x2,x2,-1129 # 1fb97 <_all_interrupts+0x1d0ed>
    8001428c:	00f11113          	slli	x2,x2,0xf
    80014290:	00013383          	ld	x7,0(x2)
    80014294:	747393f3          	csrrw	x7,0x747,x7

0000000080014298 <SID_04_mseccfg_pmm_warl_passed>:
    80014298:	000382b7          	lui	x5,0x38
    8001429c:	6992829b          	addiw	x5,x5,1689 # 38699 <_all_interrupts+0x35bef>
    800142a0:	00e29293          	slli	x5,x5,0xe
    800142a4:	b4528293          	addi	x5,x5,-1211
    800142a8:	00d29293          	slli	x5,x5,0xd
    800142ac:	01828293          	addi	x5,x5,24
    800142b0:	0002b303          	ld	x6,0(x5)
    800142b4:	00030067          	jr	x6

00000000800142b8 <test_cleanup>:
    800142b8:	000382b7          	lui	x5,0x38
    800142bc:	6992829b          	addiw	x5,x5,1689 # 38699 <_all_interrupts+0x35bef>
    800142c0:	00e29293          	slli	x5,x5,0xe
    800142c4:	b4528293          	addi	x5,x5,-1211
    800142c8:	00d29293          	slli	x5,x5,0xd
    800142cc:	01828293          	addi	x5,x5,24
    800142d0:	0002b303          	ld	x6,0(x5)
    800142d4:	00030067          	jr	x6

00000000800142d8 <local_test_failed>:
    800142d8:	000382b7          	lui	x5,0x38
    800142dc:	6992829b          	addiw	x5,x5,1689 # 38699 <_all_interrupts+0x35bef>
    800142e0:	00e29293          	slli	x5,x5,0xe
    800142e4:	b4528293          	addi	x5,x5,-1211
    800142e8:	00d29293          	slli	x5,x5,0xd
    800142ec:	02028293          	addi	x5,x5,32
    800142f0:	0002b303          	ld	x6,0(x5)
    800142f4:	00030067          	jr	x6

Disassembly of section .csr_machine_0:

0000000080214000 <csr_access_menvcfg_machine_key_2_write-0x40>:
    80214000:	00038fb7          	lui	x31,0x38
    80214004:	699f8f9b          	addiw	x31,x31,1689 # 38699 <_all_interrupts+0x35bef>
    80214008:	00ef9f93          	slli	x31,x31,0xe
    8021400c:	b45f8f93          	addi	x31,x31,-1211
    80214010:	00df9f93          	slli	x31,x31,0xd
    80214014:	0a0f8f93          	addi	x31,x31,160
    80214018:	000fbf83          	ld	x31,0(x31)
    8021401c:	00200293          	li	x5,2
    80214020:	025f8063          	beq	x31,x5,80214040 <csr_access_menvcfg_machine_key_2_write>
    80214024:	00100293          	li	x5,1
    80214028:	025f8063          	beq	x31,x5,80214048 <csr_access_menvcfg_machine_key_1_read>
    8021402c:	00400293          	li	x5,4
    80214030:	025f8063          	beq	x31,x5,80214050 <csr_access_mseccfg_machine_key_4_write>
    80214034:	00300293          	li	x5,3
    80214038:	025f8063          	beq	x31,x5,80214058 <csr_access_mseccfg_machine_key_3_read>
    8021403c:	0240006f          	j	80214060 <end_machine_label>

0000000080214040 <csr_access_menvcfg_machine_key_2_write>:
    80214040:	30a39073          	csrw	0x30a,x7
    80214044:	01c0006f          	j	80214060 <end_machine_label>

0000000080214048 <csr_access_menvcfg_machine_key_1_read>:
    80214048:	30a023f3          	csrr	x7,0x30a
    8021404c:	0140006f          	j	80214060 <end_machine_label>

0000000080214050 <csr_access_mseccfg_machine_key_4_write>:
    80214050:	74739073          	csrw	0x747,x7
    80214054:	00c0006f          	j	80214060 <end_machine_label>

0000000080214058 <csr_access_mseccfg_machine_key_3_read>:
    80214058:	747023f3          	csrr	x7,0x747
    8021405c:	0040006f          	j	80214060 <end_machine_label>

0000000080214060 <end_machine_label>:
    80214060:	000f0fb7          	lui	x31,0xf0
    80214064:	001f8f9b          	addiw	x31,x31,1 # f0001 <_all_interrupts+0xed557>
    80214068:	00cf9f93          	slli	x31,x31,0xc
    8021406c:	004f8f93          	addi	x31,x31,4
    80214070:	00000073          	ecall

Disassembly of section .csr_super_0:

0000000080215000 <end_super_label-0x20>:
    80215000:	00038fb7          	lui	x31,0x38
    80215004:	699f8f9b          	addiw	x31,x31,1689 # 38699 <_all_interrupts+0x35bef>
    80215008:	00ef9f93          	slli	x31,x31,0xe
    8021500c:	b45f8f93          	addi	x31,x31,-1211
    80215010:	00df9f93          	slli	x31,x31,0xd
    80215014:	0a8f8f93          	addi	x31,x31,168
    80215018:	000fbf83          	ld	x31,0(x31)
    8021501c:	0040006f          	j	80215020 <end_super_label>

0000000080215020 <end_super_label>:
    80215020:	000f0fb7          	lui	x31,0xf0
    80215024:	001f8f9b          	addiw	x31,x31,1 # f0001 <_all_interrupts+0xed557>
    80215028:	00cf9f93          	slli	x31,x31,0xc
    8021502c:	004f8f93          	addi	x31,x31,4
    80215030:	00000073          	ecall

Disassembly of section .os_data:

00001c34c768a000 <passed_addr_ptr>:
    1c34c768a000:	40e0                	.insn	2, 0x40e0
    1c34c768a002:	8001                	.insn	2, 0x8001
    1c34c768a004:	0000                	.insn	2, 0x0000
	...

00001c34c768a008 <failed_addr_ptr>:
    1c34c768a008:	4100                	.insn	2, 0x4100
    1c34c768a00a:	8001                	.insn	2, 0x8001
    1c34c768a00c:	0000                	.insn	2, 0x0000
	...

00001c34c768a010 <end_test_addr_ptr>:
    1c34c768a010:	4120                	.insn	2, 0x4120
    1c34c768a012:	8001                	.insn	2, 0x8001
    1c34c768a014:	0000                	.insn	2, 0x0000
	...

00001c34c768a018 <os_passed_addr_ptr>:
    1c34c768a018:	0984                	.insn	2, 0x0984
    1c34c768a01a:	8000                	.insn	2, 0x8000
    1c34c768a01c:	0000                	.insn	2, 0x0000
	...

00001c34c768a020 <os_failed_addr_ptr>:
    1c34c768a020:	0994                	.insn	2, 0x0994
    1c34c768a022:	8000                	.insn	2, 0x8000
    1c34c768a024:	0000                	.insn	2, 0x0000
	...

00001c34c768a028 <os_end_test_addr_ptr>:
    1c34c768a028:	09a0                	.insn	2, 0x09a0
    1c34c768a02a:	8000                	.insn	2, 0x8000
    1c34c768a02c:	0000                	.insn	2, 0x0000
	...

00001c34c768a030 <rvcp_prefix_str_data>:
    1c34c768a030:	5652                	.insn	2, 0x5652
    1c34c768a032:	203a5043          	fmadd.s	f0,f20,f3,f4,unknown
    1c34c768a036:	6554                	.insn	2, 0x6554
    1c34c768a038:	46207473          	csrrci	x8,0x462,0
    1c34c768a03c:	6c69                	.insn	2, 0x6c69
    1c34c768a03e:	2065                	.insn	2, 0x2065
	...

00001c34c768a041 <rvcp_testname_str_data>:
    1c34c768a041:	7074                	.insn	2, 0x7074
    1c34c768a043:	7a5f 706a 5f6d      	.insn	6, 0x5f6d706a7a5f
    1c34c768a049:	0032                	.insn	2, 0x0032

00001c34c768a04b <rvcp_passed_str_data>:
    1c34c768a04b:	4150                	.insn	2, 0x4150
    1c34c768a04d:	44455353          	fround.h	f6,f10,unknown
	...

00001c34c768a052 <rvcp_failed_str_data>:
    1c34c768a052:	4146                	.insn	2, 0x4146
    1c34c768a054:	4c49                	.insn	2, 0x4c49
    1c34c768a056:	4445                	.insn	2, 0x4445
	...

00001c34c768a059 <rvcp_space_str_data>:
    1c34c768a059:	0020                	.insn	2, 0x0020

00001c34c768a05b <rvcp_newline_str_data>:
    1c34c768a05b:	000a                	.insn	2, 0x000a
    1c34c768a05d:	0000                	.insn	2, 0x0000
	...

00001c34c768a060 <excp_ignored_count_mem>:
	...

00001c34c768a068 <machine_flags_mem>:
	...

00001c34c768a070 <user_flags_mem>:
	...

00001c34c768a078 <super_flags_mem>:
	...

00001c34c768a080 <machine_area_mem>:
	...

00001c34c768a088 <user_area_mem>:
	...

00001c34c768a090 <super_area_mem>:
	...

00001c34c768a098 <zero_data_mem>:
	...

00001c34c768a0a0 <machine_csr_jump_table_flags_mem>:
	...

00001c34c768a0a8 <super_csr_jump_table_flags_mem>:
	...

00001c34c768a0b0 <pte_access_flags_mem>:
	...

00001c34c768a0c8 <num_harts_ended_mem>:
	...

00001c34c768a0d0 <num_hard_fails_mem>:
	...

Disassembly of section .hart_context:

00000000f5cff000 <hart_context_0>:
    f5cff000:	7000                	.insn	2, 0x7000
    f5cff002:	8021                	.insn	2, 0x8021
	...
    f5cff018:	0001                	.insn	2, 0x0001
    f5cff01a:	0000                	.insn	2, 0x0000
    f5cff01c:	0000                	.insn	2, 0x0000
    f5cff01e:	0000                	.insn	2, 0x0000
    f5cff020:	ffff                	.insn	2, 0xffff
    f5cff022:	ffff                	.insn	2, 0xffff
    f5cff024:	ffff                	.insn	2, 0xffff
    f5cff026:	ffff                	.insn	2, 0xffff
    f5cff028:	ffff                	.insn	2, 0xffff
    f5cff02a:	ffff                	.insn	2, 0xffff
    f5cff02c:	ffff                	.insn	2, 0xffff
    f5cff02e:	ffff                	.insn	2, 0xffff
    f5cff030:	ffff                	.insn	2, 0xffff
    f5cff032:	ffff                	.insn	2, 0xffff
    f5cff034:	ffff                	.insn	2, 0xffff
    f5cff036:	ffff                	.insn	2, 0xffff
	...
    f5cff050:	00ff 0000 0000 0000 	.insn	10, 0x00ff00000000000000ff
    f5cff058:	00ff 
	...
    f5cff176:	0000                	.insn	2, 0x0000
    f5cff178:	ffff                	.insn	2, 0xffff
    f5cff17a:	ffff                	.insn	2, 0xffff
    f5cff17c:	ffff                	.insn	2, 0xffff
    f5cff17e:	ffff                	.insn	2, 0xffff
	...
    f5cff198:	ffff                	.insn	2, 0xffff
    f5cff19a:	ffff                	.insn	2, 0xffff
	...

Disassembly of section .hart_stack_0:

0000000080216000 <hart_stack_0>:
	...

Disassembly of section .io_htif:

0000000070000000 <tohost>:
	...

0000000070000040 <fromhost>:
	...

Disassembly of section .tp_csr_storage:

00000000fdcb8000 <.tp_csr_storage>:
    fdcb8000:	c0de                	.insn	2, 0xc0de
    fdcb8002:	c001                	.insn	2, 0xc001
    fdcb8004:	0000                	.insn	2, 0x0000
	...

Disassembly of section .SID_03_menvcfg_pmm_warl_stack:

00001ce4c54e7000 <.SID_03_menvcfg_pmm_warl_stack>:
    1ce4c54e7000:	c0de                	.insn	2, 0xc0de
    1ce4c54e7002:	c001                	.insn	2, 0xc001
    1ce4c54e7004:	0000                	.insn	2, 0x0000
	...

Disassembly of section .SID_04_mseccfg_pmm_warl_stack:

000031353dd44000 <.SID_04_mseccfg_pmm_warl_stack>:
    31353dd44000:	c0de                	.insn	2, 0xc0de
    31353dd44002:	c001                	.insn	2, 0xc001
    31353dd44004:	0000                	.insn	2, 0x0000
	...
