
/home/abdullah/RiescueC/riescue/10x_R/paging/testsuite/paging/super_sv48/tp_paging_1:     file format elf64-littleriscv


Disassembly of section .runtime:

0000000041000000 <_start>:
    41000000:	00000093          	li	x1,0
    41000004:	00000113          	li	x2,0
    41000008:	00000193          	li	x3,0
    4100000c:	00000213          	li	x4,0
    41000010:	00000293          	li	x5,0
    41000014:	00000313          	li	x6,0
    41000018:	00000393          	li	x7,0
    4100001c:	00000413          	li	x8,0
    41000020:	00000493          	li	x9,0
    41000024:	00000513          	li	x10,0
    41000028:	00000593          	li	x11,0
    4100002c:	00000613          	li	x12,0
    41000030:	00000693          	li	x13,0
    41000034:	00000713          	li	x14,0
    41000038:	00000793          	li	x15,0
    4100003c:	00000813          	li	x16,0
    41000040:	00000893          	li	x17,0
    41000044:	00000913          	li	x18,0
    41000048:	00000993          	li	x19,0
    4100004c:	00000a13          	li	x20,0
    41000050:	00000a93          	li	x21,0
    41000054:	00000b13          	li	x22,0
    41000058:	00000b93          	li	x23,0
    4100005c:	00000c13          	li	x24,0
    41000060:	00000c93          	li	x25,0
    41000064:	00000d13          	li	x26,0
    41000068:	00000d93          	li	x27,0
    4100006c:	00000e13          	li	x28,0
    41000070:	00000e93          	li	x29,0
    41000074:	00000f13          	li	x30,0
    41000078:	00000f93          	li	x31,0

000000004100007c <loader__load_panic_address>:
    4100007c:	00001297          	auipc	x5,0x1
    41000080:	9b828293          	addi	x5,x5,-1608 # 41000a34 <eot__failed>
    41000084:	30529073          	csrw	mtvec,x5

0000000041000088 <loader__initialize_runtime>:
    41000088:	00000293          	li	x5,0
    4100008c:	3012a2f3          	csrrs	x5,misa,x5

0000000041000090 <loader__set_mstatus>:
    41000090:	000402b7          	lui	x5,0x40
    41000094:	00a2829b          	addiw	x5,x5,10 # 4000a <pma_region_0_size+0xa>
    41000098:	3002a2f3          	csrrs	x5,mstatus,x5
    4100009c:	44ee3237          	lui	x4,0x44ee3
    410000a0:	34021073          	csrw	mscratch,x4

00000000410000a4 <loader__setup_menvcfg>:
    410000a4:	00000297          	auipc	x5,0x0
    410000a8:	47c28293          	addi	x5,x5,1148 # 41000520 <trap_handler_m__trap_entry>
    410000ac:	30529073          	csrw	mtvec,x5

00000000410000b0 <loader__enable_paging>:
    410000b0:	fffc80b7          	lui	x1,0xfffc8
    410000b4:	0b10809b          	addiw	x1,x1,177 # fffffffffffc80b1 <mem37+0xfffffc80b1>
    410000b8:	02109093          	slli	x1,x1,0x21
    410000bc:	04508093          	addi	x1,x1,69
    410000c0:	00c09093          	slli	x1,x1,0xc
    410000c4:	dc008093          	addi	x1,x1,-576
    410000c8:	18009073          	csrw	satp,x1

00000000410000cc <loader__done>:
    410000cc:	1910006f          	j	41000a5c <scheduler__init>

00000000410000d0 <loader__panic>:
    410000d0:	1650006f          	j	41000a34 <eot__failed>

00000000410000d4 <syscalls__syscall_check_schedule_next_test>:
    410000d4:	00f0029b          	addiw	x5,x0,15
    410000d8:	01c29293          	slli	x5,x5,0x1c
    410000dc:	00128293          	addi	x5,x5,1
    410000e0:	01f29a63          	bne	x5,x31,410000f4 <syscalls__syscall_check_fail_test>
    410000e4:	00000317          	auipc	x6,0x0
    410000e8:	43c30313          	addi	x6,x6,1084 # 41000520 <trap_handler_m__trap_entry>
    410000ec:	30531073          	csrw	mtvec,x6
    410000f0:	6740006f          	j	41000764 <enter_scheduler>

00000000410000f4 <syscalls__syscall_check_fail_test>:
    410000f4:	00f0029b          	addiw	x5,x0,15
    410000f8:	01c29293          	slli	x5,x5,0x1c
    410000fc:	00228293          	addi	x5,x5,2
    41000100:	01f29a63          	bne	x5,x31,41000114 <syscalls__syscall_check_end_test_without_failure>
    41000104:	00000317          	auipc	x6,0x0
    41000108:	41c30313          	addi	x6,x6,1052 # 41000520 <trap_handler_m__trap_entry>
    4100010c:	30531073          	csrw	mtvec,x6
    41000110:	6840006f          	j	41000794 <test_failed>

0000000041000114 <syscalls__syscall_check_end_test_without_failure>:
    41000114:	00f0029b          	addiw	x5,x0,15
    41000118:	01c29293          	slli	x5,x5,0x1c
    4100011c:	00328293          	addi	x5,x5,3
    41000120:	01f29a63          	bne	x5,x31,41000134 <syscalls__syscall_check_switch_machine_mode>
    41000124:	00000317          	auipc	x6,0x0
    41000128:	3fc30313          	addi	x6,x6,1020 # 41000520 <trap_handler_m__trap_entry>
    4100012c:	30531073          	csrw	mtvec,x6
    41000130:	6700006f          	j	410007a0 <os_end_test>

0000000041000134 <syscalls__syscall_check_switch_machine_mode>:
    41000134:	000f02b7          	lui	x5,0xf0
    41000138:	0012829b          	addiw	x5,x5,1 # f0001 <SID_PBVMS_013_ptw_permission_encodings_stack+0x1d001>
    4100013c:	00c29293          	slli	x5,x5,0xc
    41000140:	00128293          	addi	x5,x5,1
    41000144:	0a5f8463          	beq	x31,x5,410001ec <syscalls__os_fn_f0001001>

0000000041000148 <syscalls__syscall_check_switch_super_mode>:
    41000148:	000f02b7          	lui	x5,0xf0
    4100014c:	0012829b          	addiw	x5,x5,1 # f0001 <SID_PBVMS_013_ptw_permission_encodings_stack+0x1d001>
    41000150:	00c29293          	slli	x5,x5,0xc
    41000154:	00228293          	addi	x5,x5,2
    41000158:	0c5f8063          	beq	x31,x5,41000218 <syscalls__os_fn_f0001002>

000000004100015c <syscalls__syscall_check_switch_user_mode>:
    4100015c:	000f02b7          	lui	x5,0xf0
    41000160:	0012829b          	addiw	x5,x5,1 # f0001 <SID_PBVMS_013_ptw_permission_encodings_stack+0x1d001>
    41000164:	00c29293          	slli	x5,x5,0xc
    41000168:	00328293          	addi	x5,x5,3
    4100016c:	0a5f8a63          	beq	x31,x5,41000220 <syscalls__os_fn_f0001003>

0000000041000170 <syscalls__syscall_check_switch_test_mode>:
    41000170:	000f02b7          	lui	x5,0xf0
    41000174:	0012829b          	addiw	x5,x5,1 # f0001 <SID_PBVMS_013_ptw_permission_encodings_stack+0x1d001>
    41000178:	00c29293          	slli	x5,x5,0xc
    4100017c:	00428293          	addi	x5,x5,4
    41000180:	0c5f8463          	beq	x31,x5,41000248 <syscalls__os_fn_f0001004>

0000000041000184 <syscalls__syscall_machine_csr_rw>:
    41000184:	000f02b7          	lui	x5,0xf0
    41000188:	0012829b          	addiw	x5,x5,1 # f0001 <SID_PBVMS_013_ptw_permission_encodings_stack+0x1d001>
    4100018c:	00c29293          	slli	x5,x5,0xc
    41000190:	00528293          	addi	x5,x5,5
    41000194:	0e5f8063          	beq	x31,x5,41000274 <syscalls__os_fn_f0001005>

0000000041000198 <syscalls__syscall_supervisor_csr_rw>:
    41000198:	000f02b7          	lui	x5,0xf0
    4100019c:	0012829b          	addiw	x5,x5,1 # f0001 <SID_PBVMS_013_ptw_permission_encodings_stack+0x1d001>
    410001a0:	00c29293          	slli	x5,x5,0xc
    410001a4:	00628293          	addi	x5,x5,6
    410001a8:	0e5f8c63          	beq	x31,x5,410002a0 <syscalls__os_fn_f0001006>

00000000410001ac <syscalls__syscall_machine_pte_read>:
    410001ac:	000f02b7          	lui	x5,0xf0
    410001b0:	0012829b          	addiw	x5,x5,1 # f0001 <SID_PBVMS_013_ptw_permission_encodings_stack+0x1d001>
    410001b4:	00c29293          	slli	x5,x5,0xc
    410001b8:	00728293          	addi	x5,x5,7
    410001bc:	0e5f8663          	beq	x31,x5,410002a8 <syscalls__os_fn_f0001007>

00000000410001c0 <syscalls__syscall_machine_pte_write>:
    410001c0:	000f02b7          	lui	x5,0xf0
    410001c4:	0012829b          	addiw	x5,x5,1 # f0001 <SID_PBVMS_013_ptw_permission_encodings_stack+0x1d001>
    410001c8:	00c29293          	slli	x5,x5,0xc
    410001cc:	00828293          	addi	x5,x5,8
    410001d0:	1c5f8263          	beq	x31,x5,41000394 <syscalls__os_fn_f0001008>

00000000410001d4 <syscalls__syscall_check_get_hart_context>:
    410001d4:	000782b7          	lui	x5,0x78
    410001d8:	0012829b          	addiw	x5,x5,1 # 78001 <tp_csr_storage+0x3001>
    410001dc:	00d29293          	slli	x5,x5,0xd
    410001e0:	00128293          	addi	x5,x5,1
    410001e4:	285f8e63          	beq	x31,x5,41000480 <syscalls__os_get_hart_context>
    410001e8:	4940006f          	j	4100067c <trap_handler_m__check_exception_label>

00000000410001ec <syscalls__os_fn_f0001001>:
    410001ec:	000022b7          	lui	x5,0x2
    410001f0:	8002829b          	addiw	x5,x5,-2048 # 1800 <mem28__pt_level1+0x800>
    410001f4:	3002b073          	csrc	mstatus,x5
    410001f8:	000022b7          	lui	x5,0x2
    410001fc:	8002829b          	addiw	x5,x5,-2048 # 1800 <mem28__pt_level1+0x800>
    41000200:	3002a073          	csrs	mstatus,x5
    41000204:	0010029b          	addiw	x5,x0,1
    41000208:	02729293          	slli	x5,x5,0x27
    4100020c:	3002b073          	csrc	mstatus,x5
    41000210:	413082b7          	lui	x5,0x41308
    41000214:	27c0006f          	j	41000490 <syscalls__ret_from_os_fn>

0000000041000218 <syscalls__os_fn_f0001002>:
    41000218:	412082b7          	lui	x5,0x41208
    4100021c:	2740006f          	j	41000490 <syscalls__ret_from_os_fn>

0000000041000220 <syscalls__os_fn_f0001003>:
    41000220:	000022b7          	lui	x5,0x2
    41000224:	8002829b          	addiw	x5,x5,-2048 # 1800 <mem28__pt_level1+0x800>
    41000228:	3002b073          	csrc	mstatus,x5
    4100022c:	00000293          	li	x5,0
    41000230:	3002a073          	csrs	mstatus,x5
    41000234:	0010029b          	addiw	x5,x0,1
    41000238:	02729293          	slli	x5,x5,0x27
    4100023c:	3002b073          	csrc	mstatus,x5
    41000240:	412882b7          	lui	x5,0x41288
    41000244:	24c0006f          	j	41000490 <syscalls__ret_from_os_fn>

0000000041000248 <syscalls__os_fn_f0001004>:
    41000248:	000022b7          	lui	x5,0x2
    4100024c:	8002829b          	addiw	x5,x5,-2048 # 1800 <mem28__pt_level1+0x800>
    41000250:	3002b073          	csrc	mstatus,x5
    41000254:	000012b7          	lui	x5,0x1
    41000258:	8002829b          	addiw	x5,x5,-2048 # 800 <XLEN+0x7c0>
    4100025c:	3002a073          	csrs	mstatus,x5
    41000260:	0010029b          	addiw	x5,x0,1
    41000264:	02729293          	slli	x5,x5,0x27
    41000268:	3002b073          	csrc	mstatus,x5
    4100026c:	17823283          	ld	x5,376(x4) # 44ee3178 <__section_hart_context+0x178>
    41000270:	2200006f          	j	41000490 <syscalls__ret_from_os_fn>

0000000041000274 <syscalls__os_fn_f0001005>:
    41000274:	000022b7          	lui	x5,0x2
    41000278:	8002829b          	addiw	x5,x5,-2048 # 1800 <mem28__pt_level1+0x800>
    4100027c:	3002b073          	csrc	mstatus,x5
    41000280:	000022b7          	lui	x5,0x2
    41000284:	8002829b          	addiw	x5,x5,-2048 # 1800 <mem28__pt_level1+0x800>
    41000288:	3002a073          	csrs	mstatus,x5
    4100028c:	0010029b          	addiw	x5,x0,1
    41000290:	02729293          	slli	x5,x5,0x27
    41000294:	3002b073          	csrc	mstatus,x5
    41000298:	413882b7          	lui	x5,0x41388
    4100029c:	1f40006f          	j	41000490 <syscalls__ret_from_os_fn>

00000000410002a0 <syscalls__os_fn_f0001006>:
    410002a0:	413892b7          	lui	x5,0x41389
    410002a4:	1ec0006f          	j	41000490 <syscalls__ret_from_os_fn>

00000000410002a8 <syscalls__os_fn_f0001007>:
    410002a8:	44e1efb7          	lui	x31,0x44e1e
    410002ac:	0b0f8f9b          	addiw	x31,x31,176 # 44e1e0b0 <pte_access_flags_pa>
    410002b0:	000fbf83          	ld	x31,0(x31)
    410002b4:	44e1e2b7          	lui	x5,0x44e1e
    410002b8:	0b82829b          	addiw	x5,x5,184 # 44e1e0b8 <pte_access_flags_pa+0x8>
    410002bc:	0002b283          	ld	x5,0(x5)
    410002c0:	44e1ee37          	lui	x28,0x44e1e
    410002c4:	0c0e0e1b          	addiw	x28,x28,192 # 44e1e0c0 <pte_access_flags_pa+0x10>
    410002c8:	000e3e03          	ld	x28,0(x28)

00000000410002cc <syscalls__pte_walk_check_glevel_without_gstage_read>:
    410002cc:	fff00f93          	li	x31,-1
    410002d0:	0dfe1063          	bne	x28,x31,41000390 <syscalls__pte_walk_fail_read>
    410002d4:	18002373          	csrr	x6,satp
    410002d8:	03c35e93          	srli	x29,x6,0x3c
    410002dc:	01431313          	slli	x6,x6,0x14
    410002e0:	01435313          	srli	x6,x6,0x14
    410002e4:	00c31313          	slli	x6,x6,0xc
    410002e8:	ff8e8e93          	addi	x29,x29,-8
    410002ec:	003e9f13          	slli	x30,x29,0x3
    410002f0:	01df0eb3          	add	x29,x30,x29
    410002f4:	01ee8e93          	addi	x29,x29,30
    410002f8:	00000f13          	li	x30,0

00000000410002fc <syscalls__pte_walk_loop_read>:
    410002fc:	44e1efb7          	lui	x31,0x44e1e
    41000300:	0b0f8f9b          	addiw	x31,x31,176 # 44e1e0b0 <pte_access_flags_pa>
    41000304:	000fbf83          	ld	x31,0(x31)
    41000308:	01dfdfb3          	srl	x31,x31,x29
    4100030c:	1fffff93          	andi	x31,x31,511
    41000310:	003f9f93          	slli	x31,x31,0x3
    41000314:	01f30333          	add	x6,x6,x31
    41000318:	005f0e63          	beq	x30,x5,41000334 <syscalls__pte_walk_done_read>
    4100031c:	00033f83          	ld	x31,0(x6)
    41000320:	00afdf93          	srli	x31,x31,0xa
    41000324:	00cf9313          	slli	x6,x31,0xc
    41000328:	001f0f13          	addi	x30,x30,1
    4100032c:	ff7e8e93          	addi	x29,x29,-9
    41000330:	fcdff06f          	j	410002fc <syscalls__pte_walk_loop_read>

0000000041000334 <syscalls__pte_walk_done_read>:
    41000334:	fff00f93          	li	x31,-1
    41000338:	05fe0263          	beq	x28,x31,4100037c <syscalls__pte_walk_final_read>

000000004100033c <syscalls__pte_walk_gstage_read>:
    4100033c:	44e1efb7          	lui	x31,0x44e1e
    41000340:	0b0f8f9b          	addiw	x31,x31,176 # 44e1e0b0 <pte_access_flags_pa>
    41000344:	006fb023          	sd	x6,0(x31)
    41000348:	000e0293          	mv	x5,x28
    4100034c:	fff00e13          	li	x28,-1
    41000350:	68002373          	csrr	x6,hgatp
    41000354:	03c35e93          	srli	x29,x6,0x3c
    41000358:	01431313          	slli	x6,x6,0x14
    4100035c:	01435313          	srli	x6,x6,0x14
    41000360:	00c31313          	slli	x6,x6,0xc
    41000364:	ff8e8e93          	addi	x29,x29,-8
    41000368:	003e9f13          	slli	x30,x29,0x3
    4100036c:	01df0eb3          	add	x29,x30,x29
    41000370:	01ee8e93          	addi	x29,x29,30
    41000374:	00000f13          	li	x30,0
    41000378:	f85ff06f          	j	410002fc <syscalls__pte_walk_loop_read>

000000004100037c <syscalls__pte_walk_final_read>:
    4100037c:	00033383          	ld	x7,0(x6)
    41000380:	341022f3          	csrr	x5,mepc
    41000384:	00428293          	addi	x5,x5,4
    41000388:	16523c23          	sd	x5,376(x4) # 178 <XLEN+0x138>
    4100038c:	ebdff06f          	j	41000248 <syscalls__os_fn_f0001004>

0000000041000390 <syscalls__pte_walk_fail_read>:
    41000390:	4040006f          	j	41000794 <test_failed>

0000000041000394 <syscalls__os_fn_f0001008>:
    41000394:	44e1efb7          	lui	x31,0x44e1e
    41000398:	0b0f8f9b          	addiw	x31,x31,176 # 44e1e0b0 <pte_access_flags_pa>
    4100039c:	000fbf83          	ld	x31,0(x31)
    410003a0:	44e1e2b7          	lui	x5,0x44e1e
    410003a4:	0b82829b          	addiw	x5,x5,184 # 44e1e0b8 <pte_access_flags_pa+0x8>
    410003a8:	0002b283          	ld	x5,0(x5)
    410003ac:	44e1ee37          	lui	x28,0x44e1e
    410003b0:	0c0e0e1b          	addiw	x28,x28,192 # 44e1e0c0 <pte_access_flags_pa+0x10>
    410003b4:	000e3e03          	ld	x28,0(x28)

00000000410003b8 <syscalls__pte_walk_check_glevel_without_gstage_write>:
    410003b8:	fff00f93          	li	x31,-1
    410003bc:	0dfe1063          	bne	x28,x31,4100047c <syscalls__pte_walk_fail_write>
    410003c0:	18002373          	csrr	x6,satp
    410003c4:	03c35e93          	srli	x29,x6,0x3c
    410003c8:	01431313          	slli	x6,x6,0x14
    410003cc:	01435313          	srli	x6,x6,0x14
    410003d0:	00c31313          	slli	x6,x6,0xc
    410003d4:	ff8e8e93          	addi	x29,x29,-8
    410003d8:	003e9f13          	slli	x30,x29,0x3
    410003dc:	01df0eb3          	add	x29,x30,x29
    410003e0:	01ee8e93          	addi	x29,x29,30
    410003e4:	00000f13          	li	x30,0

00000000410003e8 <syscalls__pte_walk_loop_write>:
    410003e8:	44e1efb7          	lui	x31,0x44e1e
    410003ec:	0b0f8f9b          	addiw	x31,x31,176 # 44e1e0b0 <pte_access_flags_pa>
    410003f0:	000fbf83          	ld	x31,0(x31)
    410003f4:	01dfdfb3          	srl	x31,x31,x29
    410003f8:	1fffff93          	andi	x31,x31,511
    410003fc:	003f9f93          	slli	x31,x31,0x3
    41000400:	01f30333          	add	x6,x6,x31
    41000404:	005f0e63          	beq	x30,x5,41000420 <syscalls__pte_walk_done_write>
    41000408:	00033f83          	ld	x31,0(x6)
    4100040c:	00afdf93          	srli	x31,x31,0xa
    41000410:	00cf9313          	slli	x6,x31,0xc
    41000414:	001f0f13          	addi	x30,x30,1
    41000418:	ff7e8e93          	addi	x29,x29,-9
    4100041c:	fcdff06f          	j	410003e8 <syscalls__pte_walk_loop_write>

0000000041000420 <syscalls__pte_walk_done_write>:
    41000420:	fff00f93          	li	x31,-1
    41000424:	05fe0263          	beq	x28,x31,41000468 <syscalls__pte_walk_final_write>

0000000041000428 <syscalls__pte_walk_gstage_write>:
    41000428:	44e1efb7          	lui	x31,0x44e1e
    4100042c:	0b0f8f9b          	addiw	x31,x31,176 # 44e1e0b0 <pte_access_flags_pa>
    41000430:	006fb023          	sd	x6,0(x31)
    41000434:	000e0293          	mv	x5,x28
    41000438:	fff00e13          	li	x28,-1
    4100043c:	68002373          	csrr	x6,hgatp
    41000440:	03c35e93          	srli	x29,x6,0x3c
    41000444:	01431313          	slli	x6,x6,0x14
    41000448:	01435313          	srli	x6,x6,0x14
    4100044c:	00c31313          	slli	x6,x6,0xc
    41000450:	ff8e8e93          	addi	x29,x29,-8
    41000454:	003e9f13          	slli	x30,x29,0x3
    41000458:	01df0eb3          	add	x29,x30,x29
    4100045c:	01ee8e93          	addi	x29,x29,30
    41000460:	00000f13          	li	x30,0
    41000464:	f85ff06f          	j	410003e8 <syscalls__pte_walk_loop_write>

0000000041000468 <syscalls__pte_walk_final_write>:
    41000468:	00733023          	sd	x7,0(x6)
    4100046c:	341022f3          	csrr	x5,mepc
    41000470:	00428293          	addi	x5,x5,4
    41000474:	16523c23          	sd	x5,376(x4) # 178 <XLEN+0x138>
    41000478:	dd1ff06f          	j	41000248 <syscalls__os_fn_f0001004>

000000004100047c <syscalls__pte_walk_fail_write>:
    4100047c:	3180006f          	j	41000794 <test_failed>

0000000041000480 <syscalls__os_get_hart_context>:
    41000480:	14002573          	csrr	x10,sscratch
    41000484:	341022f3          	csrr	x5,mepc
    41000488:	00428293          	addi	x5,x5,4
    4100048c:	0040006f          	j	41000490 <syscalls__ret_from_os_fn>

0000000041000490 <syscalls__ret_from_os_fn>:
    41000490:	34102373          	csrr	x6,mepc
    41000494:	00430313          	addi	x6,x6,4
    41000498:	16623c23          	sd	x6,376(x4) # 178 <XLEN+0x138>
    4100049c:	34129073          	csrw	mepc,x5
    410004a0:	fff00f93          	li	x31,-1
    410004a4:	2a40006f          	j	41000748 <trap_handler_m__skip_xepc_write>

00000000410004a8 <trap_handler_m__invalid_interrupt>:
    410004a8:	2ec0006f          	j	41000794 <test_failed>

00000000410004ac <trap_handler_m__clear_all_interrupts>:
    410004ac:	34401073          	csrw	mip,x0
    410004b0:	30200073          	mret

00000000410004b4 <trap_handler_m___CLEAR_SSI>:
    410004b4:	00200293          	li	x5,2
    410004b8:	3442b073          	csrc	mip,x5
    410004bc:	30200073          	mret

00000000410004c0 <trap_handler_m___CLEAR_MSI>:
    410004c0:	00800293          	li	x5,8
    410004c4:	3442b073          	csrc	mip,x5
    410004c8:	30200073          	mret

00000000410004cc <trap_handler_m___CLEAR_STI>:
    410004cc:	02000293          	li	x5,32
    410004d0:	3442b073          	csrc	mip,x5
    410004d4:	30200073          	mret

00000000410004d8 <trap_handler_m___CLEAR_MTI>:
    410004d8:	08000293          	li	x5,128
    410004dc:	3442b073          	csrc	mip,x5
    410004e0:	30200073          	mret

00000000410004e4 <trap_handler_m___CLEAR_SEI>:
    410004e4:	20000293          	li	x5,512
    410004e8:	3442b073          	csrc	mip,x5
    410004ec:	30200073          	mret

00000000410004f0 <trap_handler_m___CLEAR_MEI>:
    410004f0:	000012b7          	lui	x5,0x1
    410004f4:	8002829b          	addiw	x5,x5,-2048 # 800 <XLEN+0x7c0>
    410004f8:	3442b073          	csrc	mip,x5
    410004fc:	30200073          	mret

0000000041000500 <trap_handler_m___CLEAR_COI>:
    41000500:	000022b7          	lui	x5,0x2
    41000504:	3442b073          	csrc	mip,x5
    41000508:	30200073          	mret

000000004100050c <trap_handler_m__clear_highest_priority_interrupt>:
    4100050c:	344022f3          	csrr	x5,mip
    41000510:	40500333          	neg	x6,x5
    41000514:	0062f2b3          	and	x5,x5,x6
    41000518:	3442b073          	csrc	mip,x5
    4100051c:	30200073          	mret

0000000041000520 <trap_handler_m__trap_entry>:
    41000520:	0fc0006f          	j	4100061c <trap_handler_m__trap_handler>

0000000041000524 <trap_handler_m__interrupt_vector_table>:
    41000524:	f91ff06f          	j	410004b4 <trap_handler_m___CLEAR_SSI>
    41000528:	f81ff06f          	j	410004a8 <trap_handler_m__invalid_interrupt>
    4100052c:	f95ff06f          	j	410004c0 <trap_handler_m___CLEAR_MSI>
    41000530:	f79ff06f          	j	410004a8 <trap_handler_m__invalid_interrupt>
    41000534:	f99ff06f          	j	410004cc <trap_handler_m___CLEAR_STI>
    41000538:	f71ff06f          	j	410004a8 <trap_handler_m__invalid_interrupt>
    4100053c:	f9dff06f          	j	410004d8 <trap_handler_m___CLEAR_MTI>
    41000540:	f69ff06f          	j	410004a8 <trap_handler_m__invalid_interrupt>
    41000544:	fa1ff06f          	j	410004e4 <trap_handler_m___CLEAR_SEI>
    41000548:	f61ff06f          	j	410004a8 <trap_handler_m__invalid_interrupt>
    4100054c:	fa5ff06f          	j	410004f0 <trap_handler_m___CLEAR_MEI>
    41000550:	f59ff06f          	j	410004a8 <trap_handler_m__invalid_interrupt>
    41000554:	fadff06f          	j	41000500 <trap_handler_m___CLEAR_COI>
    41000558:	f51ff06f          	j	410004a8 <trap_handler_m__invalid_interrupt>
    4100055c:	f4dff06f          	j	410004a8 <trap_handler_m__invalid_interrupt>
    41000560:	fadff06f          	j	4100050c <trap_handler_m__clear_highest_priority_interrupt>
    41000564:	fa9ff06f          	j	4100050c <trap_handler_m__clear_highest_priority_interrupt>
    41000568:	fa5ff06f          	j	4100050c <trap_handler_m__clear_highest_priority_interrupt>
    4100056c:	fa1ff06f          	j	4100050c <trap_handler_m__clear_highest_priority_interrupt>
    41000570:	f9dff06f          	j	4100050c <trap_handler_m__clear_highest_priority_interrupt>
    41000574:	f99ff06f          	j	4100050c <trap_handler_m__clear_highest_priority_interrupt>
    41000578:	f95ff06f          	j	4100050c <trap_handler_m__clear_highest_priority_interrupt>
    4100057c:	f91ff06f          	j	4100050c <trap_handler_m__clear_highest_priority_interrupt>
    41000580:	f8dff06f          	j	4100050c <trap_handler_m__clear_highest_priority_interrupt>
    41000584:	f89ff06f          	j	4100050c <trap_handler_m__clear_highest_priority_interrupt>
    41000588:	f85ff06f          	j	4100050c <trap_handler_m__clear_highest_priority_interrupt>
    4100058c:	f81ff06f          	j	4100050c <trap_handler_m__clear_highest_priority_interrupt>
    41000590:	f7dff06f          	j	4100050c <trap_handler_m__clear_highest_priority_interrupt>
    41000594:	f79ff06f          	j	4100050c <trap_handler_m__clear_highest_priority_interrupt>
    41000598:	f75ff06f          	j	4100050c <trap_handler_m__clear_highest_priority_interrupt>
    4100059c:	f71ff06f          	j	4100050c <trap_handler_m__clear_highest_priority_interrupt>
    410005a0:	f6dff06f          	j	4100050c <trap_handler_m__clear_highest_priority_interrupt>
    410005a4:	f69ff06f          	j	4100050c <trap_handler_m__clear_highest_priority_interrupt>
    410005a8:	f65ff06f          	j	4100050c <trap_handler_m__clear_highest_priority_interrupt>
    410005ac:	f61ff06f          	j	4100050c <trap_handler_m__clear_highest_priority_interrupt>
    410005b0:	f5dff06f          	j	4100050c <trap_handler_m__clear_highest_priority_interrupt>
    410005b4:	f59ff06f          	j	4100050c <trap_handler_m__clear_highest_priority_interrupt>
    410005b8:	f55ff06f          	j	4100050c <trap_handler_m__clear_highest_priority_interrupt>
    410005bc:	f51ff06f          	j	4100050c <trap_handler_m__clear_highest_priority_interrupt>
    410005c0:	f4dff06f          	j	4100050c <trap_handler_m__clear_highest_priority_interrupt>
    410005c4:	f49ff06f          	j	4100050c <trap_handler_m__clear_highest_priority_interrupt>
    410005c8:	f45ff06f          	j	4100050c <trap_handler_m__clear_highest_priority_interrupt>
    410005cc:	f41ff06f          	j	4100050c <trap_handler_m__clear_highest_priority_interrupt>
    410005d0:	f3dff06f          	j	4100050c <trap_handler_m__clear_highest_priority_interrupt>
    410005d4:	f39ff06f          	j	4100050c <trap_handler_m__clear_highest_priority_interrupt>
    410005d8:	f35ff06f          	j	4100050c <trap_handler_m__clear_highest_priority_interrupt>
    410005dc:	f31ff06f          	j	4100050c <trap_handler_m__clear_highest_priority_interrupt>
    410005e0:	f2dff06f          	j	4100050c <trap_handler_m__clear_highest_priority_interrupt>
    410005e4:	f29ff06f          	j	4100050c <trap_handler_m__clear_highest_priority_interrupt>
    410005e8:	f25ff06f          	j	4100050c <trap_handler_m__clear_highest_priority_interrupt>
    410005ec:	f21ff06f          	j	4100050c <trap_handler_m__clear_highest_priority_interrupt>
    410005f0:	f1dff06f          	j	4100050c <trap_handler_m__clear_highest_priority_interrupt>
    410005f4:	f19ff06f          	j	4100050c <trap_handler_m__clear_highest_priority_interrupt>
    410005f8:	f15ff06f          	j	4100050c <trap_handler_m__clear_highest_priority_interrupt>
    410005fc:	f11ff06f          	j	4100050c <trap_handler_m__clear_highest_priority_interrupt>
    41000600:	f0dff06f          	j	4100050c <trap_handler_m__clear_highest_priority_interrupt>
    41000604:	f09ff06f          	j	4100050c <trap_handler_m__clear_highest_priority_interrupt>
    41000608:	f05ff06f          	j	4100050c <trap_handler_m__clear_highest_priority_interrupt>
    4100060c:	f01ff06f          	j	4100050c <trap_handler_m__clear_highest_priority_interrupt>
    41000610:	efdff06f          	j	4100050c <trap_handler_m__clear_highest_priority_interrupt>
    41000614:	ef9ff06f          	j	4100050c <trap_handler_m__clear_highest_priority_interrupt>
    41000618:	ef5ff06f          	j	4100050c <trap_handler_m__clear_highest_priority_interrupt>

000000004100061c <trap_handler_m__trap_handler>:
    4100061c:	342022f3          	csrr	x5,mcause
    41000620:	fff0031b          	addiw	x6,x0,-1
    41000624:	03f31313          	slli	x6,x6,0x3f
    41000628:	00537333          	and	x6,x6,x5
    4100062c:	02030263          	beqz	x6,41000650 <trap_handler_m__exception_path>

0000000041000630 <trap_handler_m__interrupt_handler>:
    41000630:	fff0031b          	addiw	x6,x0,-1
    41000634:	03f31313          	slli	x6,x6,0x3f
    41000638:	0062c2b3          	xor	x5,x5,x6
    4100063c:	00000317          	auipc	x6,0x0
    41000640:	ee430313          	addi	x6,x6,-284 # 41000520 <trap_handler_m__trap_entry>
    41000644:	00229293          	slli	x5,x5,0x2
    41000648:	005302b3          	add	x5,x6,x5
    4100064c:	00028067          	jr	x5 # 2000 <mem12>

0000000041000650 <trap_handler_m__exception_path>:
    41000650:	34021273          	csrrw	x4,mscratch,x4
    41000654:	00000297          	auipc	x5,0x0
    41000658:	10828293          	addi	x5,x5,264 # 4100075c <trap_handler_m__trap_panic>
    4100065c:	30529073          	csrw	mtvec,x5
    41000660:	0040006f          	j	41000664 <trap_handler_m__excp_entry>

0000000041000664 <trap_handler_m__excp_entry>:
    41000664:	34202373          	csrr	x6,mcause
    41000668:	00800293          	li	x5,8
    4100066c:	00534863          	blt	x6,x5,4100067c <trap_handler_m__check_exception_label>
    41000670:	00b00293          	li	x5,11
    41000674:	0062c463          	blt	x5,x6,4100067c <trap_handler_m__check_exception_label>
    41000678:	a5dff06f          	j	410000d4 <syscalls__syscall_check_schedule_next_test>

000000004100067c <trap_handler_m__check_exception_label>:
    4100067c:	04623c23          	sd	x6,88(x4) # 58 <XLEN+0x18>
    41000680:	341022f3          	csrr	x5,mepc
    41000684:	02523423          	sd	x5,40(x4) # 28 <SECURE_ACCESS_PROBABILITY+0xa>
    41000688:	01820283          	lb	x5,24(x4) # 18 <STORE_GUEST_PAGE_FAULT+0x1>
    4100068c:	00029863          	bnez	x5,4100069c <trap_handler_m__check_excp>
    41000690:	00128293          	addi	x5,x5,1
    41000694:	00520c23          	sb	x5,24(x4) # 18 <STORE_GUEST_PAGE_FAULT+0x1>
    41000698:	0980006f          	j	41000730 <trap_handler_m__ecall_from_machine>

000000004100069c <trap_handler_m__check_excp>:
    4100069c:	06823283          	ld	x5,104(x4) # 68 <XLEN+0x28>
    410006a0:	06023423          	sd	x0,104(x4) # 68 <XLEN+0x28>
    410006a4:	00028663          	beqz	x5,410006b0 <trap_handler_m__skip_mode_check>
    410006a8:	00100393          	li	x7,1
    410006ac:	0e729463          	bne	x5,x7,41000794 <test_failed>

00000000410006b0 <trap_handler_m__skip_mode_check>:
    410006b0:	05023283          	ld	x5,80(x4) # 50 <XLEN+0x10>
    410006b4:	04023823          	sd	x0,80(x4) # 50 <XLEN+0x10>
    410006b8:	0c531e63          	bne	x6,x5,41000794 <test_failed>
    410006bc:	03823283          	ld	x5,56(x4) # 38 <SECURE_ACCESS_PROBABILITY+0x1a>
    410006c0:	02023c23          	sd	x0,56(x4) # 38 <SECURE_ACCESS_PROBABILITY+0x1a>
    410006c4:	06029463          	bnez	x5,4100072c <trap_handler_m__skip_gva_check>
    410006c8:	02023303          	ld	x6,32(x4) # 20 <SECURE_ACCESS_PROBABILITY+0x2>
    410006cc:	02023023          	sd	x0,32(x4) # 20 <SECURE_ACCESS_PROBABILITY+0x2>
    410006d0:	02823283          	ld	x5,40(x4) # 28 <SECURE_ACCESS_PROBABILITY+0xa>
    410006d4:	02023423          	sd	x0,40(x4) # 28 <SECURE_ACCESS_PROBABILITY+0xa>
    410006d8:	0a531e63          	bne	x6,x5,41000794 <test_failed>
    410006dc:	04023283          	ld	x5,64(x4) # 40 <XLEN>
    410006e0:	04023023          	sd	x0,64(x4) # 40 <XLEN>
    410006e4:	00028663          	beqz	x5,410006f0 <trap_handler_m__skip_nonzero_tval_check>

00000000410006e8 <trap_handler_m__nonzero_tval_check>:
    410006e8:	34302373          	csrr	x6,mtval
    410006ec:	0a531463          	bne	x6,x5,41000794 <test_failed>

00000000410006f0 <trap_handler_m__skip_nonzero_tval_check>:
    410006f0:	04823283          	ld	x5,72(x4) # 48 <XLEN+0x8>
    410006f4:	04023423          	sd	x0,72(x4) # 48 <XLEN+0x8>
    410006f8:	00028663          	beqz	x5,41000704 <trap_handler_m__skip_nonzero_htval_check>

00000000410006fc <trap_handler_m__nonzero_htval_check>:
    410006fc:	34b02373          	csrr	x6,0x34b
    41000700:	08531a63          	bne	x6,x5,41000794 <test_failed>

0000000041000704 <trap_handler_m__skip_nonzero_htval_check>:
    41000704:	06023283          	ld	x5,96(x4) # 60 <XLEN+0x20>
    41000708:	06023023          	sd	x0,96(x4) # 60 <XLEN+0x20>
    4100070c:	02028063          	beqz	x5,4100072c <trap_handler_m__skip_gva_check>

0000000041000710 <trap_handler_m__gva_check>:
    41000710:	30002373          	csrr	x6,mstatus
    41000714:	02635313          	srli	x6,x6,0x26
    41000718:	00137313          	andi	x6,x6,1
    4100071c:	06030c63          	beqz	x6,41000794 <test_failed>
    41000720:	0010031b          	addiw	x6,x0,1
    41000724:	02631313          	slli	x6,x6,0x26
    41000728:	30033073          	csrc	mstatus,x6

000000004100072c <trap_handler_m__skip_gva_check>:
    4100072c:	0040006f          	j	41000730 <trap_handler_m__ecall_from_machine>

0000000041000730 <trap_handler_m__ecall_from_machine>:
    41000730:	03023283          	ld	x5,48(x4) # 30 <SECURE_ACCESS_PROBABILITY+0x12>
    41000734:	02023823          	sd	x0,48(x4) # 30 <SECURE_ACCESS_PROBABILITY+0x12>
    41000738:	07023303          	ld	x6,112(x4) # 70 <XLEN+0x30>
    4100073c:	06023823          	sd	x0,112(x4) # 70 <XLEN+0x30>
    41000740:	00031463          	bnez	x6,41000748 <trap_handler_m__skip_xepc_write>
    41000744:	34129073          	csrw	mepc,x5

0000000041000748 <trap_handler_m__skip_xepc_write>:
    41000748:	00000317          	auipc	x6,0x0
    4100074c:	dd830313          	addi	x6,x6,-552 # 41000520 <trap_handler_m__trap_entry>
    41000750:	30531073          	csrw	mtvec,x6
    41000754:	34021273          	csrrw	x4,mscratch,x4
    41000758:	30200073          	mret

000000004100075c <trap_handler_m__trap_panic>:
    4100075c:	00000193          	li	x3,0
    41000760:	2b00006f          	j	41000a10 <eot__end_test>

0000000041000764 <enter_scheduler>:
    41000764:	0002f337          	lui	x6,0x2f
    41000768:	ab73031b          	addiw	x6,x6,-1353 # 2eab7 <mem31__pt_level2+0x7ab7>
    4100076c:	00e31313          	slli	x6,x6,0xe
    41000770:	0de30313          	addi	x6,x6,222
    41000774:	02628063          	beq	x5,x6,41000794 <test_failed>
    41000778:	00000513          	li	x10,0
    4100077c:	030000ef          	jal	410007ac <rvcp_print_test_result>
    41000780:	3140006f          	j	41000a94 <scheduler__dispatch>

0000000041000784 <test_passed>:
    41000784:	34021273          	csrrw	x4,mscratch,x4
    41000788:	00000513          	li	x10,0
    4100078c:	020000ef          	jal	410007ac <rvcp_print_test_result>
    41000790:	3040006f          	j	41000a94 <scheduler__dispatch>

0000000041000794 <test_failed>:
    41000794:	34021273          	csrrw	x4,mscratch,x4
    41000798:	00300193          	li	x3,3
    4100079c:	2740006f          	j	41000a10 <eot__end_test>

00000000410007a0 <os_end_test>:
    410007a0:	34021273          	csrrw	x4,mscratch,x4
    410007a4:	00100193          	li	x3,1
    410007a8:	2680006f          	j	41000a10 <eot__end_test>

00000000410007ac <rvcp_print_test_result>:
    410007ac:	00050e13          	mv	x28,x10
    410007b0:	18823283          	ld	x5,392(x4) # 188 <XLEN+0x148>
    410007b4:	0010031b          	addiw	x6,x0,1
    410007b8:	02031313          	slli	x6,x6,0x20
    410007bc:	ffe30313          	addi	x6,x6,-2
    410007c0:	1c628063          	beq	x5,x6,41000980 <rvcp_print_test_result+0x1d4>
    410007c4:	0010031b          	addiw	x6,x0,1
    410007c8:	02031313          	slli	x6,x6,0x20
    410007cc:	fff30313          	addi	x6,x6,-1
    410007d0:	1a628863          	beq	x5,x6,41000980 <rvcp_print_test_result+0x1d4>
    410007d4:	1a02c663          	bltz	x5,41000980 <rvcp_print_test_result+0x1d4>
    410007d8:	00000317          	auipc	x6,0x0
    410007dc:	46430313          	addi	x6,x6,1124 # 41000c3c <dtest_descriptor_table>
    410007e0:	00329393          	slli	x7,x5,0x3
    410007e4:	00730333          	add	x6,x6,x7
    410007e8:	00033e83          	ld	x29,0(x6)
    410007ec:	44e1ef37          	lui	x30,0x44e1e
    410007f0:	030f0f1b          	addiw	x30,x30,48 # 44e1e030 <rvcp_prefix_str_pa>
    410007f4:	000f4283          	lbu	x5,0(x30)
    410007f8:	02028663          	beqz	x5,41000824 <rvcp_print_test_result+0x78>
    410007fc:	1010031b          	addiw	x6,x0,257
    41000800:	03031313          	slli	x6,x6,0x30
    41000804:	005362b3          	or	x5,x6,x5
    41000808:	0003f317          	auipc	x6,0x3f
    4100080c:	7f830313          	addi	x6,x6,2040 # 41040000 <tohost>
    41000810:	00033383          	ld	x7,0(x6)
    41000814:	fe039ee3          	bnez	x7,41000810 <rvcp_print_test_result+0x64>
    41000818:	00533023          	sd	x5,0(x6)
    4100081c:	001f0f13          	addi	x30,x30,1
    41000820:	fd5ff06f          	j	410007f4 <rvcp_print_test_result+0x48>
    41000824:	44e1ef37          	lui	x30,0x44e1e
    41000828:	041f0f1b          	addiw	x30,x30,65 # 44e1e041 <rvcp_testname_str_pa>
    4100082c:	000f4283          	lbu	x5,0(x30)
    41000830:	02028663          	beqz	x5,4100085c <rvcp_print_test_result+0xb0>
    41000834:	1010031b          	addiw	x6,x0,257
    41000838:	03031313          	slli	x6,x6,0x30
    4100083c:	005362b3          	or	x5,x6,x5
    41000840:	0003f317          	auipc	x6,0x3f
    41000844:	7c030313          	addi	x6,x6,1984 # 41040000 <tohost>
    41000848:	00033383          	ld	x7,0(x6)
    4100084c:	fe039ee3          	bnez	x7,41000848 <rvcp_print_test_result+0x9c>
    41000850:	00533023          	sd	x5,0(x6)
    41000854:	001f0f13          	addi	x30,x30,1
    41000858:	fd5ff06f          	j	4100082c <rvcp_print_test_result+0x80>
    4100085c:	44e1ef37          	lui	x30,0x44e1e
    41000860:	05bf0f1b          	addiw	x30,x30,91 # 44e1e05b <rvcp_space_str_pa>
    41000864:	000f4283          	lbu	x5,0(x30)
    41000868:	02028663          	beqz	x5,41000894 <rvcp_print_test_result+0xe8>
    4100086c:	1010031b          	addiw	x6,x0,257
    41000870:	03031313          	slli	x6,x6,0x30
    41000874:	005362b3          	or	x5,x6,x5
    41000878:	0003f317          	auipc	x6,0x3f
    4100087c:	78830313          	addi	x6,x6,1928 # 41040000 <tohost>
    41000880:	00033383          	ld	x7,0(x6)
    41000884:	fe039ee3          	bnez	x7,41000880 <rvcp_print_test_result+0xd4>
    41000888:	00533023          	sd	x5,0(x6)
    4100088c:	001f0f13          	addi	x30,x30,1
    41000890:	fd5ff06f          	j	41000864 <rvcp_print_test_result+0xb8>
    41000894:	000e8f13          	mv	x30,x29
    41000898:	000f4283          	lbu	x5,0(x30)
    4100089c:	02028663          	beqz	x5,410008c8 <rvcp_print_test_result+0x11c>
    410008a0:	1010031b          	addiw	x6,x0,257
    410008a4:	03031313          	slli	x6,x6,0x30
    410008a8:	005362b3          	or	x5,x6,x5
    410008ac:	0003f317          	auipc	x6,0x3f
    410008b0:	75430313          	addi	x6,x6,1876 # 41040000 <tohost>
    410008b4:	00033383          	ld	x7,0(x6)
    410008b8:	fe039ee3          	bnez	x7,410008b4 <rvcp_print_test_result+0x108>
    410008bc:	00533023          	sd	x5,0(x6)
    410008c0:	001f0f13          	addi	x30,x30,1
    410008c4:	fd5ff06f          	j	41000898 <rvcp_print_test_result+0xec>
    410008c8:	44e1ef37          	lui	x30,0x44e1e
    410008cc:	05bf0f1b          	addiw	x30,x30,91 # 44e1e05b <rvcp_space_str_pa>
    410008d0:	000f4283          	lbu	x5,0(x30)
    410008d4:	02028663          	beqz	x5,41000900 <rvcp_print_test_result+0x154>
    410008d8:	1010031b          	addiw	x6,x0,257
    410008dc:	03031313          	slli	x6,x6,0x30
    410008e0:	005362b3          	or	x5,x6,x5
    410008e4:	0003f317          	auipc	x6,0x3f
    410008e8:	71c30313          	addi	x6,x6,1820 # 41040000 <tohost>
    410008ec:	00033383          	ld	x7,0(x6)
    410008f0:	fe039ee3          	bnez	x7,410008ec <rvcp_print_test_result+0x140>
    410008f4:	00533023          	sd	x5,0(x6)
    410008f8:	001f0f13          	addi	x30,x30,1
    410008fc:	fd5ff06f          	j	410008d0 <rvcp_print_test_result+0x124>
    41000900:	000e1863          	bnez	x28,41000910 <rvcp_print_test_result+0x164>
    41000904:	44e1ef37          	lui	x30,0x44e1e
    41000908:	04df0f1b          	addiw	x30,x30,77 # 44e1e04d <rvcp_passed_str_pa>
    4100090c:	00c0006f          	j	41000918 <rvcp_print_test_result+0x16c>
    41000910:	44e1ef37          	lui	x30,0x44e1e
    41000914:	054f0f1b          	addiw	x30,x30,84 # 44e1e054 <rvcp_failed_str_pa>
    41000918:	000f4283          	lbu	x5,0(x30)
    4100091c:	02028663          	beqz	x5,41000948 <rvcp_print_test_result+0x19c>
    41000920:	1010031b          	addiw	x6,x0,257
    41000924:	03031313          	slli	x6,x6,0x30
    41000928:	005362b3          	or	x5,x6,x5
    4100092c:	0003f317          	auipc	x6,0x3f
    41000930:	6d430313          	addi	x6,x6,1748 # 41040000 <tohost>
    41000934:	00033383          	ld	x7,0(x6)
    41000938:	fe039ee3          	bnez	x7,41000934 <rvcp_print_test_result+0x188>
    4100093c:	00533023          	sd	x5,0(x6)
    41000940:	001f0f13          	addi	x30,x30,1
    41000944:	fd5ff06f          	j	41000918 <rvcp_print_test_result+0x16c>
    41000948:	44e1ef37          	lui	x30,0x44e1e
    4100094c:	05df0f1b          	addiw	x30,x30,93 # 44e1e05d <rvcp_newline_str_pa>
    41000950:	000f4283          	lbu	x5,0(x30)
    41000954:	02028663          	beqz	x5,41000980 <rvcp_print_test_result+0x1d4>
    41000958:	1010031b          	addiw	x6,x0,257
    4100095c:	03031313          	slli	x6,x6,0x30
    41000960:	005362b3          	or	x5,x6,x5
    41000964:	0003f317          	auipc	x6,0x3f
    41000968:	69c30313          	addi	x6,x6,1692 # 41040000 <tohost>
    4100096c:	00033383          	ld	x7,0(x6)
    41000970:	fe039ee3          	bnez	x7,4100096c <rvcp_print_test_result+0x1c0>
    41000974:	00533023          	sd	x5,0(x6)
    41000978:	001f0f13          	addi	x30,x30,1
    4100097c:	fd5ff06f          	j	41000950 <rvcp_print_test_result+0x1a4>
    41000980:	00008067          	ret

0000000041000984 <os_rng_orig>:
    41000984:	f14023f3          	csrr	x7,mhartid
    41000988:	00068313          	mv	x6,x13
    4100098c:	026383b3          	mul	x7,x7,x6
    41000990:	00058313          	mv	x6,x11
    41000994:	00730333          	add	x6,x6,x7
    41000998:	00033283          	ld	x5,0(x6)
    4100099c:	01529313          	slli	x6,x5,0x15
    410009a0:	0062c2b3          	xor	x5,x5,x6
    410009a4:	0232d313          	srli	x6,x5,0x23
    410009a8:	0062c2b3          	xor	x5,x5,x6
    410009ac:	00429313          	slli	x6,x5,0x4
    410009b0:	0062c2b3          	xor	x5,x5,x6
    410009b4:	00058313          	mv	x6,x11
    410009b8:	00730333          	add	x6,x6,x7
    410009bc:	00533023          	sd	x5,0(x6)
    410009c0:	00060313          	mv	x6,x12
    410009c4:	0262f2b3          	remu	x5,x5,x6
    410009c8:	00028513          	mv	x10,x5
    410009cc:	00008067          	ret
    410009d0:	02a00513          	li	x10,42
    410009d4:	001965b7          	lui	x11,0x196
    410009d8:	60d5859b          	addiw	x11,x11,1549 # 19660d <mem15+0x1460d>
    410009dc:	3c6ef637          	lui	x12,0x3c6ef
    410009e0:	35f6061b          	addiw	x12,x12,863 # 3c6ef35f <mem40__pt_level3+0xd7db11f>
    410009e4:	02200693          	li	x13,34
    410009e8:	02b50533          	mul	x10,x10,x11
    410009ec:	00c50533          	add	x10,x10,x12
    410009f0:	02d56533          	rem	x10,x10,x13
    410009f4:	00b00593          	li	x11,11
    410009f8:	02b56533          	rem	x10,x10,x11
    410009fc:	00008067          	ret

0000000041000a00 <tohost_mutex>:
	...

0000000041000a08 <tohost_addr_mem>:
    41000a08:	0000                	.insn	2, 0x0000
    41000a0a:	4104                	.insn	2, 0x4104
    41000a0c:	0000                	.insn	2, 0x0000
	...

0000000041000a10 <eot__end_test>:
    41000a10:	00100293          	li	x5,1
    41000a14:	00328463          	beq	x5,x3,41000a1c <eot__passed>
    41000a18:	01c0006f          	j	41000a34 <eot__failed>

0000000041000a1c <eot__passed>:
    41000a1c:	0ff0000f          	fence
    41000a20:	00000297          	auipc	x5,0x0
    41000a24:	fe82b283          	ld	x5,-24(x5) # 41000a08 <tohost_addr_mem>
    41000a28:	00100313          	li	x6,1
    41000a2c:	0062a023          	sw	x6,0(x5)
    41000a30:	0240006f          	j	41000a54 <eot__halt>

0000000041000a34 <eot__failed>:
    41000a34:	00100513          	li	x10,1
    41000a38:	d75ff0ef          	jal	410007ac <rvcp_print_test_result>
    41000a3c:	0ff0000f          	fence
    41000a40:	00000297          	auipc	x5,0x0
    41000a44:	fc82b283          	ld	x5,-56(x5) # 41000a08 <tohost_addr_mem>
    41000a48:	00300313          	li	x6,3
    41000a4c:	0062a023          	sw	x6,0(x5)
    41000a50:	0040006f          	j	41000a54 <eot__halt>

0000000041000a54 <eot__halt>:
    41000a54:	10500073          	wfi
    41000a58:	ffdff06f          	j	41000a54 <eot__halt>

0000000041000a5c <scheduler__init>:
    41000a5c:	00000297          	auipc	x5,0x0
    41000a60:	0c028293          	addi	x5,x5,192 # 41000b1c <scheduler__panic>
    41000a64:	305292f3          	csrrw	x5,mtvec,x5
    41000a68:	18523023          	sd	x5,384(x4) # 180 <XLEN+0x140>
    41000a6c:	02200293          	li	x5,34
    41000a70:	18523823          	sd	x5,400(x4) # 190 <XLEN+0x150>
    41000a74:	0010029b          	addiw	x5,x0,1
    41000a78:	02029293          	slli	x5,x5,0x20
    41000a7c:	ffe28293          	addi	x5,x5,-2
    41000a80:	18523423          	sd	x5,392(x4) # 188 <XLEN+0x148>
    41000a84:	00001317          	auipc	x6,0x1
    41000a88:	86830313          	addi	x6,x6,-1944 # 410012ec <scheduler__test_setup_ptr>
    41000a8c:	00033303          	ld	x6,0(x6)
    41000a90:	0640006f          	j	41000af4 <scheduler__execute_test>

0000000041000a94 <scheduler__dispatch>:
    41000a94:	00000297          	auipc	x5,0x0
    41000a98:	08828293          	addi	x5,x5,136 # 41000b1c <scheduler__panic>
    41000a9c:	305292f3          	csrrw	x5,mtvec,x5
    41000aa0:	18523023          	sd	x5,384(x4) # 180 <XLEN+0x140>

0000000041000aa4 <scheduler__csr_read_randomization>:
    41000aa4:	304022f3          	csrr	x5,mie
    41000aa8:	f13022f3          	csrr	x5,mimpid
    41000aac:	344022f3          	csrr	x5,mip
    41000ab0:	343022f3          	csrr	x5,mtval
    41000ab4:	143022f3          	csrr	x5,stval

0000000041000ab8 <scheduler__load_num_runs>:
    41000ab8:	19023303          	ld	x6,400(x4) # 190 <XLEN+0x150>
    41000abc:	04030c63          	beqz	x6,41000b14 <scheduler__finished>

0000000041000ac0 <scheduler__decrement_num_runs>:
    41000ac0:	fff30393          	addi	x7,x6,-1
    41000ac4:	18723823          	sd	x7,400(x4) # 190 <XLEN+0x150>
    41000ac8:	00000e17          	auipc	x28,0x0
    41000acc:	79ce0e13          	addi	x28,x28,1948 # 41001264 <dtest_index_map>
    41000ad0:	00239e93          	slli	x29,x7,0x2
    41000ad4:	01de0e33          	add	x28,x28,x29
    41000ad8:	000e2e03          	lw	x28,0(x28)
    41000adc:	19c23423          	sd	x28,392(x4) # 188 <XLEN+0x148>

0000000041000ae0 <scheduler__calc_test_pointer>:
    41000ae0:	00339293          	slli	x5,x7,0x3

0000000041000ae4 <scheduler__load_test_addr>:
    41000ae4:	00000317          	auipc	x6,0x0
    41000ae8:	04830313          	addi	x6,x6,72 # 41000b2c <os_test_sequence>
    41000aec:	006282b3          	add	x5,x5,x6
    41000af0:	0002b303          	ld	x6,0(x5)

0000000041000af4 <scheduler__execute_test>:
    41000af4:	18023283          	ld	x5,384(x4) # 180 <XLEN+0x140>
    41000af8:	30529073          	csrw	mtvec,x5
    41000afc:	34021273          	csrrw	x4,mscratch,x4
    41000b00:	00000213          	li	x4,0
    41000b04:	14131073          	csrw	sepc,x6
    41000b08:	10000293          	li	x5,256
    41000b0c:	1002a073          	csrs	sstatus,x5
    41000b10:	10200073          	sret

0000000041000b14 <scheduler__finished>:
    41000b14:	00100193          	li	x3,1
    41000b18:	ef9ff06f          	j	41000a10 <eot__end_test>

0000000041000b1c <scheduler__panic>:
    41000b1c:	00000193          	li	x3,0
    41000b20:	ef1ff06f          	j	41000a10 <eot__end_test>

0000000041000b24 <num_runs>:
    41000b24:	0022                	.insn	2, 0x0022
    41000b26:	0000                	.insn	2, 0x0000
    41000b28:	0000                	.insn	2, 0x0000
	...

0000000041000b2c <os_test_sequence>:
    41000b2c:	6e94                	.insn	2, 0x6e94
    41000b2e:	4101                	.insn	2, 0x4101
    41000b30:	0000                	.insn	2, 0x0000
    41000b32:	0000                	.insn	2, 0x0000
    41000b34:	422c                	.insn	2, 0x422c
    41000b36:	4101                	.insn	2, 0x4101
    41000b38:	0000                	.insn	2, 0x0000
    41000b3a:	0000                	.insn	2, 0x0000
    41000b3c:	53a4                	.insn	2, 0x53a4
    41000b3e:	4101                	.insn	2, 0x4101
    41000b40:	0000                	.insn	2, 0x0000
    41000b42:	0000                	.insn	2, 0x0000
    41000b44:	4b90                	.insn	2, 0x4b90
    41000b46:	4101                	.insn	2, 0x4101
    41000b48:	0000                	.insn	2, 0x0000
    41000b4a:	0000                	.insn	2, 0x0000
    41000b4c:	6d40                	.insn	2, 0x6d40
    41000b4e:	4101                	.insn	2, 0x4101
    41000b50:	0000                	.insn	2, 0x0000
    41000b52:	0000                	.insn	2, 0x0000
    41000b54:	69c4                	.insn	2, 0x69c4
    41000b56:	4101                	.insn	2, 0x4101
    41000b58:	0000                	.insn	2, 0x0000
    41000b5a:	0000                	.insn	2, 0x0000
    41000b5c:	5d44                	.insn	2, 0x5d44
    41000b5e:	4101                	.insn	2, 0x4101
    41000b60:	0000                	.insn	2, 0x0000
    41000b62:	0000                	.insn	2, 0x0000
    41000b64:	480c                	.insn	2, 0x480c
    41000b66:	4101                	.insn	2, 0x4101
    41000b68:	0000                	.insn	2, 0x0000
    41000b6a:	0000                	.insn	2, 0x0000
    41000b6c:	5208                	.insn	2, 0x5208
    41000b6e:	4101                	.insn	2, 0x4101
    41000b70:	0000                	.insn	2, 0x0000
    41000b72:	0000                	.insn	2, 0x0000
    41000b74:	4544                	.insn	2, 0x4544
    41000b76:	4101                	.insn	2, 0x4101
    41000b78:	0000                	.insn	2, 0x0000
    41000b7a:	0000                	.insn	2, 0x0000
    41000b7c:	41e8                	.insn	2, 0x41e8
    41000b7e:	4101                	.insn	2, 0x4101
    41000b80:	0000                	.insn	2, 0x0000
    41000b82:	0000                	.insn	2, 0x0000
    41000b84:	4ac4                	.insn	2, 0x4ac4
    41000b86:	4101                	.insn	2, 0x4101
    41000b88:	0000                	.insn	2, 0x0000
    41000b8a:	0000                	.insn	2, 0x0000
    41000b8c:	5998                	.insn	2, 0x5998
    41000b8e:	4101                	.insn	2, 0x4101
    41000b90:	0000                	.insn	2, 0x0000
    41000b92:	0000                	.insn	2, 0x0000
    41000b94:	55b8                	.insn	2, 0x55b8
    41000b96:	4101                	.insn	2, 0x4101
    41000b98:	0000                	.insn	2, 0x0000
    41000b9a:	0000                	.insn	2, 0x0000
    41000b9c:	4d94                	.insn	2, 0x4d94
    41000b9e:	4101                	.insn	2, 0x4101
    41000ba0:	0000                	.insn	2, 0x0000
    41000ba2:	0000                	.insn	2, 0x0000
    41000ba4:	6de0                	.insn	2, 0x6de0
    41000ba6:	4101                	.insn	2, 0x4101
    41000ba8:	0000                	.insn	2, 0x0000
    41000baa:	0000                	.insn	2, 0x0000
    41000bac:	6890                	.insn	2, 0x6890
    41000bae:	4101                	.insn	2, 0x4101
    41000bb0:	0000                	.insn	2, 0x0000
    41000bb2:	0000                	.insn	2, 0x0000
    41000bb4:	5600                	.insn	2, 0x5600
    41000bb6:	4101                	.insn	2, 0x4101
    41000bb8:	0000                	.insn	2, 0x0000
    41000bba:	0000                	.insn	2, 0x0000
    41000bbc:	5024                	.insn	2, 0x5024
    41000bbe:	4101                	.insn	2, 0x4101
    41000bc0:	0000                	.insn	2, 0x0000
    41000bc2:	0000                	.insn	2, 0x0000
    41000bc4:	5fa0                	.insn	2, 0x5fa0
    41000bc6:	4101                	.insn	2, 0x4101
    41000bc8:	0000                	.insn	2, 0x0000
    41000bca:	0000                	.insn	2, 0x0000
    41000bcc:	4170                	.insn	2, 0x4170
    41000bce:	4101                	.insn	2, 0x4101
    41000bd0:	0000                	.insn	2, 0x0000
    41000bd2:	0000                	.insn	2, 0x0000
    41000bd4:	6578                	.insn	2, 0x6578
    41000bd6:	4101                	.insn	2, 0x4101
    41000bd8:	0000                	.insn	2, 0x0000
    41000bda:	0000                	.insn	2, 0x0000
    41000bdc:	6b98                	.insn	2, 0x6b98
    41000bde:	4101                	.insn	2, 0x4101
    41000be0:	0000                	.insn	2, 0x0000
    41000be2:	0000                	.insn	2, 0x0000
    41000be4:	4694                	.insn	2, 0x4694
    41000be6:	4101                	.insn	2, 0x4101
    41000be8:	0000                	.insn	2, 0x0000
    41000bea:	0000                	.insn	2, 0x0000
    41000bec:	4eb4                	.insn	2, 0x4eb4
    41000bee:	4101                	.insn	2, 0x4101
    41000bf0:	0000                	.insn	2, 0x0000
    41000bf2:	0000                	.insn	2, 0x0000
    41000bf4:	5800                	.insn	2, 0x5800
    41000bf6:	4101                	.insn	2, 0x4101
    41000bf8:	0000                	.insn	2, 0x0000
    41000bfa:	0000                	.insn	2, 0x0000
    41000bfc:	6a94                	.insn	2, 0x6a94
    41000bfe:	4101                	.insn	2, 0x4101
    41000c00:	0000                	.insn	2, 0x0000
    41000c02:	0000                	.insn	2, 0x0000
    41000c04:	50c4                	.insn	2, 0x50c4
    41000c06:	4101                	.insn	2, 0x4101
    41000c08:	0000                	.insn	2, 0x0000
    41000c0a:	0000                	.insn	2, 0x0000
    41000c0c:	6320                	.insn	2, 0x6320
    41000c0e:	4101                	.insn	2, 0x4101
    41000c10:	0000                	.insn	2, 0x0000
    41000c12:	0000                	.insn	2, 0x0000
    41000c14:	5144                	.insn	2, 0x5144
    41000c16:	4101                	.insn	2, 0x4101
    41000c18:	0000                	.insn	2, 0x0000
    41000c1a:	0000                	.insn	2, 0x0000
    41000c1c:	42b0                	.insn	2, 0x42b0
    41000c1e:	4101                	.insn	2, 0x4101
    41000c20:	0000                	.insn	2, 0x0000
    41000c22:	0000                	.insn	2, 0x0000
    41000c24:	6e10                	.insn	2, 0x6e10
    41000c26:	4101                	.insn	2, 0x4101
    41000c28:	0000                	.insn	2, 0x0000
    41000c2a:	0000                	.insn	2, 0x0000
    41000c2c:	4348                	.insn	2, 0x4348
    41000c2e:	4101                	.insn	2, 0x4101
    41000c30:	0000                	.insn	2, 0x0000
    41000c32:	0000                	.insn	2, 0x0000
    41000c34:	489c                	.insn	2, 0x489c
    41000c36:	4101                	.insn	2, 0x4101
    41000c38:	0000                	.insn	2, 0x0000
	...

0000000041000c3c <dtest_descriptor_table>:
    41000c3c:	0d44                	.insn	2, 0x0d44
    41000c3e:	4100                	.insn	2, 0x4100
    41000c40:	0000                	.insn	2, 0x0000
    41000c42:	0000                	.insn	2, 0x0000
    41000c44:	0d71                	.insn	2, 0x0d71
    41000c46:	4100                	.insn	2, 0x4100
    41000c48:	0000                	.insn	2, 0x0000
    41000c4a:	0000                	.insn	2, 0x0000
    41000c4c:	41000d97          	auipc	x27,0x41000
    41000c50:	0000                	.insn	2, 0x0000
    41000c52:	0000                	.insn	2, 0x0000
    41000c54:	0dc0                	.insn	2, 0x0dc0
    41000c56:	4100                	.insn	2, 0x4100
    41000c58:	0000                	.insn	2, 0x0000
    41000c5a:	0000                	.insn	2, 0x0000
    41000c5c:	0de6                	.insn	2, 0x0de6
    41000c5e:	4100                	.insn	2, 0x4100
    41000c60:	0000                	.insn	2, 0x0000
    41000c62:	0000                	.insn	2, 0x0000
    41000c64:	0e0e                	.insn	2, 0x0e0e
    41000c66:	4100                	.insn	2, 0x4100
    41000c68:	0000                	.insn	2, 0x0000
    41000c6a:	0000                	.insn	2, 0x0000
    41000c6c:	0e38                	.insn	2, 0x0e38
    41000c6e:	4100                	.insn	2, 0x4100
    41000c70:	0000                	.insn	2, 0x0000
    41000c72:	0000                	.insn	2, 0x0000
    41000c74:	0e5f 4100 0000      	.insn	6, 0x41000e5f
    41000c7a:	0000                	.insn	2, 0x0000
    41000c7c:	0e86                	.insn	2, 0x0e86
    41000c7e:	4100                	.insn	2, 0x4100
    41000c80:	0000                	.insn	2, 0x0000
    41000c82:	0000                	.insn	2, 0x0000
    41000c84:	0ea4                	.insn	2, 0x0ea4
    41000c86:	4100                	.insn	2, 0x4100
    41000c88:	0000                	.insn	2, 0x0000
    41000c8a:	0000                	.insn	2, 0x0000
    41000c8c:	0ec6                	.insn	2, 0x0ec6
    41000c8e:	4100                	.insn	2, 0x4100
    41000c90:	0000                	.insn	2, 0x0000
    41000c92:	0000                	.insn	2, 0x0000
    41000c94:	0eec                	.insn	2, 0x0eec
    41000c96:	4100                	.insn	2, 0x4100
    41000c98:	0000                	.insn	2, 0x0000
    41000c9a:	0000                	.insn	2, 0x0000
    41000c9c:	0f0d                	.insn	2, 0x0f0d
    41000c9e:	4100                	.insn	2, 0x4100
    41000ca0:	0000                	.insn	2, 0x0000
    41000ca2:	0000                	.insn	2, 0x0000
    41000ca4:	41000f2f          	.insn	4, 0x41000f2f
    41000ca8:	0000                	.insn	2, 0x0000
    41000caa:	0000                	.insn	2, 0x0000
    41000cac:	0f54                	.insn	2, 0x0f54
    41000cae:	4100                	.insn	2, 0x4100
    41000cb0:	0000                	.insn	2, 0x0000
    41000cb2:	0000                	.insn	2, 0x0000
    41000cb4:	0f79                	.insn	2, 0x0f79
    41000cb6:	4100                	.insn	2, 0x4100
    41000cb8:	0000                	.insn	2, 0x0000
    41000cba:	0000                	.insn	2, 0x0000
    41000cbc:	0f9e                	.insn	2, 0x0f9e
    41000cbe:	4100                	.insn	2, 0x4100
    41000cc0:	0000                	.insn	2, 0x0000
    41000cc2:	0000                	.insn	2, 0x0000
    41000cc4:	0fc4                	.insn	2, 0x0fc4
    41000cc6:	4100                	.insn	2, 0x4100
    41000cc8:	0000                	.insn	2, 0x0000
    41000cca:	0000                	.insn	2, 0x0000
    41000ccc:	0fe1                	.insn	2, 0x0fe1
    41000cce:	4100                	.insn	2, 0x4100
    41000cd0:	0000                	.insn	2, 0x0000
    41000cd2:	0000                	.insn	2, 0x0000
    41000cd4:	100a                	.insn	2, 0x100a
    41000cd6:	4100                	.insn	2, 0x4100
    41000cd8:	0000                	.insn	2, 0x0000
    41000cda:	0000                	.insn	2, 0x0000
    41000cdc:	103d                	.insn	2, 0x103d
    41000cde:	4100                	.insn	2, 0x4100
    41000ce0:	0000                	.insn	2, 0x0000
    41000ce2:	0000                	.insn	2, 0x0000
    41000ce4:	1064                	.insn	2, 0x1064
    41000ce6:	4100                	.insn	2, 0x4100
    41000ce8:	0000                	.insn	2, 0x0000
    41000cea:	0000                	.insn	2, 0x0000
    41000cec:	108c                	.insn	2, 0x108c
    41000cee:	4100                	.insn	2, 0x4100
    41000cf0:	0000                	.insn	2, 0x0000
    41000cf2:	0000                	.insn	2, 0x0000
    41000cf4:	10b5                	.insn	2, 0x10b5
    41000cf6:	4100                	.insn	2, 0x4100
    41000cf8:	0000                	.insn	2, 0x0000
    41000cfa:	0000                	.insn	2, 0x0000
    41000cfc:	10dc                	.insn	2, 0x10dc
    41000cfe:	4100                	.insn	2, 0x4100
    41000d00:	0000                	.insn	2, 0x0000
    41000d02:	0000                	.insn	2, 0x0000
    41000d04:	1108                	.insn	2, 0x1108
    41000d06:	4100                	.insn	2, 0x4100
    41000d08:	0000                	.insn	2, 0x0000
    41000d0a:	0000                	.insn	2, 0x0000
    41000d0c:	1134                	.insn	2, 0x1134
    41000d0e:	4100                	.insn	2, 0x4100
    41000d10:	0000                	.insn	2, 0x0000
    41000d12:	0000                	.insn	2, 0x0000
    41000d14:	1159                	.insn	2, 0x1159
    41000d16:	4100                	.insn	2, 0x4100
    41000d18:	0000                	.insn	2, 0x0000
    41000d1a:	0000                	.insn	2, 0x0000
    41000d1c:	1189                	.insn	2, 0x1189
    41000d1e:	4100                	.insn	2, 0x4100
    41000d20:	0000                	.insn	2, 0x0000
    41000d22:	0000                	.insn	2, 0x0000
    41000d24:	11ae                	.insn	2, 0x11ae
    41000d26:	4100                	.insn	2, 0x4100
    41000d28:	0000                	.insn	2, 0x0000
    41000d2a:	0000                	.insn	2, 0x0000
    41000d2c:	11d6                	.insn	2, 0x11d6
    41000d2e:	4100                	.insn	2, 0x4100
    41000d30:	0000                	.insn	2, 0x0000
    41000d32:	0000                	.insn	2, 0x0000
    41000d34:	1206                	.insn	2, 0x1206
    41000d36:	4100                	.insn	2, 0x4100
    41000d38:	0000                	.insn	2, 0x0000
    41000d3a:	0000                	.insn	2, 0x0000
    41000d3c:	1232                	.insn	2, 0x1232
    41000d3e:	4100                	.insn	2, 0x4100
    41000d40:	0000                	.insn	2, 0x0000
	...

0000000041000d44 <dtest_name_0>:
    41000d44:	5f444953          	.insn	4, 0x5f444953
    41000d48:	4250                	.insn	2, 0x4250
    41000d4a:	4d56                	.insn	2, 0x4d56
    41000d4c:	30305f53          	.insn	4, 0x30305f53
    41000d50:	5f31                	.insn	2, 0x5f31
    41000d52:	7470                	.insn	2, 0x7470
    41000d54:	6f6e5f77          	.insn	4, 0x6f6e5f77
    41000d58:	665f 7561 746c      	.insn	6, 0x746c7561665f
    41000d5e:	6c615f73          	csrrwi	x30,0x6c6,2
    41000d62:	5f6c                	.insn	2, 0x5f6c
    41000d64:	6361                	.insn	2, 0x6361
    41000d66:	73736563          	bltu	x6,x23,41001490 <scheduler__test_cleanup_ptr+0x19c>
    41000d6a:	745f 7079 7365      	.insn	6, 0x73657079745f
	...

0000000041000d71 <dtest_name_1>:
    41000d71:	5f444953          	.insn	4, 0x5f444953
    41000d75:	4250                	.insn	2, 0x4250
    41000d77:	4d56                	.insn	2, 0x4d56
    41000d79:	30305f53          	.insn	4, 0x30305f53
    41000d7d:	74705f33          	.insn	4, 0x74705f33
    41000d81:	6c615f77          	.insn	4, 0x6c615f77
    41000d85:	5f6c                	.insn	2, 0x5f6c
    41000d87:	7270                	.insn	2, 0x7270
    41000d89:	7669                	.insn	2, 0x7669
    41000d8b:	6c69                	.insn	2, 0x6c69
    41000d8d:	6765                	.insn	2, 0x6765
    41000d8f:	5f65                	.insn	2, 0x5f65
    41000d91:	6f6d                	.insn	2, 0x6f6d
    41000d93:	6564                	.insn	2, 0x6564
    41000d95:	          	.insn	4, 0x49530073

0000000041000d97 <dtest_name_2>:
    41000d97:	5f444953          	.insn	4, 0x5f444953
    41000d9b:	4250                	.insn	2, 0x4250
    41000d9d:	4d56                	.insn	2, 0x4d56
    41000d9f:	30305f53          	.insn	4, 0x30305f53
    41000da3:	5f36                	.insn	2, 0x5f36
    41000da5:	7470                	.insn	2, 0x7470
    41000da7:	61705f77          	.insn	4, 0x61705f77
    41000dab:	625f6567          	.insn	4, 0x625f6567
    41000daf:	646e756f          	jal	x10,410e83f5 <__section__code_212+0x3f5>
    41000db3:	7261                	.insn	2, 0x7261
    41000db5:	5f79                	.insn	2, 0x5f79
    41000db7:	736f7263          	bgeu	x30,x22,410014db <scheduler__test_cleanup_ptr+0x1e7>
    41000dbb:	676e6973          	csrrsi	x18,0x676,28
	...

0000000041000dc0 <dtest_name_3>:
    41000dc0:	5f444953          	.insn	4, 0x5f444953
    41000dc4:	4250                	.insn	2, 0x4250
    41000dc6:	4d56                	.insn	2, 0x4d56
    41000dc8:	30305f53          	.insn	4, 0x30305f53
    41000dcc:	5f38                	.insn	2, 0x5f38
    41000dce:	6176                	.insn	2, 0x6176
    41000dd0:	735f 6769 5f6e      	.insn	6, 0x5f6e6769735f
    41000dd6:	7865                	.insn	2, 0x7865
    41000dd8:	6574                	.insn	2, 0x6574
    41000dda:	736e                	.insn	2, 0x736e
    41000ddc:	6f69                	.insn	2, 0x6f69
    41000dde:	5f6e                	.insn	2, 0x5f6e
    41000de0:	6166                	.insn	2, 0x6166
    41000de2:	6c75                	.insn	2, 0x6c75
    41000de4:	0074                	.insn	2, 0x0074

0000000041000de6 <dtest_name_4>:
    41000de6:	5f444953          	.insn	4, 0x5f444953
    41000dea:	4250                	.insn	2, 0x4250
    41000dec:	4d56                	.insn	2, 0x4d56
    41000dee:	30305f53          	.insn	4, 0x30305f53
    41000df2:	5f39                	.insn	2, 0x5f39
    41000df4:	65707573          	csrrci	x10,hviprio2h,0
    41000df8:	7072                	.insn	2, 0x7072
    41000dfa:	6761                	.insn	2, 0x6761
    41000dfc:	5f65                	.insn	2, 0x5f65
    41000dfe:	6c61                	.insn	2, 0x6c61
    41000e00:	6769                	.insn	2, 0x6769
    41000e02:	6d6e                	.insn	2, 0x6d6e
    41000e04:	6e65                	.insn	2, 0x6e65
    41000e06:	5f74                	.insn	2, 0x5f74
    41000e08:	6166                	.insn	2, 0x6166
    41000e0a:	6c75                	.insn	2, 0x6c75
    41000e0c:	0074                	.insn	2, 0x0074

0000000041000e0e <dtest_name_5>:
    41000e0e:	5f444953          	.insn	4, 0x5f444953
    41000e12:	4250                	.insn	2, 0x4250
    41000e14:	4d56                	.insn	2, 0x4d56
    41000e16:	31305f53          	.insn	4, 0x31305f53
    41000e1a:	5f31                	.insn	2, 0x5f31
    41000e1c:	7470                	.insn	2, 0x7470
    41000e1e:	61665f77          	.insn	4, 0x61665f77
    41000e22:	6c75                	.insn	2, 0x6c75
    41000e24:	5f74                	.insn	2, 0x5f74
    41000e26:	6f62                	.insn	2, 0x6f62
    41000e28:	6e75                	.insn	2, 0x6e75
    41000e2a:	6164                	.insn	2, 0x6164
    41000e2c:	7972                	.insn	2, 0x7972
    41000e2e:	635f 6f72 7373      	.insn	6, 0x73736f72635f
    41000e34:	6e69                	.insn	2, 0x6e69
    41000e36:	          	jr	1173(x6)

0000000041000e38 <dtest_name_6>:
    41000e38:	5f444953          	.insn	4, 0x5f444953
    41000e3c:	4250                	.insn	2, 0x4250
    41000e3e:	4d56                	.insn	2, 0x4d56
    41000e40:	31305f53          	.insn	4, 0x31305f53
    41000e44:	5f32                	.insn	2, 0x5f32
    41000e46:	7470                	.insn	2, 0x7470
    41000e48:	61665f77          	.insn	4, 0x61665f77
    41000e4c:	6c75                	.insn	2, 0x6c75
    41000e4e:	5f74                	.insn	2, 0x5f74
    41000e50:	7270                	.insn	2, 0x7270
    41000e52:	6f69                	.insn	2, 0x6f69
    41000e54:	6972                	.insn	2, 0x6972
    41000e56:	6974                	.insn	2, 0x6974
    41000e58:	617a                	.insn	2, 0x617a
    41000e5a:	6974                	.insn	2, 0x6974
    41000e5c:	          	jal	x28,4100738c <__section__runtime_7+0x38c>

0000000041000e5f <dtest_name_7>:
    41000e5f:	5f444953          	.insn	4, 0x5f444953
    41000e63:	4250                	.insn	2, 0x4250
    41000e65:	4d56                	.insn	2, 0x4d56
    41000e67:	31305f53          	.insn	4, 0x31305f53
    41000e6b:	74705f33          	.insn	4, 0x74705f33
    41000e6f:	65705f77          	.insn	4, 0x65705f77
    41000e73:	6d72                	.insn	2, 0x6d72
    41000e75:	7369                	.insn	2, 0x7369
    41000e77:	6e6f6973          	csrrsi	x18,0x6e6,30
    41000e7b:	655f 636e 646f      	.insn	6, 0x646f636e655f
    41000e81:	6e69                	.insn	2, 0x6e69
    41000e83:	          	.insn	4, 0x53007367

0000000041000e86 <dtest_name_8>:
    41000e86:	5f444953          	.insn	4, 0x5f444953
    41000e8a:	4250                	.insn	2, 0x4250
    41000e8c:	4d56                	.insn	2, 0x4d56
    41000e8e:	31305f53          	.insn	4, 0x31305f53
    41000e92:	5f34                	.insn	2, 0x5f34
    41000e94:	736d                	.insn	2, 0x736d
    41000e96:	6174                	.insn	2, 0x6174
    41000e98:	7574                	.insn	2, 0x7574
    41000e9a:	75735f73          	csrrwi	x30,0x757,6
    41000e9e:	5f6d                	.insn	2, 0x5f6d
    41000ea0:	786d                	.insn	2, 0x786d
    41000ea2:	0072                	.insn	2, 0x0072

0000000041000ea4 <dtest_name_9>:
    41000ea4:	5f444953          	.insn	4, 0x5f444953
    41000ea8:	4250                	.insn	2, 0x4250
    41000eaa:	4d56                	.insn	2, 0x4d56
    41000eac:	31305f53          	.insn	4, 0x31305f53
    41000eb0:	5f35                	.insn	2, 0x5f35
    41000eb2:	626f6c67          	.insn	4, 0x626f6c67
    41000eb6:	6c61                	.insn	2, 0x6c61
    41000eb8:	625f 7469 685f      	.insn	6, 0x685f7469625f
    41000ebe:	756f6e6f          	jal	x28,410f7614 <__section__code_227+0x614>
    41000ec2:	6572                	.insn	2, 0x6572
    41000ec4:	0064                	.insn	2, 0x0064

0000000041000ec6 <dtest_name_10>:
    41000ec6:	5f444953          	.insn	4, 0x5f444953
    41000eca:	4250                	.insn	2, 0x4250
    41000ecc:	4d56                	.insn	2, 0x4d56
    41000ece:	31305f53          	.insn	4, 0x31305f53
    41000ed2:	5f36                	.insn	2, 0x5f36
    41000ed4:	6f6e                	.insn	2, 0x6f6e
    41000ed6:	5f6e                	.insn	2, 0x5f6e
    41000ed8:	626f6c67          	.insn	4, 0x626f6c67
    41000edc:	6c61                	.insn	2, 0x6c61
    41000ede:	625f 7469 685f      	.insn	6, 0x685f7469625f
    41000ee4:	756f6e6f          	jal	x28,410f763a <__section__code_227+0x63a>
    41000ee8:	6572                	.insn	2, 0x6572
    41000eea:	0064                	.insn	2, 0x0064

0000000041000eec <dtest_name_11>:
    41000eec:	5f444953          	.insn	4, 0x5f444953
    41000ef0:	4250                	.insn	2, 0x4250
    41000ef2:	4d56                	.insn	2, 0x4d56
    41000ef4:	31305f53          	.insn	4, 0x31305f53
    41000ef8:	6c675f37          	lui	x30,0x6c675
    41000efc:	6c61626f          	jal	x4,410175c2 <__section__code_3+0x5c2>
    41000f00:	615f 5f74 6f6e      	.insn	6, 0x6f6e5f74615f
    41000f06:	5f6e                	.insn	2, 0x5f6e
    41000f08:	656c                	.insn	2, 0x656c
    41000f0a:	6661                	.insn	2, 0x6661
	...

0000000041000f0d <dtest_name_12>:
    41000f0d:	5f444953          	.insn	4, 0x5f444953
    41000f11:	4250                	.insn	2, 0x4250
    41000f13:	4d56                	.insn	2, 0x4d56
    41000f15:	31305f53          	.insn	4, 0x31305f53
    41000f19:	5f38                	.insn	2, 0x5f38
    41000f1b:	7372                	.insn	2, 0x7372
    41000f1d:	69665f77          	.insn	4, 0x69665f77
    41000f21:	6c65                	.insn	2, 0x6c65
    41000f23:	7364                	.insn	2, 0x7364
    41000f25:	775f 6972 6174      	.insn	6, 0x61746972775f
    41000f2b:	6c62                	.insn	2, 0x6c62
    41000f2d:	0065                	.insn	2, 0x0065

0000000041000f2f <dtest_name_13>:
    41000f2f:	5f444953          	.insn	4, 0x5f444953
    41000f33:	4250                	.insn	2, 0x4250
    41000f35:	4d56                	.insn	2, 0x4d56
    41000f37:	32305f53          	.insn	4, 0x32305f53
    41000f3b:	5f31                	.insn	2, 0x5f31
    41000f3d:	70746173          	csrrsi	x2,0x707,8
    41000f41:	765f 6c61 6469      	.insn	6, 0x64696c61765f
    41000f47:	745f 5f6f 6572      	.insn	6, 0x65725f6f745f
    41000f4d:	76726573          	csrrsi	x10,0x767,4
    41000f51:	6465                	.insn	2, 0x6465
	...

0000000041000f54 <dtest_name_14>:
    41000f54:	5f444953          	.insn	4, 0x5f444953
    41000f58:	4250                	.insn	2, 0x4250
    41000f5a:	4d56                	.insn	2, 0x4d56
    41000f5c:	32305f53          	.insn	4, 0x32305f53
    41000f60:	5f32                	.insn	2, 0x5f32
    41000f62:	70746173          	csrrsi	x2,0x707,8
    41000f66:	635f 7273 615f      	.insn	6, 0x615f7273635f
    41000f6c:	73656363          	bltu	x10,x22,41001692 <scheduler__test_cleanup_ptr+0x39e>
    41000f70:	69626973          	csrrsi	x18,0x696,4
    41000f74:	696c                	.insn	2, 0x696c
    41000f76:	7974                	.insn	2, 0x7974
	...

0000000041000f79 <dtest_name_15>:
    41000f79:	5f444953          	.insn	4, 0x5f444953
    41000f7d:	4250                	.insn	2, 0x4250
    41000f7f:	4d56                	.insn	2, 0x4d56
    41000f81:	32305f53          	.insn	4, 0x32305f53
    41000f85:	61735f33          	ror	x30,x6,x23
    41000f89:	7074                	.insn	2, 0x7074
    41000f8b:	615f 6973 6c64      	.insn	6, 0x6c646973615f
    41000f91:	6e65                	.insn	2, 0x6e65
    41000f93:	645f 7369 6f63      	.insn	6, 0x6f637369645f
    41000f99:	6576                	.insn	2, 0x6576
    41000f9b:	7972                	.insn	2, 0x7972
	...

0000000041000f9e <dtest_name_16>:
    41000f9e:	5f444953          	.insn	4, 0x5f444953
    41000fa2:	4250                	.insn	2, 0x4250
    41000fa4:	4d56                	.insn	2, 0x4d56
    41000fa6:	32305f53          	.insn	4, 0x32305f53
    41000faa:	5f35                	.insn	2, 0x5f35
    41000fac:	736d                	.insn	2, 0x736d
    41000fae:	6174                	.insn	2, 0x6174
    41000fb0:	7574                	.insn	2, 0x7574
    41000fb2:	76745f73          	csrrwi	x30,0x767,8
    41000fb6:	5f6d                	.insn	2, 0x5f6d
    41000fb8:	70746173          	csrrsi	x2,0x707,8
    41000fbc:	615f 6363 7365      	.insn	6, 0x73656363615f
    41000fc2:	          	.insn	4, 0x49530073

0000000041000fc4 <dtest_name_17>:
    41000fc4:	5f444953          	.insn	4, 0x5f444953
    41000fc8:	4250                	.insn	2, 0x4250
    41000fca:	4d56                	.insn	2, 0x4d56
    41000fcc:	32305f53          	.insn	4, 0x32305f53
    41000fd0:	5f36                	.insn	2, 0x5f36
    41000fd2:	6c74                	.insn	2, 0x6c74
    41000fd4:	5f62                	.insn	2, 0x5f62
    41000fd6:	7361                	.insn	2, 0x7361
    41000fd8:	6469                	.insn	2, 0x6469
    41000fda:	6d5f 7461 6863      	.insn	6, 0x686374616d5f
	...

0000000041000fe1 <dtest_name_18>:
    41000fe1:	5f444953          	.insn	4, 0x5f444953
    41000fe5:	4250                	.insn	2, 0x4250
    41000fe7:	4d56                	.insn	2, 0x4d56
    41000fe9:	32305f53          	.insn	4, 0x32305f53
    41000fed:	5f38                	.insn	2, 0x5f38
    41000fef:	6e656673          	csrrsi	x12,0x6e6,10
    41000ff3:	765f6563          	bltu	x30,x5,4100175d <scheduler__test_cleanup_ptr+0x469>
    41000ff7:	616d                	.insn	2, 0x616d
    41000ff9:	6f5f 6370 646f      	.insn	6, 0x646f63706f5f
    41000fff:	5f65                	.insn	2, 0x5f65
    41001001:	65766f63          	bltu	x12,x23,4100165f <scheduler__test_cleanup_ptr+0x36b>
    41001005:	6172                	.insn	2, 0x6172
    41001007:	          	.insn	4, 0x53006567

000000004100100a <dtest_name_19>:
    4100100a:	5f444953          	.insn	4, 0x5f444953
    4100100e:	4250                	.insn	2, 0x4250
    41001010:	4d56                	.insn	2, 0x4d56
    41001012:	32305f53          	.insn	4, 0x32305f53
    41001016:	5f39                	.insn	2, 0x5f39
    41001018:	6564726f          	jal	x4,4104866e <__section__code_52+0x66e>
    4100101c:	6972                	.insn	2, 0x6972
    4100101e:	676e                	.insn	2, 0x676e
    41001020:	735f 7461 5f70      	.insn	6, 0x5f707461735f
    41001026:	736d                	.insn	2, 0x736d
    41001028:	6174                	.insn	2, 0x6174
    4100102a:	7574                	.insn	2, 0x7574
    4100102c:	69775f73          	csrrwi	x30,0x697,14
    41001030:	6874                	.insn	2, 0x6874
    41001032:	5f74756f          	jal	x10,41048e28 <__section__code_52+0xe28>
    41001036:	6e656673          	csrrsi	x12,0x6e6,10
    4100103a:	          	bltu	x0,x16,41001564 <scheduler__test_cleanup_ptr+0x270>

000000004100103d <dtest_name_20>:
    4100103d:	5f444953          	.insn	4, 0x5f444953
    41001041:	4250                	.insn	2, 0x4250
    41001043:	4d56                	.insn	2, 0x4d56
    41001045:	33305f53          	.insn	4, 0x33305f53
    41001049:	5f30                	.insn	2, 0x5f30
    4100104b:	6e656673          	csrrsi	x12,0x6e6,10
    4100104f:	765f6563          	bltu	x30,x5,410017b9 <scheduler__test_cleanup_ptr+0x4c5>
    41001053:	616d                	.insn	2, 0x616d
    41001055:	6f5f 6472 7265      	.insn	6, 0x726564726f5f
    4100105b:	6e69                	.insn	2, 0x6e69
    4100105d:	79735f67          	.insn	4, 0x79735f67
    41001061:	636e                	.insn	2, 0x636e
	...

0000000041001064 <dtest_name_21>:
    41001064:	5f444953          	.insn	4, 0x5f444953
    41001068:	4250                	.insn	2, 0x4250
    4100106a:	4d56                	.insn	2, 0x4d56
    4100106c:	33305f53          	.insn	4, 0x33305f53
    41001070:	5f31                	.insn	2, 0x5f31
    41001072:	6e656673          	csrrsi	x12,0x6e6,10
    41001076:	765f6563          	bltu	x30,x5,410017e0 <scheduler__test_cleanup_ptr+0x4ec>
    4100107a:	616d                	.insn	2, 0x616d
    4100107c:	695f 766e 6c61      	.insn	6, 0x6c61766e695f
    41001082:	6469                	.insn	2, 0x6469
    41001084:	7461                	.insn	2, 0x7461
    41001086:	5f65                	.insn	2, 0x5f65
    41001088:	6c61                	.insn	2, 0x6c61
    4100108a:	006c                	.insn	2, 0x006c

000000004100108c <dtest_name_22>:
    4100108c:	5f444953          	.insn	4, 0x5f444953
    41001090:	4250                	.insn	2, 0x4250
    41001092:	4d56                	.insn	2, 0x4d56
    41001094:	33305f53          	.insn	4, 0x33305f53
    41001098:	5f32                	.insn	2, 0x5f32
    4100109a:	6e656673          	csrrsi	x12,0x6e6,10
    4100109e:	765f6563          	bltu	x30,x5,41001808 <scheduler__test_cleanup_ptr+0x514>
    410010a2:	616d                	.insn	2, 0x616d
    410010a4:	695f 766e 6c61      	.insn	6, 0x6c61766e695f
    410010aa:	6469                	.insn	2, 0x6469
    410010ac:	7461                	.insn	2, 0x7461
    410010ae:	5f65                	.insn	2, 0x5f65
    410010b0:	7361                	.insn	2, 0x7361
    410010b2:	6469                	.insn	2, 0x6469
	...

00000000410010b5 <dtest_name_23>:
    410010b5:	5f444953          	.insn	4, 0x5f444953
    410010b9:	4250                	.insn	2, 0x4250
    410010bb:	4d56                	.insn	2, 0x4d56
    410010bd:	33305f53          	.insn	4, 0x33305f53
    410010c1:	66735f33          	.insn	4, 0x66735f33
    410010c5:	6e65                	.insn	2, 0x6e65
    410010c7:	765f6563          	bltu	x30,x5,41001831 <scheduler__test_cleanup_ptr+0x53d>
    410010cb:	616d                	.insn	2, 0x616d
    410010cd:	695f 766e 6c61      	.insn	6, 0x6c61766e695f
    410010d3:	6469                	.insn	2, 0x6469
    410010d5:	7461                	.insn	2, 0x7461
    410010d7:	5f65                	.insn	2, 0x5f65
    410010d9:	6176                	.insn	2, 0x6176
	...

00000000410010dc <dtest_name_24>:
    410010dc:	5f444953          	.insn	4, 0x5f444953
    410010e0:	4250                	.insn	2, 0x4250
    410010e2:	4d56                	.insn	2, 0x4d56
    410010e4:	33305f53          	.insn	4, 0x33305f53
    410010e8:	5f34                	.insn	2, 0x5f34
    410010ea:	6e656673          	csrrsi	x12,0x6e6,10
    410010ee:	765f6563          	bltu	x30,x5,41001858 <scheduler__test_cleanup_ptr+0x564>
    410010f2:	616d                	.insn	2, 0x616d
    410010f4:	695f 766e 6c61      	.insn	6, 0x6c61766e695f
    410010fa:	6469                	.insn	2, 0x6469
    410010fc:	7461                	.insn	2, 0x7461
    410010fe:	5f65                	.insn	2, 0x5f65
    41001100:	6176                	.insn	2, 0x6176
    41001102:	615f 6973 0064      	.insn	6, 0x00646973615f

0000000041001108 <dtest_name_25>:
    41001108:	5f444953          	.insn	4, 0x5f444953
    4100110c:	4250                	.insn	2, 0x4250
    4100110e:	4d56                	.insn	2, 0x4d56
    41001110:	33305f53          	.insn	4, 0x33305f53
    41001114:	5f35                	.insn	2, 0x5f35
    41001116:	6e656673          	csrrsi	x12,0x6e6,10
    4100111a:	765f6563          	bltu	x30,x5,41001884 <scheduler__test_cleanup_ptr+0x590>
    4100111e:	616d                	.insn	2, 0x616d
    41001120:	765f 7261 6f69      	.insn	6, 0x6f697261765f
    41001126:	7375                	.insn	2, 0x7375
    41001128:	705f 6761 5f65      	.insn	6, 0x5f656761705f
    4100112e:	657a6973          	csrrsi	x18,hviprio2h,20
    41001132:	          	.insn	4, 0x49530073

0000000041001134 <dtest_name_26>:
    41001134:	5f444953          	.insn	4, 0x5f444953
    41001138:	4250                	.insn	2, 0x4250
    4100113a:	4d56                	.insn	2, 0x4d56
    4100113c:	33305f53          	.insn	4, 0x33305f53
    41001140:	66735f37          	lui	x30,0x66735
    41001144:	6e65                	.insn	2, 0x6e65
    41001146:	765f6563          	bltu	x30,x5,410018b0 <scheduler__test_cleanup_ptr+0x5bc>
    4100114a:	616d                	.insn	2, 0x616d
    4100114c:	745f 6d76 695f      	.insn	6, 0x695f6d76745f
    41001152:	6c6c                	.insn	2, 0x6c6c
    41001154:	6765                	.insn	2, 0x6765
    41001156:	6c61                	.insn	2, 0x6c61
	...

0000000041001159 <dtest_name_27>:
    41001159:	5f444953          	.insn	4, 0x5f444953
    4100115d:	4250                	.insn	2, 0x4250
    4100115f:	4d56                	.insn	2, 0x4d56
    41001161:	33305f53          	.insn	4, 0x33305f53
    41001165:	5f39                	.insn	2, 0x5f39
    41001167:	6f6e                	.insn	2, 0x6f6e
    41001169:	5f6e                	.insn	2, 0x5f6e
    4100116b:	656c                	.insn	2, 0x656c
    4100116d:	6661                	.insn	2, 0x6661
    4100116f:	6e5f 746f 695f      	.insn	6, 0x695f746f6e5f
    41001175:	766e                	.insn	2, 0x766e
    41001177:	6c61                	.insn	2, 0x6c61
    41001179:	6469                	.insn	2, 0x6469
    4100117b:	7461                	.insn	2, 0x7461
    4100117d:	6465                	.insn	2, 0x6465
    4100117f:	765f 5f61 6162      	.insn	6, 0x61625f61765f
    41001185:	00646573          	csrrsi	x10,0x6,8

0000000041001189 <dtest_name_28>:
    41001189:	5f444953          	.insn	4, 0x5f444953
    4100118d:	4250                	.insn	2, 0x4250
    4100118f:	4d56                	.insn	2, 0x4d56
    41001191:	34305f53          	.insn	4, 0x34305f53
    41001195:	5f30                	.insn	2, 0x5f30
    41001197:	746e6f63          	bltu	x28,x6,410018f5 <scheduler__test_cleanup_ptr+0x601>
    4100119b:	7865                	.insn	2, 0x7865
    4100119d:	5f74                	.insn	2, 0x5f74
    4100119f:	6174                	.insn	2, 0x6174
    410011a1:	6c62                	.insn	2, 0x6c62
    410011a3:	5f65                	.insn	2, 0x5f65
    410011a5:	7265766f          	jal	x12,410588cb <__section__code_68+0x8cb>
    410011a9:	6c66                	.insn	2, 0x6c66
    410011ab:	          	jal	x14,410086db <__section__runtime_8+0x6db>

00000000410011ae <dtest_name_29>:
    410011ae:	5f444953          	.insn	4, 0x5f444953
    410011b2:	4250                	.insn	2, 0x4250
    410011b4:	4d56                	.insn	2, 0x4d56
    410011b6:	34305f53          	.insn	4, 0x34305f53
    410011ba:	5f31                	.insn	2, 0x5f31
    410011bc:	6170                	.insn	2, 0x6170
    410011be:	7472                	.insn	2, 0x7472
    410011c0:	6169                	.insn	2, 0x6169
    410011c2:	5f6c                	.insn	2, 0x5f6c
    410011c4:	6170                	.insn	2, 0x6170
    410011c6:	695f6567          	.insn	4, 0x695f6567
    410011ca:	766e                	.insn	2, 0x766e
    410011cc:	6c61                	.insn	2, 0x6c61
    410011ce:	6469                	.insn	2, 0x6469
    410011d0:	7461                	.insn	2, 0x7461
    410011d2:	6f69                	.insn	2, 0x6f69
    410011d4:	006e                	.insn	2, 0x006e

00000000410011d6 <dtest_name_30>:
    410011d6:	5f444953          	.insn	4, 0x5f444953
    410011da:	4250                	.insn	2, 0x4250
    410011dc:	4d56                	.insn	2, 0x4d56
    410011de:	34305f53          	.insn	4, 0x34305f53
    410011e2:	5f32                	.insn	2, 0x5f32
    410011e4:	6f6e6163          	bltu	x28,x22,410018c6 <scheduler__test_cleanup_ptr+0x5d2>
    410011e8:	696e                	.insn	2, 0x696e
    410011ea:	5f6c6163          	bltu	x24,x22,410017cc <scheduler__test_cleanup_ptr+0x4d8>
    410011ee:	6f62                	.insn	2, 0x6f62
    410011f0:	6e75                	.insn	2, 0x6e75
    410011f2:	6164                	.insn	2, 0x6164
    410011f4:	7972                	.insn	2, 0x7972
    410011f6:	635f 6f72 7373      	.insn	6, 0x73736f72635f
    410011fc:	6e69                	.insn	2, 0x6e69
    410011fe:	61665f67          	.insn	4, 0x61665f67
    41001202:	6c75                	.insn	2, 0x6c75
    41001204:	0074                	.insn	2, 0x0074

0000000041001206 <dtest_name_31>:
    41001206:	5f444953          	.insn	4, 0x5f444953
    4100120a:	4250                	.insn	2, 0x4250
    4100120c:	4d56                	.insn	2, 0x4d56
    4100120e:	34305f53          	.insn	4, 0x34305f53
    41001212:	65665f33          	.insn	4, 0x65665f33
    41001216:	6374                	.insn	2, 0x6374
    41001218:	5f68                	.insn	2, 0x5f68
    4100121a:	646e6977          	.insn	4, 0x646e6977
    4100121e:	735f776f          	jal	x14,410f9152 <__section__code_229+0x152>
    41001222:	6970                	.insn	2, 0x6970
    41001224:	6c6c                	.insn	2, 0x6c6c
    41001226:	705f 6761 5f65      	.insn	6, 0x5f656761705f
    4100122c:	736f7263          	bgeu	x30,x22,41001950 <scheduler__test_cleanup_ptr+0x65c>
    41001230:	          	.insn	4, 0x49530073

0000000041001232 <dtest_name_32>:
    41001232:	5f444953          	.insn	4, 0x5f444953
    41001236:	4250                	.insn	2, 0x4250
    41001238:	4d56                	.insn	2, 0x4d56
    4100123a:	34305f53          	.insn	4, 0x34305f53
    4100123e:	5f34                	.insn	2, 0x5f34
    41001240:	6566                	.insn	2, 0x6566
    41001242:	695f 6c64 5f65      	.insn	6, 0x5f656c64695f
    41001248:	69726573          	csrrsi	x10,0x697,4
    4100124c:	6c61                	.insn	2, 0x6c61
    4100124e:	7a69                	.insn	2, 0x7a69
    41001250:	7461                	.insn	2, 0x7461
    41001252:	6f69                	.insn	2, 0x6f69
    41001254:	5f6e                	.insn	2, 0x5f6e
    41001256:	6170                	.insn	2, 0x6170
    41001258:	635f6567          	.insn	4, 0x635f6567
    4100125c:	6f72                	.insn	2, 0x6f72
    4100125e:	00007373          	csrrci	x6,ustatus,0
	...

0000000041001264 <dtest_index_map>:
    41001264:	ffff                	.insn	2, 0xffff
    41001266:	ffff                	.insn	2, 0xffff
    41001268:	0002                	.insn	2, 0x0002
    4100126a:	0000                	.insn	2, 0x0000
    4100126c:	0011                	.insn	2, 0x0011
    4100126e:	0000                	.insn	2, 0x0000
    41001270:	000a                	.insn	2, 0x000a
    41001272:	0000                	.insn	2, 0x0000
    41001274:	001e                	.insn	2, 0x001e
    41001276:	0000                	.insn	2, 0x0000
    41001278:	0000001b          	sext.w	x0,x0
    4100127c:	0016                	.insn	2, 0x0016
    4100127e:	0000                	.insn	2, 0x0000
    41001280:	00000007          	vle8.v	v0,(x0),v0.t
    41001284:	0010                	.insn	2, 0x0010
    41001286:	0000                	.insn	2, 0x0000
    41001288:	0005                	.insn	2, 0x0005
    4100128a:	0000                	.insn	2, 0x0000
    4100128c:	0001                	.insn	2, 0x0001
    4100128e:	0000                	.insn	2, 0x0000
    41001290:	0009                	.insn	2, 0x0009
    41001292:	0000                	.insn	2, 0x0000
    41001294:	0015                	.insn	2, 0x0015
    41001296:	0000                	.insn	2, 0x0000
    41001298:	0012                	.insn	2, 0x0012
    4100129a:	0000                	.insn	2, 0x0000
    4100129c:	0000000b          	.insn	4, 0x000b
    410012a0:	001f 0000 001a      	.insn	6, 0x001a0000001f
    410012a6:	0000                	.insn	2, 0x0000
    410012a8:	00000013          	nop
    410012ac:	000d                	.insn	2, 0x000d
    410012ae:	0000                	.insn	2, 0x0000
    410012b0:	00000017          	auipc	x0,0x0
    410012b4:	0000                	.insn	2, 0x0000
    410012b6:	0000                	.insn	2, 0x0000
    410012b8:	0019                	.insn	2, 0x0019
    410012ba:	0000                	.insn	2, 0x0000
    410012bc:	001d                	.insn	2, 0x001d
    410012be:	0000                	.insn	2, 0x0000
    410012c0:	0006                	.insn	2, 0x0006
    410012c2:	0000                	.insn	2, 0x0000
    410012c4:	000c                	.insn	2, 0x000c
    410012c6:	0000                	.insn	2, 0x0000
    410012c8:	0014                	.insn	2, 0x0014
    410012ca:	0000                	.insn	2, 0x0000
    410012cc:	001c                	.insn	2, 0x001c
    410012ce:	0000                	.insn	2, 0x0000
    410012d0:	000e                	.insn	2, 0x000e
    410012d2:	0000                	.insn	2, 0x0000
    410012d4:	0018                	.insn	2, 0x0018
    410012d6:	0000                	.insn	2, 0x0000
    410012d8:	0000000f          	fence	unknown,unknown
    410012dc:	00000003          	lb	x0,0(x0) # 0 <ALL_4KB_PAGES>
    410012e0:	0020                	.insn	2, 0x0020
    410012e2:	0000                	.insn	2, 0x0000
    410012e4:	0004                	.insn	2, 0x0004
    410012e6:	0000                	.insn	2, 0x0000
    410012e8:	0008                	.insn	2, 0x0008
	...

00000000410012ec <scheduler__test_setup_ptr>:
    410012ec:	4160                	.insn	2, 0x4160
    410012ee:	4101                	.insn	2, 0x4101
    410012f0:	0000                	.insn	2, 0x0000
	...

00000000410012f4 <scheduler__test_cleanup_ptr>:
    410012f4:	6e94                	.insn	2, 0x6e94
    410012f6:	4101                	.insn	2, 0x4101
    410012f8:	0000                	.insn	2, 0x0000
	...

Disassembly of section .runtime_s:

0000000041010000 <trap_handler_s__invalid_interrupt>:
    41010000:	1740006f          	j	41010174 <trap_handler_s__test_failed>

0000000041010004 <trap_handler_s__clear_all_interrupts>:
    41010004:	14401073          	csrw	sip,x0
    41010008:	10200073          	sret

000000004101000c <trap_handler_s___CLEAR_SSI>:
    4101000c:	00200293          	li	x5,2
    41010010:	1442b073          	csrc	sip,x5
    41010014:	10200073          	sret

0000000041010018 <trap_handler_s___CLEAR_MSI>:
    41010018:	00800293          	li	x5,8
    4101001c:	1442b073          	csrc	sip,x5
    41010020:	10200073          	sret

0000000041010024 <trap_handler_s___CLEAR_STI>:
    41010024:	02000293          	li	x5,32
    41010028:	1442b073          	csrc	sip,x5
    4101002c:	10200073          	sret

0000000041010030 <trap_handler_s___CLEAR_MTI>:
    41010030:	08000293          	li	x5,128
    41010034:	1442b073          	csrc	sip,x5
    41010038:	10200073          	sret

000000004101003c <trap_handler_s___CLEAR_SEI>:
    4101003c:	20000293          	li	x5,512
    41010040:	1442b073          	csrc	sip,x5
    41010044:	10200073          	sret

0000000041010048 <trap_handler_s___CLEAR_MEI>:
    41010048:	000012b7          	lui	x5,0x1
    4101004c:	8002829b          	addiw	x5,x5,-2048 # 800 <XLEN+0x7c0>
    41010050:	1442b073          	csrc	sip,x5
    41010054:	10200073          	sret

0000000041010058 <trap_handler_s___CLEAR_COI>:
    41010058:	000022b7          	lui	x5,0x2
    4101005c:	1442b073          	csrc	sip,x5
    41010060:	10200073          	sret

0000000041010064 <trap_handler_s__clear_highest_priority_interrupt>:
    41010064:	144022f3          	csrr	x5,sip
    41010068:	40500333          	neg	x6,x5
    4101006c:	0062f2b3          	and	x5,x5,x6
    41010070:	1442b073          	csrc	sip,x5
    41010074:	10200073          	sret

0000000041010078 <trap_handler_s__trap_entry>:
    41010078:	10c0006f          	j	41010184 <trap_handler_s__trap_handler>

000000004101007c <trap_handler_s__interrupt_vector_table>:
    4101007c:	f91ff06f          	j	4101000c <trap_handler_s___CLEAR_SSI>
    41010080:	f81ff06f          	j	41010000 <trap_handler_s__invalid_interrupt>
    41010084:	f95ff06f          	j	41010018 <trap_handler_s___CLEAR_MSI>
    41010088:	f79ff06f          	j	41010000 <trap_handler_s__invalid_interrupt>
    4101008c:	f99ff06f          	j	41010024 <trap_handler_s___CLEAR_STI>
    41010090:	f71ff06f          	j	41010000 <trap_handler_s__invalid_interrupt>
    41010094:	f9dff06f          	j	41010030 <trap_handler_s___CLEAR_MTI>
    41010098:	f69ff06f          	j	41010000 <trap_handler_s__invalid_interrupt>
    4101009c:	fa1ff06f          	j	4101003c <trap_handler_s___CLEAR_SEI>
    410100a0:	f61ff06f          	j	41010000 <trap_handler_s__invalid_interrupt>
    410100a4:	fa5ff06f          	j	41010048 <trap_handler_s___CLEAR_MEI>
    410100a8:	f59ff06f          	j	41010000 <trap_handler_s__invalid_interrupt>
    410100ac:	fadff06f          	j	41010058 <trap_handler_s___CLEAR_COI>
    410100b0:	f51ff06f          	j	41010000 <trap_handler_s__invalid_interrupt>
    410100b4:	f4dff06f          	j	41010000 <trap_handler_s__invalid_interrupt>
    410100b8:	fadff06f          	j	41010064 <trap_handler_s__clear_highest_priority_interrupt>
    410100bc:	fa9ff06f          	j	41010064 <trap_handler_s__clear_highest_priority_interrupt>
    410100c0:	fa5ff06f          	j	41010064 <trap_handler_s__clear_highest_priority_interrupt>
    410100c4:	fa1ff06f          	j	41010064 <trap_handler_s__clear_highest_priority_interrupt>
    410100c8:	f9dff06f          	j	41010064 <trap_handler_s__clear_highest_priority_interrupt>
    410100cc:	f99ff06f          	j	41010064 <trap_handler_s__clear_highest_priority_interrupt>
    410100d0:	f95ff06f          	j	41010064 <trap_handler_s__clear_highest_priority_interrupt>
    410100d4:	f91ff06f          	j	41010064 <trap_handler_s__clear_highest_priority_interrupt>
    410100d8:	f8dff06f          	j	41010064 <trap_handler_s__clear_highest_priority_interrupt>
    410100dc:	f89ff06f          	j	41010064 <trap_handler_s__clear_highest_priority_interrupt>
    410100e0:	f85ff06f          	j	41010064 <trap_handler_s__clear_highest_priority_interrupt>
    410100e4:	f81ff06f          	j	41010064 <trap_handler_s__clear_highest_priority_interrupt>
    410100e8:	f7dff06f          	j	41010064 <trap_handler_s__clear_highest_priority_interrupt>
    410100ec:	f79ff06f          	j	41010064 <trap_handler_s__clear_highest_priority_interrupt>
    410100f0:	f75ff06f          	j	41010064 <trap_handler_s__clear_highest_priority_interrupt>
    410100f4:	f71ff06f          	j	41010064 <trap_handler_s__clear_highest_priority_interrupt>
    410100f8:	f6dff06f          	j	41010064 <trap_handler_s__clear_highest_priority_interrupt>
    410100fc:	f69ff06f          	j	41010064 <trap_handler_s__clear_highest_priority_interrupt>
    41010100:	f65ff06f          	j	41010064 <trap_handler_s__clear_highest_priority_interrupt>
    41010104:	f61ff06f          	j	41010064 <trap_handler_s__clear_highest_priority_interrupt>
    41010108:	f5dff06f          	j	41010064 <trap_handler_s__clear_highest_priority_interrupt>
    4101010c:	f59ff06f          	j	41010064 <trap_handler_s__clear_highest_priority_interrupt>
    41010110:	f55ff06f          	j	41010064 <trap_handler_s__clear_highest_priority_interrupt>
    41010114:	f51ff06f          	j	41010064 <trap_handler_s__clear_highest_priority_interrupt>
    41010118:	f4dff06f          	j	41010064 <trap_handler_s__clear_highest_priority_interrupt>
    4101011c:	f49ff06f          	j	41010064 <trap_handler_s__clear_highest_priority_interrupt>
    41010120:	f45ff06f          	j	41010064 <trap_handler_s__clear_highest_priority_interrupt>
    41010124:	f41ff06f          	j	41010064 <trap_handler_s__clear_highest_priority_interrupt>
    41010128:	f3dff06f          	j	41010064 <trap_handler_s__clear_highest_priority_interrupt>
    4101012c:	f39ff06f          	j	41010064 <trap_handler_s__clear_highest_priority_interrupt>
    41010130:	f35ff06f          	j	41010064 <trap_handler_s__clear_highest_priority_interrupt>
    41010134:	f31ff06f          	j	41010064 <trap_handler_s__clear_highest_priority_interrupt>
    41010138:	f2dff06f          	j	41010064 <trap_handler_s__clear_highest_priority_interrupt>
    4101013c:	f29ff06f          	j	41010064 <trap_handler_s__clear_highest_priority_interrupt>
    41010140:	f25ff06f          	j	41010064 <trap_handler_s__clear_highest_priority_interrupt>
    41010144:	f21ff06f          	j	41010064 <trap_handler_s__clear_highest_priority_interrupt>
    41010148:	f1dff06f          	j	41010064 <trap_handler_s__clear_highest_priority_interrupt>
    4101014c:	f19ff06f          	j	41010064 <trap_handler_s__clear_highest_priority_interrupt>
    41010150:	f15ff06f          	j	41010064 <trap_handler_s__clear_highest_priority_interrupt>
    41010154:	f11ff06f          	j	41010064 <trap_handler_s__clear_highest_priority_interrupt>
    41010158:	f0dff06f          	j	41010064 <trap_handler_s__clear_highest_priority_interrupt>
    4101015c:	f09ff06f          	j	41010064 <trap_handler_s__clear_highest_priority_interrupt>
    41010160:	f05ff06f          	j	41010064 <trap_handler_s__clear_highest_priority_interrupt>
    41010164:	f01ff06f          	j	41010064 <trap_handler_s__clear_highest_priority_interrupt>
    41010168:	efdff06f          	j	41010064 <trap_handler_s__clear_highest_priority_interrupt>
    4101016c:	ef9ff06f          	j	41010064 <trap_handler_s__clear_highest_priority_interrupt>
    41010170:	ef5ff06f          	j	41010064 <trap_handler_s__clear_highest_priority_interrupt>

0000000041010174 <trap_handler_s__test_failed>:
    41010174:	00f00f9b          	addiw	x31,x0,15
    41010178:	01cf9f93          	slli	x31,x31,0x1c
    4101017c:	002f8f93          	addi	x31,x31,2
    41010180:	00000073          	ecall

0000000041010184 <trap_handler_s__trap_handler>:
    41010184:	142022f3          	csrr	x5,scause
    41010188:	fff0031b          	addiw	x6,x0,-1
    4101018c:	03f31313          	slli	x6,x6,0x3f
    41010190:	00537333          	and	x6,x6,x5
    41010194:	02030263          	beqz	x6,410101b8 <trap_handler_s__exception_path>

0000000041010198 <trap_handler_s__interrupt_handler>:
    41010198:	fff0031b          	addiw	x6,x0,-1
    4101019c:	03f31313          	slli	x6,x6,0x3f
    410101a0:	0062c2b3          	xor	x5,x5,x6
    410101a4:	00000317          	auipc	x6,0x0
    410101a8:	ed430313          	addi	x6,x6,-300 # 41010078 <trap_handler_s__trap_entry>
    410101ac:	00229293          	slli	x5,x5,0x2
    410101b0:	005302b3          	add	x5,x6,x5
    410101b4:	00028067          	jr	x5 # 2000 <mem12>

00000000410101b8 <trap_handler_s__exception_path>:
    410101b8:	14021273          	csrrw	x4,sscratch,x4
    410101bc:	00000297          	auipc	x5,0x0
    410101c0:	0cc28293          	addi	x5,x5,204 # 41010288 <trap_handler_s__trap_panic>
    410101c4:	10529073          	csrw	stvec,x5
    410101c8:	0040006f          	j	410101cc <trap_handler_s__excp_entry>

00000000410101cc <trap_handler_s__excp_entry>:
    410101cc:	14202373          	csrr	x6,scause
    410101d0:	00800293          	li	x5,8
    410101d4:	00534863          	blt	x6,x5,410101e4 <trap_handler_s__check_exception_label>
    410101d8:	00b00293          	li	x5,11
    410101dc:	0062c463          	blt	x5,x6,410101e4 <trap_handler_s__check_exception_label>
    410101e0:	0a80006f          	j	41010288 <trap_handler_s__trap_panic>

00000000410101e4 <trap_handler_s__check_exception_label>:
    410101e4:	04623c23          	sd	x6,88(x4) # 58 <XLEN+0x18>
    410101e8:	141022f3          	csrr	x5,sepc
    410101ec:	02523423          	sd	x5,40(x4) # 28 <SECURE_ACCESS_PROBABILITY+0xa>
    410101f0:	01820283          	lb	x5,24(x4) # 18 <STORE_GUEST_PAGE_FAULT+0x1>
    410101f4:	00029863          	bnez	x5,41010204 <trap_handler_s__check_excp>
    410101f8:	00128293          	addi	x5,x5,1
    410101fc:	00520c23          	sb	x5,24(x4) # 18 <STORE_GUEST_PAGE_FAULT+0x1>
    41010200:	05c0006f          	j	4101025c <trap_handler_s__ecall_from_machine>

0000000041010204 <trap_handler_s__check_excp>:
    41010204:	06823283          	ld	x5,104(x4) # 68 <XLEN+0x28>
    41010208:	06023423          	sd	x0,104(x4) # 68 <XLEN+0x28>
    4101020c:	00028663          	beqz	x5,41010218 <trap_handler_s__skip_mode_check>
    41010210:	00300393          	li	x7,3
    41010214:	f67290e3          	bne	x5,x7,41010174 <trap_handler_s__test_failed>

0000000041010218 <trap_handler_s__skip_mode_check>:
    41010218:	05023283          	ld	x5,80(x4) # 50 <XLEN+0x10>
    4101021c:	04023823          	sd	x0,80(x4) # 50 <XLEN+0x10>
    41010220:	f4531ae3          	bne	x6,x5,41010174 <trap_handler_s__test_failed>
    41010224:	03823283          	ld	x5,56(x4) # 38 <SECURE_ACCESS_PROBABILITY+0x1a>
    41010228:	02023c23          	sd	x0,56(x4) # 38 <SECURE_ACCESS_PROBABILITY+0x1a>
    4101022c:	02029663          	bnez	x5,41010258 <trap_handler_s__skip_nonzero_tval_check>
    41010230:	02023303          	ld	x6,32(x4) # 20 <SECURE_ACCESS_PROBABILITY+0x2>
    41010234:	02023023          	sd	x0,32(x4) # 20 <SECURE_ACCESS_PROBABILITY+0x2>
    41010238:	02823283          	ld	x5,40(x4) # 28 <SECURE_ACCESS_PROBABILITY+0xa>
    4101023c:	02023423          	sd	x0,40(x4) # 28 <SECURE_ACCESS_PROBABILITY+0xa>
    41010240:	f2531ae3          	bne	x6,x5,41010174 <trap_handler_s__test_failed>
    41010244:	04023283          	ld	x5,64(x4) # 40 <XLEN>
    41010248:	04023023          	sd	x0,64(x4) # 40 <XLEN>
    4101024c:	00028663          	beqz	x5,41010258 <trap_handler_s__skip_nonzero_tval_check>

0000000041010250 <trap_handler_s__nonzero_tval_check>:
    41010250:	14302373          	csrr	x6,stval
    41010254:	f25310e3          	bne	x6,x5,41010174 <trap_handler_s__test_failed>

0000000041010258 <trap_handler_s__skip_nonzero_tval_check>:
    41010258:	0040006f          	j	4101025c <trap_handler_s__ecall_from_machine>

000000004101025c <trap_handler_s__ecall_from_machine>:
    4101025c:	03023283          	ld	x5,48(x4) # 30 <SECURE_ACCESS_PROBABILITY+0x12>
    41010260:	02023823          	sd	x0,48(x4) # 30 <SECURE_ACCESS_PROBABILITY+0x12>
    41010264:	07023303          	ld	x6,112(x4) # 70 <XLEN+0x30>
    41010268:	06023823          	sd	x0,112(x4) # 70 <XLEN+0x30>
    4101026c:	00031463          	bnez	x6,41010274 <trap_handler_s__skip_xepc_write>
    41010270:	14129073          	csrw	sepc,x5

0000000041010274 <trap_handler_s__skip_xepc_write>:
    41010274:	00000317          	auipc	x6,0x0
    41010278:	e0430313          	addi	x6,x6,-508 # 41010078 <trap_handler_s__trap_entry>
    4101027c:	10531073          	csrw	stvec,x6
    41010280:	14021273          	csrrw	x4,sscratch,x4
    41010284:	10200073          	sret

0000000041010288 <trap_handler_s__trap_panic>:
    41010288:	00000193          	li	x3,0
    4101028c:	00f00f9b          	addiw	x31,x0,15
    41010290:	01cf9f93          	slli	x31,x31,0x1c
    41010294:	002f8f93          	addi	x31,x31,2
    41010298:	00000073          	ecall

Disassembly of section .code:

0000000041014130 <passed>:
    41014130:	00f00f9b          	addiw	x31,x0,15
    41014134:	01cf9f93          	slli	x31,x31,0x1c
    41014138:	001f8f93          	addi	x31,x31,1
    4101413c:	00000073          	ecall

0000000041014140 <failed>:
    41014140:	00f00f9b          	addiw	x31,x0,15
    41014144:	01cf9f93          	slli	x31,x31,0x1c
    41014148:	002f8f93          	addi	x31,x31,2
    4101414c:	00000073          	ecall

0000000041014150 <end_test>:
    41014150:	00f00f9b          	addiw	x31,x0,15
    41014154:	01cf9f93          	slli	x31,x31,0x1c
    41014158:	003f8f93          	addi	x31,x31,3
    4101415c:	00000073          	ecall

0000000041014160 <test_setup>:
    41014160:	00f00f9b          	addiw	x31,x0,15
    41014164:	01cf9f93          	slli	x31,x31,0x1c
    41014168:	001f8f93          	addi	x31,x31,1
    4101416c:	00000073          	ecall

0000000041014170 <SID_PBVMS_001_ptw_no_faults_all_access_types>:
    41014170:	0044d137          	lui	x2,0x44d
    41014174:	000012b7          	lui	x5,0x1
    41014178:	00510133          	add	x2,x2,x5
    4101417c:	ff017113          	andi	x2,x2,-16
    41014180:	000a23b7          	lui	x7,0xa2
    41014184:	cc33839b          	addiw	x7,x7,-829 # a1cc3 <mem21__pt_level3+0xcd7b>
    41014188:	00d39393          	slli	x7,x7,0xd
    4101418c:	0003a807          	flw	f16,0(x7)
    41014190:	000a2737          	lui	x14,0xa2
    41014194:	cc37071b          	addiw	x14,x14,-829 # a1cc3 <mem21__pt_level3+0xcd7b>
    41014198:	00d71713          	slli	x14,x14,0xd
    4101419c:	0004bfb7          	lui	x31,0x4b
    410141a0:	647f8f9b          	addiw	x31,x31,1607 # 4b647 <mem10__pt_level2+0x647>
    410141a4:	00df9f93          	slli	x31,x31,0xd
    410141a8:	a1cf8f93          	addi	x31,x31,-1508
    410141ac:	01f72023          	sw	x31,0(x14)
    410141b0:	000a2fb7          	lui	x31,0xa2
    410141b4:	cc3f8f9b          	addiw	x31,x31,-829 # a1cc3 <mem21__pt_level3+0xcd7b>
    410141b8:	00df9f93          	slli	x31,x31,0xd
    410141bc:	00000a13          	li	x20,0
    410141c0:	014f8b33          	add	x22,x31,x20
    410141c4:	000b23af          	amoadd.w	x7,x0,(x22)
    410141c8:	00a75637          	lui	x12,0xa75
    410141cc:	64b6061b          	addiw	x12,x12,1611 # a7564b <mem32__pt_level0+0x28d64b>
    410141d0:	00c61613          	slli	x12,x12,0xc
    410141d4:	000600e7          	jalr	x12

00000000410141d8 <SID_PBVMS_001_ptw_no_faults_all_access_types_passed>:
    410141d8:	00f00f9b          	addiw	x31,x0,15
    410141dc:	01cf9f93          	slli	x31,x31,0x1c
    410141e0:	001f8f93          	addi	x31,x31,1
    410141e4:	00000073          	ecall

00000000410141e8 <SID_PBVMS_003_ptw_all_privilege_modes>:
    410141e8:	010e8137          	lui	x2,0x10e8
    410141ec:	000012b7          	lui	x5,0x1
    410141f0:	00510133          	add	x2,x2,x5
    410141f4:	ff017113          	andi	x2,x2,-16
    410141f8:	0128e437          	lui	x8,0x128e
    410141fc:	00042a83          	lw	x21,0(x8) # 128e000 <mem2>
    41014200:	0128eeb7          	lui	x29,0x128e
    41014204:	00038c37          	lui	x24,0x38
    41014208:	7ebc0c1b          	addiw	x24,x24,2027 # 387eb <SID_PBVMS_043_fetch_window_spill_page_cross_stack+0x17eb>
    4101420c:	00ec1c13          	slli	x24,x24,0xe
    41014210:	9dac0c13          	addi	x24,x24,-1574
    41014214:	d03c7253          	fcvt.s.lu	f4,x24
    41014218:	004eb027          	fsd	f4,0(x29) # 128e000 <mem2>

000000004101421c <SID_PBVMS_003_ptw_all_privilege_modes_passed>:
    4101421c:	00f00f9b          	addiw	x31,x0,15
    41014220:	01cf9f93          	slli	x31,x31,0x1c
    41014224:	001f8f93          	addi	x31,x31,1
    41014228:	00000073          	ecall

000000004101422c <SID_PBVMS_006_ptw_page_boundary_crossing>:
    4101422c:	0810011b          	addiw	x2,x0,129
    41014230:	02711113          	slli	x2,x2,0x27
    41014234:	000012b7          	lui	x5,0x1
    41014238:	00510133          	add	x2,x2,x5
    4101423c:	ff017113          	andi	x2,x2,-16
    41014240:	00c008b7          	lui	x17,0xc00
    41014244:	00001b37          	lui	x22,0x1
    41014248:	ff8b0b1b          	addiw	x22,x22,-8 # ff8 <XLEN+0xfb8>
    4101424c:	01688fb3          	add	x31,x17,x22
    41014250:	000fb303          	ld	x6,0(x31)
    41014254:	00c00c37          	lui	x24,0xc00
    41014258:	00001437          	lui	x8,0x1
    4101425c:	ff84041b          	addiw	x8,x8,-8 # ff8 <XLEN+0xfb8>
    41014260:	008c0933          	add	x18,x24,x8
    41014264:	000d7337          	lui	x6,0xd7
    41014268:	0713031b          	addiw	x6,x6,113 # d7071 <SID_PBVMS_013_ptw_permission_encodings_stack+0x4071>
    4101426c:	00c31313          	slli	x6,x6,0xc
    41014270:	08130313          	addi	x6,x6,129
    41014274:	d0037e53          	fcvt.s.w	f28,x6
    41014278:	01c93027          	fsd	f28,0(x18)
    4101427c:	00c008b7          	lui	x17,0xc00
    41014280:	00001f37          	lui	x30,0x1
    41014284:	ff8f0f1b          	addiw	x30,x30,-8 # ff8 <XLEN+0xfb8>
    41014288:	01e88b33          	add	x22,x17,x30
    4101428c:	00001bb7          	lui	x23,0x1
    41014290:	ff8b8b9b          	addiw	x23,x23,-8 # ff8 <XLEN+0xfb8>
    41014294:	017b332f          	amoadd.d	x6,x23,(x22)
    41014298:	093bb6b7          	lui	x13,0x93bb
    4101429c:	000680e7          	jalr	x13 # 93bb000 <code_mem4>

00000000410142a0 <SID_PBVMS_006_ptw_page_boundary_crossing_passed>:
    410142a0:	00f00f9b          	addiw	x31,x0,15
    410142a4:	01cf9f93          	slli	x31,x31,0x1c
    410142a8:	001f8f93          	addi	x31,x31,1
    410142ac:	00000073          	ecall

00000000410142b0 <SID_PBVMS_008_va_sign_extension_fault>:
    410142b0:	00035137          	lui	x2,0x35
    410142b4:	000012b7          	lui	x5,0x1
    410142b8:	00510133          	add	x2,x2,x5
    410142bc:	ff017113          	andi	x2,x2,-16
    410142c0:	6063e237          	lui	x4,0x6063e
    410142c4:	00d00e13          	li	x28,13
    410142c8:	05c23823          	sd	x28,80(x4) # 6063e050 <check_excp_expected_cause>
    410142cc:	00000e17          	auipc	x28,0x0
    410142d0:	058e0e13          	addi	x28,x28,88 # 41014324 <fault_label_0>
    410142d4:	03c23023          	sd	x28,32(x4) # 20 <SECURE_ACCESS_PROBABILITY+0x2>
    410142d8:	00000e13          	li	x28,0
    410142dc:	05c23023          	sd	x28,64(x4) # 40 <XLEN>
    410142e0:	00000e13          	li	x28,0
    410142e4:	05c23423          	sd	x28,72(x4) # 48 <XLEN+0x8>
    410142e8:	00000e17          	auipc	x28,0x0
    410142ec:	050e0e13          	addi	x28,x28,80 # 41014338 <SID_PBVMS_008_va_sign_extension_fault_passed>
    410142f0:	03c23823          	sd	x28,48(x4) # 30 <SECURE_ACCESS_PROBABILITY+0x12>
    410142f4:	00000e13          	li	x28,0
    410142f8:	03c23c23          	sd	x28,56(x4) # 38 <SECURE_ACCESS_PROBABILITY+0x1a>
    410142fc:	00000e13          	li	x28,0
    41014300:	07c23023          	sd	x28,96(x4) # 60 <XLEN+0x20>
    41014304:	00000e13          	li	x28,0
    41014308:	07c23423          	sd	x28,104(x4) # 68 <XLEN+0x28>
    4101430c:	00000e13          	li	x28,0
    41014310:	07c23823          	sd	x28,112(x4) # 70 <XLEN+0x30>
    41014314:	0037db37          	lui	x22,0x37d
    41014318:	fff0069b          	addiw	x13,x0,-1
    4101431c:	03f69693          	slli	x13,x13,0x3f
    41014320:	00db0333          	add	x6,x22,x13

0000000041014324 <fault_label_0>:
    41014324:	00033683          	ld	x13,0(x6)
    41014328:	00004737          	lui	x14,0x4
    4101432c:	0087071b          	addiw	x14,x14,8 # 4008 <failed_addr>
    41014330:	00073d83          	ld	x27,0(x14)
    41014334:	000d8067          	jr	x27 # 82000c4c <mem28__pt_level3+0x74bec04>

0000000041014338 <SID_PBVMS_008_va_sign_extension_fault_passed>:
    41014338:	00f00f9b          	addiw	x31,x0,15
    4101433c:	01cf9f93          	slli	x31,x31,0x1c
    41014340:	001f8f93          	addi	x31,x31,1
    41014344:	00000073          	ecall

0000000041014348 <SID_PBVMS_009_superpage_alignment_fault>:
    41014348:	45534137          	lui	x2,0x45534
    4101434c:	000012b7          	lui	x5,0x1
    41014350:	00510133          	add	x2,x2,x5
    41014354:	ff017113          	andi	x2,x2,-16
    41014358:	00004fb7          	lui	x31,0x4
    4101435c:	0b0f8f9b          	addiw	x31,x31,176 # 40b0 <pte_access_flags>
    41014360:	0010029b          	addiw	x5,x0,1
    41014364:	02829293          	slli	x5,x5,0x28
    41014368:	005fb023          	sd	x5,0(x31)
    4101436c:	00200293          	li	x5,2
    41014370:	005fb423          	sd	x5,8(x31)
    41014374:	fff00293          	li	x5,-1
    41014378:	005fb823          	sd	x5,16(x31)
    4101437c:	000f0fb7          	lui	x31,0xf0
    41014380:	001f8f9b          	addiw	x31,x31,1 # f0001 <SID_PBVMS_013_ptw_permission_encodings_stack+0x1d001>
    41014384:	00cf9f93          	slli	x31,x31,0xc
    41014388:	007f8f93          	addi	x31,x31,7
    4101438c:	00000073          	ecall
    41014390:	40000b93          	li	x23,1024
    41014394:	0173e933          	or	x18,x7,x23
    41014398:	00090393          	mv	x7,x18
    4101439c:	00004fb7          	lui	x31,0x4
    410143a0:	0b0f8f9b          	addiw	x31,x31,176 # 40b0 <pte_access_flags>
    410143a4:	0010029b          	addiw	x5,x0,1
    410143a8:	02829293          	slli	x5,x5,0x28
    410143ac:	005fb023          	sd	x5,0(x31)
    410143b0:	00200293          	li	x5,2
    410143b4:	005fb423          	sd	x5,8(x31)
    410143b8:	fff00293          	li	x5,-1
    410143bc:	005fb823          	sd	x5,16(x31)
    410143c0:	000f0fb7          	lui	x31,0xf0
    410143c4:	001f8f9b          	addiw	x31,x31,1 # f0001 <SID_PBVMS_013_ptw_permission_encodings_stack+0x1d001>
    410143c8:	00cf9f93          	slli	x31,x31,0xc
    410143cc:	008f8f93          	addi	x31,x31,8
    410143d0:	00000073          	ecall
    410143d4:	6063e237          	lui	x4,0x6063e
    410143d8:	00d00e13          	li	x28,13
    410143dc:	05c23823          	sd	x28,80(x4) # 6063e050 <check_excp_expected_cause>
    410143e0:	00000e17          	auipc	x28,0x0
    410143e4:	050e0e13          	addi	x28,x28,80 # 41014430 <fault_label_1>
    410143e8:	03c23023          	sd	x28,32(x4) # 20 <SECURE_ACCESS_PROBABILITY+0x2>
    410143ec:	00000e13          	li	x28,0
    410143f0:	05c23023          	sd	x28,64(x4) # 40 <XLEN>
    410143f4:	00000e13          	li	x28,0
    410143f8:	05c23423          	sd	x28,72(x4) # 48 <XLEN+0x8>
    410143fc:	00000e17          	auipc	x28,0x0
    41014400:	048e0e13          	addi	x28,x28,72 # 41014444 <excp_return_label_1>
    41014404:	03c23823          	sd	x28,48(x4) # 30 <SECURE_ACCESS_PROBABILITY+0x12>
    41014408:	00000e13          	li	x28,0
    4101440c:	03c23c23          	sd	x28,56(x4) # 38 <SECURE_ACCESS_PROBABILITY+0x1a>
    41014410:	00000e13          	li	x28,0
    41014414:	07c23023          	sd	x28,96(x4) # 60 <XLEN+0x20>
    41014418:	00000e13          	li	x28,0
    4101441c:	07c23423          	sd	x28,104(x4) # 68 <XLEN+0x28>
    41014420:	00000e13          	li	x28,0
    41014424:	07c23823          	sd	x28,112(x4) # 70 <XLEN+0x30>
    41014428:	00100d9b          	addiw	x27,x0,1
    4101442c:	028d9d93          	slli	x27,x27,0x28

0000000041014430 <fault_label_1>:
    41014430:	000da607          	flw	f12,0(x27)
    41014434:	00004b37          	lui	x22,0x4
    41014438:	008b0b1b          	addiw	x22,x22,8 # 4008 <failed_addr>
    4101443c:	000b3783          	ld	x15,0(x22)
    41014440:	00078067          	jr	x15

0000000041014444 <excp_return_label_1>:
    41014444:	6063e237          	lui	x4,0x6063e
    41014448:	00f00e13          	li	x28,15
    4101444c:	05c23823          	sd	x28,80(x4) # 6063e050 <check_excp_expected_cause>
    41014450:	00000e17          	auipc	x28,0x0
    41014454:	058e0e13          	addi	x28,x28,88 # 410144a8 <fault_label_2>
    41014458:	03c23023          	sd	x28,32(x4) # 20 <SECURE_ACCESS_PROBABILITY+0x2>
    4101445c:	00000e13          	li	x28,0
    41014460:	05c23023          	sd	x28,64(x4) # 40 <XLEN>
    41014464:	00000e13          	li	x28,0
    41014468:	05c23423          	sd	x28,72(x4) # 48 <XLEN+0x8>
    4101446c:	00000e17          	auipc	x28,0x0
    41014470:	050e0e13          	addi	x28,x28,80 # 410144bc <excp_return_label_2>
    41014474:	03c23823          	sd	x28,48(x4) # 30 <SECURE_ACCESS_PROBABILITY+0x12>
    41014478:	00000e13          	li	x28,0
    4101447c:	03c23c23          	sd	x28,56(x4) # 38 <SECURE_ACCESS_PROBABILITY+0x1a>
    41014480:	00000e13          	li	x28,0
    41014484:	07c23023          	sd	x28,96(x4) # 60 <XLEN+0x20>
    41014488:	00000e13          	li	x28,0
    4101448c:	07c23423          	sd	x28,104(x4) # 68 <XLEN+0x28>
    41014490:	00000e13          	li	x28,0
    41014494:	07c23823          	sd	x28,112(x4) # 70 <XLEN+0x30>
    41014498:	0010091b          	addiw	x18,x0,1
    4101449c:	02891913          	slli	x18,x18,0x28
    410144a0:	678a6eb7          	lui	x29,0x678a6
    410144a4:	aa6e8e9b          	addiw	x29,x29,-1370 # 678a5aa6 <current_test_index+0x726791e>

00000000410144a8 <fault_label_2>:
    410144a8:	01d93023          	sd	x29,0(x18)
    410144ac:	00004bb7          	lui	x23,0x4
    410144b0:	008b8b9b          	addiw	x23,x23,8 # 4008 <failed_addr>
    410144b4:	000bb903          	ld	x18,0(x23)
    410144b8:	00090067          	jr	x18

00000000410144bc <excp_return_label_2>:
    410144bc:	6063e237          	lui	x4,0x6063e
    410144c0:	00f00e13          	li	x28,15
    410144c4:	05c23823          	sd	x28,80(x4) # 6063e050 <check_excp_expected_cause>
    410144c8:	00000e17          	auipc	x28,0x0
    410144cc:	058e0e13          	addi	x28,x28,88 # 41014520 <fault_label_3>
    410144d0:	03c23023          	sd	x28,32(x4) # 20 <SECURE_ACCESS_PROBABILITY+0x2>
    410144d4:	00000e13          	li	x28,0
    410144d8:	05c23023          	sd	x28,64(x4) # 40 <XLEN>
    410144dc:	00000e13          	li	x28,0
    410144e0:	05c23423          	sd	x28,72(x4) # 48 <XLEN+0x8>
    410144e4:	00000e17          	auipc	x28,0x0
    410144e8:	050e0e13          	addi	x28,x28,80 # 41014534 <SID_PBVMS_009_superpage_alignment_fault_passed>
    410144ec:	03c23823          	sd	x28,48(x4) # 30 <SECURE_ACCESS_PROBABILITY+0x12>
    410144f0:	00000e13          	li	x28,0
    410144f4:	03c23c23          	sd	x28,56(x4) # 38 <SECURE_ACCESS_PROBABILITY+0x1a>
    410144f8:	00000e13          	li	x28,0
    410144fc:	07c23023          	sd	x28,96(x4) # 60 <XLEN+0x20>
    41014500:	00000e13          	li	x28,0
    41014504:	07c23423          	sd	x28,104(x4) # 68 <XLEN+0x28>
    41014508:	00000e13          	li	x28,0
    4101450c:	07c23823          	sd	x28,112(x4) # 70 <XLEN+0x30>
    41014510:	0010031b          	addiw	x6,x0,1
    41014514:	02831313          	slli	x6,x6,0x28
    41014518:	00000c13          	li	x24,0
    4101451c:	01830c33          	add	x24,x6,x24

0000000041014520 <fault_label_3>:
    41014520:	000c292f          	amoadd.w	x18,x0,(x24)
    41014524:	00004fb7          	lui	x31,0x4
    41014528:	008f8f9b          	addiw	x31,x31,8 # 4008 <failed_addr>
    4101452c:	000fbf83          	ld	x31,0(x31)
    41014530:	000f8067          	jr	x31

0000000041014534 <SID_PBVMS_009_superpage_alignment_fault_passed>:
    41014534:	00f00f9b          	addiw	x31,x0,15
    41014538:	01cf9f93          	slli	x31,x31,0x1c
    4101453c:	001f8f93          	addi	x31,x31,1
    41014540:	00000073          	ecall

0000000041014544 <SID_PBVMS_011_ptw_fault_boundary_crossing>:
    41014544:	001fd137          	lui	x2,0x1fd
    41014548:	70f1011b          	addiw	x2,x2,1807 # 1fd70f <mem36__pt_level3+0x1430f>
    4101454c:	00c11113          	slli	x2,x2,0xc
    41014550:	e7710113          	addi	x2,x2,-393
    41014554:	00c11113          	slli	x2,x2,0xc
    41014558:	000012b7          	lui	x5,0x1
    4101455c:	00510133          	add	x2,x2,x5
    41014560:	ff017113          	andi	x2,x2,-16
    41014564:	000d13b7          	lui	x7,0xd1
    41014568:	bbf3839b          	addiw	x7,x7,-1089 # d0bbf <mem38+0x26bbf>
    4101456c:	01639393          	slli	x7,x7,0x16
    41014570:	0003bb03          	ld	x22,0(x7)
    41014574:	6063e237          	lui	x4,0x6063e
    41014578:	00d00e13          	li	x28,13
    4101457c:	05c23823          	sd	x28,80(x4) # 6063e050 <check_excp_expected_cause>
    41014580:	00000e17          	auipc	x28,0x0
    41014584:	060e0e13          	addi	x28,x28,96 # 410145e0 <fault_label_4>
    41014588:	03c23023          	sd	x28,32(x4) # 20 <SECURE_ACCESS_PROBABILITY+0x2>
    4101458c:	00000e13          	li	x28,0
    41014590:	05c23023          	sd	x28,64(x4) # 40 <XLEN>
    41014594:	00000e13          	li	x28,0
    41014598:	05c23423          	sd	x28,72(x4) # 48 <XLEN+0x8>
    4101459c:	00000e17          	auipc	x28,0x0
    410145a0:	058e0e13          	addi	x28,x28,88 # 410145f4 <excp_return_label_4>
    410145a4:	03c23823          	sd	x28,48(x4) # 30 <SECURE_ACCESS_PROBABILITY+0x12>
    410145a8:	00000e13          	li	x28,0
    410145ac:	03c23c23          	sd	x28,56(x4) # 38 <SECURE_ACCESS_PROBABILITY+0x1a>
    410145b0:	00000e13          	li	x28,0
    410145b4:	07c23023          	sd	x28,96(x4) # 60 <XLEN+0x20>
    410145b8:	00000e13          	li	x28,0
    410145bc:	07c23423          	sd	x28,104(x4) # 68 <XLEN+0x28>
    410145c0:	00000e13          	li	x28,0
    410145c4:	07c23823          	sd	x28,112(x4) # 70 <XLEN+0x30>
    410145c8:	00003937          	lui	x18,0x3
    410145cc:	57d9091b          	addiw	x18,x18,1405 # 357d <_all_interrupts+0xad3>
    410145d0:	01691913          	slli	x18,x18,0x16
    410145d4:	00001db7          	lui	x27,0x1
    410145d8:	ffad8d9b          	addiw	x27,x27,-6 # ffa <XLEN+0xfba>
    410145dc:	01b90d33          	add	x26,x18,x27

00000000410145e0 <fault_label_4>:
    410145e0:	000d3683          	ld	x13,0(x26)
    410145e4:	00004e37          	lui	x28,0x4
    410145e8:	008e0e1b          	addiw	x28,x28,8 # 4008 <failed_addr>
    410145ec:	000e3b83          	ld	x23,0(x28)
    410145f0:	000b8067          	jr	x23

00000000410145f4 <excp_return_label_4>:
    410145f4:	6063e237          	lui	x4,0x6063e
    410145f8:	00f00e13          	li	x28,15
    410145fc:	05c23823          	sd	x28,80(x4) # 6063e050 <check_excp_expected_cause>
    41014600:	00000e17          	auipc	x28,0x0
    41014604:	070e0e13          	addi	x28,x28,112 # 41014670 <fault_label_5>
    41014608:	03c23023          	sd	x28,32(x4) # 20 <SECURE_ACCESS_PROBABILITY+0x2>
    4101460c:	00000e13          	li	x28,0
    41014610:	05c23023          	sd	x28,64(x4) # 40 <XLEN>
    41014614:	00000e13          	li	x28,0
    41014618:	05c23423          	sd	x28,72(x4) # 48 <XLEN+0x8>
    4101461c:	00000e17          	auipc	x28,0x0
    41014620:	068e0e13          	addi	x28,x28,104 # 41014684 <SID_PBVMS_011_ptw_fault_boundary_crossing_passed>
    41014624:	03c23823          	sd	x28,48(x4) # 30 <SECURE_ACCESS_PROBABILITY+0x12>
    41014628:	00000e13          	li	x28,0
    4101462c:	03c23c23          	sd	x28,56(x4) # 38 <SECURE_ACCESS_PROBABILITY+0x1a>
    41014630:	00000e13          	li	x28,0
    41014634:	07c23023          	sd	x28,96(x4) # 60 <XLEN+0x20>
    41014638:	00000e13          	li	x28,0
    4101463c:	07c23423          	sd	x28,104(x4) # 68 <XLEN+0x28>
    41014640:	00000e13          	li	x28,0
    41014644:	07c23823          	sd	x28,112(x4) # 70 <XLEN+0x30>
    41014648:	00003eb7          	lui	x29,0x3
    4101464c:	57de8e9b          	addiw	x29,x29,1405 # 357d <_all_interrupts+0xad3>
    41014650:	016e9e93          	slli	x29,x29,0x16
    41014654:	00001a37          	lui	x20,0x1
    41014658:	ffaa0a1b          	addiw	x20,x20,-6 # ffa <XLEN+0xfba>
    4101465c:	014e8cb3          	add	x25,x29,x20
    41014660:	000f3ab7          	lui	x21,0xf3
    41014664:	20da8a9b          	addiw	x21,x21,525 # f320d <SID_PBVMS_013_ptw_permission_encodings_stack+0x2020d>
    41014668:	00ca9a93          	slli	x21,x21,0xc
    4101466c:	d5aa8a93          	addi	x21,x21,-678

0000000041014670 <fault_label_5>:
    41014670:	015ca023          	sw	x21,0(x25)
    41014674:	00004337          	lui	x6,0x4
    41014678:	0083031b          	addiw	x6,x6,8 # 4008 <failed_addr>
    4101467c:	00033d03          	ld	x26,0(x6)
    41014680:	000d0067          	jr	x26

0000000041014684 <SID_PBVMS_011_ptw_fault_boundary_crossing_passed>:
    41014684:	00f00f9b          	addiw	x31,x0,15
    41014688:	01cf9f93          	slli	x31,x31,0x1c
    4101468c:	001f8f93          	addi	x31,x31,1
    41014690:	00000073          	ecall

0000000041014694 <SID_PBVMS_012_ptw_fault_prioritization>:
    41014694:	006c4137          	lui	x2,0x6c4
    41014698:	a651011b          	addiw	x2,x2,-1435 # 6c3a65 <SID_PBVMS_001_ptw_no_faults_all_access_types_stack+0x276a65>
    4101469c:	00d11113          	slli	x2,x2,0xd
    410146a0:	000012b7          	lui	x5,0x1
    410146a4:	00510133          	add	x2,x2,x5
    410146a8:	ff017113          	andi	x2,x2,-16
    410146ac:	6063e237          	lui	x4,0x6063e
    410146b0:	00d00e13          	li	x28,13
    410146b4:	05c23823          	sd	x28,80(x4) # 6063e050 <check_excp_expected_cause>
    410146b8:	00000e17          	auipc	x28,0x0
    410146bc:	050e0e13          	addi	x28,x28,80 # 41014708 <fault_label_6>
    410146c0:	03c23023          	sd	x28,32(x4) # 20 <SECURE_ACCESS_PROBABILITY+0x2>
    410146c4:	00000e13          	li	x28,0
    410146c8:	05c23023          	sd	x28,64(x4) # 40 <XLEN>
    410146cc:	00000e13          	li	x28,0
    410146d0:	05c23423          	sd	x28,72(x4) # 48 <XLEN+0x8>
    410146d4:	00000e17          	auipc	x28,0x0
    410146d8:	048e0e13          	addi	x28,x28,72 # 4101471c <excp_return_label_6>
    410146dc:	03c23823          	sd	x28,48(x4) # 30 <SECURE_ACCESS_PROBABILITY+0x12>
    410146e0:	00000e13          	li	x28,0
    410146e4:	03c23c23          	sd	x28,56(x4) # 38 <SECURE_ACCESS_PROBABILITY+0x1a>
    410146e8:	00000e13          	li	x28,0
    410146ec:	07c23023          	sd	x28,96(x4) # 60 <XLEN+0x20>
    410146f0:	00000e13          	li	x28,0
    410146f4:	07c23423          	sd	x28,104(x4) # 68 <XLEN+0x28>
    410146f8:	00000e13          	li	x28,0
    410146fc:	07c23823          	sd	x28,112(x4) # 70 <XLEN+0x30>
    41014700:	01f00c9b          	addiw	x25,x0,31
    41014704:	029c9c93          	slli	x25,x25,0x29

0000000041014708 <fault_label_6>:
    41014708:	000ca087          	flw	f1,0(x25)
    4101470c:	00004cb7          	lui	x25,0x4
    41014710:	008c8c9b          	addiw	x25,x25,8 # 4008 <failed_addr>
    41014714:	000cb683          	ld	x13,0(x25)
    41014718:	00068067          	jr	x13

000000004101471c <excp_return_label_6>:
    4101471c:	6063e237          	lui	x4,0x6063e
    41014720:	00d00e13          	li	x28,13
    41014724:	05c23823          	sd	x28,80(x4) # 6063e050 <check_excp_expected_cause>
    41014728:	00000e17          	auipc	x28,0x0
    4101472c:	050e0e13          	addi	x28,x28,80 # 41014778 <fault_label_7>
    41014730:	03c23023          	sd	x28,32(x4) # 20 <SECURE_ACCESS_PROBABILITY+0x2>
    41014734:	00000e13          	li	x28,0
    41014738:	05c23023          	sd	x28,64(x4) # 40 <XLEN>
    4101473c:	00000e13          	li	x28,0
    41014740:	05c23423          	sd	x28,72(x4) # 48 <XLEN+0x8>
    41014744:	00000e17          	auipc	x28,0x0
    41014748:	048e0e13          	addi	x28,x28,72 # 4101478c <excp_return_label_7>
    4101474c:	03c23823          	sd	x28,48(x4) # 30 <SECURE_ACCESS_PROBABILITY+0x12>
    41014750:	00000e13          	li	x28,0
    41014754:	03c23c23          	sd	x28,56(x4) # 38 <SECURE_ACCESS_PROBABILITY+0x1a>
    41014758:	00000e13          	li	x28,0
    4101475c:	07c23023          	sd	x28,96(x4) # 60 <XLEN+0x20>
    41014760:	00000e13          	li	x28,0
    41014764:	07c23423          	sd	x28,104(x4) # 68 <XLEN+0x28>
    41014768:	00000e13          	li	x28,0
    4101476c:	07c23823          	sd	x28,112(x4) # 70 <XLEN+0x30>
    41014770:	00300e1b          	addiw	x28,x0,3
    41014774:	027e1e13          	slli	x28,x28,0x27

0000000041014778 <fault_label_7>:
    41014778:	000e2583          	lw	x11,0(x28)
    4101477c:	00004d37          	lui	x26,0x4
    41014780:	008d0d1b          	addiw	x26,x26,8 # 4008 <failed_addr>
    41014784:	000d3e83          	ld	x29,0(x26)
    41014788:	000e8067          	jr	x29

000000004101478c <excp_return_label_7>:
    4101478c:	6063e237          	lui	x4,0x6063e
    41014790:	00d00e13          	li	x28,13
    41014794:	05c23823          	sd	x28,80(x4) # 6063e050 <check_excp_expected_cause>
    41014798:	00000e17          	auipc	x28,0x0
    4101479c:	050e0e13          	addi	x28,x28,80 # 410147e8 <fault_label_8>
    410147a0:	03c23023          	sd	x28,32(x4) # 20 <SECURE_ACCESS_PROBABILITY+0x2>
    410147a4:	00000e13          	li	x28,0
    410147a8:	05c23023          	sd	x28,64(x4) # 40 <XLEN>
    410147ac:	00000e13          	li	x28,0
    410147b0:	05c23423          	sd	x28,72(x4) # 48 <XLEN+0x8>
    410147b4:	00000e17          	auipc	x28,0x0
    410147b8:	048e0e13          	addi	x28,x28,72 # 410147fc <SID_PBVMS_012_ptw_fault_prioritization_passed>
    410147bc:	03c23823          	sd	x28,48(x4) # 30 <SECURE_ACCESS_PROBABILITY+0x12>
    410147c0:	00000e13          	li	x28,0
    410147c4:	03c23c23          	sd	x28,56(x4) # 38 <SECURE_ACCESS_PROBABILITY+0x1a>
    410147c8:	00000e13          	li	x28,0
    410147cc:	07c23023          	sd	x28,96(x4) # 60 <XLEN+0x20>
    410147d0:	00000e13          	li	x28,0
    410147d4:	07c23423          	sd	x28,104(x4) # 68 <XLEN+0x28>
    410147d8:	00000e13          	li	x28,0
    410147dc:	07c23823          	sd	x28,112(x4) # 70 <XLEN+0x30>
    410147e0:	0010061b          	addiw	x12,x0,1
    410147e4:	02761613          	slli	x12,x12,0x27

00000000410147e8 <fault_label_8>:
    410147e8:	00063e87          	fld	f29,0(x12)
    410147ec:	00004437          	lui	x8,0x4
    410147f0:	0084041b          	addiw	x8,x8,8 # 4008 <failed_addr>
    410147f4:	00043403          	ld	x8,0(x8)
    410147f8:	00040067          	jr	x8

00000000410147fc <SID_PBVMS_012_ptw_fault_prioritization_passed>:
    410147fc:	00f00f9b          	addiw	x31,x0,15
    41014800:	01cf9f93          	slli	x31,x31,0x1c
    41014804:	001f8f93          	addi	x31,x31,1
    41014808:	00000073          	ecall

000000004101480c <SID_PBVMS_013_ptw_permission_encodings>:
    4101480c:	000d3137          	lui	x2,0xd3
    41014810:	000012b7          	lui	x5,0x1
    41014814:	00510133          	add	x2,x2,x5
    41014818:	ff017113          	andi	x2,x2,-16
    4101481c:	00002f37          	lui	x30,0x2
    41014820:	000f2c87          	flw	f25,0(x30) # 2000 <mem12>
    41014824:	001f6737          	lui	x14,0x1f6
    41014828:	a057071b          	addiw	x14,x14,-1531 # 1f5a05 <mem36__pt_level3+0xc605>
    4101482c:	00c71713          	slli	x14,x14,0xc
    41014830:	72b70713          	addi	x14,x14,1835
    41014834:	00c71713          	slli	x14,x14,0xc
    41014838:	00075683          	lhu	x13,0(x14)
    4101483c:	001f6837          	lui	x16,0x1f6
    41014840:	a058081b          	addiw	x16,x16,-1531 # 1f5a05 <mem36__pt_level3+0xc605>
    41014844:	00c81813          	slli	x16,x16,0xc
    41014848:	72b80813          	addi	x16,x16,1835
    4101484c:	00c81813          	slli	x16,x16,0xc
    41014850:	73f7c4b7          	lui	x9,0x73f7c
    41014854:	a914849b          	addiw	x9,x9,-1391 # 73f7ba91 <current_test_index+0x1393d909>
    41014858:	00980023          	sb	x9,0(x16)
    4101485c:	001824b7          	lui	x9,0x182
    41014860:	0004ce83          	lbu	x29,0(x9) # 182000 <mem15>
    41014864:	00165637          	lui	x12,0x165
    41014868:	4d36061b          	addiw	x12,x12,1235 # 1654d3 <SID_PBVMS_022_satp_csr_accessibility_stack+0x704d3>
    4101486c:	00c61613          	slli	x12,x12,0xc
    41014870:	000600e7          	jalr	x12
    41014874:	21218b37          	lui	x22,0x21218
    41014878:	000b4a03          	lbu	x20,0(x22) # 21218000 <mem17>
    4101487c:	21218437          	lui	x8,0x21218
    41014880:	03ba38b7          	lui	x17,0x3ba3
    41014884:	3de8889b          	addiw	x17,x17,990 # 3ba33de <mem40__pt_level2+0x16353de>
    41014888:	01140023          	sb	x17,0(x8) # 21218000 <mem17>

000000004101488c <SID_PBVMS_013_ptw_permission_encodings_passed>:
    4101488c:	00f00f9b          	addiw	x31,x0,15
    41014890:	01cf9f93          	slli	x31,x31,0x1c
    41014894:	001f8f93          	addi	x31,x31,1
    41014898:	00000073          	ecall

000000004101489c <SID_PBVMS_014_mstatus_sum_mxr>:
    4101489c:	00075137          	lui	x2,0x75
    410148a0:	00004fb7          	lui	x31,0x4
    410148a4:	0a0f8f9b          	addiw	x31,x31,160 # 40a0 <machine_csr_jump_table_flags>
    410148a8:	00100f13          	li	x30,1
    410148ac:	01efb023          	sd	x30,0(x31)
    410148b0:	000f0fb7          	lui	x31,0xf0
    410148b4:	001f8f9b          	addiw	x31,x31,1 # f0001 <SID_PBVMS_013_ptw_permission_encodings_stack+0x1d001>
    410148b8:	00cf9f93          	slli	x31,x31,0xc
    410148bc:	005f8f93          	addi	x31,x31,5
    410148c0:	00000073          	ecall
    410148c4:	00713023          	sd	x7,0(x2) # 75000 <tp_csr_storage>
    410148c8:	00616137          	lui	x2,0x616
    410148cc:	b291011b          	addiw	x2,x2,-1239 # 615b29 <SID_PBVMS_001_ptw_no_faults_all_access_types_stack+0x1c8b29>
    410148d0:	00c11113          	slli	x2,x2,0xc
    410148d4:	000012b7          	lui	x5,0x1
    410148d8:	00510133          	add	x2,x2,x5
    410148dc:	ff017113          	andi	x2,x2,-16
    410148e0:	000803b7          	lui	x7,0x80
    410148e4:	00004fb7          	lui	x31,0x4
    410148e8:	0a0f8f9b          	addiw	x31,x31,160 # 40a0 <machine_csr_jump_table_flags>
    410148ec:	00200f13          	li	x30,2
    410148f0:	01efb023          	sd	x30,0(x31)
    410148f4:	000f0fb7          	lui	x31,0xf0
    410148f8:	001f8f9b          	addiw	x31,x31,1 # f0001 <SID_PBVMS_013_ptw_permission_encodings_stack+0x1d001>
    410148fc:	00cf9f93          	slli	x31,x31,0xc
    41014900:	005f8f93          	addi	x31,x31,5
    41014904:	00000073          	ecall
    41014908:	0037ce37          	lui	x28,0x37c
    4101490c:	223e0e1b          	addiw	x28,x28,547 # 37c223 <mem22__pt_level1+0x72223>
    41014910:	00ce1e13          	slli	x28,x28,0xc
    41014914:	000e3783          	ld	x15,0(x28)
    41014918:	000803b7          	lui	x7,0x80
    4101491c:	00004fb7          	lui	x31,0x4
    41014920:	0a0f8f9b          	addiw	x31,x31,160 # 40a0 <machine_csr_jump_table_flags>
    41014924:	00300f13          	li	x30,3
    41014928:	01efb023          	sd	x30,0(x31)
    4101492c:	000f0fb7          	lui	x31,0xf0
    41014930:	001f8f9b          	addiw	x31,x31,1 # f0001 <SID_PBVMS_013_ptw_permission_encodings_stack+0x1d001>
    41014934:	00cf9f93          	slli	x31,x31,0xc
    41014938:	005f8f93          	addi	x31,x31,5
    4101493c:	00000073          	ecall
    41014940:	6063e237          	lui	x4,0x6063e
    41014944:	00d00e13          	li	x28,13
    41014948:	05c23823          	sd	x28,80(x4) # 6063e050 <check_excp_expected_cause>
    4101494c:	00000e17          	auipc	x28,0x0
    41014950:	054e0e13          	addi	x28,x28,84 # 410149a0 <fault_label_9>
    41014954:	03c23023          	sd	x28,32(x4) # 20 <SECURE_ACCESS_PROBABILITY+0x2>
    41014958:	00000e13          	li	x28,0
    4101495c:	05c23023          	sd	x28,64(x4) # 40 <XLEN>
    41014960:	00000e13          	li	x28,0
    41014964:	05c23423          	sd	x28,72(x4) # 48 <XLEN+0x8>
    41014968:	00000e17          	auipc	x28,0x0
    4101496c:	04ce0e13          	addi	x28,x28,76 # 410149b4 <excp_return_label_9>
    41014970:	03c23823          	sd	x28,48(x4) # 30 <SECURE_ACCESS_PROBABILITY+0x12>
    41014974:	00000e13          	li	x28,0
    41014978:	03c23c23          	sd	x28,56(x4) # 38 <SECURE_ACCESS_PROBABILITY+0x1a>
    4101497c:	00000e13          	li	x28,0
    41014980:	07c23023          	sd	x28,96(x4) # 60 <XLEN+0x20>
    41014984:	00000e13          	li	x28,0
    41014988:	07c23423          	sd	x28,104(x4) # 68 <XLEN+0x28>
    4101498c:	00000e13          	li	x28,0
    41014990:	07c23823          	sd	x28,112(x4) # 70 <XLEN+0x30>
    41014994:	0037ceb7          	lui	x29,0x37c
    41014998:	223e8e9b          	addiw	x29,x29,547 # 37c223 <mem22__pt_level1+0x72223>
    4101499c:	00ce9e93          	slli	x29,x29,0xc

00000000410149a0 <fault_label_9>:
    410149a0:	000ede03          	lhu	x28,0(x29)
    410149a4:	000048b7          	lui	x17,0x4
    410149a8:	0088889b          	addiw	x17,x17,8 # 4008 <failed_addr>
    410149ac:	0008bb83          	ld	x23,0(x17)
    410149b0:	000b8067          	jr	x23

00000000410149b4 <excp_return_label_9>:
    410149b4:	000403b7          	lui	x7,0x40
    410149b8:	00004fb7          	lui	x31,0x4
    410149bc:	0a0f8f9b          	addiw	x31,x31,160 # 40a0 <machine_csr_jump_table_flags>
    410149c0:	00200f13          	li	x30,2
    410149c4:	01efb023          	sd	x30,0(x31)
    410149c8:	000f0fb7          	lui	x31,0xf0
    410149cc:	001f8f9b          	addiw	x31,x31,1 # f0001 <SID_PBVMS_013_ptw_permission_encodings_stack+0x1d001>
    410149d0:	00cf9f93          	slli	x31,x31,0xc
    410149d4:	005f8f93          	addi	x31,x31,5
    410149d8:	00000073          	ecall
    410149dc:	00110e37          	lui	x28,0x110
    410149e0:	d57e0e1b          	addiw	x28,x28,-681 # 10fd57 <SID_PBVMS_022_satp_csr_accessibility_stack+0x1ad57>
    410149e4:	00ee1e13          	slli	x28,x28,0xe
    410149e8:	000e2587          	flw	f11,0(x28)
    410149ec:	000403b7          	lui	x7,0x40
    410149f0:	00004fb7          	lui	x31,0x4
    410149f4:	0a0f8f9b          	addiw	x31,x31,160 # 40a0 <machine_csr_jump_table_flags>
    410149f8:	00300f13          	li	x30,3
    410149fc:	01efb023          	sd	x30,0(x31)
    41014a00:	000f0fb7          	lui	x31,0xf0
    41014a04:	001f8f9b          	addiw	x31,x31,1 # f0001 <SID_PBVMS_013_ptw_permission_encodings_stack+0x1d001>
    41014a08:	00cf9f93          	slli	x31,x31,0xc
    41014a0c:	005f8f93          	addi	x31,x31,5
    41014a10:	00000073          	ecall
    41014a14:	6063e237          	lui	x4,0x6063e
    41014a18:	00d00e13          	li	x28,13
    41014a1c:	05c23823          	sd	x28,80(x4) # 6063e050 <check_excp_expected_cause>
    41014a20:	00000e17          	auipc	x28,0x0
    41014a24:	054e0e13          	addi	x28,x28,84 # 41014a74 <fault_label_10>
    41014a28:	03c23023          	sd	x28,32(x4) # 20 <SECURE_ACCESS_PROBABILITY+0x2>
    41014a2c:	00000e13          	li	x28,0
    41014a30:	05c23023          	sd	x28,64(x4) # 40 <XLEN>
    41014a34:	00000e13          	li	x28,0
    41014a38:	05c23423          	sd	x28,72(x4) # 48 <XLEN+0x8>
    41014a3c:	00000e17          	auipc	x28,0x0
    41014a40:	04ce0e13          	addi	x28,x28,76 # 41014a88 <excp_return_label_10>
    41014a44:	03c23823          	sd	x28,48(x4) # 30 <SECURE_ACCESS_PROBABILITY+0x12>
    41014a48:	00000e13          	li	x28,0
    41014a4c:	03c23c23          	sd	x28,56(x4) # 38 <SECURE_ACCESS_PROBABILITY+0x1a>
    41014a50:	00000e13          	li	x28,0
    41014a54:	07c23023          	sd	x28,96(x4) # 60 <XLEN+0x20>
    41014a58:	00000e13          	li	x28,0
    41014a5c:	07c23423          	sd	x28,104(x4) # 68 <XLEN+0x28>
    41014a60:	00000e13          	li	x28,0
    41014a64:	07c23823          	sd	x28,112(x4) # 70 <XLEN+0x30>
    41014a68:	00110cb7          	lui	x25,0x110
    41014a6c:	d57c8c9b          	addiw	x25,x25,-681 # 10fd57 <SID_PBVMS_022_satp_csr_accessibility_stack+0x1ad57>
    41014a70:	00ec9c93          	slli	x25,x25,0xe

0000000041014a74 <fault_label_10>:
    41014a74:	000cbd03          	ld	x26,0(x25)
    41014a78:	00004537          	lui	x10,0x4
    41014a7c:	0085051b          	addiw	x10,x10,8 # 4008 <failed_addr>
    41014a80:	00053303          	ld	x6,0(x10)
    41014a84:	00030067          	jr	x6

0000000041014a88 <excp_return_label_10>:
    41014a88:	00075137          	lui	x2,0x75
    41014a8c:	00013383          	ld	x7,0(x2) # 75000 <tp_csr_storage>
    41014a90:	00004fb7          	lui	x31,0x4
    41014a94:	0a0f8f9b          	addiw	x31,x31,160 # 40a0 <machine_csr_jump_table_flags>
    41014a98:	00600f13          	li	x30,6
    41014a9c:	01efb023          	sd	x30,0(x31)
    41014aa0:	000f0fb7          	lui	x31,0xf0
    41014aa4:	001f8f9b          	addiw	x31,x31,1 # f0001 <SID_PBVMS_013_ptw_permission_encodings_stack+0x1d001>
    41014aa8:	00cf9f93          	slli	x31,x31,0xc
    41014aac:	005f8f93          	addi	x31,x31,5
    41014ab0:	00000073          	ecall

0000000041014ab4 <SID_PBVMS_014_mstatus_sum_mxr_passed>:
    41014ab4:	00f00f9b          	addiw	x31,x0,15
    41014ab8:	01cf9f93          	slli	x31,x31,0x1c
    41014abc:	001f8f93          	addi	x31,x31,1
    41014ac0:	00000073          	ecall

0000000041014ac4 <SID_PBVMS_015_global_bit_honoured>:
    41014ac4:	00075137          	lui	x2,0x75
    41014ac8:	00004fb7          	lui	x31,0x4
    41014acc:	0a0f8f9b          	addiw	x31,x31,160 # 40a0 <machine_csr_jump_table_flags>
    41014ad0:	00700f13          	li	x30,7
    41014ad4:	01efb023          	sd	x30,0(x31)
    41014ad8:	000f0fb7          	lui	x31,0xf0
    41014adc:	001f8f9b          	addiw	x31,x31,1 # f0001 <SID_PBVMS_013_ptw_permission_encodings_stack+0x1d001>
    41014ae0:	00cf9f93          	slli	x31,x31,0xc
    41014ae4:	005f8f93          	addi	x31,x31,5
    41014ae8:	00000073          	ecall
    41014aec:	00713023          	sd	x7,0(x2) # 75000 <tp_csr_storage>
    41014af0:	00224137          	lui	x2,0x224
    41014af4:	7e11011b          	addiw	x2,x2,2017 # 2247e1 <mem11__pt_level1+0x267e1>
    41014af8:	00c11113          	slli	x2,x2,0xc
    41014afc:	79310113          	addi	x2,x2,1939
    41014b00:	00d11113          	slli	x2,x2,0xd
    41014b04:	000012b7          	lui	x5,0x1
    41014b08:	00510133          	add	x2,x2,x5
    41014b0c:	ff017113          	andi	x2,x2,-16
    41014b10:	18002ff3          	csrr	x31,satp
    41014b14:	000f8613          	mv	x12,x31
    41014b18:	00f0079b          	addiw	x15,x0,15
    41014b1c:	02c79793          	slli	x15,x15,0x2c
    41014b20:	1807a4f3          	csrrs	x9,satp,x15
    41014b24:	000088b7          	lui	x17,0x8
    41014b28:	6bc154b7          	lui	x9,0x6bc15
    41014b2c:	3884849b          	addiw	x9,x9,904 # 6bc15388 <current_test_index+0xb5d7200>
    41014b30:	00989023          	sh	x9,0(x17) # 8000 <mem20>
    41014b34:	00f00d1b          	addiw	x26,x0,15
    41014b38:	02cd1d13          	slli	x26,x26,0x2c
    41014b3c:	180d3773          	csrrc	x14,satp,x26
    41014b40:	00008fb7          	lui	x31,0x8
    41014b44:	000fec03          	lwu	x24,0(x31) # 8000 <mem20>
    41014b48:	18061373          	csrrw	x6,satp,x12
    41014b4c:	000089b7          	lui	x19,0x8
    41014b50:	0009a383          	lw	x7,0(x19) # 8000 <mem20>
    41014b54:	00075137          	lui	x2,0x75
    41014b58:	00013383          	ld	x7,0(x2) # 75000 <tp_csr_storage>
    41014b5c:	00004fb7          	lui	x31,0x4
    41014b60:	0a0f8f9b          	addiw	x31,x31,160 # 40a0 <machine_csr_jump_table_flags>
    41014b64:	00800f13          	li	x30,8
    41014b68:	01efb023          	sd	x30,0(x31)
    41014b6c:	000f0fb7          	lui	x31,0xf0
    41014b70:	001f8f9b          	addiw	x31,x31,1 # f0001 <SID_PBVMS_013_ptw_permission_encodings_stack+0x1d001>
    41014b74:	00cf9f93          	slli	x31,x31,0xc
    41014b78:	005f8f93          	addi	x31,x31,5
    41014b7c:	00000073          	ecall

0000000041014b80 <SID_PBVMS_015_global_bit_honoured_passed>:
    41014b80:	00f00f9b          	addiw	x31,x0,15
    41014b84:	01cf9f93          	slli	x31,x31,0x1c
    41014b88:	001f8f93          	addi	x31,x31,1
    41014b8c:	00000073          	ecall

0000000041014b90 <SID_PBVMS_016_non_global_bit_honoured>:
    41014b90:	00075137          	lui	x2,0x75
    41014b94:	00004fb7          	lui	x31,0x4
    41014b98:	0a0f8f9b          	addiw	x31,x31,160 # 40a0 <machine_csr_jump_table_flags>
    41014b9c:	00700f13          	li	x30,7
    41014ba0:	01efb023          	sd	x30,0(x31)
    41014ba4:	000f0fb7          	lui	x31,0xf0
    41014ba8:	001f8f9b          	addiw	x31,x31,1 # f0001 <SID_PBVMS_013_ptw_permission_encodings_stack+0x1d001>
    41014bac:	00cf9f93          	slli	x31,x31,0xc
    41014bb0:	005f8f93          	addi	x31,x31,5
    41014bb4:	00000073          	ecall
    41014bb8:	00713023          	sd	x7,0(x2) # 75000 <tp_csr_storage>
    41014bbc:	001ad137          	lui	x2,0x1ad
    41014bc0:	cbd1011b          	addiw	x2,x2,-835 # 1accbd <mem15+0x2acbd>
    41014bc4:	00f11113          	slli	x2,x2,0xf
    41014bc8:	000012b7          	lui	x5,0x1
    41014bcc:	00510133          	add	x2,x2,x5
    41014bd0:	ff017113          	andi	x2,x2,-16
    41014bd4:	fe90039b          	addiw	x7,x0,-23
    41014bd8:	02739393          	slli	x7,x7,0x27
    41014bdc:	0003ef03          	lwu	x30,0(x7) # 40000 <pma_region_0_size>
    41014be0:	00004fb7          	lui	x31,0x4
    41014be4:	0b0f8f9b          	addiw	x31,x31,176 # 40b0 <pte_access_flags>
    41014be8:	fe90029b          	addiw	x5,x0,-23
    41014bec:	02729293          	slli	x5,x5,0x27
    41014bf0:	005fb023          	sd	x5,0(x31)
    41014bf4:	00300293          	li	x5,3
    41014bf8:	005fb423          	sd	x5,8(x31)
    41014bfc:	fff00293          	li	x5,-1
    41014c00:	005fb823          	sd	x5,16(x31)
    41014c04:	000f0fb7          	lui	x31,0xf0
    41014c08:	001f8f9b          	addiw	x31,x31,1 # f0001 <SID_PBVMS_013_ptw_permission_encodings_stack+0x1d001>
    41014c0c:	00cf9f93          	slli	x31,x31,0xc
    41014c10:	007f8f93          	addi	x31,x31,7
    41014c14:	00000073          	ecall
    41014c18:	ffd00613          	li	x12,-3
    41014c1c:	00c3fb33          	and	x22,x7,x12
    41014c20:	000b0393          	mv	x7,x22
    41014c24:	00004fb7          	lui	x31,0x4
    41014c28:	0b0f8f9b          	addiw	x31,x31,176 # 40b0 <pte_access_flags>
    41014c2c:	fe90029b          	addiw	x5,x0,-23
    41014c30:	02729293          	slli	x5,x5,0x27
    41014c34:	005fb023          	sd	x5,0(x31)
    41014c38:	00300293          	li	x5,3
    41014c3c:	005fb423          	sd	x5,8(x31)
    41014c40:	fff00293          	li	x5,-1
    41014c44:	005fb823          	sd	x5,16(x31)
    41014c48:	000f0fb7          	lui	x31,0xf0
    41014c4c:	001f8f9b          	addiw	x31,x31,1 # f0001 <SID_PBVMS_013_ptw_permission_encodings_stack+0x1d001>
    41014c50:	00cf9f93          	slli	x31,x31,0xc
    41014c54:	008f8f93          	addi	x31,x31,8
    41014c58:	00000073          	ecall
    41014c5c:	0ff00f1b          	addiw	x30,x0,255
    41014c60:	02cf1f13          	slli	x30,x30,0x2c
    41014c64:	180f2cf3          	csrrs	x25,satp,x30
    41014c68:	12000073          	sfence.vma
    41014c6c:	6063e237          	lui	x4,0x6063e
    41014c70:	00d00e13          	li	x28,13
    41014c74:	05c23823          	sd	x28,80(x4) # 6063e050 <check_excp_expected_cause>
    41014c78:	00000e17          	auipc	x28,0x0
    41014c7c:	050e0e13          	addi	x28,x28,80 # 41014cc8 <fault_label_11>
    41014c80:	03c23023          	sd	x28,32(x4) # 20 <SECURE_ACCESS_PROBABILITY+0x2>
    41014c84:	00000e13          	li	x28,0
    41014c88:	05c23023          	sd	x28,64(x4) # 40 <XLEN>
    41014c8c:	00000e13          	li	x28,0
    41014c90:	05c23423          	sd	x28,72(x4) # 48 <XLEN+0x8>
    41014c94:	00000e17          	auipc	x28,0x0
    41014c98:	048e0e13          	addi	x28,x28,72 # 41014cdc <excp_return_label_11>
    41014c9c:	03c23823          	sd	x28,48(x4) # 30 <SECURE_ACCESS_PROBABILITY+0x12>
    41014ca0:	00000e13          	li	x28,0
    41014ca4:	03c23c23          	sd	x28,56(x4) # 38 <SECURE_ACCESS_PROBABILITY+0x1a>
    41014ca8:	00000e13          	li	x28,0
    41014cac:	07c23023          	sd	x28,96(x4) # 60 <XLEN+0x20>
    41014cb0:	00000e13          	li	x28,0
    41014cb4:	07c23423          	sd	x28,104(x4) # 68 <XLEN+0x28>
    41014cb8:	00000e13          	li	x28,0
    41014cbc:	07c23823          	sd	x28,112(x4) # 70 <XLEN+0x30>
    41014cc0:	fe90061b          	addiw	x12,x0,-23
    41014cc4:	02761613          	slli	x12,x12,0x27

0000000041014cc8 <fault_label_11>:
    41014cc8:	00063a83          	ld	x21,0(x12)
    41014ccc:	00004e37          	lui	x28,0x4
    41014cd0:	008e0e1b          	addiw	x28,x28,8 # 4008 <failed_addr>
    41014cd4:	000e3783          	ld	x15,0(x28)
    41014cd8:	00078067          	jr	x15

0000000041014cdc <excp_return_label_11>:
    41014cdc:	00004fb7          	lui	x31,0x4
    41014ce0:	0b0f8f9b          	addiw	x31,x31,176 # 40b0 <pte_access_flags>
    41014ce4:	fe90029b          	addiw	x5,x0,-23
    41014ce8:	02729293          	slli	x5,x5,0x27
    41014cec:	005fb023          	sd	x5,0(x31)
    41014cf0:	00300293          	li	x5,3
    41014cf4:	005fb423          	sd	x5,8(x31)
    41014cf8:	fff00293          	li	x5,-1
    41014cfc:	005fb823          	sd	x5,16(x31)
    41014d00:	000f0fb7          	lui	x31,0xf0
    41014d04:	001f8f9b          	addiw	x31,x31,1 # f0001 <SID_PBVMS_013_ptw_permission_encodings_stack+0x1d001>
    41014d08:	00cf9f93          	slli	x31,x31,0xc
    41014d0c:	007f8f93          	addi	x31,x31,7
    41014d10:	00000073          	ecall
    41014d14:	00200c93          	li	x25,2
    41014d18:	0193ecb3          	or	x25,x7,x25
    41014d1c:	000c8393          	mv	x7,x25
    41014d20:	00004fb7          	lui	x31,0x4
    41014d24:	0b0f8f9b          	addiw	x31,x31,176 # 40b0 <pte_access_flags>
    41014d28:	fe90029b          	addiw	x5,x0,-23
    41014d2c:	02729293          	slli	x5,x5,0x27
    41014d30:	005fb023          	sd	x5,0(x31)
    41014d34:	00300293          	li	x5,3
    41014d38:	005fb423          	sd	x5,8(x31)
    41014d3c:	fff00293          	li	x5,-1
    41014d40:	005fb823          	sd	x5,16(x31)
    41014d44:	000f0fb7          	lui	x31,0xf0
    41014d48:	001f8f9b          	addiw	x31,x31,1 # f0001 <SID_PBVMS_013_ptw_permission_encodings_stack+0x1d001>
    41014d4c:	00cf9f93          	slli	x31,x31,0xc
    41014d50:	008f8f93          	addi	x31,x31,8
    41014d54:	00000073          	ecall
    41014d58:	00075137          	lui	x2,0x75
    41014d5c:	00013383          	ld	x7,0(x2) # 75000 <tp_csr_storage>
    41014d60:	00004fb7          	lui	x31,0x4
    41014d64:	0a0f8f9b          	addiw	x31,x31,160 # 40a0 <machine_csr_jump_table_flags>
    41014d68:	00800f13          	li	x30,8
    41014d6c:	01efb023          	sd	x30,0(x31)
    41014d70:	000f0fb7          	lui	x31,0xf0
    41014d74:	001f8f9b          	addiw	x31,x31,1 # f0001 <SID_PBVMS_013_ptw_permission_encodings_stack+0x1d001>
    41014d78:	00cf9f93          	slli	x31,x31,0xc
    41014d7c:	005f8f93          	addi	x31,x31,5
    41014d80:	00000073          	ecall

0000000041014d84 <SID_PBVMS_016_non_global_bit_honoured_passed>:
    41014d84:	00f00f9b          	addiw	x31,x0,15
    41014d88:	01cf9f93          	slli	x31,x31,0x1c
    41014d8c:	001f8f93          	addi	x31,x31,1
    41014d90:	00000073          	ecall

0000000041014d94 <SID_PBVMS_017_global_at_non_leaf>:
    41014d94:	00075137          	lui	x2,0x75
    41014d98:	00004fb7          	lui	x31,0x4
    41014d9c:	0a0f8f9b          	addiw	x31,x31,160 # 40a0 <machine_csr_jump_table_flags>
    41014da0:	00700f13          	li	x30,7
    41014da4:	01efb023          	sd	x30,0(x31)
    41014da8:	000f0fb7          	lui	x31,0xf0
    41014dac:	001f8f9b          	addiw	x31,x31,1 # f0001 <SID_PBVMS_013_ptw_permission_encodings_stack+0x1d001>
    41014db0:	00cf9f93          	slli	x31,x31,0xc
    41014db4:	005f8f93          	addi	x31,x31,5
    41014db8:	00000073          	ecall
    41014dbc:	00713023          	sd	x7,0(x2) # 75000 <tp_csr_storage>
    41014dc0:	ffff4137          	lui	x2,0xffff4
    41014dc4:	5e31011b          	addiw	x2,x2,1507 # ffffffffffff45e3 <mem37+0xffffff45e3>
    41014dc8:	01011113          	slli	x2,x2,0x10
    41014dcc:	91d10113          	addi	x2,x2,-1763
    41014dd0:	00c11113          	slli	x2,x2,0xc
    41014dd4:	000012b7          	lui	x5,0x1
    41014dd8:	00510133          	add	x2,x2,x5
    41014ddc:	ff017113          	andi	x2,x2,-16
    41014de0:	00004fb7          	lui	x31,0x4
    41014de4:	0b0f8f9b          	addiw	x31,x31,176 # 40b0 <pte_access_flags>
    41014de8:	0050029b          	addiw	x5,x0,5
    41014dec:	02929293          	slli	x5,x5,0x29
    41014df0:	005fb023          	sd	x5,0(x31)
    41014df4:	00100293          	li	x5,1
    41014df8:	005fb423          	sd	x5,8(x31)
    41014dfc:	fff00293          	li	x5,-1
    41014e00:	005fb823          	sd	x5,16(x31)
    41014e04:	000f0fb7          	lui	x31,0xf0
    41014e08:	001f8f9b          	addiw	x31,x31,1 # f0001 <SID_PBVMS_013_ptw_permission_encodings_stack+0x1d001>
    41014e0c:	00cf9f93          	slli	x31,x31,0xc
    41014e10:	007f8f93          	addi	x31,x31,7
    41014e14:	00000073          	ecall
    41014e18:	00038393          	mv	x7,x7
    41014e1c:	00004fb7          	lui	x31,0x4
    41014e20:	0b0f8f9b          	addiw	x31,x31,176 # 40b0 <pte_access_flags>
    41014e24:	0050029b          	addiw	x5,x0,5
    41014e28:	02929293          	slli	x5,x5,0x29
    41014e2c:	005fb023          	sd	x5,0(x31)
    41014e30:	00100293          	li	x5,1
    41014e34:	005fb423          	sd	x5,8(x31)
    41014e38:	fff00293          	li	x5,-1
    41014e3c:	005fb823          	sd	x5,16(x31)
    41014e40:	000f0fb7          	lui	x31,0xf0
    41014e44:	001f8f9b          	addiw	x31,x31,1 # f0001 <SID_PBVMS_013_ptw_permission_encodings_stack+0x1d001>
    41014e48:	00cf9f93          	slli	x31,x31,0xc
    41014e4c:	008f8f93          	addi	x31,x31,8
    41014e50:	00000073          	ecall
    41014e54:	0050071b          	addiw	x14,x0,5
    41014e58:	02971713          	slli	x14,x14,0x29
    41014e5c:	00072887          	flw	f17,0(x14)
    41014e60:	0ff00e1b          	addiw	x28,x0,255
    41014e64:	02ce1e13          	slli	x28,x28,0x2c
    41014e68:	180e2373          	csrrs	x6,satp,x28
    41014e6c:	00500a9b          	addiw	x21,x0,5
    41014e70:	029a9a93          	slli	x21,x21,0x29
    41014e74:	000abb87          	fld	f23,0(x21)
    41014e78:	00075137          	lui	x2,0x75
    41014e7c:	00013383          	ld	x7,0(x2) # 75000 <tp_csr_storage>
    41014e80:	00004fb7          	lui	x31,0x4
    41014e84:	0a0f8f9b          	addiw	x31,x31,160 # 40a0 <machine_csr_jump_table_flags>
    41014e88:	00800f13          	li	x30,8
    41014e8c:	01efb023          	sd	x30,0(x31)
    41014e90:	000f0fb7          	lui	x31,0xf0
    41014e94:	001f8f9b          	addiw	x31,x31,1 # f0001 <SID_PBVMS_013_ptw_permission_encodings_stack+0x1d001>
    41014e98:	00cf9f93          	slli	x31,x31,0xc
    41014e9c:	005f8f93          	addi	x31,x31,5
    41014ea0:	00000073          	ecall

0000000041014ea4 <SID_PBVMS_017_global_at_non_leaf_passed>:
    41014ea4:	00f00f9b          	addiw	x31,x0,15
    41014ea8:	01cf9f93          	slli	x31,x31,0x1c
    41014eac:	001f8f93          	addi	x31,x31,1
    41014eb0:	00000073          	ecall

0000000041014eb4 <SID_PBVMS_018_rsw_fields_writable>:
    41014eb4:	0001d137          	lui	x2,0x1d
    41014eb8:	000012b7          	lui	x5,0x1
    41014ebc:	00510133          	add	x2,x2,x5
    41014ec0:	ff017113          	andi	x2,x2,-16
    41014ec4:	00004fb7          	lui	x31,0x4
    41014ec8:	0b0f8f9b          	addiw	x31,x31,176 # 40b0 <pte_access_flags>
    41014ecc:	0050029b          	addiw	x5,x0,5
    41014ed0:	02729293          	slli	x5,x5,0x27
    41014ed4:	005fb023          	sd	x5,0(x31)
    41014ed8:	00300293          	li	x5,3
    41014edc:	005fb423          	sd	x5,8(x31)
    41014ee0:	fff00293          	li	x5,-1
    41014ee4:	005fb823          	sd	x5,16(x31)
    41014ee8:	000f0fb7          	lui	x31,0xf0
    41014eec:	001f8f9b          	addiw	x31,x31,1 # f0001 <SID_PBVMS_013_ptw_permission_encodings_stack+0x1d001>
    41014ef0:	00cf9f93          	slli	x31,x31,0xc
    41014ef4:	007f8f93          	addi	x31,x31,7
    41014ef8:	00000073          	ecall
    41014efc:	30000a93          	li	x21,768
    41014f00:	0153e433          	or	x8,x7,x21
    41014f04:	00040393          	mv	x7,x8
    41014f08:	00004fb7          	lui	x31,0x4
    41014f0c:	0b0f8f9b          	addiw	x31,x31,176 # 40b0 <pte_access_flags>
    41014f10:	0050029b          	addiw	x5,x0,5
    41014f14:	02729293          	slli	x5,x5,0x27
    41014f18:	005fb023          	sd	x5,0(x31)
    41014f1c:	00300293          	li	x5,3
    41014f20:	005fb423          	sd	x5,8(x31)
    41014f24:	fff00293          	li	x5,-1
    41014f28:	005fb823          	sd	x5,16(x31)
    41014f2c:	000f0fb7          	lui	x31,0xf0
    41014f30:	001f8f9b          	addiw	x31,x31,1 # f0001 <SID_PBVMS_013_ptw_permission_encodings_stack+0x1d001>
    41014f34:	00cf9f93          	slli	x31,x31,0xc
    41014f38:	008f8f93          	addi	x31,x31,8
    41014f3c:	00000073          	ecall
    41014f40:	00004fb7          	lui	x31,0x4
    41014f44:	0b0f8f9b          	addiw	x31,x31,176 # 40b0 <pte_access_flags>
    41014f48:	0050029b          	addiw	x5,x0,5
    41014f4c:	02729293          	slli	x5,x5,0x27
    41014f50:	005fb023          	sd	x5,0(x31)
    41014f54:	00300293          	li	x5,3
    41014f58:	005fb423          	sd	x5,8(x31)
    41014f5c:	fff00293          	li	x5,-1
    41014f60:	005fb823          	sd	x5,16(x31)
    41014f64:	000f0fb7          	lui	x31,0xf0
    41014f68:	001f8f9b          	addiw	x31,x31,1 # f0001 <SID_PBVMS_013_ptw_permission_encodings_stack+0x1d001>
    41014f6c:	00cf9f93          	slli	x31,x31,0xc
    41014f70:	007f8f93          	addi	x31,x31,7
    41014f74:	00000073          	ecall
    41014f78:	0153f433          	and	x8,x7,x21
    41014f7c:	01540a63          	beq	x8,x21,41014f90 <pass_label_0>
    41014f80:	000048b7          	lui	x17,0x4
    41014f84:	0088889b          	addiw	x17,x17,8 # 4008 <failed_addr>
    41014f88:	0008b603          	ld	x12,0(x17)
    41014f8c:	00060067          	jr	x12

0000000041014f90 <pass_label_0>:
    41014f90:	00004fb7          	lui	x31,0x4
    41014f94:	0b0f8f9b          	addiw	x31,x31,176 # 40b0 <pte_access_flags>
    41014f98:	0050029b          	addiw	x5,x0,5
    41014f9c:	02729293          	slli	x5,x5,0x27
    41014fa0:	005fb023          	sd	x5,0(x31)
    41014fa4:	00100293          	li	x5,1
    41014fa8:	005fb423          	sd	x5,8(x31)
    41014fac:	fff00293          	li	x5,-1
    41014fb0:	005fb823          	sd	x5,16(x31)
    41014fb4:	000f0fb7          	lui	x31,0xf0
    41014fb8:	001f8f9b          	addiw	x31,x31,1 # f0001 <SID_PBVMS_013_ptw_permission_encodings_stack+0x1d001>
    41014fbc:	00cf9f93          	slli	x31,x31,0xc
    41014fc0:	007f8f93          	addi	x31,x31,7
    41014fc4:	00000073          	ecall
    41014fc8:	0153e7b3          	or	x15,x7,x21
    41014fcc:	00078393          	mv	x7,x15
    41014fd0:	00004fb7          	lui	x31,0x4
    41014fd4:	0b0f8f9b          	addiw	x31,x31,176 # 40b0 <pte_access_flags>
    41014fd8:	0050029b          	addiw	x5,x0,5
    41014fdc:	02729293          	slli	x5,x5,0x27
    41014fe0:	005fb023          	sd	x5,0(x31)
    41014fe4:	00100293          	li	x5,1
    41014fe8:	005fb423          	sd	x5,8(x31)
    41014fec:	fff00293          	li	x5,-1
    41014ff0:	005fb823          	sd	x5,16(x31)
    41014ff4:	000f0fb7          	lui	x31,0xf0
    41014ff8:	001f8f9b          	addiw	x31,x31,1 # f0001 <SID_PBVMS_013_ptw_permission_encodings_stack+0x1d001>
    41014ffc:	00cf9f93          	slli	x31,x31,0xc
    41015000:	008f8f93          	addi	x31,x31,8
    41015004:	00000073          	ecall
    41015008:	0050049b          	addiw	x9,x0,5
    4101500c:	02749493          	slli	x9,x9,0x27
    41015010:	0004ab03          	lw	x22,0(x9)

0000000041015014 <SID_PBVMS_018_rsw_fields_writable_passed>:
    41015014:	00f00f9b          	addiw	x31,x0,15
    41015018:	01cf9f93          	slli	x31,x31,0x1c
    4101501c:	001f8f93          	addi	x31,x31,1
    41015020:	00000073          	ecall

0000000041015024 <SID_PBVMS_021_satp_valid_to_reserved>:
    41015024:	00075137          	lui	x2,0x75
    41015028:	00004fb7          	lui	x31,0x4
    4101502c:	0a0f8f9b          	addiw	x31,x31,160 # 40a0 <machine_csr_jump_table_flags>
    41015030:	00700f13          	li	x30,7
    41015034:	01efb023          	sd	x30,0(x31)
    41015038:	000f0fb7          	lui	x31,0xf0
    4101503c:	001f8f9b          	addiw	x31,x31,1 # f0001 <SID_PBVMS_013_ptw_permission_encodings_stack+0x1d001>
    41015040:	00cf9f93          	slli	x31,x31,0xc
    41015044:	005f8f93          	addi	x31,x31,5
    41015048:	00000073          	ecall
    4101504c:	00713023          	sd	x7,0(x2) # 75000 <tp_csr_storage>
    41015050:	13b6d137          	lui	x2,0x13b6d
    41015054:	000012b7          	lui	x5,0x1
    41015058:	00510133          	add	x2,x2,x5
    4101505c:	ff017113          	andi	x2,x2,-16
    41015060:	18002473          	csrr	x8,satp
    41015064:	0010049b          	addiw	x9,x0,1
    41015068:	03d49493          	slli	x9,x9,0x3d
    4101506c:	180498f3          	csrrw	x17,satp,x9
    41015070:	18002973          	csrr	x18,satp
    41015074:	01240a63          	beq	x8,x18,41015088 <pass_label_1>
    41015078:	000048b7          	lui	x17,0x4
    4101507c:	0088889b          	addiw	x17,x17,8 # 4008 <failed_addr>
    41015080:	0008b683          	ld	x13,0(x17)
    41015084:	00068067          	jr	x13

0000000041015088 <pass_label_1>:
    41015088:	00075137          	lui	x2,0x75
    4101508c:	00013383          	ld	x7,0(x2) # 75000 <tp_csr_storage>
    41015090:	00004fb7          	lui	x31,0x4
    41015094:	0a0f8f9b          	addiw	x31,x31,160 # 40a0 <machine_csr_jump_table_flags>
    41015098:	00800f13          	li	x30,8
    4101509c:	01efb023          	sd	x30,0(x31)
    410150a0:	000f0fb7          	lui	x31,0xf0
    410150a4:	001f8f9b          	addiw	x31,x31,1 # f0001 <SID_PBVMS_013_ptw_permission_encodings_stack+0x1d001>
    410150a8:	00cf9f93          	slli	x31,x31,0xc
    410150ac:	005f8f93          	addi	x31,x31,5
    410150b0:	00000073          	ecall

00000000410150b4 <SID_PBVMS_021_satp_valid_to_reserved_passed>:
    410150b4:	00f00f9b          	addiw	x31,x0,15
    410150b8:	01cf9f93          	slli	x31,x31,0x1c
    410150bc:	001f8f93          	addi	x31,x31,1
    410150c0:	00000073          	ecall

00000000410150c4 <SID_PBVMS_022_satp_csr_accessibility>:
    410150c4:	00075137          	lui	x2,0x75
    410150c8:	00004fb7          	lui	x31,0x4
    410150cc:	0a0f8f9b          	addiw	x31,x31,160 # 40a0 <machine_csr_jump_table_flags>
    410150d0:	00700f13          	li	x30,7
    410150d4:	01efb023          	sd	x30,0(x31)
    410150d8:	000f0fb7          	lui	x31,0xf0
    410150dc:	001f8f9b          	addiw	x31,x31,1 # f0001 <SID_PBVMS_013_ptw_permission_encodings_stack+0x1d001>
    410150e0:	00cf9f93          	slli	x31,x31,0xc
    410150e4:	005f8f93          	addi	x31,x31,5
    410150e8:	00000073          	ecall
    410150ec:	00713023          	sd	x7,0(x2) # 75000 <tp_csr_storage>
    410150f0:	000f5137          	lui	x2,0xf5
    410150f4:	000012b7          	lui	x5,0x1
    410150f8:	00510133          	add	x2,x2,x5
    410150fc:	ff017113          	andi	x2,x2,-16
    41015100:	180029f3          	csrr	x19,satp
    41015104:	18099cf3          	csrrw	x25,satp,x19
    41015108:	00075137          	lui	x2,0x75
    4101510c:	00013383          	ld	x7,0(x2) # 75000 <tp_csr_storage>
    41015110:	00004fb7          	lui	x31,0x4
    41015114:	0a0f8f9b          	addiw	x31,x31,160 # 40a0 <machine_csr_jump_table_flags>
    41015118:	00800f13          	li	x30,8
    4101511c:	01efb023          	sd	x30,0(x31)
    41015120:	000f0fb7          	lui	x31,0xf0
    41015124:	001f8f9b          	addiw	x31,x31,1 # f0001 <SID_PBVMS_013_ptw_permission_encodings_stack+0x1d001>
    41015128:	00cf9f93          	slli	x31,x31,0xc
    4101512c:	005f8f93          	addi	x31,x31,5
    41015130:	00000073          	ecall

0000000041015134 <SID_PBVMS_022_satp_csr_accessibility_passed>:
    41015134:	00f00f9b          	addiw	x31,x0,15
    41015138:	01cf9f93          	slli	x31,x31,0x1c
    4101513c:	001f8f93          	addi	x31,x31,1
    41015140:	00000073          	ecall

0000000041015144 <SID_PBVMS_023_satp_asidlen_discovery>:
    41015144:	00075137          	lui	x2,0x75
    41015148:	00004fb7          	lui	x31,0x4
    4101514c:	0a0f8f9b          	addiw	x31,x31,160 # 40a0 <machine_csr_jump_table_flags>
    41015150:	00700f13          	li	x30,7
    41015154:	01efb023          	sd	x30,0(x31)
    41015158:	000f0fb7          	lui	x31,0xf0
    4101515c:	001f8f9b          	addiw	x31,x31,1 # f0001 <SID_PBVMS_013_ptw_permission_encodings_stack+0x1d001>
    41015160:	00cf9f93          	slli	x31,x31,0xc
    41015164:	005f8f93          	addi	x31,x31,5
    41015168:	00000073          	ecall
    4101516c:	00713023          	sd	x7,0(x2) # 75000 <tp_csr_storage>
    41015170:	00845137          	lui	x2,0x845
    41015174:	f411011b          	addiw	x2,x2,-191 # 844f41 <mem32__pt_level0+0x5cf41>
    41015178:	00e11113          	slli	x2,x2,0xe
    4101517c:	000012b7          	lui	x5,0x1
    41015180:	00510133          	add	x2,x2,x5
    41015184:	ff017113          	andi	x2,x2,-16
    41015188:	18002773          	csrr	x14,satp
    4101518c:	00010537          	lui	x10,0x10
    41015190:	fff5051b          	addiw	x10,x10,-1 # ffff <mem27+0x1fff>
    41015194:	02c51513          	slli	x10,x10,0x2c
    41015198:	00a76333          	or	x6,x14,x10
    4101519c:	18031d73          	csrrw	x26,satp,x6
    410151a0:	18002473          	csrr	x8,satp
    410151a4:	02c00e93          	li	x29,44
    410151a8:	01d45833          	srl	x16,x8,x29
    410151ac:	00010fb7          	lui	x31,0x10
    410151b0:	ffff8f9b          	addiw	x31,x31,-1 # ffff <mem27+0x1fff>
    410151b4:	01f87cb3          	and	x25,x16,x31
    410151b8:	01fc8a63          	beq	x25,x31,410151cc <pass_label_2>
    410151bc:	000047b7          	lui	x15,0x4
    410151c0:	0087879b          	addiw	x15,x15,8 # 4008 <failed_addr>
    410151c4:	0007bc83          	ld	x25,0(x15)
    410151c8:	000c8067          	jr	x25

00000000410151cc <pass_label_2>:
    410151cc:	00075137          	lui	x2,0x75
    410151d0:	00013383          	ld	x7,0(x2) # 75000 <tp_csr_storage>
    410151d4:	00004fb7          	lui	x31,0x4
    410151d8:	0a0f8f9b          	addiw	x31,x31,160 # 40a0 <machine_csr_jump_table_flags>
    410151dc:	00800f13          	li	x30,8
    410151e0:	01efb023          	sd	x30,0(x31)
    410151e4:	000f0fb7          	lui	x31,0xf0
    410151e8:	001f8f9b          	addiw	x31,x31,1 # f0001 <SID_PBVMS_013_ptw_permission_encodings_stack+0x1d001>
    410151ec:	00cf9f93          	slli	x31,x31,0xc
    410151f0:	005f8f93          	addi	x31,x31,5
    410151f4:	00000073          	ecall

00000000410151f8 <SID_PBVMS_023_satp_asidlen_discovery_passed>:
    410151f8:	00f00f9b          	addiw	x31,x0,15
    410151fc:	01cf9f93          	slli	x31,x31,0x1c
    41015200:	001f8f93          	addi	x31,x31,1
    41015204:	00000073          	ecall

0000000041015208 <SID_PBVMS_025_mstatus_tvm_satp_access>:
    41015208:	00075137          	lui	x2,0x75
    4101520c:	00004fb7          	lui	x31,0x4
    41015210:	0a0f8f9b          	addiw	x31,x31,160 # 40a0 <machine_csr_jump_table_flags>
    41015214:	00100f13          	li	x30,1
    41015218:	01efb023          	sd	x30,0(x31)
    4101521c:	000f0fb7          	lui	x31,0xf0
    41015220:	001f8f9b          	addiw	x31,x31,1 # f0001 <SID_PBVMS_013_ptw_permission_encodings_stack+0x1d001>
    41015224:	00cf9f93          	slli	x31,x31,0xc
    41015228:	005f8f93          	addi	x31,x31,5
    4101522c:	00000073          	ecall
    41015230:	00713023          	sd	x7,0(x2) # 75000 <tp_csr_storage>
    41015234:	001e0137          	lui	x2,0x1e0
    41015238:	000012b7          	lui	x5,0x1
    4101523c:	00510133          	add	x2,x2,x5
    41015240:	ff017113          	andi	x2,x2,-16
    41015244:	001003b7          	lui	x7,0x100
    41015248:	00004fb7          	lui	x31,0x4
    4101524c:	0a0f8f9b          	addiw	x31,x31,160 # 40a0 <machine_csr_jump_table_flags>
    41015250:	00200f13          	li	x30,2
    41015254:	01efb023          	sd	x30,0(x31)
    41015258:	000f0fb7          	lui	x31,0xf0
    4101525c:	001f8f9b          	addiw	x31,x31,1 # f0001 <SID_PBVMS_013_ptw_permission_encodings_stack+0x1d001>
    41015260:	00cf9f93          	slli	x31,x31,0xc
    41015264:	005f8f93          	addi	x31,x31,5
    41015268:	00000073          	ecall
    4101526c:	6063e237          	lui	x4,0x6063e
    41015270:	00200e13          	li	x28,2
    41015274:	05c23823          	sd	x28,80(x4) # 6063e050 <check_excp_expected_cause>
    41015278:	00000e17          	auipc	x28,0x0
    4101527c:	048e0e13          	addi	x28,x28,72 # 410152c0 <fault_label_12>
    41015280:	03c23023          	sd	x28,32(x4) # 20 <SECURE_ACCESS_PROBABILITY+0x2>
    41015284:	00000e13          	li	x28,0
    41015288:	05c23023          	sd	x28,64(x4) # 40 <XLEN>
    4101528c:	00000e13          	li	x28,0
    41015290:	05c23423          	sd	x28,72(x4) # 48 <XLEN+0x8>
    41015294:	00000e17          	auipc	x28,0x0
    41015298:	040e0e13          	addi	x28,x28,64 # 410152d4 <excp_return_label_12>
    4101529c:	03c23823          	sd	x28,48(x4) # 30 <SECURE_ACCESS_PROBABILITY+0x12>
    410152a0:	00000e13          	li	x28,0
    410152a4:	03c23c23          	sd	x28,56(x4) # 38 <SECURE_ACCESS_PROBABILITY+0x1a>
    410152a8:	00000e13          	li	x28,0
    410152ac:	07c23023          	sd	x28,96(x4) # 60 <XLEN+0x20>
    410152b0:	00000e13          	li	x28,0
    410152b4:	07c23423          	sd	x28,104(x4) # 68 <XLEN+0x28>
    410152b8:	00000e13          	li	x28,0
    410152bc:	07c23823          	sd	x28,112(x4) # 70 <XLEN+0x30>

00000000410152c0 <fault_label_12>:
    410152c0:	18002ef3          	csrr	x29,satp
    410152c4:	00004d37          	lui	x26,0x4
    410152c8:	008d0d1b          	addiw	x26,x26,8 # 4008 <failed_addr>
    410152cc:	000d3b83          	ld	x23,0(x26)
    410152d0:	000b8067          	jr	x23

00000000410152d4 <excp_return_label_12>:
    410152d4:	6063e237          	lui	x4,0x6063e
    410152d8:	00200e13          	li	x28,2
    410152dc:	05c23823          	sd	x28,80(x4) # 6063e050 <check_excp_expected_cause>
    410152e0:	00000e17          	auipc	x28,0x0
    410152e4:	048e0e13          	addi	x28,x28,72 # 41015328 <fault_label_13>
    410152e8:	03c23023          	sd	x28,32(x4) # 20 <SECURE_ACCESS_PROBABILITY+0x2>
    410152ec:	00000e13          	li	x28,0
    410152f0:	05c23023          	sd	x28,64(x4) # 40 <XLEN>
    410152f4:	00000e13          	li	x28,0
    410152f8:	05c23423          	sd	x28,72(x4) # 48 <XLEN+0x8>
    410152fc:	00000e17          	auipc	x28,0x0
    41015300:	040e0e13          	addi	x28,x28,64 # 4101533c <excp_return_label_13>
    41015304:	03c23823          	sd	x28,48(x4) # 30 <SECURE_ACCESS_PROBABILITY+0x12>
    41015308:	00000e13          	li	x28,0
    4101530c:	03c23c23          	sd	x28,56(x4) # 38 <SECURE_ACCESS_PROBABILITY+0x1a>
    41015310:	00000e13          	li	x28,0
    41015314:	07c23023          	sd	x28,96(x4) # 60 <XLEN+0x20>
    41015318:	00000e13          	li	x28,0
    4101531c:	07c23423          	sd	x28,104(x4) # 68 <XLEN+0x28>
    41015320:	00000e13          	li	x28,0
    41015324:	07c23823          	sd	x28,112(x4) # 70 <XLEN+0x30>

0000000041015328 <fault_label_13>:
    41015328:	18005473          	csrrwi	x8,satp,0
    4101532c:	00004a37          	lui	x20,0x4
    41015330:	008a0a1b          	addiw	x20,x20,8 # 4008 <failed_addr>
    41015334:	000a3703          	ld	x14,0(x20)
    41015338:	00070067          	jr	x14

000000004101533c <excp_return_label_13>:
    4101533c:	001003b7          	lui	x7,0x100
    41015340:	00004fb7          	lui	x31,0x4
    41015344:	0a0f8f9b          	addiw	x31,x31,160 # 40a0 <machine_csr_jump_table_flags>
    41015348:	00300f13          	li	x30,3
    4101534c:	01efb023          	sd	x30,0(x31)
    41015350:	000f0fb7          	lui	x31,0xf0
    41015354:	001f8f9b          	addiw	x31,x31,1 # f0001 <SID_PBVMS_013_ptw_permission_encodings_stack+0x1d001>
    41015358:	00cf9f93          	slli	x31,x31,0xc
    4101535c:	005f8f93          	addi	x31,x31,5
    41015360:	00000073          	ecall
    41015364:	18002af3          	csrr	x21,satp
    41015368:	00075137          	lui	x2,0x75
    4101536c:	00013383          	ld	x7,0(x2) # 75000 <tp_csr_storage>
    41015370:	00004fb7          	lui	x31,0x4
    41015374:	0a0f8f9b          	addiw	x31,x31,160 # 40a0 <machine_csr_jump_table_flags>
    41015378:	00600f13          	li	x30,6
    4101537c:	01efb023          	sd	x30,0(x31)
    41015380:	000f0fb7          	lui	x31,0xf0
    41015384:	001f8f9b          	addiw	x31,x31,1 # f0001 <SID_PBVMS_013_ptw_permission_encodings_stack+0x1d001>
    41015388:	00cf9f93          	slli	x31,x31,0xc
    4101538c:	005f8f93          	addi	x31,x31,5
    41015390:	00000073          	ecall

0000000041015394 <SID_PBVMS_025_mstatus_tvm_satp_access_passed>:
    41015394:	00f00f9b          	addiw	x31,x0,15
    41015398:	01cf9f93          	slli	x31,x31,0x1c
    4101539c:	001f8f93          	addi	x31,x31,1
    410153a0:	00000073          	ecall

00000000410153a4 <SID_PBVMS_026_tlb_asid_match>:
    410153a4:	00075137          	lui	x2,0x75
    410153a8:	00004fb7          	lui	x31,0x4
    410153ac:	0a0f8f9b          	addiw	x31,x31,160 # 40a0 <machine_csr_jump_table_flags>
    410153b0:	00700f13          	li	x30,7
    410153b4:	01efb023          	sd	x30,0(x31)
    410153b8:	000f0fb7          	lui	x31,0xf0
    410153bc:	001f8f9b          	addiw	x31,x31,1 # f0001 <SID_PBVMS_013_ptw_permission_encodings_stack+0x1d001>
    410153c0:	00cf9f93          	slli	x31,x31,0xc
    410153c4:	005f8f93          	addi	x31,x31,5
    410153c8:	00000073          	ecall
    410153cc:	00713023          	sd	x7,0(x2) # 75000 <tp_csr_storage>
    410153d0:	fde9f137          	lui	x2,0xfde9f
    410153d4:	cf31011b          	addiw	x2,x2,-781 # fffffffffde9ecf3 <mem37+0xfffde9ecf3>
    410153d8:	00f11113          	slli	x2,x2,0xf
    410153dc:	000012b7          	lui	x5,0x1
    410153e0:	00510133          	add	x2,x2,x5
    410153e4:	ff017113          	andi	x2,x2,-16
    410153e8:	18002c73          	csrr	x24,satp
    410153ec:	00100e1b          	addiw	x28,x0,1
    410153f0:	02ce1e13          	slli	x28,x28,0x2c
    410153f4:	180e29f3          	csrrs	x19,satp,x28
    410153f8:	00100d1b          	addiw	x26,x0,1
    410153fc:	029d1d13          	slli	x26,x26,0x29
    41015400:	000d4603          	lbu	x12,0(x26)
    41015404:	00004fb7          	lui	x31,0x4
    41015408:	0b0f8f9b          	addiw	x31,x31,176 # 40b0 <pte_access_flags>
    4101540c:	0010029b          	addiw	x5,x0,1
    41015410:	02929293          	slli	x5,x5,0x29
    41015414:	005fb023          	sd	x5,0(x31)
    41015418:	00300293          	li	x5,3
    4101541c:	005fb423          	sd	x5,8(x31)
    41015420:	fff00293          	li	x5,-1
    41015424:	005fb823          	sd	x5,16(x31)
    41015428:	000f0fb7          	lui	x31,0xf0
    4101542c:	001f8f9b          	addiw	x31,x31,1 # f0001 <SID_PBVMS_013_ptw_permission_encodings_stack+0x1d001>
    41015430:	00cf9f93          	slli	x31,x31,0xc
    41015434:	007f8f93          	addi	x31,x31,7
    41015438:	00000073          	ecall
    4101543c:	ffd00c93          	li	x25,-3
    41015440:	0193f533          	and	x10,x7,x25
    41015444:	00050393          	mv	x7,x10
    41015448:	00004fb7          	lui	x31,0x4
    4101544c:	0b0f8f9b          	addiw	x31,x31,176 # 40b0 <pte_access_flags>
    41015450:	0010029b          	addiw	x5,x0,1
    41015454:	02929293          	slli	x5,x5,0x29
    41015458:	005fb023          	sd	x5,0(x31)
    4101545c:	00300293          	li	x5,3
    41015460:	005fb423          	sd	x5,8(x31)
    41015464:	fff00293          	li	x5,-1
    41015468:	005fb823          	sd	x5,16(x31)
    4101546c:	000f0fb7          	lui	x31,0xf0
    41015470:	001f8f9b          	addiw	x31,x31,1 # f0001 <SID_PBVMS_013_ptw_permission_encodings_stack+0x1d001>
    41015474:	00cf9f93          	slli	x31,x31,0xc
    41015478:	008f8f93          	addi	x31,x31,8
    4101547c:	00000073          	ecall
    41015480:	00100d1b          	addiw	x26,x0,1
    41015484:	02dd1d13          	slli	x26,x26,0x2d
    41015488:	180d2b73          	csrrs	x22,satp,x26
    4101548c:	12000073          	sfence.vma
    41015490:	6063e237          	lui	x4,0x6063e
    41015494:	00d00e13          	li	x28,13
    41015498:	05c23823          	sd	x28,80(x4) # 6063e050 <check_excp_expected_cause>
    4101549c:	00000e17          	auipc	x28,0x0
    410154a0:	050e0e13          	addi	x28,x28,80 # 410154ec <fault_label_14>
    410154a4:	03c23023          	sd	x28,32(x4) # 20 <SECURE_ACCESS_PROBABILITY+0x2>
    410154a8:	00000e13          	li	x28,0
    410154ac:	05c23023          	sd	x28,64(x4) # 40 <XLEN>
    410154b0:	00000e13          	li	x28,0
    410154b4:	05c23423          	sd	x28,72(x4) # 48 <XLEN+0x8>
    410154b8:	00000e17          	auipc	x28,0x0
    410154bc:	048e0e13          	addi	x28,x28,72 # 41015500 <excp_return_label_14>
    410154c0:	03c23823          	sd	x28,48(x4) # 30 <SECURE_ACCESS_PROBABILITY+0x12>
    410154c4:	00000e13          	li	x28,0
    410154c8:	03c23c23          	sd	x28,56(x4) # 38 <SECURE_ACCESS_PROBABILITY+0x1a>
    410154cc:	00000e13          	li	x28,0
    410154d0:	07c23023          	sd	x28,96(x4) # 60 <XLEN+0x20>
    410154d4:	00000e13          	li	x28,0
    410154d8:	07c23423          	sd	x28,104(x4) # 68 <XLEN+0x28>
    410154dc:	00000e13          	li	x28,0
    410154e0:	07c23823          	sd	x28,112(x4) # 70 <XLEN+0x30>
    410154e4:	0010091b          	addiw	x18,x0,1
    410154e8:	02991913          	slli	x18,x18,0x29

00000000410154ec <fault_label_14>:
    410154ec:	00091c03          	lh	x24,0(x18)
    410154f0:	00004fb7          	lui	x31,0x4
    410154f4:	008f8f9b          	addiw	x31,x31,8 # 4008 <failed_addr>
    410154f8:	000fb303          	ld	x6,0(x31)
    410154fc:	00030067          	jr	x6

0000000041015500 <excp_return_label_14>:
    41015500:	00004fb7          	lui	x31,0x4
    41015504:	0b0f8f9b          	addiw	x31,x31,176 # 40b0 <pte_access_flags>
    41015508:	0010029b          	addiw	x5,x0,1
    4101550c:	02929293          	slli	x5,x5,0x29
    41015510:	005fb023          	sd	x5,0(x31)
    41015514:	00300293          	li	x5,3
    41015518:	005fb423          	sd	x5,8(x31)
    4101551c:	fff00293          	li	x5,-1
    41015520:	005fb823          	sd	x5,16(x31)
    41015524:	000f0fb7          	lui	x31,0xf0
    41015528:	001f8f9b          	addiw	x31,x31,1 # f0001 <SID_PBVMS_013_ptw_permission_encodings_stack+0x1d001>
    4101552c:	00cf9f93          	slli	x31,x31,0xc
    41015530:	007f8f93          	addi	x31,x31,7
    41015534:	00000073          	ecall
    41015538:	00200b93          	li	x23,2
    4101553c:	0173eb33          	or	x22,x7,x23
    41015540:	000b0393          	mv	x7,x22
    41015544:	00004fb7          	lui	x31,0x4
    41015548:	0b0f8f9b          	addiw	x31,x31,176 # 40b0 <pte_access_flags>
    4101554c:	0010029b          	addiw	x5,x0,1
    41015550:	02929293          	slli	x5,x5,0x29
    41015554:	005fb023          	sd	x5,0(x31)
    41015558:	00300293          	li	x5,3
    4101555c:	005fb423          	sd	x5,8(x31)
    41015560:	fff00293          	li	x5,-1
    41015564:	005fb823          	sd	x5,16(x31)
    41015568:	000f0fb7          	lui	x31,0xf0
    4101556c:	001f8f9b          	addiw	x31,x31,1 # f0001 <SID_PBVMS_013_ptw_permission_encodings_stack+0x1d001>
    41015570:	00cf9f93          	slli	x31,x31,0xc
    41015574:	008f8f93          	addi	x31,x31,8
    41015578:	00000073          	ecall
    4101557c:	00075137          	lui	x2,0x75
    41015580:	00013383          	ld	x7,0(x2) # 75000 <tp_csr_storage>
    41015584:	00004fb7          	lui	x31,0x4
    41015588:	0a0f8f9b          	addiw	x31,x31,160 # 40a0 <machine_csr_jump_table_flags>
    4101558c:	00800f13          	li	x30,8
    41015590:	01efb023          	sd	x30,0(x31)
    41015594:	000f0fb7          	lui	x31,0xf0
    41015598:	001f8f9b          	addiw	x31,x31,1 # f0001 <SID_PBVMS_013_ptw_permission_encodings_stack+0x1d001>
    4101559c:	00cf9f93          	slli	x31,x31,0xc
    410155a0:	005f8f93          	addi	x31,x31,5
    410155a4:	00000073          	ecall

00000000410155a8 <SID_PBVMS_026_tlb_asid_match_passed>:
    410155a8:	00f00f9b          	addiw	x31,x0,15
    410155ac:	01cf9f93          	slli	x31,x31,0x1c
    410155b0:	001f8f93          	addi	x31,x31,1
    410155b4:	00000073          	ecall

00000000410155b8 <SID_PBVMS_028_sfence_vma_opcode_coverage>:
    410155b8:	4a3b8137          	lui	x2,0x4a3b8
    410155bc:	dd31011b          	addiw	x2,x2,-557 # 4a3b7dd3 <SID_PBVMS_009_superpage_alignment_fault_stack+0x4e83dd3>
    410155c0:	00d11113          	slli	x2,x2,0xd
    410155c4:	000012b7          	lui	x5,0x1
    410155c8:	00510133          	add	x2,x2,x5
    410155cc:	ff017113          	andi	x2,x2,-16
    410155d0:	a4000937          	lui	x18,0xa4000
    410155d4:	fff9091b          	addiw	x18,x18,-1 # ffffffffa3ffffff <mem37+0xffa3ffffff>
    410155d8:	00d91913          	slli	x18,x18,0xd
    410155dc:	00100793          	li	x15,1
    410155e0:	12000073          	sfence.vma
    410155e4:	12090073          	sfence.vma	x18
    410155e8:	12f00073          	sfence.vma	x0,x15
    410155ec:	12f90073          	sfence.vma	x18,x15

00000000410155f0 <SID_PBVMS_028_sfence_vma_opcode_coverage_passed>:
    410155f0:	00f00f9b          	addiw	x31,x0,15
    410155f4:	01cf9f93          	slli	x31,x31,0x1c
    410155f8:	001f8f93          	addi	x31,x31,1
    410155fc:	00000073          	ecall

0000000041015600 <SID_PBVMS_029_ordering_satp_mstatus_without_sfence>:
    41015600:	00075137          	lui	x2,0x75
    41015604:	00004fb7          	lui	x31,0x4
    41015608:	0a0f8f9b          	addiw	x31,x31,160 # 40a0 <machine_csr_jump_table_flags>
    4101560c:	00100f13          	li	x30,1
    41015610:	01efb023          	sd	x30,0(x31)
    41015614:	000f0fb7          	lui	x31,0xf0
    41015618:	001f8f9b          	addiw	x31,x31,1 # f0001 <SID_PBVMS_013_ptw_permission_encodings_stack+0x1d001>
    4101561c:	00cf9f93          	slli	x31,x31,0xc
    41015620:	005f8f93          	addi	x31,x31,5
    41015624:	00000073          	ecall
    41015628:	00713023          	sd	x7,0(x2) # 75000 <tp_csr_storage>
    4101562c:	0025a137          	lui	x2,0x25a
    41015630:	000012b7          	lui	x5,0x1
    41015634:	00510133          	add	x2,x2,x5
    41015638:	ff017113          	andi	x2,x2,-16
    4101563c:	000803b7          	lui	x7,0x80
    41015640:	00004fb7          	lui	x31,0x4
    41015644:	0a0f8f9b          	addiw	x31,x31,160 # 40a0 <machine_csr_jump_table_flags>
    41015648:	00200f13          	li	x30,2
    4101564c:	01efb023          	sd	x30,0(x31)
    41015650:	000f0fb7          	lui	x31,0xf0
    41015654:	001f8f9b          	addiw	x31,x31,1 # f0001 <SID_PBVMS_013_ptw_permission_encodings_stack+0x1d001>
    41015658:	00cf9f93          	slli	x31,x31,0xc
    4101565c:	005f8f93          	addi	x31,x31,5
    41015660:	00000073          	ecall
    41015664:	0000c3b7          	lui	x7,0xc
    41015668:	00038c83          	lb	x25,0(x7) # c000 <mem26>
    4101566c:	000803b7          	lui	x7,0x80
    41015670:	00004fb7          	lui	x31,0x4
    41015674:	0a0f8f9b          	addiw	x31,x31,160 # 40a0 <machine_csr_jump_table_flags>
    41015678:	00300f13          	li	x30,3
    4101567c:	01efb023          	sd	x30,0(x31)
    41015680:	000f0fb7          	lui	x31,0xf0
    41015684:	001f8f9b          	addiw	x31,x31,1 # f0001 <SID_PBVMS_013_ptw_permission_encodings_stack+0x1d001>
    41015688:	00cf9f93          	slli	x31,x31,0xc
    4101568c:	005f8f93          	addi	x31,x31,5
    41015690:	00000073          	ecall
    41015694:	6063e237          	lui	x4,0x6063e
    41015698:	00d00e13          	li	x28,13
    4101569c:	05c23823          	sd	x28,80(x4) # 6063e050 <check_excp_expected_cause>
    410156a0:	00000e17          	auipc	x28,0x0
    410156a4:	04ce0e13          	addi	x28,x28,76 # 410156ec <fault_label_15>
    410156a8:	03c23023          	sd	x28,32(x4) # 20 <SECURE_ACCESS_PROBABILITY+0x2>
    410156ac:	00000e13          	li	x28,0
    410156b0:	05c23023          	sd	x28,64(x4) # 40 <XLEN>
    410156b4:	00000e13          	li	x28,0
    410156b8:	05c23423          	sd	x28,72(x4) # 48 <XLEN+0x8>
    410156bc:	00000e17          	auipc	x28,0x0
    410156c0:	044e0e13          	addi	x28,x28,68 # 41015700 <excp_return_label_15>
    410156c4:	03c23823          	sd	x28,48(x4) # 30 <SECURE_ACCESS_PROBABILITY+0x12>
    410156c8:	00000e13          	li	x28,0
    410156cc:	03c23c23          	sd	x28,56(x4) # 38 <SECURE_ACCESS_PROBABILITY+0x1a>
    410156d0:	00000e13          	li	x28,0
    410156d4:	07c23023          	sd	x28,96(x4) # 60 <XLEN+0x20>
    410156d8:	00000e13          	li	x28,0
    410156dc:	07c23423          	sd	x28,104(x4) # 68 <XLEN+0x28>
    410156e0:	00000e13          	li	x28,0
    410156e4:	07c23823          	sd	x28,112(x4) # 70 <XLEN+0x30>
    410156e8:	0000c3b7          	lui	x7,0xc

00000000410156ec <fault_label_15>:
    410156ec:	0003b583          	ld	x11,0(x7) # c000 <mem26>
    410156f0:	00004937          	lui	x18,0x4
    410156f4:	0089091b          	addiw	x18,x18,8 # 4008 <failed_addr>
    410156f8:	00093b03          	ld	x22,0(x18)
    410156fc:	000b0067          	jr	x22

0000000041015700 <excp_return_label_15>:
    41015700:	000403b7          	lui	x7,0x40
    41015704:	00004fb7          	lui	x31,0x4
    41015708:	0a0f8f9b          	addiw	x31,x31,160 # 40a0 <machine_csr_jump_table_flags>
    4101570c:	00200f13          	li	x30,2
    41015710:	01efb023          	sd	x30,0(x31)
    41015714:	000f0fb7          	lui	x31,0xf0
    41015718:	001f8f9b          	addiw	x31,x31,1 # f0001 <SID_PBVMS_013_ptw_permission_encodings_stack+0x1d001>
    4101571c:	00cf9f93          	slli	x31,x31,0xc
    41015720:	005f8f93          	addi	x31,x31,5
    41015724:	00000073          	ecall
    41015728:	0000e737          	lui	x14,0xe
    4101572c:	00071883          	lh	x17,0(x14) # e000 <mem27>
    41015730:	000403b7          	lui	x7,0x40
    41015734:	00004fb7          	lui	x31,0x4
    41015738:	0a0f8f9b          	addiw	x31,x31,160 # 40a0 <machine_csr_jump_table_flags>
    4101573c:	00300f13          	li	x30,3
    41015740:	01efb023          	sd	x30,0(x31)
    41015744:	000f0fb7          	lui	x31,0xf0
    41015748:	001f8f9b          	addiw	x31,x31,1 # f0001 <SID_PBVMS_013_ptw_permission_encodings_stack+0x1d001>
    4101574c:	00cf9f93          	slli	x31,x31,0xc
    41015750:	005f8f93          	addi	x31,x31,5
    41015754:	00000073          	ecall
    41015758:	6063e237          	lui	x4,0x6063e
    4101575c:	00d00e13          	li	x28,13
    41015760:	05c23823          	sd	x28,80(x4) # 6063e050 <check_excp_expected_cause>
    41015764:	00000e17          	auipc	x28,0x0
    41015768:	04ce0e13          	addi	x28,x28,76 # 410157b0 <fault_label_16>
    4101576c:	03c23023          	sd	x28,32(x4) # 20 <SECURE_ACCESS_PROBABILITY+0x2>
    41015770:	00000e13          	li	x28,0
    41015774:	05c23023          	sd	x28,64(x4) # 40 <XLEN>
    41015778:	00000e13          	li	x28,0
    4101577c:	05c23423          	sd	x28,72(x4) # 48 <XLEN+0x8>
    41015780:	00000e17          	auipc	x28,0x0
    41015784:	044e0e13          	addi	x28,x28,68 # 410157c4 <excp_return_label_16>
    41015788:	03c23823          	sd	x28,48(x4) # 30 <SECURE_ACCESS_PROBABILITY+0x12>
    4101578c:	00000e13          	li	x28,0
    41015790:	03c23c23          	sd	x28,56(x4) # 38 <SECURE_ACCESS_PROBABILITY+0x1a>
    41015794:	00000e13          	li	x28,0
    41015798:	07c23023          	sd	x28,96(x4) # 60 <XLEN+0x20>
    4101579c:	00000e13          	li	x28,0
    410157a0:	07c23423          	sd	x28,104(x4) # 68 <XLEN+0x28>
    410157a4:	00000e13          	li	x28,0
    410157a8:	07c23823          	sd	x28,112(x4) # 70 <XLEN+0x30>
    410157ac:	0000e937          	lui	x18,0xe

00000000410157b0 <fault_label_16>:
    410157b0:	00092503          	lw	x10,0(x18) # e000 <mem27>
    410157b4:	00004d37          	lui	x26,0x4
    410157b8:	008d0d1b          	addiw	x26,x26,8 # 4008 <failed_addr>
    410157bc:	000d3c83          	ld	x25,0(x26)
    410157c0:	000c8067          	jr	x25

00000000410157c4 <excp_return_label_16>:
    410157c4:	00075137          	lui	x2,0x75
    410157c8:	00013383          	ld	x7,0(x2) # 75000 <tp_csr_storage>
    410157cc:	00004fb7          	lui	x31,0x4
    410157d0:	0a0f8f9b          	addiw	x31,x31,160 # 40a0 <machine_csr_jump_table_flags>
    410157d4:	00600f13          	li	x30,6
    410157d8:	01efb023          	sd	x30,0(x31)
    410157dc:	000f0fb7          	lui	x31,0xf0
    410157e0:	001f8f9b          	addiw	x31,x31,1 # f0001 <SID_PBVMS_013_ptw_permission_encodings_stack+0x1d001>
    410157e4:	00cf9f93          	slli	x31,x31,0xc
    410157e8:	005f8f93          	addi	x31,x31,5
    410157ec:	00000073          	ecall

00000000410157f0 <SID_PBVMS_029_ordering_satp_mstatus_without_sfence_passed>:
    410157f0:	00f00f9b          	addiw	x31,x0,15
    410157f4:	01cf9f93          	slli	x31,x31,0x1c
    410157f8:	001f8f93          	addi	x31,x31,1
    410157fc:	00000073          	ecall

0000000041015800 <SID_PBVMS_030_sfence_vma_ordering_sync>:
    41015800:	00fd6137          	lui	x2,0xfd6
    41015804:	000012b7          	lui	x5,0x1
    41015808:	00510133          	add	x2,x2,x5
    4101580c:	ff017113          	andi	x2,x2,-16
    41015810:	00900a9b          	addiw	x21,x0,9
    41015814:	027a9a93          	slli	x21,x21,0x27
    41015818:	000aaf83          	lw	x31,0(x21)
    4101581c:	00004fb7          	lui	x31,0x4
    41015820:	0b0f8f9b          	addiw	x31,x31,176 # 40b0 <pte_access_flags>
    41015824:	0090029b          	addiw	x5,x0,9
    41015828:	02729293          	slli	x5,x5,0x27
    4101582c:	005fb023          	sd	x5,0(x31)
    41015830:	00300293          	li	x5,3
    41015834:	005fb423          	sd	x5,8(x31)
    41015838:	fff00293          	li	x5,-1
    4101583c:	005fb823          	sd	x5,16(x31)
    41015840:	000f0fb7          	lui	x31,0xf0
    41015844:	001f8f9b          	addiw	x31,x31,1 # f0001 <SID_PBVMS_013_ptw_permission_encodings_stack+0x1d001>
    41015848:	00cf9f93          	slli	x31,x31,0xc
    4101584c:	007f8f93          	addi	x31,x31,7
    41015850:	00000073          	ecall
    41015854:	ffd00c93          	li	x25,-3
    41015858:	0193f733          	and	x14,x7,x25
    4101585c:	00070393          	mv	x7,x14
    41015860:	00004fb7          	lui	x31,0x4
    41015864:	0b0f8f9b          	addiw	x31,x31,176 # 40b0 <pte_access_flags>
    41015868:	0090029b          	addiw	x5,x0,9
    4101586c:	02729293          	slli	x5,x5,0x27
    41015870:	005fb023          	sd	x5,0(x31)
    41015874:	00300293          	li	x5,3
    41015878:	005fb423          	sd	x5,8(x31)
    4101587c:	fff00293          	li	x5,-1
    41015880:	005fb823          	sd	x5,16(x31)
    41015884:	000f0fb7          	lui	x31,0xf0
    41015888:	001f8f9b          	addiw	x31,x31,1 # f0001 <SID_PBVMS_013_ptw_permission_encodings_stack+0x1d001>
    4101588c:	00cf9f93          	slli	x31,x31,0xc
    41015890:	008f8f93          	addi	x31,x31,8
    41015894:	00000073          	ecall
    41015898:	12000073          	sfence.vma
    4101589c:	6063e237          	lui	x4,0x6063e
    410158a0:	00d00e13          	li	x28,13
    410158a4:	05c23823          	sd	x28,80(x4) # 6063e050 <check_excp_expected_cause>
    410158a8:	00000e17          	auipc	x28,0x0
    410158ac:	050e0e13          	addi	x28,x28,80 # 410158f8 <fault_label_17>
    410158b0:	03c23023          	sd	x28,32(x4) # 20 <SECURE_ACCESS_PROBABILITY+0x2>
    410158b4:	00000e13          	li	x28,0
    410158b8:	05c23023          	sd	x28,64(x4) # 40 <XLEN>
    410158bc:	00000e13          	li	x28,0
    410158c0:	05c23423          	sd	x28,72(x4) # 48 <XLEN+0x8>
    410158c4:	00000e17          	auipc	x28,0x0
    410158c8:	048e0e13          	addi	x28,x28,72 # 4101590c <excp_return_label_17>
    410158cc:	03c23823          	sd	x28,48(x4) # 30 <SECURE_ACCESS_PROBABILITY+0x12>
    410158d0:	00000e13          	li	x28,0
    410158d4:	03c23c23          	sd	x28,56(x4) # 38 <SECURE_ACCESS_PROBABILITY+0x1a>
    410158d8:	00000e13          	li	x28,0
    410158dc:	07c23023          	sd	x28,96(x4) # 60 <XLEN+0x20>
    410158e0:	00000e13          	li	x28,0
    410158e4:	07c23423          	sd	x28,104(x4) # 68 <XLEN+0x28>
    410158e8:	00000e13          	li	x28,0
    410158ec:	07c23823          	sd	x28,112(x4) # 70 <XLEN+0x30>
    410158f0:	0090049b          	addiw	x9,x0,9
    410158f4:	02749493          	slli	x9,x9,0x27

00000000410158f8 <fault_label_17>:
    410158f8:	0004ac07          	flw	f24,0(x9)
    410158fc:	00004437          	lui	x8,0x4
    41015900:	0084041b          	addiw	x8,x8,8 # 4008 <failed_addr>
    41015904:	00043583          	ld	x11,0(x8)
    41015908:	00058067          	jr	x11

000000004101590c <excp_return_label_17>:
    4101590c:	00004fb7          	lui	x31,0x4
    41015910:	0b0f8f9b          	addiw	x31,x31,176 # 40b0 <pte_access_flags>
    41015914:	0090029b          	addiw	x5,x0,9
    41015918:	02729293          	slli	x5,x5,0x27
    4101591c:	005fb023          	sd	x5,0(x31)
    41015920:	00300293          	li	x5,3
    41015924:	005fb423          	sd	x5,8(x31)
    41015928:	fff00293          	li	x5,-1
    4101592c:	005fb823          	sd	x5,16(x31)
    41015930:	000f0fb7          	lui	x31,0xf0
    41015934:	001f8f9b          	addiw	x31,x31,1 # f0001 <SID_PBVMS_013_ptw_permission_encodings_stack+0x1d001>
    41015938:	00cf9f93          	slli	x31,x31,0xc
    4101593c:	007f8f93          	addi	x31,x31,7
    41015940:	00000073          	ecall
    41015944:	00200793          	li	x15,2
    41015948:	00f3e8b3          	or	x17,x7,x15
    4101594c:	00088393          	mv	x7,x17
    41015950:	00004fb7          	lui	x31,0x4
    41015954:	0b0f8f9b          	addiw	x31,x31,176 # 40b0 <pte_access_flags>
    41015958:	0090029b          	addiw	x5,x0,9
    4101595c:	02729293          	slli	x5,x5,0x27
    41015960:	005fb023          	sd	x5,0(x31)
    41015964:	00300293          	li	x5,3
    41015968:	005fb423          	sd	x5,8(x31)
    4101596c:	fff00293          	li	x5,-1
    41015970:	005fb823          	sd	x5,16(x31)
    41015974:	000f0fb7          	lui	x31,0xf0
    41015978:	001f8f9b          	addiw	x31,x31,1 # f0001 <SID_PBVMS_013_ptw_permission_encodings_stack+0x1d001>
    4101597c:	00cf9f93          	slli	x31,x31,0xc
    41015980:	008f8f93          	addi	x31,x31,8
    41015984:	00000073          	ecall

0000000041015988 <SID_PBVMS_030_sfence_vma_ordering_sync_passed>:
    41015988:	00f00f9b          	addiw	x31,x0,15
    4101598c:	01cf9f93          	slli	x31,x31,0x1c
    41015990:	001f8f93          	addi	x31,x31,1
    41015994:	00000073          	ecall

0000000041015998 <SID_PBVMS_031_sfence_vma_invalidate_all>:
    41015998:	00075137          	lui	x2,0x75
    4101599c:	00004fb7          	lui	x31,0x4
    410159a0:	0a0f8f9b          	addiw	x31,x31,160 # 40a0 <machine_csr_jump_table_flags>
    410159a4:	00700f13          	li	x30,7
    410159a8:	01efb023          	sd	x30,0(x31)
    410159ac:	000f0fb7          	lui	x31,0xf0
    410159b0:	001f8f9b          	addiw	x31,x31,1 # f0001 <SID_PBVMS_013_ptw_permission_encodings_stack+0x1d001>
    410159b4:	00cf9f93          	slli	x31,x31,0xc
    410159b8:	005f8f93          	addi	x31,x31,5
    410159bc:	00000073          	ecall
    410159c0:	00713023          	sd	x7,0(x2) # 75000 <tp_csr_storage>
    410159c4:	ffe59137          	lui	x2,0xffe59
    410159c8:	90b1011b          	addiw	x2,x2,-1781 # ffffffffffe5890b <mem37+0xffffe5890b>
    410159cc:	00c11113          	slli	x2,x2,0xc
    410159d0:	f0f10113          	addi	x2,x2,-241
    410159d4:	00d11113          	slli	x2,x2,0xd
    410159d8:	000012b7          	lui	x5,0x1
    410159dc:	00510133          	add	x2,x2,x5
    410159e0:	ff017113          	andi	x2,x2,-16
    410159e4:	0010071b          	addiw	x14,x0,1
    410159e8:	02c71713          	slli	x14,x14,0x2c
    410159ec:	18072973          	csrrs	x18,satp,x14
    410159f0:	0150089b          	addiw	x17,x0,21
    410159f4:	02789893          	slli	x17,x17,0x27
    410159f8:	0008b983          	ld	x19,0(x17)
    410159fc:	0910049b          	addiw	x9,x0,145
    41015a00:	02749493          	slli	x9,x9,0x27
    41015a04:	0004a507          	flw	f10,0(x9)
    41015a08:	0010079b          	addiw	x15,x0,1
    41015a0c:	02d79793          	slli	x15,x15,0x2d
    41015a10:	1807aff3          	csrrs	x31,satp,x15
    41015a14:	0150079b          	addiw	x15,x0,21
    41015a18:	02779793          	slli	x15,x15,0x27
    41015a1c:	00079983          	lh	x19,0(x15)
    41015a20:	09100d9b          	addiw	x27,x0,145
    41015a24:	027d9d93          	slli	x27,x27,0x27
    41015a28:	000dd583          	lhu	x11,0(x27)
    41015a2c:	00004fb7          	lui	x31,0x4
    41015a30:	0b0f8f9b          	addiw	x31,x31,176 # 40b0 <pte_access_flags>
    41015a34:	0150029b          	addiw	x5,x0,21
    41015a38:	02729293          	slli	x5,x5,0x27
    41015a3c:	005fb023          	sd	x5,0(x31)
    41015a40:	00300293          	li	x5,3
    41015a44:	005fb423          	sd	x5,8(x31)
    41015a48:	fff00293          	li	x5,-1
    41015a4c:	005fb823          	sd	x5,16(x31)
    41015a50:	000f0fb7          	lui	x31,0xf0
    41015a54:	001f8f9b          	addiw	x31,x31,1 # f0001 <SID_PBVMS_013_ptw_permission_encodings_stack+0x1d001>
    41015a58:	00cf9f93          	slli	x31,x31,0xc
    41015a5c:	007f8f93          	addi	x31,x31,7
    41015a60:	00000073          	ecall
    41015a64:	ffd00d93          	li	x27,-3
    41015a68:	01b3f933          	and	x18,x7,x27
    41015a6c:	00090393          	mv	x7,x18
    41015a70:	00004fb7          	lui	x31,0x4
    41015a74:	0b0f8f9b          	addiw	x31,x31,176 # 40b0 <pte_access_flags>
    41015a78:	0150029b          	addiw	x5,x0,21
    41015a7c:	02729293          	slli	x5,x5,0x27
    41015a80:	005fb023          	sd	x5,0(x31)
    41015a84:	00300293          	li	x5,3
    41015a88:	005fb423          	sd	x5,8(x31)
    41015a8c:	fff00293          	li	x5,-1
    41015a90:	005fb823          	sd	x5,16(x31)
    41015a94:	000f0fb7          	lui	x31,0xf0
    41015a98:	001f8f9b          	addiw	x31,x31,1 # f0001 <SID_PBVMS_013_ptw_permission_encodings_stack+0x1d001>
    41015a9c:	00cf9f93          	slli	x31,x31,0xc
    41015aa0:	008f8f93          	addi	x31,x31,8
    41015aa4:	00000073          	ecall
    41015aa8:	00004fb7          	lui	x31,0x4
    41015aac:	0b0f8f9b          	addiw	x31,x31,176 # 40b0 <pte_access_flags>
    41015ab0:	0910029b          	addiw	x5,x0,145
    41015ab4:	02729293          	slli	x5,x5,0x27
    41015ab8:	005fb023          	sd	x5,0(x31)
    41015abc:	00300293          	li	x5,3
    41015ac0:	005fb423          	sd	x5,8(x31)
    41015ac4:	fff00293          	li	x5,-1
    41015ac8:	005fb823          	sd	x5,16(x31)
    41015acc:	000f0fb7          	lui	x31,0xf0
    41015ad0:	001f8f9b          	addiw	x31,x31,1 # f0001 <SID_PBVMS_013_ptw_permission_encodings_stack+0x1d001>
    41015ad4:	00cf9f93          	slli	x31,x31,0xc
    41015ad8:	007f8f93          	addi	x31,x31,7
    41015adc:	00000073          	ecall
    41015ae0:	01b3fdb3          	and	x27,x7,x27
    41015ae4:	000d8393          	mv	x7,x27
    41015ae8:	00004fb7          	lui	x31,0x4
    41015aec:	0b0f8f9b          	addiw	x31,x31,176 # 40b0 <pte_access_flags>
    41015af0:	0910029b          	addiw	x5,x0,145
    41015af4:	02729293          	slli	x5,x5,0x27
    41015af8:	005fb023          	sd	x5,0(x31)
    41015afc:	00300293          	li	x5,3
    41015b00:	005fb423          	sd	x5,8(x31)
    41015b04:	fff00293          	li	x5,-1
    41015b08:	005fb823          	sd	x5,16(x31)
    41015b0c:	000f0fb7          	lui	x31,0xf0
    41015b10:	001f8f9b          	addiw	x31,x31,1 # f0001 <SID_PBVMS_013_ptw_permission_encodings_stack+0x1d001>
    41015b14:	00cf9f93          	slli	x31,x31,0xc
    41015b18:	008f8f93          	addi	x31,x31,8
    41015b1c:	00000073          	ecall
    41015b20:	0030061b          	addiw	x12,x0,3
    41015b24:	02c61613          	slli	x12,x12,0x2c
    41015b28:	18062cf3          	csrrs	x25,satp,x12
    41015b2c:	12000073          	sfence.vma
    41015b30:	6063e237          	lui	x4,0x6063e
    41015b34:	00d00e13          	li	x28,13
    41015b38:	05c23823          	sd	x28,80(x4) # 6063e050 <check_excp_expected_cause>
    41015b3c:	00000e17          	auipc	x28,0x0
    41015b40:	050e0e13          	addi	x28,x28,80 # 41015b8c <fault_label_18>
    41015b44:	03c23023          	sd	x28,32(x4) # 20 <SECURE_ACCESS_PROBABILITY+0x2>
    41015b48:	00000e13          	li	x28,0
    41015b4c:	05c23023          	sd	x28,64(x4) # 40 <XLEN>
    41015b50:	00000e13          	li	x28,0
    41015b54:	05c23423          	sd	x28,72(x4) # 48 <XLEN+0x8>
    41015b58:	00000e17          	auipc	x28,0x0
    41015b5c:	048e0e13          	addi	x28,x28,72 # 41015ba0 <excp_return_label_18>
    41015b60:	03c23823          	sd	x28,48(x4) # 30 <SECURE_ACCESS_PROBABILITY+0x12>
    41015b64:	00000e13          	li	x28,0
    41015b68:	03c23c23          	sd	x28,56(x4) # 38 <SECURE_ACCESS_PROBABILITY+0x1a>
    41015b6c:	00000e13          	li	x28,0
    41015b70:	07c23023          	sd	x28,96(x4) # 60 <XLEN+0x20>
    41015b74:	00000e13          	li	x28,0
    41015b78:	07c23423          	sd	x28,104(x4) # 68 <XLEN+0x28>
    41015b7c:	00000e13          	li	x28,0
    41015b80:	07c23823          	sd	x28,112(x4) # 70 <XLEN+0x30>
    41015b84:	0150041b          	addiw	x8,x0,21
    41015b88:	02741413          	slli	x8,x8,0x27

0000000041015b8c <fault_label_18>:
    41015b8c:	00042703          	lw	x14,0(x8)
    41015b90:	000046b7          	lui	x13,0x4
    41015b94:	0086869b          	addiw	x13,x13,8 # 4008 <failed_addr>
    41015b98:	0006b883          	ld	x17,0(x13)
    41015b9c:	00088067          	jr	x17

0000000041015ba0 <excp_return_label_18>:
    41015ba0:	6063e237          	lui	x4,0x6063e
    41015ba4:	00d00e13          	li	x28,13
    41015ba8:	05c23823          	sd	x28,80(x4) # 6063e050 <check_excp_expected_cause>
    41015bac:	00000e17          	auipc	x28,0x0
    41015bb0:	050e0e13          	addi	x28,x28,80 # 41015bfc <fault_label_19>
    41015bb4:	03c23023          	sd	x28,32(x4) # 20 <SECURE_ACCESS_PROBABILITY+0x2>
    41015bb8:	00000e13          	li	x28,0
    41015bbc:	05c23023          	sd	x28,64(x4) # 40 <XLEN>
    41015bc0:	00000e13          	li	x28,0
    41015bc4:	05c23423          	sd	x28,72(x4) # 48 <XLEN+0x8>
    41015bc8:	00000e17          	auipc	x28,0x0
    41015bcc:	048e0e13          	addi	x28,x28,72 # 41015c10 <excp_return_label_19>
    41015bd0:	03c23823          	sd	x28,48(x4) # 30 <SECURE_ACCESS_PROBABILITY+0x12>
    41015bd4:	00000e13          	li	x28,0
    41015bd8:	03c23c23          	sd	x28,56(x4) # 38 <SECURE_ACCESS_PROBABILITY+0x1a>
    41015bdc:	00000e13          	li	x28,0
    41015be0:	07c23023          	sd	x28,96(x4) # 60 <XLEN+0x20>
    41015be4:	00000e13          	li	x28,0
    41015be8:	07c23423          	sd	x28,104(x4) # 68 <XLEN+0x28>
    41015bec:	00000e13          	li	x28,0
    41015bf0:	07c23823          	sd	x28,112(x4) # 70 <XLEN+0x30>
    41015bf4:	0910089b          	addiw	x17,x0,145
    41015bf8:	02789893          	slli	x17,x17,0x27

0000000041015bfc <fault_label_19>:
    41015bfc:	0008a287          	flw	f5,0(x17)
    41015c00:	00004ab7          	lui	x21,0x4
    41015c04:	008a8a9b          	addiw	x21,x21,8 # 4008 <failed_addr>
    41015c08:	000abf03          	ld	x30,0(x21)
    41015c0c:	000f0067          	jr	x30

0000000041015c10 <excp_return_label_19>:
    41015c10:	00004fb7          	lui	x31,0x4
    41015c14:	0b0f8f9b          	addiw	x31,x31,176 # 40b0 <pte_access_flags>
    41015c18:	0150029b          	addiw	x5,x0,21
    41015c1c:	02729293          	slli	x5,x5,0x27
    41015c20:	005fb023          	sd	x5,0(x31)
    41015c24:	00300293          	li	x5,3
    41015c28:	005fb423          	sd	x5,8(x31)
    41015c2c:	fff00293          	li	x5,-1
    41015c30:	005fb823          	sd	x5,16(x31)
    41015c34:	000f0fb7          	lui	x31,0xf0
    41015c38:	001f8f9b          	addiw	x31,x31,1 # f0001 <SID_PBVMS_013_ptw_permission_encodings_stack+0x1d001>
    41015c3c:	00cf9f93          	slli	x31,x31,0xc
    41015c40:	007f8f93          	addi	x31,x31,7
    41015c44:	00000073          	ecall
    41015c48:	00200a13          	li	x20,2
    41015c4c:	0143e733          	or	x14,x7,x20
    41015c50:	00070393          	mv	x7,x14
    41015c54:	00004fb7          	lui	x31,0x4
    41015c58:	0b0f8f9b          	addiw	x31,x31,176 # 40b0 <pte_access_flags>
    41015c5c:	0150029b          	addiw	x5,x0,21
    41015c60:	02729293          	slli	x5,x5,0x27
    41015c64:	005fb023          	sd	x5,0(x31)
    41015c68:	00300293          	li	x5,3
    41015c6c:	005fb423          	sd	x5,8(x31)
    41015c70:	fff00293          	li	x5,-1
    41015c74:	005fb823          	sd	x5,16(x31)
    41015c78:	000f0fb7          	lui	x31,0xf0
    41015c7c:	001f8f9b          	addiw	x31,x31,1 # f0001 <SID_PBVMS_013_ptw_permission_encodings_stack+0x1d001>
    41015c80:	00cf9f93          	slli	x31,x31,0xc
    41015c84:	008f8f93          	addi	x31,x31,8
    41015c88:	00000073          	ecall
    41015c8c:	00004fb7          	lui	x31,0x4
    41015c90:	0b0f8f9b          	addiw	x31,x31,176 # 40b0 <pte_access_flags>
    41015c94:	0910029b          	addiw	x5,x0,145
    41015c98:	02729293          	slli	x5,x5,0x27
    41015c9c:	005fb023          	sd	x5,0(x31)
    41015ca0:	00300293          	li	x5,3
    41015ca4:	005fb423          	sd	x5,8(x31)
    41015ca8:	fff00293          	li	x5,-1
    41015cac:	005fb823          	sd	x5,16(x31)
    41015cb0:	000f0fb7          	lui	x31,0xf0
    41015cb4:	001f8f9b          	addiw	x31,x31,1 # f0001 <SID_PBVMS_013_ptw_permission_encodings_stack+0x1d001>
    41015cb8:	00cf9f93          	slli	x31,x31,0xc
    41015cbc:	007f8f93          	addi	x31,x31,7
    41015cc0:	00000073          	ecall
    41015cc4:	00200413          	li	x8,2
    41015cc8:	0083e433          	or	x8,x7,x8
    41015ccc:	00040393          	mv	x7,x8
    41015cd0:	00004fb7          	lui	x31,0x4
    41015cd4:	0b0f8f9b          	addiw	x31,x31,176 # 40b0 <pte_access_flags>
    41015cd8:	0910029b          	addiw	x5,x0,145
    41015cdc:	02729293          	slli	x5,x5,0x27
    41015ce0:	005fb023          	sd	x5,0(x31)
    41015ce4:	00300293          	li	x5,3
    41015ce8:	005fb423          	sd	x5,8(x31)
    41015cec:	fff00293          	li	x5,-1
    41015cf0:	005fb823          	sd	x5,16(x31)
    41015cf4:	000f0fb7          	lui	x31,0xf0
    41015cf8:	001f8f9b          	addiw	x31,x31,1 # f0001 <SID_PBVMS_013_ptw_permission_encodings_stack+0x1d001>
    41015cfc:	00cf9f93          	slli	x31,x31,0xc
    41015d00:	008f8f93          	addi	x31,x31,8
    41015d04:	00000073          	ecall
    41015d08:	00075137          	lui	x2,0x75
    41015d0c:	00013383          	ld	x7,0(x2) # 75000 <tp_csr_storage>
    41015d10:	00004fb7          	lui	x31,0x4
    41015d14:	0a0f8f9b          	addiw	x31,x31,160 # 40a0 <machine_csr_jump_table_flags>
    41015d18:	00800f13          	li	x30,8
    41015d1c:	01efb023          	sd	x30,0(x31)
    41015d20:	000f0fb7          	lui	x31,0xf0
    41015d24:	001f8f9b          	addiw	x31,x31,1 # f0001 <SID_PBVMS_013_ptw_permission_encodings_stack+0x1d001>
    41015d28:	00cf9f93          	slli	x31,x31,0xc
    41015d2c:	005f8f93          	addi	x31,x31,5
    41015d30:	00000073          	ecall

0000000041015d34 <SID_PBVMS_031_sfence_vma_invalidate_all_passed>:
    41015d34:	00f00f9b          	addiw	x31,x0,15
    41015d38:	01cf9f93          	slli	x31,x31,0x1c
    41015d3c:	001f8f93          	addi	x31,x31,1
    41015d40:	00000073          	ecall

0000000041015d44 <SID_PBVMS_032_sfence_vma_invalidate_asid>:
    41015d44:	00075137          	lui	x2,0x75
    41015d48:	00004fb7          	lui	x31,0x4
    41015d4c:	0a0f8f9b          	addiw	x31,x31,160 # 40a0 <machine_csr_jump_table_flags>
    41015d50:	00700f13          	li	x30,7
    41015d54:	01efb023          	sd	x30,0(x31)
    41015d58:	000f0fb7          	lui	x31,0xf0
    41015d5c:	001f8f9b          	addiw	x31,x31,1 # f0001 <SID_PBVMS_013_ptw_permission_encodings_stack+0x1d001>
    41015d60:	00cf9f93          	slli	x31,x31,0xc
    41015d64:	005f8f93          	addi	x31,x31,5
    41015d68:	00000073          	ecall
    41015d6c:	00713023          	sd	x7,0(x2) # 75000 <tp_csr_storage>
    41015d70:	09115137          	lui	x2,0x9115
    41015d74:	000012b7          	lui	x5,0x1
    41015d78:	00510133          	add	x2,x2,x5
    41015d7c:	ff017113          	andi	x2,x2,-16
    41015d80:	00010c37          	lui	x24,0x10
    41015d84:	fffc0c1b          	addiw	x24,x24,-1 # ffff <mem27+0x1fff>
    41015d88:	02cc1c13          	slli	x24,x24,0x2c
    41015d8c:	180c3bf3          	csrrc	x23,satp,x24
    41015d90:	0010069b          	addiw	x13,x0,1
    41015d94:	02c69693          	slli	x13,x13,0x2c
    41015d98:	1806adf3          	csrrs	x27,satp,x13
    41015d9c:	0110041b          	addiw	x8,x0,17
    41015da0:	02741413          	slli	x8,x8,0x27
    41015da4:	00046803          	lwu	x16,0(x8)
    41015da8:	00004fb7          	lui	x31,0x4
    41015dac:	0b0f8f9b          	addiw	x31,x31,176 # 40b0 <pte_access_flags>
    41015db0:	0110029b          	addiw	x5,x0,17
    41015db4:	02729293          	slli	x5,x5,0x27
    41015db8:	005fb023          	sd	x5,0(x31)
    41015dbc:	00300293          	li	x5,3
    41015dc0:	005fb423          	sd	x5,8(x31)
    41015dc4:	fff00293          	li	x5,-1
    41015dc8:	005fb823          	sd	x5,16(x31)
    41015dcc:	000f0fb7          	lui	x31,0xf0
    41015dd0:	001f8f9b          	addiw	x31,x31,1 # f0001 <SID_PBVMS_013_ptw_permission_encodings_stack+0x1d001>
    41015dd4:	00cf9f93          	slli	x31,x31,0xc
    41015dd8:	007f8f93          	addi	x31,x31,7
    41015ddc:	00000073          	ecall
    41015de0:	ffd00a93          	li	x21,-3
    41015de4:	0153f9b3          	and	x19,x7,x21
    41015de8:	00098393          	mv	x7,x19
    41015dec:	00004fb7          	lui	x31,0x4
    41015df0:	0b0f8f9b          	addiw	x31,x31,176 # 40b0 <pte_access_flags>
    41015df4:	0110029b          	addiw	x5,x0,17
    41015df8:	02729293          	slli	x5,x5,0x27
    41015dfc:	005fb023          	sd	x5,0(x31)
    41015e00:	00300293          	li	x5,3
    41015e04:	005fb423          	sd	x5,8(x31)
    41015e08:	fff00293          	li	x5,-1
    41015e0c:	005fb823          	sd	x5,16(x31)
    41015e10:	000f0fb7          	lui	x31,0xf0
    41015e14:	001f8f9b          	addiw	x31,x31,1 # f0001 <SID_PBVMS_013_ptw_permission_encodings_stack+0x1d001>
    41015e18:	00cf9f93          	slli	x31,x31,0xc
    41015e1c:	008f8f93          	addi	x31,x31,8
    41015e20:	00000073          	ecall
    41015e24:	00100b9b          	addiw	x23,x0,1
    41015e28:	02db9b93          	slli	x23,x23,0x2d
    41015e2c:	180bac73          	csrrs	x24,satp,x23
    41015e30:	00100593          	li	x11,1
    41015e34:	12b00073          	sfence.vma	x0,x11
    41015e38:	00010f37          	lui	x30,0x10
    41015e3c:	ffff0f1b          	addiw	x30,x30,-1 # ffff <mem27+0x1fff>
    41015e40:	02cf1f13          	slli	x30,x30,0x2c
    41015e44:	180f3a73          	csrrc	x20,satp,x30
    41015e48:	0010061b          	addiw	x12,x0,1
    41015e4c:	02d61613          	slli	x12,x12,0x2d
    41015e50:	18062673          	csrrs	x12,satp,x12
    41015e54:	00100493          	li	x9,1
    41015e58:	12900073          	sfence.vma	x0,x9
    41015e5c:	00010e37          	lui	x28,0x10
    41015e60:	fffe0e1b          	addiw	x28,x28,-1 # ffff <mem27+0x1fff>
    41015e64:	02ce1e13          	slli	x28,x28,0x2c
    41015e68:	180e3373          	csrrc	x6,satp,x28
    41015e6c:	0010059b          	addiw	x11,x0,1
    41015e70:	02c59593          	slli	x11,x11,0x2c
    41015e74:	1805a673          	csrrs	x12,satp,x11
    41015e78:	6063e237          	lui	x4,0x6063e
    41015e7c:	00d00e13          	li	x28,13
    41015e80:	05c23823          	sd	x28,80(x4) # 6063e050 <check_excp_expected_cause>
    41015e84:	00000e17          	auipc	x28,0x0
    41015e88:	050e0e13          	addi	x28,x28,80 # 41015ed4 <fault_label_20>
    41015e8c:	03c23023          	sd	x28,32(x4) # 20 <SECURE_ACCESS_PROBABILITY+0x2>
    41015e90:	00000e13          	li	x28,0
    41015e94:	05c23023          	sd	x28,64(x4) # 40 <XLEN>
    41015e98:	00000e13          	li	x28,0
    41015e9c:	05c23423          	sd	x28,72(x4) # 48 <XLEN+0x8>
    41015ea0:	00000e17          	auipc	x28,0x0
    41015ea4:	048e0e13          	addi	x28,x28,72 # 41015ee8 <excp_return_label_20>
    41015ea8:	03c23823          	sd	x28,48(x4) # 30 <SECURE_ACCESS_PROBABILITY+0x12>
    41015eac:	00000e13          	li	x28,0
    41015eb0:	03c23c23          	sd	x28,56(x4) # 38 <SECURE_ACCESS_PROBABILITY+0x1a>
    41015eb4:	00000e13          	li	x28,0
    41015eb8:	07c23023          	sd	x28,96(x4) # 60 <XLEN+0x20>
    41015ebc:	00000e13          	li	x28,0
    41015ec0:	07c23423          	sd	x28,104(x4) # 68 <XLEN+0x28>
    41015ec4:	00000e13          	li	x28,0
    41015ec8:	07c23823          	sd	x28,112(x4) # 70 <XLEN+0x30>
    41015ecc:	0110051b          	addiw	x10,x0,17
    41015ed0:	02751513          	slli	x10,x10,0x27

0000000041015ed4 <fault_label_20>:
    41015ed4:	00054883          	lbu	x17,0(x10)
    41015ed8:	000049b7          	lui	x19,0x4
    41015edc:	0089899b          	addiw	x19,x19,8 # 4008 <failed_addr>
    41015ee0:	0009bb03          	ld	x22,0(x19)
    41015ee4:	000b0067          	jr	x22

0000000041015ee8 <excp_return_label_20>:
    41015ee8:	00004fb7          	lui	x31,0x4
    41015eec:	0b0f8f9b          	addiw	x31,x31,176 # 40b0 <pte_access_flags>
    41015ef0:	0110029b          	addiw	x5,x0,17
    41015ef4:	02729293          	slli	x5,x5,0x27
    41015ef8:	005fb023          	sd	x5,0(x31)
    41015efc:	00300293          	li	x5,3
    41015f00:	005fb423          	sd	x5,8(x31)
    41015f04:	fff00293          	li	x5,-1
    41015f08:	005fb823          	sd	x5,16(x31)
    41015f0c:	000f0fb7          	lui	x31,0xf0
    41015f10:	001f8f9b          	addiw	x31,x31,1 # f0001 <SID_PBVMS_013_ptw_permission_encodings_stack+0x1d001>
    41015f14:	00cf9f93          	slli	x31,x31,0xc
    41015f18:	007f8f93          	addi	x31,x31,7
    41015f1c:	00000073          	ecall
    41015f20:	00200793          	li	x15,2
    41015f24:	00f3e6b3          	or	x13,x7,x15
    41015f28:	00068393          	mv	x7,x13
    41015f2c:	00004fb7          	lui	x31,0x4
    41015f30:	0b0f8f9b          	addiw	x31,x31,176 # 40b0 <pte_access_flags>
    41015f34:	0110029b          	addiw	x5,x0,17
    41015f38:	02729293          	slli	x5,x5,0x27
    41015f3c:	005fb023          	sd	x5,0(x31)
    41015f40:	00300293          	li	x5,3
    41015f44:	005fb423          	sd	x5,8(x31)
    41015f48:	fff00293          	li	x5,-1
    41015f4c:	005fb823          	sd	x5,16(x31)
    41015f50:	000f0fb7          	lui	x31,0xf0
    41015f54:	001f8f9b          	addiw	x31,x31,1 # f0001 <SID_PBVMS_013_ptw_permission_encodings_stack+0x1d001>
    41015f58:	00cf9f93          	slli	x31,x31,0xc
    41015f5c:	008f8f93          	addi	x31,x31,8
    41015f60:	00000073          	ecall
    41015f64:	00075137          	lui	x2,0x75
    41015f68:	00013383          	ld	x7,0(x2) # 75000 <tp_csr_storage>
    41015f6c:	00004fb7          	lui	x31,0x4
    41015f70:	0a0f8f9b          	addiw	x31,x31,160 # 40a0 <machine_csr_jump_table_flags>
    41015f74:	00800f13          	li	x30,8
    41015f78:	01efb023          	sd	x30,0(x31)
    41015f7c:	000f0fb7          	lui	x31,0xf0
    41015f80:	001f8f9b          	addiw	x31,x31,1 # f0001 <SID_PBVMS_013_ptw_permission_encodings_stack+0x1d001>
    41015f84:	00cf9f93          	slli	x31,x31,0xc
    41015f88:	005f8f93          	addi	x31,x31,5
    41015f8c:	00000073          	ecall

0000000041015f90 <SID_PBVMS_032_sfence_vma_invalidate_asid_passed>:
    41015f90:	00f00f9b          	addiw	x31,x0,15
    41015f94:	01cf9f93          	slli	x31,x31,0x1c
    41015f98:	001f8f93          	addi	x31,x31,1
    41015f9c:	00000073          	ecall

0000000041015fa0 <SID_PBVMS_033_sfence_vma_invalidate_va>:
    41015fa0:	00075137          	lui	x2,0x75
    41015fa4:	00004fb7          	lui	x31,0x4
    41015fa8:	0a0f8f9b          	addiw	x31,x31,160 # 40a0 <machine_csr_jump_table_flags>
    41015fac:	00700f13          	li	x30,7
    41015fb0:	01efb023          	sd	x30,0(x31)
    41015fb4:	000f0fb7          	lui	x31,0xf0
    41015fb8:	001f8f9b          	addiw	x31,x31,1 # f0001 <SID_PBVMS_013_ptw_permission_encodings_stack+0x1d001>
    41015fbc:	00cf9f93          	slli	x31,x31,0xc
    41015fc0:	005f8f93          	addi	x31,x31,5
    41015fc4:	00000073          	ecall
    41015fc8:	00713023          	sd	x7,0(x2) # 75000 <tp_csr_storage>
    41015fcc:	00b75137          	lui	x2,0xb75
    41015fd0:	000012b7          	lui	x5,0x1
    41015fd4:	00510133          	add	x2,x2,x5
    41015fd8:	ff017113          	andi	x2,x2,-16
    41015fdc:	00100a1b          	addiw	x20,x0,1
    41015fe0:	02ca1a13          	slli	x20,x20,0x2c
    41015fe4:	180a25f3          	csrrs	x11,satp,x20
    41015fe8:	00100e9b          	addiw	x29,x0,1
    41015fec:	02be9e93          	slli	x29,x29,0x2b
    41015ff0:	000e9703          	lh	x14,0(x29)
    41015ff4:	fe70061b          	addiw	x12,x0,-25
    41015ff8:	02761613          	slli	x12,x12,0x27
    41015ffc:	00066e83          	lwu	x29,0(x12)
    41016000:	00004fb7          	lui	x31,0x4
    41016004:	0b0f8f9b          	addiw	x31,x31,176 # 40b0 <pte_access_flags>
    41016008:	0010029b          	addiw	x5,x0,1
    4101600c:	02b29293          	slli	x5,x5,0x2b
    41016010:	005fb023          	sd	x5,0(x31)
    41016014:	00300293          	li	x5,3
    41016018:	005fb423          	sd	x5,8(x31)
    4101601c:	fff00293          	li	x5,-1
    41016020:	005fb823          	sd	x5,16(x31)
    41016024:	000f0fb7          	lui	x31,0xf0
    41016028:	001f8f9b          	addiw	x31,x31,1 # f0001 <SID_PBVMS_013_ptw_permission_encodings_stack+0x1d001>
    4101602c:	00cf9f93          	slli	x31,x31,0xc
    41016030:	007f8f93          	addi	x31,x31,7
    41016034:	00000073          	ecall
    41016038:	ffd00693          	li	x13,-3
    4101603c:	00d3fcb3          	and	x25,x7,x13
    41016040:	000c8393          	mv	x7,x25
    41016044:	00004fb7          	lui	x31,0x4
    41016048:	0b0f8f9b          	addiw	x31,x31,176 # 40b0 <pte_access_flags>
    4101604c:	0010029b          	addiw	x5,x0,1
    41016050:	02b29293          	slli	x5,x5,0x2b
    41016054:	005fb023          	sd	x5,0(x31)
    41016058:	00300293          	li	x5,3
    4101605c:	005fb423          	sd	x5,8(x31)
    41016060:	fff00293          	li	x5,-1
    41016064:	005fb823          	sd	x5,16(x31)
    41016068:	000f0fb7          	lui	x31,0xf0
    4101606c:	001f8f9b          	addiw	x31,x31,1 # f0001 <SID_PBVMS_013_ptw_permission_encodings_stack+0x1d001>
    41016070:	00cf9f93          	slli	x31,x31,0xc
    41016074:	008f8f93          	addi	x31,x31,8
    41016078:	00000073          	ecall
    4101607c:	00004fb7          	lui	x31,0x4
    41016080:	0b0f8f9b          	addiw	x31,x31,176 # 40b0 <pte_access_flags>
    41016084:	fe70029b          	addiw	x5,x0,-25
    41016088:	02729293          	slli	x5,x5,0x27
    4101608c:	005fb023          	sd	x5,0(x31)
    41016090:	00300293          	li	x5,3
    41016094:	005fb423          	sd	x5,8(x31)
    41016098:	fff00293          	li	x5,-1
    4101609c:	005fb823          	sd	x5,16(x31)
    410160a0:	000f0fb7          	lui	x31,0xf0
    410160a4:	001f8f9b          	addiw	x31,x31,1 # f0001 <SID_PBVMS_013_ptw_permission_encodings_stack+0x1d001>
    410160a8:	00cf9f93          	slli	x31,x31,0xc
    410160ac:	007f8f93          	addi	x31,x31,7
    410160b0:	00000073          	ecall
    410160b4:	00d3fc33          	and	x24,x7,x13
    410160b8:	000c0393          	mv	x7,x24
    410160bc:	00004fb7          	lui	x31,0x4
    410160c0:	0b0f8f9b          	addiw	x31,x31,176 # 40b0 <pte_access_flags>
    410160c4:	fe70029b          	addiw	x5,x0,-25
    410160c8:	02729293          	slli	x5,x5,0x27
    410160cc:	005fb023          	sd	x5,0(x31)
    410160d0:	00300293          	li	x5,3
    410160d4:	005fb423          	sd	x5,8(x31)
    410160d8:	fff00293          	li	x5,-1
    410160dc:	005fb823          	sd	x5,16(x31)
    410160e0:	000f0fb7          	lui	x31,0xf0
    410160e4:	001f8f9b          	addiw	x31,x31,1 # f0001 <SID_PBVMS_013_ptw_permission_encodings_stack+0x1d001>
    410160e8:	00cf9f93          	slli	x31,x31,0xc
    410160ec:	008f8f93          	addi	x31,x31,8
    410160f0:	00000073          	ecall
    410160f4:	0010039b          	addiw	x7,x0,1
    410160f8:	02b39393          	slli	x7,x7,0x2b
    410160fc:	fe700a1b          	addiw	x20,x0,-25
    41016100:	027a1a13          	slli	x20,x20,0x27
    41016104:	12038073          	sfence.vma	x7
    41016108:	120a0073          	sfence.vma	x20
    4101610c:	6063e237          	lui	x4,0x6063e
    41016110:	00d00e13          	li	x28,13
    41016114:	05c23823          	sd	x28,80(x4) # 6063e050 <check_excp_expected_cause>
    41016118:	00000e17          	auipc	x28,0x0
    4101611c:	050e0e13          	addi	x28,x28,80 # 41016168 <fault_label_21>
    41016120:	03c23023          	sd	x28,32(x4) # 20 <SECURE_ACCESS_PROBABILITY+0x2>
    41016124:	00000e13          	li	x28,0
    41016128:	05c23023          	sd	x28,64(x4) # 40 <XLEN>
    4101612c:	00000e13          	li	x28,0
    41016130:	05c23423          	sd	x28,72(x4) # 48 <XLEN+0x8>
    41016134:	00000e17          	auipc	x28,0x0
    41016138:	048e0e13          	addi	x28,x28,72 # 4101617c <excp_return_label_21>
    4101613c:	03c23823          	sd	x28,48(x4) # 30 <SECURE_ACCESS_PROBABILITY+0x12>
    41016140:	00000e13          	li	x28,0
    41016144:	03c23c23          	sd	x28,56(x4) # 38 <SECURE_ACCESS_PROBABILITY+0x1a>
    41016148:	00000e13          	li	x28,0
    4101614c:	07c23023          	sd	x28,96(x4) # 60 <XLEN+0x20>
    41016150:	00000e13          	li	x28,0
    41016154:	07c23423          	sd	x28,104(x4) # 68 <XLEN+0x28>
    41016158:	00000e13          	li	x28,0
    4101615c:	07c23823          	sd	x28,112(x4) # 70 <XLEN+0x30>
    41016160:	00100a9b          	addiw	x21,x0,1
    41016164:	02ba9a93          	slli	x21,x21,0x2b

0000000041016168 <fault_label_21>:
    41016168:	000ab703          	ld	x14,0(x21)
    4101616c:	000049b7          	lui	x19,0x4
    41016170:	0089899b          	addiw	x19,x19,8 # 4008 <failed_addr>
    41016174:	0009ba03          	ld	x20,0(x19)
    41016178:	000a0067          	jr	x20

000000004101617c <excp_return_label_21>:
    4101617c:	6063e237          	lui	x4,0x6063e
    41016180:	00d00e13          	li	x28,13
    41016184:	05c23823          	sd	x28,80(x4) # 6063e050 <check_excp_expected_cause>
    41016188:	00000e17          	auipc	x28,0x0
    4101618c:	050e0e13          	addi	x28,x28,80 # 410161d8 <fault_label_22>
    41016190:	03c23023          	sd	x28,32(x4) # 20 <SECURE_ACCESS_PROBABILITY+0x2>
    41016194:	00000e13          	li	x28,0
    41016198:	05c23023          	sd	x28,64(x4) # 40 <XLEN>
    4101619c:	00000e13          	li	x28,0
    410161a0:	05c23423          	sd	x28,72(x4) # 48 <XLEN+0x8>
    410161a4:	00000e17          	auipc	x28,0x0
    410161a8:	048e0e13          	addi	x28,x28,72 # 410161ec <excp_return_label_22>
    410161ac:	03c23823          	sd	x28,48(x4) # 30 <SECURE_ACCESS_PROBABILITY+0x12>
    410161b0:	00000e13          	li	x28,0
    410161b4:	03c23c23          	sd	x28,56(x4) # 38 <SECURE_ACCESS_PROBABILITY+0x1a>
    410161b8:	00000e13          	li	x28,0
    410161bc:	07c23023          	sd	x28,96(x4) # 60 <XLEN+0x20>
    410161c0:	00000e13          	li	x28,0
    410161c4:	07c23423          	sd	x28,104(x4) # 68 <XLEN+0x28>
    410161c8:	00000e13          	li	x28,0
    410161cc:	07c23823          	sd	x28,112(x4) # 70 <XLEN+0x30>
    410161d0:	fe70059b          	addiw	x11,x0,-25
    410161d4:	02759593          	slli	x11,x11,0x27

00000000410161d8 <fault_label_22>:
    410161d8:	0005cd03          	lbu	x26,0(x11)
    410161dc:	00004537          	lui	x10,0x4
    410161e0:	0085051b          	addiw	x10,x10,8 # 4008 <failed_addr>
    410161e4:	00053903          	ld	x18,0(x10)
    410161e8:	00090067          	jr	x18

00000000410161ec <excp_return_label_22>:
    410161ec:	00004fb7          	lui	x31,0x4
    410161f0:	0b0f8f9b          	addiw	x31,x31,176 # 40b0 <pte_access_flags>
    410161f4:	0010029b          	addiw	x5,x0,1
    410161f8:	02b29293          	slli	x5,x5,0x2b
    410161fc:	005fb023          	sd	x5,0(x31)
    41016200:	00300293          	li	x5,3
    41016204:	005fb423          	sd	x5,8(x31)
    41016208:	fff00293          	li	x5,-1
    4101620c:	005fb823          	sd	x5,16(x31)
    41016210:	000f0fb7          	lui	x31,0xf0
    41016214:	001f8f9b          	addiw	x31,x31,1 # f0001 <SID_PBVMS_013_ptw_permission_encodings_stack+0x1d001>
    41016218:	00cf9f93          	slli	x31,x31,0xc
    4101621c:	007f8f93          	addi	x31,x31,7
    41016220:	00000073          	ecall
    41016224:	00200a13          	li	x20,2
    41016228:	0143ef33          	or	x30,x7,x20
    4101622c:	000f0393          	mv	x7,x30
    41016230:	00004fb7          	lui	x31,0x4
    41016234:	0b0f8f9b          	addiw	x31,x31,176 # 40b0 <pte_access_flags>
    41016238:	0010029b          	addiw	x5,x0,1
    4101623c:	02b29293          	slli	x5,x5,0x2b
    41016240:	005fb023          	sd	x5,0(x31)
    41016244:	00300293          	li	x5,3
    41016248:	005fb423          	sd	x5,8(x31)
    4101624c:	fff00293          	li	x5,-1
    41016250:	005fb823          	sd	x5,16(x31)
    41016254:	000f0fb7          	lui	x31,0xf0
    41016258:	001f8f9b          	addiw	x31,x31,1 # f0001 <SID_PBVMS_013_ptw_permission_encodings_stack+0x1d001>
    4101625c:	00cf9f93          	slli	x31,x31,0xc
    41016260:	008f8f93          	addi	x31,x31,8
    41016264:	00000073          	ecall
    41016268:	00004fb7          	lui	x31,0x4
    4101626c:	0b0f8f9b          	addiw	x31,x31,176 # 40b0 <pte_access_flags>
    41016270:	fe70029b          	addiw	x5,x0,-25
    41016274:	02729293          	slli	x5,x5,0x27
    41016278:	005fb023          	sd	x5,0(x31)
    4101627c:	00300293          	li	x5,3
    41016280:	005fb423          	sd	x5,8(x31)
    41016284:	fff00293          	li	x5,-1
    41016288:	005fb823          	sd	x5,16(x31)
    4101628c:	000f0fb7          	lui	x31,0xf0
    41016290:	001f8f9b          	addiw	x31,x31,1 # f0001 <SID_PBVMS_013_ptw_permission_encodings_stack+0x1d001>
    41016294:	00cf9f93          	slli	x31,x31,0xc
    41016298:	007f8f93          	addi	x31,x31,7
    4101629c:	00000073          	ecall
    410162a0:	00200413          	li	x8,2
    410162a4:	0083e333          	or	x6,x7,x8
    410162a8:	00030393          	mv	x7,x6
    410162ac:	00004fb7          	lui	x31,0x4
    410162b0:	0b0f8f9b          	addiw	x31,x31,176 # 40b0 <pte_access_flags>
    410162b4:	fe70029b          	addiw	x5,x0,-25
    410162b8:	02729293          	slli	x5,x5,0x27
    410162bc:	005fb023          	sd	x5,0(x31)
    410162c0:	00300293          	li	x5,3
    410162c4:	005fb423          	sd	x5,8(x31)
    410162c8:	fff00293          	li	x5,-1
    410162cc:	005fb823          	sd	x5,16(x31)
    410162d0:	000f0fb7          	lui	x31,0xf0
    410162d4:	001f8f9b          	addiw	x31,x31,1 # f0001 <SID_PBVMS_013_ptw_permission_encodings_stack+0x1d001>
    410162d8:	00cf9f93          	slli	x31,x31,0xc
    410162dc:	008f8f93          	addi	x31,x31,8
    410162e0:	00000073          	ecall
    410162e4:	00075137          	lui	x2,0x75
    410162e8:	00013383          	ld	x7,0(x2) # 75000 <tp_csr_storage>
    410162ec:	00004fb7          	lui	x31,0x4
    410162f0:	0a0f8f9b          	addiw	x31,x31,160 # 40a0 <machine_csr_jump_table_flags>
    410162f4:	00800f13          	li	x30,8
    410162f8:	01efb023          	sd	x30,0(x31)
    410162fc:	000f0fb7          	lui	x31,0xf0
    41016300:	001f8f9b          	addiw	x31,x31,1 # f0001 <SID_PBVMS_013_ptw_permission_encodings_stack+0x1d001>
    41016304:	00cf9f93          	slli	x31,x31,0xc
    41016308:	005f8f93          	addi	x31,x31,5
    4101630c:	00000073          	ecall

0000000041016310 <SID_PBVMS_033_sfence_vma_invalidate_va_passed>:
    41016310:	00f00f9b          	addiw	x31,x0,15
    41016314:	01cf9f93          	slli	x31,x31,0x1c
    41016318:	001f8f93          	addi	x31,x31,1
    4101631c:	00000073          	ecall

0000000041016320 <SID_PBVMS_034_sfence_vma_invalidate_va_asid>:
    41016320:	00075137          	lui	x2,0x75
    41016324:	00004fb7          	lui	x31,0x4
    41016328:	0a0f8f9b          	addiw	x31,x31,160 # 40a0 <machine_csr_jump_table_flags>
    4101632c:	00700f13          	li	x30,7
    41016330:	01efb023          	sd	x30,0(x31)
    41016334:	000f0fb7          	lui	x31,0xf0
    41016338:	001f8f9b          	addiw	x31,x31,1 # f0001 <SID_PBVMS_013_ptw_permission_encodings_stack+0x1d001>
    4101633c:	00cf9f93          	slli	x31,x31,0xc
    41016340:	005f8f93          	addi	x31,x31,5
    41016344:	00000073          	ecall
    41016348:	00713023          	sd	x7,0(x2) # 75000 <tp_csr_storage>
    4101634c:	0db05137          	lui	x2,0xdb05
    41016350:	8f31011b          	addiw	x2,x2,-1805 # db048f3 <code_mem4+0x47498f3>
    41016354:	00e11113          	slli	x2,x2,0xe
    41016358:	000012b7          	lui	x5,0x1
    4101635c:	00510133          	add	x2,x2,x5
    41016360:	ff017113          	andi	x2,x2,-16
    41016364:	00010eb7          	lui	x29,0x10
    41016368:	fffe8e9b          	addiw	x29,x29,-1 # ffff <mem27+0x1fff>
    4101636c:	02ce9e93          	slli	x29,x29,0x2c
    41016370:	180ebcf3          	csrrc	x25,satp,x29
    41016374:	0010081b          	addiw	x16,x0,1
    41016378:	02c81813          	slli	x16,x16,0x2c
    4101637c:	18082af3          	csrrs	x21,satp,x16
    41016380:	fff0099b          	addiw	x19,x0,-1
    41016384:	02999993          	slli	x19,x19,0x29
    41016388:	00098883          	lb	x17,0(x19)
    4101638c:	00004fb7          	lui	x31,0x4
    41016390:	0b0f8f9b          	addiw	x31,x31,176 # 40b0 <pte_access_flags>
    41016394:	fff0029b          	addiw	x5,x0,-1
    41016398:	02929293          	slli	x5,x5,0x29
    4101639c:	005fb023          	sd	x5,0(x31)
    410163a0:	00300293          	li	x5,3
    410163a4:	005fb423          	sd	x5,8(x31)
    410163a8:	fff00293          	li	x5,-1
    410163ac:	005fb823          	sd	x5,16(x31)
    410163b0:	000f0fb7          	lui	x31,0xf0
    410163b4:	001f8f9b          	addiw	x31,x31,1 # f0001 <SID_PBVMS_013_ptw_permission_encodings_stack+0x1d001>
    410163b8:	00cf9f93          	slli	x31,x31,0xc
    410163bc:	007f8f93          	addi	x31,x31,7
    410163c0:	00000073          	ecall
    410163c4:	ffd00b93          	li	x23,-3
    410163c8:	0173f4b3          	and	x9,x7,x23
    410163cc:	00048393          	mv	x7,x9
    410163d0:	00004fb7          	lui	x31,0x4
    410163d4:	0b0f8f9b          	addiw	x31,x31,176 # 40b0 <pte_access_flags>
    410163d8:	fff0029b          	addiw	x5,x0,-1
    410163dc:	02929293          	slli	x5,x5,0x29
    410163e0:	005fb023          	sd	x5,0(x31)
    410163e4:	00300293          	li	x5,3
    410163e8:	005fb423          	sd	x5,8(x31)
    410163ec:	fff00293          	li	x5,-1
    410163f0:	005fb823          	sd	x5,16(x31)
    410163f4:	000f0fb7          	lui	x31,0xf0
    410163f8:	001f8f9b          	addiw	x31,x31,1 # f0001 <SID_PBVMS_013_ptw_permission_encodings_stack+0x1d001>
    410163fc:	00cf9f93          	slli	x31,x31,0xc
    41016400:	008f8f93          	addi	x31,x31,8
    41016404:	00000073          	ecall
    41016408:	00010537          	lui	x10,0x10
    4101640c:	fff5051b          	addiw	x10,x10,-1 # ffff <mem27+0x1fff>
    41016410:	02c51513          	slli	x10,x10,0x2c
    41016414:	18053c73          	csrrc	x24,satp,x10
    41016418:	0010099b          	addiw	x19,x0,1
    4101641c:	02d99993          	slli	x19,x19,0x2d
    41016420:	1809aff3          	csrrs	x31,satp,x19
    41016424:	fff0061b          	addiw	x12,x0,-1
    41016428:	02961613          	slli	x12,x12,0x29
    4101642c:	00100b13          	li	x22,1
    41016430:	13660073          	sfence.vma	x12,x22
    41016434:	00010937          	lui	x18,0x10
    41016438:	fff9091b          	addiw	x18,x18,-1 # ffff <mem27+0x1fff>
    4101643c:	02c91913          	slli	x18,x18,0x2c
    41016440:	18093973          	csrrc	x18,satp,x18
    41016444:	0010051b          	addiw	x10,x0,1
    41016448:	02c51513          	slli	x10,x10,0x2c
    4101644c:	18052973          	csrrs	x18,satp,x10
    41016450:	6063e237          	lui	x4,0x6063e
    41016454:	00d00e13          	li	x28,13
    41016458:	05c23823          	sd	x28,80(x4) # 6063e050 <check_excp_expected_cause>
    4101645c:	00000e17          	auipc	x28,0x0
    41016460:	050e0e13          	addi	x28,x28,80 # 410164ac <fault_label_23>
    41016464:	03c23023          	sd	x28,32(x4) # 20 <SECURE_ACCESS_PROBABILITY+0x2>
    41016468:	00000e13          	li	x28,0
    4101646c:	05c23023          	sd	x28,64(x4) # 40 <XLEN>
    41016470:	00000e13          	li	x28,0
    41016474:	05c23423          	sd	x28,72(x4) # 48 <XLEN+0x8>
    41016478:	00000e17          	auipc	x28,0x0
    4101647c:	048e0e13          	addi	x28,x28,72 # 410164c0 <excp_return_label_23>
    41016480:	03c23823          	sd	x28,48(x4) # 30 <SECURE_ACCESS_PROBABILITY+0x12>
    41016484:	00000e13          	li	x28,0
    41016488:	03c23c23          	sd	x28,56(x4) # 38 <SECURE_ACCESS_PROBABILITY+0x1a>
    4101648c:	00000e13          	li	x28,0
    41016490:	07c23023          	sd	x28,96(x4) # 60 <XLEN+0x20>
    41016494:	00000e13          	li	x28,0
    41016498:	07c23423          	sd	x28,104(x4) # 68 <XLEN+0x28>
    4101649c:	00000e13          	li	x28,0
    410164a0:	07c23823          	sd	x28,112(x4) # 70 <XLEN+0x30>
    410164a4:	fff0049b          	addiw	x9,x0,-1
    410164a8:	02949493          	slli	x9,x9,0x29

00000000410164ac <fault_label_23>:
    410164ac:	0004db03          	lhu	x22,0(x9)
    410164b0:	000048b7          	lui	x17,0x4
    410164b4:	0088889b          	addiw	x17,x17,8 # 4008 <failed_addr>
    410164b8:	0008b503          	ld	x10,0(x17)
    410164bc:	00050067          	jr	x10

00000000410164c0 <excp_return_label_23>:
    410164c0:	00004fb7          	lui	x31,0x4
    410164c4:	0b0f8f9b          	addiw	x31,x31,176 # 40b0 <pte_access_flags>
    410164c8:	fff0029b          	addiw	x5,x0,-1
    410164cc:	02929293          	slli	x5,x5,0x29
    410164d0:	005fb023          	sd	x5,0(x31)
    410164d4:	00300293          	li	x5,3
    410164d8:	005fb423          	sd	x5,8(x31)
    410164dc:	fff00293          	li	x5,-1
    410164e0:	005fb823          	sd	x5,16(x31)
    410164e4:	000f0fb7          	lui	x31,0xf0
    410164e8:	001f8f9b          	addiw	x31,x31,1 # f0001 <SID_PBVMS_013_ptw_permission_encodings_stack+0x1d001>
    410164ec:	00cf9f93          	slli	x31,x31,0xc
    410164f0:	007f8f93          	addi	x31,x31,7
    410164f4:	00000073          	ecall
    410164f8:	00200e93          	li	x29,2
    410164fc:	01d3edb3          	or	x27,x7,x29
    41016500:	000d8393          	mv	x7,x27
    41016504:	00004fb7          	lui	x31,0x4
    41016508:	0b0f8f9b          	addiw	x31,x31,176 # 40b0 <pte_access_flags>
    4101650c:	fff0029b          	addiw	x5,x0,-1
    41016510:	02929293          	slli	x5,x5,0x29
    41016514:	005fb023          	sd	x5,0(x31)
    41016518:	00300293          	li	x5,3
    4101651c:	005fb423          	sd	x5,8(x31)
    41016520:	fff00293          	li	x5,-1
    41016524:	005fb823          	sd	x5,16(x31)
    41016528:	000f0fb7          	lui	x31,0xf0
    4101652c:	001f8f9b          	addiw	x31,x31,1 # f0001 <SID_PBVMS_013_ptw_permission_encodings_stack+0x1d001>
    41016530:	00cf9f93          	slli	x31,x31,0xc
    41016534:	008f8f93          	addi	x31,x31,8
    41016538:	00000073          	ecall
    4101653c:	00075137          	lui	x2,0x75
    41016540:	00013383          	ld	x7,0(x2) # 75000 <tp_csr_storage>
    41016544:	00004fb7          	lui	x31,0x4
    41016548:	0a0f8f9b          	addiw	x31,x31,160 # 40a0 <machine_csr_jump_table_flags>
    4101654c:	00800f13          	li	x30,8
    41016550:	01efb023          	sd	x30,0(x31)
    41016554:	000f0fb7          	lui	x31,0xf0
    41016558:	001f8f9b          	addiw	x31,x31,1 # f0001 <SID_PBVMS_013_ptw_permission_encodings_stack+0x1d001>
    4101655c:	00cf9f93          	slli	x31,x31,0xc
    41016560:	005f8f93          	addi	x31,x31,5
    41016564:	00000073          	ecall

0000000041016568 <SID_PBVMS_034_sfence_vma_invalidate_va_asid_passed>:
    41016568:	00f00f9b          	addiw	x31,x0,15
    4101656c:	01cf9f93          	slli	x31,x31,0x1c
    41016570:	001f8f93          	addi	x31,x31,1
    41016574:	00000073          	ecall

0000000041016578 <SID_PBVMS_035_sfence_vma_various_page_sizes>:
    41016578:	0233e137          	lui	x2,0x233e
    4101657c:	fe31011b          	addiw	x2,x2,-29 # 233dfe3 <mem34__pt_level1+0x3dafe3>
    41016580:	00c11113          	slli	x2,x2,0xc
    41016584:	000012b7          	lui	x5,0x1
    41016588:	00510133          	add	x2,x2,x5
    4101658c:	ff017113          	andi	x2,x2,-16
    41016590:	0290061b          	addiw	x12,x0,41
    41016594:	02861613          	slli	x12,x12,0x28
    41016598:	00063703          	ld	x14,0(x12)
    4101659c:	00004fb7          	lui	x31,0x4
    410165a0:	0b0f8f9b          	addiw	x31,x31,176 # 40b0 <pte_access_flags>
    410165a4:	0290029b          	addiw	x5,x0,41
    410165a8:	02829293          	slli	x5,x5,0x28
    410165ac:	005fb023          	sd	x5,0(x31)
    410165b0:	00300293          	li	x5,3
    410165b4:	005fb423          	sd	x5,8(x31)
    410165b8:	fff00293          	li	x5,-1
    410165bc:	005fb823          	sd	x5,16(x31)
    410165c0:	000f0fb7          	lui	x31,0xf0
    410165c4:	001f8f9b          	addiw	x31,x31,1 # f0001 <SID_PBVMS_013_ptw_permission_encodings_stack+0x1d001>
    410165c8:	00cf9f93          	slli	x31,x31,0xc
    410165cc:	007f8f93          	addi	x31,x31,7
    410165d0:	00000073          	ecall
    410165d4:	ffd00a13          	li	x20,-3
    410165d8:	0143f4b3          	and	x9,x7,x20
    410165dc:	00048393          	mv	x7,x9
    410165e0:	00004fb7          	lui	x31,0x4
    410165e4:	0b0f8f9b          	addiw	x31,x31,176 # 40b0 <pte_access_flags>
    410165e8:	0290029b          	addiw	x5,x0,41
    410165ec:	02829293          	slli	x5,x5,0x28
    410165f0:	005fb023          	sd	x5,0(x31)
    410165f4:	00300293          	li	x5,3
    410165f8:	005fb423          	sd	x5,8(x31)
    410165fc:	fff00293          	li	x5,-1
    41016600:	005fb823          	sd	x5,16(x31)
    41016604:	000f0fb7          	lui	x31,0xf0
    41016608:	001f8f9b          	addiw	x31,x31,1 # f0001 <SID_PBVMS_013_ptw_permission_encodings_stack+0x1d001>
    4101660c:	00cf9f93          	slli	x31,x31,0xc
    41016610:	008f8f93          	addi	x31,x31,8
    41016614:	00000073          	ecall
    41016618:	12000073          	sfence.vma
    4101661c:	6063e237          	lui	x4,0x6063e
    41016620:	00d00e13          	li	x28,13
    41016624:	05c23823          	sd	x28,80(x4) # 6063e050 <check_excp_expected_cause>
    41016628:	00000e17          	auipc	x28,0x0
    4101662c:	050e0e13          	addi	x28,x28,80 # 41016678 <fault_label_24>
    41016630:	03c23023          	sd	x28,32(x4) # 20 <SECURE_ACCESS_PROBABILITY+0x2>
    41016634:	00000e13          	li	x28,0
    41016638:	05c23023          	sd	x28,64(x4) # 40 <XLEN>
    4101663c:	00000e13          	li	x28,0
    41016640:	05c23423          	sd	x28,72(x4) # 48 <XLEN+0x8>
    41016644:	00000e17          	auipc	x28,0x0
    41016648:	048e0e13          	addi	x28,x28,72 # 4101668c <excp_return_label_24>
    4101664c:	03c23823          	sd	x28,48(x4) # 30 <SECURE_ACCESS_PROBABILITY+0x12>
    41016650:	00000e13          	li	x28,0
    41016654:	03c23c23          	sd	x28,56(x4) # 38 <SECURE_ACCESS_PROBABILITY+0x1a>
    41016658:	00000e13          	li	x28,0
    4101665c:	07c23023          	sd	x28,96(x4) # 60 <XLEN+0x20>
    41016660:	00000e13          	li	x28,0
    41016664:	07c23423          	sd	x28,104(x4) # 68 <XLEN+0x28>
    41016668:	00000e13          	li	x28,0
    4101666c:	07c23823          	sd	x28,112(x4) # 70 <XLEN+0x30>
    41016670:	0290091b          	addiw	x18,x0,41
    41016674:	02891913          	slli	x18,x18,0x28

0000000041016678 <fault_label_24>:
    41016678:	00092187          	flw	f3,0(x18)
    4101667c:	000043b7          	lui	x7,0x4
    41016680:	0083839b          	addiw	x7,x7,8 # 4008 <failed_addr>
    41016684:	0003bd03          	ld	x26,0(x7)
    41016688:	000d0067          	jr	x26

000000004101668c <excp_return_label_24>:
    4101668c:	0010051b          	addiw	x10,x0,1
    41016690:	02e51513          	slli	x10,x10,0x2e
    41016694:	00051a03          	lh	x20,0(x10)
    41016698:	00004fb7          	lui	x31,0x4
    4101669c:	0b0f8f9b          	addiw	x31,x31,176 # 40b0 <pte_access_flags>
    410166a0:	0010029b          	addiw	x5,x0,1
    410166a4:	02e29293          	slli	x5,x5,0x2e
    410166a8:	005fb023          	sd	x5,0(x31)
    410166ac:	00200293          	li	x5,2
    410166b0:	005fb423          	sd	x5,8(x31)
    410166b4:	fff00293          	li	x5,-1
    410166b8:	005fb823          	sd	x5,16(x31)
    410166bc:	000f0fb7          	lui	x31,0xf0
    410166c0:	001f8f9b          	addiw	x31,x31,1 # f0001 <SID_PBVMS_013_ptw_permission_encodings_stack+0x1d001>
    410166c4:	00cf9f93          	slli	x31,x31,0xc
    410166c8:	007f8f93          	addi	x31,x31,7
    410166cc:	00000073          	ecall
    410166d0:	ffd00613          	li	x12,-3
    410166d4:	00c3f933          	and	x18,x7,x12
    410166d8:	00090393          	mv	x7,x18
    410166dc:	00004fb7          	lui	x31,0x4
    410166e0:	0b0f8f9b          	addiw	x31,x31,176 # 40b0 <pte_access_flags>
    410166e4:	0010029b          	addiw	x5,x0,1
    410166e8:	02e29293          	slli	x5,x5,0x2e
    410166ec:	005fb023          	sd	x5,0(x31)
    410166f0:	00200293          	li	x5,2
    410166f4:	005fb423          	sd	x5,8(x31)
    410166f8:	fff00293          	li	x5,-1
    410166fc:	005fb823          	sd	x5,16(x31)
    41016700:	000f0fb7          	lui	x31,0xf0
    41016704:	001f8f9b          	addiw	x31,x31,1 # f0001 <SID_PBVMS_013_ptw_permission_encodings_stack+0x1d001>
    41016708:	00cf9f93          	slli	x31,x31,0xc
    4101670c:	008f8f93          	addi	x31,x31,8
    41016710:	00000073          	ecall
    41016714:	12000073          	sfence.vma
    41016718:	6063e237          	lui	x4,0x6063e
    4101671c:	00d00e13          	li	x28,13
    41016720:	05c23823          	sd	x28,80(x4) # 6063e050 <check_excp_expected_cause>
    41016724:	00000e17          	auipc	x28,0x0
    41016728:	050e0e13          	addi	x28,x28,80 # 41016774 <fault_label_25>
    4101672c:	03c23023          	sd	x28,32(x4) # 20 <SECURE_ACCESS_PROBABILITY+0x2>
    41016730:	00000e13          	li	x28,0
    41016734:	05c23023          	sd	x28,64(x4) # 40 <XLEN>
    41016738:	00000e13          	li	x28,0
    4101673c:	05c23423          	sd	x28,72(x4) # 48 <XLEN+0x8>
    41016740:	00000e17          	auipc	x28,0x0
    41016744:	048e0e13          	addi	x28,x28,72 # 41016788 <excp_return_label_25>
    41016748:	03c23823          	sd	x28,48(x4) # 30 <SECURE_ACCESS_PROBABILITY+0x12>
    4101674c:	00000e13          	li	x28,0
    41016750:	03c23c23          	sd	x28,56(x4) # 38 <SECURE_ACCESS_PROBABILITY+0x1a>
    41016754:	00000e13          	li	x28,0
    41016758:	07c23023          	sd	x28,96(x4) # 60 <XLEN+0x20>
    4101675c:	00000e13          	li	x28,0
    41016760:	07c23423          	sd	x28,104(x4) # 68 <XLEN+0x28>
    41016764:	00000e13          	li	x28,0
    41016768:	07c23823          	sd	x28,112(x4) # 70 <XLEN+0x30>
    4101676c:	00100b9b          	addiw	x23,x0,1
    41016770:	02eb9b93          	slli	x23,x23,0x2e

0000000041016774 <fault_label_25>:
    41016774:	000bd983          	lhu	x19,0(x23)
    41016778:	00004e37          	lui	x28,0x4
    4101677c:	008e0e1b          	addiw	x28,x28,8 # 4008 <failed_addr>
    41016780:	000e3c03          	ld	x24,0(x28)
    41016784:	000c0067          	jr	x24

0000000041016788 <excp_return_label_25>:
    41016788:	00004fb7          	lui	x31,0x4
    4101678c:	0b0f8f9b          	addiw	x31,x31,176 # 40b0 <pte_access_flags>
    41016790:	0010029b          	addiw	x5,x0,1
    41016794:	02e29293          	slli	x5,x5,0x2e
    41016798:	005fb023          	sd	x5,0(x31)
    4101679c:	00200293          	li	x5,2
    410167a0:	005fb423          	sd	x5,8(x31)
    410167a4:	fff00293          	li	x5,-1
    410167a8:	005fb823          	sd	x5,16(x31)
    410167ac:	000f0fb7          	lui	x31,0xf0
    410167b0:	001f8f9b          	addiw	x31,x31,1 # f0001 <SID_PBVMS_013_ptw_permission_encodings_stack+0x1d001>
    410167b4:	00cf9f93          	slli	x31,x31,0xc
    410167b8:	007f8f93          	addi	x31,x31,7
    410167bc:	00000073          	ecall
    410167c0:	00200413          	li	x8,2
    410167c4:	0083eeb3          	or	x29,x7,x8
    410167c8:	000e8393          	mv	x7,x29
    410167cc:	00004fb7          	lui	x31,0x4
    410167d0:	0b0f8f9b          	addiw	x31,x31,176 # 40b0 <pte_access_flags>
    410167d4:	0010029b          	addiw	x5,x0,1
    410167d8:	02e29293          	slli	x5,x5,0x2e
    410167dc:	005fb023          	sd	x5,0(x31)
    410167e0:	00200293          	li	x5,2
    410167e4:	005fb423          	sd	x5,8(x31)
    410167e8:	fff00293          	li	x5,-1
    410167ec:	005fb823          	sd	x5,16(x31)
    410167f0:	000f0fb7          	lui	x31,0xf0
    410167f4:	001f8f9b          	addiw	x31,x31,1 # f0001 <SID_PBVMS_013_ptw_permission_encodings_stack+0x1d001>
    410167f8:	00cf9f93          	slli	x31,x31,0xc
    410167fc:	008f8f93          	addi	x31,x31,8
    41016800:	00000073          	ecall
    41016804:	00004fb7          	lui	x31,0x4
    41016808:	0b0f8f9b          	addiw	x31,x31,176 # 40b0 <pte_access_flags>
    4101680c:	0290029b          	addiw	x5,x0,41
    41016810:	02829293          	slli	x5,x5,0x28
    41016814:	005fb023          	sd	x5,0(x31)
    41016818:	00300293          	li	x5,3
    4101681c:	005fb423          	sd	x5,8(x31)
    41016820:	fff00293          	li	x5,-1
    41016824:	005fb823          	sd	x5,16(x31)
    41016828:	000f0fb7          	lui	x31,0xf0
    4101682c:	001f8f9b          	addiw	x31,x31,1 # f0001 <SID_PBVMS_013_ptw_permission_encodings_stack+0x1d001>
    41016830:	00cf9f93          	slli	x31,x31,0xc
    41016834:	007f8f93          	addi	x31,x31,7
    41016838:	00000073          	ecall
    4101683c:	00200893          	li	x17,2
    41016840:	0113efb3          	or	x31,x7,x17
    41016844:	000f8393          	mv	x7,x31
    41016848:	00004fb7          	lui	x31,0x4
    4101684c:	0b0f8f9b          	addiw	x31,x31,176 # 40b0 <pte_access_flags>
    41016850:	0290029b          	addiw	x5,x0,41
    41016854:	02829293          	slli	x5,x5,0x28
    41016858:	005fb023          	sd	x5,0(x31)
    4101685c:	00300293          	li	x5,3
    41016860:	005fb423          	sd	x5,8(x31)
    41016864:	fff00293          	li	x5,-1
    41016868:	005fb823          	sd	x5,16(x31)
    4101686c:	000f0fb7          	lui	x31,0xf0
    41016870:	001f8f9b          	addiw	x31,x31,1 # f0001 <SID_PBVMS_013_ptw_permission_encodings_stack+0x1d001>
    41016874:	00cf9f93          	slli	x31,x31,0xc
    41016878:	008f8f93          	addi	x31,x31,8
    4101687c:	00000073          	ecall

0000000041016880 <SID_PBVMS_035_sfence_vma_various_page_sizes_passed>:
    41016880:	00f00f9b          	addiw	x31,x0,15
    41016884:	01cf9f93          	slli	x31,x31,0x1c
    41016888:	001f8f93          	addi	x31,x31,1
    4101688c:	00000073          	ecall

0000000041016890 <SID_PBVMS_037_sfence_vma_tvm_illegal>:
    41016890:	00075137          	lui	x2,0x75
    41016894:	00004fb7          	lui	x31,0x4
    41016898:	0a0f8f9b          	addiw	x31,x31,160 # 40a0 <machine_csr_jump_table_flags>
    4101689c:	00100f13          	li	x30,1
    410168a0:	01efb023          	sd	x30,0(x31)
    410168a4:	000f0fb7          	lui	x31,0xf0
    410168a8:	001f8f9b          	addiw	x31,x31,1 # f0001 <SID_PBVMS_013_ptw_permission_encodings_stack+0x1d001>
    410168ac:	00cf9f93          	slli	x31,x31,0xc
    410168b0:	005f8f93          	addi	x31,x31,5
    410168b4:	00000073          	ecall
    410168b8:	00713023          	sd	x7,0(x2) # 75000 <tp_csr_storage>
    410168bc:	00bae137          	lui	x2,0xbae
    410168c0:	000012b7          	lui	x5,0x1
    410168c4:	00510133          	add	x2,x2,x5
    410168c8:	ff017113          	andi	x2,x2,-16
    410168cc:	001003b7          	lui	x7,0x100
    410168d0:	00004fb7          	lui	x31,0x4
    410168d4:	0a0f8f9b          	addiw	x31,x31,160 # 40a0 <machine_csr_jump_table_flags>
    410168d8:	00200f13          	li	x30,2
    410168dc:	01efb023          	sd	x30,0(x31)
    410168e0:	000f0fb7          	lui	x31,0xf0
    410168e4:	001f8f9b          	addiw	x31,x31,1 # f0001 <SID_PBVMS_013_ptw_permission_encodings_stack+0x1d001>
    410168e8:	00cf9f93          	slli	x31,x31,0xc
    410168ec:	005f8f93          	addi	x31,x31,5
    410168f0:	00000073          	ecall
    410168f4:	6063e237          	lui	x4,0x6063e
    410168f8:	00200e13          	li	x28,2
    410168fc:	05c23823          	sd	x28,80(x4) # 6063e050 <check_excp_expected_cause>
    41016900:	00000e17          	auipc	x28,0x0
    41016904:	048e0e13          	addi	x28,x28,72 # 41016948 <fault_label_26>
    41016908:	03c23023          	sd	x28,32(x4) # 20 <SECURE_ACCESS_PROBABILITY+0x2>
    4101690c:	00000e13          	li	x28,0
    41016910:	05c23023          	sd	x28,64(x4) # 40 <XLEN>
    41016914:	00000e13          	li	x28,0
    41016918:	05c23423          	sd	x28,72(x4) # 48 <XLEN+0x8>
    4101691c:	00000e17          	auipc	x28,0x0
    41016920:	040e0e13          	addi	x28,x28,64 # 4101695c <excp_return_label_26>
    41016924:	03c23823          	sd	x28,48(x4) # 30 <SECURE_ACCESS_PROBABILITY+0x12>
    41016928:	00000e13          	li	x28,0
    4101692c:	03c23c23          	sd	x28,56(x4) # 38 <SECURE_ACCESS_PROBABILITY+0x1a>
    41016930:	00000e13          	li	x28,0
    41016934:	07c23023          	sd	x28,96(x4) # 60 <XLEN+0x20>
    41016938:	00000e13          	li	x28,0
    4101693c:	07c23423          	sd	x28,104(x4) # 68 <XLEN+0x28>
    41016940:	00000e13          	li	x28,0
    41016944:	07c23823          	sd	x28,112(x4) # 70 <XLEN+0x30>

0000000041016948 <fault_label_26>:
    41016948:	12000073          	sfence.vma
    4101694c:	000043b7          	lui	x7,0x4
    41016950:	0083839b          	addiw	x7,x7,8 # 4008 <failed_addr>
    41016954:	0003bc83          	ld	x25,0(x7)
    41016958:	000c8067          	jr	x25

000000004101695c <excp_return_label_26>:
    4101695c:	001003b7          	lui	x7,0x100
    41016960:	00004fb7          	lui	x31,0x4
    41016964:	0a0f8f9b          	addiw	x31,x31,160 # 40a0 <machine_csr_jump_table_flags>
    41016968:	00300f13          	li	x30,3
    4101696c:	01efb023          	sd	x30,0(x31)
    41016970:	000f0fb7          	lui	x31,0xf0
    41016974:	001f8f9b          	addiw	x31,x31,1 # f0001 <SID_PBVMS_013_ptw_permission_encodings_stack+0x1d001>
    41016978:	00cf9f93          	slli	x31,x31,0xc
    4101697c:	005f8f93          	addi	x31,x31,5
    41016980:	00000073          	ecall
    41016984:	12000073          	sfence.vma
    41016988:	00075137          	lui	x2,0x75
    4101698c:	00013383          	ld	x7,0(x2) # 75000 <tp_csr_storage>
    41016990:	00004fb7          	lui	x31,0x4
    41016994:	0a0f8f9b          	addiw	x31,x31,160 # 40a0 <machine_csr_jump_table_flags>
    41016998:	00600f13          	li	x30,6
    4101699c:	01efb023          	sd	x30,0(x31)
    410169a0:	000f0fb7          	lui	x31,0xf0
    410169a4:	001f8f9b          	addiw	x31,x31,1 # f0001 <SID_PBVMS_013_ptw_permission_encodings_stack+0x1d001>
    410169a8:	00cf9f93          	slli	x31,x31,0xc
    410169ac:	005f8f93          	addi	x31,x31,5
    410169b0:	00000073          	ecall

00000000410169b4 <SID_PBVMS_037_sfence_vma_tvm_illegal_passed>:
    410169b4:	00f00f9b          	addiw	x31,x0,15
    410169b8:	01cf9f93          	slli	x31,x31,0x1c
    410169bc:	001f8f93          	addi	x31,x31,1
    410169c0:	00000073          	ecall

00000000410169c4 <SID_PBVMS_039_non_leaf_not_invalidated_va_based>:
    410169c4:	00040137          	lui	x2,0x40
    410169c8:	e631011b          	addiw	x2,x2,-413 # 3fe63 <SID_PBVMS_043_fetch_window_spill_page_cross_stack+0x8e63>
    410169cc:	00e11113          	slli	x2,x2,0xe
    410169d0:	0cd10113          	addi	x2,x2,205
    410169d4:	00d11113          	slli	x2,x2,0xd
    410169d8:	000012b7          	lui	x5,0x1
    410169dc:	00510133          	add	x2,x2,x5
    410169e0:	ff017113          	andi	x2,x2,-16
    410169e4:	fff0081b          	addiw	x16,x0,-1
    410169e8:	02881813          	slli	x16,x16,0x28
    410169ec:	00085483          	lhu	x9,0(x16)
    410169f0:	00004fb7          	lui	x31,0x4
    410169f4:	0b0f8f9b          	addiw	x31,x31,176 # 40b0 <pte_access_flags>
    410169f8:	fff0029b          	addiw	x5,x0,-1
    410169fc:	02829293          	slli	x5,x5,0x28
    41016a00:	005fb023          	sd	x5,0(x31)
    41016a04:	00100293          	li	x5,1
    41016a08:	005fb423          	sd	x5,8(x31)
    41016a0c:	fff00293          	li	x5,-1
    41016a10:	005fb823          	sd	x5,16(x31)
    41016a14:	000f0fb7          	lui	x31,0xf0
    41016a18:	001f8f9b          	addiw	x31,x31,1 # f0001 <SID_PBVMS_013_ptw_permission_encodings_stack+0x1d001>
