
/home/abdullah/RiescueC/riescue/10x_R/zicsr/testsuite/zicsr/super_sv57/tp_zicsr_1:     file format elf64-littleriscv


Disassembly of section .runtime:

0000000041000000 <_start>:
    41000000:	00000093          	li	x1,0
    41000004:	00000113          	li	x2,0
    41000008:	00000193          	li	x3,0
    4100000c:	00000213          	li	x4,0
    41000010:	00000293          	li	x5,0
    41000014:	00000313          	li	x6,0
    41000018:	00000393          	li	x7,0
    4100001c:	00000413          	li	x8,0
    41000020:	00000493          	li	x9,0
    41000024:	00000513          	li	x10,0
    41000028:	00000593          	li	x11,0
    4100002c:	00000613          	li	x12,0
    41000030:	00000693          	li	x13,0
    41000034:	00000713          	li	x14,0
    41000038:	00000793          	li	x15,0
    4100003c:	00000813          	li	x16,0
    41000040:	00000893          	li	x17,0
    41000044:	00000913          	li	x18,0
    41000048:	00000993          	li	x19,0
    4100004c:	00000a13          	li	x20,0
    41000050:	00000a93          	li	x21,0
    41000054:	00000b13          	li	x22,0
    41000058:	00000b93          	li	x23,0
    4100005c:	00000c13          	li	x24,0
    41000060:	00000c93          	li	x25,0
    41000064:	00000d13          	li	x26,0
    41000068:	00000d93          	li	x27,0
    4100006c:	00000e13          	li	x28,0
    41000070:	00000e93          	li	x29,0
    41000074:	00000f13          	li	x30,0
    41000078:	00000f93          	li	x31,0

000000004100007c <loader__load_panic_address>:
    4100007c:	00001297          	auipc	x5,0x1
    41000080:	9b828293          	addi	x5,x5,-1608 # 41000a34 <eot__failed>
    41000084:	30529073          	csrw	mtvec,x5

0000000041000088 <loader__initialize_runtime>:
    41000088:	00000293          	li	x5,0
    4100008c:	3012a2f3          	csrrs	x5,misa,x5

0000000041000090 <loader__set_mstatus>:
    41000090:	000402b7          	lui	x5,0x40
    41000094:	00a2829b          	addiw	x5,x5,10 # 4000a <pma_region_0_size+0xa>
    41000098:	3002a2f3          	csrrs	x5,mstatus,x5
    4100009c:	415b6237          	lui	x4,0x415b6
    410000a0:	34021073          	csrw	mscratch,x4

00000000410000a4 <loader__setup_menvcfg>:
    410000a4:	00000297          	auipc	x5,0x0
    410000a8:	47c28293          	addi	x5,x5,1148 # 41000520 <trap_handler_m__trap_entry>
    410000ac:	30529073          	csrw	mtvec,x5

00000000410000b0 <loader__enable_paging>:
    410000b0:	fffd00b7          	lui	x1,0xfffd0
    410000b4:	0d70809b          	addiw	x1,x1,215 # fffffffffffd00d7 <SID_ZICSR_05_stack+0xff16d5891a57a0d7>
    410000b8:	02109093          	slli	x1,x1,0x21
    410000bc:	04108093          	addi	x1,x1,65
    410000c0:	00c09093          	slli	x1,x1,0xc
    410000c4:	23408093          	addi	x1,x1,564
    410000c8:	18009073          	csrw	satp,x1

00000000410000cc <loader__done>:
    410000cc:	1910006f          	j	41000a5c <scheduler__init>

00000000410000d0 <loader__panic>:
    410000d0:	1650006f          	j	41000a34 <eot__failed>

00000000410000d4 <syscalls__syscall_check_schedule_next_test>:
    410000d4:	00f0029b          	addiw	x5,x0,15
    410000d8:	01c29293          	slli	x5,x5,0x1c
    410000dc:	00128293          	addi	x5,x5,1
    410000e0:	01f29a63          	bne	x5,x31,410000f4 <syscalls__syscall_check_fail_test>
    410000e4:	00000317          	auipc	x6,0x0
    410000e8:	43c30313          	addi	x6,x6,1084 # 41000520 <trap_handler_m__trap_entry>
    410000ec:	30531073          	csrw	mtvec,x6
    410000f0:	6740006f          	j	41000764 <enter_scheduler>

00000000410000f4 <syscalls__syscall_check_fail_test>:
    410000f4:	00f0029b          	addiw	x5,x0,15
    410000f8:	01c29293          	slli	x5,x5,0x1c
    410000fc:	00228293          	addi	x5,x5,2
    41000100:	01f29a63          	bne	x5,x31,41000114 <syscalls__syscall_check_end_test_without_failure>
    41000104:	00000317          	auipc	x6,0x0
    41000108:	41c30313          	addi	x6,x6,1052 # 41000520 <trap_handler_m__trap_entry>
    4100010c:	30531073          	csrw	mtvec,x6
    41000110:	6840006f          	j	41000794 <test_failed>

0000000041000114 <syscalls__syscall_check_end_test_without_failure>:
    41000114:	00f0029b          	addiw	x5,x0,15
    41000118:	01c29293          	slli	x5,x5,0x1c
    4100011c:	00328293          	addi	x5,x5,3
    41000120:	01f29a63          	bne	x5,x31,41000134 <syscalls__syscall_check_switch_machine_mode>
    41000124:	00000317          	auipc	x6,0x0
    41000128:	3fc30313          	addi	x6,x6,1020 # 41000520 <trap_handler_m__trap_entry>
    4100012c:	30531073          	csrw	mtvec,x6
    41000130:	6700006f          	j	410007a0 <os_end_test>

0000000041000134 <syscalls__syscall_check_switch_machine_mode>:
    41000134:	000f02b7          	lui	x5,0xf0
    41000138:	0012829b          	addiw	x5,x5,1 # f0001 <pma_region_0_size+0xb0001>
    4100013c:	00c29293          	slli	x5,x5,0xc
    41000140:	00128293          	addi	x5,x5,1
    41000144:	0a5f8463          	beq	x31,x5,410001ec <syscalls__os_fn_f0001001>

0000000041000148 <syscalls__syscall_check_switch_super_mode>:
    41000148:	000f02b7          	lui	x5,0xf0
    4100014c:	0012829b          	addiw	x5,x5,1 # f0001 <pma_region_0_size+0xb0001>
    41000150:	00c29293          	slli	x5,x5,0xc
    41000154:	00228293          	addi	x5,x5,2
    41000158:	0c5f8063          	beq	x31,x5,41000218 <syscalls__os_fn_f0001002>

000000004100015c <syscalls__syscall_check_switch_user_mode>:
    4100015c:	000f02b7          	lui	x5,0xf0
    41000160:	0012829b          	addiw	x5,x5,1 # f0001 <pma_region_0_size+0xb0001>
    41000164:	00c29293          	slli	x5,x5,0xc
    41000168:	00328293          	addi	x5,x5,3
    4100016c:	0a5f8a63          	beq	x31,x5,41000220 <syscalls__os_fn_f0001003>

0000000041000170 <syscalls__syscall_check_switch_test_mode>:
    41000170:	000f02b7          	lui	x5,0xf0
    41000174:	0012829b          	addiw	x5,x5,1 # f0001 <pma_region_0_size+0xb0001>
    41000178:	00c29293          	slli	x5,x5,0xc
    4100017c:	00428293          	addi	x5,x5,4
    41000180:	0c5f8463          	beq	x31,x5,41000248 <syscalls__os_fn_f0001004>

0000000041000184 <syscalls__syscall_machine_csr_rw>:
    41000184:	000f02b7          	lui	x5,0xf0
    41000188:	0012829b          	addiw	x5,x5,1 # f0001 <pma_region_0_size+0xb0001>
    4100018c:	00c29293          	slli	x5,x5,0xc
    41000190:	00528293          	addi	x5,x5,5
    41000194:	0e5f8063          	beq	x31,x5,41000274 <syscalls__os_fn_f0001005>

0000000041000198 <syscalls__syscall_supervisor_csr_rw>:
    41000198:	000f02b7          	lui	x5,0xf0
    4100019c:	0012829b          	addiw	x5,x5,1 # f0001 <pma_region_0_size+0xb0001>
    410001a0:	00c29293          	slli	x5,x5,0xc
    410001a4:	00628293          	addi	x5,x5,6
    410001a8:	0e5f8c63          	beq	x31,x5,410002a0 <syscalls__os_fn_f0001006>

00000000410001ac <syscalls__syscall_machine_pte_read>:
    410001ac:	000f02b7          	lui	x5,0xf0
    410001b0:	0012829b          	addiw	x5,x5,1 # f0001 <pma_region_0_size+0xb0001>
    410001b4:	00c29293          	slli	x5,x5,0xc
    410001b8:	00728293          	addi	x5,x5,7
    410001bc:	0e5f8663          	beq	x31,x5,410002a8 <syscalls__os_fn_f0001007>

00000000410001c0 <syscalls__syscall_machine_pte_write>:
    410001c0:	000f02b7          	lui	x5,0xf0
    410001c4:	0012829b          	addiw	x5,x5,1 # f0001 <pma_region_0_size+0xb0001>
    410001c8:	00c29293          	slli	x5,x5,0xc
    410001cc:	00828293          	addi	x5,x5,8
    410001d0:	1c5f8263          	beq	x31,x5,41000394 <syscalls__os_fn_f0001008>

00000000410001d4 <syscalls__syscall_check_get_hart_context>:
    410001d4:	000782b7          	lui	x5,0x78
    410001d8:	0012829b          	addiw	x5,x5,1 # 78001 <pma_region_0_size+0x38001>
    410001dc:	00d29293          	slli	x5,x5,0xd
    410001e0:	00128293          	addi	x5,x5,1
    410001e4:	285f8e63          	beq	x31,x5,41000480 <syscalls__os_get_hart_context>
    410001e8:	4940006f          	j	4100067c <trap_handler_m__check_exception_label>

00000000410001ec <syscalls__os_fn_f0001001>:
    410001ec:	000022b7          	lui	x5,0x2
    410001f0:	8002829b          	addiw	x5,x5,-2048 # 1800 <pma_region_1_size+0x800>
    410001f4:	3002b073          	csrc	mstatus,x5
    410001f8:	000022b7          	lui	x5,0x2
    410001fc:	8002829b          	addiw	x5,x5,-2048 # 1800 <pma_region_1_size+0x800>
    41000200:	3002a073          	csrs	mstatus,x5
    41000204:	0010029b          	addiw	x5,x0,1
    41000208:	02729293          	slli	x5,x5,0x27
    4100020c:	3002b073          	csrc	mstatus,x5
    41000210:	411942b7          	lui	x5,0x41194
    41000214:	27c0006f          	j	41000490 <syscalls__ret_from_os_fn>

0000000041000218 <syscalls__os_fn_f0001002>:
    41000218:	410942b7          	lui	x5,0x41094
    4100021c:	2740006f          	j	41000490 <syscalls__ret_from_os_fn>

0000000041000220 <syscalls__os_fn_f0001003>:
    41000220:	000022b7          	lui	x5,0x2
    41000224:	8002829b          	addiw	x5,x5,-2048 # 1800 <pma_region_1_size+0x800>
    41000228:	3002b073          	csrc	mstatus,x5
    4100022c:	00000293          	li	x5,0
    41000230:	3002a073          	csrs	mstatus,x5
    41000234:	0010029b          	addiw	x5,x0,1
    41000238:	02729293          	slli	x5,x5,0x27
    4100023c:	3002b073          	csrc	mstatus,x5
    41000240:	411142b7          	lui	x5,0x41114
    41000244:	24c0006f          	j	41000490 <syscalls__ret_from_os_fn>

0000000041000248 <syscalls__os_fn_f0001004>:
    41000248:	000022b7          	lui	x5,0x2
    4100024c:	8002829b          	addiw	x5,x5,-2048 # 1800 <pma_region_1_size+0x800>
    41000250:	3002b073          	csrc	mstatus,x5
    41000254:	000012b7          	lui	x5,0x1
    41000258:	8002829b          	addiw	x5,x5,-2048 # 800 <XLEN+0x7c0>
    4100025c:	3002a073          	csrs	mstatus,x5
    41000260:	0010029b          	addiw	x5,x0,1
    41000264:	02729293          	slli	x5,x5,0x27
    41000268:	3002b073          	csrc	mstatus,x5
    4100026c:	17823283          	ld	x5,376(x4) # 415b6178 <__section_hart_context+0x178>
    41000270:	2200006f          	j	41000490 <syscalls__ret_from_os_fn>

0000000041000274 <syscalls__os_fn_f0001005>:
    41000274:	000022b7          	lui	x5,0x2
    41000278:	8002829b          	addiw	x5,x5,-2048 # 1800 <pma_region_1_size+0x800>
    4100027c:	3002b073          	csrc	mstatus,x5
    41000280:	000022b7          	lui	x5,0x2
    41000284:	8002829b          	addiw	x5,x5,-2048 # 1800 <pma_region_1_size+0x800>
    41000288:	3002a073          	csrs	mstatus,x5
    4100028c:	0010029b          	addiw	x5,x0,1
    41000290:	02729293          	slli	x5,x5,0x27
    41000294:	3002b073          	csrc	mstatus,x5
    41000298:	412142b7          	lui	x5,0x41214
    4100029c:	1f40006f          	j	41000490 <syscalls__ret_from_os_fn>

00000000410002a0 <syscalls__os_fn_f0001006>:
    410002a0:	412152b7          	lui	x5,0x41215
    410002a4:	1ec0006f          	j	41000490 <syscalls__ret_from_os_fn>

00000000410002a8 <syscalls__os_fn_f0001007>:
    410002a8:	44566fb7          	lui	x31,0x44566
    410002ac:	0b0f8f9b          	addiw	x31,x31,176 # 445660b0 <pte_access_flags_pa>
    410002b0:	000fbf83          	ld	x31,0(x31)
    410002b4:	445662b7          	lui	x5,0x44566
    410002b8:	0b82829b          	addiw	x5,x5,184 # 445660b8 <pte_access_flags_pa+0x8>
    410002bc:	0002b283          	ld	x5,0(x5)
    410002c0:	44566e37          	lui	x28,0x44566
    410002c4:	0c0e0e1b          	addiw	x28,x28,192 # 445660c0 <pte_access_flags_pa+0x10>
    410002c8:	000e3e03          	ld	x28,0(x28)

00000000410002cc <syscalls__pte_walk_check_glevel_without_gstage_read>:
    410002cc:	fff00f93          	li	x31,-1
    410002d0:	0dfe1063          	bne	x28,x31,41000390 <syscalls__pte_walk_fail_read>
    410002d4:	18002373          	csrr	x6,satp
    410002d8:	03c35e93          	srli	x29,x6,0x3c
    410002dc:	01431313          	slli	x6,x6,0x14
    410002e0:	01435313          	srli	x6,x6,0x14
    410002e4:	00c31313          	slli	x6,x6,0xc
    410002e8:	ff8e8e93          	addi	x29,x29,-8
    410002ec:	003e9f13          	slli	x30,x29,0x3
    410002f0:	01df0eb3          	add	x29,x30,x29
    410002f4:	01ee8e93          	addi	x29,x29,30
    410002f8:	00000f13          	li	x30,0

00000000410002fc <syscalls__pte_walk_loop_read>:
    410002fc:	44566fb7          	lui	x31,0x44566
    41000300:	0b0f8f9b          	addiw	x31,x31,176 # 445660b0 <pte_access_flags_pa>
    41000304:	000fbf83          	ld	x31,0(x31)
    41000308:	01dfdfb3          	srl	x31,x31,x29
    4100030c:	1fffff93          	andi	x31,x31,511
    41000310:	003f9f93          	slli	x31,x31,0x3
    41000314:	01f30333          	add	x6,x6,x31
    41000318:	005f0e63          	beq	x30,x5,41000334 <syscalls__pte_walk_done_read>
    4100031c:	00033f83          	ld	x31,0(x6)
    41000320:	00afdf93          	srli	x31,x31,0xa
    41000324:	00cf9313          	slli	x6,x31,0xc
    41000328:	001f0f13          	addi	x30,x30,1
    4100032c:	ff7e8e93          	addi	x29,x29,-9
    41000330:	fcdff06f          	j	410002fc <syscalls__pte_walk_loop_read>

0000000041000334 <syscalls__pte_walk_done_read>:
    41000334:	fff00f93          	li	x31,-1
    41000338:	05fe0263          	beq	x28,x31,4100037c <syscalls__pte_walk_final_read>

000000004100033c <syscalls__pte_walk_gstage_read>:
    4100033c:	44566fb7          	lui	x31,0x44566
    41000340:	0b0f8f9b          	addiw	x31,x31,176 # 445660b0 <pte_access_flags_pa>
    41000344:	006fb023          	sd	x6,0(x31)
    41000348:	000e0293          	mv	x5,x28
    4100034c:	fff00e13          	li	x28,-1
    41000350:	68002373          	csrr	x6,hgatp
    41000354:	03c35e93          	srli	x29,x6,0x3c
    41000358:	01431313          	slli	x6,x6,0x14
    4100035c:	01435313          	srli	x6,x6,0x14
    41000360:	00c31313          	slli	x6,x6,0xc
    41000364:	ff8e8e93          	addi	x29,x29,-8
    41000368:	003e9f13          	slli	x30,x29,0x3
    4100036c:	01df0eb3          	add	x29,x30,x29
    41000370:	01ee8e93          	addi	x29,x29,30
    41000374:	00000f13          	li	x30,0
    41000378:	f85ff06f          	j	410002fc <syscalls__pte_walk_loop_read>

000000004100037c <syscalls__pte_walk_final_read>:
    4100037c:	00033383          	ld	x7,0(x6)
    41000380:	341022f3          	csrr	x5,mepc
    41000384:	00428293          	addi	x5,x5,4
    41000388:	16523c23          	sd	x5,376(x4) # 178 <XLEN+0x138>
    4100038c:	ebdff06f          	j	41000248 <syscalls__os_fn_f0001004>

0000000041000390 <syscalls__pte_walk_fail_read>:
    41000390:	4040006f          	j	41000794 <test_failed>

0000000041000394 <syscalls__os_fn_f0001008>:
    41000394:	44566fb7          	lui	x31,0x44566
    41000398:	0b0f8f9b          	addiw	x31,x31,176 # 445660b0 <pte_access_flags_pa>
    4100039c:	000fbf83          	ld	x31,0(x31)
    410003a0:	445662b7          	lui	x5,0x44566
    410003a4:	0b82829b          	addiw	x5,x5,184 # 445660b8 <pte_access_flags_pa+0x8>
    410003a8:	0002b283          	ld	x5,0(x5)
    410003ac:	44566e37          	lui	x28,0x44566
    410003b0:	0c0e0e1b          	addiw	x28,x28,192 # 445660c0 <pte_access_flags_pa+0x10>
    410003b4:	000e3e03          	ld	x28,0(x28)

00000000410003b8 <syscalls__pte_walk_check_glevel_without_gstage_write>:
    410003b8:	fff00f93          	li	x31,-1
    410003bc:	0dfe1063          	bne	x28,x31,4100047c <syscalls__pte_walk_fail_write>
    410003c0:	18002373          	csrr	x6,satp
    410003c4:	03c35e93          	srli	x29,x6,0x3c
    410003c8:	01431313          	slli	x6,x6,0x14
    410003cc:	01435313          	srli	x6,x6,0x14
    410003d0:	00c31313          	slli	x6,x6,0xc
    410003d4:	ff8e8e93          	addi	x29,x29,-8
    410003d8:	003e9f13          	slli	x30,x29,0x3
    410003dc:	01df0eb3          	add	x29,x30,x29
    410003e0:	01ee8e93          	addi	x29,x29,30
    410003e4:	00000f13          	li	x30,0

00000000410003e8 <syscalls__pte_walk_loop_write>:
    410003e8:	44566fb7          	lui	x31,0x44566
    410003ec:	0b0f8f9b          	addiw	x31,x31,176 # 445660b0 <pte_access_flags_pa>
    410003f0:	000fbf83          	ld	x31,0(x31)
    410003f4:	01dfdfb3          	srl	x31,x31,x29
    410003f8:	1fffff93          	andi	x31,x31,511
    410003fc:	003f9f93          	slli	x31,x31,0x3
    41000400:	01f30333          	add	x6,x6,x31
    41000404:	005f0e63          	beq	x30,x5,41000420 <syscalls__pte_walk_done_write>
    41000408:	00033f83          	ld	x31,0(x6)
    4100040c:	00afdf93          	srli	x31,x31,0xa
    41000410:	00cf9313          	slli	x6,x31,0xc
    41000414:	001f0f13          	addi	x30,x30,1
    41000418:	ff7e8e93          	addi	x29,x29,-9
    4100041c:	fcdff06f          	j	410003e8 <syscalls__pte_walk_loop_write>

0000000041000420 <syscalls__pte_walk_done_write>:
    41000420:	fff00f93          	li	x31,-1
    41000424:	05fe0263          	beq	x28,x31,41000468 <syscalls__pte_walk_final_write>

0000000041000428 <syscalls__pte_walk_gstage_write>:
    41000428:	44566fb7          	lui	x31,0x44566
    4100042c:	0b0f8f9b          	addiw	x31,x31,176 # 445660b0 <pte_access_flags_pa>
    41000430:	006fb023          	sd	x6,0(x31)
    41000434:	000e0293          	mv	x5,x28
    41000438:	fff00e13          	li	x28,-1
    4100043c:	68002373          	csrr	x6,hgatp
    41000440:	03c35e93          	srli	x29,x6,0x3c
    41000444:	01431313          	slli	x6,x6,0x14
    41000448:	01435313          	srli	x6,x6,0x14
    4100044c:	00c31313          	slli	x6,x6,0xc
    41000450:	ff8e8e93          	addi	x29,x29,-8
    41000454:	003e9f13          	slli	x30,x29,0x3
    41000458:	01df0eb3          	add	x29,x30,x29
    4100045c:	01ee8e93          	addi	x29,x29,30
    41000460:	00000f13          	li	x30,0
    41000464:	f85ff06f          	j	410003e8 <syscalls__pte_walk_loop_write>

0000000041000468 <syscalls__pte_walk_final_write>:
    41000468:	00733023          	sd	x7,0(x6)
    4100046c:	341022f3          	csrr	x5,mepc
    41000470:	00428293          	addi	x5,x5,4
    41000474:	16523c23          	sd	x5,376(x4) # 178 <XLEN+0x138>
    41000478:	dd1ff06f          	j	41000248 <syscalls__os_fn_f0001004>

000000004100047c <syscalls__pte_walk_fail_write>:
    4100047c:	3180006f          	j	41000794 <test_failed>

0000000041000480 <syscalls__os_get_hart_context>:
    41000480:	14002573          	csrr	x10,sscratch
    41000484:	341022f3          	csrr	x5,mepc
    41000488:	00428293          	addi	x5,x5,4
    4100048c:	0040006f          	j	41000490 <syscalls__ret_from_os_fn>

0000000041000490 <syscalls__ret_from_os_fn>:
    41000490:	34102373          	csrr	x6,mepc
    41000494:	00430313          	addi	x6,x6,4
    41000498:	16623c23          	sd	x6,376(x4) # 178 <XLEN+0x138>
    4100049c:	34129073          	csrw	mepc,x5
    410004a0:	fff00f93          	li	x31,-1
    410004a4:	2a40006f          	j	41000748 <trap_handler_m__skip_xepc_write>

00000000410004a8 <trap_handler_m__invalid_interrupt>:
    410004a8:	2ec0006f          	j	41000794 <test_failed>

00000000410004ac <trap_handler_m__clear_all_interrupts>:
    410004ac:	34401073          	csrw	mip,x0
    410004b0:	30200073          	mret

00000000410004b4 <trap_handler_m___CLEAR_SSI>:
    410004b4:	00200293          	li	x5,2
    410004b8:	3442b073          	csrc	mip,x5
    410004bc:	30200073          	mret

00000000410004c0 <trap_handler_m___CLEAR_MSI>:
    410004c0:	00800293          	li	x5,8
    410004c4:	3442b073          	csrc	mip,x5
    410004c8:	30200073          	mret

00000000410004cc <trap_handler_m___CLEAR_STI>:
    410004cc:	02000293          	li	x5,32
    410004d0:	3442b073          	csrc	mip,x5
    410004d4:	30200073          	mret

00000000410004d8 <trap_handler_m___CLEAR_MTI>:
    410004d8:	08000293          	li	x5,128
    410004dc:	3442b073          	csrc	mip,x5
    410004e0:	30200073          	mret

00000000410004e4 <trap_handler_m___CLEAR_SEI>:
    410004e4:	20000293          	li	x5,512
    410004e8:	3442b073          	csrc	mip,x5
    410004ec:	30200073          	mret

00000000410004f0 <trap_handler_m___CLEAR_MEI>:
    410004f0:	000012b7          	lui	x5,0x1
    410004f4:	8002829b          	addiw	x5,x5,-2048 # 800 <XLEN+0x7c0>
    410004f8:	3442b073          	csrc	mip,x5
    410004fc:	30200073          	mret

0000000041000500 <trap_handler_m___CLEAR_COI>:
    41000500:	000022b7          	lui	x5,0x2
    41000504:	3442b073          	csrc	mip,x5
    41000508:	30200073          	mret

000000004100050c <trap_handler_m__clear_highest_priority_interrupt>:
    4100050c:	344022f3          	csrr	x5,mip
    41000510:	40500333          	neg	x6,x5
    41000514:	0062f2b3          	and	x5,x5,x6
    41000518:	3442b073          	csrc	mip,x5
    4100051c:	30200073          	mret

0000000041000520 <trap_handler_m__trap_entry>:
    41000520:	0fc0006f          	j	4100061c <trap_handler_m__trap_handler>

0000000041000524 <trap_handler_m__interrupt_vector_table>:
    41000524:	f91ff06f          	j	410004b4 <trap_handler_m___CLEAR_SSI>
    41000528:	f81ff06f          	j	410004a8 <trap_handler_m__invalid_interrupt>
    4100052c:	f95ff06f          	j	410004c0 <trap_handler_m___CLEAR_MSI>
    41000530:	f79ff06f          	j	410004a8 <trap_handler_m__invalid_interrupt>
    41000534:	f99ff06f          	j	410004cc <trap_handler_m___CLEAR_STI>
    41000538:	f71ff06f          	j	410004a8 <trap_handler_m__invalid_interrupt>
    4100053c:	f9dff06f          	j	410004d8 <trap_handler_m___CLEAR_MTI>
    41000540:	f69ff06f          	j	410004a8 <trap_handler_m__invalid_interrupt>
    41000544:	fa1ff06f          	j	410004e4 <trap_handler_m___CLEAR_SEI>
    41000548:	f61ff06f          	j	410004a8 <trap_handler_m__invalid_interrupt>
    4100054c:	fa5ff06f          	j	410004f0 <trap_handler_m___CLEAR_MEI>
    41000550:	f59ff06f          	j	410004a8 <trap_handler_m__invalid_interrupt>
    41000554:	fadff06f          	j	41000500 <trap_handler_m___CLEAR_COI>
    41000558:	f51ff06f          	j	410004a8 <trap_handler_m__invalid_interrupt>
    4100055c:	f4dff06f          	j	410004a8 <trap_handler_m__invalid_interrupt>
    41000560:	fadff06f          	j	4100050c <trap_handler_m__clear_highest_priority_interrupt>
    41000564:	fa9ff06f          	j	4100050c <trap_handler_m__clear_highest_priority_interrupt>
    41000568:	fa5ff06f          	j	4100050c <trap_handler_m__clear_highest_priority_interrupt>
    4100056c:	fa1ff06f          	j	4100050c <trap_handler_m__clear_highest_priority_interrupt>
    41000570:	f9dff06f          	j	4100050c <trap_handler_m__clear_highest_priority_interrupt>
    41000574:	f99ff06f          	j	4100050c <trap_handler_m__clear_highest_priority_interrupt>
    41000578:	f95ff06f          	j	4100050c <trap_handler_m__clear_highest_priority_interrupt>
    4100057c:	f91ff06f          	j	4100050c <trap_handler_m__clear_highest_priority_interrupt>
    41000580:	f8dff06f          	j	4100050c <trap_handler_m__clear_highest_priority_interrupt>
    41000584:	f89ff06f          	j	4100050c <trap_handler_m__clear_highest_priority_interrupt>
    41000588:	f85ff06f          	j	4100050c <trap_handler_m__clear_highest_priority_interrupt>
    4100058c:	f81ff06f          	j	4100050c <trap_handler_m__clear_highest_priority_interrupt>
    41000590:	f7dff06f          	j	4100050c <trap_handler_m__clear_highest_priority_interrupt>
    41000594:	f79ff06f          	j	4100050c <trap_handler_m__clear_highest_priority_interrupt>
    41000598:	f75ff06f          	j	4100050c <trap_handler_m__clear_highest_priority_interrupt>
    4100059c:	f71ff06f          	j	4100050c <trap_handler_m__clear_highest_priority_interrupt>
    410005a0:	f6dff06f          	j	4100050c <trap_handler_m__clear_highest_priority_interrupt>
    410005a4:	f69ff06f          	j	4100050c <trap_handler_m__clear_highest_priority_interrupt>
    410005a8:	f65ff06f          	j	4100050c <trap_handler_m__clear_highest_priority_interrupt>
    410005ac:	f61ff06f          	j	4100050c <trap_handler_m__clear_highest_priority_interrupt>
    410005b0:	f5dff06f          	j	4100050c <trap_handler_m__clear_highest_priority_interrupt>
    410005b4:	f59ff06f          	j	4100050c <trap_handler_m__clear_highest_priority_interrupt>
    410005b8:	f55ff06f          	j	4100050c <trap_handler_m__clear_highest_priority_interrupt>
    410005bc:	f51ff06f          	j	4100050c <trap_handler_m__clear_highest_priority_interrupt>
    410005c0:	f4dff06f          	j	4100050c <trap_handler_m__clear_highest_priority_interrupt>
    410005c4:	f49ff06f          	j	4100050c <trap_handler_m__clear_highest_priority_interrupt>
    410005c8:	f45ff06f          	j	4100050c <trap_handler_m__clear_highest_priority_interrupt>
    410005cc:	f41ff06f          	j	4100050c <trap_handler_m__clear_highest_priority_interrupt>
    410005d0:	f3dff06f          	j	4100050c <trap_handler_m__clear_highest_priority_interrupt>
    410005d4:	f39ff06f          	j	4100050c <trap_handler_m__clear_highest_priority_interrupt>
    410005d8:	f35ff06f          	j	4100050c <trap_handler_m__clear_highest_priority_interrupt>
    410005dc:	f31ff06f          	j	4100050c <trap_handler_m__clear_highest_priority_interrupt>
    410005e0:	f2dff06f          	j	4100050c <trap_handler_m__clear_highest_priority_interrupt>
    410005e4:	f29ff06f          	j	4100050c <trap_handler_m__clear_highest_priority_interrupt>
    410005e8:	f25ff06f          	j	4100050c <trap_handler_m__clear_highest_priority_interrupt>
    410005ec:	f21ff06f          	j	4100050c <trap_handler_m__clear_highest_priority_interrupt>
    410005f0:	f1dff06f          	j	4100050c <trap_handler_m__clear_highest_priority_interrupt>
    410005f4:	f19ff06f          	j	4100050c <trap_handler_m__clear_highest_priority_interrupt>
    410005f8:	f15ff06f          	j	4100050c <trap_handler_m__clear_highest_priority_interrupt>
    410005fc:	f11ff06f          	j	4100050c <trap_handler_m__clear_highest_priority_interrupt>
    41000600:	f0dff06f          	j	4100050c <trap_handler_m__clear_highest_priority_interrupt>
    41000604:	f09ff06f          	j	4100050c <trap_handler_m__clear_highest_priority_interrupt>
    41000608:	f05ff06f          	j	4100050c <trap_handler_m__clear_highest_priority_interrupt>
    4100060c:	f01ff06f          	j	4100050c <trap_handler_m__clear_highest_priority_interrupt>
    41000610:	efdff06f          	j	4100050c <trap_handler_m__clear_highest_priority_interrupt>
    41000614:	ef9ff06f          	j	4100050c <trap_handler_m__clear_highest_priority_interrupt>
    41000618:	ef5ff06f          	j	4100050c <trap_handler_m__clear_highest_priority_interrupt>

000000004100061c <trap_handler_m__trap_handler>:
    4100061c:	342022f3          	csrr	x5,mcause
    41000620:	fff0031b          	addiw	x6,x0,-1
    41000624:	03f31313          	slli	x6,x6,0x3f
    41000628:	00537333          	and	x6,x6,x5
    4100062c:	02030263          	beqz	x6,41000650 <trap_handler_m__exception_path>

0000000041000630 <trap_handler_m__interrupt_handler>:
    41000630:	fff0031b          	addiw	x6,x0,-1
    41000634:	03f31313          	slli	x6,x6,0x3f
    41000638:	0062c2b3          	xor	x5,x5,x6
    4100063c:	00000317          	auipc	x6,0x0
    41000640:	ee430313          	addi	x6,x6,-284 # 41000520 <trap_handler_m__trap_entry>
    41000644:	00229293          	slli	x5,x5,0x2
    41000648:	005302b3          	add	x5,x6,x5
    4100064c:	00028067          	jr	x5 # 2000 <pma_region_1_size+0x1000>

0000000041000650 <trap_handler_m__exception_path>:
    41000650:	34021273          	csrrw	x4,mscratch,x4
    41000654:	00000297          	auipc	x5,0x0
    41000658:	10828293          	addi	x5,x5,264 # 4100075c <trap_handler_m__trap_panic>
    4100065c:	30529073          	csrw	mtvec,x5
    41000660:	0040006f          	j	41000664 <trap_handler_m__excp_entry>

0000000041000664 <trap_handler_m__excp_entry>:
    41000664:	34202373          	csrr	x6,mcause
    41000668:	00800293          	li	x5,8
    4100066c:	00534863          	blt	x6,x5,4100067c <trap_handler_m__check_exception_label>
    41000670:	00b00293          	li	x5,11
    41000674:	0062c463          	blt	x5,x6,4100067c <trap_handler_m__check_exception_label>
    41000678:	a5dff06f          	j	410000d4 <syscalls__syscall_check_schedule_next_test>

000000004100067c <trap_handler_m__check_exception_label>:
    4100067c:	04623c23          	sd	x6,88(x4) # 58 <XLEN+0x18>
    41000680:	341022f3          	csrr	x5,mepc
    41000684:	02523423          	sd	x5,40(x4) # 28 <SECURE_ACCESS_PROBABILITY+0xa>
    41000688:	01820283          	lb	x5,24(x4) # 18 <STORE_GUEST_PAGE_FAULT+0x1>
    4100068c:	00029863          	bnez	x5,4100069c <trap_handler_m__check_excp>
    41000690:	00128293          	addi	x5,x5,1
    41000694:	00520c23          	sb	x5,24(x4) # 18 <STORE_GUEST_PAGE_FAULT+0x1>
    41000698:	0980006f          	j	41000730 <trap_handler_m__ecall_from_machine>

000000004100069c <trap_handler_m__check_excp>:
    4100069c:	06823283          	ld	x5,104(x4) # 68 <XLEN+0x28>
    410006a0:	06023423          	sd	x0,104(x4) # 68 <XLEN+0x28>
    410006a4:	00028663          	beqz	x5,410006b0 <trap_handler_m__skip_mode_check>
    410006a8:	00100393          	li	x7,1
    410006ac:	0e729463          	bne	x5,x7,41000794 <test_failed>

00000000410006b0 <trap_handler_m__skip_mode_check>:
    410006b0:	05023283          	ld	x5,80(x4) # 50 <XLEN+0x10>
    410006b4:	04023823          	sd	x0,80(x4) # 50 <XLEN+0x10>
    410006b8:	0c531e63          	bne	x6,x5,41000794 <test_failed>
    410006bc:	03823283          	ld	x5,56(x4) # 38 <SECURE_ACCESS_PROBABILITY+0x1a>
    410006c0:	02023c23          	sd	x0,56(x4) # 38 <SECURE_ACCESS_PROBABILITY+0x1a>
    410006c4:	06029463          	bnez	x5,4100072c <trap_handler_m__skip_gva_check>
    410006c8:	02023303          	ld	x6,32(x4) # 20 <SECURE_ACCESS_PROBABILITY+0x2>
    410006cc:	02023023          	sd	x0,32(x4) # 20 <SECURE_ACCESS_PROBABILITY+0x2>
    410006d0:	02823283          	ld	x5,40(x4) # 28 <SECURE_ACCESS_PROBABILITY+0xa>
    410006d4:	02023423          	sd	x0,40(x4) # 28 <SECURE_ACCESS_PROBABILITY+0xa>
    410006d8:	0a531e63          	bne	x6,x5,41000794 <test_failed>
    410006dc:	04023283          	ld	x5,64(x4) # 40 <XLEN>
    410006e0:	04023023          	sd	x0,64(x4) # 40 <XLEN>
    410006e4:	00028663          	beqz	x5,410006f0 <trap_handler_m__skip_nonzero_tval_check>

00000000410006e8 <trap_handler_m__nonzero_tval_check>:
    410006e8:	34302373          	csrr	x6,mtval
    410006ec:	0a531463          	bne	x6,x5,41000794 <test_failed>

00000000410006f0 <trap_handler_m__skip_nonzero_tval_check>:
    410006f0:	04823283          	ld	x5,72(x4) # 48 <XLEN+0x8>
    410006f4:	04023423          	sd	x0,72(x4) # 48 <XLEN+0x8>
    410006f8:	00028663          	beqz	x5,41000704 <trap_handler_m__skip_nonzero_htval_check>

00000000410006fc <trap_handler_m__nonzero_htval_check>:
    410006fc:	34b02373          	csrr	x6,0x34b
    41000700:	08531a63          	bne	x6,x5,41000794 <test_failed>

0000000041000704 <trap_handler_m__skip_nonzero_htval_check>:
    41000704:	06023283          	ld	x5,96(x4) # 60 <XLEN+0x20>
    41000708:	06023023          	sd	x0,96(x4) # 60 <XLEN+0x20>
    4100070c:	02028063          	beqz	x5,4100072c <trap_handler_m__skip_gva_check>

0000000041000710 <trap_handler_m__gva_check>:
    41000710:	30002373          	csrr	x6,mstatus
    41000714:	02635313          	srli	x6,x6,0x26
    41000718:	00137313          	andi	x6,x6,1
    4100071c:	06030c63          	beqz	x6,41000794 <test_failed>
    41000720:	0010031b          	addiw	x6,x0,1
    41000724:	02631313          	slli	x6,x6,0x26
    41000728:	30033073          	csrc	mstatus,x6

000000004100072c <trap_handler_m__skip_gva_check>:
    4100072c:	0040006f          	j	41000730 <trap_handler_m__ecall_from_machine>

0000000041000730 <trap_handler_m__ecall_from_machine>:
    41000730:	03023283          	ld	x5,48(x4) # 30 <SECURE_ACCESS_PROBABILITY+0x12>
    41000734:	02023823          	sd	x0,48(x4) # 30 <SECURE_ACCESS_PROBABILITY+0x12>
    41000738:	07023303          	ld	x6,112(x4) # 70 <XLEN+0x30>
    4100073c:	06023823          	sd	x0,112(x4) # 70 <XLEN+0x30>
    41000740:	00031463          	bnez	x6,41000748 <trap_handler_m__skip_xepc_write>
    41000744:	34129073          	csrw	mepc,x5

0000000041000748 <trap_handler_m__skip_xepc_write>:
    41000748:	00000317          	auipc	x6,0x0
    4100074c:	dd830313          	addi	x6,x6,-552 # 41000520 <trap_handler_m__trap_entry>
    41000750:	30531073          	csrw	mtvec,x6
    41000754:	34021273          	csrrw	x4,mscratch,x4
    41000758:	30200073          	mret

000000004100075c <trap_handler_m__trap_panic>:
    4100075c:	00000193          	li	x3,0
    41000760:	2b00006f          	j	41000a10 <eot__end_test>

0000000041000764 <enter_scheduler>:
    41000764:	0002f337          	lui	x6,0x2f
    41000768:	ab73031b          	addiw	x6,x6,-1353 # 2eab7 <SID_ZICSR_13_stack+0xdab7>
    4100076c:	00e31313          	slli	x6,x6,0xe
    41000770:	0de30313          	addi	x6,x6,222
    41000774:	02628063          	beq	x5,x6,41000794 <test_failed>
    41000778:	00000513          	li	x10,0
    4100077c:	030000ef          	jal	410007ac <rvcp_print_test_result>
    41000780:	3140006f          	j	41000a94 <scheduler__dispatch>

0000000041000784 <test_passed>:
    41000784:	34021273          	csrrw	x4,mscratch,x4
    41000788:	00000513          	li	x10,0
    4100078c:	020000ef          	jal	410007ac <rvcp_print_test_result>
    41000790:	3040006f          	j	41000a94 <scheduler__dispatch>

0000000041000794 <test_failed>:
    41000794:	34021273          	csrrw	x4,mscratch,x4
    41000798:	00300193          	li	x3,3
    4100079c:	2740006f          	j	41000a10 <eot__end_test>

00000000410007a0 <os_end_test>:
    410007a0:	34021273          	csrrw	x4,mscratch,x4
    410007a4:	00100193          	li	x3,1
    410007a8:	2680006f          	j	41000a10 <eot__end_test>

00000000410007ac <rvcp_print_test_result>:
    410007ac:	00050e13          	mv	x28,x10
    410007b0:	18823283          	ld	x5,392(x4) # 188 <XLEN+0x148>
    410007b4:	0010031b          	addiw	x6,x0,1
    410007b8:	02031313          	slli	x6,x6,0x20
    410007bc:	ffe30313          	addi	x6,x6,-2
    410007c0:	1c628063          	beq	x5,x6,41000980 <rvcp_print_test_result+0x1d4>
    410007c4:	0010031b          	addiw	x6,x0,1
    410007c8:	02031313          	slli	x6,x6,0x20
    410007cc:	fff30313          	addi	x6,x6,-1
    410007d0:	1a628863          	beq	x5,x6,41000980 <rvcp_print_test_result+0x1d4>
    410007d4:	1a02c663          	bltz	x5,41000980 <rvcp_print_test_result+0x1d4>
    410007d8:	00000317          	auipc	x6,0x0
    410007dc:	52430313          	addi	x6,x6,1316 # 41000cfc <dtest_descriptor_table>
    410007e0:	00329393          	slli	x7,x5,0x3
    410007e4:	00730333          	add	x6,x6,x7
    410007e8:	00033e83          	ld	x29,0(x6)
    410007ec:	44566f37          	lui	x30,0x44566
    410007f0:	030f0f1b          	addiw	x30,x30,48 # 44566030 <rvcp_prefix_str_pa>
    410007f4:	000f4283          	lbu	x5,0(x30)
    410007f8:	02028663          	beqz	x5,41000824 <rvcp_print_test_result+0x78>
    410007fc:	1010031b          	addiw	x6,x0,257
    41000800:	03031313          	slli	x6,x6,0x30
    41000804:	005362b3          	or	x5,x6,x5
    41000808:	0003f317          	auipc	x6,0x3f
    4100080c:	7f830313          	addi	x6,x6,2040 # 41040000 <tohost>
    41000810:	00033383          	ld	x7,0(x6)
    41000814:	fe039ee3          	bnez	x7,41000810 <rvcp_print_test_result+0x64>
    41000818:	00533023          	sd	x5,0(x6)
    4100081c:	001f0f13          	addi	x30,x30,1
    41000820:	fd5ff06f          	j	410007f4 <rvcp_print_test_result+0x48>
    41000824:	44566f37          	lui	x30,0x44566
    41000828:	041f0f1b          	addiw	x30,x30,65 # 44566041 <rvcp_testname_str_pa>
    4100082c:	000f4283          	lbu	x5,0(x30)
    41000830:	02028663          	beqz	x5,4100085c <rvcp_print_test_result+0xb0>
    41000834:	1010031b          	addiw	x6,x0,257
    41000838:	03031313          	slli	x6,x6,0x30
    4100083c:	005362b3          	or	x5,x6,x5
    41000840:	0003f317          	auipc	x6,0x3f
    41000844:	7c030313          	addi	x6,x6,1984 # 41040000 <tohost>
    41000848:	00033383          	ld	x7,0(x6)
    4100084c:	fe039ee3          	bnez	x7,41000848 <rvcp_print_test_result+0x9c>
    41000850:	00533023          	sd	x5,0(x6)
    41000854:	001f0f13          	addi	x30,x30,1
    41000858:	fd5ff06f          	j	4100082c <rvcp_print_test_result+0x80>
    4100085c:	44566f37          	lui	x30,0x44566
    41000860:	05af0f1b          	addiw	x30,x30,90 # 4456605a <rvcp_space_str_pa>
    41000864:	000f4283          	lbu	x5,0(x30)
    41000868:	02028663          	beqz	x5,41000894 <rvcp_print_test_result+0xe8>
    4100086c:	1010031b          	addiw	x6,x0,257
    41000870:	03031313          	slli	x6,x6,0x30
    41000874:	005362b3          	or	x5,x6,x5
    41000878:	0003f317          	auipc	x6,0x3f
    4100087c:	78830313          	addi	x6,x6,1928 # 41040000 <tohost>
    41000880:	00033383          	ld	x7,0(x6)
    41000884:	fe039ee3          	bnez	x7,41000880 <rvcp_print_test_result+0xd4>
    41000888:	00533023          	sd	x5,0(x6)
    4100088c:	001f0f13          	addi	x30,x30,1
    41000890:	fd5ff06f          	j	41000864 <rvcp_print_test_result+0xb8>
    41000894:	000e8f13          	mv	x30,x29
    41000898:	000f4283          	lbu	x5,0(x30)
    4100089c:	02028663          	beqz	x5,410008c8 <rvcp_print_test_result+0x11c>
    410008a0:	1010031b          	addiw	x6,x0,257
    410008a4:	03031313          	slli	x6,x6,0x30
    410008a8:	005362b3          	or	x5,x6,x5
    410008ac:	0003f317          	auipc	x6,0x3f
    410008b0:	75430313          	addi	x6,x6,1876 # 41040000 <tohost>
    410008b4:	00033383          	ld	x7,0(x6)
    410008b8:	fe039ee3          	bnez	x7,410008b4 <rvcp_print_test_result+0x108>
    410008bc:	00533023          	sd	x5,0(x6)
    410008c0:	001f0f13          	addi	x30,x30,1
    410008c4:	fd5ff06f          	j	41000898 <rvcp_print_test_result+0xec>
    410008c8:	44566f37          	lui	x30,0x44566
    410008cc:	05af0f1b          	addiw	x30,x30,90 # 4456605a <rvcp_space_str_pa>
    410008d0:	000f4283          	lbu	x5,0(x30)
    410008d4:	02028663          	beqz	x5,41000900 <rvcp_print_test_result+0x154>
    410008d8:	1010031b          	addiw	x6,x0,257
    410008dc:	03031313          	slli	x6,x6,0x30
    410008e0:	005362b3          	or	x5,x6,x5
    410008e4:	0003f317          	auipc	x6,0x3f
    410008e8:	71c30313          	addi	x6,x6,1820 # 41040000 <tohost>
    410008ec:	00033383          	ld	x7,0(x6)
    410008f0:	fe039ee3          	bnez	x7,410008ec <rvcp_print_test_result+0x140>
    410008f4:	00533023          	sd	x5,0(x6)
    410008f8:	001f0f13          	addi	x30,x30,1
    410008fc:	fd5ff06f          	j	410008d0 <rvcp_print_test_result+0x124>
    41000900:	000e1863          	bnez	x28,41000910 <rvcp_print_test_result+0x164>
    41000904:	44566f37          	lui	x30,0x44566
    41000908:	04cf0f1b          	addiw	x30,x30,76 # 4456604c <rvcp_passed_str_pa>
    4100090c:	00c0006f          	j	41000918 <rvcp_print_test_result+0x16c>
    41000910:	44566f37          	lui	x30,0x44566
    41000914:	053f0f1b          	addiw	x30,x30,83 # 44566053 <rvcp_failed_str_pa>
    41000918:	000f4283          	lbu	x5,0(x30)
    4100091c:	02028663          	beqz	x5,41000948 <rvcp_print_test_result+0x19c>
    41000920:	1010031b          	addiw	x6,x0,257
    41000924:	03031313          	slli	x6,x6,0x30
    41000928:	005362b3          	or	x5,x6,x5
    4100092c:	0003f317          	auipc	x6,0x3f
    41000930:	6d430313          	addi	x6,x6,1748 # 41040000 <tohost>
    41000934:	00033383          	ld	x7,0(x6)
    41000938:	fe039ee3          	bnez	x7,41000934 <rvcp_print_test_result+0x188>
    4100093c:	00533023          	sd	x5,0(x6)
    41000940:	001f0f13          	addi	x30,x30,1
    41000944:	fd5ff06f          	j	41000918 <rvcp_print_test_result+0x16c>
    41000948:	44566f37          	lui	x30,0x44566
    4100094c:	05cf0f1b          	addiw	x30,x30,92 # 4456605c <rvcp_newline_str_pa>
    41000950:	000f4283          	lbu	x5,0(x30)
    41000954:	02028663          	beqz	x5,41000980 <rvcp_print_test_result+0x1d4>
    41000958:	1010031b          	addiw	x6,x0,257
    4100095c:	03031313          	slli	x6,x6,0x30
    41000960:	005362b3          	or	x5,x6,x5
    41000964:	0003f317          	auipc	x6,0x3f
    41000968:	69c30313          	addi	x6,x6,1692 # 41040000 <tohost>
    4100096c:	00033383          	ld	x7,0(x6)
    41000970:	fe039ee3          	bnez	x7,4100096c <rvcp_print_test_result+0x1c0>
    41000974:	00533023          	sd	x5,0(x6)
    41000978:	001f0f13          	addi	x30,x30,1
    4100097c:	fd5ff06f          	j	41000950 <rvcp_print_test_result+0x1a4>
    41000980:	00008067          	ret

0000000041000984 <os_rng_orig>:
    41000984:	f14023f3          	csrr	x7,mhartid
    41000988:	00068313          	mv	x6,x13
    4100098c:	026383b3          	mul	x7,x7,x6
    41000990:	00058313          	mv	x6,x11
    41000994:	00730333          	add	x6,x6,x7
    41000998:	00033283          	ld	x5,0(x6)
    4100099c:	01529313          	slli	x6,x5,0x15
    410009a0:	0062c2b3          	xor	x5,x5,x6
    410009a4:	0232d313          	srli	x6,x5,0x23
    410009a8:	0062c2b3          	xor	x5,x5,x6
    410009ac:	00429313          	slli	x6,x5,0x4
    410009b0:	0062c2b3          	xor	x5,x5,x6
    410009b4:	00058313          	mv	x6,x11
    410009b8:	00730333          	add	x6,x6,x7
    410009bc:	00533023          	sd	x5,0(x6)
    410009c0:	00060313          	mv	x6,x12
    410009c4:	0262f2b3          	remu	x5,x5,x6
    410009c8:	00028513          	mv	x10,x5
    410009cc:	00008067          	ret
    410009d0:	02a00513          	li	x10,42
    410009d4:	001965b7          	lui	x11,0x196
    410009d8:	60d5859b          	addiw	x11,x11,1549 # 19660d <pma_region_0_size+0x15660d>
    410009dc:	3c6ef637          	lui	x12,0x3c6ef
    410009e0:	35f6061b          	addiw	x12,x12,863 # 3c6ef35f <SID_ZICSR_14_stack+0x2d74a35f>
    410009e4:	02200693          	li	x13,34
    410009e8:	02b50533          	mul	x10,x10,x11
    410009ec:	00c50533          	add	x10,x10,x12
    410009f0:	02d56533          	rem	x10,x10,x13
    410009f4:	00b00593          	li	x11,11
    410009f8:	02b56533          	rem	x10,x10,x11
    410009fc:	00008067          	ret

0000000041000a00 <tohost_mutex>:
	...

0000000041000a08 <tohost_addr_mem>:
    41000a08:	0000                	.insn	2, 0x0000
    41000a0a:	4104                	.insn	2, 0x4104
    41000a0c:	0000                	.insn	2, 0x0000
	...

0000000041000a10 <eot__end_test>:
    41000a10:	00100293          	li	x5,1
    41000a14:	00328463          	beq	x5,x3,41000a1c <eot__passed>
    41000a18:	01c0006f          	j	41000a34 <eot__failed>

0000000041000a1c <eot__passed>:
    41000a1c:	0ff0000f          	fence
    41000a20:	00000297          	auipc	x5,0x0
    41000a24:	fe82b283          	ld	x5,-24(x5) # 41000a08 <tohost_addr_mem>
    41000a28:	00100313          	li	x6,1
    41000a2c:	0062a023          	sw	x6,0(x5)
    41000a30:	0240006f          	j	41000a54 <eot__halt>

0000000041000a34 <eot__failed>:
    41000a34:	00100513          	li	x10,1
    41000a38:	d75ff0ef          	jal	410007ac <rvcp_print_test_result>
    41000a3c:	0ff0000f          	fence
    41000a40:	00000297          	auipc	x5,0x0
    41000a44:	fc82b283          	ld	x5,-56(x5) # 41000a08 <tohost_addr_mem>
    41000a48:	00300313          	li	x6,3
    41000a4c:	0062a023          	sw	x6,0(x5)
    41000a50:	0040006f          	j	41000a54 <eot__halt>

0000000041000a54 <eot__halt>:
    41000a54:	10500073          	wfi
    41000a58:	ffdff06f          	j	41000a54 <eot__halt>

0000000041000a5c <scheduler__init>:
    41000a5c:	00000297          	auipc	x5,0x0
    41000a60:	0c028293          	addi	x5,x5,192 # 41000b1c <scheduler__panic>
    41000a64:	305292f3          	csrrw	x5,mtvec,x5
    41000a68:	18523023          	sd	x5,384(x4) # 180 <XLEN+0x140>
    41000a6c:	03a00293          	li	x5,58
    41000a70:	18523823          	sd	x5,400(x4) # 190 <XLEN+0x150>
    41000a74:	0010029b          	addiw	x5,x0,1
    41000a78:	02029293          	slli	x5,x5,0x20
    41000a7c:	ffe28293          	addi	x5,x5,-2
    41000a80:	18523423          	sd	x5,392(x4) # 188 <XLEN+0x148>
    41000a84:	00000317          	auipc	x6,0x0
    41000a88:	4f030313          	addi	x6,x6,1264 # 41000f74 <scheduler__test_setup_ptr>
    41000a8c:	00033303          	ld	x6,0(x6)
    41000a90:	0640006f          	j	41000af4 <scheduler__execute_test>

0000000041000a94 <scheduler__dispatch>:
    41000a94:	00000297          	auipc	x5,0x0
    41000a98:	08828293          	addi	x5,x5,136 # 41000b1c <scheduler__panic>
    41000a9c:	305292f3          	csrrw	x5,mtvec,x5
    41000aa0:	18523023          	sd	x5,384(x4) # 180 <XLEN+0x140>

0000000041000aa4 <scheduler__csr_read_randomization>:
    41000aa4:	140022f3          	csrr	x5,sscratch
    41000aa8:	302022f3          	csrr	x5,medeleg
    41000aac:	144022f3          	csrr	x5,sip
    41000ab0:	342022f3          	csrr	x5,mcause
    41000ab4:	f13022f3          	csrr	x5,mimpid

0000000041000ab8 <scheduler__load_num_runs>:
    41000ab8:	19023303          	ld	x6,400(x4) # 190 <XLEN+0x150>
    41000abc:	04030c63          	beqz	x6,41000b14 <scheduler__finished>

0000000041000ac0 <scheduler__decrement_num_runs>:
    41000ac0:	fff30393          	addi	x7,x6,-1
    41000ac4:	18723823          	sd	x7,400(x4) # 190 <XLEN+0x150>
    41000ac8:	00000e17          	auipc	x28,0x0
    41000acc:	3c4e0e13          	addi	x28,x28,964 # 41000e8c <dtest_index_map>
    41000ad0:	00239e93          	slli	x29,x7,0x2
    41000ad4:	01de0e33          	add	x28,x28,x29
    41000ad8:	000e2e03          	lw	x28,0(x28)
    41000adc:	19c23423          	sd	x28,392(x4) # 188 <XLEN+0x148>

0000000041000ae0 <scheduler__calc_test_pointer>:
    41000ae0:	00339293          	slli	x5,x7,0x3

0000000041000ae4 <scheduler__load_test_addr>:
    41000ae4:	00000317          	auipc	x6,0x0
    41000ae8:	04830313          	addi	x6,x6,72 # 41000b2c <os_test_sequence>
    41000aec:	006282b3          	add	x5,x5,x6
    41000af0:	0002b303          	ld	x6,0(x5)

0000000041000af4 <scheduler__execute_test>:
    41000af4:	18023283          	ld	x5,384(x4) # 180 <XLEN+0x140>
    41000af8:	30529073          	csrw	mtvec,x5
    41000afc:	34021273          	csrrw	x4,mscratch,x4
    41000b00:	00000213          	li	x4,0
    41000b04:	14131073          	csrw	sepc,x6
    41000b08:	10000293          	li	x5,256
    41000b0c:	1002a073          	csrs	sstatus,x5
    41000b10:	10200073          	sret

0000000041000b14 <scheduler__finished>:
    41000b14:	00100193          	li	x3,1
    41000b18:	ef9ff06f          	j	41000a10 <eot__end_test>

0000000041000b1c <scheduler__panic>:
    41000b1c:	00000193          	li	x3,0
    41000b20:	ef1ff06f          	j	41000a10 <eot__end_test>

0000000041000b24 <num_runs>:
    41000b24:	003a                	.insn	2, 0x003a
    41000b26:	0000                	.insn	2, 0x0000
    41000b28:	0000                	.insn	2, 0x0000
	...

0000000041000b2c <os_test_sequence>:
    41000b2c:	5034                	.insn	2, 0x5034
    41000b2e:	4101                	.insn	2, 0x4101
    41000b30:	0000                	.insn	2, 0x0000
    41000b32:	0000                	.insn	2, 0x0000
    41000b34:	471c                	.insn	2, 0x471c
    41000b36:	4101                	.insn	2, 0x4101
    41000b38:	0000                	.insn	2, 0x0000
    41000b3a:	0000                	.insn	2, 0x0000
    41000b3c:	4e30                	.insn	2, 0x4e30
    41000b3e:	4101                	.insn	2, 0x4101
    41000b40:	0000                	.insn	2, 0x0000
    41000b42:	0000                	.insn	2, 0x0000
    41000b44:	4670                	.insn	2, 0x4670
    41000b46:	4101                	.insn	2, 0x4101
    41000b48:	0000                	.insn	2, 0x0000
    41000b4a:	0000                	.insn	2, 0x0000
    41000b4c:	4378                	.insn	2, 0x4378
    41000b4e:	4101                	.insn	2, 0x4101
    41000b50:	0000                	.insn	2, 0x0000
    41000b52:	0000                	.insn	2, 0x0000
    41000b54:	4150                	.insn	2, 0x4150
    41000b56:	4101                	.insn	2, 0x4101
    41000b58:	0000                	.insn	2, 0x0000
    41000b5a:	0000                	.insn	2, 0x0000
    41000b5c:	4208                	.insn	2, 0x4208
    41000b5e:	4101                	.insn	2, 0x4101
    41000b60:	0000                	.insn	2, 0x0000
    41000b62:	0000                	.insn	2, 0x0000
    41000b64:	48ec                	.insn	2, 0x48ec
    41000b66:	4101                	.insn	2, 0x4101
    41000b68:	0000                	.insn	2, 0x0000
    41000b6a:	0000                	.insn	2, 0x0000
    41000b6c:	49e8                	.insn	2, 0x49e8
    41000b6e:	4101                	.insn	2, 0x4101
    41000b70:	0000                	.insn	2, 0x0000
    41000b72:	0000                	.insn	2, 0x0000
    41000b74:	4670                	.insn	2, 0x4670
    41000b76:	4101                	.insn	2, 0x4101
    41000b78:	0000                	.insn	2, 0x0000
    41000b7a:	0000                	.insn	2, 0x0000
    41000b7c:	4910                	.insn	2, 0x4910
    41000b7e:	4101                	.insn	2, 0x4101
    41000b80:	0000                	.insn	2, 0x0000
    41000b82:	0000                	.insn	2, 0x0000
    41000b84:	4c58                	.insn	2, 0x4c58
    41000b86:	4101                	.insn	2, 0x4101
    41000b88:	0000                	.insn	2, 0x0000
    41000b8a:	0000                	.insn	2, 0x0000
    41000b8c:	4e30                	.insn	2, 0x4e30
    41000b8e:	4101                	.insn	2, 0x4101
    41000b90:	0000                	.insn	2, 0x0000
    41000b92:	0000                	.insn	2, 0x0000
    41000b94:	45b8                	.insn	2, 0x45b8
    41000b96:	4101                	.insn	2, 0x4101
    41000b98:	0000                	.insn	2, 0x0000
    41000b9a:	0000                	.insn	2, 0x0000
    41000b9c:	4378                	.insn	2, 0x4378
    41000b9e:	4101                	.insn	2, 0x4101
    41000ba0:	0000                	.insn	2, 0x0000
    41000ba2:	0000                	.insn	2, 0x0000
    41000ba4:	4208                	.insn	2, 0x4208
    41000ba6:	4101                	.insn	2, 0x4101
    41000ba8:	0000                	.insn	2, 0x0000
    41000baa:	0000                	.insn	2, 0x0000
    41000bac:	4378                	.insn	2, 0x4378
    41000bae:	4101                	.insn	2, 0x4101
    41000bb0:	0000                	.insn	2, 0x0000
    41000bb2:	0000                	.insn	2, 0x0000
    41000bb4:	45b8                	.insn	2, 0x45b8
    41000bb6:	4101                	.insn	2, 0x4101
    41000bb8:	0000                	.insn	2, 0x0000
    41000bba:	0000                	.insn	2, 0x0000
    41000bbc:	44f8                	.insn	2, 0x44f8
    41000bbe:	4101                	.insn	2, 0x4101
    41000bc0:	0000                	.insn	2, 0x0000
    41000bc2:	0000                	.insn	2, 0x0000
    41000bc4:	4840                	.insn	2, 0x4840
    41000bc6:	4101                	.insn	2, 0x4101
    41000bc8:	0000                	.insn	2, 0x0000
    41000bca:	0000                	.insn	2, 0x0000
    41000bcc:	4b10                	.insn	2, 0x4b10
    41000bce:	4101                	.insn	2, 0x4101
    41000bd0:	0000                	.insn	2, 0x0000
    41000bd2:	0000                	.insn	2, 0x0000
    41000bd4:	4b10                	.insn	2, 0x4b10
    41000bd6:	4101                	.insn	2, 0x4101
    41000bd8:	0000                	.insn	2, 0x0000
    41000bda:	0000                	.insn	2, 0x0000
    41000bdc:	471c                	.insn	2, 0x471c
    41000bde:	4101                	.insn	2, 0x4101
    41000be0:	0000                	.insn	2, 0x0000
    41000be2:	0000                	.insn	2, 0x0000
    41000be4:	49bc                	.insn	2, 0x49bc
    41000be6:	4101                	.insn	2, 0x4101
    41000be8:	0000                	.insn	2, 0x0000
    41000bea:	0000                	.insn	2, 0x0000
    41000bec:	4840                	.insn	2, 0x4840
    41000bee:	4101                	.insn	2, 0x4101
    41000bf0:	0000                	.insn	2, 0x0000
    41000bf2:	0000                	.insn	2, 0x0000
    41000bf4:	4670                	.insn	2, 0x4670
    41000bf6:	4101                	.insn	2, 0x4101
    41000bf8:	0000                	.insn	2, 0x0000
    41000bfa:	0000                	.insn	2, 0x0000
    41000bfc:	4438                	.insn	2, 0x4438
    41000bfe:	4101                	.insn	2, 0x4101
    41000c00:	0000                	.insn	2, 0x0000
    41000c02:	0000                	.insn	2, 0x0000
    41000c04:	47d8                	.insn	2, 0x47d8
    41000c06:	4101                	.insn	2, 0x4101
    41000c08:	0000                	.insn	2, 0x0000
    41000c0a:	0000                	.insn	2, 0x0000
    41000c0c:	4840                	.insn	2, 0x4840
    41000c0e:	4101                	.insn	2, 0x4101
    41000c10:	0000                	.insn	2, 0x0000
    41000c12:	0000                	.insn	2, 0x0000
    41000c14:	480c                	.insn	2, 0x480c
    41000c16:	4101                	.insn	2, 0x4101
    41000c18:	0000                	.insn	2, 0x0000
    41000c1a:	0000                	.insn	2, 0x0000
    41000c1c:	49e8                	.insn	2, 0x49e8
    41000c1e:	4101                	.insn	2, 0x4101
    41000c20:	0000                	.insn	2, 0x0000
    41000c22:	0000                	.insn	2, 0x0000
    41000c24:	48ec                	.insn	2, 0x48ec
    41000c26:	4101                	.insn	2, 0x4101
    41000c28:	0000                	.insn	2, 0x0000
    41000c2a:	0000                	.insn	2, 0x0000
    41000c2c:	4910                	.insn	2, 0x4910
    41000c2e:	4101                	.insn	2, 0x4101
    41000c30:	0000                	.insn	2, 0x0000
    41000c32:	0000                	.insn	2, 0x0000
    41000c34:	45b8                	.insn	2, 0x45b8
    41000c36:	4101                	.insn	2, 0x4101
    41000c38:	0000                	.insn	2, 0x0000
    41000c3a:	0000                	.insn	2, 0x0000
    41000c3c:	49bc                	.insn	2, 0x49bc
    41000c3e:	4101                	.insn	2, 0x4101
    41000c40:	0000                	.insn	2, 0x0000
    41000c42:	0000                	.insn	2, 0x0000
    41000c44:	4438                	.insn	2, 0x4438
    41000c46:	4101                	.insn	2, 0x4101
    41000c48:	0000                	.insn	2, 0x0000
    41000c4a:	0000                	.insn	2, 0x0000
    41000c4c:	44f8                	.insn	2, 0x44f8
    41000c4e:	4101                	.insn	2, 0x4101
    41000c50:	0000                	.insn	2, 0x0000
    41000c52:	0000                	.insn	2, 0x0000
    41000c54:	49e8                	.insn	2, 0x49e8
    41000c56:	4101                	.insn	2, 0x4101
    41000c58:	0000                	.insn	2, 0x0000
    41000c5a:	0000                	.insn	2, 0x0000
    41000c5c:	4150                	.insn	2, 0x4150
    41000c5e:	4101                	.insn	2, 0x4101
    41000c60:	0000                	.insn	2, 0x0000
    41000c62:	0000                	.insn	2, 0x0000
    41000c64:	47d8                	.insn	2, 0x47d8
    41000c66:	4101                	.insn	2, 0x4101
    41000c68:	0000                	.insn	2, 0x0000
    41000c6a:	0000                	.insn	2, 0x0000
    41000c6c:	49bc                	.insn	2, 0x49bc
    41000c6e:	4101                	.insn	2, 0x4101
    41000c70:	0000                	.insn	2, 0x0000
    41000c72:	0000                	.insn	2, 0x0000
    41000c74:	4150                	.insn	2, 0x4150
    41000c76:	4101                	.insn	2, 0x4101
    41000c78:	0000                	.insn	2, 0x0000
    41000c7a:	0000                	.insn	2, 0x0000
    41000c7c:	4c58                	.insn	2, 0x4c58
    41000c7e:	4101                	.insn	2, 0x4101
    41000c80:	0000                	.insn	2, 0x0000
    41000c82:	0000                	.insn	2, 0x0000
    41000c84:	42c8                	.insn	2, 0x42c8
    41000c86:	4101                	.insn	2, 0x4101
    41000c88:	0000                	.insn	2, 0x0000
    41000c8a:	0000                	.insn	2, 0x0000
    41000c8c:	4438                	.insn	2, 0x4438
    41000c8e:	4101                	.insn	2, 0x4101
    41000c90:	0000                	.insn	2, 0x0000
    41000c92:	0000                	.insn	2, 0x0000
    41000c94:	471c                	.insn	2, 0x471c
    41000c96:	4101                	.insn	2, 0x4101
    41000c98:	0000                	.insn	2, 0x0000
    41000c9a:	0000                	.insn	2, 0x0000
    41000c9c:	4910                	.insn	2, 0x4910
    41000c9e:	4101                	.insn	2, 0x4101
    41000ca0:	0000                	.insn	2, 0x0000
    41000ca2:	0000                	.insn	2, 0x0000
    41000ca4:	480c                	.insn	2, 0x480c
    41000ca6:	4101                	.insn	2, 0x4101
    41000ca8:	0000                	.insn	2, 0x0000
    41000caa:	0000                	.insn	2, 0x0000
    41000cac:	47d8                	.insn	2, 0x47d8
    41000cae:	4101                	.insn	2, 0x4101
    41000cb0:	0000                	.insn	2, 0x0000
    41000cb2:	0000                	.insn	2, 0x0000
    41000cb4:	480c                	.insn	2, 0x480c
    41000cb6:	4101                	.insn	2, 0x4101
    41000cb8:	0000                	.insn	2, 0x0000
    41000cba:	0000                	.insn	2, 0x0000
    41000cbc:	42c8                	.insn	2, 0x42c8
    41000cbe:	4101                	.insn	2, 0x4101
    41000cc0:	0000                	.insn	2, 0x0000
    41000cc2:	0000                	.insn	2, 0x0000
    41000cc4:	44f8                	.insn	2, 0x44f8
    41000cc6:	4101                	.insn	2, 0x4101
    41000cc8:	0000                	.insn	2, 0x0000
    41000cca:	0000                	.insn	2, 0x0000
    41000ccc:	4208                	.insn	2, 0x4208
    41000cce:	4101                	.insn	2, 0x4101
    41000cd0:	0000                	.insn	2, 0x0000
    41000cd2:	0000                	.insn	2, 0x0000
    41000cd4:	4b10                	.insn	2, 0x4b10
    41000cd6:	4101                	.insn	2, 0x4101
    41000cd8:	0000                	.insn	2, 0x0000
    41000cda:	0000                	.insn	2, 0x0000
    41000cdc:	4c58                	.insn	2, 0x4c58
    41000cde:	4101                	.insn	2, 0x4101
    41000ce0:	0000                	.insn	2, 0x0000
    41000ce2:	0000                	.insn	2, 0x0000
    41000ce4:	4e30                	.insn	2, 0x4e30
    41000ce6:	4101                	.insn	2, 0x4101
    41000ce8:	0000                	.insn	2, 0x0000
    41000cea:	0000                	.insn	2, 0x0000
    41000cec:	48ec                	.insn	2, 0x48ec
    41000cee:	4101                	.insn	2, 0x4101
    41000cf0:	0000                	.insn	2, 0x0000
    41000cf2:	0000                	.insn	2, 0x0000
    41000cf4:	42c8                	.insn	2, 0x42c8
    41000cf6:	4101                	.insn	2, 0x4101
    41000cf8:	0000                	.insn	2, 0x0000
	...

0000000041000cfc <dtest_descriptor_table>:
    41000cfc:	0d94                	.insn	2, 0x0d94
    41000cfe:	4100                	.insn	2, 0x4100
    41000d00:	0000                	.insn	2, 0x0000
    41000d02:	0000                	.insn	2, 0x0000
    41000d04:	0da1                	.insn	2, 0x0da1
    41000d06:	4100                	.insn	2, 0x4100
    41000d08:	0000                	.insn	2, 0x0000
    41000d0a:	0000                	.insn	2, 0x0000
    41000d0c:	0dae                	.insn	2, 0x0dae
    41000d0e:	4100                	.insn	2, 0x4100
    41000d10:	0000                	.insn	2, 0x0000
    41000d12:	0000                	.insn	2, 0x0000
    41000d14:	41000dbb          	negw	x27,x16
    41000d18:	0000                	.insn	2, 0x0000
    41000d1a:	0000                	.insn	2, 0x0000
    41000d1c:	0dc8                	.insn	2, 0x0dc8
    41000d1e:	4100                	.insn	2, 0x4100
    41000d20:	0000                	.insn	2, 0x0000
    41000d22:	0000                	.insn	2, 0x0000
    41000d24:	0dd5                	.insn	2, 0x0dd5
    41000d26:	4100                	.insn	2, 0x4100
    41000d28:	0000                	.insn	2, 0x0000
    41000d2a:	0000                	.insn	2, 0x0000
    41000d2c:	0de2                	.insn	2, 0x0de2
    41000d2e:	4100                	.insn	2, 0x4100
    41000d30:	0000                	.insn	2, 0x0000
    41000d32:	0000                	.insn	2, 0x0000
    41000d34:	41000def          	jal	x27,41001144 <__section__runtime_1+0x144>
    41000d38:	0000                	.insn	2, 0x0000
    41000d3a:	0000                	.insn	2, 0x0000
    41000d3c:	0dfc                	.insn	2, 0x0dfc
    41000d3e:	4100                	.insn	2, 0x4100
    41000d40:	0000                	.insn	2, 0x0000
    41000d42:	0000                	.insn	2, 0x0000
    41000d44:	0e09                	.insn	2, 0x0e09
    41000d46:	4100                	.insn	2, 0x4100
    41000d48:	0000                	.insn	2, 0x0000
    41000d4a:	0000                	.insn	2, 0x0000
    41000d4c:	0e16                	.insn	2, 0x0e16
    41000d4e:	4100                	.insn	2, 0x4100
    41000d50:	0000                	.insn	2, 0x0000
    41000d52:	0000                	.insn	2, 0x0000
    41000d54:	41000e23          	sb	x16,1052(x0) # 41c <XLEN+0x3dc>
    41000d58:	0000                	.insn	2, 0x0000
    41000d5a:	0000                	.insn	2, 0x0000
    41000d5c:	0e30                	.insn	2, 0x0e30
    41000d5e:	4100                	.insn	2, 0x4100
    41000d60:	0000                	.insn	2, 0x0000
    41000d62:	0000                	.insn	2, 0x0000
    41000d64:	0e3d                	.insn	2, 0x0e3d
    41000d66:	4100                	.insn	2, 0x4100
    41000d68:	0000                	.insn	2, 0x0000
    41000d6a:	0000                	.insn	2, 0x0000
    41000d6c:	0e4a                	.insn	2, 0x0e4a
    41000d6e:	4100                	.insn	2, 0x4100
    41000d70:	0000                	.insn	2, 0x0000
    41000d72:	0000                	.insn	2, 0x0000
    41000d74:	41000e57          	vadc.vvm	v28,v16,v0,v0
    41000d78:	0000                	.insn	2, 0x0000
    41000d7a:	0000                	.insn	2, 0x0000
    41000d7c:	0e64                	.insn	2, 0x0e64
    41000d7e:	4100                	.insn	2, 0x4100
    41000d80:	0000                	.insn	2, 0x0000
    41000d82:	0000                	.insn	2, 0x0000
    41000d84:	0e71                	.insn	2, 0x0e71
    41000d86:	4100                	.insn	2, 0x4100
    41000d88:	0000                	.insn	2, 0x0000
    41000d8a:	0000                	.insn	2, 0x0000
    41000d8c:	0e7e                	.insn	2, 0x0e7e
    41000d8e:	4100                	.insn	2, 0x4100
    41000d90:	0000                	.insn	2, 0x0000
	...

0000000041000d94 <dtest_name_0>:
    41000d94:	5f444953          	.insn	4, 0x5f444953
    41000d98:	495a                	.insn	2, 0x495a
    41000d9a:	5f525343          	.insn	4, 0x5f525343
    41000d9e:	3130                	.insn	2, 0x3130
	...

0000000041000da1 <dtest_name_1>:
    41000da1:	5f444953          	.insn	4, 0x5f444953
    41000da5:	495a                	.insn	2, 0x495a
    41000da7:	5f525343          	.insn	4, 0x5f525343
    41000dab:	3230                	.insn	2, 0x3230
	...

0000000041000dae <dtest_name_2>:
    41000dae:	5f444953          	.insn	4, 0x5f444953
    41000db2:	495a                	.insn	2, 0x495a
    41000db4:	5f525343          	.insn	4, 0x5f525343
    41000db8:	3330                	.insn	2, 0x3330
	...

0000000041000dbb <dtest_name_3>:
    41000dbb:	5f444953          	.insn	4, 0x5f444953
    41000dbf:	495a                	.insn	2, 0x495a
    41000dc1:	5f525343          	.insn	4, 0x5f525343
    41000dc5:	3430                	.insn	2, 0x3430
	...

0000000041000dc8 <dtest_name_4>:
    41000dc8:	5f444953          	.insn	4, 0x5f444953
    41000dcc:	495a                	.insn	2, 0x495a
    41000dce:	5f525343          	.insn	4, 0x5f525343
    41000dd2:	3530                	.insn	2, 0x3530
	...

0000000041000dd5 <dtest_name_5>:
    41000dd5:	5f444953          	.insn	4, 0x5f444953
    41000dd9:	495a                	.insn	2, 0x495a
    41000ddb:	5f525343          	.insn	4, 0x5f525343
    41000ddf:	3630                	.insn	2, 0x3630
	...

0000000041000de2 <dtest_name_6>:
    41000de2:	5f444953          	.insn	4, 0x5f444953
    41000de6:	495a                	.insn	2, 0x495a
    41000de8:	5f525343          	.insn	4, 0x5f525343
    41000dec:	3730                	.insn	2, 0x3730
	...

0000000041000def <dtest_name_7>:
    41000def:	5f444953          	.insn	4, 0x5f444953
    41000df3:	495a                	.insn	2, 0x495a
    41000df5:	5f525343          	.insn	4, 0x5f525343
    41000df9:	3830                	.insn	2, 0x3830
	...

0000000041000dfc <dtest_name_8>:
    41000dfc:	5f444953          	.insn	4, 0x5f444953
    41000e00:	495a                	.insn	2, 0x495a
    41000e02:	5f525343          	.insn	4, 0x5f525343
    41000e06:	3930                	.insn	2, 0x3930
	...

0000000041000e09 <dtest_name_9>:
    41000e09:	5f444953          	.insn	4, 0x5f444953
    41000e0d:	495a                	.insn	2, 0x495a
    41000e0f:	5f525343          	.insn	4, 0x5f525343
    41000e13:	3031                	.insn	2, 0x3031
	...

0000000041000e16 <dtest_name_10>:
    41000e16:	5f444953          	.insn	4, 0x5f444953
    41000e1a:	495a                	.insn	2, 0x495a
    41000e1c:	5f525343          	.insn	4, 0x5f525343
    41000e20:	3131                	.insn	2, 0x3131
	...

0000000041000e23 <dtest_name_11>:
    41000e23:	5f444953          	.insn	4, 0x5f444953
    41000e27:	495a                	.insn	2, 0x495a
    41000e29:	5f525343          	.insn	4, 0x5f525343
    41000e2d:	3231                	.insn	2, 0x3231
	...

0000000041000e30 <dtest_name_12>:
    41000e30:	5f444953          	.insn	4, 0x5f444953
    41000e34:	495a                	.insn	2, 0x495a
    41000e36:	5f525343          	.insn	4, 0x5f525343
    41000e3a:	3331                	.insn	2, 0x3331
	...

0000000041000e3d <dtest_name_13>:
    41000e3d:	5f444953          	.insn	4, 0x5f444953
    41000e41:	495a                	.insn	2, 0x495a
    41000e43:	5f525343          	.insn	4, 0x5f525343
    41000e47:	3431                	.insn	2, 0x3431
	...

0000000041000e4a <dtest_name_14>:
    41000e4a:	5f444953          	.insn	4, 0x5f444953
    41000e4e:	495a                	.insn	2, 0x495a
    41000e50:	5f525343          	.insn	4, 0x5f525343
    41000e54:	3531                	.insn	2, 0x3531
	...

0000000041000e57 <dtest_name_15>:
    41000e57:	5f444953          	.insn	4, 0x5f444953
    41000e5b:	495a                	.insn	2, 0x495a
    41000e5d:	5f525343          	.insn	4, 0x5f525343
    41000e61:	3631                	.insn	2, 0x3631
	...

0000000041000e64 <dtest_name_16>:
    41000e64:	5f444953          	.insn	4, 0x5f444953
    41000e68:	495a                	.insn	2, 0x495a
    41000e6a:	5f525343          	.insn	4, 0x5f525343
    41000e6e:	3731                	.insn	2, 0x3731
	...

0000000041000e71 <dtest_name_17>:
    41000e71:	5f444953          	.insn	4, 0x5f444953
    41000e75:	495a                	.insn	2, 0x495a
    41000e77:	5f525343          	.insn	4, 0x5f525343
    41000e7b:	3931                	.insn	2, 0x3931
	...

0000000041000e7e <dtest_name_18>:
    41000e7e:	5f444953          	.insn	4, 0x5f444953
    41000e82:	495a                	.insn	2, 0x495a
    41000e84:	5f525343          	.insn	4, 0x5f525343
    41000e88:	3032                	.insn	2, 0x3032
	...

0000000041000e8c <dtest_index_map>:
    41000e8c:	ffff                	.insn	2, 0xffff
    41000e8e:	ffff                	.insn	2, 0xffff
    41000e90:	0008                	.insn	2, 0x0008
    41000e92:	0000                	.insn	2, 0x0000
    41000e94:	0012                	.insn	2, 0x0012
    41000e96:	0000                	.insn	2, 0x0000
    41000e98:	00000007          	vle8.v	v0,(x0),v0.t
    41000e9c:	00000003          	lb	x0,0(x0) # 0 <ALL_4KB_PAGES>
    41000ea0:	0000                	.insn	2, 0x0000
    41000ea2:	0000                	.insn	2, 0x0000
    41000ea4:	0001                	.insn	2, 0x0001
    41000ea6:	0000                	.insn	2, 0x0000
    41000ea8:	000c                	.insn	2, 0x000c
    41000eaa:	0000                	.insn	2, 0x0000
    41000eac:	0000000f          	fence	unknown,unknown
    41000eb0:	00000007          	vle8.v	v0,(x0),v0.t
    41000eb4:	000d                	.insn	2, 0x000d
    41000eb6:	0000                	.insn	2, 0x0000
    41000eb8:	0011                	.insn	2, 0x0011
    41000eba:	0000                	.insn	2, 0x0000
    41000ebc:	0012                	.insn	2, 0x0012
    41000ebe:	0000                	.insn	2, 0x0000
    41000ec0:	0006                	.insn	2, 0x0006
    41000ec2:	0000                	.insn	2, 0x0000
    41000ec4:	00000003          	lb	x0,0(x0) # 0 <ALL_4KB_PAGES>
    41000ec8:	0001                	.insn	2, 0x0001
    41000eca:	0000                	.insn	2, 0x0000
    41000ecc:	00000003          	lb	x0,0(x0) # 0 <ALL_4KB_PAGES>
    41000ed0:	0006                	.insn	2, 0x0006
    41000ed2:	0000                	.insn	2, 0x0000
    41000ed4:	0005                	.insn	2, 0x0005
    41000ed6:	0000                	.insn	2, 0x0000
    41000ed8:	0000000b          	.insn	4, 0x000b
    41000edc:	0010                	.insn	2, 0x0010
    41000ede:	0000                	.insn	2, 0x0000
    41000ee0:	0010                	.insn	2, 0x0010
    41000ee2:	0000                	.insn	2, 0x0000
    41000ee4:	0008                	.insn	2, 0x0008
    41000ee6:	0000                	.insn	2, 0x0000
    41000ee8:	000e                	.insn	2, 0x000e
    41000eea:	0000                	.insn	2, 0x0000
    41000eec:	0000000b          	.insn	4, 0x000b
    41000ef0:	00000007          	vle8.v	v0,(x0),v0.t
    41000ef4:	0004                	.insn	2, 0x0004
    41000ef6:	0000                	.insn	2, 0x0000
    41000ef8:	0009                	.insn	2, 0x0009
    41000efa:	0000                	.insn	2, 0x0000
    41000efc:	0000000b          	.insn	4, 0x000b
    41000f00:	000a                	.insn	2, 0x000a
    41000f02:	0000                	.insn	2, 0x0000
    41000f04:	0000000f          	fence	unknown,unknown
    41000f08:	000c                	.insn	2, 0x000c
    41000f0a:	0000                	.insn	2, 0x0000
    41000f0c:	000d                	.insn	2, 0x000d
    41000f0e:	0000                	.insn	2, 0x0000
    41000f10:	0006                	.insn	2, 0x0006
    41000f12:	0000                	.insn	2, 0x0000
    41000f14:	000e                	.insn	2, 0x000e
    41000f16:	0000                	.insn	2, 0x0000
    41000f18:	0004                	.insn	2, 0x0004
    41000f1a:	0000                	.insn	2, 0x0000
    41000f1c:	0005                	.insn	2, 0x0005
    41000f1e:	0000                	.insn	2, 0x0000
    41000f20:	0000000f          	fence	unknown,unknown
    41000f24:	0000                	.insn	2, 0x0000
    41000f26:	0000                	.insn	2, 0x0000
    41000f28:	0009                	.insn	2, 0x0009
    41000f2a:	0000                	.insn	2, 0x0000
    41000f2c:	000e                	.insn	2, 0x000e
    41000f2e:	0000                	.insn	2, 0x0000
    41000f30:	0000                	.insn	2, 0x0000
    41000f32:	0000                	.insn	2, 0x0000
    41000f34:	0011                	.insn	2, 0x0011
    41000f36:	0000                	.insn	2, 0x0000
    41000f38:	0002                	.insn	2, 0x0002
    41000f3a:	0000                	.insn	2, 0x0000
    41000f3c:	0004                	.insn	2, 0x0004
    41000f3e:	0000                	.insn	2, 0x0000
    41000f40:	0008                	.insn	2, 0x0008
    41000f42:	0000                	.insn	2, 0x0000
    41000f44:	000d                	.insn	2, 0x000d
    41000f46:	0000                	.insn	2, 0x0000
    41000f48:	000a                	.insn	2, 0x000a
    41000f4a:	0000                	.insn	2, 0x0000
    41000f4c:	0009                	.insn	2, 0x0009
    41000f4e:	0000                	.insn	2, 0x0000
    41000f50:	000a                	.insn	2, 0x000a
    41000f52:	0000                	.insn	2, 0x0000
    41000f54:	0002                	.insn	2, 0x0002
    41000f56:	0000                	.insn	2, 0x0000
    41000f58:	0005                	.insn	2, 0x0005
    41000f5a:	0000                	.insn	2, 0x0000
    41000f5c:	0001                	.insn	2, 0x0001
    41000f5e:	0000                	.insn	2, 0x0000
    41000f60:	0010                	.insn	2, 0x0010
    41000f62:	0000                	.insn	2, 0x0000
    41000f64:	0011                	.insn	2, 0x0011
    41000f66:	0000                	.insn	2, 0x0000
    41000f68:	0012                	.insn	2, 0x0012
    41000f6a:	0000                	.insn	2, 0x0000
    41000f6c:	000c                	.insn	2, 0x000c
    41000f6e:	0000                	.insn	2, 0x0000
    41000f70:	0002                	.insn	2, 0x0002
	...

0000000041000f74 <scheduler__test_setup_ptr>:
    41000f74:	4140                	.insn	2, 0x4140
    41000f76:	4101                	.insn	2, 0x4101
    41000f78:	0000                	.insn	2, 0x0000
	...

0000000041000f7c <scheduler__test_cleanup_ptr>:
    41000f7c:	5034                	.insn	2, 0x5034
    41000f7e:	4101                	.insn	2, 0x4101
    41000f80:	0000                	.insn	2, 0x0000
	...

Disassembly of section .runtime_s:

0000000041010000 <trap_handler_s__invalid_interrupt>:
    41010000:	1740006f          	j	41010174 <trap_handler_s__test_failed>

0000000041010004 <trap_handler_s__clear_all_interrupts>:
    41010004:	14401073          	csrw	sip,x0
    41010008:	10200073          	sret

000000004101000c <trap_handler_s___CLEAR_SSI>:
    4101000c:	00200293          	li	x5,2
    41010010:	1442b073          	csrc	sip,x5
    41010014:	10200073          	sret

0000000041010018 <trap_handler_s___CLEAR_MSI>:
    41010018:	00800293          	li	x5,8
    4101001c:	1442b073          	csrc	sip,x5
    41010020:	10200073          	sret

0000000041010024 <trap_handler_s___CLEAR_STI>:
    41010024:	02000293          	li	x5,32
    41010028:	1442b073          	csrc	sip,x5
    4101002c:	10200073          	sret

0000000041010030 <trap_handler_s___CLEAR_MTI>:
    41010030:	08000293          	li	x5,128
    41010034:	1442b073          	csrc	sip,x5
    41010038:	10200073          	sret

000000004101003c <trap_handler_s___CLEAR_SEI>:
    4101003c:	20000293          	li	x5,512
    41010040:	1442b073          	csrc	sip,x5
    41010044:	10200073          	sret

0000000041010048 <trap_handler_s___CLEAR_MEI>:
    41010048:	000012b7          	lui	x5,0x1
    4101004c:	8002829b          	addiw	x5,x5,-2048 # 800 <XLEN+0x7c0>
    41010050:	1442b073          	csrc	sip,x5
    41010054:	10200073          	sret

0000000041010058 <trap_handler_s___CLEAR_COI>:
    41010058:	000022b7          	lui	x5,0x2
    4101005c:	1442b073          	csrc	sip,x5
    41010060:	10200073          	sret

0000000041010064 <trap_handler_s__clear_highest_priority_interrupt>:
    41010064:	144022f3          	csrr	x5,sip
    41010068:	40500333          	neg	x6,x5
    4101006c:	0062f2b3          	and	x5,x5,x6
    41010070:	1442b073          	csrc	sip,x5
    41010074:	10200073          	sret

0000000041010078 <trap_handler_s__trap_entry>:
    41010078:	10c0006f          	j	41010184 <trap_handler_s__trap_handler>

000000004101007c <trap_handler_s__interrupt_vector_table>:
    4101007c:	f91ff06f          	j	4101000c <trap_handler_s___CLEAR_SSI>
    41010080:	f81ff06f          	j	41010000 <trap_handler_s__invalid_interrupt>
    41010084:	f95ff06f          	j	41010018 <trap_handler_s___CLEAR_MSI>
    41010088:	f79ff06f          	j	41010000 <trap_handler_s__invalid_interrupt>
    4101008c:	f99ff06f          	j	41010024 <trap_handler_s___CLEAR_STI>
    41010090:	f71ff06f          	j	41010000 <trap_handler_s__invalid_interrupt>
    41010094:	f9dff06f          	j	41010030 <trap_handler_s___CLEAR_MTI>
    41010098:	f69ff06f          	j	41010000 <trap_handler_s__invalid_interrupt>
    4101009c:	fa1ff06f          	j	4101003c <trap_handler_s___CLEAR_SEI>
    410100a0:	f61ff06f          	j	41010000 <trap_handler_s__invalid_interrupt>
    410100a4:	fa5ff06f          	j	41010048 <trap_handler_s___CLEAR_MEI>
    410100a8:	f59ff06f          	j	41010000 <trap_handler_s__invalid_interrupt>
    410100ac:	fadff06f          	j	41010058 <trap_handler_s___CLEAR_COI>
    410100b0:	f51ff06f          	j	41010000 <trap_handler_s__invalid_interrupt>
    410100b4:	f4dff06f          	j	41010000 <trap_handler_s__invalid_interrupt>
    410100b8:	fadff06f          	j	41010064 <trap_handler_s__clear_highest_priority_interrupt>
    410100bc:	fa9ff06f          	j	41010064 <trap_handler_s__clear_highest_priority_interrupt>
    410100c0:	fa5ff06f          	j	41010064 <trap_handler_s__clear_highest_priority_interrupt>
    410100c4:	fa1ff06f          	j	41010064 <trap_handler_s__clear_highest_priority_interrupt>
    410100c8:	f9dff06f          	j	41010064 <trap_handler_s__clear_highest_priority_interrupt>
    410100cc:	f99ff06f          	j	41010064 <trap_handler_s__clear_highest_priority_interrupt>
    410100d0:	f95ff06f          	j	41010064 <trap_handler_s__clear_highest_priority_interrupt>
    410100d4:	f91ff06f          	j	41010064 <trap_handler_s__clear_highest_priority_interrupt>
    410100d8:	f8dff06f          	j	41010064 <trap_handler_s__clear_highest_priority_interrupt>
    410100dc:	f89ff06f          	j	41010064 <trap_handler_s__clear_highest_priority_interrupt>
    410100e0:	f85ff06f          	j	41010064 <trap_handler_s__clear_highest_priority_interrupt>
    410100e4:	f81ff06f          	j	41010064 <trap_handler_s__clear_highest_priority_interrupt>
    410100e8:	f7dff06f          	j	41010064 <trap_handler_s__clear_highest_priority_interrupt>
    410100ec:	f79ff06f          	j	41010064 <trap_handler_s__clear_highest_priority_interrupt>
    410100f0:	f75ff06f          	j	41010064 <trap_handler_s__clear_highest_priority_interrupt>
    410100f4:	f71ff06f          	j	41010064 <trap_handler_s__clear_highest_priority_interrupt>
    410100f8:	f6dff06f          	j	41010064 <trap_handler_s__clear_highest_priority_interrupt>
    410100fc:	f69ff06f          	j	41010064 <trap_handler_s__clear_highest_priority_interrupt>
    41010100:	f65ff06f          	j	41010064 <trap_handler_s__clear_highest_priority_interrupt>
    41010104:	f61ff06f          	j	41010064 <trap_handler_s__clear_highest_priority_interrupt>
    41010108:	f5dff06f          	j	41010064 <trap_handler_s__clear_highest_priority_interrupt>
    4101010c:	f59ff06f          	j	41010064 <trap_handler_s__clear_highest_priority_interrupt>
    41010110:	f55ff06f          	j	41010064 <trap_handler_s__clear_highest_priority_interrupt>
    41010114:	f51ff06f          	j	41010064 <trap_handler_s__clear_highest_priority_interrupt>
    41010118:	f4dff06f          	j	41010064 <trap_handler_s__clear_highest_priority_interrupt>
    4101011c:	f49ff06f          	j	41010064 <trap_handler_s__clear_highest_priority_interrupt>
    41010120:	f45ff06f          	j	41010064 <trap_handler_s__clear_highest_priority_interrupt>
    41010124:	f41ff06f          	j	41010064 <trap_handler_s__clear_highest_priority_interrupt>
    41010128:	f3dff06f          	j	41010064 <trap_handler_s__clear_highest_priority_interrupt>
    4101012c:	f39ff06f          	j	41010064 <trap_handler_s__clear_highest_priority_interrupt>
    41010130:	f35ff06f          	j	41010064 <trap_handler_s__clear_highest_priority_interrupt>
    41010134:	f31ff06f          	j	41010064 <trap_handler_s__clear_highest_priority_interrupt>
    41010138:	f2dff06f          	j	41010064 <trap_handler_s__clear_highest_priority_interrupt>
    4101013c:	f29ff06f          	j	41010064 <trap_handler_s__clear_highest_priority_interrupt>
    41010140:	f25ff06f          	j	41010064 <trap_handler_s__clear_highest_priority_interrupt>
    41010144:	f21ff06f          	j	41010064 <trap_handler_s__clear_highest_priority_interrupt>
    41010148:	f1dff06f          	j	41010064 <trap_handler_s__clear_highest_priority_interrupt>
    4101014c:	f19ff06f          	j	41010064 <trap_handler_s__clear_highest_priority_interrupt>
    41010150:	f15ff06f          	j	41010064 <trap_handler_s__clear_highest_priority_interrupt>
    41010154:	f11ff06f          	j	41010064 <trap_handler_s__clear_highest_priority_interrupt>
    41010158:	f0dff06f          	j	41010064 <trap_handler_s__clear_highest_priority_interrupt>
    4101015c:	f09ff06f          	j	41010064 <trap_handler_s__clear_highest_priority_interrupt>
    41010160:	f05ff06f          	j	41010064 <trap_handler_s__clear_highest_priority_interrupt>
    41010164:	f01ff06f          	j	41010064 <trap_handler_s__clear_highest_priority_interrupt>
    41010168:	efdff06f          	j	41010064 <trap_handler_s__clear_highest_priority_interrupt>
    4101016c:	ef9ff06f          	j	41010064 <trap_handler_s__clear_highest_priority_interrupt>
    41010170:	ef5ff06f          	j	41010064 <trap_handler_s__clear_highest_priority_interrupt>

0000000041010174 <trap_handler_s__test_failed>:
    41010174:	00f00f9b          	addiw	x31,x0,15
    41010178:	01cf9f93          	slli	x31,x31,0x1c
    4101017c:	002f8f93          	addi	x31,x31,2
    41010180:	00000073          	ecall

0000000041010184 <trap_handler_s__trap_handler>:
    41010184:	142022f3          	csrr	x5,scause
    41010188:	fff0031b          	addiw	x6,x0,-1
    4101018c:	03f31313          	slli	x6,x6,0x3f
    41010190:	00537333          	and	x6,x6,x5
    41010194:	02030263          	beqz	x6,410101b8 <trap_handler_s__exception_path>

0000000041010198 <trap_handler_s__interrupt_handler>:
    41010198:	fff0031b          	addiw	x6,x0,-1
    4101019c:	03f31313          	slli	x6,x6,0x3f
    410101a0:	0062c2b3          	xor	x5,x5,x6
    410101a4:	00000317          	auipc	x6,0x0
    410101a8:	ed430313          	addi	x6,x6,-300 # 41010078 <trap_handler_s__trap_entry>
    410101ac:	00229293          	slli	x5,x5,0x2
    410101b0:	005302b3          	add	x5,x6,x5
    410101b4:	00028067          	jr	x5 # 2000 <pma_region_1_size+0x1000>

00000000410101b8 <trap_handler_s__exception_path>:
    410101b8:	14021273          	csrrw	x4,sscratch,x4
    410101bc:	00000297          	auipc	x5,0x0
    410101c0:	0cc28293          	addi	x5,x5,204 # 41010288 <trap_handler_s__trap_panic>
    410101c4:	10529073          	csrw	stvec,x5
    410101c8:	0040006f          	j	410101cc <trap_handler_s__excp_entry>

00000000410101cc <trap_handler_s__excp_entry>:
    410101cc:	14202373          	csrr	x6,scause
    410101d0:	00800293          	li	x5,8
    410101d4:	00534863          	blt	x6,x5,410101e4 <trap_handler_s__check_exception_label>
    410101d8:	00b00293          	li	x5,11
    410101dc:	0062c463          	blt	x5,x6,410101e4 <trap_handler_s__check_exception_label>
    410101e0:	0a80006f          	j	41010288 <trap_handler_s__trap_panic>

00000000410101e4 <trap_handler_s__check_exception_label>:
    410101e4:	04623c23          	sd	x6,88(x4) # 58 <XLEN+0x18>
    410101e8:	141022f3          	csrr	x5,sepc
    410101ec:	02523423          	sd	x5,40(x4) # 28 <SECURE_ACCESS_PROBABILITY+0xa>
    410101f0:	01820283          	lb	x5,24(x4) # 18 <STORE_GUEST_PAGE_FAULT+0x1>
    410101f4:	00029863          	bnez	x5,41010204 <trap_handler_s__check_excp>
    410101f8:	00128293          	addi	x5,x5,1
    410101fc:	00520c23          	sb	x5,24(x4) # 18 <STORE_GUEST_PAGE_FAULT+0x1>
    41010200:	05c0006f          	j	4101025c <trap_handler_s__ecall_from_machine>

0000000041010204 <trap_handler_s__check_excp>:
    41010204:	06823283          	ld	x5,104(x4) # 68 <XLEN+0x28>
    41010208:	06023423          	sd	x0,104(x4) # 68 <XLEN+0x28>
    4101020c:	00028663          	beqz	x5,41010218 <trap_handler_s__skip_mode_check>
    41010210:	00300393          	li	x7,3
    41010214:	f67290e3          	bne	x5,x7,41010174 <trap_handler_s__test_failed>

0000000041010218 <trap_handler_s__skip_mode_check>:
    41010218:	05023283          	ld	x5,80(x4) # 50 <XLEN+0x10>
    4101021c:	04023823          	sd	x0,80(x4) # 50 <XLEN+0x10>
    41010220:	f4531ae3          	bne	x6,x5,41010174 <trap_handler_s__test_failed>
    41010224:	03823283          	ld	x5,56(x4) # 38 <SECURE_ACCESS_PROBABILITY+0x1a>
    41010228:	02023c23          	sd	x0,56(x4) # 38 <SECURE_ACCESS_PROBABILITY+0x1a>
    4101022c:	02029663          	bnez	x5,41010258 <trap_handler_s__skip_nonzero_tval_check>
    41010230:	02023303          	ld	x6,32(x4) # 20 <SECURE_ACCESS_PROBABILITY+0x2>
    41010234:	02023023          	sd	x0,32(x4) # 20 <SECURE_ACCESS_PROBABILITY+0x2>
    41010238:	02823283          	ld	x5,40(x4) # 28 <SECURE_ACCESS_PROBABILITY+0xa>
    4101023c:	02023423          	sd	x0,40(x4) # 28 <SECURE_ACCESS_PROBABILITY+0xa>
    41010240:	f2531ae3          	bne	x6,x5,41010174 <trap_handler_s__test_failed>
    41010244:	04023283          	ld	x5,64(x4) # 40 <XLEN>
    41010248:	04023023          	sd	x0,64(x4) # 40 <XLEN>
    4101024c:	00028663          	beqz	x5,41010258 <trap_handler_s__skip_nonzero_tval_check>

0000000041010250 <trap_handler_s__nonzero_tval_check>:
    41010250:	14302373          	csrr	x6,stval
    41010254:	f25310e3          	bne	x6,x5,41010174 <trap_handler_s__test_failed>

0000000041010258 <trap_handler_s__skip_nonzero_tval_check>:
    41010258:	0040006f          	j	4101025c <trap_handler_s__ecall_from_machine>

000000004101025c <trap_handler_s__ecall_from_machine>:
    4101025c:	03023283          	ld	x5,48(x4) # 30 <SECURE_ACCESS_PROBABILITY+0x12>
    41010260:	02023823          	sd	x0,48(x4) # 30 <SECURE_ACCESS_PROBABILITY+0x12>
    41010264:	07023303          	ld	x6,112(x4) # 70 <XLEN+0x30>
    41010268:	06023823          	sd	x0,112(x4) # 70 <XLEN+0x30>
    4101026c:	00031463          	bnez	x6,41010274 <trap_handler_s__skip_xepc_write>
    41010270:	14129073          	csrw	sepc,x5

0000000041010274 <trap_handler_s__skip_xepc_write>:
    41010274:	00000317          	auipc	x6,0x0
    41010278:	e0430313          	addi	x6,x6,-508 # 41010078 <trap_handler_s__trap_entry>
    4101027c:	10531073          	csrw	stvec,x6
    41010280:	14021273          	csrrw	x4,sscratch,x4
    41010284:	10200073          	sret

0000000041010288 <trap_handler_s__trap_panic>:
    41010288:	00000193          	li	x3,0
    4101028c:	00f00f9b          	addiw	x31,x0,15
    41010290:	01cf9f93          	slli	x31,x31,0x1c
    41010294:	002f8f93          	addi	x31,x31,2
    41010298:	00000073          	ecall

Disassembly of section .code:

0000000041014110 <passed>:
    41014110:	00f00f9b          	addiw	x31,x0,15
    41014114:	01cf9f93          	slli	x31,x31,0x1c
    41014118:	001f8f93          	addi	x31,x31,1
    4101411c:	00000073          	ecall

0000000041014120 <failed>:
    41014120:	00f00f9b          	addiw	x31,x0,15
    41014124:	01cf9f93          	slli	x31,x31,0x1c
    41014128:	002f8f93          	addi	x31,x31,2
    4101412c:	00000073          	ecall

0000000041014130 <end_test>:
    41014130:	00f00f9b          	addiw	x31,x0,15
    41014134:	01cf9f93          	slli	x31,x31,0x1c
    41014138:	003f8f93          	addi	x31,x31,3
    4101413c:	00000073          	ecall

0000000041014140 <test_setup>:
    41014140:	00f00f9b          	addiw	x31,x0,15
    41014144:	01cf9f93          	slli	x31,x31,0x1c
    41014148:	001f8f93          	addi	x31,x31,1
    4101414c:	00000073          	ecall

0000000041014150 <SID_ZICSR_01>:
    41014150:	0b9d5137          	lui	x2,0xb9d5
    41014154:	0891011b          	addiw	x2,x2,137 # b9d5089 <pma_region_2_size+0x79d5089>
    41014158:	00c11113          	slli	x2,x2,0xc
    4101415c:	fab10113          	addi	x2,x2,-85
    41014160:	00d11113          	slli	x2,x2,0xd
    41014164:	37993fb7          	lui	x31,0x37993
    41014168:	35df8f9b          	addiw	x31,x31,861 # 3799335d <SID_ZICSR_14_stack+0x289ee35d>
    4101416c:	010f9f93          	slli	x31,x31,0x10
    41014170:	0a0f8f93          	addi	x31,x31,160
    41014174:	00100f13          	li	x30,1
    41014178:	01efb023          	sd	x30,0(x31)
    4101417c:	000f0fb7          	lui	x31,0xf0
    41014180:	001f8f9b          	addiw	x31,x31,1 # f0001 <pma_region_0_size+0xb0001>
    41014184:	00cf9f93          	slli	x31,x31,0xc
    41014188:	005f8f93          	addi	x31,x31,5
    4101418c:	00000073          	ecall
    41014190:	00713023          	sd	x7,0(x2)
    41014194:	09bd3137          	lui	x2,0x9bd3
    41014198:	21b1011b          	addiw	x2,x2,539 # 9bd321b <pma_region_2_size+0x5bd321b>
    4101419c:	00d11113          	slli	x2,x2,0xd
    410141a0:	000012b7          	lui	x5,0x1
    410141a4:	00510133          	add	x2,x2,x5
    410141a8:	ff017113          	andi	x2,x2,-16
    410141ac:	fff00f93          	li	x31,-1
    410141b0:	10af9f73          	csrrw	x30,0x10a,x31
    410141b4:	0b9d5137          	lui	x2,0xb9d5
    410141b8:	0891011b          	addiw	x2,x2,137 # b9d5089 <pma_region_2_size+0x79d5089>
    410141bc:	00c11113          	slli	x2,x2,0xc
    410141c0:	fab10113          	addi	x2,x2,-85
    410141c4:	00d11113          	slli	x2,x2,0xd
    410141c8:	00013383          	ld	x7,0(x2)
    410141cc:	37993fb7          	lui	x31,0x37993
    410141d0:	35df8f9b          	addiw	x31,x31,861 # 3799335d <SID_ZICSR_14_stack+0x289ee35d>
    410141d4:	010f9f93          	slli	x31,x31,0x10
    410141d8:	0a0f8f93          	addi	x31,x31,160
    410141dc:	00200f13          	li	x30,2
    410141e0:	01efb023          	sd	x30,0(x31)
    410141e4:	000f0fb7          	lui	x31,0xf0
    410141e8:	001f8f9b          	addiw	x31,x31,1 # f0001 <pma_region_0_size+0xb0001>
    410141ec:	00cf9f93          	slli	x31,x31,0xc
    410141f0:	005f8f93          	addi	x31,x31,5
    410141f4:	00000073          	ecall

00000000410141f8 <SID_ZICSR_01_passed>:
    410141f8:	00f00f9b          	addiw	x31,x0,15
    410141fc:	01cf9f93          	slli	x31,x31,0x1c
    41014200:	001f8f93          	addi	x31,x31,1
    41014204:	00000073          	ecall

0000000041014208 <SID_ZICSR_02>:
    41014208:	0b9d5137          	lui	x2,0xb9d5
    4101420c:	0891011b          	addiw	x2,x2,137 # b9d5089 <pma_region_2_size+0x79d5089>
    41014210:	00c11113          	slli	x2,x2,0xc
    41014214:	fab10113          	addi	x2,x2,-85
    41014218:	00d11113          	slli	x2,x2,0xd
    4101421c:	37993fb7          	lui	x31,0x37993
    41014220:	35df8f9b          	addiw	x31,x31,861 # 3799335d <SID_ZICSR_14_stack+0x289ee35d>
    41014224:	010f9f93          	slli	x31,x31,0x10
    41014228:	0a0f8f93          	addi	x31,x31,160
    4101422c:	00300f13          	li	x30,3
    41014230:	01efb023          	sd	x30,0(x31)
    41014234:	000f0fb7          	lui	x31,0xf0
    41014238:	001f8f9b          	addiw	x31,x31,1 # f0001 <pma_region_0_size+0xb0001>
    4101423c:	00cf9f93          	slli	x31,x31,0xc
    41014240:	005f8f93          	addi	x31,x31,5
    41014244:	00000073          	ecall
    41014248:	00713023          	sd	x7,0(x2)
    4101424c:	003a3137          	lui	x2,0x3a3
    41014250:	1b51011b          	addiw	x2,x2,437 # 3a31b5 <pma_region_0_size+0x3631b5>
    41014254:	00c11113          	slli	x2,x2,0xc
    41014258:	93b10113          	addi	x2,x2,-1733
    4101425c:	00f11113          	slli	x2,x2,0xf
    41014260:	000012b7          	lui	x5,0x1
    41014264:	00510133          	add	x2,x2,x5
    41014268:	ff017113          	andi	x2,x2,-16
    4101426c:	fff00713          	li	x14,-1
    41014270:	105714f3          	csrrw	x9,stvec,x14
    41014274:	0b9d5137          	lui	x2,0xb9d5
    41014278:	0891011b          	addiw	x2,x2,137 # b9d5089 <pma_region_2_size+0x79d5089>
    4101427c:	00c11113          	slli	x2,x2,0xc
    41014280:	fab10113          	addi	x2,x2,-85
    41014284:	00d11113          	slli	x2,x2,0xd
    41014288:	00013383          	ld	x7,0(x2)
    4101428c:	37993fb7          	lui	x31,0x37993
    41014290:	35df8f9b          	addiw	x31,x31,861 # 3799335d <SID_ZICSR_14_stack+0x289ee35d>
    41014294:	010f9f93          	slli	x31,x31,0x10
    41014298:	0a0f8f93          	addi	x31,x31,160
    4101429c:	00400f13          	li	x30,4
    410142a0:	01efb023          	sd	x30,0(x31)
    410142a4:	000f0fb7          	lui	x31,0xf0
    410142a8:	001f8f9b          	addiw	x31,x31,1 # f0001 <pma_region_0_size+0xb0001>
    410142ac:	00cf9f93          	slli	x31,x31,0xc
    410142b0:	005f8f93          	addi	x31,x31,5
    410142b4:	00000073          	ecall

00000000410142b8 <SID_ZICSR_02_passed>:
    410142b8:	00f00f9b          	addiw	x31,x0,15
    410142bc:	01cf9f93          	slli	x31,x31,0x1c
    410142c0:	001f8f93          	addi	x31,x31,1
    410142c4:	00000073          	ecall

00000000410142c8 <SID_ZICSR_03>:
    410142c8:	0b9d5137          	lui	x2,0xb9d5
    410142cc:	0891011b          	addiw	x2,x2,137 # b9d5089 <pma_region_2_size+0x79d5089>
    410142d0:	00c11113          	slli	x2,x2,0xc
    410142d4:	fab10113          	addi	x2,x2,-85
    410142d8:	00d11113          	slli	x2,x2,0xd
    410142dc:	37993fb7          	lui	x31,0x37993
    410142e0:	35df8f9b          	addiw	x31,x31,861 # 3799335d <SID_ZICSR_14_stack+0x289ee35d>
    410142e4:	010f9f93          	slli	x31,x31,0x10
    410142e8:	0a0f8f93          	addi	x31,x31,160
    410142ec:	00500f13          	li	x30,5
    410142f0:	01efb023          	sd	x30,0(x31)
    410142f4:	000f0fb7          	lui	x31,0xf0
    410142f8:	001f8f9b          	addiw	x31,x31,1 # f0001 <pma_region_0_size+0xb0001>
    410142fc:	00cf9f93          	slli	x31,x31,0xc
    41014300:	005f8f93          	addi	x31,x31,5
    41014304:	00000073          	ecall
    41014308:	00713023          	sd	x7,0(x2)
    4101430c:	4009a137          	lui	x2,0x4009a
    41014310:	000012b7          	lui	x5,0x1
    41014314:	00510133          	add	x2,x2,x5
    41014318:	ff017113          	andi	x2,x2,-16
    4101431c:	00000f13          	li	x30,0
    41014320:	141f1a73          	csrrw	x20,sepc,x30
    41014324:	0b9d5137          	lui	x2,0xb9d5
    41014328:	0891011b          	addiw	x2,x2,137 # b9d5089 <pma_region_2_size+0x79d5089>
    4101432c:	00c11113          	slli	x2,x2,0xc
    41014330:	fab10113          	addi	x2,x2,-85
    41014334:	00d11113          	slli	x2,x2,0xd
    41014338:	00013383          	ld	x7,0(x2)
    4101433c:	37993fb7          	lui	x31,0x37993
    41014340:	35df8f9b          	addiw	x31,x31,861 # 3799335d <SID_ZICSR_14_stack+0x289ee35d>
    41014344:	010f9f93          	slli	x31,x31,0x10
    41014348:	0a0f8f93          	addi	x31,x31,160
    4101434c:	00600f13          	li	x30,6
    41014350:	01efb023          	sd	x30,0(x31)
    41014354:	000f0fb7          	lui	x31,0xf0
    41014358:	001f8f9b          	addiw	x31,x31,1 # f0001 <pma_region_0_size+0xb0001>
    4101435c:	00cf9f93          	slli	x31,x31,0xc
    41014360:	005f8f93          	addi	x31,x31,5
    41014364:	00000073          	ecall

0000000041014368 <SID_ZICSR_03_passed>:
    41014368:	00f00f9b          	addiw	x31,x0,15
    4101436c:	01cf9f93          	slli	x31,x31,0x1c
    41014370:	001f8f93          	addi	x31,x31,1
    41014374:	00000073          	ecall

0000000041014378 <SID_ZICSR_04>:
    41014378:	0b9d5137          	lui	x2,0xb9d5
    4101437c:	0891011b          	addiw	x2,x2,137 # b9d5089 <pma_region_2_size+0x79d5089>
    41014380:	00c11113          	slli	x2,x2,0xc
    41014384:	fab10113          	addi	x2,x2,-85
    41014388:	00d11113          	slli	x2,x2,0xd
    4101438c:	37993fb7          	lui	x31,0x37993
    41014390:	35df8f9b          	addiw	x31,x31,861 # 3799335d <SID_ZICSR_14_stack+0x289ee35d>
    41014394:	010f9f93          	slli	x31,x31,0x10
    41014398:	0a0f8f93          	addi	x31,x31,160
    4101439c:	00500f13          	li	x30,5
    410143a0:	01efb023          	sd	x30,0(x31)
    410143a4:	000f0fb7          	lui	x31,0xf0
    410143a8:	001f8f9b          	addiw	x31,x31,1 # f0001 <pma_region_0_size+0xb0001>
    410143ac:	00cf9f93          	slli	x31,x31,0xc
    410143b0:	005f8f93          	addi	x31,x31,5
    410143b4:	00000073          	ecall
    410143b8:	00713023          	sd	x7,0(x2)
    410143bc:	00fca137          	lui	x2,0xfca
    410143c0:	acb1011b          	addiw	x2,x2,-1333 # fc9acb <pma_region_0_size+0xf89acb>
    410143c4:	00d11113          	slli	x2,x2,0xd
    410143c8:	11310113          	addi	x2,x2,275
    410143cc:	00c11113          	slli	x2,x2,0xc
    410143d0:	000012b7          	lui	x5,0x1
    410143d4:	00510133          	add	x2,x2,x5
    410143d8:	ff017113          	andi	x2,x2,-16
    410143dc:	fff00d13          	li	x26,-1
    410143e0:	141d2973          	csrrs	x18,sepc,x26
    410143e4:	0b9d5137          	lui	x2,0xb9d5
    410143e8:	0891011b          	addiw	x2,x2,137 # b9d5089 <pma_region_2_size+0x79d5089>
    410143ec:	00c11113          	slli	x2,x2,0xc
    410143f0:	fab10113          	addi	x2,x2,-85
    410143f4:	00d11113          	slli	x2,x2,0xd
    410143f8:	00013383          	ld	x7,0(x2)
    410143fc:	37993fb7          	lui	x31,0x37993
    41014400:	35df8f9b          	addiw	x31,x31,861 # 3799335d <SID_ZICSR_14_stack+0x289ee35d>
    41014404:	010f9f93          	slli	x31,x31,0x10
    41014408:	0a0f8f93          	addi	x31,x31,160
    4101440c:	00600f13          	li	x30,6
    41014410:	01efb023          	sd	x30,0(x31)
    41014414:	000f0fb7          	lui	x31,0xf0
    41014418:	001f8f9b          	addiw	x31,x31,1 # f0001 <pma_region_0_size+0xb0001>
    4101441c:	00cf9f93          	slli	x31,x31,0xc
    41014420:	005f8f93          	addi	x31,x31,5
    41014424:	00000073          	ecall

0000000041014428 <SID_ZICSR_04_passed>:
    41014428:	00f00f9b          	addiw	x31,x0,15
    4101442c:	01cf9f93          	slli	x31,x31,0x1c
    41014430:	001f8f93          	addi	x31,x31,1
    41014434:	00000073          	ecall

0000000041014438 <SID_ZICSR_05>:
    41014438:	0b9d5137          	lui	x2,0xb9d5
    4101443c:	0891011b          	addiw	x2,x2,137 # b9d5089 <pma_region_2_size+0x79d5089>
    41014440:	00c11113          	slli	x2,x2,0xc
    41014444:	fab10113          	addi	x2,x2,-85
    41014448:	00d11113          	slli	x2,x2,0xd
    4101444c:	37993fb7          	lui	x31,0x37993
    41014450:	35df8f9b          	addiw	x31,x31,861 # 3799335d <SID_ZICSR_14_stack+0x289ee35d>
    41014454:	010f9f93          	slli	x31,x31,0x10
    41014458:	0a0f8f93          	addi	x31,x31,160
    4101445c:	00900f13          	li	x30,9
    41014460:	01efb023          	sd	x30,0(x31)
    41014464:	000f0fb7          	lui	x31,0xf0
    41014468:	001f8f9b          	addiw	x31,x31,1 # f0001 <pma_region_0_size+0xb0001>
    4101446c:	00cf9f93          	slli	x31,x31,0xc
    41014470:	005f8f93          	addi	x31,x31,5
    41014474:	00000073          	ecall
    41014478:	00713023          	sd	x7,0(x2)
    4101447c:	74954137          	lui	x2,0x74954
    41014480:	b731011b          	addiw	x2,x2,-1165 # 74953b73 <pma_region_2_end+0x2f912b73>
    41014484:	00c11113          	slli	x2,x2,0xc
    41014488:	d2b10113          	addi	x2,x2,-725
    4101448c:	00d11113          	slli	x2,x2,0xd
    41014490:	000012b7          	lui	x5,0x1
    41014494:	00510133          	add	x2,x2,x5
    41014498:	ff017113          	andi	x2,x2,-16
    4101449c:	00000613          	li	x12,0
    410144a0:	143624f3          	csrrs	x9,stval,x12
    410144a4:	0b9d5137          	lui	x2,0xb9d5
    410144a8:	0891011b          	addiw	x2,x2,137 # b9d5089 <pma_region_2_size+0x79d5089>
    410144ac:	00c11113          	slli	x2,x2,0xc
    410144b0:	fab10113          	addi	x2,x2,-85
    410144b4:	00d11113          	slli	x2,x2,0xd
    410144b8:	00013383          	ld	x7,0(x2)
    410144bc:	37993fb7          	lui	x31,0x37993
    410144c0:	35df8f9b          	addiw	x31,x31,861 # 3799335d <SID_ZICSR_14_stack+0x289ee35d>
    410144c4:	010f9f93          	slli	x31,x31,0x10
    410144c8:	0a0f8f93          	addi	x31,x31,160
    410144cc:	00a00f13          	li	x30,10
    410144d0:	01efb023          	sd	x30,0(x31)
    410144d4:	000f0fb7          	lui	x31,0xf0
    410144d8:	001f8f9b          	addiw	x31,x31,1 # f0001 <pma_region_0_size+0xb0001>
    410144dc:	00cf9f93          	slli	x31,x31,0xc
    410144e0:	005f8f93          	addi	x31,x31,5
    410144e4:	00000073          	ecall

00000000410144e8 <SID_ZICSR_05_passed>:
    410144e8:	00f00f9b          	addiw	x31,x0,15
    410144ec:	01cf9f93          	slli	x31,x31,0x1c
    410144f0:	001f8f93          	addi	x31,x31,1
    410144f4:	00000073          	ecall

00000000410144f8 <SID_ZICSR_06>:
    410144f8:	0b9d5137          	lui	x2,0xb9d5
    410144fc:	0891011b          	addiw	x2,x2,137 # b9d5089 <pma_region_2_size+0x79d5089>
    41014500:	00c11113          	slli	x2,x2,0xc
    41014504:	fab10113          	addi	x2,x2,-85
    41014508:	00d11113          	slli	x2,x2,0xd
    4101450c:	37993fb7          	lui	x31,0x37993
    41014510:	35df8f9b          	addiw	x31,x31,861 # 3799335d <SID_ZICSR_14_stack+0x289ee35d>
    41014514:	010f9f93          	slli	x31,x31,0x10
    41014518:	0a0f8f93          	addi	x31,x31,160
    4101451c:	00500f13          	li	x30,5
    41014520:	01efb023          	sd	x30,0(x31)
    41014524:	000f0fb7          	lui	x31,0xf0
    41014528:	001f8f9b          	addiw	x31,x31,1 # f0001 <pma_region_0_size+0xb0001>
    4101452c:	00cf9f93          	slli	x31,x31,0xc
    41014530:	005f8f93          	addi	x31,x31,5
    41014534:	00000073          	ecall
    41014538:	00713023          	sd	x7,0(x2)
    4101453c:	001f5137          	lui	x2,0x1f5
    41014540:	85f1011b          	addiw	x2,x2,-1953 # 1f485f <pma_region_0_size+0x1b485f>
    41014544:	00e11113          	slli	x2,x2,0xe
    41014548:	0a510113          	addi	x2,x2,165
    4101454c:	00c11113          	slli	x2,x2,0xc
    41014550:	000012b7          	lui	x5,0x1
    41014554:	00510133          	add	x2,x2,x5
    41014558:	ff017113          	andi	x2,x2,-16
    4101455c:	fff00313          	li	x6,-1
    41014560:	141339f3          	csrrc	x19,sepc,x6
    41014564:	0b9d5137          	lui	x2,0xb9d5
    41014568:	0891011b          	addiw	x2,x2,137 # b9d5089 <pma_region_2_size+0x79d5089>
    4101456c:	00c11113          	slli	x2,x2,0xc
    41014570:	fab10113          	addi	x2,x2,-85
    41014574:	00d11113          	slli	x2,x2,0xd
    41014578:	00013383          	ld	x7,0(x2)
    4101457c:	37993fb7          	lui	x31,0x37993
    41014580:	35df8f9b          	addiw	x31,x31,861 # 3799335d <SID_ZICSR_14_stack+0x289ee35d>
    41014584:	010f9f93          	slli	x31,x31,0x10
    41014588:	0a0f8f93          	addi	x31,x31,160
    4101458c:	00600f13          	li	x30,6
    41014590:	01efb023          	sd	x30,0(x31)
    41014594:	000f0fb7          	lui	x31,0xf0
    41014598:	001f8f9b          	addiw	x31,x31,1 # f0001 <pma_region_0_size+0xb0001>
    4101459c:	00cf9f93          	slli	x31,x31,0xc
    410145a0:	005f8f93          	addi	x31,x31,5
    410145a4:	00000073          	ecall

00000000410145a8 <SID_ZICSR_06_passed>:
    410145a8:	00f00f9b          	addiw	x31,x0,15
    410145ac:	01cf9f93          	slli	x31,x31,0x1c
    410145b0:	001f8f93          	addi	x31,x31,1
    410145b4:	00000073          	ecall

00000000410145b8 <SID_ZICSR_07>:
    410145b8:	0b9d5137          	lui	x2,0xb9d5
    410145bc:	0891011b          	addiw	x2,x2,137 # b9d5089 <pma_region_2_size+0x79d5089>
    410145c0:	00c11113          	slli	x2,x2,0xc
    410145c4:	fab10113          	addi	x2,x2,-85
    410145c8:	00d11113          	slli	x2,x2,0xd
    410145cc:	37993fb7          	lui	x31,0x37993
    410145d0:	35df8f9b          	addiw	x31,x31,861 # 3799335d <SID_ZICSR_14_stack+0x289ee35d>
    410145d4:	010f9f93          	slli	x31,x31,0x10
    410145d8:	0a0f8f93          	addi	x31,x31,160
    410145dc:	00100f13          	li	x30,1
    410145e0:	01efb023          	sd	x30,0(x31)
    410145e4:	000f0fb7          	lui	x31,0xf0
    410145e8:	001f8f9b          	addiw	x31,x31,1 # f0001 <pma_region_0_size+0xb0001>
    410145ec:	00cf9f93          	slli	x31,x31,0xc
    410145f0:	005f8f93          	addi	x31,x31,5
    410145f4:	00000073          	ecall
    410145f8:	00713023          	sd	x7,0(x2)
    410145fc:	0b90b137          	lui	x2,0xb90b
    41014600:	5b51011b          	addiw	x2,x2,1461 # b90b5b5 <pma_region_2_size+0x790b5b5>
    41014604:	00c11113          	slli	x2,x2,0xc
    41014608:	000012b7          	lui	x5,0x1
    4101460c:	00510133          	add	x2,x2,x5
    41014610:	ff017113          	andi	x2,x2,-16
    41014614:	00000c93          	li	x25,0
    41014618:	10acbff3          	csrrc	x31,0x10a,x25
    4101461c:	0b9d5137          	lui	x2,0xb9d5
    41014620:	0891011b          	addiw	x2,x2,137 # b9d5089 <pma_region_2_size+0x79d5089>
    41014624:	00c11113          	slli	x2,x2,0xc
    41014628:	fab10113          	addi	x2,x2,-85
    4101462c:	00d11113          	slli	x2,x2,0xd
    41014630:	00013383          	ld	x7,0(x2)
    41014634:	37993fb7          	lui	x31,0x37993
    41014638:	35df8f9b          	addiw	x31,x31,861 # 3799335d <SID_ZICSR_14_stack+0x289ee35d>
    4101463c:	010f9f93          	slli	x31,x31,0x10
    41014640:	0a0f8f93          	addi	x31,x31,160
    41014644:	00200f13          	li	x30,2
    41014648:	01efb023          	sd	x30,0(x31)
    4101464c:	000f0fb7          	lui	x31,0xf0
    41014650:	001f8f9b          	addiw	x31,x31,1 # f0001 <pma_region_0_size+0xb0001>
    41014654:	00cf9f93          	slli	x31,x31,0xc
    41014658:	005f8f93          	addi	x31,x31,5
    4101465c:	00000073          	ecall

0000000041014660 <SID_ZICSR_07_passed>:
    41014660:	00f00f9b          	addiw	x31,x0,15
    41014664:	01cf9f93          	slli	x31,x31,0x1c
    41014668:	001f8f93          	addi	x31,x31,1
    4101466c:	00000073          	ecall

0000000041014670 <SID_ZICSR_08>:
    41014670:	0b9d5137          	lui	x2,0xb9d5
    41014674:	0891011b          	addiw	x2,x2,137 # b9d5089 <pma_region_2_size+0x79d5089>
    41014678:	00c11113          	slli	x2,x2,0xc
    4101467c:	fab10113          	addi	x2,x2,-85
    41014680:	00d11113          	slli	x2,x2,0xd
    41014684:	37993fb7          	lui	x31,0x37993
    41014688:	35df8f9b          	addiw	x31,x31,861 # 3799335d <SID_ZICSR_14_stack+0x289ee35d>
    4101468c:	010f9f93          	slli	x31,x31,0x10
    41014690:	0a0f8f93          	addi	x31,x31,160
    41014694:	00100f13          	li	x30,1
    41014698:	01efb023          	sd	x30,0(x31)
    4101469c:	000f0fb7          	lui	x31,0xf0
    410146a0:	001f8f9b          	addiw	x31,x31,1 # f0001 <pma_region_0_size+0xb0001>
    410146a4:	00cf9f93          	slli	x31,x31,0xc
    410146a8:	005f8f93          	addi	x31,x31,5
    410146ac:	00000073          	ecall
    410146b0:	00713023          	sd	x7,0(x2)
    410146b4:	03b2b137          	lui	x2,0x3b2b
    410146b8:	000012b7          	lui	x5,0x1
    410146bc:	00510133          	add	x2,x2,x5
    410146c0:	ff017113          	andi	x2,x2,-16
    410146c4:	10afd373          	csrrwi	x6,0x10a,31
    410146c8:	0b9d5137          	lui	x2,0xb9d5
    410146cc:	0891011b          	addiw	x2,x2,137 # b9d5089 <pma_region_2_size+0x79d5089>
    410146d0:	00c11113          	slli	x2,x2,0xc
    410146d4:	fab10113          	addi	x2,x2,-85
    410146d8:	00d11113          	slli	x2,x2,0xd
    410146dc:	00013383          	ld	x7,0(x2)
    410146e0:	37993fb7          	lui	x31,0x37993
    410146e4:	35df8f9b          	addiw	x31,x31,861 # 3799335d <SID_ZICSR_14_stack+0x289ee35d>
    410146e8:	010f9f93          	slli	x31,x31,0x10
    410146ec:	0a0f8f93          	addi	x31,x31,160
    410146f0:	00200f13          	li	x30,2
    410146f4:	01efb023          	sd	x30,0(x31)
    410146f8:	000f0fb7          	lui	x31,0xf0
    410146fc:	001f8f9b          	addiw	x31,x31,1 # f0001 <pma_region_0_size+0xb0001>
    41014700:	00cf9f93          	slli	x31,x31,0xc
    41014704:	005f8f93          	addi	x31,x31,5
    41014708:	00000073          	ecall

000000004101470c <SID_ZICSR_08_passed>:
    4101470c:	00f00f9b          	addiw	x31,x0,15
    41014710:	01cf9f93          	slli	x31,x31,0x1c
    41014714:	001f8f93          	addi	x31,x31,1
    41014718:	00000073          	ecall

000000004101471c <SID_ZICSR_09>:
    4101471c:	0b9d5137          	lui	x2,0xb9d5
    41014720:	0891011b          	addiw	x2,x2,137 # b9d5089 <pma_region_2_size+0x79d5089>
    41014724:	00c11113          	slli	x2,x2,0xc
    41014728:	fab10113          	addi	x2,x2,-85
    4101472c:	00d11113          	slli	x2,x2,0xd
    41014730:	37993fb7          	lui	x31,0x37993
    41014734:	35df8f9b          	addiw	x31,x31,861 # 3799335d <SID_ZICSR_14_stack+0x289ee35d>
    41014738:	010f9f93          	slli	x31,x31,0x10
    4101473c:	0a0f8f93          	addi	x31,x31,160
    41014740:	00900f13          	li	x30,9
    41014744:	01efb023          	sd	x30,0(x31)
    41014748:	000f0fb7          	lui	x31,0xf0
    4101474c:	001f8f9b          	addiw	x31,x31,1 # f0001 <pma_region_0_size+0xb0001>
    41014750:	00cf9f93          	slli	x31,x31,0xc
    41014754:	005f8f93          	addi	x31,x31,5
    41014758:	00000073          	ecall
    4101475c:	00713023          	sd	x7,0(x2)
    41014760:	001d4137          	lui	x2,0x1d4
    41014764:	5291011b          	addiw	x2,x2,1321 # 1d4529 <pma_region_0_size+0x194529>
    41014768:	00c11113          	slli	x2,x2,0xc
    4101476c:	50510113          	addi	x2,x2,1285
    41014770:	00d11113          	slli	x2,x2,0xd
    41014774:	000012b7          	lui	x5,0x1
    41014778:	00510133          	add	x2,x2,x5
    4101477c:	ff017113          	andi	x2,x2,-16
    41014780:	143fda73          	csrrwi	x20,stval,31
    41014784:	0b9d5137          	lui	x2,0xb9d5
    41014788:	0891011b          	addiw	x2,x2,137 # b9d5089 <pma_region_2_size+0x79d5089>
    4101478c:	00c11113          	slli	x2,x2,0xc
    41014790:	fab10113          	addi	x2,x2,-85
    41014794:	00d11113          	slli	x2,x2,0xd
    41014798:	00013383          	ld	x7,0(x2)
    4101479c:	37993fb7          	lui	x31,0x37993
    410147a0:	35df8f9b          	addiw	x31,x31,861 # 3799335d <SID_ZICSR_14_stack+0x289ee35d>
    410147a4:	010f9f93          	slli	x31,x31,0x10
    410147a8:	0a0f8f93          	addi	x31,x31,160
    410147ac:	00a00f13          	li	x30,10
    410147b0:	01efb023          	sd	x30,0(x31)
    410147b4:	000f0fb7          	lui	x31,0xf0
    410147b8:	001f8f9b          	addiw	x31,x31,1 # f0001 <pma_region_0_size+0xb0001>
    410147bc:	00cf9f93          	slli	x31,x31,0xc
    410147c0:	005f8f93          	addi	x31,x31,5
    410147c4:	00000073          	ecall

00000000410147c8 <SID_ZICSR_09_passed>:
    410147c8:	00f00f9b          	addiw	x31,x0,15
    410147cc:	01cf9f93          	slli	x31,x31,0x1c
    410147d0:	001f8f93          	addi	x31,x31,1
    410147d4:	00000073          	ecall

00000000410147d8 <SID_ZICSR_10>:
    410147d8:	009cf137          	lui	x2,0x9cf
    410147dc:	7951011b          	addiw	x2,x2,1941 # 9cf795 <pma_region_0_size+0x98f795>
    410147e0:	00c11113          	slli	x2,x2,0xc
    410147e4:	13b10113          	addi	x2,x2,315
    410147e8:	00c11113          	slli	x2,x2,0xc
    410147ec:	000012b7          	lui	x5,0x1
    410147f0:	00510133          	add	x2,x2,x5
    410147f4:	ff017113          	andi	x2,x2,-16
    410147f8:	14005ef3          	csrrwi	x29,sscratch,0

00000000410147fc <SID_ZICSR_10_passed>:
    410147fc:	00f00f9b          	addiw	x31,x0,15
    41014800:	01cf9f93          	slli	x31,x31,0x1c
    41014804:	001f8f93          	addi	x31,x31,1
    41014808:	00000073          	ecall

000000004101480c <SID_ZICSR_11>:
    4101480c:	00096137          	lui	x2,0x96
    41014810:	be51011b          	addiw	x2,x2,-1051 # 95be5 <pma_region_0_size+0x55be5>
    41014814:	00d11113          	slli	x2,x2,0xd
    41014818:	ca910113          	addi	x2,x2,-855
    4101481c:	00f11113          	slli	x2,x2,0xf
    41014820:	000012b7          	lui	x5,0x1
    41014824:	00510133          	add	x2,x2,x5
    41014828:	ff017113          	andi	x2,x2,-16
    4101482c:	10a056f3          	csrrwi	x13,0x10a,0

0000000041014830 <SID_ZICSR_11_passed>:
    41014830:	00f00f9b          	addiw	x31,x0,15
    41014834:	01cf9f93          	slli	x31,x31,0x1c
    41014838:	001f8f93          	addi	x31,x31,1
    4101483c:	00000073          	ecall

0000000041014840 <SID_ZICSR_12>:
    41014840:	0b9d5137          	lui	x2,0xb9d5
    41014844:	0891011b          	addiw	x2,x2,137 # b9d5089 <pma_region_2_size+0x79d5089>
    41014848:	00c11113          	slli	x2,x2,0xc
    4101484c:	fab10113          	addi	x2,x2,-85
    41014850:	00d11113          	slli	x2,x2,0xd
    41014854:	37993fb7          	lui	x31,0x37993
    41014858:	35df8f9b          	addiw	x31,x31,861 # 3799335d <SID_ZICSR_14_stack+0x289ee35d>
    4101485c:	010f9f93          	slli	x31,x31,0x10
    41014860:	0a0f8f93          	addi	x31,x31,160
    41014864:	01300f13          	li	x30,19
    41014868:	01efb023          	sd	x30,0(x31)
    4101486c:	000f0fb7          	lui	x31,0xf0
    41014870:	001f8f9b          	addiw	x31,x31,1 # f0001 <pma_region_0_size+0xb0001>
    41014874:	00cf9f93          	slli	x31,x31,0xc
    41014878:	005f8f93          	addi	x31,x31,5
    4101487c:	00000073          	ecall
    41014880:	00713023          	sd	x7,0(x2)
    41014884:	03153137          	lui	x2,0x3153
    41014888:	000012b7          	lui	x5,0x1
    4101488c:	00510133          	add	x2,x2,x5
    41014890:	ff017113          	andi	x2,x2,-16
    41014894:	142fe4f3          	csrrsi	x9,scause,31
    41014898:	0b9d5137          	lui	x2,0xb9d5
    4101489c:	0891011b          	addiw	x2,x2,137 # b9d5089 <pma_region_2_size+0x79d5089>
    410148a0:	00c11113          	slli	x2,x2,0xc
    410148a4:	fab10113          	addi	x2,x2,-85
    410148a8:	00d11113          	slli	x2,x2,0xd
    410148ac:	00013383          	ld	x7,0(x2)
    410148b0:	37993fb7          	lui	x31,0x37993
    410148b4:	35df8f9b          	addiw	x31,x31,861 # 3799335d <SID_ZICSR_14_stack+0x289ee35d>
    410148b8:	010f9f93          	slli	x31,x31,0x10
    410148bc:	0a0f8f93          	addi	x31,x31,160
    410148c0:	01400f13          	li	x30,20
    410148c4:	01efb023          	sd	x30,0(x31)
    410148c8:	000f0fb7          	lui	x31,0xf0
    410148cc:	001f8f9b          	addiw	x31,x31,1 # f0001 <pma_region_0_size+0xb0001>
    410148d0:	00cf9f93          	slli	x31,x31,0xc
    410148d4:	005f8f93          	addi	x31,x31,5
    410148d8:	00000073          	ecall

00000000410148dc <SID_ZICSR_12_passed>:
    410148dc:	00f00f9b          	addiw	x31,x0,15
    410148e0:	01cf9f93          	slli	x31,x31,0x1c
    410148e4:	001f8f93          	addi	x31,x31,1
    410148e8:	00000073          	ecall

00000000410148ec <SID_ZICSR_13>:
    410148ec:	00021137          	lui	x2,0x21
    410148f0:	000012b7          	lui	x5,0x1
    410148f4:	00510133          	add	x2,x2,x5
    410148f8:	ff017113          	andi	x2,x2,-16
    410148fc:	14306373          	csrrsi	x6,stval,0

0000000041014900 <SID_ZICSR_13_passed>:
    41014900:	00f00f9b          	addiw	x31,x0,15
    41014904:	01cf9f93          	slli	x31,x31,0x1c
    41014908:	001f8f93          	addi	x31,x31,1
    4101490c:	00000073          	ecall

0000000041014910 <SID_ZICSR_14>:
    41014910:	0b9d5137          	lui	x2,0xb9d5
    41014914:	0891011b          	addiw	x2,x2,137 # b9d5089 <pma_region_2_size+0x79d5089>
    41014918:	00c11113          	slli	x2,x2,0xc
    4101491c:	fab10113          	addi	x2,x2,-85
    41014920:	00d11113          	slli	x2,x2,0xd
    41014924:	37993fb7          	lui	x31,0x37993
    41014928:	35df8f9b          	addiw	x31,x31,861 # 3799335d <SID_ZICSR_14_stack+0x289ee35d>
    4101492c:	010f9f93          	slli	x31,x31,0x10
    41014930:	0a0f8f93          	addi	x31,x31,160
    41014934:	00300f13          	li	x30,3
    41014938:	01efb023          	sd	x30,0(x31)
    4101493c:	000f0fb7          	lui	x31,0xf0
    41014940:	001f8f9b          	addiw	x31,x31,1 # f0001 <pma_region_0_size+0xb0001>
    41014944:	00cf9f93          	slli	x31,x31,0xc
    41014948:	005f8f93          	addi	x31,x31,5
    4101494c:	00000073          	ecall
    41014950:	00713023          	sd	x7,0(x2)
    41014954:	0efa5137          	lui	x2,0xefa5
    41014958:	000012b7          	lui	x5,0x1
    4101495c:	00510133          	add	x2,x2,x5
    41014960:	ff017113          	andi	x2,x2,-16
    41014964:	105ff373          	csrrci	x6,stvec,31
    41014968:	0b9d5137          	lui	x2,0xb9d5
    4101496c:	0891011b          	addiw	x2,x2,137 # b9d5089 <pma_region_2_size+0x79d5089>
    41014970:	00c11113          	slli	x2,x2,0xc
    41014974:	fab10113          	addi	x2,x2,-85
    41014978:	00d11113          	slli	x2,x2,0xd
    4101497c:	00013383          	ld	x7,0(x2)
    41014980:	37993fb7          	lui	x31,0x37993
    41014984:	35df8f9b          	addiw	x31,x31,861 # 3799335d <SID_ZICSR_14_stack+0x289ee35d>
    41014988:	010f9f93          	slli	x31,x31,0x10
    4101498c:	0a0f8f93          	addi	x31,x31,160
    41014990:	00400f13          	li	x30,4
    41014994:	01efb023          	sd	x30,0(x31)
    41014998:	000f0fb7          	lui	x31,0xf0
    4101499c:	001f8f9b          	addiw	x31,x31,1 # f0001 <pma_region_0_size+0xb0001>
    410149a0:	00cf9f93          	slli	x31,x31,0xc
    410149a4:	005f8f93          	addi	x31,x31,5
    410149a8:	00000073          	ecall

00000000410149ac <SID_ZICSR_14_passed>:
    410149ac:	00f00f9b          	addiw	x31,x0,15
    410149b0:	01cf9f93          	slli	x31,x31,0x1c
    410149b4:	001f8f93          	addi	x31,x31,1
    410149b8:	00000073          	ecall

00000000410149bc <SID_ZICSR_15>:
    410149bc:	0223a137          	lui	x2,0x223a
    410149c0:	ce31011b          	addiw	x2,x2,-797 # 2239ce3 <SID_ZICSR_19_stack+0xc82ce3>
    410149c4:	00c11113          	slli	x2,x2,0xc
    410149c8:	000012b7          	lui	x5,0x1
    410149cc:	00510133          	add	x2,x2,x5
    410149d0:	ff017113          	andi	x2,x2,-16
    410149d4:	14107bf3          	csrrci	x23,sepc,0

00000000410149d8 <SID_ZICSR_15_passed>:
    410149d8:	00f00f9b          	addiw	x31,x0,15
    410149dc:	01cf9f93          	slli	x31,x31,0x1c
    410149e0:	001f8f93          	addi	x31,x31,1
    410149e4:	00000073          	ecall

00000000410149e8 <SID_ZICSR_16>:
    410149e8:	00058137          	lui	x2,0x58
    410149ec:	7bb1011b          	addiw	x2,x2,1979 # 587bb <pma_region_0_size+0x187bb>
    410149f0:	00d11113          	slli	x2,x2,0xd
    410149f4:	000012b7          	lui	x5,0x1
    410149f8:	00510133          	add	x2,x2,x5
    410149fc:	ff017113          	andi	x2,x2,-16
    41014a00:	3b1a17b7          	lui	x15,0x3b1a1
    41014a04:	1e27879b          	addiw	x15,x15,482 # 3b1a11e2 <SID_ZICSR_14_stack+0x2c1fc1e2>
    41014a08:	43b78813          	addi	x16,x15,1083
    41014a0c:	10501d73          	csrrw	x26,stvec,x0
    41014a10:	000adbb7          	lui	x23,0xad
    41014a14:	45fb8b9b          	addiw	x23,x23,1119 # ad45f <pma_region_0_size+0x6d45f>
    41014a18:	00cb9b93          	slli	x23,x23,0xc
    41014a1c:	240b8b93          	addi	x23,x23,576
    41014a20:	38021cb7          	lui	x25,0x38021
    41014a24:	8acc8c9b          	addiw	x25,x25,-1876 # 380208ac <SID_ZICSR_14_stack+0x2907b8ac>
    41014a28:	039baa33          	mulhsu	x20,x23,x25
    41014a2c:	10a02f73          	csrr	x30,0x10a
    41014a30:	000183b7          	lui	x7,0x18
    41014a34:	59b3839b          	addiw	x7,x7,1435 # 1859b <__section_data_1+0xf59b>
    41014a38:	00f39393          	slli	x7,x7,0xf
    41014a3c:	89d38393          	addi	x7,x7,-1891
    41014a40:	75a89e37          	lui	x28,0x75a89
    41014a44:	297e0e1b          	addiw	x28,x28,663 # 75a89297 <pma_region_2_end+0x30a48297>
    41014a48:	000f4737          	lui	x14,0xf4
    41014a4c:	c657071b          	addiw	x14,x14,-923 # f3c65 <pma_region_0_size+0xb3c65>
    41014a50:	00c71713          	slli	x14,x14,0xc
    41014a54:	afa70713          	addi	x14,x14,-1286
    41014a58:	d233fc53          	fcvt.d.lu	f24,x7
    41014a5c:	d20e0dd3          	fcvt.d.w	f27,x28
    41014a60:	d02776d3          	fcvt.s.l	f13,x14
    41014a64:	6bbc77cf          	fnmadd.d	f15,f24,f27,f13
    41014a68:	14103a73          	csrrc	x20,sepc,x0
    41014a6c:	4a2f2637          	lui	x12,0x4a2f2
    41014a70:	0ad6061b          	addiw	x12,x12,173 # 4a2f20ad <pma_region_2_end+0x52b10ad>
    41014a74:	000edc37          	lui	x24,0xed
    41014a78:	2f9c0c1b          	addiw	x24,x24,761 # ed2f9 <pma_region_0_size+0xad2f9>
    41014a7c:	00cc1c13          	slli	x24,x24,0xc
    41014a80:	9dcc0c13          	addi	x24,x24,-1572
    41014a84:	d2367a53          	fcvt.d.lu	f20,x12
    41014a88:	d03c76d3          	fcvt.s.lu	f13,x24
    41014a8c:	00da7e53          	fadd.s	f28,f20,f13
    41014a90:	10605673          	csrrwi	x12,scounteren,0
    41014a94:	05806e37          	lui	x28,0x5806
    41014a98:	978e0e1b          	addiw	x28,x28,-1672 # 5805978 <pma_region_2_size+0x1805978>
    41014a9c:	6a8acc37          	lui	x24,0x6a8ac
    41014aa0:	4bdc0c1b          	addiw	x24,x24,1213 # 6a8ac4bd <pma_region_2_end+0x2586b4bd>
    41014aa4:	d00e7653          	fcvt.s.w	f12,x28
    41014aa8:	d21c01d3          	fcvt.d.wu	f3,x24
    41014aac:	103679d3          	fmul.s	f19,f12,f3
    41014ab0:	10a06773          	csrrsi	x14,0x10a,0
    41014ab4:	0001bd37          	lui	x26,0x1b
    41014ab8:	cd7d0d1b          	addiw	x26,x26,-809 # 1acd7 <__section_data_1+0x11cd7>
    41014abc:	00fd1d13          	slli	x26,x26,0xf
    41014ac0:	2a1d0d13          	addi	x26,x26,673
    41014ac4:	000eb537          	lui	x10,0xeb
    41014ac8:	90b5051b          	addiw	x10,x10,-1781 # ea90b <pma_region_0_size+0xaa90b>
    41014acc:	00c51513          	slli	x10,x10,0xc
    41014ad0:	8f350513          	addi	x10,x10,-1805
    41014ad4:	02ad2d33          	mulhsu	x26,x26,x10
    41014ad8:	142078f3          	csrrci	x17,scause,0
    41014adc:	0008ef37          	lui	x30,0x8e
    41014ae0:	73df0f1b          	addiw	x30,x30,1853 # 8e73d <pma_region_0_size+0x4e73d>
    41014ae4:	00cf1f13          	slli	x30,x30,0xc
    41014ae8:	a4af0f13          	addi	x30,x30,-1462
    41014aec:	000ec7b7          	lui	x15,0xec
    41014af0:	1497879b          	addiw	x15,x15,329 # ec149 <pma_region_0_size+0xac149>
    41014af4:	00c79793          	slli	x15,x15,0xc
    41014af8:	cb778793          	addi	x15,x15,-841
    41014afc:	0aff3fb3          	clmulh	x31,x30,x15

0000000041014b00 <SID_ZICSR_16_passed>:
    41014b00:	00f00f9b          	addiw	x31,x0,15
    41014b04:	01cf9f93          	slli	x31,x31,0x1c
    41014b08:	001f8f93          	addi	x31,x31,1
    41014b0c:	00000073          	ecall

0000000041014b10 <SID_ZICSR_17>:
    41014b10:	063eb137          	lui	x2,0x63eb
    41014b14:	ecf1011b          	addiw	x2,x2,-305 # 63eaecf <pma_region_2_size+0x23eaecf>
    41014b18:	00c11113          	slli	x2,x2,0xc
    41014b1c:	000012b7          	lui	x5,0x1
    41014b20:	00510133          	add	x2,x2,x5
    41014b24:	ff017113          	andi	x2,x2,-16
    41014b28:	14101cf3          	csrrw	x25,sepc,x0
    41014b2c:	14301373          	csrrw	x6,stval,x0
    41014b30:	10501373          	csrrw	x6,stvec,x0
    41014b34:	10502773          	csrr	x14,stvec
    41014b38:	10501ef3          	csrrw	x29,stvec,x0
    41014b3c:	14203673          	csrrc	x12,scause,x0
    41014b40:	14301df3          	csrrw	x27,stval,x0
    41014b44:	10a05f73          	csrrwi	x30,0x10a,0
    41014b48:	142016f3          	csrrw	x13,scause,x0
    41014b4c:	140064f3          	csrrsi	x9,sscratch,0
    41014b50:	142014f3          	csrrw	x9,scause,x0
    41014b54:	10a07cf3          	csrrci	x25,0x10a,0
    41014b58:	14102cf3          	csrr	x25,sepc
    41014b5c:	106019f3          	csrrw	x19,scounteren,x0
    41014b60:	14002473          	csrr	x8,sscratch
    41014b64:	106026f3          	csrr	x13,scounteren
    41014b68:	141025f3          	csrr	x11,sepc
    41014b6c:	105037f3          	csrrc	x15,stvec,x0
    41014b70:	143023f3          	csrr	x7,stval
    41014b74:	10605ef3          	csrrwi	x29,scounteren,0
    41014b78:	10602573          	csrr	x10,scounteren
    41014b7c:	10a06ef3          	csrrsi	x29,0x10a,0
    41014b80:	10602573          	csrr	x10,scounteren
    41014b84:	14107d73          	csrrci	x26,sepc,0
    41014b88:	10a03c73          	csrrc	x24,0x10a,x0
    41014b8c:	14201ff3          	csrrw	x31,scause,x0
    41014b90:	14303a73          	csrrc	x20,stval,x0
    41014b94:	10a02a73          	csrr	x20,0x10a
    41014b98:	140033f3          	csrrc	x7,sscratch,x0
    41014b9c:	14303bf3          	csrrc	x23,stval,x0
    41014ba0:	105034f3          	csrrc	x9,stvec,x0
    41014ba4:	14005df3          	csrrwi	x27,sscratch,0
    41014ba8:	14103973          	csrrc	x18,sepc,x0
    41014bac:	10606373          	csrrsi	x6,scounteren,0
    41014bb0:	14003773          	csrrc	x14,sscratch,x0
    41014bb4:	142079f3          	csrrci	x19,scause,0
    41014bb8:	10505ff3          	csrrwi	x31,stvec,0
    41014bbc:	14101673          	csrrw	x12,sepc,x0
    41014bc0:	10a05373          	csrrwi	x6,0x10a,0
    41014bc4:	10a026f3          	csrr	x13,0x10a
    41014bc8:	10a05773          	csrrwi	x14,0x10a,0
    41014bcc:	14203673          	csrrc	x12,scause,x0
    41014bd0:	142057f3          	csrrwi	x15,scause,0
    41014bd4:	10a053f3          	csrrwi	x7,0x10a,0
    41014bd8:	10605773          	csrrwi	x14,scounteren,0
    41014bdc:	10606573          	csrrsi	x10,scounteren,0
    41014be0:	10a05df3          	csrrwi	x27,0x10a,0
    41014be4:	10607973          	csrrci	x18,scounteren,0
    41014be8:	14106b73          	csrrsi	x22,sepc,0
    41014bec:	14101873          	csrrw	x16,sepc,x0
    41014bf0:	10506c73          	csrrsi	x24,stvec,0
    41014bf4:	105029f3          	csrr	x19,stvec
    41014bf8:	10a06bf3          	csrrsi	x23,0x10a,0
    41014bfc:	143036f3          	csrrc	x13,stval,x0
    41014c00:	140066f3          	csrrsi	x13,sscratch,0
    41014c04:	142055f3          	csrrwi	x11,scause,0
    41014c08:	14106a73          	csrrsi	x20,sepc,0
    41014c0c:	10606f73          	csrrsi	x30,scounteren,0
    41014c10:	10a06ff3          	csrrsi	x31,0x10a,0
    41014c14:	10507a73          	csrrci	x20,stvec,0
    41014c18:	10a07b73          	csrrci	x22,0x10a,0
    41014c1c:	14001d73          	csrrw	x26,sscratch,x0
    41014c20:	10a076f3          	csrrci	x13,0x10a,0
    41014c24:	14302df3          	csrr	x27,stval
    41014c28:	105078f3          	csrrci	x17,stvec,0
    41014c2c:	10603673          	csrrc	x12,scounteren,x0
    41014c30:	10607af3          	csrrci	x21,scounteren,0
    41014c34:	14205c73          	csrrwi	x24,scause,0
    41014c38:	143074f3          	csrrci	x9,stval,0
    41014c3c:	14006cf3          	csrrsi	x25,sscratch,0
    41014c40:	14307c73          	csrrci	x24,stval,0
    41014c44:	105073f3          	csrrci	x7,stvec,0

0000000041014c48 <SID_ZICSR_17_passed>:
    41014c48:	00f00f9b          	addiw	x31,x0,15
    41014c4c:	01cf9f93          	slli	x31,x31,0x1c
    41014c50:	001f8f93          	addi	x31,x31,1
    41014c54:	00000073          	ecall

0000000041014c58 <SID_ZICSR_19>:
    41014c58:	0b9d5137          	lui	x2,0xb9d5
    41014c5c:	0891011b          	addiw	x2,x2,137 # b9d5089 <pma_region_2_size+0x79d5089>
    41014c60:	00c11113          	slli	x2,x2,0xc
    41014c64:	fab10113          	addi	x2,x2,-85
    41014c68:	00d11113          	slli	x2,x2,0xd
    41014c6c:	37993fb7          	lui	x31,0x37993
    41014c70:	35df8f9b          	addiw	x31,x31,861 # 3799335d <SID_ZICSR_14_stack+0x289ee35d>
    41014c74:	010f9f93          	slli	x31,x31,0x10
    41014c78:	0a0f8f93          	addi	x31,x31,160
    41014c7c:	01700f13          	li	x30,23
    41014c80:	01efb023          	sd	x30,0(x31)
    41014c84:	000f0fb7          	lui	x31,0xf0
    41014c88:	001f8f9b          	addiw	x31,x31,1 # f0001 <pma_region_0_size+0xb0001>
    41014c8c:	00cf9f93          	slli	x31,x31,0xc
    41014c90:	005f8f93          	addi	x31,x31,5
    41014c94:	00000073          	ecall
    41014c98:	00713023          	sd	x7,0(x2)
    41014c9c:	015b7137          	lui	x2,0x15b7
    41014ca0:	000012b7          	lui	x5,0x1
    41014ca4:	00510133          	add	x2,x2,x5
    41014ca8:	ff017113          	andi	x2,x2,-16
    41014cac:	fff00a13          	li	x20,-1
    41014cb0:	00000e93          	li	x29,0
    41014cb4:	01f00b93          	li	x23,31
    41014cb8:	140a1f73          	csrrw	x30,sscratch,x20
    41014cbc:	140029f3          	csrr	x19,sscratch
    41014cc0:	01498e63          	beq	x19,x20,41014cdc <pass_label_0>
    41014cc4:	37993d37          	lui	x26,0x37993
    41014cc8:	35dd0d1b          	addiw	x26,x26,861 # 3799335d <SID_ZICSR_14_stack+0x289ee35d>
    41014ccc:	010d1d13          	slli	x26,x26,0x10
    41014cd0:	008d0d13          	addi	x26,x26,8
    41014cd4:	000d3683          	ld	x13,0(x26)
    41014cd8:	00068067          	jr	x13

0000000041014cdc <pass_label_0>:
    41014cdc:	00000993          	li	x19,0
    41014ce0:	140999f3          	csrrw	x19,sscratch,x19
    41014ce4:	14002df3          	csrr	x27,sscratch
    41014ce8:	01dd8e63          	beq	x27,x29,41014d04 <pass_label_1>
    41014cec:	37993c37          	lui	x24,0x37993
    41014cf0:	35dc0c1b          	addiw	x24,x24,861 # 3799335d <SID_ZICSR_14_stack+0x289ee35d>
    41014cf4:	010c1c13          	slli	x24,x24,0x10
    41014cf8:	008c0c13          	addi	x24,x24,8
    41014cfc:	000c3703          	ld	x14,0(x24)
    41014d00:	00070067          	jr	x14

0000000041014d04 <pass_label_1>:
    41014d04:	140a2f73          	csrrs	x30,sscratch,x20
    41014d08:	14002c73          	csrr	x24,sscratch
    41014d0c:	014c0e63          	beq	x24,x20,41014d28 <pass_label_2>
    41014d10:	37993337          	lui	x6,0x37993
    41014d14:	35d3031b          	addiw	x6,x6,861 # 3799335d <SID_ZICSR_14_stack+0x289ee35d>
    41014d18:	01031313          	slli	x6,x6,0x10
    41014d1c:	00830313          	addi	x6,x6,8
    41014d20:	00033c83          	ld	x25,0(x6)
    41014d24:	000c8067          	jr	x25

0000000041014d28 <pass_label_2>:
    41014d28:	140a3373          	csrrc	x6,sscratch,x20
    41014d2c:	14002773          	csrr	x14,sscratch
    41014d30:	01d70e63          	beq	x14,x29,41014d4c <pass_label_3>
    41014d34:	37993ab7          	lui	x21,0x37993
    41014d38:	35da8a9b          	addiw	x21,x21,861 # 3799335d <SID_ZICSR_14_stack+0x289ee35d>
    41014d3c:	010a9a93          	slli	x21,x21,0x10
    41014d40:	008a8a93          	addi	x21,x21,8
    41014d44:	000ab303          	ld	x6,0(x21)
    41014d48:	00030067          	jr	x6

0000000041014d4c <pass_label_3>:
    41014d4c:	140fda73          	csrrwi	x20,sscratch,31
    41014d50:	14002d73          	csrr	x26,sscratch
    41014d54:	017d0e63          	beq	x26,x23,41014d70 <pass_label_4>
    41014d58:	37993437          	lui	x8,0x37993
    41014d5c:	35d4041b          	addiw	x8,x8,861 # 3799335d <SID_ZICSR_14_stack+0x289ee35d>
    41014d60:	01041413          	slli	x8,x8,0x10
    41014d64:	00840413          	addi	x8,x8,8
    41014d68:	00043403          	ld	x8,0(x8)
    41014d6c:	00040067          	jr	x8

0000000041014d70 <pass_label_4>:
    41014d70:	14005b73          	csrrwi	x22,sscratch,0
    41014d74:	14002673          	csrr	x12,sscratch
    41014d78:	01d60e63          	beq	x12,x29,41014d94 <pass_label_5>
    41014d7c:	379938b7          	lui	x17,0x37993
    41014d80:	35d8889b          	addiw	x17,x17,861 # 3799335d <SID_ZICSR_14_stack+0x289ee35d>
    41014d84:	01089893          	slli	x17,x17,0x10
    41014d88:	00888893          	addi	x17,x17,8
    41014d8c:	0008b483          	ld	x9,0(x17)
    41014d90:	00048067          	jr	x9

0000000041014d94 <pass_label_5>:
    41014d94:	140fe9f3          	csrrsi	x19,sscratch,31
    41014d98:	140025f3          	csrr	x11,sscratch
    41014d9c:	01758e63          	beq	x11,x23,41014db8 <pass_label_6>
    41014da0:	379937b7          	lui	x15,0x37993
    41014da4:	35d7879b          	addiw	x15,x15,861 # 3799335d <SID_ZICSR_14_stack+0x289ee35d>
    41014da8:	01079793          	slli	x15,x15,0x10
    41014dac:	00878793          	addi	x15,x15,8
    41014db0:	0007bc03          	ld	x24,0(x15)
    41014db4:	000c0067          	jr	x24

0000000041014db8 <pass_label_6>:
    41014db8:	140ffcf3          	csrrci	x25,sscratch,31
    41014dbc:	14002c73          	csrr	x24,sscratch
    41014dc0:	01dc0e63          	beq	x24,x29,41014ddc <pass_label_7>
    41014dc4:	37993fb7          	lui	x31,0x37993
    41014dc8:	35df8f9b          	addiw	x31,x31,861 # 3799335d <SID_ZICSR_14_stack+0x289ee35d>
    41014dcc:	010f9f93          	slli	x31,x31,0x10
    41014dd0:	008f8f93          	addi	x31,x31,8
    41014dd4:	000fb403          	ld	x8,0(x31)
    41014dd8:	00040067          	jr	x8

0000000041014ddc <pass_label_7>:
    41014ddc:	0b9d5137          	lui	x2,0xb9d5
    41014de0:	0891011b          	addiw	x2,x2,137 # b9d5089 <pma_region_2_size+0x79d5089>
    41014de4:	00c11113          	slli	x2,x2,0xc
    41014de8:	fab10113          	addi	x2,x2,-85
    41014dec:	00d11113          	slli	x2,x2,0xd
    41014df0:	00013383          	ld	x7,0(x2)
    41014df4:	37993fb7          	lui	x31,0x37993
    41014df8:	35df8f9b          	addiw	x31,x31,861 # 3799335d <SID_ZICSR_14_stack+0x289ee35d>
    41014dfc:	010f9f93          	slli	x31,x31,0x10
    41014e00:	0a0f8f93          	addi	x31,x31,160
    41014e04:	01800f13          	li	x30,24
    41014e08:	01efb023          	sd	x30,0(x31)
    41014e0c:	000f0fb7          	lui	x31,0xf0
    41014e10:	001f8f9b          	addiw	x31,x31,1 # f0001 <pma_region_0_size+0xb0001>
    41014e14:	00cf9f93          	slli	x31,x31,0xc
    41014e18:	005f8f93          	addi	x31,x31,5
    41014e1c:	00000073          	ecall

0000000041014e20 <SID_ZICSR_19_passed>:
    41014e20:	00f00f9b          	addiw	x31,x0,15
    41014e24:	01cf9f93          	slli	x31,x31,0x1c
    41014e28:	001f8f93          	addi	x31,x31,1
    41014e2c:	00000073          	ecall

0000000041014e30 <SID_ZICSR_20>:
    41014e30:	0b9d5137          	lui	x2,0xb9d5
    41014e34:	0891011b          	addiw	x2,x2,137 # b9d5089 <pma_region_2_size+0x79d5089>
    41014e38:	00c11113          	slli	x2,x2,0xc
    41014e3c:	fab10113          	addi	x2,x2,-85
    41014e40:	00d11113          	slli	x2,x2,0xd
    41014e44:	37993fb7          	lui	x31,0x37993
    41014e48:	35df8f9b          	addiw	x31,x31,861 # 3799335d <SID_ZICSR_14_stack+0x289ee35d>
    41014e4c:	010f9f93          	slli	x31,x31,0x10
    41014e50:	0a0f8f93          	addi	x31,x31,160
    41014e54:	01900f13          	li	x30,25
    41014e58:	01efb023          	sd	x30,0(x31)
    41014e5c:	000f0fb7          	lui	x31,0xf0
    41014e60:	001f8f9b          	addiw	x31,x31,1 # f0001 <pma_region_0_size+0xb0001>
    41014e64:	00cf9f93          	slli	x31,x31,0xc
    41014e68:	005f8f93          	addi	x31,x31,5
    41014e6c:	00000073          	ecall
    41014e70:	00713023          	sd	x7,0(x2)
    41014e74:	00084137          	lui	x2,0x84
    41014e78:	15b1011b          	addiw	x2,x2,347 # 8415b <pma_region_0_size+0x4415b>
    41014e7c:	00c11113          	slli	x2,x2,0xc
    41014e80:	000012b7          	lui	x5,0x1
    41014e84:	00510133          	add	x2,x2,x5
    41014e88:	ff017113          	andi	x2,x2,-16
    41014e8c:	0ff00c13          	li	x24,255
    41014e90:	00000713          	li	x14,0
    41014e94:	01f00513          	li	x10,31
    41014e98:	0ff00313          	li	x6,255
    41014e9c:	003c1df3          	fscsr	x27,x24
    41014ea0:	00302473          	frcsr	x8
    41014ea4:	00647f33          	and	x30,x8,x6
    41014ea8:	018f0e63          	beq	x30,x24,41014ec4 <pass_label_8>
    41014eac:	37993837          	lui	x16,0x37993
    41014eb0:	35d8081b          	addiw	x16,x16,861 # 3799335d <SID_ZICSR_14_stack+0x289ee35d>
    41014eb4:	01081813          	slli	x16,x16,0x10
    41014eb8:	00880813          	addi	x16,x16,8
    41014ebc:	00083d83          	ld	x27,0(x16)
    41014ec0:	000d8067          	jr	x27

0000000041014ec4 <pass_label_8>:
    41014ec4:	00000d13          	li	x26,0
    41014ec8:	003d17f3          	fscsr	x15,x26
    41014ecc:	00302df3          	frcsr	x27
    41014ed0:	006df433          	and	x8,x27,x6
    41014ed4:	00e40e63          	beq	x8,x14,41014ef0 <pass_label_9>
    41014ed8:	379934b7          	lui	x9,0x37993
    41014edc:	35d4849b          	addiw	x9,x9,861 # 3799335d <SID_ZICSR_14_stack+0x289ee35d>
    41014ee0:	01049493          	slli	x9,x9,0x10
    41014ee4:	00848493          	addi	x9,x9,8
    41014ee8:	0004be03          	ld	x28,0(x9)
    41014eec:	000e0067          	jr	x28

0000000041014ef0 <pass_label_9>:
    41014ef0:	003c29f3          	csrrs	x19,fcsr,x24
    41014ef4:	00302ef3          	frcsr	x29
    41014ef8:	006ef6b3          	and	x13,x29,x6
    41014efc:	01868e63          	beq	x13,x24,41014f18 <pass_label_10>
    41014f00:	37993ab7          	lui	x21,0x37993
    41014f04:	35da8a9b          	addiw	x21,x21,861 # 3799335d <SID_ZICSR_14_stack+0x289ee35d>
    41014f08:	010a9a93          	slli	x21,x21,0x10
    41014f0c:	008a8a93          	addi	x21,x21,8
    41014f10:	000ab983          	ld	x19,0(x21)
    41014f14:	00098067          	jr	x19

0000000041014f18 <pass_label_10>:
    41014f18:	003c39f3          	csrrc	x19,fcsr,x24
    41014f1c:	003027f3          	frcsr	x15
    41014f20:	0067f6b3          	and	x13,x15,x6
    41014f24:	00e68e63          	beq	x13,x14,41014f40 <pass_label_11>
    41014f28:	37993b37          	lui	x22,0x37993
    41014f2c:	35db0b1b          	addiw	x22,x22,861 # 3799335d <SID_ZICSR_14_stack+0x289ee35d>
    41014f30:	010b1b13          	slli	x22,x22,0x10
    41014f34:	008b0b13          	addi	x22,x22,8
    41014f38:	000b3e03          	ld	x28,0(x22)
    41014f3c:	000e0067          	jr	x28

0000000041014f40 <pass_label_11>:
    41014f40:	003fd8f3          	csrrwi	x17,fcsr,31
    41014f44:	00302e73          	frcsr	x28
    41014f48:	006e7433          	and	x8,x28,x6
    41014f4c:	00a40e63          	beq	x8,x10,41014f68 <pass_label_12>
    41014f50:	37993837          	lui	x16,0x37993
    41014f54:	35d8081b          	addiw	x16,x16,861 # 3799335d <SID_ZICSR_14_stack+0x289ee35d>
    41014f58:	01081813          	slli	x16,x16,0x10
    41014f5c:	00880813          	addi	x16,x16,8
    41014f60:	00083783          	ld	x15,0(x16)
    41014f64:	00078067          	jr	x15

0000000041014f68 <pass_label_12>:
    41014f68:	003059f3          	csrrwi	x19,fcsr,0
    41014f6c:	003023f3          	frcsr	x7
    41014f70:	0063f4b3          	and	x9,x7,x6
    41014f74:	00e48e63          	beq	x9,x14,41014f90 <pass_label_13>
    41014f78:	379937b7          	lui	x15,0x37993
    41014f7c:	35d7879b          	addiw	x15,x15,861 # 3799335d <SID_ZICSR_14_stack+0x289ee35d>
    41014f80:	01079793          	slli	x15,x15,0x10
    41014f84:	00878793          	addi	x15,x15,8
    41014f88:	0007bc03          	ld	x24,0(x15)
    41014f8c:	000c0067          	jr	x24

0000000041014f90 <pass_label_13>:
    41014f90:	003fedf3          	csrrsi	x27,fcsr,31
    41014f94:	003025f3          	frcsr	x11
    41014f98:	0065ffb3          	and	x31,x11,x6
    41014f9c:	00af8e63          	beq	x31,x10,41014fb8 <pass_label_14>
    41014fa0:	37993d37          	lui	x26,0x37993
    41014fa4:	35dd0d1b          	addiw	x26,x26,861 # 3799335d <SID_ZICSR_14_stack+0x289ee35d>
    41014fa8:	010d1d13          	slli	x26,x26,0x10
    41014fac:	008d0d13          	addi	x26,x26,8
    41014fb0:	000d3883          	ld	x17,0(x26)
    41014fb4:	00088067          	jr	x17

0000000041014fb8 <pass_label_14>:
    41014fb8:	003ffdf3          	csrrci	x27,fcsr,31
    41014fbc:	00302cf3          	frcsr	x25
    41014fc0:	006cf433          	and	x8,x25,x6
    41014fc4:	00e40e63          	beq	x8,x14,41014fe0 <pass_label_15>
    41014fc8:	379934b7          	lui	x9,0x37993
    41014fcc:	35d4849b          	addiw	x9,x9,861 # 3799335d <SID_ZICSR_14_stack+0x289ee35d>
    41014fd0:	01049493          	slli	x9,x9,0x10
    41014fd4:	00848493          	addi	x9,x9,8
    41014fd8:	0004ba83          	ld	x21,0(x9)
    41014fdc:	000a8067          	jr	x21

0000000041014fe0 <pass_label_15>:
    41014fe0:	0b9d5137          	lui	x2,0xb9d5
    41014fe4:	0891011b          	addiw	x2,x2,137 # b9d5089 <pma_region_2_size+0x79d5089>
    41014fe8:	00c11113          	slli	x2,x2,0xc
    41014fec:	fab10113          	addi	x2,x2,-85
    41014ff0:	00d11113          	slli	x2,x2,0xd
    41014ff4:	00013383          	ld	x7,0(x2)
    41014ff8:	37993fb7          	lui	x31,0x37993
    41014ffc:	35df8f9b          	addiw	x31,x31,861 # 3799335d <SID_ZICSR_14_stack+0x289ee35d>
    41015000:	010f9f93          	slli	x31,x31,0x10
    41015004:	0a0f8f93          	addi	x31,x31,160
    41015008:	01a00f13          	li	x30,26
    4101500c:	01efb023          	sd	x30,0(x31)
    41015010:	000f0fb7          	lui	x31,0xf0
    41015014:	001f8f9b          	addiw	x31,x31,1 # f0001 <pma_region_0_size+0xb0001>
    41015018:	00cf9f93          	slli	x31,x31,0xc
    4101501c:	005f8f93          	addi	x31,x31,5
    41015020:	00000073          	ecall

0000000041015024 <SID_ZICSR_20_passed>:
    41015024:	00f00f9b          	addiw	x31,x0,15
    41015028:	01cf9f93          	slli	x31,x31,0x1c
    4101502c:	001f8f93          	addi	x31,x31,1
    41015030:	00000073          	ecall

0000000041015034 <test_cleanup>:
    41015034:	00f00f9b          	addiw	x31,x0,15
    41015038:	01cf9f93          	slli	x31,x31,0x1c
    4101503c:	001f8f93          	addi	x31,x31,1
    41015040:	00000073          	ecall

0000000041015044 <local_test_failed>:
    41015044:	00f00f9b          	addiw	x31,x0,15
    41015048:	01cf9f93          	slli	x31,x31,0x1c
    4101504c:	002f8f93          	addi	x31,x31,2
    41015050:	00000073          	ecall

Disassembly of section .csr_machine_0:

0000000041214000 <csr_access_senvcfg_supervisor_key_2_write-0xa0>:
    41214000:	44566fb7          	lui	x31,0x44566
    41214004:	0a0f8f9b          	addiw	x31,x31,160 # 445660a0 <machine_csr_jump_table_flags_pa>
    41214008:	000fbf83          	ld	x31,0(x31)
    4121400c:	00200293          	li	x5,2
    41214010:	085f8863          	beq	x31,x5,412140a0 <csr_access_senvcfg_supervisor_key_2_write>
    41214014:	00100293          	li	x5,1
    41214018:	085f8863          	beq	x31,x5,412140a8 <csr_access_senvcfg_supervisor_key_1_read>
    4121401c:	00400293          	li	x5,4
    41214020:	085f8863          	beq	x31,x5,412140b0 <csr_access_stvec_supervisor_key_4_write>
    41214024:	00300293          	li	x5,3
    41214028:	085f8863          	beq	x31,x5,412140b8 <csr_access_stvec_supervisor_key_3_read>
    4121402c:	00600293          	li	x5,6
    41214030:	085f8863          	beq	x31,x5,412140c0 <csr_access_sepc_supervisor_key_6_write>
    41214034:	00500293          	li	x5,5
    41214038:	085f8863          	beq	x31,x5,412140c8 <csr_access_sepc_supervisor_key_5_read>
    4121403c:	00a00293          	li	x5,10
    41214040:	085f8863          	beq	x31,x5,412140d0 <csr_access_stval_supervisor_key_10_write>
    41214044:	00900293          	li	x5,9
    41214048:	085f8863          	beq	x31,x5,412140d8 <csr_access_stval_supervisor_key_9_read>
    4121404c:	01400293          	li	x5,20
    41214050:	085f8863          	beq	x31,x5,412140e0 <csr_access_scause_supervisor_key_20_write>
    41214054:	01300293          	li	x5,19
    41214058:	085f8863          	beq	x31,x5,412140e8 <csr_access_scause_supervisor_key_19_read>
    4121405c:	01800293          	li	x5,24
    41214060:	085f8863          	beq	x31,x5,412140f0 <csr_access_sscratch_supervisor_key_24_write>
    41214064:	01700293          	li	x5,23
    41214068:	085f8863          	beq	x31,x5,412140f8 <csr_access_sscratch_supervisor_key_23_read>
    4121406c:	01a00293          	li	x5,26
    41214070:	085f8863          	beq	x31,x5,41214100 <csr_access_fcsr_user_key_26_write>
    41214074:	01900293          	li	x5,25
    41214078:	085f8863          	beq	x31,x5,41214108 <csr_access_fcsr_user_key_25_read>
    4121407c:	01c00293          	li	x5,28
    41214080:	085f8863          	beq	x31,x5,41214110 <csr_access_mstatus_machine_key_28_set>
    41214084:	01b00293          	li	x5,27
    41214088:	085f8863          	beq	x31,x5,41214118 <csr_access_mstatus_machine_key_27_clear>
    4121408c:	01e00293          	li	x5,30
    41214090:	085f8863          	beq	x31,x5,41214120 <csr_access_mtvec_machine_key_30_set>
    41214094:	01d00293          	li	x5,29
    41214098:	085f8863          	beq	x31,x5,41214128 <csr_access_mtvec_machine_key_29_clear>
    4121409c:	0940006f          	j	41214130 <end_machine_label>

00000000412140a0 <csr_access_senvcfg_supervisor_key_2_write>:
    412140a0:	10a39073          	csrw	0x10a,x7
    412140a4:	08c0006f          	j	41214130 <end_machine_label>

00000000412140a8 <csr_access_senvcfg_supervisor_key_1_read>:
    412140a8:	10a023f3          	csrr	x7,0x10a
    412140ac:	0840006f          	j	41214130 <end_machine_label>

00000000412140b0 <csr_access_stvec_supervisor_key_4_write>:
    412140b0:	10539073          	csrw	stvec,x7
    412140b4:	07c0006f          	j	41214130 <end_machine_label>

00000000412140b8 <csr_access_stvec_supervisor_key_3_read>:
    412140b8:	105023f3          	csrr	x7,stvec
    412140bc:	0740006f          	j	41214130 <end_machine_label>

00000000412140c0 <csr_access_sepc_supervisor_key_6_write>:
    412140c0:	14139073          	csrw	sepc,x7
    412140c4:	06c0006f          	j	41214130 <end_machine_label>

00000000412140c8 <csr_access_sepc_supervisor_key_5_read>:
    412140c8:	141023f3          	csrr	x7,sepc
    412140cc:	0640006f          	j	41214130 <end_machine_label>

00000000412140d0 <csr_access_stval_supervisor_key_10_write>:
    412140d0:	14339073          	csrw	stval,x7
    412140d4:	05c0006f          	j	41214130 <end_machine_label>

00000000412140d8 <csr_access_stval_supervisor_key_9_read>:
    412140d8:	143023f3          	csrr	x7,stval
    412140dc:	0540006f          	j	41214130 <end_machine_label>

00000000412140e0 <csr_access_scause_supervisor_key_20_write>:
    412140e0:	14239073          	csrw	scause,x7
    412140e4:	04c0006f          	j	41214130 <end_machine_label>

00000000412140e8 <csr_access_scause_supervisor_key_19_read>:
    412140e8:	142023f3          	csrr	x7,scause
    412140ec:	0440006f          	j	41214130 <end_machine_label>

00000000412140f0 <csr_access_sscratch_supervisor_key_24_write>:
    412140f0:	14039073          	csrw	sscratch,x7
    412140f4:	03c0006f          	j	41214130 <end_machine_label>

00000000412140f8 <csr_access_sscratch_supervisor_key_23_read>:
    412140f8:	140023f3          	csrr	x7,sscratch
    412140fc:	0340006f          	j	41214130 <end_machine_label>

0000000041214100 <csr_access_fcsr_user_key_26_write>:
    41214100:	00339073          	fscsr	x7
    41214104:	02c0006f          	j	41214130 <end_machine_label>

0000000041214108 <csr_access_fcsr_user_key_25_read>:
    41214108:	003023f3          	frcsr	x7
    4121410c:	0240006f          	j	41214130 <end_machine_label>

0000000041214110 <csr_access_mstatus_machine_key_28_set>:
    41214110:	3003a073          	csrs	mstatus,x7
    41214114:	01c0006f          	j	41214130 <end_machine_label>

0000000041214118 <csr_access_mstatus_machine_key_27_clear>:
    41214118:	3003b073          	csrc	mstatus,x7
    4121411c:	0140006f          	j	41214130 <end_machine_label>

0000000041214120 <csr_access_mtvec_machine_key_30_set>:
    41214120:	3053a073          	csrs	mtvec,x7
    41214124:	00c0006f          	j	41214130 <end_machine_label>

0000000041214128 <csr_access_mtvec_machine_key_29_clear>:
    41214128:	3053b073          	csrc	mtvec,x7
    4121412c:	0040006f          	j	41214130 <end_machine_label>

0000000041214130 <end_machine_label>:
    41214130:	000f0fb7          	lui	x31,0xf0
    41214134:	001f8f9b          	addiw	x31,x31,1 # f0001 <pma_region_0_size+0xb0001>
    41214138:	00cf9f93          	slli	x31,x31,0xc
    4121413c:	004f8f93          	addi	x31,x31,4
    41214140:	00000073          	ecall

Disassembly of section .csr_super_0:

0000000041215000 <end_super_label-0x18>:
    41215000:	37993fb7          	lui	x31,0x37993
    41215004:	35df8f9b          	addiw	x31,x31,861 # 3799335d <SID_ZICSR_14_stack+0x289ee35d>
    41215008:	010f9f93          	slli	x31,x31,0x10
    4121500c:	0a8f8f93          	addi	x31,x31,168
    41215010:	000fbf83          	ld	x31,0(x31)
    41215014:	0040006f          	j	41215018 <end_super_label>

0000000041215018 <end_super_label>:
    41215018:	000f0fb7          	lui	x31,0xf0
    4121501c:	001f8f9b          	addiw	x31,x31,1 # f0001 <pma_region_0_size+0xb0001>
    41215020:	00cf9f93          	slli	x31,x31,0xc
    41215024:	004f8f93          	addi	x31,x31,4
    41215028:	00000073          	ecall

Disassembly of section .os_data:

00003799335d0000 <passed_addr_ptr>:
    3799335d0000:	4110                	.insn	2, 0x4110
    3799335d0002:	4101                	.insn	2, 0x4101
    3799335d0004:	0000                	.insn	2, 0x0000
	...

00003799335d0008 <failed_addr_ptr>:
    3799335d0008:	4120                	.insn	2, 0x4120
    3799335d000a:	4101                	.insn	2, 0x4101
    3799335d000c:	0000                	.insn	2, 0x0000
	...

00003799335d0010 <end_test_addr_ptr>:
    3799335d0010:	4130                	.insn	2, 0x4130
    3799335d0012:	4101                	.insn	2, 0x4101
    3799335d0014:	0000                	.insn	2, 0x0000
	...

00003799335d0018 <os_passed_addr_ptr>:
    3799335d0018:	0784                	.insn	2, 0x0784
    3799335d001a:	4100                	.insn	2, 0x4100
    3799335d001c:	0000                	.insn	2, 0x0000
	...

00003799335d0020 <os_failed_addr_ptr>:
    3799335d0020:	0794                	.insn	2, 0x0794
    3799335d0022:	4100                	.insn	2, 0x4100
    3799335d0024:	0000                	.insn	2, 0x0000
	...

00003799335d0028 <os_end_test_addr_ptr>:
    3799335d0028:	07a0                	.insn	2, 0x07a0
    3799335d002a:	4100                	.insn	2, 0x4100
    3799335d002c:	0000                	.insn	2, 0x0000
	...

00003799335d0030 <rvcp_prefix_str_data>:
    3799335d0030:	5652                	.insn	2, 0x5652
    3799335d0032:	203a5043          	fmadd.s	f0,f20,f3,f4,unknown
    3799335d0036:	6554                	.insn	2, 0x6554
    3799335d0038:	46207473          	csrrci	x8,0x462,0
    3799335d003c:	6c69                	.insn	2, 0x6c69
    3799335d003e:	2065                	.insn	2, 0x2065
	...

00003799335d0041 <rvcp_testname_str_data>:
    3799335d0041:	7074                	.insn	2, 0x7074
    3799335d0043:	7a5f 6369 7273      	.insn	6, 0x727363697a5f
    3799335d0049:	315f        	.insn	6, 0x53415000315f

00003799335d004c <rvcp_passed_str_data>:
    3799335d004c:	4150                	.insn	2, 0x4150
    3799335d004e:	44455353          	fround.h	f6,f10,unknown
	...

00003799335d0053 <rvcp_failed_str_data>:
    3799335d0053:	4146                	.insn	2, 0x4146
    3799335d0055:	4c49                	.insn	2, 0x4c49
    3799335d0057:	4445                	.insn	2, 0x4445
	...

00003799335d005a <rvcp_space_str_data>:
    3799335d005a:	0020                	.insn	2, 0x0020

00003799335d005c <rvcp_newline_str_data>:
    3799335d005c:	000a                	.insn	2, 0x000a
	...

00003799335d0060 <excp_ignored_count_mem>:
	...

00003799335d0068 <machine_flags_mem>:
	...

00003799335d0070 <user_flags_mem>:
	...

00003799335d0078 <super_flags_mem>:
	...

00003799335d0080 <machine_area_mem>:
	...

00003799335d0088 <user_area_mem>:
	...

00003799335d0090 <super_area_mem>:
	...

00003799335d0098 <zero_data_mem>:
	...

00003799335d00a0 <machine_csr_jump_table_flags_mem>:
	...

00003799335d00a8 <super_csr_jump_table_flags_mem>:
	...

00003799335d00b0 <pte_access_flags_mem>:
	...

00003799335d00c8 <num_harts_ended_mem>:
	...

00003799335d00d0 <num_hard_fails_mem>:
	...

Disassembly of section .hart_context:

0000000759ce4000 <hart_context_0>:
   759ce4000:	d000                	.insn	2, 0xd000
   759ce4002:	0dc4                	.insn	2, 0x0dc4
	...
   759ce4018:	0001                	.insn	2, 0x0001
   759ce401a:	0000                	.insn	2, 0x0000
   759ce401c:	0000                	.insn	2, 0x0000
   759ce401e:	0000                	.insn	2, 0x0000
   759ce4020:	ffff                	.insn	2, 0xffff
   759ce4022:	ffff                	.insn	2, 0xffff
   759ce4024:	ffff                	.insn	2, 0xffff
   759ce4026:	ffff                	.insn	2, 0xffff
   759ce4028:	ffff                	.insn	2, 0xffff
   759ce402a:	ffff                	.insn	2, 0xffff
   759ce402c:	ffff                	.insn	2, 0xffff
   759ce402e:	ffff                	.insn	2, 0xffff
   759ce4030:	ffff                	.insn	2, 0xffff
   759ce4032:	ffff                	.insn	2, 0xffff
   759ce4034:	ffff                	.insn	2, 0xffff
   759ce4036:	ffff                	.insn	2, 0xffff
	...
   759ce4050:	00ff 0000 0000 0000 	.insn	10, 0x00ff00000000000000ff
   759ce4058:	00ff 
	...
   759ce4176:	0000                	.insn	2, 0x0000
   759ce4178:	ffff                	.insn	2, 0xffff
   759ce417a:	ffff                	.insn	2, 0xffff
   759ce417c:	ffff                	.insn	2, 0xffff
   759ce417e:	ffff                	.insn	2, 0xffff
	...
   759ce4188:	ffff                	.insn	2, 0xffff
   759ce418a:	ffff                	.insn	2, 0xffff
	...

Disassembly of section .hart_stack_0:

000000000dc4c000 <hart_stack_0>:
	...

Disassembly of section .io_htif:

0000000041040000 <tohost>:
	...

0000000041040040 <fromhost>:
	...

Disassembly of section .tp_csr_storage:

00173aa111f56000 <.tp_csr_storage>:
  173aa111f56000:	c0de                	.insn	2, 0xc0de
  173aa111f56002:	c001                	.insn	2, 0xc001
  173aa111f56004:	0000                	.insn	2, 0x0000
	...

Disassembly of section .SID_ZICSR_01_stack:

00000137a6436000 <.SID_ZICSR_01_stack>:
 137a6436000:	c0de                	.insn	2, 0xc0de
 137a6436002:	c001                	.insn	2, 0xc001
 137a6436004:	0000                	.insn	2, 0x0000
	...

Disassembly of section .SID_ZICSR_02_stack:

0001d18da49d8000 <.SID_ZICSR_02_stack>:
   1d18da49d8000:	c0de                	.insn	2, 0xc0de
   1d18da49d8002:	c001                	.insn	2, 0xc001
   1d18da49d8004:	0000                	.insn	2, 0x0000
	...

Disassembly of section .SID_ZICSR_03_stack:

000000004009a000 <.SID_ZICSR_03_stack>:
    4009a000:	c0de                	.insn	2, 0xc0de
    4009a002:	c001                	.insn	2, 0xc001
    4009a004:	0000                	.insn	2, 0x0000
	...

Disassembly of section .SID_ZICSR_04_stack:

0001f93596113000 <.SID_ZICSR_04_stack>:
   1f93596113000:	c0de                	.insn	2, 0xc0de
   1f93596113002:	c001                	.insn	2, 0xc001
   1f93596113004:	0000                	.insn	2, 0x0000
	...

Disassembly of section .SID_ZICSR_05_stack:

00e92a76e5a56000 <.SID_ZICSR_05_stack>:
  e92a76e5a56000:	c0de                	.insn	2, 0xc0de
  e92a76e5a56002:	c001                	.insn	2, 0xc001
  e92a76e5a56004:	0000                	.insn	2, 0x0000
	...

Disassembly of section .SID_ZICSR_06_stack:

00007d217c0a5000 <.SID_ZICSR_06_stack>:
    7d217c0a5000:	c0de                	.insn	2, 0xc0de
    7d217c0a5002:	c001                	.insn	2, 0xc001
    7d217c0a5004:	0000                	.insn	2, 0x0000
	...

Disassembly of section .SID_ZICSR_07_stack:

000000b90b5b5000 <.SID_ZICSR_07_stack>:
  b90b5b5000:	c0de                	.insn	2, 0xc0de
  b90b5b5002:	c001                	.insn	2, 0xc001
  b90b5b5004:	0000                	.insn	2, 0x0000
	...

Disassembly of section .SID_ZICSR_08_stack:

0000000003b2b000 <.SID_ZICSR_08_stack>:
 3b2b000:	c0de                	.insn	2, 0xc0de
 3b2b002:	c001                	.insn	2, 0xc001
 3b2b004:	0000                	.insn	2, 0x0000
	...

Disassembly of section .SID_ZICSR_09_stack:

00003a8a52a0a000 <.SID_ZICSR_09_stack>:
    3a8a52a0a000:	c0de                	.insn	2, 0xc0de
    3a8a52a0a002:	c001                	.insn	2, 0xc001
    3a8a52a0a004:	0000                	.insn	2, 0x0000
	...

Disassembly of section .SID_ZICSR_10_stack:

00009cf79513b000 <.SID_ZICSR_10_stack>:
    9cf79513b000:	c0de                	.insn	2, 0xc0de
    9cf79513b002:	c001                	.insn	2, 0xc001
    9cf79513b004:	0000                	.insn	2, 0x0000
	...

Disassembly of section .SID_ZICSR_11_stack:

000095be4e548000 <.SID_ZICSR_11_stack>:
    95be4e548000:	c0de                	.insn	2, 0xc0de
    95be4e548002:	c001                	.insn	2, 0xc001
    95be4e548004:	0000                	.insn	2, 0x0000
	...

Disassembly of section .SID_ZICSR_12_stack:

0000000003153000 <.SID_ZICSR_12_stack>:
 3153000:	c0de                	.insn	2, 0xc0de
 3153002:	c001                	.insn	2, 0xc001
 3153004:	0000                	.insn	2, 0x0000
	...

Disassembly of section .SID_ZICSR_13_stack:

0000000000021000 <.SID_ZICSR_13_stack>:
   21000:	c0de                	.insn	2, 0xc0de
   21002:	c001                	.insn	2, 0xc001
   21004:	0000                	.insn	2, 0x0000
	...

Disassembly of section .SID_ZICSR_14_stack:

000000000efa5000 <.SID_ZICSR_14_stack>:
 efa5000:	c0de                	.insn	2, 0xc0de
 efa5002:	c001                	.insn	2, 0xc001
 efa5004:	0000                	.insn	2, 0x0000
	...

Disassembly of section .SID_ZICSR_15_stack:

0000002239ce3000 <.SID_ZICSR_15_stack>:
  2239ce3000:	c0de                	.insn	2, 0xc0de
  2239ce3002:	c001                	.insn	2, 0xc001
  2239ce3004:	0000                	.insn	2, 0x0000
	...

Disassembly of section .SID_ZICSR_16_stack:

00000000b0f76000 <.SID_ZICSR_16_stack>:
    b0f76000:	c0de                	.insn	2, 0xc0de
    b0f76002:	c001                	.insn	2, 0xc001
    b0f76004:	0000                	.insn	2, 0x0000
	...

Disassembly of section .SID_ZICSR_17_stack:

00000063eaecf000 <.SID_ZICSR_17_stack>:
  63eaecf000:	c0de                	.insn	2, 0xc0de
  63eaecf002:	c001                	.insn	2, 0xc001
  63eaecf004:	0000                	.insn	2, 0x0000
	...

Disassembly of section .SID_ZICSR_19_stack:

00000000015b7000 <.SID_ZICSR_19_stack>:
 15b7000:	c0de                	.insn	2, 0xc0de
 15b7002:	c001                	.insn	2, 0xc001
 15b7004:	0000                	.insn	2, 0x0000
	...

Disassembly of section .SID_ZICSR_20_stack:

000000008415b000 <.SID_ZICSR_20_stack>:
    8415b000:	c0de                	.insn	2, 0xc0de
    8415b002:	c001                	.insn	2, 0xc001
    8415b004:	0000                	.insn	2, 0x0000
	...

Disassembly of section .__pagetable_map_os_0x0000000041234000:

0000000041234000 <__pagetable_map_os_0x0000000041234000>:
    41234000:	f001                	.insn	2, 0xf001
    41234002:	0000113b          	sllw	x2,x0,x0
    41234006:	0000                	.insn	2, 0x0000
    41234008:	cc01                	.insn	2, 0xcc01
    4123400a:	1050                	.insn	2, 0x1050
	...
    412340b8:	7001                	.insn	2, 0x7001
    412340ba:	113d                	.insn	2, 0x113d
	...
    41234748:	a401                	.insn	2, 0xa401
    4123474a:	00001117          	auipc	x2,0x1
	...

Disassembly of section .__pagetable_map_os_0x0000000044efc000:

0000000044efc000 <__pagetable_map_os_0x0000000044efc000>:
    44efc000:	5401                	.insn	2, 0x5401
    44efc002:	1086                	.insn	2, 0x1086
    44efc004:	0000                	.insn	2, 0x0000
    44efc006:	0000                	.insn	2, 0x0000
    44efc008:	1001                	.insn	2, 0x1001
    44efc00a:	00001057          	vfadd.vv	v0,v0,v0,v0.t
    44efc00e:	0000                	.insn	2, 0x0000
    44efc010:	6c01                	.insn	2, 0x6c01
    44efc012:	0000110f          	.insn	4, 0x110f
	...
    44efc376:	0000                	.insn	2, 0x0000
    44efc378:	f801                	.insn	2, 0xf801
    44efc37a:	112e                	.insn	2, 0x112e
	...
    44efc3a8:	e401                	.insn	2, 0xe401
    44efc3aa:	1140                	.insn	2, 0x1140
	...
    44efc7d0:	3401                	.insn	2, 0x3401
    44efc7d2:	1118                	.insn	2, 0x1118
	...
    44efc958:	ec01                	.insn	2, 0xec01
    44efc95a:	0000113b          	sllw	x2,x0,x0
	...
    44efc9c6:	0000                	.insn	2, 0x0000
    44efc9c8:	f801                	.insn	2, 0xf801
    44efc9ca:	1131                	.insn	2, 0x1131
    44efc9cc:	0000                	.insn	2, 0x0000
	...

Disassembly of section .__pagetable_map_os_0x0000000042195000:

0000000042195000 <__pagetable_map_os_0x0000000042195000>:
    42195000:	9c01                	.insn	2, 0x9c01
    42195002:	00001117          	auipc	x2,0x1
    42195006:	0000                	.insn	2, 0x0000
    42195008:	ac01                	.insn	2, 0xac01
    4219500a:	1075                	.insn	2, 0x1075
    4219500c:	0000                	.insn	2, 0x0000
    4219500e:	0000                	.insn	2, 0x0000
    42195010:	e801                	.insn	2, 0xe801
    42195012:	1140                	.insn	2, 0x1140
	...
    421950e8:	5801                	.insn	2, 0x5801
    421950ea:	1086                	.insn	2, 0x1086
	...
    42195440:	a401                	.insn	2, 0xa401
    42195442:	113a                	.insn	2, 0x113a
	...
    42195c78:	4c01                	.insn	2, 0x4c01
    42195c7a:	1060                	.insn	2, 0x1060
    42195c7c:	0000                	.insn	2, 0x0000
	...

Disassembly of section .__pagetable_map_os_0x0000000041d6b000:

0000000041d6b000 <__pagetable_map_os_0x0000000041d6b000>:
    41d6b000:	ac01                	.insn	2, 0xac01
    41d6b002:	0000110b          	.insn	4, 0x110b
	...
    41d6b03e:	0000                	.insn	2, 0x0000
    41d6b040:	8c01                	.insn	2, 0x8c01
    41d6b042:	1048                	.insn	2, 0x1048
    41d6b044:	0000                	.insn	2, 0x0000
    41d6b046:	0000                	.insn	2, 0x0000
    41d6b048:	1401                	.insn	2, 0x1401
    41d6b04a:	1106                	.insn	2, 0x1106
    41d6b04c:	0000                	.insn	2, 0x0000
	...

Disassembly of section .__pagetable_map_os_0x0000000041223000:

0000000041223000 <__pagetable_map_os_0x0000000041223000>:
	...
    41223080:	104040cf          	fnmadd.s	f1,f0,f4,f2,rmm
    41223084:	0000                	.insn	2, 0x0000
    41223086:	0000                	.insn	2, 0x0000
    41223088:	104044cf          	fnmadd.s	f9,f0,f4,f2,rmm
    4122308c:	0000                	.insn	2, 0x0000
    4122308e:	0000                	.insn	2, 0x0000
    41223090:	104048cf          	fnmadd.s	f17,f0,f4,f2,rmm
    41223094:	0000                	.insn	2, 0x0000
    41223096:	0000                	.insn	2, 0x0000
    41223098:	10404ccf          	fnmadd.s	f25,f0,f4,f2,rmm
    4122309c:	0000                	.insn	2, 0x0000
    4122309e:	0000                	.insn	2, 0x0000
    412230a0:	112000cf          	fnmadd.s	f1,f0,f18,f2,rne
    412230a4:	0000                	.insn	2, 0x0000
    412230a6:	0000                	.insn	2, 0x0000
    412230a8:	112004cf          	fnmadd.s	f9,f0,f18,f2,rne
    412230ac:	0000                	.insn	2, 0x0000
    412230ae:	0000                	.insn	2, 0x0000
    412230b0:	112008cf          	fnmadd.s	f17,f0,f18,f2,rne
    412230b4:	0000                	.insn	2, 0x0000
    412230b6:	0000                	.insn	2, 0x0000
    412230b8:	11200ccf          	fnmadd.s	f25,f0,f18,f2,rne
    412230bc:	0000                	.insn	2, 0x0000
    412230be:	0000                	.insn	2, 0x0000
    412230c0:	112010cf          	fnmadd.s	f1,f0,f18,f2,rtz
    412230c4:	0000                	.insn	2, 0x0000
    412230c6:	0000                	.insn	2, 0x0000
    412230c8:	112014cf          	fnmadd.s	f9,f0,f18,f2,rtz
    412230cc:	0000                	.insn	2, 0x0000
    412230ce:	0000                	.insn	2, 0x0000
    412230d0:	112018cf          	fnmadd.s	f17,f0,f18,f2,rtz
    412230d4:	0000                	.insn	2, 0x0000
    412230d6:	0000                	.insn	2, 0x0000
    412230d8:	11201ccf          	fnmadd.s	f25,f0,f18,f2,rtz
    412230dc:	0000                	.insn	2, 0x0000
    412230de:	0000                	.insn	2, 0x0000
    412230e0:	112020cf          	fnmadd.s	f1,f0,f18,f2,rdn
    412230e4:	0000                	.insn	2, 0x0000
    412230e6:	0000                	.insn	2, 0x0000
    412230e8:	112024cf          	fnmadd.s	f9,f0,f18,f2,rdn
    412230ec:	0000                	.insn	2, 0x0000
    412230ee:	0000                	.insn	2, 0x0000
    412230f0:	112028cf          	fnmadd.s	f17,f0,f18,f2,rdn
    412230f4:	0000                	.insn	2, 0x0000
    412230f6:	0000                	.insn	2, 0x0000
    412230f8:	11202ccf          	fnmadd.s	f25,f0,f18,f2,rdn
    412230fc:	0000                	.insn	2, 0x0000
    412230fe:	0000                	.insn	2, 0x0000
    41223100:	112030cf          	fnmadd.s	f1,f0,f18,f2,rup
    41223104:	0000                	.insn	2, 0x0000
    41223106:	0000                	.insn	2, 0x0000
    41223108:	112034cf          	fnmadd.s	f9,f0,f18,f2,rup
    4122310c:	0000                	.insn	2, 0x0000
    4122310e:	0000                	.insn	2, 0x0000
    41223110:	112038cf          	fnmadd.s	f17,f0,f18,f2,rup
    41223114:	0000                	.insn	2, 0x0000
    41223116:	0000                	.insn	2, 0x0000
    41223118:	11203ccf          	fnmadd.s	f25,f0,f18,f2,rup
    4122311c:	0000                	.insn	2, 0x0000
    4122311e:	0000                	.insn	2, 0x0000
    41223120:	112040cf          	fnmadd.s	f1,f0,f18,f2,rmm
    41223124:	0000                	.insn	2, 0x0000
    41223126:	0000                	.insn	2, 0x0000
    41223128:	112044cf          	fnmadd.s	f9,f0,f18,f2,rmm
    4122312c:	0000                	.insn	2, 0x0000
    4122312e:	0000                	.insn	2, 0x0000
    41223130:	112048cf          	fnmadd.s	f17,f0,f18,f2,rmm
    41223134:	0000                	.insn	2, 0x0000
    41223136:	0000                	.insn	2, 0x0000
    41223138:	11204ccf          	fnmadd.s	f25,f0,f18,f2,rmm
    4122313c:	0000                	.insn	2, 0x0000
    4122313e:	0000                	.insn	2, 0x0000
    41223140:	112050cf          	fnmadd.s	f1,f0,f18,f2,unknown
    41223144:	0000                	.insn	2, 0x0000
    41223146:	0000                	.insn	2, 0x0000
    41223148:	112054cf          	fnmadd.s	f9,f0,f18,f2,unknown
    4122314c:	0000                	.insn	2, 0x0000
    4122314e:	0000                	.insn	2, 0x0000
    41223150:	112058cf          	fnmadd.s	f17,f0,f18,f2,unknown
    41223154:	0000                	.insn	2, 0x0000
    41223156:	0000                	.insn	2, 0x0000
    41223158:	11205ccf          	fnmadd.s	f25,f0,f18,f2,unknown
    4122315c:	0000                	.insn	2, 0x0000
    4122315e:	0000                	.insn	2, 0x0000
    41223160:	112060cf          	fnmadd.s	f1,f0,f18,f2,unknown
    41223164:	0000                	.insn	2, 0x0000
    41223166:	0000                	.insn	2, 0x0000
    41223168:	112064cf          	fnmadd.s	f9,f0,f18,f2,unknown
    4122316c:	0000                	.insn	2, 0x0000
    4122316e:	0000                	.insn	2, 0x0000
    41223170:	112068cf          	fnmadd.s	f17,f0,f18,f2,unknown
    41223174:	0000                	.insn	2, 0x0000
    41223176:	0000                	.insn	2, 0x0000
    41223178:	11206ccf          	fnmadd.s	f25,f0,f18,f2,unknown
    4122317c:	0000                	.insn	2, 0x0000
    4122317e:	0000                	.insn	2, 0x0000
    41223180:	112070cf          	fnmadd.s	f1,f0,f18,f2
    41223184:	0000                	.insn	2, 0x0000
    41223186:	0000                	.insn	2, 0x0000
    41223188:	112074cf          	fnmadd.s	f9,f0,f18,f2
    4122318c:	0000                	.insn	2, 0x0000
    4122318e:	0000                	.insn	2, 0x0000
    41223190:	112078cf          	fnmadd.s	f17,f0,f18,f2
    41223194:	0000                	.insn	2, 0x0000
    41223196:	0000                	.insn	2, 0x0000
    41223198:	11207ccf          	fnmadd.s	f25,f0,f18,f2
    4122319c:	0000                	.insn	2, 0x0000
    4122319e:	0000                	.insn	2, 0x0000
    412231a0:	112080cf          	fnmadd.s	f1,f1,f18,f2,rne
    412231a4:	0000                	.insn	2, 0x0000
    412231a6:	0000                	.insn	2, 0x0000
    412231a8:	112084cf          	fnmadd.s	f9,f1,f18,f2,rne
    412231ac:	0000                	.insn	2, 0x0000
    412231ae:	0000                	.insn	2, 0x0000
    412231b0:	112088cf          	fnmadd.s	f17,f1,f18,f2,rne
    412231b4:	0000                	.insn	2, 0x0000
    412231b6:	0000                	.insn	2, 0x0000
    412231b8:	11208ccf          	fnmadd.s	f25,f1,f18,f2,rne
    412231bc:	0000                	.insn	2, 0x0000
    412231be:	0000                	.insn	2, 0x0000
    412231c0:	112090cf          	fnmadd.s	f1,f1,f18,f2,rtz
    412231c4:	0000                	.insn	2, 0x0000
    412231c6:	0000                	.insn	2, 0x0000
    412231c8:	112094cf          	fnmadd.s	f9,f1,f18,f2,rtz
    412231cc:	0000                	.insn	2, 0x0000
    412231ce:	0000                	.insn	2, 0x0000
    412231d0:	112098cf          	fnmadd.s	f17,f1,f18,f2,rtz
    412231d4:	0000                	.insn	2, 0x0000
    412231d6:	0000                	.insn	2, 0x0000
    412231d8:	11209ccf          	fnmadd.s	f25,f1,f18,f2,rtz
    412231dc:	0000                	.insn	2, 0x0000
    412231de:	0000                	.insn	2, 0x0000
    412231e0:	1120a0cf          	fnmadd.s	f1,f1,f18,f2,rdn
    412231e4:	0000                	.insn	2, 0x0000
    412231e6:	0000                	.insn	2, 0x0000
    412231e8:	1120a4cf          	fnmadd.s	f9,f1,f18,f2,rdn
    412231ec:	0000                	.insn	2, 0x0000
    412231ee:	0000                	.insn	2, 0x0000
    412231f0:	1120a8cf          	fnmadd.s	f17,f1,f18,f2,rdn
    412231f4:	0000                	.insn	2, 0x0000
    412231f6:	0000                	.insn	2, 0x0000
    412231f8:	1120accf          	fnmadd.s	f25,f1,f18,f2,rdn
    412231fc:	0000                	.insn	2, 0x0000
    412231fe:	0000                	.insn	2, 0x0000
    41223200:	104100cf          	fnmadd.s	f1,f2,f4,f2,rne
    41223204:	0000                	.insn	2, 0x0000
    41223206:	0000                	.insn	2, 0x0000
    41223208:	1120b4cf          	fnmadd.s	f9,f1,f18,f2,rup
    4122320c:	0000                	.insn	2, 0x0000
    4122320e:	0000                	.insn	2, 0x0000
    41223210:	1120b8cf          	fnmadd.s	f17,f1,f18,f2,rup
    41223214:	0000                	.insn	2, 0x0000
    41223216:	0000                	.insn	2, 0x0000
    41223218:	1120bccf          	fnmadd.s	f25,f1,f18,f2,rup
    4122321c:	0000                	.insn	2, 0x0000
    4122321e:	0000                	.insn	2, 0x0000
    41223220:	1120c0cf          	fnmadd.s	f1,f1,f18,f2,rmm
    41223224:	0000                	.insn	2, 0x0000
    41223226:	0000                	.insn	2, 0x0000
    41223228:	1120c4cf          	fnmadd.s	f9,f1,f18,f2,rmm
    4122322c:	0000                	.insn	2, 0x0000
    4122322e:	0000                	.insn	2, 0x0000
    41223230:	1120c8cf          	fnmadd.s	f17,f1,f18,f2,rmm
    41223234:	0000                	.insn	2, 0x0000
    41223236:	0000                	.insn	2, 0x0000
    41223238:	1120cccf          	fnmadd.s	f25,f1,f18,f2,rmm
    4122323c:	0000                	.insn	2, 0x0000
    4122323e:	0000                	.insn	2, 0x0000
    41223240:	1120d0cf          	fnmadd.s	f1,f1,f18,f2,unknown
    41223244:	0000                	.insn	2, 0x0000
    41223246:	0000                	.insn	2, 0x0000
    41223248:	1120d4cf          	fnmadd.s	f9,f1,f18,f2,unknown
    4122324c:	0000                	.insn	2, 0x0000
    4122324e:	0000                	.insn	2, 0x0000
    41223250:	1120d8cf          	fnmadd.s	f17,f1,f18,f2,unknown
    41223254:	0000                	.insn	2, 0x0000
    41223256:	0000                	.insn	2, 0x0000
    41223258:	1120dccf          	fnmadd.s	f25,f1,f18,f2,unknown
    4122325c:	0000                	.insn	2, 0x0000
    4122325e:	0000                	.insn	2, 0x0000
    41223260:	1120e0cf          	fnmadd.s	f1,f1,f18,f2,unknown
    41223264:	0000                	.insn	2, 0x0000
    41223266:	0000                	.insn	2, 0x0000
    41223268:	1120e4cf          	fnmadd.s	f9,f1,f18,f2,unknown
    4122326c:	0000                	.insn	2, 0x0000
    4122326e:	0000                	.insn	2, 0x0000
    41223270:	1120e8cf          	fnmadd.s	f17,f1,f18,f2,unknown
    41223274:	0000                	.insn	2, 0x0000
    41223276:	0000                	.insn	2, 0x0000
    41223278:	1120eccf          	fnmadd.s	f25,f1,f18,f2,unknown
    4122327c:	0000                	.insn	2, 0x0000
    4122327e:	0000                	.insn	2, 0x0000
    41223280:	1120f0cf          	fnmadd.s	f1,f1,f18,f2
    41223284:	0000                	.insn	2, 0x0000
    41223286:	0000                	.insn	2, 0x0000
    41223288:	1120f4cf          	fnmadd.s	f9,f1,f18,f2
    4122328c:	0000                	.insn	2, 0x0000
    4122328e:	0000                	.insn	2, 0x0000
    41223290:	1120f8cf          	fnmadd.s	f17,f1,f18,f2
    41223294:	0000                	.insn	2, 0x0000
    41223296:	0000                	.insn	2, 0x0000
    41223298:	1120fccf          	fnmadd.s	f25,f1,f18,f2
    4122329c:	0000                	.insn	2, 0x0000
    4122329e:	0000                	.insn	2, 0x0000
    412232a0:	112100cf          	fnmadd.s	f1,f2,f18,f2,rne
    412232a4:	0000                	.insn	2, 0x0000
    412232a6:	0000                	.insn	2, 0x0000
    412232a8:	112104cf          	fnmadd.s	f9,f2,f18,f2,rne
    412232ac:	0000                	.insn	2, 0x0000
    412232ae:	0000                	.insn	2, 0x0000
    412232b0:	112108cf          	fnmadd.s	f17,f2,f18,f2,rne
    412232b4:	0000                	.insn	2, 0x0000
    412232b6:	0000                	.insn	2, 0x0000
    412232b8:	11210ccf          	fnmadd.s	f25,f2,f18,f2,rne
    412232bc:	0000                	.insn	2, 0x0000
    412232be:	0000                	.insn	2, 0x0000
    412232c0:	112110cf          	fnmadd.s	f1,f2,f18,f2,rtz
    412232c4:	0000                	.insn	2, 0x0000
    412232c6:	0000                	.insn	2, 0x0000
    412232c8:	112114cf          	fnmadd.s	f9,f2,f18,f2,rtz
    412232cc:	0000                	.insn	2, 0x0000
    412232ce:	0000                	.insn	2, 0x0000
    412232d0:	112118cf          	fnmadd.s	f17,f2,f18,f2,rtz
    412232d4:	0000                	.insn	2, 0x0000
    412232d6:	0000                	.insn	2, 0x0000
    412232d8:	11211ccf          	fnmadd.s	f25,f2,f18,f2,rtz
    412232dc:	0000                	.insn	2, 0x0000
    412232de:	0000                	.insn	2, 0x0000
    412232e0:	112120cf          	fnmadd.s	f1,f2,f18,f2,rdn
    412232e4:	0000                	.insn	2, 0x0000
    412232e6:	0000                	.insn	2, 0x0000
    412232e8:	112124cf          	fnmadd.s	f9,f2,f18,f2,rdn
    412232ec:	0000                	.insn	2, 0x0000
    412232ee:	0000                	.insn	2, 0x0000
    412232f0:	112128cf          	fnmadd.s	f17,f2,f18,f2,rdn
    412232f4:	0000                	.insn	2, 0x0000
    412232f6:	0000                	.insn	2, 0x0000
    412232f8:	11212ccf          	fnmadd.s	f25,f2,f18,f2,rdn
    412232fc:	0000                	.insn	2, 0x0000
    412232fe:	0000                	.insn	2, 0x0000
    41223300:	112130cf          	fnmadd.s	f1,f2,f18,f2,rup
    41223304:	0000                	.insn	2, 0x0000
    41223306:	0000                	.insn	2, 0x0000
    41223308:	112134cf          	fnmadd.s	f9,f2,f18,f2,rup
    4122330c:	0000                	.insn	2, 0x0000
    4122330e:	0000                	.insn	2, 0x0000
    41223310:	112138cf          	fnmadd.s	f17,f2,f18,f2,rup
    41223314:	0000                	.insn	2, 0x0000
    41223316:	0000                	.insn	2, 0x0000
    41223318:	11213ccf          	fnmadd.s	f25,f2,f18,f2,rup
    4122331c:	0000                	.insn	2, 0x0000
    4122331e:	0000                	.insn	2, 0x0000
    41223320:	112140cf          	fnmadd.s	f1,f2,f18,f2,rmm
    41223324:	0000                	.insn	2, 0x0000
    41223326:	0000                	.insn	2, 0x0000
    41223328:	112144cf          	fnmadd.s	f9,f2,f18,f2,rmm
    4122332c:	0000                	.insn	2, 0x0000
    4122332e:	0000                	.insn	2, 0x0000
    41223330:	112148cf          	fnmadd.s	f17,f2,f18,f2,rmm
    41223334:	0000                	.insn	2, 0x0000
    41223336:	0000                	.insn	2, 0x0000
    41223338:	11214ccf          	fnmadd.s	f25,f2,f18,f2,rmm
    4122333c:	0000                	.insn	2, 0x0000
    4122333e:	0000                	.insn	2, 0x0000
    41223340:	112150cf          	fnmadd.s	f1,f2,f18,f2,unknown
    41223344:	0000                	.insn	2, 0x0000
    41223346:	0000                	.insn	2, 0x0000
    41223348:	112154cf          	fnmadd.s	f9,f2,f18,f2,unknown
    4122334c:	0000                	.insn	2, 0x0000
    4122334e:	0000                	.insn	2, 0x0000
    41223350:	112158cf          	fnmadd.s	f17,f2,f18,f2,unknown
    41223354:	0000                	.insn	2, 0x0000
    41223356:	0000                	.insn	2, 0x0000
    41223358:	11215ccf          	fnmadd.s	f25,f2,f18,f2,unknown
    4122335c:	0000                	.insn	2, 0x0000
    4122335e:	0000                	.insn	2, 0x0000
    41223360:	112160cf          	fnmadd.s	f1,f2,f18,f2,unknown
    41223364:	0000                	.insn	2, 0x0000
    41223366:	0000                	.insn	2, 0x0000
    41223368:	112164cf          	fnmadd.s	f9,f2,f18,f2,unknown
    4122336c:	0000                	.insn	2, 0x0000
    4122336e:	0000                	.insn	2, 0x0000
    41223370:	112168cf          	fnmadd.s	f17,f2,f18,f2,unknown
    41223374:	0000                	.insn	2, 0x0000
    41223376:	0000                	.insn	2, 0x0000
    41223378:	11216ccf          	fnmadd.s	f25,f2,f18,f2,unknown
    4122337c:	0000                	.insn	2, 0x0000
    4122337e:	0000                	.insn	2, 0x0000
    41223380:	112170cf          	fnmadd.s	f1,f2,f18,f2
    41223384:	0000                	.insn	2, 0x0000
    41223386:	0000                	.insn	2, 0x0000
    41223388:	112174cf          	fnmadd.s	f9,f2,f18,f2
    4122338c:	0000                	.insn	2, 0x0000
    4122338e:	0000                	.insn	2, 0x0000
    41223390:	112178cf          	fnmadd.s	f17,f2,f18,f2
    41223394:	0000                	.insn	2, 0x0000
    41223396:	0000                	.insn	2, 0x0000
    41223398:	11217ccf          	fnmadd.s	f25,f2,f18,f2
    4122339c:	0000                	.insn	2, 0x0000
    4122339e:	0000                	.insn	2, 0x0000
    412233a0:	112180cf          	fnmadd.s	f1,f3,f18,f2,rne
    412233a4:	0000                	.insn	2, 0x0000
    412233a6:	0000                	.insn	2, 0x0000
    412233a8:	112184cf          	fnmadd.s	f9,f3,f18,f2,rne
    412233ac:	0000                	.insn	2, 0x0000
    412233ae:	0000                	.insn	2, 0x0000
    412233b0:	112188cf          	fnmadd.s	f17,f3,f18,f2,rne
    412233b4:	0000                	.insn	2, 0x0000
    412233b6:	0000                	.insn	2, 0x0000
    412233b8:	11218ccf          	fnmadd.s	f25,f3,f18,f2,rne
    412233bc:	0000                	.insn	2, 0x0000
    412233be:	0000                	.insn	2, 0x0000
    412233c0:	112190cf          	fnmadd.s	f1,f3,f18,f2,rtz
    412233c4:	0000                	.insn	2, 0x0000
    412233c6:	0000                	.insn	2, 0x0000
    412233c8:	112194cf          	fnmadd.s	f9,f3,f18,f2,rtz
    412233cc:	0000                	.insn	2, 0x0000
    412233ce:	0000                	.insn	2, 0x0000
    412233d0:	112198cf          	fnmadd.s	f17,f3,f18,f2,rtz
    412233d4:	0000                	.insn	2, 0x0000
    412233d6:	0000                	.insn	2, 0x0000
    412233d8:	11219ccf          	fnmadd.s	f25,f3,f18,f2,rtz
    412233dc:	0000                	.insn	2, 0x0000
    412233de:	0000                	.insn	2, 0x0000
    412233e0:	1121a0cf          	fnmadd.s	f1,f3,f18,f2,rdn
    412233e4:	0000                	.insn	2, 0x0000
    412233e6:	0000                	.insn	2, 0x0000
    412233e8:	1121a4cf          	fnmadd.s	f9,f3,f18,f2,rdn
    412233ec:	0000                	.insn	2, 0x0000
    412233ee:	0000                	.insn	2, 0x0000
    412233f0:	1121a8cf          	fnmadd.s	f17,f3,f18,f2,rdn
    412233f4:	0000                	.insn	2, 0x0000
    412233f6:	0000                	.insn	2, 0x0000
    412233f8:	1121accf          	fnmadd.s	f25,f3,f18,f2,rdn
    412233fc:	0000                	.insn	2, 0x0000
    412233fe:	0000                	.insn	2, 0x0000
    41223400:	1121b0cf          	fnmadd.s	f1,f3,f18,f2,rup
    41223404:	0000                	.insn	2, 0x0000
    41223406:	0000                	.insn	2, 0x0000
    41223408:	1121b4cf          	fnmadd.s	f9,f3,f18,f2,rup
    4122340c:	0000                	.insn	2, 0x0000
    4122340e:	0000                	.insn	2, 0x0000
    41223410:	1121b8cf          	fnmadd.s	f17,f3,f18,f2,rup
    41223414:	0000                	.insn	2, 0x0000
    41223416:	0000                	.insn	2, 0x0000
    41223418:	1121bccf          	fnmadd.s	f25,f3,f18,f2,rup
    4122341c:	0000                	.insn	2, 0x0000
    4122341e:	0000                	.insn	2, 0x0000
    41223420:	1121c0cf          	fnmadd.s	f1,f3,f18,f2,rmm
    41223424:	0000                	.insn	2, 0x0000
    41223426:	0000                	.insn	2, 0x0000
    41223428:	1121c4cf          	fnmadd.s	f9,f3,f18,f2,rmm
    4122342c:	0000                	.insn	2, 0x0000
    4122342e:	0000                	.insn	2, 0x0000
    41223430:	1121c8cf          	fnmadd.s	f17,f3,f18,f2,rmm
    41223434:	0000                	.insn	2, 0x0000
    41223436:	0000                	.insn	2, 0x0000
    41223438:	1121cccf          	fnmadd.s	f25,f3,f18,f2,rmm
    4122343c:	0000                	.insn	2, 0x0000
    4122343e:	0000                	.insn	2, 0x0000
    41223440:	1121d0cf          	fnmadd.s	f1,f3,f18,f2,unknown
    41223444:	0000                	.insn	2, 0x0000
    41223446:	0000                	.insn	2, 0x0000
    41223448:	1121d4cf          	fnmadd.s	f9,f3,f18,f2,unknown
    4122344c:	0000                	.insn	2, 0x0000
    4122344e:	0000                	.insn	2, 0x0000
    41223450:	1121d8cf          	fnmadd.s	f17,f3,f18,f2,unknown
    41223454:	0000                	.insn	2, 0x0000
    41223456:	0000                	.insn	2, 0x0000
    41223458:	1121dccf          	fnmadd.s	f25,f3,f18,f2,unknown
    4122345c:	0000                	.insn	2, 0x0000
    4122345e:	0000                	.insn	2, 0x0000
    41223460:	1121e0cf          	fnmadd.s	f1,f3,f18,f2,unknown
    41223464:	0000                	.insn	2, 0x0000
    41223466:	0000                	.insn	2, 0x0000
    41223468:	1121e4cf          	fnmadd.s	f9,f3,f18,f2,unknown
    4122346c:	0000                	.insn	2, 0x0000
    4122346e:	0000                	.insn	2, 0x0000
    41223470:	1121e8cf          	fnmadd.s	f17,f3,f18,f2,unknown
    41223474:	0000                	.insn	2, 0x0000
    41223476:	0000                	.insn	2, 0x0000
    41223478:	1121eccf          	fnmadd.s	f25,f3,f18,f2,unknown
    4122347c:	0000                	.insn	2, 0x0000
    4122347e:	0000                	.insn	2, 0x0000
    41223480:	1121f0cf          	fnmadd.s	f1,f3,f18,f2
    41223484:	0000                	.insn	2, 0x0000
    41223486:	0000                	.insn	2, 0x0000
    41223488:	1121f4cf          	fnmadd.s	f9,f3,f18,f2
    4122348c:	0000                	.insn	2, 0x0000
    4122348e:	0000                	.insn	2, 0x0000
    41223490:	1121f8cf          	fnmadd.s	f17,f3,f18,f2
    41223494:	0000                	.insn	2, 0x0000
    41223496:	0000                	.insn	2, 0x0000
    41223498:	1121fccf          	fnmadd.s	f25,f3,f18,f2
    4122349c:	0000                	.insn	2, 0x0000
    4122349e:	0000                	.insn	2, 0x0000
    412234a0:	112200cf          	fnmadd.s	f1,f4,f18,f2,rne
    412234a4:	0000                	.insn	2, 0x0000
    412234a6:	0000                	.insn	2, 0x0000
    412234a8:	112204cf          	fnmadd.s	f9,f4,f18,f2,rne
    412234ac:	0000                	.insn	2, 0x0000
    412234ae:	0000                	.insn	2, 0x0000
    412234b0:	112208cf          	fnmadd.s	f17,f4,f18,f2,rne
    412234b4:	0000                	.insn	2, 0x0000
    412234b6:	0000                	.insn	2, 0x0000
    412234b8:	11220ccf          	fnmadd.s	f25,f4,f18,f2,rne
    412234bc:	0000                	.insn	2, 0x0000
    412234be:	0000                	.insn	2, 0x0000
    412234c0:	112210cf          	fnmadd.s	f1,f4,f18,f2,rtz
    412234c4:	0000                	.insn	2, 0x0000
    412234c6:	0000                	.insn	2, 0x0000
    412234c8:	112214cf          	fnmadd.s	f9,f4,f18,f2,rtz
    412234cc:	0000                	.insn	2, 0x0000
    412234ce:	0000                	.insn	2, 0x0000
    412234d0:	112218cf          	fnmadd.s	f17,f4,f18,f2,rtz
    412234d4:	0000                	.insn	2, 0x0000
    412234d6:	0000                	.insn	2, 0x0000
    412234d8:	11221ccf          	fnmadd.s	f25,f4,f18,f2,rtz
    412234dc:	0000                	.insn	2, 0x0000
    412234de:	0000                	.insn	2, 0x0000
    412234e0:	112220cf          	fnmadd.s	f1,f4,f18,f2,rdn
    412234e4:	0000                	.insn	2, 0x0000
    412234e6:	0000                	.insn	2, 0x0000
    412234e8:	112224cf          	fnmadd.s	f9,f4,f18,f2,rdn
    412234ec:	0000                	.insn	2, 0x0000
    412234ee:	0000                	.insn	2, 0x0000
    412234f0:	112228cf          	fnmadd.s	f17,f4,f18,f2,rdn
    412234f4:	0000                	.insn	2, 0x0000
    412234f6:	0000                	.insn	2, 0x0000
    412234f8:	11222ccf          	fnmadd.s	f25,f4,f18,f2,rdn
    412234fc:	0000                	.insn	2, 0x0000
    412234fe:	0000                	.insn	2, 0x0000
    41223500:	112230cf          	fnmadd.s	f1,f4,f18,f2,rup
    41223504:	0000                	.insn	2, 0x0000
    41223506:	0000                	.insn	2, 0x0000
    41223508:	112234cf          	fnmadd.s	f9,f4,f18,f2,rup
    4122350c:	0000                	.insn	2, 0x0000
    4122350e:	0000                	.insn	2, 0x0000
    41223510:	112238cf          	fnmadd.s	f17,f4,f18,f2,rup
    41223514:	0000                	.insn	2, 0x0000
    41223516:	0000                	.insn	2, 0x0000
    41223518:	11223ccf          	fnmadd.s	f25,f4,f18,f2,rup
    4122351c:	0000                	.insn	2, 0x0000
    4122351e:	0000                	.insn	2, 0x0000
    41223520:	112240cf          	fnmadd.s	f1,f4,f18,f2,rmm
    41223524:	0000                	.insn	2, 0x0000
    41223526:	0000                	.insn	2, 0x0000
    41223528:	112244cf          	fnmadd.s	f9,f4,f18,f2,rmm
    4122352c:	0000                	.insn	2, 0x0000
    4122352e:	0000                	.insn	2, 0x0000
    41223530:	112248cf          	fnmadd.s	f17,f4,f18,f2,rmm
    41223534:	0000                	.insn	2, 0x0000
    41223536:	0000                	.insn	2, 0x0000
    41223538:	11224ccf          	fnmadd.s	f25,f4,f18,f2,rmm
    4122353c:	0000                	.insn	2, 0x0000
    4122353e:	0000                	.insn	2, 0x0000
    41223540:	112250cf          	fnmadd.s	f1,f4,f18,f2,unknown
    41223544:	0000                	.insn	2, 0x0000
    41223546:	0000                	.insn	2, 0x0000
    41223548:	112254cf          	fnmadd.s	f9,f4,f18,f2,unknown
    4122354c:	0000                	.insn	2, 0x0000
    4122354e:	0000                	.insn	2, 0x0000
    41223550:	112258cf          	fnmadd.s	f17,f4,f18,f2,unknown
    41223554:	0000                	.insn	2, 0x0000
    41223556:	0000                	.insn	2, 0x0000
    41223558:	11225ccf          	fnmadd.s	f25,f4,f18,f2,unknown
    4122355c:	0000                	.insn	2, 0x0000
    4122355e:	0000                	.insn	2, 0x0000
    41223560:	112260cf          	fnmadd.s	f1,f4,f18,f2,unknown
    41223564:	0000                	.insn	2, 0x0000
    41223566:	0000                	.insn	2, 0x0000
    41223568:	112264cf          	fnmadd.s	f9,f4,f18,f2,unknown
    4122356c:	0000                	.insn	2, 0x0000
    4122356e:	0000                	.insn	2, 0x0000
    41223570:	112268cf          	fnmadd.s	f17,f4,f18,f2,unknown
    41223574:	0000                	.insn	2, 0x0000
    41223576:	0000                	.insn	2, 0x0000
    41223578:	11226ccf          	fnmadd.s	f25,f4,f18,f2,unknown
    4122357c:	0000                	.insn	2, 0x0000
    4122357e:	0000                	.insn	2, 0x0000
    41223580:	112270cf          	fnmadd.s	f1,f4,f18,f2
    41223584:	0000                	.insn	2, 0x0000
    41223586:	0000                	.insn	2, 0x0000
    41223588:	112274cf          	fnmadd.s	f9,f4,f18,f2
    4122358c:	0000                	.insn	2, 0x0000
    4122358e:	0000                	.insn	2, 0x0000
    41223590:	112278cf          	fnmadd.s	f17,f4,f18,f2
    41223594:	0000                	.insn	2, 0x0000
    41223596:	0000                	.insn	2, 0x0000
    41223598:	11227ccf          	fnmadd.s	f25,f4,f18,f2
    4122359c:	0000                	.insn	2, 0x0000
    4122359e:	0000                	.insn	2, 0x0000
    412235a0:	112280cf          	fnmadd.s	f1,f5,f18,f2,rne
    412235a4:	0000                	.insn	2, 0x0000
    412235a6:	0000                	.insn	2, 0x0000
    412235a8:	112284cf          	fnmadd.s	f9,f5,f18,f2,rne
    412235ac:	0000                	.insn	2, 0x0000
    412235ae:	0000                	.insn	2, 0x0000
    412235b0:	112288cf          	fnmadd.s	f17,f5,f18,f2,rne
    412235b4:	0000                	.insn	2, 0x0000
    412235b6:	0000                	.insn	2, 0x0000
    412235b8:	11228ccf          	fnmadd.s	f25,f5,f18,f2,rne
    412235bc:	0000                	.insn	2, 0x0000
    412235be:	0000                	.insn	2, 0x0000
    412235c0:	112290cf          	fnmadd.s	f1,f5,f18,f2,rtz
    412235c4:	0000                	.insn	2, 0x0000
    412235c6:	0000                	.insn	2, 0x0000
    412235c8:	112294cf          	fnmadd.s	f9,f5,f18,f2,rtz
    412235cc:	0000                	.insn	2, 0x0000
    412235ce:	0000                	.insn	2, 0x0000
    412235d0:	112298cf          	fnmadd.s	f17,f5,f18,f2,rtz
    412235d4:	0000                	.insn	2, 0x0000
    412235d6:	0000                	.insn	2, 0x0000
    412235d8:	11229ccf          	fnmadd.s	f25,f5,f18,f2,rtz
    412235dc:	0000                	.insn	2, 0x0000
    412235de:	0000                	.insn	2, 0x0000
    412235e0:	1122a0cf          	fnmadd.s	f1,f5,f18,f2,rdn
    412235e4:	0000                	.insn	2, 0x0000
    412235e6:	0000                	.insn	2, 0x0000
    412235e8:	1122a4cf          	fnmadd.s	f9,f5,f18,f2,rdn
    412235ec:	0000                	.insn	2, 0x0000
    412235ee:	0000                	.insn	2, 0x0000
    412235f0:	1122a8cf          	fnmadd.s	f17,f5,f18,f2,rdn
    412235f4:	0000                	.insn	2, 0x0000
    412235f6:	0000                	.insn	2, 0x0000
    412235f8:	1122accf          	fnmadd.s	f25,f5,f18,f2,rdn
    412235fc:	0000                	.insn	2, 0x0000
    412235fe:	0000                	.insn	2, 0x0000
    41223600:	1122b0cf          	fnmadd.s	f1,f5,f18,f2,rup
    41223604:	0000                	.insn	2, 0x0000
    41223606:	0000                	.insn	2, 0x0000
    41223608:	1122b4cf          	fnmadd.s	f9,f5,f18,f2,rup
    4122360c:	0000                	.insn	2, 0x0000
    4122360e:	0000                	.insn	2, 0x0000
    41223610:	1122b8cf          	fnmadd.s	f17,f5,f18,f2,rup
    41223614:	0000                	.insn	2, 0x0000
    41223616:	0000                	.insn	2, 0x0000
    41223618:	1122bccf          	fnmadd.s	f25,f5,f18,f2,rup
    4122361c:	0000                	.insn	2, 0x0000
    4122361e:	0000                	.insn	2, 0x0000
    41223620:	1122c0cf          	fnmadd.s	f1,f5,f18,f2,rmm
    41223624:	0000                	.insn	2, 0x0000
    41223626:	0000                	.insn	2, 0x0000
    41223628:	1122c4cf          	fnmadd.s	f9,f5,f18,f2,rmm
    4122362c:	0000                	.insn	2, 0x0000
    4122362e:	0000                	.insn	2, 0x0000
    41223630:	1122c8cf          	fnmadd.s	f17,f5,f18,f2,rmm
    41223634:	0000                	.insn	2, 0x0000
    41223636:	0000                	.insn	2, 0x0000
    41223638:	1122cccf          	fnmadd.s	f25,f5,f18,f2,rmm
    4122363c:	0000                	.insn	2, 0x0000
    4122363e:	0000                	.insn	2, 0x0000
    41223640:	1122d0cf          	fnmadd.s	f1,f5,f18,f2,unknown
    41223644:	0000                	.insn	2, 0x0000
    41223646:	0000                	.insn	2, 0x0000
    41223648:	1122d4cf          	fnmadd.s	f9,f5,f18,f2,unknown
    4122364c:	0000                	.insn	2, 0x0000
    4122364e:	0000                	.insn	2, 0x0000
    41223650:	1122d8cf          	fnmadd.s	f17,f5,f18,f2,unknown
    41223654:	0000                	.insn	2, 0x0000
    41223656:	0000                	.insn	2, 0x0000
    41223658:	1122dccf          	fnmadd.s	f25,f5,f18,f2,unknown
    4122365c:	0000                	.insn	2, 0x0000
    4122365e:	0000                	.insn	2, 0x0000
    41223660:	1122e0cf          	fnmadd.s	f1,f5,f18,f2,unknown
    41223664:	0000                	.insn	2, 0x0000
    41223666:	0000                	.insn	2, 0x0000
    41223668:	1122e4cf          	fnmadd.s	f9,f5,f18,f2,unknown
    4122366c:	0000                	.insn	2, 0x0000
    4122366e:	0000                	.insn	2, 0x0000
    41223670:	1122e8cf          	fnmadd.s	f17,f5,f18,f2,unknown
    41223674:	0000                	.insn	2, 0x0000
    41223676:	0000                	.insn	2, 0x0000
    41223678:	1122eccf          	fnmadd.s	f25,f5,f18,f2,unknown
    4122367c:	0000                	.insn	2, 0x0000
    4122367e:	0000                	.insn	2, 0x0000
    41223680:	1122f0cf          	fnmadd.s	f1,f5,f18,f2
    41223684:	0000                	.insn	2, 0x0000
    41223686:	0000                	.insn	2, 0x0000
    41223688:	1122f4cf          	fnmadd.s	f9,f5,f18,f2
    4122368c:	0000                	.insn	2, 0x0000
    4122368e:	0000                	.insn	2, 0x0000
    41223690:	1122f8cf          	fnmadd.s	f17,f5,f18,f2
    41223694:	0000                	.insn	2, 0x0000
    41223696:	0000                	.insn	2, 0x0000
    41223698:	1122fccf          	fnmadd.s	f25,f5,f18,f2
    4122369c:	0000                	.insn	2, 0x0000
    4122369e:	0000                	.insn	2, 0x0000
    412236a0:	112300cf          	fnmadd.s	f1,f6,f18,f2,rne
    412236a4:	0000                	.insn	2, 0x0000
    412236a6:	0000                	.insn	2, 0x0000
    412236a8:	112304cf          	fnmadd.s	f9,f6,f18,f2,rne
    412236ac:	0000                	.insn	2, 0x0000
    412236ae:	0000                	.insn	2, 0x0000
    412236b0:	112308cf          	fnmadd.s	f17,f6,f18,f2,rne
    412236b4:	0000                	.insn	2, 0x0000
    412236b6:	0000                	.insn	2, 0x0000
    412236b8:	11230ccf          	fnmadd.s	f25,f6,f18,f2,rne
    412236bc:	0000                	.insn	2, 0x0000
    412236be:	0000                	.insn	2, 0x0000
    412236c0:	112310cf          	fnmadd.s	f1,f6,f18,f2,rtz
    412236c4:	0000                	.insn	2, 0x0000
    412236c6:	0000                	.insn	2, 0x0000
    412236c8:	112314cf          	fnmadd.s	f9,f6,f18,f2,rtz
    412236cc:	0000                	.insn	2, 0x0000
    412236ce:	0000                	.insn	2, 0x0000
    412236d0:	112318cf          	fnmadd.s	f17,f6,f18,f2,rtz
    412236d4:	0000                	.insn	2, 0x0000
    412236d6:	0000                	.insn	2, 0x0000
    412236d8:	11231ccf          	fnmadd.s	f25,f6,f18,f2,rtz
    412236dc:	0000                	.insn	2, 0x0000
    412236de:	0000                	.insn	2, 0x0000
    412236e0:	112320cf          	fnmadd.s	f1,f6,f18,f2,rdn
    412236e4:	0000                	.insn	2, 0x0000
    412236e6:	0000                	.insn	2, 0x0000
    412236e8:	112324cf          	fnmadd.s	f9,f6,f18,f2,rdn
    412236ec:	0000                	.insn	2, 0x0000
    412236ee:	0000                	.insn	2, 0x0000
    412236f0:	112328cf          	fnmadd.s	f17,f6,f18,f2,rdn
    412236f4:	0000                	.insn	2, 0x0000
    412236f6:	0000                	.insn	2, 0x0000
    412236f8:	11232ccf          	fnmadd.s	f25,f6,f18,f2,rdn
    412236fc:	0000                	.insn	2, 0x0000
    412236fe:	0000                	.insn	2, 0x0000
    41223700:	112330cf          	fnmadd.s	f1,f6,f18,f2,rup
    41223704:	0000                	.insn	2, 0x0000
    41223706:	0000                	.insn	2, 0x0000
    41223708:	112334cf          	fnmadd.s	f9,f6,f18,f2,rup
    4122370c:	0000                	.insn	2, 0x0000
    4122370e:	0000                	.insn	2, 0x0000
    41223710:	112338cf          	fnmadd.s	f17,f6,f18,f2,rup
    41223714:	0000                	.insn	2, 0x0000
    41223716:	0000                	.insn	2, 0x0000
    41223718:	11233ccf          	fnmadd.s	f25,f6,f18,f2,rup
    4122371c:	0000                	.insn	2, 0x0000
    4122371e:	0000                	.insn	2, 0x0000
    41223720:	112340cf          	fnmadd.s	f1,f6,f18,f2,rmm
    41223724:	0000                	.insn	2, 0x0000
    41223726:	0000                	.insn	2, 0x0000
    41223728:	112344cf          	fnmadd.s	f9,f6,f18,f2,rmm
    4122372c:	0000                	.insn	2, 0x0000
    4122372e:	0000                	.insn	2, 0x0000
    41223730:	112348cf          	fnmadd.s	f17,f6,f18,f2,rmm
    41223734:	0000                	.insn	2, 0x0000
    41223736:	0000                	.insn	2, 0x0000
    41223738:	11234ccf          	fnmadd.s	f25,f6,f18,f2,rmm
    4122373c:	0000                	.insn	2, 0x0000
    4122373e:	0000                	.insn	2, 0x0000
    41223740:	112350cf          	fnmadd.s	f1,f6,f18,f2,unknown
    41223744:	0000                	.insn	2, 0x0000
    41223746:	0000                	.insn	2, 0x0000
    41223748:	112354cf          	fnmadd.s	f9,f6,f18,f2,unknown
    4122374c:	0000                	.insn	2, 0x0000
    4122374e:	0000                	.insn	2, 0x0000
    41223750:	112358cf          	fnmadd.s	f17,f6,f18,f2,unknown
    41223754:	0000                	.insn	2, 0x0000
    41223756:	0000                	.insn	2, 0x0000
    41223758:	11235ccf          	fnmadd.s	f25,f6,f18,f2,unknown
    4122375c:	0000                	.insn	2, 0x0000
    4122375e:	0000                	.insn	2, 0x0000
    41223760:	112360cf          	fnmadd.s	f1,f6,f18,f2,unknown
    41223764:	0000                	.insn	2, 0x0000
    41223766:	0000                	.insn	2, 0x0000
    41223768:	112364cf          	fnmadd.s	f9,f6,f18,f2,unknown
    4122376c:	0000                	.insn	2, 0x0000
    4122376e:	0000                	.insn	2, 0x0000
    41223770:	112368cf          	fnmadd.s	f17,f6,f18,f2,unknown
    41223774:	0000                	.insn	2, 0x0000
    41223776:	0000                	.insn	2, 0x0000
    41223778:	11236ccf          	fnmadd.s	f25,f6,f18,f2,unknown
    4122377c:	0000                	.insn	2, 0x0000
    4122377e:	0000                	.insn	2, 0x0000
    41223780:	112370cf          	fnmadd.s	f1,f6,f18,f2
    41223784:	0000                	.insn	2, 0x0000
    41223786:	0000                	.insn	2, 0x0000
    41223788:	112374cf          	fnmadd.s	f9,f6,f18,f2
    4122378c:	0000                	.insn	2, 0x0000
    4122378e:	0000                	.insn	2, 0x0000
    41223790:	112378cf          	fnmadd.s	f17,f6,f18,f2
    41223794:	0000                	.insn	2, 0x0000
    41223796:	0000                	.insn	2, 0x0000
    41223798:	11237ccf          	fnmadd.s	f25,f6,f18,f2
    4122379c:	0000                	.insn	2, 0x0000
    4122379e:	0000                	.insn	2, 0x0000
    412237a0:	112380cf          	fnmadd.s	f1,f7,f18,f2,rne
    412237a4:	0000                	.insn	2, 0x0000
    412237a6:	0000                	.insn	2, 0x0000
    412237a8:	112384cf          	fnmadd.s	f9,f7,f18,f2,rne
    412237ac:	0000                	.insn	2, 0x0000
    412237ae:	0000                	.insn	2, 0x0000
    412237b0:	112388cf          	fnmadd.s	f17,f7,f18,f2,rne
    412237b4:	0000                	.insn	2, 0x0000
    412237b6:	0000                	.insn	2, 0x0000
    412237b8:	11238ccf          	fnmadd.s	f25,f7,f18,f2,rne
    412237bc:	0000                	.insn	2, 0x0000
    412237be:	0000                	.insn	2, 0x0000
    412237c0:	112390cf          	fnmadd.s	f1,f7,f18,f2,rtz
    412237c4:	0000                	.insn	2, 0x0000
    412237c6:	0000                	.insn	2, 0x0000
    412237c8:	112394cf          	fnmadd.s	f9,f7,f18,f2,rtz
    412237cc:	0000                	.insn	2, 0x0000
    412237ce:	0000                	.insn	2, 0x0000
    412237d0:	112398cf          	fnmadd.s	f17,f7,f18,f2,rtz
    412237d4:	0000                	.insn	2, 0x0000
    412237d6:	0000                	.insn	2, 0x0000
    412237d8:	11239ccf          	fnmadd.s	f25,f7,f18,f2,rtz
    412237dc:	0000                	.insn	2, 0x0000
    412237de:	0000                	.insn	2, 0x0000
    412237e0:	1123a0cf          	fnmadd.s	f1,f7,f18,f2,rdn
    412237e4:	0000                	.insn	2, 0x0000
    412237e6:	0000                	.insn	2, 0x0000
    412237e8:	1123a4cf          	fnmadd.s	f9,f7,f18,f2,rdn
    412237ec:	0000                	.insn	2, 0x0000
    412237ee:	0000                	.insn	2, 0x0000
    412237f0:	1123a8cf          	fnmadd.s	f17,f7,f18,f2,rdn
    412237f4:	0000                	.insn	2, 0x0000
    412237f6:	0000                	.insn	2, 0x0000
    412237f8:	1123accf          	fnmadd.s	f25,f7,f18,f2,rdn
    412237fc:	0000                	.insn	2, 0x0000
    412237fe:	0000                	.insn	2, 0x0000
    41223800:	1123b0cf          	fnmadd.s	f1,f7,f18,f2,rup
    41223804:	0000                	.insn	2, 0x0000
    41223806:	0000                	.insn	2, 0x0000
    41223808:	1123b4cf          	fnmadd.s	f9,f7,f18,f2,rup
    4122380c:	0000                	.insn	2, 0x0000
    4122380e:	0000                	.insn	2, 0x0000
    41223810:	1123b8cf          	fnmadd.s	f17,f7,f18,f2,rup
    41223814:	0000                	.insn	2, 0x0000
    41223816:	0000                	.insn	2, 0x0000
    41223818:	1123bccf          	fnmadd.s	f25,f7,f18,f2,rup
    4122381c:	0000                	.insn	2, 0x0000
    4122381e:	0000                	.insn	2, 0x0000
    41223820:	1123c0cf          	fnmadd.s	f1,f7,f18,f2,rmm
    41223824:	0000                	.insn	2, 0x0000
    41223826:	0000                	.insn	2, 0x0000
    41223828:	1123c4cf          	fnmadd.s	f9,f7,f18,f2,rmm
    4122382c:	0000                	.insn	2, 0x0000
    4122382e:	0000                	.insn	2, 0x0000
    41223830:	1123c8cf          	fnmadd.s	f17,f7,f18,f2,rmm
    41223834:	0000                	.insn	2, 0x0000
    41223836:	0000                	.insn	2, 0x0000
    41223838:	1123cccf          	fnmadd.s	f25,f7,f18,f2,rmm
    4122383c:	0000                	.insn	2, 0x0000
    4122383e:	0000                	.insn	2, 0x0000
    41223840:	1123d0cf          	fnmadd.s	f1,f7,f18,f2,unknown
    41223844:	0000                	.insn	2, 0x0000
    41223846:	0000                	.insn	2, 0x0000
    41223848:	1123d4cf          	fnmadd.s	f9,f7,f18,f2,unknown
    4122384c:	0000                	.insn	2, 0x0000
    4122384e:	0000                	.insn	2, 0x0000
    41223850:	1123d8cf          	fnmadd.s	f17,f7,f18,f2,unknown
    41223854:	0000                	.insn	2, 0x0000
    41223856:	0000                	.insn	2, 0x0000
    41223858:	1123dccf          	fnmadd.s	f25,f7,f18,f2,unknown
    4122385c:	0000                	.insn	2, 0x0000
    4122385e:	0000                	.insn	2, 0x0000
    41223860:	1123e0cf          	fnmadd.s	f1,f7,f18,f2,unknown
    41223864:	0000                	.insn	2, 0x0000
    41223866:	0000                	.insn	2, 0x0000
    41223868:	1123e4cf          	fnmadd.s	f9,f7,f18,f2,unknown
    4122386c:	0000                	.insn	2, 0x0000
    4122386e:	0000                	.insn	2, 0x0000
    41223870:	1123e8cf          	fnmadd.s	f17,f7,f18,f2,unknown
    41223874:	0000                	.insn	2, 0x0000
    41223876:	0000                	.insn	2, 0x0000
    41223878:	1123eccf          	fnmadd.s	f25,f7,f18,f2,unknown
    4122387c:	0000                	.insn	2, 0x0000
    4122387e:	0000                	.insn	2, 0x0000
    41223880:	1123f0cf          	fnmadd.s	f1,f7,f18,f2
    41223884:	0000                	.insn	2, 0x0000
    41223886:	0000                	.insn	2, 0x0000
    41223888:	1123f4cf          	fnmadd.s	f9,f7,f18,f2
    4122388c:	0000                	.insn	2, 0x0000
    4122388e:	0000                	.insn	2, 0x0000
    41223890:	1123f8cf          	fnmadd.s	f17,f7,f18,f2
    41223894:	0000                	.insn	2, 0x0000
    41223896:	0000                	.insn	2, 0x0000
    41223898:	1123fccf          	fnmadd.s	f25,f7,f18,f2
    4122389c:	0000                	.insn	2, 0x0000
    4122389e:	0000                	.insn	2, 0x0000
    412238a0:	00df 1124 0000      	.insn	6, 0x112400df
    412238a6:	0000                	.insn	2, 0x0000
    412238a8:	04df 1124 0000      	.insn	6, 0x112404df
    412238ae:	0000                	.insn	2, 0x0000
    412238b0:	08df 1124 0000      	.insn	6, 0x112408df
    412238b6:	0000                	.insn	2, 0x0000
    412238b8:	0cdf 1124 0000      	.insn	6, 0x11240cdf
    412238be:	0000                	.insn	2, 0x0000
    412238c0:	10df 1124 0000      	.insn	6, 0x112410df
    412238c6:	0000                	.insn	2, 0x0000
    412238c8:	14df 1124 0000      	.insn	6, 0x112414df
    412238ce:	0000                	.insn	2, 0x0000
    412238d0:	18df 1124 0000      	.insn	6, 0x112418df
    412238d6:	0000                	.insn	2, 0x0000
    412238d8:	1cdf 1124 0000      	.insn	6, 0x11241cdf
    412238de:	0000                	.insn	2, 0x0000
    412238e0:	20df 1124 0000      	.insn	6, 0x112420df
    412238e6:	0000                	.insn	2, 0x0000
    412238e8:	24df 1124 0000      	.insn	6, 0x112424df
    412238ee:	0000                	.insn	2, 0x0000
    412238f0:	28df 1124 0000      	.insn	6, 0x112428df
    412238f6:	0000                	.insn	2, 0x0000
    412238f8:	2cdf 1124 0000      	.insn	6, 0x11242cdf
    412238fe:	0000                	.insn	2, 0x0000
    41223900:	30df 1124 0000      	.insn	6, 0x112430df
    41223906:	0000                	.insn	2, 0x0000
    41223908:	34df 1124 0000      	.insn	6, 0x112434df
    4122390e:	0000                	.insn	2, 0x0000
    41223910:	38df 1124 0000      	.insn	6, 0x112438df
    41223916:	0000                	.insn	2, 0x0000
    41223918:	3cdf 1124 0000      	.insn	6, 0x11243cdf
    4122391e:	0000                	.insn	2, 0x0000
    41223920:	40df 1124 0000      	.insn	6, 0x112440df
    41223926:	0000                	.insn	2, 0x0000
    41223928:	44df 1124 0000      	.insn	6, 0x112444df
    4122392e:	0000                	.insn	2, 0x0000
    41223930:	48df 1124 0000      	.insn	6, 0x112448df
    41223936:	0000                	.insn	2, 0x0000
    41223938:	4cdf 1124 0000      	.insn	6, 0x11244cdf
    4122393e:	0000                	.insn	2, 0x0000
    41223940:	50df 1124 0000      	.insn	6, 0x112450df
    41223946:	0000                	.insn	2, 0x0000
    41223948:	54df 1124 0000      	.insn	6, 0x112454df
    4122394e:	0000                	.insn	2, 0x0000
    41223950:	58df 1124 0000      	.insn	6, 0x112458df
    41223956:	0000                	.insn	2, 0x0000
    41223958:	5cdf 1124 0000      	.insn	6, 0x11245cdf
    4122395e:	0000                	.insn	2, 0x0000
    41223960:	60df 1124 0000      	.insn	6, 0x112460df
    41223966:	0000                	.insn	2, 0x0000
    41223968:	64df 1124 0000      	.insn	6, 0x112464df
    4122396e:	0000                	.insn	2, 0x0000
    41223970:	68df 1124 0000      	.insn	6, 0x112468df
    41223976:	0000                	.insn	2, 0x0000
    41223978:	6cdf 1124 0000      	.insn	6, 0x11246cdf
    4122397e:	0000                	.insn	2, 0x0000
    41223980:	70df 1124 0000      	.insn	6, 0x112470df
    41223986:	0000                	.insn	2, 0x0000
    41223988:	74df 1124 0000      	.insn	6, 0x112474df
    4122398e:	0000                	.insn	2, 0x0000
    41223990:	78df 1124 0000      	.insn	6, 0x112478df
    41223996:	0000                	.insn	2, 0x0000
    41223998:	7cdf 1124 0000      	.insn	6, 0x11247cdf
    4122399e:	0000                	.insn	2, 0x0000
    412239a0:	80df 1124 0000      	.insn	6, 0x112480df
    412239a6:	0000                	.insn	2, 0x0000
    412239a8:	84df 1124 0000      	.insn	6, 0x112484df
    412239ae:	0000                	.insn	2, 0x0000
    412239b0:	88df 1124 0000      	.insn	6, 0x112488df
    412239b6:	0000                	.insn	2, 0x0000
    412239b8:	8cdf 1124 0000      	.insn	6, 0x11248cdf
    412239be:	0000                	.insn	2, 0x0000
    412239c0:	90df 1124 0000      	.insn	6, 0x112490df
    412239c6:	0000                	.insn	2, 0x0000
    412239c8:	94df 1124 0000      	.insn	6, 0x112494df
    412239ce:	0000                	.insn	2, 0x0000
    412239d0:	98df 1124 0000      	.insn	6, 0x112498df
    412239d6:	0000                	.insn	2, 0x0000
    412239d8:	9cdf 1124 0000      	.insn	6, 0x11249cdf
    412239de:	0000                	.insn	2, 0x0000
    412239e0:	a0df 1124 0000      	.insn	6, 0x1124a0df
    412239e6:	0000                	.insn	2, 0x0000
    412239e8:	a4df 1124 0000      	.insn	6, 0x1124a4df
    412239ee:	0000                	.insn	2, 0x0000
    412239f0:	a8df 1124 0000      	.insn	6, 0x1124a8df
    412239f6:	0000                	.insn	2, 0x0000
    412239f8:	acdf 1124 0000      	.insn	6, 0x1124acdf
    412239fe:	0000                	.insn	2, 0x0000
    41223a00:	b0df 1124 0000      	.insn	6, 0x1124b0df
    41223a06:	0000                	.insn	2, 0x0000
    41223a08:	b4df 1124 0000      	.insn	6, 0x1124b4df
    41223a0e:	0000                	.insn	2, 0x0000
    41223a10:	b8df 1124 0000      	.insn	6, 0x1124b8df
    41223a16:	0000                	.insn	2, 0x0000
    41223a18:	bcdf 1124 0000      	.insn	6, 0x1124bcdf
    41223a1e:	0000                	.insn	2, 0x0000
    41223a20:	c0df 1124 0000      	.insn	6, 0x1124c0df
    41223a26:	0000                	.insn	2, 0x0000
    41223a28:	c4df 1124 0000      	.insn	6, 0x1124c4df
    41223a2e:	0000                	.insn	2, 0x0000
    41223a30:	c8df 1124 0000      	.insn	6, 0x1124c8df
    41223a36:	0000                	.insn	2, 0x0000
    41223a38:	ccdf 1124 0000      	.insn	6, 0x1124ccdf
    41223a3e:	0000                	.insn	2, 0x0000
    41223a40:	d0df 1124 0000      	.insn	6, 0x1124d0df
    41223a46:	0000                	.insn	2, 0x0000
    41223a48:	d4df 1124 0000      	.insn	6, 0x1124d4df
    41223a4e:	0000                	.insn	2, 0x0000
    41223a50:	d8df 1124 0000      	.insn	6, 0x1124d8df
    41223a56:	0000                	.insn	2, 0x0000
    41223a58:	dcdf 1124 0000      	.insn	6, 0x1124dcdf
    41223a5e:	0000                	.insn	2, 0x0000
    41223a60:	e0df 1124 0000      	.insn	6, 0x1124e0df
    41223a66:	0000                	.insn	2, 0x0000
    41223a68:	e4df 1124 0000      	.insn	6, 0x1124e4df
    41223a6e:	0000                	.insn	2, 0x0000
    41223a70:	e8df 1124 0000      	.insn	6, 0x1124e8df
    41223a76:	0000                	.insn	2, 0x0000
    41223a78:	ecdf 1124 0000      	.insn	6, 0x1124ecdf
    41223a7e:	0000                	.insn	2, 0x0000
    41223a80:	f0df 1124 0000      	.insn	6, 0x1124f0df
    41223a86:	0000                	.insn	2, 0x0000
    41223a88:	f4df 1124 0000      	.insn	6, 0x1124f4df
    41223a8e:	0000                	.insn	2, 0x0000
    41223a90:	f8df 1124 0000      	.insn	6, 0x1124f8df
    41223a96:	0000                	.insn	2, 0x0000
    41223a98:	fcdf 1124 0000      	.insn	6, 0x1124fcdf
    41223a9e:	0000                	.insn	2, 0x0000
    41223aa0:	00df 1125 0000      	.insn	6, 0x112500df
    41223aa6:	0000                	.insn	2, 0x0000
    41223aa8:	04df 1125 0000      	.insn	6, 0x112504df
    41223aae:	0000                	.insn	2, 0x0000
    41223ab0:	08df 1125 0000      	.insn	6, 0x112508df
    41223ab6:	0000                	.insn	2, 0x0000
    41223ab8:	0cdf 1125 0000      	.insn	6, 0x11250cdf
    41223abe:	0000                	.insn	2, 0x0000
    41223ac0:	10df 1125 0000      	.insn	6, 0x112510df
    41223ac6:	0000                	.insn	2, 0x0000
    41223ac8:	14df 1125 0000      	.insn	6, 0x112514df
    41223ace:	0000                	.insn	2, 0x0000
    41223ad0:	18df 1125 0000      	.insn	6, 0x112518df
    41223ad6:	0000                	.insn	2, 0x0000
    41223ad8:	1cdf 1125 0000      	.insn	6, 0x11251cdf
    41223ade:	0000                	.insn	2, 0x0000
    41223ae0:	20df 1125 0000      	.insn	6, 0x112520df
    41223ae6:	0000                	.insn	2, 0x0000
    41223ae8:	24df 1125 0000      	.insn	6, 0x112524df
    41223aee:	0000                	.insn	2, 0x0000
    41223af0:	28df 1125 0000      	.insn	6, 0x112528df
    41223af6:	0000                	.insn	2, 0x0000
    41223af8:	2cdf 1125 0000      	.insn	6, 0x11252cdf
    41223afe:	0000                	.insn	2, 0x0000
    41223b00:	30df 1125 0000      	.insn	6, 0x112530df
    41223b06:	0000                	.insn	2, 0x0000
    41223b08:	34df 1125 0000      	.insn	6, 0x112534df
    41223b0e:	0000                	.insn	2, 0x0000
    41223b10:	38df 1125 0000      	.insn	6, 0x112538df
    41223b16:	0000                	.insn	2, 0x0000
    41223b18:	3cdf 1125 0000      	.insn	6, 0x11253cdf
    41223b1e:	0000                	.insn	2, 0x0000
    41223b20:	40df 1125 0000      	.insn	6, 0x112540df
    41223b26:	0000                	.insn	2, 0x0000
    41223b28:	44df 1125 0000      	.insn	6, 0x112544df
    41223b2e:	0000                	.insn	2, 0x0000
    41223b30:	48df 1125 0000      	.insn	6, 0x112548df
    41223b36:	0000                	.insn	2, 0x0000
    41223b38:	4cdf 1125 0000      	.insn	6, 0x11254cdf
    41223b3e:	0000                	.insn	2, 0x0000
    41223b40:	50df 1125 0000      	.insn	6, 0x112550df
    41223b46:	0000                	.insn	2, 0x0000
    41223b48:	54df 1125 0000      	.insn	6, 0x112554df
    41223b4e:	0000                	.insn	2, 0x0000
    41223b50:	58df 1125 0000      	.insn	6, 0x112558df
    41223b56:	0000                	.insn	2, 0x0000
    41223b58:	5cdf 1125 0000      	.insn	6, 0x11255cdf
    41223b5e:	0000                	.insn	2, 0x0000
    41223b60:	60df 1125 0000      	.insn	6, 0x112560df
    41223b66:	0000                	.insn	2, 0x0000
    41223b68:	64df 1125 0000      	.insn	6, 0x112564df
    41223b6e:	0000                	.insn	2, 0x0000
    41223b70:	68df 1125 0000      	.insn	6, 0x112568df
    41223b76:	0000                	.insn	2, 0x0000
    41223b78:	6cdf 1125 0000      	.insn	6, 0x11256cdf
    41223b7e:	0000                	.insn	2, 0x0000
    41223b80:	70df 1125 0000      	.insn	6, 0x112570df
    41223b86:	0000                	.insn	2, 0x0000
    41223b88:	74df 1125 0000      	.insn	6, 0x112574df
    41223b8e:	0000                	.insn	2, 0x0000
    41223b90:	78df 1125 0000      	.insn	6, 0x112578df
    41223b96:	0000                	.insn	2, 0x0000
    41223b98:	7cdf 1125 0000      	.insn	6, 0x11257cdf
    41223b9e:	0000                	.insn	2, 0x0000
    41223ba0:	80df 1125 0000      	.insn	6, 0x112580df
    41223ba6:	0000                	.insn	2, 0x0000
    41223ba8:	84df 1125 0000      	.insn	6, 0x112584df
    41223bae:	0000                	.insn	2, 0x0000
    41223bb0:	88df 1125 0000      	.insn	6, 0x112588df
    41223bb6:	0000                	.insn	2, 0x0000
    41223bb8:	8cdf 1125 0000      	.insn	6, 0x11258cdf
    41223bbe:	0000                	.insn	2, 0x0000
    41223bc0:	90df 1125 0000      	.insn	6, 0x112590df
    41223bc6:	0000                	.insn	2, 0x0000
    41223bc8:	94df 1125 0000      	.insn	6, 0x112594df
    41223bce:	0000                	.insn	2, 0x0000
    41223bd0:	98df 1125 0000      	.insn	6, 0x112598df
    41223bd6:	0000                	.insn	2, 0x0000
    41223bd8:	9cdf 1125 0000      	.insn	6, 0x11259cdf
    41223bde:	0000                	.insn	2, 0x0000
    41223be0:	a0df 1125 0000      	.insn	6, 0x1125a0df
    41223be6:	0000                	.insn	2, 0x0000
    41223be8:	a4df 1125 0000      	.insn	6, 0x1125a4df
    41223bee:	0000                	.insn	2, 0x0000
    41223bf0:	a8df 1125 0000      	.insn	6, 0x1125a8df
    41223bf6:	0000                	.insn	2, 0x0000
    41223bf8:	acdf 1125 0000      	.insn	6, 0x1125acdf
    41223bfe:	0000                	.insn	2, 0x0000
    41223c00:	b0df 1125 0000      	.insn	6, 0x1125b0df
    41223c06:	0000                	.insn	2, 0x0000
    41223c08:	b4df 1125 0000      	.insn	6, 0x1125b4df
    41223c0e:	0000                	.insn	2, 0x0000
    41223c10:	b8df 1125 0000      	.insn	6, 0x1125b8df
    41223c16:	0000                	.insn	2, 0x0000
    41223c18:	bcdf 1125 0000      	.insn	6, 0x1125bcdf
    41223c1e:	0000                	.insn	2, 0x0000
    41223c20:	c0df 1125 0000      	.insn	6, 0x1125c0df
    41223c26:	0000                	.insn	2, 0x0000
    41223c28:	c4df 1125 0000      	.insn	6, 0x1125c4df
    41223c2e:	0000                	.insn	2, 0x0000
    41223c30:	c8df 1125 0000      	.insn	6, 0x1125c8df
    41223c36:	0000                	.insn	2, 0x0000
    41223c38:	ccdf 1125 0000      	.insn	6, 0x1125ccdf
    41223c3e:	0000                	.insn	2, 0x0000
    41223c40:	d0df 1125 0000      	.insn	6, 0x1125d0df
    41223c46:	0000                	.insn	2, 0x0000
    41223c48:	d4df 1125 0000      	.insn	6, 0x1125d4df
    41223c4e:	0000                	.insn	2, 0x0000
    41223c50:	d8df 1125 0000      	.insn	6, 0x1125d8df
    41223c56:	0000                	.insn	2, 0x0000
    41223c58:	dcdf 1125 0000      	.insn	6, 0x1125dcdf
    41223c5e:	0000                	.insn	2, 0x0000
    41223c60:	e0df 1125 0000      	.insn	6, 0x1125e0df
    41223c66:	0000                	.insn	2, 0x0000
    41223c68:	e4df 1125 0000      	.insn	6, 0x1125e4df
    41223c6e:	0000                	.insn	2, 0x0000
    41223c70:	e8df 1125 0000      	.insn	6, 0x1125e8df
    41223c76:	0000                	.insn	2, 0x0000
    41223c78:	ecdf 1125 0000      	.insn	6, 0x1125ecdf
    41223c7e:	0000                	.insn	2, 0x0000
    41223c80:	f0df 1125 0000      	.insn	6, 0x1125f0df
    41223c86:	0000                	.insn	2, 0x0000
    41223c88:	f4df 1125 0000      	.insn	6, 0x1125f4df
    41223c8e:	0000                	.insn	2, 0x0000
    41223c90:	f8df 1125 0000      	.insn	6, 0x1125f8df
    41223c96:	0000                	.insn	2, 0x0000
    41223c98:	fcdf 1125 0000      	.insn	6, 0x1125fcdf
	...

Disassembly of section .__pagetable_map_os_0x0000000044185000:

0000000044185000 <__pagetable_map_os_0x0000000044185000>:
	...
    441850a8:	112804cf          	fnmadd.s	f9,f16,f18,f2,rne
	...
    441851a0:	1048d0cf          	fnmadd.s	f1,f17,f4,f2,unknown
    441851a4:	0000                	.insn	2, 0x0000
	...

Disassembly of section .__pagetable_map_os_0x00000000442eb000:

00000000442eb000 <__pagetable_map_os_0x00000000442eb000>:
	...
    442eb4d0:	110618c7          	fmsub.s	f17,f12,f16,f2,rtz
    442eb4d4:	0000                	.insn	2, 0x0000
	...

Disassembly of section .__pagetable_map_os_0x00000000445e7000:

00000000445e7000 <__pagetable_map_os_0x00000000445e7000>:
    445e7000:	1c01                	.insn	2, 0x1c01
    445e7002:	00001117          	auipc	x2,0x1
	...
    445e704e:	0000                	.insn	2, 0x0000
    445e7050:	9401                	.insn	2, 0x9401
    445e7052:	110c                	.insn	2, 0x110c
	...
    445e70c0:	e001                	.insn	2, 0xe001
    445e70c2:	00001063          	bnez	x0,445e70c2 <__pagetable_map_os_0x00000000445e7000+0xc2>
	...
    445e70e6:	0000                	.insn	2, 0x0000
    445e70e8:	5001                	.insn	2, 0x5001
    445e70ea:	110a                	.insn	2, 0x110a
	...
    445e7370:	0c01                	.insn	2, 0x0c01
    445e7372:	110a                	.insn	2, 0x110a
	...
    445e73b8:	3801                	.insn	2, 0x3801
    445e73ba:	1101                	.insn	2, 0x1101
    445e73bc:	0000                	.insn	2, 0x0000
	...

Disassembly of section .__pagetable_map_os_0x00000000445c7000:

00000000445c7000 <__pagetable_map_os_0x00000000445c7000>:
	...
    445c7040:	113198cf          	fnmadd.s	f17,f3,f19,f2,rtz
    445c7044:	0000                	.insn	2, 0x0000
    445c7046:	0000                	.insn	2, 0x0000
    445c7048:	11319ccf          	fnmadd.s	f25,f3,f19,f2,rtz
	...
    445c7108:	110f84c7          	fmsub.s	f9,f31,f16,f2,rne
    445c710c:	0000                	.insn	2, 0x0000
	...

Disassembly of section .__pagetable_map_os_0x0000000044283000:

0000000044283000 <__pagetable_map_os_0x0000000044283000>:
	...
    44283260:	1115a0cf          	fnmadd.s	f1,f11,f17,f2,rdn
    44283264:	0000                	.insn	2, 0x0000
	...

Disassembly of section .__pagetable_map_os_0x0000000044294000:

0000000044294000 <__pagetable_map_os_0x0000000044294000>:
	...
    44294958:	105a34c7          	fmsub.s	f9,f20,f5,f2,rup
    4429495c:	0000                	.insn	2, 0x0000
	...

Disassembly of section .__pagetable_map_os_0x00000000418f8000:

00000000418f8000 <__pagetable_map_os_0x00000000418f8000>:
	...
    418f8a98:	113ab0c7          	fmsub.s	f1,f21,f19,f2,rup
    418f8a9c:	0000                	.insn	2, 0x0000
	...

Disassembly of section .__pagetable_map_os_0x000000004404e000:

000000004404e000 <__pagetable_map_os_0x000000004404e000>:
	...
    4404ed28:	1109ecc7          	fmsub.s	f25,f19,f16,f2,unknown
    4404ed2c:	0000                	.insn	2, 0x0000
	...

Disassembly of section .__pagetable_map_os_0x0000000044325000:

0000000044325000 <__pagetable_map_os_0x0000000044325000>:
	...
    44325db8:	1134d4c7          	fmsub.s	f9,f9,f19,f2,unknown
    44325dbc:	0000                	.insn	2, 0x0000
	...

Disassembly of section .__pagetable_map_os_0x0000000042196000:

0000000042196000 <__pagetable_map_os_0x0000000042196000>:
	...
    42196670:	ac01                	.insn	2, 0xac01
    42196672:	1140                	.insn	2, 0x1140
    42196674:	0000                	.insn	2, 0x0000
	...

Disassembly of section .__pagetable_map_os_0x000000004502b000:

000000004502b000 <__pagetable_map_os_0x000000004502b000>:
	...
    4502b720:	1056d8cf          	fnmadd.s	f17,f13,f5,f2,unknown
    4502b724:	0000                	.insn	2, 0x0000
	...

Disassembly of section .__pagetable_map_os_0x0000000044ea9000:

0000000044ea9000 <__pagetable_map_os_0x0000000044ea9000>:
	...
    44ea9e70:	a001                	.insn	2, 0xa001
    44ea9e72:	1131                	.insn	2, 0x1131
    44ea9e74:	0000                	.insn	2, 0x0000
	...

Disassembly of section .__pagetable_map_os_0x0000000044c68000:

0000000044c68000 <__pagetable_map_os_0x0000000044c68000>:
	...
    44c68718:	113d6cc7          	fmsub.s	f25,f26,f19,f2,unknown
    44c6871c:	0000                	.insn	2, 0x0000
	...

Disassembly of section .__pagetable_map_os_0x000000004503a000:

000000004503a000 <__pagetable_map_os_0x000000004503a000>:
	...
    4503a100:	a401                	.insn	2, 0xa401
    4503a102:	1104                	.insn	2, 0x1104
	...
    4503ac38:	8401                	.insn	2, 0x8401
    4503ac3a:	0000104f          	fnmadd.s	f0,f0,f0,f0,rtz
	...

Disassembly of section .__pagetable_map_os_0x00000000413e1000:

00000000413e1000 <__pagetable_map_os_0x00000000413e1000>:
	...
    413e1bb0:	106354c7          	fmsub.s	f9,f6,f6,f2,unknown
    413e1bb4:	0000                	.insn	2, 0x0000
	...

Disassembly of section .__pagetable_map_os_0x0000000044129000:

0000000044129000 <__pagetable_map_os_0x0000000044129000>:
	...
    44129ad8:	110e28c7          	fmsub.s	f17,f28,f16,f2,rdn
    44129adc:	0000                	.insn	2, 0x0000
	...

Disassembly of section .__pagetable_map_os_0x0000000041813000:

0000000041813000 <__pagetable_map_os_0x0000000041813000>:
	...
    41813ab8:	bc01                	.insn	2, 0xbc01
    41813aba:	106c                	.insn	2, 0x106c
    41813abc:	0000                	.insn	2, 0x0000
	...

Disassembly of section .__pagetable_map_os_0x0000000041b2f000:

0000000041b2f000 <__pagetable_map_os_0x0000000041b2f000>:
	...
    41b2f678:	111854c7          	fmsub.s	f9,f16,f17,f2,unknown
    41b2f67c:	0000                	.insn	2, 0x0000
	...

Disassembly of section .__pagetable_map_os_0x0000000044bbe000:

0000000044bbe000 <__pagetable_map_os_0x0000000044bbe000>:
	...
    44bbe320:	dc01                	.insn	2, 0xdc01
    44bbe322:	0000104f          	fnmadd.s	f0,f0,f0,f0,rtz
	...

Disassembly of section .__pagetable_map_os_0x00000000413f7000:

00000000413f7000 <__pagetable_map_os_0x00000000413f7000>:
	...
    413f7cd0:	0c01                	.insn	2, 0x0c01
    413f7cd2:	00001133          	sll	x2,x0,x0
	...

Disassembly of section .__pagetable_map_os_0x0000000044cc3000:

0000000044cc3000 <__pagetable_map_os_0x0000000044cc3000>:
	...
    44cc3e80:	111598cf          	fnmadd.s	f17,f11,f17,f2,rtz
    44cc3e84:	0000                	.insn	2, 0x0000
    44cc3e86:	0000                	.insn	2, 0x0000
    44cc3e88:	11159ccf          	fnmadd.s	f25,f11,f17,f2,rtz
    44cc3e8c:	0000                	.insn	2, 0x0000
	...

Disassembly of section .__pagetable_map_os_0x00000000443db000:

00000000443db000 <__pagetable_map_os_0x00000000443db000>:
	...
    443db6f0:	1801                	.insn	2, 0x1801
    443db6f2:	110c                	.insn	2, 0x110c
    443db6f4:	0000                	.insn	2, 0x0000
	...

Disassembly of section .__pagetable_map_os_0x0000000044306000:

0000000044306000 <__pagetable_map_os_0x0000000044306000>:
	...
    44306990:	f001                	.insn	2, 0xf001
    44306992:	1140                	.insn	2, 0x1140
    44306994:	0000                	.insn	2, 0x0000
	...

Disassembly of section .__pagetable_map_os_0x000000004503c000:

000000004503c000 <__pagetable_map_os_0x000000004503c000>:
	...
    4503c1b0:	110164c7          	fmsub.s	f9,f2,f16,f2,unknown
    4503c1b4:	0000                	.insn	2, 0x0000
	...

Disassembly of section .__pagetable_map_os_0x000000004460d000:

000000004460d000 <__pagetable_map_os_0x000000004460d000>:
	...
    4460d428:	2401                	.insn	2, 0x2401
    4460d42a:	1079                	.insn	2, 0x1079
    4460d42c:	0000                	.insn	2, 0x0000
	...

Disassembly of section .__pagetable_map_os_0x0000000041e49000:

0000000041e49000 <__pagetable_map_os_0x0000000041e49000>:
	...
    41e49f00:	2801                	.insn	2, 0x2801
    41e49f02:	000010db          	.insn	4, 0x10db
	...

Disassembly of section .__pagetable_map_os_0x00000000436ca000:

00000000436ca000 <__pagetable_map_os_0x00000000436ca000>:
	...
    436ca528:	106cb8c7          	fmsub.s	f17,f25,f6,f2,rup
    436ca52c:	0000                	.insn	2, 0x0000
	...

Disassembly of section .__pagetable_map_os_0x00000000415c4000:

00000000415c4000 <__pagetable_map_os_0x00000000415c4000>:
	...
    415c4720:	2001                	.insn	2, 0x2001
    415c4722:	0000000010ff 	.6byte	0x0000000010ff

Disassembly of section .__pagetable_map_os_0x0000000043fc8000:

0000000043fc8000 <__pagetable_map_os_0x0000000043fc8000>:
	...
    43fc82d0:	c401                	.insn	2, 0xc401
    43fc82d2:	00001117          	auipc	x2,0x1
	...

Disassembly of section .__pagetable_map_os_0x00000000445f1000:

00000000445f1000 <__pagetable_map_os_0x00000000445f1000>:
	...
    445f1da8:	1119a4c7          	fmsub.s	f9,f19,f17,f2,rdn
    445f1dac:	0000                	.insn	2, 0x0000
	...

Disassembly of section .__pagetable_map_os_0x0000000045039000:

0000000045039000 <__pagetable_map_os_0x0000000045039000>:
	...
    45039148:	7801                	.insn	2, 0x7801
    4503914a:	1085                	.insn	2, 0x1085
    4503914c:	0000                	.insn	2, 0x0000
	...

Disassembly of section .__pagetable_map_os_0x000000004215e000:

000000004215e000 <__pagetable_map_os_0x000000004215e000>:
	...
    4215e4a8:	ec01                	.insn	2, 0xec01
    4215e4aa:	10f9                	.insn	2, 0x10f9
    4215e4ac:	0000                	.insn	2, 0x0000
	...

Disassembly of section .__pagetable_map_os_0x0000000043e7b000:

0000000043e7b000 <__pagetable_map_os_0x0000000043e7b000>:
	...
    43e7b050:	112a40c7          	fmsub.s	f1,f20,f18,f2,rmm
    43e7b054:	0000                	.insn	2, 0x0000
	...

Disassembly of section .__pagetable_map_os_0x0000000044c7e000:

0000000044c7e000 <__pagetable_map_os_0x0000000044c7e000>:
	...
    44c7eef0:	b801                	.insn	2, 0xb801
    44c7eef2:	110a                	.insn	2, 0x110a
    44c7eef4:	0000                	.insn	2, 0x0000
	...

Disassembly of section .__pagetable_map_os_0x00000000442ae000:

00000000442ae000 <__pagetable_map_os_0x00000000442ae000>:
	...
    442ae540:	6401                	.insn	2, 0x6401
    442ae542:	1056                	.insn	2, 0x1056
    442ae544:	0000                	.insn	2, 0x0000
	...

Disassembly of section .__pagetable_map_os_0x0000000041599000:

0000000041599000 <__pagetable_map_os_0x0000000041599000>:
	...
    415999d8:	1048a0c7          	fmsub.s	f1,f17,f4,f2,rdn
    415999dc:	0000                	.insn	2, 0x0000
	...

Disassembly of section .__pagetable_map_os_0x0000000044efb000:

0000000044efb000 <__pagetable_map_os_0x0000000044efb000>:
	...
    44efb7c8:	c001                	.insn	2, 0xc001
    44efb7ca:	1078                	.insn	2, 0x1078
    44efb7cc:	0000                	.insn	2, 0x0000
	...

Disassembly of section .__pagetable_map_os_0x0000000041e30000:

0000000041e30000 <__pagetable_map_os_0x0000000041e30000>:
	...
    41e30390:	e801                	.insn	2, 0xe801
    41e30392:	1101                	.insn	2, 0x1101
    41e30394:	0000                	.insn	2, 0x0000
	...

Disassembly of section .__pagetable_map_os_0x000000004407a000:

000000004407a000 <__pagetable_map_os_0x000000004407a000>:
	...
    4407aa40:	110710c7          	fmsub.s	f1,f14,f16,f2,rtz
    4407aa44:	0000                	.insn	2, 0x0000
	...

Disassembly of section .__pagetable_map_os_0x0000000044f5c000:

0000000044f5c000 <__pagetable_map_os_0x0000000044f5c000>:
	...
    44f5c3a8:	f001                	.insn	2, 0xf001
    44f5c3aa:	1109                	.insn	2, 0x1109
    44f5c3ac:	0000                	.insn	2, 0x0000
	...

Disassembly of section .__pagetable_map_os_0x000000004427c000:

000000004427c000 <__pagetable_map_os_0x000000004427c000>:
	...
    4427c420:	7001                	.insn	2, 0x7001
    4427c422:	0000104f          	fnmadd.s	f0,f0,f0,f0,rtz
	...

Disassembly of section .__pagetable_map_os_0x00000000413dc000:

00000000413dc000 <__pagetable_map_os_0x00000000413dc000>:
	...
    413dc478:	3801                	.insn	2, 0x3801
    413dc47a:	1055                	.insn	2, 0x1055
    413dc47c:	0000                	.insn	2, 0x0000
	...

Disassembly of section .__pagetable_map_os_0x000000004154e000:

000000004154e000 <__pagetable_map_os_0x000000004154e000>:
	...
    4154eab0:	10e44cc7          	fmsub.s	f25,f8,f14,f2,rmm
    4154eab4:	0000                	.insn	2, 0x0000
	...

Disassembly of section .__pagetable_map_os_0x0000000041433000:

0000000041433000 <__pagetable_map_os_0x0000000041433000>:
	...
    41433d18:	7001                	.insn	2, 0x7001
    41433d1a:	1059                	.insn	2, 0x1059
	...
    41433f90:	c001                	.insn	2, 0xc001
    41433f92:	00001117          	auipc	x2,0x1
	...

Disassembly of section .__pagetable_map_os_0x000000004165c000:

000000004165c000 <__pagetable_map_os_0x000000004165c000>:
	...
    4165c1b0:	3401                	.insn	2, 0x3401
    4165c1b2:	0000112f          	.insn	4, 0x112f
	...

Disassembly of section .__pagetable_map_os_0x0000000044bcd000:

0000000044bcd000 <__pagetable_map_os_0x0000000044bcd000>:
	...
    44bcd920:	6001                	.insn	2, 0x6001
    44bcd922:	1104                	.insn	2, 0x1104
    44bcd924:	0000                	.insn	2, 0x0000
	...

Disassembly of section .__pagetable_map_os_0x0000000044118000:

0000000044118000 <__pagetable_map_os_0x0000000044118000>:
	...
    44118ec0:	1056d4c7          	fmsub.s	f9,f13,f5,f2,unknown
    44118ec4:	0000                	.insn	2, 0x0000
	...

Disassembly of section .__pagetable_map_os_0x00000000445f0000:

00000000445f0000 <__pagetable_map_os_0x00000000445f0000>:
	...
    445f06b0:	d801                	.insn	2, 0xd801
    445f06b2:	1115                	.insn	2, 0x1115
    445f06b4:	0000                	.insn	2, 0x0000
	...

Disassembly of section .__pagetable_map_os_0x0000000044576000:

0000000044576000 <__pagetable_map_os_0x0000000044576000>:
	...
    44576580:	0401                	.insn	2, 0x0401
    44576582:	110a                	.insn	2, 0x110a
    44576584:	0000                	.insn	2, 0x0000
	...

Disassembly of section .__pagetable_map_os_0x0000000044281000:

0000000044281000 <__pagetable_map_os_0x0000000044281000>:
	...
    44281898:	111ffcc7          	fmsub.s	f25,f31,f17,f2
    4428189c:	0000                	.insn	2, 0x0000
	...

Disassembly of section .__pagetable_map_os_0x00000000445e9000:

00000000445e9000 <__pagetable_map_os_0x00000000445e9000>:
	...
    445e92a0:	a401                	.insn	2, 0xa401
    445e92a2:	112e                	.insn	2, 0x112e
    445e92a4:	0000                	.insn	2, 0x0000
	...

Disassembly of section .__pagetable_map_os_0x0000000044ba9000:

0000000044ba9000 <__pagetable_map_os_0x0000000044ba9000>:
	...
    44ba9ed8:	f401                	.insn	2, 0xf401
    44ba9eda:	1139                	.insn	2, 0x1139
    44ba9edc:	0000                	.insn	2, 0x0000
	...

Disassembly of section .__pagetable_map_os_0x0000000044e7d000:

0000000044e7d000 <__pagetable_map_os_0x0000000044e7d000>:
	...
    44e7d968:	b801                	.insn	2, 0xb801
    44e7d96a:	0000113b          	sllw	x2,x0,x0
	...

Disassembly of section .__pagetable_map_os_0x0000000044eee000:

0000000044eee000 <__pagetable_map_os_0x0000000044eee000>:
	...
    44eee2b0:	110accc7          	fmsub.s	f25,f21,f16,f2,rmm
    44eee2b4:	0000                	.insn	2, 0x0000
	...
