
/home/abdullah/RiescueC/riescue/10x_R/zicbom_zicboz_zicbop_zic64b/testsuite/zicbom_zicboz_zicbop_zic64b/super_sv39/tp_zicbom_zicboz_zicbop_zic64b_1:     file format elf64-littleriscv


Disassembly of section .runtime:

0000000041000000 <_start>:
    41000000:	00000093          	li	x1,0
    41000004:	00000113          	li	x2,0
    41000008:	00000193          	li	x3,0
    4100000c:	00000213          	li	x4,0
    41000010:	00000293          	li	x5,0
    41000014:	00000313          	li	x6,0
    41000018:	00000393          	li	x7,0
    4100001c:	00000413          	li	x8,0
    41000020:	00000493          	li	x9,0
    41000024:	00000513          	li	x10,0
    41000028:	00000593          	li	x11,0
    4100002c:	00000613          	li	x12,0
    41000030:	00000693          	li	x13,0
    41000034:	00000713          	li	x14,0
    41000038:	00000793          	li	x15,0
    4100003c:	00000813          	li	x16,0
    41000040:	00000893          	li	x17,0
    41000044:	00000913          	li	x18,0
    41000048:	00000993          	li	x19,0
    4100004c:	00000a13          	li	x20,0
    41000050:	00000a93          	li	x21,0
    41000054:	00000b13          	li	x22,0
    41000058:	00000b93          	li	x23,0
    4100005c:	00000c13          	li	x24,0
    41000060:	00000c93          	li	x25,0
    41000064:	00000d13          	li	x26,0
    41000068:	00000d93          	li	x27,0
    4100006c:	00000e13          	li	x28,0
    41000070:	00000e93          	li	x29,0
    41000074:	00000f13          	li	x30,0
    41000078:	00000f93          	li	x31,0

000000004100007c <loader__load_panic_address>:
    4100007c:	00001297          	auipc	x5,0x1
    41000080:	9b828293          	addi	x5,x5,-1608 # 41000a34 <eot__failed>
    41000084:	30529073          	csrw	mtvec,x5

0000000041000088 <loader__initialize_runtime>:
    41000088:	00000293          	li	x5,0
    4100008c:	3012a2f3          	csrrs	x5,misa,x5

0000000041000090 <loader__set_mstatus>:
    41000090:	000402b7          	lui	x5,0x40
    41000094:	00a2829b          	addiw	x5,x5,10 # 4000a <pma_region_0_size+0xa>
    41000098:	3002a2f3          	csrrs	x5,mstatus,x5
    4100009c:	44ee7237          	lui	x4,0x44ee7
    410000a0:	34021073          	csrw	mscratch,x4

00000000410000a4 <loader__setup_menvcfg>:
    410000a4:	00000297          	auipc	x5,0x0
    410000a8:	47c28293          	addi	x5,x5,1148 # 41000520 <trap_handler_m__trap_entry>
    410000ac:	30529073          	csrw	mtvec,x5

00000000410000b0 <loader__enable_paging>:
    410000b0:	fff800b7          	lui	x1,0xfff80
    410000b4:	0090809b          	addiw	x1,x1,9 # fffffffffff80009 <SID_ZICBO_015_stack+0x15398a1009>
    410000b8:	02009093          	slli	x1,x1,0x20
    410000bc:	04108093          	addi	x1,x1,65
    410000c0:	00c09093          	slli	x1,x1,0xc
    410000c4:	28c08093          	addi	x1,x1,652
    410000c8:	18009073          	csrw	satp,x1

00000000410000cc <loader__done>:
    410000cc:	1910006f          	j	41000a5c <scheduler__init>

00000000410000d0 <loader__panic>:
    410000d0:	1650006f          	j	41000a34 <eot__failed>

00000000410000d4 <syscalls__syscall_check_schedule_next_test>:
    410000d4:	00f0029b          	addiw	x5,x0,15
    410000d8:	01c29293          	slli	x5,x5,0x1c
    410000dc:	00128293          	addi	x5,x5,1
    410000e0:	01f29a63          	bne	x5,x31,410000f4 <syscalls__syscall_check_fail_test>
    410000e4:	00000317          	auipc	x6,0x0
    410000e8:	43c30313          	addi	x6,x6,1084 # 41000520 <trap_handler_m__trap_entry>
    410000ec:	30531073          	csrw	mtvec,x6
    410000f0:	6740006f          	j	41000764 <enter_scheduler>

00000000410000f4 <syscalls__syscall_check_fail_test>:
    410000f4:	00f0029b          	addiw	x5,x0,15
    410000f8:	01c29293          	slli	x5,x5,0x1c
    410000fc:	00228293          	addi	x5,x5,2
    41000100:	01f29a63          	bne	x5,x31,41000114 <syscalls__syscall_check_end_test_without_failure>
    41000104:	00000317          	auipc	x6,0x0
    41000108:	41c30313          	addi	x6,x6,1052 # 41000520 <trap_handler_m__trap_entry>
    4100010c:	30531073          	csrw	mtvec,x6
    41000110:	6840006f          	j	41000794 <test_failed>

0000000041000114 <syscalls__syscall_check_end_test_without_failure>:
    41000114:	00f0029b          	addiw	x5,x0,15
    41000118:	01c29293          	slli	x5,x5,0x1c
    4100011c:	00328293          	addi	x5,x5,3
    41000120:	01f29a63          	bne	x5,x31,41000134 <syscalls__syscall_check_switch_machine_mode>
    41000124:	00000317          	auipc	x6,0x0
    41000128:	3fc30313          	addi	x6,x6,1020 # 41000520 <trap_handler_m__trap_entry>
    4100012c:	30531073          	csrw	mtvec,x6
    41000130:	6700006f          	j	410007a0 <os_end_test>

0000000041000134 <syscalls__syscall_check_switch_machine_mode>:
    41000134:	000f02b7          	lui	x5,0xf0
    41000138:	0012829b          	addiw	x5,x5,1 # f0001 <SID_ZICBO_001_stack+0x88001>
    4100013c:	00c29293          	slli	x5,x5,0xc
    41000140:	00128293          	addi	x5,x5,1
    41000144:	0a5f8463          	beq	x31,x5,410001ec <syscalls__os_fn_f0001001>

0000000041000148 <syscalls__syscall_check_switch_super_mode>:
    41000148:	000f02b7          	lui	x5,0xf0
    4100014c:	0012829b          	addiw	x5,x5,1 # f0001 <SID_ZICBO_001_stack+0x88001>
    41000150:	00c29293          	slli	x5,x5,0xc
    41000154:	00228293          	addi	x5,x5,2
    41000158:	0c5f8063          	beq	x31,x5,41000218 <syscalls__os_fn_f0001002>

000000004100015c <syscalls__syscall_check_switch_user_mode>:
    4100015c:	000f02b7          	lui	x5,0xf0
    41000160:	0012829b          	addiw	x5,x5,1 # f0001 <SID_ZICBO_001_stack+0x88001>
    41000164:	00c29293          	slli	x5,x5,0xc
    41000168:	00328293          	addi	x5,x5,3
    4100016c:	0a5f8a63          	beq	x31,x5,41000220 <syscalls__os_fn_f0001003>

0000000041000170 <syscalls__syscall_check_switch_test_mode>:
    41000170:	000f02b7          	lui	x5,0xf0
    41000174:	0012829b          	addiw	x5,x5,1 # f0001 <SID_ZICBO_001_stack+0x88001>
    41000178:	00c29293          	slli	x5,x5,0xc
    4100017c:	00428293          	addi	x5,x5,4
    41000180:	0c5f8463          	beq	x31,x5,41000248 <syscalls__os_fn_f0001004>

0000000041000184 <syscalls__syscall_machine_csr_rw>:
    41000184:	000f02b7          	lui	x5,0xf0
    41000188:	0012829b          	addiw	x5,x5,1 # f0001 <SID_ZICBO_001_stack+0x88001>
    4100018c:	00c29293          	slli	x5,x5,0xc
    41000190:	00528293          	addi	x5,x5,5
    41000194:	0e5f8063          	beq	x31,x5,41000274 <syscalls__os_fn_f0001005>

0000000041000198 <syscalls__syscall_supervisor_csr_rw>:
    41000198:	000f02b7          	lui	x5,0xf0
    4100019c:	0012829b          	addiw	x5,x5,1 # f0001 <SID_ZICBO_001_stack+0x88001>
    410001a0:	00c29293          	slli	x5,x5,0xc
    410001a4:	00628293          	addi	x5,x5,6
    410001a8:	0e5f8c63          	beq	x31,x5,410002a0 <syscalls__os_fn_f0001006>

00000000410001ac <syscalls__syscall_machine_pte_read>:
    410001ac:	000f02b7          	lui	x5,0xf0
    410001b0:	0012829b          	addiw	x5,x5,1 # f0001 <SID_ZICBO_001_stack+0x88001>
    410001b4:	00c29293          	slli	x5,x5,0xc
    410001b8:	00728293          	addi	x5,x5,7
    410001bc:	0e5f8663          	beq	x31,x5,410002a8 <syscalls__os_fn_f0001007>

00000000410001c0 <syscalls__syscall_machine_pte_write>:
    410001c0:	000f02b7          	lui	x5,0xf0
    410001c4:	0012829b          	addiw	x5,x5,1 # f0001 <SID_ZICBO_001_stack+0x88001>
    410001c8:	00c29293          	slli	x5,x5,0xc
    410001cc:	00828293          	addi	x5,x5,8
    410001d0:	1c5f8263          	beq	x31,x5,41000394 <syscalls__os_fn_f0001008>

00000000410001d4 <syscalls__syscall_check_get_hart_context>:
    410001d4:	000782b7          	lui	x5,0x78
    410001d8:	0012829b          	addiw	x5,x5,1 # 78001 <SID_ZICBO_001_stack+0x10001>
    410001dc:	00d29293          	slli	x5,x5,0xd
    410001e0:	00128293          	addi	x5,x5,1
    410001e4:	285f8e63          	beq	x31,x5,41000480 <syscalls__os_get_hart_context>
    410001e8:	4940006f          	j	4100067c <trap_handler_m__check_exception_label>

00000000410001ec <syscalls__os_fn_f0001001>:
    410001ec:	000022b7          	lui	x5,0x2
    410001f0:	8002829b          	addiw	x5,x5,-2048 # 1800 <pma_region_1_size+0x800>
    410001f4:	3002b073          	csrc	mstatus,x5
    410001f8:	000022b7          	lui	x5,0x2
    410001fc:	8002829b          	addiw	x5,x5,-2048 # 1800 <pma_region_1_size+0x800>
    41000200:	3002a073          	csrs	mstatus,x5
    41000204:	0010029b          	addiw	x5,x0,1
    41000208:	02729293          	slli	x5,x5,0x27
    4100020c:	3002b073          	csrc	mstatus,x5
    41000210:	411942b7          	lui	x5,0x41194
    41000214:	27c0006f          	j	41000490 <syscalls__ret_from_os_fn>

0000000041000218 <syscalls__os_fn_f0001002>:
    41000218:	410942b7          	lui	x5,0x41094
    4100021c:	2740006f          	j	41000490 <syscalls__ret_from_os_fn>

0000000041000220 <syscalls__os_fn_f0001003>:
    41000220:	000022b7          	lui	x5,0x2
    41000224:	8002829b          	addiw	x5,x5,-2048 # 1800 <pma_region_1_size+0x800>
    41000228:	3002b073          	csrc	mstatus,x5
    4100022c:	00000293          	li	x5,0
    41000230:	3002a073          	csrs	mstatus,x5
    41000234:	0010029b          	addiw	x5,x0,1
    41000238:	02729293          	slli	x5,x5,0x27
    4100023c:	3002b073          	csrc	mstatus,x5
    41000240:	411142b7          	lui	x5,0x41114
    41000244:	24c0006f          	j	41000490 <syscalls__ret_from_os_fn>

0000000041000248 <syscalls__os_fn_f0001004>:
    41000248:	000022b7          	lui	x5,0x2
    4100024c:	8002829b          	addiw	x5,x5,-2048 # 1800 <pma_region_1_size+0x800>
    41000250:	3002b073          	csrc	mstatus,x5
    41000254:	000012b7          	lui	x5,0x1
    41000258:	8002829b          	addiw	x5,x5,-2048 # 800 <XLEN+0x7c0>
    4100025c:	3002a073          	csrs	mstatus,x5
    41000260:	0010029b          	addiw	x5,x0,1
    41000264:	02729293          	slli	x5,x5,0x27
    41000268:	3002b073          	csrc	mstatus,x5
    4100026c:	17823283          	ld	x5,376(x4) # 44ee7178 <__section_hart_context+0x178>
    41000270:	2200006f          	j	41000490 <syscalls__ret_from_os_fn>

0000000041000274 <syscalls__os_fn_f0001005>:
    41000274:	000022b7          	lui	x5,0x2
    41000278:	8002829b          	addiw	x5,x5,-2048 # 1800 <pma_region_1_size+0x800>
    4100027c:	3002b073          	csrc	mstatus,x5
    41000280:	000022b7          	lui	x5,0x2
    41000284:	8002829b          	addiw	x5,x5,-2048 # 1800 <pma_region_1_size+0x800>
    41000288:	3002a073          	csrs	mstatus,x5
    4100028c:	0010029b          	addiw	x5,x0,1
    41000290:	02729293          	slli	x5,x5,0x27
    41000294:	3002b073          	csrc	mstatus,x5
    41000298:	412142b7          	lui	x5,0x41214
    4100029c:	1f40006f          	j	41000490 <syscalls__ret_from_os_fn>

00000000410002a0 <syscalls__os_fn_f0001006>:
    410002a0:	412152b7          	lui	x5,0x41215
    410002a4:	1ec0006f          	j	41000490 <syscalls__ret_from_os_fn>

00000000410002a8 <syscalls__os_fn_f0001007>:
    410002a8:	44ee8fb7          	lui	x31,0x44ee8
    410002ac:	0c8f8f9b          	addiw	x31,x31,200 # 44ee80c8 <pte_access_flags_pa>
    410002b0:	000fbf83          	ld	x31,0(x31)
    410002b4:	44ee82b7          	lui	x5,0x44ee8
    410002b8:	0d02829b          	addiw	x5,x5,208 # 44ee80d0 <pte_access_flags_pa+0x8>
    410002bc:	0002b283          	ld	x5,0(x5)
    410002c0:	44ee8e37          	lui	x28,0x44ee8
    410002c4:	0d8e0e1b          	addiw	x28,x28,216 # 44ee80d8 <pte_access_flags_pa+0x10>
    410002c8:	000e3e03          	ld	x28,0(x28)

00000000410002cc <syscalls__pte_walk_check_glevel_without_gstage_read>:
    410002cc:	fff00f93          	li	x31,-1
    410002d0:	0dfe1063          	bne	x28,x31,41000390 <syscalls__pte_walk_fail_read>
    410002d4:	18002373          	csrr	x6,satp
    410002d8:	03c35e93          	srli	x29,x6,0x3c
    410002dc:	01431313          	slli	x6,x6,0x14
    410002e0:	01435313          	srli	x6,x6,0x14
    410002e4:	00c31313          	slli	x6,x6,0xc
    410002e8:	ff8e8e93          	addi	x29,x29,-8
    410002ec:	003e9f13          	slli	x30,x29,0x3
    410002f0:	01df0eb3          	add	x29,x30,x29
    410002f4:	01ee8e93          	addi	x29,x29,30
    410002f8:	00000f13          	li	x30,0

00000000410002fc <syscalls__pte_walk_loop_read>:
    410002fc:	44ee8fb7          	lui	x31,0x44ee8
    41000300:	0c8f8f9b          	addiw	x31,x31,200 # 44ee80c8 <pte_access_flags_pa>
    41000304:	000fbf83          	ld	x31,0(x31)
    41000308:	01dfdfb3          	srl	x31,x31,x29
    4100030c:	1fffff93          	andi	x31,x31,511
    41000310:	003f9f93          	slli	x31,x31,0x3
    41000314:	01f30333          	add	x6,x6,x31
    41000318:	005f0e63          	beq	x30,x5,41000334 <syscalls__pte_walk_done_read>
    4100031c:	00033f83          	ld	x31,0(x6)
    41000320:	00afdf93          	srli	x31,x31,0xa
    41000324:	00cf9313          	slli	x6,x31,0xc
    41000328:	001f0f13          	addi	x30,x30,1
    4100032c:	ff7e8e93          	addi	x29,x29,-9
    41000330:	fcdff06f          	j	410002fc <syscalls__pte_walk_loop_read>

0000000041000334 <syscalls__pte_walk_done_read>:
    41000334:	fff00f93          	li	x31,-1
    41000338:	05fe0263          	beq	x28,x31,4100037c <syscalls__pte_walk_final_read>

000000004100033c <syscalls__pte_walk_gstage_read>:
    4100033c:	44ee8fb7          	lui	x31,0x44ee8
    41000340:	0c8f8f9b          	addiw	x31,x31,200 # 44ee80c8 <pte_access_flags_pa>
    41000344:	006fb023          	sd	x6,0(x31)
    41000348:	000e0293          	mv	x5,x28
    4100034c:	fff00e13          	li	x28,-1
    41000350:	68002373          	csrr	x6,hgatp
    41000354:	03c35e93          	srli	x29,x6,0x3c
    41000358:	01431313          	slli	x6,x6,0x14
    4100035c:	01435313          	srli	x6,x6,0x14
    41000360:	00c31313          	slli	x6,x6,0xc
    41000364:	ff8e8e93          	addi	x29,x29,-8
    41000368:	003e9f13          	slli	x30,x29,0x3
    4100036c:	01df0eb3          	add	x29,x30,x29
    41000370:	01ee8e93          	addi	x29,x29,30
    41000374:	00000f13          	li	x30,0
    41000378:	f85ff06f          	j	410002fc <syscalls__pte_walk_loop_read>

000000004100037c <syscalls__pte_walk_final_read>:
    4100037c:	00033383          	ld	x7,0(x6)
    41000380:	341022f3          	csrr	x5,mepc
    41000384:	00428293          	addi	x5,x5,4
    41000388:	16523c23          	sd	x5,376(x4) # 178 <XLEN+0x138>
    4100038c:	ebdff06f          	j	41000248 <syscalls__os_fn_f0001004>

0000000041000390 <syscalls__pte_walk_fail_read>:
    41000390:	4040006f          	j	41000794 <test_failed>

0000000041000394 <syscalls__os_fn_f0001008>:
    41000394:	44ee8fb7          	lui	x31,0x44ee8
    41000398:	0c8f8f9b          	addiw	x31,x31,200 # 44ee80c8 <pte_access_flags_pa>
    4100039c:	000fbf83          	ld	x31,0(x31)
    410003a0:	44ee82b7          	lui	x5,0x44ee8
    410003a4:	0d02829b          	addiw	x5,x5,208 # 44ee80d0 <pte_access_flags_pa+0x8>
    410003a8:	0002b283          	ld	x5,0(x5)
    410003ac:	44ee8e37          	lui	x28,0x44ee8
    410003b0:	0d8e0e1b          	addiw	x28,x28,216 # 44ee80d8 <pte_access_flags_pa+0x10>
    410003b4:	000e3e03          	ld	x28,0(x28)

00000000410003b8 <syscalls__pte_walk_check_glevel_without_gstage_write>:
    410003b8:	fff00f93          	li	x31,-1
    410003bc:	0dfe1063          	bne	x28,x31,4100047c <syscalls__pte_walk_fail_write>
    410003c0:	18002373          	csrr	x6,satp
    410003c4:	03c35e93          	srli	x29,x6,0x3c
    410003c8:	01431313          	slli	x6,x6,0x14
    410003cc:	01435313          	srli	x6,x6,0x14
    410003d0:	00c31313          	slli	x6,x6,0xc
    410003d4:	ff8e8e93          	addi	x29,x29,-8
    410003d8:	003e9f13          	slli	x30,x29,0x3
    410003dc:	01df0eb3          	add	x29,x30,x29
    410003e0:	01ee8e93          	addi	x29,x29,30
    410003e4:	00000f13          	li	x30,0

00000000410003e8 <syscalls__pte_walk_loop_write>:
    410003e8:	44ee8fb7          	lui	x31,0x44ee8
    410003ec:	0c8f8f9b          	addiw	x31,x31,200 # 44ee80c8 <pte_access_flags_pa>
    410003f0:	000fbf83          	ld	x31,0(x31)
    410003f4:	01dfdfb3          	srl	x31,x31,x29
    410003f8:	1fffff93          	andi	x31,x31,511
    410003fc:	003f9f93          	slli	x31,x31,0x3
    41000400:	01f30333          	add	x6,x6,x31
    41000404:	005f0e63          	beq	x30,x5,41000420 <syscalls__pte_walk_done_write>
    41000408:	00033f83          	ld	x31,0(x6)
    4100040c:	00afdf93          	srli	x31,x31,0xa
    41000410:	00cf9313          	slli	x6,x31,0xc
    41000414:	001f0f13          	addi	x30,x30,1
    41000418:	ff7e8e93          	addi	x29,x29,-9
    4100041c:	fcdff06f          	j	410003e8 <syscalls__pte_walk_loop_write>

0000000041000420 <syscalls__pte_walk_done_write>:
    41000420:	fff00f93          	li	x31,-1
    41000424:	05fe0263          	beq	x28,x31,41000468 <syscalls__pte_walk_final_write>

0000000041000428 <syscalls__pte_walk_gstage_write>:
    41000428:	44ee8fb7          	lui	x31,0x44ee8
    4100042c:	0c8f8f9b          	addiw	x31,x31,200 # 44ee80c8 <pte_access_flags_pa>
    41000430:	006fb023          	sd	x6,0(x31)
    41000434:	000e0293          	mv	x5,x28
    41000438:	fff00e13          	li	x28,-1
    4100043c:	68002373          	csrr	x6,hgatp
    41000440:	03c35e93          	srli	x29,x6,0x3c
    41000444:	01431313          	slli	x6,x6,0x14
    41000448:	01435313          	srli	x6,x6,0x14
    4100044c:	00c31313          	slli	x6,x6,0xc
    41000450:	ff8e8e93          	addi	x29,x29,-8
    41000454:	003e9f13          	slli	x30,x29,0x3
    41000458:	01df0eb3          	add	x29,x30,x29
    4100045c:	01ee8e93          	addi	x29,x29,30
    41000460:	00000f13          	li	x30,0
    41000464:	f85ff06f          	j	410003e8 <syscalls__pte_walk_loop_write>

0000000041000468 <syscalls__pte_walk_final_write>:
    41000468:	00733023          	sd	x7,0(x6)
    4100046c:	341022f3          	csrr	x5,mepc
    41000470:	00428293          	addi	x5,x5,4
    41000474:	16523c23          	sd	x5,376(x4) # 178 <XLEN+0x138>
    41000478:	dd1ff06f          	j	41000248 <syscalls__os_fn_f0001004>

000000004100047c <syscalls__pte_walk_fail_write>:
    4100047c:	3180006f          	j	41000794 <test_failed>

0000000041000480 <syscalls__os_get_hart_context>:
    41000480:	14002573          	csrr	x10,sscratch
    41000484:	341022f3          	csrr	x5,mepc
    41000488:	00428293          	addi	x5,x5,4
    4100048c:	0040006f          	j	41000490 <syscalls__ret_from_os_fn>

0000000041000490 <syscalls__ret_from_os_fn>:
    41000490:	34102373          	csrr	x6,mepc
    41000494:	00430313          	addi	x6,x6,4
    41000498:	16623c23          	sd	x6,376(x4) # 178 <XLEN+0x138>
    4100049c:	34129073          	csrw	mepc,x5
    410004a0:	fff00f93          	li	x31,-1
    410004a4:	2a40006f          	j	41000748 <trap_handler_m__skip_xepc_write>

00000000410004a8 <trap_handler_m__invalid_interrupt>:
    410004a8:	2ec0006f          	j	41000794 <test_failed>

00000000410004ac <trap_handler_m__clear_all_interrupts>:
    410004ac:	34401073          	csrw	mip,x0
    410004b0:	30200073          	mret

00000000410004b4 <trap_handler_m___CLEAR_SSI>:
    410004b4:	00200293          	li	x5,2
    410004b8:	3442b073          	csrc	mip,x5
    410004bc:	30200073          	mret

00000000410004c0 <trap_handler_m___CLEAR_MSI>:
    410004c0:	00800293          	li	x5,8
    410004c4:	3442b073          	csrc	mip,x5
    410004c8:	30200073          	mret

00000000410004cc <trap_handler_m___CLEAR_STI>:
    410004cc:	02000293          	li	x5,32
    410004d0:	3442b073          	csrc	mip,x5
    410004d4:	30200073          	mret

00000000410004d8 <trap_handler_m___CLEAR_MTI>:
    410004d8:	08000293          	li	x5,128
    410004dc:	3442b073          	csrc	mip,x5
    410004e0:	30200073          	mret

00000000410004e4 <trap_handler_m___CLEAR_SEI>:
    410004e4:	20000293          	li	x5,512
    410004e8:	3442b073          	csrc	mip,x5
    410004ec:	30200073          	mret

00000000410004f0 <trap_handler_m___CLEAR_MEI>:
    410004f0:	000012b7          	lui	x5,0x1
    410004f4:	8002829b          	addiw	x5,x5,-2048 # 800 <XLEN+0x7c0>
    410004f8:	3442b073          	csrc	mip,x5
    410004fc:	30200073          	mret

0000000041000500 <trap_handler_m___CLEAR_COI>:
    41000500:	000022b7          	lui	x5,0x2
    41000504:	3442b073          	csrc	mip,x5
    41000508:	30200073          	mret

000000004100050c <trap_handler_m__clear_highest_priority_interrupt>:
    4100050c:	344022f3          	csrr	x5,mip
    41000510:	40500333          	neg	x6,x5
    41000514:	0062f2b3          	and	x5,x5,x6
    41000518:	3442b073          	csrc	mip,x5
    4100051c:	30200073          	mret

0000000041000520 <trap_handler_m__trap_entry>:
    41000520:	0fc0006f          	j	4100061c <trap_handler_m__trap_handler>

0000000041000524 <trap_handler_m__interrupt_vector_table>:
    41000524:	f91ff06f          	j	410004b4 <trap_handler_m___CLEAR_SSI>
    41000528:	f81ff06f          	j	410004a8 <trap_handler_m__invalid_interrupt>
    4100052c:	f95ff06f          	j	410004c0 <trap_handler_m___CLEAR_MSI>
    41000530:	f79ff06f          	j	410004a8 <trap_handler_m__invalid_interrupt>
    41000534:	f99ff06f          	j	410004cc <trap_handler_m___CLEAR_STI>
    41000538:	f71ff06f          	j	410004a8 <trap_handler_m__invalid_interrupt>
    4100053c:	f9dff06f          	j	410004d8 <trap_handler_m___CLEAR_MTI>
    41000540:	f69ff06f          	j	410004a8 <trap_handler_m__invalid_interrupt>
    41000544:	fa1ff06f          	j	410004e4 <trap_handler_m___CLEAR_SEI>
    41000548:	f61ff06f          	j	410004a8 <trap_handler_m__invalid_interrupt>
    4100054c:	fa5ff06f          	j	410004f0 <trap_handler_m___CLEAR_MEI>
    41000550:	f59ff06f          	j	410004a8 <trap_handler_m__invalid_interrupt>
    41000554:	fadff06f          	j	41000500 <trap_handler_m___CLEAR_COI>
    41000558:	f51ff06f          	j	410004a8 <trap_handler_m__invalid_interrupt>
    4100055c:	f4dff06f          	j	410004a8 <trap_handler_m__invalid_interrupt>
    41000560:	fadff06f          	j	4100050c <trap_handler_m__clear_highest_priority_interrupt>
    41000564:	fa9ff06f          	j	4100050c <trap_handler_m__clear_highest_priority_interrupt>
    41000568:	fa5ff06f          	j	4100050c <trap_handler_m__clear_highest_priority_interrupt>
    4100056c:	fa1ff06f          	j	4100050c <trap_handler_m__clear_highest_priority_interrupt>
    41000570:	f9dff06f          	j	4100050c <trap_handler_m__clear_highest_priority_interrupt>
    41000574:	f99ff06f          	j	4100050c <trap_handler_m__clear_highest_priority_interrupt>
    41000578:	f95ff06f          	j	4100050c <trap_handler_m__clear_highest_priority_interrupt>
    4100057c:	f91ff06f          	j	4100050c <trap_handler_m__clear_highest_priority_interrupt>
    41000580:	f8dff06f          	j	4100050c <trap_handler_m__clear_highest_priority_interrupt>
    41000584:	f89ff06f          	j	4100050c <trap_handler_m__clear_highest_priority_interrupt>
    41000588:	f85ff06f          	j	4100050c <trap_handler_m__clear_highest_priority_interrupt>
    4100058c:	f81ff06f          	j	4100050c <trap_handler_m__clear_highest_priority_interrupt>
    41000590:	f7dff06f          	j	4100050c <trap_handler_m__clear_highest_priority_interrupt>
    41000594:	f79ff06f          	j	4100050c <trap_handler_m__clear_highest_priority_interrupt>
    41000598:	f75ff06f          	j	4100050c <trap_handler_m__clear_highest_priority_interrupt>
    4100059c:	f71ff06f          	j	4100050c <trap_handler_m__clear_highest_priority_interrupt>
    410005a0:	f6dff06f          	j	4100050c <trap_handler_m__clear_highest_priority_interrupt>
    410005a4:	f69ff06f          	j	4100050c <trap_handler_m__clear_highest_priority_interrupt>
    410005a8:	f65ff06f          	j	4100050c <trap_handler_m__clear_highest_priority_interrupt>
    410005ac:	f61ff06f          	j	4100050c <trap_handler_m__clear_highest_priority_interrupt>
    410005b0:	f5dff06f          	j	4100050c <trap_handler_m__clear_highest_priority_interrupt>
    410005b4:	f59ff06f          	j	4100050c <trap_handler_m__clear_highest_priority_interrupt>
    410005b8:	f55ff06f          	j	4100050c <trap_handler_m__clear_highest_priority_interrupt>
    410005bc:	f51ff06f          	j	4100050c <trap_handler_m__clear_highest_priority_interrupt>
    410005c0:	f4dff06f          	j	4100050c <trap_handler_m__clear_highest_priority_interrupt>
    410005c4:	f49ff06f          	j	4100050c <trap_handler_m__clear_highest_priority_interrupt>
    410005c8:	f45ff06f          	j	4100050c <trap_handler_m__clear_highest_priority_interrupt>
    410005cc:	f41ff06f          	j	4100050c <trap_handler_m__clear_highest_priority_interrupt>
    410005d0:	f3dff06f          	j	4100050c <trap_handler_m__clear_highest_priority_interrupt>
    410005d4:	f39ff06f          	j	4100050c <trap_handler_m__clear_highest_priority_interrupt>
    410005d8:	f35ff06f          	j	4100050c <trap_handler_m__clear_highest_priority_interrupt>
    410005dc:	f31ff06f          	j	4100050c <trap_handler_m__clear_highest_priority_interrupt>
    410005e0:	f2dff06f          	j	4100050c <trap_handler_m__clear_highest_priority_interrupt>
    410005e4:	f29ff06f          	j	4100050c <trap_handler_m__clear_highest_priority_interrupt>
    410005e8:	f25ff06f          	j	4100050c <trap_handler_m__clear_highest_priority_interrupt>
    410005ec:	f21ff06f          	j	4100050c <trap_handler_m__clear_highest_priority_interrupt>
    410005f0:	f1dff06f          	j	4100050c <trap_handler_m__clear_highest_priority_interrupt>
    410005f4:	f19ff06f          	j	4100050c <trap_handler_m__clear_highest_priority_interrupt>
    410005f8:	f15ff06f          	j	4100050c <trap_handler_m__clear_highest_priority_interrupt>
    410005fc:	f11ff06f          	j	4100050c <trap_handler_m__clear_highest_priority_interrupt>
    41000600:	f0dff06f          	j	4100050c <trap_handler_m__clear_highest_priority_interrupt>
    41000604:	f09ff06f          	j	4100050c <trap_handler_m__clear_highest_priority_interrupt>
    41000608:	f05ff06f          	j	4100050c <trap_handler_m__clear_highest_priority_interrupt>
    4100060c:	f01ff06f          	j	4100050c <trap_handler_m__clear_highest_priority_interrupt>
    41000610:	efdff06f          	j	4100050c <trap_handler_m__clear_highest_priority_interrupt>
    41000614:	ef9ff06f          	j	4100050c <trap_handler_m__clear_highest_priority_interrupt>
    41000618:	ef5ff06f          	j	4100050c <trap_handler_m__clear_highest_priority_interrupt>

000000004100061c <trap_handler_m__trap_handler>:
    4100061c:	342022f3          	csrr	x5,mcause
    41000620:	fff0031b          	addiw	x6,x0,-1
    41000624:	03f31313          	slli	x6,x6,0x3f
    41000628:	00537333          	and	x6,x6,x5
    4100062c:	02030263          	beqz	x6,41000650 <trap_handler_m__exception_path>

0000000041000630 <trap_handler_m__interrupt_handler>:
    41000630:	fff0031b          	addiw	x6,x0,-1
    41000634:	03f31313          	slli	x6,x6,0x3f
    41000638:	0062c2b3          	xor	x5,x5,x6
    4100063c:	00000317          	auipc	x6,0x0
    41000640:	ee430313          	addi	x6,x6,-284 # 41000520 <trap_handler_m__trap_entry>
    41000644:	00229293          	slli	x5,x5,0x2
    41000648:	005302b3          	add	x5,x6,x5
    4100064c:	00028067          	jr	x5 # 2000 <SID_ZICBO_018_stack>

0000000041000650 <trap_handler_m__exception_path>:
    41000650:	34021273          	csrrw	x4,mscratch,x4
    41000654:	00000297          	auipc	x5,0x0
    41000658:	10828293          	addi	x5,x5,264 # 4100075c <trap_handler_m__trap_panic>
    4100065c:	30529073          	csrw	mtvec,x5
    41000660:	0040006f          	j	41000664 <trap_handler_m__excp_entry>

0000000041000664 <trap_handler_m__excp_entry>:
    41000664:	34202373          	csrr	x6,mcause
    41000668:	00800293          	li	x5,8
    4100066c:	00534863          	blt	x6,x5,4100067c <trap_handler_m__check_exception_label>
    41000670:	00b00293          	li	x5,11
    41000674:	0062c463          	blt	x5,x6,4100067c <trap_handler_m__check_exception_label>
    41000678:	a5dff06f          	j	410000d4 <syscalls__syscall_check_schedule_next_test>

000000004100067c <trap_handler_m__check_exception_label>:
    4100067c:	04623c23          	sd	x6,88(x4) # 58 <XLEN+0x18>
    41000680:	341022f3          	csrr	x5,mepc
    41000684:	02523423          	sd	x5,40(x4) # 28 <SECURE_ACCESS_PROBABILITY+0xa>
    41000688:	01820283          	lb	x5,24(x4) # 18 <STORE_GUEST_PAGE_FAULT+0x1>
    4100068c:	00029863          	bnez	x5,4100069c <trap_handler_m__check_excp>
    41000690:	00128293          	addi	x5,x5,1
    41000694:	00520c23          	sb	x5,24(x4) # 18 <STORE_GUEST_PAGE_FAULT+0x1>
    41000698:	0980006f          	j	41000730 <trap_handler_m__ecall_from_machine>

000000004100069c <trap_handler_m__check_excp>:
    4100069c:	06823283          	ld	x5,104(x4) # 68 <XLEN+0x28>
    410006a0:	06023423          	sd	x0,104(x4) # 68 <XLEN+0x28>
    410006a4:	00028663          	beqz	x5,410006b0 <trap_handler_m__skip_mode_check>
    410006a8:	00100393          	li	x7,1
    410006ac:	0e729463          	bne	x5,x7,41000794 <test_failed>

00000000410006b0 <trap_handler_m__skip_mode_check>:
    410006b0:	05023283          	ld	x5,80(x4) # 50 <XLEN+0x10>
    410006b4:	04023823          	sd	x0,80(x4) # 50 <XLEN+0x10>
    410006b8:	0c531e63          	bne	x6,x5,41000794 <test_failed>
    410006bc:	03823283          	ld	x5,56(x4) # 38 <SECURE_ACCESS_PROBABILITY+0x1a>
    410006c0:	02023c23          	sd	x0,56(x4) # 38 <SECURE_ACCESS_PROBABILITY+0x1a>
    410006c4:	06029463          	bnez	x5,4100072c <trap_handler_m__skip_gva_check>
    410006c8:	02023303          	ld	x6,32(x4) # 20 <SECURE_ACCESS_PROBABILITY+0x2>
    410006cc:	02023023          	sd	x0,32(x4) # 20 <SECURE_ACCESS_PROBABILITY+0x2>
    410006d0:	02823283          	ld	x5,40(x4) # 28 <SECURE_ACCESS_PROBABILITY+0xa>
    410006d4:	02023423          	sd	x0,40(x4) # 28 <SECURE_ACCESS_PROBABILITY+0xa>
    410006d8:	0a531e63          	bne	x6,x5,41000794 <test_failed>
    410006dc:	04023283          	ld	x5,64(x4) # 40 <XLEN>
    410006e0:	04023023          	sd	x0,64(x4) # 40 <XLEN>
    410006e4:	00028663          	beqz	x5,410006f0 <trap_handler_m__skip_nonzero_tval_check>

00000000410006e8 <trap_handler_m__nonzero_tval_check>:
    410006e8:	34302373          	csrr	x6,mtval
    410006ec:	0a531463          	bne	x6,x5,41000794 <test_failed>

00000000410006f0 <trap_handler_m__skip_nonzero_tval_check>:
    410006f0:	04823283          	ld	x5,72(x4) # 48 <XLEN+0x8>
    410006f4:	04023423          	sd	x0,72(x4) # 48 <XLEN+0x8>
    410006f8:	00028663          	beqz	x5,41000704 <trap_handler_m__skip_nonzero_htval_check>

00000000410006fc <trap_handler_m__nonzero_htval_check>:
    410006fc:	34b02373          	csrr	x6,0x34b
    41000700:	08531a63          	bne	x6,x5,41000794 <test_failed>

0000000041000704 <trap_handler_m__skip_nonzero_htval_check>:
    41000704:	06023283          	ld	x5,96(x4) # 60 <XLEN+0x20>
    41000708:	06023023          	sd	x0,96(x4) # 60 <XLEN+0x20>
    4100070c:	02028063          	beqz	x5,4100072c <trap_handler_m__skip_gva_check>

0000000041000710 <trap_handler_m__gva_check>:
    41000710:	30002373          	csrr	x6,mstatus
    41000714:	02635313          	srli	x6,x6,0x26
    41000718:	00137313          	andi	x6,x6,1
    4100071c:	06030c63          	beqz	x6,41000794 <test_failed>
    41000720:	0010031b          	addiw	x6,x0,1
    41000724:	02631313          	slli	x6,x6,0x26
    41000728:	30033073          	csrc	mstatus,x6

000000004100072c <trap_handler_m__skip_gva_check>:
    4100072c:	0040006f          	j	41000730 <trap_handler_m__ecall_from_machine>

0000000041000730 <trap_handler_m__ecall_from_machine>:
    41000730:	03023283          	ld	x5,48(x4) # 30 <SECURE_ACCESS_PROBABILITY+0x12>
    41000734:	02023823          	sd	x0,48(x4) # 30 <SECURE_ACCESS_PROBABILITY+0x12>
    41000738:	07023303          	ld	x6,112(x4) # 70 <XLEN+0x30>
    4100073c:	06023823          	sd	x0,112(x4) # 70 <XLEN+0x30>
    41000740:	00031463          	bnez	x6,41000748 <trap_handler_m__skip_xepc_write>
    41000744:	34129073          	csrw	mepc,x5

0000000041000748 <trap_handler_m__skip_xepc_write>:
    41000748:	00000317          	auipc	x6,0x0
    4100074c:	dd830313          	addi	x6,x6,-552 # 41000520 <trap_handler_m__trap_entry>
    41000750:	30531073          	csrw	mtvec,x6
    41000754:	34021273          	csrrw	x4,mscratch,x4
    41000758:	30200073          	mret

000000004100075c <trap_handler_m__trap_panic>:
    4100075c:	00000193          	li	x3,0
    41000760:	2b00006f          	j	41000a10 <eot__end_test>

0000000041000764 <enter_scheduler>:
    41000764:	0002f337          	lui	x6,0x2f
    41000768:	ab73031b          	addiw	x6,x6,-1353 # 2eab7 <SID_ZICBO_005_stack+0x1dab7>
    4100076c:	00e31313          	slli	x6,x6,0xe
    41000770:	0de30313          	addi	x6,x6,222
    41000774:	02628063          	beq	x5,x6,41000794 <test_failed>
    41000778:	00000513          	li	x10,0
    4100077c:	030000ef          	jal	410007ac <rvcp_print_test_result>
    41000780:	3140006f          	j	41000a94 <scheduler__dispatch>

0000000041000784 <test_passed>:
    41000784:	34021273          	csrrw	x4,mscratch,x4
    41000788:	00000513          	li	x10,0
    4100078c:	020000ef          	jal	410007ac <rvcp_print_test_result>
    41000790:	3040006f          	j	41000a94 <scheduler__dispatch>

0000000041000794 <test_failed>:
    41000794:	34021273          	csrrw	x4,mscratch,x4
    41000798:	00300193          	li	x3,3
    4100079c:	2740006f          	j	41000a10 <eot__end_test>

00000000410007a0 <os_end_test>:
    410007a0:	34021273          	csrrw	x4,mscratch,x4
    410007a4:	00100193          	li	x3,1
    410007a8:	2680006f          	j	41000a10 <eot__end_test>

00000000410007ac <rvcp_print_test_result>:
    410007ac:	00050e13          	mv	x28,x10
    410007b0:	18823283          	ld	x5,392(x4) # 188 <XLEN+0x148>
    410007b4:	0010031b          	addiw	x6,x0,1
    410007b8:	02031313          	slli	x6,x6,0x20
    410007bc:	ffe30313          	addi	x6,x6,-2
    410007c0:	1c628063          	beq	x5,x6,41000980 <rvcp_print_test_result+0x1d4>
    410007c4:	0010031b          	addiw	x6,x0,1
    410007c8:	02031313          	slli	x6,x6,0x20
    410007cc:	fff30313          	addi	x6,x6,-1
    410007d0:	1a628863          	beq	x5,x6,41000980 <rvcp_print_test_result+0x1d4>
    410007d4:	1a02c663          	bltz	x5,41000980 <rvcp_print_test_result+0x1d4>
    410007d8:	00000317          	auipc	x6,0x0
    410007dc:	4c430313          	addi	x6,x6,1220 # 41000c9c <dtest_descriptor_table>
    410007e0:	00329393          	slli	x7,x5,0x3
    410007e4:	00730333          	add	x6,x6,x7
    410007e8:	00033e83          	ld	x29,0(x6)
    410007ec:	44ee8f37          	lui	x30,0x44ee8
    410007f0:	030f0f1b          	addiw	x30,x30,48 # 44ee8030 <rvcp_prefix_str_pa>
    410007f4:	000f4283          	lbu	x5,0(x30)
    410007f8:	02028663          	beqz	x5,41000824 <rvcp_print_test_result+0x78>
    410007fc:	1010031b          	addiw	x6,x0,257
    41000800:	03031313          	slli	x6,x6,0x30
    41000804:	005362b3          	or	x5,x6,x5
    41000808:	0003f317          	auipc	x6,0x3f
    4100080c:	7f830313          	addi	x6,x6,2040 # 41040000 <tohost>
    41000810:	00033383          	ld	x7,0(x6)
    41000814:	fe039ee3          	bnez	x7,41000810 <rvcp_print_test_result+0x64>
    41000818:	00533023          	sd	x5,0(x6)
    4100081c:	001f0f13          	addi	x30,x30,1
    41000820:	fd5ff06f          	j	410007f4 <rvcp_print_test_result+0x48>
    41000824:	44ee8f37          	lui	x30,0x44ee8
    41000828:	041f0f1b          	addiw	x30,x30,65 # 44ee8041 <rvcp_testname_str_pa>
    4100082c:	000f4283          	lbu	x5,0(x30)
    41000830:	02028663          	beqz	x5,4100085c <rvcp_print_test_result+0xb0>
    41000834:	1010031b          	addiw	x6,x0,257
    41000838:	03031313          	slli	x6,x6,0x30
    4100083c:	005362b3          	or	x5,x6,x5
    41000840:	0003f317          	auipc	x6,0x3f
    41000844:	7c030313          	addi	x6,x6,1984 # 41040000 <tohost>
    41000848:	00033383          	ld	x7,0(x6)
    4100084c:	fe039ee3          	bnez	x7,41000848 <rvcp_print_test_result+0x9c>
    41000850:	00533023          	sd	x5,0(x6)
    41000854:	001f0f13          	addi	x30,x30,1
    41000858:	fd5ff06f          	j	4100082c <rvcp_print_test_result+0x80>
    4100085c:	44ee8f37          	lui	x30,0x44ee8
    41000860:	070f0f1b          	addiw	x30,x30,112 # 44ee8070 <rvcp_space_str_pa>
    41000864:	000f4283          	lbu	x5,0(x30)
    41000868:	02028663          	beqz	x5,41000894 <rvcp_print_test_result+0xe8>
    4100086c:	1010031b          	addiw	x6,x0,257
    41000870:	03031313          	slli	x6,x6,0x30
    41000874:	005362b3          	or	x5,x6,x5
    41000878:	0003f317          	auipc	x6,0x3f
    4100087c:	78830313          	addi	x6,x6,1928 # 41040000 <tohost>
    41000880:	00033383          	ld	x7,0(x6)
    41000884:	fe039ee3          	bnez	x7,41000880 <rvcp_print_test_result+0xd4>
    41000888:	00533023          	sd	x5,0(x6)
    4100088c:	001f0f13          	addi	x30,x30,1
    41000890:	fd5ff06f          	j	41000864 <rvcp_print_test_result+0xb8>
    41000894:	000e8f13          	mv	x30,x29
    41000898:	000f4283          	lbu	x5,0(x30)
    4100089c:	02028663          	beqz	x5,410008c8 <rvcp_print_test_result+0x11c>
    410008a0:	1010031b          	addiw	x6,x0,257
    410008a4:	03031313          	slli	x6,x6,0x30
    410008a8:	005362b3          	or	x5,x6,x5
    410008ac:	0003f317          	auipc	x6,0x3f
    410008b0:	75430313          	addi	x6,x6,1876 # 41040000 <tohost>
    410008b4:	00033383          	ld	x7,0(x6)
    410008b8:	fe039ee3          	bnez	x7,410008b4 <rvcp_print_test_result+0x108>
    410008bc:	00533023          	sd	x5,0(x6)
    410008c0:	001f0f13          	addi	x30,x30,1
    410008c4:	fd5ff06f          	j	41000898 <rvcp_print_test_result+0xec>
    410008c8:	44ee8f37          	lui	x30,0x44ee8
    410008cc:	070f0f1b          	addiw	x30,x30,112 # 44ee8070 <rvcp_space_str_pa>
    410008d0:	000f4283          	lbu	x5,0(x30)
    410008d4:	02028663          	beqz	x5,41000900 <rvcp_print_test_result+0x154>
    410008d8:	1010031b          	addiw	x6,x0,257
    410008dc:	03031313          	slli	x6,x6,0x30
    410008e0:	005362b3          	or	x5,x6,x5
    410008e4:	0003f317          	auipc	x6,0x3f
    410008e8:	71c30313          	addi	x6,x6,1820 # 41040000 <tohost>
    410008ec:	00033383          	ld	x7,0(x6)
    410008f0:	fe039ee3          	bnez	x7,410008ec <rvcp_print_test_result+0x140>
    410008f4:	00533023          	sd	x5,0(x6)
    410008f8:	001f0f13          	addi	x30,x30,1
    410008fc:	fd5ff06f          	j	410008d0 <rvcp_print_test_result+0x124>
    41000900:	000e1863          	bnez	x28,41000910 <rvcp_print_test_result+0x164>
    41000904:	44ee8f37          	lui	x30,0x44ee8
    41000908:	062f0f1b          	addiw	x30,x30,98 # 44ee8062 <rvcp_passed_str_pa>
    4100090c:	00c0006f          	j	41000918 <rvcp_print_test_result+0x16c>
    41000910:	44ee8f37          	lui	x30,0x44ee8
    41000914:	069f0f1b          	addiw	x30,x30,105 # 44ee8069 <rvcp_failed_str_pa>
    41000918:	000f4283          	lbu	x5,0(x30)
    4100091c:	02028663          	beqz	x5,41000948 <rvcp_print_test_result+0x19c>
    41000920:	1010031b          	addiw	x6,x0,257
    41000924:	03031313          	slli	x6,x6,0x30
    41000928:	005362b3          	or	x5,x6,x5
    4100092c:	0003f317          	auipc	x6,0x3f
    41000930:	6d430313          	addi	x6,x6,1748 # 41040000 <tohost>
    41000934:	00033383          	ld	x7,0(x6)
    41000938:	fe039ee3          	bnez	x7,41000934 <rvcp_print_test_result+0x188>
    4100093c:	00533023          	sd	x5,0(x6)
    41000940:	001f0f13          	addi	x30,x30,1
    41000944:	fd5ff06f          	j	41000918 <rvcp_print_test_result+0x16c>
    41000948:	44ee8f37          	lui	x30,0x44ee8
    4100094c:	072f0f1b          	addiw	x30,x30,114 # 44ee8072 <rvcp_newline_str_pa>
    41000950:	000f4283          	lbu	x5,0(x30)
    41000954:	02028663          	beqz	x5,41000980 <rvcp_print_test_result+0x1d4>
    41000958:	1010031b          	addiw	x6,x0,257
    4100095c:	03031313          	slli	x6,x6,0x30
    41000960:	005362b3          	or	x5,x6,x5
    41000964:	0003f317          	auipc	x6,0x3f
    41000968:	69c30313          	addi	x6,x6,1692 # 41040000 <tohost>
    4100096c:	00033383          	ld	x7,0(x6)
    41000970:	fe039ee3          	bnez	x7,4100096c <rvcp_print_test_result+0x1c0>
    41000974:	00533023          	sd	x5,0(x6)
    41000978:	001f0f13          	addi	x30,x30,1
    4100097c:	fd5ff06f          	j	41000950 <rvcp_print_test_result+0x1a4>
    41000980:	00008067          	ret

0000000041000984 <os_rng_orig>:
    41000984:	f14023f3          	csrr	x7,mhartid
    41000988:	00068313          	mv	x6,x13
    4100098c:	026383b3          	mul	x7,x7,x6
    41000990:	00058313          	mv	x6,x11
    41000994:	00730333          	add	x6,x6,x7
    41000998:	00033283          	ld	x5,0(x6)
    4100099c:	01529313          	slli	x6,x5,0x15
    410009a0:	0062c2b3          	xor	x5,x5,x6
    410009a4:	0232d313          	srli	x6,x5,0x23
    410009a8:	0062c2b3          	xor	x5,x5,x6
    410009ac:	00429313          	slli	x6,x5,0x4
    410009b0:	0062c2b3          	xor	x5,x5,x6
    410009b4:	00058313          	mv	x6,x11
    410009b8:	00730333          	add	x6,x6,x7
    410009bc:	00533023          	sd	x5,0(x6)
    410009c0:	00060313          	mv	x6,x12
    410009c4:	0262f2b3          	remu	x5,x5,x6
    410009c8:	00028513          	mv	x10,x5
    410009cc:	00008067          	ret
    410009d0:	02a00513          	li	x10,42
    410009d4:	001965b7          	lui	x11,0x196
    410009d8:	60d5859b          	addiw	x11,x11,1549 # 19660d <SID_ZICBO_50_ZIC64B_01_stack+0x8e60d>
    410009dc:	3c6ef637          	lui	x12,0x3c6ef
    410009e0:	35f6061b          	addiw	x12,x12,863 # 3c6ef35f <mem10+0x1b39135f>
    410009e4:	02200693          	li	x13,34
    410009e8:	02b50533          	mul	x10,x10,x11
    410009ec:	00c50533          	add	x10,x10,x12
    410009f0:	02d56533          	rem	x10,x10,x13
    410009f4:	00b00593          	li	x11,11
    410009f8:	02b56533          	rem	x10,x10,x11
    410009fc:	00008067          	ret

0000000041000a00 <tohost_mutex>:
	...

0000000041000a08 <tohost_addr_mem>:
    41000a08:	0000                	.insn	2, 0x0000
    41000a0a:	4104                	.insn	2, 0x4104
    41000a0c:	0000                	.insn	2, 0x0000
	...

0000000041000a10 <eot__end_test>:
    41000a10:	00100293          	li	x5,1
    41000a14:	00328463          	beq	x5,x3,41000a1c <eot__passed>
    41000a18:	01c0006f          	j	41000a34 <eot__failed>

0000000041000a1c <eot__passed>:
    41000a1c:	0ff0000f          	fence
    41000a20:	00000297          	auipc	x5,0x0
    41000a24:	fe82b283          	ld	x5,-24(x5) # 41000a08 <tohost_addr_mem>
    41000a28:	00100313          	li	x6,1
    41000a2c:	0062a023          	sw	x6,0(x5)
    41000a30:	0240006f          	j	41000a54 <eot__halt>

0000000041000a34 <eot__failed>:
    41000a34:	00100513          	li	x10,1
    41000a38:	d75ff0ef          	jal	410007ac <rvcp_print_test_result>
    41000a3c:	0ff0000f          	fence
    41000a40:	00000297          	auipc	x5,0x0
    41000a44:	fc82b283          	ld	x5,-56(x5) # 41000a08 <tohost_addr_mem>
    41000a48:	00300313          	li	x6,3
    41000a4c:	0062a023          	sw	x6,0(x5)
    41000a50:	0040006f          	j	41000a54 <eot__halt>

0000000041000a54 <eot__halt>:
    41000a54:	10500073          	wfi
    41000a58:	ffdff06f          	j	41000a54 <eot__halt>

0000000041000a5c <scheduler__init>:
    41000a5c:	00000297          	auipc	x5,0x0
    41000a60:	0d828293          	addi	x5,x5,216 # 41000b34 <scheduler__panic>
    41000a64:	305292f3          	csrrw	x5,mtvec,x5
    41000a68:	18523023          	sd	x5,384(x4) # 180 <XLEN+0x140>
    41000a6c:	02b00293          	li	x5,43
    41000a70:	18523823          	sd	x5,400(x4) # 190 <XLEN+0x150>
    41000a74:	0010029b          	addiw	x5,x0,1
    41000a78:	02029293          	slli	x5,x5,0x20
    41000a7c:	ffe28293          	addi	x5,x5,-2
    41000a80:	18523423          	sd	x5,392(x4) # 188 <XLEN+0x148>
    41000a84:	00000317          	auipc	x6,0x0
    41000a88:	40830313          	addi	x6,x6,1032 # 41000e8c <scheduler__test_setup_ptr>
    41000a8c:	00033303          	ld	x6,0(x6)
    41000a90:	07c0006f          	j	41000b0c <scheduler__execute_test>

0000000041000a94 <scheduler__dispatch>:
    41000a94:	00000297          	auipc	x5,0x0
    41000a98:	0a028293          	addi	x5,x5,160 # 41000b34 <scheduler__panic>
    41000a9c:	305292f3          	csrrw	x5,mtvec,x5
    41000aa0:	18523023          	sd	x5,384(x4) # 180 <XLEN+0x140>

0000000041000aa4 <scheduler__csr_read_randomization>:
    41000aa4:	344022f3          	csrr	x5,mip
    41000aa8:	f13022f3          	csrr	x5,mimpid
    41000aac:	f15022f3          	csrr	x5,0xf15
    41000ab0:	140022f3          	csrr	x5,sscratch
    41000ab4:	f14022f3          	csrr	x5,mhartid
    41000ab8:	144022f3          	csrr	x5,sip
    41000abc:	303022f3          	csrr	x5,mideleg
    41000ac0:	305022f3          	csrr	x5,mtvec
    41000ac4:	305022f3          	csrr	x5,mtvec
    41000ac8:	f12022f3          	csrr	x5,marchid
    41000acc:	302022f3          	csrr	x5,medeleg

0000000041000ad0 <scheduler__load_num_runs>:
    41000ad0:	19023303          	ld	x6,400(x4) # 190 <XLEN+0x150>
    41000ad4:	04030c63          	beqz	x6,41000b2c <scheduler__finished>

0000000041000ad8 <scheduler__decrement_num_runs>:
    41000ad8:	fff30393          	addi	x7,x6,-1
    41000adc:	18723823          	sd	x7,400(x4) # 190 <XLEN+0x150>
    41000ae0:	00000e17          	auipc	x28,0x0
    41000ae4:	2fce0e13          	addi	x28,x28,764 # 41000ddc <dtest_index_map>
    41000ae8:	00239e93          	slli	x29,x7,0x2
    41000aec:	01de0e33          	add	x28,x28,x29
    41000af0:	000e2e03          	lw	x28,0(x28)
    41000af4:	19c23423          	sd	x28,392(x4) # 188 <XLEN+0x148>

0000000041000af8 <scheduler__calc_test_pointer>:
    41000af8:	00339293          	slli	x5,x7,0x3

0000000041000afc <scheduler__load_test_addr>:
    41000afc:	00000317          	auipc	x6,0x0
    41000b00:	04830313          	addi	x6,x6,72 # 41000b44 <os_test_sequence>
    41000b04:	006282b3          	add	x5,x5,x6
    41000b08:	0002b303          	ld	x6,0(x5)

0000000041000b0c <scheduler__execute_test>:
    41000b0c:	18023283          	ld	x5,384(x4) # 180 <XLEN+0x140>
    41000b10:	30529073          	csrw	mtvec,x5
    41000b14:	34021273          	csrrw	x4,mscratch,x4
    41000b18:	00000213          	li	x4,0
    41000b1c:	14131073          	csrw	sepc,x6
    41000b20:	10000293          	li	x5,256
    41000b24:	1002a073          	csrs	sstatus,x5
    41000b28:	10200073          	sret

0000000041000b2c <scheduler__finished>:
    41000b2c:	00100193          	li	x3,1
    41000b30:	ee1ff06f          	j	41000a10 <eot__end_test>

0000000041000b34 <scheduler__panic>:
    41000b34:	00000193          	li	x3,0
    41000b38:	ed9ff06f          	j	41000a10 <eot__end_test>

0000000041000b3c <num_runs>:
    41000b3c:	0000002b          	.insn	4, 0x002b
    41000b40:	0000                	.insn	2, 0x0000
	...

0000000041000b44 <os_test_sequence>:
    41000b44:	5470                	.insn	2, 0x5470
    41000b46:	4101                	.insn	2, 0x4101
    41000b48:	0000                	.insn	2, 0x0000
    41000b4a:	0000                	.insn	2, 0x0000
    41000b4c:	4e50                	.insn	2, 0x4e50
    41000b4e:	4101                	.insn	2, 0x4101
    41000b50:	0000                	.insn	2, 0x0000
    41000b52:	0000                	.insn	2, 0x0000
    41000b54:	40e0                	.insn	2, 0x40e0
    41000b56:	4101                	.insn	2, 0x4101
    41000b58:	0000                	.insn	2, 0x0000
    41000b5a:	0000                	.insn	2, 0x0000
    41000b5c:	44b8                	.insn	2, 0x44b8
    41000b5e:	4101                	.insn	2, 0x4101
    41000b60:	0000                	.insn	2, 0x0000
    41000b62:	0000                	.insn	2, 0x0000
    41000b64:	40e0                	.insn	2, 0x40e0
    41000b66:	4101                	.insn	2, 0x4101
    41000b68:	0000                	.insn	2, 0x0000
    41000b6a:	0000                	.insn	2, 0x0000
    41000b6c:	51e4                	.insn	2, 0x51e4
    41000b6e:	4101                	.insn	2, 0x4101
    41000b70:	0000                	.insn	2, 0x0000
    41000b72:	0000                	.insn	2, 0x0000
    41000b74:	4ad4                	.insn	2, 0x4ad4
    41000b76:	4101                	.insn	2, 0x4101
    41000b78:	0000                	.insn	2, 0x0000
    41000b7a:	0000                	.insn	2, 0x0000
    41000b7c:	41fc                	.insn	2, 0x41fc
    41000b7e:	4101                	.insn	2, 0x4101
    41000b80:	0000                	.insn	2, 0x0000
    41000b82:	0000                	.insn	2, 0x0000
    41000b84:	44b8                	.insn	2, 0x44b8
    41000b86:	4101                	.insn	2, 0x4101
    41000b88:	0000                	.insn	2, 0x0000
    41000b8a:	0000                	.insn	2, 0x0000
    41000b8c:	4560                	.insn	2, 0x4560
    41000b8e:	4101                	.insn	2, 0x4101
    41000b90:	0000                	.insn	2, 0x0000
    41000b92:	0000                	.insn	2, 0x0000
    41000b94:	51e4                	.insn	2, 0x51e4
    41000b96:	4101                	.insn	2, 0x4101
    41000b98:	0000                	.insn	2, 0x0000
    41000b9a:	0000                	.insn	2, 0x0000
    41000b9c:	4900                	.insn	2, 0x4900
    41000b9e:	4101                	.insn	2, 0x4101
    41000ba0:	0000                	.insn	2, 0x0000
    41000ba2:	0000                	.insn	2, 0x0000
    41000ba4:	45e8                	.insn	2, 0x45e8
    41000ba6:	4101                	.insn	2, 0x4101
    41000ba8:	0000                	.insn	2, 0x0000
    41000baa:	0000                	.insn	2, 0x0000
    41000bac:	5054                	.insn	2, 0x5054
    41000bae:	4101                	.insn	2, 0x4101
    41000bb0:	0000                	.insn	2, 0x0000
    41000bb2:	0000                	.insn	2, 0x0000
    41000bb4:	4758                	.insn	2, 0x4758
    41000bb6:	4101                	.insn	2, 0x4101
    41000bb8:	0000                	.insn	2, 0x0000
    41000bba:	0000                	.insn	2, 0x0000
    41000bbc:	4e50                	.insn	2, 0x4e50
    41000bbe:	4101                	.insn	2, 0x4101
    41000bc0:	0000                	.insn	2, 0x0000
    41000bc2:	0000                	.insn	2, 0x0000
    41000bc4:	4758                	.insn	2, 0x4758
    41000bc6:	4101                	.insn	2, 0x4101
    41000bc8:	0000                	.insn	2, 0x0000
    41000bca:	0000                	.insn	2, 0x0000
    41000bcc:	44b8                	.insn	2, 0x44b8
    41000bce:	4101                	.insn	2, 0x4101
    41000bd0:	0000                	.insn	2, 0x0000
    41000bd2:	0000                	.insn	2, 0x0000
    41000bd4:	41fc                	.insn	2, 0x41fc
    41000bd6:	4101                	.insn	2, 0x4101
    41000bd8:	0000                	.insn	2, 0x0000
    41000bda:	0000                	.insn	2, 0x0000
    41000bdc:	45e8                	.insn	2, 0x45e8
    41000bde:	4101                	.insn	2, 0x4101
    41000be0:	0000                	.insn	2, 0x0000
    41000be2:	0000                	.insn	2, 0x0000
    41000be4:	5054                	.insn	2, 0x5054
    41000be6:	4101                	.insn	2, 0x4101
    41000be8:	0000                	.insn	2, 0x0000
    41000bea:	0000                	.insn	2, 0x0000
    41000bec:	51e4                	.insn	2, 0x51e4
    41000bee:	4101                	.insn	2, 0x4101
    41000bf0:	0000                	.insn	2, 0x0000
    41000bf2:	0000                	.insn	2, 0x0000
    41000bf4:	4520                	.insn	2, 0x4520
    41000bf6:	4101                	.insn	2, 0x4101
    41000bf8:	0000                	.insn	2, 0x0000
    41000bfa:	0000                	.insn	2, 0x0000
    41000bfc:	4758                	.insn	2, 0x4758
    41000bfe:	4101                	.insn	2, 0x4101
    41000c00:	0000                	.insn	2, 0x0000
    41000c02:	0000                	.insn	2, 0x0000
    41000c04:	4ad4                	.insn	2, 0x4ad4
    41000c06:	4101                	.insn	2, 0x4101
    41000c08:	0000                	.insn	2, 0x0000
    41000c0a:	0000                	.insn	2, 0x0000
    41000c0c:	45e8                	.insn	2, 0x45e8
    41000c0e:	4101                	.insn	2, 0x4101
    41000c10:	0000                	.insn	2, 0x0000
    41000c12:	0000                	.insn	2, 0x0000
    41000c14:	4c7c                	.insn	2, 0x4c7c
    41000c16:	4101                	.insn	2, 0x4101
    41000c18:	0000                	.insn	2, 0x0000
    41000c1a:	0000                	.insn	2, 0x0000
    41000c1c:	4520                	.insn	2, 0x4520
    41000c1e:	4101                	.insn	2, 0x4101
    41000c20:	0000                	.insn	2, 0x0000
    41000c22:	0000                	.insn	2, 0x0000
    41000c24:	4900                	.insn	2, 0x4900
    41000c26:	4101                	.insn	2, 0x4101
    41000c28:	0000                	.insn	2, 0x0000
    41000c2a:	0000                	.insn	2, 0x0000
    41000c2c:	4e50                	.insn	2, 0x4e50
    41000c2e:	4101                	.insn	2, 0x4101
    41000c30:	0000                	.insn	2, 0x0000
    41000c32:	0000                	.insn	2, 0x0000
    41000c34:	40e0                	.insn	2, 0x40e0
    41000c36:	4101                	.insn	2, 0x4101
    41000c38:	0000                	.insn	2, 0x0000
    41000c3a:	0000                	.insn	2, 0x0000
    41000c3c:	4560                	.insn	2, 0x4560
    41000c3e:	4101                	.insn	2, 0x4101
    41000c40:	0000                	.insn	2, 0x0000
    41000c42:	0000                	.insn	2, 0x0000
    41000c44:	439c                	.insn	2, 0x439c
    41000c46:	4101                	.insn	2, 0x4101
    41000c48:	0000                	.insn	2, 0x0000
    41000c4a:	0000                	.insn	2, 0x0000
    41000c4c:	4520                	.insn	2, 0x4520
    41000c4e:	4101                	.insn	2, 0x4101
    41000c50:	0000                	.insn	2, 0x0000
    41000c52:	0000                	.insn	2, 0x0000
    41000c54:	4900                	.insn	2, 0x4900
    41000c56:	4101                	.insn	2, 0x4101
    41000c58:	0000                	.insn	2, 0x0000
    41000c5a:	0000                	.insn	2, 0x0000
    41000c5c:	4c7c                	.insn	2, 0x4c7c
    41000c5e:	4101                	.insn	2, 0x4101
    41000c60:	0000                	.insn	2, 0x0000
    41000c62:	0000                	.insn	2, 0x0000
    41000c64:	4ad4                	.insn	2, 0x4ad4
    41000c66:	4101                	.insn	2, 0x4101
    41000c68:	0000                	.insn	2, 0x0000
    41000c6a:	0000                	.insn	2, 0x0000
    41000c6c:	4c7c                	.insn	2, 0x4c7c
    41000c6e:	4101                	.insn	2, 0x4101
    41000c70:	0000                	.insn	2, 0x0000
    41000c72:	0000                	.insn	2, 0x0000
    41000c74:	439c                	.insn	2, 0x439c
    41000c76:	4101                	.insn	2, 0x4101
    41000c78:	0000                	.insn	2, 0x0000
    41000c7a:	0000                	.insn	2, 0x0000
    41000c7c:	4560                	.insn	2, 0x4560
    41000c7e:	4101                	.insn	2, 0x4101
    41000c80:	0000                	.insn	2, 0x0000
    41000c82:	0000                	.insn	2, 0x0000
    41000c84:	41fc                	.insn	2, 0x41fc
    41000c86:	4101                	.insn	2, 0x4101
    41000c88:	0000                	.insn	2, 0x0000
    41000c8a:	0000                	.insn	2, 0x0000
    41000c8c:	5054                	.insn	2, 0x5054
    41000c8e:	4101                	.insn	2, 0x4101
    41000c90:	0000                	.insn	2, 0x0000
    41000c92:	0000                	.insn	2, 0x0000
    41000c94:	439c                	.insn	2, 0x439c
    41000c96:	4101                	.insn	2, 0x4101
    41000c98:	0000                	.insn	2, 0x0000
	...

0000000041000c9c <dtest_descriptor_table>:
    41000c9c:	0d0c                	.insn	2, 0x0d0c
    41000c9e:	4100                	.insn	2, 0x4100
    41000ca0:	0000                	.insn	2, 0x0000
    41000ca2:	0000                	.insn	2, 0x0000
    41000ca4:	0d1a                	.insn	2, 0x0d1a
    41000ca6:	4100                	.insn	2, 0x4100
    41000ca8:	0000                	.insn	2, 0x0000
    41000caa:	0000                	.insn	2, 0x0000
    41000cac:	0d28                	.insn	2, 0x0d28
    41000cae:	4100                	.insn	2, 0x4100
    41000cb0:	0000                	.insn	2, 0x0000
    41000cb2:	0000                	.insn	2, 0x0000
    41000cb4:	0d36                	.insn	2, 0x0d36
    41000cb6:	4100                	.insn	2, 0x4100
    41000cb8:	0000                	.insn	2, 0x0000
    41000cba:	0000                	.insn	2, 0x0000
    41000cbc:	0d44                	.insn	2, 0x0d44
    41000cbe:	4100                	.insn	2, 0x4100
    41000cc0:	0000                	.insn	2, 0x0000
    41000cc2:	0000                	.insn	2, 0x0000
    41000cc4:	0d52                	.insn	2, 0x0d52
    41000cc6:	4100                	.insn	2, 0x4100
    41000cc8:	0000                	.insn	2, 0x0000
    41000cca:	0000                	.insn	2, 0x0000
    41000ccc:	0d60                	.insn	2, 0x0d60
    41000cce:	4100                	.insn	2, 0x4100
    41000cd0:	0000                	.insn	2, 0x0000
    41000cd2:	0000                	.insn	2, 0x0000
    41000cd4:	0d6e                	.insn	2, 0x0d6e
    41000cd6:	4100                	.insn	2, 0x4100
    41000cd8:	0000                	.insn	2, 0x0000
    41000cda:	0000                	.insn	2, 0x0000
    41000cdc:	0d7c                	.insn	2, 0x0d7c
    41000cde:	4100                	.insn	2, 0x4100
    41000ce0:	0000                	.insn	2, 0x0000
    41000ce2:	0000                	.insn	2, 0x0000
    41000ce4:	0d8a                	.insn	2, 0x0d8a
    41000ce6:	4100                	.insn	2, 0x4100
    41000ce8:	0000                	.insn	2, 0x0000
    41000cea:	0000                	.insn	2, 0x0000
    41000cec:	0d98                	.insn	2, 0x0d98
    41000cee:	4100                	.insn	2, 0x4100
    41000cf0:	0000                	.insn	2, 0x0000
    41000cf2:	0000                	.insn	2, 0x0000
    41000cf4:	0da6                	.insn	2, 0x0da6
    41000cf6:	4100                	.insn	2, 0x4100
    41000cf8:	0000                	.insn	2, 0x0000
    41000cfa:	0000                	.insn	2, 0x0000
    41000cfc:	0db4                	.insn	2, 0x0db4
    41000cfe:	4100                	.insn	2, 0x4100
    41000d00:	0000                	.insn	2, 0x0000
    41000d02:	0000                	.insn	2, 0x0000
    41000d04:	0dc2                	.insn	2, 0x0dc2
    41000d06:	4100                	.insn	2, 0x4100
    41000d08:	0000                	.insn	2, 0x0000
	...

0000000041000d0c <dtest_name_0>:
    41000d0c:	5f444953          	.insn	4, 0x5f444953
    41000d10:	495a                	.insn	2, 0x495a
    41000d12:	5f4f4243          	.insn	4, 0x5f4f4243
    41000d16:	3030                	.insn	2, 0x3030
    41000d18:	0031                	.insn	2, 0x0031

0000000041000d1a <dtest_name_1>:
    41000d1a:	5f444953          	.insn	4, 0x5f444953
    41000d1e:	495a                	.insn	2, 0x495a
    41000d20:	5f4f4243          	.insn	4, 0x5f4f4243
    41000d24:	3030                	.insn	2, 0x3030
    41000d26:	          	.insn	4, 0x49530033

0000000041000d28 <dtest_name_2>:
    41000d28:	5f444953          	.insn	4, 0x5f444953
    41000d2c:	495a                	.insn	2, 0x495a
    41000d2e:	5f4f4243          	.insn	4, 0x5f4f4243
    41000d32:	3030                	.insn	2, 0x3030
    41000d34:	0035                	.insn	2, 0x0035

0000000041000d36 <dtest_name_3>:
    41000d36:	5f444953          	.insn	4, 0x5f444953
    41000d3a:	495a                	.insn	2, 0x495a
    41000d3c:	5f4f4243          	.insn	4, 0x5f4f4243
    41000d40:	3130                	.insn	2, 0x3130
    41000d42:	          	.insn	4, 0x49530033

0000000041000d44 <dtest_name_4>:
    41000d44:	5f444953          	.insn	4, 0x5f444953
    41000d48:	495a                	.insn	2, 0x495a
    41000d4a:	5f4f4243          	.insn	4, 0x5f4f4243
    41000d4e:	3130                	.insn	2, 0x3130
    41000d50:	0035                	.insn	2, 0x0035

0000000041000d52 <dtest_name_5>:
    41000d52:	5f444953          	.insn	4, 0x5f444953
    41000d56:	495a                	.insn	2, 0x495a
    41000d58:	5f4f4243          	.insn	4, 0x5f4f4243
    41000d5c:	3130                	.insn	2, 0x3130
    41000d5e:	0036                	.insn	2, 0x0036

0000000041000d60 <dtest_name_6>:
    41000d60:	5f444953          	.insn	4, 0x5f444953
    41000d64:	495a                	.insn	2, 0x495a
    41000d66:	5f4f4243          	.insn	4, 0x5f4f4243
    41000d6a:	3130                	.insn	2, 0x3130
    41000d6c:	          	lui	x0,0x49530

0000000041000d6e <dtest_name_7>:
    41000d6e:	5f444953          	.insn	4, 0x5f444953
    41000d72:	495a                	.insn	2, 0x495a
    41000d74:	5f4f4243          	.insn	4, 0x5f4f4243
    41000d78:	3130                	.insn	2, 0x3130
    41000d7a:	0038                	.insn	2, 0x0038

0000000041000d7c <dtest_name_8>:
    41000d7c:	5f444953          	.insn	4, 0x5f444953
    41000d80:	495a                	.insn	2, 0x495a
    41000d82:	5f4f4243          	.insn	4, 0x5f4f4243
    41000d86:	3130                	.insn	2, 0x3130
    41000d88:	0039                	.insn	2, 0x0039

0000000041000d8a <dtest_name_9>:
    41000d8a:	5f444953          	.insn	4, 0x5f444953
    41000d8e:	495a                	.insn	2, 0x495a
    41000d90:	5f4f4243          	.insn	4, 0x5f4f4243
    41000d94:	3230                	.insn	2, 0x3230
    41000d96:	0030                	.insn	2, 0x0030

0000000041000d98 <dtest_name_10>:
    41000d98:	5f444953          	.insn	4, 0x5f444953
    41000d9c:	495a                	.insn	2, 0x495a
    41000d9e:	5f4f4243          	.insn	4, 0x5f4f4243
    41000da2:	3230                	.insn	2, 0x3230
    41000da4:	0032                	.insn	2, 0x0032

0000000041000da6 <dtest_name_11>:
    41000da6:	5f444953          	.insn	4, 0x5f444953
    41000daa:	495a                	.insn	2, 0x495a
    41000dac:	5f4f4243          	.insn	4, 0x5f4f4243
    41000db0:	3430                	.insn	2, 0x3430
    41000db2:	          	lui	x0,0x49530

0000000041000db4 <dtest_name_12>:
    41000db4:	5f444953          	.insn	4, 0x5f444953
    41000db8:	495a                	.insn	2, 0x495a
    41000dba:	5f4f4243          	.insn	4, 0x5f4f4243
    41000dbe:	3430                	.insn	2, 0x3430
    41000dc0:	0039                	.insn	2, 0x0039

0000000041000dc2 <dtest_name_13>:
    41000dc2:	5f444953          	.insn	4, 0x5f444953
    41000dc6:	495a                	.insn	2, 0x495a
    41000dc8:	5f4f4243          	.insn	4, 0x5f4f4243
    41000dcc:	3035                	.insn	2, 0x3035
    41000dce:	5a5f 4349 3436      	.insn	6, 0x343643495a5f
    41000dd4:	5f42                	.insn	2, 0x5f42
    41000dd6:	3130                	.insn	2, 0x3130
    41000dd8:	0000                	.insn	2, 0x0000
	...

0000000041000ddc <dtest_index_map>:
    41000ddc:	ffff                	.insn	2, 0xffff
    41000dde:	ffff                	.insn	2, 0xffff
    41000de0:	0000000b          	.insn	4, 0x000b
    41000de4:	0000                	.insn	2, 0x0000
    41000de6:	0000                	.insn	2, 0x0000
    41000de8:	00000003          	lb	x0,0(x0) # 0 <ALL_4KB_PAGES>
    41000dec:	0000                	.insn	2, 0x0000
    41000dee:	0000                	.insn	2, 0x0000
    41000df0:	000d                	.insn	2, 0x000d
    41000df2:	0000                	.insn	2, 0x0000
    41000df4:	0009                	.insn	2, 0x0009
    41000df6:	0000                	.insn	2, 0x0000
    41000df8:	0001                	.insn	2, 0x0001
    41000dfa:	0000                	.insn	2, 0x0000
    41000dfc:	00000003          	lb	x0,0(x0) # 0 <ALL_4KB_PAGES>
    41000e00:	0005                	.insn	2, 0x0005
    41000e02:	0000                	.insn	2, 0x0000
    41000e04:	000d                	.insn	2, 0x000d
    41000e06:	0000                	.insn	2, 0x0000
    41000e08:	0008                	.insn	2, 0x0008
    41000e0a:	0000                	.insn	2, 0x0000
    41000e0c:	0006                	.insn	2, 0x0006
    41000e0e:	0000                	.insn	2, 0x0000
    41000e10:	000c                	.insn	2, 0x000c
    41000e12:	0000                	.insn	2, 0x0000
    41000e14:	00000007          	vle8.v	v0,(x0),v0.t
    41000e18:	0000000b          	.insn	4, 0x000b
    41000e1c:	00000007          	vle8.v	v0,(x0),v0.t
    41000e20:	00000003          	lb	x0,0(x0) # 0 <ALL_4KB_PAGES>
    41000e24:	0001                	.insn	2, 0x0001
    41000e26:	0000                	.insn	2, 0x0000
    41000e28:	0006                	.insn	2, 0x0006
    41000e2a:	0000                	.insn	2, 0x0000
    41000e2c:	000c                	.insn	2, 0x000c
    41000e2e:	0000                	.insn	2, 0x0000
    41000e30:	000d                	.insn	2, 0x000d
    41000e32:	0000                	.insn	2, 0x0000
    41000e34:	0004                	.insn	2, 0x0004
    41000e36:	0000                	.insn	2, 0x0000
    41000e38:	00000007          	vle8.v	v0,(x0),v0.t
    41000e3c:	0009                	.insn	2, 0x0009
    41000e3e:	0000                	.insn	2, 0x0000
    41000e40:	0006                	.insn	2, 0x0006
    41000e42:	0000                	.insn	2, 0x0000
    41000e44:	000a                	.insn	2, 0x000a
    41000e46:	0000                	.insn	2, 0x0000
    41000e48:	0004                	.insn	2, 0x0004
    41000e4a:	0000                	.insn	2, 0x0000
    41000e4c:	0008                	.insn	2, 0x0008
    41000e4e:	0000                	.insn	2, 0x0000
    41000e50:	0000000b          	.insn	4, 0x000b
    41000e54:	0000                	.insn	2, 0x0000
    41000e56:	0000                	.insn	2, 0x0000
    41000e58:	0005                	.insn	2, 0x0005
    41000e5a:	0000                	.insn	2, 0x0000
    41000e5c:	0002                	.insn	2, 0x0002
    41000e5e:	0000                	.insn	2, 0x0000
    41000e60:	0004                	.insn	2, 0x0004
    41000e62:	0000                	.insn	2, 0x0000
    41000e64:	0008                	.insn	2, 0x0008
    41000e66:	0000                	.insn	2, 0x0000
    41000e68:	000a                	.insn	2, 0x000a
    41000e6a:	0000                	.insn	2, 0x0000
    41000e6c:	0009                	.insn	2, 0x0009
    41000e6e:	0000                	.insn	2, 0x0000
    41000e70:	000a                	.insn	2, 0x000a
    41000e72:	0000                	.insn	2, 0x0000
    41000e74:	0002                	.insn	2, 0x0002
    41000e76:	0000                	.insn	2, 0x0000
    41000e78:	0005                	.insn	2, 0x0005
    41000e7a:	0000                	.insn	2, 0x0000
    41000e7c:	0001                	.insn	2, 0x0001
    41000e7e:	0000                	.insn	2, 0x0000
    41000e80:	000c                	.insn	2, 0x000c
    41000e82:	0000                	.insn	2, 0x0000
    41000e84:	0002                	.insn	2, 0x0002
    41000e86:	0000                	.insn	2, 0x0000
    41000e88:	0000                	.insn	2, 0x0000
	...

0000000041000e8c <scheduler__test_setup_ptr>:
    41000e8c:	40d0                	.insn	2, 0x40d0
    41000e8e:	4101                	.insn	2, 0x4101
    41000e90:	0000                	.insn	2, 0x0000
	...

0000000041000e94 <scheduler__test_cleanup_ptr>:
    41000e94:	5470                	.insn	2, 0x5470
    41000e96:	4101                	.insn	2, 0x4101
    41000e98:	0000                	.insn	2, 0x0000
	...

Disassembly of section .runtime_s:

0000000041010000 <trap_handler_s__invalid_interrupt>:
    41010000:	1740006f          	j	41010174 <trap_handler_s__test_failed>

0000000041010004 <trap_handler_s__clear_all_interrupts>:
    41010004:	14401073          	csrw	sip,x0
    41010008:	10200073          	sret

000000004101000c <trap_handler_s___CLEAR_SSI>:
    4101000c:	00200293          	li	x5,2
    41010010:	1442b073          	csrc	sip,x5
    41010014:	10200073          	sret

0000000041010018 <trap_handler_s___CLEAR_MSI>:
    41010018:	00800293          	li	x5,8
    4101001c:	1442b073          	csrc	sip,x5
    41010020:	10200073          	sret

0000000041010024 <trap_handler_s___CLEAR_STI>:
    41010024:	02000293          	li	x5,32
    41010028:	1442b073          	csrc	sip,x5
    4101002c:	10200073          	sret

0000000041010030 <trap_handler_s___CLEAR_MTI>:
    41010030:	08000293          	li	x5,128
    41010034:	1442b073          	csrc	sip,x5
    41010038:	10200073          	sret

000000004101003c <trap_handler_s___CLEAR_SEI>:
    4101003c:	20000293          	li	x5,512
    41010040:	1442b073          	csrc	sip,x5
    41010044:	10200073          	sret

0000000041010048 <trap_handler_s___CLEAR_MEI>:
    41010048:	000012b7          	lui	x5,0x1
    4101004c:	8002829b          	addiw	x5,x5,-2048 # 800 <XLEN+0x7c0>
    41010050:	1442b073          	csrc	sip,x5
    41010054:	10200073          	sret

0000000041010058 <trap_handler_s___CLEAR_COI>:
    41010058:	000022b7          	lui	x5,0x2
    4101005c:	1442b073          	csrc	sip,x5
    41010060:	10200073          	sret

0000000041010064 <trap_handler_s__clear_highest_priority_interrupt>:
    41010064:	144022f3          	csrr	x5,sip
    41010068:	40500333          	neg	x6,x5
    4101006c:	0062f2b3          	and	x5,x5,x6
    41010070:	1442b073          	csrc	sip,x5
    41010074:	10200073          	sret

0000000041010078 <trap_handler_s__trap_entry>:
    41010078:	10c0006f          	j	41010184 <trap_handler_s__trap_handler>

000000004101007c <trap_handler_s__interrupt_vector_table>:
    4101007c:	f91ff06f          	j	4101000c <trap_handler_s___CLEAR_SSI>
    41010080:	f81ff06f          	j	41010000 <trap_handler_s__invalid_interrupt>
    41010084:	f95ff06f          	j	41010018 <trap_handler_s___CLEAR_MSI>
    41010088:	f79ff06f          	j	41010000 <trap_handler_s__invalid_interrupt>
    4101008c:	f99ff06f          	j	41010024 <trap_handler_s___CLEAR_STI>
    41010090:	f71ff06f          	j	41010000 <trap_handler_s__invalid_interrupt>
    41010094:	f9dff06f          	j	41010030 <trap_handler_s___CLEAR_MTI>
    41010098:	f69ff06f          	j	41010000 <trap_handler_s__invalid_interrupt>
    4101009c:	fa1ff06f          	j	4101003c <trap_handler_s___CLEAR_SEI>
    410100a0:	f61ff06f          	j	41010000 <trap_handler_s__invalid_interrupt>
    410100a4:	fa5ff06f          	j	41010048 <trap_handler_s___CLEAR_MEI>
    410100a8:	f59ff06f          	j	41010000 <trap_handler_s__invalid_interrupt>
    410100ac:	fadff06f          	j	41010058 <trap_handler_s___CLEAR_COI>
    410100b0:	f51ff06f          	j	41010000 <trap_handler_s__invalid_interrupt>
    410100b4:	f4dff06f          	j	41010000 <trap_handler_s__invalid_interrupt>
    410100b8:	fadff06f          	j	41010064 <trap_handler_s__clear_highest_priority_interrupt>
    410100bc:	fa9ff06f          	j	41010064 <trap_handler_s__clear_highest_priority_interrupt>
    410100c0:	fa5ff06f          	j	41010064 <trap_handler_s__clear_highest_priority_interrupt>
    410100c4:	fa1ff06f          	j	41010064 <trap_handler_s__clear_highest_priority_interrupt>
    410100c8:	f9dff06f          	j	41010064 <trap_handler_s__clear_highest_priority_interrupt>
    410100cc:	f99ff06f          	j	41010064 <trap_handler_s__clear_highest_priority_interrupt>
    410100d0:	f95ff06f          	j	41010064 <trap_handler_s__clear_highest_priority_interrupt>
    410100d4:	f91ff06f          	j	41010064 <trap_handler_s__clear_highest_priority_interrupt>
    410100d8:	f8dff06f          	j	41010064 <trap_handler_s__clear_highest_priority_interrupt>
    410100dc:	f89ff06f          	j	41010064 <trap_handler_s__clear_highest_priority_interrupt>
    410100e0:	f85ff06f          	j	41010064 <trap_handler_s__clear_highest_priority_interrupt>
    410100e4:	f81ff06f          	j	41010064 <trap_handler_s__clear_highest_priority_interrupt>
    410100e8:	f7dff06f          	j	41010064 <trap_handler_s__clear_highest_priority_interrupt>
    410100ec:	f79ff06f          	j	41010064 <trap_handler_s__clear_highest_priority_interrupt>
    410100f0:	f75ff06f          	j	41010064 <trap_handler_s__clear_highest_priority_interrupt>
    410100f4:	f71ff06f          	j	41010064 <trap_handler_s__clear_highest_priority_interrupt>
    410100f8:	f6dff06f          	j	41010064 <trap_handler_s__clear_highest_priority_interrupt>
    410100fc:	f69ff06f          	j	41010064 <trap_handler_s__clear_highest_priority_interrupt>
    41010100:	f65ff06f          	j	41010064 <trap_handler_s__clear_highest_priority_interrupt>
    41010104:	f61ff06f          	j	41010064 <trap_handler_s__clear_highest_priority_interrupt>
    41010108:	f5dff06f          	j	41010064 <trap_handler_s__clear_highest_priority_interrupt>
    4101010c:	f59ff06f          	j	41010064 <trap_handler_s__clear_highest_priority_interrupt>
    41010110:	f55ff06f          	j	41010064 <trap_handler_s__clear_highest_priority_interrupt>
    41010114:	f51ff06f          	j	41010064 <trap_handler_s__clear_highest_priority_interrupt>
    41010118:	f4dff06f          	j	41010064 <trap_handler_s__clear_highest_priority_interrupt>
    4101011c:	f49ff06f          	j	41010064 <trap_handler_s__clear_highest_priority_interrupt>
    41010120:	f45ff06f          	j	41010064 <trap_handler_s__clear_highest_priority_interrupt>
    41010124:	f41ff06f          	j	41010064 <trap_handler_s__clear_highest_priority_interrupt>
    41010128:	f3dff06f          	j	41010064 <trap_handler_s__clear_highest_priority_interrupt>
    4101012c:	f39ff06f          	j	41010064 <trap_handler_s__clear_highest_priority_interrupt>
    41010130:	f35ff06f          	j	41010064 <trap_handler_s__clear_highest_priority_interrupt>
    41010134:	f31ff06f          	j	41010064 <trap_handler_s__clear_highest_priority_interrupt>
    41010138:	f2dff06f          	j	41010064 <trap_handler_s__clear_highest_priority_interrupt>
    4101013c:	f29ff06f          	j	41010064 <trap_handler_s__clear_highest_priority_interrupt>
    41010140:	f25ff06f          	j	41010064 <trap_handler_s__clear_highest_priority_interrupt>
    41010144:	f21ff06f          	j	41010064 <trap_handler_s__clear_highest_priority_interrupt>
    41010148:	f1dff06f          	j	41010064 <trap_handler_s__clear_highest_priority_interrupt>
    4101014c:	f19ff06f          	j	41010064 <trap_handler_s__clear_highest_priority_interrupt>
    41010150:	f15ff06f          	j	41010064 <trap_handler_s__clear_highest_priority_interrupt>
    41010154:	f11ff06f          	j	41010064 <trap_handler_s__clear_highest_priority_interrupt>
    41010158:	f0dff06f          	j	41010064 <trap_handler_s__clear_highest_priority_interrupt>
    4101015c:	f09ff06f          	j	41010064 <trap_handler_s__clear_highest_priority_interrupt>
    41010160:	f05ff06f          	j	41010064 <trap_handler_s__clear_highest_priority_interrupt>
    41010164:	f01ff06f          	j	41010064 <trap_handler_s__clear_highest_priority_interrupt>
    41010168:	efdff06f          	j	41010064 <trap_handler_s__clear_highest_priority_interrupt>
    4101016c:	ef9ff06f          	j	41010064 <trap_handler_s__clear_highest_priority_interrupt>
    41010170:	ef5ff06f          	j	41010064 <trap_handler_s__clear_highest_priority_interrupt>

0000000041010174 <trap_handler_s__test_failed>:
    41010174:	00f00f9b          	addiw	x31,x0,15
    41010178:	01cf9f93          	slli	x31,x31,0x1c
    4101017c:	002f8f93          	addi	x31,x31,2
    41010180:	00000073          	ecall

0000000041010184 <trap_handler_s__trap_handler>:
    41010184:	142022f3          	csrr	x5,scause
    41010188:	fff0031b          	addiw	x6,x0,-1
    4101018c:	03f31313          	slli	x6,x6,0x3f
    41010190:	00537333          	and	x6,x6,x5
    41010194:	02030263          	beqz	x6,410101b8 <trap_handler_s__exception_path>

0000000041010198 <trap_handler_s__interrupt_handler>:
    41010198:	fff0031b          	addiw	x6,x0,-1
    4101019c:	03f31313          	slli	x6,x6,0x3f
    410101a0:	0062c2b3          	xor	x5,x5,x6
    410101a4:	00000317          	auipc	x6,0x0
    410101a8:	ed430313          	addi	x6,x6,-300 # 41010078 <trap_handler_s__trap_entry>
    410101ac:	00229293          	slli	x5,x5,0x2
    410101b0:	005302b3          	add	x5,x6,x5
    410101b4:	00028067          	jr	x5 # 2000 <SID_ZICBO_018_stack>

00000000410101b8 <trap_handler_s__exception_path>:
    410101b8:	14021273          	csrrw	x4,sscratch,x4
    410101bc:	00000297          	auipc	x5,0x0
    410101c0:	0cc28293          	addi	x5,x5,204 # 41010288 <trap_handler_s__trap_panic>
    410101c4:	10529073          	csrw	stvec,x5
    410101c8:	0040006f          	j	410101cc <trap_handler_s__excp_entry>

00000000410101cc <trap_handler_s__excp_entry>:
    410101cc:	14202373          	csrr	x6,scause
    410101d0:	00800293          	li	x5,8
    410101d4:	00534863          	blt	x6,x5,410101e4 <trap_handler_s__check_exception_label>
    410101d8:	00b00293          	li	x5,11
    410101dc:	0062c463          	blt	x5,x6,410101e4 <trap_handler_s__check_exception_label>
    410101e0:	0a80006f          	j	41010288 <trap_handler_s__trap_panic>

00000000410101e4 <trap_handler_s__check_exception_label>:
    410101e4:	04623c23          	sd	x6,88(x4) # 58 <XLEN+0x18>
    410101e8:	141022f3          	csrr	x5,sepc
    410101ec:	02523423          	sd	x5,40(x4) # 28 <SECURE_ACCESS_PROBABILITY+0xa>
    410101f0:	01820283          	lb	x5,24(x4) # 18 <STORE_GUEST_PAGE_FAULT+0x1>
    410101f4:	00029863          	bnez	x5,41010204 <trap_handler_s__check_excp>
    410101f8:	00128293          	addi	x5,x5,1
    410101fc:	00520c23          	sb	x5,24(x4) # 18 <STORE_GUEST_PAGE_FAULT+0x1>
    41010200:	05c0006f          	j	4101025c <trap_handler_s__ecall_from_machine>

0000000041010204 <trap_handler_s__check_excp>:
    41010204:	06823283          	ld	x5,104(x4) # 68 <XLEN+0x28>
    41010208:	06023423          	sd	x0,104(x4) # 68 <XLEN+0x28>
    4101020c:	00028663          	beqz	x5,41010218 <trap_handler_s__skip_mode_check>
    41010210:	00300393          	li	x7,3
    41010214:	f67290e3          	bne	x5,x7,41010174 <trap_handler_s__test_failed>

0000000041010218 <trap_handler_s__skip_mode_check>:
    41010218:	05023283          	ld	x5,80(x4) # 50 <XLEN+0x10>
    4101021c:	04023823          	sd	x0,80(x4) # 50 <XLEN+0x10>
    41010220:	f4531ae3          	bne	x6,x5,41010174 <trap_handler_s__test_failed>
    41010224:	03823283          	ld	x5,56(x4) # 38 <SECURE_ACCESS_PROBABILITY+0x1a>
    41010228:	02023c23          	sd	x0,56(x4) # 38 <SECURE_ACCESS_PROBABILITY+0x1a>
    4101022c:	02029663          	bnez	x5,41010258 <trap_handler_s__skip_nonzero_tval_check>
    41010230:	02023303          	ld	x6,32(x4) # 20 <SECURE_ACCESS_PROBABILITY+0x2>
    41010234:	02023023          	sd	x0,32(x4) # 20 <SECURE_ACCESS_PROBABILITY+0x2>
    41010238:	02823283          	ld	x5,40(x4) # 28 <SECURE_ACCESS_PROBABILITY+0xa>
    4101023c:	02023423          	sd	x0,40(x4) # 28 <SECURE_ACCESS_PROBABILITY+0xa>
    41010240:	f2531ae3          	bne	x6,x5,41010174 <trap_handler_s__test_failed>
    41010244:	04023283          	ld	x5,64(x4) # 40 <XLEN>
    41010248:	04023023          	sd	x0,64(x4) # 40 <XLEN>
    4101024c:	00028663          	beqz	x5,41010258 <trap_handler_s__skip_nonzero_tval_check>

0000000041010250 <trap_handler_s__nonzero_tval_check>:
    41010250:	14302373          	csrr	x6,stval
    41010254:	f25310e3          	bne	x6,x5,41010174 <trap_handler_s__test_failed>

0000000041010258 <trap_handler_s__skip_nonzero_tval_check>:
    41010258:	0040006f          	j	4101025c <trap_handler_s__ecall_from_machine>

000000004101025c <trap_handler_s__ecall_from_machine>:
    4101025c:	03023283          	ld	x5,48(x4) # 30 <SECURE_ACCESS_PROBABILITY+0x12>
    41010260:	02023823          	sd	x0,48(x4) # 30 <SECURE_ACCESS_PROBABILITY+0x12>
    41010264:	07023303          	ld	x6,112(x4) # 70 <XLEN+0x30>
    41010268:	06023823          	sd	x0,112(x4) # 70 <XLEN+0x30>
    4101026c:	00031463          	bnez	x6,41010274 <trap_handler_s__skip_xepc_write>
    41010270:	14129073          	csrw	sepc,x5

0000000041010274 <trap_handler_s__skip_xepc_write>:
    41010274:	00000317          	auipc	x6,0x0
    41010278:	e0430313          	addi	x6,x6,-508 # 41010078 <trap_handler_s__trap_entry>
    4101027c:	10531073          	csrw	stvec,x6
    41010280:	14021273          	csrrw	x4,sscratch,x4
    41010284:	10200073          	sret

0000000041010288 <trap_handler_s__trap_panic>:
    41010288:	00000193          	li	x3,0
    4101028c:	00f00f9b          	addiw	x31,x0,15
    41010290:	01cf9f93          	slli	x31,x31,0x1c
    41010294:	002f8f93          	addi	x31,x31,2
    41010298:	00000073          	ecall

Disassembly of section .code:

00000000410140a0 <passed>:
    410140a0:	00f00f9b          	addiw	x31,x0,15
    410140a4:	01cf9f93          	slli	x31,x31,0x1c
    410140a8:	001f8f93          	addi	x31,x31,1
    410140ac:	00000073          	ecall

00000000410140b0 <failed>:
    410140b0:	00f00f9b          	addiw	x31,x0,15
    410140b4:	01cf9f93          	slli	x31,x31,0x1c
    410140b8:	002f8f93          	addi	x31,x31,2
    410140bc:	00000073          	ecall

00000000410140c0 <end_test>:
    410140c0:	00f00f9b          	addiw	x31,x0,15
    410140c4:	01cf9f93          	slli	x31,x31,0x1c
    410140c8:	003f8f93          	addi	x31,x31,3
    410140cc:	00000073          	ecall

00000000410140d0 <test_setup>:
    410140d0:	00f00f9b          	addiw	x31,x0,15
    410140d4:	01cf9f93          	slli	x31,x31,0x1c
    410140d8:	001f8f93          	addi	x31,x31,1
    410140dc:	00000073          	ecall

00000000410140e0 <SID_ZICBO_001>:
    410140e0:	00057137          	lui	x2,0x57
    410140e4:	00066fb7          	lui	x31,0x66
    410140e8:	0b8f8f9b          	addiw	x31,x31,184 # 660b8 <machine_csr_jump_table_flags>
    410140ec:	00100f13          	li	x30,1
    410140f0:	01efb023          	sd	x30,0(x31)
    410140f4:	000f0fb7          	lui	x31,0xf0
    410140f8:	001f8f9b          	addiw	x31,x31,1 # f0001 <SID_ZICBO_001_stack+0x88001>
    410140fc:	00cf9f93          	slli	x31,x31,0xc
    41014100:	005f8f93          	addi	x31,x31,5
    41014104:	00000073          	ecall
    41014108:	00713023          	sd	x7,0(x2) # 57000 <tp_csr_storage>
    4101410c:	00068137          	lui	x2,0x68
    41014110:	000012b7          	lui	x5,0x1
    41014114:	00510133          	add	x2,x2,x5
    41014118:	ff017113          	andi	x2,x2,-16
    4101411c:	03000393          	li	x7,48
    41014120:	00066fb7          	lui	x31,0x66
    41014124:	0b8f8f9b          	addiw	x31,x31,184 # 660b8 <machine_csr_jump_table_flags>
    41014128:	00200f13          	li	x30,2
    4101412c:	01efb023          	sd	x30,0(x31)
    41014130:	000f0fb7          	lui	x31,0xf0
    41014134:	001f8f9b          	addiw	x31,x31,1 # f0001 <SID_ZICBO_001_stack+0x88001>
    41014138:	00cf9f93          	slli	x31,x31,0xc
    4101413c:	005f8f93          	addi	x31,x31,5
    41014140:	00000073          	ecall
    41014144:	03eb9237          	lui	x4,0x3eb9
    41014148:	e7f2021b          	addiw	x4,x4,-385 # 3eb8e7f <mem14+0xc3de7f>
    4101414c:	00c21213          	slli	x4,x4,0xc
    41014150:	00200e13          	li	x28,2
    41014154:	05c23823          	sd	x28,80(x4) # 50 <XLEN+0x10>
    41014158:	00000e17          	auipc	x28,0x0
    4101415c:	054e0e13          	addi	x28,x28,84 # 410141ac <fault_label_0>
    41014160:	03c23023          	sd	x28,32(x4) # 20 <SECURE_ACCESS_PROBABILITY+0x2>
    41014164:	00000e13          	li	x28,0
    41014168:	05c23023          	sd	x28,64(x4) # 40 <XLEN>
    4101416c:	00000e13          	li	x28,0
    41014170:	05c23423          	sd	x28,72(x4) # 48 <XLEN+0x8>
    41014174:	00000e17          	auipc	x28,0x0
    41014178:	04ce0e13          	addi	x28,x28,76 # 410141c0 <excp_return_label_0>
    4101417c:	03c23823          	sd	x28,48(x4) # 30 <SECURE_ACCESS_PROBABILITY+0x12>
    41014180:	00000e13          	li	x28,0
    41014184:	03c23c23          	sd	x28,56(x4) # 38 <SECURE_ACCESS_PROBABILITY+0x1a>
    41014188:	00000e13          	li	x28,0
    4101418c:	07c23023          	sd	x28,96(x4) # 60 <XLEN+0x20>
    41014190:	00000e13          	li	x28,0
    41014194:	07c23423          	sd	x28,104(x4) # 68 <XLEN+0x28>
    41014198:	00000e13          	li	x28,0
    4101419c:	07c23823          	sd	x28,112(x4) # 70 <XLEN+0x30>
    410141a0:	000053b7          	lui	x7,0x5
    410141a4:	00000f93          	li	x31,0
    410141a8:	01f384b3          	add	x9,x7,x31

00000000410141ac <fault_label_0>:
    410141ac:	0004a00f          	cbo.inval	(x9)
    410141b0:	00066837          	lui	x16,0x66
    410141b4:	0088081b          	addiw	x16,x16,8 # 66008 <failed_addr>
    410141b8:	00083583          	ld	x11,0(x16)
    410141bc:	00058067          	jr	x11

00000000410141c0 <excp_return_label_0>:
    410141c0:	00057137          	lui	x2,0x57
    410141c4:	00013383          	ld	x7,0(x2) # 57000 <tp_csr_storage>
    410141c8:	00066fb7          	lui	x31,0x66
    410141cc:	0b8f8f9b          	addiw	x31,x31,184 # 660b8 <machine_csr_jump_table_flags>
    410141d0:	00300f13          	li	x30,3
    410141d4:	01efb023          	sd	x30,0(x31)
    410141d8:	000f0fb7          	lui	x31,0xf0
    410141dc:	001f8f9b          	addiw	x31,x31,1 # f0001 <SID_ZICBO_001_stack+0x88001>
    410141e0:	00cf9f93          	slli	x31,x31,0xc
    410141e4:	005f8f93          	addi	x31,x31,5
    410141e8:	00000073          	ecall

00000000410141ec <SID_ZICBO_001_passed>:
    410141ec:	00f00f9b          	addiw	x31,x0,15
    410141f0:	01cf9f93          	slli	x31,x31,0x1c
    410141f4:	001f8f93          	addi	x31,x31,1
    410141f8:	00000073          	ecall

00000000410141fc <SID_ZICBO_003>:
    410141fc:	00057137          	lui	x2,0x57
    41014200:	00066fb7          	lui	x31,0x66
    41014204:	0b8f8f9b          	addiw	x31,x31,184 # 660b8 <machine_csr_jump_table_flags>
    41014208:	00100f13          	li	x30,1
    4101420c:	01efb023          	sd	x30,0(x31)
    41014210:	000f0fb7          	lui	x31,0xf0
    41014214:	001f8f9b          	addiw	x31,x31,1 # f0001 <SID_ZICBO_001_stack+0x88001>
    41014218:	00cf9f93          	slli	x31,x31,0xc
    4101421c:	005f8f93          	addi	x31,x31,5
    41014220:	00000073          	ecall
    41014224:	00713023          	sd	x7,0(x2) # 57000 <tp_csr_storage>
    41014228:	00657137          	lui	x2,0x657
    4101422c:	b931011b          	addiw	x2,x2,-1133 # 656b93 <SID_ZICBO_50_ZIC64B_01_stack+0x54eb93>
    41014230:	00c11113          	slli	x2,x2,0xc
    41014234:	000012b7          	lui	x5,0x1
    41014238:	00510133          	add	x2,x2,x5
    4101423c:	ff017113          	andi	x2,x2,-16
    41014240:	04000393          	li	x7,64
    41014244:	00066fb7          	lui	x31,0x66
    41014248:	0b8f8f9b          	addiw	x31,x31,184 # 660b8 <machine_csr_jump_table_flags>
    4101424c:	00200f13          	li	x30,2
    41014250:	01efb023          	sd	x30,0(x31)
    41014254:	000f0fb7          	lui	x31,0xf0
    41014258:	001f8f9b          	addiw	x31,x31,1 # f0001 <SID_ZICBO_001_stack+0x88001>
    4101425c:	00cf9f93          	slli	x31,x31,0xc
    41014260:	005f8f93          	addi	x31,x31,5
    41014264:	00000073          	ecall
    41014268:	03eb9237          	lui	x4,0x3eb9
    4101426c:	e7f2021b          	addiw	x4,x4,-385 # 3eb8e7f <mem14+0xc3de7f>
    41014270:	00c21213          	slli	x4,x4,0xc
    41014274:	00200e13          	li	x28,2
    41014278:	05c23823          	sd	x28,80(x4) # 50 <XLEN+0x10>
    4101427c:	00000e17          	auipc	x28,0x0
    41014280:	054e0e13          	addi	x28,x28,84 # 410142d0 <fault_label_1>
    41014284:	03c23023          	sd	x28,32(x4) # 20 <SECURE_ACCESS_PROBABILITY+0x2>
    41014288:	00000e13          	li	x28,0
    4101428c:	05c23023          	sd	x28,64(x4) # 40 <XLEN>
    41014290:	00000e13          	li	x28,0
    41014294:	05c23423          	sd	x28,72(x4) # 48 <XLEN+0x8>
    41014298:	00000e17          	auipc	x28,0x0
    4101429c:	04ce0e13          	addi	x28,x28,76 # 410142e4 <excp_return_label_1>
    410142a0:	03c23823          	sd	x28,48(x4) # 30 <SECURE_ACCESS_PROBABILITY+0x12>
    410142a4:	00000e13          	li	x28,0
    410142a8:	03c23c23          	sd	x28,56(x4) # 38 <SECURE_ACCESS_PROBABILITY+0x1a>
    410142ac:	00000e13          	li	x28,0
    410142b0:	07c23023          	sd	x28,96(x4) # 60 <XLEN+0x20>
    410142b4:	00000e13          	li	x28,0
    410142b8:	07c23423          	sd	x28,104(x4) # 68 <XLEN+0x28>
    410142bc:	00000e13          	li	x28,0
    410142c0:	07c23823          	sd	x28,112(x4) # 70 <XLEN+0x30>
    410142c4:	161b8b37          	lui	x22,0x161b8
    410142c8:	00000393          	li	x7,0
    410142cc:	007b0ab3          	add	x21,x22,x7

00000000410142d0 <fault_label_1>:
    410142d0:	001aa00f          	cbo.clean	(x21)
    410142d4:	00066c37          	lui	x24,0x66
    410142d8:	008c0c1b          	addiw	x24,x24,8 # 66008 <failed_addr>
    410142dc:	000c3f03          	ld	x30,0(x24)
    410142e0:	000f0067          	jr	x30

00000000410142e4 <excp_return_label_1>:
    410142e4:	03eb9237          	lui	x4,0x3eb9
    410142e8:	e7f2021b          	addiw	x4,x4,-385 # 3eb8e7f <mem14+0xc3de7f>
    410142ec:	00c21213          	slli	x4,x4,0xc
    410142f0:	00200e13          	li	x28,2
    410142f4:	05c23823          	sd	x28,80(x4) # 50 <XLEN+0x10>
    410142f8:	00000e17          	auipc	x28,0x0
    410142fc:	054e0e13          	addi	x28,x28,84 # 4101434c <fault_label_2>
    41014300:	03c23023          	sd	x28,32(x4) # 20 <SECURE_ACCESS_PROBABILITY+0x2>
    41014304:	00000e13          	li	x28,0
    41014308:	05c23023          	sd	x28,64(x4) # 40 <XLEN>
    4101430c:	00000e13          	li	x28,0
    41014310:	05c23423          	sd	x28,72(x4) # 48 <XLEN+0x8>
    41014314:	00000e17          	auipc	x28,0x0
    41014318:	04ce0e13          	addi	x28,x28,76 # 41014360 <excp_return_label_2>
    4101431c:	03c23823          	sd	x28,48(x4) # 30 <SECURE_ACCESS_PROBABILITY+0x12>
    41014320:	00000e13          	li	x28,0
    41014324:	03c23c23          	sd	x28,56(x4) # 38 <SECURE_ACCESS_PROBABILITY+0x1a>
    41014328:	00000e13          	li	x28,0
    4101432c:	07c23023          	sd	x28,96(x4) # 60 <XLEN+0x20>
    41014330:	00000e13          	li	x28,0
    41014334:	07c23423          	sd	x28,104(x4) # 68 <XLEN+0x28>
    41014338:	00000e13          	li	x28,0
    4101433c:	07c23823          	sd	x28,112(x4) # 70 <XLEN+0x30>
    41014340:	161b89b7          	lui	x19,0x161b8
    41014344:	00000693          	li	x13,0
    41014348:	00d98533          	add	x10,x19,x13

000000004101434c <fault_label_2>:
    4101434c:	0025200f          	cbo.flush	(x10)
    41014350:	00066e37          	lui	x28,0x66
    41014354:	008e0e1b          	addiw	x28,x28,8 # 66008 <failed_addr>
    41014358:	000e3303          	ld	x6,0(x28)
    4101435c:	00030067          	jr	x6

0000000041014360 <excp_return_label_2>:
    41014360:	00057137          	lui	x2,0x57
    41014364:	00013383          	ld	x7,0(x2) # 57000 <tp_csr_storage>
    41014368:	00066fb7          	lui	x31,0x66
    4101436c:	0b8f8f9b          	addiw	x31,x31,184 # 660b8 <machine_csr_jump_table_flags>
    41014370:	00300f13          	li	x30,3
    41014374:	01efb023          	sd	x30,0(x31)
    41014378:	000f0fb7          	lui	x31,0xf0
    4101437c:	001f8f9b          	addiw	x31,x31,1 # f0001 <SID_ZICBO_001_stack+0x88001>
    41014380:	00cf9f93          	slli	x31,x31,0xc
    41014384:	005f8f93          	addi	x31,x31,5
    41014388:	00000073          	ecall

000000004101438c <SID_ZICBO_003_passed>:
    4101438c:	00f00f9b          	addiw	x31,x0,15
    41014390:	01cf9f93          	slli	x31,x31,0x1c
    41014394:	001f8f93          	addi	x31,x31,1
    41014398:	00000073          	ecall

000000004101439c <SID_ZICBO_005>:
    4101439c:	00057137          	lui	x2,0x57
    410143a0:	00066fb7          	lui	x31,0x66
    410143a4:	0b8f8f9b          	addiw	x31,x31,184 # 660b8 <machine_csr_jump_table_flags>
    410143a8:	00100f13          	li	x30,1
    410143ac:	01efb023          	sd	x30,0(x31)
    410143b0:	000f0fb7          	lui	x31,0xf0
    410143b4:	001f8f9b          	addiw	x31,x31,1 # f0001 <SID_ZICBO_001_stack+0x88001>
    410143b8:	00cf9f93          	slli	x31,x31,0xc
    410143bc:	005f8f93          	addi	x31,x31,5
    410143c0:	00000073          	ecall
    410143c4:	00713023          	sd	x7,0(x2) # 57000 <tp_csr_storage>
    410143c8:	00011137          	lui	x2,0x11
    410143cc:	000012b7          	lui	x5,0x1
    410143d0:	00510133          	add	x2,x2,x5
    410143d4:	ff017113          	andi	x2,x2,-16
    410143d8:	08000393          	li	x7,128
    410143dc:	00066fb7          	lui	x31,0x66
    410143e0:	0b8f8f9b          	addiw	x31,x31,184 # 660b8 <machine_csr_jump_table_flags>
    410143e4:	00200f13          	li	x30,2
    410143e8:	01efb023          	sd	x30,0(x31)
    410143ec:	000f0fb7          	lui	x31,0xf0
    410143f0:	001f8f9b          	addiw	x31,x31,1 # f0001 <SID_ZICBO_001_stack+0x88001>
    410143f4:	00cf9f93          	slli	x31,x31,0xc
    410143f8:	005f8f93          	addi	x31,x31,5
    410143fc:	00000073          	ecall
    41014400:	03eb9237          	lui	x4,0x3eb9
    41014404:	e7f2021b          	addiw	x4,x4,-385 # 3eb8e7f <mem14+0xc3de7f>
    41014408:	00c21213          	slli	x4,x4,0xc
    4101440c:	00200e13          	li	x28,2
    41014410:	05c23823          	sd	x28,80(x4) # 50 <XLEN+0x10>
    41014414:	00000e17          	auipc	x28,0x0
    41014418:	054e0e13          	addi	x28,x28,84 # 41014468 <fault_label_3>
    4101441c:	03c23023          	sd	x28,32(x4) # 20 <SECURE_ACCESS_PROBABILITY+0x2>
    41014420:	00000e13          	li	x28,0
    41014424:	05c23023          	sd	x28,64(x4) # 40 <XLEN>
    41014428:	00000e13          	li	x28,0
    4101442c:	05c23423          	sd	x28,72(x4) # 48 <XLEN+0x8>
    41014430:	00000e17          	auipc	x28,0x0
    41014434:	04ce0e13          	addi	x28,x28,76 # 4101447c <excp_return_label_3>
    41014438:	03c23823          	sd	x28,48(x4) # 30 <SECURE_ACCESS_PROBABILITY+0x12>
    4101443c:	00000e13          	li	x28,0
    41014440:	03c23c23          	sd	x28,56(x4) # 38 <SECURE_ACCESS_PROBABILITY+0x1a>
    41014444:	00000e13          	li	x28,0
    41014448:	07c23023          	sd	x28,96(x4) # 60 <XLEN+0x20>
    4101444c:	00000e13          	li	x28,0
    41014450:	07c23423          	sd	x28,104(x4) # 68 <XLEN+0x28>
    41014454:	00000e13          	li	x28,0
    41014458:	07c23823          	sd	x28,112(x4) # 70 <XLEN+0x30>
    4101445c:	0000b9b7          	lui	x19,0xb
    41014460:	00000a93          	li	x21,0
    41014464:	01598e33          	add	x28,x19,x21

0000000041014468 <fault_label_3>:
    41014468:	004e200f          	cbo.zero	(x28)
    4101446c:	00066ab7          	lui	x21,0x66
    41014470:	008a8a9b          	addiw	x21,x21,8 # 66008 <failed_addr>
    41014474:	000abe03          	ld	x28,0(x21)
    41014478:	000e0067          	jr	x28

000000004101447c <excp_return_label_3>:
    4101447c:	00057137          	lui	x2,0x57
    41014480:	00013383          	ld	x7,0(x2) # 57000 <tp_csr_storage>
    41014484:	00066fb7          	lui	x31,0x66
    41014488:	0b8f8f9b          	addiw	x31,x31,184 # 660b8 <machine_csr_jump_table_flags>
    4101448c:	00300f13          	li	x30,3
    41014490:	01efb023          	sd	x30,0(x31)
    41014494:	000f0fb7          	lui	x31,0xf0
    41014498:	001f8f9b          	addiw	x31,x31,1 # f0001 <SID_ZICBO_001_stack+0x88001>
    4101449c:	00cf9f93          	slli	x31,x31,0xc
    410144a0:	005f8f93          	addi	x31,x31,5
    410144a4:	00000073          	ecall

00000000410144a8 <SID_ZICBO_005_passed>:
    410144a8:	00f00f9b          	addiw	x31,x0,15
    410144ac:	01cf9f93          	slli	x31,x31,0x1c
    410144b0:	001f8f93          	addi	x31,x31,1
    410144b4:	00000073          	ecall

00000000410144b8 <SID_ZICBO_013>:
    410144b8:	40f3d137          	lui	x2,0x40f3d
    410144bc:	000012b7          	lui	x5,0x1
    410144c0:	00510133          	add	x2,x2,x5
    410144c4:	ff017113          	andi	x2,x2,-16
    410144c8:	03886337          	lui	x6,0x3886
    410144cc:	b413031b          	addiw	x6,x6,-1215 # 3885b41 <mem14+0x60ab41>
    410144d0:	00c31313          	slli	x6,x6,0xc
    410144d4:	00000e93          	li	x29,0
    410144d8:	01d30ab3          	add	x21,x6,x29
    410144dc:	000ae013          	prefetch.i	0(x21)
    410144e0:	038867b7          	lui	x15,0x3886
    410144e4:	b417879b          	addiw	x15,x15,-1215 # 3885b41 <mem14+0x60ab41>
    410144e8:	00c79793          	slli	x15,x15,0xc
    410144ec:	00000e93          	li	x29,0
    410144f0:	01d78eb3          	add	x29,x15,x29
    410144f4:	001ee013          	prefetch.r	0(x29)
    410144f8:	03886737          	lui	x14,0x3886
    410144fc:	b417071b          	addiw	x14,x14,-1215 # 3885b41 <mem14+0x60ab41>
    41014500:	00c71713          	slli	x14,x14,0xc
    41014504:	00000e13          	li	x28,0
    41014508:	01c70533          	add	x10,x14,x28
    4101450c:	00356013          	prefetch.w	0(x10)

0000000041014510 <SID_ZICBO_013_passed>:
    41014510:	00f00f9b          	addiw	x31,x0,15
    41014514:	01cf9f93          	slli	x31,x31,0x1c
    41014518:	001f8f93          	addi	x31,x31,1
    4101451c:	00000073          	ecall

0000000041014520 <SID_ZICBO_015>:
    41014520:	feac6137          	lui	x2,0xfeac6
    41014524:	6df1011b          	addiw	x2,x2,1759 # fffffffffeac66df <SID_ZICBO_015_stack+0x15383e76df>
    41014528:	00c11113          	slli	x2,x2,0xc
    4101452c:	000012b7          	lui	x5,0x1
    41014530:	00510133          	add	x2,x2,x5
    41014534:	ff017113          	andi	x2,x2,-16
    41014538:	006a7837          	lui	x16,0x6a7
    4101453c:	1818081b          	addiw	x16,x16,385 # 6a7181 <SID_ZICBO_50_ZIC64B_01_stack+0x59f181>
    41014540:	00e81813          	slli	x16,x16,0xe
    41014544:	7e000313          	li	x6,2016
    41014548:	006803b3          	add	x7,x16,x6
    4101454c:	0003e013          	prefetch.i	0(x7)

0000000041014550 <SID_ZICBO_015_passed>:
    41014550:	00f00f9b          	addiw	x31,x0,15
    41014554:	01cf9f93          	slli	x31,x31,0x1c
    41014558:	001f8f93          	addi	x31,x31,1
    4101455c:	00000073          	ecall

0000000041014560 <SID_ZICBO_016>:
    41014560:	ff349137          	lui	x2,0xff349
    41014564:	18b1011b          	addiw	x2,x2,395 # ffffffffff34918b <SID_ZICBO_015_stack+0x1538c6a18b>
    41014568:	00d11113          	slli	x2,x2,0xd
    4101456c:	000012b7          	lui	x5,0x1
    41014570:	00510133          	add	x2,x2,x5
    41014574:	ff017113          	andi	x2,x2,-16
    41014578:	03886337          	lui	x6,0x3886
    4101457c:	b433031b          	addiw	x6,x6,-1213 # 3885b43 <mem14+0x60ab43>
    41014580:	00c31313          	slli	x6,x6,0xc
    41014584:	00000d93          	li	x27,0
    41014588:	01b30c33          	add	x24,x6,x27
    4101458c:	001c6013          	prefetch.r	0(x24)
    41014590:	038863b7          	lui	x7,0x3886
    41014594:	b433839b          	addiw	x7,x7,-1213 # 3885b43 <mem14+0x60ab43>
    41014598:	00c39393          	slli	x7,x7,0xc
    4101459c:	7e000a13          	li	x20,2016
    410145a0:	01438333          	add	x6,x7,x20
    410145a4:	00136013          	prefetch.r	0(x6)
    410145a8:	03886737          	lui	x14,0x3886
    410145ac:	b437071b          	addiw	x14,x14,-1213 # 3885b43 <mem14+0x60ab43>
    410145b0:	00c71713          	slli	x14,x14,0xc
    410145b4:	00000b93          	li	x23,0
    410145b8:	01770333          	add	x6,x14,x23
    410145bc:	00336013          	prefetch.w	0(x6)
    410145c0:	03886437          	lui	x8,0x3886
    410145c4:	b434041b          	addiw	x8,x8,-1213 # 3885b43 <mem14+0x60ab43>
    410145c8:	00c41413          	slli	x8,x8,0xc
    410145cc:	7e000f13          	li	x30,2016
    410145d0:	01e408b3          	add	x17,x8,x30
    410145d4:	0038e013          	prefetch.w	0(x17)

00000000410145d8 <SID_ZICBO_016_passed>:
    410145d8:	00f00f9b          	addiw	x31,x0,15
    410145dc:	01cf9f93          	slli	x31,x31,0x1c
    410145e0:	001f8f93          	addi	x31,x31,1
    410145e4:	00000073          	ecall

00000000410145e8 <SID_ZICBO_017>:
    410145e8:	00057137          	lui	x2,0x57
    410145ec:	00066fb7          	lui	x31,0x66
    410145f0:	0b8f8f9b          	addiw	x31,x31,184 # 660b8 <machine_csr_jump_table_flags>
    410145f4:	00a00f13          	li	x30,10
    410145f8:	01efb023          	sd	x30,0(x31)
    410145fc:	000f0fb7          	lui	x31,0xf0
    41014600:	001f8f9b          	addiw	x31,x31,1 # f0001 <SID_ZICBO_001_stack+0x88001>
    41014604:	00cf9f93          	slli	x31,x31,0xc
    41014608:	005f8f93          	addi	x31,x31,5
    4101460c:	00000073          	ecall
    41014610:	00713023          	sd	x7,0(x2) # 57000 <tp_csr_storage>
    41014614:	00066fb7          	lui	x31,0x66
    41014618:	0b8f8f9b          	addiw	x31,x31,184 # 660b8 <machine_csr_jump_table_flags>
    4101461c:	00100f13          	li	x30,1
    41014620:	01efb023          	sd	x30,0(x31)
    41014624:	000f0fb7          	lui	x31,0xf0
    41014628:	001f8f9b          	addiw	x31,x31,1 # f0001 <SID_ZICBO_001_stack+0x88001>
    4101462c:	00cf9f93          	slli	x31,x31,0xc
    41014630:	005f8f93          	addi	x31,x31,5
    41014634:	00000073          	ecall
    41014638:	00713423          	sd	x7,8(x2)
    4101463c:	00066fb7          	lui	x31,0x66
    41014640:	0b8f8f9b          	addiw	x31,x31,184 # 660b8 <machine_csr_jump_table_flags>
    41014644:	00c00f13          	li	x30,12
    41014648:	01efb023          	sd	x30,0(x31)
    4101464c:	000f0fb7          	lui	x31,0xf0
    41014650:	001f8f9b          	addiw	x31,x31,1 # f0001 <SID_ZICBO_001_stack+0x88001>
    41014654:	00cf9f93          	slli	x31,x31,0xc
    41014658:	005f8f93          	addi	x31,x31,5
    4101465c:	00000073          	ecall
    41014660:	00713823          	sd	x7,16(x2)
    41014664:	00598137          	lui	x2,0x598
    41014668:	deb1011b          	addiw	x2,x2,-533 # 597deb <SID_ZICBO_50_ZIC64B_01_stack+0x48fdeb>
    4101466c:	00d11113          	slli	x2,x2,0xd
    41014670:	000012b7          	lui	x5,0x1
    41014674:	00510133          	add	x2,x2,x5
    41014678:	ff017113          	andi	x2,x2,-16
    4101467c:	08000393          	li	x7,128
    41014680:	00066fb7          	lui	x31,0x66
    41014684:	0b8f8f9b          	addiw	x31,x31,184 # 660b8 <machine_csr_jump_table_flags>
    41014688:	00d00f13          	li	x30,13
    4101468c:	01efb023          	sd	x30,0(x31)
    41014690:	000f0fb7          	lui	x31,0xf0
    41014694:	001f8f9b          	addiw	x31,x31,1 # f0001 <SID_ZICBO_001_stack+0x88001>
    41014698:	00cf9f93          	slli	x31,x31,0xc
    4101469c:	005f8f93          	addi	x31,x31,5
    410146a0:	00000073          	ecall
    410146a4:	08000f93          	li	x31,128
    410146a8:	10afaaf3          	csrrs	x21,0x10a,x31
    410146ac:	08000b93          	li	x23,128
    410146b0:	60abad73          	csrrs	x26,henvcfg,x23
    410146b4:	0181d737          	lui	x14,0x181d
    410146b8:	8677071b          	addiw	x14,x14,-1945 # 181c867 <mem11+0x827867>
    410146bc:	00c71713          	slli	x14,x14,0xc
    410146c0:	00000993          	li	x19,0
    410146c4:	013707b3          	add	x15,x14,x19
    410146c8:	0047a00f          	cbo.zero	(x15)
    410146cc:	00057137          	lui	x2,0x57
    410146d0:	00013383          	ld	x7,0(x2) # 57000 <tp_csr_storage>
    410146d4:	00066fb7          	lui	x31,0x66
    410146d8:	0b8f8f9b          	addiw	x31,x31,184 # 660b8 <machine_csr_jump_table_flags>
    410146dc:	00e00f13          	li	x30,14
    410146e0:	01efb023          	sd	x30,0(x31)
    410146e4:	000f0fb7          	lui	x31,0xf0
    410146e8:	001f8f9b          	addiw	x31,x31,1 # f0001 <SID_ZICBO_001_stack+0x88001>
    410146ec:	00cf9f93          	slli	x31,x31,0xc
    410146f0:	005f8f93          	addi	x31,x31,5
    410146f4:	00000073          	ecall
    410146f8:	00813383          	ld	x7,8(x2)
    410146fc:	00066fb7          	lui	x31,0x66
    41014700:	0b8f8f9b          	addiw	x31,x31,184 # 660b8 <machine_csr_jump_table_flags>
    41014704:	00300f13          	li	x30,3
    41014708:	01efb023          	sd	x30,0(x31)
    4101470c:	000f0fb7          	lui	x31,0xf0
    41014710:	001f8f9b          	addiw	x31,x31,1 # f0001 <SID_ZICBO_001_stack+0x88001>
    41014714:	00cf9f93          	slli	x31,x31,0xc
    41014718:	005f8f93          	addi	x31,x31,5
    4101471c:	00000073          	ecall
    41014720:	01013383          	ld	x7,16(x2)
    41014724:	00066fb7          	lui	x31,0x66
    41014728:	0b8f8f9b          	addiw	x31,x31,184 # 660b8 <machine_csr_jump_table_flags>
    4101472c:	01000f13          	li	x30,16
    41014730:	01efb023          	sd	x30,0(x31)
    41014734:	000f0fb7          	lui	x31,0xf0
    41014738:	001f8f9b          	addiw	x31,x31,1 # f0001 <SID_ZICBO_001_stack+0x88001>
    4101473c:	00cf9f93          	slli	x31,x31,0xc
    41014740:	005f8f93          	addi	x31,x31,5
    41014744:	00000073          	ecall

0000000041014748 <SID_ZICBO_017_passed>:
    41014748:	00f00f9b          	addiw	x31,x0,15
    4101474c:	01cf9f93          	slli	x31,x31,0x1c
    41014750:	001f8f93          	addi	x31,x31,1
    41014754:	00000073          	ecall

0000000041014758 <SID_ZICBO_018>:
    41014758:	00057137          	lui	x2,0x57
    4101475c:	00066fb7          	lui	x31,0x66
    41014760:	0b8f8f9b          	addiw	x31,x31,184 # 660b8 <machine_csr_jump_table_flags>
    41014764:	00a00f13          	li	x30,10
    41014768:	01efb023          	sd	x30,0(x31)
    4101476c:	000f0fb7          	lui	x31,0xf0
    41014770:	001f8f9b          	addiw	x31,x31,1 # f0001 <SID_ZICBO_001_stack+0x88001>
    41014774:	00cf9f93          	slli	x31,x31,0xc
    41014778:	005f8f93          	addi	x31,x31,5
    4101477c:	00000073          	ecall
    41014780:	00713023          	sd	x7,0(x2) # 57000 <tp_csr_storage>
    41014784:	00066fb7          	lui	x31,0x66
    41014788:	0b8f8f9b          	addiw	x31,x31,184 # 660b8 <machine_csr_jump_table_flags>
    4101478c:	00100f13          	li	x30,1
    41014790:	01efb023          	sd	x30,0(x31)
    41014794:	000f0fb7          	lui	x31,0xf0
    41014798:	001f8f9b          	addiw	x31,x31,1 # f0001 <SID_ZICBO_001_stack+0x88001>
    4101479c:	00cf9f93          	slli	x31,x31,0xc
    410147a0:	005f8f93          	addi	x31,x31,5
    410147a4:	00000073          	ecall
    410147a8:	00713423          	sd	x7,8(x2)
    410147ac:	00066fb7          	lui	x31,0x66
    410147b0:	0b8f8f9b          	addiw	x31,x31,184 # 660b8 <machine_csr_jump_table_flags>
    410147b4:	00c00f13          	li	x30,12
    410147b8:	01efb023          	sd	x30,0(x31)
    410147bc:	000f0fb7          	lui	x31,0xf0
    410147c0:	001f8f9b          	addiw	x31,x31,1 # f0001 <SID_ZICBO_001_stack+0x88001>
    410147c4:	00cf9f93          	slli	x31,x31,0xc
    410147c8:	005f8f93          	addi	x31,x31,5
    410147cc:	00000073          	ecall
    410147d0:	00713823          	sd	x7,16(x2)
    410147d4:	00002137          	lui	x2,0x2
    410147d8:	000012b7          	lui	x5,0x1
    410147dc:	00510133          	add	x2,x2,x5
    410147e0:	ff017113          	andi	x2,x2,-16
    410147e4:	0f000393          	li	x7,240
    410147e8:	00066fb7          	lui	x31,0x66
    410147ec:	0b8f8f9b          	addiw	x31,x31,184 # 660b8 <machine_csr_jump_table_flags>
    410147f0:	00d00f13          	li	x30,13
    410147f4:	01efb023          	sd	x30,0(x31)
    410147f8:	000f0fb7          	lui	x31,0xf0
    410147fc:	001f8f9b          	addiw	x31,x31,1 # f0001 <SID_ZICBO_001_stack+0x88001>
    41014800:	00cf9f93          	slli	x31,x31,0xc
    41014804:	005f8f93          	addi	x31,x31,5
    41014808:	00000073          	ecall
    4101480c:	0f000813          	li	x16,240
    41014810:	10a82373          	csrrs	x6,0x10a,x16
    41014814:	0f000b13          	li	x22,240
    41014818:	60ab2df3          	csrrs	x27,henvcfg,x22
    4101481c:	00ffffb7          	lui	x31,0xfff
    41014820:	9fdf8f9b          	addiw	x31,x31,-1539 # ffe9fd <mem11+0x99fd>
    41014824:	00ef9f93          	slli	x31,x31,0xe
    41014828:	380215b7          	lui	x11,0x38021
    4101482c:	8ac5859b          	addiw	x11,x11,-1876 # 380208ac <mem10+0x16cc28ac>
    41014830:	d015f353          	fcvt.s.wu	f6,x11
    41014834:	006fa027          	fsw	f6,0(x31)
    41014838:	00fff837          	lui	x16,0xfff
    4101483c:	9fd8081b          	addiw	x16,x16,-1539 # ffe9fd <mem11+0x99fd>
    41014840:	00e81813          	slli	x16,x16,0xe
    41014844:	00000593          	li	x11,0
    41014848:	00b809b3          	add	x19,x16,x11
    4101484c:	0049a00f          	cbo.zero	(x19)
    41014850:	00fff637          	lui	x12,0xfff
    41014854:	9fd6061b          	addiw	x12,x12,-1539 # ffe9fd <mem11+0x99fd>
    41014858:	00e61613          	slli	x12,x12,0xe
    4101485c:	00062583          	lw	x11,0(x12)
    41014860:	00b58a63          	beq	x11,x11,41014874 <pass_label_0>
    41014864:	00066bb7          	lui	x23,0x66
    41014868:	008b8b9b          	addiw	x23,x23,8 # 66008 <failed_addr>
    4101486c:	000bb603          	ld	x12,0(x23)
    41014870:	00060067          	jr	x12

0000000041014874 <pass_label_0>:
    41014874:	00057137          	lui	x2,0x57
    41014878:	00013383          	ld	x7,0(x2) # 57000 <tp_csr_storage>
    4101487c:	00066fb7          	lui	x31,0x66
    41014880:	0b8f8f9b          	addiw	x31,x31,184 # 660b8 <machine_csr_jump_table_flags>
    41014884:	00e00f13          	li	x30,14
    41014888:	01efb023          	sd	x30,0(x31)
    4101488c:	000f0fb7          	lui	x31,0xf0
    41014890:	001f8f9b          	addiw	x31,x31,1 # f0001 <SID_ZICBO_001_stack+0x88001>
    41014894:	00cf9f93          	slli	x31,x31,0xc
    41014898:	005f8f93          	addi	x31,x31,5
    4101489c:	00000073          	ecall
    410148a0:	00813383          	ld	x7,8(x2)
    410148a4:	00066fb7          	lui	x31,0x66
    410148a8:	0b8f8f9b          	addiw	x31,x31,184 # 660b8 <machine_csr_jump_table_flags>
    410148ac:	00300f13          	li	x30,3
    410148b0:	01efb023          	sd	x30,0(x31)
    410148b4:	000f0fb7          	lui	x31,0xf0
    410148b8:	001f8f9b          	addiw	x31,x31,1 # f0001 <SID_ZICBO_001_stack+0x88001>
    410148bc:	00cf9f93          	slli	x31,x31,0xc
    410148c0:	005f8f93          	addi	x31,x31,5
    410148c4:	00000073          	ecall
    410148c8:	01013383          	ld	x7,16(x2)
    410148cc:	00066fb7          	lui	x31,0x66
    410148d0:	0b8f8f9b          	addiw	x31,x31,184 # 660b8 <machine_csr_jump_table_flags>
    410148d4:	01000f13          	li	x30,16
    410148d8:	01efb023          	sd	x30,0(x31)
    410148dc:	000f0fb7          	lui	x31,0xf0
    410148e0:	001f8f9b          	addiw	x31,x31,1 # f0001 <SID_ZICBO_001_stack+0x88001>
    410148e4:	00cf9f93          	slli	x31,x31,0xc
    410148e8:	005f8f93          	addi	x31,x31,5
    410148ec:	00000073          	ecall

00000000410148f0 <SID_ZICBO_018_passed>:
    410148f0:	00f00f9b          	addiw	x31,x0,15
    410148f4:	01cf9f93          	slli	x31,x31,0x1c
    410148f8:	001f8f93          	addi	x31,x31,1
    410148fc:	00000073          	ecall

0000000041014900 <SID_ZICBO_019>:
    41014900:	00057137          	lui	x2,0x57
    41014904:	00066fb7          	lui	x31,0x66
    41014908:	0b8f8f9b          	addiw	x31,x31,184 # 660b8 <machine_csr_jump_table_flags>
    4101490c:	00a00f13          	li	x30,10
    41014910:	01efb023          	sd	x30,0(x31)
    41014914:	000f0fb7          	lui	x31,0xf0
    41014918:	001f8f9b          	addiw	x31,x31,1 # f0001 <SID_ZICBO_001_stack+0x88001>
    4101491c:	00cf9f93          	slli	x31,x31,0xc
    41014920:	005f8f93          	addi	x31,x31,5
    41014924:	00000073          	ecall
    41014928:	00713023          	sd	x7,0(x2) # 57000 <tp_csr_storage>
    4101492c:	00066fb7          	lui	x31,0x66
    41014930:	0b8f8f9b          	addiw	x31,x31,184 # 660b8 <machine_csr_jump_table_flags>
    41014934:	00100f13          	li	x30,1
    41014938:	01efb023          	sd	x30,0(x31)
    4101493c:	000f0fb7          	lui	x31,0xf0
    41014940:	001f8f9b          	addiw	x31,x31,1 # f0001 <SID_ZICBO_001_stack+0x88001>
    41014944:	00cf9f93          	slli	x31,x31,0xc
    41014948:	005f8f93          	addi	x31,x31,5
    4101494c:	00000073          	ecall
    41014950:	00713423          	sd	x7,8(x2)
    41014954:	00066fb7          	lui	x31,0x66
    41014958:	0b8f8f9b          	addiw	x31,x31,184 # 660b8 <machine_csr_jump_table_flags>
    4101495c:	00c00f13          	li	x30,12
    41014960:	01efb023          	sd	x30,0(x31)
    41014964:	000f0fb7          	lui	x31,0xf0
    41014968:	001f8f9b          	addiw	x31,x31,1 # f0001 <SID_ZICBO_001_stack+0x88001>
    4101496c:	00cf9f93          	slli	x31,x31,0xc
    41014970:	005f8f93          	addi	x31,x31,5
    41014974:	00000073          	ecall
    41014978:	00713823          	sd	x7,16(x2)
    4101497c:	00b0c137          	lui	x2,0xb0c
    41014980:	000012b7          	lui	x5,0x1
    41014984:	00510133          	add	x2,x2,x5
    41014988:	ff017113          	andi	x2,x2,-16
    4101498c:	0f000393          	li	x7,240
    41014990:	00066fb7          	lui	x31,0x66
    41014994:	0b8f8f9b          	addiw	x31,x31,184 # 660b8 <machine_csr_jump_table_flags>
    41014998:	00d00f13          	li	x30,13
    4101499c:	01efb023          	sd	x30,0(x31)
    410149a0:	000f0fb7          	lui	x31,0xf0
    410149a4:	001f8f9b          	addiw	x31,x31,1 # f0001 <SID_ZICBO_001_stack+0x88001>
    410149a8:	00cf9f93          	slli	x31,x31,0xc
    410149ac:	005f8f93          	addi	x31,x31,5
    410149b0:	00000073          	ecall
    410149b4:	0f000b93          	li	x23,240
    410149b8:	10abaef3          	csrrs	x29,0x10a,x23
    410149bc:	0f000693          	li	x13,240
    410149c0:	60a6a8f3          	csrrs	x17,henvcfg,x13
    410149c4:	0007a937          	lui	x18,0x7a
    410149c8:	5a39091b          	addiw	x18,x18,1443 # 7a5a3 <SID_ZICBO_001_stack+0x125a3>
    410149cc:	01391913          	slli	x18,x18,0x13
    410149d0:	00080f37          	lui	x30,0x80
    410149d4:	347f0f1b          	addiw	x30,x30,839 # 80347 <SID_ZICBO_001_stack+0x18347>
    410149d8:	00cf1f13          	slli	x30,x30,0xc
    410149dc:	8b9f0f13          	addi	x30,x30,-1863
    410149e0:	d00f7ed3          	fcvt.s.w	f29,x30
    410149e4:	01d92027          	fsw	f29,0(x18)
    410149e8:	0007ad37          	lui	x26,0x7a
    410149ec:	5a3d0d1b          	addiw	x26,x26,1443 # 7a5a3 <SID_ZICBO_001_stack+0x125a3>
    410149f0:	013d1d13          	slli	x26,x26,0x13
    410149f4:	00000e13          	li	x28,0
    410149f8:	01cd0b33          	add	x22,x26,x28
    410149fc:	004b200f          	cbo.zero	(x22)
    41014a00:	0007aeb7          	lui	x29,0x7a
    41014a04:	5a3e8e9b          	addiw	x29,x29,1443 # 7a5a3 <SID_ZICBO_001_stack+0x125a3>
    41014a08:	013e9e93          	slli	x29,x29,0x13
    41014a0c:	000ea403          	lw	x8,0(x29)
    41014a10:	0034d3b7          	lui	x7,0x34d
    41014a14:	c5d3839b          	addiw	x7,x7,-931 # 34cc5d <SID_ZICBO_50_ZIC64B_01_stack+0x244c5d>
    41014a18:	00c39393          	slli	x7,x7,0xc
    41014a1c:	0003a803          	lw	x16,0(x7)
    41014a20:	00840a63          	beq	x8,x8,41014a34 <pass_label_1>
    41014a24:	000663b7          	lui	x7,0x66
    41014a28:	0083839b          	addiw	x7,x7,8 # 66008 <failed_addr>
    41014a2c:	0003bd83          	ld	x27,0(x7)
    41014a30:	000d8067          	jr	x27

0000000041014a34 <pass_label_1>:
    41014a34:	01080a63          	beq	x16,x16,41014a48 <pass_label_2>
    41014a38:	00066bb7          	lui	x23,0x66
    41014a3c:	008b8b9b          	addiw	x23,x23,8 # 66008 <failed_addr>
    41014a40:	000bb403          	ld	x8,0(x23)
    41014a44:	00040067          	jr	x8

0000000041014a48 <pass_label_2>:
    41014a48:	00057137          	lui	x2,0x57
    41014a4c:	00013383          	ld	x7,0(x2) # 57000 <tp_csr_storage>
    41014a50:	00066fb7          	lui	x31,0x66
    41014a54:	0b8f8f9b          	addiw	x31,x31,184 # 660b8 <machine_csr_jump_table_flags>
    41014a58:	00e00f13          	li	x30,14
    41014a5c:	01efb023          	sd	x30,0(x31)
    41014a60:	000f0fb7          	lui	x31,0xf0
    41014a64:	001f8f9b          	addiw	x31,x31,1 # f0001 <SID_ZICBO_001_stack+0x88001>
    41014a68:	00cf9f93          	slli	x31,x31,0xc
    41014a6c:	005f8f93          	addi	x31,x31,5
    41014a70:	00000073          	ecall
    41014a74:	00813383          	ld	x7,8(x2)
    41014a78:	00066fb7          	lui	x31,0x66
    41014a7c:	0b8f8f9b          	addiw	x31,x31,184 # 660b8 <machine_csr_jump_table_flags>
    41014a80:	00300f13          	li	x30,3
    41014a84:	01efb023          	sd	x30,0(x31)
    41014a88:	000f0fb7          	lui	x31,0xf0
    41014a8c:	001f8f9b          	addiw	x31,x31,1 # f0001 <SID_ZICBO_001_stack+0x88001>
    41014a90:	00cf9f93          	slli	x31,x31,0xc
    41014a94:	005f8f93          	addi	x31,x31,5
    41014a98:	00000073          	ecall
    41014a9c:	01013383          	ld	x7,16(x2)
    41014aa0:	00066fb7          	lui	x31,0x66
    41014aa4:	0b8f8f9b          	addiw	x31,x31,184 # 660b8 <machine_csr_jump_table_flags>
    41014aa8:	01000f13          	li	x30,16
    41014aac:	01efb023          	sd	x30,0(x31)
    41014ab0:	000f0fb7          	lui	x31,0xf0
    41014ab4:	001f8f9b          	addiw	x31,x31,1 # f0001 <SID_ZICBO_001_stack+0x88001>
    41014ab8:	00cf9f93          	slli	x31,x31,0xc
    41014abc:	005f8f93          	addi	x31,x31,5
    41014ac0:	00000073          	ecall

0000000041014ac4 <SID_ZICBO_019_passed>:
    41014ac4:	00f00f9b          	addiw	x31,x0,15
    41014ac8:	01cf9f93          	slli	x31,x31,0x1c
    41014acc:	001f8f93          	addi	x31,x31,1
    41014ad0:	00000073          	ecall

0000000041014ad4 <SID_ZICBO_020>:
    41014ad4:	00057137          	lui	x2,0x57
    41014ad8:	00066fb7          	lui	x31,0x66
    41014adc:	0b8f8f9b          	addiw	x31,x31,184 # 660b8 <machine_csr_jump_table_flags>
    41014ae0:	00a00f13          	li	x30,10
    41014ae4:	01efb023          	sd	x30,0(x31)
    41014ae8:	000f0fb7          	lui	x31,0xf0
    41014aec:	001f8f9b          	addiw	x31,x31,1 # f0001 <SID_ZICBO_001_stack+0x88001>
    41014af0:	00cf9f93          	slli	x31,x31,0xc
    41014af4:	005f8f93          	addi	x31,x31,5
    41014af8:	00000073          	ecall
    41014afc:	00713023          	sd	x7,0(x2) # 57000 <tp_csr_storage>
    41014b00:	00066fb7          	lui	x31,0x66
    41014b04:	0b8f8f9b          	addiw	x31,x31,184 # 660b8 <machine_csr_jump_table_flags>
    41014b08:	00100f13          	li	x30,1
    41014b0c:	01efb023          	sd	x30,0(x31)
    41014b10:	000f0fb7          	lui	x31,0xf0
    41014b14:	001f8f9b          	addiw	x31,x31,1 # f0001 <SID_ZICBO_001_stack+0x88001>
    41014b18:	00cf9f93          	slli	x31,x31,0xc
    41014b1c:	005f8f93          	addi	x31,x31,5
    41014b20:	00000073          	ecall
    41014b24:	00713423          	sd	x7,8(x2)
    41014b28:	00066fb7          	lui	x31,0x66
    41014b2c:	0b8f8f9b          	addiw	x31,x31,184 # 660b8 <machine_csr_jump_table_flags>
    41014b30:	00c00f13          	li	x30,12
    41014b34:	01efb023          	sd	x30,0(x31)
    41014b38:	000f0fb7          	lui	x31,0xf0
    41014b3c:	001f8f9b          	addiw	x31,x31,1 # f0001 <SID_ZICBO_001_stack+0x88001>
    41014b40:	00cf9f93          	slli	x31,x31,0xc
    41014b44:	005f8f93          	addi	x31,x31,5
    41014b48:	00000073          	ecall
    41014b4c:	00713823          	sd	x7,16(x2)
    41014b50:	5fd62137          	lui	x2,0x5fd62
    41014b54:	000012b7          	lui	x5,0x1
    41014b58:	00510133          	add	x2,x2,x5
    41014b5c:	ff017113          	andi	x2,x2,-16
    41014b60:	0f000393          	li	x7,240
    41014b64:	00066fb7          	lui	x31,0x66
    41014b68:	0b8f8f9b          	addiw	x31,x31,184 # 660b8 <machine_csr_jump_table_flags>
    41014b6c:	00d00f13          	li	x30,13
    41014b70:	01efb023          	sd	x30,0(x31)
    41014b74:	000f0fb7          	lui	x31,0xf0
    41014b78:	001f8f9b          	addiw	x31,x31,1 # f0001 <SID_ZICBO_001_stack+0x88001>
    41014b7c:	00cf9f93          	slli	x31,x31,0xc
    41014b80:	005f8f93          	addi	x31,x31,5
    41014b84:	00000073          	ecall
    41014b88:	0f000c13          	li	x24,240
    41014b8c:	10ac2f73          	csrrs	x30,0x10a,x24
    41014b90:	0f000c13          	li	x24,240
    41014b94:	60ac2ef3          	csrrs	x29,henvcfg,x24
    41014b98:	2135ef37          	lui	x30,0x2135e
    41014b9c:	5dfbd937          	lui	x18,0x5dfbd
    41014ba0:	3d49091b          	addiw	x18,x18,980 # 5dfbd3d4 <pma_region_2_end+0x18f7c3d4>
    41014ba4:	012f30a3          	sd	x18,1(x30) # 2135e001 <mem10+0x1>
    41014ba8:	2135e4b7          	lui	x9,0x2135e
    41014bac:	00000b93          	li	x23,0
    41014bb0:	01748eb3          	add	x29,x9,x23
    41014bb4:	004ea00f          	cbo.zero	(x29)
    41014bb8:	2135edb7          	lui	x27,0x2135e
    41014bbc:	000da583          	lw	x11,0(x27) # 2135e000 <mem10>
    41014bc0:	00ff5db7          	lui	x27,0xff5
    41014bc4:	000da703          	lw	x14,0(x27) # ff5000 <mem11>
    41014bc8:	00b58a63          	beq	x11,x11,41014bdc <pass_label_3>
    41014bcc:	000663b7          	lui	x7,0x66
    41014bd0:	0083839b          	addiw	x7,x7,8 # 66008 <failed_addr>
    41014bd4:	0003bc83          	ld	x25,0(x7)
    41014bd8:	000c8067          	jr	x25

0000000041014bdc <pass_label_3>:
    41014bdc:	00e70a63          	beq	x14,x14,41014bf0 <pass_label_4>
    41014be0:	00066b37          	lui	x22,0x66
    41014be4:	008b0b1b          	addiw	x22,x22,8 # 66008 <failed_addr>
    41014be8:	000b3f03          	ld	x30,0(x22)
    41014bec:	000f0067          	jr	x30

0000000041014bf0 <pass_label_4>:
    41014bf0:	00057137          	lui	x2,0x57
    41014bf4:	00013383          	ld	x7,0(x2) # 57000 <tp_csr_storage>
    41014bf8:	00066fb7          	lui	x31,0x66
    41014bfc:	0b8f8f9b          	addiw	x31,x31,184 # 660b8 <machine_csr_jump_table_flags>
    41014c00:	00e00f13          	li	x30,14
    41014c04:	01efb023          	sd	x30,0(x31)
    41014c08:	000f0fb7          	lui	x31,0xf0
    41014c0c:	001f8f9b          	addiw	x31,x31,1 # f0001 <SID_ZICBO_001_stack+0x88001>
    41014c10:	00cf9f93          	slli	x31,x31,0xc
    41014c14:	005f8f93          	addi	x31,x31,5
    41014c18:	00000073          	ecall
    41014c1c:	00813383          	ld	x7,8(x2)
    41014c20:	00066fb7          	lui	x31,0x66
    41014c24:	0b8f8f9b          	addiw	x31,x31,184 # 660b8 <machine_csr_jump_table_flags>
    41014c28:	00300f13          	li	x30,3
    41014c2c:	01efb023          	sd	x30,0(x31)
    41014c30:	000f0fb7          	lui	x31,0xf0
    41014c34:	001f8f9b          	addiw	x31,x31,1 # f0001 <SID_ZICBO_001_stack+0x88001>
    41014c38:	00cf9f93          	slli	x31,x31,0xc
    41014c3c:	005f8f93          	addi	x31,x31,5
    41014c40:	00000073          	ecall
    41014c44:	01013383          	ld	x7,16(x2)
    41014c48:	00066fb7          	lui	x31,0x66
    41014c4c:	0b8f8f9b          	addiw	x31,x31,184 # 660b8 <machine_csr_jump_table_flags>
    41014c50:	01000f13          	li	x30,16
    41014c54:	01efb023          	sd	x30,0(x31)
    41014c58:	000f0fb7          	lui	x31,0xf0
    41014c5c:	001f8f9b          	addiw	x31,x31,1 # f0001 <SID_ZICBO_001_stack+0x88001>
    41014c60:	00cf9f93          	slli	x31,x31,0xc
    41014c64:	005f8f93          	addi	x31,x31,5
    41014c68:	00000073          	ecall

0000000041014c6c <SID_ZICBO_020_passed>:
    41014c6c:	00f00f9b          	addiw	x31,x0,15
    41014c70:	01cf9f93          	slli	x31,x31,0x1c
    41014c74:	001f8f93          	addi	x31,x31,1
    41014c78:	00000073          	ecall

0000000041014c7c <SID_ZICBO_022>:
    41014c7c:	00057137          	lui	x2,0x57
    41014c80:	00066fb7          	lui	x31,0x66
    41014c84:	0b8f8f9b          	addiw	x31,x31,184 # 660b8 <machine_csr_jump_table_flags>
    41014c88:	00a00f13          	li	x30,10
    41014c8c:	01efb023          	sd	x30,0(x31)
    41014c90:	000f0fb7          	lui	x31,0xf0
    41014c94:	001f8f9b          	addiw	x31,x31,1 # f0001 <SID_ZICBO_001_stack+0x88001>
    41014c98:	00cf9f93          	slli	x31,x31,0xc
    41014c9c:	005f8f93          	addi	x31,x31,5
    41014ca0:	00000073          	ecall
    41014ca4:	00713023          	sd	x7,0(x2) # 57000 <tp_csr_storage>
    41014ca8:	00066fb7          	lui	x31,0x66
    41014cac:	0b8f8f9b          	addiw	x31,x31,184 # 660b8 <machine_csr_jump_table_flags>
    41014cb0:	00100f13          	li	x30,1
    41014cb4:	01efb023          	sd	x30,0(x31)
    41014cb8:	000f0fb7          	lui	x31,0xf0
    41014cbc:	001f8f9b          	addiw	x31,x31,1 # f0001 <SID_ZICBO_001_stack+0x88001>
    41014cc0:	00cf9f93          	slli	x31,x31,0xc
    41014cc4:	005f8f93          	addi	x31,x31,5
    41014cc8:	00000073          	ecall
    41014ccc:	00713423          	sd	x7,8(x2)
    41014cd0:	00066fb7          	lui	x31,0x66
    41014cd4:	0b8f8f9b          	addiw	x31,x31,184 # 660b8 <machine_csr_jump_table_flags>
    41014cd8:	00c00f13          	li	x30,12
    41014cdc:	01efb023          	sd	x30,0(x31)
    41014ce0:	000f0fb7          	lui	x31,0xf0
    41014ce4:	001f8f9b          	addiw	x31,x31,1 # f0001 <SID_ZICBO_001_stack+0x88001>
    41014ce8:	00cf9f93          	slli	x31,x31,0xc
    41014cec:	005f8f93          	addi	x31,x31,5
    41014cf0:	00000073          	ecall
    41014cf4:	00713823          	sd	x7,16(x2)
    41014cf8:	000d6137          	lui	x2,0xd6
    41014cfc:	4dd1011b          	addiw	x2,x2,1245 # d64dd <SID_ZICBO_001_stack+0x6e4dd>
    41014d00:	00c11113          	slli	x2,x2,0xc
    41014d04:	000012b7          	lui	x5,0x1
    41014d08:	00510133          	add	x2,x2,x5
    41014d0c:	ff017113          	andi	x2,x2,-16
    41014d10:	0f000393          	li	x7,240
    41014d14:	00066fb7          	lui	x31,0x66
    41014d18:	0b8f8f9b          	addiw	x31,x31,184 # 660b8 <machine_csr_jump_table_flags>
    41014d1c:	00d00f13          	li	x30,13
    41014d20:	01efb023          	sd	x30,0(x31)
    41014d24:	000f0fb7          	lui	x31,0xf0
    41014d28:	001f8f9b          	addiw	x31,x31,1 # f0001 <SID_ZICBO_001_stack+0x88001>
    41014d2c:	00cf9f93          	slli	x31,x31,0xc
    41014d30:	005f8f93          	addi	x31,x31,5
    41014d34:	00000073          	ecall
    41014d38:	0f000f13          	li	x30,240
    41014d3c:	10af2373          	csrrs	x6,0x10a,x30
    41014d40:	0f000b93          	li	x23,240
    41014d44:	60aba4f3          	csrrs	x9,henvcfg,x23
    41014d48:	03eb9237          	lui	x4,0x3eb9
    41014d4c:	e7f2021b          	addiw	x4,x4,-385 # 3eb8e7f <mem14+0xc3de7f>
    41014d50:	00c21213          	slli	x4,x4,0xc
    41014d54:	00f00e13          	li	x28,15
    41014d58:	05c23823          	sd	x28,80(x4) # 50 <XLEN+0x10>
    41014d5c:	00000e17          	auipc	x28,0x0
    41014d60:	054e0e13          	addi	x28,x28,84 # 41014db0 <fault_label_4>
    41014d64:	03c23023          	sd	x28,32(x4) # 20 <SECURE_ACCESS_PROBABILITY+0x2>
    41014d68:	00000e13          	li	x28,0
    41014d6c:	05c23023          	sd	x28,64(x4) # 40 <XLEN>
    41014d70:	00000e13          	li	x28,0
    41014d74:	05c23423          	sd	x28,72(x4) # 48 <XLEN+0x8>
    41014d78:	00000e17          	auipc	x28,0x0
    41014d7c:	04ce0e13          	addi	x28,x28,76 # 41014dc4 <excp_return_label_4>
    41014d80:	03c23823          	sd	x28,48(x4) # 30 <SECURE_ACCESS_PROBABILITY+0x12>
    41014d84:	00000e13          	li	x28,0
    41014d88:	03c23c23          	sd	x28,56(x4) # 38 <SECURE_ACCESS_PROBABILITY+0x1a>
    41014d8c:	00000e13          	li	x28,0
    41014d90:	07c23023          	sd	x28,96(x4) # 60 <XLEN+0x20>
    41014d94:	00000e13          	li	x28,0
    41014d98:	07c23423          	sd	x28,104(x4) # 68 <XLEN+0x28>
    41014d9c:	00000e13          	li	x28,0
    41014da0:	07c23823          	sd	x28,112(x4) # 70 <XLEN+0x30>
    41014da4:	00038937          	lui	x18,0x38
    41014da8:	00000313          	li	x6,0
    41014dac:	00690fb3          	add	x31,x18,x6

0000000041014db0 <fault_label_4>:
    41014db0:	004fa00f          	cbo.zero	(x31)
    41014db4:	00066eb7          	lui	x29,0x66
    41014db8:	008e8e9b          	addiw	x29,x29,8 # 66008 <failed_addr>
    41014dbc:	000eb383          	ld	x7,0(x29)
    41014dc0:	00038067          	jr	x7

0000000041014dc4 <excp_return_label_4>:
    41014dc4:	00057137          	lui	x2,0x57
    41014dc8:	00013383          	ld	x7,0(x2) # 57000 <tp_csr_storage>
    41014dcc:	00066fb7          	lui	x31,0x66
    41014dd0:	0b8f8f9b          	addiw	x31,x31,184 # 660b8 <machine_csr_jump_table_flags>
    41014dd4:	00e00f13          	li	x30,14
    41014dd8:	01efb023          	sd	x30,0(x31)
    41014ddc:	000f0fb7          	lui	x31,0xf0
    41014de0:	001f8f9b          	addiw	x31,x31,1 # f0001 <SID_ZICBO_001_stack+0x88001>
    41014de4:	00cf9f93          	slli	x31,x31,0xc
    41014de8:	005f8f93          	addi	x31,x31,5
    41014dec:	00000073          	ecall
    41014df0:	00813383          	ld	x7,8(x2)
    41014df4:	00066fb7          	lui	x31,0x66
    41014df8:	0b8f8f9b          	addiw	x31,x31,184 # 660b8 <machine_csr_jump_table_flags>
    41014dfc:	00300f13          	li	x30,3
    41014e00:	01efb023          	sd	x30,0(x31)
    41014e04:	000f0fb7          	lui	x31,0xf0
    41014e08:	001f8f9b          	addiw	x31,x31,1 # f0001 <SID_ZICBO_001_stack+0x88001>
    41014e0c:	00cf9f93          	slli	x31,x31,0xc
    41014e10:	005f8f93          	addi	x31,x31,5
    41014e14:	00000073          	ecall
    41014e18:	01013383          	ld	x7,16(x2)
    41014e1c:	00066fb7          	lui	x31,0x66
    41014e20:	0b8f8f9b          	addiw	x31,x31,184 # 660b8 <machine_csr_jump_table_flags>
    41014e24:	01000f13          	li	x30,16
    41014e28:	01efb023          	sd	x30,0(x31)
    41014e2c:	000f0fb7          	lui	x31,0xf0
    41014e30:	001f8f9b          	addiw	x31,x31,1 # f0001 <SID_ZICBO_001_stack+0x88001>
    41014e34:	00cf9f93          	slli	x31,x31,0xc
    41014e38:	005f8f93          	addi	x31,x31,5
    41014e3c:	00000073          	ecall

0000000041014e40 <SID_ZICBO_022_passed>:
    41014e40:	00f00f9b          	addiw	x31,x0,15
    41014e44:	01cf9f93          	slli	x31,x31,0x1c
    41014e48:	001f8f93          	addi	x31,x31,1
    41014e4c:	00000073          	ecall

0000000041014e50 <SID_ZICBO_047>:
    41014e50:	00057137          	lui	x2,0x57
    41014e54:	00066fb7          	lui	x31,0x66
    41014e58:	0b8f8f9b          	addiw	x31,x31,184 # 660b8 <machine_csr_jump_table_flags>
    41014e5c:	00a00f13          	li	x30,10
    41014e60:	01efb023          	sd	x30,0(x31)
    41014e64:	000f0fb7          	lui	x31,0xf0
    41014e68:	001f8f9b          	addiw	x31,x31,1 # f0001 <SID_ZICBO_001_stack+0x88001>
    41014e6c:	00cf9f93          	slli	x31,x31,0xc
    41014e70:	005f8f93          	addi	x31,x31,5
    41014e74:	00000073          	ecall
    41014e78:	00713023          	sd	x7,0(x2) # 57000 <tp_csr_storage>
    41014e7c:	00066fb7          	lui	x31,0x66
    41014e80:	0b8f8f9b          	addiw	x31,x31,184 # 660b8 <machine_csr_jump_table_flags>
    41014e84:	00100f13          	li	x30,1
    41014e88:	01efb023          	sd	x30,0(x31)
    41014e8c:	000f0fb7          	lui	x31,0xf0
    41014e90:	001f8f9b          	addiw	x31,x31,1 # f0001 <SID_ZICBO_001_stack+0x88001>
    41014e94:	00cf9f93          	slli	x31,x31,0xc
    41014e98:	005f8f93          	addi	x31,x31,5
    41014e9c:	00000073          	ecall
    41014ea0:	00713423          	sd	x7,8(x2)
    41014ea4:	00066fb7          	lui	x31,0x66
    41014ea8:	0b8f8f9b          	addiw	x31,x31,184 # 660b8 <machine_csr_jump_table_flags>
    41014eac:	00c00f13          	li	x30,12
    41014eb0:	01efb023          	sd	x30,0(x31)
    41014eb4:	000f0fb7          	lui	x31,0xf0
    41014eb8:	001f8f9b          	addiw	x31,x31,1 # f0001 <SID_ZICBO_001_stack+0x88001>
    41014ebc:	00cf9f93          	slli	x31,x31,0xc
    41014ec0:	005f8f93          	addi	x31,x31,5
    41014ec4:	00000073          	ecall
    41014ec8:	00713823          	sd	x7,16(x2)
    41014ecc:	000dc137          	lui	x2,0xdc
    41014ed0:	8fd1011b          	addiw	x2,x2,-1795 # db8fd <SID_ZICBO_001_stack+0x738fd>
    41014ed4:	00c11113          	slli	x2,x2,0xc
    41014ed8:	000012b7          	lui	x5,0x1
    41014edc:	00510133          	add	x2,x2,x5
    41014ee0:	ff017113          	andi	x2,x2,-16
    41014ee4:	0f000393          	li	x7,240
    41014ee8:	00066fb7          	lui	x31,0x66
    41014eec:	0b8f8f9b          	addiw	x31,x31,184 # 660b8 <machine_csr_jump_table_flags>
    41014ef0:	00d00f13          	li	x30,13
    41014ef4:	01efb023          	sd	x30,0(x31)
    41014ef8:	000f0fb7          	lui	x31,0xf0
    41014efc:	001f8f9b          	addiw	x31,x31,1 # f0001 <SID_ZICBO_001_stack+0x88001>
    41014f00:	00cf9f93          	slli	x31,x31,0xc
    41014f04:	005f8f93          	addi	x31,x31,5
    41014f08:	00000073          	ecall
    41014f0c:	0f000313          	li	x6,240
    41014f10:	10a323f3          	csrrs	x7,0x10a,x6
    41014f14:	0f000713          	li	x14,240
    41014f18:	60a72d73          	csrrs	x26,henvcfg,x14
    41014f1c:	00cd8db7          	lui	x27,0xcd8
    41014f20:	f39d8d9b          	addiw	x27,x27,-199 # cd7f39 <SID_ZICBO_019_stack+0x1cbf39>
    41014f24:	00cd9d93          	slli	x27,x27,0xc
    41014f28:	00000813          	li	x16,0
    41014f2c:	010d8b33          	add	x22,x27,x16
    41014f30:	002b200f          	cbo.flush	(x22)
    41014f34:	00cd8eb7          	lui	x29,0xcd8
    41014f38:	f39e8e9b          	addiw	x29,x29,-199 # cd7f39 <SID_ZICBO_019_stack+0x1cbf39>
    41014f3c:	00ce9e93          	slli	x29,x29,0xc
    41014f40:	00000a93          	li	x21,0
    41014f44:	015e83b3          	add	x7,x29,x21
    41014f48:	2b290bb7          	lui	x23,0x2b290
    41014f4c:	ef3b8b9b          	addiw	x23,x23,-269 # 2b28fef3 <mem10+0x9f31ef3>
    41014f50:	0173af2f          	amoadd.w	x30,x23,(x7)
    41014f54:	00cd8937          	lui	x18,0xcd8
    41014f58:	f399091b          	addiw	x18,x18,-199 # cd7f39 <SID_ZICBO_019_stack+0x1cbf39>
    41014f5c:	00c91913          	slli	x18,x18,0xc
    41014f60:	00000a93          	li	x21,0
    41014f64:	01590db3          	add	x27,x18,x21
    41014f68:	001da00f          	cbo.clean	(x27)
    41014f6c:	00cd8eb7          	lui	x29,0xcd8
    41014f70:	f39e8e9b          	addiw	x29,x29,-199 # cd7f39 <SID_ZICBO_019_stack+0x1cbf39>
    41014f74:	00ce9e93          	slli	x29,x29,0xc
    41014f78:	00000a93          	li	x21,0
    41014f7c:	015e8433          	add	x8,x29,x21
    41014f80:	00081fb7          	lui	x31,0x81
    41014f84:	92bf8f9b          	addiw	x31,x31,-1749 # 8092b <SID_ZICBO_001_stack+0x1892b>
    41014f88:	00cf9f93          	slli	x31,x31,0xc
    41014f8c:	4d7f8f93          	addi	x31,x31,1239
    41014f90:	d21f8d53          	fcvt.d.wu	f26,x31
    41014f94:	01a42027          	fsw	f26,0(x8)
    41014f98:	00cd8ab7          	lui	x21,0xcd8
    41014f9c:	f39a8a9b          	addiw	x21,x21,-199 # cd7f39 <SID_ZICBO_019_stack+0x1cbf39>
    41014fa0:	00ca9a93          	slli	x21,x21,0xc
    41014fa4:	00000b13          	li	x22,0
    41014fa8:	016a8b33          	add	x22,x21,x22
    41014fac:	000b200f          	cbo.inval	(x22)
    41014fb0:	00cd86b7          	lui	x13,0xcd8
    41014fb4:	f396869b          	addiw	x13,x13,-199 # cd7f39 <SID_ZICBO_019_stack+0x1cbf39>
    41014fb8:	00c69693          	slli	x13,x13,0xc
    41014fbc:	00000b93          	li	x23,0
    41014fc0:	017686b3          	add	x13,x13,x23
    41014fc4:	0006a903          	lw	x18,0(x13)
    41014fc8:	00057137          	lui	x2,0x57
    41014fcc:	00013383          	ld	x7,0(x2) # 57000 <tp_csr_storage>
    41014fd0:	00066fb7          	lui	x31,0x66
    41014fd4:	0b8f8f9b          	addiw	x31,x31,184 # 660b8 <machine_csr_jump_table_flags>
    41014fd8:	00e00f13          	li	x30,14
    41014fdc:	01efb023          	sd	x30,0(x31)
    41014fe0:	000f0fb7          	lui	x31,0xf0
    41014fe4:	001f8f9b          	addiw	x31,x31,1 # f0001 <SID_ZICBO_001_stack+0x88001>
    41014fe8:	00cf9f93          	slli	x31,x31,0xc
    41014fec:	005f8f93          	addi	x31,x31,5
    41014ff0:	00000073          	ecall
    41014ff4:	00813383          	ld	x7,8(x2)
    41014ff8:	00066fb7          	lui	x31,0x66
    41014ffc:	0b8f8f9b          	addiw	x31,x31,184 # 660b8 <machine_csr_jump_table_flags>
    41015000:	00300f13          	li	x30,3
    41015004:	01efb023          	sd	x30,0(x31)
    41015008:	000f0fb7          	lui	x31,0xf0
    4101500c:	001f8f9b          	addiw	x31,x31,1 # f0001 <SID_ZICBO_001_stack+0x88001>
    41015010:	00cf9f93          	slli	x31,x31,0xc
    41015014:	005f8f93          	addi	x31,x31,5
    41015018:	00000073          	ecall
    4101501c:	01013383          	ld	x7,16(x2)
    41015020:	00066fb7          	lui	x31,0x66
    41015024:	0b8f8f9b          	addiw	x31,x31,184 # 660b8 <machine_csr_jump_table_flags>
    41015028:	01000f13          	li	x30,16
    4101502c:	01efb023          	sd	x30,0(x31)
    41015030:	000f0fb7          	lui	x31,0xf0
    41015034:	001f8f9b          	addiw	x31,x31,1 # f0001 <SID_ZICBO_001_stack+0x88001>
    41015038:	00cf9f93          	slli	x31,x31,0xc
    4101503c:	005f8f93          	addi	x31,x31,5
    41015040:	00000073          	ecall

0000000041015044 <SID_ZICBO_047_passed>:
    41015044:	00f00f9b          	addiw	x31,x0,15
    41015048:	01cf9f93          	slli	x31,x31,0x1c
    4101504c:	001f8f93          	addi	x31,x31,1
    41015050:	00000073          	ecall

0000000041015054 <SID_ZICBO_049>:
    41015054:	00057137          	lui	x2,0x57
    41015058:	00066fb7          	lui	x31,0x66
    4101505c:	0b8f8f9b          	addiw	x31,x31,184 # 660b8 <machine_csr_jump_table_flags>
    41015060:	00a00f13          	li	x30,10
    41015064:	01efb023          	sd	x30,0(x31)
    41015068:	000f0fb7          	lui	x31,0xf0
    4101506c:	001f8f9b          	addiw	x31,x31,1 # f0001 <SID_ZICBO_001_stack+0x88001>
    41015070:	00cf9f93          	slli	x31,x31,0xc
    41015074:	005f8f93          	addi	x31,x31,5
    41015078:	00000073          	ecall
    4101507c:	00713023          	sd	x7,0(x2) # 57000 <tp_csr_storage>
    41015080:	00066fb7          	lui	x31,0x66
    41015084:	0b8f8f9b          	addiw	x31,x31,184 # 660b8 <machine_csr_jump_table_flags>
    41015088:	00100f13          	li	x30,1
    4101508c:	01efb023          	sd	x30,0(x31)
    41015090:	000f0fb7          	lui	x31,0xf0
    41015094:	001f8f9b          	addiw	x31,x31,1 # f0001 <SID_ZICBO_001_stack+0x88001>
    41015098:	00cf9f93          	slli	x31,x31,0xc
    4101509c:	005f8f93          	addi	x31,x31,5
    410150a0:	00000073          	ecall
    410150a4:	00713423          	sd	x7,8(x2)
    410150a8:	00066fb7          	lui	x31,0x66
    410150ac:	0b8f8f9b          	addiw	x31,x31,184 # 660b8 <machine_csr_jump_table_flags>
    410150b0:	00c00f13          	li	x30,12
    410150b4:	01efb023          	sd	x30,0(x31)
    410150b8:	000f0fb7          	lui	x31,0xf0
    410150bc:	001f8f9b          	addiw	x31,x31,1 # f0001 <SID_ZICBO_001_stack+0x88001>
    410150c0:	00cf9f93          	slli	x31,x31,0xc
    410150c4:	005f8f93          	addi	x31,x31,5
    410150c8:	00000073          	ecall
    410150cc:	00713823          	sd	x7,16(x2)
    410150d0:	13bbf137          	lui	x2,0x13bbf
    410150d4:	000012b7          	lui	x5,0x1
    410150d8:	00510133          	add	x2,x2,x5
    410150dc:	ff017113          	andi	x2,x2,-16
    410150e0:	0f000393          	li	x7,240
    410150e4:	00066fb7          	lui	x31,0x66
    410150e8:	0b8f8f9b          	addiw	x31,x31,184 # 660b8 <machine_csr_jump_table_flags>
    410150ec:	00d00f13          	li	x30,13
    410150f0:	01efb023          	sd	x30,0(x31)
    410150f4:	000f0fb7          	lui	x31,0xf0
    410150f8:	001f8f9b          	addiw	x31,x31,1 # f0001 <SID_ZICBO_001_stack+0x88001>
    410150fc:	00cf9f93          	slli	x31,x31,0xc
    41015100:	005f8f93          	addi	x31,x31,5
    41015104:	00000073          	ecall
    41015108:	0f000413          	li	x8,240
    4101510c:	10a42bf3          	csrrs	x23,0x10a,x8
    41015110:	0f000993          	li	x19,240
    41015114:	60a9ae73          	csrrs	x28,henvcfg,x19
    41015118:	0327bdb7          	lui	x27,0x327b
    4101511c:	00000713          	li	x14,0
    41015120:	00ed8eb3          	add	x29,x27,x14
    41015124:	100eac2f          	lr.w	x24,(x29)
    41015128:	0327bf37          	lui	x30,0x327b
    4101512c:	00000a93          	li	x21,0
    41015130:	015f0d33          	add	x26,x30,x21
    41015134:	002d200f          	cbo.flush	(x26)
    41015138:	0327bb37          	lui	x22,0x327b
    4101513c:	00000313          	li	x6,0
    41015140:	006b0db3          	add	x27,x22,x6
    41015144:	6d144737          	lui	x14,0x6d144
    41015148:	75e7071b          	addiw	x14,x14,1886 # 6d14475e <mem15+0xb32775e>
    4101514c:	18edaf2f          	sc.w	x30,x14,(x27)
    41015150:	0327bf37          	lui	x30,0x327b
    41015154:	000f1a83          	lh	x21,0(x30) # 327b000 <mem14>
    41015158:	00057137          	lui	x2,0x57
    4101515c:	00013383          	ld	x7,0(x2) # 57000 <tp_csr_storage>
    41015160:	00066fb7          	lui	x31,0x66
    41015164:	0b8f8f9b          	addiw	x31,x31,184 # 660b8 <machine_csr_jump_table_flags>
    41015168:	00e00f13          	li	x30,14
    4101516c:	01efb023          	sd	x30,0(x31)
    41015170:	000f0fb7          	lui	x31,0xf0
    41015174:	001f8f9b          	addiw	x31,x31,1 # f0001 <SID_ZICBO_001_stack+0x88001>
    41015178:	00cf9f93          	slli	x31,x31,0xc
    4101517c:	005f8f93          	addi	x31,x31,5
    41015180:	00000073          	ecall
    41015184:	00813383          	ld	x7,8(x2)
    41015188:	00066fb7          	lui	x31,0x66
    4101518c:	0b8f8f9b          	addiw	x31,x31,184 # 660b8 <machine_csr_jump_table_flags>
    41015190:	00300f13          	li	x30,3
    41015194:	01efb023          	sd	x30,0(x31)
    41015198:	000f0fb7          	lui	x31,0xf0
    4101519c:	001f8f9b          	addiw	x31,x31,1 # f0001 <SID_ZICBO_001_stack+0x88001>
    410151a0:	00cf9f93          	slli	x31,x31,0xc
    410151a4:	005f8f93          	addi	x31,x31,5
    410151a8:	00000073          	ecall
    410151ac:	01013383          	ld	x7,16(x2)
    410151b0:	00066fb7          	lui	x31,0x66
    410151b4:	0b8f8f9b          	addiw	x31,x31,184 # 660b8 <machine_csr_jump_table_flags>
    410151b8:	01000f13          	li	x30,16
    410151bc:	01efb023          	sd	x30,0(x31)
    410151c0:	000f0fb7          	lui	x31,0xf0
    410151c4:	001f8f9b          	addiw	x31,x31,1 # f0001 <SID_ZICBO_001_stack+0x88001>
    410151c8:	00cf9f93          	slli	x31,x31,0xc
    410151cc:	005f8f93          	addi	x31,x31,5
    410151d0:	00000073          	ecall

00000000410151d4 <SID_ZICBO_049_passed>:
    410151d4:	00f00f9b          	addiw	x31,x0,15
    410151d8:	01cf9f93          	slli	x31,x31,0x1c
    410151dc:	001f8f93          	addi	x31,x31,1
    410151e0:	00000073          	ecall

00000000410151e4 <SID_ZICBO_50_ZIC64B_01>:
    410151e4:	00057137          	lui	x2,0x57
    410151e8:	00066fb7          	lui	x31,0x66
    410151ec:	0b8f8f9b          	addiw	x31,x31,184 # 660b8 <machine_csr_jump_table_flags>
    410151f0:	00a00f13          	li	x30,10
    410151f4:	01efb023          	sd	x30,0(x31)
    410151f8:	000f0fb7          	lui	x31,0xf0
    410151fc:	001f8f9b          	addiw	x31,x31,1 # f0001 <SID_ZICBO_001_stack+0x88001>
    41015200:	00cf9f93          	slli	x31,x31,0xc
    41015204:	005f8f93          	addi	x31,x31,5
    41015208:	00000073          	ecall
    4101520c:	00713023          	sd	x7,0(x2) # 57000 <tp_csr_storage>
    41015210:	00066fb7          	lui	x31,0x66
    41015214:	0b8f8f9b          	addiw	x31,x31,184 # 660b8 <machine_csr_jump_table_flags>
    41015218:	00100f13          	li	x30,1
    4101521c:	01efb023          	sd	x30,0(x31)
    41015220:	000f0fb7          	lui	x31,0xf0
    41015224:	001f8f9b          	addiw	x31,x31,1 # f0001 <SID_ZICBO_001_stack+0x88001>
    41015228:	00cf9f93          	slli	x31,x31,0xc
    4101522c:	005f8f93          	addi	x31,x31,5
    41015230:	00000073          	ecall
    41015234:	00713423          	sd	x7,8(x2)
    41015238:	00066fb7          	lui	x31,0x66
    4101523c:	0b8f8f9b          	addiw	x31,x31,184 # 660b8 <machine_csr_jump_table_flags>
    41015240:	00c00f13          	li	x30,12
    41015244:	01efb023          	sd	x30,0(x31)
    41015248:	000f0fb7          	lui	x31,0xf0
    4101524c:	001f8f9b          	addiw	x31,x31,1 # f0001 <SID_ZICBO_001_stack+0x88001>
    41015250:	00cf9f93          	slli	x31,x31,0xc
    41015254:	005f8f93          	addi	x31,x31,5
    41015258:	00000073          	ecall
    4101525c:	00713823          	sd	x7,16(x2)
    41015260:	00108137          	lui	x2,0x108
    41015264:	000012b7          	lui	x5,0x1
    41015268:	00510133          	add	x2,x2,x5
    4101526c:	ff017113          	andi	x2,x2,-16
    41015270:	0f000393          	li	x7,240
    41015274:	00066fb7          	lui	x31,0x66
    41015278:	0b8f8f9b          	addiw	x31,x31,184 # 660b8 <machine_csr_jump_table_flags>
    4101527c:	00d00f13          	li	x30,13
    41015280:	01efb023          	sd	x30,0(x31)
    41015284:	000f0fb7          	lui	x31,0xf0
    41015288:	001f8f9b          	addiw	x31,x31,1 # f0001 <SID_ZICBO_001_stack+0x88001>
    4101528c:	00cf9f93          	slli	x31,x31,0xc
    41015290:	005f8f93          	addi	x31,x31,5
    41015294:	00000073          	ecall
    41015298:	0f000e13          	li	x28,240
    4101529c:	10ae24f3          	csrrs	x9,0x10a,x28
    410152a0:	0f000513          	li	x10,240
    410152a4:	60a52373          	csrrs	x6,henvcfg,x10
    410152a8:	61e1dc37          	lui	x24,0x61e1d
    410152ac:	2d5db437          	lui	x8,0x2d5db
    410152b0:	79e4041b          	addiw	x8,x8,1950 # 2d5db79e <mem10+0xc27d79e>
    410152b4:	008c1023          	sh	x8,0(x24) # 61e1d000 <mem15>
    410152b8:	61e1dc37          	lui	x24,0x61e1d
    410152bc:	00046437          	lui	x8,0x46
    410152c0:	7f34041b          	addiw	x8,x8,2035 # 467f3 <pma_region_0_size+0x67f3>
    410152c4:	00d41413          	slli	x8,x8,0xd
    410152c8:	cd440413          	addi	x8,x8,-812
    410152cc:	028c2023          	sw	x8,32(x24) # 61e1d020 <mem15+0x20>
    410152d0:	61e1d9b7          	lui	x19,0x61e1d
    410152d4:	00025937          	lui	x18,0x25
    410152d8:	67d9091b          	addiw	x18,x18,1661 # 2567d <SID_ZICBO_005_stack+0x1467d>
    410152dc:	00e91913          	slli	x18,x18,0xe
    410152e0:	a5490913          	addi	x18,x18,-1452
    410152e4:	d02974d3          	fcvt.s.l	f9,x18
    410152e8:	0299bc27          	fsd	f9,56(x19) # 61e1d038 <mem15+0x38>
    410152ec:	61e1d737          	lui	x14,0x61e1d
    410152f0:	2e47e537          	lui	x10,0x2e47e
    410152f4:	c115051b          	addiw	x10,x10,-1007 # 2e47dc11 <mem10+0xd11fc11>
    410152f8:	04a70023          	sb	x10,64(x14) # 61e1d040 <mem15+0x40>
    410152fc:	61e1d8b7          	lui	x17,0x61e1d
    41015300:	000dcdb7          	lui	x27,0xdc
    41015304:	6b1d8d9b          	addiw	x27,x27,1713 # dc6b1 <SID_ZICBO_001_stack+0x746b1>
    41015308:	00cd9d93          	slli	x27,x27,0xc
    4101530c:	3aed8d93          	addi	x27,x27,942
    41015310:	07b8b023          	sd	x27,96(x17) # 61e1d060 <mem15+0x60>
    41015314:	61e1dcb7          	lui	x25,0x61e1d
    41015318:	177336b7          	lui	x13,0x17733
    4101531c:	08f6869b          	addiw	x13,x13,143 # 1773308f <mem1+0x157b08f>
    41015320:	d226f353          	fcvt.d.l	f6,x13
    41015324:	066cac27          	fsw	f6,120(x25) # 61e1d078 <mem15+0x78>
    41015328:	61e1dab7          	lui	x21,0x61e1d
    4101532c:	00000e93          	li	x29,0
    41015330:	01da8933          	add	x18,x21,x29
    41015334:	0049200f          	cbo.zero	(x18)
    41015338:	00000b13          	li	x22,0
    4101533c:	61e1dcb7          	lui	x25,0x61e1d
    41015340:	000cbf83          	ld	x31,0(x25) # 61e1d000 <mem15>
    41015344:	016f8a63          	beq	x31,x22,41015358 <pass_label_5>
    41015348:	00066ab7          	lui	x21,0x66
    4101534c:	008a8a9b          	addiw	x21,x21,8 # 66008 <failed_addr>
    41015350:	000abc83          	ld	x25,0(x21)
    41015354:	000c8067          	jr	x25

0000000041015358 <pass_label_5>:
    41015358:	61e1de37          	lui	x28,0x61e1d
    4101535c:	020e3703          	ld	x14,32(x28) # 61e1d020 <mem15+0x20>
    41015360:	01670a63          	beq	x14,x22,41015374 <pass_label_6>
    41015364:	00066cb7          	lui	x25,0x66
    41015368:	008c8c9b          	addiw	x25,x25,8 # 66008 <failed_addr>
    4101536c:	000cb303          	ld	x6,0(x25)
    41015370:	00030067          	jr	x6

0000000041015374 <pass_label_6>:
    41015374:	61e1ddb7          	lui	x27,0x61e1d
    41015378:	038db683          	ld	x13,56(x27) # 61e1d038 <mem15+0x38>
    4101537c:	01668a63          	beq	x13,x22,41015390 <pass_label_7>
    41015380:	00066837          	lui	x16,0x66
    41015384:	0088081b          	addiw	x16,x16,8 # 66008 <failed_addr>
    41015388:	00083583          	ld	x11,0(x16)
    4101538c:	00058067          	jr	x11

0000000041015390 <pass_label_7>:
    41015390:	61e1d437          	lui	x8,0x61e1d
    41015394:	04043e83          	ld	x29,64(x8) # 61e1d040 <mem15+0x40>
    41015398:	016e9a63          	bne	x29,x22,410153ac <pass_label_8>
    4101539c:	00066537          	lui	x10,0x66
    410153a0:	0085051b          	addiw	x10,x10,8 # 66008 <failed_addr>
    410153a4:	00053a83          	ld	x21,0(x10)
    410153a8:	000a8067          	jr	x21

00000000410153ac <pass_label_8>:
    410153ac:	61e1d3b7          	lui	x7,0x61e1d
    410153b0:	0603b983          	ld	x19,96(x7) # 61e1d060 <mem15+0x60>
    410153b4:	01699a63          	bne	x19,x22,410153c8 <pass_label_9>
    410153b8:	00066bb7          	lui	x23,0x66
    410153bc:	008b8b9b          	addiw	x23,x23,8 # 66008 <failed_addr>
    410153c0:	000bb903          	ld	x18,0(x23)
    410153c4:	00090067          	jr	x18

00000000410153c8 <pass_label_9>:
    410153c8:	61e1dbb7          	lui	x23,0x61e1d
    410153cc:	078bb583          	ld	x11,120(x23) # 61e1d078 <mem15+0x78>
    410153d0:	01659a63          	bne	x11,x22,410153e4 <pass_label_10>
    410153d4:	00066c37          	lui	x24,0x66
    410153d8:	008c0c1b          	addiw	x24,x24,8 # 66008 <failed_addr>
    410153dc:	000c3383          	ld	x7,0(x24)
    410153e0:	00038067          	jr	x7

00000000410153e4 <pass_label_10>:
    410153e4:	00057137          	lui	x2,0x57
    410153e8:	00013383          	ld	x7,0(x2) # 57000 <tp_csr_storage>
    410153ec:	00066fb7          	lui	x31,0x66
    410153f0:	0b8f8f9b          	addiw	x31,x31,184 # 660b8 <machine_csr_jump_table_flags>
    410153f4:	00e00f13          	li	x30,14
    410153f8:	01efb023          	sd	x30,0(x31)
    410153fc:	000f0fb7          	lui	x31,0xf0
    41015400:	001f8f9b          	addiw	x31,x31,1 # f0001 <SID_ZICBO_001_stack+0x88001>
    41015404:	00cf9f93          	slli	x31,x31,0xc
    41015408:	005f8f93          	addi	x31,x31,5
    4101540c:	00000073          	ecall
    41015410:	00813383          	ld	x7,8(x2)
    41015414:	00066fb7          	lui	x31,0x66
    41015418:	0b8f8f9b          	addiw	x31,x31,184 # 660b8 <machine_csr_jump_table_flags>
    4101541c:	00300f13          	li	x30,3
    41015420:	01efb023          	sd	x30,0(x31)
    41015424:	000f0fb7          	lui	x31,0xf0
    41015428:	001f8f9b          	addiw	x31,x31,1 # f0001 <SID_ZICBO_001_stack+0x88001>
    4101542c:	00cf9f93          	slli	x31,x31,0xc
    41015430:	005f8f93          	addi	x31,x31,5
    41015434:	00000073          	ecall
    41015438:	01013383          	ld	x7,16(x2)
    4101543c:	00066fb7          	lui	x31,0x66
    41015440:	0b8f8f9b          	addiw	x31,x31,184 # 660b8 <machine_csr_jump_table_flags>
    41015444:	01000f13          	li	x30,16
    41015448:	01efb023          	sd	x30,0(x31)
    4101544c:	000f0fb7          	lui	x31,0xf0
    41015450:	001f8f9b          	addiw	x31,x31,1 # f0001 <SID_ZICBO_001_stack+0x88001>
    41015454:	00cf9f93          	slli	x31,x31,0xc
    41015458:	005f8f93          	addi	x31,x31,5
    4101545c:	00000073          	ecall

0000000041015460 <SID_ZICBO_50_ZIC64B_01_passed>:
    41015460:	00f00f9b          	addiw	x31,x0,15
    41015464:	01cf9f93          	slli	x31,x31,0x1c
    41015468:	001f8f93          	addi	x31,x31,1
    4101546c:	00000073          	ecall

0000000041015470 <test_cleanup>:
    41015470:	00f00f9b          	addiw	x31,x0,15
    41015474:	01cf9f93          	slli	x31,x31,0x1c
    41015478:	001f8f93          	addi	x31,x31,1
    4101547c:	00000073          	ecall

0000000041015480 <local_test_failed>:
    41015480:	00f00f9b          	addiw	x31,x0,15
    41015484:	01cf9f93          	slli	x31,x31,0x1c
    41015488:	002f8f93          	addi	x31,x31,2
    4101548c:	00000073          	ecall

Disassembly of section .csr_machine_0:

0000000041214000 <csr_access_menvcfg_machine_key_3_write-0x70>:
    41214000:	44ee8fb7          	lui	x31,0x44ee8
    41214004:	0b8f8f9b          	addiw	x31,x31,184 # 44ee80b8 <machine_csr_jump_table_flags_pa>
    41214008:	000fbf83          	ld	x31,0(x31)
    4121400c:	00300293          	li	x5,3
    41214010:	065f8063          	beq	x31,x5,41214070 <csr_access_menvcfg_machine_key_3_write>
    41214014:	00100293          	li	x5,1
    41214018:	065f8063          	beq	x31,x5,41214078 <csr_access_menvcfg_machine_key_1_read>
    4121401c:	00d00293          	li	x5,13
    41214020:	065f8063          	beq	x31,x5,41214080 <csr_access_menvcfg_machine_key_13_set>
    41214024:	00200293          	li	x5,2
    41214028:	065f8063          	beq	x31,x5,41214088 <csr_access_menvcfg_machine_key_2_clear>
    4121402c:	00e00293          	li	x5,14
    41214030:	065f8063          	beq	x31,x5,41214090 <csr_access_henvcfg_supervisor_key_14_write>
    41214034:	00a00293          	li	x5,10
    41214038:	065f8063          	beq	x31,x5,41214098 <csr_access_henvcfg_supervisor_key_10_read>
    4121403c:	01000293          	li	x5,16
    41214040:	065f8063          	beq	x31,x5,412140a0 <csr_access_senvcfg_supervisor_key_16_write>
    41214044:	00c00293          	li	x5,12
    41214048:	065f8063          	beq	x31,x5,412140a8 <csr_access_senvcfg_supervisor_key_12_read>
    4121404c:	01200293          	li	x5,18
    41214050:	065f8063          	beq	x31,x5,412140b0 <csr_access_mstatus_machine_key_18_set>
    41214054:	01100293          	li	x5,17
    41214058:	065f8063          	beq	x31,x5,412140b8 <csr_access_mstatus_machine_key_17_clear>
    4121405c:	01400293          	li	x5,20
    41214060:	065f8063          	beq	x31,x5,412140c0 <csr_access_mtvec_machine_key_20_set>
    41214064:	01300293          	li	x5,19
    41214068:	065f8063          	beq	x31,x5,412140c8 <csr_access_mtvec_machine_key_19_clear>
    4121406c:	0640006f          	j	412140d0 <end_machine_label>

0000000041214070 <csr_access_menvcfg_machine_key_3_write>:
    41214070:	30a39073          	csrw	0x30a,x7
    41214074:	05c0006f          	j	412140d0 <end_machine_label>

0000000041214078 <csr_access_menvcfg_machine_key_1_read>:
    41214078:	30a023f3          	csrr	x7,0x30a
    4121407c:	0540006f          	j	412140d0 <end_machine_label>

0000000041214080 <csr_access_menvcfg_machine_key_13_set>:
    41214080:	30a3a073          	csrs	0x30a,x7
    41214084:	04c0006f          	j	412140d0 <end_machine_label>

0000000041214088 <csr_access_menvcfg_machine_key_2_clear>:
    41214088:	30a3b073          	csrc	0x30a,x7
    4121408c:	0440006f          	j	412140d0 <end_machine_label>

0000000041214090 <csr_access_henvcfg_supervisor_key_14_write>:
    41214090:	60a39073          	csrw	henvcfg,x7
    41214094:	03c0006f          	j	412140d0 <end_machine_label>

0000000041214098 <csr_access_henvcfg_supervisor_key_10_read>:
    41214098:	60a023f3          	csrr	x7,henvcfg
    4121409c:	0340006f          	j	412140d0 <end_machine_label>

00000000412140a0 <csr_access_senvcfg_supervisor_key_16_write>:
    412140a0:	10a39073          	csrw	0x10a,x7
    412140a4:	02c0006f          	j	412140d0 <end_machine_label>

00000000412140a8 <csr_access_senvcfg_supervisor_key_12_read>:
    412140a8:	10a023f3          	csrr	x7,0x10a
    412140ac:	0240006f          	j	412140d0 <end_machine_label>

00000000412140b0 <csr_access_mstatus_machine_key_18_set>:
    412140b0:	3003a073          	csrs	mstatus,x7
    412140b4:	01c0006f          	j	412140d0 <end_machine_label>

00000000412140b8 <csr_access_mstatus_machine_key_17_clear>:
    412140b8:	3003b073          	csrc	mstatus,x7
    412140bc:	0140006f          	j	412140d0 <end_machine_label>

00000000412140c0 <csr_access_mtvec_machine_key_20_set>:
    412140c0:	3053a073          	csrs	mtvec,x7
    412140c4:	00c0006f          	j	412140d0 <end_machine_label>

00000000412140c8 <csr_access_mtvec_machine_key_19_clear>:
    412140c8:	3053b073          	csrc	mtvec,x7
    412140cc:	0040006f          	j	412140d0 <end_machine_label>

00000000412140d0 <end_machine_label>:
    412140d0:	000f0fb7          	lui	x31,0xf0
    412140d4:	001f8f9b          	addiw	x31,x31,1 # f0001 <SID_ZICBO_001_stack+0x88001>
    412140d8:	00cf9f93          	slli	x31,x31,0xc
    412140dc:	004f8f93          	addi	x31,x31,4
    412140e0:	00000073          	ecall

Disassembly of section .csr_super_0:

0000000041215000 <end_super_label-0x10>:
    41215000:	00066fb7          	lui	x31,0x66
    41215004:	0c0f8f9b          	addiw	x31,x31,192 # 660c0 <super_csr_jump_table_flags>
    41215008:	000fbf83          	ld	x31,0(x31)
    4121500c:	0040006f          	j	41215010 <end_super_label>

0000000041215010 <end_super_label>:
    41215010:	000f0fb7          	lui	x31,0xf0
    41215014:	001f8f9b          	addiw	x31,x31,1 # f0001 <SID_ZICBO_001_stack+0x88001>
    41215018:	00cf9f93          	slli	x31,x31,0xc
    4121501c:	004f8f93          	addi	x31,x31,4
    41215020:	00000073          	ecall

Disassembly of section .os_data:

0000000000066000 <passed_addr_ptr>:
   66000:	40a0                	.insn	2, 0x40a0
   66002:	4101                	.insn	2, 0x4101
   66004:	0000                	.insn	2, 0x0000
	...

0000000000066008 <failed_addr_ptr>:
   66008:	40b0                	.insn	2, 0x40b0
   6600a:	4101                	.insn	2, 0x4101
   6600c:	0000                	.insn	2, 0x0000
	...

0000000000066010 <end_test_addr_ptr>:
   66010:	40c0                	.insn	2, 0x40c0
   66012:	4101                	.insn	2, 0x4101
   66014:	0000                	.insn	2, 0x0000
	...

0000000000066018 <os_passed_addr_ptr>:
   66018:	0784                	.insn	2, 0x0784
   6601a:	4100                	.insn	2, 0x4100
   6601c:	0000                	.insn	2, 0x0000
	...

0000000000066020 <os_failed_addr_ptr>:
   66020:	0794                	.insn	2, 0x0794
   66022:	4100                	.insn	2, 0x4100
   66024:	0000                	.insn	2, 0x0000
	...

0000000000066028 <os_end_test_addr_ptr>:
   66028:	07a0                	.insn	2, 0x07a0
   6602a:	4100                	.insn	2, 0x4100
   6602c:	0000                	.insn	2, 0x0000
	...

0000000000066030 <rvcp_prefix_str_data>:
   66030:	5652                	.insn	2, 0x5652
   66032:	203a5043          	fmadd.s	f0,f20,f3,f4,unknown
   66036:	6554                	.insn	2, 0x6554
   66038:	46207473          	csrrci	x8,0x462,0
   6603c:	6c69                	.insn	2, 0x6c69
   6603e:	2065                	.insn	2, 0x2065
	...

0000000000066041 <rvcp_testname_str_data>:
   66041:	7074                	.insn	2, 0x7074
   66043:	7a5f 6369 6f62      	.insn	6, 0x6f6263697a5f
   66049:	5f6d                	.insn	2, 0x5f6d
   6604b:	697a                	.insn	2, 0x697a
   6604d:	7a6f6263          	bltu	x30,x6,667f1 <num_hard_fails_mem+0x709>
   66051:	7a5f 6369 6f62      	.insn	6, 0x6f6263697a5f
   66057:	5f70                	.insn	2, 0x5f70
   66059:	697a                	.insn	2, 0x697a
   6605b:	62343663          	.insn	4, 0x62343663
   6605f:	315f        	.insn	6, 0x53415000315f

0000000000066062 <rvcp_passed_str_data>:
   66062:	4150                	.insn	2, 0x4150
   66064:	44455353          	fround.h	f6,f10,unknown
	...

0000000000066069 <rvcp_failed_str_data>:
   66069:	4146                	.insn	2, 0x4146
   6606b:	4c49                	.insn	2, 0x4c49
   6606d:	4445                	.insn	2, 0x4445
	...

0000000000066070 <rvcp_space_str_data>:
   66070:	0020                	.insn	2, 0x0020

0000000000066072 <rvcp_newline_str_data>:
   66072:	000a                	.insn	2, 0x000a
   66074:	0000                	.insn	2, 0x0000
	...

0000000000066078 <excp_ignored_count_mem>:
	...

0000000000066080 <machine_flags_mem>:
	...

0000000000066088 <user_flags_mem>:
	...

0000000000066090 <super_flags_mem>:
	...

0000000000066098 <machine_area_mem>:
	...

00000000000660a0 <user_area_mem>:
	...

00000000000660a8 <super_area_mem>:
	...

00000000000660b0 <zero_data_mem>:
	...

00000000000660b8 <machine_csr_jump_table_flags_mem>:
	...

00000000000660c0 <super_csr_jump_table_flags_mem>:
	...

00000000000660c8 <pte_access_flags_mem>:
	...

00000000000660e0 <num_harts_ended_mem>:
	...

00000000000660e8 <num_hard_fails_mem>:
	...

Disassembly of section .hart_context:

0000003eb8e7f000 <hart_context_0>:
  3eb8e7f000:	b000                	.insn	2, 0xb000
	...
  3eb8e7f016:	0000                	.insn	2, 0x0000
  3eb8e7f018:	0001                	.insn	2, 0x0001
  3eb8e7f01a:	0000                	.insn	2, 0x0000
  3eb8e7f01c:	0000                	.insn	2, 0x0000
  3eb8e7f01e:	0000                	.insn	2, 0x0000
  3eb8e7f020:	ffff                	.insn	2, 0xffff
  3eb8e7f022:	ffff                	.insn	2, 0xffff
  3eb8e7f024:	ffff                	.insn	2, 0xffff
  3eb8e7f026:	ffff                	.insn	2, 0xffff
  3eb8e7f028:	ffff                	.insn	2, 0xffff
  3eb8e7f02a:	ffff                	.insn	2, 0xffff
  3eb8e7f02c:	ffff                	.insn	2, 0xffff
  3eb8e7f02e:	ffff                	.insn	2, 0xffff
  3eb8e7f030:	ffff                	.insn	2, 0xffff
  3eb8e7f032:	ffff                	.insn	2, 0xffff
  3eb8e7f034:	ffff                	.insn	2, 0xffff
  3eb8e7f036:	ffff                	.insn	2, 0xffff
	...
  3eb8e7f050:	00ff 0000 0000 0000 	.insn	10, 0x00ff00000000000000ff
  3eb8e7f058:	00ff 
	...
  3eb8e7f176:	0000                	.insn	2, 0x0000
  3eb8e7f178:	ffff                	.insn	2, 0xffff
  3eb8e7f17a:	ffff                	.insn	2, 0xffff
  3eb8e7f17c:	ffff                	.insn	2, 0xffff
  3eb8e7f17e:	ffff                	.insn	2, 0xffff
	...
  3eb8e7f188:	ffff                	.insn	2, 0xffff
  3eb8e7f18a:	ffff                	.insn	2, 0xffff
	...

Disassembly of section .hart_stack_0:

000000000000a000 <hart_stack_0>:
	...

Disassembly of section .io_htif:

0000000041040000 <tohost>:
	...

0000000041040040 <fromhost>:
	...

Disassembly of section .mem0:

0000000000005000 <.mem0>:
    5000:	c0de                	.insn	2, 0xc0de
    5002:	c001                	.insn	2, 0xc001
    5004:	0000                	.insn	2, 0x0000
	...

Disassembly of section .mem1:

00000000161b8000 <.mem1>:
    161b8000:	c0de                	.insn	2, 0xc0de
    161b8002:	c001                	.insn	2, 0xc001
    161b8004:	0000                	.insn	2, 0x0000
	...

Disassembly of section .mem2:

000000000000b000 <.mem2>:
    b000:	c0de                	.insn	2, 0xc0de
    b002:	c001                	.insn	2, 0xc001
    b004:	0000                	.insn	2, 0x0000
	...

Disassembly of section .mem3:

0000003885b41000 <.mem3>:
  3885b41000:	c0de                	.insn	2, 0xc0de
  3885b41002:	c001                	.insn	2, 0xc001
  3885b41004:	0000                	.insn	2, 0x0000
	...

Disassembly of section .mem4:

0000001a9c604000 <.mem4>:
  1a9c604000:	c0de                	.insn	2, 0xc0de
  1a9c604002:	c001                	.insn	2, 0xc001
  1a9c604004:	0000                	.insn	2, 0x0000
	...

Disassembly of section .mem5:

0000003885b43000 <.mem5>:
  3885b43000:	c0de                	.insn	2, 0xc0de
  3885b43002:	c001                	.insn	2, 0xc001
  3885b43004:	0000                	.insn	2, 0x0000
	...

Disassembly of section .mem6:

000000181c867000 <.mem6>:
  181c867000:	c0de                	.insn	2, 0xc0de
  181c867002:	c001                	.insn	2, 0xc001
  181c867004:	0000                	.insn	2, 0x0000
	...

Disassembly of section .mem7:

0000003ffa7f4000 <.mem7>:
  3ffa7f4000:	c0de                	.insn	2, 0xc0de
  3ffa7f4002:	c001                	.insn	2, 0xc001
  3ffa7f4004:	0000                	.insn	2, 0x0000
	...

Disassembly of section .mem8:

0000003d2d180000 <.mem8>:
  3d2d180000:	c0de                	.insn	2, 0xc0de
  3d2d180002:	c001                	.insn	2, 0xc001
  3d2d180004:	0000                	.insn	2, 0x0000
	...

Disassembly of section .mem9:

000000034cc5d000 <.mem9>:
   34cc5d000:	c0de                	.insn	2, 0xc0de
   34cc5d002:	c001                	.insn	2, 0xc001
   34cc5d004:	0000                	.insn	2, 0x0000
	...

Disassembly of section .mem10:

000000002135e000 <.mem10>:
    2135e000:	c0de                	.insn	2, 0xc0de
    2135e002:	c001                	.insn	2, 0xc001
    2135e004:	0000                	.insn	2, 0x0000
	...

Disassembly of section .mem11:

0000000000ff5000 <.mem11>:
  ff5000:	c0de                	.insn	2, 0xc0de
  ff5002:	c001                	.insn	2, 0xc001
  ff5004:	0000                	.insn	2, 0x0000
	...

Disassembly of section .mem12:

0000000000038000 <.mem12>:
   38000:	c0de                	.insn	2, 0xc0de
   38002:	c001                	.insn	2, 0xc001
   38004:	0000                	.insn	2, 0x0000
	...

Disassembly of section .mem13:

0000000cd7f39000 <.mem13>:
   cd7f39000:	c0de                	.insn	2, 0xc0de
   cd7f39002:	c001                	.insn	2, 0xc001
   cd7f39004:	0000                	.insn	2, 0x0000
	...

Disassembly of section .mem14:

000000000327b000 <.mem14>:
 327b000:	c0de                	.insn	2, 0xc0de
 327b002:	c001                	.insn	2, 0xc001
 327b004:	0000                	.insn	2, 0x0000
	...

Disassembly of section .mem15:

0000000061e1d000 <.mem15>:
    61e1d000:	c0de                	.insn	2, 0xc0de
    61e1d002:	c001                	.insn	2, 0xc001
    61e1d004:	0000                	.insn	2, 0x0000
	...

Disassembly of section .tp_csr_storage:

0000000000057000 <.tp_csr_storage>:
   57000:	c0de                	.insn	2, 0xc0de
   57002:	c001                	.insn	2, 0xc001
   57004:	0000                	.insn	2, 0x0000
	...

Disassembly of section .SID_ZICBO_001_stack:

0000000000068000 <.SID_ZICBO_001_stack>:
   68000:	c0de                	.insn	2, 0xc0de
   68002:	c001                	.insn	2, 0xc001
   68004:	0000                	.insn	2, 0x0000
	...

Disassembly of section .SID_ZICBO_003_stack:

0000000656b93000 <.SID_ZICBO_003_stack>:
   656b93000:	c0de                	.insn	2, 0xc0de
   656b93002:	c001                	.insn	2, 0xc001
   656b93004:	0000                	.insn	2, 0x0000
	...

Disassembly of section .SID_ZICBO_005_stack:

0000000000011000 <.SID_ZICBO_005_stack>:
   11000:	c0de                	.insn	2, 0xc0de
   11002:	c001                	.insn	2, 0xc001
   11004:	0000                	.insn	2, 0x0000
	...

Disassembly of section .SID_ZICBO_013_stack:

0000000040f3d000 <.SID_ZICBO_013_stack>:
    40f3d000:	c0de                	.insn	2, 0xc0de
    40f3d002:	c001                	.insn	2, 0xc001
    40f3d004:	0000                	.insn	2, 0x0000
	...

Disassembly of section .SID_ZICBO_015_stack:

ffffffeac66df000 <.SID_ZICBO_015_stack>:
ffffffeac66df000:	c0de                	.insn	2, 0xc0de
ffffffeac66df002:	c001                	.insn	2, 0xc001
ffffffeac66df004:	0000                	.insn	2, 0x0000
	...

Disassembly of section .SID_ZICBO_016_stack:

ffffffe692316000 <.SID_ZICBO_016_stack>:
ffffffe692316000:	c0de                	.insn	2, 0xc0de
ffffffe692316002:	c001                	.insn	2, 0xc001
ffffffe692316004:	0000                	.insn	2, 0x0000
	...

Disassembly of section .SID_ZICBO_017_stack:

0000000b2fbd6000 <.SID_ZICBO_017_stack>:
   b2fbd6000:	c0de                	.insn	2, 0xc0de
   b2fbd6002:	c001                	.insn	2, 0xc001
   b2fbd6004:	0000                	.insn	2, 0x0000
	...

Disassembly of section .SID_ZICBO_018_stack:

0000000000002000 <.SID_ZICBO_018_stack>:
    2000:	c0de                	.insn	2, 0xc0de
    2002:	c001                	.insn	2, 0xc001
    2004:	0000                	.insn	2, 0x0000
	...

Disassembly of section .SID_ZICBO_019_stack:

0000000000b0c000 <.SID_ZICBO_019_stack>:
  b0c000:	c0de                	.insn	2, 0xc0de
  b0c002:	c001                	.insn	2, 0xc001
  b0c004:	0000                	.insn	2, 0x0000
	...

Disassembly of section .SID_ZICBO_020_stack:

000000005fd62000 <.SID_ZICBO_020_stack>:
    5fd62000:	c0de                	.insn	2, 0xc0de
    5fd62002:	c001                	.insn	2, 0xc001
    5fd62004:	0000                	.insn	2, 0x0000
	...

Disassembly of section .SID_ZICBO_022_stack:

00000000d64dd000 <.SID_ZICBO_022_stack>:
    d64dd000:	c0de                	.insn	2, 0xc0de
    d64dd002:	c001                	.insn	2, 0xc001
    d64dd004:	0000                	.insn	2, 0x0000
	...

Disassembly of section .SID_ZICBO_047_stack:

00000000db8fd000 <.SID_ZICBO_047_stack>:
    db8fd000:	c0de                	.insn	2, 0xc0de
    db8fd002:	c001                	.insn	2, 0xc001
    db8fd004:	0000                	.insn	2, 0x0000
	...

Disassembly of section .SID_ZICBO_049_stack:

0000000013bbf000 <.SID_ZICBO_049_stack>:
    13bbf000:	c0de                	.insn	2, 0xc0de
    13bbf002:	c001                	.insn	2, 0xc001
    13bbf004:	0000                	.insn	2, 0x0000
	...

Disassembly of section .SID_ZICBO_50_ZIC64B_01_stack:

0000000000108000 <.SID_ZICBO_50_ZIC64B_01_stack>:
  108000:	c0de                	.insn	2, 0xc0de
  108002:	c001                	.insn	2, 0xc001
  108004:	0000                	.insn	2, 0x0000
	...

Disassembly of section .__pagetable_map_os_0x000000004128c000:

000000004128c000 <__pagetable_map_os_0x000000004128c000>:
    4128c000:	1401                	.insn	2, 0x1401
    4128c002:	10a5                	.insn	2, 0x10a5
    4128c004:	0000                	.insn	2, 0x0000
    4128c006:	0000                	.insn	2, 0x0000
    4128c008:	4c01                	.insn	2, 0x4c01
    4128c00a:	1049                	.insn	2, 0x1049
	...
    4128c018:	6c01                	.insn	2, 0x6c01
    4128c01a:	10b1                	.insn	2, 0x10b1
	...
    4128c058:	d001                	.insn	2, 0xd001
    4128c05a:	00001133          	sll	x2,x0,x0
	...
    4128c066:	0000                	.insn	2, 0x0000
    4128c068:	5c01                	.insn	2, 0x5c01
    4128c06a:	10a5                	.insn	2, 0x10a5
	...
    4128c0c8:	4401                	.insn	2, 0x4401
    4128c0ca:	10a5                	.insn	2, 0x10a5
	...
    4128c160:	3c01                	.insn	2, 0x3c01
    4128c162:	0000113b          	sllw	x2,x0,x0
	...
    4128c196:	0000                	.insn	2, 0x0000
    4128c198:	cc01                	.insn	2, 0xcc01
    4128c19a:	113e                	.insn	2, 0x113e
	...
    4128c300:	f401                	.insn	2, 0xf401
    4128c302:	1136                	.insn	2, 0x1136
	...
    4128c350:	1401                	.insn	2, 0x1401
    4128c352:	1049                	.insn	2, 0x1049
	...
    4128c710:	9401                	.insn	2, 0x9401
    4128c712:	10b1                	.insn	2, 0x10b1
	...
    4128c7a0:	e801                	.insn	2, 0xe801
    4128c7a2:	10b4                	.insn	2, 0x10b4
	...
    4128c7d0:	2401                	.insn	2, 0x2401
    4128c7d2:	1132                	.insn	2, 0x1132
	...
    4128c7f8:	4801                	.insn	2, 0x4801
    4128c7fa:	1132                	.insn	2, 0x1132
	...
    4128ccd0:	e801                	.insn	2, 0xe801
    4128ccd2:	10a5                	.insn	2, 0x10a5
	...
    4128cd58:	7001                	.insn	2, 0x7001
    4128cd5a:	0000113b          	sllw	x2,x0,x0
	...

Disassembly of section .__pagetable_map_os_0x0000000041253000:

0000000041253000 <__pagetable_map_os_0x0000000041253000>:
	...
    41253038:	cc01                	.insn	2, 0xcc01
    4125303a:	10bc                	.insn	2, 0x10bc
    4125303c:	0000                	.insn	2, 0x0000
    4125303e:	0000                	.insn	2, 0x0000
    41253040:	0001                	.insn	2, 0x0001
    41253042:	10a6                	.insn	2, 0x10a6
    41253044:	0000                	.insn	2, 0x0000
    41253046:	0000                	.insn	2, 0x0000
    41253048:	b401                	.insn	2, 0xb401
    4125304a:	113a                	.insn	2, 0x113a
	...
    412537f0:	ec01                	.insn	2, 0xec01
    412537f2:	113a                	.insn	2, 0x113a
	...
    41253878:	3801                	.insn	2, 0x3801
    4125387a:	1049                	.insn	2, 0x1049
    4125387c:	0000                	.insn	2, 0x0000
	...

Disassembly of section .__pagetable_map_os_0x0000000042980000:

0000000042980000 <__pagetable_map_os_0x0000000042980000>:
	...
    42980080:	104040cf          	fnmadd.s	f1,f0,f4,f2,rmm
    42980084:	0000                	.insn	2, 0x0000
    42980086:	0000                	.insn	2, 0x0000
    42980088:	104044cf          	fnmadd.s	f9,f0,f4,f2,rmm
    4298008c:	0000                	.insn	2, 0x0000
    4298008e:	0000                	.insn	2, 0x0000
    42980090:	104048cf          	fnmadd.s	f17,f0,f4,f2,rmm
    42980094:	0000                	.insn	2, 0x0000
    42980096:	0000                	.insn	2, 0x0000
    42980098:	10404ccf          	fnmadd.s	f25,f0,f4,f2,rmm
    4298009c:	0000                	.insn	2, 0x0000
    4298009e:	0000                	.insn	2, 0x0000
    429800a0:	112800cf          	fnmadd.s	f1,f16,f18,f2,rne
    429800a4:	0000                	.insn	2, 0x0000
    429800a6:	0000                	.insn	2, 0x0000
    429800a8:	112804cf          	fnmadd.s	f9,f16,f18,f2,rne
    429800ac:	0000                	.insn	2, 0x0000
    429800ae:	0000                	.insn	2, 0x0000
    429800b0:	112808cf          	fnmadd.s	f17,f16,f18,f2,rne
    429800b4:	0000                	.insn	2, 0x0000
    429800b6:	0000                	.insn	2, 0x0000
    429800b8:	11280ccf          	fnmadd.s	f25,f16,f18,f2,rne
    429800bc:	0000                	.insn	2, 0x0000
    429800be:	0000                	.insn	2, 0x0000
    429800c0:	112810cf          	fnmadd.s	f1,f16,f18,f2,rtz
    429800c4:	0000                	.insn	2, 0x0000
    429800c6:	0000                	.insn	2, 0x0000
    429800c8:	112814cf          	fnmadd.s	f9,f16,f18,f2,rtz
    429800cc:	0000                	.insn	2, 0x0000
    429800ce:	0000                	.insn	2, 0x0000
    429800d0:	112818cf          	fnmadd.s	f17,f16,f18,f2,rtz
    429800d4:	0000                	.insn	2, 0x0000
    429800d6:	0000                	.insn	2, 0x0000
    429800d8:	11281ccf          	fnmadd.s	f25,f16,f18,f2,rtz
    429800dc:	0000                	.insn	2, 0x0000
    429800de:	0000                	.insn	2, 0x0000
    429800e0:	112820cf          	fnmadd.s	f1,f16,f18,f2,rdn
    429800e4:	0000                	.insn	2, 0x0000
    429800e6:	0000                	.insn	2, 0x0000
    429800e8:	112824cf          	fnmadd.s	f9,f16,f18,f2,rdn
    429800ec:	0000                	.insn	2, 0x0000
    429800ee:	0000                	.insn	2, 0x0000
    429800f0:	112828cf          	fnmadd.s	f17,f16,f18,f2,rdn
    429800f4:	0000                	.insn	2, 0x0000
    429800f6:	0000                	.insn	2, 0x0000
    429800f8:	11282ccf          	fnmadd.s	f25,f16,f18,f2,rdn
    429800fc:	0000                	.insn	2, 0x0000
    429800fe:	0000                	.insn	2, 0x0000
    42980100:	112830cf          	fnmadd.s	f1,f16,f18,f2,rup
    42980104:	0000                	.insn	2, 0x0000
    42980106:	0000                	.insn	2, 0x0000
    42980108:	112834cf          	fnmadd.s	f9,f16,f18,f2,rup
    4298010c:	0000                	.insn	2, 0x0000
    4298010e:	0000                	.insn	2, 0x0000
    42980110:	112838cf          	fnmadd.s	f17,f16,f18,f2,rup
    42980114:	0000                	.insn	2, 0x0000
    42980116:	0000                	.insn	2, 0x0000
    42980118:	11283ccf          	fnmadd.s	f25,f16,f18,f2,rup
    4298011c:	0000                	.insn	2, 0x0000
    4298011e:	0000                	.insn	2, 0x0000
    42980120:	112840cf          	fnmadd.s	f1,f16,f18,f2,rmm
    42980124:	0000                	.insn	2, 0x0000
    42980126:	0000                	.insn	2, 0x0000
    42980128:	112844cf          	fnmadd.s	f9,f16,f18,f2,rmm
    4298012c:	0000                	.insn	2, 0x0000
    4298012e:	0000                	.insn	2, 0x0000
    42980130:	112848cf          	fnmadd.s	f17,f16,f18,f2,rmm
    42980134:	0000                	.insn	2, 0x0000
    42980136:	0000                	.insn	2, 0x0000
    42980138:	11284ccf          	fnmadd.s	f25,f16,f18,f2,rmm
    4298013c:	0000                	.insn	2, 0x0000
    4298013e:	0000                	.insn	2, 0x0000
    42980140:	112850cf          	fnmadd.s	f1,f16,f18,f2,unknown
    42980144:	0000                	.insn	2, 0x0000
    42980146:	0000                	.insn	2, 0x0000
    42980148:	112854cf          	fnmadd.s	f9,f16,f18,f2,unknown
    4298014c:	0000                	.insn	2, 0x0000
    4298014e:	0000                	.insn	2, 0x0000
    42980150:	112858cf          	fnmadd.s	f17,f16,f18,f2,unknown
    42980154:	0000                	.insn	2, 0x0000
    42980156:	0000                	.insn	2, 0x0000
    42980158:	11285ccf          	fnmadd.s	f25,f16,f18,f2,unknown
    4298015c:	0000                	.insn	2, 0x0000
    4298015e:	0000                	.insn	2, 0x0000
    42980160:	112860cf          	fnmadd.s	f1,f16,f18,f2,unknown
    42980164:	0000                	.insn	2, 0x0000
    42980166:	0000                	.insn	2, 0x0000
    42980168:	112864cf          	fnmadd.s	f9,f16,f18,f2,unknown
    4298016c:	0000                	.insn	2, 0x0000
    4298016e:	0000                	.insn	2, 0x0000
    42980170:	112868cf          	fnmadd.s	f17,f16,f18,f2,unknown
    42980174:	0000                	.insn	2, 0x0000
    42980176:	0000                	.insn	2, 0x0000
    42980178:	11286ccf          	fnmadd.s	f25,f16,f18,f2,unknown
    4298017c:	0000                	.insn	2, 0x0000
    4298017e:	0000                	.insn	2, 0x0000
    42980180:	112870cf          	fnmadd.s	f1,f16,f18,f2
    42980184:	0000                	.insn	2, 0x0000
    42980186:	0000                	.insn	2, 0x0000
    42980188:	112874cf          	fnmadd.s	f9,f16,f18,f2
    4298018c:	0000                	.insn	2, 0x0000
    4298018e:	0000                	.insn	2, 0x0000
    42980190:	112878cf          	fnmadd.s	f17,f16,f18,f2
    42980194:	0000                	.insn	2, 0x0000
    42980196:	0000                	.insn	2, 0x0000
    42980198:	11287ccf          	fnmadd.s	f25,f16,f18,f2
    4298019c:	0000                	.insn	2, 0x0000
    4298019e:	0000                	.insn	2, 0x0000
    429801a0:	112880cf          	fnmadd.s	f1,f17,f18,f2,rne
    429801a4:	0000                	.insn	2, 0x0000
    429801a6:	0000                	.insn	2, 0x0000
    429801a8:	112884cf          	fnmadd.s	f9,f17,f18,f2,rne
    429801ac:	0000                	.insn	2, 0x0000
    429801ae:	0000                	.insn	2, 0x0000
    429801b0:	112888cf          	fnmadd.s	f17,f17,f18,f2,rne
    429801b4:	0000                	.insn	2, 0x0000
    429801b6:	0000                	.insn	2, 0x0000
    429801b8:	11288ccf          	fnmadd.s	f25,f17,f18,f2,rne
    429801bc:	0000                	.insn	2, 0x0000
    429801be:	0000                	.insn	2, 0x0000
    429801c0:	112890cf          	fnmadd.s	f1,f17,f18,f2,rtz
    429801c4:	0000                	.insn	2, 0x0000
    429801c6:	0000                	.insn	2, 0x0000
    429801c8:	112894cf          	fnmadd.s	f9,f17,f18,f2,rtz
    429801cc:	0000                	.insn	2, 0x0000
    429801ce:	0000                	.insn	2, 0x0000
    429801d0:	112898cf          	fnmadd.s	f17,f17,f18,f2,rtz
    429801d4:	0000                	.insn	2, 0x0000
    429801d6:	0000                	.insn	2, 0x0000
    429801d8:	11289ccf          	fnmadd.s	f25,f17,f18,f2,rtz
    429801dc:	0000                	.insn	2, 0x0000
    429801de:	0000                	.insn	2, 0x0000
    429801e0:	1128a0cf          	fnmadd.s	f1,f17,f18,f2,rdn
    429801e4:	0000                	.insn	2, 0x0000
    429801e6:	0000                	.insn	2, 0x0000
    429801e8:	1128a4cf          	fnmadd.s	f9,f17,f18,f2,rdn
    429801ec:	0000                	.insn	2, 0x0000
    429801ee:	0000                	.insn	2, 0x0000
    429801f0:	1128a8cf          	fnmadd.s	f17,f17,f18,f2,rdn
    429801f4:	0000                	.insn	2, 0x0000
    429801f6:	0000                	.insn	2, 0x0000
    429801f8:	1128accf          	fnmadd.s	f25,f17,f18,f2,rdn
    429801fc:	0000                	.insn	2, 0x0000
    429801fe:	0000                	.insn	2, 0x0000
    42980200:	104100cf          	fnmadd.s	f1,f2,f4,f2,rne
    42980204:	0000                	.insn	2, 0x0000
    42980206:	0000                	.insn	2, 0x0000
    42980208:	1128b4cf          	fnmadd.s	f9,f17,f18,f2,rup
    4298020c:	0000                	.insn	2, 0x0000
    4298020e:	0000                	.insn	2, 0x0000
    42980210:	1128b8cf          	fnmadd.s	f17,f17,f18,f2,rup
    42980214:	0000                	.insn	2, 0x0000
    42980216:	0000                	.insn	2, 0x0000
    42980218:	1128bccf          	fnmadd.s	f25,f17,f18,f2,rup
    4298021c:	0000                	.insn	2, 0x0000
    4298021e:	0000                	.insn	2, 0x0000
    42980220:	1128c0cf          	fnmadd.s	f1,f17,f18,f2,rmm
    42980224:	0000                	.insn	2, 0x0000
    42980226:	0000                	.insn	2, 0x0000
    42980228:	1128c4cf          	fnmadd.s	f9,f17,f18,f2,rmm
    4298022c:	0000                	.insn	2, 0x0000
    4298022e:	0000                	.insn	2, 0x0000
    42980230:	1128c8cf          	fnmadd.s	f17,f17,f18,f2,rmm
    42980234:	0000                	.insn	2, 0x0000
    42980236:	0000                	.insn	2, 0x0000
    42980238:	1128cccf          	fnmadd.s	f25,f17,f18,f2,rmm
    4298023c:	0000                	.insn	2, 0x0000
    4298023e:	0000                	.insn	2, 0x0000
    42980240:	1128d0cf          	fnmadd.s	f1,f17,f18,f2,unknown
    42980244:	0000                	.insn	2, 0x0000
    42980246:	0000                	.insn	2, 0x0000
    42980248:	1128d4cf          	fnmadd.s	f9,f17,f18,f2,unknown
    4298024c:	0000                	.insn	2, 0x0000
    4298024e:	0000                	.insn	2, 0x0000
    42980250:	1128d8cf          	fnmadd.s	f17,f17,f18,f2,unknown
    42980254:	0000                	.insn	2, 0x0000
    42980256:	0000                	.insn	2, 0x0000
    42980258:	1128dccf          	fnmadd.s	f25,f17,f18,f2,unknown
    4298025c:	0000                	.insn	2, 0x0000
    4298025e:	0000                	.insn	2, 0x0000
    42980260:	1128e0cf          	fnmadd.s	f1,f17,f18,f2,unknown
    42980264:	0000                	.insn	2, 0x0000
    42980266:	0000                	.insn	2, 0x0000
    42980268:	1128e4cf          	fnmadd.s	f9,f17,f18,f2,unknown
    4298026c:	0000                	.insn	2, 0x0000
    4298026e:	0000                	.insn	2, 0x0000
    42980270:	1128e8cf          	fnmadd.s	f17,f17,f18,f2,unknown
    42980274:	0000                	.insn	2, 0x0000
    42980276:	0000                	.insn	2, 0x0000
    42980278:	1128eccf          	fnmadd.s	f25,f17,f18,f2,unknown
    4298027c:	0000                	.insn	2, 0x0000
    4298027e:	0000                	.insn	2, 0x0000
    42980280:	1128f0cf          	fnmadd.s	f1,f17,f18,f2
    42980284:	0000                	.insn	2, 0x0000
    42980286:	0000                	.insn	2, 0x0000
    42980288:	1128f4cf          	fnmadd.s	f9,f17,f18,f2
    4298028c:	0000                	.insn	2, 0x0000
    4298028e:	0000                	.insn	2, 0x0000
    42980290:	1128f8cf          	fnmadd.s	f17,f17,f18,f2
    42980294:	0000                	.insn	2, 0x0000
    42980296:	0000                	.insn	2, 0x0000
    42980298:	1128fccf          	fnmadd.s	f25,f17,f18,f2
    4298029c:	0000                	.insn	2, 0x0000
    4298029e:	0000                	.insn	2, 0x0000
    429802a0:	112900cf          	fnmadd.s	f1,f18,f18,f2,rne
    429802a4:	0000                	.insn	2, 0x0000
    429802a6:	0000                	.insn	2, 0x0000
    429802a8:	112904cf          	fnmadd.s	f9,f18,f18,f2,rne
    429802ac:	0000                	.insn	2, 0x0000
    429802ae:	0000                	.insn	2, 0x0000
    429802b0:	112908cf          	fnmadd.s	f17,f18,f18,f2,rne
    429802b4:	0000                	.insn	2, 0x0000
    429802b6:	0000                	.insn	2, 0x0000
    429802b8:	11290ccf          	fnmadd.s	f25,f18,f18,f2,rne
    429802bc:	0000                	.insn	2, 0x0000
    429802be:	0000                	.insn	2, 0x0000
    429802c0:	112910cf          	fnmadd.s	f1,f18,f18,f2,rtz
    429802c4:	0000                	.insn	2, 0x0000
    429802c6:	0000                	.insn	2, 0x0000
    429802c8:	112914cf          	fnmadd.s	f9,f18,f18,f2,rtz
    429802cc:	0000                	.insn	2, 0x0000
    429802ce:	0000                	.insn	2, 0x0000
    429802d0:	112918cf          	fnmadd.s	f17,f18,f18,f2,rtz
    429802d4:	0000                	.insn	2, 0x0000
    429802d6:	0000                	.insn	2, 0x0000
    429802d8:	11291ccf          	fnmadd.s	f25,f18,f18,f2,rtz
    429802dc:	0000                	.insn	2, 0x0000
    429802de:	0000                	.insn	2, 0x0000
    429802e0:	112920cf          	fnmadd.s	f1,f18,f18,f2,rdn
    429802e4:	0000                	.insn	2, 0x0000
    429802e6:	0000                	.insn	2, 0x0000
    429802e8:	112924cf          	fnmadd.s	f9,f18,f18,f2,rdn
    429802ec:	0000                	.insn	2, 0x0000
    429802ee:	0000                	.insn	2, 0x0000
    429802f0:	112928cf          	fnmadd.s	f17,f18,f18,f2,rdn
    429802f4:	0000                	.insn	2, 0x0000
    429802f6:	0000                	.insn	2, 0x0000
    429802f8:	11292ccf          	fnmadd.s	f25,f18,f18,f2,rdn
    429802fc:	0000                	.insn	2, 0x0000
    429802fe:	0000                	.insn	2, 0x0000
    42980300:	112930cf          	fnmadd.s	f1,f18,f18,f2,rup
    42980304:	0000                	.insn	2, 0x0000
    42980306:	0000                	.insn	2, 0x0000
    42980308:	112934cf          	fnmadd.s	f9,f18,f18,f2,rup
    4298030c:	0000                	.insn	2, 0x0000
    4298030e:	0000                	.insn	2, 0x0000
    42980310:	112938cf          	fnmadd.s	f17,f18,f18,f2,rup
    42980314:	0000                	.insn	2, 0x0000
    42980316:	0000                	.insn	2, 0x0000
    42980318:	11293ccf          	fnmadd.s	f25,f18,f18,f2,rup
    4298031c:	0000                	.insn	2, 0x0000
    4298031e:	0000                	.insn	2, 0x0000
    42980320:	112940cf          	fnmadd.s	f1,f18,f18,f2,rmm
    42980324:	0000                	.insn	2, 0x0000
    42980326:	0000                	.insn	2, 0x0000
    42980328:	112944cf          	fnmadd.s	f9,f18,f18,f2,rmm
    4298032c:	0000                	.insn	2, 0x0000
    4298032e:	0000                	.insn	2, 0x0000
    42980330:	112948cf          	fnmadd.s	f17,f18,f18,f2,rmm
    42980334:	0000                	.insn	2, 0x0000
    42980336:	0000                	.insn	2, 0x0000
    42980338:	11294ccf          	fnmadd.s	f25,f18,f18,f2,rmm
    4298033c:	0000                	.insn	2, 0x0000
    4298033e:	0000                	.insn	2, 0x0000
    42980340:	112950cf          	fnmadd.s	f1,f18,f18,f2,unknown
    42980344:	0000                	.insn	2, 0x0000
    42980346:	0000                	.insn	2, 0x0000
    42980348:	112954cf          	fnmadd.s	f9,f18,f18,f2,unknown
    4298034c:	0000                	.insn	2, 0x0000
    4298034e:	0000                	.insn	2, 0x0000
    42980350:	112958cf          	fnmadd.s	f17,f18,f18,f2,unknown
    42980354:	0000                	.insn	2, 0x0000
    42980356:	0000                	.insn	2, 0x0000
    42980358:	11295ccf          	fnmadd.s	f25,f18,f18,f2,unknown
    4298035c:	0000                	.insn	2, 0x0000
    4298035e:	0000                	.insn	2, 0x0000
    42980360:	112960cf          	fnmadd.s	f1,f18,f18,f2,unknown
    42980364:	0000                	.insn	2, 0x0000
    42980366:	0000                	.insn	2, 0x0000
    42980368:	112964cf          	fnmadd.s	f9,f18,f18,f2,unknown
    4298036c:	0000                	.insn	2, 0x0000
    4298036e:	0000                	.insn	2, 0x0000
    42980370:	112968cf          	fnmadd.s	f17,f18,f18,f2,unknown
    42980374:	0000                	.insn	2, 0x0000
    42980376:	0000                	.insn	2, 0x0000
    42980378:	11296ccf          	fnmadd.s	f25,f18,f18,f2,unknown
    4298037c:	0000                	.insn	2, 0x0000
    4298037e:	0000                	.insn	2, 0x0000
    42980380:	112970cf          	fnmadd.s	f1,f18,f18,f2
    42980384:	0000                	.insn	2, 0x0000
    42980386:	0000                	.insn	2, 0x0000
    42980388:	112974cf          	fnmadd.s	f9,f18,f18,f2
    4298038c:	0000                	.insn	2, 0x0000
    4298038e:	0000                	.insn	2, 0x0000
    42980390:	112978cf          	fnmadd.s	f17,f18,f18,f2
    42980394:	0000                	.insn	2, 0x0000
    42980396:	0000                	.insn	2, 0x0000
    42980398:	11297ccf          	fnmadd.s	f25,f18,f18,f2
    4298039c:	0000                	.insn	2, 0x0000
    4298039e:	0000                	.insn	2, 0x0000
    429803a0:	112980cf          	fnmadd.s	f1,f19,f18,f2,rne
    429803a4:	0000                	.insn	2, 0x0000
    429803a6:	0000                	.insn	2, 0x0000
    429803a8:	112984cf          	fnmadd.s	f9,f19,f18,f2,rne
    429803ac:	0000                	.insn	2, 0x0000
    429803ae:	0000                	.insn	2, 0x0000
    429803b0:	112988cf          	fnmadd.s	f17,f19,f18,f2,rne
    429803b4:	0000                	.insn	2, 0x0000
    429803b6:	0000                	.insn	2, 0x0000
    429803b8:	11298ccf          	fnmadd.s	f25,f19,f18,f2,rne
    429803bc:	0000                	.insn	2, 0x0000
    429803be:	0000                	.insn	2, 0x0000
    429803c0:	112990cf          	fnmadd.s	f1,f19,f18,f2,rtz
    429803c4:	0000                	.insn	2, 0x0000
    429803c6:	0000                	.insn	2, 0x0000
    429803c8:	112994cf          	fnmadd.s	f9,f19,f18,f2,rtz
    429803cc:	0000                	.insn	2, 0x0000
    429803ce:	0000                	.insn	2, 0x0000
    429803d0:	112998cf          	fnmadd.s	f17,f19,f18,f2,rtz
    429803d4:	0000                	.insn	2, 0x0000
    429803d6:	0000                	.insn	2, 0x0000
    429803d8:	11299ccf          	fnmadd.s	f25,f19,f18,f2,rtz
    429803dc:	0000                	.insn	2, 0x0000
    429803de:	0000                	.insn	2, 0x0000
    429803e0:	1129a0cf          	fnmadd.s	f1,f19,f18,f2,rdn
    429803e4:	0000                	.insn	2, 0x0000
    429803e6:	0000                	.insn	2, 0x0000
    429803e8:	1129a4cf          	fnmadd.s	f9,f19,f18,f2,rdn
    429803ec:	0000                	.insn	2, 0x0000
    429803ee:	0000                	.insn	2, 0x0000
    429803f0:	1129a8cf          	fnmadd.s	f17,f19,f18,f2,rdn
    429803f4:	0000                	.insn	2, 0x0000
    429803f6:	0000                	.insn	2, 0x0000
    429803f8:	1129accf          	fnmadd.s	f25,f19,f18,f2,rdn
    429803fc:	0000                	.insn	2, 0x0000
    429803fe:	0000                	.insn	2, 0x0000
    42980400:	1129b0cf          	fnmadd.s	f1,f19,f18,f2,rup
    42980404:	0000                	.insn	2, 0x0000
    42980406:	0000                	.insn	2, 0x0000
    42980408:	1129b4cf          	fnmadd.s	f9,f19,f18,f2,rup
    4298040c:	0000                	.insn	2, 0x0000
    4298040e:	0000                	.insn	2, 0x0000
    42980410:	1129b8cf          	fnmadd.s	f17,f19,f18,f2,rup
    42980414:	0000                	.insn	2, 0x0000
    42980416:	0000                	.insn	2, 0x0000
    42980418:	1129bccf          	fnmadd.s	f25,f19,f18,f2,rup
    4298041c:	0000                	.insn	2, 0x0000
    4298041e:	0000                	.insn	2, 0x0000
    42980420:	1129c0cf          	fnmadd.s	f1,f19,f18,f2,rmm
    42980424:	0000                	.insn	2, 0x0000
    42980426:	0000                	.insn	2, 0x0000
    42980428:	1129c4cf          	fnmadd.s	f9,f19,f18,f2,rmm
    4298042c:	0000                	.insn	2, 0x0000
    4298042e:	0000                	.insn	2, 0x0000
    42980430:	1129c8cf          	fnmadd.s	f17,f19,f18,f2,rmm
    42980434:	0000                	.insn	2, 0x0000
    42980436:	0000                	.insn	2, 0x0000
    42980438:	1129cccf          	fnmadd.s	f25,f19,f18,f2,rmm
    4298043c:	0000                	.insn	2, 0x0000
    4298043e:	0000                	.insn	2, 0x0000
    42980440:	1129d0cf          	fnmadd.s	f1,f19,f18,f2,unknown
    42980444:	0000                	.insn	2, 0x0000
    42980446:	0000                	.insn	2, 0x0000
    42980448:	1129d4cf          	fnmadd.s	f9,f19,f18,f2,unknown
    4298044c:	0000                	.insn	2, 0x0000
    4298044e:	0000                	.insn	2, 0x0000
    42980450:	1129d8cf          	fnmadd.s	f17,f19,f18,f2,unknown
    42980454:	0000                	.insn	2, 0x0000
    42980456:	0000                	.insn	2, 0x0000
    42980458:	1129dccf          	fnmadd.s	f25,f19,f18,f2,unknown
    4298045c:	0000                	.insn	2, 0x0000
    4298045e:	0000                	.insn	2, 0x0000
    42980460:	1129e0cf          	fnmadd.s	f1,f19,f18,f2,unknown
    42980464:	0000                	.insn	2, 0x0000
    42980466:	0000                	.insn	2, 0x0000
    42980468:	1129e4cf          	fnmadd.s	f9,f19,f18,f2,unknown
    4298046c:	0000                	.insn	2, 0x0000
    4298046e:	0000                	.insn	2, 0x0000
    42980470:	1129e8cf          	fnmadd.s	f17,f19,f18,f2,unknown
    42980474:	0000                	.insn	2, 0x0000
    42980476:	0000                	.insn	2, 0x0000
    42980478:	1129eccf          	fnmadd.s	f25,f19,f18,f2,unknown
    4298047c:	0000                	.insn	2, 0x0000
    4298047e:	0000                	.insn	2, 0x0000
    42980480:	1129f0cf          	fnmadd.s	f1,f19,f18,f2
    42980484:	0000                	.insn	2, 0x0000
    42980486:	0000                	.insn	2, 0x0000
    42980488:	1129f4cf          	fnmadd.s	f9,f19,f18,f2
    4298048c:	0000                	.insn	2, 0x0000
    4298048e:	0000                	.insn	2, 0x0000
    42980490:	1129f8cf          	fnmadd.s	f17,f19,f18,f2
    42980494:	0000                	.insn	2, 0x0000
    42980496:	0000                	.insn	2, 0x0000
    42980498:	1129fccf          	fnmadd.s	f25,f19,f18,f2
    4298049c:	0000                	.insn	2, 0x0000
    4298049e:	0000                	.insn	2, 0x0000
    429804a0:	112a00cf          	fnmadd.s	f1,f20,f18,f2,rne
    429804a4:	0000                	.insn	2, 0x0000
    429804a6:	0000                	.insn	2, 0x0000
    429804a8:	112a04cf          	fnmadd.s	f9,f20,f18,f2,rne
    429804ac:	0000                	.insn	2, 0x0000
    429804ae:	0000                	.insn	2, 0x0000
    429804b0:	112a08cf          	fnmadd.s	f17,f20,f18,f2,rne
    429804b4:	0000                	.insn	2, 0x0000
    429804b6:	0000                	.insn	2, 0x0000
    429804b8:	112a0ccf          	fnmadd.s	f25,f20,f18,f2,rne
    429804bc:	0000                	.insn	2, 0x0000
    429804be:	0000                	.insn	2, 0x0000
    429804c0:	112a10cf          	fnmadd.s	f1,f20,f18,f2,rtz
    429804c4:	0000                	.insn	2, 0x0000
    429804c6:	0000                	.insn	2, 0x0000
    429804c8:	112a14cf          	fnmadd.s	f9,f20,f18,f2,rtz
    429804cc:	0000                	.insn	2, 0x0000
    429804ce:	0000                	.insn	2, 0x0000
    429804d0:	112a18cf          	fnmadd.s	f17,f20,f18,f2,rtz
    429804d4:	0000                	.insn	2, 0x0000
    429804d6:	0000                	.insn	2, 0x0000
    429804d8:	112a1ccf          	fnmadd.s	f25,f20,f18,f2,rtz
    429804dc:	0000                	.insn	2, 0x0000
    429804de:	0000                	.insn	2, 0x0000
    429804e0:	112a20cf          	fnmadd.s	f1,f20,f18,f2,rdn
    429804e4:	0000                	.insn	2, 0x0000
    429804e6:	0000                	.insn	2, 0x0000
    429804e8:	112a24cf          	fnmadd.s	f9,f20,f18,f2,rdn
    429804ec:	0000                	.insn	2, 0x0000
    429804ee:	0000                	.insn	2, 0x0000
    429804f0:	112a28cf          	fnmadd.s	f17,f20,f18,f2,rdn
    429804f4:	0000                	.insn	2, 0x0000
    429804f6:	0000                	.insn	2, 0x0000
    429804f8:	112a2ccf          	fnmadd.s	f25,f20,f18,f2,rdn
    429804fc:	0000                	.insn	2, 0x0000
    429804fe:	0000                	.insn	2, 0x0000
    42980500:	112a30cf          	fnmadd.s	f1,f20,f18,f2,rup
    42980504:	0000                	.insn	2, 0x0000
    42980506:	0000                	.insn	2, 0x0000
    42980508:	112a34cf          	fnmadd.s	f9,f20,f18,f2,rup
    4298050c:	0000                	.insn	2, 0x0000
    4298050e:	0000                	.insn	2, 0x0000
    42980510:	112a38cf          	fnmadd.s	f17,f20,f18,f2,rup
    42980514:	0000                	.insn	2, 0x0000
    42980516:	0000                	.insn	2, 0x0000
    42980518:	112a3ccf          	fnmadd.s	f25,f20,f18,f2,rup
    4298051c:	0000                	.insn	2, 0x0000
    4298051e:	0000                	.insn	2, 0x0000
    42980520:	112a40cf          	fnmadd.s	f1,f20,f18,f2,rmm
    42980524:	0000                	.insn	2, 0x0000
    42980526:	0000                	.insn	2, 0x0000
    42980528:	112a44cf          	fnmadd.s	f9,f20,f18,f2,rmm
    4298052c:	0000                	.insn	2, 0x0000
    4298052e:	0000                	.insn	2, 0x0000
    42980530:	112a48cf          	fnmadd.s	f17,f20,f18,f2,rmm
    42980534:	0000                	.insn	2, 0x0000
    42980536:	0000                	.insn	2, 0x0000
    42980538:	112a4ccf          	fnmadd.s	f25,f20,f18,f2,rmm
    4298053c:	0000                	.insn	2, 0x0000
    4298053e:	0000                	.insn	2, 0x0000
    42980540:	112a50cf          	fnmadd.s	f1,f20,f18,f2,unknown
    42980544:	0000                	.insn	2, 0x0000
    42980546:	0000                	.insn	2, 0x0000
    42980548:	112a54cf          	fnmadd.s	f9,f20,f18,f2,unknown
    4298054c:	0000                	.insn	2, 0x0000
    4298054e:	0000                	.insn	2, 0x0000
    42980550:	112a58cf          	fnmadd.s	f17,f20,f18,f2,unknown
    42980554:	0000                	.insn	2, 0x0000
    42980556:	0000                	.insn	2, 0x0000
    42980558:	112a5ccf          	fnmadd.s	f25,f20,f18,f2,unknown
    4298055c:	0000                	.insn	2, 0x0000
    4298055e:	0000                	.insn	2, 0x0000
    42980560:	112a60cf          	fnmadd.s	f1,f20,f18,f2,unknown
    42980564:	0000                	.insn	2, 0x0000
    42980566:	0000                	.insn	2, 0x0000
    42980568:	112a64cf          	fnmadd.s	f9,f20,f18,f2,unknown
    4298056c:	0000                	.insn	2, 0x0000
    4298056e:	0000                	.insn	2, 0x0000
    42980570:	112a68cf          	fnmadd.s	f17,f20,f18,f2,unknown
    42980574:	0000                	.insn	2, 0x0000
    42980576:	0000                	.insn	2, 0x0000
    42980578:	112a6ccf          	fnmadd.s	f25,f20,f18,f2,unknown
    4298057c:	0000                	.insn	2, 0x0000
    4298057e:	0000                	.insn	2, 0x0000
    42980580:	112a70cf          	fnmadd.s	f1,f20,f18,f2
    42980584:	0000                	.insn	2, 0x0000
    42980586:	0000                	.insn	2, 0x0000
    42980588:	112a74cf          	fnmadd.s	f9,f20,f18,f2
    4298058c:	0000                	.insn	2, 0x0000
    4298058e:	0000                	.insn	2, 0x0000
    42980590:	112a78cf          	fnmadd.s	f17,f20,f18,f2
    42980594:	0000                	.insn	2, 0x0000
    42980596:	0000                	.insn	2, 0x0000
    42980598:	112a7ccf          	fnmadd.s	f25,f20,f18,f2
    4298059c:	0000                	.insn	2, 0x0000
    4298059e:	0000                	.insn	2, 0x0000
    429805a0:	112a80cf          	fnmadd.s	f1,f21,f18,f2,rne
    429805a4:	0000                	.insn	2, 0x0000
    429805a6:	0000                	.insn	2, 0x0000
    429805a8:	112a84cf          	fnmadd.s	f9,f21,f18,f2,rne
    429805ac:	0000                	.insn	2, 0x0000
    429805ae:	0000                	.insn	2, 0x0000
    429805b0:	112a88cf          	fnmadd.s	f17,f21,f18,f2,rne
    429805b4:	0000                	.insn	2, 0x0000
    429805b6:	0000                	.insn	2, 0x0000
    429805b8:	112a8ccf          	fnmadd.s	f25,f21,f18,f2,rne
    429805bc:	0000                	.insn	2, 0x0000
    429805be:	0000                	.insn	2, 0x0000
    429805c0:	112a90cf          	fnmadd.s	f1,f21,f18,f2,rtz
    429805c4:	0000                	.insn	2, 0x0000
    429805c6:	0000                	.insn	2, 0x0000
    429805c8:	112a94cf          	fnmadd.s	f9,f21,f18,f2,rtz
    429805cc:	0000                	.insn	2, 0x0000
    429805ce:	0000                	.insn	2, 0x0000
    429805d0:	112a98cf          	fnmadd.s	f17,f21,f18,f2,rtz
    429805d4:	0000                	.insn	2, 0x0000
    429805d6:	0000                	.insn	2, 0x0000
    429805d8:	112a9ccf          	fnmadd.s	f25,f21,f18,f2,rtz
    429805dc:	0000                	.insn	2, 0x0000
    429805de:	0000                	.insn	2, 0x0000
    429805e0:	112aa0cf          	fnmadd.s	f1,f21,f18,f2,rdn
    429805e4:	0000                	.insn	2, 0x0000
    429805e6:	0000                	.insn	2, 0x0000
    429805e8:	112aa4cf          	fnmadd.s	f9,f21,f18,f2,rdn
    429805ec:	0000                	.insn	2, 0x0000
    429805ee:	0000                	.insn	2, 0x0000
    429805f0:	112aa8cf          	fnmadd.s	f17,f21,f18,f2,rdn
    429805f4:	0000                	.insn	2, 0x0000
    429805f6:	0000                	.insn	2, 0x0000
    429805f8:	112aaccf          	fnmadd.s	f25,f21,f18,f2,rdn
    429805fc:	0000                	.insn	2, 0x0000
    429805fe:	0000                	.insn	2, 0x0000
    42980600:	112ab0cf          	fnmadd.s	f1,f21,f18,f2,rup
    42980604:	0000                	.insn	2, 0x0000
    42980606:	0000                	.insn	2, 0x0000
    42980608:	112ab4cf          	fnmadd.s	f9,f21,f18,f2,rup
    4298060c:	0000                	.insn	2, 0x0000
    4298060e:	0000                	.insn	2, 0x0000
    42980610:	112ab8cf          	fnmadd.s	f17,f21,f18,f2,rup
    42980614:	0000                	.insn	2, 0x0000
    42980616:	0000                	.insn	2, 0x0000
    42980618:	112abccf          	fnmadd.s	f25,f21,f18,f2,rup
    4298061c:	0000                	.insn	2, 0x0000
    4298061e:	0000                	.insn	2, 0x0000
    42980620:	112ac0cf          	fnmadd.s	f1,f21,f18,f2,rmm
    42980624:	0000                	.insn	2, 0x0000
    42980626:	0000                	.insn	2, 0x0000
    42980628:	112ac4cf          	fnmadd.s	f9,f21,f18,f2,rmm
    4298062c:	0000                	.insn	2, 0x0000
    4298062e:	0000                	.insn	2, 0x0000
    42980630:	112ac8cf          	fnmadd.s	f17,f21,f18,f2,rmm
    42980634:	0000                	.insn	2, 0x0000
    42980636:	0000                	.insn	2, 0x0000
    42980638:	112acccf          	fnmadd.s	f25,f21,f18,f2,rmm
    4298063c:	0000                	.insn	2, 0x0000
    4298063e:	0000                	.insn	2, 0x0000
    42980640:	112ad0cf          	fnmadd.s	f1,f21,f18,f2,unknown
    42980644:	0000                	.insn	2, 0x0000
    42980646:	0000                	.insn	2, 0x0000
    42980648:	112ad4cf          	fnmadd.s	f9,f21,f18,f2,unknown
    4298064c:	0000                	.insn	2, 0x0000
    4298064e:	0000                	.insn	2, 0x0000
    42980650:	112ad8cf          	fnmadd.s	f17,f21,f18,f2,unknown
    42980654:	0000                	.insn	2, 0x0000
    42980656:	0000                	.insn	2, 0x0000
    42980658:	112adccf          	fnmadd.s	f25,f21,f18,f2,unknown
    4298065c:	0000                	.insn	2, 0x0000
    4298065e:	0000                	.insn	2, 0x0000
    42980660:	112ae0cf          	fnmadd.s	f1,f21,f18,f2,unknown
    42980664:	0000                	.insn	2, 0x0000
    42980666:	0000                	.insn	2, 0x0000
    42980668:	112ae4cf          	fnmadd.s	f9,f21,f18,f2,unknown
    4298066c:	0000                	.insn	2, 0x0000
    4298066e:	0000                	.insn	2, 0x0000
    42980670:	112ae8cf          	fnmadd.s	f17,f21,f18,f2,unknown
    42980674:	0000                	.insn	2, 0x0000
    42980676:	0000                	.insn	2, 0x0000
    42980678:	112aeccf          	fnmadd.s	f25,f21,f18,f2,unknown
    4298067c:	0000                	.insn	2, 0x0000
    4298067e:	0000                	.insn	2, 0x0000
    42980680:	112af0cf          	fnmadd.s	f1,f21,f18,f2
    42980684:	0000                	.insn	2, 0x0000
    42980686:	0000                	.insn	2, 0x0000
    42980688:	112af4cf          	fnmadd.s	f9,f21,f18,f2
    4298068c:	0000                	.insn	2, 0x0000
    4298068e:	0000                	.insn	2, 0x0000
    42980690:	112af8cf          	fnmadd.s	f17,f21,f18,f2
    42980694:	0000                	.insn	2, 0x0000
    42980696:	0000                	.insn	2, 0x0000
    42980698:	112afccf          	fnmadd.s	f25,f21,f18,f2
    4298069c:	0000                	.insn	2, 0x0000
    4298069e:	0000                	.insn	2, 0x0000
    429806a0:	112b00cf          	fnmadd.s	f1,f22,f18,f2,rne
    429806a4:	0000                	.insn	2, 0x0000
    429806a6:	0000                	.insn	2, 0x0000
    429806a8:	112b04cf          	fnmadd.s	f9,f22,f18,f2,rne
    429806ac:	0000                	.insn	2, 0x0000
    429806ae:	0000                	.insn	2, 0x0000
    429806b0:	112b08cf          	fnmadd.s	f17,f22,f18,f2,rne
    429806b4:	0000                	.insn	2, 0x0000
    429806b6:	0000                	.insn	2, 0x0000
    429806b8:	112b0ccf          	fnmadd.s	f25,f22,f18,f2,rne
    429806bc:	0000                	.insn	2, 0x0000
    429806be:	0000                	.insn	2, 0x0000
    429806c0:	112b10cf          	fnmadd.s	f1,f22,f18,f2,rtz
    429806c4:	0000                	.insn	2, 0x0000
    429806c6:	0000                	.insn	2, 0x0000
    429806c8:	112b14cf          	fnmadd.s	f9,f22,f18,f2,rtz
    429806cc:	0000                	.insn	2, 0x0000
    429806ce:	0000                	.insn	2, 0x0000
    429806d0:	112b18cf          	fnmadd.s	f17,f22,f18,f2,rtz
    429806d4:	0000                	.insn	2, 0x0000
    429806d6:	0000                	.insn	2, 0x0000
    429806d8:	112b1ccf          	fnmadd.s	f25,f22,f18,f2,rtz
    429806dc:	0000                	.insn	2, 0x0000
    429806de:	0000                	.insn	2, 0x0000
    429806e0:	112b20cf          	fnmadd.s	f1,f22,f18,f2,rdn
    429806e4:	0000                	.insn	2, 0x0000
    429806e6:	0000                	.insn	2, 0x0000
    429806e8:	112b24cf          	fnmadd.s	f9,f22,f18,f2,rdn
    429806ec:	0000                	.insn	2, 0x0000
    429806ee:	0000                	.insn	2, 0x0000
    429806f0:	112b28cf          	fnmadd.s	f17,f22,f18,f2,rdn
    429806f4:	0000                	.insn	2, 0x0000
    429806f6:	0000                	.insn	2, 0x0000
    429806f8:	112b2ccf          	fnmadd.s	f25,f22,f18,f2,rdn
    429806fc:	0000                	.insn	2, 0x0000
    429806fe:	0000                	.insn	2, 0x0000
    42980700:	112b30cf          	fnmadd.s	f1,f22,f18,f2,rup
    42980704:	0000                	.insn	2, 0x0000
    42980706:	0000                	.insn	2, 0x0000
    42980708:	112b34cf          	fnmadd.s	f9,f22,f18,f2,rup
    4298070c:	0000                	.insn	2, 0x0000
    4298070e:	0000                	.insn	2, 0x0000
    42980710:	112b38cf          	fnmadd.s	f17,f22,f18,f2,rup
    42980714:	0000                	.insn	2, 0x0000
    42980716:	0000                	.insn	2, 0x0000
    42980718:	112b3ccf          	fnmadd.s	f25,f22,f18,f2,rup
    4298071c:	0000                	.insn	2, 0x0000
    4298071e:	0000                	.insn	2, 0x0000
    42980720:	112b40cf          	fnmadd.s	f1,f22,f18,f2,rmm
    42980724:	0000                	.insn	2, 0x0000
    42980726:	0000                	.insn	2, 0x0000
    42980728:	112b44cf          	fnmadd.s	f9,f22,f18,f2,rmm
    4298072c:	0000                	.insn	2, 0x0000
    4298072e:	0000                	.insn	2, 0x0000
    42980730:	112b48cf          	fnmadd.s	f17,f22,f18,f2,rmm
    42980734:	0000                	.insn	2, 0x0000
    42980736:	0000                	.insn	2, 0x0000
    42980738:	112b4ccf          	fnmadd.s	f25,f22,f18,f2,rmm
    4298073c:	0000                	.insn	2, 0x0000
    4298073e:	0000                	.insn	2, 0x0000
    42980740:	112b50cf          	fnmadd.s	f1,f22,f18,f2,unknown
    42980744:	0000                	.insn	2, 0x0000
    42980746:	0000                	.insn	2, 0x0000
    42980748:	112b54cf          	fnmadd.s	f9,f22,f18,f2,unknown
    4298074c:	0000                	.insn	2, 0x0000
    4298074e:	0000                	.insn	2, 0x0000
    42980750:	112b58cf          	fnmadd.s	f17,f22,f18,f2,unknown
    42980754:	0000                	.insn	2, 0x0000
    42980756:	0000                	.insn	2, 0x0000
    42980758:	112b5ccf          	fnmadd.s	f25,f22,f18,f2,unknown
    4298075c:	0000                	.insn	2, 0x0000
    4298075e:	0000                	.insn	2, 0x0000
    42980760:	112b60cf          	fnmadd.s	f1,f22,f18,f2,unknown
    42980764:	0000                	.insn	2, 0x0000
    42980766:	0000                	.insn	2, 0x0000
    42980768:	112b64cf          	fnmadd.s	f9,f22,f18,f2,unknown
    4298076c:	0000                	.insn	2, 0x0000
    4298076e:	0000                	.insn	2, 0x0000
    42980770:	112b68cf          	fnmadd.s	f17,f22,f18,f2,unknown
    42980774:	0000                	.insn	2, 0x0000
    42980776:	0000                	.insn	2, 0x0000
    42980778:	112b6ccf          	fnmadd.s	f25,f22,f18,f2,unknown
    4298077c:	0000                	.insn	2, 0x0000
    4298077e:	0000                	.insn	2, 0x0000
    42980780:	112b70cf          	fnmadd.s	f1,f22,f18,f2
    42980784:	0000                	.insn	2, 0x0000
    42980786:	0000                	.insn	2, 0x0000
    42980788:	112b74cf          	fnmadd.s	f9,f22,f18,f2
    4298078c:	0000                	.insn	2, 0x0000
    4298078e:	0000                	.insn	2, 0x0000
    42980790:	112b78cf          	fnmadd.s	f17,f22,f18,f2
    42980794:	0000                	.insn	2, 0x0000
    42980796:	0000                	.insn	2, 0x0000
    42980798:	112b7ccf          	fnmadd.s	f25,f22,f18,f2
    4298079c:	0000                	.insn	2, 0x0000
    4298079e:	0000                	.insn	2, 0x0000
    429807a0:	112b80cf          	fnmadd.s	f1,f23,f18,f2,rne
    429807a4:	0000                	.insn	2, 0x0000
    429807a6:	0000                	.insn	2, 0x0000
    429807a8:	112b84cf          	fnmadd.s	f9,f23,f18,f2,rne
    429807ac:	0000                	.insn	2, 0x0000
    429807ae:	0000                	.insn	2, 0x0000
    429807b0:	112b88cf          	fnmadd.s	f17,f23,f18,f2,rne
    429807b4:	0000                	.insn	2, 0x0000
    429807b6:	0000                	.insn	2, 0x0000
    429807b8:	112b8ccf          	fnmadd.s	f25,f23,f18,f2,rne
    429807bc:	0000                	.insn	2, 0x0000
    429807be:	0000                	.insn	2, 0x0000
    429807c0:	112b90cf          	fnmadd.s	f1,f23,f18,f2,rtz
    429807c4:	0000                	.insn	2, 0x0000
    429807c6:	0000                	.insn	2, 0x0000
    429807c8:	112b94cf          	fnmadd.s	f9,f23,f18,f2,rtz
    429807cc:	0000                	.insn	2, 0x0000
    429807ce:	0000                	.insn	2, 0x0000
    429807d0:	112b98cf          	fnmadd.s	f17,f23,f18,f2,rtz
    429807d4:	0000                	.insn	2, 0x0000
    429807d6:	0000                	.insn	2, 0x0000
    429807d8:	112b9ccf          	fnmadd.s	f25,f23,f18,f2,rtz
    429807dc:	0000                	.insn	2, 0x0000
    429807de:	0000                	.insn	2, 0x0000
    429807e0:	112ba0cf          	fnmadd.s	f1,f23,f18,f2,rdn
    429807e4:	0000                	.insn	2, 0x0000
    429807e6:	0000                	.insn	2, 0x0000
    429807e8:	112ba4cf          	fnmadd.s	f9,f23,f18,f2,rdn
    429807ec:	0000                	.insn	2, 0x0000
    429807ee:	0000                	.insn	2, 0x0000
    429807f0:	112ba8cf          	fnmadd.s	f17,f23,f18,f2,rdn
    429807f4:	0000                	.insn	2, 0x0000
    429807f6:	0000                	.insn	2, 0x0000
    429807f8:	112baccf          	fnmadd.s	f25,f23,f18,f2,rdn
    429807fc:	0000                	.insn	2, 0x0000
    429807fe:	0000                	.insn	2, 0x0000
    42980800:	112bb0cf          	fnmadd.s	f1,f23,f18,f2,rup
    42980804:	0000                	.insn	2, 0x0000
    42980806:	0000                	.insn	2, 0x0000
    42980808:	112bb4cf          	fnmadd.s	f9,f23,f18,f2,rup
    4298080c:	0000                	.insn	2, 0x0000
    4298080e:	0000                	.insn	2, 0x0000
    42980810:	112bb8cf          	fnmadd.s	f17,f23,f18,f2,rup
    42980814:	0000                	.insn	2, 0x0000
    42980816:	0000                	.insn	2, 0x0000
    42980818:	112bbccf          	fnmadd.s	f25,f23,f18,f2,rup
    4298081c:	0000                	.insn	2, 0x0000
    4298081e:	0000                	.insn	2, 0x0000
    42980820:	112bc0cf          	fnmadd.s	f1,f23,f18,f2,rmm
    42980824:	0000                	.insn	2, 0x0000
    42980826:	0000                	.insn	2, 0x0000
    42980828:	112bc4cf          	fnmadd.s	f9,f23,f18,f2,rmm
    4298082c:	0000                	.insn	2, 0x0000
    4298082e:	0000                	.insn	2, 0x0000
    42980830:	112bc8cf          	fnmadd.s	f17,f23,f18,f2,rmm
    42980834:	0000                	.insn	2, 0x0000
    42980836:	0000                	.insn	2, 0x0000
    42980838:	112bcccf          	fnmadd.s	f25,f23,f18,f2,rmm
    4298083c:	0000                	.insn	2, 0x0000
    4298083e:	0000                	.insn	2, 0x0000
    42980840:	112bd0cf          	fnmadd.s	f1,f23,f18,f2,unknown
    42980844:	0000                	.insn	2, 0x0000
    42980846:	0000                	.insn	2, 0x0000
    42980848:	112bd4cf          	fnmadd.s	f9,f23,f18,f2,unknown
    4298084c:	0000                	.insn	2, 0x0000
    4298084e:	0000                	.insn	2, 0x0000
    42980850:	112bd8cf          	fnmadd.s	f17,f23,f18,f2,unknown
    42980854:	0000                	.insn	2, 0x0000
    42980856:	0000                	.insn	2, 0x0000
    42980858:	112bdccf          	fnmadd.s	f25,f23,f18,f2,unknown
    4298085c:	0000                	.insn	2, 0x0000
    4298085e:	0000                	.insn	2, 0x0000
    42980860:	112be0cf          	fnmadd.s	f1,f23,f18,f2,unknown
    42980864:	0000                	.insn	2, 0x0000
    42980866:	0000                	.insn	2, 0x0000
    42980868:	112be4cf          	fnmadd.s	f9,f23,f18,f2,unknown
    4298086c:	0000                	.insn	2, 0x0000
    4298086e:	0000                	.insn	2, 0x0000
    42980870:	112be8cf          	fnmadd.s	f17,f23,f18,f2,unknown
    42980874:	0000                	.insn	2, 0x0000
    42980876:	0000                	.insn	2, 0x0000
    42980878:	112beccf          	fnmadd.s	f25,f23,f18,f2,unknown
    4298087c:	0000                	.insn	2, 0x0000
    4298087e:	0000                	.insn	2, 0x0000
    42980880:	112bf0cf          	fnmadd.s	f1,f23,f18,f2
    42980884:	0000                	.insn	2, 0x0000
    42980886:	0000                	.insn	2, 0x0000
    42980888:	112bf4cf          	fnmadd.s	f9,f23,f18,f2
    4298088c:	0000                	.insn	2, 0x0000
    4298088e:	0000                	.insn	2, 0x0000
    42980890:	112bf8cf          	fnmadd.s	f17,f23,f18,f2
    42980894:	0000                	.insn	2, 0x0000
    42980896:	0000                	.insn	2, 0x0000
    42980898:	112bfccf          	fnmadd.s	f25,f23,f18,f2
    4298089c:	0000                	.insn	2, 0x0000
    4298089e:	0000                	.insn	2, 0x0000
    429808a0:	00df 112c 0000      	.insn	6, 0x112c00df
    429808a6:	0000                	.insn	2, 0x0000
    429808a8:	04df 112c 0000      	.insn	6, 0x112c04df
    429808ae:	0000                	.insn	2, 0x0000
    429808b0:	08df 112c 0000      	.insn	6, 0x112c08df
    429808b6:	0000                	.insn	2, 0x0000
    429808b8:	0cdf 112c 0000      	.insn	6, 0x112c0cdf
    429808be:	0000                	.insn	2, 0x0000
    429808c0:	10df 112c 0000      	.insn	6, 0x112c10df
    429808c6:	0000                	.insn	2, 0x0000
    429808c8:	14df 112c 0000      	.insn	6, 0x112c14df
    429808ce:	0000                	.insn	2, 0x0000
    429808d0:	18df 112c 0000      	.insn	6, 0x112c18df
    429808d6:	0000                	.insn	2, 0x0000
    429808d8:	1cdf 112c 0000      	.insn	6, 0x112c1cdf
    429808de:	0000                	.insn	2, 0x0000
    429808e0:	20df 112c 0000      	.insn	6, 0x112c20df
    429808e6:	0000                	.insn	2, 0x0000
    429808e8:	24df 112c 0000      	.insn	6, 0x112c24df
    429808ee:	0000                	.insn	2, 0x0000
    429808f0:	28df 112c 0000      	.insn	6, 0x112c28df
    429808f6:	0000                	.insn	2, 0x0000
    429808f8:	2cdf 112c 0000      	.insn	6, 0x112c2cdf
    429808fe:	0000                	.insn	2, 0x0000
    42980900:	30df 112c 0000      	.insn	6, 0x112c30df
    42980906:	0000                	.insn	2, 0x0000
    42980908:	34df 112c 0000      	.insn	6, 0x112c34df
    4298090e:	0000                	.insn	2, 0x0000
    42980910:	38df 112c 0000      	.insn	6, 0x112c38df
    42980916:	0000                	.insn	2, 0x0000
    42980918:	3cdf 112c 0000      	.insn	6, 0x112c3cdf
    4298091e:	0000                	.insn	2, 0x0000
    42980920:	40df 112c 0000      	.insn	6, 0x112c40df
    42980926:	0000                	.insn	2, 0x0000
    42980928:	44df 112c 0000      	.insn	6, 0x112c44df
    4298092e:	0000                	.insn	2, 0x0000
    42980930:	48df 112c 0000      	.insn	6, 0x112c48df
    42980936:	0000                	.insn	2, 0x0000
    42980938:	4cdf 112c 0000      	.insn	6, 0x112c4cdf
    4298093e:	0000                	.insn	2, 0x0000
    42980940:	50df 112c 0000      	.insn	6, 0x112c50df
    42980946:	0000                	.insn	2, 0x0000
    42980948:	54df 112c 0000      	.insn	6, 0x112c54df
    4298094e:	0000                	.insn	2, 0x0000
    42980950:	58df 112c 0000      	.insn	6, 0x112c58df
    42980956:	0000                	.insn	2, 0x0000
    42980958:	5cdf 112c 0000      	.insn	6, 0x112c5cdf
    4298095e:	0000                	.insn	2, 0x0000
    42980960:	60df 112c 0000      	.insn	6, 0x112c60df
    42980966:	0000                	.insn	2, 0x0000
    42980968:	64df 112c 0000      	.insn	6, 0x112c64df
    4298096e:	0000                	.insn	2, 0x0000
    42980970:	68df 112c 0000      	.insn	6, 0x112c68df
    42980976:	0000                	.insn	2, 0x0000
    42980978:	6cdf 112c 0000      	.insn	6, 0x112c6cdf
    4298097e:	0000                	.insn	2, 0x0000
    42980980:	70df 112c 0000      	.insn	6, 0x112c70df
    42980986:	0000                	.insn	2, 0x0000
    42980988:	74df 112c 0000      	.insn	6, 0x112c74df
    4298098e:	0000                	.insn	2, 0x0000
    42980990:	78df 112c 0000      	.insn	6, 0x112c78df
    42980996:	0000                	.insn	2, 0x0000
    42980998:	7cdf 112c 0000      	.insn	6, 0x112c7cdf
    4298099e:	0000                	.insn	2, 0x0000
    429809a0:	80df 112c 0000      	.insn	6, 0x112c80df
    429809a6:	0000                	.insn	2, 0x0000
    429809a8:	84df 112c 0000      	.insn	6, 0x112c84df
    429809ae:	0000                	.insn	2, 0x0000
    429809b0:	88df 112c 0000      	.insn	6, 0x112c88df
    429809b6:	0000                	.insn	2, 0x0000
    429809b8:	8cdf 112c 0000      	.insn	6, 0x112c8cdf
    429809be:	0000                	.insn	2, 0x0000
    429809c0:	90df 112c 0000      	.insn	6, 0x112c90df
    429809c6:	0000                	.insn	2, 0x0000
    429809c8:	94df 112c 0000      	.insn	6, 0x112c94df
    429809ce:	0000                	.insn	2, 0x0000
    429809d0:	98df 112c 0000      	.insn	6, 0x112c98df
    429809d6:	0000                	.insn	2, 0x0000
    429809d8:	9cdf 112c 0000      	.insn	6, 0x112c9cdf
    429809de:	0000                	.insn	2, 0x0000
    429809e0:	a0df 112c 0000      	.insn	6, 0x112ca0df
    429809e6:	0000                	.insn	2, 0x0000
    429809e8:	a4df 112c 0000      	.insn	6, 0x112ca4df
    429809ee:	0000                	.insn	2, 0x0000
    429809f0:	a8df 112c 0000      	.insn	6, 0x112ca8df
    429809f6:	0000                	.insn	2, 0x0000
    429809f8:	acdf 112c 0000      	.insn	6, 0x112cacdf
    429809fe:	0000                	.insn	2, 0x0000
    42980a00:	b0df 112c 0000      	.insn	6, 0x112cb0df
    42980a06:	0000                	.insn	2, 0x0000
    42980a08:	b4df 112c 0000      	.insn	6, 0x112cb4df
    42980a0e:	0000                	.insn	2, 0x0000
    42980a10:	b8df 112c 0000      	.insn	6, 0x112cb8df
    42980a16:	0000                	.insn	2, 0x0000
    42980a18:	bcdf 112c 0000      	.insn	6, 0x112cbcdf
    42980a1e:	0000                	.insn	2, 0x0000
    42980a20:	c0df 112c 0000      	.insn	6, 0x112cc0df
    42980a26:	0000                	.insn	2, 0x0000
    42980a28:	c4df 112c 0000      	.insn	6, 0x112cc4df
    42980a2e:	0000                	.insn	2, 0x0000
    42980a30:	c8df 112c 0000      	.insn	6, 0x112cc8df
    42980a36:	0000                	.insn	2, 0x0000
    42980a38:	ccdf 112c 0000      	.insn	6, 0x112cccdf
    42980a3e:	0000                	.insn	2, 0x0000
    42980a40:	d0df 112c 0000      	.insn	6, 0x112cd0df
    42980a46:	0000                	.insn	2, 0x0000
    42980a48:	d4df 112c 0000      	.insn	6, 0x112cd4df
    42980a4e:	0000                	.insn	2, 0x0000
    42980a50:	d8df 112c 0000      	.insn	6, 0x112cd8df
    42980a56:	0000                	.insn	2, 0x0000
    42980a58:	dcdf 112c 0000      	.insn	6, 0x112cdcdf
    42980a5e:	0000                	.insn	2, 0x0000
    42980a60:	e0df 112c 0000      	.insn	6, 0x112ce0df
    42980a66:	0000                	.insn	2, 0x0000
    42980a68:	e4df 112c 0000      	.insn	6, 0x112ce4df
    42980a6e:	0000                	.insn	2, 0x0000
    42980a70:	e8df 112c 0000      	.insn	6, 0x112ce8df
    42980a76:	0000                	.insn	2, 0x0000
    42980a78:	ecdf 112c 0000      	.insn	6, 0x112cecdf
    42980a7e:	0000                	.insn	2, 0x0000
    42980a80:	f0df 112c 0000      	.insn	6, 0x112cf0df
    42980a86:	0000                	.insn	2, 0x0000
    42980a88:	f4df 112c 0000      	.insn	6, 0x112cf4df
    42980a8e:	0000                	.insn	2, 0x0000
    42980a90:	f8df 112c 0000      	.insn	6, 0x112cf8df
    42980a96:	0000                	.insn	2, 0x0000
    42980a98:	fcdf 112c 0000      	.insn	6, 0x112cfcdf
    42980a9e:	0000                	.insn	2, 0x0000
    42980aa0:	00df 112d 0000      	.insn	6, 0x112d00df
    42980aa6:	0000                	.insn	2, 0x0000
    42980aa8:	04df 112d 0000      	.insn	6, 0x112d04df
    42980aae:	0000                	.insn	2, 0x0000
    42980ab0:	08df 112d 0000      	.insn	6, 0x112d08df
    42980ab6:	0000                	.insn	2, 0x0000
    42980ab8:	0cdf 112d 0000      	.insn	6, 0x112d0cdf
    42980abe:	0000                	.insn	2, 0x0000
    42980ac0:	10df 112d 0000      	.insn	6, 0x112d10df
    42980ac6:	0000                	.insn	2, 0x0000
    42980ac8:	14df 112d 0000      	.insn	6, 0x112d14df
    42980ace:	0000                	.insn	2, 0x0000
    42980ad0:	18df 112d 0000      	.insn	6, 0x112d18df
    42980ad6:	0000                	.insn	2, 0x0000
    42980ad8:	1cdf 112d 0000      	.insn	6, 0x112d1cdf
    42980ade:	0000                	.insn	2, 0x0000
    42980ae0:	20df 112d 0000      	.insn	6, 0x112d20df
    42980ae6:	0000                	.insn	2, 0x0000
    42980ae8:	24df 112d 0000      	.insn	6, 0x112d24df
    42980aee:	0000                	.insn	2, 0x0000
    42980af0:	28df 112d 0000      	.insn	6, 0x112d28df
    42980af6:	0000                	.insn	2, 0x0000
    42980af8:	2cdf 112d 0000      	.insn	6, 0x112d2cdf
    42980afe:	0000                	.insn	2, 0x0000
    42980b00:	30df 112d 0000      	.insn	6, 0x112d30df
    42980b06:	0000                	.insn	2, 0x0000
    42980b08:	34df 112d 0000      	.insn	6, 0x112d34df
    42980b0e:	0000                	.insn	2, 0x0000
    42980b10:	38df 112d 0000      	.insn	6, 0x112d38df
    42980b16:	0000                	.insn	2, 0x0000
    42980b18:	3cdf 112d 0000      	.insn	6, 0x112d3cdf
    42980b1e:	0000                	.insn	2, 0x0000
    42980b20:	40df 112d 0000      	.insn	6, 0x112d40df
    42980b26:	0000                	.insn	2, 0x0000
    42980b28:	44df 112d 0000      	.insn	6, 0x112d44df
    42980b2e:	0000                	.insn	2, 0x0000
    42980b30:	48df 112d 0000      	.insn	6, 0x112d48df
    42980b36:	0000                	.insn	2, 0x0000
    42980b38:	4cdf 112d 0000      	.insn	6, 0x112d4cdf
    42980b3e:	0000                	.insn	2, 0x0000
    42980b40:	50df 112d 0000      	.insn	6, 0x112d50df
    42980b46:	0000                	.insn	2, 0x0000
    42980b48:	54df 112d 0000      	.insn	6, 0x112d54df
    42980b4e:	0000                	.insn	2, 0x0000
    42980b50:	58df 112d 0000      	.insn	6, 0x112d58df
    42980b56:	0000                	.insn	2, 0x0000
    42980b58:	5cdf 112d 0000      	.insn	6, 0x112d5cdf
    42980b5e:	0000                	.insn	2, 0x0000
    42980b60:	60df 112d 0000      	.insn	6, 0x112d60df
    42980b66:	0000                	.insn	2, 0x0000
    42980b68:	64df 112d 0000      	.insn	6, 0x112d64df
    42980b6e:	0000                	.insn	2, 0x0000
    42980b70:	68df 112d 0000      	.insn	6, 0x112d68df
    42980b76:	0000                	.insn	2, 0x0000
    42980b78:	6cdf 112d 0000      	.insn	6, 0x112d6cdf
    42980b7e:	0000                	.insn	2, 0x0000
    42980b80:	70df 112d 0000      	.insn	6, 0x112d70df
    42980b86:	0000                	.insn	2, 0x0000
    42980b88:	74df 112d 0000      	.insn	6, 0x112d74df
    42980b8e:	0000                	.insn	2, 0x0000
    42980b90:	78df 112d 0000      	.insn	6, 0x112d78df
    42980b96:	0000                	.insn	2, 0x0000
    42980b98:	7cdf 112d 0000      	.insn	6, 0x112d7cdf
    42980b9e:	0000                	.insn	2, 0x0000
    42980ba0:	80df 112d 0000      	.insn	6, 0x112d80df
    42980ba6:	0000                	.insn	2, 0x0000
    42980ba8:	84df 112d 0000      	.insn	6, 0x112d84df
    42980bae:	0000                	.insn	2, 0x0000
    42980bb0:	88df 112d 0000      	.insn	6, 0x112d88df
    42980bb6:	0000                	.insn	2, 0x0000
    42980bb8:	8cdf 112d 0000      	.insn	6, 0x112d8cdf
    42980bbe:	0000                	.insn	2, 0x0000
    42980bc0:	90df 112d 0000      	.insn	6, 0x112d90df
    42980bc6:	0000                	.insn	2, 0x0000
    42980bc8:	94df 112d 0000      	.insn	6, 0x112d94df
    42980bce:	0000                	.insn	2, 0x0000
    42980bd0:	98df 112d 0000      	.insn	6, 0x112d98df
    42980bd6:	0000                	.insn	2, 0x0000
    42980bd8:	9cdf 112d 0000      	.insn	6, 0x112d9cdf
    42980bde:	0000                	.insn	2, 0x0000
    42980be0:	a0df 112d 0000      	.insn	6, 0x112da0df
    42980be6:	0000                	.insn	2, 0x0000
    42980be8:	a4df 112d 0000      	.insn	6, 0x112da4df
    42980bee:	0000                	.insn	2, 0x0000
    42980bf0:	a8df 112d 0000      	.insn	6, 0x112da8df
    42980bf6:	0000                	.insn	2, 0x0000
    42980bf8:	acdf 112d 0000      	.insn	6, 0x112dacdf
    42980bfe:	0000                	.insn	2, 0x0000
    42980c00:	b0df 112d 0000      	.insn	6, 0x112db0df
    42980c06:	0000                	.insn	2, 0x0000
    42980c08:	b4df 112d 0000      	.insn	6, 0x112db4df
    42980c0e:	0000                	.insn	2, 0x0000
    42980c10:	b8df 112d 0000      	.insn	6, 0x112db8df
    42980c16:	0000                	.insn	2, 0x0000
    42980c18:	bcdf 112d 0000      	.insn	6, 0x112dbcdf
    42980c1e:	0000                	.insn	2, 0x0000
    42980c20:	c0df 112d 0000      	.insn	6, 0x112dc0df
    42980c26:	0000                	.insn	2, 0x0000
    42980c28:	c4df 112d 0000      	.insn	6, 0x112dc4df
    42980c2e:	0000                	.insn	2, 0x0000
    42980c30:	c8df 112d 0000      	.insn	6, 0x112dc8df
    42980c36:	0000                	.insn	2, 0x0000
    42980c38:	ccdf 112d 0000      	.insn	6, 0x112dccdf
    42980c3e:	0000                	.insn	2, 0x0000
    42980c40:	d0df 112d 0000      	.insn	6, 0x112dd0df
    42980c46:	0000                	.insn	2, 0x0000
    42980c48:	d4df 112d 0000      	.insn	6, 0x112dd4df
    42980c4e:	0000                	.insn	2, 0x0000
    42980c50:	d8df 112d 0000      	.insn	6, 0x112dd8df
    42980c56:	0000                	.insn	2, 0x0000
    42980c58:	dcdf 112d 0000      	.insn	6, 0x112ddcdf
    42980c5e:	0000                	.insn	2, 0x0000
    42980c60:	e0df 112d 0000      	.insn	6, 0x112de0df
    42980c66:	0000                	.insn	2, 0x0000
    42980c68:	e4df 112d 0000      	.insn	6, 0x112de4df
    42980c6e:	0000                	.insn	2, 0x0000
    42980c70:	e8df 112d 0000      	.insn	6, 0x112de8df
    42980c76:	0000                	.insn	2, 0x0000
    42980c78:	ecdf 112d 0000      	.insn	6, 0x112decdf
    42980c7e:	0000                	.insn	2, 0x0000
    42980c80:	f0df 112d 0000      	.insn	6, 0x112df0df
    42980c86:	0000                	.insn	2, 0x0000
    42980c88:	f4df 112d 0000      	.insn	6, 0x112df4df
    42980c8e:	0000                	.insn	2, 0x0000
    42980c90:	f8df 112d 0000      	.insn	6, 0x112df8df
    42980c96:	0000                	.insn	2, 0x0000
    42980c98:	fcdf 112d 0000      	.insn	6, 0x112dfcdf
	...

Disassembly of section .__pagetable_map_os_0x0000000044ead000:

0000000044ead000 <__pagetable_map_os_0x0000000044ead000>:
	...
    44ead0a8:	113004cf          	fnmadd.s	f9,f0,f19,f2,rne
	...
    44ead460:	104a30cf          	fnmadd.s	f1,f20,f4,f2,rup
    44ead464:	0000                	.insn	2, 0x0000
	...

Disassembly of section .__pagetable_map_os_0x000000004124e000:

000000004124e000 <__pagetable_map_os_0x000000004124e000>:
	...
    4124e0e8:	113b14cf          	fnmadd.s	f9,f22,f19,f2,rtz
    4124e0ec:	0000                	.insn	2, 0x0000
	...

Disassembly of section .__pagetable_map_os_0x0000000042f33000:

0000000042f33000 <__pagetable_map_os_0x0000000042f33000>:
	...
    42f339e8:	10a524c7          	fmsub.s	f9,f10,f10,f2,rdn
    42f339ec:	0000                	.insn	2, 0x0000
	...

Disassembly of section .__pagetable_map_os_0x0000000044ebb000:

0000000044ebb000 <__pagetable_map_os_0x0000000044ebb000>:
	...
    44ebbb10:	10a5acc7          	fmsub.s	f25,f11,f10,f2,rdn
    44ebbb14:	0000                	.insn	2, 0x0000
	...

Disassembly of section .__pagetable_map_os_0x0000000044cf4000:

0000000044cf4000 <__pagetable_map_os_0x0000000044cf4000>:
	...
    44cf4988:	ec01                	.insn	2, 0xec01
    44cf498a:	1048                	.insn	2, 0x1048
    44cf498c:	0000                	.insn	2, 0x0000
	...

Disassembly of section .__pagetable_map_os_0x000000004123b000:

000000004123b000 <__pagetable_map_os_0x000000004123b000>:
	...
    4123b5d0:	113008cf          	fnmadd.s	f17,f0,f19,f2,rne
    4123b5d4:	0000                	.insn	2, 0x0000
    4123b5d6:	0000                	.insn	2, 0x0000
    4123b5d8:	11300ccf          	fnmadd.s	f25,f0,f19,f2,rne
    4123b5dc:	0000                	.insn	2, 0x0000
	...

Disassembly of section .__pagetable_map_os_0x0000000042945000:

0000000042945000 <__pagetable_map_os_0x0000000042945000>:
    42945000:	6401                	.insn	2, 0x6401
    42945002:	10b2                	.insn	2, 0x10b2
	...
    42945028:	9801                	.insn	2, 0x9801
    4294502a:	10a5                	.insn	2, 0x10a5
	...
    42945038:	4801                	.insn	2, 0x4801
    4294503a:	10a5                	.insn	2, 0x10a5
	...
    429450c8:	4801                	.insn	2, 0x4801
    429450ca:	10b1                	.insn	2, 0x10b1
	...
    429454e8:	3801                	.insn	2, 0x3801
    429454ea:	10b5                	.insn	2, 0x10b5
	...
    42945580:	2c01                	.insn	2, 0x2c01
    42945582:	0000113b          	sllw	x2,x0,x0
	...
    42945846:	0000                	.insn	2, 0x0000
    42945848:	fc01                	.insn	2, 0xfc01
    4294584a:	10a5                	.insn	2, 0x10a5
    4294584c:	0000                	.insn	2, 0x0000
	...

Disassembly of section .__pagetable_map_os_0x0000000042c99000:

0000000042c99000 <__pagetable_map_os_0x0000000042c99000>:
	...
    42c99010:	104918c7          	fmsub.s	f17,f18,f4,f2,rtz
	...
    42c99028:	10e2eccf          	fnmadd.s	f25,f5,f14,f2,unknown
	...
    42c99050:	10a4e0cf          	fnmadd.s	f1,f9,f10,f2,unknown
    42c99054:	0000                	.insn	2, 0x0000
    42c99056:	0000                	.insn	2, 0x0000
    42c99058:	104944cf          	fnmadd.s	f9,f18,f4,f2,rmm
	...
    42c99088:	11368cc7          	fmsub.s	f25,f13,f19,f2,rne
	...
    42c991c0:	50c2                	.insn	2, 0x50c2
    42c991c2:	1132                	.insn	2, 0x1132
	...
    42c992b8:	10b41cc7          	fmsub.s	f25,f8,f11,f2,rtz
	...
    42c99330:	113ba0cf          	fnmadd.s	f1,f23,f19,f2,rdn
    42c99334:	0000                	.insn	2, 0x0000
    42c99336:	0000                	.insn	2, 0x0000
    42c99338:	113ba4cf          	fnmadd.s	f9,f23,f19,f2,rdn
    42c9933c:	0000                	.insn	2, 0x0000
    42c9933e:	0000                	.insn	2, 0x0000
    42c99340:	10a608c7          	fmsub.s	f17,f12,f10,f2,rne
	...
    42c99840:	1049bcc7          	fmsub.s	f25,f19,f4,f2,rup
    42c99844:	0000                	.insn	2, 0x0000
	...

Disassembly of section .__pagetable_map_os_0x0000000044ecb000:

0000000044ecb000 <__pagetable_map_os_0x0000000044ecb000>:
	...
    44ecbdc0:	10f590cf          	fnmadd.s	f1,f11,f15,f2,rtz
    44ecbdc4:	0000                	.insn	2, 0x0000
	...

Disassembly of section .__pagetable_map_os_0x000000004297f000:

000000004297f000 <__pagetable_map_os_0x000000004297f000>:
	...
    4297faf0:	10a610cf          	fnmadd.s	f1,f12,f10,f2,rtz
    4297faf4:	0000                	.insn	2, 0x0000
	...

Disassembly of section .__pagetable_map_os_0x0000000042952000:

0000000042952000 <__pagetable_map_os_0x0000000042952000>:
	...
    42952fa8:	10b690cf          	fnmadd.s	f1,f13,f11,f2,rtz
    42952fac:	0000                	.insn	2, 0x0000
	...

Disassembly of section .__pagetable_map_os_0x0000000042c52000:

0000000042c52000 <__pagetable_map_os_0x0000000042c52000>:
	...
    42c523d8:	10a5f8cf          	fnmadd.s	f17,f11,f10,f2
    42c523dc:	0000                	.insn	2, 0x0000
	...

Disassembly of section .__pagetable_map_os_0x0000000042966000:

0000000042966000 <__pagetable_map_os_0x0000000042966000>:
	...
    42966860:	113940c7          	fmsub.s	f1,f18,f19,f2,rmm
    42966864:	0000                	.insn	2, 0x0000
	...

Disassembly of section .__pagetable_map_os_0x0000000042d4e000:

0000000042d4e000 <__pagetable_map_os_0x0000000042d4e000>:
	...
    42d4edf8:	10c540c7          	fmsub.s	f1,f10,f12,f2,rmm
    42d4edfc:	0000                	.insn	2, 0x0000
	...

Disassembly of section .__pagetable_map_os_0x0000000044c89000:

0000000044c89000 <__pagetable_map_os_0x0000000044c89000>:
	...
    44c89e38:	4401                	.insn	2, 0x4401
    44c89e3a:	1132                	.insn	2, 0x1132
    44c89e3c:	0000                	.insn	2, 0x0000
	...

Disassembly of section .__pagetable_map_os_0x0000000044c91000:

0000000044c91000 <__pagetable_map_os_0x0000000044c91000>:
	...
    44c913f8:	113b9ccf          	fnmadd.s	f25,f23,f19,f2,rtz
    44c913fc:	0000                	.insn	2, 0x0000
	...

Disassembly of section .__pagetable_map_os_0x0000000042c65000:

0000000042c65000 <__pagetable_map_os_0x0000000042c65000>:
	...
    42c65168:	3001                	.insn	2, 0x3001
    42c6516a:	10b1                	.insn	2, 0x10b1
    42c6516c:	0000                	.insn	2, 0x0000
	...

Disassembly of section .__pagetable_map_os_0x0000000042c4c000:

0000000042c4c000 <__pagetable_map_os_0x0000000042c4c000>:
	...
    42c4ca08:	104994cf          	fnmadd.s	f9,f19,f4,f2,rtz
	...
    42c4ca18:	104948cf          	fnmadd.s	f17,f18,f4,f2,rmm
    42c4ca1c:	0000                	.insn	2, 0x0000
	...

Disassembly of section .__pagetable_map_os_0x0000000041245000:

0000000041245000 <__pagetable_map_os_0x0000000041245000>:
	...
    41245718:	4001                	.insn	2, 0x4001
    4124571a:	1132                	.insn	2, 0x1132
    4124571c:	0000                	.insn	2, 0x0000
	...

Disassembly of section .__pagetable_map_os_0x0000000044c90000:

0000000044c90000 <__pagetable_map_os_0x0000000044c90000>:
	...
    44c90020:	1127fccf          	fnmadd.s	f25,f15,f18,f2
    44c90024:	0000                	.insn	2, 0x0000
	...

Disassembly of section .__pagetable_map_os_0x0000000044dbd000:

0000000044dbd000 <__pagetable_map_os_0x0000000044dbd000>:
	...
    44dbd720:	6001                	.insn	2, 0x6001
    44dbd722:	10b1                	.insn	2, 0x10b1
    44dbd724:	0000                	.insn	2, 0x0000
	...

Disassembly of section .__pagetable_map_os_0x0000000042c58000:

0000000042c58000 <__pagetable_map_os_0x0000000042c58000>:
	...
    42c58338:	1127f8cf          	fnmadd.s	f17,f15,f18,f2
    42c5833c:	0000                	.insn	2, 0x0000
	...

Disassembly of section .__pagetable_map_os_0x0000000044c92000:

0000000044c92000 <__pagetable_map_os_0x0000000044c92000>:
	...
    44c92e98:	ac01                	.insn	2, 0xac01
    44c92e9a:	1049                	.insn	2, 0x1049
    44c92e9c:	0000                	.insn	2, 0x0000
	...

Disassembly of section .__pagetable_map_os_0x000000004126b000:

000000004126b000 <__pagetable_map_os_0x000000004126b000>:
	...
    4126bfa0:	10b118cf          	fnmadd.s	f17,f2,f11,f2,rtz
    4126bfa4:	0000                	.insn	2, 0x0000
	...

Disassembly of section .__pagetable_map_os_0x0000000042d3a000:

0000000042d3a000 <__pagetable_map_os_0x0000000042d3a000>:
	...
    42d3ab40:	e801                	.insn	2, 0xe801
    42d3ab42:	1049                	.insn	2, 0x1049
    42d3ab44:	0000                	.insn	2, 0x0000
	...

Disassembly of section .__pagetable_map_os_0x000000004127a000:

000000004127a000 <__pagetable_map_os_0x000000004127a000>:
	...
    4127ac00:	10bb5ccf          	fnmadd.s	f25,f22,f11,f2,unknown
    4127ac04:	0000                	.insn	2, 0x0000
	...

Disassembly of section .__pagetable_map_os_0x0000000042957000:

0000000042957000 <__pagetable_map_os_0x0000000042957000>:
	...
    42957330:	e401                	.insn	2, 0xe401
    42957332:	10a5                	.insn	2, 0x10a5
    42957334:	0000                	.insn	2, 0x0000
	...

Disassembly of section .__pagetable_map_os_0x0000000042979000:

0000000042979000 <__pagetable_map_os_0x0000000042979000>:
	...
    429792e8:	113764cf          	fnmadd.s	f9,f14,f19,f2,unknown
    429792ec:	0000                	.insn	2, 0x0000
	...

Disassembly of section .__pagetable_map_os_0x0000000044fb3000:

0000000044fb3000 <__pagetable_map_os_0x0000000044fb3000>:
	...
    44fb35f8:	8401                	.insn	2, 0x8401
    44fb35fa:	1048                	.insn	2, 0x1048
    44fb35fc:	0000                	.insn	2, 0x0000
	...

Disassembly of section .__pagetable_map_os_0x0000000041221000:

0000000041221000 <__pagetable_map_os_0x0000000041221000>:
	...
    412219c8:	113944cf          	fnmadd.s	f9,f18,f19,f2,rmm
    412219cc:	0000                	.insn	2, 0x0000
	...

Disassembly of section .__pagetable_map_os_0x0000000042951000:

0000000042951000 <__pagetable_map_os_0x0000000042951000>:
	...
    429515a8:	a801                	.insn	2, 0xa801
    429515aa:	10a5                	.insn	2, 0x10a5
    429515ac:	0000                	.insn	2, 0x0000
	...

Disassembly of section .__pagetable_map_os_0x000000004296a000:

000000004296a000 <__pagetable_map_os_0x000000004296a000>:
	...
    4296ac98:	10b4fcc7          	fmsub.s	f25,f9,f11,f2
    4296ac9c:	0000                	.insn	2, 0x0000
	...

Disassembly of section .__pagetable_map_os_0x0000000044edc000:

0000000044edc000 <__pagetable_map_os_0x0000000044edc000>:
	...
    44edc198:	4c01                	.insn	2, 0x4c01
    44edc19a:	00001133          	sll	x2,x0,x0
	...

Disassembly of section .__pagetable_map_os_0x0000000044cd3000:

0000000044cd3000 <__pagetable_map_os_0x0000000044cd3000>:
	...
    44cd36f8:	10488cc7          	fmsub.s	f25,f17,f4,f2,rne
    44cd36fc:	0000                	.insn	2, 0x0000
	...

Disassembly of section .__pagetable_map_os_0x000000004297a000:

000000004297a000 <__pagetable_map_os_0x000000004297a000>:
	...
    4297a488:	0401                	.insn	2, 0x0401
    4297a48a:	1136                	.insn	2, 0x1136
    4297a48c:	0000                	.insn	2, 0x0000
	...

Disassembly of section .__pagetable_map_os_0x0000000044d81000:

0000000044d81000 <__pagetable_map_os_0x0000000044d81000>:
	...
    44d818b0:	1048c4c7          	fmsub.s	f9,f17,f4,f2,rmm
    44d818b4:	0000                	.insn	2, 0x0000
	...

Disassembly of section .__pagetable_map_os_0x0000000044ecf000:

0000000044ecf000 <__pagetable_map_os_0x0000000044ecf000>:
	...
    44ecfbe8:	3801                	.insn	2, 0x3801
    44ecfbea:	00001137          	lui	x2,0x1
	...

Disassembly of section .__pagetable_map_os_0x0000000044dce000:

0000000044dce000 <__pagetable_map_os_0x0000000044dce000>:
	...
    44dceeb0:	104950c7          	fmsub.s	f1,f18,f4,f2,unknown
    44dceeb4:	0000                	.insn	2, 0x0000
	...

Disassembly of section .__pagetable_map_os_0x0000000042c5b000:

0000000042c5b000 <__pagetable_map_os_0x0000000042c5b000>:
	...
    42c5b590:	1c01                	.insn	2, 0x1c01
    42c5b592:	10a5                	.insn	2, 0x10a5
	...
    42c5b6e0:	3401                	.insn	2, 0x3401
    42c5b6e2:	00001133          	sll	x2,x0,x0
	...

Disassembly of section .__pagetable_map_os_0x0000000042947000:

0000000042947000 <__pagetable_map_os_0x0000000042947000>:
	...
    429476e8:	1137b8c7          	fmsub.s	f17,f15,f19,f2,rup
    429476ec:	0000                	.insn	2, 0x0000
	...

Disassembly of section .__pagetable_map_os_0x0000000044ccd000:

0000000044ccd000 <__pagetable_map_os_0x0000000044ccd000>:
	...
    44ccd7e8:	10b574c7          	fmsub.s	f9,f10,f11,f2
    44ccd7ec:	0000                	.insn	2, 0x0000
	...
