
/home/abdullah/RiescueC/riescue/10x_R/svnapot/testsuite/svnapot/super_sv39/tp_svnapot_1:     file format elf64-littleriscv


Disassembly of section .runtime:

0000000041000000 <_start>:
    41000000:	00000093          	li	x1,0
    41000004:	00000113          	li	x2,0
    41000008:	00000193          	li	x3,0
    4100000c:	00000213          	li	x4,0
    41000010:	00000293          	li	x5,0
    41000014:	00000313          	li	x6,0
    41000018:	00000393          	li	x7,0
    4100001c:	00000413          	li	x8,0
    41000020:	00000493          	li	x9,0
    41000024:	00000513          	li	x10,0
    41000028:	00000593          	li	x11,0
    4100002c:	00000613          	li	x12,0
    41000030:	00000693          	li	x13,0
    41000034:	00000713          	li	x14,0
    41000038:	00000793          	li	x15,0
    4100003c:	00000813          	li	x16,0
    41000040:	00000893          	li	x17,0
    41000044:	00000913          	li	x18,0
    41000048:	00000993          	li	x19,0
    4100004c:	00000a13          	li	x20,0
    41000050:	00000a93          	li	x21,0
    41000054:	00000b13          	li	x22,0
    41000058:	00000b93          	li	x23,0
    4100005c:	00000c13          	li	x24,0
    41000060:	00000c93          	li	x25,0
    41000064:	00000d13          	li	x26,0
    41000068:	00000d93          	li	x27,0
    4100006c:	00000e13          	li	x28,0
    41000070:	00000e93          	li	x29,0
    41000074:	00000f13          	li	x30,0
    41000078:	00000f93          	li	x31,0

000000004100007c <loader__load_panic_address>:
    4100007c:	00001297          	auipc	x5,0x1
    41000080:	9b828293          	addi	x5,x5,-1608 # 41000a34 <eot__failed>
    41000084:	30529073          	csrw	mtvec,x5

0000000041000088 <loader__initialize_runtime>:
    41000088:	00000293          	li	x5,0
    4100008c:	3012a2f3          	csrrs	x5,misa,x5

0000000041000090 <loader__set_mstatus>:
    41000090:	000402b7          	lui	x5,0x40
    41000094:	00a2829b          	addiw	x5,x5,10 # 4000a <mem6__pt_level1+0xa>
    41000098:	3002a2f3          	csrrs	x5,mstatus,x5
    4100009c:	43260237          	lui	x4,0x43260
    410000a0:	34021073          	csrw	mscratch,x4

00000000410000a4 <loader__setup_menvcfg>:
    410000a4:	00000297          	auipc	x5,0x0
    410000a8:	47c28293          	addi	x5,x5,1148 # 41000520 <trap_handler_m__trap_entry>
    410000ac:	30529073          	csrw	mtvec,x5

00000000410000b0 <loader__enable_paging>:
    410000b0:	fff800b7          	lui	x1,0xfff80
    410000b4:	0930809b          	addiw	x1,x1,147 # fffffffffff80093 <mem6+0x27ff80093>
    410000b8:	02009093          	slli	x1,x1,0x20
    410000bc:	04308093          	addi	x1,x1,67
    410000c0:	00c09093          	slli	x1,x1,0xc
    410000c4:	5d208093          	addi	x1,x1,1490
    410000c8:	18009073          	csrw	satp,x1

00000000410000cc <loader__done>:
    410000cc:	1910006f          	j	41000a5c <scheduler__init>

00000000410000d0 <loader__panic>:
    410000d0:	1650006f          	j	41000a34 <eot__failed>

00000000410000d4 <syscalls__syscall_check_schedule_next_test>:
    410000d4:	00f0029b          	addiw	x5,x0,15
    410000d8:	01c29293          	slli	x5,x5,0x1c
    410000dc:	00128293          	addi	x5,x5,1
    410000e0:	01f29a63          	bne	x5,x31,410000f4 <syscalls__syscall_check_fail_test>
    410000e4:	00000317          	auipc	x6,0x0
    410000e8:	43c30313          	addi	x6,x6,1084 # 41000520 <trap_handler_m__trap_entry>
    410000ec:	30531073          	csrw	mtvec,x6
    410000f0:	6740006f          	j	41000764 <enter_scheduler>

00000000410000f4 <syscalls__syscall_check_fail_test>:
    410000f4:	00f0029b          	addiw	x5,x0,15
    410000f8:	01c29293          	slli	x5,x5,0x1c
    410000fc:	00228293          	addi	x5,x5,2
    41000100:	01f29a63          	bne	x5,x31,41000114 <syscalls__syscall_check_end_test_without_failure>
    41000104:	00000317          	auipc	x6,0x0
    41000108:	41c30313          	addi	x6,x6,1052 # 41000520 <trap_handler_m__trap_entry>
    4100010c:	30531073          	csrw	mtvec,x6
    41000110:	6840006f          	j	41000794 <test_failed>

0000000041000114 <syscalls__syscall_check_end_test_without_failure>:
    41000114:	00f0029b          	addiw	x5,x0,15
    41000118:	01c29293          	slli	x5,x5,0x1c
    4100011c:	00328293          	addi	x5,x5,3
    41000120:	01f29a63          	bne	x5,x31,41000134 <syscalls__syscall_check_switch_machine_mode>
    41000124:	00000317          	auipc	x6,0x0
    41000128:	3fc30313          	addi	x6,x6,1020 # 41000520 <trap_handler_m__trap_entry>
    4100012c:	30531073          	csrw	mtvec,x6
    41000130:	6700006f          	j	410007a0 <os_end_test>

0000000041000134 <syscalls__syscall_check_switch_machine_mode>:
    41000134:	000f02b7          	lui	x5,0xf0
    41000138:	0012829b          	addiw	x5,x5,1 # f0001 <mem3__pt_level2+0x27fe1>
    4100013c:	00c29293          	slli	x5,x5,0xc
    41000140:	00128293          	addi	x5,x5,1
    41000144:	0a5f8463          	beq	x31,x5,410001ec <syscalls__os_fn_f0001001>

0000000041000148 <syscalls__syscall_check_switch_super_mode>:
    41000148:	000f02b7          	lui	x5,0xf0
    4100014c:	0012829b          	addiw	x5,x5,1 # f0001 <mem3__pt_level2+0x27fe1>
    41000150:	00c29293          	slli	x5,x5,0xc
    41000154:	00228293          	addi	x5,x5,2
    41000158:	0c5f8063          	beq	x31,x5,41000218 <syscalls__os_fn_f0001002>

000000004100015c <syscalls__syscall_check_switch_user_mode>:
    4100015c:	000f02b7          	lui	x5,0xf0
    41000160:	0012829b          	addiw	x5,x5,1 # f0001 <mem3__pt_level2+0x27fe1>
    41000164:	00c29293          	slli	x5,x5,0xc
    41000168:	00328293          	addi	x5,x5,3
    4100016c:	0a5f8a63          	beq	x31,x5,41000220 <syscalls__os_fn_f0001003>

0000000041000170 <syscalls__syscall_check_switch_test_mode>:
    41000170:	000f02b7          	lui	x5,0xf0
    41000174:	0012829b          	addiw	x5,x5,1 # f0001 <mem3__pt_level2+0x27fe1>
    41000178:	00c29293          	slli	x5,x5,0xc
    4100017c:	00428293          	addi	x5,x5,4
    41000180:	0c5f8463          	beq	x31,x5,41000248 <syscalls__os_fn_f0001004>

0000000041000184 <syscalls__syscall_machine_csr_rw>:
    41000184:	000f02b7          	lui	x5,0xf0
    41000188:	0012829b          	addiw	x5,x5,1 # f0001 <mem3__pt_level2+0x27fe1>
    4100018c:	00c29293          	slli	x5,x5,0xc
    41000190:	00528293          	addi	x5,x5,5
    41000194:	0e5f8063          	beq	x31,x5,41000274 <syscalls__os_fn_f0001005>

0000000041000198 <syscalls__syscall_supervisor_csr_rw>:
    41000198:	000f02b7          	lui	x5,0xf0
    4100019c:	0012829b          	addiw	x5,x5,1 # f0001 <mem3__pt_level2+0x27fe1>
    410001a0:	00c29293          	slli	x5,x5,0xc
    410001a4:	00628293          	addi	x5,x5,6
    410001a8:	0e5f8c63          	beq	x31,x5,410002a0 <syscalls__os_fn_f0001006>

00000000410001ac <syscalls__syscall_machine_pte_read>:
    410001ac:	000f02b7          	lui	x5,0xf0
    410001b0:	0012829b          	addiw	x5,x5,1 # f0001 <mem3__pt_level2+0x27fe1>
    410001b4:	00c29293          	slli	x5,x5,0xc
    410001b8:	00728293          	addi	x5,x5,7
    410001bc:	0e5f8663          	beq	x31,x5,410002a8 <syscalls__os_fn_f0001007>

00000000410001c0 <syscalls__syscall_machine_pte_write>:
    410001c0:	000f02b7          	lui	x5,0xf0
    410001c4:	0012829b          	addiw	x5,x5,1 # f0001 <mem3__pt_level2+0x27fe1>
    410001c8:	00c29293          	slli	x5,x5,0xc
    410001cc:	00828293          	addi	x5,x5,8
    410001d0:	1c5f8263          	beq	x31,x5,41000394 <syscalls__os_fn_f0001008>

00000000410001d4 <syscalls__syscall_check_get_hart_context>:
    410001d4:	000782b7          	lui	x5,0x78
    410001d8:	0012829b          	addiw	x5,x5,1 # 78001 <__section_os_data_1+0x1f001>
    410001dc:	00d29293          	slli	x5,x5,0xd
    410001e0:	00128293          	addi	x5,x5,1
    410001e4:	285f8e63          	beq	x31,x5,41000480 <syscalls__os_get_hart_context>
    410001e8:	4940006f          	j	4100067c <trap_handler_m__check_exception_label>

00000000410001ec <syscalls__os_fn_f0001001>:
    410001ec:	000022b7          	lui	x5,0x2
    410001f0:	8002829b          	addiw	x5,x5,-2048 # 1800 <mem0__pt_level0+0x800>
    410001f4:	3002b073          	csrc	mstatus,x5
    410001f8:	000022b7          	lui	x5,0x2
    410001fc:	8002829b          	addiw	x5,x5,-2048 # 1800 <mem0__pt_level0+0x800>
    41000200:	3002a073          	csrs	mstatus,x5
    41000204:	0010029b          	addiw	x5,x0,1
    41000208:	02729293          	slli	x5,x5,0x27
    4100020c:	3002b073          	csrc	mstatus,x5
    41000210:	411942b7          	lui	x5,0x41194
    41000214:	27c0006f          	j	41000490 <syscalls__ret_from_os_fn>

0000000041000218 <syscalls__os_fn_f0001002>:
    41000218:	410942b7          	lui	x5,0x41094
    4100021c:	2740006f          	j	41000490 <syscalls__ret_from_os_fn>

0000000041000220 <syscalls__os_fn_f0001003>:
    41000220:	000022b7          	lui	x5,0x2
    41000224:	8002829b          	addiw	x5,x5,-2048 # 1800 <mem0__pt_level0+0x800>
    41000228:	3002b073          	csrc	mstatus,x5
    4100022c:	00000293          	li	x5,0
    41000230:	3002a073          	csrs	mstatus,x5
    41000234:	0010029b          	addiw	x5,x0,1
    41000238:	02729293          	slli	x5,x5,0x27
    4100023c:	3002b073          	csrc	mstatus,x5
    41000240:	411142b7          	lui	x5,0x41114
    41000244:	24c0006f          	j	41000490 <syscalls__ret_from_os_fn>

0000000041000248 <syscalls__os_fn_f0001004>:
    41000248:	000022b7          	lui	x5,0x2
    4100024c:	8002829b          	addiw	x5,x5,-2048 # 1800 <mem0__pt_level0+0x800>
    41000250:	3002b073          	csrc	mstatus,x5
    41000254:	000012b7          	lui	x5,0x1
    41000258:	8002829b          	addiw	x5,x5,-2048 # 800 <XLEN+0x7c0>
    4100025c:	3002a073          	csrs	mstatus,x5
    41000260:	0010029b          	addiw	x5,x0,1
    41000264:	02729293          	slli	x5,x5,0x27
    41000268:	3002b073          	csrc	mstatus,x5
    4100026c:	17823283          	ld	x5,376(x4) # 43260178 <__section_hart_context+0x178>
    41000270:	2200006f          	j	41000490 <syscalls__ret_from_os_fn>

0000000041000274 <syscalls__os_fn_f0001005>:
    41000274:	000022b7          	lui	x5,0x2
    41000278:	8002829b          	addiw	x5,x5,-2048 # 1800 <mem0__pt_level0+0x800>
    4100027c:	3002b073          	csrc	mstatus,x5
    41000280:	000022b7          	lui	x5,0x2
    41000284:	8002829b          	addiw	x5,x5,-2048 # 1800 <mem0__pt_level0+0x800>
    41000288:	3002a073          	csrs	mstatus,x5
    4100028c:	0010029b          	addiw	x5,x0,1
    41000290:	02729293          	slli	x5,x5,0x27
    41000294:	3002b073          	csrc	mstatus,x5
    41000298:	412142b7          	lui	x5,0x41214
    4100029c:	1f40006f          	j	41000490 <syscalls__ret_from_os_fn>

00000000410002a0 <syscalls__os_fn_f0001006>:
    410002a0:	412152b7          	lui	x5,0x41215
    410002a4:	1ec0006f          	j	41000490 <syscalls__ret_from_os_fn>

00000000410002a8 <syscalls__os_fn_f0001007>:
    410002a8:	44c26fb7          	lui	x31,0x44c26
    410002ac:	0b0f8f9b          	addiw	x31,x31,176 # 44c260b0 <pte_access_flags_pa>
    410002b0:	000fbf83          	ld	x31,0(x31)
    410002b4:	44c262b7          	lui	x5,0x44c26
    410002b8:	0b82829b          	addiw	x5,x5,184 # 44c260b8 <pte_access_flags_pa+0x8>
    410002bc:	0002b283          	ld	x5,0(x5)
    410002c0:	44c26e37          	lui	x28,0x44c26
    410002c4:	0c0e0e1b          	addiw	x28,x28,192 # 44c260c0 <pte_access_flags_pa+0x10>
    410002c8:	000e3e03          	ld	x28,0(x28)

00000000410002cc <syscalls__pte_walk_check_glevel_without_gstage_read>:
    410002cc:	fff00f93          	li	x31,-1
    410002d0:	0dfe1063          	bne	x28,x31,41000390 <syscalls__pte_walk_fail_read>
    410002d4:	18002373          	csrr	x6,satp
    410002d8:	03c35e93          	srli	x29,x6,0x3c
    410002dc:	01431313          	slli	x6,x6,0x14
    410002e0:	01435313          	srli	x6,x6,0x14
    410002e4:	00c31313          	slli	x6,x6,0xc
    410002e8:	ff8e8e93          	addi	x29,x29,-8
    410002ec:	003e9f13          	slli	x30,x29,0x3
    410002f0:	01df0eb3          	add	x29,x30,x29
    410002f4:	01ee8e93          	addi	x29,x29,30
    410002f8:	00000f13          	li	x30,0

00000000410002fc <syscalls__pte_walk_loop_read>:
    410002fc:	44c26fb7          	lui	x31,0x44c26
    41000300:	0b0f8f9b          	addiw	x31,x31,176 # 44c260b0 <pte_access_flags_pa>
    41000304:	000fbf83          	ld	x31,0(x31)
    41000308:	01dfdfb3          	srl	x31,x31,x29
    4100030c:	1fffff93          	andi	x31,x31,511
    41000310:	003f9f93          	slli	x31,x31,0x3
    41000314:	01f30333          	add	x6,x6,x31
    41000318:	005f0e63          	beq	x30,x5,41000334 <syscalls__pte_walk_done_read>
    4100031c:	00033f83          	ld	x31,0(x6)
    41000320:	00afdf93          	srli	x31,x31,0xa
    41000324:	00cf9313          	slli	x6,x31,0xc
    41000328:	001f0f13          	addi	x30,x30,1
    4100032c:	ff7e8e93          	addi	x29,x29,-9
    41000330:	fcdff06f          	j	410002fc <syscalls__pte_walk_loop_read>

0000000041000334 <syscalls__pte_walk_done_read>:
    41000334:	fff00f93          	li	x31,-1
    41000338:	05fe0263          	beq	x28,x31,4100037c <syscalls__pte_walk_final_read>

000000004100033c <syscalls__pte_walk_gstage_read>:
    4100033c:	44c26fb7          	lui	x31,0x44c26
    41000340:	0b0f8f9b          	addiw	x31,x31,176 # 44c260b0 <pte_access_flags_pa>
    41000344:	006fb023          	sd	x6,0(x31)
    41000348:	000e0293          	mv	x5,x28
    4100034c:	fff00e13          	li	x28,-1
    41000350:	68002373          	csrr	x6,hgatp
    41000354:	03c35e93          	srli	x29,x6,0x3c
    41000358:	01431313          	slli	x6,x6,0x14
    4100035c:	01435313          	srli	x6,x6,0x14
    41000360:	00c31313          	slli	x6,x6,0xc
    41000364:	ff8e8e93          	addi	x29,x29,-8
    41000368:	003e9f13          	slli	x30,x29,0x3
    4100036c:	01df0eb3          	add	x29,x30,x29
    41000370:	01ee8e93          	addi	x29,x29,30
    41000374:	00000f13          	li	x30,0
    41000378:	f85ff06f          	j	410002fc <syscalls__pte_walk_loop_read>

000000004100037c <syscalls__pte_walk_final_read>:
    4100037c:	00033383          	ld	x7,0(x6)
    41000380:	341022f3          	csrr	x5,mepc
    41000384:	00428293          	addi	x5,x5,4
    41000388:	16523c23          	sd	x5,376(x4) # 178 <XLEN+0x138>
    4100038c:	ebdff06f          	j	41000248 <syscalls__os_fn_f0001004>

0000000041000390 <syscalls__pte_walk_fail_read>:
    41000390:	4040006f          	j	41000794 <test_failed>

0000000041000394 <syscalls__os_fn_f0001008>:
    41000394:	44c26fb7          	lui	x31,0x44c26
    41000398:	0b0f8f9b          	addiw	x31,x31,176 # 44c260b0 <pte_access_flags_pa>
    4100039c:	000fbf83          	ld	x31,0(x31)
    410003a0:	44c262b7          	lui	x5,0x44c26
    410003a4:	0b82829b          	addiw	x5,x5,184 # 44c260b8 <pte_access_flags_pa+0x8>
    410003a8:	0002b283          	ld	x5,0(x5)
    410003ac:	44c26e37          	lui	x28,0x44c26
    410003b0:	0c0e0e1b          	addiw	x28,x28,192 # 44c260c0 <pte_access_flags_pa+0x10>
    410003b4:	000e3e03          	ld	x28,0(x28)

00000000410003b8 <syscalls__pte_walk_check_glevel_without_gstage_write>:
    410003b8:	fff00f93          	li	x31,-1
    410003bc:	0dfe1063          	bne	x28,x31,4100047c <syscalls__pte_walk_fail_write>
    410003c0:	18002373          	csrr	x6,satp
    410003c4:	03c35e93          	srli	x29,x6,0x3c
    410003c8:	01431313          	slli	x6,x6,0x14
    410003cc:	01435313          	srli	x6,x6,0x14
    410003d0:	00c31313          	slli	x6,x6,0xc
    410003d4:	ff8e8e93          	addi	x29,x29,-8
    410003d8:	003e9f13          	slli	x30,x29,0x3
    410003dc:	01df0eb3          	add	x29,x30,x29
    410003e0:	01ee8e93          	addi	x29,x29,30
    410003e4:	00000f13          	li	x30,0

00000000410003e8 <syscalls__pte_walk_loop_write>:
    410003e8:	44c26fb7          	lui	x31,0x44c26
    410003ec:	0b0f8f9b          	addiw	x31,x31,176 # 44c260b0 <pte_access_flags_pa>
    410003f0:	000fbf83          	ld	x31,0(x31)
    410003f4:	01dfdfb3          	srl	x31,x31,x29
    410003f8:	1fffff93          	andi	x31,x31,511
    410003fc:	003f9f93          	slli	x31,x31,0x3
    41000400:	01f30333          	add	x6,x6,x31
    41000404:	005f0e63          	beq	x30,x5,41000420 <syscalls__pte_walk_done_write>
    41000408:	00033f83          	ld	x31,0(x6)
    4100040c:	00afdf93          	srli	x31,x31,0xa
    41000410:	00cf9313          	slli	x6,x31,0xc
    41000414:	001f0f13          	addi	x30,x30,1
    41000418:	ff7e8e93          	addi	x29,x29,-9
    4100041c:	fcdff06f          	j	410003e8 <syscalls__pte_walk_loop_write>

0000000041000420 <syscalls__pte_walk_done_write>:
    41000420:	fff00f93          	li	x31,-1
    41000424:	05fe0263          	beq	x28,x31,41000468 <syscalls__pte_walk_final_write>

0000000041000428 <syscalls__pte_walk_gstage_write>:
    41000428:	44c26fb7          	lui	x31,0x44c26
    4100042c:	0b0f8f9b          	addiw	x31,x31,176 # 44c260b0 <pte_access_flags_pa>
    41000430:	006fb023          	sd	x6,0(x31)
    41000434:	000e0293          	mv	x5,x28
    41000438:	fff00e13          	li	x28,-1
    4100043c:	68002373          	csrr	x6,hgatp
    41000440:	03c35e93          	srli	x29,x6,0x3c
    41000444:	01431313          	slli	x6,x6,0x14
    41000448:	01435313          	srli	x6,x6,0x14
    4100044c:	00c31313          	slli	x6,x6,0xc
    41000450:	ff8e8e93          	addi	x29,x29,-8
    41000454:	003e9f13          	slli	x30,x29,0x3
    41000458:	01df0eb3          	add	x29,x30,x29
    4100045c:	01ee8e93          	addi	x29,x29,30
    41000460:	00000f13          	li	x30,0
    41000464:	f85ff06f          	j	410003e8 <syscalls__pte_walk_loop_write>

0000000041000468 <syscalls__pte_walk_final_write>:
    41000468:	00733023          	sd	x7,0(x6)
    4100046c:	341022f3          	csrr	x5,mepc
    41000470:	00428293          	addi	x5,x5,4
    41000474:	16523c23          	sd	x5,376(x4) # 178 <XLEN+0x138>
    41000478:	dd1ff06f          	j	41000248 <syscalls__os_fn_f0001004>

000000004100047c <syscalls__pte_walk_fail_write>:
    4100047c:	3180006f          	j	41000794 <test_failed>

0000000041000480 <syscalls__os_get_hart_context>:
    41000480:	14002573          	csrr	x10,sscratch
    41000484:	341022f3          	csrr	x5,mepc
    41000488:	00428293          	addi	x5,x5,4
    4100048c:	0040006f          	j	41000490 <syscalls__ret_from_os_fn>

0000000041000490 <syscalls__ret_from_os_fn>:
    41000490:	34102373          	csrr	x6,mepc
    41000494:	00430313          	addi	x6,x6,4
    41000498:	16623c23          	sd	x6,376(x4) # 178 <XLEN+0x138>
    4100049c:	34129073          	csrw	mepc,x5
    410004a0:	fff00f93          	li	x31,-1
    410004a4:	2a40006f          	j	41000748 <trap_handler_m__skip_xepc_write>

00000000410004a8 <trap_handler_m__invalid_interrupt>:
    410004a8:	2ec0006f          	j	41000794 <test_failed>

00000000410004ac <trap_handler_m__clear_all_interrupts>:
    410004ac:	34401073          	csrw	mip,x0
    410004b0:	30200073          	mret

00000000410004b4 <trap_handler_m___CLEAR_SSI>:
    410004b4:	00200293          	li	x5,2
    410004b8:	3442b073          	csrc	mip,x5
    410004bc:	30200073          	mret

00000000410004c0 <trap_handler_m___CLEAR_MSI>:
    410004c0:	00800293          	li	x5,8
    410004c4:	3442b073          	csrc	mip,x5
    410004c8:	30200073          	mret

00000000410004cc <trap_handler_m___CLEAR_STI>:
    410004cc:	02000293          	li	x5,32
    410004d0:	3442b073          	csrc	mip,x5
    410004d4:	30200073          	mret

00000000410004d8 <trap_handler_m___CLEAR_MTI>:
    410004d8:	08000293          	li	x5,128
    410004dc:	3442b073          	csrc	mip,x5
    410004e0:	30200073          	mret

00000000410004e4 <trap_handler_m___CLEAR_SEI>:
    410004e4:	20000293          	li	x5,512
    410004e8:	3442b073          	csrc	mip,x5
    410004ec:	30200073          	mret

00000000410004f0 <trap_handler_m___CLEAR_MEI>:
    410004f0:	000012b7          	lui	x5,0x1
    410004f4:	8002829b          	addiw	x5,x5,-2048 # 800 <XLEN+0x7c0>
    410004f8:	3442b073          	csrc	mip,x5
    410004fc:	30200073          	mret

0000000041000500 <trap_handler_m___CLEAR_COI>:
    41000500:	000022b7          	lui	x5,0x2
    41000504:	3442b073          	csrc	mip,x5
    41000508:	30200073          	mret

000000004100050c <trap_handler_m__clear_highest_priority_interrupt>:
    4100050c:	344022f3          	csrr	x5,mip
    41000510:	40500333          	neg	x6,x5
    41000514:	0062f2b3          	and	x5,x5,x6
    41000518:	3442b073          	csrc	mip,x5
    4100051c:	30200073          	mret

0000000041000520 <trap_handler_m__trap_entry>:
    41000520:	0fc0006f          	j	4100061c <trap_handler_m__trap_handler>

0000000041000524 <trap_handler_m__interrupt_vector_table>:
    41000524:	f91ff06f          	j	410004b4 <trap_handler_m___CLEAR_SSI>
    41000528:	f81ff06f          	j	410004a8 <trap_handler_m__invalid_interrupt>
    4100052c:	f95ff06f          	j	410004c0 <trap_handler_m___CLEAR_MSI>
    41000530:	f79ff06f          	j	410004a8 <trap_handler_m__invalid_interrupt>
    41000534:	f99ff06f          	j	410004cc <trap_handler_m___CLEAR_STI>
    41000538:	f71ff06f          	j	410004a8 <trap_handler_m__invalid_interrupt>
    4100053c:	f9dff06f          	j	410004d8 <trap_handler_m___CLEAR_MTI>
    41000540:	f69ff06f          	j	410004a8 <trap_handler_m__invalid_interrupt>
    41000544:	fa1ff06f          	j	410004e4 <trap_handler_m___CLEAR_SEI>
    41000548:	f61ff06f          	j	410004a8 <trap_handler_m__invalid_interrupt>
    4100054c:	fa5ff06f          	j	410004f0 <trap_handler_m___CLEAR_MEI>
    41000550:	f59ff06f          	j	410004a8 <trap_handler_m__invalid_interrupt>
    41000554:	fadff06f          	j	41000500 <trap_handler_m___CLEAR_COI>
    41000558:	f51ff06f          	j	410004a8 <trap_handler_m__invalid_interrupt>
    4100055c:	f4dff06f          	j	410004a8 <trap_handler_m__invalid_interrupt>
    41000560:	fadff06f          	j	4100050c <trap_handler_m__clear_highest_priority_interrupt>
    41000564:	fa9ff06f          	j	4100050c <trap_handler_m__clear_highest_priority_interrupt>
    41000568:	fa5ff06f          	j	4100050c <trap_handler_m__clear_highest_priority_interrupt>
    4100056c:	fa1ff06f          	j	4100050c <trap_handler_m__clear_highest_priority_interrupt>
    41000570:	f9dff06f          	j	4100050c <trap_handler_m__clear_highest_priority_interrupt>
    41000574:	f99ff06f          	j	4100050c <trap_handler_m__clear_highest_priority_interrupt>
    41000578:	f95ff06f          	j	4100050c <trap_handler_m__clear_highest_priority_interrupt>
    4100057c:	f91ff06f          	j	4100050c <trap_handler_m__clear_highest_priority_interrupt>
    41000580:	f8dff06f          	j	4100050c <trap_handler_m__clear_highest_priority_interrupt>
    41000584:	f89ff06f          	j	4100050c <trap_handler_m__clear_highest_priority_interrupt>
    41000588:	f85ff06f          	j	4100050c <trap_handler_m__clear_highest_priority_interrupt>
    4100058c:	f81ff06f          	j	4100050c <trap_handler_m__clear_highest_priority_interrupt>
    41000590:	f7dff06f          	j	4100050c <trap_handler_m__clear_highest_priority_interrupt>
    41000594:	f79ff06f          	j	4100050c <trap_handler_m__clear_highest_priority_interrupt>
    41000598:	f75ff06f          	j	4100050c <trap_handler_m__clear_highest_priority_interrupt>
    4100059c:	f71ff06f          	j	4100050c <trap_handler_m__clear_highest_priority_interrupt>
    410005a0:	f6dff06f          	j	4100050c <trap_handler_m__clear_highest_priority_interrupt>
    410005a4:	f69ff06f          	j	4100050c <trap_handler_m__clear_highest_priority_interrupt>
    410005a8:	f65ff06f          	j	4100050c <trap_handler_m__clear_highest_priority_interrupt>
    410005ac:	f61ff06f          	j	4100050c <trap_handler_m__clear_highest_priority_interrupt>
    410005b0:	f5dff06f          	j	4100050c <trap_handler_m__clear_highest_priority_interrupt>
    410005b4:	f59ff06f          	j	4100050c <trap_handler_m__clear_highest_priority_interrupt>
    410005b8:	f55ff06f          	j	4100050c <trap_handler_m__clear_highest_priority_interrupt>
    410005bc:	f51ff06f          	j	4100050c <trap_handler_m__clear_highest_priority_interrupt>
    410005c0:	f4dff06f          	j	4100050c <trap_handler_m__clear_highest_priority_interrupt>
    410005c4:	f49ff06f          	j	4100050c <trap_handler_m__clear_highest_priority_interrupt>
    410005c8:	f45ff06f          	j	4100050c <trap_handler_m__clear_highest_priority_interrupt>
    410005cc:	f41ff06f          	j	4100050c <trap_handler_m__clear_highest_priority_interrupt>
    410005d0:	f3dff06f          	j	4100050c <trap_handler_m__clear_highest_priority_interrupt>
    410005d4:	f39ff06f          	j	4100050c <trap_handler_m__clear_highest_priority_interrupt>
    410005d8:	f35ff06f          	j	4100050c <trap_handler_m__clear_highest_priority_interrupt>
    410005dc:	f31ff06f          	j	4100050c <trap_handler_m__clear_highest_priority_interrupt>
    410005e0:	f2dff06f          	j	4100050c <trap_handler_m__clear_highest_priority_interrupt>
    410005e4:	f29ff06f          	j	4100050c <trap_handler_m__clear_highest_priority_interrupt>
    410005e8:	f25ff06f          	j	4100050c <trap_handler_m__clear_highest_priority_interrupt>
    410005ec:	f21ff06f          	j	4100050c <trap_handler_m__clear_highest_priority_interrupt>
    410005f0:	f1dff06f          	j	4100050c <trap_handler_m__clear_highest_priority_interrupt>
    410005f4:	f19ff06f          	j	4100050c <trap_handler_m__clear_highest_priority_interrupt>
    410005f8:	f15ff06f          	j	4100050c <trap_handler_m__clear_highest_priority_interrupt>
    410005fc:	f11ff06f          	j	4100050c <trap_handler_m__clear_highest_priority_interrupt>
    41000600:	f0dff06f          	j	4100050c <trap_handler_m__clear_highest_priority_interrupt>
    41000604:	f09ff06f          	j	4100050c <trap_handler_m__clear_highest_priority_interrupt>
    41000608:	f05ff06f          	j	4100050c <trap_handler_m__clear_highest_priority_interrupt>
    4100060c:	f01ff06f          	j	4100050c <trap_handler_m__clear_highest_priority_interrupt>
    41000610:	efdff06f          	j	4100050c <trap_handler_m__clear_highest_priority_interrupt>
    41000614:	ef9ff06f          	j	4100050c <trap_handler_m__clear_highest_priority_interrupt>
    41000618:	ef5ff06f          	j	4100050c <trap_handler_m__clear_highest_priority_interrupt>

000000004100061c <trap_handler_m__trap_handler>:
    4100061c:	342022f3          	csrr	x5,mcause
    41000620:	fff0031b          	addiw	x6,x0,-1
    41000624:	03f31313          	slli	x6,x6,0x3f
    41000628:	00537333          	and	x6,x6,x5
    4100062c:	02030263          	beqz	x6,41000650 <trap_handler_m__exception_path>

0000000041000630 <trap_handler_m__interrupt_handler>:
    41000630:	fff0031b          	addiw	x6,x0,-1
    41000634:	03f31313          	slli	x6,x6,0x3f
    41000638:	0062c2b3          	xor	x5,x5,x6
    4100063c:	00000317          	auipc	x6,0x0
    41000640:	ee430313          	addi	x6,x6,-284 # 41000520 <trap_handler_m__trap_entry>
    41000644:	00229293          	slli	x5,x5,0x2
    41000648:	005302b3          	add	x5,x6,x5
    4100064c:	00028067          	jr	x5 # 2000 <mem7__pt_level0>

0000000041000650 <trap_handler_m__exception_path>:
    41000650:	34021273          	csrrw	x4,mscratch,x4
    41000654:	00000297          	auipc	x5,0x0
    41000658:	10828293          	addi	x5,x5,264 # 4100075c <trap_handler_m__trap_panic>
    4100065c:	30529073          	csrw	mtvec,x5
    41000660:	0040006f          	j	41000664 <trap_handler_m__excp_entry>

0000000041000664 <trap_handler_m__excp_entry>:
    41000664:	34202373          	csrr	x6,mcause
    41000668:	00800293          	li	x5,8
    4100066c:	00534863          	blt	x6,x5,4100067c <trap_handler_m__check_exception_label>
    41000670:	00b00293          	li	x5,11
    41000674:	0062c463          	blt	x5,x6,4100067c <trap_handler_m__check_exception_label>
    41000678:	a5dff06f          	j	410000d4 <syscalls__syscall_check_schedule_next_test>

000000004100067c <trap_handler_m__check_exception_label>:
    4100067c:	04623c23          	sd	x6,88(x4) # 58 <XLEN+0x18>
    41000680:	341022f3          	csrr	x5,mepc
    41000684:	02523423          	sd	x5,40(x4) # 28 <SECURE_ACCESS_PROBABILITY+0xa>
    41000688:	01820283          	lb	x5,24(x4) # 18 <STORE_GUEST_PAGE_FAULT+0x1>
    4100068c:	00029863          	bnez	x5,4100069c <trap_handler_m__check_excp>
    41000690:	00128293          	addi	x5,x5,1
    41000694:	00520c23          	sb	x5,24(x4) # 18 <STORE_GUEST_PAGE_FAULT+0x1>
    41000698:	0980006f          	j	41000730 <trap_handler_m__ecall_from_machine>

000000004100069c <trap_handler_m__check_excp>:
    4100069c:	06823283          	ld	x5,104(x4) # 68 <XLEN+0x28>
    410006a0:	06023423          	sd	x0,104(x4) # 68 <XLEN+0x28>
    410006a4:	00028663          	beqz	x5,410006b0 <trap_handler_m__skip_mode_check>
    410006a8:	00100393          	li	x7,1
    410006ac:	0e729463          	bne	x5,x7,41000794 <test_failed>

00000000410006b0 <trap_handler_m__skip_mode_check>:
    410006b0:	05023283          	ld	x5,80(x4) # 50 <XLEN+0x10>
    410006b4:	04023823          	sd	x0,80(x4) # 50 <XLEN+0x10>
    410006b8:	0c531e63          	bne	x6,x5,41000794 <test_failed>
    410006bc:	03823283          	ld	x5,56(x4) # 38 <SECURE_ACCESS_PROBABILITY+0x1a>
    410006c0:	02023c23          	sd	x0,56(x4) # 38 <SECURE_ACCESS_PROBABILITY+0x1a>
    410006c4:	06029463          	bnez	x5,4100072c <trap_handler_m__skip_gva_check>
    410006c8:	02023303          	ld	x6,32(x4) # 20 <SECURE_ACCESS_PROBABILITY+0x2>
    410006cc:	02023023          	sd	x0,32(x4) # 20 <SECURE_ACCESS_PROBABILITY+0x2>
    410006d0:	02823283          	ld	x5,40(x4) # 28 <SECURE_ACCESS_PROBABILITY+0xa>
    410006d4:	02023423          	sd	x0,40(x4) # 28 <SECURE_ACCESS_PROBABILITY+0xa>
    410006d8:	0a531e63          	bne	x6,x5,41000794 <test_failed>
    410006dc:	04023283          	ld	x5,64(x4) # 40 <XLEN>
    410006e0:	04023023          	sd	x0,64(x4) # 40 <XLEN>
    410006e4:	00028663          	beqz	x5,410006f0 <trap_handler_m__skip_nonzero_tval_check>

00000000410006e8 <trap_handler_m__nonzero_tval_check>:
    410006e8:	34302373          	csrr	x6,mtval
    410006ec:	0a531463          	bne	x6,x5,41000794 <test_failed>

00000000410006f0 <trap_handler_m__skip_nonzero_tval_check>:
    410006f0:	04823283          	ld	x5,72(x4) # 48 <XLEN+0x8>
    410006f4:	04023423          	sd	x0,72(x4) # 48 <XLEN+0x8>
    410006f8:	00028663          	beqz	x5,41000704 <trap_handler_m__skip_nonzero_htval_check>

00000000410006fc <trap_handler_m__nonzero_htval_check>:
    410006fc:	34b02373          	csrr	x6,0x34b
    41000700:	08531a63          	bne	x6,x5,41000794 <test_failed>

0000000041000704 <trap_handler_m__skip_nonzero_htval_check>:
    41000704:	06023283          	ld	x5,96(x4) # 60 <XLEN+0x20>
    41000708:	06023023          	sd	x0,96(x4) # 60 <XLEN+0x20>
    4100070c:	02028063          	beqz	x5,4100072c <trap_handler_m__skip_gva_check>

0000000041000710 <trap_handler_m__gva_check>:
    41000710:	30002373          	csrr	x6,mstatus
    41000714:	02635313          	srli	x6,x6,0x26
    41000718:	00137313          	andi	x6,x6,1
    4100071c:	06030c63          	beqz	x6,41000794 <test_failed>
    41000720:	0010031b          	addiw	x6,x0,1
    41000724:	02631313          	slli	x6,x6,0x26
    41000728:	30033073          	csrc	mstatus,x6

000000004100072c <trap_handler_m__skip_gva_check>:
    4100072c:	0040006f          	j	41000730 <trap_handler_m__ecall_from_machine>

0000000041000730 <trap_handler_m__ecall_from_machine>:
    41000730:	03023283          	ld	x5,48(x4) # 30 <SECURE_ACCESS_PROBABILITY+0x12>
    41000734:	02023823          	sd	x0,48(x4) # 30 <SECURE_ACCESS_PROBABILITY+0x12>
    41000738:	07023303          	ld	x6,112(x4) # 70 <XLEN+0x30>
    4100073c:	06023823          	sd	x0,112(x4) # 70 <XLEN+0x30>
    41000740:	00031463          	bnez	x6,41000748 <trap_handler_m__skip_xepc_write>
    41000744:	34129073          	csrw	mepc,x5

0000000041000748 <trap_handler_m__skip_xepc_write>:
    41000748:	00000317          	auipc	x6,0x0
    4100074c:	dd830313          	addi	x6,x6,-552 # 41000520 <trap_handler_m__trap_entry>
    41000750:	30531073          	csrw	mtvec,x6
    41000754:	34021273          	csrrw	x4,mscratch,x4
    41000758:	30200073          	mret

000000004100075c <trap_handler_m__trap_panic>:
    4100075c:	00000193          	li	x3,0
    41000760:	2b00006f          	j	41000a10 <eot__end_test>

0000000041000764 <enter_scheduler>:
    41000764:	0002f337          	lui	x6,0x2f
    41000768:	ab73031b          	addiw	x6,x6,-1353 # 2eab7 <mem5__pt_level2+0x1a9c7>
    4100076c:	00e31313          	slli	x6,x6,0xe
    41000770:	0de30313          	addi	x6,x6,222
    41000774:	02628063          	beq	x5,x6,41000794 <test_failed>
    41000778:	00000513          	li	x10,0
    4100077c:	030000ef          	jal	410007ac <rvcp_print_test_result>
    41000780:	3140006f          	j	41000a94 <scheduler__dispatch>

0000000041000784 <test_passed>:
    41000784:	34021273          	csrrw	x4,mscratch,x4
    41000788:	00000513          	li	x10,0
    4100078c:	020000ef          	jal	410007ac <rvcp_print_test_result>
    41000790:	3040006f          	j	41000a94 <scheduler__dispatch>

0000000041000794 <test_failed>:
    41000794:	34021273          	csrrw	x4,mscratch,x4
    41000798:	00300193          	li	x3,3
    4100079c:	2740006f          	j	41000a10 <eot__end_test>

00000000410007a0 <os_end_test>:
    410007a0:	34021273          	csrrw	x4,mscratch,x4
    410007a4:	00100193          	li	x3,1
    410007a8:	2680006f          	j	41000a10 <eot__end_test>

00000000410007ac <rvcp_print_test_result>:
    410007ac:	00050e13          	mv	x28,x10
    410007b0:	18823283          	ld	x5,392(x4) # 188 <XLEN+0x148>
    410007b4:	0010031b          	addiw	x6,x0,1
    410007b8:	02031313          	slli	x6,x6,0x20
    410007bc:	ffe30313          	addi	x6,x6,-2
    410007c0:	1c628063          	beq	x5,x6,41000980 <rvcp_print_test_result+0x1d4>
    410007c4:	0010031b          	addiw	x6,x0,1
    410007c8:	02031313          	slli	x6,x6,0x20
    410007cc:	fff30313          	addi	x6,x6,-1
    410007d0:	1a628863          	beq	x5,x6,41000980 <rvcp_print_test_result+0x1d4>
    410007d4:	1a02c663          	bltz	x5,41000980 <rvcp_print_test_result+0x1d4>
    410007d8:	00000317          	auipc	x6,0x0
    410007dc:	3bc30313          	addi	x6,x6,956 # 41000b94 <dtest_descriptor_table>
    410007e0:	00329393          	slli	x7,x5,0x3
    410007e4:	00730333          	add	x6,x6,x7
    410007e8:	00033e83          	ld	x29,0(x6)
    410007ec:	44c26f37          	lui	x30,0x44c26
    410007f0:	030f0f1b          	addiw	x30,x30,48 # 44c26030 <rvcp_prefix_str_pa>
    410007f4:	000f4283          	lbu	x5,0(x30)
    410007f8:	02028663          	beqz	x5,41000824 <rvcp_print_test_result+0x78>
    410007fc:	1010031b          	addiw	x6,x0,257
    41000800:	03031313          	slli	x6,x6,0x30
    41000804:	005362b3          	or	x5,x6,x5
    41000808:	0003f317          	auipc	x6,0x3f
    4100080c:	7f830313          	addi	x6,x6,2040 # 41040000 <tohost>
    41000810:	00033383          	ld	x7,0(x6)
    41000814:	fe039ee3          	bnez	x7,41000810 <rvcp_print_test_result+0x64>
    41000818:	00533023          	sd	x5,0(x6)
    4100081c:	001f0f13          	addi	x30,x30,1
    41000820:	fd5ff06f          	j	410007f4 <rvcp_print_test_result+0x48>
    41000824:	44c26f37          	lui	x30,0x44c26
    41000828:	041f0f1b          	addiw	x30,x30,65 # 44c26041 <rvcp_testname_str_pa>
    4100082c:	000f4283          	lbu	x5,0(x30)
    41000830:	02028663          	beqz	x5,4100085c <rvcp_print_test_result+0xb0>
    41000834:	1010031b          	addiw	x6,x0,257
    41000838:	03031313          	slli	x6,x6,0x30
    4100083c:	005362b3          	or	x5,x6,x5
    41000840:	0003f317          	auipc	x6,0x3f
    41000844:	7c030313          	addi	x6,x6,1984 # 41040000 <tohost>
    41000848:	00033383          	ld	x7,0(x6)
    4100084c:	fe039ee3          	bnez	x7,41000848 <rvcp_print_test_result+0x9c>
    41000850:	00533023          	sd	x5,0(x6)
    41000854:	001f0f13          	addi	x30,x30,1
    41000858:	fd5ff06f          	j	4100082c <rvcp_print_test_result+0x80>
    4100085c:	44c26f37          	lui	x30,0x44c26
    41000860:	05cf0f1b          	addiw	x30,x30,92 # 44c2605c <rvcp_space_str_pa>
    41000864:	000f4283          	lbu	x5,0(x30)
    41000868:	02028663          	beqz	x5,41000894 <rvcp_print_test_result+0xe8>
    4100086c:	1010031b          	addiw	x6,x0,257
    41000870:	03031313          	slli	x6,x6,0x30
    41000874:	005362b3          	or	x5,x6,x5
    41000878:	0003f317          	auipc	x6,0x3f
    4100087c:	78830313          	addi	x6,x6,1928 # 41040000 <tohost>
    41000880:	00033383          	ld	x7,0(x6)
    41000884:	fe039ee3          	bnez	x7,41000880 <rvcp_print_test_result+0xd4>
    41000888:	00533023          	sd	x5,0(x6)
    4100088c:	001f0f13          	addi	x30,x30,1
    41000890:	fd5ff06f          	j	41000864 <rvcp_print_test_result+0xb8>
    41000894:	000e8f13          	mv	x30,x29
    41000898:	000f4283          	lbu	x5,0(x30)
    4100089c:	02028663          	beqz	x5,410008c8 <rvcp_print_test_result+0x11c>
    410008a0:	1010031b          	addiw	x6,x0,257
    410008a4:	03031313          	slli	x6,x6,0x30
    410008a8:	005362b3          	or	x5,x6,x5
    410008ac:	0003f317          	auipc	x6,0x3f
    410008b0:	75430313          	addi	x6,x6,1876 # 41040000 <tohost>
    410008b4:	00033383          	ld	x7,0(x6)
    410008b8:	fe039ee3          	bnez	x7,410008b4 <rvcp_print_test_result+0x108>
    410008bc:	00533023          	sd	x5,0(x6)
    410008c0:	001f0f13          	addi	x30,x30,1
    410008c4:	fd5ff06f          	j	41000898 <rvcp_print_test_result+0xec>
    410008c8:	44c26f37          	lui	x30,0x44c26
    410008cc:	05cf0f1b          	addiw	x30,x30,92 # 44c2605c <rvcp_space_str_pa>
    410008d0:	000f4283          	lbu	x5,0(x30)
    410008d4:	02028663          	beqz	x5,41000900 <rvcp_print_test_result+0x154>
    410008d8:	1010031b          	addiw	x6,x0,257
    410008dc:	03031313          	slli	x6,x6,0x30
    410008e0:	005362b3          	or	x5,x6,x5
    410008e4:	0003f317          	auipc	x6,0x3f
    410008e8:	71c30313          	addi	x6,x6,1820 # 41040000 <tohost>
    410008ec:	00033383          	ld	x7,0(x6)
    410008f0:	fe039ee3          	bnez	x7,410008ec <rvcp_print_test_result+0x140>
    410008f4:	00533023          	sd	x5,0(x6)
    410008f8:	001f0f13          	addi	x30,x30,1
    410008fc:	fd5ff06f          	j	410008d0 <rvcp_print_test_result+0x124>
    41000900:	000e1863          	bnez	x28,41000910 <rvcp_print_test_result+0x164>
    41000904:	44c26f37          	lui	x30,0x44c26
    41000908:	04ef0f1b          	addiw	x30,x30,78 # 44c2604e <rvcp_passed_str_pa>
    4100090c:	00c0006f          	j	41000918 <rvcp_print_test_result+0x16c>
    41000910:	44c26f37          	lui	x30,0x44c26
    41000914:	055f0f1b          	addiw	x30,x30,85 # 44c26055 <rvcp_failed_str_pa>
    41000918:	000f4283          	lbu	x5,0(x30)
    4100091c:	02028663          	beqz	x5,41000948 <rvcp_print_test_result+0x19c>
    41000920:	1010031b          	addiw	x6,x0,257
    41000924:	03031313          	slli	x6,x6,0x30
    41000928:	005362b3          	or	x5,x6,x5
    4100092c:	0003f317          	auipc	x6,0x3f
    41000930:	6d430313          	addi	x6,x6,1748 # 41040000 <tohost>
    41000934:	00033383          	ld	x7,0(x6)
    41000938:	fe039ee3          	bnez	x7,41000934 <rvcp_print_test_result+0x188>
    4100093c:	00533023          	sd	x5,0(x6)
    41000940:	001f0f13          	addi	x30,x30,1
    41000944:	fd5ff06f          	j	41000918 <rvcp_print_test_result+0x16c>
    41000948:	44c26f37          	lui	x30,0x44c26
    4100094c:	05ef0f1b          	addiw	x30,x30,94 # 44c2605e <rvcp_newline_str_pa>
    41000950:	000f4283          	lbu	x5,0(x30)
    41000954:	02028663          	beqz	x5,41000980 <rvcp_print_test_result+0x1d4>
    41000958:	1010031b          	addiw	x6,x0,257
    4100095c:	03031313          	slli	x6,x6,0x30
    41000960:	005362b3          	or	x5,x6,x5
    41000964:	0003f317          	auipc	x6,0x3f
    41000968:	69c30313          	addi	x6,x6,1692 # 41040000 <tohost>
    4100096c:	00033383          	ld	x7,0(x6)
    41000970:	fe039ee3          	bnez	x7,4100096c <rvcp_print_test_result+0x1c0>
    41000974:	00533023          	sd	x5,0(x6)
    41000978:	001f0f13          	addi	x30,x30,1
    4100097c:	fd5ff06f          	j	41000950 <rvcp_print_test_result+0x1a4>
    41000980:	00008067          	ret

0000000041000984 <os_rng_orig>:
    41000984:	f14023f3          	csrr	x7,mhartid
    41000988:	00068313          	mv	x6,x13
    4100098c:	026383b3          	mul	x7,x7,x6
    41000990:	00058313          	mv	x6,x11
    41000994:	00730333          	add	x6,x6,x7
    41000998:	00033283          	ld	x5,0(x6)
    4100099c:	01529313          	slli	x6,x5,0x15
    410009a0:	0062c2b3          	xor	x5,x5,x6
    410009a4:	0232d313          	srli	x6,x5,0x23
    410009a8:	0062c2b3          	xor	x5,x5,x6
    410009ac:	00429313          	slli	x6,x5,0x4
    410009b0:	0062c2b3          	xor	x5,x5,x6
    410009b4:	00058313          	mv	x6,x11
    410009b8:	00730333          	add	x6,x6,x7
    410009bc:	00533023          	sd	x5,0(x6)
    410009c0:	00060313          	mv	x6,x12
    410009c4:	0262f2b3          	remu	x5,x5,x6
    410009c8:	00028513          	mv	x10,x5
    410009cc:	00008067          	ret
    410009d0:	02a00513          	li	x10,42
    410009d4:	001965b7          	lui	x11,0x196
    410009d8:	60d5859b          	addiw	x11,x11,1549 # 19660d <mem1__pt_level1+0x5960d>
    410009dc:	3c6ef637          	lui	x12,0x3c6ef
    410009e0:	35f6061b          	addiw	x12,x12,863 # 3c6ef35f <current_test_index+0x97e1d7>
    410009e4:	02200693          	li	x13,34
    410009e8:	02b50533          	mul	x10,x10,x11
    410009ec:	00c50533          	add	x10,x10,x12
    410009f0:	02d56533          	rem	x10,x10,x13
    410009f4:	00b00593          	li	x11,11
    410009f8:	02b56533          	rem	x10,x10,x11
    410009fc:	00008067          	ret

0000000041000a00 <tohost_mutex>:
	...

0000000041000a08 <tohost_addr_mem>:
    41000a08:	0000                	.insn	2, 0x0000
    41000a0a:	4104                	.insn	2, 0x4104
    41000a0c:	0000                	.insn	2, 0x0000
	...

0000000041000a10 <eot__end_test>:
    41000a10:	00100293          	li	x5,1
    41000a14:	00328463          	beq	x5,x3,41000a1c <eot__passed>
    41000a18:	01c0006f          	j	41000a34 <eot__failed>

0000000041000a1c <eot__passed>:
    41000a1c:	0ff0000f          	fence
    41000a20:	00000297          	auipc	x5,0x0
    41000a24:	fe82b283          	ld	x5,-24(x5) # 41000a08 <tohost_addr_mem>
    41000a28:	00100313          	li	x6,1
    41000a2c:	0062a023          	sw	x6,0(x5)
    41000a30:	0240006f          	j	41000a54 <eot__halt>

0000000041000a34 <eot__failed>:
    41000a34:	00100513          	li	x10,1
    41000a38:	d75ff0ef          	jal	410007ac <rvcp_print_test_result>
    41000a3c:	0ff0000f          	fence
    41000a40:	00000297          	auipc	x5,0x0
    41000a44:	fc82b283          	ld	x5,-56(x5) # 41000a08 <tohost_addr_mem>
    41000a48:	00300313          	li	x6,3
    41000a4c:	0062a023          	sw	x6,0(x5)
    41000a50:	0040006f          	j	41000a54 <eot__halt>

0000000041000a54 <eot__halt>:
    41000a54:	10500073          	wfi
    41000a58:	ffdff06f          	j	41000a54 <eot__halt>

0000000041000a5c <scheduler__init>:
    41000a5c:	00000297          	auipc	x5,0x0
    41000a60:	0c028293          	addi	x5,x5,192 # 41000b1c <scheduler__panic>
    41000a64:	305292f3          	csrrw	x5,mtvec,x5
    41000a68:	18523023          	sd	x5,384(x4) # 180 <XLEN+0x140>
    41000a6c:	00d00293          	li	x5,13
    41000a70:	18523823          	sd	x5,400(x4) # 190 <XLEN+0x150>
    41000a74:	0010029b          	addiw	x5,x0,1
    41000a78:	02029293          	slli	x5,x5,0x20
    41000a7c:	ffe28293          	addi	x5,x5,-2
    41000a80:	18523423          	sd	x5,392(x4) # 188 <XLEN+0x148>
    41000a84:	00000317          	auipc	x6,0x0
    41000a88:	29830313          	addi	x6,x6,664 # 41000d1c <scheduler__test_setup_ptr>
    41000a8c:	00033303          	ld	x6,0(x6)
    41000a90:	0640006f          	j	41000af4 <scheduler__execute_test>

0000000041000a94 <scheduler__dispatch>:
    41000a94:	00000297          	auipc	x5,0x0
    41000a98:	08828293          	addi	x5,x5,136 # 41000b1c <scheduler__panic>
    41000a9c:	305292f3          	csrrw	x5,mtvec,x5
    41000aa0:	18523023          	sd	x5,384(x4) # 180 <XLEN+0x140>

0000000041000aa4 <scheduler__csr_read_randomization>:
    41000aa4:	340022f3          	csrr	x5,mscratch
    41000aa8:	f12022f3          	csrr	x5,marchid
    41000aac:	144022f3          	csrr	x5,sip
    41000ab0:	342022f3          	csrr	x5,mcause
    41000ab4:	f13022f3          	csrr	x5,mimpid

0000000041000ab8 <scheduler__load_num_runs>:
    41000ab8:	19023303          	ld	x6,400(x4) # 190 <XLEN+0x150>
    41000abc:	04030c63          	beqz	x6,41000b14 <scheduler__finished>

0000000041000ac0 <scheduler__decrement_num_runs>:
    41000ac0:	fff30393          	addi	x7,x6,-1
    41000ac4:	18723823          	sd	x7,400(x4) # 190 <XLEN+0x150>
    41000ac8:	00000e17          	auipc	x28,0x0
    41000acc:	21ce0e13          	addi	x28,x28,540 # 41000ce4 <dtest_index_map>
    41000ad0:	00239e93          	slli	x29,x7,0x2
    41000ad4:	01de0e33          	add	x28,x28,x29
    41000ad8:	000e2e03          	lw	x28,0(x28)
    41000adc:	19c23423          	sd	x28,392(x4) # 188 <XLEN+0x148>

0000000041000ae0 <scheduler__calc_test_pointer>:
    41000ae0:	00339293          	slli	x5,x7,0x3

0000000041000ae4 <scheduler__load_test_addr>:
    41000ae4:	00000317          	auipc	x6,0x0
    41000ae8:	04830313          	addi	x6,x6,72 # 41000b2c <os_test_sequence>
    41000aec:	006282b3          	add	x5,x5,x6
    41000af0:	0002b303          	ld	x6,0(x5)

0000000041000af4 <scheduler__execute_test>:
    41000af4:	18023283          	ld	x5,384(x4) # 180 <XLEN+0x140>
    41000af8:	30529073          	csrw	mtvec,x5
    41000afc:	34021273          	csrrw	x4,mscratch,x4
    41000b00:	00000213          	li	x4,0
    41000b04:	14131073          	csrw	sepc,x6
    41000b08:	10000293          	li	x5,256
    41000b0c:	1002a073          	csrs	sstatus,x5
    41000b10:	10200073          	sret

0000000041000b14 <scheduler__finished>:
    41000b14:	00100193          	li	x3,1
    41000b18:	ef9ff06f          	j	41000a10 <eot__end_test>

0000000041000b1c <scheduler__panic>:
    41000b1c:	00000193          	li	x3,0
    41000b20:	ef1ff06f          	j	41000a10 <eot__end_test>

0000000041000b24 <num_runs>:
    41000b24:	000d                	.insn	2, 0x000d
    41000b26:	0000                	.insn	2, 0x0000
    41000b28:	0000                	.insn	2, 0x0000
	...

0000000041000b2c <os_test_sequence>:
    41000b2c:	5010                	.insn	2, 0x5010
    41000b2e:	4101                	.insn	2, 0x4101
    41000b30:	0000                	.insn	2, 0x0000
    41000b32:	0000                	.insn	2, 0x0000
    41000b34:	4994                	.insn	2, 0x4994
    41000b36:	4101                	.insn	2, 0x4101
    41000b38:	0000                	.insn	2, 0x0000
    41000b3a:	0000                	.insn	2, 0x0000
    41000b3c:	4ee0                	.insn	2, 0x4ee0
    41000b3e:	4101                	.insn	2, 0x4101
    41000b40:	0000                	.insn	2, 0x0000
    41000b42:	0000                	.insn	2, 0x0000
    41000b44:	40d0                	.insn	2, 0x40d0
    41000b46:	4101                	.insn	2, 0x4101
    41000b48:	0000                	.insn	2, 0x0000
    41000b4a:	0000                	.insn	2, 0x0000
    41000b4c:	4b84                	.insn	2, 0x4b84
    41000b4e:	4101                	.insn	2, 0x4101
    41000b50:	0000                	.insn	2, 0x0000
    41000b52:	0000                	.insn	2, 0x0000
    41000b54:	469c                	.insn	2, 0x469c
    41000b56:	4101                	.insn	2, 0x4101
    41000b58:	0000                	.insn	2, 0x0000
    41000b5a:	0000                	.insn	2, 0x0000
    41000b5c:	481c                	.insn	2, 0x481c
    41000b5e:	4101                	.insn	2, 0x4101
    41000b60:	0000                	.insn	2, 0x0000
    41000b62:	0000                	.insn	2, 0x0000
    41000b64:	43f8                	.insn	2, 0x43f8
    41000b66:	4101                	.insn	2, 0x4101
    41000b68:	0000                	.insn	2, 0x0000
    41000b6a:	0000                	.insn	2, 0x0000
    41000b6c:	4dc0                	.insn	2, 0x4dc0
    41000b6e:	4101                	.insn	2, 0x4101
    41000b70:	0000                	.insn	2, 0x0000
    41000b72:	0000                	.insn	2, 0x0000
    41000b74:	4524                	.insn	2, 0x4524
    41000b76:	4101                	.insn	2, 0x4101
    41000b78:	0000                	.insn	2, 0x0000
    41000b7a:	0000                	.insn	2, 0x0000
    41000b7c:	41d8                	.insn	2, 0x41d8
    41000b7e:	4101                	.insn	2, 0x4101
    41000b80:	0000                	.insn	2, 0x0000
    41000b82:	0000                	.insn	2, 0x0000
    41000b84:	4c98                	.insn	2, 0x4c98
    41000b86:	4101                	.insn	2, 0x4101
    41000b88:	0000                	.insn	2, 0x0000
    41000b8a:	0000                	.insn	2, 0x0000
    41000b8c:	42e8                	.insn	2, 0x42e8
    41000b8e:	4101                	.insn	2, 0x4101
    41000b90:	0000                	.insn	2, 0x0000
	...

0000000041000b94 <dtest_descriptor_table>:
    41000b94:	0bf4                	.insn	2, 0x0bf4
    41000b96:	4100                	.insn	2, 0x4100
    41000b98:	0000                	.insn	2, 0x0000
    41000b9a:	0000                	.insn	2, 0x0000
    41000b9c:	0c08                	.insn	2, 0x0c08
    41000b9e:	4100                	.insn	2, 0x4100
    41000ba0:	0000                	.insn	2, 0x0000
    41000ba2:	0000                	.insn	2, 0x0000
    41000ba4:	0c1d                	.insn	2, 0x0c1d
    41000ba6:	4100                	.insn	2, 0x4100
    41000ba8:	0000                	.insn	2, 0x0000
    41000baa:	0000                	.insn	2, 0x0000
    41000bac:	0c30                	.insn	2, 0x0c30
    41000bae:	4100                	.insn	2, 0x4100
    41000bb0:	0000                	.insn	2, 0x0000
    41000bb2:	0000                	.insn	2, 0x0000
    41000bb4:	0c44                	.insn	2, 0x0c44
    41000bb6:	4100                	.insn	2, 0x4100
    41000bb8:	0000                	.insn	2, 0x0000
    41000bba:	0000                	.insn	2, 0x0000
    41000bbc:	0c58                	.insn	2, 0x0c58
    41000bbe:	4100                	.insn	2, 0x4100
    41000bc0:	0000                	.insn	2, 0x0000
    41000bc2:	0000                	.insn	2, 0x0000
    41000bc4:	0c6d                	.insn	2, 0x0c6d
    41000bc6:	4100                	.insn	2, 0x4100
    41000bc8:	0000                	.insn	2, 0x0000
    41000bca:	0000                	.insn	2, 0x0000
    41000bcc:	0c80                	.insn	2, 0x0c80
    41000bce:	4100                	.insn	2, 0x4100
    41000bd0:	0000                	.insn	2, 0x0000
    41000bd2:	0000                	.insn	2, 0x0000
    41000bd4:	0c94                	.insn	2, 0x0c94
    41000bd6:	4100                	.insn	2, 0x4100
    41000bd8:	0000                	.insn	2, 0x0000
    41000bda:	0000                	.insn	2, 0x0000
    41000bdc:	0ca8                	.insn	2, 0x0ca8
    41000bde:	4100                	.insn	2, 0x4100
    41000be0:	0000                	.insn	2, 0x0000
    41000be2:	0000                	.insn	2, 0x0000
    41000be4:	0cbd                	.insn	2, 0x0cbd
    41000be6:	4100                	.insn	2, 0x4100
    41000be8:	0000                	.insn	2, 0x0000
    41000bea:	0000                	.insn	2, 0x0000
    41000bec:	0cd0                	.insn	2, 0x0cd0
    41000bee:	4100                	.insn	2, 0x4100
    41000bf0:	0000                	.insn	2, 0x0000
	...

0000000041000bf4 <dtest_name_0>:
    41000bf4:	5f444953          	.insn	4, 0x5f444953
    41000bf8:	414e5653          	.insn	4, 0x414e5653
    41000bfc:	4f50                	.insn	2, 0x4f50
    41000bfe:	5f54                	.insn	2, 0x5f54
    41000c00:	3030                	.insn	2, 0x3030
    41000c02:	4c5f 414f 0044      	.insn	6, 0x0044414f4c5f

0000000041000c08 <dtest_name_1>:
    41000c08:	5f444953          	.insn	4, 0x5f444953
    41000c0c:	414e5653          	.insn	4, 0x414e5653
    41000c10:	4f50                	.insn	2, 0x4f50
    41000c12:	5f54                	.insn	2, 0x5f54
    41000c14:	3030                	.insn	2, 0x3030
    41000c16:	535f 4f54 4552      	.insn	6, 0x45524f54535f
	...

0000000041000c1d <dtest_name_2>:
    41000c1d:	5f444953          	.insn	4, 0x5f444953
    41000c21:	414e5653          	.insn	4, 0x414e5653
    41000c25:	4f50                	.insn	2, 0x4f50
    41000c27:	5f54                	.insn	2, 0x5f54
    41000c29:	3030                	.insn	2, 0x3030
    41000c2b:	415f 4f4d       	.insn	6, 0x53004f4d415f

0000000041000c30 <dtest_name_3>:
    41000c30:	5f444953          	.insn	4, 0x5f444953
    41000c34:	414e5653          	.insn	4, 0x414e5653
    41000c38:	4f50                	.insn	2, 0x4f50
    41000c3a:	5f54                	.insn	2, 0x5f54
    41000c3c:	3030                	.insn	2, 0x3030
    41000c3e:	4c5f 5352 0043      	.insn	6, 0x004353524c5f

0000000041000c44 <dtest_name_4>:
    41000c44:	5f444953          	.insn	4, 0x5f444953
    41000c48:	414e5653          	.insn	4, 0x414e5653
    41000c4c:	4f50                	.insn	2, 0x4f50
    41000c4e:	5f54                	.insn	2, 0x5f54
    41000c50:	3130                	.insn	2, 0x3130
    41000c52:	4c5f 414f 0044      	.insn	6, 0x0044414f4c5f

0000000041000c58 <dtest_name_5>:
    41000c58:	5f444953          	.insn	4, 0x5f444953
    41000c5c:	414e5653          	.insn	4, 0x414e5653
    41000c60:	4f50                	.insn	2, 0x4f50
    41000c62:	5f54                	.insn	2, 0x5f54
    41000c64:	3130                	.insn	2, 0x3130
    41000c66:	535f 4f54 4552      	.insn	6, 0x45524f54535f
	...

0000000041000c6d <dtest_name_6>:
    41000c6d:	5f444953          	.insn	4, 0x5f444953
    41000c71:	414e5653          	.insn	4, 0x414e5653
    41000c75:	4f50                	.insn	2, 0x4f50
    41000c77:	5f54                	.insn	2, 0x5f54
    41000c79:	3130                	.insn	2, 0x3130
    41000c7b:	415f 4f4d       	.insn	6, 0x53004f4d415f

0000000041000c80 <dtest_name_7>:
    41000c80:	5f444953          	.insn	4, 0x5f444953
    41000c84:	414e5653          	.insn	4, 0x414e5653
    41000c88:	4f50                	.insn	2, 0x4f50
    41000c8a:	5f54                	.insn	2, 0x5f54
    41000c8c:	3130                	.insn	2, 0x3130
    41000c8e:	4c5f 5352 0043      	.insn	6, 0x004353524c5f

0000000041000c94 <dtest_name_8>:
    41000c94:	5f444953          	.insn	4, 0x5f444953
    41000c98:	414e5653          	.insn	4, 0x414e5653
    41000c9c:	4f50                	.insn	2, 0x4f50
    41000c9e:	5f54                	.insn	2, 0x5f54
    41000ca0:	3230                	.insn	2, 0x3230
    41000ca2:	4c5f 414f 0044      	.insn	6, 0x0044414f4c5f

0000000041000ca8 <dtest_name_9>:
    41000ca8:	5f444953          	.insn	4, 0x5f444953
    41000cac:	414e5653          	.insn	4, 0x414e5653
    41000cb0:	4f50                	.insn	2, 0x4f50
    41000cb2:	5f54                	.insn	2, 0x5f54
    41000cb4:	3230                	.insn	2, 0x3230
    41000cb6:	535f 4f54 4552      	.insn	6, 0x45524f54535f
	...

0000000041000cbd <dtest_name_10>:
    41000cbd:	5f444953          	.insn	4, 0x5f444953
    41000cc1:	414e5653          	.insn	4, 0x414e5653
    41000cc5:	4f50                	.insn	2, 0x4f50
    41000cc7:	5f54                	.insn	2, 0x5f54
    41000cc9:	3230                	.insn	2, 0x3230
    41000ccb:	415f 4f4d       	.insn	6, 0x53004f4d415f

0000000041000cd0 <dtest_name_11>:
    41000cd0:	5f444953          	.insn	4, 0x5f444953
    41000cd4:	414e5653          	.insn	4, 0x414e5653
    41000cd8:	4f50                	.insn	2, 0x4f50
    41000cda:	5f54                	.insn	2, 0x5f54
    41000cdc:	3230                	.insn	2, 0x3230
    41000cde:	4c5f 5352 0043      	.insn	6, 0x004353524c5f

0000000041000ce4 <dtest_index_map>:
    41000ce4:	ffff                	.insn	2, 0xffff
    41000ce6:	ffff                	.insn	2, 0xffff
    41000ce8:	00000007          	vle8.v	v0,(x0),v0.t
    41000cec:	0000000b          	.insn	4, 0x000b
    41000cf0:	0000                	.insn	2, 0x0000
    41000cf2:	0000                	.insn	2, 0x0000
    41000cf4:	0008                	.insn	2, 0x0008
    41000cf6:	0000                	.insn	2, 0x0000
    41000cf8:	0005                	.insn	2, 0x0005
    41000cfa:	0000                	.insn	2, 0x0000
    41000cfc:	0006                	.insn	2, 0x0006
    41000cfe:	0000                	.insn	2, 0x0000
    41000d00:	00000003          	lb	x0,0(x0) # 0 <ALL_4KB_PAGES>
    41000d04:	000a                	.insn	2, 0x000a
    41000d06:	0000                	.insn	2, 0x0000
    41000d08:	0004                	.insn	2, 0x0004
    41000d0a:	0000                	.insn	2, 0x0000
    41000d0c:	0001                	.insn	2, 0x0001
    41000d0e:	0000                	.insn	2, 0x0000
    41000d10:	0009                	.insn	2, 0x0009
    41000d12:	0000                	.insn	2, 0x0000
    41000d14:	0002                	.insn	2, 0x0002
    41000d16:	0000                	.insn	2, 0x0000
    41000d18:	0000                	.insn	2, 0x0000
	...

0000000041000d1c <scheduler__test_setup_ptr>:
    41000d1c:	40c0                	.insn	2, 0x40c0
    41000d1e:	4101                	.insn	2, 0x4101
    41000d20:	0000                	.insn	2, 0x0000
	...

0000000041000d24 <scheduler__test_cleanup_ptr>:
    41000d24:	5010                	.insn	2, 0x5010
    41000d26:	4101                	.insn	2, 0x4101
    41000d28:	0000                	.insn	2, 0x0000
	...

Disassembly of section .runtime_s:

0000000041010000 <trap_handler_s__invalid_interrupt>:
    41010000:	1740006f          	j	41010174 <trap_handler_s__test_failed>

0000000041010004 <trap_handler_s__clear_all_interrupts>:
    41010004:	14401073          	csrw	sip,x0
    41010008:	10200073          	sret

000000004101000c <trap_handler_s___CLEAR_SSI>:
    4101000c:	00200293          	li	x5,2
    41010010:	1442b073          	csrc	sip,x5
    41010014:	10200073          	sret

0000000041010018 <trap_handler_s___CLEAR_MSI>:
    41010018:	00800293          	li	x5,8
    4101001c:	1442b073          	csrc	sip,x5
    41010020:	10200073          	sret

0000000041010024 <trap_handler_s___CLEAR_STI>:
    41010024:	02000293          	li	x5,32
    41010028:	1442b073          	csrc	sip,x5
    4101002c:	10200073          	sret

0000000041010030 <trap_handler_s___CLEAR_MTI>:
    41010030:	08000293          	li	x5,128
    41010034:	1442b073          	csrc	sip,x5
    41010038:	10200073          	sret

000000004101003c <trap_handler_s___CLEAR_SEI>:
    4101003c:	20000293          	li	x5,512
    41010040:	1442b073          	csrc	sip,x5
    41010044:	10200073          	sret

0000000041010048 <trap_handler_s___CLEAR_MEI>:
    41010048:	000012b7          	lui	x5,0x1
    4101004c:	8002829b          	addiw	x5,x5,-2048 # 800 <XLEN+0x7c0>
    41010050:	1442b073          	csrc	sip,x5
    41010054:	10200073          	sret

0000000041010058 <trap_handler_s___CLEAR_COI>:
    41010058:	000022b7          	lui	x5,0x2
    4101005c:	1442b073          	csrc	sip,x5
    41010060:	10200073          	sret

0000000041010064 <trap_handler_s__clear_highest_priority_interrupt>:
    41010064:	144022f3          	csrr	x5,sip
    41010068:	40500333          	neg	x6,x5
    4101006c:	0062f2b3          	and	x5,x5,x6
    41010070:	1442b073          	csrc	sip,x5
    41010074:	10200073          	sret

0000000041010078 <trap_handler_s__trap_entry>:
    41010078:	10c0006f          	j	41010184 <trap_handler_s__trap_handler>

000000004101007c <trap_handler_s__interrupt_vector_table>:
    4101007c:	f91ff06f          	j	4101000c <trap_handler_s___CLEAR_SSI>
    41010080:	f81ff06f          	j	41010000 <trap_handler_s__invalid_interrupt>
    41010084:	f95ff06f          	j	41010018 <trap_handler_s___CLEAR_MSI>
    41010088:	f79ff06f          	j	41010000 <trap_handler_s__invalid_interrupt>
    4101008c:	f99ff06f          	j	41010024 <trap_handler_s___CLEAR_STI>
    41010090:	f71ff06f          	j	41010000 <trap_handler_s__invalid_interrupt>
    41010094:	f9dff06f          	j	41010030 <trap_handler_s___CLEAR_MTI>
    41010098:	f69ff06f          	j	41010000 <trap_handler_s__invalid_interrupt>
    4101009c:	fa1ff06f          	j	4101003c <trap_handler_s___CLEAR_SEI>
    410100a0:	f61ff06f          	j	41010000 <trap_handler_s__invalid_interrupt>
    410100a4:	fa5ff06f          	j	41010048 <trap_handler_s___CLEAR_MEI>
    410100a8:	f59ff06f          	j	41010000 <trap_handler_s__invalid_interrupt>
    410100ac:	fadff06f          	j	41010058 <trap_handler_s___CLEAR_COI>
    410100b0:	f51ff06f          	j	41010000 <trap_handler_s__invalid_interrupt>
    410100b4:	f4dff06f          	j	41010000 <trap_handler_s__invalid_interrupt>
    410100b8:	fadff06f          	j	41010064 <trap_handler_s__clear_highest_priority_interrupt>
    410100bc:	fa9ff06f          	j	41010064 <trap_handler_s__clear_highest_priority_interrupt>
    410100c0:	fa5ff06f          	j	41010064 <trap_handler_s__clear_highest_priority_interrupt>
    410100c4:	fa1ff06f          	j	41010064 <trap_handler_s__clear_highest_priority_interrupt>
    410100c8:	f9dff06f          	j	41010064 <trap_handler_s__clear_highest_priority_interrupt>
    410100cc:	f99ff06f          	j	41010064 <trap_handler_s__clear_highest_priority_interrupt>
    410100d0:	f95ff06f          	j	41010064 <trap_handler_s__clear_highest_priority_interrupt>
    410100d4:	f91ff06f          	j	41010064 <trap_handler_s__clear_highest_priority_interrupt>
    410100d8:	f8dff06f          	j	41010064 <trap_handler_s__clear_highest_priority_interrupt>
    410100dc:	f89ff06f          	j	41010064 <trap_handler_s__clear_highest_priority_interrupt>
    410100e0:	f85ff06f          	j	41010064 <trap_handler_s__clear_highest_priority_interrupt>
    410100e4:	f81ff06f          	j	41010064 <trap_handler_s__clear_highest_priority_interrupt>
    410100e8:	f7dff06f          	j	41010064 <trap_handler_s__clear_highest_priority_interrupt>
    410100ec:	f79ff06f          	j	41010064 <trap_handler_s__clear_highest_priority_interrupt>
    410100f0:	f75ff06f          	j	41010064 <trap_handler_s__clear_highest_priority_interrupt>
    410100f4:	f71ff06f          	j	41010064 <trap_handler_s__clear_highest_priority_interrupt>
    410100f8:	f6dff06f          	j	41010064 <trap_handler_s__clear_highest_priority_interrupt>
    410100fc:	f69ff06f          	j	41010064 <trap_handler_s__clear_highest_priority_interrupt>
    41010100:	f65ff06f          	j	41010064 <trap_handler_s__clear_highest_priority_interrupt>
    41010104:	f61ff06f          	j	41010064 <trap_handler_s__clear_highest_priority_interrupt>
    41010108:	f5dff06f          	j	41010064 <trap_handler_s__clear_highest_priority_interrupt>
    4101010c:	f59ff06f          	j	41010064 <trap_handler_s__clear_highest_priority_interrupt>
    41010110:	f55ff06f          	j	41010064 <trap_handler_s__clear_highest_priority_interrupt>
    41010114:	f51ff06f          	j	41010064 <trap_handler_s__clear_highest_priority_interrupt>
    41010118:	f4dff06f          	j	41010064 <trap_handler_s__clear_highest_priority_interrupt>
    4101011c:	f49ff06f          	j	41010064 <trap_handler_s__clear_highest_priority_interrupt>
    41010120:	f45ff06f          	j	41010064 <trap_handler_s__clear_highest_priority_interrupt>
    41010124:	f41ff06f          	j	41010064 <trap_handler_s__clear_highest_priority_interrupt>
    41010128:	f3dff06f          	j	41010064 <trap_handler_s__clear_highest_priority_interrupt>
    4101012c:	f39ff06f          	j	41010064 <trap_handler_s__clear_highest_priority_interrupt>
    41010130:	f35ff06f          	j	41010064 <trap_handler_s__clear_highest_priority_interrupt>
    41010134:	f31ff06f          	j	41010064 <trap_handler_s__clear_highest_priority_interrupt>
    41010138:	f2dff06f          	j	41010064 <trap_handler_s__clear_highest_priority_interrupt>
    4101013c:	f29ff06f          	j	41010064 <trap_handler_s__clear_highest_priority_interrupt>
    41010140:	f25ff06f          	j	41010064 <trap_handler_s__clear_highest_priority_interrupt>
    41010144:	f21ff06f          	j	41010064 <trap_handler_s__clear_highest_priority_interrupt>
    41010148:	f1dff06f          	j	41010064 <trap_handler_s__clear_highest_priority_interrupt>
    4101014c:	f19ff06f          	j	41010064 <trap_handler_s__clear_highest_priority_interrupt>
    41010150:	f15ff06f          	j	41010064 <trap_handler_s__clear_highest_priority_interrupt>
    41010154:	f11ff06f          	j	41010064 <trap_handler_s__clear_highest_priority_interrupt>
    41010158:	f0dff06f          	j	41010064 <trap_handler_s__clear_highest_priority_interrupt>
    4101015c:	f09ff06f          	j	41010064 <trap_handler_s__clear_highest_priority_interrupt>
    41010160:	f05ff06f          	j	41010064 <trap_handler_s__clear_highest_priority_interrupt>
    41010164:	f01ff06f          	j	41010064 <trap_handler_s__clear_highest_priority_interrupt>
    41010168:	efdff06f          	j	41010064 <trap_handler_s__clear_highest_priority_interrupt>
    4101016c:	ef9ff06f          	j	41010064 <trap_handler_s__clear_highest_priority_interrupt>
    41010170:	ef5ff06f          	j	41010064 <trap_handler_s__clear_highest_priority_interrupt>

0000000041010174 <trap_handler_s__test_failed>:
    41010174:	00f00f9b          	addiw	x31,x0,15
    41010178:	01cf9f93          	slli	x31,x31,0x1c
    4101017c:	002f8f93          	addi	x31,x31,2
    41010180:	00000073          	ecall

0000000041010184 <trap_handler_s__trap_handler>:
    41010184:	142022f3          	csrr	x5,scause
    41010188:	fff0031b          	addiw	x6,x0,-1
    4101018c:	03f31313          	slli	x6,x6,0x3f
    41010190:	00537333          	and	x6,x6,x5
    41010194:	02030263          	beqz	x6,410101b8 <trap_handler_s__exception_path>

0000000041010198 <trap_handler_s__interrupt_handler>:
    41010198:	fff0031b          	addiw	x6,x0,-1
    4101019c:	03f31313          	slli	x6,x6,0x3f
    410101a0:	0062c2b3          	xor	x5,x5,x6
    410101a4:	00000317          	auipc	x6,0x0
    410101a8:	ed430313          	addi	x6,x6,-300 # 41010078 <trap_handler_s__trap_entry>
    410101ac:	00229293          	slli	x5,x5,0x2
    410101b0:	005302b3          	add	x5,x6,x5
    410101b4:	00028067          	jr	x5 # 2000 <mem7__pt_level0>

00000000410101b8 <trap_handler_s__exception_path>:
    410101b8:	14021273          	csrrw	x4,sscratch,x4
    410101bc:	00000297          	auipc	x5,0x0
    410101c0:	0cc28293          	addi	x5,x5,204 # 41010288 <trap_handler_s__trap_panic>
    410101c4:	10529073          	csrw	stvec,x5
    410101c8:	0040006f          	j	410101cc <trap_handler_s__excp_entry>

00000000410101cc <trap_handler_s__excp_entry>:
    410101cc:	14202373          	csrr	x6,scause
    410101d0:	00800293          	li	x5,8
    410101d4:	00534863          	blt	x6,x5,410101e4 <trap_handler_s__check_exception_label>
    410101d8:	00b00293          	li	x5,11
    410101dc:	0062c463          	blt	x5,x6,410101e4 <trap_handler_s__check_exception_label>
    410101e0:	0a80006f          	j	41010288 <trap_handler_s__trap_panic>

00000000410101e4 <trap_handler_s__check_exception_label>:
    410101e4:	04623c23          	sd	x6,88(x4) # 58 <XLEN+0x18>
    410101e8:	141022f3          	csrr	x5,sepc
    410101ec:	02523423          	sd	x5,40(x4) # 28 <SECURE_ACCESS_PROBABILITY+0xa>
    410101f0:	01820283          	lb	x5,24(x4) # 18 <STORE_GUEST_PAGE_FAULT+0x1>
    410101f4:	00029863          	bnez	x5,41010204 <trap_handler_s__check_excp>
    410101f8:	00128293          	addi	x5,x5,1
    410101fc:	00520c23          	sb	x5,24(x4) # 18 <STORE_GUEST_PAGE_FAULT+0x1>
    41010200:	05c0006f          	j	4101025c <trap_handler_s__ecall_from_machine>

0000000041010204 <trap_handler_s__check_excp>:
    41010204:	06823283          	ld	x5,104(x4) # 68 <XLEN+0x28>
    41010208:	06023423          	sd	x0,104(x4) # 68 <XLEN+0x28>
    4101020c:	00028663          	beqz	x5,41010218 <trap_handler_s__skip_mode_check>
    41010210:	00300393          	li	x7,3
    41010214:	f67290e3          	bne	x5,x7,41010174 <trap_handler_s__test_failed>

0000000041010218 <trap_handler_s__skip_mode_check>:
    41010218:	05023283          	ld	x5,80(x4) # 50 <XLEN+0x10>
    4101021c:	04023823          	sd	x0,80(x4) # 50 <XLEN+0x10>
    41010220:	f4531ae3          	bne	x6,x5,41010174 <trap_handler_s__test_failed>
    41010224:	03823283          	ld	x5,56(x4) # 38 <SECURE_ACCESS_PROBABILITY+0x1a>
    41010228:	02023c23          	sd	x0,56(x4) # 38 <SECURE_ACCESS_PROBABILITY+0x1a>
    4101022c:	02029663          	bnez	x5,41010258 <trap_handler_s__skip_nonzero_tval_check>
    41010230:	02023303          	ld	x6,32(x4) # 20 <SECURE_ACCESS_PROBABILITY+0x2>
    41010234:	02023023          	sd	x0,32(x4) # 20 <SECURE_ACCESS_PROBABILITY+0x2>
    41010238:	02823283          	ld	x5,40(x4) # 28 <SECURE_ACCESS_PROBABILITY+0xa>
    4101023c:	02023423          	sd	x0,40(x4) # 28 <SECURE_ACCESS_PROBABILITY+0xa>
    41010240:	f2531ae3          	bne	x6,x5,41010174 <trap_handler_s__test_failed>
    41010244:	04023283          	ld	x5,64(x4) # 40 <XLEN>
    41010248:	04023023          	sd	x0,64(x4) # 40 <XLEN>
    4101024c:	00028663          	beqz	x5,41010258 <trap_handler_s__skip_nonzero_tval_check>

0000000041010250 <trap_handler_s__nonzero_tval_check>:
    41010250:	14302373          	csrr	x6,stval
    41010254:	f25310e3          	bne	x6,x5,41010174 <trap_handler_s__test_failed>

0000000041010258 <trap_handler_s__skip_nonzero_tval_check>:
    41010258:	0040006f          	j	4101025c <trap_handler_s__ecall_from_machine>

000000004101025c <trap_handler_s__ecall_from_machine>:
    4101025c:	03023283          	ld	x5,48(x4) # 30 <SECURE_ACCESS_PROBABILITY+0x12>
    41010260:	02023823          	sd	x0,48(x4) # 30 <SECURE_ACCESS_PROBABILITY+0x12>
    41010264:	07023303          	ld	x6,112(x4) # 70 <XLEN+0x30>
    41010268:	06023823          	sd	x0,112(x4) # 70 <XLEN+0x30>
    4101026c:	00031463          	bnez	x6,41010274 <trap_handler_s__skip_xepc_write>
    41010270:	14129073          	csrw	sepc,x5

0000000041010274 <trap_handler_s__skip_xepc_write>:
    41010274:	00000317          	auipc	x6,0x0
    41010278:	e0430313          	addi	x6,x6,-508 # 41010078 <trap_handler_s__trap_entry>
    4101027c:	10531073          	csrw	stvec,x6
    41010280:	14021273          	csrrw	x4,sscratch,x4
    41010284:	10200073          	sret

0000000041010288 <trap_handler_s__trap_panic>:
    41010288:	00000193          	li	x3,0
    4101028c:	00f00f9b          	addiw	x31,x0,15
    41010290:	01cf9f93          	slli	x31,x31,0x1c
    41010294:	002f8f93          	addi	x31,x31,2
    41010298:	00000073          	ecall

Disassembly of section .code:

0000000041014090 <passed>:
    41014090:	00f00f9b          	addiw	x31,x0,15
    41014094:	01cf9f93          	slli	x31,x31,0x1c
    41014098:	001f8f93          	addi	x31,x31,1
    4101409c:	00000073          	ecall

00000000410140a0 <failed>:
    410140a0:	00f00f9b          	addiw	x31,x0,15
    410140a4:	01cf9f93          	slli	x31,x31,0x1c
    410140a8:	002f8f93          	addi	x31,x31,2
    410140ac:	00000073          	ecall

00000000410140b0 <end_test>:
    410140b0:	00f00f9b          	addiw	x31,x0,15
    410140b4:	01cf9f93          	slli	x31,x31,0x1c
    410140b8:	003f8f93          	addi	x31,x31,3
    410140bc:	00000073          	ecall

00000000410140c0 <test_setup>:
    410140c0:	00f00f9b          	addiw	x31,x0,15
    410140c4:	01cf9f93          	slli	x31,x31,0x1c
    410140c8:	001f8f93          	addi	x31,x31,1
    410140cc:	00000073          	ecall

00000000410140d0 <SID_SVNAPOT_00_LOAD>:
    410140d0:	3f2c6137          	lui	x2,0x3f2c6
    410140d4:	000012b7          	lui	x5,0x1
    410140d8:	00510133          	add	x2,x2,x5
    410140dc:	ff017113          	andi	x2,x2,-16
    410140e0:	00058fb7          	lui	x31,0x58
    410140e4:	0b0f8f9b          	addiw	x31,x31,176 # 580b0 <pte_access_flags>
    410140e8:	0010029b          	addiw	x5,x0,1
    410140ec:	02229293          	slli	x5,x5,0x22
    410140f0:	005fb023          	sd	x5,0(x31)
    410140f4:	00200293          	li	x5,2
    410140f8:	005fb423          	sd	x5,8(x31)
    410140fc:	fff00293          	li	x5,-1
    41014100:	005fb823          	sd	x5,16(x31)
    41014104:	000f0fb7          	lui	x31,0xf0
    41014108:	001f8f9b          	addiw	x31,x31,1 # f0001 <mem3__pt_level2+0x27fe1>
    4101410c:	00cf9f93          	slli	x31,x31,0xc
    41014110:	007f8f93          	addi	x31,x31,7
    41014114:	00000073          	ecall
    41014118:	00038813          	mv	x16,x7
    4101411c:	0010051b          	addiw	x10,x0,1
    41014120:	03151513          	slli	x10,x10,0x31
    41014124:	fff50513          	addi	x10,x10,-1
    41014128:	00e51513          	slli	x10,x10,0xe
    4101412c:	3ff50513          	addi	x10,x10,1023
    41014130:	00a87c33          	and	x24,x16,x10
    41014134:	00002bb7          	lui	x23,0x2
    41014138:	017c6d33          	or	x26,x24,x23
    4101413c:	000d0393          	mv	x7,x26
    41014140:	00058fb7          	lui	x31,0x58
    41014144:	0b0f8f9b          	addiw	x31,x31,176 # 580b0 <pte_access_flags>
    41014148:	0010029b          	addiw	x5,x0,1
    4101414c:	02229293          	slli	x5,x5,0x22
    41014150:	005fb023          	sd	x5,0(x31)
    41014154:	00200293          	li	x5,2
    41014158:	005fb423          	sd	x5,8(x31)
    4101415c:	fff00293          	li	x5,-1
    41014160:	005fb823          	sd	x5,16(x31)
    41014164:	000f0fb7          	lui	x31,0xf0
    41014168:	001f8f9b          	addiw	x31,x31,1 # f0001 <mem3__pt_level2+0x27fe1>
    4101416c:	00cf9f93          	slli	x31,x31,0xc
    41014170:	008f8f93          	addi	x31,x31,8
    41014174:	00000073          	ecall
    41014178:	12000073          	sfence.vma
    4101417c:	0010051b          	addiw	x10,x0,1
    41014180:	02251513          	slli	x10,x10,0x22
    41014184:	00054a83          	lbu	x21,0(x10)
    41014188:	00080393          	mv	x7,x16
    4101418c:	00058fb7          	lui	x31,0x58
    41014190:	0b0f8f9b          	addiw	x31,x31,176 # 580b0 <pte_access_flags>
    41014194:	0010029b          	addiw	x5,x0,1
    41014198:	02229293          	slli	x5,x5,0x22
    4101419c:	005fb023          	sd	x5,0(x31)
    410141a0:	00200293          	li	x5,2
    410141a4:	005fb423          	sd	x5,8(x31)
    410141a8:	fff00293          	li	x5,-1
    410141ac:	005fb823          	sd	x5,16(x31)
    410141b0:	000f0fb7          	lui	x31,0xf0
    410141b4:	001f8f9b          	addiw	x31,x31,1 # f0001 <mem3__pt_level2+0x27fe1>
    410141b8:	00cf9f93          	slli	x31,x31,0xc
    410141bc:	008f8f93          	addi	x31,x31,8
    410141c0:	00000073          	ecall
    410141c4:	12000073          	sfence.vma

00000000410141c8 <SID_SVNAPOT_00_LOAD_passed>:
    410141c8:	00f00f9b          	addiw	x31,x0,15
    410141cc:	01cf9f93          	slli	x31,x31,0x1c
    410141d0:	001f8f93          	addi	x31,x31,1
    410141d4:	00000073          	ecall

00000000410141d8 <SID_SVNAPOT_00_STORE>:
    410141d8:	00110137          	lui	x2,0x110
    410141dc:	000012b7          	lui	x5,0x1
    410141e0:	00510133          	add	x2,x2,x5
    410141e4:	ff017113          	andi	x2,x2,-16
    410141e8:	00058fb7          	lui	x31,0x58
    410141ec:	0b0f8f9b          	addiw	x31,x31,176 # 580b0 <pte_access_flags>
    410141f0:	fab0029b          	addiw	x5,x0,-85
    410141f4:	01e29293          	slli	x5,x5,0x1e
    410141f8:	005fb023          	sd	x5,0(x31)
    410141fc:	00200293          	li	x5,2
    41014200:	005fb423          	sd	x5,8(x31)
    41014204:	fff00293          	li	x5,-1
    41014208:	005fb823          	sd	x5,16(x31)
    4101420c:	000f0fb7          	lui	x31,0xf0
    41014210:	001f8f9b          	addiw	x31,x31,1 # f0001 <mem3__pt_level2+0x27fe1>
    41014214:	00cf9f93          	slli	x31,x31,0xc
    41014218:	007f8f93          	addi	x31,x31,7
    4101421c:	00000073          	ecall
    41014220:	00038b93          	mv	x23,x7
    41014224:	0010031b          	addiw	x6,x0,1
    41014228:	03131313          	slli	x6,x6,0x31
    4101422c:	fff30313          	addi	x6,x6,-1
    41014230:	00e31313          	slli	x6,x6,0xe
    41014234:	3ff30313          	addi	x6,x6,1023
    41014238:	006bfa33          	and	x20,x23,x6
    4101423c:	00002b37          	lui	x22,0x2
    41014240:	016a6f33          	or	x30,x20,x22
    41014244:	000f0393          	mv	x7,x30
    41014248:	00058fb7          	lui	x31,0x58
    4101424c:	0b0f8f9b          	addiw	x31,x31,176 # 580b0 <pte_access_flags>
    41014250:	fab0029b          	addiw	x5,x0,-85
    41014254:	01e29293          	slli	x5,x5,0x1e
    41014258:	005fb023          	sd	x5,0(x31)
    4101425c:	00200293          	li	x5,2
    41014260:	005fb423          	sd	x5,8(x31)
    41014264:	fff00293          	li	x5,-1
    41014268:	005fb823          	sd	x5,16(x31)
    4101426c:	000f0fb7          	lui	x31,0xf0
    41014270:	001f8f9b          	addiw	x31,x31,1 # f0001 <mem3__pt_level2+0x27fe1>
    41014274:	00cf9f93          	slli	x31,x31,0xc
    41014278:	008f8f93          	addi	x31,x31,8
    4101427c:	00000073          	ecall
    41014280:	12000073          	sfence.vma
    41014284:	fab0039b          	addiw	x7,x0,-85
    41014288:	01e39393          	slli	x7,x7,0x1e
    4101428c:	18073437          	lui	x8,0x18073
    41014290:	e8f4041b          	addiw	x8,x8,-369 # 18072e8f <SID_SVNAPOT_00_AMO_stack+0x1efde8f>
    41014294:	0083b023          	sd	x8,0(x7)
    41014298:	000b8393          	mv	x7,x23
    4101429c:	00058fb7          	lui	x31,0x58
    410142a0:	0b0f8f9b          	addiw	x31,x31,176 # 580b0 <pte_access_flags>
    410142a4:	fab0029b          	addiw	x5,x0,-85
    410142a8:	01e29293          	slli	x5,x5,0x1e
    410142ac:	005fb023          	sd	x5,0(x31)
    410142b0:	00200293          	li	x5,2
    410142b4:	005fb423          	sd	x5,8(x31)
    410142b8:	fff00293          	li	x5,-1
    410142bc:	005fb823          	sd	x5,16(x31)
    410142c0:	000f0fb7          	lui	x31,0xf0
    410142c4:	001f8f9b          	addiw	x31,x31,1 # f0001 <mem3__pt_level2+0x27fe1>
    410142c8:	00cf9f93          	slli	x31,x31,0xc
    410142cc:	008f8f93          	addi	x31,x31,8
    410142d0:	00000073          	ecall
    410142d4:	12000073          	sfence.vma

00000000410142d8 <SID_SVNAPOT_00_STORE_passed>:
    410142d8:	00f00f9b          	addiw	x31,x0,15
    410142dc:	01cf9f93          	slli	x31,x31,0x1c
    410142e0:	001f8f93          	addi	x31,x31,1
    410142e4:	00000073          	ecall

00000000410142e8 <SID_SVNAPOT_00_AMO>:
    410142e8:	16175137          	lui	x2,0x16175
    410142ec:	000012b7          	lui	x5,0x1
    410142f0:	00510133          	add	x2,x2,x5
    410142f4:	ff017113          	andi	x2,x2,-16
    410142f8:	00058fb7          	lui	x31,0x58
    410142fc:	0b0f8f9b          	addiw	x31,x31,176 # 580b0 <pte_access_flags>
    41014300:	0730029b          	addiw	x5,x0,115
    41014304:	01e29293          	slli	x5,x5,0x1e
    41014308:	005fb023          	sd	x5,0(x31)
    4101430c:	00200293          	li	x5,2
    41014310:	005fb423          	sd	x5,8(x31)
    41014314:	fff00293          	li	x5,-1
    41014318:	005fb823          	sd	x5,16(x31)
    4101431c:	000f0fb7          	lui	x31,0xf0
    41014320:	001f8f9b          	addiw	x31,x31,1 # f0001 <mem3__pt_level2+0x27fe1>
    41014324:	00cf9f93          	slli	x31,x31,0xc
    41014328:	007f8f93          	addi	x31,x31,7
    4101432c:	00000073          	ecall
    41014330:	00038b13          	mv	x22,x7
    41014334:	0010079b          	addiw	x15,x0,1
    41014338:	03179793          	slli	x15,x15,0x31
    4101433c:	fff78793          	addi	x15,x15,-1
    41014340:	00e79793          	slli	x15,x15,0xe
    41014344:	3ff78793          	addi	x15,x15,1023
    41014348:	00fb73b3          	and	x7,x22,x15
    4101434c:	00002737          	lui	x14,0x2
    41014350:	00e3ee33          	or	x28,x7,x14
    41014354:	000e0393          	mv	x7,x28
    41014358:	00058fb7          	lui	x31,0x58
    4101435c:	0b0f8f9b          	addiw	x31,x31,176 # 580b0 <pte_access_flags>
    41014360:	0730029b          	addiw	x5,x0,115
    41014364:	01e29293          	slli	x5,x5,0x1e
    41014368:	005fb023          	sd	x5,0(x31)
    4101436c:	00200293          	li	x5,2
    41014370:	005fb423          	sd	x5,8(x31)
    41014374:	fff00293          	li	x5,-1
    41014378:	005fb823          	sd	x5,16(x31)
    4101437c:	000f0fb7          	lui	x31,0xf0
    41014380:	001f8f9b          	addiw	x31,x31,1 # f0001 <mem3__pt_level2+0x27fe1>
    41014384:	00cf9f93          	slli	x31,x31,0xc
    41014388:	008f8f93          	addi	x31,x31,8
    4101438c:	00000073          	ecall
    41014390:	12000073          	sfence.vma
    41014394:	0730051b          	addiw	x10,x0,115
    41014398:	01e51513          	slli	x10,x10,0x1e
    4101439c:	00000a13          	li	x20,0
    410143a0:	01450333          	add	x6,x10,x20
    410143a4:	0803242f          	amoswap.w	x8,x0,(x6)
    410143a8:	000b0393          	mv	x7,x22
    410143ac:	00058fb7          	lui	x31,0x58
    410143b0:	0b0f8f9b          	addiw	x31,x31,176 # 580b0 <pte_access_flags>
    410143b4:	0730029b          	addiw	x5,x0,115
    410143b8:	01e29293          	slli	x5,x5,0x1e
    410143bc:	005fb023          	sd	x5,0(x31)
    410143c0:	00200293          	li	x5,2
    410143c4:	005fb423          	sd	x5,8(x31)
    410143c8:	fff00293          	li	x5,-1
    410143cc:	005fb823          	sd	x5,16(x31)
    410143d0:	000f0fb7          	lui	x31,0xf0
    410143d4:	001f8f9b          	addiw	x31,x31,1 # f0001 <mem3__pt_level2+0x27fe1>
    410143d8:	00cf9f93          	slli	x31,x31,0xc
    410143dc:	008f8f93          	addi	x31,x31,8
    410143e0:	00000073          	ecall
    410143e4:	12000073          	sfence.vma

00000000410143e8 <SID_SVNAPOT_00_AMO_passed>:
    410143e8:	00f00f9b          	addiw	x31,x0,15
    410143ec:	01cf9f93          	slli	x31,x31,0x1c
    410143f0:	001f8f93          	addi	x31,x31,1
    410143f4:	00000073          	ecall

00000000410143f8 <SID_SVNAPOT_00_LRSC>:
    410143f8:	000b9137          	lui	x2,0xb9
    410143fc:	daf1011b          	addiw	x2,x2,-593 # b8daf <__section_os_data_1+0x5fdaf>
    41014400:	00c11113          	slli	x2,x2,0xc
    41014404:	000012b7          	lui	x5,0x1
    41014408:	00510133          	add	x2,x2,x5
    4101440c:	ff017113          	andi	x2,x2,-16
    41014410:	00058fb7          	lui	x31,0x58
    41014414:	0b0f8f9b          	addiw	x31,x31,176 # 580b0 <pte_access_flags>
    41014418:	0010029b          	addiw	x5,x0,1
    4101441c:	02029293          	slli	x5,x5,0x20
    41014420:	005fb023          	sd	x5,0(x31)
    41014424:	00200293          	li	x5,2
    41014428:	005fb423          	sd	x5,8(x31)
    4101442c:	fff00293          	li	x5,-1
    41014430:	005fb823          	sd	x5,16(x31)
    41014434:	000f0fb7          	lui	x31,0xf0
    41014438:	001f8f9b          	addiw	x31,x31,1 # f0001 <mem3__pt_level2+0x27fe1>
    4101443c:	00cf9f93          	slli	x31,x31,0xc
    41014440:	007f8f93          	addi	x31,x31,7
    41014444:	00000073          	ecall
    41014448:	00038413          	mv	x8,x7
    4101444c:	00100e1b          	addiw	x28,x0,1
    41014450:	031e1e13          	slli	x28,x28,0x31
    41014454:	fffe0e13          	addi	x28,x28,-1
    41014458:	00ee1e13          	slli	x28,x28,0xe
    4101445c:	3ffe0e13          	addi	x28,x28,1023
    41014460:	01c47cb3          	and	x25,x8,x28
    41014464:	00002337          	lui	x6,0x2
    41014468:	006ceab3          	or	x21,x25,x6
    4101446c:	000a8393          	mv	x7,x21
    41014470:	00058fb7          	lui	x31,0x58
    41014474:	0b0f8f9b          	addiw	x31,x31,176 # 580b0 <pte_access_flags>
    41014478:	0010029b          	addiw	x5,x0,1
    4101447c:	02029293          	slli	x5,x5,0x20
    41014480:	005fb023          	sd	x5,0(x31)
    41014484:	00200293          	li	x5,2
    41014488:	005fb423          	sd	x5,8(x31)
    4101448c:	fff00293          	li	x5,-1
    41014490:	005fb823          	sd	x5,16(x31)
    41014494:	000f0fb7          	lui	x31,0xf0
    41014498:	001f8f9b          	addiw	x31,x31,1 # f0001 <mem3__pt_level2+0x27fe1>
    4101449c:	00cf9f93          	slli	x31,x31,0xc
    410144a0:	008f8f93          	addi	x31,x31,8
    410144a4:	00000073          	ecall
    410144a8:	12000073          	sfence.vma
    410144ac:	00100c9b          	addiw	x25,x0,1
    410144b0:	020c9c93          	slli	x25,x25,0x20
    410144b4:	00000793          	li	x15,0
    410144b8:	00fc8c33          	add	x24,x25,x15
    410144bc:	100c27af          	lr.w	x15,(x24)
    410144c0:	0010049b          	addiw	x9,x0,1
    410144c4:	02049493          	slli	x9,x9,0x20
    410144c8:	00000f93          	li	x31,0
    410144cc:	01f48933          	add	x18,x9,x31
    410144d0:	1809292f          	sc.w	x18,x0,(x18)
    410144d4:	00040393          	mv	x7,x8
    410144d8:	00058fb7          	lui	x31,0x58
    410144dc:	0b0f8f9b          	addiw	x31,x31,176 # 580b0 <pte_access_flags>
    410144e0:	0010029b          	addiw	x5,x0,1
    410144e4:	02029293          	slli	x5,x5,0x20
    410144e8:	005fb023          	sd	x5,0(x31)
    410144ec:	00200293          	li	x5,2
    410144f0:	005fb423          	sd	x5,8(x31)
    410144f4:	fff00293          	li	x5,-1
    410144f8:	005fb823          	sd	x5,16(x31)
    410144fc:	000f0fb7          	lui	x31,0xf0
    41014500:	001f8f9b          	addiw	x31,x31,1 # f0001 <mem3__pt_level2+0x27fe1>
    41014504:	00cf9f93          	slli	x31,x31,0xc
    41014508:	008f8f93          	addi	x31,x31,8
    4101450c:	00000073          	ecall
    41014510:	12000073          	sfence.vma

0000000041014514 <SID_SVNAPOT_00_LRSC_passed>:
    41014514:	00f00f9b          	addiw	x31,x0,15
    41014518:	01cf9f93          	slli	x31,x31,0x1c
    4101451c:	001f8f93          	addi	x31,x31,1
    41014520:	00000073          	ecall

0000000041014524 <SID_SVNAPOT_01_LOAD>:
    41014524:	0024a137          	lui	x2,0x24a
    41014528:	1571011b          	addiw	x2,x2,343 # 24a157 <mem1__pt_level1+0x10d157>
    4101452c:	00c11113          	slli	x2,x2,0xc
    41014530:	000012b7          	lui	x5,0x1
    41014534:	00510133          	add	x2,x2,x5
    41014538:	ff017113          	andi	x2,x2,-16
    4101453c:	00058fb7          	lui	x31,0x58
    41014540:	0b0f8f9b          	addiw	x31,x31,176 # 580b0 <pte_access_flags>
    41014544:	ff50029b          	addiw	x5,x0,-11
    41014548:	01e29293          	slli	x5,x5,0x1e
    4101454c:	005fb023          	sd	x5,0(x31)
    41014550:	00200293          	li	x5,2
    41014554:	005fb423          	sd	x5,8(x31)
    41014558:	fff00293          	li	x5,-1
    4101455c:	005fb823          	sd	x5,16(x31)
    41014560:	000f0fb7          	lui	x31,0xf0
    41014564:	001f8f9b          	addiw	x31,x31,1 # f0001 <mem3__pt_level2+0x27fe1>
    41014568:	00cf9f93          	slli	x31,x31,0xc
    4101456c:	007f8f93          	addi	x31,x31,7
    41014570:	00000073          	ecall
    41014574:	00038b93          	mv	x23,x7
    41014578:	00100c9b          	addiw	x25,x0,1
    4101457c:	031c9c93          	slli	x25,x25,0x31
    41014580:	fffc8c93          	addi	x25,x25,-1
    41014584:	00ec9c93          	slli	x25,x25,0xe
    41014588:	3ffc8c93          	addi	x25,x25,1023
    4101458c:	019bf733          	and	x14,x23,x25
    41014590:	fff0099b          	addiw	x19,x0,-1
    41014594:	03f99993          	slli	x19,x19,0x3f
    41014598:	013767b3          	or	x15,x14,x19
    4101459c:	00078393          	mv	x7,x15
    410145a0:	00058fb7          	lui	x31,0x58
    410145a4:	0b0f8f9b          	addiw	x31,x31,176 # 580b0 <pte_access_flags>
    410145a8:	ff50029b          	addiw	x5,x0,-11
    410145ac:	01e29293          	slli	x5,x5,0x1e
    410145b0:	005fb023          	sd	x5,0(x31)
    410145b4:	00200293          	li	x5,2
    410145b8:	005fb423          	sd	x5,8(x31)
    410145bc:	fff00293          	li	x5,-1
    410145c0:	005fb823          	sd	x5,16(x31)
    410145c4:	000f0fb7          	lui	x31,0xf0
    410145c8:	001f8f9b          	addiw	x31,x31,1 # f0001 <mem3__pt_level2+0x27fe1>
    410145cc:	00cf9f93          	slli	x31,x31,0xc
    410145d0:	008f8f93          	addi	x31,x31,8
    410145d4:	00000073          	ecall
    410145d8:	12000073          	sfence.vma
    410145dc:	3bd71237          	lui	x4,0x3bd71
    410145e0:	00d00e13          	li	x28,13
    410145e4:	05c23823          	sd	x28,80(x4) # 3bd71050 <check_excp_expected_cause>
    410145e8:	00000e17          	auipc	x28,0x0
    410145ec:	050e0e13          	addi	x28,x28,80 # 41014638 <fault_label_0>
    410145f0:	03c23023          	sd	x28,32(x4) # 20 <SECURE_ACCESS_PROBABILITY+0x2>
    410145f4:	00000e13          	li	x28,0
    410145f8:	05c23023          	sd	x28,64(x4) # 40 <XLEN>
    410145fc:	00000e13          	li	x28,0
    41014600:	05c23423          	sd	x28,72(x4) # 48 <XLEN+0x8>
    41014604:	00000e17          	auipc	x28,0x0
    41014608:	048e0e13          	addi	x28,x28,72 # 4101464c <excp_return_label_0>
    4101460c:	03c23823          	sd	x28,48(x4) # 30 <SECURE_ACCESS_PROBABILITY+0x12>
    41014610:	00000e13          	li	x28,0
    41014614:	03c23c23          	sd	x28,56(x4) # 38 <SECURE_ACCESS_PROBABILITY+0x1a>
    41014618:	00000e13          	li	x28,0
    4101461c:	07c23023          	sd	x28,96(x4) # 60 <XLEN+0x20>
    41014620:	00000e13          	li	x28,0
    41014624:	07c23423          	sd	x28,104(x4) # 68 <XLEN+0x28>
    41014628:	00000e13          	li	x28,0
    4101462c:	07c23823          	sd	x28,112(x4) # 70 <XLEN+0x30>
    41014630:	ff50071b          	addiw	x14,x0,-11
    41014634:	01e71713          	slli	x14,x14,0x1e

0000000041014638 <fault_label_0>:
    41014638:	00073407          	fld	f8,0(x14) # 2000 <mem7__pt_level0>
    4101463c:	00058737          	lui	x14,0x58
    41014640:	0087071b          	addiw	x14,x14,8 # 58008 <failed_addr>
    41014644:	00073d03          	ld	x26,0(x14)
    41014648:	000d0067          	jr	x26

000000004101464c <excp_return_label_0>:
    4101464c:	000b8393          	mv	x7,x23
    41014650:	00058fb7          	lui	x31,0x58
    41014654:	0b0f8f9b          	addiw	x31,x31,176 # 580b0 <pte_access_flags>
    41014658:	ff50029b          	addiw	x5,x0,-11
    4101465c:	01e29293          	slli	x5,x5,0x1e
    41014660:	005fb023          	sd	x5,0(x31)
    41014664:	00200293          	li	x5,2
    41014668:	005fb423          	sd	x5,8(x31)
    4101466c:	fff00293          	li	x5,-1
    41014670:	005fb823          	sd	x5,16(x31)
    41014674:	000f0fb7          	lui	x31,0xf0
    41014678:	001f8f9b          	addiw	x31,x31,1 # f0001 <mem3__pt_level2+0x27fe1>
    4101467c:	00cf9f93          	slli	x31,x31,0xc
    41014680:	008f8f93          	addi	x31,x31,8
    41014684:	00000073          	ecall
    41014688:	12000073          	sfence.vma

000000004101468c <SID_SVNAPOT_01_LOAD_passed>:
    4101468c:	00f00f9b          	addiw	x31,x0,15
    41014690:	01cf9f93          	slli	x31,x31,0x1c
    41014694:	001f8f93          	addi	x31,x31,1
    41014698:	00000073          	ecall

000000004101469c <SID_SVNAPOT_01_STORE>:
    4101469c:	04655137          	lui	x2,0x4655
    410146a0:	000012b7          	lui	x5,0x1
    410146a4:	00510133          	add	x2,x2,x5
    410146a8:	ff017113          	andi	x2,x2,-16
    410146ac:	00058fb7          	lui	x31,0x58
    410146b0:	0b0f8f9b          	addiw	x31,x31,176 # 580b0 <pte_access_flags>
    410146b4:	00f0029b          	addiw	x5,x0,15
    410146b8:	01f29293          	slli	x5,x5,0x1f
    410146bc:	005fb023          	sd	x5,0(x31)
    410146c0:	00200293          	li	x5,2
    410146c4:	005fb423          	sd	x5,8(x31)
    410146c8:	fff00293          	li	x5,-1
    410146cc:	005fb823          	sd	x5,16(x31)
    410146d0:	000f0fb7          	lui	x31,0xf0
    410146d4:	001f8f9b          	addiw	x31,x31,1 # f0001 <mem3__pt_level2+0x27fe1>
    410146d8:	00cf9f93          	slli	x31,x31,0xc
    410146dc:	007f8f93          	addi	x31,x31,7
    410146e0:	00000073          	ecall
    410146e4:	00038413          	mv	x8,x7
    410146e8:	00100a9b          	addiw	x21,x0,1
    410146ec:	031a9a93          	slli	x21,x21,0x31
    410146f0:	fffa8a93          	addi	x21,x21,-1
    410146f4:	00ea9a93          	slli	x21,x21,0xe
    410146f8:	3ffa8a93          	addi	x21,x21,1023
    410146fc:	01547d33          	and	x26,x8,x21
    41014700:	fff00f1b          	addiw	x30,x0,-1
    41014704:	03ff1f13          	slli	x30,x30,0x3f
    41014708:	01ed65b3          	or	x11,x26,x30
    4101470c:	00058393          	mv	x7,x11
    41014710:	00058fb7          	lui	x31,0x58
    41014714:	0b0f8f9b          	addiw	x31,x31,176 # 580b0 <pte_access_flags>
    41014718:	00f0029b          	addiw	x5,x0,15
    4101471c:	01f29293          	slli	x5,x5,0x1f
    41014720:	005fb023          	sd	x5,0(x31)
    41014724:	00200293          	li	x5,2
    41014728:	005fb423          	sd	x5,8(x31)
    4101472c:	fff00293          	li	x5,-1
    41014730:	005fb823          	sd	x5,16(x31)
    41014734:	000f0fb7          	lui	x31,0xf0
    41014738:	001f8f9b          	addiw	x31,x31,1 # f0001 <mem3__pt_level2+0x27fe1>
    4101473c:	00cf9f93          	slli	x31,x31,0xc
    41014740:	008f8f93          	addi	x31,x31,8
    41014744:	00000073          	ecall
    41014748:	12000073          	sfence.vma
    4101474c:	3bd71237          	lui	x4,0x3bd71
    41014750:	00f00e13          	li	x28,15
    41014754:	05c23823          	sd	x28,80(x4) # 3bd71050 <check_excp_expected_cause>
    41014758:	00000e17          	auipc	x28,0x0
    4101475c:	060e0e13          	addi	x28,x28,96 # 410147b8 <fault_label_1>
    41014760:	03c23023          	sd	x28,32(x4) # 20 <SECURE_ACCESS_PROBABILITY+0x2>
    41014764:	00000e13          	li	x28,0
    41014768:	05c23023          	sd	x28,64(x4) # 40 <XLEN>
    4101476c:	00000e13          	li	x28,0
    41014770:	05c23423          	sd	x28,72(x4) # 48 <XLEN+0x8>
    41014774:	00000e17          	auipc	x28,0x0
    41014778:	058e0e13          	addi	x28,x28,88 # 410147cc <excp_return_label_1>
    4101477c:	03c23823          	sd	x28,48(x4) # 30 <SECURE_ACCESS_PROBABILITY+0x12>
    41014780:	00000e13          	li	x28,0
    41014784:	03c23c23          	sd	x28,56(x4) # 38 <SECURE_ACCESS_PROBABILITY+0x1a>
    41014788:	00000e13          	li	x28,0
    4101478c:	07c23023          	sd	x28,96(x4) # 60 <XLEN+0x20>
    41014790:	00000e13          	li	x28,0
    41014794:	07c23423          	sd	x28,104(x4) # 68 <XLEN+0x28>
    41014798:	00000e13          	li	x28,0
    4101479c:	07c23823          	sd	x28,112(x4) # 70 <XLEN+0x30>
    410147a0:	00f0071b          	addiw	x14,x0,15
    410147a4:	01f71713          	slli	x14,x14,0x1f
    410147a8:	000edd37          	lui	x26,0xed
    410147ac:	2f9d0d1b          	addiw	x26,x26,761 # ed2f9 <mem3__pt_level2+0x252d9>
    410147b0:	00cd1d13          	slli	x26,x26,0xc
    410147b4:	9dcd0d13          	addi	x26,x26,-1572

00000000410147b8 <fault_label_1>:
    410147b8:	01a71023          	sh	x26,0(x14)
    410147bc:	00058737          	lui	x14,0x58
    410147c0:	0087071b          	addiw	x14,x14,8 # 58008 <failed_addr>
    410147c4:	00073983          	ld	x19,0(x14)
    410147c8:	00098067          	jr	x19

00000000410147cc <excp_return_label_1>:
    410147cc:	00040393          	mv	x7,x8
    410147d0:	00058fb7          	lui	x31,0x58
    410147d4:	0b0f8f9b          	addiw	x31,x31,176 # 580b0 <pte_access_flags>
    410147d8:	00f0029b          	addiw	x5,x0,15
    410147dc:	01f29293          	slli	x5,x5,0x1f
    410147e0:	005fb023          	sd	x5,0(x31)
    410147e4:	00200293          	li	x5,2
    410147e8:	005fb423          	sd	x5,8(x31)
    410147ec:	fff00293          	li	x5,-1
    410147f0:	005fb823          	sd	x5,16(x31)
    410147f4:	000f0fb7          	lui	x31,0xf0
    410147f8:	001f8f9b          	addiw	x31,x31,1 # f0001 <mem3__pt_level2+0x27fe1>
    410147fc:	00cf9f93          	slli	x31,x31,0xc
    41014800:	008f8f93          	addi	x31,x31,8
    41014804:	00000073          	ecall
    41014808:	12000073          	sfence.vma

000000004101480c <SID_SVNAPOT_01_STORE_passed>:
    4101480c:	00f00f9b          	addiw	x31,x0,15
    41014810:	01cf9f93          	slli	x31,x31,0x1c
    41014814:	001f8f93          	addi	x31,x31,1
    41014818:	00000073          	ecall

000000004101481c <SID_SVNAPOT_01_AMO>:
    4101481c:	04657137          	lui	x2,0x4657
    41014820:	000012b7          	lui	x5,0x1
    41014824:	00510133          	add	x2,x2,x5
    41014828:	ff017113          	andi	x2,x2,-16
    4101482c:	00058fb7          	lui	x31,0x58
    41014830:	0b0f8f9b          	addiw	x31,x31,176 # 580b0 <pte_access_flags>
    41014834:	ffb0029b          	addiw	x5,x0,-5
    41014838:	01f29293          	slli	x5,x5,0x1f
    4101483c:	005fb023          	sd	x5,0(x31)
    41014840:	00200293          	li	x5,2
    41014844:	005fb423          	sd	x5,8(x31)
    41014848:	fff00293          	li	x5,-1
    4101484c:	005fb823          	sd	x5,16(x31)
    41014850:	000f0fb7          	lui	x31,0xf0
    41014854:	001f8f9b          	addiw	x31,x31,1 # f0001 <mem3__pt_level2+0x27fe1>
    41014858:	00cf9f93          	slli	x31,x31,0xc
    4101485c:	007f8f93          	addi	x31,x31,7
    41014860:	00000073          	ecall
    41014864:	00038593          	mv	x11,x7
    41014868:	00100f9b          	addiw	x31,x0,1
    4101486c:	031f9f93          	slli	x31,x31,0x31
    41014870:	ffff8f93          	addi	x31,x31,-1
    41014874:	00ef9f93          	slli	x31,x31,0xe
    41014878:	3fff8f93          	addi	x31,x31,1023
    4101487c:	01f5f933          	and	x18,x11,x31
    41014880:	fff00f9b          	addiw	x31,x0,-1
    41014884:	03ff9f93          	slli	x31,x31,0x3f
    41014888:	01f963b3          	or	x7,x18,x31
    4101488c:	00038393          	mv	x7,x7
    41014890:	00058fb7          	lui	x31,0x58
    41014894:	0b0f8f9b          	addiw	x31,x31,176 # 580b0 <pte_access_flags>
    41014898:	ffb0029b          	addiw	x5,x0,-5
    4101489c:	01f29293          	slli	x5,x5,0x1f
    410148a0:	005fb023          	sd	x5,0(x31)
    410148a4:	00200293          	li	x5,2
    410148a8:	005fb423          	sd	x5,8(x31)
    410148ac:	fff00293          	li	x5,-1
    410148b0:	005fb823          	sd	x5,16(x31)
    410148b4:	000f0fb7          	lui	x31,0xf0
    410148b8:	001f8f9b          	addiw	x31,x31,1 # f0001 <mem3__pt_level2+0x27fe1>
    410148bc:	00cf9f93          	slli	x31,x31,0xc
    410148c0:	008f8f93          	addi	x31,x31,8
    410148c4:	00000073          	ecall
    410148c8:	12000073          	sfence.vma
    410148cc:	3bd71237          	lui	x4,0x3bd71
    410148d0:	00f00e13          	li	x28,15
    410148d4:	05c23823          	sd	x28,80(x4) # 3bd71050 <check_excp_expected_cause>
    410148d8:	00000e17          	auipc	x28,0x0
    410148dc:	058e0e13          	addi	x28,x28,88 # 41014930 <fault_label_2>
    410148e0:	03c23023          	sd	x28,32(x4) # 20 <SECURE_ACCESS_PROBABILITY+0x2>
    410148e4:	00000e13          	li	x28,0
    410148e8:	05c23023          	sd	x28,64(x4) # 40 <XLEN>
    410148ec:	00000e13          	li	x28,0
    410148f0:	05c23423          	sd	x28,72(x4) # 48 <XLEN+0x8>
    410148f4:	00000e17          	auipc	x28,0x0
    410148f8:	050e0e13          	addi	x28,x28,80 # 41014944 <excp_return_label_2>
    410148fc:	03c23823          	sd	x28,48(x4) # 30 <SECURE_ACCESS_PROBABILITY+0x12>
    41014900:	00000e13          	li	x28,0
    41014904:	03c23c23          	sd	x28,56(x4) # 38 <SECURE_ACCESS_PROBABILITY+0x1a>
    41014908:	00000e13          	li	x28,0
    4101490c:	07c23023          	sd	x28,96(x4) # 60 <XLEN+0x20>
    41014910:	00000e13          	li	x28,0
    41014914:	07c23423          	sd	x28,104(x4) # 68 <XLEN+0x28>
    41014918:	00000e13          	li	x28,0
    4101491c:	07c23823          	sd	x28,112(x4) # 70 <XLEN+0x30>
    41014920:	ffb00c9b          	addiw	x25,x0,-5
    41014924:	01fc9c93          	slli	x25,x25,0x1f
    41014928:	00000b13          	li	x22,0
    4101492c:	016c8db3          	add	x27,x25,x22

0000000041014930 <fault_label_2>:
    41014930:	080da3af          	amoswap.w	x7,x0,(x27)
    41014934:	00058737          	lui	x14,0x58
    41014938:	0087071b          	addiw	x14,x14,8 # 58008 <failed_addr>
    4101493c:	00073983          	ld	x19,0(x14)
    41014940:	00098067          	jr	x19

0000000041014944 <excp_return_label_2>:
    41014944:	00058393          	mv	x7,x11
    41014948:	00058fb7          	lui	x31,0x58
    4101494c:	0b0f8f9b          	addiw	x31,x31,176 # 580b0 <pte_access_flags>
    41014950:	ffb0029b          	addiw	x5,x0,-5
    41014954:	01f29293          	slli	x5,x5,0x1f
    41014958:	005fb023          	sd	x5,0(x31)
    4101495c:	00200293          	li	x5,2
    41014960:	005fb423          	sd	x5,8(x31)
    41014964:	fff00293          	li	x5,-1
    41014968:	005fb823          	sd	x5,16(x31)
    4101496c:	000f0fb7          	lui	x31,0xf0
    41014970:	001f8f9b          	addiw	x31,x31,1 # f0001 <mem3__pt_level2+0x27fe1>
    41014974:	00cf9f93          	slli	x31,x31,0xc
    41014978:	008f8f93          	addi	x31,x31,8
    4101497c:	00000073          	ecall
    41014980:	12000073          	sfence.vma

0000000041014984 <SID_SVNAPOT_01_AMO_passed>:
    41014984:	00f00f9b          	addiw	x31,x0,15
    41014988:	01cf9f93          	slli	x31,x31,0x1c
    4101498c:	001f8f93          	addi	x31,x31,1
    41014990:	00000073          	ecall

0000000041014994 <SID_SVNAPOT_01_LRSC>:
    41014994:	408f8137          	lui	x2,0x408f8
    41014998:	000012b7          	lui	x5,0x1
    4101499c:	00510133          	add	x2,x2,x5
    410149a0:	ff017113          	andi	x2,x2,-16
    410149a4:	00058fb7          	lui	x31,0x58
    410149a8:	0b0f8f9b          	addiw	x31,x31,176 # 580b0 <pte_access_flags>
    410149ac:	0290029b          	addiw	x5,x0,41
    410149b0:	01e29293          	slli	x5,x5,0x1e
    410149b4:	005fb023          	sd	x5,0(x31)
    410149b8:	00200293          	li	x5,2
    410149bc:	005fb423          	sd	x5,8(x31)
    410149c0:	fff00293          	li	x5,-1
    410149c4:	005fb823          	sd	x5,16(x31)
    410149c8:	000f0fb7          	lui	x31,0xf0
    410149cc:	001f8f9b          	addiw	x31,x31,1 # f0001 <mem3__pt_level2+0x27fe1>
    410149d0:	00cf9f93          	slli	x31,x31,0xc
    410149d4:	007f8f93          	addi	x31,x31,7
    410149d8:	00000073          	ecall
    410149dc:	00038893          	mv	x17,x7
    410149e0:	00100d1b          	addiw	x26,x0,1
    410149e4:	031d1d13          	slli	x26,x26,0x31
    410149e8:	fffd0d13          	addi	x26,x26,-1
    410149ec:	00ed1d13          	slli	x26,x26,0xe
    410149f0:	3ffd0d13          	addi	x26,x26,1023
    410149f4:	01a8fbb3          	and	x23,x17,x26
    410149f8:	fff00c9b          	addiw	x25,x0,-1
    410149fc:	03fc9c93          	slli	x25,x25,0x3f
    41014a00:	019bea33          	or	x20,x23,x25
    41014a04:	000a0393          	mv	x7,x20
    41014a08:	00058fb7          	lui	x31,0x58
    41014a0c:	0b0f8f9b          	addiw	x31,x31,176 # 580b0 <pte_access_flags>
    41014a10:	0290029b          	addiw	x5,x0,41
    41014a14:	01e29293          	slli	x5,x5,0x1e
    41014a18:	005fb023          	sd	x5,0(x31)
    41014a1c:	00200293          	li	x5,2
    41014a20:	005fb423          	sd	x5,8(x31)
    41014a24:	fff00293          	li	x5,-1
    41014a28:	005fb823          	sd	x5,16(x31)
    41014a2c:	000f0fb7          	lui	x31,0xf0
    41014a30:	001f8f9b          	addiw	x31,x31,1 # f0001 <mem3__pt_level2+0x27fe1>
    41014a34:	00cf9f93          	slli	x31,x31,0xc
    41014a38:	008f8f93          	addi	x31,x31,8
    41014a3c:	00000073          	ecall
    41014a40:	12000073          	sfence.vma
    41014a44:	3bd71237          	lui	x4,0x3bd71
    41014a48:	00d00e13          	li	x28,13
    41014a4c:	05c23823          	sd	x28,80(x4) # 3bd71050 <check_excp_expected_cause>
    41014a50:	00000e17          	auipc	x28,0x0
    41014a54:	058e0e13          	addi	x28,x28,88 # 41014aa8 <fault_label_3>
    41014a58:	03c23023          	sd	x28,32(x4) # 20 <SECURE_ACCESS_PROBABILITY+0x2>
    41014a5c:	00000e13          	li	x28,0
    41014a60:	05c23023          	sd	x28,64(x4) # 40 <XLEN>
    41014a64:	00000e13          	li	x28,0
    41014a68:	05c23423          	sd	x28,72(x4) # 48 <XLEN+0x8>
    41014a6c:	00000e17          	auipc	x28,0x0
    41014a70:	050e0e13          	addi	x28,x28,80 # 41014abc <excp_return_label_3>
    41014a74:	03c23823          	sd	x28,48(x4) # 30 <SECURE_ACCESS_PROBABILITY+0x12>
    41014a78:	00000e13          	li	x28,0
    41014a7c:	03c23c23          	sd	x28,56(x4) # 38 <SECURE_ACCESS_PROBABILITY+0x1a>
    41014a80:	00000e13          	li	x28,0
    41014a84:	07c23023          	sd	x28,96(x4) # 60 <XLEN+0x20>
    41014a88:	00000e13          	li	x28,0
    41014a8c:	07c23423          	sd	x28,104(x4) # 68 <XLEN+0x28>
    41014a90:	00000e13          	li	x28,0
    41014a94:	07c23823          	sd	x28,112(x4) # 70 <XLEN+0x30>
    41014a98:	02900f1b          	addiw	x30,x0,41
    41014a9c:	01ef1f13          	slli	x30,x30,0x1e
    41014aa0:	00000413          	li	x8,0
    41014aa4:	008f0e33          	add	x28,x30,x8

0000000041014aa8 <fault_label_3>:
    41014aa8:	100e27af          	lr.w	x15,(x28)
    41014aac:	00058e37          	lui	x28,0x58
    41014ab0:	008e0e1b          	addiw	x28,x28,8 # 58008 <failed_addr>
    41014ab4:	000e3c03          	ld	x24,0(x28)
    41014ab8:	000c0067          	jr	x24

0000000041014abc <excp_return_label_3>:
    41014abc:	3bd71237          	lui	x4,0x3bd71
    41014ac0:	00f00e13          	li	x28,15
    41014ac4:	05c23823          	sd	x28,80(x4) # 3bd71050 <check_excp_expected_cause>
    41014ac8:	00000e17          	auipc	x28,0x0
    41014acc:	058e0e13          	addi	x28,x28,88 # 41014b20 <fault_label_4>
    41014ad0:	03c23023          	sd	x28,32(x4) # 20 <SECURE_ACCESS_PROBABILITY+0x2>
    41014ad4:	00000e13          	li	x28,0
    41014ad8:	05c23023          	sd	x28,64(x4) # 40 <XLEN>
    41014adc:	00000e13          	li	x28,0
    41014ae0:	05c23423          	sd	x28,72(x4) # 48 <XLEN+0x8>
    41014ae4:	00000e17          	auipc	x28,0x0
    41014ae8:	050e0e13          	addi	x28,x28,80 # 41014b34 <excp_return_label_4>
    41014aec:	03c23823          	sd	x28,48(x4) # 30 <SECURE_ACCESS_PROBABILITY+0x12>
    41014af0:	00000e13          	li	x28,0
    41014af4:	03c23c23          	sd	x28,56(x4) # 38 <SECURE_ACCESS_PROBABILITY+0x1a>
    41014af8:	00000e13          	li	x28,0
    41014afc:	07c23023          	sd	x28,96(x4) # 60 <XLEN+0x20>
    41014b00:	00000e13          	li	x28,0
    41014b04:	07c23423          	sd	x28,104(x4) # 68 <XLEN+0x28>
    41014b08:	00000e13          	li	x28,0
    41014b0c:	07c23823          	sd	x28,112(x4) # 70 <XLEN+0x30>
    41014b10:	02900e9b          	addiw	x29,x0,41
    41014b14:	01ee9e93          	slli	x29,x29,0x1e
    41014b18:	00000793          	li	x15,0
    41014b1c:	00fe86b3          	add	x13,x29,x15

0000000041014b20 <fault_label_4>:
    41014b20:	1806adaf          	sc.w	x27,x0,(x13)
    41014b24:	00058f37          	lui	x30,0x58
    41014b28:	008f0f1b          	addiw	x30,x30,8 # 58008 <failed_addr>
    41014b2c:	000f3683          	ld	x13,0(x30)
    41014b30:	00068067          	jr	x13

0000000041014b34 <excp_return_label_4>:
    41014b34:	00088393          	mv	x7,x17
    41014b38:	00058fb7          	lui	x31,0x58
    41014b3c:	0b0f8f9b          	addiw	x31,x31,176 # 580b0 <pte_access_flags>
    41014b40:	0290029b          	addiw	x5,x0,41
    41014b44:	01e29293          	slli	x5,x5,0x1e
    41014b48:	005fb023          	sd	x5,0(x31)
    41014b4c:	00200293          	li	x5,2
    41014b50:	005fb423          	sd	x5,8(x31)
    41014b54:	fff00293          	li	x5,-1
    41014b58:	005fb823          	sd	x5,16(x31)
    41014b5c:	000f0fb7          	lui	x31,0xf0
    41014b60:	001f8f9b          	addiw	x31,x31,1 # f0001 <mem3__pt_level2+0x27fe1>
    41014b64:	00cf9f93          	slli	x31,x31,0xc
    41014b68:	008f8f93          	addi	x31,x31,8
    41014b6c:	00000073          	ecall
    41014b70:	12000073          	sfence.vma

0000000041014b74 <SID_SVNAPOT_01_LRSC_passed>:
    41014b74:	00f00f9b          	addiw	x31,x0,15
    41014b78:	01cf9f93          	slli	x31,x31,0x1c
    41014b7c:	001f8f93          	addi	x31,x31,1
    41014b80:	00000073          	ecall

0000000041014b84 <SID_SVNAPOT_02_LOAD>:
    41014b84:	54f50137          	lui	x2,0x54f50
    41014b88:	000012b7          	lui	x5,0x1
    41014b8c:	00510133          	add	x2,x2,x5
    41014b90:	ff017113          	andi	x2,x2,-16
    41014b94:	00058fb7          	lui	x31,0x58
    41014b98:	0b0f8f9b          	addiw	x31,x31,176 # 580b0 <pte_access_flags>
    41014b9c:	0050029b          	addiw	x5,x0,5
    41014ba0:	01e29293          	slli	x5,x5,0x1e
    41014ba4:	005fb023          	sd	x5,0(x31)
    41014ba8:	00200293          	li	x5,2
    41014bac:	005fb423          	sd	x5,8(x31)
    41014bb0:	fff00293          	li	x5,-1
    41014bb4:	005fb823          	sd	x5,16(x31)
    41014bb8:	000f0fb7          	lui	x31,0xf0
    41014bbc:	001f8f9b          	addiw	x31,x31,1 # f0001 <mem3__pt_level2+0x27fe1>
    41014bc0:	00cf9f93          	slli	x31,x31,0xc
    41014bc4:	007f8f93          	addi	x31,x31,7
    41014bc8:	00000073          	ecall
    41014bcc:	00038513          	mv	x10,x7
    41014bd0:	00100b1b          	addiw	x22,x0,1
    41014bd4:	031b1b13          	slli	x22,x22,0x31
    41014bd8:	fffb0b13          	addi	x22,x22,-1 # 1fff <mem0__pt_level0+0xfff>
    41014bdc:	00eb1b13          	slli	x22,x22,0xe
    41014be0:	3ffb0b13          	addi	x22,x22,1023
    41014be4:	01657f33          	and	x30,x10,x22
    41014be8:	fff00c9b          	addiw	x25,x0,-1
    41014bec:	032c9c93          	slli	x25,x25,0x32
    41014bf0:	001c8c93          	addi	x25,x25,1
    41014bf4:	00dc9c93          	slli	x25,x25,0xd
    41014bf8:	019f65b3          	or	x11,x30,x25
    41014bfc:	00058393          	mv	x7,x11
    41014c00:	00058fb7          	lui	x31,0x58
    41014c04:	0b0f8f9b          	addiw	x31,x31,176 # 580b0 <pte_access_flags>
    41014c08:	0050029b          	addiw	x5,x0,5
    41014c0c:	01e29293          	slli	x5,x5,0x1e
    41014c10:	005fb023          	sd	x5,0(x31)
    41014c14:	00200293          	li	x5,2
    41014c18:	005fb423          	sd	x5,8(x31)
    41014c1c:	fff00293          	li	x5,-1
    41014c20:	005fb823          	sd	x5,16(x31)
    41014c24:	000f0fb7          	lui	x31,0xf0
    41014c28:	001f8f9b          	addiw	x31,x31,1 # f0001 <mem3__pt_level2+0x27fe1>
    41014c2c:	00cf9f93          	slli	x31,x31,0xc
    41014c30:	008f8f93          	addi	x31,x31,8
    41014c34:	00000073          	ecall
    41014c38:	12000073          	sfence.vma
    41014c3c:	0050039b          	addiw	x7,x0,5
    41014c40:	01e39393          	slli	x7,x7,0x1e
    41014c44:	0003a703          	lw	x14,0(x7)
    41014c48:	00050393          	mv	x7,x10
    41014c4c:	00058fb7          	lui	x31,0x58
    41014c50:	0b0f8f9b          	addiw	x31,x31,176 # 580b0 <pte_access_flags>
    41014c54:	0050029b          	addiw	x5,x0,5
    41014c58:	01e29293          	slli	x5,x5,0x1e
    41014c5c:	005fb023          	sd	x5,0(x31)
    41014c60:	00200293          	li	x5,2
    41014c64:	005fb423          	sd	x5,8(x31)
    41014c68:	fff00293          	li	x5,-1
    41014c6c:	005fb823          	sd	x5,16(x31)
    41014c70:	000f0fb7          	lui	x31,0xf0
    41014c74:	001f8f9b          	addiw	x31,x31,1 # f0001 <mem3__pt_level2+0x27fe1>
    41014c78:	00cf9f93          	slli	x31,x31,0xc
    41014c7c:	008f8f93          	addi	x31,x31,8
    41014c80:	00000073          	ecall
    41014c84:	12000073          	sfence.vma

0000000041014c88 <SID_SVNAPOT_02_LOAD_passed>:
    41014c88:	00f00f9b          	addiw	x31,x0,15
    41014c8c:	01cf9f93          	slli	x31,x31,0x1c
    41014c90:	001f8f93          	addi	x31,x31,1
    41014c94:	00000073          	ecall

0000000041014c98 <SID_SVNAPOT_02_STORE>:
    41014c98:	02476137          	lui	x2,0x2476
    41014c9c:	000012b7          	lui	x5,0x1
    41014ca0:	00510133          	add	x2,x2,x5
    41014ca4:	ff017113          	andi	x2,x2,-16
    41014ca8:	00058fb7          	lui	x31,0x58
    41014cac:	0b0f8f9b          	addiw	x31,x31,176 # 580b0 <pte_access_flags>
    41014cb0:	0050029b          	addiw	x5,x0,5
    41014cb4:	02029293          	slli	x5,x5,0x20
    41014cb8:	005fb023          	sd	x5,0(x31)
    41014cbc:	00200293          	li	x5,2
    41014cc0:	005fb423          	sd	x5,8(x31)
    41014cc4:	fff00293          	li	x5,-1
    41014cc8:	005fb823          	sd	x5,16(x31)
    41014ccc:	000f0fb7          	lui	x31,0xf0
    41014cd0:	001f8f9b          	addiw	x31,x31,1 # f0001 <mem3__pt_level2+0x27fe1>
    41014cd4:	00cf9f93          	slli	x31,x31,0xc
    41014cd8:	007f8f93          	addi	x31,x31,7
    41014cdc:	00000073          	ecall
    41014ce0:	00038993          	mv	x19,x7
    41014ce4:	00100b9b          	addiw	x23,x0,1
    41014ce8:	031b9b93          	slli	x23,x23,0x31
    41014cec:	fffb8b93          	addi	x23,x23,-1 # 1fff <mem0__pt_level0+0xfff>
    41014cf0:	00eb9b93          	slli	x23,x23,0xe
    41014cf4:	3ffb8b93          	addi	x23,x23,1023
    41014cf8:	0179f3b3          	and	x7,x19,x23
    41014cfc:	fff0031b          	addiw	x6,x0,-1
    41014d00:	03231313          	slli	x6,x6,0x32
    41014d04:	00130313          	addi	x6,x6,1 # 2001 <mem7__pt_level0+0x1>
    41014d08:	00d31313          	slli	x6,x6,0xd
    41014d0c:	0063ecb3          	or	x25,x7,x6
    41014d10:	000c8393          	mv	x7,x25
    41014d14:	00058fb7          	lui	x31,0x58
    41014d18:	0b0f8f9b          	addiw	x31,x31,176 # 580b0 <pte_access_flags>
    41014d1c:	0050029b          	addiw	x5,x0,5
    41014d20:	02029293          	slli	x5,x5,0x20
    41014d24:	005fb023          	sd	x5,0(x31)
    41014d28:	00200293          	li	x5,2
    41014d2c:	005fb423          	sd	x5,8(x31)
    41014d30:	fff00293          	li	x5,-1
    41014d34:	005fb823          	sd	x5,16(x31)
    41014d38:	000f0fb7          	lui	x31,0xf0
    41014d3c:	001f8f9b          	addiw	x31,x31,1 # f0001 <mem3__pt_level2+0x27fe1>
    41014d40:	00cf9f93          	slli	x31,x31,0xc
    41014d44:	008f8f93          	addi	x31,x31,8
    41014d48:	00000073          	ecall
    41014d4c:	12000073          	sfence.vma
    41014d50:	0050049b          	addiw	x9,x0,5
    41014d54:	02049493          	slli	x9,x9,0x20
    41014d58:	000d7937          	lui	x18,0xd7
    41014d5c:	0719091b          	addiw	x18,x18,113 # d7071 <mem3__pt_level2+0xf051>
    41014d60:	00c91913          	slli	x18,x18,0xc
    41014d64:	08190913          	addi	x18,x18,129
    41014d68:	d0097bd3          	fcvt.s.w	f23,x18
    41014d6c:	0174b027          	fsd	f23,0(x9)
    41014d70:	00098393          	mv	x7,x19
    41014d74:	00058fb7          	lui	x31,0x58
    41014d78:	0b0f8f9b          	addiw	x31,x31,176 # 580b0 <pte_access_flags>
    41014d7c:	0050029b          	addiw	x5,x0,5
    41014d80:	02029293          	slli	x5,x5,0x20
    41014d84:	005fb023          	sd	x5,0(x31)
    41014d88:	00200293          	li	x5,2
    41014d8c:	005fb423          	sd	x5,8(x31)
    41014d90:	fff00293          	li	x5,-1
    41014d94:	005fb823          	sd	x5,16(x31)
    41014d98:	000f0fb7          	lui	x31,0xf0
    41014d9c:	001f8f9b          	addiw	x31,x31,1 # f0001 <mem3__pt_level2+0x27fe1>
    41014da0:	00cf9f93          	slli	x31,x31,0xc
    41014da4:	008f8f93          	addi	x31,x31,8
    41014da8:	00000073          	ecall
    41014dac:	12000073          	sfence.vma

0000000041014db0 <SID_SVNAPOT_02_STORE_passed>:
    41014db0:	00f00f9b          	addiw	x31,x0,15
    41014db4:	01cf9f93          	slli	x31,x31,0x1c
    41014db8:	001f8f93          	addi	x31,x31,1
    41014dbc:	00000073          	ecall

0000000041014dc0 <SID_SVNAPOT_02_AMO>:
    41014dc0:	01d0011b          	addiw	x2,x0,29
    41014dc4:	02011113          	slli	x2,x2,0x20
    41014dc8:	000012b7          	lui	x5,0x1
    41014dcc:	00510133          	add	x2,x2,x5
    41014dd0:	ff017113          	andi	x2,x2,-16
    41014dd4:	00058fb7          	lui	x31,0x58
    41014dd8:	0b0f8f9b          	addiw	x31,x31,176 # 580b0 <pte_access_flags>
    41014ddc:	0110029b          	addiw	x5,x0,17
    41014de0:	01e29293          	slli	x5,x5,0x1e
    41014de4:	005fb023          	sd	x5,0(x31)
    41014de8:	00200293          	li	x5,2
    41014dec:	005fb423          	sd	x5,8(x31)
    41014df0:	fff00293          	li	x5,-1
    41014df4:	005fb823          	sd	x5,16(x31)
    41014df8:	000f0fb7          	lui	x31,0xf0
    41014dfc:	001f8f9b          	addiw	x31,x31,1 # f0001 <mem3__pt_level2+0x27fe1>
    41014e00:	00cf9f93          	slli	x31,x31,0xc
    41014e04:	007f8f93          	addi	x31,x31,7
    41014e08:	00000073          	ecall
    41014e0c:	00038d93          	mv	x27,x7
    41014e10:	00100c9b          	addiw	x25,x0,1
    41014e14:	031c9c93          	slli	x25,x25,0x31
    41014e18:	fffc8c93          	addi	x25,x25,-1
    41014e1c:	00ec9c93          	slli	x25,x25,0xe
    41014e20:	3ffc8c93          	addi	x25,x25,1023
    41014e24:	019dfd33          	and	x26,x27,x25
    41014e28:	fff0099b          	addiw	x19,x0,-1
    41014e2c:	03299993          	slli	x19,x19,0x32
    41014e30:	00198993          	addi	x19,x19,1
    41014e34:	00d99993          	slli	x19,x19,0xd
    41014e38:	013d6fb3          	or	x31,x26,x19
    41014e3c:	000f8393          	mv	x7,x31
    41014e40:	00058fb7          	lui	x31,0x58
    41014e44:	0b0f8f9b          	addiw	x31,x31,176 # 580b0 <pte_access_flags>
    41014e48:	0110029b          	addiw	x5,x0,17
    41014e4c:	01e29293          	slli	x5,x5,0x1e
    41014e50:	005fb023          	sd	x5,0(x31)
    41014e54:	00200293          	li	x5,2
    41014e58:	005fb423          	sd	x5,8(x31)
    41014e5c:	fff00293          	li	x5,-1
    41014e60:	005fb823          	sd	x5,16(x31)
    41014e64:	000f0fb7          	lui	x31,0xf0
    41014e68:	001f8f9b          	addiw	x31,x31,1 # f0001 <mem3__pt_level2+0x27fe1>
    41014e6c:	00cf9f93          	slli	x31,x31,0xc
    41014e70:	008f8f93          	addi	x31,x31,8
    41014e74:	00000073          	ecall
    41014e78:	12000073          	sfence.vma
    41014e7c:	0110061b          	addiw	x12,x0,17
    41014e80:	01e61613          	slli	x12,x12,0x1e
    41014e84:	00000693          	li	x13,0
    41014e88:	00d60eb3          	add	x29,x12,x13
    41014e8c:	080ea82f          	amoswap.w	x16,x0,(x29)
    41014e90:	000d8393          	mv	x7,x27
    41014e94:	00058fb7          	lui	x31,0x58
    41014e98:	0b0f8f9b          	addiw	x31,x31,176 # 580b0 <pte_access_flags>
    41014e9c:	0110029b          	addiw	x5,x0,17
    41014ea0:	01e29293          	slli	x5,x5,0x1e
    41014ea4:	005fb023          	sd	x5,0(x31)
    41014ea8:	00200293          	li	x5,2
    41014eac:	005fb423          	sd	x5,8(x31)
    41014eb0:	fff00293          	li	x5,-1
    41014eb4:	005fb823          	sd	x5,16(x31)
    41014eb8:	000f0fb7          	lui	x31,0xf0
    41014ebc:	001f8f9b          	addiw	x31,x31,1 # f0001 <mem3__pt_level2+0x27fe1>
    41014ec0:	00cf9f93          	slli	x31,x31,0xc
    41014ec4:	008f8f93          	addi	x31,x31,8
    41014ec8:	00000073          	ecall
    41014ecc:	12000073          	sfence.vma

0000000041014ed0 <SID_SVNAPOT_02_AMO_passed>:
    41014ed0:	00f00f9b          	addiw	x31,x0,15
    41014ed4:	01cf9f93          	slli	x31,x31,0x1c
    41014ed8:	001f8f93          	addi	x31,x31,1
    41014edc:	00000073          	ecall

0000000041014ee0 <SID_SVNAPOT_02_LRSC>:
    41014ee0:	00056137          	lui	x2,0x56
    41014ee4:	000012b7          	lui	x5,0x1
    41014ee8:	00510133          	add	x2,x2,x5
    41014eec:	ff017113          	andi	x2,x2,-16
    41014ef0:	00058fb7          	lui	x31,0x58
    41014ef4:	0b0f8f9b          	addiw	x31,x31,176 # 580b0 <pte_access_flags>
    41014ef8:	ff10029b          	addiw	x5,x0,-15
    41014efc:	02129293          	slli	x5,x5,0x21
    41014f00:	005fb023          	sd	x5,0(x31)
    41014f04:	00200293          	li	x5,2
    41014f08:	005fb423          	sd	x5,8(x31)
    41014f0c:	fff00293          	li	x5,-1
    41014f10:	005fb823          	sd	x5,16(x31)
    41014f14:	000f0fb7          	lui	x31,0xf0
    41014f18:	001f8f9b          	addiw	x31,x31,1 # f0001 <mem3__pt_level2+0x27fe1>
    41014f1c:	00cf9f93          	slli	x31,x31,0xc
    41014f20:	007f8f93          	addi	x31,x31,7
    41014f24:	00000073          	ecall
    41014f28:	00038413          	mv	x8,x7
    41014f2c:	0010039b          	addiw	x7,x0,1
    41014f30:	03139393          	slli	x7,x7,0x31
    41014f34:	fff38393          	addi	x7,x7,-1
    41014f38:	00e39393          	slli	x7,x7,0xe
    41014f3c:	3ff38393          	addi	x7,x7,1023
    41014f40:	00747733          	and	x14,x8,x7
    41014f44:	fff00d1b          	addiw	x26,x0,-1
    41014f48:	032d1d13          	slli	x26,x26,0x32
    41014f4c:	001d0d13          	addi	x26,x26,1
    41014f50:	00dd1d13          	slli	x26,x26,0xd
    41014f54:	01a76db3          	or	x27,x14,x26
    41014f58:	000d8393          	mv	x7,x27
    41014f5c:	00058fb7          	lui	x31,0x58
    41014f60:	0b0f8f9b          	addiw	x31,x31,176 # 580b0 <pte_access_flags>
    41014f64:	ff10029b          	addiw	x5,x0,-15
    41014f68:	02129293          	slli	x5,x5,0x21
    41014f6c:	005fb023          	sd	x5,0(x31)
    41014f70:	00200293          	li	x5,2
    41014f74:	005fb423          	sd	x5,8(x31)
    41014f78:	fff00293          	li	x5,-1
    41014f7c:	005fb823          	sd	x5,16(x31)
    41014f80:	000f0fb7          	lui	x31,0xf0
    41014f84:	001f8f9b          	addiw	x31,x31,1 # f0001 <mem3__pt_level2+0x27fe1>
    41014f88:	00cf9f93          	slli	x31,x31,0xc
    41014f8c:	008f8f93          	addi	x31,x31,8
    41014f90:	00000073          	ecall
    41014f94:	12000073          	sfence.vma
    41014f98:	ff10081b          	addiw	x16,x0,-15
    41014f9c:	02181813          	slli	x16,x16,0x21
    41014fa0:	00000b13          	li	x22,0
    41014fa4:	01680eb3          	add	x29,x16,x22
    41014fa8:	100eaaaf          	lr.w	x21,(x29)
    41014fac:	ff100d1b          	addiw	x26,x0,-15
    41014fb0:	021d1d13          	slli	x26,x26,0x21
    41014fb4:	00000b93          	li	x23,0
    41014fb8:	017d0f33          	add	x30,x26,x23
    41014fbc:	180f292f          	sc.w	x18,x0,(x30)
    41014fc0:	00040393          	mv	x7,x8
    41014fc4:	00058fb7          	lui	x31,0x58
    41014fc8:	0b0f8f9b          	addiw	x31,x31,176 # 580b0 <pte_access_flags>
    41014fcc:	ff10029b          	addiw	x5,x0,-15
    41014fd0:	02129293          	slli	x5,x5,0x21
    41014fd4:	005fb023          	sd	x5,0(x31)
    41014fd8:	00200293          	li	x5,2
    41014fdc:	005fb423          	sd	x5,8(x31)
    41014fe0:	fff00293          	li	x5,-1
    41014fe4:	005fb823          	sd	x5,16(x31)
    41014fe8:	000f0fb7          	lui	x31,0xf0
    41014fec:	001f8f9b          	addiw	x31,x31,1 # f0001 <mem3__pt_level2+0x27fe1>
    41014ff0:	00cf9f93          	slli	x31,x31,0xc
    41014ff4:	008f8f93          	addi	x31,x31,8
    41014ff8:	00000073          	ecall
    41014ffc:	12000073          	sfence.vma

0000000041015000 <SID_SVNAPOT_02_LRSC_passed>:
    41015000:	00f00f9b          	addiw	x31,x0,15
    41015004:	01cf9f93          	slli	x31,x31,0x1c
    41015008:	001f8f93          	addi	x31,x31,1
    4101500c:	00000073          	ecall

0000000041015010 <test_cleanup>:
    41015010:	00f00f9b          	addiw	x31,x0,15
    41015014:	01cf9f93          	slli	x31,x31,0x1c
    41015018:	001f8f93          	addi	x31,x31,1
    4101501c:	00000073          	ecall

0000000041015020 <local_test_failed>:
    41015020:	00f00f9b          	addiw	x31,x0,15
    41015024:	01cf9f93          	slli	x31,x31,0x1c
    41015028:	002f8f93          	addi	x31,x31,2
    4101502c:	00000073          	ecall

Disassembly of section .csr_machine_0:

0000000041214000 <csr_access_mstatus_machine_key_2_set-0x30>:
    41214000:	44c26fb7          	lui	x31,0x44c26
    41214004:	0a0f8f9b          	addiw	x31,x31,160 # 44c260a0 <machine_csr_jump_table_flags_pa>
    41214008:	000fbf83          	ld	x31,0(x31)
    4121400c:	00200293          	li	x5,2
    41214010:	025f8063          	beq	x31,x5,41214030 <csr_access_mstatus_machine_key_2_set>
    41214014:	00100293          	li	x5,1
    41214018:	025f8063          	beq	x31,x5,41214038 <csr_access_mstatus_machine_key_1_clear>
    4121401c:	00400293          	li	x5,4
    41214020:	025f8063          	beq	x31,x5,41214040 <csr_access_mtvec_machine_key_4_set>
    41214024:	00300293          	li	x5,3
    41214028:	025f8063          	beq	x31,x5,41214048 <csr_access_mtvec_machine_key_3_clear>
    4121402c:	0240006f          	j	41214050 <end_machine_label>

0000000041214030 <csr_access_mstatus_machine_key_2_set>:
    41214030:	3003a073          	csrs	mstatus,x7
    41214034:	01c0006f          	j	41214050 <end_machine_label>

0000000041214038 <csr_access_mstatus_machine_key_1_clear>:
    41214038:	3003b073          	csrc	mstatus,x7
    4121403c:	0140006f          	j	41214050 <end_machine_label>

0000000041214040 <csr_access_mtvec_machine_key_4_set>:
    41214040:	3053a073          	csrs	mtvec,x7
    41214044:	00c0006f          	j	41214050 <end_machine_label>

0000000041214048 <csr_access_mtvec_machine_key_3_clear>:
    41214048:	3053b073          	csrc	mtvec,x7
    4121404c:	0040006f          	j	41214050 <end_machine_label>

0000000041214050 <end_machine_label>:
    41214050:	000f0fb7          	lui	x31,0xf0
    41214054:	001f8f9b          	addiw	x31,x31,1 # f0001 <mem3__pt_level2+0x27fe1>
    41214058:	00cf9f93          	slli	x31,x31,0xc
    4121405c:	004f8f93          	addi	x31,x31,4
    41214060:	00000073          	ecall

Disassembly of section .csr_super_0:

0000000041215000 <end_super_label-0x10>:
    41215000:	00058fb7          	lui	x31,0x58
    41215004:	0a8f8f9b          	addiw	x31,x31,168 # 580a8 <super_csr_jump_table_flags>
    41215008:	000fbf83          	ld	x31,0(x31)
    4121500c:	0040006f          	j	41215010 <end_super_label>

0000000041215010 <end_super_label>:
    41215010:	000f0fb7          	lui	x31,0xf0
    41215014:	001f8f9b          	addiw	x31,x31,1 # f0001 <mem3__pt_level2+0x27fe1>
    41215018:	00cf9f93          	slli	x31,x31,0xc
    4121501c:	004f8f93          	addi	x31,x31,4
    41215020:	00000073          	ecall

Disassembly of section .os_data:

0000000000058000 <passed_addr_ptr>:
   58000:	4090                	.insn	2, 0x4090
   58002:	4101                	.insn	2, 0x4101
   58004:	0000                	.insn	2, 0x0000
	...

0000000000058008 <failed_addr_ptr>:
   58008:	40a0                	.insn	2, 0x40a0
   5800a:	4101                	.insn	2, 0x4101
   5800c:	0000                	.insn	2, 0x0000
	...

0000000000058010 <end_test_addr_ptr>:
   58010:	40b0                	.insn	2, 0x40b0
   58012:	4101                	.insn	2, 0x4101
   58014:	0000                	.insn	2, 0x0000
	...

0000000000058018 <os_passed_addr_ptr>:
   58018:	0784                	.insn	2, 0x0784
   5801a:	4100                	.insn	2, 0x4100
   5801c:	0000                	.insn	2, 0x0000
	...

0000000000058020 <os_failed_addr_ptr>:
   58020:	0794                	.insn	2, 0x0794
   58022:	4100                	.insn	2, 0x4100
   58024:	0000                	.insn	2, 0x0000
	...

0000000000058028 <os_end_test_addr_ptr>:
   58028:	07a0                	.insn	2, 0x07a0
   5802a:	4100                	.insn	2, 0x4100
   5802c:	0000                	.insn	2, 0x0000
	...

0000000000058030 <rvcp_prefix_str_data>:
   58030:	5652                	.insn	2, 0x5652
   58032:	203a5043          	fmadd.s	f0,f20,f3,f4,unknown
   58036:	6554                	.insn	2, 0x6554
   58038:	46207473          	csrrci	x8,0x462,0
   5803c:	6c69                	.insn	2, 0x6c69
   5803e:	2065                	.insn	2, 0x2065
	...

0000000000058041 <rvcp_testname_str_data>:
   58041:	7074                	.insn	2, 0x7074
   58043:	735f 6e76 7061      	.insn	6, 0x70616e76735f
   58049:	315f746f          	jal	x8,14fb5d <mem1__pt_level1+0x12b5d>
	...

000000000005804e <rvcp_passed_str_data>:
   5804e:	4150                	.insn	2, 0x4150
   58050:	44455353          	fround.h	f6,f10,unknown
	...

0000000000058055 <rvcp_failed_str_data>:
   58055:	4146                	.insn	2, 0x4146
   58057:	4c49                	.insn	2, 0x4c49
   58059:	4445                	.insn	2, 0x4445
	...

000000000005805c <rvcp_space_str_data>:
   5805c:	0020                	.insn	2, 0x0020

000000000005805e <rvcp_newline_str_data>:
   5805e:	000a                	.insn	2, 0x000a

0000000000058060 <excp_ignored_count_mem>:
	...

0000000000058068 <machine_flags_mem>:
	...

0000000000058070 <user_flags_mem>:
	...

0000000000058078 <super_flags_mem>:
	...

0000000000058080 <machine_area_mem>:
	...

0000000000058088 <user_area_mem>:
	...

0000000000058090 <super_area_mem>:
	...

0000000000058098 <zero_data_mem>:
	...

00000000000580a0 <machine_csr_jump_table_flags_mem>:
	...

00000000000580a8 <super_csr_jump_table_flags_mem>:
	...

00000000000580b0 <pte_access_flags_mem>:
	...

00000000000580c8 <num_harts_ended_mem>:
	...

00000000000580d0 <num_hard_fails_mem>:
	...

Disassembly of section .hart_context:

000000003bd71000 <hart_context_0>:
    3bd71000:	5000                	.insn	2, 0x5000
	...
    3bd71016:	0000                	.insn	2, 0x0000
    3bd71018:	0001                	.insn	2, 0x0001
    3bd7101a:	0000                	.insn	2, 0x0000
    3bd7101c:	0000                	.insn	2, 0x0000
    3bd7101e:	0000                	.insn	2, 0x0000
    3bd71020:	ffff                	.insn	2, 0xffff
    3bd71022:	ffff                	.insn	2, 0xffff
    3bd71024:	ffff                	.insn	2, 0xffff
    3bd71026:	ffff                	.insn	2, 0xffff
    3bd71028:	ffff                	.insn	2, 0xffff
    3bd7102a:	ffff                	.insn	2, 0xffff
    3bd7102c:	ffff                	.insn	2, 0xffff
    3bd7102e:	ffff                	.insn	2, 0xffff
    3bd71030:	ffff                	.insn	2, 0xffff
    3bd71032:	ffff                	.insn	2, 0xffff
    3bd71034:	ffff                	.insn	2, 0xffff
    3bd71036:	ffff                	.insn	2, 0xffff
	...
    3bd71050:	00ff 0000 0000 0000 	.insn	10, 0x00ff00000000000000ff
    3bd71058:	00ff 
	...
    3bd71176:	0000                	.insn	2, 0x0000
    3bd71178:	ffff                	.insn	2, 0xffff
    3bd7117a:	ffff                	.insn	2, 0xffff
    3bd7117c:	ffff                	.insn	2, 0xffff
    3bd7117e:	ffff                	.insn	2, 0xffff
	...
    3bd71188:	ffff                	.insn	2, 0xffff
    3bd7118a:	ffff                	.insn	2, 0xffff
	...

Disassembly of section .hart_stack_0:

0000000000004000 <hart_stack_0>:
	...

Disassembly of section .io_htif:

0000000041040000 <tohost>:
	...

0000000041040040 <fromhost>:
	...

Disassembly of section .mem0:

0000000400000000 <.mem0>:
   400000000:	c0de                	.insn	2, 0xc0de
   400000002:	c001                	.insn	2, 0xc001
   400000004:	0000                	.insn	2, 0x0000
	...

Disassembly of section .mem1:

ffffffeac0000000 <.mem1>:
ffffffeac0000000:	c0de                	.insn	2, 0xc0de
ffffffeac0000002:	c001                	.insn	2, 0xc001
ffffffeac0000004:	0000                	.insn	2, 0x0000
	...

Disassembly of section .mem2:

0000001cc0000000 <.mem2>:
  1cc0000000:	c0de                	.insn	2, 0xc0de
  1cc0000002:	c001                	.insn	2, 0xc001
  1cc0000004:	0000                	.insn	2, 0x0000
	...

Disassembly of section .mem3:

0000000100000000 <.mem3>:
   100000000:	c0de                	.insn	2, 0xc0de
   100000002:	c001                	.insn	2, 0xc001
   100000004:	0000                	.insn	2, 0x0000
	...

Disassembly of section .mem4:

fffffffd40000000 <.mem4>:
fffffffd40000000:	c0de                	.insn	2, 0xc0de
fffffffd40000002:	c001                	.insn	2, 0xc001
fffffffd40000004:	0000                	.insn	2, 0x0000
	...

Disassembly of section .mem5:

0000000780000000 <.mem5>:
   780000000:	c0de                	.insn	2, 0xc0de
   780000002:	c001                	.insn	2, 0xc001
   780000004:	0000                	.insn	2, 0x0000
	...

Disassembly of section .mem6:

fffffffd80000000 <.mem6>:
fffffffd80000000:	c0de                	.insn	2, 0xc0de
fffffffd80000002:	c001                	.insn	2, 0xc001
fffffffd80000004:	0000                	.insn	2, 0x0000
	...

Disassembly of section .mem7:

0000000a40000000 <.mem7>:
   a40000000:	c0de                	.insn	2, 0xc0de
   a40000002:	c001                	.insn	2, 0xc001
   a40000004:	0000                	.insn	2, 0x0000
	...

Disassembly of section .mem8:

0000000140000000 <.mem8>:
   140000000:	c0de                	.insn	2, 0xc0de
   140000002:	c001                	.insn	2, 0xc001
   140000004:	0000                	.insn	2, 0x0000
	...

Disassembly of section .mem9:

0000000500000000 <.mem9>:
   500000000:	c0de                	.insn	2, 0xc0de
   500000002:	c001                	.insn	2, 0xc001
   500000004:	0000                	.insn	2, 0x0000
	...

Disassembly of section .mem10:

0000000440000000 <.mem10>:
   440000000:	c0de                	.insn	2, 0xc0de
   440000002:	c001                	.insn	2, 0xc001
   440000004:	0000                	.insn	2, 0x0000
	...

Disassembly of section .mem11:

ffffffe200000000 <.mem11>:
ffffffe200000000:	c0de                	.insn	2, 0xc0de
ffffffe200000002:	c001                	.insn	2, 0xc001
ffffffe200000004:	0000                	.insn	2, 0x0000
	...

Disassembly of section .tp_csr_storage:

000000000152f000 <.tp_csr_storage>:
 152f000:	c0de                	.insn	2, 0xc0de
 152f002:	c001                	.insn	2, 0xc001
 152f004:	0000                	.insn	2, 0x0000
	...

Disassembly of section .SID_SVNAPOT_00_LOAD_stack:

000000003f2c6000 <.SID_SVNAPOT_00_LOAD_stack>:
    3f2c6000:	c0de                	.insn	2, 0xc0de
    3f2c6002:	c001                	.insn	2, 0xc001
    3f2c6004:	0000                	.insn	2, 0x0000
	...

Disassembly of section .SID_SVNAPOT_00_STORE_stack:

0000000000110000 <.SID_SVNAPOT_00_STORE_stack>:
  110000:	c0de                	.insn	2, 0xc0de
  110002:	c001                	.insn	2, 0xc001
  110004:	0000                	.insn	2, 0x0000
	...

Disassembly of section .SID_SVNAPOT_00_AMO_stack:

0000000016175000 <.SID_SVNAPOT_00_AMO_stack>:
    16175000:	c0de                	.insn	2, 0xc0de
    16175002:	c001                	.insn	2, 0xc001
    16175004:	0000                	.insn	2, 0x0000
	...

Disassembly of section .SID_SVNAPOT_00_LRSC_stack:

00000000b8daf000 <.SID_SVNAPOT_00_LRSC_stack>:
    b8daf000:	c0de                	.insn	2, 0xc0de
    b8daf002:	c001                	.insn	2, 0xc001
    b8daf004:	0000                	.insn	2, 0x0000
	...

Disassembly of section .SID_SVNAPOT_01_LOAD_stack:

000000024a157000 <.SID_SVNAPOT_01_LOAD_stack>:
   24a157000:	c0de                	.insn	2, 0xc0de
   24a157002:	c001                	.insn	2, 0xc001
   24a157004:	0000                	.insn	2, 0x0000
	...

Disassembly of section .SID_SVNAPOT_01_STORE_stack:

0000000004655000 <.SID_SVNAPOT_01_STORE_stack>:
 4655000:	c0de                	.insn	2, 0xc0de
 4655002:	c001                	.insn	2, 0xc001
 4655004:	0000                	.insn	2, 0x0000
	...

Disassembly of section .SID_SVNAPOT_01_AMO_stack:

0000000004657000 <.SID_SVNAPOT_01_AMO_stack>:
 4657000:	c0de                	.insn	2, 0xc0de
 4657002:	c001                	.insn	2, 0xc001
 4657004:	0000                	.insn	2, 0x0000
	...

Disassembly of section .SID_SVNAPOT_01_LRSC_stack:

00000000408f8000 <.SID_SVNAPOT_01_LRSC_stack>:
    408f8000:	c0de                	.insn	2, 0xc0de
    408f8002:	c001                	.insn	2, 0xc001
    408f8004:	0000                	.insn	2, 0x0000
	...

Disassembly of section .SID_SVNAPOT_02_LOAD_stack:

0000000054f50000 <.SID_SVNAPOT_02_LOAD_stack>:
    54f50000:	c0de                	.insn	2, 0xc0de
    54f50002:	c001                	.insn	2, 0xc001
    54f50004:	0000                	.insn	2, 0x0000
	...

Disassembly of section .SID_SVNAPOT_02_STORE_stack:

0000000002476000 <.SID_SVNAPOT_02_STORE_stack>:
 2476000:	c0de                	.insn	2, 0xc0de
 2476002:	c001                	.insn	2, 0xc001
 2476004:	0000                	.insn	2, 0x0000
	...

Disassembly of section .SID_SVNAPOT_02_AMO_stack:

0000001d00000000 <.SID_SVNAPOT_02_AMO_stack>:
  1d00000000:	c0de                	.insn	2, 0xc0de
  1d00000002:	c001                	.insn	2, 0xc001
  1d00000004:	0000                	.insn	2, 0x0000
	...

Disassembly of section .SID_SVNAPOT_02_LRSC_stack:

0000000000056000 <.SID_SVNAPOT_02_LRSC_stack>:
   56000:	c0de                	.insn	2, 0xc0de
   56002:	c001                	.insn	2, 0xc001
   56004:	0000                	.insn	2, 0x0000
	...

Disassembly of section .__pagetable_map_os_0x00000000435d2000:

00000000435d2000 <__pagetable_map_os_0x00000000435d2000>:
    435d2000:	5401                	.insn	2, 0x5401
    435d2002:	1130                	.insn	2, 0x1130
    435d2004:	0000                	.insn	2, 0x0000
    435d2006:	0000                	.insn	2, 0x0000
    435d2008:	0c01                	.insn	2, 0x0c01
    435d200a:	1108                	.insn	2, 0x1108
    435d200c:	0000                	.insn	2, 0x0000
    435d200e:	0000                	.insn	2, 0x0000
    435d2010:	2401                	.insn	2, 0x2401
    435d2012:	000010d7          	vfadd.vv	v1,v0,v0,v0.t
    435d2016:	0000                	.insn	2, 0x0000
    435d2018:	f801                	.insn	2, 0xf801
    435d201a:	0000112f          	.insn	4, 0x112f
    435d201e:	0000                	.insn	2, 0x0000
    435d2020:	2c01                	.insn	2, 0x2c01
    435d2022:	1108                	.insn	2, 0x1108
    435d2024:	0000                	.insn	2, 0x0000
    435d2026:	0000                	.insn	2, 0x0000
    435d2028:	9401                	.insn	2, 0x9401
    435d202a:	1130                	.insn	2, 0x1130
	...
    435d2038:	1c01                	.insn	2, 0x1c01
    435d203a:	10d5                	.insn	2, 0x10d5
	...
    435d2048:	8401                	.insn	2, 0x8401
    435d204a:	113e                	.insn	2, 0x113e
	...
    435d2078:	dc01                	.insn	2, 0xdc01
    435d207a:	10c9                	.insn	2, 0x10c9
    435d207c:	0000                	.insn	2, 0x0000
    435d207e:	0000                	.insn	2, 0x0000
    435d2080:	d801                	.insn	2, 0xd801
    435d2082:	000010e3          	bnez	x0,435d2882 <mem2__pt_level2__phys+0x4ea>
    435d2086:	0000                	.insn	2, 0x0000
    435d2088:	fc01                	.insn	2, 0xfc01
    435d208a:	113a                	.insn	2, 0x113a
    435d208c:	0000                	.insn	2, 0x0000
    435d208e:	0000                	.insn	2, 0x0000
    435d2090:	ec01                	.insn	2, 0xec01
    435d2092:	109c                	.insn	2, 0x109c
	...
    435d20a0:	e401                	.insn	2, 0xe401
    435d20a2:	000010ff 00000000 	.insn	12, 0x10ff
    435d20aa:	00000000 
	...
    435d20ee:	0000                	.insn	2, 0x0000
    435d20f0:	e401                	.insn	2, 0xe401
    435d20f2:	000010e3          	bnez	x0,435d28f2 <mem2__pt_level2__phys+0x55a>
    435d20f6:	0000                	.insn	2, 0x0000
    435d20f8:	5001                	.insn	2, 0x5001
    435d20fa:	000010d3          	fadd.s	f1,f0,f0,rtz
    435d20fe:	0000                	.insn	2, 0x0000
    435d2100:	e801                	.insn	2, 0xe801
    435d2102:	1140                	.insn	2, 0x1140
	...
    435d2128:	9401                	.insn	2, 0x9401
    435d212a:	1076                	.insn	2, 0x1076
	...
    435d2148:	5801                	.insn	2, 0x5801
    435d214a:	1130                	.insn	2, 0x1130
	...
    435d2188:	e401                	.insn	2, 0xe401
    435d218a:	106d                	.insn	2, 0x106d
	...
    435d22d8:	cc01                	.insn	2, 0xcc01
    435d22da:	10c9                	.insn	2, 0x10c9
	...
    435d2398:	3001                	.insn	2, 0x3001
    435d239a:	10d1                	.insn	2, 0x10d1
    435d239c:	0000                	.insn	2, 0x0000
    435d239e:	0000                	.insn	2, 0x0000
    435d23a0:	8801                	.insn	2, 0x8801
    435d23a2:	10d6                	.insn	2, 0x10d6
	...
    435d23f8:	dc01                	.insn	2, 0xdc01
    435d23fa:	000010e3          	bnez	x0,435d2bfa <mem2__pt_level2__phys+0x862>
	...
    435d254e:	0000                	.insn	2, 0x0000
    435d2550:	4801                	.insn	2, 0x4801
    435d2552:	000010d3          	fadd.s	f1,f0,f0,rtz
	...
    435d2c3e:	0000                	.insn	2, 0x0000
    435d2c40:	9c01                	.insn	2, 0x9c01
    435d2c42:	10d6                	.insn	2, 0x10d6
	...
    435d2d58:	5801                	.insn	2, 0x5801
    435d2d5a:	000010d7          	vfadd.vv	v1,v0,v0,v0.t
	...
    435d2fa6:	0000                	.insn	2, 0x0000
    435d2fa8:	9801                	.insn	2, 0x9801
    435d2faa:	10fc                	.insn	2, 0x10fc
    435d2fac:	0000                	.insn	2, 0x0000
    435d2fae:	0000                	.insn	2, 0x0000
    435d2fb0:	b401                	.insn	2, 0xb401
    435d2fb2:	1108                	.insn	2, 0x1108
    435d2fb4:	0000                	.insn	2, 0x0000
	...

Disassembly of section .__pagetable_map_os_0x0000000044203000:

0000000044203000 <__pagetable_map_os_0x0000000044203000>:
	...
    44203020:	1801                	.insn	2, 0x1801
    44203022:	00001093          	slli	x1,x0,0x0
	...
    44203036:	0000                	.insn	2, 0x0000
    44203038:	0801                	.insn	2, 0x0801
    4420303a:	1108                	.insn	2, 0x1108
    4420303c:	0000                	.insn	2, 0x0000
    4420303e:	0000                	.insn	2, 0x0000
    44203040:	6001                	.insn	2, 0x6001
    44203042:	109d                	.insn	2, 0x109d
    44203044:	0000                	.insn	2, 0x0000
    44203046:	0000                	.insn	2, 0x0000
    44203048:	ec01                	.insn	2, 0xec01
    4420304a:	10c2                	.insn	2, 0x10c2
	...
    442030d0:	6401                	.insn	2, 0x6401
    442030d2:	1134                	.insn	2, 0x1134
	...
    44203180:	a001                	.insn	2, 0xa001
    44203182:	0000112b          	.insn	4, 0x112b
	...
    44203536:	0000                	.insn	2, 0x0000
    44203538:	bc01                	.insn	2, 0xbc01
    4420353a:	1134                	.insn	2, 0x1134
    4420353c:	0000                	.insn	2, 0x0000
	...

Disassembly of section .__pagetable_map_os_0x0000000042758000:

0000000042758000 <__pagetable_map_os_0x0000000042758000>:
	...
    42758080:	104040cf          	fnmadd.s	f1,f0,f4,f2,rmm
    42758084:	0000                	.insn	2, 0x0000
    42758086:	0000                	.insn	2, 0x0000
    42758088:	104044cf          	fnmadd.s	f9,f0,f4,f2,rmm
    4275808c:	0000                	.insn	2, 0x0000
    4275808e:	0000                	.insn	2, 0x0000
    42758090:	104048cf          	fnmadd.s	f17,f0,f4,f2,rmm
    42758094:	0000                	.insn	2, 0x0000
    42758096:	0000                	.insn	2, 0x0000
    42758098:	10404ccf          	fnmadd.s	f25,f0,f4,f2,rmm
    4275809c:	0000                	.insn	2, 0x0000
    4275809e:	0000                	.insn	2, 0x0000
    427580a0:	110000cf          	fnmadd.s	f1,f0,f16,f2,rne
    427580a4:	0000                	.insn	2, 0x0000
    427580a6:	0000                	.insn	2, 0x0000
    427580a8:	110004cf          	fnmadd.s	f9,f0,f16,f2,rne
    427580ac:	0000                	.insn	2, 0x0000
    427580ae:	0000                	.insn	2, 0x0000
    427580b0:	110008cf          	fnmadd.s	f17,f0,f16,f2,rne
    427580b4:	0000                	.insn	2, 0x0000
    427580b6:	0000                	.insn	2, 0x0000
    427580b8:	11000ccf          	fnmadd.s	f25,f0,f16,f2,rne
    427580bc:	0000                	.insn	2, 0x0000
    427580be:	0000                	.insn	2, 0x0000
    427580c0:	110010cf          	fnmadd.s	f1,f0,f16,f2,rtz
    427580c4:	0000                	.insn	2, 0x0000
    427580c6:	0000                	.insn	2, 0x0000
    427580c8:	110014cf          	fnmadd.s	f9,f0,f16,f2,rtz
    427580cc:	0000                	.insn	2, 0x0000
    427580ce:	0000                	.insn	2, 0x0000
    427580d0:	110018cf          	fnmadd.s	f17,f0,f16,f2,rtz
    427580d4:	0000                	.insn	2, 0x0000
    427580d6:	0000                	.insn	2, 0x0000
    427580d8:	11001ccf          	fnmadd.s	f25,f0,f16,f2,rtz
    427580dc:	0000                	.insn	2, 0x0000
    427580de:	0000                	.insn	2, 0x0000
    427580e0:	110020cf          	fnmadd.s	f1,f0,f16,f2,rdn
    427580e4:	0000                	.insn	2, 0x0000
    427580e6:	0000                	.insn	2, 0x0000
    427580e8:	110024cf          	fnmadd.s	f9,f0,f16,f2,rdn
    427580ec:	0000                	.insn	2, 0x0000
    427580ee:	0000                	.insn	2, 0x0000
    427580f0:	110028cf          	fnmadd.s	f17,f0,f16,f2,rdn
    427580f4:	0000                	.insn	2, 0x0000
    427580f6:	0000                	.insn	2, 0x0000
    427580f8:	11002ccf          	fnmadd.s	f25,f0,f16,f2,rdn
    427580fc:	0000                	.insn	2, 0x0000
    427580fe:	0000                	.insn	2, 0x0000
    42758100:	110030cf          	fnmadd.s	f1,f0,f16,f2,rup
    42758104:	0000                	.insn	2, 0x0000
    42758106:	0000                	.insn	2, 0x0000
    42758108:	110034cf          	fnmadd.s	f9,f0,f16,f2,rup
    4275810c:	0000                	.insn	2, 0x0000
    4275810e:	0000                	.insn	2, 0x0000
    42758110:	110038cf          	fnmadd.s	f17,f0,f16,f2,rup
    42758114:	0000                	.insn	2, 0x0000
    42758116:	0000                	.insn	2, 0x0000
    42758118:	11003ccf          	fnmadd.s	f25,f0,f16,f2,rup
    4275811c:	0000                	.insn	2, 0x0000
    4275811e:	0000                	.insn	2, 0x0000
    42758120:	110040cf          	fnmadd.s	f1,f0,f16,f2,rmm
    42758124:	0000                	.insn	2, 0x0000
    42758126:	0000                	.insn	2, 0x0000
    42758128:	110044cf          	fnmadd.s	f9,f0,f16,f2,rmm
    4275812c:	0000                	.insn	2, 0x0000
    4275812e:	0000                	.insn	2, 0x0000
    42758130:	110048cf          	fnmadd.s	f17,f0,f16,f2,rmm
    42758134:	0000                	.insn	2, 0x0000
    42758136:	0000                	.insn	2, 0x0000
    42758138:	11004ccf          	fnmadd.s	f25,f0,f16,f2,rmm
    4275813c:	0000                	.insn	2, 0x0000
    4275813e:	0000                	.insn	2, 0x0000
    42758140:	110050cf          	fnmadd.s	f1,f0,f16,f2,unknown
    42758144:	0000                	.insn	2, 0x0000
    42758146:	0000                	.insn	2, 0x0000
    42758148:	110054cf          	fnmadd.s	f9,f0,f16,f2,unknown
    4275814c:	0000                	.insn	2, 0x0000
    4275814e:	0000                	.insn	2, 0x0000
    42758150:	110058cf          	fnmadd.s	f17,f0,f16,f2,unknown
    42758154:	0000                	.insn	2, 0x0000
    42758156:	0000                	.insn	2, 0x0000
    42758158:	11005ccf          	fnmadd.s	f25,f0,f16,f2,unknown
    4275815c:	0000                	.insn	2, 0x0000
    4275815e:	0000                	.insn	2, 0x0000
    42758160:	110060cf          	fnmadd.s	f1,f0,f16,f2,unknown
    42758164:	0000                	.insn	2, 0x0000
    42758166:	0000                	.insn	2, 0x0000
    42758168:	110064cf          	fnmadd.s	f9,f0,f16,f2,unknown
    4275816c:	0000                	.insn	2, 0x0000
    4275816e:	0000                	.insn	2, 0x0000
    42758170:	110068cf          	fnmadd.s	f17,f0,f16,f2,unknown
    42758174:	0000                	.insn	2, 0x0000
    42758176:	0000                	.insn	2, 0x0000
    42758178:	11006ccf          	fnmadd.s	f25,f0,f16,f2,unknown
    4275817c:	0000                	.insn	2, 0x0000
    4275817e:	0000                	.insn	2, 0x0000
    42758180:	110070cf          	fnmadd.s	f1,f0,f16,f2
    42758184:	0000                	.insn	2, 0x0000
    42758186:	0000                	.insn	2, 0x0000
    42758188:	110074cf          	fnmadd.s	f9,f0,f16,f2
    4275818c:	0000                	.insn	2, 0x0000
    4275818e:	0000                	.insn	2, 0x0000
    42758190:	110078cf          	fnmadd.s	f17,f0,f16,f2
    42758194:	0000                	.insn	2, 0x0000
    42758196:	0000                	.insn	2, 0x0000
    42758198:	11007ccf          	fnmadd.s	f25,f0,f16,f2
    4275819c:	0000                	.insn	2, 0x0000
    4275819e:	0000                	.insn	2, 0x0000
    427581a0:	110080cf          	fnmadd.s	f1,f1,f16,f2,rne
    427581a4:	0000                	.insn	2, 0x0000
    427581a6:	0000                	.insn	2, 0x0000
    427581a8:	110084cf          	fnmadd.s	f9,f1,f16,f2,rne
    427581ac:	0000                	.insn	2, 0x0000
    427581ae:	0000                	.insn	2, 0x0000
    427581b0:	110088cf          	fnmadd.s	f17,f1,f16,f2,rne
    427581b4:	0000                	.insn	2, 0x0000
    427581b6:	0000                	.insn	2, 0x0000
    427581b8:	11008ccf          	fnmadd.s	f25,f1,f16,f2,rne
    427581bc:	0000                	.insn	2, 0x0000
    427581be:	0000                	.insn	2, 0x0000
    427581c0:	110090cf          	fnmadd.s	f1,f1,f16,f2,rtz
    427581c4:	0000                	.insn	2, 0x0000
    427581c6:	0000                	.insn	2, 0x0000
    427581c8:	110094cf          	fnmadd.s	f9,f1,f16,f2,rtz
    427581cc:	0000                	.insn	2, 0x0000
    427581ce:	0000                	.insn	2, 0x0000
    427581d0:	110098cf          	fnmadd.s	f17,f1,f16,f2,rtz
    427581d4:	0000                	.insn	2, 0x0000
    427581d6:	0000                	.insn	2, 0x0000
    427581d8:	11009ccf          	fnmadd.s	f25,f1,f16,f2,rtz
    427581dc:	0000                	.insn	2, 0x0000
    427581de:	0000                	.insn	2, 0x0000
    427581e0:	1100a0cf          	fnmadd.s	f1,f1,f16,f2,rdn
    427581e4:	0000                	.insn	2, 0x0000
    427581e6:	0000                	.insn	2, 0x0000
    427581e8:	1100a4cf          	fnmadd.s	f9,f1,f16,f2,rdn
    427581ec:	0000                	.insn	2, 0x0000
    427581ee:	0000                	.insn	2, 0x0000
    427581f0:	1100a8cf          	fnmadd.s	f17,f1,f16,f2,rdn
    427581f4:	0000                	.insn	2, 0x0000
    427581f6:	0000                	.insn	2, 0x0000
    427581f8:	1100accf          	fnmadd.s	f25,f1,f16,f2,rdn
    427581fc:	0000                	.insn	2, 0x0000
    427581fe:	0000                	.insn	2, 0x0000
    42758200:	104100cf          	fnmadd.s	f1,f2,f4,f2,rne
    42758204:	0000                	.insn	2, 0x0000
    42758206:	0000                	.insn	2, 0x0000
    42758208:	1100b4cf          	fnmadd.s	f9,f1,f16,f2,rup
    4275820c:	0000                	.insn	2, 0x0000
    4275820e:	0000                	.insn	2, 0x0000
    42758210:	1100b8cf          	fnmadd.s	f17,f1,f16,f2,rup
    42758214:	0000                	.insn	2, 0x0000
    42758216:	0000                	.insn	2, 0x0000
    42758218:	1100bccf          	fnmadd.s	f25,f1,f16,f2,rup
    4275821c:	0000                	.insn	2, 0x0000
    4275821e:	0000                	.insn	2, 0x0000
    42758220:	1100c0cf          	fnmadd.s	f1,f1,f16,f2,rmm
    42758224:	0000                	.insn	2, 0x0000
    42758226:	0000                	.insn	2, 0x0000
    42758228:	1100c4cf          	fnmadd.s	f9,f1,f16,f2,rmm
    4275822c:	0000                	.insn	2, 0x0000
    4275822e:	0000                	.insn	2, 0x0000
    42758230:	1100c8cf          	fnmadd.s	f17,f1,f16,f2,rmm
    42758234:	0000                	.insn	2, 0x0000
    42758236:	0000                	.insn	2, 0x0000
    42758238:	1100cccf          	fnmadd.s	f25,f1,f16,f2,rmm
    4275823c:	0000                	.insn	2, 0x0000
    4275823e:	0000                	.insn	2, 0x0000
    42758240:	1100d0cf          	fnmadd.s	f1,f1,f16,f2,unknown
    42758244:	0000                	.insn	2, 0x0000
    42758246:	0000                	.insn	2, 0x0000
    42758248:	1100d4cf          	fnmadd.s	f9,f1,f16,f2,unknown
    4275824c:	0000                	.insn	2, 0x0000
    4275824e:	0000                	.insn	2, 0x0000
    42758250:	1100d8cf          	fnmadd.s	f17,f1,f16,f2,unknown
    42758254:	0000                	.insn	2, 0x0000
    42758256:	0000                	.insn	2, 0x0000
    42758258:	1100dccf          	fnmadd.s	f25,f1,f16,f2,unknown
    4275825c:	0000                	.insn	2, 0x0000
    4275825e:	0000                	.insn	2, 0x0000
    42758260:	1100e0cf          	fnmadd.s	f1,f1,f16,f2,unknown
    42758264:	0000                	.insn	2, 0x0000
    42758266:	0000                	.insn	2, 0x0000
    42758268:	1100e4cf          	fnmadd.s	f9,f1,f16,f2,unknown
    4275826c:	0000                	.insn	2, 0x0000
    4275826e:	0000                	.insn	2, 0x0000
    42758270:	1100e8cf          	fnmadd.s	f17,f1,f16,f2,unknown
    42758274:	0000                	.insn	2, 0x0000
    42758276:	0000                	.insn	2, 0x0000
    42758278:	1100eccf          	fnmadd.s	f25,f1,f16,f2,unknown
    4275827c:	0000                	.insn	2, 0x0000
    4275827e:	0000                	.insn	2, 0x0000
    42758280:	1100f0cf          	fnmadd.s	f1,f1,f16,f2
    42758284:	0000                	.insn	2, 0x0000
    42758286:	0000                	.insn	2, 0x0000
    42758288:	1100f4cf          	fnmadd.s	f9,f1,f16,f2
    4275828c:	0000                	.insn	2, 0x0000
    4275828e:	0000                	.insn	2, 0x0000
    42758290:	1100f8cf          	fnmadd.s	f17,f1,f16,f2
    42758294:	0000                	.insn	2, 0x0000
    42758296:	0000                	.insn	2, 0x0000
    42758298:	1100fccf          	fnmadd.s	f25,f1,f16,f2
    4275829c:	0000                	.insn	2, 0x0000
    4275829e:	0000                	.insn	2, 0x0000
    427582a0:	110100cf          	fnmadd.s	f1,f2,f16,f2,rne
    427582a4:	0000                	.insn	2, 0x0000
    427582a6:	0000                	.insn	2, 0x0000
    427582a8:	110104cf          	fnmadd.s	f9,f2,f16,f2,rne
    427582ac:	0000                	.insn	2, 0x0000
    427582ae:	0000                	.insn	2, 0x0000
    427582b0:	110108cf          	fnmadd.s	f17,f2,f16,f2,rne
    427582b4:	0000                	.insn	2, 0x0000
    427582b6:	0000                	.insn	2, 0x0000
    427582b8:	11010ccf          	fnmadd.s	f25,f2,f16,f2,rne
    427582bc:	0000                	.insn	2, 0x0000
    427582be:	0000                	.insn	2, 0x0000
    427582c0:	110110cf          	fnmadd.s	f1,f2,f16,f2,rtz
    427582c4:	0000                	.insn	2, 0x0000
    427582c6:	0000                	.insn	2, 0x0000
    427582c8:	110114cf          	fnmadd.s	f9,f2,f16,f2,rtz
    427582cc:	0000                	.insn	2, 0x0000
    427582ce:	0000                	.insn	2, 0x0000
    427582d0:	110118cf          	fnmadd.s	f17,f2,f16,f2,rtz
    427582d4:	0000                	.insn	2, 0x0000
    427582d6:	0000                	.insn	2, 0x0000
    427582d8:	11011ccf          	fnmadd.s	f25,f2,f16,f2,rtz
    427582dc:	0000                	.insn	2, 0x0000
    427582de:	0000                	.insn	2, 0x0000
    427582e0:	110120cf          	fnmadd.s	f1,f2,f16,f2,rdn
    427582e4:	0000                	.insn	2, 0x0000
    427582e6:	0000                	.insn	2, 0x0000
    427582e8:	110124cf          	fnmadd.s	f9,f2,f16,f2,rdn
    427582ec:	0000                	.insn	2, 0x0000
    427582ee:	0000                	.insn	2, 0x0000
    427582f0:	110128cf          	fnmadd.s	f17,f2,f16,f2,rdn
    427582f4:	0000                	.insn	2, 0x0000
    427582f6:	0000                	.insn	2, 0x0000
    427582f8:	11012ccf          	fnmadd.s	f25,f2,f16,f2,rdn
    427582fc:	0000                	.insn	2, 0x0000
    427582fe:	0000                	.insn	2, 0x0000
    42758300:	110130cf          	fnmadd.s	f1,f2,f16,f2,rup
    42758304:	0000                	.insn	2, 0x0000
    42758306:	0000                	.insn	2, 0x0000
    42758308:	110134cf          	fnmadd.s	f9,f2,f16,f2,rup
    4275830c:	0000                	.insn	2, 0x0000
    4275830e:	0000                	.insn	2, 0x0000
    42758310:	110138cf          	fnmadd.s	f17,f2,f16,f2,rup
    42758314:	0000                	.insn	2, 0x0000
    42758316:	0000                	.insn	2, 0x0000
    42758318:	11013ccf          	fnmadd.s	f25,f2,f16,f2,rup
    4275831c:	0000                	.insn	2, 0x0000
    4275831e:	0000                	.insn	2, 0x0000
    42758320:	110140cf          	fnmadd.s	f1,f2,f16,f2,rmm
    42758324:	0000                	.insn	2, 0x0000
    42758326:	0000                	.insn	2, 0x0000
    42758328:	110144cf          	fnmadd.s	f9,f2,f16,f2,rmm
    4275832c:	0000                	.insn	2, 0x0000
    4275832e:	0000                	.insn	2, 0x0000
    42758330:	110148cf          	fnmadd.s	f17,f2,f16,f2,rmm
    42758334:	0000                	.insn	2, 0x0000
    42758336:	0000                	.insn	2, 0x0000
    42758338:	11014ccf          	fnmadd.s	f25,f2,f16,f2,rmm
    4275833c:	0000                	.insn	2, 0x0000
    4275833e:	0000                	.insn	2, 0x0000
    42758340:	110150cf          	fnmadd.s	f1,f2,f16,f2,unknown
    42758344:	0000                	.insn	2, 0x0000
    42758346:	0000                	.insn	2, 0x0000
    42758348:	110154cf          	fnmadd.s	f9,f2,f16,f2,unknown
    4275834c:	0000                	.insn	2, 0x0000
    4275834e:	0000                	.insn	2, 0x0000
    42758350:	110158cf          	fnmadd.s	f17,f2,f16,f2,unknown
    42758354:	0000                	.insn	2, 0x0000
    42758356:	0000                	.insn	2, 0x0000
    42758358:	11015ccf          	fnmadd.s	f25,f2,f16,f2,unknown
    4275835c:	0000                	.insn	2, 0x0000
    4275835e:	0000                	.insn	2, 0x0000
    42758360:	110160cf          	fnmadd.s	f1,f2,f16,f2,unknown
    42758364:	0000                	.insn	2, 0x0000
    42758366:	0000                	.insn	2, 0x0000
    42758368:	110164cf          	fnmadd.s	f9,f2,f16,f2,unknown
    4275836c:	0000                	.insn	2, 0x0000
    4275836e:	0000                	.insn	2, 0x0000
    42758370:	110168cf          	fnmadd.s	f17,f2,f16,f2,unknown
    42758374:	0000                	.insn	2, 0x0000
    42758376:	0000                	.insn	2, 0x0000
    42758378:	11016ccf          	fnmadd.s	f25,f2,f16,f2,unknown
    4275837c:	0000                	.insn	2, 0x0000
    4275837e:	0000                	.insn	2, 0x0000
    42758380:	110170cf          	fnmadd.s	f1,f2,f16,f2
    42758384:	0000                	.insn	2, 0x0000
    42758386:	0000                	.insn	2, 0x0000
    42758388:	110174cf          	fnmadd.s	f9,f2,f16,f2
    4275838c:	0000                	.insn	2, 0x0000
    4275838e:	0000                	.insn	2, 0x0000
    42758390:	110178cf          	fnmadd.s	f17,f2,f16,f2
    42758394:	0000                	.insn	2, 0x0000
    42758396:	0000                	.insn	2, 0x0000
    42758398:	11017ccf          	fnmadd.s	f25,f2,f16,f2
    4275839c:	0000                	.insn	2, 0x0000
    4275839e:	0000                	.insn	2, 0x0000
    427583a0:	110180cf          	fnmadd.s	f1,f3,f16,f2,rne
    427583a4:	0000                	.insn	2, 0x0000
    427583a6:	0000                	.insn	2, 0x0000
    427583a8:	110184cf          	fnmadd.s	f9,f3,f16,f2,rne
    427583ac:	0000                	.insn	2, 0x0000
    427583ae:	0000                	.insn	2, 0x0000
    427583b0:	110188cf          	fnmadd.s	f17,f3,f16,f2,rne
    427583b4:	0000                	.insn	2, 0x0000
    427583b6:	0000                	.insn	2, 0x0000
    427583b8:	11018ccf          	fnmadd.s	f25,f3,f16,f2,rne
    427583bc:	0000                	.insn	2, 0x0000
    427583be:	0000                	.insn	2, 0x0000
    427583c0:	110190cf          	fnmadd.s	f1,f3,f16,f2,rtz
    427583c4:	0000                	.insn	2, 0x0000
    427583c6:	0000                	.insn	2, 0x0000
    427583c8:	110194cf          	fnmadd.s	f9,f3,f16,f2,rtz
    427583cc:	0000                	.insn	2, 0x0000
    427583ce:	0000                	.insn	2, 0x0000
    427583d0:	110198cf          	fnmadd.s	f17,f3,f16,f2,rtz
    427583d4:	0000                	.insn	2, 0x0000
    427583d6:	0000                	.insn	2, 0x0000
    427583d8:	11019ccf          	fnmadd.s	f25,f3,f16,f2,rtz
    427583dc:	0000                	.insn	2, 0x0000
    427583de:	0000                	.insn	2, 0x0000
    427583e0:	1101a0cf          	fnmadd.s	f1,f3,f16,f2,rdn
    427583e4:	0000                	.insn	2, 0x0000
    427583e6:	0000                	.insn	2, 0x0000
    427583e8:	1101a4cf          	fnmadd.s	f9,f3,f16,f2,rdn
    427583ec:	0000                	.insn	2, 0x0000
    427583ee:	0000                	.insn	2, 0x0000
    427583f0:	1101a8cf          	fnmadd.s	f17,f3,f16,f2,rdn
    427583f4:	0000                	.insn	2, 0x0000
    427583f6:	0000                	.insn	2, 0x0000
    427583f8:	1101accf          	fnmadd.s	f25,f3,f16,f2,rdn
    427583fc:	0000                	.insn	2, 0x0000
    427583fe:	0000                	.insn	2, 0x0000
    42758400:	1101b0cf          	fnmadd.s	f1,f3,f16,f2,rup
    42758404:	0000                	.insn	2, 0x0000
    42758406:	0000                	.insn	2, 0x0000
    42758408:	1101b4cf          	fnmadd.s	f9,f3,f16,f2,rup
    4275840c:	0000                	.insn	2, 0x0000
    4275840e:	0000                	.insn	2, 0x0000
    42758410:	1101b8cf          	fnmadd.s	f17,f3,f16,f2,rup
    42758414:	0000                	.insn	2, 0x0000
    42758416:	0000                	.insn	2, 0x0000
    42758418:	1101bccf          	fnmadd.s	f25,f3,f16,f2,rup
    4275841c:	0000                	.insn	2, 0x0000
    4275841e:	0000                	.insn	2, 0x0000
    42758420:	1101c0cf          	fnmadd.s	f1,f3,f16,f2,rmm
    42758424:	0000                	.insn	2, 0x0000
    42758426:	0000                	.insn	2, 0x0000
    42758428:	1101c4cf          	fnmadd.s	f9,f3,f16,f2,rmm
    4275842c:	0000                	.insn	2, 0x0000
    4275842e:	0000                	.insn	2, 0x0000
    42758430:	1101c8cf          	fnmadd.s	f17,f3,f16,f2,rmm
    42758434:	0000                	.insn	2, 0x0000
    42758436:	0000                	.insn	2, 0x0000
    42758438:	1101cccf          	fnmadd.s	f25,f3,f16,f2,rmm
    4275843c:	0000                	.insn	2, 0x0000
    4275843e:	0000                	.insn	2, 0x0000
    42758440:	1101d0cf          	fnmadd.s	f1,f3,f16,f2,unknown
    42758444:	0000                	.insn	2, 0x0000
    42758446:	0000                	.insn	2, 0x0000
    42758448:	1101d4cf          	fnmadd.s	f9,f3,f16,f2,unknown
    4275844c:	0000                	.insn	2, 0x0000
    4275844e:	0000                	.insn	2, 0x0000
    42758450:	1101d8cf          	fnmadd.s	f17,f3,f16,f2,unknown
    42758454:	0000                	.insn	2, 0x0000
    42758456:	0000                	.insn	2, 0x0000
    42758458:	1101dccf          	fnmadd.s	f25,f3,f16,f2,unknown
    4275845c:	0000                	.insn	2, 0x0000
    4275845e:	0000                	.insn	2, 0x0000
    42758460:	1101e0cf          	fnmadd.s	f1,f3,f16,f2,unknown
    42758464:	0000                	.insn	2, 0x0000
    42758466:	0000                	.insn	2, 0x0000
    42758468:	1101e4cf          	fnmadd.s	f9,f3,f16,f2,unknown
    4275846c:	0000                	.insn	2, 0x0000
    4275846e:	0000                	.insn	2, 0x0000
    42758470:	1101e8cf          	fnmadd.s	f17,f3,f16,f2,unknown
    42758474:	0000                	.insn	2, 0x0000
    42758476:	0000                	.insn	2, 0x0000
    42758478:	1101eccf          	fnmadd.s	f25,f3,f16,f2,unknown
    4275847c:	0000                	.insn	2, 0x0000
    4275847e:	0000                	.insn	2, 0x0000
    42758480:	1101f0cf          	fnmadd.s	f1,f3,f16,f2
    42758484:	0000                	.insn	2, 0x0000
    42758486:	0000                	.insn	2, 0x0000
    42758488:	1101f4cf          	fnmadd.s	f9,f3,f16,f2
    4275848c:	0000                	.insn	2, 0x0000
    4275848e:	0000                	.insn	2, 0x0000
    42758490:	1101f8cf          	fnmadd.s	f17,f3,f16,f2
    42758494:	0000                	.insn	2, 0x0000
    42758496:	0000                	.insn	2, 0x0000
    42758498:	1101fccf          	fnmadd.s	f25,f3,f16,f2
    4275849c:	0000                	.insn	2, 0x0000
    4275849e:	0000                	.insn	2, 0x0000
    427584a0:	110200cf          	fnmadd.s	f1,f4,f16,f2,rne
    427584a4:	0000                	.insn	2, 0x0000
    427584a6:	0000                	.insn	2, 0x0000
    427584a8:	110204cf          	fnmadd.s	f9,f4,f16,f2,rne
    427584ac:	0000                	.insn	2, 0x0000
    427584ae:	0000                	.insn	2, 0x0000
    427584b0:	110208cf          	fnmadd.s	f17,f4,f16,f2,rne
    427584b4:	0000                	.insn	2, 0x0000
    427584b6:	0000                	.insn	2, 0x0000
    427584b8:	11020ccf          	fnmadd.s	f25,f4,f16,f2,rne
    427584bc:	0000                	.insn	2, 0x0000
    427584be:	0000                	.insn	2, 0x0000
    427584c0:	110210cf          	fnmadd.s	f1,f4,f16,f2,rtz
    427584c4:	0000                	.insn	2, 0x0000
    427584c6:	0000                	.insn	2, 0x0000
    427584c8:	110214cf          	fnmadd.s	f9,f4,f16,f2,rtz
    427584cc:	0000                	.insn	2, 0x0000
    427584ce:	0000                	.insn	2, 0x0000
    427584d0:	110218cf          	fnmadd.s	f17,f4,f16,f2,rtz
    427584d4:	0000                	.insn	2, 0x0000
    427584d6:	0000                	.insn	2, 0x0000
    427584d8:	11021ccf          	fnmadd.s	f25,f4,f16,f2,rtz
    427584dc:	0000                	.insn	2, 0x0000
    427584de:	0000                	.insn	2, 0x0000
    427584e0:	110220cf          	fnmadd.s	f1,f4,f16,f2,rdn
    427584e4:	0000                	.insn	2, 0x0000
    427584e6:	0000                	.insn	2, 0x0000
    427584e8:	110224cf          	fnmadd.s	f9,f4,f16,f2,rdn
    427584ec:	0000                	.insn	2, 0x0000
    427584ee:	0000                	.insn	2, 0x0000
    427584f0:	110228cf          	fnmadd.s	f17,f4,f16,f2,rdn
    427584f4:	0000                	.insn	2, 0x0000
    427584f6:	0000                	.insn	2, 0x0000
    427584f8:	11022ccf          	fnmadd.s	f25,f4,f16,f2,rdn
    427584fc:	0000                	.insn	2, 0x0000
    427584fe:	0000                	.insn	2, 0x0000
    42758500:	110230cf          	fnmadd.s	f1,f4,f16,f2,rup
    42758504:	0000                	.insn	2, 0x0000
    42758506:	0000                	.insn	2, 0x0000
    42758508:	110234cf          	fnmadd.s	f9,f4,f16,f2,rup
    4275850c:	0000                	.insn	2, 0x0000
    4275850e:	0000                	.insn	2, 0x0000
    42758510:	110238cf          	fnmadd.s	f17,f4,f16,f2,rup
    42758514:	0000                	.insn	2, 0x0000
    42758516:	0000                	.insn	2, 0x0000
    42758518:	11023ccf          	fnmadd.s	f25,f4,f16,f2,rup
    4275851c:	0000                	.insn	2, 0x0000
    4275851e:	0000                	.insn	2, 0x0000
    42758520:	110240cf          	fnmadd.s	f1,f4,f16,f2,rmm
    42758524:	0000                	.insn	2, 0x0000
    42758526:	0000                	.insn	2, 0x0000
    42758528:	110244cf          	fnmadd.s	f9,f4,f16,f2,rmm
    4275852c:	0000                	.insn	2, 0x0000
    4275852e:	0000                	.insn	2, 0x0000
    42758530:	110248cf          	fnmadd.s	f17,f4,f16,f2,rmm
    42758534:	0000                	.insn	2, 0x0000
    42758536:	0000                	.insn	2, 0x0000
    42758538:	11024ccf          	fnmadd.s	f25,f4,f16,f2,rmm
    4275853c:	0000                	.insn	2, 0x0000
    4275853e:	0000                	.insn	2, 0x0000
    42758540:	110250cf          	fnmadd.s	f1,f4,f16,f2,unknown
    42758544:	0000                	.insn	2, 0x0000
    42758546:	0000                	.insn	2, 0x0000
    42758548:	110254cf          	fnmadd.s	f9,f4,f16,f2,unknown
    4275854c:	0000                	.insn	2, 0x0000
    4275854e:	0000                	.insn	2, 0x0000
    42758550:	110258cf          	fnmadd.s	f17,f4,f16,f2,unknown
    42758554:	0000                	.insn	2, 0x0000
    42758556:	0000                	.insn	2, 0x0000
    42758558:	11025ccf          	fnmadd.s	f25,f4,f16,f2,unknown
    4275855c:	0000                	.insn	2, 0x0000
    4275855e:	0000                	.insn	2, 0x0000
    42758560:	110260cf          	fnmadd.s	f1,f4,f16,f2,unknown
    42758564:	0000                	.insn	2, 0x0000
    42758566:	0000                	.insn	2, 0x0000
    42758568:	110264cf          	fnmadd.s	f9,f4,f16,f2,unknown
    4275856c:	0000                	.insn	2, 0x0000
    4275856e:	0000                	.insn	2, 0x0000
    42758570:	110268cf          	fnmadd.s	f17,f4,f16,f2,unknown
    42758574:	0000                	.insn	2, 0x0000
    42758576:	0000                	.insn	2, 0x0000
    42758578:	11026ccf          	fnmadd.s	f25,f4,f16,f2,unknown
    4275857c:	0000                	.insn	2, 0x0000
    4275857e:	0000                	.insn	2, 0x0000
    42758580:	110270cf          	fnmadd.s	f1,f4,f16,f2
    42758584:	0000                	.insn	2, 0x0000
    42758586:	0000                	.insn	2, 0x0000
    42758588:	110274cf          	fnmadd.s	f9,f4,f16,f2
    4275858c:	0000                	.insn	2, 0x0000
    4275858e:	0000                	.insn	2, 0x0000
    42758590:	110278cf          	fnmadd.s	f17,f4,f16,f2
    42758594:	0000                	.insn	2, 0x0000
    42758596:	0000                	.insn	2, 0x0000
    42758598:	11027ccf          	fnmadd.s	f25,f4,f16,f2
    4275859c:	0000                	.insn	2, 0x0000
    4275859e:	0000                	.insn	2, 0x0000
    427585a0:	110280cf          	fnmadd.s	f1,f5,f16,f2,rne
    427585a4:	0000                	.insn	2, 0x0000
    427585a6:	0000                	.insn	2, 0x0000
    427585a8:	110284cf          	fnmadd.s	f9,f5,f16,f2,rne
    427585ac:	0000                	.insn	2, 0x0000
    427585ae:	0000                	.insn	2, 0x0000
    427585b0:	110288cf          	fnmadd.s	f17,f5,f16,f2,rne
    427585b4:	0000                	.insn	2, 0x0000
    427585b6:	0000                	.insn	2, 0x0000
    427585b8:	11028ccf          	fnmadd.s	f25,f5,f16,f2,rne
    427585bc:	0000                	.insn	2, 0x0000
    427585be:	0000                	.insn	2, 0x0000
    427585c0:	110290cf          	fnmadd.s	f1,f5,f16,f2,rtz
    427585c4:	0000                	.insn	2, 0x0000
    427585c6:	0000                	.insn	2, 0x0000
    427585c8:	110294cf          	fnmadd.s	f9,f5,f16,f2,rtz
    427585cc:	0000                	.insn	2, 0x0000
    427585ce:	0000                	.insn	2, 0x0000
    427585d0:	110298cf          	fnmadd.s	f17,f5,f16,f2,rtz
    427585d4:	0000                	.insn	2, 0x0000
    427585d6:	0000                	.insn	2, 0x0000
    427585d8:	11029ccf          	fnmadd.s	f25,f5,f16,f2,rtz
    427585dc:	0000                	.insn	2, 0x0000
    427585de:	0000                	.insn	2, 0x0000
    427585e0:	1102a0cf          	fnmadd.s	f1,f5,f16,f2,rdn
    427585e4:	0000                	.insn	2, 0x0000
    427585e6:	0000                	.insn	2, 0x0000
    427585e8:	1102a4cf          	fnmadd.s	f9,f5,f16,f2,rdn
    427585ec:	0000                	.insn	2, 0x0000
    427585ee:	0000                	.insn	2, 0x0000
    427585f0:	1102a8cf          	fnmadd.s	f17,f5,f16,f2,rdn
    427585f4:	0000                	.insn	2, 0x0000
    427585f6:	0000                	.insn	2, 0x0000
    427585f8:	1102accf          	fnmadd.s	f25,f5,f16,f2,rdn
    427585fc:	0000                	.insn	2, 0x0000
    427585fe:	0000                	.insn	2, 0x0000
    42758600:	1102b0cf          	fnmadd.s	f1,f5,f16,f2,rup
    42758604:	0000                	.insn	2, 0x0000
    42758606:	0000                	.insn	2, 0x0000
    42758608:	1102b4cf          	fnmadd.s	f9,f5,f16,f2,rup
    4275860c:	0000                	.insn	2, 0x0000
    4275860e:	0000                	.insn	2, 0x0000
    42758610:	1102b8cf          	fnmadd.s	f17,f5,f16,f2,rup
    42758614:	0000                	.insn	2, 0x0000
    42758616:	0000                	.insn	2, 0x0000
    42758618:	1102bccf          	fnmadd.s	f25,f5,f16,f2,rup
    4275861c:	0000                	.insn	2, 0x0000
    4275861e:	0000                	.insn	2, 0x0000
    42758620:	1102c0cf          	fnmadd.s	f1,f5,f16,f2,rmm
    42758624:	0000                	.insn	2, 0x0000
    42758626:	0000                	.insn	2, 0x0000
    42758628:	1102c4cf          	fnmadd.s	f9,f5,f16,f2,rmm
    4275862c:	0000                	.insn	2, 0x0000
    4275862e:	0000                	.insn	2, 0x0000
    42758630:	1102c8cf          	fnmadd.s	f17,f5,f16,f2,rmm
    42758634:	0000                	.insn	2, 0x0000
    42758636:	0000                	.insn	2, 0x0000
    42758638:	1102cccf          	fnmadd.s	f25,f5,f16,f2,rmm
    4275863c:	0000                	.insn	2, 0x0000
    4275863e:	0000                	.insn	2, 0x0000
    42758640:	1102d0cf          	fnmadd.s	f1,f5,f16,f2,unknown
    42758644:	0000                	.insn	2, 0x0000
    42758646:	0000                	.insn	2, 0x0000
    42758648:	1102d4cf          	fnmadd.s	f9,f5,f16,f2,unknown
    4275864c:	0000                	.insn	2, 0x0000
    4275864e:	0000                	.insn	2, 0x0000
    42758650:	1102d8cf          	fnmadd.s	f17,f5,f16,f2,unknown
    42758654:	0000                	.insn	2, 0x0000
    42758656:	0000                	.insn	2, 0x0000
    42758658:	1102dccf          	fnmadd.s	f25,f5,f16,f2,unknown
    4275865c:	0000                	.insn	2, 0x0000
    4275865e:	0000                	.insn	2, 0x0000
    42758660:	1102e0cf          	fnmadd.s	f1,f5,f16,f2,unknown
    42758664:	0000                	.insn	2, 0x0000
    42758666:	0000                	.insn	2, 0x0000
    42758668:	1102e4cf          	fnmadd.s	f9,f5,f16,f2,unknown
    4275866c:	0000                	.insn	2, 0x0000
    4275866e:	0000                	.insn	2, 0x0000
    42758670:	1102e8cf          	fnmadd.s	f17,f5,f16,f2,unknown
    42758674:	0000                	.insn	2, 0x0000
    42758676:	0000                	.insn	2, 0x0000
    42758678:	1102eccf          	fnmadd.s	f25,f5,f16,f2,unknown
    4275867c:	0000                	.insn	2, 0x0000
    4275867e:	0000                	.insn	2, 0x0000
    42758680:	1102f0cf          	fnmadd.s	f1,f5,f16,f2
    42758684:	0000                	.insn	2, 0x0000
    42758686:	0000                	.insn	2, 0x0000
    42758688:	1102f4cf          	fnmadd.s	f9,f5,f16,f2
    4275868c:	0000                	.insn	2, 0x0000
    4275868e:	0000                	.insn	2, 0x0000
    42758690:	1102f8cf          	fnmadd.s	f17,f5,f16,f2
    42758694:	0000                	.insn	2, 0x0000
    42758696:	0000                	.insn	2, 0x0000
    42758698:	1102fccf          	fnmadd.s	f25,f5,f16,f2
    4275869c:	0000                	.insn	2, 0x0000
    4275869e:	0000                	.insn	2, 0x0000
    427586a0:	110300cf          	fnmadd.s	f1,f6,f16,f2,rne
    427586a4:	0000                	.insn	2, 0x0000
    427586a6:	0000                	.insn	2, 0x0000
    427586a8:	110304cf          	fnmadd.s	f9,f6,f16,f2,rne
    427586ac:	0000                	.insn	2, 0x0000
    427586ae:	0000                	.insn	2, 0x0000
    427586b0:	110308cf          	fnmadd.s	f17,f6,f16,f2,rne
    427586b4:	0000                	.insn	2, 0x0000
    427586b6:	0000                	.insn	2, 0x0000
    427586b8:	11030ccf          	fnmadd.s	f25,f6,f16,f2,rne
    427586bc:	0000                	.insn	2, 0x0000
    427586be:	0000                	.insn	2, 0x0000
    427586c0:	110310cf          	fnmadd.s	f1,f6,f16,f2,rtz
    427586c4:	0000                	.insn	2, 0x0000
    427586c6:	0000                	.insn	2, 0x0000
    427586c8:	110314cf          	fnmadd.s	f9,f6,f16,f2,rtz
    427586cc:	0000                	.insn	2, 0x0000
    427586ce:	0000                	.insn	2, 0x0000
    427586d0:	110318cf          	fnmadd.s	f17,f6,f16,f2,rtz
    427586d4:	0000                	.insn	2, 0x0000
    427586d6:	0000                	.insn	2, 0x0000
    427586d8:	11031ccf          	fnmadd.s	f25,f6,f16,f2,rtz
    427586dc:	0000                	.insn	2, 0x0000
    427586de:	0000                	.insn	2, 0x0000
    427586e0:	110320cf          	fnmadd.s	f1,f6,f16,f2,rdn
    427586e4:	0000                	.insn	2, 0x0000
    427586e6:	0000                	.insn	2, 0x0000
    427586e8:	110324cf          	fnmadd.s	f9,f6,f16,f2,rdn
    427586ec:	0000                	.insn	2, 0x0000
    427586ee:	0000                	.insn	2, 0x0000
    427586f0:	110328cf          	fnmadd.s	f17,f6,f16,f2,rdn
    427586f4:	0000                	.insn	2, 0x0000
    427586f6:	0000                	.insn	2, 0x0000
    427586f8:	11032ccf          	fnmadd.s	f25,f6,f16,f2,rdn
    427586fc:	0000                	.insn	2, 0x0000
    427586fe:	0000                	.insn	2, 0x0000
    42758700:	110330cf          	fnmadd.s	f1,f6,f16,f2,rup
    42758704:	0000                	.insn	2, 0x0000
    42758706:	0000                	.insn	2, 0x0000
    42758708:	110334cf          	fnmadd.s	f9,f6,f16,f2,rup
    4275870c:	0000                	.insn	2, 0x0000
    4275870e:	0000                	.insn	2, 0x0000
    42758710:	110338cf          	fnmadd.s	f17,f6,f16,f2,rup
    42758714:	0000                	.insn	2, 0x0000
    42758716:	0000                	.insn	2, 0x0000
    42758718:	11033ccf          	fnmadd.s	f25,f6,f16,f2,rup
    4275871c:	0000                	.insn	2, 0x0000
    4275871e:	0000                	.insn	2, 0x0000
    42758720:	110340cf          	fnmadd.s	f1,f6,f16,f2,rmm
    42758724:	0000                	.insn	2, 0x0000
    42758726:	0000                	.insn	2, 0x0000
    42758728:	110344cf          	fnmadd.s	f9,f6,f16,f2,rmm
    4275872c:	0000                	.insn	2, 0x0000
    4275872e:	0000                	.insn	2, 0x0000
    42758730:	110348cf          	fnmadd.s	f17,f6,f16,f2,rmm
    42758734:	0000                	.insn	2, 0x0000
    42758736:	0000                	.insn	2, 0x0000
    42758738:	11034ccf          	fnmadd.s	f25,f6,f16,f2,rmm
    4275873c:	0000                	.insn	2, 0x0000
    4275873e:	0000                	.insn	2, 0x0000
    42758740:	110350cf          	fnmadd.s	f1,f6,f16,f2,unknown
    42758744:	0000                	.insn	2, 0x0000
    42758746:	0000                	.insn	2, 0x0000
    42758748:	110354cf          	fnmadd.s	f9,f6,f16,f2,unknown
    4275874c:	0000                	.insn	2, 0x0000
    4275874e:	0000                	.insn	2, 0x0000
    42758750:	110358cf          	fnmadd.s	f17,f6,f16,f2,unknown
    42758754:	0000                	.insn	2, 0x0000
    42758756:	0000                	.insn	2, 0x0000
    42758758:	11035ccf          	fnmadd.s	f25,f6,f16,f2,unknown
    4275875c:	0000                	.insn	2, 0x0000
    4275875e:	0000                	.insn	2, 0x0000
    42758760:	110360cf          	fnmadd.s	f1,f6,f16,f2,unknown
    42758764:	0000                	.insn	2, 0x0000
    42758766:	0000                	.insn	2, 0x0000
    42758768:	110364cf          	fnmadd.s	f9,f6,f16,f2,unknown
    4275876c:	0000                	.insn	2, 0x0000
    4275876e:	0000                	.insn	2, 0x0000
    42758770:	110368cf          	fnmadd.s	f17,f6,f16,f2,unknown
    42758774:	0000                	.insn	2, 0x0000
    42758776:	0000                	.insn	2, 0x0000
    42758778:	11036ccf          	fnmadd.s	f25,f6,f16,f2,unknown
    4275877c:	0000                	.insn	2, 0x0000
    4275877e:	0000                	.insn	2, 0x0000
    42758780:	110370cf          	fnmadd.s	f1,f6,f16,f2
    42758784:	0000                	.insn	2, 0x0000
    42758786:	0000                	.insn	2, 0x0000
    42758788:	110374cf          	fnmadd.s	f9,f6,f16,f2
    4275878c:	0000                	.insn	2, 0x0000
    4275878e:	0000                	.insn	2, 0x0000
    42758790:	110378cf          	fnmadd.s	f17,f6,f16,f2
    42758794:	0000                	.insn	2, 0x0000
    42758796:	0000                	.insn	2, 0x0000
    42758798:	11037ccf          	fnmadd.s	f25,f6,f16,f2
    4275879c:	0000                	.insn	2, 0x0000
    4275879e:	0000                	.insn	2, 0x0000
    427587a0:	110380cf          	fnmadd.s	f1,f7,f16,f2,rne
    427587a4:	0000                	.insn	2, 0x0000
    427587a6:	0000                	.insn	2, 0x0000
    427587a8:	110384cf          	fnmadd.s	f9,f7,f16,f2,rne
    427587ac:	0000                	.insn	2, 0x0000
    427587ae:	0000                	.insn	2, 0x0000
    427587b0:	110388cf          	fnmadd.s	f17,f7,f16,f2,rne
    427587b4:	0000                	.insn	2, 0x0000
    427587b6:	0000                	.insn	2, 0x0000
    427587b8:	11038ccf          	fnmadd.s	f25,f7,f16,f2,rne
    427587bc:	0000                	.insn	2, 0x0000
    427587be:	0000                	.insn	2, 0x0000
    427587c0:	110390cf          	fnmadd.s	f1,f7,f16,f2,rtz
    427587c4:	0000                	.insn	2, 0x0000
    427587c6:	0000                	.insn	2, 0x0000
    427587c8:	110394cf          	fnmadd.s	f9,f7,f16,f2,rtz
    427587cc:	0000                	.insn	2, 0x0000
    427587ce:	0000                	.insn	2, 0x0000
    427587d0:	110398cf          	fnmadd.s	f17,f7,f16,f2,rtz
    427587d4:	0000                	.insn	2, 0x0000
    427587d6:	0000                	.insn	2, 0x0000
    427587d8:	11039ccf          	fnmadd.s	f25,f7,f16,f2,rtz
    427587dc:	0000                	.insn	2, 0x0000
    427587de:	0000                	.insn	2, 0x0000
    427587e0:	1103a0cf          	fnmadd.s	f1,f7,f16,f2,rdn
    427587e4:	0000                	.insn	2, 0x0000
    427587e6:	0000                	.insn	2, 0x0000
    427587e8:	1103a4cf          	fnmadd.s	f9,f7,f16,f2,rdn
    427587ec:	0000                	.insn	2, 0x0000
    427587ee:	0000                	.insn	2, 0x0000
    427587f0:	1103a8cf          	fnmadd.s	f17,f7,f16,f2,rdn
    427587f4:	0000                	.insn	2, 0x0000
    427587f6:	0000                	.insn	2, 0x0000
    427587f8:	1103accf          	fnmadd.s	f25,f7,f16,f2,rdn
    427587fc:	0000                	.insn	2, 0x0000
    427587fe:	0000                	.insn	2, 0x0000
    42758800:	1103b0cf          	fnmadd.s	f1,f7,f16,f2,rup
    42758804:	0000                	.insn	2, 0x0000
    42758806:	0000                	.insn	2, 0x0000
    42758808:	1103b4cf          	fnmadd.s	f9,f7,f16,f2,rup
    4275880c:	0000                	.insn	2, 0x0000
    4275880e:	0000                	.insn	2, 0x0000
    42758810:	1103b8cf          	fnmadd.s	f17,f7,f16,f2,rup
    42758814:	0000                	.insn	2, 0x0000
    42758816:	0000                	.insn	2, 0x0000
    42758818:	1103bccf          	fnmadd.s	f25,f7,f16,f2,rup
    4275881c:	0000                	.insn	2, 0x0000
    4275881e:	0000                	.insn	2, 0x0000
    42758820:	1103c0cf          	fnmadd.s	f1,f7,f16,f2,rmm
    42758824:	0000                	.insn	2, 0x0000
    42758826:	0000                	.insn	2, 0x0000
    42758828:	1103c4cf          	fnmadd.s	f9,f7,f16,f2,rmm
    4275882c:	0000                	.insn	2, 0x0000
    4275882e:	0000                	.insn	2, 0x0000
    42758830:	1103c8cf          	fnmadd.s	f17,f7,f16,f2,rmm
    42758834:	0000                	.insn	2, 0x0000
    42758836:	0000                	.insn	2, 0x0000
    42758838:	1103cccf          	fnmadd.s	f25,f7,f16,f2,rmm
    4275883c:	0000                	.insn	2, 0x0000
    4275883e:	0000                	.insn	2, 0x0000
    42758840:	1103d0cf          	fnmadd.s	f1,f7,f16,f2,unknown
    42758844:	0000                	.insn	2, 0x0000
    42758846:	0000                	.insn	2, 0x0000
    42758848:	1103d4cf          	fnmadd.s	f9,f7,f16,f2,unknown
    4275884c:	0000                	.insn	2, 0x0000
    4275884e:	0000                	.insn	2, 0x0000
    42758850:	1103d8cf          	fnmadd.s	f17,f7,f16,f2,unknown
    42758854:	0000                	.insn	2, 0x0000
    42758856:	0000                	.insn	2, 0x0000
    42758858:	1103dccf          	fnmadd.s	f25,f7,f16,f2,unknown
    4275885c:	0000                	.insn	2, 0x0000
    4275885e:	0000                	.insn	2, 0x0000
    42758860:	1103e0cf          	fnmadd.s	f1,f7,f16,f2,unknown
    42758864:	0000                	.insn	2, 0x0000
    42758866:	0000                	.insn	2, 0x0000
    42758868:	1103e4cf          	fnmadd.s	f9,f7,f16,f2,unknown
    4275886c:	0000                	.insn	2, 0x0000
    4275886e:	0000                	.insn	2, 0x0000
    42758870:	1103e8cf          	fnmadd.s	f17,f7,f16,f2,unknown
    42758874:	0000                	.insn	2, 0x0000
    42758876:	0000                	.insn	2, 0x0000
    42758878:	1103eccf          	fnmadd.s	f25,f7,f16,f2,unknown
    4275887c:	0000                	.insn	2, 0x0000
    4275887e:	0000                	.insn	2, 0x0000
    42758880:	1103f0cf          	fnmadd.s	f1,f7,f16,f2
    42758884:	0000                	.insn	2, 0x0000
    42758886:	0000                	.insn	2, 0x0000
    42758888:	1103f4cf          	fnmadd.s	f9,f7,f16,f2
    4275888c:	0000                	.insn	2, 0x0000
    4275888e:	0000                	.insn	2, 0x0000
    42758890:	1103f8cf          	fnmadd.s	f17,f7,f16,f2
    42758894:	0000                	.insn	2, 0x0000
    42758896:	0000                	.insn	2, 0x0000
    42758898:	1103fccf          	fnmadd.s	f25,f7,f16,f2
    4275889c:	0000                	.insn	2, 0x0000
    4275889e:	0000                	.insn	2, 0x0000
    427588a0:	00df 1104 0000      	.insn	6, 0x110400df
    427588a6:	0000                	.insn	2, 0x0000
    427588a8:	04df 1104 0000      	.insn	6, 0x110404df
    427588ae:	0000                	.insn	2, 0x0000
    427588b0:	08df 1104 0000      	.insn	6, 0x110408df
    427588b6:	0000                	.insn	2, 0x0000
    427588b8:	0cdf 1104 0000      	.insn	6, 0x11040cdf
    427588be:	0000                	.insn	2, 0x0000
    427588c0:	10df 1104 0000      	.insn	6, 0x110410df
    427588c6:	0000                	.insn	2, 0x0000
    427588c8:	14df 1104 0000      	.insn	6, 0x110414df
    427588ce:	0000                	.insn	2, 0x0000
    427588d0:	18df 1104 0000      	.insn	6, 0x110418df
    427588d6:	0000                	.insn	2, 0x0000
    427588d8:	1cdf 1104 0000      	.insn	6, 0x11041cdf
    427588de:	0000                	.insn	2, 0x0000
    427588e0:	20df 1104 0000      	.insn	6, 0x110420df
    427588e6:	0000                	.insn	2, 0x0000
    427588e8:	24df 1104 0000      	.insn	6, 0x110424df
    427588ee:	0000                	.insn	2, 0x0000
    427588f0:	28df 1104 0000      	.insn	6, 0x110428df
    427588f6:	0000                	.insn	2, 0x0000
    427588f8:	2cdf 1104 0000      	.insn	6, 0x11042cdf
    427588fe:	0000                	.insn	2, 0x0000
    42758900:	30df 1104 0000      	.insn	6, 0x110430df
    42758906:	0000                	.insn	2, 0x0000
    42758908:	34df 1104 0000      	.insn	6, 0x110434df
    4275890e:	0000                	.insn	2, 0x0000
    42758910:	38df 1104 0000      	.insn	6, 0x110438df
    42758916:	0000                	.insn	2, 0x0000
    42758918:	3cdf 1104 0000      	.insn	6, 0x11043cdf
    4275891e:	0000                	.insn	2, 0x0000
    42758920:	40df 1104 0000      	.insn	6, 0x110440df
    42758926:	0000                	.insn	2, 0x0000
    42758928:	44df 1104 0000      	.insn	6, 0x110444df
    4275892e:	0000                	.insn	2, 0x0000
    42758930:	48df 1104 0000      	.insn	6, 0x110448df
    42758936:	0000                	.insn	2, 0x0000
    42758938:	4cdf 1104 0000      	.insn	6, 0x11044cdf
    4275893e:	0000                	.insn	2, 0x0000
    42758940:	50df 1104 0000      	.insn	6, 0x110450df
    42758946:	0000                	.insn	2, 0x0000
    42758948:	54df 1104 0000      	.insn	6, 0x110454df
    4275894e:	0000                	.insn	2, 0x0000
    42758950:	58df 1104 0000      	.insn	6, 0x110458df
    42758956:	0000                	.insn	2, 0x0000
    42758958:	5cdf 1104 0000      	.insn	6, 0x11045cdf
    4275895e:	0000                	.insn	2, 0x0000
    42758960:	60df 1104 0000      	.insn	6, 0x110460df
    42758966:	0000                	.insn	2, 0x0000
    42758968:	64df 1104 0000      	.insn	6, 0x110464df
    4275896e:	0000                	.insn	2, 0x0000
    42758970:	68df 1104 0000      	.insn	6, 0x110468df
    42758976:	0000                	.insn	2, 0x0000
    42758978:	6cdf 1104 0000      	.insn	6, 0x11046cdf
    4275897e:	0000                	.insn	2, 0x0000
    42758980:	70df 1104 0000      	.insn	6, 0x110470df
    42758986:	0000                	.insn	2, 0x0000
    42758988:	74df 1104 0000      	.insn	6, 0x110474df
    4275898e:	0000                	.insn	2, 0x0000
    42758990:	78df 1104 0000      	.insn	6, 0x110478df
    42758996:	0000                	.insn	2, 0x0000
    42758998:	7cdf 1104 0000      	.insn	6, 0x11047cdf
    4275899e:	0000                	.insn	2, 0x0000
    427589a0:	80df 1104 0000      	.insn	6, 0x110480df
    427589a6:	0000                	.insn	2, 0x0000
    427589a8:	84df 1104 0000      	.insn	6, 0x110484df
    427589ae:	0000                	.insn	2, 0x0000
    427589b0:	88df 1104 0000      	.insn	6, 0x110488df
    427589b6:	0000                	.insn	2, 0x0000
    427589b8:	8cdf 1104 0000      	.insn	6, 0x11048cdf
    427589be:	0000                	.insn	2, 0x0000
    427589c0:	90df 1104 0000      	.insn	6, 0x110490df
    427589c6:	0000                	.insn	2, 0x0000
    427589c8:	94df 1104 0000      	.insn	6, 0x110494df
    427589ce:	0000                	.insn	2, 0x0000
    427589d0:	98df 1104 0000      	.insn	6, 0x110498df
    427589d6:	0000                	.insn	2, 0x0000
    427589d8:	9cdf 1104 0000      	.insn	6, 0x11049cdf
    427589de:	0000                	.insn	2, 0x0000
    427589e0:	a0df 1104 0000      	.insn	6, 0x1104a0df
    427589e6:	0000                	.insn	2, 0x0000
    427589e8:	a4df 1104 0000      	.insn	6, 0x1104a4df
    427589ee:	0000                	.insn	2, 0x0000
    427589f0:	a8df 1104 0000      	.insn	6, 0x1104a8df
    427589f6:	0000                	.insn	2, 0x0000
    427589f8:	acdf 1104 0000      	.insn	6, 0x1104acdf
    427589fe:	0000                	.insn	2, 0x0000
    42758a00:	b0df 1104 0000      	.insn	6, 0x1104b0df
    42758a06:	0000                	.insn	2, 0x0000
    42758a08:	b4df 1104 0000      	.insn	6, 0x1104b4df
    42758a0e:	0000                	.insn	2, 0x0000
    42758a10:	b8df 1104 0000      	.insn	6, 0x1104b8df
    42758a16:	0000                	.insn	2, 0x0000
    42758a18:	bcdf 1104 0000      	.insn	6, 0x1104bcdf
    42758a1e:	0000                	.insn	2, 0x0000
    42758a20:	c0df 1104 0000      	.insn	6, 0x1104c0df
    42758a26:	0000                	.insn	2, 0x0000
    42758a28:	c4df 1104 0000      	.insn	6, 0x1104c4df
    42758a2e:	0000                	.insn	2, 0x0000
    42758a30:	c8df 1104 0000      	.insn	6, 0x1104c8df
    42758a36:	0000                	.insn	2, 0x0000
    42758a38:	ccdf 1104 0000      	.insn	6, 0x1104ccdf
    42758a3e:	0000                	.insn	2, 0x0000
    42758a40:	d0df 1104 0000      	.insn	6, 0x1104d0df
    42758a46:	0000                	.insn	2, 0x0000
    42758a48:	d4df 1104 0000      	.insn	6, 0x1104d4df
    42758a4e:	0000                	.insn	2, 0x0000
    42758a50:	d8df 1104 0000      	.insn	6, 0x1104d8df
    42758a56:	0000                	.insn	2, 0x0000
    42758a58:	dcdf 1104 0000      	.insn	6, 0x1104dcdf
    42758a5e:	0000                	.insn	2, 0x0000
    42758a60:	e0df 1104 0000      	.insn	6, 0x1104e0df
    42758a66:	0000                	.insn	2, 0x0000
    42758a68:	e4df 1104 0000      	.insn	6, 0x1104e4df
    42758a6e:	0000                	.insn	2, 0x0000
    42758a70:	e8df 1104 0000      	.insn	6, 0x1104e8df
    42758a76:	0000                	.insn	2, 0x0000
    42758a78:	ecdf 1104 0000      	.insn	6, 0x1104ecdf
    42758a7e:	0000                	.insn	2, 0x0000
    42758a80:	f0df 1104 0000      	.insn	6, 0x1104f0df
    42758a86:	0000                	.insn	2, 0x0000
    42758a88:	f4df 1104 0000      	.insn	6, 0x1104f4df
    42758a8e:	0000                	.insn	2, 0x0000
    42758a90:	f8df 1104 0000      	.insn	6, 0x1104f8df
    42758a96:	0000                	.insn	2, 0x0000
    42758a98:	fcdf 1104 0000      	.insn	6, 0x1104fcdf
    42758a9e:	0000                	.insn	2, 0x0000
    42758aa0:	00df 1105 0000      	.insn	6, 0x110500df
    42758aa6:	0000                	.insn	2, 0x0000
    42758aa8:	04df 1105 0000      	.insn	6, 0x110504df
    42758aae:	0000                	.insn	2, 0x0000
    42758ab0:	08df 1105 0000      	.insn	6, 0x110508df
    42758ab6:	0000                	.insn	2, 0x0000
    42758ab8:	0cdf 1105 0000      	.insn	6, 0x11050cdf
    42758abe:	0000                	.insn	2, 0x0000
    42758ac0:	10df 1105 0000      	.insn	6, 0x110510df
    42758ac6:	0000                	.insn	2, 0x0000
    42758ac8:	14df 1105 0000      	.insn	6, 0x110514df
    42758ace:	0000                	.insn	2, 0x0000
    42758ad0:	18df 1105 0000      	.insn	6, 0x110518df
    42758ad6:	0000                	.insn	2, 0x0000
    42758ad8:	1cdf 1105 0000      	.insn	6, 0x11051cdf
    42758ade:	0000                	.insn	2, 0x0000
    42758ae0:	20df 1105 0000      	.insn	6, 0x110520df
    42758ae6:	0000                	.insn	2, 0x0000
    42758ae8:	24df 1105 0000      	.insn	6, 0x110524df
    42758aee:	0000                	.insn	2, 0x0000
    42758af0:	28df 1105 0000      	.insn	6, 0x110528df
    42758af6:	0000                	.insn	2, 0x0000
    42758af8:	2cdf 1105 0000      	.insn	6, 0x11052cdf
    42758afe:	0000                	.insn	2, 0x0000
    42758b00:	30df 1105 0000      	.insn	6, 0x110530df
    42758b06:	0000                	.insn	2, 0x0000
    42758b08:	34df 1105 0000      	.insn	6, 0x110534df
    42758b0e:	0000                	.insn	2, 0x0000
    42758b10:	38df 1105 0000      	.insn	6, 0x110538df
    42758b16:	0000                	.insn	2, 0x0000
    42758b18:	3cdf 1105 0000      	.insn	6, 0x11053cdf
    42758b1e:	0000                	.insn	2, 0x0000
    42758b20:	40df 1105 0000      	.insn	6, 0x110540df
    42758b26:	0000                	.insn	2, 0x0000
    42758b28:	44df 1105 0000      	.insn	6, 0x110544df
    42758b2e:	0000                	.insn	2, 0x0000
    42758b30:	48df 1105 0000      	.insn	6, 0x110548df
    42758b36:	0000                	.insn	2, 0x0000
    42758b38:	4cdf 1105 0000      	.insn	6, 0x11054cdf
    42758b3e:	0000                	.insn	2, 0x0000
    42758b40:	50df 1105 0000      	.insn	6, 0x110550df
    42758b46:	0000                	.insn	2, 0x0000
    42758b48:	54df 1105 0000      	.insn	6, 0x110554df
    42758b4e:	0000                	.insn	2, 0x0000
    42758b50:	58df 1105 0000      	.insn	6, 0x110558df
    42758b56:	0000                	.insn	2, 0x0000
    42758b58:	5cdf 1105 0000      	.insn	6, 0x11055cdf
    42758b5e:	0000                	.insn	2, 0x0000
    42758b60:	60df 1105 0000      	.insn	6, 0x110560df
    42758b66:	0000                	.insn	2, 0x0000
    42758b68:	64df 1105 0000      	.insn	6, 0x110564df
    42758b6e:	0000                	.insn	2, 0x0000
    42758b70:	68df 1105 0000      	.insn	6, 0x110568df
    42758b76:	0000                	.insn	2, 0x0000
    42758b78:	6cdf 1105 0000      	.insn	6, 0x11056cdf
    42758b7e:	0000                	.insn	2, 0x0000
    42758b80:	70df 1105 0000      	.insn	6, 0x110570df
    42758b86:	0000                	.insn	2, 0x0000
    42758b88:	74df 1105 0000      	.insn	6, 0x110574df
    42758b8e:	0000                	.insn	2, 0x0000
    42758b90:	78df 1105 0000      	.insn	6, 0x110578df
    42758b96:	0000                	.insn	2, 0x0000
    42758b98:	7cdf 1105 0000      	.insn	6, 0x11057cdf
    42758b9e:	0000                	.insn	2, 0x0000
    42758ba0:	80df 1105 0000      	.insn	6, 0x110580df
    42758ba6:	0000                	.insn	2, 0x0000
    42758ba8:	84df 1105 0000      	.insn	6, 0x110584df
    42758bae:	0000                	.insn	2, 0x0000
    42758bb0:	88df 1105 0000      	.insn	6, 0x110588df
    42758bb6:	0000                	.insn	2, 0x0000
    42758bb8:	8cdf 1105 0000      	.insn	6, 0x11058cdf
    42758bbe:	0000                	.insn	2, 0x0000
    42758bc0:	90df 1105 0000      	.insn	6, 0x110590df
    42758bc6:	0000                	.insn	2, 0x0000
    42758bc8:	94df 1105 0000      	.insn	6, 0x110594df
    42758bce:	0000                	.insn	2, 0x0000
    42758bd0:	98df 1105 0000      	.insn	6, 0x110598df
    42758bd6:	0000                	.insn	2, 0x0000
    42758bd8:	9cdf 1105 0000      	.insn	6, 0x11059cdf
    42758bde:	0000                	.insn	2, 0x0000
    42758be0:	a0df 1105 0000      	.insn	6, 0x1105a0df
    42758be6:	0000                	.insn	2, 0x0000
    42758be8:	a4df 1105 0000      	.insn	6, 0x1105a4df
    42758bee:	0000                	.insn	2, 0x0000
    42758bf0:	a8df 1105 0000      	.insn	6, 0x1105a8df
    42758bf6:	0000                	.insn	2, 0x0000
    42758bf8:	acdf 1105 0000      	.insn	6, 0x1105acdf
    42758bfe:	0000                	.insn	2, 0x0000
    42758c00:	b0df 1105 0000      	.insn	6, 0x1105b0df
    42758c06:	0000                	.insn	2, 0x0000
    42758c08:	b4df 1105 0000      	.insn	6, 0x1105b4df
    42758c0e:	0000                	.insn	2, 0x0000
    42758c10:	b8df 1105 0000      	.insn	6, 0x1105b8df
    42758c16:	0000                	.insn	2, 0x0000
    42758c18:	bcdf 1105 0000      	.insn	6, 0x1105bcdf
    42758c1e:	0000                	.insn	2, 0x0000
    42758c20:	c0df 1105 0000      	.insn	6, 0x1105c0df
    42758c26:	0000                	.insn	2, 0x0000
    42758c28:	c4df 1105 0000      	.insn	6, 0x1105c4df
    42758c2e:	0000                	.insn	2, 0x0000
    42758c30:	c8df 1105 0000      	.insn	6, 0x1105c8df
    42758c36:	0000                	.insn	2, 0x0000
    42758c38:	ccdf 1105 0000      	.insn	6, 0x1105ccdf
    42758c3e:	0000                	.insn	2, 0x0000
    42758c40:	d0df 1105 0000      	.insn	6, 0x1105d0df
    42758c46:	0000                	.insn	2, 0x0000
    42758c48:	d4df 1105 0000      	.insn	6, 0x1105d4df
    42758c4e:	0000                	.insn	2, 0x0000
    42758c50:	d8df 1105 0000      	.insn	6, 0x1105d8df
    42758c56:	0000                	.insn	2, 0x0000
    42758c58:	dcdf 1105 0000      	.insn	6, 0x1105dcdf
    42758c5e:	0000                	.insn	2, 0x0000
    42758c60:	e0df 1105 0000      	.insn	6, 0x1105e0df
    42758c66:	0000                	.insn	2, 0x0000
    42758c68:	e4df 1105 0000      	.insn	6, 0x1105e4df
    42758c6e:	0000                	.insn	2, 0x0000
    42758c70:	e8df 1105 0000      	.insn	6, 0x1105e8df
    42758c76:	0000                	.insn	2, 0x0000
    42758c78:	ecdf 1105 0000      	.insn	6, 0x1105ecdf
    42758c7e:	0000                	.insn	2, 0x0000
    42758c80:	f0df 1105 0000      	.insn	6, 0x1105f0df
    42758c86:	0000                	.insn	2, 0x0000
    42758c88:	f4df 1105 0000      	.insn	6, 0x1105f4df
    42758c8e:	0000                	.insn	2, 0x0000
    42758c90:	f8df 1105 0000      	.insn	6, 0x1105f8df
    42758c96:	0000                	.insn	2, 0x0000
    42758c98:	fcdf 1105 0000      	.insn	6, 0x1105fcdf
	...

Disassembly of section .__pagetable_map_os_0x00000000430bb000:

00000000430bb000 <__pagetable_map_os_0x00000000430bb000>:
	...
    430bb0a8:	110804cf          	fnmadd.s	f9,f16,f16,f2,rne
    430bb0ac:	0000                	.insn	2, 0x0000
	...

Disassembly of section .__pagetable_map_os_0x0000000044d19000:

0000000044d19000 <__pagetable_map_os_0x0000000044d19000>:
	...
    44d19e90:	10d748cf          	fnmadd.s	f17,f14,f13,f2,rmm
    44d19e94:	0000                	.insn	2, 0x0000
	...

Disassembly of section .__pagetable_map_os_0x00000000424c6000:

00000000424c6000 <__pagetable_map_os_0x00000000424c6000>:
	...
    424c67c0:	10e338c7          	fmsub.s	f17,f6,f14,f2,rup
    424c67c4:	0000                	.insn	2, 0x0000
	...

Disassembly of section .__pagetable_map_os_0x0000000044d2f000:

0000000044d2f000 <__pagetable_map_os_0x0000000044d2f000>:
	...
    44d2fa80:	109350c7          	fmsub.s	f1,f6,f9,f2,unknown
    44d2fa84:	0000                	.insn	2, 0x0000
	...

Disassembly of section .__pagetable_map_os_0x0000000044202000:

0000000044202000 <__pagetable_map_os_0x0000000044202000>:
	...
    44202170:	10c9b4cf          	fnmadd.s	f9,f19,f12,f2,rup
    44202174:	0000                	.insn	2, 0x0000
	...

Disassembly of section .__pagetable_map_os_0x0000000044ae8000:

0000000044ae8000 <__pagetable_map_os_0x0000000044ae8000>:
	...
    44ae8008:	113afccf          	fnmadd.s	f25,f21,f19,f2
    44ae800c:	0000                	.insn	2, 0x0000
	...

Disassembly of section .__pagetable_map_os_0x0000000044c15000:

0000000044c15000 <__pagetable_map_os_0x0000000044c15000>:
    44c15000:	7c01                	.insn	2, 0x7c01
    44c15002:	000010d7          	vfadd.vv	v1,v0,v0,v0.t
	...
    44c1500e:	0000                	.insn	2, 0x0000
    44c15010:	2001                	.insn	2, 0x2001
    44c15012:	112a                	.insn	2, 0x112a
	...
    44c15040:	3001                	.insn	2, 0x3001
    44c15042:	1108                	.insn	2, 0x1108
	...
    44c15050:	1001                	.insn	2, 0x1001
    44c15052:	1108                	.insn	2, 0x1108
    44c15054:	0000                	.insn	2, 0x0000
    44c15056:	0000                	.insn	2, 0x0000
    44c15058:	f001                	.insn	2, 0xf001
    44c1505a:	10e5                	.insn	2, 0x10e5
	...
    44c15070:	c001                	.insn	2, 0xc001
    44c15072:	0000112f          	.insn	4, 0x112f
	...
    44c1507e:	0000                	.insn	2, 0x0000
    44c15080:	3c01                	.insn	2, 0x3c01
    44c15082:	1095                	.insn	2, 0x1095
    44c15084:	0000                	.insn	2, 0x0000
    44c15086:	0000                	.insn	2, 0x0000
    44c15088:	4001                	.insn	2, 0x4001
    44c1508a:	00001093          	slli	x1,x0,0x0
    44c1508e:	0000                	.insn	2, 0x0000
    44c15090:	6001                	.insn	2, 0x6001
    44c15092:	1140                	.insn	2, 0x1140
	...
    44c150a8:	2c01                	.insn	2, 0x2c01
    44c150aa:	113a                	.insn	2, 0x113a
	...
    44c15118:	7001                	.insn	2, 0x7001
    44c1511a:	000010d7          	vfadd.vv	v1,v0,v0,v0.t
	...
    44c1513e:	0000                	.insn	2, 0x0000
    44c15140:	0c01                	.insn	2, 0x0c01
    44c15142:	10e5                	.insn	2, 0x10e5
	...
    44c15580:	f401                	.insn	2, 0xf401
    44c15582:	112e                	.insn	2, 0x112e
	...
    44c15c38:	2801                	.insn	2, 0x2801
    44c15c3a:	000010d7          	vfadd.vv	v1,v0,v0,v0.t
	...
    44c15eee:	0000                	.insn	2, 0x0000
    44c15ef0:	e001                	.insn	2, 0xe001
    44c15ef2:	000010ff 00000000 	.insn	12, 0x10ff
    44c15efa:	00000000 
	...
    44c15fc6:	0000                	.insn	2, 0x0000
    44c15fc8:	b001                	.insn	2, 0xb001
    44c15fca:	10dc                	.insn	2, 0x10dc
    44c15fcc:	0000                	.insn	2, 0x0000
	...

Disassembly of section .__pagetable_map_os_0x00000000435df000:

00000000435df000 <__pagetable_map_os_0x00000000435df000>:
	...
    435df008:	1132f4cf          	fnmadd.s	f9,f5,f19,f2
    435df00c:	0000                	.insn	2, 0x0000
    435df00e:	0000                	.insn	2, 0x0000
    435df010:	1132f8cf          	fnmadd.s	f17,f5,f19,f2
	...
    435df020:	111858cf          	fnmadd.s	f17,f16,f17,f2,unknown
	...
    435df040:	113094cf          	fnmadd.s	f9,f1,f19,f2,rtz
	...
    435df060:	1129b0cf          	fnmadd.s	f1,f19,f18,f2,rup
    435df064:	0000                	.insn	2, 0x0000
    435df066:	0000                	.insn	2, 0x0000
    435df068:	1129b4cf          	fnmadd.s	f9,f19,f18,f2,rup
    435df06c:	0000                	.insn	2, 0x0000
    435df06e:	0000                	.insn	2, 0x0000
    435df070:	10d748cf          	fnmadd.s	f17,f14,f13,f2,rmm
	...
    435df0a0:	10d748cf          	fnmadd.s	f17,f14,f13,f2,rmm
	...
    435df1c8:	10d75ccf          	fnmadd.s	f25,f14,f13,f2,unknown
	...
    435df200:	1108b4cf          	fnmadd.s	f9,f17,f16,f2,rup
    435df204:	0000                	.insn	2, 0x0000
    435df206:	0000                	.insn	2, 0x0000
    435df208:	10d69ccf          	fnmadd.s	f25,f13,f13,f2,rtz
	...
    435df2b0:	10e394c7          	fmsub.s	f9,f7,f14,f2,rtz
	...
    435df2c0:	113098cf          	fnmadd.s	f17,f1,f19,f2,rtz
    435df2c4:	0000                	.insn	2, 0x0000
    435df2c6:	0000                	.insn	2, 0x0000
    435df2c8:	11309ccf          	fnmadd.s	f25,f1,f19,f2,rtz
	...
    435df640:	10d748cf          	fnmadd.s	f17,f14,f13,f2,rmm
	...
    435df880:	112ef0c7          	fmsub.s	f1,f29,f18,f2
	...
    435df8b8:	10ffe4cf          	fnmadd.s	f9,f31,f15,f2,unknown
	...
    435df9e8:	10d758cf          	fnmadd.s	f17,f14,f13,f2,unknown
    435df9ec:	0000                	.insn	2, 0x0000
	...

Disassembly of section .__pagetable_map_os_0x0000000043ff8000:

0000000043ff8000 <__pagetable_map_os_0x0000000043ff8000>:
	...
    43ff8b88:	10c980cf          	fnmadd.s	f1,f19,f12,f2,rne
    43ff8b8c:	0000                	.insn	2, 0x0000
	...

Disassembly of section .__pagetable_map_os_0x0000000044204000:

0000000044204000 <__pagetable_map_os_0x0000000044204000>:
	...
    44204978:	109184c7          	fmsub.s	f9,f3,f9,f2,rne
    4420497c:	0000                	.insn	2, 0x0000
	...

Disassembly of section .__pagetable_map_os_0x000000004372c000:

000000004372c000 <__pagetable_map_os_0x000000004372c000>:
	...
    4372c630:	10e214c7          	fmsub.s	f9,f4,f14,f2,rtz
    4372c634:	0000                	.insn	2, 0x0000
	...

Disassembly of section .__pagetable_map_os_0x0000000044bbd000:

0000000044bbd000 <__pagetable_map_os_0x0000000044bbd000>:
	...
    44bbdba8:	10e3e8c7          	fmsub.s	f17,f7,f14,f2,unknown
    44bbdbac:	0000                	.insn	2, 0x0000
	...

Disassembly of section .__pagetable_map_os_0x00000000435dc000:

00000000435dc000 <__pagetable_map_os_0x00000000435dc000>:
	...
    435dc2a8:	106544c7          	fmsub.s	f9,f10,f6,f2,rmm
	...
    435dc2b8:	113060c7          	fmsub.s	f1,f0,f19,f2,unknown
    435dc2bc:	0000                	.insn	2, 0x0000
	...

Disassembly of section .__pagetable_map_os_0x0000000045018000:

0000000045018000 <__pagetable_map_os_0x0000000045018000>:
	...
    450183b0:	1108b0c7          	fmsub.s	f1,f17,f16,f2,rup
    450183b4:	0000                	.insn	2, 0x0000
	...

Disassembly of section .__pagetable_map_os_0x0000000044bf0000:

0000000044bf0000 <__pagetable_map_os_0x0000000044bf0000>:
	...
    44bf0288:	10d748cf          	fnmadd.s	f17,f14,f13,f2,rmm
    44bf028c:	0000                	.insn	2, 0x0000
	...

Disassembly of section .__pagetable_map_os_0x000000004254f000:

000000004254f000 <__pagetable_map_os_0x000000004254f000>:
	...
    4254f6a8:	10d768cf          	fnmadd.s	f17,f14,f13,f2,unknown
    4254f6ac:	0000                	.insn	2, 0x0000
	...

Disassembly of section .__pagetable_map_os_0x000000004420c000:

000000004420c000 <__pagetable_map_os_0x000000004420c000>:
	...
    4420cf08:	11082ccf          	fnmadd.s	f25,f16,f16,f2,rdn
    4420cf0c:	0000                	.insn	2, 0x0000
	...

Disassembly of section .__pagetable_map_os_0x0000000044e8b000:

0000000044e8b000 <__pagetable_map_os_0x0000000044e8b000>:
	...
    44e8b3a0:	10d748cf          	fnmadd.s	f17,f14,f13,f2,rmm
    44e8b3a4:	0000                	.insn	2, 0x0000
	...

Disassembly of section .__pagetable_map_os_0x00000000424d0000:

00000000424d0000 <__pagetable_map_os_0x00000000424d0000>:
	...
    424d05c8:	10e3e4cf          	fnmadd.s	f9,f7,f14,f2,unknown
    424d05cc:	0000                	.insn	2, 0x0000
	...

Disassembly of section .__pagetable_map_os_0x00000000435ca000:

00000000435ca000 <__pagetable_map_os_0x00000000435ca000>:
	...
    435ca118:	10fc4ccf          	fnmadd.s	f25,f24,f15,f2,rmm
    435ca11c:	0000                	.insn	2, 0x0000
	...

Disassembly of section .__pagetable_map_os_0x0000000043943000:

0000000043943000 <__pagetable_map_os_0x0000000043943000>:
	...
    43943860:	11305ccf          	fnmadd.s	f25,f0,f19,f2,unknown
    43943864:	0000                	.insn	2, 0x0000
	...

Disassembly of section .__pagetable_map_os_0x0000000044a88000:

0000000044a88000 <__pagetable_map_os_0x0000000044a88000>:
	...
    44a88ec8:	10d72ccf          	fnmadd.s	f25,f14,f13,f2,rdn
    44a88ecc:	0000                	.insn	2, 0x0000
	...

Disassembly of section .__pagetable_map_os_0x000000004397c000:

000000004397c000 <__pagetable_map_os_0x000000004397c000>:
	...
    4397caa8:	1076bccf          	fnmadd.s	f25,f13,f7,f2,rup
    4397caac:	0000                	.insn	2, 0x0000
	...

Disassembly of section .__pagetable_map_os_0x00000000438f6000:

00000000438f6000 <__pagetable_map_os_0x00000000438f6000>:
    438f6000:	f401                	.insn	2, 0xf401
    438f6002:	1132                	.insn	2, 0x1132
    438f6004:	0000                	.insn	2, 0x0000
	...

Disassembly of section .__pagetable_map_os_0x0000000044cbd000:

0000000044cbd000 <__pagetable_map_os_0x0000000044cbd000>:
    44cbd000:	113050c7          	fmsub.s	f1,f0,f19,f2,unknown
    44cbd004:	0000                	.insn	2, 0x0000
	...

Disassembly of section .__pagetable_map_os_0x00000000435d6000:

00000000435d6000 <__pagetable_map_os_0x00000000435d6000>:
    435d6000:	5c01                	.insn	2, 0x5c01
    435d6002:	000010d7          	vfadd.vv	v1,v0,v0,v0.t
	...

Disassembly of section .__pagetable_map_os_0x00000000435d7000:

00000000435d7000 <__pagetable_map_os_0x00000000435d7000>:
    435d7000:	109e58c7          	fmsub.s	f17,f28,f9,f2,unknown
    435d7004:	0000                	.insn	2, 0x0000
	...

Disassembly of section .__pagetable_map_os_0x000000004344c000:

000000004344c000 <__pagetable_map_os_0x000000004344c000>:
    4344c000:	6801                	.insn	2, 0x6801
    4344c002:	000010d7          	vfadd.vv	v1,v0,v0,v0.t
	...

Disassembly of section .__pagetable_map_os_0x00000000435da000:

00000000435da000 <__pagetable_map_os_0x00000000435da000>:
    435da000:	10e22cc7          	fmsub.s	f25,f4,f14,f2,rdn
    435da004:	0000                	.insn	2, 0x0000
	...

Disassembly of section .__pagetable_map_os_0x000000004420b000:

000000004420b000 <__pagetable_map_os_0x000000004420b000>:
    4420b000:	b401                	.insn	2, 0xb401
    4420b002:	10c9                	.insn	2, 0x10c9
    4420b004:	0000                	.insn	2, 0x0000
	...

Disassembly of section .__pagetable_map_os_0x000000004326d000:

000000004326d000 <__pagetable_map_os_0x000000004326d000>:
    4326d000:	10ce14c7          	fmsub.s	f9,f28,f12,f2,rtz
    4326d004:	0000                	.insn	2, 0x0000
	...

Disassembly of section .__pagetable_map_os_0x0000000043f26000:

0000000043f26000 <__pagetable_map_os_0x0000000043f26000>:
    43f26000:	e001                	.insn	2, 0xe001
    43f26002:	000010e3          	bnez	x0,43f26802 <__pagetable_map_os_0x0000000043f26000+0x802>
	...

Disassembly of section .__pagetable_map_os_0x00000000438f8000:

00000000438f8000 <__pagetable_map_os_0x00000000438f8000>:
    438f8000:	10a00cc7          	fmsub.s	f25,f0,f10,f2,rne
    438f8004:	0000                	.insn	2, 0x0000
	...

Disassembly of section .__pagetable_map_os_0x00000000438f9000:

00000000438f9000 <__pagetable_map_os_0x00000000438f9000>:
    438f9000:	2c01                	.insn	2, 0x2c01
    438f9002:	10d6                	.insn	2, 0x10d6
    438f9004:	0000                	.insn	2, 0x0000
	...

Disassembly of section .__pagetable_map_os_0x000000004358b000:

000000004358b000 <__pagetable_map_os_0x000000004358b000>:
    4358b000:	10e598c7          	fmsub.s	f17,f11,f14,f2,rtz
    4358b004:	0000                	.insn	2, 0x0000
	...

Disassembly of section .__pagetable_map_os_0x000000004422d000:

000000004422d000 <__pagetable_map_os_0x000000004422d000>:
    4422d000:	4c01                	.insn	2, 0x4c01
    4422d002:	10fc                	.insn	2, 0x10fc
    4422d004:	0000                	.insn	2, 0x0000
	...

Disassembly of section .__pagetable_map_os_0x0000000043f13000:

0000000043f13000 <__pagetable_map_os_0x0000000043f13000>:
    43f13000:	10d894c7          	fmsub.s	f9,f17,f13,f2,rtz
    43f13004:	0000                	.insn	2, 0x0000
	...

Disassembly of section .__pagetable_map_os_0x0000000044c16000:

0000000044c16000 <__pagetable_map_os_0x0000000044c16000>:
    44c16000:	f801                	.insn	2, 0xf801
    44c16002:	1132                	.insn	2, 0x1132
    44c16004:	0000                	.insn	2, 0x0000
	...

Disassembly of section .__pagetable_map_os_0x0000000044cbe000:

0000000044cbe000 <__pagetable_map_os_0x0000000044cbe000>:
    44cbe000:	108c00c7          	fmsub.s	f1,f24,f8,f2,rne
    44cbe004:	0000                	.insn	2, 0x0000
	...

Disassembly of section .__pagetable_map_os_0x0000000044c25000:

0000000044c25000 <__pagetable_map_os_0x0000000044c25000>:
    44c25000:	5c01                	.insn	2, 0x5c01
    44c25002:	1130                	.insn	2, 0x1130
    44c25004:	0000                	.insn	2, 0x0000
	...

Disassembly of section .__pagetable_map_os_0x0000000044c17000:

0000000044c17000 <__pagetable_map_os_0x0000000044c17000>:
    44c17000:	10ff74c7          	fmsub.s	f9,f30,f15,f2
    44c17004:	0000                	.insn	2, 0x0000
	...

Disassembly of section .__pagetable_map_os_0x0000000043ff9000:

0000000043ff9000 <__pagetable_map_os_0x0000000043ff9000>:
    43ff9000:	4001                	.insn	2, 0x4001
    43ff9002:	000010d7          	vfadd.vv	v1,v0,v0,v0.t
	...

Disassembly of section .__pagetable_map_os_0x00000000435d0000:

00000000435d0000 <__pagetable_map_os_0x00000000435d0000>:
    435d0000:	1129b8c7          	fmsub.s	f17,f19,f18,f2,rup
    435d0004:	0000                	.insn	2, 0x0000
	...

Disassembly of section .__pagetable_map_os_0x0000000044ebf000:

0000000044ebf000 <__pagetable_map_os_0x0000000044ebf000>:
    44ebf000:	2c01                	.insn	2, 0x2c01
    44ebf002:	000010d7          	vfadd.vv	v1,v0,v0,v0.t
	...

Disassembly of section .__pagetable_map_os_0x00000000435cb000:

00000000435cb000 <__pagetable_map_os_0x00000000435cb000>:
    435cb000:	10d720c7          	fmsub.s	f1,f14,f13,f2,rdn
    435cb004:	0000                	.insn	2, 0x0000
	...

Disassembly of section .__pagetable_map_os_0x00000000435a7000:

00000000435a7000 <__pagetable_map_os_0x00000000435a7000>:
    435a7000:	bc01                	.insn	2, 0xbc01
    435a7002:	1076                	.insn	2, 0x1076
    435a7004:	0000                	.insn	2, 0x0000
	...

Disassembly of section .__pagetable_map_os_0x0000000041daf000:

0000000041daf000 <__pagetable_map_os_0x0000000041daf000>:
    41daf000:	10d738c7          	fmsub.s	f17,f14,f13,f2,rup
    41daf004:	0000                	.insn	2, 0x0000
	...

Disassembly of section .__pagetable_map_os_0x00000000435c9000:

00000000435c9000 <__pagetable_map_os_0x00000000435c9000>:
	...
    435c9848:	9801                	.insn	2, 0x9801
    435c984a:	1132                	.insn	2, 0x1132
	...
    435c9e30:	8801                	.insn	2, 0x8801
    435c9e32:	10d4                	.insn	2, 0x10d4
    435c9e34:	0000                	.insn	2, 0x0000
	...

Disassembly of section .__pagetable_map_os_0x0000000043522000:

0000000043522000 <__pagetable_map_os_0x0000000043522000>:
	...
    43522d78:	1134c0c7          	fmsub.s	f1,f9,f19,f2,rmm
    43522d7c:	0000                	.insn	2, 0x0000
	...

Disassembly of section .__pagetable_map_os_0x0000000044ca6000:

0000000044ca6000 <__pagetable_map_os_0x0000000044ca6000>:
	...
    44ca6120:	10e3d8cf          	fnmadd.s	f17,f7,f14,f2,unknown
    44ca6124:	0000                	.insn	2, 0x0000
	...

Disassembly of section .__pagetable_map_os_0x0000000044fa1000:

0000000044fa1000 <__pagetable_map_os_0x0000000044fa1000>:
	...
    44fa1280:	0801                	.insn	2, 0x0801
    44fa1282:	1064                	.insn	2, 0x1064
    44fa1284:	0000                	.insn	2, 0x0000
	...

Disassembly of section .__pagetable_map_os_0x0000000041902000:

0000000041902000 <__pagetable_map_os_0x0000000041902000>:
	...
    41902ab0:	10e3e0cf          	fnmadd.s	f1,f7,f14,f2,unknown
    41902ab4:	0000                	.insn	2, 0x0000
    41902ab6:	0000                	.insn	2, 0x0000
    41902ab8:	112ba4c7          	fmsub.s	f9,f23,f18,f2,rdn
    41902abc:	0000                	.insn	2, 0x0000
	...

Disassembly of section .__pagetable_map_os_0x00000000435a2000:

00000000435a2000 <__pagetable_map_os_0x00000000435a2000>:
    435a2000:	6001                	.insn	2, 0x6001
    435a2002:	000010d7          	vfadd.vv	v1,v0,v0,v0.t
	...

Disassembly of section .__pagetable_map_os_0x00000000435d8000:

00000000435d8000 <__pagetable_map_os_0x00000000435d8000>:
    435d8000:	10c9ecc7          	fmsub.s	f25,f19,f12,f2,unknown
    435d8004:	0000                	.insn	2, 0x0000
	...

Disassembly of section .__pagetable_map_os_0x0000000041b79000:

0000000041b79000 <__pagetable_map_os_0x0000000041b79000>:
	...
    41b79d70:	3401                	.insn	2, 0x3401
    41b79d72:	000010d3          	fadd.s	f1,f0,f0,rtz
	...

Disassembly of section .__pagetable_map_os_0x00000000434cd000:

00000000434cd000 <__pagetable_map_os_0x00000000434cd000>:
	...
    434cdb10:	10d748cf          	fnmadd.s	f17,f14,f13,f2,rmm
    434cdb14:	0000                	.insn	2, 0x0000
	...

Disassembly of section .__pagetable_map_os_0x00000000438f7000:

00000000438f7000 <__pagetable_map_os_0x00000000438f7000>:
	...
    438f7398:	9001                	.insn	2, 0x9001
    438f739a:	10d8                	.insn	2, 0x10d8
    438f739c:	0000                	.insn	2, 0x0000
	...

Disassembly of section .__pagetable_map_os_0x0000000043624000:

0000000043624000 <__pagetable_map_os_0x0000000043624000>:
	...
    43624468:	10d748cf          	fnmadd.s	f17,f14,f13,f2,rmm
    4362446c:	0000                	.insn	2, 0x0000
	...

Disassembly of section .__pagetable_map_os_0x0000000043273000:

0000000043273000 <__pagetable_map_os_0x0000000043273000>:
	...
    43273f98:	3c01                	.insn	2, 0x3c01
    43273f9a:	00001073          	csrw	ustatus,x0
	...

Disassembly of section .__pagetable_map_os_0x0000000041ccf000:

0000000041ccf000 <__pagetable_map_os_0x0000000041ccf000>:
	...
    41ccf308:	10d130cf          	fnmadd.s	f1,f2,f13,f2,rup
    41ccf30c:	0000                	.insn	2, 0x0000
	...

Disassembly of section .__pagetable_map_os_0x00000000434d4000:

00000000434d4000 <__pagetable_map_os_0x00000000434d4000>:
	...
    434d45e0:	f001                	.insn	2, 0xf001
    434d45e2:	1140                	.insn	2, 0x1140
	...
    434d4900:	a001                	.insn	2, 0xa001
    434d4902:	113d                	.insn	2, 0x113d
    434d4904:	0000                	.insn	2, 0x0000
	...

Disassembly of section .__pagetable_map_os_0x0000000044f68000:

0000000044f68000 <__pagetable_map_os_0x0000000044f68000>:
	...
    44f684b8:	10fc98cf          	fnmadd.s	f17,f25,f15,f2,rtz
    44f684bc:	0000                	.insn	2, 0x0000
	...

Disassembly of section .__pagetable_map_os_0x000000004503c000:

000000004503c000 <__pagetable_map_os_0x000000004503c000>:
	...
    4503cd80:	10d748cf          	fnmadd.s	f17,f14,f13,f2,rmm
    4503cd84:	0000                	.insn	2, 0x0000
	...

Disassembly of section .__pagetable_map_os_0x000000004273b000:

000000004273b000 <__pagetable_map_os_0x000000004273b000>:
	...
    4273bef8:	c401                	.insn	2, 0xc401
    4273befa:	10d6                	.insn	2, 0x10d6
    4273befc:	0000                	.insn	2, 0x0000
	...

Disassembly of section .__pagetable_map_os_0x00000000435b1000:

00000000435b1000 <__pagetable_map_os_0x00000000435b1000>:
	...
    435b1868:	10d62ccf          	fnmadd.s	f25,f12,f13,f2,rdn
    435b186c:	0000                	.insn	2, 0x0000
	...

Disassembly of section .__pagetable_map_os_0x0000000041da5000:

0000000041da5000 <__pagetable_map_os_0x0000000041da5000>:
	...
    41da5a60:	8401                	.insn	2, 0x8401
    41da5a62:	113a                	.insn	2, 0x113a
    41da5a64:	0000                	.insn	2, 0x0000
	...

Disassembly of section .__pagetable_map_os_0x0000000044ea1000:

0000000044ea1000 <__pagetable_map_os_0x0000000044ea1000>:
	...
    44ea1348:	10d748cf          	fnmadd.s	f17,f14,f13,f2,rmm
    44ea134c:	0000                	.insn	2, 0x0000
	...

Disassembly of section .__pagetable_map_os_0x00000000434d2000:

00000000434d2000 <__pagetable_map_os_0x00000000434d2000>:
	...
    434d20c0:	0c01                	.insn	2, 0x0c01
    434d20c2:	00001093          	slli	x1,x0,0x0
	...

Disassembly of section .__pagetable_map_os_0x00000000424c3000:

00000000424c3000 <__pagetable_map_os_0x00000000424c3000>:
	...
    424c3100:	10d748cf          	fnmadd.s	f17,f14,f13,f2,rmm
    424c3104:	0000                	.insn	2, 0x0000
	...

Disassembly of section .__pagetable_map_os_0x0000000044bfe000:

0000000044bfe000 <__pagetable_map_os_0x0000000044bfe000>:
	...
    44bfe0b0:	cc01                	.insn	2, 0xcc01
    44bfe0b2:	10dd                	.insn	2, 0x10dd
    44bfe0b4:	0000                	.insn	2, 0x0000
	...

Disassembly of section .__pagetable_map_os_0x0000000043773000:

0000000043773000 <__pagetable_map_os_0x0000000043773000>:
	...
    43773d40:	113058cf          	fnmadd.s	f17,f0,f19,f2,unknown
    43773d44:	0000                	.insn	2, 0x0000
	...

Disassembly of section .__pagetable_map_os_0x0000000043547000:

0000000043547000 <__pagetable_map_os_0x0000000043547000>:
	...
    43547958:	4401                	.insn	2, 0x4401
    4354795a:	000010d7          	vfadd.vv	v1,v0,v0,v0.t
	...

Disassembly of section .__pagetable_map_os_0x00000000435d1000:

00000000435d1000 <__pagetable_map_os_0x00000000435d1000>:
	...
    435d1b28:	10d748cf          	fnmadd.s	f17,f14,f13,f2,rmm
    435d1b2c:	0000                	.insn	2, 0x0000
	...

Disassembly of section .__pagetable_map_os_0x0000000043277000:

0000000043277000 <__pagetable_map_os_0x0000000043277000>:
	...
    43277558:	0c01                	.insn	2, 0x0c01
    4327755a:	10d1                	.insn	2, 0x10d1
    4327755c:	0000                	.insn	2, 0x0000
	...

Disassembly of section .__pagetable_map_os_0x0000000043443000:

0000000043443000 <__pagetable_map_os_0x0000000043443000>:
	...
    434432f8:	10d740cf          	fnmadd.s	f1,f14,f13,f2,rmm
    434432fc:	0000                	.insn	2, 0x0000
	...

Disassembly of section .__pagetable_map_os_0x000000004503a000:

000000004503a000 <__pagetable_map_os_0x000000004503a000>:
	...
    4503a238:	8001                	.insn	2, 0x8001
    4503a23a:	00001073          	csrw	ustatus,x0
	...

Disassembly of section .__pagetable_map_os_0x0000000041ce0000:

0000000041ce0000 <__pagetable_map_os_0x0000000041ce0000>:
	...
    41ce0758:	10d748cf          	fnmadd.s	f17,f14,f13,f2,rmm
    41ce075c:	0000                	.insn	2, 0x0000
	...
