
/home/abdullah/RiescueC/riescue/10x_R/zicond/testsuite/zicond/user_sv39/tp_zicond_1:     file format elf64-littleriscv


Disassembly of section .runtime:

0000000041000000 <_start>:
    41000000:	00000093          	li	x1,0
    41000004:	00000113          	li	x2,0
    41000008:	00000193          	li	x3,0
    4100000c:	00000213          	li	x4,0
    41000010:	00000293          	li	x5,0
    41000014:	00000313          	li	x6,0
    41000018:	00000393          	li	x7,0
    4100001c:	00000413          	li	x8,0
    41000020:	00000493          	li	x9,0
    41000024:	00000513          	li	x10,0
    41000028:	00000593          	li	x11,0
    4100002c:	00000613          	li	x12,0
    41000030:	00000693          	li	x13,0
    41000034:	00000713          	li	x14,0
    41000038:	00000793          	li	x15,0
    4100003c:	00000813          	li	x16,0
    41000040:	00000893          	li	x17,0
    41000044:	00000913          	li	x18,0
    41000048:	00000993          	li	x19,0
    4100004c:	00000a13          	li	x20,0
    41000050:	00000a93          	li	x21,0
    41000054:	00000b13          	li	x22,0
    41000058:	00000b93          	li	x23,0
    4100005c:	00000c13          	li	x24,0
    41000060:	00000c93          	li	x25,0
    41000064:	00000d13          	li	x26,0
    41000068:	00000d93          	li	x27,0
    4100006c:	00000e13          	li	x28,0
    41000070:	00000e93          	li	x29,0
    41000074:	00000f13          	li	x30,0
    41000078:	00000f93          	li	x31,0

000000004100007c <loader__load_panic_address>:
    4100007c:	00001297          	auipc	x5,0x1
    41000080:	9e828293          	addi	x5,x5,-1560 # 41000a64 <eot__failed>
    41000084:	30529073          	csrw	mtvec,x5

0000000041000088 <loader__initialize_runtime>:
    41000088:	00000293          	li	x5,0
    4100008c:	3012a2f3          	csrrs	x5,misa,x5

0000000041000090 <loader__set_mstatus>:
    41000090:	000402b7          	lui	x5,0x40
    41000094:	00a2829b          	addiw	x5,x5,10 # 4000a <pma_region_0_size+0xa>
    41000098:	3002a2f3          	csrrs	x5,mstatus,x5
    4100009c:	435b9237          	lui	x4,0x435b9
    410000a0:	34021073          	csrw	mscratch,x4

00000000410000a4 <loader__setup_menvcfg>:
    410000a4:	00000297          	auipc	x5,0x0
    410000a8:	4a828293          	addi	x5,x5,1192 # 4100054c <trap_handler_m__trap_entry>
    410000ac:	30529073          	csrw	mtvec,x5

00000000410000b0 <loader__enable_paging>:
    410000b0:	ffff00b7          	lui	x1,0xffff0
    410000b4:	0110809b          	addiw	x1,x1,17 # ffffffffffff0011 <SID_EXCEP_04_EQZ_FAILING_XOR_stack+0x3c69fb1011>
    410000b8:	02309093          	slli	x1,x1,0x23
    410000bc:	04508093          	addi	x1,x1,69
    410000c0:	00c09093          	slli	x1,x1,0xc
    410000c4:	a6608093          	addi	x1,x1,-1434
    410000c8:	18009073          	csrw	satp,x1

00000000410000cc <loader__done>:
    410000cc:	1c10006f          	j	41000a8c <scheduler__init>

00000000410000d0 <loader__panic>:
    410000d0:	1950006f          	j	41000a64 <eot__failed>

00000000410000d4 <syscalls__syscall_check_schedule_next_test>:
    410000d4:	00f0029b          	addiw	x5,x0,15
    410000d8:	01c29293          	slli	x5,x5,0x1c
    410000dc:	00128293          	addi	x5,x5,1
    410000e0:	01f29a63          	bne	x5,x31,410000f4 <syscalls__syscall_check_fail_test>
    410000e4:	00000317          	auipc	x6,0x0
    410000e8:	46830313          	addi	x6,x6,1128 # 4100054c <trap_handler_m__trap_entry>
    410000ec:	30531073          	csrw	mtvec,x6
    410000f0:	6a00006f          	j	41000790 <enter_scheduler>

00000000410000f4 <syscalls__syscall_check_fail_test>:
    410000f4:	00f0029b          	addiw	x5,x0,15
    410000f8:	01c29293          	slli	x5,x5,0x1c
    410000fc:	00228293          	addi	x5,x5,2
    41000100:	01f29a63          	bne	x5,x31,41000114 <syscalls__syscall_check_end_test_without_failure>
    41000104:	00000317          	auipc	x6,0x0
    41000108:	44830313          	addi	x6,x6,1096 # 4100054c <trap_handler_m__trap_entry>
    4100010c:	30531073          	csrw	mtvec,x6
    41000110:	6b00006f          	j	410007c0 <test_failed>

0000000041000114 <syscalls__syscall_check_end_test_without_failure>:
    41000114:	00f0029b          	addiw	x5,x0,15
    41000118:	01c29293          	slli	x5,x5,0x1c
    4100011c:	00328293          	addi	x5,x5,3
    41000120:	01f29a63          	bne	x5,x31,41000134 <syscalls__syscall_check_switch_machine_mode>
    41000124:	00000317          	auipc	x6,0x0
    41000128:	42830313          	addi	x6,x6,1064 # 4100054c <trap_handler_m__trap_entry>
    4100012c:	30531073          	csrw	mtvec,x6
    41000130:	69c0006f          	j	410007cc <os_end_test>

0000000041000134 <syscalls__syscall_check_switch_machine_mode>:
    41000134:	000f02b7          	lui	x5,0xf0
    41000138:	0012829b          	addiw	x5,x5,1 # f0001 <SID_EXCEP_04_2_1_MUX_SELECT_0_stack+0x2e001>
    4100013c:	00c29293          	slli	x5,x5,0xc
    41000140:	00128293          	addi	x5,x5,1
    41000144:	0a5f8463          	beq	x31,x5,410001ec <syscalls__os_fn_f0001001>

0000000041000148 <syscalls__syscall_check_switch_super_mode>:
    41000148:	000f02b7          	lui	x5,0xf0
    4100014c:	0012829b          	addiw	x5,x5,1 # f0001 <SID_EXCEP_04_2_1_MUX_SELECT_0_stack+0x2e001>
    41000150:	00c29293          	slli	x5,x5,0xc
    41000154:	00228293          	addi	x5,x5,2
    41000158:	0c5f8063          	beq	x31,x5,41000218 <syscalls__os_fn_f0001002>

000000004100015c <syscalls__syscall_check_switch_user_mode>:
    4100015c:	000f02b7          	lui	x5,0xf0
    41000160:	0012829b          	addiw	x5,x5,1 # f0001 <SID_EXCEP_04_2_1_MUX_SELECT_0_stack+0x2e001>
    41000164:	00c29293          	slli	x5,x5,0xc
    41000168:	00328293          	addi	x5,x5,3
    4100016c:	0c5f8e63          	beq	x31,x5,41000248 <syscalls__os_fn_f0001003>

0000000041000170 <syscalls__syscall_check_switch_test_mode>:
    41000170:	000f02b7          	lui	x5,0xf0
    41000174:	0012829b          	addiw	x5,x5,1 # f0001 <SID_EXCEP_04_2_1_MUX_SELECT_0_stack+0x2e001>
    41000178:	00c29293          	slli	x5,x5,0xc
    4100017c:	00428293          	addi	x5,x5,4
    41000180:	0c5f8863          	beq	x31,x5,41000250 <syscalls__os_fn_f0001004>

0000000041000184 <syscalls__syscall_machine_csr_rw>:
    41000184:	000f02b7          	lui	x5,0xf0
    41000188:	0012829b          	addiw	x5,x5,1 # f0001 <SID_EXCEP_04_2_1_MUX_SELECT_0_stack+0x2e001>
    4100018c:	00c29293          	slli	x5,x5,0xc
    41000190:	00528293          	addi	x5,x5,5
    41000194:	0e5f8263          	beq	x31,x5,41000278 <syscalls__os_fn_f0001005>

0000000041000198 <syscalls__syscall_supervisor_csr_rw>:
    41000198:	000f02b7          	lui	x5,0xf0
    4100019c:	0012829b          	addiw	x5,x5,1 # f0001 <SID_EXCEP_04_2_1_MUX_SELECT_0_stack+0x2e001>
    410001a0:	00c29293          	slli	x5,x5,0xc
    410001a4:	00628293          	addi	x5,x5,6
    410001a8:	0e5f8e63          	beq	x31,x5,410002a4 <syscalls__os_fn_f0001006>

00000000410001ac <syscalls__syscall_machine_pte_read>:
    410001ac:	000f02b7          	lui	x5,0xf0
    410001b0:	0012829b          	addiw	x5,x5,1 # f0001 <SID_EXCEP_04_2_1_MUX_SELECT_0_stack+0x2e001>
    410001b4:	00c29293          	slli	x5,x5,0xc
    410001b8:	00728293          	addi	x5,x5,7
    410001bc:	105f8c63          	beq	x31,x5,410002d4 <syscalls__os_fn_f0001007>

00000000410001c0 <syscalls__syscall_machine_pte_write>:
    410001c0:	000f02b7          	lui	x5,0xf0
    410001c4:	0012829b          	addiw	x5,x5,1 # f0001 <SID_EXCEP_04_2_1_MUX_SELECT_0_stack+0x2e001>
    410001c8:	00c29293          	slli	x5,x5,0xc
    410001cc:	00828293          	addi	x5,x5,8
    410001d0:	1e5f8863          	beq	x31,x5,410003c0 <syscalls__os_fn_f0001008>

00000000410001d4 <syscalls__syscall_check_get_hart_context>:
    410001d4:	000782b7          	lui	x5,0x78
    410001d8:	0012829b          	addiw	x5,x5,1 # 78001 <SID_EXCEP_04_EQZ_PASSING_AND_stack+0x31001>
    410001dc:	00d29293          	slli	x5,x5,0xd
    410001e0:	00128293          	addi	x5,x5,1
    410001e4:	2c5f8463          	beq	x31,x5,410004ac <syscalls__os_get_hart_context>
    410001e8:	4c00006f          	j	410006a8 <trap_handler_m__check_exception_label>

00000000410001ec <syscalls__os_fn_f0001001>:
    410001ec:	000022b7          	lui	x5,0x2
    410001f0:	8002829b          	addiw	x5,x5,-2048 # 1800 <pma_region_1_size+0x800>
    410001f4:	3002b073          	csrc	mstatus,x5
    410001f8:	000022b7          	lui	x5,0x2
    410001fc:	8002829b          	addiw	x5,x5,-2048 # 1800 <pma_region_1_size+0x800>
    41000200:	3002a073          	csrs	mstatus,x5
    41000204:	0010029b          	addiw	x5,x0,1
    41000208:	02729293          	slli	x5,x5,0x27
    4100020c:	3002b073          	csrc	mstatus,x5
    41000210:	411952b7          	lui	x5,0x41195
    41000214:	2a80006f          	j	410004bc <syscalls__ret_from_os_fn>

0000000041000218 <syscalls__os_fn_f0001002>:
    41000218:	000022b7          	lui	x5,0x2
    4100021c:	8002829b          	addiw	x5,x5,-2048 # 1800 <pma_region_1_size+0x800>
    41000220:	3002b073          	csrc	mstatus,x5
    41000224:	000012b7          	lui	x5,0x1
    41000228:	8002829b          	addiw	x5,x5,-2048 # 800 <XLEN+0x7c0>
    4100022c:	3002a073          	csrs	mstatus,x5
    41000230:	0010029b          	addiw	x5,x0,1
    41000234:	02729293          	slli	x5,x5,0x27
    41000238:	3002b073          	csrc	mstatus,x5
    4100023c:	12000073          	sfence.vma
    41000240:	410952b7          	lui	x5,0x41095
    41000244:	2780006f          	j	410004bc <syscalls__ret_from_os_fn>

0000000041000248 <syscalls__os_fn_f0001003>:
    41000248:	411152b7          	lui	x5,0x41115
    4100024c:	2700006f          	j	410004bc <syscalls__ret_from_os_fn>

0000000041000250 <syscalls__os_fn_f0001004>:
    41000250:	000022b7          	lui	x5,0x2
    41000254:	8002829b          	addiw	x5,x5,-2048 # 1800 <pma_region_1_size+0x800>
    41000258:	3002b073          	csrc	mstatus,x5
    4100025c:	00000293          	li	x5,0
    41000260:	3002a073          	csrs	mstatus,x5
    41000264:	0010029b          	addiw	x5,x0,1
    41000268:	02729293          	slli	x5,x5,0x27
    4100026c:	3002b073          	csrc	mstatus,x5
    41000270:	17823283          	ld	x5,376(x4) # 435b9178 <__section_hart_context+0x178>
    41000274:	2480006f          	j	410004bc <syscalls__ret_from_os_fn>

0000000041000278 <syscalls__os_fn_f0001005>:
    41000278:	000022b7          	lui	x5,0x2
    4100027c:	8002829b          	addiw	x5,x5,-2048 # 1800 <pma_region_1_size+0x800>
    41000280:	3002b073          	csrc	mstatus,x5
    41000284:	000022b7          	lui	x5,0x2
    41000288:	8002829b          	addiw	x5,x5,-2048 # 1800 <pma_region_1_size+0x800>
    4100028c:	3002a073          	csrs	mstatus,x5
    41000290:	0010029b          	addiw	x5,x0,1
    41000294:	02729293          	slli	x5,x5,0x27
    41000298:	3002b073          	csrc	mstatus,x5
    4100029c:	412152b7          	lui	x5,0x41215
    410002a0:	21c0006f          	j	410004bc <syscalls__ret_from_os_fn>

00000000410002a4 <syscalls__os_fn_f0001006>:
    410002a4:	000022b7          	lui	x5,0x2
    410002a8:	8002829b          	addiw	x5,x5,-2048 # 1800 <pma_region_1_size+0x800>
    410002ac:	3002b073          	csrc	mstatus,x5
    410002b0:	000012b7          	lui	x5,0x1
    410002b4:	8002829b          	addiw	x5,x5,-2048 # 800 <XLEN+0x7c0>
    410002b8:	3002a073          	csrs	mstatus,x5
    410002bc:	0010029b          	addiw	x5,x0,1
    410002c0:	02729293          	slli	x5,x5,0x27
    410002c4:	3002b073          	csrc	mstatus,x5
    410002c8:	12000073          	sfence.vma
    410002cc:	412162b7          	lui	x5,0x41216
    410002d0:	1ec0006f          	j	410004bc <syscalls__ret_from_os_fn>

00000000410002d4 <syscalls__os_fn_f0001007>:
    410002d4:	434d4fb7          	lui	x31,0x434d4
    410002d8:	0b0f8f9b          	addiw	x31,x31,176 # 434d40b0 <pte_access_flags_pa>
    410002dc:	000fbf83          	ld	x31,0(x31)
    410002e0:	434d42b7          	lui	x5,0x434d4
    410002e4:	0b82829b          	addiw	x5,x5,184 # 434d40b8 <pte_access_flags_pa+0x8>
    410002e8:	0002b283          	ld	x5,0(x5)
    410002ec:	434d4e37          	lui	x28,0x434d4
    410002f0:	0c0e0e1b          	addiw	x28,x28,192 # 434d40c0 <pte_access_flags_pa+0x10>
    410002f4:	000e3e03          	ld	x28,0(x28)

00000000410002f8 <syscalls__pte_walk_check_glevel_without_gstage_read>:
    410002f8:	fff00f93          	li	x31,-1
    410002fc:	0dfe1063          	bne	x28,x31,410003bc <syscalls__pte_walk_fail_read>
    41000300:	18002373          	csrr	x6,satp
    41000304:	03c35e93          	srli	x29,x6,0x3c
    41000308:	01431313          	slli	x6,x6,0x14
    4100030c:	01435313          	srli	x6,x6,0x14
    41000310:	00c31313          	slli	x6,x6,0xc
    41000314:	ff8e8e93          	addi	x29,x29,-8
    41000318:	003e9f13          	slli	x30,x29,0x3
    4100031c:	01df0eb3          	add	x29,x30,x29
    41000320:	01ee8e93          	addi	x29,x29,30
    41000324:	00000f13          	li	x30,0

0000000041000328 <syscalls__pte_walk_loop_read>:
    41000328:	434d4fb7          	lui	x31,0x434d4
    4100032c:	0b0f8f9b          	addiw	x31,x31,176 # 434d40b0 <pte_access_flags_pa>
    41000330:	000fbf83          	ld	x31,0(x31)
    41000334:	01dfdfb3          	srl	x31,x31,x29
    41000338:	1fffff93          	andi	x31,x31,511
    4100033c:	003f9f93          	slli	x31,x31,0x3
    41000340:	01f30333          	add	x6,x6,x31
    41000344:	005f0e63          	beq	x30,x5,41000360 <syscalls__pte_walk_done_read>
    41000348:	00033f83          	ld	x31,0(x6)
    4100034c:	00afdf93          	srli	x31,x31,0xa
    41000350:	00cf9313          	slli	x6,x31,0xc
    41000354:	001f0f13          	addi	x30,x30,1
    41000358:	ff7e8e93          	addi	x29,x29,-9
    4100035c:	fcdff06f          	j	41000328 <syscalls__pte_walk_loop_read>

0000000041000360 <syscalls__pte_walk_done_read>:
    41000360:	fff00f93          	li	x31,-1
    41000364:	05fe0263          	beq	x28,x31,410003a8 <syscalls__pte_walk_final_read>

0000000041000368 <syscalls__pte_walk_gstage_read>:
    41000368:	434d4fb7          	lui	x31,0x434d4
    4100036c:	0b0f8f9b          	addiw	x31,x31,176 # 434d40b0 <pte_access_flags_pa>
    41000370:	006fb023          	sd	x6,0(x31)
    41000374:	000e0293          	mv	x5,x28
    41000378:	fff00e13          	li	x28,-1
    4100037c:	68002373          	csrr	x6,hgatp
    41000380:	03c35e93          	srli	x29,x6,0x3c
    41000384:	01431313          	slli	x6,x6,0x14
    41000388:	01435313          	srli	x6,x6,0x14
    4100038c:	00c31313          	slli	x6,x6,0xc
    41000390:	ff8e8e93          	addi	x29,x29,-8
    41000394:	003e9f13          	slli	x30,x29,0x3
    41000398:	01df0eb3          	add	x29,x30,x29
    4100039c:	01ee8e93          	addi	x29,x29,30
    410003a0:	00000f13          	li	x30,0
    410003a4:	f85ff06f          	j	41000328 <syscalls__pte_walk_loop_read>

00000000410003a8 <syscalls__pte_walk_final_read>:
    410003a8:	00033383          	ld	x7,0(x6)
    410003ac:	341022f3          	csrr	x5,mepc
    410003b0:	00428293          	addi	x5,x5,4
    410003b4:	16523c23          	sd	x5,376(x4) # 178 <XLEN+0x138>
    410003b8:	e99ff06f          	j	41000250 <syscalls__os_fn_f0001004>

00000000410003bc <syscalls__pte_walk_fail_read>:
    410003bc:	4040006f          	j	410007c0 <test_failed>

00000000410003c0 <syscalls__os_fn_f0001008>:
    410003c0:	434d4fb7          	lui	x31,0x434d4
    410003c4:	0b0f8f9b          	addiw	x31,x31,176 # 434d40b0 <pte_access_flags_pa>
    410003c8:	000fbf83          	ld	x31,0(x31)
    410003cc:	434d42b7          	lui	x5,0x434d4
    410003d0:	0b82829b          	addiw	x5,x5,184 # 434d40b8 <pte_access_flags_pa+0x8>
    410003d4:	0002b283          	ld	x5,0(x5)
    410003d8:	434d4e37          	lui	x28,0x434d4
    410003dc:	0c0e0e1b          	addiw	x28,x28,192 # 434d40c0 <pte_access_flags_pa+0x10>
    410003e0:	000e3e03          	ld	x28,0(x28)

00000000410003e4 <syscalls__pte_walk_check_glevel_without_gstage_write>:
    410003e4:	fff00f93          	li	x31,-1
    410003e8:	0dfe1063          	bne	x28,x31,410004a8 <syscalls__pte_walk_fail_write>
    410003ec:	18002373          	csrr	x6,satp
    410003f0:	03c35e93          	srli	x29,x6,0x3c
    410003f4:	01431313          	slli	x6,x6,0x14
    410003f8:	01435313          	srli	x6,x6,0x14
    410003fc:	00c31313          	slli	x6,x6,0xc
    41000400:	ff8e8e93          	addi	x29,x29,-8
    41000404:	003e9f13          	slli	x30,x29,0x3
    41000408:	01df0eb3          	add	x29,x30,x29
    4100040c:	01ee8e93          	addi	x29,x29,30
    41000410:	00000f13          	li	x30,0

0000000041000414 <syscalls__pte_walk_loop_write>:
    41000414:	434d4fb7          	lui	x31,0x434d4
    41000418:	0b0f8f9b          	addiw	x31,x31,176 # 434d40b0 <pte_access_flags_pa>
    4100041c:	000fbf83          	ld	x31,0(x31)
    41000420:	01dfdfb3          	srl	x31,x31,x29
    41000424:	1fffff93          	andi	x31,x31,511
    41000428:	003f9f93          	slli	x31,x31,0x3
    4100042c:	01f30333          	add	x6,x6,x31
    41000430:	005f0e63          	beq	x30,x5,4100044c <syscalls__pte_walk_done_write>
    41000434:	00033f83          	ld	x31,0(x6)
    41000438:	00afdf93          	srli	x31,x31,0xa
    4100043c:	00cf9313          	slli	x6,x31,0xc
    41000440:	001f0f13          	addi	x30,x30,1
    41000444:	ff7e8e93          	addi	x29,x29,-9
    41000448:	fcdff06f          	j	41000414 <syscalls__pte_walk_loop_write>

000000004100044c <syscalls__pte_walk_done_write>:
    4100044c:	fff00f93          	li	x31,-1
    41000450:	05fe0263          	beq	x28,x31,41000494 <syscalls__pte_walk_final_write>

0000000041000454 <syscalls__pte_walk_gstage_write>:
    41000454:	434d4fb7          	lui	x31,0x434d4
    41000458:	0b0f8f9b          	addiw	x31,x31,176 # 434d40b0 <pte_access_flags_pa>
    4100045c:	006fb023          	sd	x6,0(x31)
    41000460:	000e0293          	mv	x5,x28
    41000464:	fff00e13          	li	x28,-1
    41000468:	68002373          	csrr	x6,hgatp
    4100046c:	03c35e93          	srli	x29,x6,0x3c
    41000470:	01431313          	slli	x6,x6,0x14
    41000474:	01435313          	srli	x6,x6,0x14
    41000478:	00c31313          	slli	x6,x6,0xc
    4100047c:	ff8e8e93          	addi	x29,x29,-8
    41000480:	003e9f13          	slli	x30,x29,0x3
    41000484:	01df0eb3          	add	x29,x30,x29
    41000488:	01ee8e93          	addi	x29,x29,30
    4100048c:	00000f13          	li	x30,0
    41000490:	f85ff06f          	j	41000414 <syscalls__pte_walk_loop_write>

0000000041000494 <syscalls__pte_walk_final_write>:
    41000494:	00733023          	sd	x7,0(x6)
    41000498:	341022f3          	csrr	x5,mepc
    4100049c:	00428293          	addi	x5,x5,4
    410004a0:	16523c23          	sd	x5,376(x4) # 178 <XLEN+0x138>
    410004a4:	dadff06f          	j	41000250 <syscalls__os_fn_f0001004>

00000000410004a8 <syscalls__pte_walk_fail_write>:
    410004a8:	3180006f          	j	410007c0 <test_failed>

00000000410004ac <syscalls__os_get_hart_context>:
    410004ac:	14002573          	csrr	x10,sscratch
    410004b0:	341022f3          	csrr	x5,mepc
    410004b4:	00428293          	addi	x5,x5,4
    410004b8:	0040006f          	j	410004bc <syscalls__ret_from_os_fn>

00000000410004bc <syscalls__ret_from_os_fn>:
    410004bc:	34102373          	csrr	x6,mepc
    410004c0:	00430313          	addi	x6,x6,4
    410004c4:	16623c23          	sd	x6,376(x4) # 178 <XLEN+0x138>
    410004c8:	34129073          	csrw	mepc,x5
    410004cc:	fff00f93          	li	x31,-1
    410004d0:	2a40006f          	j	41000774 <trap_handler_m__skip_xepc_write>

00000000410004d4 <trap_handler_m__invalid_interrupt>:
    410004d4:	2ec0006f          	j	410007c0 <test_failed>

00000000410004d8 <trap_handler_m__clear_all_interrupts>:
    410004d8:	34401073          	csrw	mip,x0
    410004dc:	30200073          	mret

00000000410004e0 <trap_handler_m___CLEAR_SSI>:
    410004e0:	00200293          	li	x5,2
    410004e4:	3442b073          	csrc	mip,x5
    410004e8:	30200073          	mret

00000000410004ec <trap_handler_m___CLEAR_MSI>:
    410004ec:	00800293          	li	x5,8
    410004f0:	3442b073          	csrc	mip,x5
    410004f4:	30200073          	mret

00000000410004f8 <trap_handler_m___CLEAR_STI>:
    410004f8:	02000293          	li	x5,32
    410004fc:	3442b073          	csrc	mip,x5
    41000500:	30200073          	mret

0000000041000504 <trap_handler_m___CLEAR_MTI>:
    41000504:	08000293          	li	x5,128
    41000508:	3442b073          	csrc	mip,x5
    4100050c:	30200073          	mret

0000000041000510 <trap_handler_m___CLEAR_SEI>:
    41000510:	20000293          	li	x5,512
    41000514:	3442b073          	csrc	mip,x5
    41000518:	30200073          	mret

000000004100051c <trap_handler_m___CLEAR_MEI>:
    4100051c:	000012b7          	lui	x5,0x1
    41000520:	8002829b          	addiw	x5,x5,-2048 # 800 <XLEN+0x7c0>
    41000524:	3442b073          	csrc	mip,x5
    41000528:	30200073          	mret

000000004100052c <trap_handler_m___CLEAR_COI>:
    4100052c:	000022b7          	lui	x5,0x2
    41000530:	3442b073          	csrc	mip,x5
    41000534:	30200073          	mret

0000000041000538 <trap_handler_m__clear_highest_priority_interrupt>:
    41000538:	344022f3          	csrr	x5,mip
    4100053c:	40500333          	neg	x6,x5
    41000540:	0062f2b3          	and	x5,x5,x6
    41000544:	3442b073          	csrc	mip,x5
    41000548:	30200073          	mret

000000004100054c <trap_handler_m__trap_entry>:
    4100054c:	0fc0006f          	j	41000648 <trap_handler_m__trap_handler>

0000000041000550 <trap_handler_m__interrupt_vector_table>:
    41000550:	f91ff06f          	j	410004e0 <trap_handler_m___CLEAR_SSI>
    41000554:	f81ff06f          	j	410004d4 <trap_handler_m__invalid_interrupt>
    41000558:	f95ff06f          	j	410004ec <trap_handler_m___CLEAR_MSI>
    4100055c:	f79ff06f          	j	410004d4 <trap_handler_m__invalid_interrupt>
    41000560:	f99ff06f          	j	410004f8 <trap_handler_m___CLEAR_STI>
    41000564:	f71ff06f          	j	410004d4 <trap_handler_m__invalid_interrupt>
    41000568:	f9dff06f          	j	41000504 <trap_handler_m___CLEAR_MTI>
    4100056c:	f69ff06f          	j	410004d4 <trap_handler_m__invalid_interrupt>
    41000570:	fa1ff06f          	j	41000510 <trap_handler_m___CLEAR_SEI>
    41000574:	f61ff06f          	j	410004d4 <trap_handler_m__invalid_interrupt>
    41000578:	fa5ff06f          	j	4100051c <trap_handler_m___CLEAR_MEI>
    4100057c:	f59ff06f          	j	410004d4 <trap_handler_m__invalid_interrupt>
    41000580:	fadff06f          	j	4100052c <trap_handler_m___CLEAR_COI>
    41000584:	f51ff06f          	j	410004d4 <trap_handler_m__invalid_interrupt>
    41000588:	f4dff06f          	j	410004d4 <trap_handler_m__invalid_interrupt>
    4100058c:	fadff06f          	j	41000538 <trap_handler_m__clear_highest_priority_interrupt>
    41000590:	fa9ff06f          	j	41000538 <trap_handler_m__clear_highest_priority_interrupt>
    41000594:	fa5ff06f          	j	41000538 <trap_handler_m__clear_highest_priority_interrupt>
    41000598:	fa1ff06f          	j	41000538 <trap_handler_m__clear_highest_priority_interrupt>
    4100059c:	f9dff06f          	j	41000538 <trap_handler_m__clear_highest_priority_interrupt>
    410005a0:	f99ff06f          	j	41000538 <trap_handler_m__clear_highest_priority_interrupt>
    410005a4:	f95ff06f          	j	41000538 <trap_handler_m__clear_highest_priority_interrupt>
    410005a8:	f91ff06f          	j	41000538 <trap_handler_m__clear_highest_priority_interrupt>
    410005ac:	f8dff06f          	j	41000538 <trap_handler_m__clear_highest_priority_interrupt>
    410005b0:	f89ff06f          	j	41000538 <trap_handler_m__clear_highest_priority_interrupt>
    410005b4:	f85ff06f          	j	41000538 <trap_handler_m__clear_highest_priority_interrupt>
    410005b8:	f81ff06f          	j	41000538 <trap_handler_m__clear_highest_priority_interrupt>
    410005bc:	f7dff06f          	j	41000538 <trap_handler_m__clear_highest_priority_interrupt>
    410005c0:	f79ff06f          	j	41000538 <trap_handler_m__clear_highest_priority_interrupt>
    410005c4:	f75ff06f          	j	41000538 <trap_handler_m__clear_highest_priority_interrupt>
    410005c8:	f71ff06f          	j	41000538 <trap_handler_m__clear_highest_priority_interrupt>
    410005cc:	f6dff06f          	j	41000538 <trap_handler_m__clear_highest_priority_interrupt>
    410005d0:	f69ff06f          	j	41000538 <trap_handler_m__clear_highest_priority_interrupt>
    410005d4:	f65ff06f          	j	41000538 <trap_handler_m__clear_highest_priority_interrupt>
    410005d8:	f61ff06f          	j	41000538 <trap_handler_m__clear_highest_priority_interrupt>
    410005dc:	f5dff06f          	j	41000538 <trap_handler_m__clear_highest_priority_interrupt>
    410005e0:	f59ff06f          	j	41000538 <trap_handler_m__clear_highest_priority_interrupt>
    410005e4:	f55ff06f          	j	41000538 <trap_handler_m__clear_highest_priority_interrupt>
    410005e8:	f51ff06f          	j	41000538 <trap_handler_m__clear_highest_priority_interrupt>
    410005ec:	f4dff06f          	j	41000538 <trap_handler_m__clear_highest_priority_interrupt>
    410005f0:	f49ff06f          	j	41000538 <trap_handler_m__clear_highest_priority_interrupt>
    410005f4:	f45ff06f          	j	41000538 <trap_handler_m__clear_highest_priority_interrupt>
    410005f8:	f41ff06f          	j	41000538 <trap_handler_m__clear_highest_priority_interrupt>
    410005fc:	f3dff06f          	j	41000538 <trap_handler_m__clear_highest_priority_interrupt>
    41000600:	f39ff06f          	j	41000538 <trap_handler_m__clear_highest_priority_interrupt>
    41000604:	f35ff06f          	j	41000538 <trap_handler_m__clear_highest_priority_interrupt>
    41000608:	f31ff06f          	j	41000538 <trap_handler_m__clear_highest_priority_interrupt>
    4100060c:	f2dff06f          	j	41000538 <trap_handler_m__clear_highest_priority_interrupt>
    41000610:	f29ff06f          	j	41000538 <trap_handler_m__clear_highest_priority_interrupt>
    41000614:	f25ff06f          	j	41000538 <trap_handler_m__clear_highest_priority_interrupt>
    41000618:	f21ff06f          	j	41000538 <trap_handler_m__clear_highest_priority_interrupt>
    4100061c:	f1dff06f          	j	41000538 <trap_handler_m__clear_highest_priority_interrupt>
    41000620:	f19ff06f          	j	41000538 <trap_handler_m__clear_highest_priority_interrupt>
    41000624:	f15ff06f          	j	41000538 <trap_handler_m__clear_highest_priority_interrupt>
    41000628:	f11ff06f          	j	41000538 <trap_handler_m__clear_highest_priority_interrupt>
    4100062c:	f0dff06f          	j	41000538 <trap_handler_m__clear_highest_priority_interrupt>
    41000630:	f09ff06f          	j	41000538 <trap_handler_m__clear_highest_priority_interrupt>
    41000634:	f05ff06f          	j	41000538 <trap_handler_m__clear_highest_priority_interrupt>
    41000638:	f01ff06f          	j	41000538 <trap_handler_m__clear_highest_priority_interrupt>
    4100063c:	efdff06f          	j	41000538 <trap_handler_m__clear_highest_priority_interrupt>
    41000640:	ef9ff06f          	j	41000538 <trap_handler_m__clear_highest_priority_interrupt>
    41000644:	ef5ff06f          	j	41000538 <trap_handler_m__clear_highest_priority_interrupt>

0000000041000648 <trap_handler_m__trap_handler>:
    41000648:	342022f3          	csrr	x5,mcause
    4100064c:	fff0031b          	addiw	x6,x0,-1
    41000650:	03f31313          	slli	x6,x6,0x3f
    41000654:	00537333          	and	x6,x6,x5
    41000658:	02030263          	beqz	x6,4100067c <trap_handler_m__exception_path>

000000004100065c <trap_handler_m__interrupt_handler>:
    4100065c:	fff0031b          	addiw	x6,x0,-1
    41000660:	03f31313          	slli	x6,x6,0x3f
    41000664:	0062c2b3          	xor	x5,x5,x6
    41000668:	00000317          	auipc	x6,0x0
    4100066c:	ee430313          	addi	x6,x6,-284 # 4100054c <trap_handler_m__trap_entry>
    41000670:	00229293          	slli	x5,x5,0x2
    41000674:	005302b3          	add	x5,x6,x5
    41000678:	00028067          	jr	x5 # 2000 <SID_EXCEP_04_2_1_MUX_SELECT_1_stack>

000000004100067c <trap_handler_m__exception_path>:
    4100067c:	34021273          	csrrw	x4,mscratch,x4
    41000680:	00000297          	auipc	x5,0x0
    41000684:	10828293          	addi	x5,x5,264 # 41000788 <trap_handler_m__trap_panic>
    41000688:	30529073          	csrw	mtvec,x5
    4100068c:	0040006f          	j	41000690 <trap_handler_m__excp_entry>

0000000041000690 <trap_handler_m__excp_entry>:
    41000690:	34202373          	csrr	x6,mcause
    41000694:	00800293          	li	x5,8
    41000698:	00534863          	blt	x6,x5,410006a8 <trap_handler_m__check_exception_label>
    4100069c:	00b00293          	li	x5,11
    410006a0:	0062c463          	blt	x5,x6,410006a8 <trap_handler_m__check_exception_label>
    410006a4:	a31ff06f          	j	410000d4 <syscalls__syscall_check_schedule_next_test>

00000000410006a8 <trap_handler_m__check_exception_label>:
    410006a8:	04623c23          	sd	x6,88(x4) # 58 <XLEN+0x18>
    410006ac:	341022f3          	csrr	x5,mepc
    410006b0:	02523423          	sd	x5,40(x4) # 28 <SECURE_ACCESS_PROBABILITY+0xa>
    410006b4:	01820283          	lb	x5,24(x4) # 18 <STORE_GUEST_PAGE_FAULT+0x1>
    410006b8:	00029863          	bnez	x5,410006c8 <trap_handler_m__check_excp>
    410006bc:	00128293          	addi	x5,x5,1
    410006c0:	00520c23          	sb	x5,24(x4) # 18 <STORE_GUEST_PAGE_FAULT+0x1>
    410006c4:	0980006f          	j	4100075c <trap_handler_m__ecall_from_machine>

00000000410006c8 <trap_handler_m__check_excp>:
    410006c8:	06823283          	ld	x5,104(x4) # 68 <XLEN+0x28>
    410006cc:	06023423          	sd	x0,104(x4) # 68 <XLEN+0x28>
    410006d0:	00028663          	beqz	x5,410006dc <trap_handler_m__skip_mode_check>
    410006d4:	00100393          	li	x7,1
    410006d8:	0e729463          	bne	x5,x7,410007c0 <test_failed>

00000000410006dc <trap_handler_m__skip_mode_check>:
    410006dc:	05023283          	ld	x5,80(x4) # 50 <XLEN+0x10>
    410006e0:	04023823          	sd	x0,80(x4) # 50 <XLEN+0x10>
    410006e4:	0c531e63          	bne	x6,x5,410007c0 <test_failed>
    410006e8:	03823283          	ld	x5,56(x4) # 38 <SECURE_ACCESS_PROBABILITY+0x1a>
    410006ec:	02023c23          	sd	x0,56(x4) # 38 <SECURE_ACCESS_PROBABILITY+0x1a>
    410006f0:	06029463          	bnez	x5,41000758 <trap_handler_m__skip_gva_check>
    410006f4:	02023303          	ld	x6,32(x4) # 20 <SECURE_ACCESS_PROBABILITY+0x2>
    410006f8:	02023023          	sd	x0,32(x4) # 20 <SECURE_ACCESS_PROBABILITY+0x2>
    410006fc:	02823283          	ld	x5,40(x4) # 28 <SECURE_ACCESS_PROBABILITY+0xa>
    41000700:	02023423          	sd	x0,40(x4) # 28 <SECURE_ACCESS_PROBABILITY+0xa>
    41000704:	0a531e63          	bne	x6,x5,410007c0 <test_failed>
    41000708:	04023283          	ld	x5,64(x4) # 40 <XLEN>
    4100070c:	04023023          	sd	x0,64(x4) # 40 <XLEN>
    41000710:	00028663          	beqz	x5,4100071c <trap_handler_m__skip_nonzero_tval_check>

0000000041000714 <trap_handler_m__nonzero_tval_check>:
    41000714:	34302373          	csrr	x6,mtval
    41000718:	0a531463          	bne	x6,x5,410007c0 <test_failed>

000000004100071c <trap_handler_m__skip_nonzero_tval_check>:
    4100071c:	04823283          	ld	x5,72(x4) # 48 <XLEN+0x8>
    41000720:	04023423          	sd	x0,72(x4) # 48 <XLEN+0x8>
    41000724:	00028663          	beqz	x5,41000730 <trap_handler_m__skip_nonzero_htval_check>

0000000041000728 <trap_handler_m__nonzero_htval_check>:
    41000728:	34b02373          	csrr	x6,0x34b
    4100072c:	08531a63          	bne	x6,x5,410007c0 <test_failed>

0000000041000730 <trap_handler_m__skip_nonzero_htval_check>:
    41000730:	06023283          	ld	x5,96(x4) # 60 <XLEN+0x20>
    41000734:	06023023          	sd	x0,96(x4) # 60 <XLEN+0x20>
    41000738:	02028063          	beqz	x5,41000758 <trap_handler_m__skip_gva_check>

000000004100073c <trap_handler_m__gva_check>:
    4100073c:	30002373          	csrr	x6,mstatus
    41000740:	02635313          	srli	x6,x6,0x26
    41000744:	00137313          	andi	x6,x6,1
    41000748:	06030c63          	beqz	x6,410007c0 <test_failed>
    4100074c:	0010031b          	addiw	x6,x0,1
    41000750:	02631313          	slli	x6,x6,0x26
    41000754:	30033073          	csrc	mstatus,x6

0000000041000758 <trap_handler_m__skip_gva_check>:
    41000758:	0040006f          	j	4100075c <trap_handler_m__ecall_from_machine>

000000004100075c <trap_handler_m__ecall_from_machine>:
    4100075c:	03023283          	ld	x5,48(x4) # 30 <SECURE_ACCESS_PROBABILITY+0x12>
    41000760:	02023823          	sd	x0,48(x4) # 30 <SECURE_ACCESS_PROBABILITY+0x12>
    41000764:	07023303          	ld	x6,112(x4) # 70 <XLEN+0x30>
    41000768:	06023823          	sd	x0,112(x4) # 70 <XLEN+0x30>
    4100076c:	00031463          	bnez	x6,41000774 <trap_handler_m__skip_xepc_write>
    41000770:	34129073          	csrw	mepc,x5

0000000041000774 <trap_handler_m__skip_xepc_write>:
    41000774:	00000317          	auipc	x6,0x0
    41000778:	dd830313          	addi	x6,x6,-552 # 4100054c <trap_handler_m__trap_entry>
    4100077c:	30531073          	csrw	mtvec,x6
    41000780:	34021273          	csrrw	x4,mscratch,x4
    41000784:	30200073          	mret

0000000041000788 <trap_handler_m__trap_panic>:
    41000788:	00000193          	li	x3,0
    4100078c:	2b40006f          	j	41000a40 <eot__end_test>

0000000041000790 <enter_scheduler>:
    41000790:	0002f337          	lui	x6,0x2f
    41000794:	ab73031b          	addiw	x6,x6,-1353 # 2eab7 <SID_EXCEP_01_EQZ_RS1_Z_stack+0x16ab7>
    41000798:	00e31313          	slli	x6,x6,0xe
    4100079c:	0de30313          	addi	x6,x6,222
    410007a0:	02628063          	beq	x5,x6,410007c0 <test_failed>
    410007a4:	00000513          	li	x10,0
    410007a8:	030000ef          	jal	410007d8 <rvcp_print_test_result>
    410007ac:	3180006f          	j	41000ac4 <scheduler__dispatch>

00000000410007b0 <test_passed>:
    410007b0:	34021273          	csrrw	x4,mscratch,x4
    410007b4:	00000513          	li	x10,0
    410007b8:	020000ef          	jal	410007d8 <rvcp_print_test_result>
    410007bc:	3080006f          	j	41000ac4 <scheduler__dispatch>

00000000410007c0 <test_failed>:
    410007c0:	34021273          	csrrw	x4,mscratch,x4
    410007c4:	00300193          	li	x3,3
    410007c8:	2780006f          	j	41000a40 <eot__end_test>

00000000410007cc <os_end_test>:
    410007cc:	34021273          	csrrw	x4,mscratch,x4
    410007d0:	00100193          	li	x3,1
    410007d4:	26c0006f          	j	41000a40 <eot__end_test>

00000000410007d8 <rvcp_print_test_result>:
    410007d8:	00050e13          	mv	x28,x10
    410007dc:	18823283          	ld	x5,392(x4) # 188 <XLEN+0x148>
    410007e0:	0010031b          	addiw	x6,x0,1
    410007e4:	02031313          	slli	x6,x6,0x20
    410007e8:	ffe30313          	addi	x6,x6,-2
    410007ec:	1c628063          	beq	x5,x6,410009ac <rvcp_print_test_result+0x1d4>
    410007f0:	0010031b          	addiw	x6,x0,1
    410007f4:	02031313          	slli	x6,x6,0x20
    410007f8:	fff30313          	addi	x6,x6,-1
    410007fc:	1a628863          	beq	x5,x6,410009ac <rvcp_print_test_result+0x1d4>
    41000800:	1a02c663          	bltz	x5,410009ac <rvcp_print_test_result+0x1d4>
    41000804:	00000317          	auipc	x6,0x0
    41000808:	5e030313          	addi	x6,x6,1504 # 41000de4 <dtest_descriptor_table>
    4100080c:	00329393          	slli	x7,x5,0x3
    41000810:	00730333          	add	x6,x6,x7
    41000814:	00033e83          	ld	x29,0(x6)
    41000818:	434d4f37          	lui	x30,0x434d4
    4100081c:	030f0f1b          	addiw	x30,x30,48 # 434d4030 <rvcp_prefix_str_pa>
    41000820:	000f4283          	lbu	x5,0(x30)
    41000824:	02028663          	beqz	x5,41000850 <rvcp_print_test_result+0x78>
    41000828:	1010031b          	addiw	x6,x0,257
    4100082c:	03031313          	slli	x6,x6,0x30
    41000830:	005362b3          	or	x5,x6,x5
    41000834:	0003f317          	auipc	x6,0x3f
    41000838:	7cc30313          	addi	x6,x6,1996 # 41040000 <tohost>
    4100083c:	00033383          	ld	x7,0(x6)
    41000840:	fe039ee3          	bnez	x7,4100083c <rvcp_print_test_result+0x64>
    41000844:	00533023          	sd	x5,0(x6)
    41000848:	001f0f13          	addi	x30,x30,1
    4100084c:	fd5ff06f          	j	41000820 <rvcp_print_test_result+0x48>
    41000850:	434d4f37          	lui	x30,0x434d4
    41000854:	041f0f1b          	addiw	x30,x30,65 # 434d4041 <rvcp_testname_str_pa>
    41000858:	000f4283          	lbu	x5,0(x30)
    4100085c:	02028663          	beqz	x5,41000888 <rvcp_print_test_result+0xb0>
    41000860:	1010031b          	addiw	x6,x0,257
    41000864:	03031313          	slli	x6,x6,0x30
    41000868:	005362b3          	or	x5,x6,x5
    4100086c:	0003f317          	auipc	x6,0x3f
    41000870:	79430313          	addi	x6,x6,1940 # 41040000 <tohost>
    41000874:	00033383          	ld	x7,0(x6)
    41000878:	fe039ee3          	bnez	x7,41000874 <rvcp_print_test_result+0x9c>
    4100087c:	00533023          	sd	x5,0(x6)
    41000880:	001f0f13          	addi	x30,x30,1
    41000884:	fd5ff06f          	j	41000858 <rvcp_print_test_result+0x80>
    41000888:	434d4f37          	lui	x30,0x434d4
    4100088c:	05bf0f1b          	addiw	x30,x30,91 # 434d405b <rvcp_space_str_pa>
    41000890:	000f4283          	lbu	x5,0(x30)
    41000894:	02028663          	beqz	x5,410008c0 <rvcp_print_test_result+0xe8>
    41000898:	1010031b          	addiw	x6,x0,257
    4100089c:	03031313          	slli	x6,x6,0x30
    410008a0:	005362b3          	or	x5,x6,x5
    410008a4:	0003f317          	auipc	x6,0x3f
    410008a8:	75c30313          	addi	x6,x6,1884 # 41040000 <tohost>
    410008ac:	00033383          	ld	x7,0(x6)
    410008b0:	fe039ee3          	bnez	x7,410008ac <rvcp_print_test_result+0xd4>
    410008b4:	00533023          	sd	x5,0(x6)
    410008b8:	001f0f13          	addi	x30,x30,1
    410008bc:	fd5ff06f          	j	41000890 <rvcp_print_test_result+0xb8>
    410008c0:	000e8f13          	mv	x30,x29
    410008c4:	000f4283          	lbu	x5,0(x30)
    410008c8:	02028663          	beqz	x5,410008f4 <rvcp_print_test_result+0x11c>
    410008cc:	1010031b          	addiw	x6,x0,257
    410008d0:	03031313          	slli	x6,x6,0x30
    410008d4:	005362b3          	or	x5,x6,x5
    410008d8:	0003f317          	auipc	x6,0x3f
    410008dc:	72830313          	addi	x6,x6,1832 # 41040000 <tohost>
    410008e0:	00033383          	ld	x7,0(x6)
    410008e4:	fe039ee3          	bnez	x7,410008e0 <rvcp_print_test_result+0x108>
    410008e8:	00533023          	sd	x5,0(x6)
    410008ec:	001f0f13          	addi	x30,x30,1
    410008f0:	fd5ff06f          	j	410008c4 <rvcp_print_test_result+0xec>
    410008f4:	434d4f37          	lui	x30,0x434d4
    410008f8:	05bf0f1b          	addiw	x30,x30,91 # 434d405b <rvcp_space_str_pa>
    410008fc:	000f4283          	lbu	x5,0(x30)
    41000900:	02028663          	beqz	x5,4100092c <rvcp_print_test_result+0x154>
    41000904:	1010031b          	addiw	x6,x0,257
    41000908:	03031313          	slli	x6,x6,0x30
    4100090c:	005362b3          	or	x5,x6,x5
    41000910:	0003f317          	auipc	x6,0x3f
    41000914:	6f030313          	addi	x6,x6,1776 # 41040000 <tohost>
    41000918:	00033383          	ld	x7,0(x6)
    4100091c:	fe039ee3          	bnez	x7,41000918 <rvcp_print_test_result+0x140>
    41000920:	00533023          	sd	x5,0(x6)
    41000924:	001f0f13          	addi	x30,x30,1
    41000928:	fd5ff06f          	j	410008fc <rvcp_print_test_result+0x124>
    4100092c:	000e1863          	bnez	x28,4100093c <rvcp_print_test_result+0x164>
    41000930:	434d4f37          	lui	x30,0x434d4
    41000934:	04df0f1b          	addiw	x30,x30,77 # 434d404d <rvcp_passed_str_pa>
    41000938:	00c0006f          	j	41000944 <rvcp_print_test_result+0x16c>
    4100093c:	434d4f37          	lui	x30,0x434d4
    41000940:	054f0f1b          	addiw	x30,x30,84 # 434d4054 <rvcp_failed_str_pa>
    41000944:	000f4283          	lbu	x5,0(x30)
    41000948:	02028663          	beqz	x5,41000974 <rvcp_print_test_result+0x19c>
    4100094c:	1010031b          	addiw	x6,x0,257
    41000950:	03031313          	slli	x6,x6,0x30
    41000954:	005362b3          	or	x5,x6,x5
    41000958:	0003f317          	auipc	x6,0x3f
    4100095c:	6a830313          	addi	x6,x6,1704 # 41040000 <tohost>
    41000960:	00033383          	ld	x7,0(x6)
    41000964:	fe039ee3          	bnez	x7,41000960 <rvcp_print_test_result+0x188>
    41000968:	00533023          	sd	x5,0(x6)
    4100096c:	001f0f13          	addi	x30,x30,1
    41000970:	fd5ff06f          	j	41000944 <rvcp_print_test_result+0x16c>
    41000974:	434d4f37          	lui	x30,0x434d4
    41000978:	05df0f1b          	addiw	x30,x30,93 # 434d405d <rvcp_newline_str_pa>
    4100097c:	000f4283          	lbu	x5,0(x30)
    41000980:	02028663          	beqz	x5,410009ac <rvcp_print_test_result+0x1d4>
    41000984:	1010031b          	addiw	x6,x0,257
    41000988:	03031313          	slli	x6,x6,0x30
    4100098c:	005362b3          	or	x5,x6,x5
    41000990:	0003f317          	auipc	x6,0x3f
    41000994:	67030313          	addi	x6,x6,1648 # 41040000 <tohost>
    41000998:	00033383          	ld	x7,0(x6)
    4100099c:	fe039ee3          	bnez	x7,41000998 <rvcp_print_test_result+0x1c0>
    410009a0:	00533023          	sd	x5,0(x6)
    410009a4:	001f0f13          	addi	x30,x30,1
    410009a8:	fd5ff06f          	j	4100097c <rvcp_print_test_result+0x1a4>
    410009ac:	00008067          	ret

00000000410009b0 <os_rng_orig>:
    410009b0:	f14023f3          	csrr	x7,mhartid
    410009b4:	00068313          	mv	x6,x13
    410009b8:	026383b3          	mul	x7,x7,x6
    410009bc:	00058313          	mv	x6,x11
    410009c0:	00730333          	add	x6,x6,x7
    410009c4:	00033283          	ld	x5,0(x6)
    410009c8:	01529313          	slli	x6,x5,0x15
    410009cc:	0062c2b3          	xor	x5,x5,x6
    410009d0:	0232d313          	srli	x6,x5,0x23
    410009d4:	0062c2b3          	xor	x5,x5,x6
    410009d8:	00429313          	slli	x6,x5,0x4
    410009dc:	0062c2b3          	xor	x5,x5,x6
    410009e0:	00058313          	mv	x6,x11
    410009e4:	00730333          	add	x6,x6,x7
    410009e8:	00533023          	sd	x5,0(x6)
    410009ec:	00060313          	mv	x6,x12
    410009f0:	0262f2b3          	remu	x5,x5,x6
    410009f4:	00028513          	mv	x10,x5
    410009f8:	00008067          	ret
    410009fc:	02a00513          	li	x10,42
    41000a00:	001965b7          	lui	x11,0x196
    41000a04:	60d5859b          	addiw	x11,x11,1549 # 19660d <SID_EXCEP_04_NEZ_PASSING_SUB_stack+0x5860d>
    41000a08:	3c6ef637          	lui	x12,0x3c6ef
    41000a0c:	35f6061b          	addiw	x12,x12,863 # 3c6ef35f <SID_EXCEP_04_EQZ_FAILING_SUB_stack+0xe10135f>
    41000a10:	02200693          	li	x13,34
    41000a14:	02b50533          	mul	x10,x10,x11
    41000a18:	00c50533          	add	x10,x10,x12
    41000a1c:	02d56533          	rem	x10,x10,x13
    41000a20:	00b00593          	li	x11,11
    41000a24:	02b56533          	rem	x10,x10,x11
    41000a28:	00008067          	ret
    41000a2c:	0000                	.insn	2, 0x0000
	...

0000000041000a30 <tohost_mutex>:
	...

0000000041000a38 <tohost_addr_mem>:
    41000a38:	0000                	.insn	2, 0x0000
    41000a3a:	4104                	.insn	2, 0x4104
    41000a3c:	0000                	.insn	2, 0x0000
	...

0000000041000a40 <eot__end_test>:
    41000a40:	00100293          	li	x5,1
    41000a44:	00328463          	beq	x5,x3,41000a4c <eot__passed>
    41000a48:	01c0006f          	j	41000a64 <eot__failed>

0000000041000a4c <eot__passed>:
    41000a4c:	0ff0000f          	fence
    41000a50:	00000297          	auipc	x5,0x0
    41000a54:	fe82b283          	ld	x5,-24(x5) # 41000a38 <tohost_addr_mem>
    41000a58:	00100313          	li	x6,1
    41000a5c:	0062a023          	sw	x6,0(x5)
    41000a60:	0240006f          	j	41000a84 <eot__halt>

0000000041000a64 <eot__failed>:
    41000a64:	00100513          	li	x10,1
    41000a68:	d71ff0ef          	jal	410007d8 <rvcp_print_test_result>
    41000a6c:	0ff0000f          	fence
    41000a70:	00000297          	auipc	x5,0x0
    41000a74:	fc82b283          	ld	x5,-56(x5) # 41000a38 <tohost_addr_mem>
    41000a78:	00300313          	li	x6,3
    41000a7c:	0062a023          	sw	x6,0(x5)
    41000a80:	0040006f          	j	41000a84 <eot__halt>

0000000041000a84 <eot__halt>:
    41000a84:	10500073          	wfi
    41000a88:	ffdff06f          	j	41000a84 <eot__halt>

0000000041000a8c <scheduler__init>:
    41000a8c:	00000297          	auipc	x5,0x0
    41000a90:	0cc28293          	addi	x5,x5,204 # 41000b58 <scheduler__panic>
    41000a94:	305292f3          	csrrw	x5,mtvec,x5
    41000a98:	18523023          	sd	x5,384(x4) # 180 <XLEN+0x140>
    41000a9c:	04f00293          	li	x5,79
    41000aa0:	18523823          	sd	x5,400(x4) # 190 <XLEN+0x150>
    41000aa4:	0010029b          	addiw	x5,x0,1
    41000aa8:	02029293          	slli	x5,x5,0x20
    41000aac:	ffe28293          	addi	x5,x5,-2
    41000ab0:	18523423          	sd	x5,392(x4) # 188 <XLEN+0x148>
    41000ab4:	00001317          	auipc	x6,0x1
    41000ab8:	80830313          	addi	x6,x6,-2040 # 410012bc <scheduler__test_setup_ptr>
    41000abc:	00033303          	ld	x6,0(x6)
    41000ac0:	0700006f          	j	41000b30 <scheduler__execute_test>

0000000041000ac4 <scheduler__dispatch>:
    41000ac4:	00000297          	auipc	x5,0x0
    41000ac8:	09428293          	addi	x5,x5,148 # 41000b58 <scheduler__panic>
    41000acc:	305292f3          	csrrw	x5,mtvec,x5
    41000ad0:	18523023          	sd	x5,384(x4) # 180 <XLEN+0x140>

0000000041000ad4 <scheduler__csr_read_randomization>:
    41000ad4:	10a022f3          	csrr	x5,0x10a
    41000ad8:	f12022f3          	csrr	x5,marchid
    41000adc:	106022f3          	csrr	x5,scounteren
    41000ae0:	304022f3          	csrr	x5,mie
    41000ae4:	105022f3          	csrr	x5,stvec
    41000ae8:	104022f3          	csrr	x5,sie
    41000aec:	142022f3          	csrr	x5,scause
    41000af0:	104022f3          	csrr	x5,sie

0000000041000af4 <scheduler__load_num_runs>:
    41000af4:	19023303          	ld	x6,400(x4) # 190 <XLEN+0x150>
    41000af8:	04030c63          	beqz	x6,41000b50 <scheduler__finished>

0000000041000afc <scheduler__decrement_num_runs>:
    41000afc:	fff30393          	addi	x7,x6,-1
    41000b00:	18723823          	sd	x7,400(x4) # 190 <XLEN+0x150>
    41000b04:	00000e17          	auipc	x28,0x0
    41000b08:	678e0e13          	addi	x28,x28,1656 # 4100117c <dtest_index_map>
    41000b0c:	00239e93          	slli	x29,x7,0x2
    41000b10:	01de0e33          	add	x28,x28,x29
    41000b14:	000e2e03          	lw	x28,0(x28)
    41000b18:	19c23423          	sd	x28,392(x4) # 188 <XLEN+0x148>

0000000041000b1c <scheduler__calc_test_pointer>:
    41000b1c:	00339293          	slli	x5,x7,0x3

0000000041000b20 <scheduler__load_test_addr>:
    41000b20:	00000317          	auipc	x6,0x0
    41000b24:	04c30313          	addi	x6,x6,76 # 41000b6c <os_test_sequence>
    41000b28:	006282b3          	add	x5,x5,x6
    41000b2c:	0002b303          	ld	x6,0(x5)

0000000041000b30 <scheduler__execute_test>:
    41000b30:	18023283          	ld	x5,384(x4) # 180 <XLEN+0x140>
    41000b34:	30529073          	csrw	mtvec,x5
    41000b38:	34021273          	csrrw	x4,mscratch,x4
    41000b3c:	00000213          	li	x4,0
    41000b40:	14131073          	csrw	sepc,x6
    41000b44:	10000293          	li	x5,256
    41000b48:	1002b073          	csrc	sstatus,x5
    41000b4c:	10200073          	sret

0000000041000b50 <scheduler__finished>:
    41000b50:	00100193          	li	x3,1
    41000b54:	eedff06f          	j	41000a40 <eot__end_test>

0000000041000b58 <scheduler__panic>:
    41000b58:	00000193          	li	x3,0
    41000b5c:	ee5ff06f          	j	41000a40 <eot__end_test>
    41000b60:	0000                	.insn	2, 0x0000
	...

0000000041000b64 <num_runs>:
    41000b64:	0000004f          	fnmadd.s	f0,f0,f0,f0,rne
    41000b68:	0000                	.insn	2, 0x0000
	...

0000000041000b6c <os_test_sequence>:
    41000b6c:	59b0                	.insn	2, 0x59b0
    41000b6e:	4101                	.insn	2, 0x4101
    41000b70:	0000                	.insn	2, 0x0000
    41000b72:	0000                	.insn	2, 0x0000
    41000b74:	5840                	.insn	2, 0x5840
    41000b76:	4101                	.insn	2, 0x4101
    41000b78:	0000                	.insn	2, 0x0000
    41000b7a:	0000                	.insn	2, 0x0000
    41000b7c:	52c0                	.insn	2, 0x52c0
    41000b7e:	4101                	.insn	2, 0x4101
    41000b80:	0000                	.insn	2, 0x0000
    41000b82:	0000                	.insn	2, 0x0000
    41000b84:	50b0                	.insn	2, 0x50b0
    41000b86:	4101                	.insn	2, 0x4101
    41000b88:	0000                	.insn	2, 0x0000
    41000b8a:	0000                	.insn	2, 0x0000
    41000b8c:	5368                	.insn	2, 0x5368
    41000b8e:	4101                	.insn	2, 0x4101
    41000b90:	0000                	.insn	2, 0x0000
    41000b92:	0000                	.insn	2, 0x0000
    41000b94:	52c0                	.insn	2, 0x52c0
    41000b96:	4101                	.insn	2, 0x4101
    41000b98:	0000                	.insn	2, 0x0000
    41000b9a:	0000                	.insn	2, 0x0000
    41000b9c:	551c                	.insn	2, 0x551c
    41000b9e:	4101                	.insn	2, 0x4101
    41000ba0:	0000                	.insn	2, 0x0000
    41000ba2:	0000                	.insn	2, 0x0000
    41000ba4:	551c                	.insn	2, 0x551c
    41000ba6:	4101                	.insn	2, 0x4101
    41000ba8:	0000                	.insn	2, 0x0000
    41000baa:	0000                	.insn	2, 0x0000
    41000bac:	51a8                	.insn	2, 0x51a8
    41000bae:	4101                	.insn	2, 0x4101
    41000bb0:	0000                	.insn	2, 0x0000
    41000bb2:	0000                	.insn	2, 0x0000
    41000bb4:	594c                	.insn	2, 0x594c
    41000bb6:	4101                	.insn	2, 0x4101
    41000bb8:	0000                	.insn	2, 0x0000
    41000bba:	0000                	.insn	2, 0x0000
    41000bbc:	58e8                	.insn	2, 0x58e8
    41000bbe:	4101                	.insn	2, 0x4101
    41000bc0:	0000                	.insn	2, 0x0000
    41000bc2:	0000                	.insn	2, 0x0000
    41000bc4:	594c                	.insn	2, 0x594c
    41000bc6:	4101                	.insn	2, 0x4101
    41000bc8:	0000                	.insn	2, 0x0000
    41000bca:	0000                	.insn	2, 0x0000
    41000bcc:	514c                	.insn	2, 0x514c
    41000bce:	4101                	.insn	2, 0x4101
    41000bd0:	0000                	.insn	2, 0x0000
    41000bd2:	0000                	.insn	2, 0x0000
    41000bd4:	5314                	.insn	2, 0x5314
    41000bd6:	4101                	.insn	2, 0x4101
    41000bd8:	0000                	.insn	2, 0x0000
    41000bda:	0000                	.insn	2, 0x0000
    41000bdc:	53c4                	.insn	2, 0x53c4
    41000bde:	4101                	.insn	2, 0x4101
    41000be0:	0000                	.insn	2, 0x0000
    41000be2:	0000                	.insn	2, 0x0000
    41000be4:	5100                	.insn	2, 0x5100
    41000be6:	4101                	.insn	2, 0x4101
    41000be8:	0000                	.insn	2, 0x0000
    41000bea:	0000                	.insn	2, 0x0000
    41000bec:	56d0                	.insn	2, 0x56d0
    41000bee:	4101                	.insn	2, 0x4101
    41000bf0:	0000                	.insn	2, 0x0000
    41000bf2:	0000                	.insn	2, 0x0000
    41000bf4:	5840                	.insn	2, 0x5840
    41000bf6:	4101                	.insn	2, 0x4101
    41000bf8:	0000                	.insn	2, 0x0000
    41000bfa:	0000                	.insn	2, 0x0000
    41000bfc:	5268                	.insn	2, 0x5268
    41000bfe:	4101                	.insn	2, 0x4101
    41000c00:	0000                	.insn	2, 0x0000
    41000c02:	0000                	.insn	2, 0x0000
    41000c04:	51a8                	.insn	2, 0x51a8
    41000c06:	4101                	.insn	2, 0x4101
    41000c08:	0000                	.insn	2, 0x0000
    41000c0a:	0000                	.insn	2, 0x0000
    41000c0c:	5314                	.insn	2, 0x5314
    41000c0e:	4101                	.insn	2, 0x4101
    41000c10:	0000                	.insn	2, 0x0000
    41000c12:	0000                	.insn	2, 0x0000
    41000c14:	5674                	.insn	2, 0x5674
    41000c16:	4101                	.insn	2, 0x4101
    41000c18:	0000                	.insn	2, 0x0000
    41000c1a:	0000                	.insn	2, 0x0000
    41000c1c:	5420                	.insn	2, 0x5420
    41000c1e:	4101                	.insn	2, 0x4101
    41000c20:	0000                	.insn	2, 0x0000
    41000c22:	0000                	.insn	2, 0x0000
    41000c24:	5100                	.insn	2, 0x5100
    41000c26:	4101                	.insn	2, 0x4101
    41000c28:	0000                	.insn	2, 0x0000
    41000c2a:	0000                	.insn	2, 0x0000
    41000c2c:	57e4                	.insn	2, 0x57e4
    41000c2e:	4101                	.insn	2, 0x4101
    41000c30:	0000                	.insn	2, 0x0000
    41000c32:	0000                	.insn	2, 0x0000
    41000c34:	5620                	.insn	2, 0x5620
    41000c36:	4101                	.insn	2, 0x4101
    41000c38:	0000                	.insn	2, 0x0000
    41000c3a:	0000                	.insn	2, 0x0000
    41000c3c:	56d0                	.insn	2, 0x56d0
    41000c3e:	4101                	.insn	2, 0x4101
    41000c40:	0000                	.insn	2, 0x0000
    41000c42:	0000                	.insn	2, 0x0000
    41000c44:	5570                	.insn	2, 0x5570
    41000c46:	4101                	.insn	2, 0x4101
    41000c48:	0000                	.insn	2, 0x0000
    41000c4a:	0000                	.insn	2, 0x0000
    41000c4c:	572c                	.insn	2, 0x572c
    41000c4e:	4101                	.insn	2, 0x4101
    41000c50:	0000                	.insn	2, 0x0000
    41000c52:	0000                	.insn	2, 0x0000
    41000c54:	51a8                	.insn	2, 0x51a8
    41000c56:	4101                	.insn	2, 0x4101
    41000c58:	0000                	.insn	2, 0x0000
    41000c5a:	0000                	.insn	2, 0x0000
    41000c5c:	54c8                	.insn	2, 0x54c8
    41000c5e:	4101                	.insn	2, 0x4101
    41000c60:	0000                	.insn	2, 0x0000
    41000c62:	0000                	.insn	2, 0x0000
    41000c64:	5570                	.insn	2, 0x5570
    41000c66:	4101                	.insn	2, 0x4101
    41000c68:	0000                	.insn	2, 0x0000
    41000c6a:	0000                	.insn	2, 0x0000
    41000c6c:	58e8                	.insn	2, 0x58e8
    41000c6e:	4101                	.insn	2, 0x4101
    41000c70:	0000                	.insn	2, 0x0000
    41000c72:	0000                	.insn	2, 0x0000
    41000c74:	55c4                	.insn	2, 0x55c4
    41000c76:	4101                	.insn	2, 0x4101
    41000c78:	0000                	.insn	2, 0x0000
    41000c7a:	0000                	.insn	2, 0x0000
    41000c7c:	5314                	.insn	2, 0x5314
    41000c7e:	4101                	.insn	2, 0x4101
    41000c80:	0000                	.insn	2, 0x0000
    41000c82:	0000                	.insn	2, 0x0000
    41000c84:	5840                	.insn	2, 0x5840
    41000c86:	4101                	.insn	2, 0x4101
    41000c88:	0000                	.insn	2, 0x0000
    41000c8a:	0000                	.insn	2, 0x0000
    41000c8c:	5474                	.insn	2, 0x5474
    41000c8e:	4101                	.insn	2, 0x4101
    41000c90:	0000                	.insn	2, 0x0000
    41000c92:	0000                	.insn	2, 0x0000
    41000c94:	5420                	.insn	2, 0x5420
    41000c96:	4101                	.insn	2, 0x4101
    41000c98:	0000                	.insn	2, 0x0000
    41000c9a:	0000                	.insn	2, 0x0000
    41000c9c:	5894                	.insn	2, 0x5894
    41000c9e:	4101                	.insn	2, 0x4101
    41000ca0:	0000                	.insn	2, 0x0000
    41000ca2:	0000                	.insn	2, 0x0000
    41000ca4:	5674                	.insn	2, 0x5674
    41000ca6:	4101                	.insn	2, 0x4101
    41000ca8:	0000                	.insn	2, 0x0000
    41000caa:	0000                	.insn	2, 0x0000
    41000cac:	5474                	.insn	2, 0x5474
    41000cae:	4101                	.insn	2, 0x4101
    41000cb0:	0000                	.insn	2, 0x0000
    41000cb2:	0000                	.insn	2, 0x0000
    41000cb4:	55c4                	.insn	2, 0x55c4
    41000cb6:	4101                	.insn	2, 0x4101
    41000cb8:	0000                	.insn	2, 0x0000
    41000cba:	0000                	.insn	2, 0x0000
    41000cbc:	53c4                	.insn	2, 0x53c4
    41000cbe:	4101                	.insn	2, 0x4101
    41000cc0:	0000                	.insn	2, 0x0000
    41000cc2:	0000                	.insn	2, 0x0000
    41000cc4:	5208                	.insn	2, 0x5208
    41000cc6:	4101                	.insn	2, 0x4101
    41000cc8:	0000                	.insn	2, 0x0000
    41000cca:	0000                	.insn	2, 0x0000
    41000ccc:	5368                	.insn	2, 0x5368
    41000cce:	4101                	.insn	2, 0x4101
    41000cd0:	0000                	.insn	2, 0x0000
    41000cd2:	0000                	.insn	2, 0x0000
    41000cd4:	572c                	.insn	2, 0x572c
    41000cd6:	4101                	.insn	2, 0x4101
    41000cd8:	0000                	.insn	2, 0x0000
    41000cda:	0000                	.insn	2, 0x0000
    41000cdc:	5474                	.insn	2, 0x5474
    41000cde:	4101                	.insn	2, 0x4101
    41000ce0:	0000                	.insn	2, 0x0000
    41000ce2:	0000                	.insn	2, 0x0000
    41000ce4:	551c                	.insn	2, 0x551c
    41000ce6:	4101                	.insn	2, 0x4101
    41000ce8:	0000                	.insn	2, 0x0000
    41000cea:	0000                	.insn	2, 0x0000
    41000cec:	5788                	.insn	2, 0x5788
    41000cee:	4101                	.insn	2, 0x4101
    41000cf0:	0000                	.insn	2, 0x0000
    41000cf2:	0000                	.insn	2, 0x0000
    41000cf4:	5894                	.insn	2, 0x5894
    41000cf6:	4101                	.insn	2, 0x4101
    41000cf8:	0000                	.insn	2, 0x0000
    41000cfa:	0000                	.insn	2, 0x0000
    41000cfc:	50b0                	.insn	2, 0x50b0
    41000cfe:	4101                	.insn	2, 0x4101
    41000d00:	0000                	.insn	2, 0x0000
    41000d02:	0000                	.insn	2, 0x0000
    41000d04:	52c0                	.insn	2, 0x52c0
    41000d06:	4101                	.insn	2, 0x4101
    41000d08:	0000                	.insn	2, 0x0000
    41000d0a:	0000                	.insn	2, 0x0000
    41000d0c:	514c                	.insn	2, 0x514c
    41000d0e:	4101                	.insn	2, 0x4101
    41000d10:	0000                	.insn	2, 0x0000
    41000d12:	0000                	.insn	2, 0x0000
    41000d14:	54c8                	.insn	2, 0x54c8
    41000d16:	4101                	.insn	2, 0x4101
    41000d18:	0000                	.insn	2, 0x0000
    41000d1a:	0000                	.insn	2, 0x0000
    41000d1c:	5208                	.insn	2, 0x5208
    41000d1e:	4101                	.insn	2, 0x4101
    41000d20:	0000                	.insn	2, 0x0000
    41000d22:	0000                	.insn	2, 0x0000
    41000d24:	5674                	.insn	2, 0x5674
    41000d26:	4101                	.insn	2, 0x4101
    41000d28:	0000                	.insn	2, 0x0000
    41000d2a:	0000                	.insn	2, 0x0000
    41000d2c:	55c4                	.insn	2, 0x55c4
    41000d2e:	4101                	.insn	2, 0x4101
    41000d30:	0000                	.insn	2, 0x0000
    41000d32:	0000                	.insn	2, 0x0000
    41000d34:	594c                	.insn	2, 0x594c
    41000d36:	4101                	.insn	2, 0x4101
    41000d38:	0000                	.insn	2, 0x0000
    41000d3a:	0000                	.insn	2, 0x0000
    41000d3c:	53c4                	.insn	2, 0x53c4
    41000d3e:	4101                	.insn	2, 0x4101
    41000d40:	0000                	.insn	2, 0x0000
    41000d42:	0000                	.insn	2, 0x0000
    41000d44:	5570                	.insn	2, 0x5570
    41000d46:	4101                	.insn	2, 0x4101
    41000d48:	0000                	.insn	2, 0x0000
    41000d4a:	0000                	.insn	2, 0x0000
    41000d4c:	50b0                	.insn	2, 0x50b0
    41000d4e:	4101                	.insn	2, 0x4101
    41000d50:	0000                	.insn	2, 0x0000
    41000d52:	0000                	.insn	2, 0x0000
    41000d54:	57e4                	.insn	2, 0x57e4
    41000d56:	4101                	.insn	2, 0x4101
    41000d58:	0000                	.insn	2, 0x0000
    41000d5a:	0000                	.insn	2, 0x0000
    41000d5c:	5894                	.insn	2, 0x5894
    41000d5e:	4101                	.insn	2, 0x4101
    41000d60:	0000                	.insn	2, 0x0000
    41000d62:	0000                	.insn	2, 0x0000
    41000d64:	54c8                	.insn	2, 0x54c8
    41000d66:	4101                	.insn	2, 0x4101
    41000d68:	0000                	.insn	2, 0x0000
    41000d6a:	0000                	.insn	2, 0x0000
    41000d6c:	56d0                	.insn	2, 0x56d0
    41000d6e:	4101                	.insn	2, 0x4101
    41000d70:	0000                	.insn	2, 0x0000
    41000d72:	0000                	.insn	2, 0x0000
    41000d74:	5620                	.insn	2, 0x5620
    41000d76:	4101                	.insn	2, 0x4101
    41000d78:	0000                	.insn	2, 0x0000
    41000d7a:	0000                	.insn	2, 0x0000
    41000d7c:	5100                	.insn	2, 0x5100
    41000d7e:	4101                	.insn	2, 0x4101
    41000d80:	0000                	.insn	2, 0x0000
    41000d82:	0000                	.insn	2, 0x0000
    41000d84:	5788                	.insn	2, 0x5788
    41000d86:	4101                	.insn	2, 0x4101
    41000d88:	0000                	.insn	2, 0x0000
    41000d8a:	0000                	.insn	2, 0x0000
    41000d8c:	5208                	.insn	2, 0x5208
    41000d8e:	4101                	.insn	2, 0x4101
    41000d90:	0000                	.insn	2, 0x0000
    41000d92:	0000                	.insn	2, 0x0000
    41000d94:	5368                	.insn	2, 0x5368
    41000d96:	4101                	.insn	2, 0x4101
    41000d98:	0000                	.insn	2, 0x0000
    41000d9a:	0000                	.insn	2, 0x0000
    41000d9c:	5620                	.insn	2, 0x5620
    41000d9e:	4101                	.insn	2, 0x4101
    41000da0:	0000                	.insn	2, 0x0000
    41000da2:	0000                	.insn	2, 0x0000
    41000da4:	5788                	.insn	2, 0x5788
    41000da6:	4101                	.insn	2, 0x4101
    41000da8:	0000                	.insn	2, 0x0000
    41000daa:	0000                	.insn	2, 0x0000
    41000dac:	572c                	.insn	2, 0x572c
    41000dae:	4101                	.insn	2, 0x4101
    41000db0:	0000                	.insn	2, 0x0000
    41000db2:	0000                	.insn	2, 0x0000
    41000db4:	57e4                	.insn	2, 0x57e4
    41000db6:	4101                	.insn	2, 0x4101
    41000db8:	0000                	.insn	2, 0x0000
    41000dba:	0000                	.insn	2, 0x0000
    41000dbc:	5268                	.insn	2, 0x5268
    41000dbe:	4101                	.insn	2, 0x4101
    41000dc0:	0000                	.insn	2, 0x0000
    41000dc2:	0000                	.insn	2, 0x0000
    41000dc4:	5420                	.insn	2, 0x5420
    41000dc6:	4101                	.insn	2, 0x4101
    41000dc8:	0000                	.insn	2, 0x0000
    41000dca:	0000                	.insn	2, 0x0000
    41000dcc:	514c                	.insn	2, 0x514c
    41000dce:	4101                	.insn	2, 0x4101
    41000dd0:	0000                	.insn	2, 0x0000
    41000dd2:	0000                	.insn	2, 0x0000
    41000dd4:	58e8                	.insn	2, 0x58e8
    41000dd6:	4101                	.insn	2, 0x4101
    41000dd8:	0000                	.insn	2, 0x0000
    41000dda:	0000                	.insn	2, 0x0000
    41000ddc:	5268                	.insn	2, 0x5268
    41000dde:	4101                	.insn	2, 0x4101
    41000de0:	0000                	.insn	2, 0x0000
	...

0000000041000de4 <dtest_descriptor_table>:
    41000de4:	0eb4                	.insn	2, 0x0eb4
    41000de6:	4100                	.insn	2, 0x4100
    41000de8:	0000                	.insn	2, 0x0000
    41000dea:	0000                	.insn	2, 0x0000
    41000dec:	0ecc                	.insn	2, 0x0ecc
    41000dee:	4100                	.insn	2, 0x4100
    41000df0:	0000                	.insn	2, 0x0000
    41000df2:	0000                	.insn	2, 0x0000
    41000df4:	41000ee3          	beq	x0,x16,41001a10 <scheduler__test_cleanup_ptr+0x74c>
    41000df8:	0000                	.insn	2, 0x0000
    41000dfa:	0000                	.insn	2, 0x0000
    41000dfc:	41000efb          	.insn	4, 0x41000efb
    41000e00:	0000                	.insn	2, 0x0000
    41000e02:	0000                	.insn	2, 0x0000
    41000e04:	0f12                	.insn	2, 0x0f12
    41000e06:	4100                	.insn	2, 0x4100
    41000e08:	0000                	.insn	2, 0x0000
    41000e0a:	0000                	.insn	2, 0x0000
    41000e0c:	0f2a                	.insn	2, 0x0f2a
    41000e0e:	4100                	.insn	2, 0x4100
    41000e10:	0000                	.insn	2, 0x0000
    41000e12:	0000                	.insn	2, 0x0000
    41000e14:	0f41                	.insn	2, 0x0f41
    41000e16:	4100                	.insn	2, 0x4100
    41000e18:	0000                	.insn	2, 0x0000
    41000e1a:	0000                	.insn	2, 0x0000
    41000e1c:	0f58                	.insn	2, 0x0f58
    41000e1e:	4100                	.insn	2, 0x4100
    41000e20:	0000                	.insn	2, 0x0000
    41000e22:	0000                	.insn	2, 0x0000
    41000e24:	0f70                	.insn	2, 0x0f70
    41000e26:	4100                	.insn	2, 0x4100
    41000e28:	0000                	.insn	2, 0x0000
    41000e2a:	0000                	.insn	2, 0x0000
    41000e2c:	0f8d                	.insn	2, 0x0f8d
    41000e2e:	4100                	.insn	2, 0x4100
    41000e30:	0000                	.insn	2, 0x0000
    41000e32:	0000                	.insn	2, 0x0000
    41000e34:	0faa                	.insn	2, 0x0faa
    41000e36:	4100                	.insn	2, 0x4100
    41000e38:	0000                	.insn	2, 0x0000
    41000e3a:	0000                	.insn	2, 0x0000
    41000e3c:	41000fc7          	fmsub.s	f31,f0,f16,f8,rne
    41000e40:	0000                	.insn	2, 0x0000
    41000e42:	0000                	.insn	2, 0x0000
    41000e44:	0fe4                	.insn	2, 0x0fe4
    41000e46:	4100                	.insn	2, 0x4100
    41000e48:	0000                	.insn	2, 0x0000
    41000e4a:	0000                	.insn	2, 0x0000
    41000e4c:	1001                	.insn	2, 0x1001
    41000e4e:	4100                	.insn	2, 0x4100
    41000e50:	0000                	.insn	2, 0x0000
    41000e52:	0000                	.insn	2, 0x0000
    41000e54:	101e                	.insn	2, 0x101e
    41000e56:	4100                	.insn	2, 0x4100
    41000e58:	0000                	.insn	2, 0x0000
    41000e5a:	0000                	.insn	2, 0x0000
    41000e5c:	4100103b          	.insn	4, 0x4100103b
    41000e60:	0000                	.insn	2, 0x0000
    41000e62:	0000                	.insn	2, 0x0000
    41000e64:	1058                	.insn	2, 0x1058
    41000e66:	4100                	.insn	2, 0x4100
    41000e68:	0000                	.insn	2, 0x0000
    41000e6a:	0000                	.insn	2, 0x0000
    41000e6c:	1075                	.insn	2, 0x1075
    41000e6e:	4100                	.insn	2, 0x4100
    41000e70:	0000                	.insn	2, 0x0000
    41000e72:	0000                	.insn	2, 0x0000
    41000e74:	1092                	.insn	2, 0x1092
    41000e76:	4100                	.insn	2, 0x4100
    41000e78:	0000                	.insn	2, 0x0000
    41000e7a:	0000                	.insn	2, 0x0000
    41000e7c:	410010af          	.insn	4, 0x410010af
    41000e80:	0000                	.insn	2, 0x0000
    41000e82:	0000                	.insn	2, 0x0000
    41000e84:	10cc                	.insn	2, 0x10cc
    41000e86:	4100                	.insn	2, 0x4100
    41000e88:	0000                	.insn	2, 0x0000
    41000e8a:	0000                	.insn	2, 0x0000
    41000e8c:	10e9                	.insn	2, 0x10e9
    41000e8e:	4100                	.insn	2, 0x4100
    41000e90:	0000                	.insn	2, 0x0000
    41000e92:	0000                	.insn	2, 0x0000
    41000e94:	1106                	.insn	2, 0x1106
    41000e96:	4100                	.insn	2, 0x4100
    41000e98:	0000                	.insn	2, 0x0000
    41000e9a:	0000                	.insn	2, 0x0000
    41000e9c:	41001123          	sh	x16,1026(x0) # 402 <XLEN+0x3c2>
    41000ea0:	0000                	.insn	2, 0x0000
    41000ea2:	0000                	.insn	2, 0x0000
    41000ea4:	1140                	.insn	2, 0x1140
    41000ea6:	4100                	.insn	2, 0x4100
    41000ea8:	0000                	.insn	2, 0x0000
    41000eaa:	0000                	.insn	2, 0x0000
    41000eac:	115e                	.insn	2, 0x115e
    41000eae:	4100                	.insn	2, 0x4100
    41000eb0:	0000                	.insn	2, 0x0000
	...

0000000041000eb4 <dtest_name_0>:
    41000eb4:	5f444953          	.insn	4, 0x5f444953
    41000eb8:	5845                	.insn	2, 0x5845
    41000eba:	5f504543          	.insn	4, 0x5f504543
    41000ebe:	3130                	.insn	2, 0x3130
    41000ec0:	455f 5a51 525f      	.insn	6, 0x525f5a51455f
    41000ec6:	4e5f3153          	.insn	4, 0x4e5f3153
    41000eca:	005a                	.insn	2, 0x005a

0000000041000ecc <dtest_name_1>:
    41000ecc:	5f444953          	.insn	4, 0x5f444953
    41000ed0:	5845                	.insn	2, 0x5845
    41000ed2:	5f504543          	.insn	4, 0x5f504543
    41000ed6:	3130                	.insn	2, 0x3130
    41000ed8:	455f 5a51 525f      	.insn	6, 0x525f5a51455f
    41000ede:	5a5f3153          	.insn	4, 0x5a5f3153
	...

0000000041000ee3 <dtest_name_2>:
    41000ee3:	5f444953          	.insn	4, 0x5f444953
    41000ee7:	5845                	.insn	2, 0x5845
    41000ee9:	5f504543          	.insn	4, 0x5f504543
    41000eed:	3130                	.insn	2, 0x3130
    41000eef:	4e5f 5a45 525f      	.insn	6, 0x525f5a454e5f
    41000ef5:	4e5f3153          	.insn	4, 0x4e5f3153
    41000ef9:	005a                	.insn	2, 0x005a

0000000041000efb <dtest_name_3>:
    41000efb:	5f444953          	.insn	4, 0x5f444953
    41000eff:	5845                	.insn	2, 0x5845
    41000f01:	5f504543          	.insn	4, 0x5f504543
    41000f05:	3130                	.insn	2, 0x3130
    41000f07:	4e5f 5a45 525f      	.insn	6, 0x525f5a454e5f
    41000f0d:	5a5f3153          	.insn	4, 0x5a5f3153
	...

0000000041000f12 <dtest_name_4>:
    41000f12:	5f444953          	.insn	4, 0x5f444953
    41000f16:	5845                	.insn	2, 0x5845
    41000f18:	5f504543          	.insn	4, 0x5f504543
    41000f1c:	3230                	.insn	2, 0x3230
    41000f1e:	455f 5a51 525f      	.insn	6, 0x525f5a51455f
    41000f24:	4e5f3153          	.insn	4, 0x4e5f3153
    41000f28:	005a                	.insn	2, 0x005a

0000000041000f2a <dtest_name_5>:
    41000f2a:	5f444953          	.insn	4, 0x5f444953
    41000f2e:	5845                	.insn	2, 0x5845
    41000f30:	5f504543          	.insn	4, 0x5f504543
    41000f34:	3230                	.insn	2, 0x3230
    41000f36:	455f 5a51 525f      	.insn	6, 0x525f5a51455f
    41000f3c:	5a5f3153          	.insn	4, 0x5a5f3153
	...

0000000041000f41 <dtest_name_6>:
    41000f41:	5f444953          	.insn	4, 0x5f444953
    41000f45:	5845                	.insn	2, 0x5845
    41000f47:	5f504543          	.insn	4, 0x5f504543
    41000f4b:	3230                	.insn	2, 0x3230
    41000f4d:	4e5f 5a45 525f      	.insn	6, 0x525f5a454e5f
    41000f53:	5a5f3153          	.insn	4, 0x5a5f3153
	...

0000000041000f58 <dtest_name_7>:
    41000f58:	5f444953          	.insn	4, 0x5f444953
    41000f5c:	5845                	.insn	2, 0x5845
    41000f5e:	5f504543          	.insn	4, 0x5f504543
    41000f62:	3230                	.insn	2, 0x3230
    41000f64:	4e5f 5a45 525f      	.insn	6, 0x525f5a454e5f
    41000f6a:	4e5f3153          	.insn	4, 0x4e5f3153
    41000f6e:	005a                	.insn	2, 0x005a

0000000041000f70 <dtest_name_8>:
    41000f70:	5f444953          	.insn	4, 0x5f444953
    41000f74:	5845                	.insn	2, 0x5845
    41000f76:	5f504543          	.insn	4, 0x5f504543
    41000f7a:	3430                	.insn	2, 0x3430
    41000f7c:	455f 5a51 505f      	.insn	6, 0x505f5a51455f
    41000f82:	5341                	.insn	2, 0x5341
    41000f84:	474e4953          	.insn	4, 0x474e4953
    41000f88:	415f 4444       	.insn	6, 0x53004444415f

0000000041000f8d <dtest_name_9>:
    41000f8d:	5f444953          	.insn	4, 0x5f444953
    41000f91:	5845                	.insn	2, 0x5845
    41000f93:	5f504543          	.insn	4, 0x5f504543
    41000f97:	3430                	.insn	2, 0x3430
    41000f99:	455f 5a51 465f      	.insn	6, 0x465f5a51455f
    41000f9f:	4941                	.insn	2, 0x4941
    41000fa1:	494c                	.insn	2, 0x494c
    41000fa3:	474e                	.insn	2, 0x474e
    41000fa5:	415f 4444       	.insn	6, 0x53004444415f

0000000041000faa <dtest_name_10>:
    41000faa:	5f444953          	.insn	4, 0x5f444953
    41000fae:	5845                	.insn	2, 0x5845
    41000fb0:	5f504543          	.insn	4, 0x5f504543
    41000fb4:	3430                	.insn	2, 0x3430
    41000fb6:	4e5f 5a45 505f      	.insn	6, 0x505f5a454e5f
    41000fbc:	5341                	.insn	2, 0x5341
    41000fbe:	474e4953          	.insn	4, 0x474e4953
    41000fc2:	535f 4255       	.insn	6, 0x53004255535f

0000000041000fc7 <dtest_name_11>:
    41000fc7:	5f444953          	.insn	4, 0x5f444953
    41000fcb:	5845                	.insn	2, 0x5845
    41000fcd:	5f504543          	.insn	4, 0x5f504543
    41000fd1:	3430                	.insn	2, 0x3430
    41000fd3:	4e5f 5a45 465f      	.insn	6, 0x465f5a454e5f
    41000fd9:	4941                	.insn	2, 0x4941
    41000fdb:	494c                	.insn	2, 0x494c
    41000fdd:	474e                	.insn	2, 0x474e
    41000fdf:	535f 4255       	.insn	6, 0x53004255535f

0000000041000fe4 <dtest_name_12>:
    41000fe4:	5f444953          	.insn	4, 0x5f444953
    41000fe8:	5845                	.insn	2, 0x5845
    41000fea:	5f504543          	.insn	4, 0x5f504543
    41000fee:	3430                	.insn	2, 0x3430
    41000ff0:	455f 5a51 505f      	.insn	6, 0x505f5a51455f
    41000ff6:	5341                	.insn	2, 0x5341
    41000ff8:	474e4953          	.insn	4, 0x474e4953
    41000ffc:	535f 4255       	.insn	6, 0x53004255535f

0000000041001001 <dtest_name_13>:
    41001001:	5f444953          	.insn	4, 0x5f444953
    41001005:	5845                	.insn	2, 0x5845
    41001007:	5f504543          	.insn	4, 0x5f504543
    4100100b:	3430                	.insn	2, 0x3430
    4100100d:	455f 5a51 465f      	.insn	6, 0x465f5a51455f
    41001013:	4941                	.insn	2, 0x4941
    41001015:	494c                	.insn	2, 0x494c
    41001017:	474e                	.insn	2, 0x474e
    41001019:	535f 4255       	.insn	6, 0x53004255535f

000000004100101e <dtest_name_14>:
    4100101e:	5f444953          	.insn	4, 0x5f444953
    41001022:	5845                	.insn	2, 0x5845
    41001024:	5f504543          	.insn	4, 0x5f504543
    41001028:	3430                	.insn	2, 0x3430
    4100102a:	4e5f 5a45 505f      	.insn	6, 0x505f5a454e5f
    41001030:	5341                	.insn	2, 0x5341
    41001032:	474e4953          	.insn	4, 0x474e4953
    41001036:	415f 4444       	.insn	6, 0x53004444415f

000000004100103b <dtest_name_15>:
    4100103b:	5f444953          	.insn	4, 0x5f444953
    4100103f:	5845                	.insn	2, 0x5845
    41001041:	5f504543          	.insn	4, 0x5f504543
    41001045:	3430                	.insn	2, 0x3430
    41001047:	4e5f 5a45 465f      	.insn	6, 0x465f5a454e5f
    4100104d:	4941                	.insn	2, 0x4941
    4100104f:	494c                	.insn	2, 0x494c
    41001051:	474e                	.insn	2, 0x474e
    41001053:	415f 4444       	.insn	6, 0x53004444415f

0000000041001058 <dtest_name_16>:
    41001058:	5f444953          	.insn	4, 0x5f444953
    4100105c:	5845                	.insn	2, 0x5845
    4100105e:	5f504543          	.insn	4, 0x5f504543
    41001062:	3430                	.insn	2, 0x3430
    41001064:	455f 5a51 505f      	.insn	6, 0x505f5a51455f
    4100106a:	5341                	.insn	2, 0x5341
    4100106c:	474e4953          	.insn	4, 0x474e4953
    41001070:	415f 444e       	.insn	6, 0x5300444e415f

0000000041001075 <dtest_name_17>:
    41001075:	5f444953          	.insn	4, 0x5f444953
    41001079:	5845                	.insn	2, 0x5845
    4100107b:	5f504543          	.insn	4, 0x5f504543
    4100107f:	3430                	.insn	2, 0x3430
    41001081:	455f 5a51 465f      	.insn	6, 0x465f5a51455f
    41001087:	4941                	.insn	2, 0x4941
    41001089:	494c                	.insn	2, 0x494c
    4100108b:	474e                	.insn	2, 0x474e
    4100108d:	415f 444e       	.insn	6, 0x5300444e415f

0000000041001092 <dtest_name_18>:
    41001092:	5f444953          	.insn	4, 0x5f444953
    41001096:	5845                	.insn	2, 0x5845
    41001098:	5f504543          	.insn	4, 0x5f504543
    4100109c:	3430                	.insn	2, 0x3430
    4100109e:	455f 5a51 505f      	.insn	6, 0x505f5a51455f
    410010a4:	5341                	.insn	2, 0x5341
    410010a6:	474e4953          	.insn	4, 0x474e4953
    410010aa:	585f 524f       	.insn	6, 0x5300524f585f

00000000410010af <dtest_name_19>:
    410010af:	5f444953          	.insn	4, 0x5f444953
    410010b3:	5845                	.insn	2, 0x5845
    410010b5:	5f504543          	.insn	4, 0x5f504543
    410010b9:	3430                	.insn	2, 0x3430
    410010bb:	455f 5a51 465f      	.insn	6, 0x465f5a51455f
    410010c1:	4941                	.insn	2, 0x4941
    410010c3:	494c                	.insn	2, 0x494c
    410010c5:	474e                	.insn	2, 0x474e
    410010c7:	585f 524f       	.insn	6, 0x5300524f585f

00000000410010cc <dtest_name_20>:
    410010cc:	5f444953          	.insn	4, 0x5f444953
    410010d0:	5845                	.insn	2, 0x5845
    410010d2:	5f504543          	.insn	4, 0x5f504543
    410010d6:	3430                	.insn	2, 0x3430
    410010d8:	4e5f 5a45 505f      	.insn	6, 0x505f5a454e5f
    410010de:	5341                	.insn	2, 0x5341
    410010e0:	474e4953          	.insn	4, 0x474e4953
    410010e4:	415f 444e       	.insn	6, 0x5300444e415f

00000000410010e9 <dtest_name_21>:
    410010e9:	5f444953          	.insn	4, 0x5f444953
    410010ed:	5845                	.insn	2, 0x5845
    410010ef:	5f504543          	.insn	4, 0x5f504543
    410010f3:	3430                	.insn	2, 0x3430
    410010f5:	4e5f 5a45 465f      	.insn	6, 0x465f5a454e5f
    410010fb:	4941                	.insn	2, 0x4941
    410010fd:	494c                	.insn	2, 0x494c
    410010ff:	474e                	.insn	2, 0x474e
    41001101:	415f 444e       	.insn	6, 0x5300444e415f

0000000041001106 <dtest_name_22>:
    41001106:	5f444953          	.insn	4, 0x5f444953
    4100110a:	5845                	.insn	2, 0x5845
    4100110c:	5f504543          	.insn	4, 0x5f504543
    41001110:	3430                	.insn	2, 0x3430
    41001112:	4e5f 5a45 505f      	.insn	6, 0x505f5a454e5f
    41001118:	5341                	.insn	2, 0x5341
    4100111a:	474e4953          	.insn	4, 0x474e4953
    4100111e:	585f 524f       	.insn	6, 0x5300524f585f

0000000041001123 <dtest_name_23>:
    41001123:	5f444953          	.insn	4, 0x5f444953
    41001127:	5845                	.insn	2, 0x5845
    41001129:	5f504543          	.insn	4, 0x5f504543
    4100112d:	3430                	.insn	2, 0x3430
    4100112f:	4e5f 5a45 465f      	.insn	6, 0x465f5a454e5f
    41001135:	4941                	.insn	2, 0x4941
    41001137:	494c                	.insn	2, 0x494c
    41001139:	474e                	.insn	2, 0x474e
    4100113b:	585f 524f       	.insn	6, 0x5300524f585f

0000000041001140 <dtest_name_24>:
    41001140:	5f444953          	.insn	4, 0x5f444953
    41001144:	5845                	.insn	2, 0x5845
    41001146:	5f504543          	.insn	4, 0x5f504543
    4100114a:	3430                	.insn	2, 0x3430
    4100114c:	325f 315f 4d5f      	.insn	6, 0x4d5f315f325f
    41001152:	5855                	.insn	2, 0x5855
    41001154:	535f 4c45 4345      	.insn	6, 0x43454c45535f
    4100115a:	5f54                	.insn	2, 0x5f54
    4100115c:	0030                	.insn	2, 0x0030

000000004100115e <dtest_name_25>:
    4100115e:	5f444953          	.insn	4, 0x5f444953
    41001162:	5845                	.insn	2, 0x5845
    41001164:	5f504543          	.insn	4, 0x5f504543
    41001168:	3430                	.insn	2, 0x3430
    4100116a:	325f 315f 4d5f      	.insn	6, 0x4d5f315f325f
    41001170:	5855                	.insn	2, 0x5855
    41001172:	535f 4c45 4345      	.insn	6, 0x43454c45535f
    41001178:	5f54                	.insn	2, 0x5f54
    4100117a:	0031                	.insn	2, 0x0031

000000004100117c <dtest_index_map>:
    4100117c:	ffff                	.insn	2, 0xffff
    4100117e:	ffff                	.insn	2, 0xffff
    41001180:	0016                	.insn	2, 0x0016
    41001182:	0000                	.insn	2, 0x0000
    41001184:	0006                	.insn	2, 0x0006
    41001186:	0000                	.insn	2, 0x0000
    41001188:	0000                	.insn	2, 0x0000
    4100118a:	0000                	.insn	2, 0x0000
    4100118c:	0008                	.insn	2, 0x0008
    4100118e:	0000                	.insn	2, 0x0000
    41001190:	0006                	.insn	2, 0x0006
    41001192:	0000                	.insn	2, 0x0000
    41001194:	000d                	.insn	2, 0x000d
    41001196:	0000                	.insn	2, 0x0000
    41001198:	000d                	.insn	2, 0x000d
    4100119a:	0000                	.insn	2, 0x0000
    4100119c:	00000003          	lb	x0,0(x0) # 0 <ALL_4KB_PAGES>
    410011a0:	0019                	.insn	2, 0x0019
    410011a2:	0000                	.insn	2, 0x0000
    410011a4:	0018                	.insn	2, 0x0018
    410011a6:	0000                	.insn	2, 0x0000
    410011a8:	0019                	.insn	2, 0x0019
    410011aa:	0000                	.insn	2, 0x0000
    410011ac:	0002                	.insn	2, 0x0002
    410011ae:	0000                	.insn	2, 0x0000
    410011b0:	00000007          	vle8.v	v0,(x0),v0.t
    410011b4:	0009                	.insn	2, 0x0009
    410011b6:	0000                	.insn	2, 0x0000
    410011b8:	0001                	.insn	2, 0x0001
    410011ba:	0000                	.insn	2, 0x0000
    410011bc:	0012                	.insn	2, 0x0012
    410011be:	0000                	.insn	2, 0x0000
    410011c0:	0016                	.insn	2, 0x0016
    410011c2:	0000                	.insn	2, 0x0000
    410011c4:	0005                	.insn	2, 0x0005
    410011c6:	0000                	.insn	2, 0x0000
    410011c8:	00000003          	lb	x0,0(x0) # 0 <ALL_4KB_PAGES>
    410011cc:	00000007          	vle8.v	v0,(x0),v0.t
    410011d0:	0011                	.insn	2, 0x0011
    410011d2:	0000                	.insn	2, 0x0000
    410011d4:	000a                	.insn	2, 0x000a
    410011d6:	0000                	.insn	2, 0x0000
    410011d8:	0001                	.insn	2, 0x0001
    410011da:	0000                	.insn	2, 0x0000
    410011dc:	0015                	.insn	2, 0x0015
    410011de:	0000                	.insn	2, 0x0000
    410011e0:	0010                	.insn	2, 0x0010
    410011e2:	0000                	.insn	2, 0x0000
    410011e4:	0012                	.insn	2, 0x0012
    410011e6:	0000                	.insn	2, 0x0000
    410011e8:	000e                	.insn	2, 0x000e
    410011ea:	0000                	.insn	2, 0x0000
    410011ec:	00000013          	nop
    410011f0:	00000003          	lb	x0,0(x0) # 0 <ALL_4KB_PAGES>
    410011f4:	000c                	.insn	2, 0x000c
    410011f6:	0000                	.insn	2, 0x0000
    410011f8:	000e                	.insn	2, 0x000e
    410011fa:	0000                	.insn	2, 0x0000
    410011fc:	0018                	.insn	2, 0x0018
    410011fe:	0000                	.insn	2, 0x0000
    41001200:	0000000f          	fence	unknown,unknown
    41001204:	00000007          	vle8.v	v0,(x0),v0.t
    41001208:	0016                	.insn	2, 0x0016
    4100120a:	0000                	.insn	2, 0x0000
    4100120c:	0000000b          	.insn	4, 0x000b
    41001210:	000a                	.insn	2, 0x000a
    41001212:	0000                	.insn	2, 0x0000
    41001214:	00000017          	auipc	x0,0x0
    41001218:	0011                	.insn	2, 0x0011
    4100121a:	0000                	.insn	2, 0x0000
    4100121c:	0000000b          	.insn	4, 0x000b
    41001220:	0000000f          	fence	unknown,unknown
    41001224:	0009                	.insn	2, 0x0009
    41001226:	0000                	.insn	2, 0x0000
    41001228:	0004                	.insn	2, 0x0004
    4100122a:	0000                	.insn	2, 0x0000
    4100122c:	0008                	.insn	2, 0x0008
    4100122e:	0000                	.insn	2, 0x0000
    41001230:	00000013          	nop
    41001234:	0000000b          	.insn	4, 0x000b
    41001238:	000d                	.insn	2, 0x000d
    4100123a:	0000                	.insn	2, 0x0000
    4100123c:	0014                	.insn	2, 0x0014
    4100123e:	0000                	.insn	2, 0x0000
    41001240:	00000017          	auipc	x0,0x0
    41001244:	0000                	.insn	2, 0x0000
    41001246:	0000                	.insn	2, 0x0000
    41001248:	0006                	.insn	2, 0x0006
    4100124a:	0000                	.insn	2, 0x0000
    4100124c:	0002                	.insn	2, 0x0002
    4100124e:	0000                	.insn	2, 0x0000
    41001250:	000c                	.insn	2, 0x000c
    41001252:	0000                	.insn	2, 0x0000
    41001254:	0004                	.insn	2, 0x0004
    41001256:	0000                	.insn	2, 0x0000
    41001258:	0011                	.insn	2, 0x0011
    4100125a:	0000                	.insn	2, 0x0000
    4100125c:	0000000f          	fence	unknown,unknown
    41001260:	0019                	.insn	2, 0x0019
    41001262:	0000                	.insn	2, 0x0000
    41001264:	0009                	.insn	2, 0x0009
    41001266:	0000                	.insn	2, 0x0000
    41001268:	000e                	.insn	2, 0x000e
    4100126a:	0000                	.insn	2, 0x0000
    4100126c:	0000                	.insn	2, 0x0000
    4100126e:	0000                	.insn	2, 0x0000
    41001270:	0015                	.insn	2, 0x0015
    41001272:	0000                	.insn	2, 0x0000
    41001274:	00000017          	auipc	x0,0x0
    41001278:	000c                	.insn	2, 0x000c
    4100127a:	0000                	.insn	2, 0x0000
    4100127c:	0012                	.insn	2, 0x0012
    4100127e:	0000                	.insn	2, 0x0000
    41001280:	0010                	.insn	2, 0x0010
    41001282:	0000                	.insn	2, 0x0000
    41001284:	0001                	.insn	2, 0x0001
    41001286:	0000                	.insn	2, 0x0000
    41001288:	0014                	.insn	2, 0x0014
    4100128a:	0000                	.insn	2, 0x0000
    4100128c:	0004                	.insn	2, 0x0004
    4100128e:	0000                	.insn	2, 0x0000
    41001290:	0008                	.insn	2, 0x0008
    41001292:	0000                	.insn	2, 0x0000
    41001294:	0010                	.insn	2, 0x0010
    41001296:	0000                	.insn	2, 0x0000
    41001298:	0014                	.insn	2, 0x0014
    4100129a:	0000                	.insn	2, 0x0000
    4100129c:	00000013          	nop
    410012a0:	0015                	.insn	2, 0x0015
    410012a2:	0000                	.insn	2, 0x0000
    410012a4:	0005                	.insn	2, 0x0005
    410012a6:	0000                	.insn	2, 0x0000
    410012a8:	000a                	.insn	2, 0x000a
    410012aa:	0000                	.insn	2, 0x0000
    410012ac:	0002                	.insn	2, 0x0002
    410012ae:	0000                	.insn	2, 0x0000
    410012b0:	0018                	.insn	2, 0x0018
    410012b2:	0000                	.insn	2, 0x0000
    410012b4:	0005                	.insn	2, 0x0005
    410012b6:	0000                	.insn	2, 0x0000
    410012b8:	0000                	.insn	2, 0x0000
	...

00000000410012bc <scheduler__test_setup_ptr>:
    410012bc:	50a0                	.insn	2, 0x50a0
    410012be:	4101                	.insn	2, 0x4101
    410012c0:	0000                	.insn	2, 0x0000
	...

00000000410012c4 <scheduler__test_cleanup_ptr>:
    410012c4:	59b0                	.insn	2, 0x59b0
    410012c6:	4101                	.insn	2, 0x4101
    410012c8:	0000                	.insn	2, 0x0000
	...

Disassembly of section .runtime_s:

0000000041011000 <trap_handler_s__invalid_interrupt>:
    41011000:	1740006f          	j	41011174 <trap_handler_s__test_failed>

0000000041011004 <trap_handler_s__clear_all_interrupts>:
    41011004:	14401073          	csrw	sip,x0
    41011008:	10200073          	sret

000000004101100c <trap_handler_s___CLEAR_SSI>:
    4101100c:	00200293          	li	x5,2
    41011010:	1442b073          	csrc	sip,x5
    41011014:	10200073          	sret

0000000041011018 <trap_handler_s___CLEAR_MSI>:
    41011018:	00800293          	li	x5,8
    4101101c:	1442b073          	csrc	sip,x5
    41011020:	10200073          	sret

0000000041011024 <trap_handler_s___CLEAR_STI>:
    41011024:	02000293          	li	x5,32
    41011028:	1442b073          	csrc	sip,x5
    4101102c:	10200073          	sret

0000000041011030 <trap_handler_s___CLEAR_MTI>:
    41011030:	08000293          	li	x5,128
    41011034:	1442b073          	csrc	sip,x5
    41011038:	10200073          	sret

000000004101103c <trap_handler_s___CLEAR_SEI>:
    4101103c:	20000293          	li	x5,512
    41011040:	1442b073          	csrc	sip,x5
    41011044:	10200073          	sret

0000000041011048 <trap_handler_s___CLEAR_MEI>:
    41011048:	000012b7          	lui	x5,0x1
    4101104c:	8002829b          	addiw	x5,x5,-2048 # 800 <XLEN+0x7c0>
    41011050:	1442b073          	csrc	sip,x5
    41011054:	10200073          	sret

0000000041011058 <trap_handler_s___CLEAR_COI>:
    41011058:	000022b7          	lui	x5,0x2
    4101105c:	1442b073          	csrc	sip,x5
    41011060:	10200073          	sret

0000000041011064 <trap_handler_s__clear_highest_priority_interrupt>:
    41011064:	144022f3          	csrr	x5,sip
    41011068:	40500333          	neg	x6,x5
    4101106c:	0062f2b3          	and	x5,x5,x6
    41011070:	1442b073          	csrc	sip,x5
    41011074:	10200073          	sret

0000000041011078 <trap_handler_s__trap_entry>:
    41011078:	10c0006f          	j	41011184 <trap_handler_s__trap_handler>

000000004101107c <trap_handler_s__interrupt_vector_table>:
    4101107c:	f91ff06f          	j	4101100c <trap_handler_s___CLEAR_SSI>
    41011080:	f81ff06f          	j	41011000 <trap_handler_s__invalid_interrupt>
    41011084:	f95ff06f          	j	41011018 <trap_handler_s___CLEAR_MSI>
    41011088:	f79ff06f          	j	41011000 <trap_handler_s__invalid_interrupt>
    4101108c:	f99ff06f          	j	41011024 <trap_handler_s___CLEAR_STI>
    41011090:	f71ff06f          	j	41011000 <trap_handler_s__invalid_interrupt>
    41011094:	f9dff06f          	j	41011030 <trap_handler_s___CLEAR_MTI>
    41011098:	f69ff06f          	j	41011000 <trap_handler_s__invalid_interrupt>
    4101109c:	fa1ff06f          	j	4101103c <trap_handler_s___CLEAR_SEI>
    410110a0:	f61ff06f          	j	41011000 <trap_handler_s__invalid_interrupt>
    410110a4:	fa5ff06f          	j	41011048 <trap_handler_s___CLEAR_MEI>
    410110a8:	f59ff06f          	j	41011000 <trap_handler_s__invalid_interrupt>
    410110ac:	fadff06f          	j	41011058 <trap_handler_s___CLEAR_COI>
    410110b0:	f51ff06f          	j	41011000 <trap_handler_s__invalid_interrupt>
    410110b4:	f4dff06f          	j	41011000 <trap_handler_s__invalid_interrupt>
    410110b8:	fadff06f          	j	41011064 <trap_handler_s__clear_highest_priority_interrupt>
    410110bc:	fa9ff06f          	j	41011064 <trap_handler_s__clear_highest_priority_interrupt>
    410110c0:	fa5ff06f          	j	41011064 <trap_handler_s__clear_highest_priority_interrupt>
    410110c4:	fa1ff06f          	j	41011064 <trap_handler_s__clear_highest_priority_interrupt>
    410110c8:	f9dff06f          	j	41011064 <trap_handler_s__clear_highest_priority_interrupt>
    410110cc:	f99ff06f          	j	41011064 <trap_handler_s__clear_highest_priority_interrupt>
    410110d0:	f95ff06f          	j	41011064 <trap_handler_s__clear_highest_priority_interrupt>
    410110d4:	f91ff06f          	j	41011064 <trap_handler_s__clear_highest_priority_interrupt>
    410110d8:	f8dff06f          	j	41011064 <trap_handler_s__clear_highest_priority_interrupt>
    410110dc:	f89ff06f          	j	41011064 <trap_handler_s__clear_highest_priority_interrupt>
    410110e0:	f85ff06f          	j	41011064 <trap_handler_s__clear_highest_priority_interrupt>
    410110e4:	f81ff06f          	j	41011064 <trap_handler_s__clear_highest_priority_interrupt>
    410110e8:	f7dff06f          	j	41011064 <trap_handler_s__clear_highest_priority_interrupt>
    410110ec:	f79ff06f          	j	41011064 <trap_handler_s__clear_highest_priority_interrupt>
    410110f0:	f75ff06f          	j	41011064 <trap_handler_s__clear_highest_priority_interrupt>
    410110f4:	f71ff06f          	j	41011064 <trap_handler_s__clear_highest_priority_interrupt>
    410110f8:	f6dff06f          	j	41011064 <trap_handler_s__clear_highest_priority_interrupt>
    410110fc:	f69ff06f          	j	41011064 <trap_handler_s__clear_highest_priority_interrupt>
    41011100:	f65ff06f          	j	41011064 <trap_handler_s__clear_highest_priority_interrupt>
    41011104:	f61ff06f          	j	41011064 <trap_handler_s__clear_highest_priority_interrupt>
    41011108:	f5dff06f          	j	41011064 <trap_handler_s__clear_highest_priority_interrupt>
    4101110c:	f59ff06f          	j	41011064 <trap_handler_s__clear_highest_priority_interrupt>
    41011110:	f55ff06f          	j	41011064 <trap_handler_s__clear_highest_priority_interrupt>
    41011114:	f51ff06f          	j	41011064 <trap_handler_s__clear_highest_priority_interrupt>
    41011118:	f4dff06f          	j	41011064 <trap_handler_s__clear_highest_priority_interrupt>
    4101111c:	f49ff06f          	j	41011064 <trap_handler_s__clear_highest_priority_interrupt>
    41011120:	f45ff06f          	j	41011064 <trap_handler_s__clear_highest_priority_interrupt>
    41011124:	f41ff06f          	j	41011064 <trap_handler_s__clear_highest_priority_interrupt>
    41011128:	f3dff06f          	j	41011064 <trap_handler_s__clear_highest_priority_interrupt>
    4101112c:	f39ff06f          	j	41011064 <trap_handler_s__clear_highest_priority_interrupt>
    41011130:	f35ff06f          	j	41011064 <trap_handler_s__clear_highest_priority_interrupt>
    41011134:	f31ff06f          	j	41011064 <trap_handler_s__clear_highest_priority_interrupt>
    41011138:	f2dff06f          	j	41011064 <trap_handler_s__clear_highest_priority_interrupt>
    4101113c:	f29ff06f          	j	41011064 <trap_handler_s__clear_highest_priority_interrupt>
    41011140:	f25ff06f          	j	41011064 <trap_handler_s__clear_highest_priority_interrupt>
    41011144:	f21ff06f          	j	41011064 <trap_handler_s__clear_highest_priority_interrupt>
    41011148:	f1dff06f          	j	41011064 <trap_handler_s__clear_highest_priority_interrupt>
    4101114c:	f19ff06f          	j	41011064 <trap_handler_s__clear_highest_priority_interrupt>
    41011150:	f15ff06f          	j	41011064 <trap_handler_s__clear_highest_priority_interrupt>
    41011154:	f11ff06f          	j	41011064 <trap_handler_s__clear_highest_priority_interrupt>
    41011158:	f0dff06f          	j	41011064 <trap_handler_s__clear_highest_priority_interrupt>
    4101115c:	f09ff06f          	j	41011064 <trap_handler_s__clear_highest_priority_interrupt>
    41011160:	f05ff06f          	j	41011064 <trap_handler_s__clear_highest_priority_interrupt>
    41011164:	f01ff06f          	j	41011064 <trap_handler_s__clear_highest_priority_interrupt>
    41011168:	efdff06f          	j	41011064 <trap_handler_s__clear_highest_priority_interrupt>
    4101116c:	ef9ff06f          	j	41011064 <trap_handler_s__clear_highest_priority_interrupt>
    41011170:	ef5ff06f          	j	41011064 <trap_handler_s__clear_highest_priority_interrupt>

0000000041011174 <trap_handler_s__test_failed>:
    41011174:	00f00f9b          	addiw	x31,x0,15
    41011178:	01cf9f93          	slli	x31,x31,0x1c
    4101117c:	002f8f93          	addi	x31,x31,2
    41011180:	00000073          	ecall

0000000041011184 <trap_handler_s__trap_handler>:
    41011184:	142022f3          	csrr	x5,scause
    41011188:	fff0031b          	addiw	x6,x0,-1
    4101118c:	03f31313          	slli	x6,x6,0x3f
    41011190:	00537333          	and	x6,x6,x5
    41011194:	02030263          	beqz	x6,410111b8 <trap_handler_s__exception_path>

0000000041011198 <trap_handler_s__interrupt_handler>:
    41011198:	fff0031b          	addiw	x6,x0,-1
    4101119c:	03f31313          	slli	x6,x6,0x3f
    410111a0:	0062c2b3          	xor	x5,x5,x6
    410111a4:	00000317          	auipc	x6,0x0
    410111a8:	ed430313          	addi	x6,x6,-300 # 41011078 <trap_handler_s__trap_entry>
    410111ac:	00229293          	slli	x5,x5,0x2
    410111b0:	005302b3          	add	x5,x6,x5
    410111b4:	00028067          	jr	x5 # 2000 <SID_EXCEP_04_2_1_MUX_SELECT_1_stack>

00000000410111b8 <trap_handler_s__exception_path>:
    410111b8:	14021273          	csrrw	x4,sscratch,x4
    410111bc:	00000297          	auipc	x5,0x0
    410111c0:	0cc28293          	addi	x5,x5,204 # 41011288 <trap_handler_s__trap_panic>
    410111c4:	10529073          	csrw	stvec,x5
    410111c8:	0040006f          	j	410111cc <trap_handler_s__excp_entry>

00000000410111cc <trap_handler_s__excp_entry>:
    410111cc:	14202373          	csrr	x6,scause
    410111d0:	00800293          	li	x5,8
    410111d4:	00534863          	blt	x6,x5,410111e4 <trap_handler_s__check_exception_label>
    410111d8:	00b00293          	li	x5,11
    410111dc:	0062c463          	blt	x5,x6,410111e4 <trap_handler_s__check_exception_label>
    410111e0:	0a80006f          	j	41011288 <trap_handler_s__trap_panic>

00000000410111e4 <trap_handler_s__check_exception_label>:
    410111e4:	04623c23          	sd	x6,88(x4) # 58 <XLEN+0x18>
    410111e8:	141022f3          	csrr	x5,sepc
    410111ec:	02523423          	sd	x5,40(x4) # 28 <SECURE_ACCESS_PROBABILITY+0xa>
    410111f0:	01820283          	lb	x5,24(x4) # 18 <STORE_GUEST_PAGE_FAULT+0x1>
    410111f4:	00029863          	bnez	x5,41011204 <trap_handler_s__check_excp>
    410111f8:	00128293          	addi	x5,x5,1
    410111fc:	00520c23          	sb	x5,24(x4) # 18 <STORE_GUEST_PAGE_FAULT+0x1>
    41011200:	05c0006f          	j	4101125c <trap_handler_s__ecall_from_machine>

0000000041011204 <trap_handler_s__check_excp>:
    41011204:	06823283          	ld	x5,104(x4) # 68 <XLEN+0x28>
    41011208:	06023423          	sd	x0,104(x4) # 68 <XLEN+0x28>
    4101120c:	00028663          	beqz	x5,41011218 <trap_handler_s__skip_mode_check>
    41011210:	00300393          	li	x7,3
    41011214:	f67290e3          	bne	x5,x7,41011174 <trap_handler_s__test_failed>

0000000041011218 <trap_handler_s__skip_mode_check>:
    41011218:	05023283          	ld	x5,80(x4) # 50 <XLEN+0x10>
    4101121c:	04023823          	sd	x0,80(x4) # 50 <XLEN+0x10>
    41011220:	f4531ae3          	bne	x6,x5,41011174 <trap_handler_s__test_failed>
    41011224:	03823283          	ld	x5,56(x4) # 38 <SECURE_ACCESS_PROBABILITY+0x1a>
    41011228:	02023c23          	sd	x0,56(x4) # 38 <SECURE_ACCESS_PROBABILITY+0x1a>
    4101122c:	02029663          	bnez	x5,41011258 <trap_handler_s__skip_nonzero_tval_check>
    41011230:	02023303          	ld	x6,32(x4) # 20 <SECURE_ACCESS_PROBABILITY+0x2>
    41011234:	02023023          	sd	x0,32(x4) # 20 <SECURE_ACCESS_PROBABILITY+0x2>
    41011238:	02823283          	ld	x5,40(x4) # 28 <SECURE_ACCESS_PROBABILITY+0xa>
    4101123c:	02023423          	sd	x0,40(x4) # 28 <SECURE_ACCESS_PROBABILITY+0xa>
    41011240:	f2531ae3          	bne	x6,x5,41011174 <trap_handler_s__test_failed>
    41011244:	04023283          	ld	x5,64(x4) # 40 <XLEN>
    41011248:	04023023          	sd	x0,64(x4) # 40 <XLEN>
    4101124c:	00028663          	beqz	x5,41011258 <trap_handler_s__skip_nonzero_tval_check>

0000000041011250 <trap_handler_s__nonzero_tval_check>:
    41011250:	14302373          	csrr	x6,stval
    41011254:	f25310e3          	bne	x6,x5,41011174 <trap_handler_s__test_failed>

0000000041011258 <trap_handler_s__skip_nonzero_tval_check>:
    41011258:	0040006f          	j	4101125c <trap_handler_s__ecall_from_machine>

000000004101125c <trap_handler_s__ecall_from_machine>:
    4101125c:	03023283          	ld	x5,48(x4) # 30 <SECURE_ACCESS_PROBABILITY+0x12>
    41011260:	02023823          	sd	x0,48(x4) # 30 <SECURE_ACCESS_PROBABILITY+0x12>
    41011264:	07023303          	ld	x6,112(x4) # 70 <XLEN+0x30>
    41011268:	06023823          	sd	x0,112(x4) # 70 <XLEN+0x30>
    4101126c:	00031463          	bnez	x6,41011274 <trap_handler_s__skip_xepc_write>
    41011270:	14129073          	csrw	sepc,x5

0000000041011274 <trap_handler_s__skip_xepc_write>:
    41011274:	00000317          	auipc	x6,0x0
    41011278:	e0430313          	addi	x6,x6,-508 # 41011078 <trap_handler_s__trap_entry>
    4101127c:	10531073          	csrw	stvec,x6
    41011280:	14021273          	csrrw	x4,sscratch,x4
    41011284:	10200073          	sret

0000000041011288 <trap_handler_s__trap_panic>:
    41011288:	00000193          	li	x3,0
    4101128c:	00f00f9b          	addiw	x31,x0,15
    41011290:	01cf9f93          	slli	x31,x31,0x1c
    41011294:	002f8f93          	addi	x31,x31,2
    41011298:	00000073          	ecall

Disassembly of section .code:

0000000041015070 <passed>:
    41015070:	00f00f9b          	addiw	x31,x0,15
    41015074:	01cf9f93          	slli	x31,x31,0x1c
    41015078:	001f8f93          	addi	x31,x31,1
    4101507c:	00000073          	ecall

0000000041015080 <failed>:
    41015080:	00f00f9b          	addiw	x31,x0,15
    41015084:	01cf9f93          	slli	x31,x31,0x1c
    41015088:	002f8f93          	addi	x31,x31,2
    4101508c:	00000073          	ecall

0000000041015090 <end_test>:
    41015090:	00f00f9b          	addiw	x31,x0,15
    41015094:	01cf9f93          	slli	x31,x31,0x1c
    41015098:	003f8f93          	addi	x31,x31,3
    4101509c:	00000073          	ecall

00000000410150a0 <test_setup>:
    410150a0:	00f00f9b          	addiw	x31,x0,15
    410150a4:	01cf9f93          	slli	x31,x31,0x1c
    410150a8:	001f8f93          	addi	x31,x31,1
    410150ac:	00000073          	ecall

00000000410150b0 <SID_EXCEP_01_EQZ_RS1_NZ>:
    410150b0:	017ae137          	lui	x2,0x17ae
    410150b4:	000012b7          	lui	x5,0x1
    410150b8:	00510133          	add	x2,x2,x5
    410150bc:	ff017113          	andi	x2,x2,-16
    410150c0:	00000f93          	li	x31,0
    410150c4:	00c10f37          	lui	x30,0xc10
    410150c8:	feef0f1b          	addiw	x30,x30,-18 # c0ffee <tp_csr_storage+0x106fee>
    410150cc:	0fff5433          	czero.eqz	x8,x30,x31
    410150d0:	00000793          	li	x15,0
    410150d4:	00f40e63          	beq	x8,x15,410150f0 <SID_EXCEP_01_EQZ_RS1_NZ_passed>
    410150d8:	0008c537          	lui	x10,0x8c
    410150dc:	b995051b          	addiw	x10,x10,-1127 # 8bb99 <SID_EXCEP_04_EQZ_PASSING_AND_stack+0x44b99>
    410150e0:	00d51513          	slli	x10,x10,0xd
    410150e4:	00850513          	addi	x10,x10,8
    410150e8:	00053c03          	ld	x24,0(x10)
    410150ec:	000c0067          	jr	x24

00000000410150f0 <SID_EXCEP_01_EQZ_RS1_NZ_passed>:
    410150f0:	00f00f9b          	addiw	x31,x0,15
    410150f4:	01cf9f93          	slli	x31,x31,0x1c
    410150f8:	001f8f93          	addi	x31,x31,1
    410150fc:	00000073          	ecall

0000000041015100 <SID_EXCEP_01_EQZ_RS1_Z>:
    41015100:	00018137          	lui	x2,0x18
    41015104:	000012b7          	lui	x5,0x1
    41015108:	00510133          	add	x2,x2,x5
    4101510c:	ff017113          	andi	x2,x2,-16
    41015110:	00000f13          	li	x30,0
    41015114:	00000a13          	li	x20,0
    41015118:	0fea5b33          	czero.eqz	x22,x20,x30
    4101511c:	00000e13          	li	x28,0
    41015120:	01cb0e63          	beq	x22,x28,4101513c <SID_EXCEP_01_EQZ_RS1_Z_passed>
    41015124:	0008c937          	lui	x18,0x8c
    41015128:	b999091b          	addiw	x18,x18,-1127 # 8bb99 <SID_EXCEP_04_EQZ_PASSING_AND_stack+0x44b99>
    4101512c:	00d91913          	slli	x18,x18,0xd
    41015130:	00890913          	addi	x18,x18,8
    41015134:	00093903          	ld	x18,0(x18)
    41015138:	00090067          	jr	x18

000000004101513c <SID_EXCEP_01_EQZ_RS1_Z_passed>:
    4101513c:	00f00f9b          	addiw	x31,x0,15
    41015140:	01cf9f93          	slli	x31,x31,0x1c
    41015144:	001f8f93          	addi	x31,x31,1
    41015148:	00000073          	ecall

000000004101514c <SID_EXCEP_01_NEZ_RS1_NZ>:
    4101514c:	1b899137          	lui	x2,0x1b899
    41015150:	000012b7          	lui	x5,0x1
    41015154:	00510133          	add	x2,x2,x5
    41015158:	ff017113          	andi	x2,x2,-16
    4101515c:	00038637          	lui	x12,0x38
    41015160:	ab76061b          	addiw	x12,x12,-1353 # 37ab7 <SID_EXCEP_01_EQZ_RS1_Z_stack+0x1fab7>
    41015164:	00e61613          	slli	x12,x12,0xe
    41015168:	eef60613          	addi	x12,x12,-273
    4101516c:	00c104b7          	lui	x9,0xc10
    41015170:	fee4849b          	addiw	x9,x9,-18 # c0ffee <tp_csr_storage+0x106fee>
    41015174:	0ec4fbb3          	czero.nez	x23,x9,x12
    41015178:	00000313          	li	x6,0
    4101517c:	006b8e63          	beq	x23,x6,41015198 <SID_EXCEP_01_NEZ_RS1_NZ_passed>
    41015180:	0008cab7          	lui	x21,0x8c
    41015184:	b99a8a9b          	addiw	x21,x21,-1127 # 8bb99 <SID_EXCEP_04_EQZ_PASSING_AND_stack+0x44b99>
    41015188:	00da9a93          	slli	x21,x21,0xd
    4101518c:	008a8a93          	addi	x21,x21,8
    41015190:	000abc03          	ld	x24,0(x21)
    41015194:	000c0067          	jr	x24

0000000041015198 <SID_EXCEP_01_NEZ_RS1_NZ_passed>:
    41015198:	00f00f9b          	addiw	x31,x0,15
    4101519c:	01cf9f93          	slli	x31,x31,0x1c
    410151a0:	001f8f93          	addi	x31,x31,1
    410151a4:	00000073          	ecall

00000000410151a8 <SID_EXCEP_01_NEZ_RS1_Z>:
    410151a8:	00084137          	lui	x2,0x84
    410151ac:	6071011b          	addiw	x2,x2,1543 # 84607 <SID_EXCEP_04_EQZ_PASSING_AND_stack+0x3d607>
    410151b0:	00c11113          	slli	x2,x2,0xc
    410151b4:	000012b7          	lui	x5,0x1
    410151b8:	00510133          	add	x2,x2,x5
    410151bc:	ff017113          	andi	x2,x2,-16
    410151c0:	00038cb7          	lui	x25,0x38
    410151c4:	ab7c8c9b          	addiw	x25,x25,-1353 # 37ab7 <SID_EXCEP_01_EQZ_RS1_Z_stack+0x1fab7>
    410151c8:	00ec9c93          	slli	x25,x25,0xe
    410151cc:	eefc8c93          	addi	x25,x25,-273
    410151d0:	00000f93          	li	x31,0
    410151d4:	0f9ffcb3          	czero.nez	x25,x31,x25
    410151d8:	00000313          	li	x6,0
    410151dc:	006c8e63          	beq	x25,x6,410151f8 <SID_EXCEP_01_NEZ_RS1_Z_passed>
    410151e0:	0008cf37          	lui	x30,0x8c
    410151e4:	b99f0f1b          	addiw	x30,x30,-1127 # 8bb99 <SID_EXCEP_04_EQZ_PASSING_AND_stack+0x44b99>
    410151e8:	00df1f13          	slli	x30,x30,0xd
    410151ec:	008f0f13          	addi	x30,x30,8
    410151f0:	000f3a83          	ld	x21,0(x30)
    410151f4:	000a8067          	jr	x21

00000000410151f8 <SID_EXCEP_01_NEZ_RS1_Z_passed>:
    410151f8:	00f00f9b          	addiw	x31,x0,15
    410151fc:	01cf9f93          	slli	x31,x31,0x1c
    41015200:	001f8f93          	addi	x31,x31,1
    41015204:	00000073          	ecall

0000000041015208 <SID_EXCEP_02_EQZ_RS1_NZ>:
    41015208:	14b97137          	lui	x2,0x14b97
    4101520c:	000012b7          	lui	x5,0x1
    41015210:	00510133          	add	x2,x2,x5
    41015214:	ff017113          	andi	x2,x2,-16
    41015218:	00038737          	lui	x14,0x38
    4101521c:	ab77071b          	addiw	x14,x14,-1353 # 37ab7 <SID_EXCEP_01_EQZ_RS1_Z_stack+0x1fab7>
    41015220:	00e71713          	slli	x14,x14,0xe
    41015224:	eef70713          	addi	x14,x14,-273
    41015228:	00c10f37          	lui	x30,0xc10
    4101522c:	feef0f1b          	addiw	x30,x30,-18 # c0ffee <tp_csr_storage+0x106fee>
    41015230:	0eef5f33          	czero.eqz	x30,x30,x14
    41015234:	00c106b7          	lui	x13,0xc10
    41015238:	fee6869b          	addiw	x13,x13,-18 # c0ffee <tp_csr_storage+0x106fee>
    4101523c:	00df0e63          	beq	x30,x13,41015258 <SID_EXCEP_02_EQZ_RS1_NZ_passed>
    41015240:	0008cd37          	lui	x26,0x8c
    41015244:	b99d0d1b          	addiw	x26,x26,-1127 # 8bb99 <SID_EXCEP_04_EQZ_PASSING_AND_stack+0x44b99>
    41015248:	00dd1d13          	slli	x26,x26,0xd
    4101524c:	008d0d13          	addi	x26,x26,8
    41015250:	000d3483          	ld	x9,0(x26)
    41015254:	00048067          	jr	x9

0000000041015258 <SID_EXCEP_02_EQZ_RS1_NZ_passed>:
    41015258:	00f00f9b          	addiw	x31,x0,15
    4101525c:	01cf9f93          	slli	x31,x31,0x1c
    41015260:	001f8f93          	addi	x31,x31,1
    41015264:	00000073          	ecall

0000000041015268 <SID_EXCEP_02_EQZ_RS1_Z>:
    41015268:	7f0aa137          	lui	x2,0x7f0aa
    4101526c:	000012b7          	lui	x5,0x1
    41015270:	00510133          	add	x2,x2,x5
    41015274:	ff017113          	andi	x2,x2,-16
    41015278:	00038837          	lui	x16,0x38
    4101527c:	ab78081b          	addiw	x16,x16,-1353 # 37ab7 <SID_EXCEP_01_EQZ_RS1_Z_stack+0x1fab7>
    41015280:	00e81813          	slli	x16,x16,0xe
    41015284:	eef80813          	addi	x16,x16,-273
    41015288:	00000313          	li	x6,0
    4101528c:	0f0353b3          	czero.eqz	x7,x6,x16
    41015290:	00000413          	li	x8,0
    41015294:	00838e63          	beq	x7,x8,410152b0 <SID_EXCEP_02_EQZ_RS1_Z_passed>
    41015298:	0008cf37          	lui	x30,0x8c
    4101529c:	b99f0f1b          	addiw	x30,x30,-1127 # 8bb99 <SID_EXCEP_04_EQZ_PASSING_AND_stack+0x44b99>
    410152a0:	00df1f13          	slli	x30,x30,0xd
    410152a4:	008f0f13          	addi	x30,x30,8
    410152a8:	000f3d83          	ld	x27,0(x30)
    410152ac:	000d8067          	jr	x27

00000000410152b0 <SID_EXCEP_02_EQZ_RS1_Z_passed>:
    410152b0:	00f00f9b          	addiw	x31,x0,15
    410152b4:	01cf9f93          	slli	x31,x31,0x1c
    410152b8:	001f8f93          	addi	x31,x31,1
    410152bc:	00000073          	ecall

00000000410152c0 <SID_EXCEP_02_NEZ_RS1_Z>:
    410152c0:	00110137          	lui	x2,0x110
    410152c4:	000012b7          	lui	x5,0x1
    410152c8:	00510133          	add	x2,x2,x5
    410152cc:	ff017113          	andi	x2,x2,-16
    410152d0:	00000313          	li	x6,0
    410152d4:	00c109b7          	lui	x19,0xc10
    410152d8:	fee9899b          	addiw	x19,x19,-18 # c0ffee <tp_csr_storage+0x106fee>
    410152dc:	0e69feb3          	czero.nez	x29,x19,x6
    410152e0:	00c106b7          	lui	x13,0xc10
    410152e4:	fee6869b          	addiw	x13,x13,-18 # c0ffee <tp_csr_storage+0x106fee>
    410152e8:	00de8e63          	beq	x29,x13,41015304 <SID_EXCEP_02_NEZ_RS1_Z_passed>
    410152ec:	0008cb37          	lui	x22,0x8c
    410152f0:	b99b0b1b          	addiw	x22,x22,-1127 # 8bb99 <SID_EXCEP_04_EQZ_PASSING_AND_stack+0x44b99>
    410152f4:	00db1b13          	slli	x22,x22,0xd
    410152f8:	008b0b13          	addi	x22,x22,8
    410152fc:	000b3e83          	ld	x29,0(x22)
    41015300:	000e8067          	jr	x29

0000000041015304 <SID_EXCEP_02_NEZ_RS1_Z_passed>:
    41015304:	00f00f9b          	addiw	x31,x0,15
    41015308:	01cf9f93          	slli	x31,x31,0x1c
    4101530c:	001f8f93          	addi	x31,x31,1
    41015310:	00000073          	ecall

0000000041015314 <SID_EXCEP_02_NEZ_RS1_NZ>:
    41015314:	000b1137          	lui	x2,0xb1
    41015318:	bb51011b          	addiw	x2,x2,-1099 # b0bb5 <SID_EXCEP_04_EQZ_PASSING_AND_stack+0x69bb5>
    4101531c:	00f11113          	slli	x2,x2,0xf
    41015320:	000012b7          	lui	x5,0x1
    41015324:	00510133          	add	x2,x2,x5
    41015328:	ff017113          	andi	x2,x2,-16
    4101532c:	00000313          	li	x6,0
    41015330:	00000b93          	li	x23,0
    41015334:	0e6bf733          	czero.nez	x14,x23,x6
    41015338:	00000b93          	li	x23,0
    4101533c:	01770e63          	beq	x14,x23,41015358 <SID_EXCEP_02_NEZ_RS1_NZ_passed>
    41015340:	0008cb37          	lui	x22,0x8c
    41015344:	b99b0b1b          	addiw	x22,x22,-1127 # 8bb99 <SID_EXCEP_04_EQZ_PASSING_AND_stack+0x44b99>
    41015348:	00db1b13          	slli	x22,x22,0xd
    4101534c:	008b0b13          	addi	x22,x22,8
    41015350:	000b3c83          	ld	x25,0(x22)
    41015354:	000c8067          	jr	x25

0000000041015358 <SID_EXCEP_02_NEZ_RS1_NZ_passed>:
    41015358:	00f00f9b          	addiw	x31,x0,15
    4101535c:	01cf9f93          	slli	x31,x31,0x1c
    41015360:	001f8f93          	addi	x31,x31,1
    41015364:	00000073          	ecall

0000000041015368 <SID_EXCEP_04_EQZ_PASSING_ADD>:
    41015368:	00081137          	lui	x2,0x81
    4101536c:	9d31011b          	addiw	x2,x2,-1581 # 809d3 <SID_EXCEP_04_EQZ_PASSING_AND_stack+0x399d3>
    41015370:	00c11113          	slli	x2,x2,0xc
    41015374:	000012b7          	lui	x5,0x1
    41015378:	00510133          	add	x2,x2,x5
    4101537c:	ff017113          	andi	x2,x2,-16
    41015380:	00a00b93          	li	x23,10
    41015384:	00300693          	li	x13,3
    41015388:	00000913          	li	x18,0
    4101538c:	00db8733          	add	x14,x23,x13
    41015390:	0f275fb3          	czero.eqz	x31,x14,x18
    41015394:	00000793          	li	x15,0
    41015398:	00ff8e63          	beq	x31,x15,410153b4 <SID_EXCEP_04_EQZ_PASSING_ADD_passed>
    4101539c:	0008cfb7          	lui	x31,0x8c
    410153a0:	b99f8f9b          	addiw	x31,x31,-1127 # 8bb99 <SID_EXCEP_04_EQZ_PASSING_AND_stack+0x44b99>
    410153a4:	00df9f93          	slli	x31,x31,0xd
    410153a8:	008f8f93          	addi	x31,x31,8
    410153ac:	000fbc83          	ld	x25,0(x31)
    410153b0:	000c8067          	jr	x25

00000000410153b4 <SID_EXCEP_04_EQZ_PASSING_ADD_passed>:
    410153b4:	00f00f9b          	addiw	x31,x0,15
    410153b8:	01cf9f93          	slli	x31,x31,0x1c
    410153bc:	001f8f93          	addi	x31,x31,1
    410153c0:	00000073          	ecall

00000000410153c4 <SID_EXCEP_04_EQZ_FAILING_ADD>:
    410153c4:	00742137          	lui	x2,0x742
    410153c8:	96f1011b          	addiw	x2,x2,-1681 # 74196f <SID_EXCEP_04_NEZ_PASSING_SUB_stack+0x60396f>
    410153cc:	00d11113          	slli	x2,x2,0xd
    410153d0:	000012b7          	lui	x5,0x1
    410153d4:	00510133          	add	x2,x2,x5
    410153d8:	ff017113          	andi	x2,x2,-16
    410153dc:	00a00793          	li	x15,10
    410153e0:	00300313          	li	x6,3
    410153e4:	00100a93          	li	x21,1
    410153e8:	00678d33          	add	x26,x15,x6
    410153ec:	0f5d5f33          	czero.eqz	x30,x26,x21
    410153f0:	00d00513          	li	x10,13
    410153f4:	00af0e63          	beq	x30,x10,41015410 <SID_EXCEP_04_EQZ_FAILING_ADD_passed>
    410153f8:	0008c6b7          	lui	x13,0x8c
    410153fc:	b996869b          	addiw	x13,x13,-1127 # 8bb99 <SID_EXCEP_04_EQZ_PASSING_AND_stack+0x44b99>
    41015400:	00d69693          	slli	x13,x13,0xd
    41015404:	00868693          	addi	x13,x13,8
    41015408:	0006b303          	ld	x6,0(x13)
    4101540c:	00030067          	jr	x6

0000000041015410 <SID_EXCEP_04_EQZ_FAILING_ADD_passed>:
    41015410:	00f00f9b          	addiw	x31,x0,15
    41015414:	01cf9f93          	slli	x31,x31,0x1c
    41015418:	001f8f93          	addi	x31,x31,1
    4101541c:	00000073          	ecall

0000000041015420 <SID_EXCEP_04_NEZ_PASSING_SUB>:
    41015420:	0013e137          	lui	x2,0x13e
    41015424:	000012b7          	lui	x5,0x1
    41015428:	00510133          	add	x2,x2,x5
    4101542c:	ff017113          	andi	x2,x2,-16
    41015430:	00a00e93          	li	x29,10
    41015434:	00300793          	li	x15,3
    41015438:	00100493          	li	x9,1
    4101543c:	40fe8eb3          	sub	x29,x29,x15
    41015440:	0e9ef933          	czero.nez	x18,x29,x9
    41015444:	00000493          	li	x9,0
    41015448:	00990e63          	beq	x18,x9,41015464 <SID_EXCEP_04_NEZ_PASSING_SUB_passed>
    4101544c:	0008c7b7          	lui	x15,0x8c
    41015450:	b997879b          	addiw	x15,x15,-1127 # 8bb99 <SID_EXCEP_04_EQZ_PASSING_AND_stack+0x44b99>
    41015454:	00d79793          	slli	x15,x15,0xd
    41015458:	00878793          	addi	x15,x15,8
    4101545c:	0007bc83          	ld	x25,0(x15)
    41015460:	000c8067          	jr	x25

0000000041015464 <SID_EXCEP_04_NEZ_PASSING_SUB_passed>:
    41015464:	00f00f9b          	addiw	x31,x0,15
    41015468:	01cf9f93          	slli	x31,x31,0x1c
    4101546c:	001f8f93          	addi	x31,x31,1
    41015470:	00000073          	ecall

0000000041015474 <SID_EXCEP_04_NEZ_FAILING_SUB>:
    41015474:	0f200137          	lui	x2,0xf200
    41015478:	000012b7          	lui	x5,0x1
    4101547c:	00510133          	add	x2,x2,x5
    41015480:	ff017113          	andi	x2,x2,-16
    41015484:	00a00993          	li	x19,10
    41015488:	00300b93          	li	x23,3
    4101548c:	00000e93          	li	x29,0
    41015490:	41798633          	sub	x12,x19,x23
    41015494:	0fd67833          	czero.nez	x16,x12,x29
    41015498:	00700893          	li	x17,7
    4101549c:	01180e63          	beq	x16,x17,410154b8 <SID_EXCEP_04_NEZ_FAILING_SUB_passed>
    410154a0:	0008cf37          	lui	x30,0x8c
    410154a4:	b99f0f1b          	addiw	x30,x30,-1127 # 8bb99 <SID_EXCEP_04_EQZ_PASSING_AND_stack+0x44b99>
    410154a8:	00df1f13          	slli	x30,x30,0xd
    410154ac:	008f0f13          	addi	x30,x30,8
    410154b0:	000f3d03          	ld	x26,0(x30)
    410154b4:	000d0067          	jr	x26

00000000410154b8 <SID_EXCEP_04_NEZ_FAILING_SUB_passed>:
    410154b8:	00f00f9b          	addiw	x31,x0,15
    410154bc:	01cf9f93          	slli	x31,x31,0x1c
    410154c0:	001f8f93          	addi	x31,x31,1
    410154c4:	00000073          	ecall

00000000410154c8 <SID_EXCEP_04_EQZ_PASSING_SUB>:
    410154c8:	263ff137          	lui	x2,0x263ff
    410154cc:	000012b7          	lui	x5,0x1
    410154d0:	00510133          	add	x2,x2,x5
    410154d4:	ff017113          	andi	x2,x2,-16
    410154d8:	00a00b13          	li	x22,10
    410154dc:	00300913          	li	x18,3
    410154e0:	00000d13          	li	x26,0
    410154e4:	412b03b3          	sub	x7,x22,x18
    410154e8:	0fa3dc33          	czero.eqz	x24,x7,x26
    410154ec:	00000713          	li	x14,0
    410154f0:	00ec0e63          	beq	x24,x14,4101550c <SID_EXCEP_04_EQZ_PASSING_SUB_passed>
    410154f4:	0008c3b7          	lui	x7,0x8c
    410154f8:	b993839b          	addiw	x7,x7,-1127 # 8bb99 <SID_EXCEP_04_EQZ_PASSING_AND_stack+0x44b99>
    410154fc:	00d39393          	slli	x7,x7,0xd
    41015500:	00838393          	addi	x7,x7,8
    41015504:	0003b383          	ld	x7,0(x7)
    41015508:	00038067          	jr	x7

000000004101550c <SID_EXCEP_04_EQZ_PASSING_SUB_passed>:
    4101550c:	00f00f9b          	addiw	x31,x0,15
    41015510:	01cf9f93          	slli	x31,x31,0x1c
    41015514:	001f8f93          	addi	x31,x31,1
    41015518:	00000073          	ecall

000000004101551c <SID_EXCEP_04_EQZ_FAILING_SUB>:
    4101551c:	2e5ee137          	lui	x2,0x2e5ee
    41015520:	000012b7          	lui	x5,0x1
    41015524:	00510133          	add	x2,x2,x5
    41015528:	ff017113          	andi	x2,x2,-16
    4101552c:	00a00913          	li	x18,10
    41015530:	00300a13          	li	x20,3
    41015534:	00100e93          	li	x29,1
    41015538:	414905b3          	sub	x11,x18,x20
    4101553c:	0fd5d9b3          	czero.eqz	x19,x11,x29
    41015540:	00700d93          	li	x27,7
    41015544:	01b98e63          	beq	x19,x27,41015560 <SID_EXCEP_04_EQZ_FAILING_SUB_passed>
    41015548:	0008ceb7          	lui	x29,0x8c
    4101554c:	b99e8e9b          	addiw	x29,x29,-1127 # 8bb99 <SID_EXCEP_04_EQZ_PASSING_AND_stack+0x44b99>
    41015550:	00de9e93          	slli	x29,x29,0xd
    41015554:	008e8e93          	addi	x29,x29,8
    41015558:	000ebd83          	ld	x27,0(x29)
    4101555c:	000d8067          	jr	x27

0000000041015560 <SID_EXCEP_04_EQZ_FAILING_SUB_passed>:
    41015560:	00f00f9b          	addiw	x31,x0,15
    41015564:	01cf9f93          	slli	x31,x31,0x1c
    41015568:	001f8f93          	addi	x31,x31,1
    4101556c:	00000073          	ecall

0000000041015570 <SID_EXCEP_04_NEZ_PASSING_ADD>:
    41015570:	011ec137          	lui	x2,0x11ec
    41015574:	000012b7          	lui	x5,0x1
    41015578:	00510133          	add	x2,x2,x5
    4101557c:	ff017113          	andi	x2,x2,-16
    41015580:	00a00d93          	li	x27,10
    41015584:	00300f13          	li	x30,3
    41015588:	00100893          	li	x17,1
    4101558c:	01ed8433          	add	x8,x27,x30
    41015590:	0f147b33          	czero.nez	x22,x8,x17
    41015594:	00000d93          	li	x27,0
    41015598:	01bb0e63          	beq	x22,x27,410155b4 <SID_EXCEP_04_NEZ_PASSING_ADD_passed>
    4101559c:	0008ccb7          	lui	x25,0x8c
    410155a0:	b99c8c9b          	addiw	x25,x25,-1127 # 8bb99 <SID_EXCEP_04_EQZ_PASSING_AND_stack+0x44b99>
    410155a4:	00dc9c93          	slli	x25,x25,0xd
    410155a8:	008c8c93          	addi	x25,x25,8
    410155ac:	000cb503          	ld	x10,0(x25)
    410155b0:	00050067          	jr	x10

00000000410155b4 <SID_EXCEP_04_NEZ_PASSING_ADD_passed>:
    410155b4:	00f00f9b          	addiw	x31,x0,15
    410155b8:	01cf9f93          	slli	x31,x31,0x1c
    410155bc:	001f8f93          	addi	x31,x31,1
    410155c0:	00000073          	ecall

00000000410155c4 <SID_EXCEP_04_NEZ_FAILING_ADD>:
    410155c4:	01b96137          	lui	x2,0x1b96
    410155c8:	2b91011b          	addiw	x2,x2,697 # 1b962b9 <SID_EXCEP_01_EQZ_RS1_NZ_stack+0x3e82b9>
    410155cc:	00d11113          	slli	x2,x2,0xd
    410155d0:	000012b7          	lui	x5,0x1
    410155d4:	00510133          	add	x2,x2,x5
    410155d8:	ff017113          	andi	x2,x2,-16
    410155dc:	00a00f13          	li	x30,10
    410155e0:	00300593          	li	x11,3
    410155e4:	00000b93          	li	x23,0
    410155e8:	00bf09b3          	add	x19,x30,x11
    410155ec:	0f79f933          	czero.nez	x18,x19,x23
    410155f0:	00d00c93          	li	x25,13
    410155f4:	01990e63          	beq	x18,x25,41015610 <SID_EXCEP_04_NEZ_FAILING_ADD_passed>
    410155f8:	0008c9b7          	lui	x19,0x8c
    410155fc:	b999899b          	addiw	x19,x19,-1127 # 8bb99 <SID_EXCEP_04_EQZ_PASSING_AND_stack+0x44b99>
    41015600:	00d99993          	slli	x19,x19,0xd
    41015604:	00898993          	addi	x19,x19,8
    41015608:	0009b303          	ld	x6,0(x19)
    4101560c:	00030067          	jr	x6

0000000041015610 <SID_EXCEP_04_NEZ_FAILING_ADD_passed>:
    41015610:	00f00f9b          	addiw	x31,x0,15
    41015614:	01cf9f93          	slli	x31,x31,0x1c
    41015618:	001f8f93          	addi	x31,x31,1
    4101561c:	00000073          	ecall

0000000041015620 <SID_EXCEP_04_EQZ_PASSING_AND>:
    41015620:	00047137          	lui	x2,0x47
    41015624:	000012b7          	lui	x5,0x1
    41015628:	00510133          	add	x2,x2,x5
    4101562c:	ff017113          	andi	x2,x2,-16
    41015630:	0f000a93          	li	x21,240
    41015634:	0aa00393          	li	x7,170
    41015638:	00000813          	li	x16,0
    4101563c:	007affb3          	and	x31,x21,x7
    41015640:	0f0fde33          	czero.eqz	x28,x31,x16
    41015644:	00000d93          	li	x27,0
    41015648:	01be0e63          	beq	x28,x27,41015664 <SID_EXCEP_04_EQZ_PASSING_AND_passed>
    4101564c:	0008ceb7          	lui	x29,0x8c
    41015650:	b99e8e9b          	addiw	x29,x29,-1127 # 8bb99 <SID_EXCEP_04_EQZ_PASSING_AND_stack+0x44b99>
    41015654:	00de9e93          	slli	x29,x29,0xd
    41015658:	008e8e93          	addi	x29,x29,8
    4101565c:	000eba03          	ld	x20,0(x29)
    41015660:	000a0067          	jr	x20

0000000041015664 <SID_EXCEP_04_EQZ_PASSING_AND_passed>:
    41015664:	00f00f9b          	addiw	x31,x0,15
    41015668:	01cf9f93          	slli	x31,x31,0x1c
    4101566c:	001f8f93          	addi	x31,x31,1
    41015670:	00000073          	ecall

0000000041015674 <SID_EXCEP_04_EQZ_FAILING_AND>:
    41015674:	00145137          	lui	x2,0x145
    41015678:	0eb1011b          	addiw	x2,x2,235 # 1450eb <SID_EXCEP_04_NEZ_PASSING_SUB_stack+0x70eb>
    4101567c:	00d11113          	slli	x2,x2,0xd
    41015680:	000012b7          	lui	x5,0x1
    41015684:	00510133          	add	x2,x2,x5
    41015688:	ff017113          	andi	x2,x2,-16
    4101568c:	0f000d13          	li	x26,240
    41015690:	0aa00593          	li	x11,170
    41015694:	00100613          	li	x12,1
    41015698:	00bd7c33          	and	x24,x26,x11
    4101569c:	0ecc57b3          	czero.eqz	x15,x24,x12
    410156a0:	0a000313          	li	x6,160
    410156a4:	00678e63          	beq	x15,x6,410156c0 <SID_EXCEP_04_EQZ_FAILING_AND_passed>
    410156a8:	0008c7b7          	lui	x15,0x8c
    410156ac:	b997879b          	addiw	x15,x15,-1127 # 8bb99 <SID_EXCEP_04_EQZ_PASSING_AND_stack+0x44b99>
    410156b0:	00d79793          	slli	x15,x15,0xd
    410156b4:	00878793          	addi	x15,x15,8
    410156b8:	0007b803          	ld	x16,0(x15)
    410156bc:	00080067          	jr	x16

00000000410156c0 <SID_EXCEP_04_EQZ_FAILING_AND_passed>:
    410156c0:	00f00f9b          	addiw	x31,x0,15
    410156c4:	01cf9f93          	slli	x31,x31,0x1c
    410156c8:	001f8f93          	addi	x31,x31,1
    410156cc:	00000073          	ecall

00000000410156d0 <SID_EXCEP_04_EQZ_PASSING_XOR>:
    410156d0:	00c69137          	lui	x2,0xc69
    410156d4:	81f1011b          	addiw	x2,x2,-2017 # c6881f <tp_csr_storage+0x15f81f>
    410156d8:	00d11113          	slli	x2,x2,0xd
    410156dc:	000012b7          	lui	x5,0x1
    410156e0:	00510133          	add	x2,x2,x5
    410156e4:	ff017113          	andi	x2,x2,-16
    410156e8:	0f000b93          	li	x23,240
    410156ec:	0aa00c13          	li	x24,170
    410156f0:	00000693          	li	x13,0
    410156f4:	018bc9b3          	xor	x19,x23,x24
    410156f8:	0ed9dd33          	czero.eqz	x26,x19,x13
    410156fc:	00000913          	li	x18,0
    41015700:	012d0e63          	beq	x26,x18,4101571c <SID_EXCEP_04_EQZ_PASSING_XOR_passed>
    41015704:	0008cf37          	lui	x30,0x8c
    41015708:	b99f0f1b          	addiw	x30,x30,-1127 # 8bb99 <SID_EXCEP_04_EQZ_PASSING_AND_stack+0x44b99>
    4101570c:	00df1f13          	slli	x30,x30,0xd
    41015710:	008f0f13          	addi	x30,x30,8
    41015714:	000f3a03          	ld	x20,0(x30)
    41015718:	000a0067          	jr	x20

000000004101571c <SID_EXCEP_04_EQZ_PASSING_XOR_passed>:
    4101571c:	00f00f9b          	addiw	x31,x0,15
    41015720:	01cf9f93          	slli	x31,x31,0x1c
    41015724:	001f8f93          	addi	x31,x31,1
    41015728:	00000073          	ecall

000000004101572c <SID_EXCEP_04_EQZ_FAILING_XOR>:
    4101572c:	fc396137          	lui	x2,0xfc396
    41015730:	03f1011b          	addiw	x2,x2,63 # fffffffffc39603f <SID_EXCEP_04_EQZ_FAILING_XOR_stack+0x3c6635703f>
    41015734:	00c11113          	slli	x2,x2,0xc
    41015738:	000012b7          	lui	x5,0x1
    4101573c:	00510133          	add	x2,x2,x5
    41015740:	ff017113          	andi	x2,x2,-16
    41015744:	0f000a13          	li	x20,240
    41015748:	0aa00713          	li	x14,170
    4101574c:	00100e93          	li	x29,1
    41015750:	00ea4cb3          	xor	x25,x20,x14
    41015754:	0fdcde33          	czero.eqz	x28,x25,x29
    41015758:	05a00e93          	li	x29,90
    4101575c:	01de0e63          	beq	x28,x29,41015778 <SID_EXCEP_04_EQZ_FAILING_XOR_passed>
    41015760:	0008c337          	lui	x6,0x8c
    41015764:	b993031b          	addiw	x6,x6,-1127 # 8bb99 <SID_EXCEP_04_EQZ_PASSING_AND_stack+0x44b99>
    41015768:	00d31313          	slli	x6,x6,0xd
    4101576c:	00830313          	addi	x6,x6,8
    41015770:	00033a83          	ld	x21,0(x6)
    41015774:	000a8067          	jr	x21

0000000041015778 <SID_EXCEP_04_EQZ_FAILING_XOR_passed>:
    41015778:	00f00f9b          	addiw	x31,x0,15
    4101577c:	01cf9f93          	slli	x31,x31,0x1c
    41015780:	001f8f93          	addi	x31,x31,1
    41015784:	00000073          	ecall

0000000041015788 <SID_EXCEP_04_NEZ_PASSING_AND>:
    41015788:	00102137          	lui	x2,0x102
    4101578c:	2711011b          	addiw	x2,x2,625 # 102271 <SID_EXCEP_04_2_1_MUX_SELECT_0_stack+0x40271>
    41015790:	00c11113          	slli	x2,x2,0xc
    41015794:	000012b7          	lui	x5,0x1
    41015798:	00510133          	add	x2,x2,x5
    4101579c:	ff017113          	andi	x2,x2,-16
    410157a0:	0f000f93          	li	x31,240
    410157a4:	0aa00e93          	li	x29,170
    410157a8:	00100b13          	li	x22,1
    410157ac:	01dff533          	and	x10,x31,x29
    410157b0:	0f657c33          	czero.nez	x24,x10,x22
    410157b4:	00000513          	li	x10,0
    410157b8:	00ac0e63          	beq	x24,x10,410157d4 <SID_EXCEP_04_NEZ_PASSING_AND_passed>
    410157bc:	0008cd37          	lui	x26,0x8c
    410157c0:	b99d0d1b          	addiw	x26,x26,-1127 # 8bb99 <SID_EXCEP_04_EQZ_PASSING_AND_stack+0x44b99>
    410157c4:	00dd1d13          	slli	x26,x26,0xd
    410157c8:	008d0d13          	addi	x26,x26,8
    410157cc:	000d3683          	ld	x13,0(x26)
    410157d0:	00068067          	jr	x13

00000000410157d4 <SID_EXCEP_04_NEZ_PASSING_AND_passed>:
    410157d4:	00f00f9b          	addiw	x31,x0,15
    410157d8:	01cf9f93          	slli	x31,x31,0x1c
    410157dc:	001f8f93          	addi	x31,x31,1
    410157e0:	00000073          	ecall

00000000410157e4 <SID_EXCEP_04_NEZ_FAILING_AND>:
    410157e4:	01f89137          	lui	x2,0x1f89
    410157e8:	4151011b          	addiw	x2,x2,1045 # 1f89415 <SID_EXCEP_01_EQZ_RS1_NZ_stack+0x7db415>
    410157ec:	00c11113          	slli	x2,x2,0xc
    410157f0:	000012b7          	lui	x5,0x1
    410157f4:	00510133          	add	x2,x2,x5
    410157f8:	ff017113          	andi	x2,x2,-16
    410157fc:	0f000993          	li	x19,240
    41015800:	0aa00393          	li	x7,170
    41015804:	00000b93          	li	x23,0
    41015808:	0079f933          	and	x18,x19,x7
    4101580c:	0f797e33          	czero.nez	x28,x18,x23
    41015810:	0a000d93          	li	x27,160
    41015814:	01be0e63          	beq	x28,x27,41015830 <SID_EXCEP_04_NEZ_FAILING_AND_passed>
    41015818:	0008c6b7          	lui	x13,0x8c
    4101581c:	b996869b          	addiw	x13,x13,-1127 # 8bb99 <SID_EXCEP_04_EQZ_PASSING_AND_stack+0x44b99>
    41015820:	00d69693          	slli	x13,x13,0xd
    41015824:	00868693          	addi	x13,x13,8
    41015828:	0006be83          	ld	x29,0(x13)
    4101582c:	000e8067          	jr	x29

0000000041015830 <SID_EXCEP_04_NEZ_FAILING_AND_passed>:
    41015830:	00f00f9b          	addiw	x31,x0,15
    41015834:	01cf9f93          	slli	x31,x31,0x1c
    41015838:	001f8f93          	addi	x31,x31,1
    4101583c:	00000073          	ecall

0000000041015840 <SID_EXCEP_04_NEZ_PASSING_XOR>:
    41015840:	0f24d137          	lui	x2,0xf24d
    41015844:	000012b7          	lui	x5,0x1
    41015848:	00510133          	add	x2,x2,x5
    4101584c:	ff017113          	andi	x2,x2,-16
    41015850:	0f000993          	li	x19,240
    41015854:	0aa00b13          	li	x22,170
    41015858:	00100893          	li	x17,1
    4101585c:	0169cab3          	xor	x21,x19,x22
    41015860:	0f1af933          	czero.nez	x18,x21,x17
    41015864:	00000313          	li	x6,0
    41015868:	00690e63          	beq	x18,x6,41015884 <SID_EXCEP_04_NEZ_PASSING_XOR_passed>
    4101586c:	0008ceb7          	lui	x29,0x8c
    41015870:	b99e8e9b          	addiw	x29,x29,-1127 # 8bb99 <SID_EXCEP_04_EQZ_PASSING_AND_stack+0x44b99>
    41015874:	00de9e93          	slli	x29,x29,0xd
    41015878:	008e8e93          	addi	x29,x29,8
    4101587c:	000ebf03          	ld	x30,0(x29)
    41015880:	000f0067          	jr	x30

0000000041015884 <SID_EXCEP_04_NEZ_PASSING_XOR_passed>:
    41015884:	00f00f9b          	addiw	x31,x0,15
    41015888:	01cf9f93          	slli	x31,x31,0x1c
    4101588c:	001f8f93          	addi	x31,x31,1
    41015890:	00000073          	ecall

0000000041015894 <SID_EXCEP_04_NEZ_FAILING_XOR>:
    41015894:	00004137          	lui	x2,0x4
    41015898:	000012b7          	lui	x5,0x1
    4101589c:	00510133          	add	x2,x2,x5
    410158a0:	ff017113          	andi	x2,x2,-16
    410158a4:	0f000c93          	li	x25,240
    410158a8:	0aa00d13          	li	x26,170
    410158ac:	00000813          	li	x16,0
    410158b0:	01accab3          	xor	x21,x25,x26
    410158b4:	0f0afeb3          	czero.nez	x29,x21,x16
    410158b8:	05a00313          	li	x6,90
    410158bc:	006e8e63          	beq	x29,x6,410158d8 <SID_EXCEP_04_NEZ_FAILING_XOR_passed>
    410158c0:	0008c337          	lui	x6,0x8c
    410158c4:	b993031b          	addiw	x6,x6,-1127 # 8bb99 <SID_EXCEP_04_EQZ_PASSING_AND_stack+0x44b99>
    410158c8:	00d31313          	slli	x6,x6,0xd
    410158cc:	00830313          	addi	x6,x6,8
    410158d0:	00033703          	ld	x14,0(x6)
    410158d4:	00070067          	jr	x14

00000000410158d8 <SID_EXCEP_04_NEZ_FAILING_XOR_passed>:
    410158d8:	00f00f9b          	addiw	x31,x0,15
    410158dc:	01cf9f93          	slli	x31,x31,0x1c
    410158e0:	001f8f93          	addi	x31,x31,1
    410158e4:	00000073          	ecall

00000000410158e8 <SID_EXCEP_04_2_1_MUX_SELECT_0>:
    410158e8:	000c2137          	lui	x2,0xc2
    410158ec:	000012b7          	lui	x5,0x1
    410158f0:	00510133          	add	x2,x2,x5
    410158f4:	ff017113          	andi	x2,x2,-16
    410158f8:	0000ed37          	lui	x26,0xe
    410158fc:	eadd0d1b          	addiw	x26,x26,-339 # dead <SID_EXCEP_04_NEZ_FAILING_XOR_stack+0x9ead>
    41015900:	0000c5b7          	lui	x11,0xc
    41015904:	eef5859b          	addiw	x11,x11,-273 # beef <SID_EXCEP_04_NEZ_FAILING_XOR_stack+0x7eef>
    41015908:	00000c13          	li	x24,0
    4101590c:	0f8d7db3          	czero.nez	x27,x26,x24
    41015910:	0f85d633          	czero.eqz	x12,x11,x24
    41015914:	00cde433          	or	x8,x27,x12
    41015918:	0000eeb7          	lui	x29,0xe
    4101591c:	eade8e9b          	addiw	x29,x29,-339 # dead <SID_EXCEP_04_NEZ_FAILING_XOR_stack+0x9ead>
    41015920:	01d40e63          	beq	x8,x29,4101593c <SID_EXCEP_04_2_1_MUX_SELECT_0_passed>
    41015924:	0008ceb7          	lui	x29,0x8c
    41015928:	b99e8e9b          	addiw	x29,x29,-1127 # 8bb99 <SID_EXCEP_04_EQZ_PASSING_AND_stack+0x44b99>
    4101592c:	00de9e93          	slli	x29,x29,0xd
    41015930:	008e8e93          	addi	x29,x29,8
    41015934:	000eb883          	ld	x17,0(x29)
    41015938:	00088067          	jr	x17

000000004101593c <SID_EXCEP_04_2_1_MUX_SELECT_0_passed>:
    4101593c:	00f00f9b          	addiw	x31,x0,15
    41015940:	01cf9f93          	slli	x31,x31,0x1c
    41015944:	001f8f93          	addi	x31,x31,1
    41015948:	00000073          	ecall

000000004101594c <SID_EXCEP_04_2_1_MUX_SELECT_1>:
    4101594c:	00002137          	lui	x2,0x2
    41015950:	000012b7          	lui	x5,0x1
    41015954:	00510133          	add	x2,x2,x5
    41015958:	ff017113          	andi	x2,x2,-16
    4101595c:	0000e3b7          	lui	x7,0xe
    41015960:	ead3839b          	addiw	x7,x7,-339 # dead <SID_EXCEP_04_NEZ_FAILING_XOR_stack+0x9ead>
    41015964:	0000ce37          	lui	x28,0xc
    41015968:	eefe0e1b          	addiw	x28,x28,-273 # beef <SID_EXCEP_04_NEZ_FAILING_XOR_stack+0x7eef>
    4101596c:	00100493          	li	x9,1
    41015970:	0e93f533          	czero.nez	x10,x7,x9
    41015974:	0e9e5333          	czero.eqz	x6,x28,x9
    41015978:	00656c33          	or	x24,x10,x6
    4101597c:	0000c437          	lui	x8,0xc
    41015980:	eef4041b          	addiw	x8,x8,-273 # beef <SID_EXCEP_04_NEZ_FAILING_XOR_stack+0x7eef>
    41015984:	008c0e63          	beq	x24,x8,410159a0 <SID_EXCEP_04_2_1_MUX_SELECT_1_passed>
    41015988:	0008cc37          	lui	x24,0x8c
    4101598c:	b99c0c1b          	addiw	x24,x24,-1127 # 8bb99 <SID_EXCEP_04_EQZ_PASSING_AND_stack+0x44b99>
    41015990:	00dc1c13          	slli	x24,x24,0xd
    41015994:	008c0c13          	addi	x24,x24,8
    41015998:	000c3403          	ld	x8,0(x24)
    4101599c:	00040067          	jr	x8

00000000410159a0 <SID_EXCEP_04_2_1_MUX_SELECT_1_passed>:
    410159a0:	00f00f9b          	addiw	x31,x0,15
    410159a4:	01cf9f93          	slli	x31,x31,0x1c
    410159a8:	001f8f93          	addi	x31,x31,1
    410159ac:	00000073          	ecall

00000000410159b0 <test_cleanup>:
    410159b0:	00f00f9b          	addiw	x31,x0,15
    410159b4:	01cf9f93          	slli	x31,x31,0x1c
    410159b8:	001f8f93          	addi	x31,x31,1
    410159bc:	00000073          	ecall

00000000410159c0 <local_test_failed>:
    410159c0:	00f00f9b          	addiw	x31,x0,15
    410159c4:	01cf9f93          	slli	x31,x31,0x1c
    410159c8:	002f8f93          	addi	x31,x31,2
    410159cc:	00000073          	ecall

Disassembly of section .csr_machine_0:

0000000041215000 <csr_access_mstatus_machine_key_3_set-0x30>:
    41215000:	434d4fb7          	lui	x31,0x434d4
    41215004:	0a0f8f9b          	addiw	x31,x31,160 # 434d40a0 <machine_csr_jump_table_flags_pa>
    41215008:	000fbf83          	ld	x31,0(x31)
    4121500c:	00300293          	li	x5,3
    41215010:	025f8063          	beq	x31,x5,41215030 <csr_access_mstatus_machine_key_3_set>
    41215014:	00100293          	li	x5,1
    41215018:	025f8063          	beq	x31,x5,41215038 <csr_access_mstatus_machine_key_1_clear>
    4121501c:	00600293          	li	x5,6
    41215020:	025f8063          	beq	x31,x5,41215040 <csr_access_mtvec_machine_key_6_set>
    41215024:	00500293          	li	x5,5
    41215028:	025f8063          	beq	x31,x5,41215048 <csr_access_mtvec_machine_key_5_clear>
    4121502c:	0240006f          	j	41215050 <end_machine_label>

0000000041215030 <csr_access_mstatus_machine_key_3_set>:
    41215030:	3003a073          	csrs	mstatus,x7
    41215034:	01c0006f          	j	41215050 <end_machine_label>

0000000041215038 <csr_access_mstatus_machine_key_1_clear>:
    41215038:	3003b073          	csrc	mstatus,x7
    4121503c:	0140006f          	j	41215050 <end_machine_label>

0000000041215040 <csr_access_mtvec_machine_key_6_set>:
    41215040:	3053a073          	csrs	mtvec,x7
    41215044:	00c0006f          	j	41215050 <end_machine_label>

0000000041215048 <csr_access_mtvec_machine_key_5_clear>:
    41215048:	3053b073          	csrc	mtvec,x7
    4121504c:	0040006f          	j	41215050 <end_machine_label>

0000000041215050 <end_machine_label>:
    41215050:	000f0fb7          	lui	x31,0xf0
    41215054:	001f8f9b          	addiw	x31,x31,1 # f0001 <SID_EXCEP_04_2_1_MUX_SELECT_0_stack+0x2e001>
    41215058:	00cf9f93          	slli	x31,x31,0xc
    4121505c:	004f8f93          	addi	x31,x31,4
    41215060:	00000073          	ecall

Disassembly of section .csr_super_0:

0000000041216000 <csr_access_sstatus_supervisor_key_4_set-0x38>:
    41216000:	0008cfb7          	lui	x31,0x8c
    41216004:	b99f8f9b          	addiw	x31,x31,-1127 # 8bb99 <SID_EXCEP_04_EQZ_PASSING_AND_stack+0x44b99>
    41216008:	00df9f93          	slli	x31,x31,0xd
    4121600c:	0a8f8f93          	addi	x31,x31,168
    41216010:	000fbf83          	ld	x31,0(x31)
    41216014:	00400293          	li	x5,4
    41216018:	025f8063          	beq	x31,x5,41216038 <csr_access_sstatus_supervisor_key_4_set>
    4121601c:	00200293          	li	x5,2
    41216020:	025f8063          	beq	x31,x5,41216040 <csr_access_sstatus_supervisor_key_2_clear>
    41216024:	00800293          	li	x5,8
    41216028:	025f8063          	beq	x31,x5,41216048 <csr_access_stvec_supervisor_key_8_set>
    4121602c:	00700293          	li	x5,7
    41216030:	025f8063          	beq	x31,x5,41216050 <csr_access_stvec_supervisor_key_7_clear>
    41216034:	0240006f          	j	41216058 <end_super_label>

0000000041216038 <csr_access_sstatus_supervisor_key_4_set>:
    41216038:	1003a073          	csrs	sstatus,x7
    4121603c:	01c0006f          	j	41216058 <end_super_label>

0000000041216040 <csr_access_sstatus_supervisor_key_2_clear>:
    41216040:	1003b073          	csrc	sstatus,x7
    41216044:	0140006f          	j	41216058 <end_super_label>

0000000041216048 <csr_access_stvec_supervisor_key_8_set>:
    41216048:	1053a073          	csrs	stvec,x7
    4121604c:	00c0006f          	j	41216058 <end_super_label>

0000000041216050 <csr_access_stvec_supervisor_key_7_clear>:
    41216050:	1053b073          	csrc	stvec,x7
    41216054:	0040006f          	j	41216058 <end_super_label>

0000000041216058 <end_super_label>:
    41216058:	000f0fb7          	lui	x31,0xf0
    4121605c:	001f8f9b          	addiw	x31,x31,1 # f0001 <SID_EXCEP_04_2_1_MUX_SELECT_0_stack+0x2e001>
    41216060:	00cf9f93          	slli	x31,x31,0xc
    41216064:	004f8f93          	addi	x31,x31,4
    41216068:	00000073          	ecall

Disassembly of section .os_data:

0000000117732000 <passed_addr_ptr>:
   117732000:	5070                	.insn	2, 0x5070
   117732002:	4101                	.insn	2, 0x4101
   117732004:	0000                	.insn	2, 0x0000
	...

0000000117732008 <failed_addr_ptr>:
   117732008:	5080                	.insn	2, 0x5080
   11773200a:	4101                	.insn	2, 0x4101
   11773200c:	0000                	.insn	2, 0x0000
	...

0000000117732010 <end_test_addr_ptr>:
   117732010:	5090                	.insn	2, 0x5090
   117732012:	4101                	.insn	2, 0x4101
   117732014:	0000                	.insn	2, 0x0000
	...

0000000117732018 <os_passed_addr_ptr>:
   117732018:	07b0                	.insn	2, 0x07b0
   11773201a:	4100                	.insn	2, 0x4100
   11773201c:	0000                	.insn	2, 0x0000
	...

0000000117732020 <os_failed_addr_ptr>:
   117732020:	07c0                	.insn	2, 0x07c0
   117732022:	4100                	.insn	2, 0x4100
   117732024:	0000                	.insn	2, 0x0000
	...

0000000117732028 <os_end_test_addr_ptr>:
   117732028:	07cc                	.insn	2, 0x07cc
   11773202a:	4100                	.insn	2, 0x4100
   11773202c:	0000                	.insn	2, 0x0000
	...

0000000117732030 <rvcp_prefix_str_data>:
   117732030:	5652                	.insn	2, 0x5652
   117732032:	203a5043          	fmadd.s	f0,f20,f3,f4,unknown
   117732036:	6554                	.insn	2, 0x6554
   117732038:	46207473          	csrrci	x8,0x462,0
   11773203c:	6c69                	.insn	2, 0x6c69
   11773203e:	2065                	.insn	2, 0x2065
	...

0000000117732041 <rvcp_testname_str_data>:
   117732041:	7074                	.insn	2, 0x7074
   117732043:	7a5f 6369 6e6f      	.insn	6, 0x6e6f63697a5f
   117732049:	5f64                	.insn	2, 0x5f64
   11773204b:	0031                	.insn	2, 0x0031

000000011773204d <rvcp_passed_str_data>:
   11773204d:	4150                	.insn	2, 0x4150
   11773204f:	44455353          	fround.h	f6,f10,unknown
	...

0000000117732054 <rvcp_failed_str_data>:
   117732054:	4146                	.insn	2, 0x4146
   117732056:	4c49                	.insn	2, 0x4c49
   117732058:	4445                	.insn	2, 0x4445
	...

000000011773205b <rvcp_space_str_data>:
   11773205b:	0020                	.insn	2, 0x0020

000000011773205d <rvcp_newline_str_data>:
   11773205d:	000a                	.insn	2, 0x000a
	...

0000000117732060 <excp_ignored_count_mem>:
	...

0000000117732068 <machine_flags_mem>:
	...

0000000117732070 <user_flags_mem>:
	...

0000000117732078 <super_flags_mem>:
	...

0000000117732080 <machine_area_mem>:
	...

0000000117732088 <user_area_mem>:
	...

0000000117732090 <super_area_mem>:
	...

0000000117732098 <zero_data_mem>:
	...

00000001177320a0 <machine_csr_jump_table_flags_mem>:
	...

00000001177320a8 <super_csr_jump_table_flags_mem>:
	...

00000001177320b0 <pte_access_flags_mem>:
	...

00000001177320c8 <num_harts_ended_mem>:
	...

00000001177320d0 <num_hard_fails_mem>:
	...

Disassembly of section .hart_context:

000000010468c000 <hart_context_0>:
   10468c000:	6000                	.insn	2, 0x6000
   10468c002:	7b2d                	.insn	2, 0x7b2d
	...
   10468c018:	0001                	.insn	2, 0x0001
   10468c01a:	0000                	.insn	2, 0x0000
   10468c01c:	0000                	.insn	2, 0x0000
   10468c01e:	0000                	.insn	2, 0x0000
   10468c020:	ffff                	.insn	2, 0xffff
   10468c022:	ffff                	.insn	2, 0xffff
   10468c024:	ffff                	.insn	2, 0xffff
   10468c026:	ffff                	.insn	2, 0xffff
   10468c028:	ffff                	.insn	2, 0xffff
   10468c02a:	ffff                	.insn	2, 0xffff
   10468c02c:	ffff                	.insn	2, 0xffff
   10468c02e:	ffff                	.insn	2, 0xffff
   10468c030:	ffff                	.insn	2, 0xffff
   10468c032:	ffff                	.insn	2, 0xffff
   10468c034:	ffff                	.insn	2, 0xffff
   10468c036:	ffff                	.insn	2, 0xffff
	...
   10468c050:	00ff 0000 0000 0000 	.insn	10, 0x00ff00000000000000ff
   10468c058:	00ff 
	...
   10468c176:	0000                	.insn	2, 0x0000
   10468c178:	ffff                	.insn	2, 0xffff
   10468c17a:	ffff                	.insn	2, 0xffff
   10468c17c:	ffff                	.insn	2, 0xffff
   10468c17e:	ffff                	.insn	2, 0xffff
	...
   10468c188:	ffff                	.insn	2, 0xffff
   10468c18a:	ffff                	.insn	2, 0xffff
	...

Disassembly of section .hart_stack_0:

000000007b2d5000 <hart_stack_0>:
	...

Disassembly of section .io_htif:

0000000041040000 <tohost>:
	...

0000000041040040 <fromhost>:
	...

Disassembly of section .tp_csr_storage:

0000000000b09000 <.tp_csr_storage>:
  b09000:	c0de                	.insn	2, 0xc0de
  b09002:	c001                	.insn	2, 0xc001
  b09004:	0000                	.insn	2, 0x0000
	...

Disassembly of section .SID_EXCEP_01_EQZ_RS1_NZ_stack:

00000000017ae000 <.SID_EXCEP_01_EQZ_RS1_NZ_stack>:
 17ae000:	c0de                	.insn	2, 0xc0de
 17ae002:	c001                	.insn	2, 0xc001
 17ae004:	0000                	.insn	2, 0x0000
	...

Disassembly of section .SID_EXCEP_01_EQZ_RS1_Z_stack:

0000000000018000 <.SID_EXCEP_01_EQZ_RS1_Z_stack>:
   18000:	c0de                	.insn	2, 0xc0de
   18002:	c001                	.insn	2, 0xc001
   18004:	0000                	.insn	2, 0x0000
	...

Disassembly of section .SID_EXCEP_01_NEZ_RS1_NZ_stack:

000000001b899000 <.SID_EXCEP_01_NEZ_RS1_NZ_stack>:
    1b899000:	c0de                	.insn	2, 0xc0de
    1b899002:	c001                	.insn	2, 0xc001
    1b899004:	0000                	.insn	2, 0x0000
	...

Disassembly of section .SID_EXCEP_01_NEZ_RS1_Z_stack:

0000000084607000 <.SID_EXCEP_01_NEZ_RS1_Z_stack>:
    84607000:	c0de                	.insn	2, 0xc0de
    84607002:	c001                	.insn	2, 0xc001
    84607004:	0000                	.insn	2, 0x0000
	...

Disassembly of section .SID_EXCEP_02_EQZ_RS1_NZ_stack:

0000000014b97000 <.SID_EXCEP_02_EQZ_RS1_NZ_stack>:
    14b97000:	c0de                	.insn	2, 0xc0de
    14b97002:	c001                	.insn	2, 0xc001
    14b97004:	0000                	.insn	2, 0x0000
	...

Disassembly of section .SID_EXCEP_02_EQZ_RS1_Z_stack:

000000007f0aa000 <.SID_EXCEP_02_EQZ_RS1_Z_stack>:
    7f0aa000:	c0de                	.insn	2, 0xc0de
    7f0aa002:	c001                	.insn	2, 0xc001
    7f0aa004:	0000                	.insn	2, 0x0000
	...

Disassembly of section .SID_EXCEP_02_NEZ_RS1_Z_stack:

0000000000110000 <.SID_EXCEP_02_NEZ_RS1_Z_stack>:
  110000:	c0de                	.insn	2, 0xc0de
  110002:	c001                	.insn	2, 0xc001
  110004:	0000                	.insn	2, 0x0000
	...

Disassembly of section .SID_EXCEP_02_NEZ_RS1_NZ_stack:

0000000585da8000 <.SID_EXCEP_02_NEZ_RS1_NZ_stack>:
   585da8000:	c0de                	.insn	2, 0xc0de
   585da8002:	c001                	.insn	2, 0xc001
   585da8004:	0000                	.insn	2, 0x0000
	...

Disassembly of section .SID_EXCEP_04_EQZ_PASSING_ADD_stack:

00000000809d3000 <.SID_EXCEP_04_EQZ_PASSING_ADD_stack>:
    809d3000:	c0de                	.insn	2, 0xc0de
    809d3002:	c001                	.insn	2, 0xc001
    809d3004:	0000                	.insn	2, 0x0000
	...

Disassembly of section .SID_EXCEP_04_EQZ_FAILING_ADD_stack:

0000000e832de000 <.SID_EXCEP_04_EQZ_FAILING_ADD_stack>:
   e832de000:	c0de                	.insn	2, 0xc0de
   e832de002:	c001                	.insn	2, 0xc001
   e832de004:	0000                	.insn	2, 0x0000
	...

Disassembly of section .SID_EXCEP_04_NEZ_PASSING_SUB_stack:

000000000013e000 <.SID_EXCEP_04_NEZ_PASSING_SUB_stack>:
  13e000:	c0de                	.insn	2, 0xc0de
  13e002:	c001                	.insn	2, 0xc001
  13e004:	0000                	.insn	2, 0x0000
	...

Disassembly of section .SID_EXCEP_04_NEZ_FAILING_SUB_stack:

000000000f200000 <.SID_EXCEP_04_NEZ_FAILING_SUB_stack>:
 f200000:	c0de                	.insn	2, 0xc0de
 f200002:	c001                	.insn	2, 0xc001
 f200004:	0000                	.insn	2, 0x0000
	...

Disassembly of section .SID_EXCEP_04_EQZ_PASSING_SUB_stack:

00000000263ff000 <.SID_EXCEP_04_EQZ_PASSING_SUB_stack>:
    263ff000:	c0de                	.insn	2, 0xc0de
    263ff002:	c001                	.insn	2, 0xc001
    263ff004:	0000                	.insn	2, 0x0000
	...

Disassembly of section .SID_EXCEP_04_EQZ_FAILING_SUB_stack:

000000002e5ee000 <.SID_EXCEP_04_EQZ_FAILING_SUB_stack>:
    2e5ee000:	c0de                	.insn	2, 0xc0de
    2e5ee002:	c001                	.insn	2, 0xc001
    2e5ee004:	0000                	.insn	2, 0x0000
	...

Disassembly of section .SID_EXCEP_04_NEZ_PASSING_ADD_stack:

00000000011ec000 <.SID_EXCEP_04_NEZ_PASSING_ADD_stack>:
 11ec000:	c0de                	.insn	2, 0xc0de
 11ec002:	c001                	.insn	2, 0xc001
 11ec004:	0000                	.insn	2, 0x0000
	...

Disassembly of section .SID_EXCEP_04_NEZ_FAILING_ADD_stack:

000000372c572000 <.SID_EXCEP_04_NEZ_FAILING_ADD_stack>:
  372c572000:	c0de                	.insn	2, 0xc0de
  372c572002:	c001                	.insn	2, 0xc001
  372c572004:	0000                	.insn	2, 0x0000
	...

Disassembly of section .SID_EXCEP_04_EQZ_PASSING_AND_stack:

0000000000047000 <.SID_EXCEP_04_EQZ_PASSING_AND_stack>:
   47000:	c0de                	.insn	2, 0xc0de
   47002:	c001                	.insn	2, 0xc001
   47004:	0000                	.insn	2, 0x0000
	...

Disassembly of section .SID_EXCEP_04_EQZ_FAILING_AND_stack:

000000028a1d6000 <.SID_EXCEP_04_EQZ_FAILING_AND_stack>:
   28a1d6000:	c0de                	.insn	2, 0xc0de
   28a1d6002:	c001                	.insn	2, 0xc001
   28a1d6004:	0000                	.insn	2, 0x0000
	...

Disassembly of section .SID_EXCEP_04_EQZ_PASSING_XOR_stack:

00000018d103e000 <.SID_EXCEP_04_EQZ_PASSING_XOR_stack>:
  18d103e000:	c0de                	.insn	2, 0xc0de
  18d103e002:	c001                	.insn	2, 0xc001
  18d103e004:	0000                	.insn	2, 0x0000
	...

Disassembly of section .SID_EXCEP_04_EQZ_FAILING_XOR_stack:

ffffffc39603f000 <.SID_EXCEP_04_EQZ_FAILING_XOR_stack>:
ffffffc39603f000:	c0de                	.insn	2, 0xc0de
ffffffc39603f002:	c001                	.insn	2, 0xc001
ffffffc39603f004:	0000                	.insn	2, 0x0000
	...

Disassembly of section .SID_EXCEP_04_NEZ_PASSING_AND_stack:

0000000102271000 <.SID_EXCEP_04_NEZ_PASSING_AND_stack>:
   102271000:	c0de                	.insn	2, 0xc0de
   102271002:	c001                	.insn	2, 0xc001
   102271004:	0000                	.insn	2, 0x0000
	...

Disassembly of section .SID_EXCEP_04_NEZ_FAILING_AND_stack:

0000001f89415000 <.SID_EXCEP_04_NEZ_FAILING_AND_stack>:
  1f89415000:	c0de                	.insn	2, 0xc0de
  1f89415002:	c001                	.insn	2, 0xc001
  1f89415004:	0000                	.insn	2, 0x0000
	...

Disassembly of section .SID_EXCEP_04_NEZ_PASSING_XOR_stack:

000000000f24d000 <.SID_EXCEP_04_NEZ_PASSING_XOR_stack>:
 f24d000:	c0de                	.insn	2, 0xc0de
 f24d002:	c001                	.insn	2, 0xc001
 f24d004:	0000                	.insn	2, 0x0000
	...

Disassembly of section .SID_EXCEP_04_NEZ_FAILING_XOR_stack:

0000000000004000 <.SID_EXCEP_04_NEZ_FAILING_XOR_stack>:
    4000:	c0de                	.insn	2, 0xc0de
    4002:	c001                	.insn	2, 0xc001
    4004:	0000                	.insn	2, 0x0000
	...

Disassembly of section .SID_EXCEP_04_2_1_MUX_SELECT_0_stack:

00000000000c2000 <.SID_EXCEP_04_2_1_MUX_SELECT_0_stack>:
   c2000:	c0de                	.insn	2, 0xc0de
   c2002:	c001                	.insn	2, 0xc001
   c2004:	0000                	.insn	2, 0x0000
	...

Disassembly of section .SID_EXCEP_04_2_1_MUX_SELECT_1_stack:

0000000000002000 <.SID_EXCEP_04_2_1_MUX_SELECT_1_stack>:
    2000:	c0de                	.insn	2, 0xc0de
    2002:	c001                	.insn	2, 0xc001
    2004:	0000                	.insn	2, 0x0000
	...

Disassembly of section .__pagetable_map_os_0x0000000044a66000:

0000000044a66000 <__pagetable_map_os_0x0000000044a66000>:
    44a66000:	5c01                	.insn	2, 0x5c01
    44a66002:	0000113b          	sllw	x2,x0,x0
    44a66006:	0000                	.insn	2, 0x0000
    44a66008:	f401                	.insn	2, 0xf401
    44a6600a:	1129                	.insn	2, 0x1129
    44a6600c:	0000                	.insn	2, 0x0000
    44a6600e:	0000                	.insn	2, 0x0000
    44a66010:	a801                	.insn	2, 0xa801
    44a66012:	1129                	.insn	2, 0x1129
	...
    44a66020:	f001                	.insn	2, 0xf001
    44a66022:	112c                	.insn	2, 0x112c
	...
    44a66050:	7001                	.insn	2, 0x7001
    44a66052:	112c                	.insn	2, 0x112c
	...
    44a660b0:	e801                	.insn	2, 0xe801
    44a660b2:	1112                	.insn	2, 0x1112
	...
    44a661d0:	2001                	.insn	2, 0x2001
    44a661d2:	112d                	.insn	2, 0x112d
	...
    44a66318:	3c01                	.insn	2, 0x3c01
    44a6631a:	00001067          	.insn	4, 0x1067
	...
    44a663ee:	0000                	.insn	2, 0x0000
    44a663f0:	1801                	.insn	2, 0x1801
    44a663f2:	10d4                	.insn	2, 0x10d4
	...
    44a666e0:	4801                	.insn	2, 0x4801
    44a666e2:	112a                	.insn	2, 0x112a
	...
    44a66870:	2001                	.insn	2, 0x2001
    44a66872:	10d6                	.insn	2, 0x10d6
    44a66874:	0000                	.insn	2, 0x0000
	...

Disassembly of section .__pagetable_map_os_0x0000000044a7d000:

0000000044a7d000 <__pagetable_map_os_0x0000000044a7d000>:
	...
    44a7d040:	3c01                	.insn	2, 0x3c01
    44a7d042:	1055                	.insn	2, 0x1055
    44a7d044:	0000                	.insn	2, 0x0000
    44a7d046:	0000                	.insn	2, 0x0000
    44a7d048:	4401                	.insn	2, 0x4401
    44a7d04a:	1112                	.insn	2, 0x1112
	...
    44a7d128:	cc01                	.insn	2, 0xcc01
    44a7d12a:	1066                	.insn	2, 0x1066
	...
    44a7d650:	e001                	.insn	2, 0xe001
    44a7d652:	10a9                	.insn	2, 0x10a9
	...
    44a7dec8:	1c01                	.insn	2, 0x1c01
    44a7deca:	112d                	.insn	2, 0x112d
	...
    44a7dfc0:	6c01                	.insn	2, 0x6c01
    44a7dfc2:	104e                	.insn	2, 0x104e
    44a7dfc4:	0000                	.insn	2, 0x0000
	...

Disassembly of section .__pagetable_map_os_0x000000004154f000:

000000004154f000 <__pagetable_map_os_0x000000004154f000>:
	...
    4154f080:	40df 1040 0000      	.insn	6, 0x104040df
    4154f086:	0000                	.insn	2, 0x0000
    4154f088:	104044cf          	fnmadd.s	f9,f0,f4,f2,rmm
    4154f08c:	0000                	.insn	2, 0x0000
    4154f08e:	0000                	.insn	2, 0x0000
    4154f090:	104048cf          	fnmadd.s	f17,f0,f4,f2,rmm
    4154f094:	0000                	.insn	2, 0x0000
    4154f096:	0000                	.insn	2, 0x0000
    4154f098:	10404ccf          	fnmadd.s	f25,f0,f4,f2,rmm
    4154f09c:	0000                	.insn	2, 0x0000
    4154f09e:	0000                	.insn	2, 0x0000
    4154f0a0:	104050cf          	fnmadd.s	f1,f0,f4,f2,unknown
    4154f0a4:	0000                	.insn	2, 0x0000
    4154f0a6:	0000                	.insn	2, 0x0000
    4154f0a8:	00df 1058 0000      	.insn	6, 0x105800df
    4154f0ae:	0000                	.insn	2, 0x0000
    4154f0b0:	04df 1058 0000      	.insn	6, 0x105804df
    4154f0b6:	0000                	.insn	2, 0x0000
    4154f0b8:	08df 1058 0000      	.insn	6, 0x105808df
    4154f0be:	0000                	.insn	2, 0x0000
    4154f0c0:	0cdf 1058 0000      	.insn	6, 0x10580cdf
    4154f0c6:	0000                	.insn	2, 0x0000
    4154f0c8:	10df 1058 0000      	.insn	6, 0x105810df
    4154f0ce:	0000                	.insn	2, 0x0000
    4154f0d0:	14df 1058 0000      	.insn	6, 0x105814df
    4154f0d6:	0000                	.insn	2, 0x0000
    4154f0d8:	18df 1058 0000      	.insn	6, 0x105818df
    4154f0de:	0000                	.insn	2, 0x0000
    4154f0e0:	1cdf 1058 0000      	.insn	6, 0x10581cdf
    4154f0e6:	0000                	.insn	2, 0x0000
    4154f0e8:	20df 1058 0000      	.insn	6, 0x105820df
    4154f0ee:	0000                	.insn	2, 0x0000
    4154f0f0:	24df 1058 0000      	.insn	6, 0x105824df
    4154f0f6:	0000                	.insn	2, 0x0000
    4154f0f8:	28df 1058 0000      	.insn	6, 0x105828df
    4154f0fe:	0000                	.insn	2, 0x0000
    4154f100:	2cdf 1058 0000      	.insn	6, 0x10582cdf
    4154f106:	0000                	.insn	2, 0x0000
    4154f108:	30df 1058 0000      	.insn	6, 0x105830df
    4154f10e:	0000                	.insn	2, 0x0000
    4154f110:	34df 1058 0000      	.insn	6, 0x105834df
    4154f116:	0000                	.insn	2, 0x0000
    4154f118:	38df 1058 0000      	.insn	6, 0x105838df
    4154f11e:	0000                	.insn	2, 0x0000
    4154f120:	3cdf 1058 0000      	.insn	6, 0x10583cdf
    4154f126:	0000                	.insn	2, 0x0000
    4154f128:	40df 1058 0000      	.insn	6, 0x105840df
    4154f12e:	0000                	.insn	2, 0x0000
    4154f130:	44df 1058 0000      	.insn	6, 0x105844df
    4154f136:	0000                	.insn	2, 0x0000
    4154f138:	48df 1058 0000      	.insn	6, 0x105848df
    4154f13e:	0000                	.insn	2, 0x0000
    4154f140:	4cdf 1058 0000      	.insn	6, 0x10584cdf
    4154f146:	0000                	.insn	2, 0x0000
    4154f148:	50df 1058 0000      	.insn	6, 0x105850df
    4154f14e:	0000                	.insn	2, 0x0000
    4154f150:	54df 1058 0000      	.insn	6, 0x105854df
    4154f156:	0000                	.insn	2, 0x0000
    4154f158:	58df 1058 0000      	.insn	6, 0x105858df
    4154f15e:	0000                	.insn	2, 0x0000
    4154f160:	5cdf 1058 0000      	.insn	6, 0x10585cdf
    4154f166:	0000                	.insn	2, 0x0000
    4154f168:	60df 1058 0000      	.insn	6, 0x105860df
    4154f16e:	0000                	.insn	2, 0x0000
    4154f170:	64df 1058 0000      	.insn	6, 0x105864df
    4154f176:	0000                	.insn	2, 0x0000
    4154f178:	68df 1058 0000      	.insn	6, 0x105868df
    4154f17e:	0000                	.insn	2, 0x0000
    4154f180:	6cdf 1058 0000      	.insn	6, 0x10586cdf
    4154f186:	0000                	.insn	2, 0x0000
    4154f188:	70df 1058 0000      	.insn	6, 0x105870df
    4154f18e:	0000                	.insn	2, 0x0000
    4154f190:	74df 1058 0000      	.insn	6, 0x105874df
    4154f196:	0000                	.insn	2, 0x0000
    4154f198:	78df 1058 0000      	.insn	6, 0x105878df
    4154f19e:	0000                	.insn	2, 0x0000
    4154f1a0:	7cdf 1058 0000      	.insn	6, 0x10587cdf
    4154f1a6:	0000                	.insn	2, 0x0000
    4154f1a8:	80df 1058 0000      	.insn	6, 0x105880df
    4154f1ae:	0000                	.insn	2, 0x0000
    4154f1b0:	84df 1058 0000      	.insn	6, 0x105884df
    4154f1b6:	0000                	.insn	2, 0x0000
    4154f1b8:	88df 1058 0000      	.insn	6, 0x105888df
    4154f1be:	0000                	.insn	2, 0x0000
    4154f1c0:	8cdf 1058 0000      	.insn	6, 0x10588cdf
    4154f1c6:	0000                	.insn	2, 0x0000
    4154f1c8:	90df 1058 0000      	.insn	6, 0x105890df
    4154f1ce:	0000                	.insn	2, 0x0000
    4154f1d0:	94df 1058 0000      	.insn	6, 0x105894df
    4154f1d6:	0000                	.insn	2, 0x0000
    4154f1d8:	98df 1058 0000      	.insn	6, 0x105898df
    4154f1de:	0000                	.insn	2, 0x0000
    4154f1e0:	9cdf 1058 0000      	.insn	6, 0x10589cdf
    4154f1e6:	0000                	.insn	2, 0x0000
    4154f1e8:	a0df 1058 0000      	.insn	6, 0x1058a0df
    4154f1ee:	0000                	.insn	2, 0x0000
    4154f1f0:	a4df 1058 0000      	.insn	6, 0x1058a4df
    4154f1f6:	0000                	.insn	2, 0x0000
    4154f1f8:	a8df 1058 0000      	.insn	6, 0x1058a8df
    4154f1fe:	0000                	.insn	2, 0x0000
    4154f200:	00df 1041 0000      	.insn	6, 0x104100df
    4154f206:	0000                	.insn	2, 0x0000
    4154f208:	b0df 1058 0000      	.insn	6, 0x1058b0df
    4154f20e:	0000                	.insn	2, 0x0000
    4154f210:	b4df 1058 0000      	.insn	6, 0x1058b4df
    4154f216:	0000                	.insn	2, 0x0000
    4154f218:	b8df 1058 0000      	.insn	6, 0x1058b8df
    4154f21e:	0000                	.insn	2, 0x0000
    4154f220:	bcdf 1058 0000      	.insn	6, 0x1058bcdf
    4154f226:	0000                	.insn	2, 0x0000
    4154f228:	c0df 1058 0000      	.insn	6, 0x1058c0df
    4154f22e:	0000                	.insn	2, 0x0000
    4154f230:	c4df 1058 0000      	.insn	6, 0x1058c4df
    4154f236:	0000                	.insn	2, 0x0000
    4154f238:	c8df 1058 0000      	.insn	6, 0x1058c8df
    4154f23e:	0000                	.insn	2, 0x0000
    4154f240:	ccdf 1058 0000      	.insn	6, 0x1058ccdf
    4154f246:	0000                	.insn	2, 0x0000
    4154f248:	d0df 1058 0000      	.insn	6, 0x1058d0df
    4154f24e:	0000                	.insn	2, 0x0000
    4154f250:	d4df 1058 0000      	.insn	6, 0x1058d4df
    4154f256:	0000                	.insn	2, 0x0000
    4154f258:	d8df 1058 0000      	.insn	6, 0x1058d8df
    4154f25e:	0000                	.insn	2, 0x0000
    4154f260:	dcdf 1058 0000      	.insn	6, 0x1058dcdf
    4154f266:	0000                	.insn	2, 0x0000
    4154f268:	e0df 1058 0000      	.insn	6, 0x1058e0df
    4154f26e:	0000                	.insn	2, 0x0000
    4154f270:	e4df 1058 0000      	.insn	6, 0x1058e4df
    4154f276:	0000                	.insn	2, 0x0000
    4154f278:	e8df 1058 0000      	.insn	6, 0x1058e8df
    4154f27e:	0000                	.insn	2, 0x0000
    4154f280:	ecdf 1058 0000      	.insn	6, 0x1058ecdf
    4154f286:	0000                	.insn	2, 0x0000
    4154f288:	f0df 1058 0000      	.insn	6, 0x1058f0df
    4154f28e:	0000                	.insn	2, 0x0000
    4154f290:	f4df 1058 0000      	.insn	6, 0x1058f4df
    4154f296:	0000                	.insn	2, 0x0000
    4154f298:	f8df 1058 0000      	.insn	6, 0x1058f8df
    4154f29e:	0000                	.insn	2, 0x0000
    4154f2a0:	fcdf 1058 0000      	.insn	6, 0x1058fcdf
    4154f2a6:	0000                	.insn	2, 0x0000
    4154f2a8:	00df 1059 0000      	.insn	6, 0x105900df
    4154f2ae:	0000                	.insn	2, 0x0000
    4154f2b0:	04df 1059 0000      	.insn	6, 0x105904df
    4154f2b6:	0000                	.insn	2, 0x0000
    4154f2b8:	08df 1059 0000      	.insn	6, 0x105908df
    4154f2be:	0000                	.insn	2, 0x0000
    4154f2c0:	0cdf 1059 0000      	.insn	6, 0x10590cdf
    4154f2c6:	0000                	.insn	2, 0x0000
    4154f2c8:	10df 1059 0000      	.insn	6, 0x105910df
    4154f2ce:	0000                	.insn	2, 0x0000
    4154f2d0:	14df 1059 0000      	.insn	6, 0x105914df
    4154f2d6:	0000                	.insn	2, 0x0000
    4154f2d8:	18df 1059 0000      	.insn	6, 0x105918df
    4154f2de:	0000                	.insn	2, 0x0000
    4154f2e0:	1cdf 1059 0000      	.insn	6, 0x10591cdf
    4154f2e6:	0000                	.insn	2, 0x0000
    4154f2e8:	20df 1059 0000      	.insn	6, 0x105920df
    4154f2ee:	0000                	.insn	2, 0x0000
    4154f2f0:	24df 1059 0000      	.insn	6, 0x105924df
    4154f2f6:	0000                	.insn	2, 0x0000
    4154f2f8:	28df 1059 0000      	.insn	6, 0x105928df
    4154f2fe:	0000                	.insn	2, 0x0000
    4154f300:	2cdf 1059 0000      	.insn	6, 0x10592cdf
    4154f306:	0000                	.insn	2, 0x0000
    4154f308:	30df 1059 0000      	.insn	6, 0x105930df
    4154f30e:	0000                	.insn	2, 0x0000
    4154f310:	34df 1059 0000      	.insn	6, 0x105934df
    4154f316:	0000                	.insn	2, 0x0000
    4154f318:	38df 1059 0000      	.insn	6, 0x105938df
    4154f31e:	0000                	.insn	2, 0x0000
    4154f320:	3cdf 1059 0000      	.insn	6, 0x10593cdf
    4154f326:	0000                	.insn	2, 0x0000
    4154f328:	40df 1059 0000      	.insn	6, 0x105940df
    4154f32e:	0000                	.insn	2, 0x0000
    4154f330:	44df 1059 0000      	.insn	6, 0x105944df
    4154f336:	0000                	.insn	2, 0x0000
    4154f338:	48df 1059 0000      	.insn	6, 0x105948df
    4154f33e:	0000                	.insn	2, 0x0000
    4154f340:	4cdf 1059 0000      	.insn	6, 0x10594cdf
    4154f346:	0000                	.insn	2, 0x0000
    4154f348:	50df 1059 0000      	.insn	6, 0x105950df
    4154f34e:	0000                	.insn	2, 0x0000
    4154f350:	54df 1059 0000      	.insn	6, 0x105954df
    4154f356:	0000                	.insn	2, 0x0000
    4154f358:	58df 1059 0000      	.insn	6, 0x105958df
    4154f35e:	0000                	.insn	2, 0x0000
    4154f360:	5cdf 1059 0000      	.insn	6, 0x10595cdf
    4154f366:	0000                	.insn	2, 0x0000
    4154f368:	60df 1059 0000      	.insn	6, 0x105960df
    4154f36e:	0000                	.insn	2, 0x0000
    4154f370:	64df 1059 0000      	.insn	6, 0x105964df
    4154f376:	0000                	.insn	2, 0x0000
    4154f378:	68df 1059 0000      	.insn	6, 0x105968df
    4154f37e:	0000                	.insn	2, 0x0000
    4154f380:	6cdf 1059 0000      	.insn	6, 0x10596cdf
    4154f386:	0000                	.insn	2, 0x0000
    4154f388:	70df 1059 0000      	.insn	6, 0x105970df
    4154f38e:	0000                	.insn	2, 0x0000
    4154f390:	74df 1059 0000      	.insn	6, 0x105974df
    4154f396:	0000                	.insn	2, 0x0000
    4154f398:	78df 1059 0000      	.insn	6, 0x105978df
    4154f39e:	0000                	.insn	2, 0x0000
    4154f3a0:	7cdf 1059 0000      	.insn	6, 0x10597cdf
    4154f3a6:	0000                	.insn	2, 0x0000
    4154f3a8:	80df 1059 0000      	.insn	6, 0x105980df
    4154f3ae:	0000                	.insn	2, 0x0000
    4154f3b0:	84df 1059 0000      	.insn	6, 0x105984df
    4154f3b6:	0000                	.insn	2, 0x0000
    4154f3b8:	88df 1059 0000      	.insn	6, 0x105988df
    4154f3be:	0000                	.insn	2, 0x0000
    4154f3c0:	8cdf 1059 0000      	.insn	6, 0x10598cdf
    4154f3c6:	0000                	.insn	2, 0x0000
    4154f3c8:	90df 1059 0000      	.insn	6, 0x105990df
    4154f3ce:	0000                	.insn	2, 0x0000
    4154f3d0:	94df 1059 0000      	.insn	6, 0x105994df
    4154f3d6:	0000                	.insn	2, 0x0000
    4154f3d8:	98df 1059 0000      	.insn	6, 0x105998df
    4154f3de:	0000                	.insn	2, 0x0000
    4154f3e0:	9cdf 1059 0000      	.insn	6, 0x10599cdf
    4154f3e6:	0000                	.insn	2, 0x0000
    4154f3e8:	a0df 1059 0000      	.insn	6, 0x1059a0df
    4154f3ee:	0000                	.insn	2, 0x0000
    4154f3f0:	a4df 1059 0000      	.insn	6, 0x1059a4df
    4154f3f6:	0000                	.insn	2, 0x0000
    4154f3f8:	a8df 1059 0000      	.insn	6, 0x1059a8df
    4154f3fe:	0000                	.insn	2, 0x0000
    4154f400:	acdf 1059 0000      	.insn	6, 0x1059acdf
    4154f406:	0000                	.insn	2, 0x0000
    4154f408:	b0df 1059 0000      	.insn	6, 0x1059b0df
    4154f40e:	0000                	.insn	2, 0x0000
    4154f410:	b4df 1059 0000      	.insn	6, 0x1059b4df
    4154f416:	0000                	.insn	2, 0x0000
    4154f418:	b8df 1059 0000      	.insn	6, 0x1059b8df
    4154f41e:	0000                	.insn	2, 0x0000
    4154f420:	bcdf 1059 0000      	.insn	6, 0x1059bcdf
    4154f426:	0000                	.insn	2, 0x0000
    4154f428:	c0df 1059 0000      	.insn	6, 0x1059c0df
    4154f42e:	0000                	.insn	2, 0x0000
    4154f430:	c4df 1059 0000      	.insn	6, 0x1059c4df
    4154f436:	0000                	.insn	2, 0x0000
    4154f438:	c8df 1059 0000      	.insn	6, 0x1059c8df
    4154f43e:	0000                	.insn	2, 0x0000
    4154f440:	ccdf 1059 0000      	.insn	6, 0x1059ccdf
    4154f446:	0000                	.insn	2, 0x0000
    4154f448:	d0df 1059 0000      	.insn	6, 0x1059d0df
    4154f44e:	0000                	.insn	2, 0x0000
    4154f450:	d4df 1059 0000      	.insn	6, 0x1059d4df
    4154f456:	0000                	.insn	2, 0x0000
    4154f458:	d8df 1059 0000      	.insn	6, 0x1059d8df
    4154f45e:	0000                	.insn	2, 0x0000
    4154f460:	dcdf 1059 0000      	.insn	6, 0x1059dcdf
    4154f466:	0000                	.insn	2, 0x0000
    4154f468:	e0df 1059 0000      	.insn	6, 0x1059e0df
    4154f46e:	0000                	.insn	2, 0x0000
    4154f470:	e4df 1059 0000      	.insn	6, 0x1059e4df
    4154f476:	0000                	.insn	2, 0x0000
    4154f478:	e8df 1059 0000      	.insn	6, 0x1059e8df
    4154f47e:	0000                	.insn	2, 0x0000
    4154f480:	ecdf 1059 0000      	.insn	6, 0x1059ecdf
    4154f486:	0000                	.insn	2, 0x0000
    4154f488:	f0df 1059 0000      	.insn	6, 0x1059f0df
    4154f48e:	0000                	.insn	2, 0x0000
    4154f490:	f4df 1059 0000      	.insn	6, 0x1059f4df
    4154f496:	0000                	.insn	2, 0x0000
    4154f498:	f8df 1059 0000      	.insn	6, 0x1059f8df
    4154f49e:	0000                	.insn	2, 0x0000
    4154f4a0:	fcdf 1059 0000      	.insn	6, 0x1059fcdf
    4154f4a6:	0000                	.insn	2, 0x0000
    4154f4a8:	105a00cf          	fnmadd.s	f1,f20,f5,f2,rne
    4154f4ac:	0000                	.insn	2, 0x0000
    4154f4ae:	0000                	.insn	2, 0x0000
    4154f4b0:	105a04cf          	fnmadd.s	f9,f20,f5,f2,rne
    4154f4b4:	0000                	.insn	2, 0x0000
    4154f4b6:	0000                	.insn	2, 0x0000
    4154f4b8:	105a08cf          	fnmadd.s	f17,f20,f5,f2,rne
    4154f4bc:	0000                	.insn	2, 0x0000
    4154f4be:	0000                	.insn	2, 0x0000
    4154f4c0:	105a0ccf          	fnmadd.s	f25,f20,f5,f2,rne
    4154f4c4:	0000                	.insn	2, 0x0000
    4154f4c6:	0000                	.insn	2, 0x0000
    4154f4c8:	105a10cf          	fnmadd.s	f1,f20,f5,f2,rtz
    4154f4cc:	0000                	.insn	2, 0x0000
    4154f4ce:	0000                	.insn	2, 0x0000
    4154f4d0:	105a14cf          	fnmadd.s	f9,f20,f5,f2,rtz
    4154f4d4:	0000                	.insn	2, 0x0000
    4154f4d6:	0000                	.insn	2, 0x0000
    4154f4d8:	105a18cf          	fnmadd.s	f17,f20,f5,f2,rtz
    4154f4dc:	0000                	.insn	2, 0x0000
    4154f4de:	0000                	.insn	2, 0x0000
    4154f4e0:	105a1ccf          	fnmadd.s	f25,f20,f5,f2,rtz
    4154f4e4:	0000                	.insn	2, 0x0000
    4154f4e6:	0000                	.insn	2, 0x0000
    4154f4e8:	105a20cf          	fnmadd.s	f1,f20,f5,f2,rdn
    4154f4ec:	0000                	.insn	2, 0x0000
    4154f4ee:	0000                	.insn	2, 0x0000
    4154f4f0:	105a24cf          	fnmadd.s	f9,f20,f5,f2,rdn
    4154f4f4:	0000                	.insn	2, 0x0000
    4154f4f6:	0000                	.insn	2, 0x0000
    4154f4f8:	105a28cf          	fnmadd.s	f17,f20,f5,f2,rdn
    4154f4fc:	0000                	.insn	2, 0x0000
    4154f4fe:	0000                	.insn	2, 0x0000
    4154f500:	105a2ccf          	fnmadd.s	f25,f20,f5,f2,rdn
    4154f504:	0000                	.insn	2, 0x0000
    4154f506:	0000                	.insn	2, 0x0000
    4154f508:	105a30cf          	fnmadd.s	f1,f20,f5,f2,rup
    4154f50c:	0000                	.insn	2, 0x0000
    4154f50e:	0000                	.insn	2, 0x0000
    4154f510:	105a34cf          	fnmadd.s	f9,f20,f5,f2,rup
    4154f514:	0000                	.insn	2, 0x0000
    4154f516:	0000                	.insn	2, 0x0000
    4154f518:	105a38cf          	fnmadd.s	f17,f20,f5,f2,rup
    4154f51c:	0000                	.insn	2, 0x0000
    4154f51e:	0000                	.insn	2, 0x0000
    4154f520:	105a3ccf          	fnmadd.s	f25,f20,f5,f2,rup
    4154f524:	0000                	.insn	2, 0x0000
    4154f526:	0000                	.insn	2, 0x0000
    4154f528:	105a40cf          	fnmadd.s	f1,f20,f5,f2,rmm
    4154f52c:	0000                	.insn	2, 0x0000
    4154f52e:	0000                	.insn	2, 0x0000
    4154f530:	105a44cf          	fnmadd.s	f9,f20,f5,f2,rmm
    4154f534:	0000                	.insn	2, 0x0000
    4154f536:	0000                	.insn	2, 0x0000
    4154f538:	105a48cf          	fnmadd.s	f17,f20,f5,f2,rmm
    4154f53c:	0000                	.insn	2, 0x0000
    4154f53e:	0000                	.insn	2, 0x0000
    4154f540:	105a4ccf          	fnmadd.s	f25,f20,f5,f2,rmm
    4154f544:	0000                	.insn	2, 0x0000
    4154f546:	0000                	.insn	2, 0x0000
    4154f548:	105a50cf          	fnmadd.s	f1,f20,f5,f2,unknown
    4154f54c:	0000                	.insn	2, 0x0000
    4154f54e:	0000                	.insn	2, 0x0000
    4154f550:	105a54cf          	fnmadd.s	f9,f20,f5,f2,unknown
    4154f554:	0000                	.insn	2, 0x0000
    4154f556:	0000                	.insn	2, 0x0000
    4154f558:	105a58cf          	fnmadd.s	f17,f20,f5,f2,unknown
    4154f55c:	0000                	.insn	2, 0x0000
    4154f55e:	0000                	.insn	2, 0x0000
    4154f560:	105a5ccf          	fnmadd.s	f25,f20,f5,f2,unknown
    4154f564:	0000                	.insn	2, 0x0000
    4154f566:	0000                	.insn	2, 0x0000
    4154f568:	105a60cf          	fnmadd.s	f1,f20,f5,f2,unknown
    4154f56c:	0000                	.insn	2, 0x0000
    4154f56e:	0000                	.insn	2, 0x0000
    4154f570:	105a64cf          	fnmadd.s	f9,f20,f5,f2,unknown
    4154f574:	0000                	.insn	2, 0x0000
    4154f576:	0000                	.insn	2, 0x0000
    4154f578:	105a68cf          	fnmadd.s	f17,f20,f5,f2,unknown
    4154f57c:	0000                	.insn	2, 0x0000
    4154f57e:	0000                	.insn	2, 0x0000
    4154f580:	105a6ccf          	fnmadd.s	f25,f20,f5,f2,unknown
    4154f584:	0000                	.insn	2, 0x0000
    4154f586:	0000                	.insn	2, 0x0000
    4154f588:	105a70cf          	fnmadd.s	f1,f20,f5,f2
    4154f58c:	0000                	.insn	2, 0x0000
    4154f58e:	0000                	.insn	2, 0x0000
    4154f590:	105a74cf          	fnmadd.s	f9,f20,f5,f2
    4154f594:	0000                	.insn	2, 0x0000
    4154f596:	0000                	.insn	2, 0x0000
    4154f598:	105a78cf          	fnmadd.s	f17,f20,f5,f2
    4154f59c:	0000                	.insn	2, 0x0000
    4154f59e:	0000                	.insn	2, 0x0000
    4154f5a0:	105a7ccf          	fnmadd.s	f25,f20,f5,f2
    4154f5a4:	0000                	.insn	2, 0x0000
    4154f5a6:	0000                	.insn	2, 0x0000
    4154f5a8:	105a80cf          	fnmadd.s	f1,f21,f5,f2,rne
    4154f5ac:	0000                	.insn	2, 0x0000
    4154f5ae:	0000                	.insn	2, 0x0000
    4154f5b0:	105a84cf          	fnmadd.s	f9,f21,f5,f2,rne
    4154f5b4:	0000                	.insn	2, 0x0000
    4154f5b6:	0000                	.insn	2, 0x0000
    4154f5b8:	105a88cf          	fnmadd.s	f17,f21,f5,f2,rne
    4154f5bc:	0000                	.insn	2, 0x0000
    4154f5be:	0000                	.insn	2, 0x0000
    4154f5c0:	105a8ccf          	fnmadd.s	f25,f21,f5,f2,rne
    4154f5c4:	0000                	.insn	2, 0x0000
    4154f5c6:	0000                	.insn	2, 0x0000
    4154f5c8:	105a90cf          	fnmadd.s	f1,f21,f5,f2,rtz
    4154f5cc:	0000                	.insn	2, 0x0000
    4154f5ce:	0000                	.insn	2, 0x0000
    4154f5d0:	105a94cf          	fnmadd.s	f9,f21,f5,f2,rtz
    4154f5d4:	0000                	.insn	2, 0x0000
    4154f5d6:	0000                	.insn	2, 0x0000
    4154f5d8:	105a98cf          	fnmadd.s	f17,f21,f5,f2,rtz
    4154f5dc:	0000                	.insn	2, 0x0000
    4154f5de:	0000                	.insn	2, 0x0000
    4154f5e0:	105a9ccf          	fnmadd.s	f25,f21,f5,f2,rtz
    4154f5e4:	0000                	.insn	2, 0x0000
    4154f5e6:	0000                	.insn	2, 0x0000
    4154f5e8:	105aa0cf          	fnmadd.s	f1,f21,f5,f2,rdn
    4154f5ec:	0000                	.insn	2, 0x0000
    4154f5ee:	0000                	.insn	2, 0x0000
    4154f5f0:	105aa4cf          	fnmadd.s	f9,f21,f5,f2,rdn
    4154f5f4:	0000                	.insn	2, 0x0000
    4154f5f6:	0000                	.insn	2, 0x0000
    4154f5f8:	105aa8cf          	fnmadd.s	f17,f21,f5,f2,rdn
    4154f5fc:	0000                	.insn	2, 0x0000
    4154f5fe:	0000                	.insn	2, 0x0000
    4154f600:	105aaccf          	fnmadd.s	f25,f21,f5,f2,rdn
    4154f604:	0000                	.insn	2, 0x0000
    4154f606:	0000                	.insn	2, 0x0000
    4154f608:	105ab0cf          	fnmadd.s	f1,f21,f5,f2,rup
    4154f60c:	0000                	.insn	2, 0x0000
    4154f60e:	0000                	.insn	2, 0x0000
    4154f610:	105ab4cf          	fnmadd.s	f9,f21,f5,f2,rup
    4154f614:	0000                	.insn	2, 0x0000
    4154f616:	0000                	.insn	2, 0x0000
    4154f618:	105ab8cf          	fnmadd.s	f17,f21,f5,f2,rup
    4154f61c:	0000                	.insn	2, 0x0000
    4154f61e:	0000                	.insn	2, 0x0000
    4154f620:	105abccf          	fnmadd.s	f25,f21,f5,f2,rup
    4154f624:	0000                	.insn	2, 0x0000
    4154f626:	0000                	.insn	2, 0x0000
    4154f628:	105ac0cf          	fnmadd.s	f1,f21,f5,f2,rmm
    4154f62c:	0000                	.insn	2, 0x0000
    4154f62e:	0000                	.insn	2, 0x0000
    4154f630:	105ac4cf          	fnmadd.s	f9,f21,f5,f2,rmm
    4154f634:	0000                	.insn	2, 0x0000
    4154f636:	0000                	.insn	2, 0x0000
    4154f638:	105ac8cf          	fnmadd.s	f17,f21,f5,f2,rmm
    4154f63c:	0000                	.insn	2, 0x0000
    4154f63e:	0000                	.insn	2, 0x0000
    4154f640:	105acccf          	fnmadd.s	f25,f21,f5,f2,rmm
    4154f644:	0000                	.insn	2, 0x0000
    4154f646:	0000                	.insn	2, 0x0000
    4154f648:	105ad0cf          	fnmadd.s	f1,f21,f5,f2,unknown
    4154f64c:	0000                	.insn	2, 0x0000
    4154f64e:	0000                	.insn	2, 0x0000
    4154f650:	105ad4cf          	fnmadd.s	f9,f21,f5,f2,unknown
    4154f654:	0000                	.insn	2, 0x0000
    4154f656:	0000                	.insn	2, 0x0000
    4154f658:	105ad8cf          	fnmadd.s	f17,f21,f5,f2,unknown
    4154f65c:	0000                	.insn	2, 0x0000
    4154f65e:	0000                	.insn	2, 0x0000
    4154f660:	105adccf          	fnmadd.s	f25,f21,f5,f2,unknown
    4154f664:	0000                	.insn	2, 0x0000
    4154f666:	0000                	.insn	2, 0x0000
    4154f668:	105ae0cf          	fnmadd.s	f1,f21,f5,f2,unknown
    4154f66c:	0000                	.insn	2, 0x0000
    4154f66e:	0000                	.insn	2, 0x0000
    4154f670:	105ae4cf          	fnmadd.s	f9,f21,f5,f2,unknown
    4154f674:	0000                	.insn	2, 0x0000
    4154f676:	0000                	.insn	2, 0x0000
    4154f678:	105ae8cf          	fnmadd.s	f17,f21,f5,f2,unknown
    4154f67c:	0000                	.insn	2, 0x0000
    4154f67e:	0000                	.insn	2, 0x0000
    4154f680:	105aeccf          	fnmadd.s	f25,f21,f5,f2,unknown
    4154f684:	0000                	.insn	2, 0x0000
    4154f686:	0000                	.insn	2, 0x0000
    4154f688:	105af0cf          	fnmadd.s	f1,f21,f5,f2
    4154f68c:	0000                	.insn	2, 0x0000
    4154f68e:	0000                	.insn	2, 0x0000
    4154f690:	105af4cf          	fnmadd.s	f9,f21,f5,f2
    4154f694:	0000                	.insn	2, 0x0000
    4154f696:	0000                	.insn	2, 0x0000
    4154f698:	105af8cf          	fnmadd.s	f17,f21,f5,f2
    4154f69c:	0000                	.insn	2, 0x0000
    4154f69e:	0000                	.insn	2, 0x0000
    4154f6a0:	105afccf          	fnmadd.s	f25,f21,f5,f2
    4154f6a4:	0000                	.insn	2, 0x0000
    4154f6a6:	0000                	.insn	2, 0x0000
    4154f6a8:	105b00cf          	fnmadd.s	f1,f22,f5,f2,rne
    4154f6ac:	0000                	.insn	2, 0x0000
    4154f6ae:	0000                	.insn	2, 0x0000
    4154f6b0:	105b04cf          	fnmadd.s	f9,f22,f5,f2,rne
    4154f6b4:	0000                	.insn	2, 0x0000
    4154f6b6:	0000                	.insn	2, 0x0000
    4154f6b8:	105b08cf          	fnmadd.s	f17,f22,f5,f2,rne
    4154f6bc:	0000                	.insn	2, 0x0000
    4154f6be:	0000                	.insn	2, 0x0000
    4154f6c0:	105b0ccf          	fnmadd.s	f25,f22,f5,f2,rne
    4154f6c4:	0000                	.insn	2, 0x0000
    4154f6c6:	0000                	.insn	2, 0x0000
    4154f6c8:	105b10cf          	fnmadd.s	f1,f22,f5,f2,rtz
    4154f6cc:	0000                	.insn	2, 0x0000
    4154f6ce:	0000                	.insn	2, 0x0000
    4154f6d0:	105b14cf          	fnmadd.s	f9,f22,f5,f2,rtz
    4154f6d4:	0000                	.insn	2, 0x0000
    4154f6d6:	0000                	.insn	2, 0x0000
    4154f6d8:	105b18cf          	fnmadd.s	f17,f22,f5,f2,rtz
    4154f6dc:	0000                	.insn	2, 0x0000
    4154f6de:	0000                	.insn	2, 0x0000
    4154f6e0:	105b1ccf          	fnmadd.s	f25,f22,f5,f2,rtz
    4154f6e4:	0000                	.insn	2, 0x0000
    4154f6e6:	0000                	.insn	2, 0x0000
    4154f6e8:	105b20cf          	fnmadd.s	f1,f22,f5,f2,rdn
    4154f6ec:	0000                	.insn	2, 0x0000
    4154f6ee:	0000                	.insn	2, 0x0000
    4154f6f0:	105b24cf          	fnmadd.s	f9,f22,f5,f2,rdn
    4154f6f4:	0000                	.insn	2, 0x0000
    4154f6f6:	0000                	.insn	2, 0x0000
    4154f6f8:	105b28cf          	fnmadd.s	f17,f22,f5,f2,rdn
    4154f6fc:	0000                	.insn	2, 0x0000
    4154f6fe:	0000                	.insn	2, 0x0000
    4154f700:	105b2ccf          	fnmadd.s	f25,f22,f5,f2,rdn
    4154f704:	0000                	.insn	2, 0x0000
    4154f706:	0000                	.insn	2, 0x0000
    4154f708:	105b30cf          	fnmadd.s	f1,f22,f5,f2,rup
    4154f70c:	0000                	.insn	2, 0x0000
    4154f70e:	0000                	.insn	2, 0x0000
    4154f710:	105b34cf          	fnmadd.s	f9,f22,f5,f2,rup
    4154f714:	0000                	.insn	2, 0x0000
    4154f716:	0000                	.insn	2, 0x0000
    4154f718:	105b38cf          	fnmadd.s	f17,f22,f5,f2,rup
    4154f71c:	0000                	.insn	2, 0x0000
    4154f71e:	0000                	.insn	2, 0x0000
    4154f720:	105b3ccf          	fnmadd.s	f25,f22,f5,f2,rup
    4154f724:	0000                	.insn	2, 0x0000
    4154f726:	0000                	.insn	2, 0x0000
    4154f728:	105b40cf          	fnmadd.s	f1,f22,f5,f2,rmm
    4154f72c:	0000                	.insn	2, 0x0000
    4154f72e:	0000                	.insn	2, 0x0000
    4154f730:	105b44cf          	fnmadd.s	f9,f22,f5,f2,rmm
    4154f734:	0000                	.insn	2, 0x0000
    4154f736:	0000                	.insn	2, 0x0000
    4154f738:	105b48cf          	fnmadd.s	f17,f22,f5,f2,rmm
    4154f73c:	0000                	.insn	2, 0x0000
    4154f73e:	0000                	.insn	2, 0x0000
    4154f740:	105b4ccf          	fnmadd.s	f25,f22,f5,f2,rmm
    4154f744:	0000                	.insn	2, 0x0000
    4154f746:	0000                	.insn	2, 0x0000
    4154f748:	105b50cf          	fnmadd.s	f1,f22,f5,f2,unknown
    4154f74c:	0000                	.insn	2, 0x0000
    4154f74e:	0000                	.insn	2, 0x0000
    4154f750:	105b54cf          	fnmadd.s	f9,f22,f5,f2,unknown
    4154f754:	0000                	.insn	2, 0x0000
    4154f756:	0000                	.insn	2, 0x0000
    4154f758:	105b58cf          	fnmadd.s	f17,f22,f5,f2,unknown
    4154f75c:	0000                	.insn	2, 0x0000
    4154f75e:	0000                	.insn	2, 0x0000
    4154f760:	105b5ccf          	fnmadd.s	f25,f22,f5,f2,unknown
    4154f764:	0000                	.insn	2, 0x0000
    4154f766:	0000                	.insn	2, 0x0000
    4154f768:	105b60cf          	fnmadd.s	f1,f22,f5,f2,unknown
    4154f76c:	0000                	.insn	2, 0x0000
    4154f76e:	0000                	.insn	2, 0x0000
    4154f770:	105b64cf          	fnmadd.s	f9,f22,f5,f2,unknown
    4154f774:	0000                	.insn	2, 0x0000
    4154f776:	0000                	.insn	2, 0x0000
    4154f778:	105b68cf          	fnmadd.s	f17,f22,f5,f2,unknown
    4154f77c:	0000                	.insn	2, 0x0000
    4154f77e:	0000                	.insn	2, 0x0000
    4154f780:	105b6ccf          	fnmadd.s	f25,f22,f5,f2,unknown
    4154f784:	0000                	.insn	2, 0x0000
    4154f786:	0000                	.insn	2, 0x0000
    4154f788:	105b70cf          	fnmadd.s	f1,f22,f5,f2
    4154f78c:	0000                	.insn	2, 0x0000
    4154f78e:	0000                	.insn	2, 0x0000
    4154f790:	105b74cf          	fnmadd.s	f9,f22,f5,f2
    4154f794:	0000                	.insn	2, 0x0000
    4154f796:	0000                	.insn	2, 0x0000
    4154f798:	105b78cf          	fnmadd.s	f17,f22,f5,f2
    4154f79c:	0000                	.insn	2, 0x0000
    4154f79e:	0000                	.insn	2, 0x0000
    4154f7a0:	105b7ccf          	fnmadd.s	f25,f22,f5,f2
    4154f7a4:	0000                	.insn	2, 0x0000
    4154f7a6:	0000                	.insn	2, 0x0000
    4154f7a8:	105b80cf          	fnmadd.s	f1,f23,f5,f2,rne
    4154f7ac:	0000                	.insn	2, 0x0000
    4154f7ae:	0000                	.insn	2, 0x0000
    4154f7b0:	105b84cf          	fnmadd.s	f9,f23,f5,f2,rne
    4154f7b4:	0000                	.insn	2, 0x0000
    4154f7b6:	0000                	.insn	2, 0x0000
    4154f7b8:	105b88cf          	fnmadd.s	f17,f23,f5,f2,rne
    4154f7bc:	0000                	.insn	2, 0x0000
    4154f7be:	0000                	.insn	2, 0x0000
    4154f7c0:	105b8ccf          	fnmadd.s	f25,f23,f5,f2,rne
    4154f7c4:	0000                	.insn	2, 0x0000
    4154f7c6:	0000                	.insn	2, 0x0000
    4154f7c8:	105b90cf          	fnmadd.s	f1,f23,f5,f2,rtz
    4154f7cc:	0000                	.insn	2, 0x0000
    4154f7ce:	0000                	.insn	2, 0x0000
    4154f7d0:	105b94cf          	fnmadd.s	f9,f23,f5,f2,rtz
    4154f7d4:	0000                	.insn	2, 0x0000
    4154f7d6:	0000                	.insn	2, 0x0000
    4154f7d8:	105b98cf          	fnmadd.s	f17,f23,f5,f2,rtz
    4154f7dc:	0000                	.insn	2, 0x0000
    4154f7de:	0000                	.insn	2, 0x0000
    4154f7e0:	105b9ccf          	fnmadd.s	f25,f23,f5,f2,rtz
    4154f7e4:	0000                	.insn	2, 0x0000
    4154f7e6:	0000                	.insn	2, 0x0000
    4154f7e8:	105ba0cf          	fnmadd.s	f1,f23,f5,f2,rdn
    4154f7ec:	0000                	.insn	2, 0x0000
    4154f7ee:	0000                	.insn	2, 0x0000
    4154f7f0:	105ba4cf          	fnmadd.s	f9,f23,f5,f2,rdn
    4154f7f4:	0000                	.insn	2, 0x0000
    4154f7f6:	0000                	.insn	2, 0x0000
    4154f7f8:	105ba8cf          	fnmadd.s	f17,f23,f5,f2,rdn
    4154f7fc:	0000                	.insn	2, 0x0000
    4154f7fe:	0000                	.insn	2, 0x0000
    4154f800:	105baccf          	fnmadd.s	f25,f23,f5,f2,rdn
    4154f804:	0000                	.insn	2, 0x0000
    4154f806:	0000                	.insn	2, 0x0000
    4154f808:	105bb0cf          	fnmadd.s	f1,f23,f5,f2,rup
    4154f80c:	0000                	.insn	2, 0x0000
    4154f80e:	0000                	.insn	2, 0x0000
    4154f810:	105bb4cf          	fnmadd.s	f9,f23,f5,f2,rup
    4154f814:	0000                	.insn	2, 0x0000
    4154f816:	0000                	.insn	2, 0x0000
    4154f818:	105bb8cf          	fnmadd.s	f17,f23,f5,f2,rup
    4154f81c:	0000                	.insn	2, 0x0000
    4154f81e:	0000                	.insn	2, 0x0000
    4154f820:	105bbccf          	fnmadd.s	f25,f23,f5,f2,rup
    4154f824:	0000                	.insn	2, 0x0000
    4154f826:	0000                	.insn	2, 0x0000
    4154f828:	105bc0cf          	fnmadd.s	f1,f23,f5,f2,rmm
    4154f82c:	0000                	.insn	2, 0x0000
    4154f82e:	0000                	.insn	2, 0x0000
    4154f830:	105bc4cf          	fnmadd.s	f9,f23,f5,f2,rmm
    4154f834:	0000                	.insn	2, 0x0000
    4154f836:	0000                	.insn	2, 0x0000
    4154f838:	105bc8cf          	fnmadd.s	f17,f23,f5,f2,rmm
    4154f83c:	0000                	.insn	2, 0x0000
    4154f83e:	0000                	.insn	2, 0x0000
    4154f840:	105bcccf          	fnmadd.s	f25,f23,f5,f2,rmm
    4154f844:	0000                	.insn	2, 0x0000
    4154f846:	0000                	.insn	2, 0x0000
    4154f848:	105bd0cf          	fnmadd.s	f1,f23,f5,f2,unknown
    4154f84c:	0000                	.insn	2, 0x0000
    4154f84e:	0000                	.insn	2, 0x0000
    4154f850:	105bd4cf          	fnmadd.s	f9,f23,f5,f2,unknown
    4154f854:	0000                	.insn	2, 0x0000
    4154f856:	0000                	.insn	2, 0x0000
    4154f858:	105bd8cf          	fnmadd.s	f17,f23,f5,f2,unknown
    4154f85c:	0000                	.insn	2, 0x0000
    4154f85e:	0000                	.insn	2, 0x0000
    4154f860:	105bdccf          	fnmadd.s	f25,f23,f5,f2,unknown
    4154f864:	0000                	.insn	2, 0x0000
    4154f866:	0000                	.insn	2, 0x0000
    4154f868:	105be0cf          	fnmadd.s	f1,f23,f5,f2,unknown
    4154f86c:	0000                	.insn	2, 0x0000
    4154f86e:	0000                	.insn	2, 0x0000
    4154f870:	105be4cf          	fnmadd.s	f9,f23,f5,f2,unknown
    4154f874:	0000                	.insn	2, 0x0000
    4154f876:	0000                	.insn	2, 0x0000
    4154f878:	105be8cf          	fnmadd.s	f17,f23,f5,f2,unknown
    4154f87c:	0000                	.insn	2, 0x0000
    4154f87e:	0000                	.insn	2, 0x0000
    4154f880:	105beccf          	fnmadd.s	f25,f23,f5,f2,unknown
    4154f884:	0000                	.insn	2, 0x0000
    4154f886:	0000                	.insn	2, 0x0000
    4154f888:	105bf0cf          	fnmadd.s	f1,f23,f5,f2
    4154f88c:	0000                	.insn	2, 0x0000
    4154f88e:	0000                	.insn	2, 0x0000
    4154f890:	105bf4cf          	fnmadd.s	f9,f23,f5,f2
    4154f894:	0000                	.insn	2, 0x0000
    4154f896:	0000                	.insn	2, 0x0000
    4154f898:	105bf8cf          	fnmadd.s	f17,f23,f5,f2
    4154f89c:	0000                	.insn	2, 0x0000
    4154f89e:	0000                	.insn	2, 0x0000
    4154f8a0:	105bfccf          	fnmadd.s	f25,f23,f5,f2
    4154f8a4:	0000                	.insn	2, 0x0000
    4154f8a6:	0000                	.insn	2, 0x0000
    4154f8a8:	00df 105c 0000      	.insn	6, 0x105c00df
    4154f8ae:	0000                	.insn	2, 0x0000
    4154f8b0:	04df 105c 0000      	.insn	6, 0x105c04df
    4154f8b6:	0000                	.insn	2, 0x0000
    4154f8b8:	08df 105c 0000      	.insn	6, 0x105c08df
    4154f8be:	0000                	.insn	2, 0x0000
    4154f8c0:	0cdf 105c 0000      	.insn	6, 0x105c0cdf
    4154f8c6:	0000                	.insn	2, 0x0000
    4154f8c8:	10df 105c 0000      	.insn	6, 0x105c10df
    4154f8ce:	0000                	.insn	2, 0x0000
    4154f8d0:	14df 105c 0000      	.insn	6, 0x105c14df
    4154f8d6:	0000                	.insn	2, 0x0000
    4154f8d8:	18df 105c 0000      	.insn	6, 0x105c18df
    4154f8de:	0000                	.insn	2, 0x0000
    4154f8e0:	1cdf 105c 0000      	.insn	6, 0x105c1cdf
    4154f8e6:	0000                	.insn	2, 0x0000
    4154f8e8:	20df 105c 0000      	.insn	6, 0x105c20df
    4154f8ee:	0000                	.insn	2, 0x0000
    4154f8f0:	24df 105c 0000      	.insn	6, 0x105c24df
    4154f8f6:	0000                	.insn	2, 0x0000
    4154f8f8:	28df 105c 0000      	.insn	6, 0x105c28df
    4154f8fe:	0000                	.insn	2, 0x0000
    4154f900:	2cdf 105c 0000      	.insn	6, 0x105c2cdf
    4154f906:	0000                	.insn	2, 0x0000
    4154f908:	30df 105c 0000      	.insn	6, 0x105c30df
    4154f90e:	0000                	.insn	2, 0x0000
    4154f910:	34df 105c 0000      	.insn	6, 0x105c34df
    4154f916:	0000                	.insn	2, 0x0000
    4154f918:	38df 105c 0000      	.insn	6, 0x105c38df
    4154f91e:	0000                	.insn	2, 0x0000
    4154f920:	3cdf 105c 0000      	.insn	6, 0x105c3cdf
    4154f926:	0000                	.insn	2, 0x0000
    4154f928:	40df 105c 0000      	.insn	6, 0x105c40df
    4154f92e:	0000                	.insn	2, 0x0000
    4154f930:	44df 105c 0000      	.insn	6, 0x105c44df
    4154f936:	0000                	.insn	2, 0x0000
    4154f938:	48df 105c 0000      	.insn	6, 0x105c48df
    4154f93e:	0000                	.insn	2, 0x0000
    4154f940:	4cdf 105c 0000      	.insn	6, 0x105c4cdf
    4154f946:	0000                	.insn	2, 0x0000
    4154f948:	50df 105c 0000      	.insn	6, 0x105c50df
    4154f94e:	0000                	.insn	2, 0x0000
    4154f950:	54df 105c 0000      	.insn	6, 0x105c54df
    4154f956:	0000                	.insn	2, 0x0000
    4154f958:	58df 105c 0000      	.insn	6, 0x105c58df
    4154f95e:	0000                	.insn	2, 0x0000
    4154f960:	5cdf 105c 0000      	.insn	6, 0x105c5cdf
    4154f966:	0000                	.insn	2, 0x0000
    4154f968:	60df 105c 0000      	.insn	6, 0x105c60df
    4154f96e:	0000                	.insn	2, 0x0000
    4154f970:	64df 105c 0000      	.insn	6, 0x105c64df
    4154f976:	0000                	.insn	2, 0x0000
    4154f978:	68df 105c 0000      	.insn	6, 0x105c68df
    4154f97e:	0000                	.insn	2, 0x0000
    4154f980:	6cdf 105c 0000      	.insn	6, 0x105c6cdf
    4154f986:	0000                	.insn	2, 0x0000
    4154f988:	70df 105c 0000      	.insn	6, 0x105c70df
    4154f98e:	0000                	.insn	2, 0x0000
    4154f990:	74df 105c 0000      	.insn	6, 0x105c74df
    4154f996:	0000                	.insn	2, 0x0000
    4154f998:	78df 105c 0000      	.insn	6, 0x105c78df
    4154f99e:	0000                	.insn	2, 0x0000
    4154f9a0:	7cdf 105c 0000      	.insn	6, 0x105c7cdf
    4154f9a6:	0000                	.insn	2, 0x0000
    4154f9a8:	80df 105c 0000      	.insn	6, 0x105c80df
    4154f9ae:	0000                	.insn	2, 0x0000
    4154f9b0:	84df 105c 0000      	.insn	6, 0x105c84df
    4154f9b6:	0000                	.insn	2, 0x0000
    4154f9b8:	88df 105c 0000      	.insn	6, 0x105c88df
    4154f9be:	0000                	.insn	2, 0x0000
    4154f9c0:	8cdf 105c 0000      	.insn	6, 0x105c8cdf
    4154f9c6:	0000                	.insn	2, 0x0000
    4154f9c8:	90df 105c 0000      	.insn	6, 0x105c90df
    4154f9ce:	0000                	.insn	2, 0x0000
    4154f9d0:	94df 105c 0000      	.insn	6, 0x105c94df
    4154f9d6:	0000                	.insn	2, 0x0000
    4154f9d8:	98df 105c 0000      	.insn	6, 0x105c98df
    4154f9de:	0000                	.insn	2, 0x0000
    4154f9e0:	9cdf 105c 0000      	.insn	6, 0x105c9cdf
    4154f9e6:	0000                	.insn	2, 0x0000
    4154f9e8:	a0df 105c 0000      	.insn	6, 0x105ca0df
    4154f9ee:	0000                	.insn	2, 0x0000
    4154f9f0:	a4df 105c 0000      	.insn	6, 0x105ca4df
    4154f9f6:	0000                	.insn	2, 0x0000
    4154f9f8:	a8df 105c 0000      	.insn	6, 0x105ca8df
    4154f9fe:	0000                	.insn	2, 0x0000
    4154fa00:	acdf 105c 0000      	.insn	6, 0x105cacdf
    4154fa06:	0000                	.insn	2, 0x0000
    4154fa08:	b0df 105c 0000      	.insn	6, 0x105cb0df
    4154fa0e:	0000                	.insn	2, 0x0000
    4154fa10:	b4df 105c 0000      	.insn	6, 0x105cb4df
    4154fa16:	0000                	.insn	2, 0x0000
    4154fa18:	b8df 105c 0000      	.insn	6, 0x105cb8df
    4154fa1e:	0000                	.insn	2, 0x0000
    4154fa20:	bcdf 105c 0000      	.insn	6, 0x105cbcdf
    4154fa26:	0000                	.insn	2, 0x0000
    4154fa28:	c0df 105c 0000      	.insn	6, 0x105cc0df
    4154fa2e:	0000                	.insn	2, 0x0000
    4154fa30:	c4df 105c 0000      	.insn	6, 0x105cc4df
    4154fa36:	0000                	.insn	2, 0x0000
    4154fa38:	c8df 105c 0000      	.insn	6, 0x105cc8df
    4154fa3e:	0000                	.insn	2, 0x0000
    4154fa40:	ccdf 105c 0000      	.insn	6, 0x105cccdf
    4154fa46:	0000                	.insn	2, 0x0000
    4154fa48:	d0df 105c 0000      	.insn	6, 0x105cd0df
    4154fa4e:	0000                	.insn	2, 0x0000
    4154fa50:	d4df 105c 0000      	.insn	6, 0x105cd4df
    4154fa56:	0000                	.insn	2, 0x0000
    4154fa58:	d8df 105c 0000      	.insn	6, 0x105cd8df
    4154fa5e:	0000                	.insn	2, 0x0000
    4154fa60:	dcdf 105c 0000      	.insn	6, 0x105cdcdf
    4154fa66:	0000                	.insn	2, 0x0000
    4154fa68:	e0df 105c 0000      	.insn	6, 0x105ce0df
    4154fa6e:	0000                	.insn	2, 0x0000
    4154fa70:	e4df 105c 0000      	.insn	6, 0x105ce4df
    4154fa76:	0000                	.insn	2, 0x0000
    4154fa78:	e8df 105c 0000      	.insn	6, 0x105ce8df
    4154fa7e:	0000                	.insn	2, 0x0000
    4154fa80:	ecdf 105c 0000      	.insn	6, 0x105cecdf
    4154fa86:	0000                	.insn	2, 0x0000
    4154fa88:	f0df 105c 0000      	.insn	6, 0x105cf0df
    4154fa8e:	0000                	.insn	2, 0x0000
    4154fa90:	f4df 105c 0000      	.insn	6, 0x105cf4df
    4154fa96:	0000                	.insn	2, 0x0000
    4154fa98:	f8df 105c 0000      	.insn	6, 0x105cf8df
    4154fa9e:	0000                	.insn	2, 0x0000
    4154faa0:	fcdf 105c 0000      	.insn	6, 0x105cfcdf
    4154faa6:	0000                	.insn	2, 0x0000
    4154faa8:	00df 105d 0000      	.insn	6, 0x105d00df
    4154faae:	0000                	.insn	2, 0x0000
    4154fab0:	04df 105d 0000      	.insn	6, 0x105d04df
    4154fab6:	0000                	.insn	2, 0x0000
    4154fab8:	08df 105d 0000      	.insn	6, 0x105d08df
    4154fabe:	0000                	.insn	2, 0x0000
    4154fac0:	0cdf 105d 0000      	.insn	6, 0x105d0cdf
    4154fac6:	0000                	.insn	2, 0x0000
    4154fac8:	10df 105d 0000      	.insn	6, 0x105d10df
    4154face:	0000                	.insn	2, 0x0000
    4154fad0:	14df 105d 0000      	.insn	6, 0x105d14df
    4154fad6:	0000                	.insn	2, 0x0000
    4154fad8:	18df 105d 0000      	.insn	6, 0x105d18df
    4154fade:	0000                	.insn	2, 0x0000
    4154fae0:	1cdf 105d 0000      	.insn	6, 0x105d1cdf
    4154fae6:	0000                	.insn	2, 0x0000
    4154fae8:	20df 105d 0000      	.insn	6, 0x105d20df
    4154faee:	0000                	.insn	2, 0x0000
    4154faf0:	24df 105d 0000      	.insn	6, 0x105d24df
    4154faf6:	0000                	.insn	2, 0x0000
    4154faf8:	28df 105d 0000      	.insn	6, 0x105d28df
    4154fafe:	0000                	.insn	2, 0x0000
    4154fb00:	2cdf 105d 0000      	.insn	6, 0x105d2cdf
    4154fb06:	0000                	.insn	2, 0x0000
    4154fb08:	30df 105d 0000      	.insn	6, 0x105d30df
    4154fb0e:	0000                	.insn	2, 0x0000
    4154fb10:	34df 105d 0000      	.insn	6, 0x105d34df
    4154fb16:	0000                	.insn	2, 0x0000
    4154fb18:	38df 105d 0000      	.insn	6, 0x105d38df
    4154fb1e:	0000                	.insn	2, 0x0000
    4154fb20:	3cdf 105d 0000      	.insn	6, 0x105d3cdf
    4154fb26:	0000                	.insn	2, 0x0000
    4154fb28:	40df 105d 0000      	.insn	6, 0x105d40df
    4154fb2e:	0000                	.insn	2, 0x0000
    4154fb30:	44df 105d 0000      	.insn	6, 0x105d44df
    4154fb36:	0000                	.insn	2, 0x0000
    4154fb38:	48df 105d 0000      	.insn	6, 0x105d48df
    4154fb3e:	0000                	.insn	2, 0x0000
    4154fb40:	4cdf 105d 0000      	.insn	6, 0x105d4cdf
    4154fb46:	0000                	.insn	2, 0x0000
    4154fb48:	50df 105d 0000      	.insn	6, 0x105d50df
    4154fb4e:	0000                	.insn	2, 0x0000
    4154fb50:	54df 105d 0000      	.insn	6, 0x105d54df
    4154fb56:	0000                	.insn	2, 0x0000
    4154fb58:	58df 105d 0000      	.insn	6, 0x105d58df
    4154fb5e:	0000                	.insn	2, 0x0000
    4154fb60:	5cdf 105d 0000      	.insn	6, 0x105d5cdf
    4154fb66:	0000                	.insn	2, 0x0000
    4154fb68:	60df 105d 0000      	.insn	6, 0x105d60df
    4154fb6e:	0000                	.insn	2, 0x0000
    4154fb70:	64df 105d 0000      	.insn	6, 0x105d64df
    4154fb76:	0000                	.insn	2, 0x0000
    4154fb78:	68df 105d 0000      	.insn	6, 0x105d68df
    4154fb7e:	0000                	.insn	2, 0x0000
    4154fb80:	6cdf 105d 0000      	.insn	6, 0x105d6cdf
    4154fb86:	0000                	.insn	2, 0x0000
    4154fb88:	70df 105d 0000      	.insn	6, 0x105d70df
    4154fb8e:	0000                	.insn	2, 0x0000
    4154fb90:	74df 105d 0000      	.insn	6, 0x105d74df
    4154fb96:	0000                	.insn	2, 0x0000
    4154fb98:	78df 105d 0000      	.insn	6, 0x105d78df
    4154fb9e:	0000                	.insn	2, 0x0000
    4154fba0:	7cdf 105d 0000      	.insn	6, 0x105d7cdf
    4154fba6:	0000                	.insn	2, 0x0000
    4154fba8:	80df 105d 0000      	.insn	6, 0x105d80df
    4154fbae:	0000                	.insn	2, 0x0000
    4154fbb0:	84df 105d 0000      	.insn	6, 0x105d84df
    4154fbb6:	0000                	.insn	2, 0x0000
    4154fbb8:	88df 105d 0000      	.insn	6, 0x105d88df
    4154fbbe:	0000                	.insn	2, 0x0000
    4154fbc0:	8cdf 105d 0000      	.insn	6, 0x105d8cdf
    4154fbc6:	0000                	.insn	2, 0x0000
    4154fbc8:	90df 105d 0000      	.insn	6, 0x105d90df
    4154fbce:	0000                	.insn	2, 0x0000
    4154fbd0:	94df 105d 0000      	.insn	6, 0x105d94df
    4154fbd6:	0000                	.insn	2, 0x0000
    4154fbd8:	98df 105d 0000      	.insn	6, 0x105d98df
    4154fbde:	0000                	.insn	2, 0x0000
    4154fbe0:	9cdf 105d 0000      	.insn	6, 0x105d9cdf
    4154fbe6:	0000                	.insn	2, 0x0000
    4154fbe8:	a0df 105d 0000      	.insn	6, 0x105da0df
    4154fbee:	0000                	.insn	2, 0x0000
    4154fbf0:	a4df 105d 0000      	.insn	6, 0x105da4df
    4154fbf6:	0000                	.insn	2, 0x0000
    4154fbf8:	a8df 105d 0000      	.insn	6, 0x105da8df
    4154fbfe:	0000                	.insn	2, 0x0000
    4154fc00:	acdf 105d 0000      	.insn	6, 0x105dacdf
    4154fc06:	0000                	.insn	2, 0x0000
    4154fc08:	b0df 105d 0000      	.insn	6, 0x105db0df
    4154fc0e:	0000                	.insn	2, 0x0000
    4154fc10:	b4df 105d 0000      	.insn	6, 0x105db4df
    4154fc16:	0000                	.insn	2, 0x0000
    4154fc18:	b8df 105d 0000      	.insn	6, 0x105db8df
    4154fc1e:	0000                	.insn	2, 0x0000
    4154fc20:	bcdf 105d 0000      	.insn	6, 0x105dbcdf
    4154fc26:	0000                	.insn	2, 0x0000
    4154fc28:	c0df 105d 0000      	.insn	6, 0x105dc0df
    4154fc2e:	0000                	.insn	2, 0x0000
    4154fc30:	c4df 105d 0000      	.insn	6, 0x105dc4df
    4154fc36:	0000                	.insn	2, 0x0000
    4154fc38:	c8df 105d 0000      	.insn	6, 0x105dc8df
    4154fc3e:	0000                	.insn	2, 0x0000
    4154fc40:	ccdf 105d 0000      	.insn	6, 0x105dccdf
    4154fc46:	0000                	.insn	2, 0x0000
    4154fc48:	d0df 105d 0000      	.insn	6, 0x105dd0df
    4154fc4e:	0000                	.insn	2, 0x0000
    4154fc50:	d4df 105d 0000      	.insn	6, 0x105dd4df
    4154fc56:	0000                	.insn	2, 0x0000
    4154fc58:	d8df 105d 0000      	.insn	6, 0x105dd8df
    4154fc5e:	0000                	.insn	2, 0x0000
    4154fc60:	dcdf 105d 0000      	.insn	6, 0x105ddcdf
    4154fc66:	0000                	.insn	2, 0x0000
    4154fc68:	e0df 105d 0000      	.insn	6, 0x105de0df
    4154fc6e:	0000                	.insn	2, 0x0000
    4154fc70:	e4df 105d 0000      	.insn	6, 0x105de4df
    4154fc76:	0000                	.insn	2, 0x0000
    4154fc78:	e8df 105d 0000      	.insn	6, 0x105de8df
    4154fc7e:	0000                	.insn	2, 0x0000
    4154fc80:	ecdf 105d 0000      	.insn	6, 0x105decdf
    4154fc86:	0000                	.insn	2, 0x0000
    4154fc88:	f0df 105d 0000      	.insn	6, 0x105df0df
    4154fc8e:	0000                	.insn	2, 0x0000
    4154fc90:	f4df 105d 0000      	.insn	6, 0x105df4df
    4154fc96:	0000                	.insn	2, 0x0000
    4154fc98:	f8df 105d 0000      	.insn	6, 0x105df8df
    4154fc9e:	0000                	.insn	2, 0x0000
    4154fca0:	fcdf 105d 0000      	.insn	6, 0x105dfcdf
	...

Disassembly of section .__pagetable_map_os_0x0000000044491000:

0000000044491000 <__pagetable_map_os_0x0000000044491000>:
	...
    444910b0:	106004cf          	fnmadd.s	f9,f0,f6,f2,rne
    444910b4:	0000                	.insn	2, 0x0000
	...

Disassembly of section .__pagetable_map_os_0x0000000042a78000:

0000000042a78000 <__pagetable_map_os_0x0000000042a78000>:
	...
    42a78050:	78df 1055 0000      	.insn	6, 0x105578df
    42a78056:	0000                	.insn	2, 0x0000
    42a78058:	7cdf 1055 0000      	.insn	6, 0x10557cdf
	...

Disassembly of section .__pagetable_map_os_0x0000000044b47000:

0000000044b47000 <__pagetable_map_os_0x0000000044b47000>:
	...
    44b476a8:	20df 1078 0000      	.insn	6, 0x107820df
	...

Disassembly of section .__pagetable_map_os_0x00000000419b3000:

00000000419b3000 <__pagetable_map_os_0x00000000419b3000>:
	...
    419b3330:	98df 1129 0000      	.insn	6, 0x112998df
	...

Disassembly of section .__pagetable_map_os_0x000000004139b000:

000000004139b000 <__pagetable_map_os_0x000000004139b000>:
	...
    4139b550:	10d29cd7          	vfmin.vv	v25,v13,v5,v0.t
    4139b554:	0000                	.insn	2, 0x0000
	...

Disassembly of section .__pagetable_map_os_0x0000000044b3c000:

0000000044b3c000 <__pagetable_map_os_0x0000000044b3c000>:
	...
    44b3c088:	5801                	.insn	2, 0x5801
    44b3c08a:	1095                	.insn	2, 0x1095
	...
    44b3c118:	3801                	.insn	2, 0x3801
    44b3c11a:	00001067          	.insn	4, 0x1067
	...
    44b3c5d6:	0000                	.insn	2, 0x0000
    44b3c5d8:	d401                	.insn	2, 0xd401
    44b3c5da:	10d6                	.insn	2, 0x10d6
    44b3c5dc:	0000                	.insn	2, 0x0000
	...

Disassembly of section .__pagetable_map_os_0x00000000435b5000:

00000000435b5000 <__pagetable_map_os_0x00000000435b5000>:
	...
    435b5990:	50df 10d3 0000      	.insn	6, 0x10d350df
    435b5996:	0000                	.insn	2, 0x0000
    435b5998:	54df 10d3 0000      	.insn	6, 0x10d354df
	...

Disassembly of section .__pagetable_map_os_0x00000000419ce000:

00000000419ce000 <__pagetable_map_os_0x00000000419ce000>:
	...
    419ce460:	e4df 10d6 0000      	.insn	6, 0x10d6e4df
	...

Disassembly of section .__pagetable_map_os_0x0000000042556000:

0000000042556000 <__pagetable_map_os_0x0000000042556000>:
	...
    42556388:	1048c4d7          	vminu.vx	v9,v4,x17,v0.t
    4255638c:	0000                	.insn	2, 0x0000
	...

Disassembly of section .__pagetable_map_os_0x0000000044ed7000:

0000000044ed7000 <__pagetable_map_os_0x0000000044ed7000>:
    44ed7000:	b401                	.insn	2, 0xb401
    44ed7002:	1064                	.insn	2, 0x1064
	...
    44ed7028:	d801                	.insn	2, 0xd801
    44ed702a:	10d6                	.insn	2, 0x10d6
	...
    44ed7040:	9401                	.insn	2, 0x9401
    44ed7042:	0000106b          	.insn	4, 0x106b
	...
    44ed7056:	0000                	.insn	2, 0x0000
    44ed7058:	c401                	.insn	2, 0xc401
    44ed705a:	1129                	.insn	2, 0x1129
	...
    44ed73c8:	7c01                	.insn	2, 0x7c01
    44ed73ca:	1112                	.insn	2, 0x1112
	...
    44ed7528:	1c01                	.insn	2, 0x1c01
    44ed752a:	10a8                	.insn	2, 0x10a8
	...
    44ed76e0:	c001                	.insn	2, 0xc001
    44ed76e2:	1066                	.insn	2, 0x1066
	...
    44ed7988:	6401                	.insn	2, 0x6401
    44ed798a:	1060                	.insn	2, 0x1060
	...
    44ed7b90:	d801                	.insn	2, 0xd801
    44ed7b92:	1136                	.insn	2, 0x1136
    44ed7b94:	0000                	.insn	2, 0x0000
	...

Disassembly of section .__pagetable_map_os_0x00000000435b6000:

00000000435b6000 <__pagetable_map_os_0x00000000435b6000>:
	...
    435b6848:	105574d7          	vsetvli	x9,x10,261
    435b684c:	0000                	.insn	2, 0x0000
	...

Disassembly of section .__pagetable_map_os_0x0000000044a71000:

0000000044a71000 <__pagetable_map_os_0x0000000044a71000>:
	...
    44a71d70:	1064bcd7          	.insn	4, 0x1064bcd7
    44a71d74:	0000                	.insn	2, 0x0000
	...

Disassembly of section .__pagetable_map_os_0x000000004192d000:

000000004192d000 <__pagetable_map_os_0x000000004192d000>:
	...
    4192d010:	105534d7          	.insn	4, 0x105534d7
	...
    4192d020:	112c78d7          	vsetvli	x17,x24,274
	...
    4192d0c0:	110db8d7          	.insn	4, 0x110db8d7
	...
    4192d238:	105528d7          	vredminu.vs	v17,v5,v10,v0.t
	...
    4192d610:	112bc0d7          	vminu.vx	v1,v18,x23,v0.t
	...
    4192d880:	112c6cd7          	.insn	4, 0x112c6cd7
	...
    4192d9f0:	112e30d7          	.insn	4, 0x112e30d7
    4192d9f4:	0000                	.insn	2, 0x0000
	...

Disassembly of section .__pagetable_map_os_0x00000000419b0000:

00000000419b0000 <__pagetable_map_os_0x00000000419b0000>:
	...
    419b04c8:	112d2cd7          	vredminu.vs	v25,v18,v26,v0.t
    419b04cc:	0000                	.insn	2, 0x0000
	...

Disassembly of section .__pagetable_map_os_0x0000000042a07000:

0000000042a07000 <__pagetable_map_os_0x0000000042a07000>:
	...
    42a07cb8:	1066bcd7          	.insn	4, 0x1066bcd7
    42a07cbc:	0000                	.insn	2, 0x0000
	...

Disassembly of section .__pagetable_map_os_0x000000004449f000:

000000004449f000 <__pagetable_map_os_0x000000004449f000>:
    4449f000:	112d60d7          	.insn	4, 0x112d60d7
	...
    4449f268:	10664cd7          	vminu.vx	v25,v6,x12,v0.t
    4449f26c:	0000                	.insn	2, 0x0000
	...

Disassembly of section .__pagetable_map_os_0x0000000041819000:

0000000041819000 <__pagetable_map_os_0x0000000041819000>:
	...
    41819ff8:	113834d7          	.insn	4, 0x113834d7
    41819ffc:	0000                	.insn	2, 0x0000
	...

Disassembly of section .__pagetable_map_os_0x0000000044db6000:

0000000044db6000 <__pagetable_map_os_0x0000000044db6000>:
	...
    44db6f70:	1060b0d7          	.insn	4, 0x1060b0d7
    44db6f74:	0000                	.insn	2, 0x0000
	...

Disassembly of section .__pagetable_map_os_0x0000000041ae5000:

0000000041ae5000 <__pagetable_map_os_0x0000000041ae5000>:
	...
    41ae5f60:	10495cd7          	vfmin.vf	v25,v4,f18,v0.t
    41ae5f64:	0000                	.insn	2, 0x0000
	...

Disassembly of section .__pagetable_map_os_0x0000000044a6a000:

0000000044a6a000 <__pagetable_map_os_0x0000000044a6a000>:
	...
    44a6a020:	0801                	.insn	2, 0x0801
    44a6a022:	10d4                	.insn	2, 0x10d4
	...
    44a6a118:	9801                	.insn	2, 0x9801
    44a6a11a:	1060                	.insn	2, 0x1060
    44a6a11c:	0000                	.insn	2, 0x0000
	...

Disassembly of section .__pagetable_map_os_0x0000000041826000:

0000000041826000 <__pagetable_map_os_0x0000000041826000>:
	...
    41826038:	106744d7          	vminu.vx	v9,v6,x14,v0.t
    4182603c:	0000                	.insn	2, 0x0000
	...

Disassembly of section .__pagetable_map_os_0x0000000043502000:

0000000043502000 <__pagetable_map_os_0x0000000043502000>:
	...
    43502e98:	1064c4d7          	vminu.vx	v9,v6,x9,v0.t
    43502e9c:	0000                	.insn	2, 0x0000
	...

Disassembly of section .__pagetable_map_os_0x00000000444ba000:

00000000444ba000 <__pagetable_map_os_0x00000000444ba000>:
	...
    444ba170:	7001                	.insn	2, 0x7001
    444ba172:	104e                	.insn	2, 0x104e
    444ba174:	0000                	.insn	2, 0x0000
	...

Disassembly of section .__pagetable_map_os_0x000000004139c000:

000000004139c000 <__pagetable_map_os_0x000000004139c000>:
	...
    4139cd40:	10d524d7          	vredminu.vs	v9,v13,v10,v0.t
    4139cd44:	0000                	.insn	2, 0x0000
	...

Disassembly of section .__pagetable_map_os_0x0000000044b48000:

0000000044b48000 <__pagetable_map_os_0x0000000044b48000>:
	...
    44b480c8:	c001                	.insn	2, 0xc001
    44b480ca:	00001093          	slli	x1,x0,0x0
	...

Disassembly of section .__pagetable_map_os_0x00000000424f0000:

00000000424f0000 <__pagetable_map_os_0x00000000424f0000>:
	...
    424f06f0:	11282cd7          	vredminu.vs	v25,v18,v16,v0.t
    424f06f4:	0000                	.insn	2, 0x0000
	...

Disassembly of section .__pagetable_map_os_0x0000000044a92000:

0000000044a92000 <__pagetable_map_os_0x0000000044a92000>:
	...
    44a92b10:	cc01                	.insn	2, 0xcc01
    44a92b12:	1095                	.insn	2, 0x1095
    44a92b14:	0000                	.insn	2, 0x0000
	...

Disassembly of section .__pagetable_map_os_0x0000000042573000:

0000000042573000 <__pagetable_map_os_0x0000000042573000>:
	...
    42573b90:	1064c0d7          	vminu.vx	v1,v6,x9,v0.t
    42573b94:	0000                	.insn	2, 0x0000
	...

Disassembly of section .__pagetable_map_os_0x0000000044b1c000:

0000000044b1c000 <__pagetable_map_os_0x0000000044b1c000>:
	...
    44b1c280:	1801                	.insn	2, 0x1801
    44b1c282:	10d6                	.insn	2, 0x10d6
    44b1c284:	0000                	.insn	2, 0x0000
	...

Disassembly of section .__pagetable_map_os_0x0000000043586000:

0000000043586000 <__pagetable_map_os_0x0000000043586000>:
	...
    43586eb0:	10d758d7          	vfmin.vf	v17,v13,f14,v0.t
    43586eb4:	0000                	.insn	2, 0x0000
	...

Disassembly of section .__pagetable_map_os_0x00000000419cf000:

00000000419cf000 <__pagetable_map_os_0x00000000419cf000>:
	...
    419cf440:	6801                	.insn	2, 0x6801
    419cf442:	1060                	.insn	2, 0x1060
    419cf444:	0000                	.insn	2, 0x0000
	...

Disassembly of section .__pagetable_map_os_0x000000004181a000:

000000004181a000 <__pagetable_map_os_0x000000004181a000>:
	...
    4181a1f0:	113b58d7          	vfmin.vf	v17,v19,f22,v0.t
    4181a1f4:	0000                	.insn	2, 0x0000
	...

Disassembly of section .__pagetable_map_os_0x0000000043588000:

0000000043588000 <__pagetable_map_os_0x0000000043588000>:
	...
    43588580:	a001                	.insn	2, 0xa001
    43588582:	10d2                	.insn	2, 0x10d2
    43588584:	0000                	.insn	2, 0x0000
	...

Disassembly of section .__pagetable_map_os_0x00000000434a8000:

00000000434a8000 <__pagetable_map_os_0x00000000434a8000>:
	...
    434a81f8:	106070d7          	vsetvli	x1,x0,262
    434a81fc:	0000                	.insn	2, 0x0000
	...

Disassembly of section .__pagetable_map_os_0x0000000043506000:

0000000043506000 <__pagetable_map_os_0x0000000043506000>:
	...
    43506250:	8001                	.insn	2, 0x8001
    43506252:	112a                	.insn	2, 0x112a
    43506254:	0000                	.insn	2, 0x0000
	...

Disassembly of section .__pagetable_map_os_0x0000000044aa0000:

0000000044aa0000 <__pagetable_map_os_0x0000000044aa0000>:
	...
    44aa00a8:	10d6e0d7          	.insn	4, 0x10d6e0d7
    44aa00ac:	0000                	.insn	2, 0x0000
	...
